target datalayout = "e-m:e-p270:32:32-p271:32:32-p272:64:64-i64:64-i128:128-f80:128-n8:16:32:64-S128"
target triple = "x86_64-unknown-linux-gnu"

%"class.std::ios_base::Init" = type { i8 }
%"class.node::MutexBase" = type { %union.pthread_mutex_t }
%union.pthread_mutex_t = type { %struct.__pthread_mutex_s }
%struct.__pthread_mutex_s = type { i32, i32, i32, i32, i32, i16, i16, %struct.__pthread_internal_list }
%struct.__pthread_internal_list = type { ptr, ptr }
%"struct.node::AssertionInfo" = type { ptr, ptr, ptr }
%"struct.std::atomic" = type { %"struct.std::__atomic_base" }
%"struct.std::__atomic_base" = type { i8 }
%struct.uv_async_s = type { ptr, ptr, i32, ptr, %struct.uv__queue, %union.anon.31, ptr, i32, ptr, %struct.uv__queue, i32 }
%union.anon.31 = type { [4 x ptr] }
%struct.uv__queue = type { ptr, ptr }
%union.sem_t = type { i64, [24 x i8] }
%"class.node::EnabledDebugList" = type { [75 x i8] }
%"struct.std::piecewise_construct_t" = type { i8 }
%"class.std::shared_ptr.16" = type { %"class.std::__shared_ptr.17" }
%"class.std::__shared_ptr.17" = type { ptr, %"class.std::__shared_count" }
%"class.std::__shared_count" = type { ptr }
%"class.node::inspector::Agent" = type <{ ptr, %"class.std::shared_ptr", %"class.std::unique_ptr", %"class.std::unique_ptr.2", %"class.std::__cxx11::basic_string", %"class.node::DebugOptions", %"class.std::shared_ptr.10", i8, i8, [6 x i8] }>
%"class.std::shared_ptr" = type { %"class.std::__shared_ptr" }
%"class.std::__shared_ptr" = type { ptr, %"class.std::__shared_count" }
%"class.std::unique_ptr" = type { %"struct.std::__uniq_ptr_data" }
%"struct.std::__uniq_ptr_data" = type { %"class.std::__uniq_ptr_impl" }
%"class.std::__uniq_ptr_impl" = type { %"class.std::tuple" }
%"class.std::tuple" = type { %"struct.std::_Tuple_impl" }
%"struct.std::_Tuple_impl" = type { %"struct.std::_Head_base.1" }
%"struct.std::_Head_base.1" = type { ptr }
%"class.std::unique_ptr.2" = type { %"struct.std::__uniq_ptr_data.3" }
%"struct.std::__uniq_ptr_data.3" = type { %"class.std::__uniq_ptr_impl.4" }
%"class.std::__uniq_ptr_impl.4" = type { %"class.std::tuple.5" }
%"class.std::tuple.5" = type { %"struct.std::_Tuple_impl.6" }
%"struct.std::_Tuple_impl.6" = type { %"struct.std::_Head_base.9" }
%"struct.std::_Head_base.9" = type { ptr }
%"class.std::__cxx11::basic_string" = type { %"struct.std::__cxx11::basic_string<char>::_Alloc_hider", i64, %union.anon }
%"struct.std::__cxx11::basic_string<char>::_Alloc_hider" = type { ptr }
%union.anon = type { i64, [8 x i8] }
%"class.node::DebugOptions" = type { %"class.node::Options", i8, i8, i8, i8, i8, %"class.std::__cxx11::basic_string", %"struct.node::InspectPublishUid", [6 x i8], %"class.node::HostPort" }
%"class.node::Options" = type { ptr }
%"struct.node::InspectPublishUid" = type { i8, i8 }
%"class.node::HostPort" = type <{ %"class.std::__cxx11::basic_string", i16, [6 x i8] }>
%"class.std::shared_ptr.10" = type { %"class.std::__shared_ptr.11" }
%"class.std::__shared_ptr.11" = type { ptr, %"class.std::__shared_count" }
%"class.node::Environment" = type { %"class.node::MemoryRetainer", %"class.std::unordered_multimap", %"class.std::__cxx11::list", ptr, ptr, %struct.uv_timer_s, %struct.uv_check_s, %struct.uv_idle_s, %struct.uv_prepare_s, %struct.uv_check_s, %struct.uv_async_s, i64, %"struct.std::atomic", %"struct.std::atomic", %"class.node::AsyncHooks", %"class.node::ImmediateInfo", %"class.node::AliasedBufferBase.44", %"class.node::TickInfo", %"class.node::permission::Permission", i64, %"class.std::shared_ptr.69", i8, i8, i8, i8, i8, i8, i64, %"class.std::vector.72", %"class.std::unordered_set", %"class.std::unique_ptr.96", %"class.std::unique_ptr.104", %"class.std::__cxx11::basic_string", %"class.std::__cxx11::basic_string", %"class.std::__cxx11::basic_string", i64, %"class.std::unique_ptr.112", %"class.std::__cxx11::basic_string", %"class.std::__cxx11::basic_string", i64, %"class.std::shared_ptr.16", %"class.std::shared_ptr.10", %"class.std::vector", %"class.std::vector", %"class.std::__cxx11::basic_string", i8, i32, i32, i8, i32, i32, i32, i32, %"class.node::AliasedBufferBase.44", %"class.node::AliasedBufferBase.32", i32, %"class.std::unique_ptr.120", %"class.node::AliasedBufferBase.44", i64, double, i64, %"class.std::unique_ptr.128", i8, i64, i64, %"class.std::unordered_set.136", %"class.std::unique_ptr.156", i8, %"class.std::__cxx11::list.164", %"class.node::ListHead", %"class.node::ListHead.169", %"class.std::__cxx11::list.171", i32, i32, %"class.node::EnabledDebugList", %"class.std::vector.176", %"class.std::__cxx11::list.181", %"class.node::MutexBase", %"class.std::__cxx11::list.186", %"class.node::CallbackQueue", %"class.node::MutexBase", %"class.node::CallbackQueue", %"class.node::CallbackQueue", i8, %"struct.std::atomic.201", %"class.node::CleanupQueue", i8, %"class.std::unordered_set.219", %"class.std::function", %"class.std::unique_ptr.234", %"class.node::builtins::BuiltinLoader", %"class.std::function.248", %"class.std::unordered_map.250" }
%"class.node::MemoryRetainer" = type { ptr }
%"class.std::unordered_multimap" = type { %"class.std::_Hashtable" }
%"class.std::_Hashtable" = type { ptr, i64, %"struct.std::__detail::_Hash_node_base", i64, %"struct.std::__detail::_Prime_rehash_policy", ptr }
%"struct.std::__detail::_Hash_node_base" = type { ptr }
%"struct.std::__detail::_Prime_rehash_policy" = type { float, i64 }
%"class.std::__cxx11::list" = type { %"class.std::__cxx11::_List_base" }
%"class.std::__cxx11::_List_base" = type { %"struct.std::__cxx11::_List_base<node::binding::DLib, std::allocator<node::binding::DLib>>::_List_impl" }
%"struct.std::__cxx11::_List_base<node::binding::DLib, std::allocator<node::binding::DLib>>::_List_impl" = type { %"struct.std::__detail::_List_node_header" }
%"struct.std::__detail::_List_node_header" = type { %"struct.std::__detail::_List_node_base", i64 }
%"struct.std::__detail::_List_node_base" = type { ptr, ptr }
%struct.uv_timer_s = type { ptr, ptr, i32, ptr, %struct.uv__queue, %union.anon.27, ptr, i32, ptr, [3 x ptr], i64, i64, i64 }
%union.anon.27 = type { [4 x ptr] }
%struct.uv_idle_s = type { ptr, ptr, i32, ptr, %struct.uv__queue, %union.anon.29, ptr, i32, ptr, %struct.uv__queue }
%union.anon.29 = type { [4 x ptr] }
%struct.uv_prepare_s = type { ptr, ptr, i32, ptr, %struct.uv__queue, %union.anon.30, ptr, i32, ptr, %struct.uv__queue }
%union.anon.30 = type { [4 x ptr] }
%struct.uv_check_s = type { ptr, ptr, i32, ptr, %struct.uv__queue, %union.anon.28, ptr, i32, ptr, %struct.uv__queue }
%union.anon.28 = type { [4 x ptr] }
%"class.node::AsyncHooks" = type { %"class.node::MemoryRetainer", %"class.node::AliasedBufferBase", %"class.node::AliasedBufferBase.32", %"class.node::AliasedBufferBase", %"class.v8::Global.35", %"class.std::vector.37", ptr, %"struct.std::array" }
%"class.node::AliasedBufferBase" = type { %"class.node::MemoryRetainer", ptr, i64, i64, ptr, %"class.v8::Global", ptr }
%"class.v8::Global" = type { %"class.v8::PersistentBase" }
%"class.v8::PersistentBase" = type { %"class.v8::IndirectHandleBase" }
%"class.v8::IndirectHandleBase" = type { ptr }
%"class.v8::Global.35" = type { %"class.v8::PersistentBase.36" }
%"class.v8::PersistentBase.36" = type { %"class.v8::IndirectHandleBase" }
%"class.std::vector.37" = type { %"struct.std::_Vector_base.38" }
%"struct.std::_Vector_base.38" = type { %"struct.std::_Vector_base<v8::Local<v8::Object>, std::allocator<v8::Local<v8::Object>>>::_Vector_impl" }
%"struct.std::_Vector_base<v8::Local<v8::Object>, std::allocator<v8::Local<v8::Object>>>::_Vector_impl" = type { %"struct.std::_Vector_base<v8::Local<v8::Object>, std::allocator<v8::Local<v8::Object>>>::_Vector_impl_data" }
%"struct.std::_Vector_base<v8::Local<v8::Object>, std::allocator<v8::Local<v8::Object>>>::_Vector_impl_data" = type { ptr, ptr, ptr }
%"struct.std::array" = type { [4 x %"class.v8::Global.42"] }
%"class.v8::Global.42" = type { %"class.v8::PersistentBase.43" }
%"class.v8::PersistentBase.43" = type { %"class.v8::IndirectHandleBase" }
%"class.node::ImmediateInfo" = type { %"class.node::MemoryRetainer", %"class.node::AliasedBufferBase.32" }
%"class.node::TickInfo" = type { %"class.node::MemoryRetainer", %"class.node::AliasedBufferBase.47" }
%"class.node::AliasedBufferBase.47" = type { %"class.node::MemoryRetainer", ptr, i64, i64, ptr, %"class.v8::Global.48", ptr }
%"class.v8::Global.48" = type { %"class.v8::PersistentBase.49" }
%"class.v8::PersistentBase.49" = type { %"class.v8::IndirectHandleBase" }
%"class.node::permission::Permission" = type <{ %"class.std::unordered_map", i8, [7 x i8] }>
%"class.std::unordered_map" = type { %"class.std::_Hashtable.50" }
%"class.std::_Hashtable.50" = type { ptr, i64, %"struct.std::__detail::_Hash_node_base", i64, %"struct.std::__detail::_Prime_rehash_policy", ptr }
%"class.std::shared_ptr.69" = type { %"class.std::__shared_ptr.70" }
%"class.std::__shared_ptr.70" = type { ptr, %"class.std::__shared_count" }
%"class.std::vector.72" = type { %"struct.std::_Vector_base.73" }
%"struct.std::_Vector_base.73" = type { %"struct.std::_Vector_base<double, std::allocator<double>>::_Vector_impl" }
%"struct.std::_Vector_base<double, std::allocator<double>>::_Vector_impl" = type { %"struct.std::_Vector_base<double, std::allocator<double>>::_Vector_impl_data" }
%"struct.std::_Vector_base<double, std::allocator<double>>::_Vector_impl_data" = type { ptr, ptr, ptr }
%"class.std::unordered_set" = type { %"class.std::_Hashtable.77" }
%"class.std::_Hashtable.77" = type { ptr, i64, %"struct.std::__detail::_Hash_node_base", i64, %"struct.std::__detail::_Prime_rehash_policy", ptr }
%"class.std::unique_ptr.96" = type { %"struct.std::__uniq_ptr_data.97" }
%"struct.std::__uniq_ptr_data.97" = type { %"class.std::__uniq_ptr_impl.98" }
%"class.std::__uniq_ptr_impl.98" = type { %"class.std::tuple.99" }
%"class.std::tuple.99" = type { %"struct.std::_Tuple_impl.100" }
%"struct.std::_Tuple_impl.100" = type { %"struct.std::_Head_base.103" }
%"struct.std::_Head_base.103" = type { ptr }
%"class.std::unique_ptr.104" = type { %"struct.std::__uniq_ptr_data.105" }
%"struct.std::__uniq_ptr_data.105" = type { %"class.std::__uniq_ptr_impl.106" }
%"class.std::__uniq_ptr_impl.106" = type { %"class.std::tuple.107" }
%"class.std::tuple.107" = type { %"struct.std::_Tuple_impl.108" }
%"struct.std::_Tuple_impl.108" = type { %"struct.std::_Head_base.111" }
%"struct.std::_Head_base.111" = type { ptr }
%"class.std::unique_ptr.112" = type { %"struct.std::__uniq_ptr_data.113" }
%"struct.std::__uniq_ptr_data.113" = type { %"class.std::__uniq_ptr_impl.114" }
%"class.std::__uniq_ptr_impl.114" = type { %"class.std::tuple.115" }
%"class.std::tuple.115" = type { %"struct.std::_Tuple_impl.116" }
%"struct.std::_Tuple_impl.116" = type { %"struct.std::_Head_base.119" }
%"struct.std::_Head_base.119" = type { ptr }
%"class.std::vector" = type { %"struct.std::_Vector_base" }
%"struct.std::_Vector_base" = type { %"struct.std::_Vector_base<std::__cxx11::basic_string<char>, std::allocator<std::__cxx11::basic_string<char>>>::_Vector_impl" }
%"struct.std::_Vector_base<std::__cxx11::basic_string<char>, std::allocator<std::__cxx11::basic_string<char>>>::_Vector_impl" = type { %"struct.std::_Vector_base<std::__cxx11::basic_string<char>, std::allocator<std::__cxx11::basic_string<char>>>::_Vector_impl_data" }
%"struct.std::_Vector_base<std::__cxx11::basic_string<char>, std::allocator<std::__cxx11::basic_string<char>>>::_Vector_impl_data" = type { ptr, ptr, ptr }
%"class.node::AliasedBufferBase.32" = type { %"class.node::MemoryRetainer", ptr, i64, i64, ptr, %"class.v8::Global.33", ptr }
%"class.v8::Global.33" = type { %"class.v8::PersistentBase.34" }
%"class.v8::PersistentBase.34" = type { %"class.v8::IndirectHandleBase" }
%"class.std::unique_ptr.120" = type { %"struct.std::__uniq_ptr_data.121" }
%"struct.std::__uniq_ptr_data.121" = type { %"class.std::__uniq_ptr_impl.122" }
%"class.std::__uniq_ptr_impl.122" = type { %"class.std::tuple.123" }
%"class.std::tuple.123" = type { %"struct.std::_Tuple_impl.124" }
%"struct.std::_Tuple_impl.124" = type { %"struct.std::_Head_base.127" }
%"struct.std::_Head_base.127" = type { ptr }
%"class.node::AliasedBufferBase.44" = type { %"class.node::MemoryRetainer", ptr, i64, i64, ptr, %"class.v8::Global.45", ptr }
%"class.v8::Global.45" = type { %"class.v8::PersistentBase.46" }
%"class.v8::PersistentBase.46" = type { %"class.v8::IndirectHandleBase" }
%"class.std::unique_ptr.128" = type { %"struct.std::__uniq_ptr_data.129" }
%"struct.std::__uniq_ptr_data.129" = type { %"class.std::__uniq_ptr_impl.130" }
%"class.std::__uniq_ptr_impl.130" = type { %"class.std::tuple.131" }
%"class.std::tuple.131" = type { %"struct.std::_Tuple_impl.132" }
%"struct.std::_Tuple_impl.132" = type { %"struct.std::_Head_base.135" }
%"struct.std::_Head_base.135" = type { ptr }
%"class.std::unordered_set.136" = type { %"class.std::_Hashtable.137" }
%"class.std::_Hashtable.137" = type { ptr, i64, %"struct.std::__detail::_Hash_node_base", i64, %"struct.std::__detail::_Prime_rehash_policy", ptr }
%"class.std::unique_ptr.156" = type { %"struct.std::__uniq_ptr_data.157" }
%"struct.std::__uniq_ptr_data.157" = type { %"class.std::__uniq_ptr_impl.158" }
%"class.std::__uniq_ptr_impl.158" = type { %"class.std::tuple.159" }
%"class.std::tuple.159" = type { %"struct.std::_Tuple_impl.160" }
%"struct.std::_Tuple_impl.160" = type { %"struct.std::_Head_base.163" }
%"struct.std::_Head_base.163" = type { ptr }
%"class.std::__cxx11::list.164" = type { %"class.std::__cxx11::_List_base.165" }
%"class.std::__cxx11::_List_base.165" = type { %"struct.std::__cxx11::_List_base<node::DeserializeRequest, std::allocator<node::DeserializeRequest>>::_List_impl" }
%"struct.std::__cxx11::_List_base<node::DeserializeRequest, std::allocator<node::DeserializeRequest>>::_List_impl" = type { %"struct.std::__detail::_List_node_header" }
%"class.node::ListHead" = type { %"class.node::ListNode" }
%"class.node::ListNode" = type { ptr, ptr }
%"class.node::ListHead.169" = type { %"class.node::ListNode.170" }
%"class.node::ListNode.170" = type { ptr, ptr }
%"class.std::__cxx11::list.171" = type { %"class.std::__cxx11::_List_base.172" }
%"class.std::__cxx11::_List_base.172" = type { %"struct.std::__cxx11::_List_base<node::Environment::HandleCleanup, std::allocator<node::Environment::HandleCleanup>>::_List_impl" }
%"struct.std::__cxx11::_List_base<node::Environment::HandleCleanup, std::allocator<node::Environment::HandleCleanup>>::_List_impl" = type { %"struct.std::__detail::_List_node_header" }
%"class.std::vector.176" = type { %"struct.std::_Vector_base.177" }
%"struct.std::_Vector_base.177" = type { %"struct.std::_Vector_base<v8::Global<v8::Context>, std::allocator<v8::Global<v8::Context>>>::_Vector_impl" }
%"struct.std::_Vector_base<v8::Global<v8::Context>, std::allocator<v8::Global<v8::Context>>>::_Vector_impl" = type { %"struct.std::_Vector_base<v8::Global<v8::Context>, std::allocator<v8::Global<v8::Context>>>::_Vector_impl_data" }
%"struct.std::_Vector_base<v8::Global<v8::Context>, std::allocator<v8::Global<v8::Context>>>::_Vector_impl_data" = type { ptr, ptr, ptr }
%"class.std::__cxx11::list.181" = type { %"class.std::__cxx11::_List_base.182" }
%"class.std::__cxx11::_List_base.182" = type { %"struct.std::__cxx11::_List_base<node::node_module, std::allocator<node::node_module>>::_List_impl" }
%"struct.std::__cxx11::_List_base<node::node_module, std::allocator<node::node_module>>::_List_impl" = type { %"struct.std::__detail::_List_node_header" }
%"class.std::__cxx11::list.186" = type { %"class.std::__cxx11::_List_base.187" }
%"class.std::__cxx11::_List_base.187" = type { %"struct.std::__cxx11::_List_base<node::Environment::ExitCallback, std::allocator<node::Environment::ExitCallback>>::_List_impl" }
%"struct.std::__cxx11::_List_base<node::Environment::ExitCallback, std::allocator<node::Environment::ExitCallback>>::_List_impl" = type { %"struct.std::__detail::_List_node_header" }
%"class.node::CallbackQueue" = type { %"struct.std::atomic.191", %"class.std::unique_ptr.193", ptr }
%"struct.std::atomic.191" = type { %"struct.std::__atomic_base.192" }
%"struct.std::__atomic_base.192" = type { i64 }
%"class.std::unique_ptr.193" = type { %"struct.std::__uniq_ptr_data.194" }
%"struct.std::__uniq_ptr_data.194" = type { %"class.std::__uniq_ptr_impl.195" }
%"class.std::__uniq_ptr_impl.195" = type { %"class.std::tuple.196" }
%"class.std::tuple.196" = type { %"struct.std::_Tuple_impl.197" }
%"struct.std::_Tuple_impl.197" = type { %"struct.std::_Head_base.200" }
%"struct.std::_Head_base.200" = type { ptr }
%"struct.std::atomic.201" = type { %"struct.std::__atomic_base.202" }
%"struct.std::__atomic_base.202" = type { ptr }
%"class.node::CleanupQueue" = type { %"class.node::MemoryRetainer", %"class.std::unordered_set.203", i64 }
%"class.std::unordered_set.203" = type { %"class.std::_Hashtable.204" }
%"class.std::_Hashtable.204" = type { ptr, i64, %"struct.std::__detail::_Hash_node_base", i64, %"struct.std::__detail::_Prime_rehash_policy", ptr }
%"class.std::unordered_set.219" = type { %"class.std::_Hashtable.220" }
%"class.std::_Hashtable.220" = type { ptr, i64, %"struct.std::__detail::_Hash_node_base", i64, %"struct.std::__detail::_Prime_rehash_policy", ptr }
%"class.std::function" = type { %"class.std::_Function_base", ptr }
%"class.std::_Function_base" = type { %"union.std::_Any_data", ptr }
%"union.std::_Any_data" = type { %"union.std::_Nocopy_types" }
%"union.std::_Nocopy_types" = type { { i64, i64 } }
%"class.std::unique_ptr.234" = type { %"struct.std::__uniq_ptr_data.235" }
%"struct.std::__uniq_ptr_data.235" = type { %"class.std::__uniq_ptr_impl.236" }
%"class.std::__uniq_ptr_impl.236" = type { %"class.std::tuple.237" }
%"class.std::tuple.237" = type { %"struct.std::_Tuple_impl.238" }
%"struct.std::_Tuple_impl.238" = type { %"struct.std::_Head_base.241" }
%"struct.std::_Head_base.241" = type { ptr }
%"class.node::builtins::BuiltinLoader" = type { %"class.node::ThreadsafeCopyOnWrite", %"class.node::UnionBytes", %"class.std::shared_ptr.245" }
%"class.node::ThreadsafeCopyOnWrite" = type { %"class.node::CopyOnWrite" }
%"class.node::CopyOnWrite" = type { %"class.std::shared_ptr.242" }
%"class.std::shared_ptr.242" = type { %"class.std::__shared_ptr.243" }
%"class.std::__shared_ptr.243" = type { ptr, %"class.std::__shared_count" }
%"class.node::UnionBytes" = type { ptr, ptr }
%"class.std::shared_ptr.245" = type { %"class.std::__shared_ptr.246" }
%"class.std::__shared_ptr.246" = type { ptr, %"class.std::__shared_count" }
%"class.std::function.248" = type { %"class.std::_Function_base", ptr }
%"class.std::unordered_map.250" = type { %"class.std::_Hashtable.251" }
%"class.std::_Hashtable.251" = type { ptr, i64, %"struct.std::__detail::_Hash_node_base", i64, %"struct.std::__detail::_Prime_rehash_policy", ptr }
%"class.node::EnvironmentOptions" = type { %"class.node::Options", i8, %"class.std::vector", i8, %"class.std::__cxx11::basic_string", i8, i8, i8, i8, i8, i8, i8, i8, i8, %"class.std::__cxx11::basic_string", %"class.std::__cxx11::basic_string", %"class.std::__cxx11::basic_string", %"class.std::__cxx11::basic_string", i8, i8, %"class.std::vector", %"class.std::vector", i8, i8, i8, i8, i8, i8, i8, i64, %"class.std::__cxx11::basic_string", i8, i64, i8, i8, i8, i8, i8, %"class.std::vector", i8, i8, i8, i8, i8, %"class.std::__cxx11::basic_string", i64, %"class.std::__cxx11::basic_string", i8, %"class.std::__cxx11::basic_string", %"class.std::__cxx11::basic_string", i64, i8, %"class.std::__cxx11::basic_string", %"class.std::__cxx11::basic_string", %"class.std::__cxx11::basic_string", i8, i8, i64, i64, i8, %"class.std::vector", %"class.std::vector", %"class.std::vector", i8, i8, %"class.std::__cxx11::basic_string", i8, i8, i8, i8, i8, i8, i8, i8, i8, i8, %"class.std::__cxx11::basic_string", %"class.std::vector", i8, i8, i8, i8, %"class.std::vector", i8, i8, %"class.std::__cxx11::basic_string", i8, i8, i8, i8, i8, i8, i8, i8, i8, %"class.std::__cxx11::basic_string", %"class.std::vector", %"class.std::vector", %"class.std::vector", %"class.node::DebugOptions" }
%"class.node::MutexBase<node::LibuvMutexTraits>::ScopedLock" = type { ptr }
%class.anon = type { i8 }
%class.anon.270 = type { i8 }
%"class.std::shared_ptr.272" = type { %"class.std::__shared_ptr.273" }
%"class.std::__shared_ptr.273" = type { ptr, %"class.std::__shared_count" }
%"class.std::allocator.492" = type { i8 }
%"struct.std::_Sp_alloc_shared_tag" = type { ptr }
%union.pthread_attr_t = type { i64, [48 x i8] }
%struct.__sigset_t = type { [16 x i64] }
%"class.node::inspector::ParentInspectorHandle" = type { i64, %"class.std::__cxx11::basic_string", %"class.std::shared_ptr.272", i8, %"class.std::__cxx11::basic_string" }
%"class.std::shared_ptr.317" = type { %"class.std::__shared_ptr.318" }
%"class.std::__shared_ptr.318" = type { ptr, %"class.std::__shared_count" }
%"class.node::inspector::NodeInspectorClient" = type { %"class.v8_inspector::V8InspectorClient", ptr, i8, i8, %"class.std::unique_ptr.275", %"class.std::unordered_map.283", %"class.std::unordered_map.303", i32, i8, i8, i8, %"class.std::shared_ptr.317", %"class.std::shared_ptr.320" }
%"class.v8_inspector::V8InspectorClient" = type { ptr }
%"class.std::unique_ptr.275" = type { %"struct.std::__uniq_ptr_data.276" }
%"struct.std::__uniq_ptr_data.276" = type { %"class.std::__uniq_ptr_impl.277" }
%"class.std::__uniq_ptr_impl.277" = type { %"class.std::tuple.278" }
%"class.std::tuple.278" = type { %"struct.std::_Tuple_impl.279" }
%"struct.std::_Tuple_impl.279" = type { %"struct.std::_Head_base.282" }
%"struct.std::_Head_base.282" = type { ptr }
%"class.std::unordered_map.283" = type { %"class.std::_Hashtable.284" }
%"class.std::_Hashtable.284" = type { ptr, i64, %"struct.std::__detail::_Hash_node_base", i64, %"struct.std::__detail::_Prime_rehash_policy", ptr }
%"class.std::unordered_map.303" = type { %"class.std::_Hashtable.304" }
%"class.std::_Hashtable.304" = type { ptr, i64, %"struct.std::__detail::_Hash_node_base", i64, %"struct.std::__detail::_Prime_rehash_policy", ptr }
%"class.std::shared_ptr.320" = type { %"class.std::__shared_ptr.321" }
%"class.std::__shared_ptr.321" = type { ptr, %"class.std::__shared_count" }
%"class.std::basic_string_view" = type { i64, ptr }
%"class.v8::Local.510" = type { %"class.v8::LocalBase.511" }
%"class.v8::LocalBase.511" = type { %"class.v8::IndirectHandleBase" }
%"class.v8::HandleScope" = type { ptr, ptr, ptr }
%"class.v8::Local.346" = type { %"class.v8::LocalBase.347" }
%"class.v8::LocalBase.347" = type { %"class.v8::IndirectHandleBase" }
%"class.v8::MaybeLocal.512" = type { %"class.v8::Local.510" }
%"class.v8::Local.513" = type { %"class.v8::LocalBase.514" }
%"class.v8::LocalBase.514" = type { %"class.v8::IndirectHandleBase" }
%"class.v8::Local" = type { %"class.v8::LocalBase" }
%"class.v8::LocalBase" = type { %"class.v8::IndirectHandleBase" }
%"class.v8::Maybe" = type { i8, i8 }
%"class.v8::MaybeLocal" = type { %"class.v8::Local.346" }
%"class.std::unique_ptr.323" = type { %"struct.std::__uniq_ptr_data.324" }
%"struct.std::__uniq_ptr_data.324" = type { %"class.std::__uniq_ptr_impl.325" }
%"class.std::__uniq_ptr_impl.325" = type { %"class.std::tuple.326" }
%"class.std::tuple.326" = type { %"struct.std::_Tuple_impl.327" }
%"struct.std::_Tuple_impl.327" = type { %"struct.std::_Head_base.330" }
%"struct.std::_Head_base.330" = type { ptr }
%"class.std::unique_ptr.331" = type { %"struct.std::__uniq_ptr_data.332" }
%"struct.std::__uniq_ptr_data.332" = type { %"class.std::__uniq_ptr_impl.333" }
%"class.std::__uniq_ptr_impl.333" = type { %"class.std::tuple.334" }
%"class.std::tuple.334" = type { %"struct.std::_Tuple_impl.335" }
%"struct.std::_Tuple_impl.335" = type { %"struct.std::_Head_base.338" }
%"struct.std::_Head_base.338" = type { ptr }
%"class.std::unique_ptr.517" = type { %"struct.std::__uniq_ptr_data.518" }
%"struct.std::__uniq_ptr_data.518" = type { %"class.std::__uniq_ptr_impl.519" }
%"class.std::__uniq_ptr_impl.519" = type { %"class.std::tuple.520" }
%"class.std::tuple.520" = type { %"struct.std::_Tuple_impl.521" }
%"struct.std::_Tuple_impl.521" = type { %"struct.std::_Head_base.524" }
%"struct.std::_Head_base.524" = type { ptr }
%"class.node::inspector::(anonymous namespace)::SameThreadInspectorSession" = type { %"class.node::inspector::InspectorSession", i32, %"class.std::weak_ptr" }
%"class.node::inspector::InspectorSession" = type { ptr }
%"class.std::weak_ptr" = type { %"class.std::__weak_ptr" }
%"class.std::__weak_ptr" = type { ptr, %"class.std::__weak_count" }
%"class.std::__weak_count" = type { ptr }
%"struct.std::__detail::_Node_iterator.661" = type { %"struct.std::__detail::_Node_iterator_base.662" }
%"struct.std::__detail::_Node_iterator_base.662" = type { ptr }
%"struct.std::pair.655" = type { i32, %"class.std::unique_ptr.517" }
%"class.v8::Local.348" = type { %"class.v8::LocalBase.349" }
%"class.v8::LocalBase.349" = type { %"class.v8::IndirectHandleBase" }
%"class.v8::ScriptOrigin" = type { ptr, %"class.v8::Local.346", i32, i32, %"class.v8::ScriptOriginOptions", i32, %"class.v8::Local.346", %"class.v8::Local.716" }
%"class.v8::ScriptOriginOptions" = type { i32 }
%"class.v8::Local.716" = type { %"class.v8::LocalBase.717" }
%"class.v8::LocalBase.717" = type { %"class.v8::IndirectHandleBase" }
%"class.v8::Local.718" = type { %"class.v8::LocalBase.719" }
%"class.v8::LocalBase.719" = type { %"class.v8::IndirectHandleBase" }
%"class.v8::Local.720" = type { %"class.v8::LocalBase.721" }
%"class.v8::LocalBase.721" = type { %"class.v8::IndirectHandleBase" }
%"class.v8_inspector::StringView" = type { i8, i64, %union.anon.354 }
%union.anon.354 = type { ptr }
%"class.std::unique_ptr.585" = type { %"struct.std::__uniq_ptr_data.586" }
%"struct.std::__uniq_ptr_data.586" = type { %"class.std::__uniq_ptr_impl.587" }
%"class.std::__uniq_ptr_impl.587" = type { %"class.std::tuple.588" }
%"class.std::tuple.588" = type { %"struct.std::_Tuple_impl.589" }
%"struct.std::_Tuple_impl.589" = type { %"struct.std::_Head_base.592" }
%"struct.std::_Head_base.592" = type { ptr }
%"class.v8::Maybe.722" = type { i8, i32 }
%"class.std::unique_ptr.723" = type { %"struct.std::__uniq_ptr_data.724" }
%"struct.std::__uniq_ptr_data.724" = type { %"class.std::__uniq_ptr_impl.725" }
%"class.std::__uniq_ptr_impl.725" = type { %"class.std::tuple.726" }
%"class.std::tuple.726" = type { %"struct.std::_Tuple_impl.727" }
%"struct.std::_Tuple_impl.727" = type { %"struct.std::_Head_base.730" }
%"struct.std::_Head_base.730" = type { ptr }
%"class.v8::Local.350" = type { %"class.v8::LocalBase.351" }
%"class.v8::LocalBase.351" = type { %"class.v8::IndirectHandleBase" }
%"class.v8::LocalBase.353" = type { %"class.v8::IndirectHandleBase" }
%"class.v8::Local.352" = type { %"class.v8::LocalBase.353" }
%"class.v8::TryCatch" = type <{ ptr, ptr, ptr, ptr, i64, i8, [7 x i8] }>
%class.anon.355 = type { ptr }
%"class.v8_inspector::V8ContextInfo" = type <{ %"class.v8::Local", i32, [4 x i8], %"class.v8_inspector::StringView", %"class.v8_inspector::StringView", %"class.v8_inspector::StringView", i8, [7 x i8] }>
%"struct.node::ContextInfo" = type <{ %"class.std::__cxx11::basic_string", %"class.std::__cxx11::basic_string", i8, [7 x i8] }>
%"class.std::unique_ptr.393" = type { %"struct.std::__uniq_ptr_data.394" }
%"struct.std::__uniq_ptr_data.394" = type { %"class.std::__uniq_ptr_impl.395" }
%"class.std::__uniq_ptr_impl.395" = type { %"class.std::tuple.396" }
%"class.std::tuple.396" = type { %"struct.std::_Tuple_impl.397" }
%"struct.std::_Tuple_impl.397" = type { %"struct.std::_Head_base.400" }
%"struct.std::_Head_base.400" = type { ptr }
%"class.std::allocator" = type { i8 }
%"class.std::_Sp_counted_base" = type { ptr, i32, i32 }
%"class.node::IsolateData" = type { %"class.node::MemoryRetainer", i64, %"class.std::unordered_map.403", %"class.v8::Eternal", %"class.v8::Eternal", %"class.v8::Eternal", %"class.v8::Eternal", %"class.v8::Eternal", %"class.v8::Eternal", %"class.v8::Eternal", %"class.v8::Eternal", %"class.v8::Eternal", %"class.v8::Eternal", %"class.v8::Eternal", %"class.v8::Eternal", %"class.v8::Eternal.423", %"class.v8::Eternal.423", %"class.v8::Eternal.423", %"class.v8::Eternal.423", %"class.v8::Eternal.423", %"class.v8::Eternal.423", %"class.v8::Eternal.423", %"class.v8::Eternal.423", %"class.v8::Eternal.423", %"class.v8::Eternal.423", %"class.v8::Eternal.423", %"class.v8::Eternal.423", %"class.v8::Eternal.423", %"class.v8::Eternal.423", %"class.v8::Eternal.423", %"class.v8::Eternal.424", %"class.v8::Eternal.424", %"class.v8::Eternal.424", %"class.v8::Eternal.424", %"class.v8::Eternal.424", %"class.v8::Eternal.424", %"class.v8::Eternal.424", %"class.v8::Eternal.424", %"class.v8::Eternal.424", %"class.v8::Eternal.424", %"class.v8::Eternal.424", %"class.v8::Eternal.424", %"class.v8::Eternal.424", %"class.v8::Eternal.424", %"class.v8::Eternal.424", %"class.v8::Eternal.424", %"class.v8::Eternal.424", %"class.v8::Eternal.424", %"class.v8::Eternal.424", %"class.v8::Eternal.424", %"class.v8::Eternal.424", %"class.v8::Eternal.424", %"class.v8::Eternal.424", %"class.v8::Eternal.424", %"class.v8::Eternal.424", %"class.v8::Eternal.424", %"class.v8::Eternal.424", %"class.v8::Eternal.424", %"class.v8::Eternal.424", %"class.v8::Eternal.424", %"class.v8::Eternal.424", %"class.v8::Eternal.424", %"class.v8::Eternal.424", %"class.v8::Eternal.424", %"class.v8::Eternal.424", %"class.v8::Eternal.424", %"class.v8::Eternal.424", %"class.v8::Eternal.424", %"class.v8::Eternal.424", %"class.v8::Eternal.424", %"class.v8::Eternal.424", %"class.v8::Eternal.424", %"class.v8::Eternal.424", %"class.v8::Eternal.424", %"class.v8::Eternal.424", %"class.v8::Eternal.424", %"class.v8::Eternal.424", %"class.v8::Eternal.424", %"class.v8::Eternal.424", %"class.v8::Eternal.424", %"class.v8::Eternal.424", %"class.v8::Eternal.424", %"class.v8::Eternal.424", %"class.v8::Eternal.424", %"class.v8::Eternal.424", %"class.v8::Eternal.424", %"class.v8::Eternal.424", %"class.v8::Eternal.424", %"class.v8::Eternal.424", %"class.v8::Eternal.424", %"class.v8::Eternal.424", %"class.v8::Eternal.424", %"class.v8::Eternal.424", %"class.v8::Eternal.424", %"class.v8::Eternal.424", %"class.v8::Eternal.424", %"class.v8::Eternal.424", %"class.v8::Eternal.424", %"class.v8::Eternal.424", %"class.v8::Eternal.424", %"class.v8::Eternal.424", %"class.v8::Eternal.424", %"class.v8::Eternal.424", %"class.v8::Eternal.424", %"class.v8::Eternal.424", %"class.v8::Eternal.424", %"class.v8::Eternal.424", %"class.v8::Eternal.424", %"class.v8::Eternal.424", %"class.v8::Eternal.424", %"class.v8::Eternal.424", %"class.v8::Eternal.424", %"class.v8::Eternal.424", %"class.v8::Eternal.424", %"class.v8::Eternal.424", %"class.v8::Eternal.424", %"class.v8::Eternal.424", %"class.v8::Eternal.424", %"class.v8::Eternal.424", %"class.v8::Eternal.424", %"class.v8::Eternal.424", %"class.v8::Eternal.424", %"class.v8::Eternal.424", %"class.v8::Eternal.424", %"class.v8::Eternal.424", %"class.v8::Eternal.424", %"class.v8::Eternal.424", %"class.v8::Eternal.424", %"class.v8::Eternal.424", %"class.v8::Eternal.424", %"class.v8::Eternal.424", %"class.v8::Eternal.424", %"class.v8::Eternal.424", %"class.v8::Eternal.424", %"class.v8::Eternal.424", %"class.v8::Eternal.424", %"class.v8::Eternal.424", %"class.v8::Eternal.424", %"class.v8::Eternal.424", %"class.v8::Eternal.424", %"class.v8::Eternal.424", %"class.v8::Eternal.424", %"class.v8::Eternal.424", %"class.v8::Eternal.424", %"class.v8::Eternal.424", %"class.v8::Eternal.424", %"class.v8::Eternal.424", %"class.v8::Eternal.424", %"class.v8::Eternal.424", %"class.v8::Eternal.424", %"class.v8::Eternal.424", %"class.v8::Eternal.424", %"class.v8::Eternal.424", %"class.v8::Eternal.424", %"class.v8::Eternal.424", %"class.v8::Eternal.424", %"class.v8::Eternal.424", %"class.v8::Eternal.424", %"class.v8::Eternal.424", %"class.v8::Eternal.424", %"class.v8::Eternal.424", %"class.v8::Eternal.424", %"class.v8::Eternal.424", %"class.v8::Eternal.424", %"class.v8::Eternal.424", %"class.v8::Eternal.424", %"class.v8::Eternal.424", %"class.v8::Eternal.424", %"class.v8::Eternal.424", %"class.v8::Eternal.424", %"class.v8::Eternal.424", %"class.v8::Eternal.424", %"class.v8::Eternal.424", %"class.v8::Eternal.424", %"class.v8::Eternal.424", %"class.v8::Eternal.424", %"class.v8::Eternal.424", %"class.v8::Eternal.424", %"class.v8::Eternal.424", %"class.v8::Eternal.424", %"class.v8::Eternal.424", %"class.v8::Eternal.424", %"class.v8::Eternal.424", %"class.v8::Eternal.424", %"class.v8::Eternal.424", %"class.v8::Eternal.424", %"class.v8::Eternal.424", %"class.v8::Eternal.424", %"class.v8::Eternal.424", %"class.v8::Eternal.424", %"class.v8::Eternal.424", %"class.v8::Eternal.424", %"class.v8::Eternal.424", %"class.v8::Eternal.424", %"class.v8::Eternal.424", %"class.v8::Eternal.424", %"class.v8::Eternal.424", %"class.v8::Eternal.424", %"class.v8::Eternal.424", %"class.v8::Eternal.424", %"class.v8::Eternal.424", %"class.v8::Eternal.424", %"class.v8::Eternal.424", %"class.v8::Eternal.424", %"class.v8::Eternal.424", %"class.v8::Eternal.424", %"class.v8::Eternal.424", %"class.v8::Eternal.424", %"class.v8::Eternal.424", %"class.v8::Eternal.424", %"class.v8::Eternal.424", %"class.v8::Eternal.424", %"class.v8::Eternal.424", %"class.v8::Eternal.424", %"class.v8::Eternal.424", %"class.v8::Eternal.424", %"class.v8::Eternal.424", %"class.v8::Eternal.424", %"class.v8::Eternal.424", %"class.v8::Eternal.424", %"class.v8::Eternal.424", %"class.v8::Eternal.424", %"class.v8::Eternal.424", %"class.v8::Eternal.424", %"class.v8::Eternal.424", %"class.v8::Eternal.424", %"class.v8::Eternal.424", %"class.v8::Eternal.424", %"class.v8::Eternal.424", %"class.v8::Eternal.424", %"class.v8::Eternal.424", %"class.v8::Eternal.424", %"class.v8::Eternal.424", %"class.v8::Eternal.424", %"class.v8::Eternal.424", %"class.v8::Eternal.424", %"class.v8::Eternal.424", %"class.v8::Eternal.424", %"class.v8::Eternal.424", %"class.v8::Eternal.424", %"class.v8::Eternal.424", %"class.v8::Eternal.424", %"class.v8::Eternal.424", %"class.v8::Eternal.424", %"class.v8::Eternal.424", %"class.v8::Eternal.424", %"class.v8::Eternal.424", %"class.v8::Eternal.424", %"class.v8::Eternal.424", %"class.v8::Eternal.424", %"class.v8::Eternal.424", %"class.v8::Eternal.424", %"class.v8::Eternal.424", %"class.v8::Eternal.424", %"class.v8::Eternal.424", %"class.v8::Eternal.424", %"class.v8::Eternal.424", %"class.v8::Eternal.424", %"class.v8::Eternal.424", %"class.v8::Eternal.424", %"class.v8::Eternal.424", %"class.v8::Eternal.424", %"class.v8::Eternal.424", %"class.v8::Eternal.424", %"class.v8::Eternal.424", %"class.v8::Eternal.424", %"class.v8::Eternal.424", %"class.v8::Eternal.424", %"class.v8::Eternal.424", %"class.v8::Eternal.424", %"class.v8::Eternal.424", %"class.v8::Eternal.424", %"class.v8::Eternal.424", %"class.v8::Eternal.424", %"class.v8::Eternal.424", %"class.v8::Eternal.424", %"class.v8::Eternal.424", %"class.v8::Eternal.424", %"class.v8::Eternal.424", %"class.v8::Eternal.424", %"class.v8::Eternal.424", %"class.v8::Eternal.424", %"class.v8::Eternal.424", %"class.v8::Eternal.424", %"class.v8::Eternal.424", %"class.v8::Eternal.424", %"class.v8::Eternal.424", %"class.v8::Eternal.424", %"class.v8::Eternal.424", %"class.v8::Eternal.424", %"class.v8::Eternal.424", %"class.v8::Eternal.424", %"class.v8::Eternal.424", %"class.v8::Eternal.424", %"class.v8::Eternal.424", %"class.v8::Eternal.424", %"class.v8::Eternal.424", %"class.v8::Eternal.424", %"class.v8::Eternal.424", %"class.v8::Eternal.424", %"class.v8::Eternal.424", %"class.v8::Eternal.424", %"class.v8::Eternal.424", %"class.v8::Eternal.424", %"class.v8::Eternal.424", %"class.v8::Eternal.424", %"class.v8::Eternal.424", %"class.v8::Eternal.424", %"class.v8::Eternal.424", %"class.v8::Eternal.424", %"class.v8::Eternal.424", %"class.v8::Eternal.424", %"class.v8::Eternal.424", %"class.v8::Eternal.424", %"class.v8::Eternal.424", %"class.v8::Eternal.425", %"class.v8::Eternal.425", %"class.v8::Eternal.426", %"class.v8::Eternal.425", %"class.v8::Eternal.425", %"class.v8::Eternal.425", %"class.v8::Eternal.426", %"class.v8::Eternal.426", %"class.v8::Eternal.425", %"class.v8::Eternal.426", %"class.v8::Eternal.425", %"class.v8::Eternal.426", %"class.v8::Eternal.426", %"class.v8::Eternal.426", %"class.v8::Eternal.425", %"class.v8::Eternal.426", %"class.v8::Eternal.426", %"class.v8::Eternal.425", %"class.v8::Eternal.425", %"class.v8::Eternal.426", %"class.v8::Eternal.426", %"class.v8::Eternal.426", %"class.v8::Eternal.426", %"class.v8::Eternal.425", %"class.v8::Eternal.425", %"class.v8::Eternal.425", %"class.v8::Eternal.425", %"class.v8::Eternal.425", %"class.v8::Eternal.425", %"class.v8::Eternal.426", %"class.v8::Eternal.425", %"class.v8::Eternal.425", %"class.v8::Eternal.425", %"class.v8::Eternal.426", %"class.v8::Eternal.425", %"class.v8::Eternal.425", %"class.v8::Eternal.426", %"class.v8::Eternal.425", %"class.v8::Eternal.425", %"class.v8::Eternal.426", %"class.v8::Eternal.425", %"class.v8::Eternal.425", %"class.v8::Eternal.426", %"class.v8::Eternal.426", %"class.v8::Eternal.425", %"class.v8::Eternal", %"class.v8::Eternal", %"class.v8::Eternal", %"class.v8::Eternal", %"class.v8::Eternal", %"class.v8::Eternal", %"class.v8::Eternal", %"class.v8::Eternal", %"class.v8::Eternal", %"class.v8::Eternal", %"class.v8::Eternal", %"class.v8::Eternal", %"class.v8::Eternal", %"class.v8::Eternal", %"class.v8::Eternal", %"class.v8::Eternal", %"class.v8::Eternal", %"class.v8::Eternal", %"class.v8::Eternal", %"class.v8::Eternal", %"class.v8::Eternal", %"class.v8::Eternal", %"class.v8::Eternal", %"class.v8::Eternal", %"class.v8::Eternal", %"class.v8::Eternal", %"class.v8::Eternal", %"class.v8::Eternal", %"class.v8::Eternal", %"class.v8::Eternal", %"class.v8::Eternal", %"class.v8::Eternal", %"class.v8::Eternal", %"class.v8::Eternal", %"class.v8::Eternal", %"class.v8::Eternal", %"class.v8::Eternal", %"class.v8::Eternal", %"class.v8::Eternal", %"class.v8::Eternal", %"class.v8::Eternal", %"class.v8::Eternal", %"class.v8::Eternal", %"class.v8::Eternal", %"class.v8::Eternal", %"class.v8::Eternal", %"class.v8::Eternal", %"class.v8::Eternal", %"class.v8::Eternal", %"class.v8::Eternal", %"class.v8::Eternal", %"class.v8::Eternal", %"class.v8::Eternal", %"class.v8::Eternal", %"class.v8::Eternal", %"class.v8::Eternal", %"class.v8::Eternal", %"class.v8::Eternal", %"class.v8::Eternal", %"class.v8::Eternal", %"class.v8::Eternal.426", %"class.v8::Eternal.426", %"class.v8::Eternal.426", %"class.v8::Eternal.426", %"class.v8::Eternal.426", %"class.v8::Eternal.426", %"class.v8::Eternal.426", %"class.v8::Eternal.426", %"class.v8::Eternal.426", %"class.v8::Eternal.426", %"class.v8::Eternal.426", %"class.v8::Eternal.426", %"class.v8::Eternal.426", %"class.v8::Eternal.426", %"class.v8::Eternal.426", %"class.v8::Eternal.426", %"class.v8::Eternal.426", %"struct.std::array.427", ptr, ptr, ptr, ptr, ptr, %"class.std::optional", %"class.std::unique_ptr.440", %"class.std::shared_ptr.448", ptr, ptr }
%"class.std::unordered_map.403" = type { %"class.std::_Hashtable.404" }
%"class.std::_Hashtable.404" = type { ptr, i64, %"struct.std::__detail::_Hash_node_base", i64, %"struct.std::__detail::_Prime_rehash_policy", ptr }
%"class.v8::Eternal.423" = type { %"class.v8::IndirectHandleBase" }
%"class.v8::Eternal.424" = type { %"class.v8::IndirectHandleBase" }
%"class.v8::Eternal.425" = type { %"class.v8::IndirectHandleBase" }
%"class.v8::Eternal" = type { %"class.v8::IndirectHandleBase" }
%"class.v8::Eternal.426" = type { %"class.v8::IndirectHandleBase" }
%"struct.std::array.427" = type { [64 x %"class.v8::Eternal.424"] }
%"class.std::optional" = type { %"struct.std::_Optional_base" }
%"struct.std::_Optional_base" = type { %"struct.std::_Optional_payload" }
%"struct.std::_Optional_payload" = type { %"struct.std::_Optional_payload.base.437", [7 x i8] }
%"struct.std::_Optional_payload.base.437" = type { %"struct.std::_Optional_payload_base.base.436" }
%"struct.std::_Optional_payload_base.base.436" = type <{ %"union.std::_Optional_payload_base<node::SnapshotConfig>::_Storage", i8 }>
%"union.std::_Optional_payload_base<node::SnapshotConfig>::_Storage" = type { %"struct.node::SnapshotConfig" }
%"struct.node::SnapshotConfig" = type { i32, [4 x i8], %"class.std::optional.429" }
%"class.std::optional.429" = type { %"struct.std::_Optional_base.430" }
%"struct.std::_Optional_base.430" = type { %"struct.std::_Optional_payload.432" }
%"struct.std::_Optional_payload.432" = type { %"struct.std::_Optional_payload.base", [7 x i8] }
%"struct.std::_Optional_payload.base" = type { %"struct.std::_Optional_payload_base.base" }
%"struct.std::_Optional_payload_base.base" = type <{ %"union.std::_Optional_payload_base<std::__cxx11::basic_string<char>>::_Storage", i8 }>
%"union.std::_Optional_payload_base<std::__cxx11::basic_string<char>>::_Storage" = type { %"class.std::__cxx11::basic_string" }
%"class.std::unique_ptr.440" = type { %"struct.std::__uniq_ptr_data.441" }
%"struct.std::__uniq_ptr_data.441" = type { %"class.std::__uniq_ptr_impl.442" }
%"class.std::__uniq_ptr_impl.442" = type { %"class.std::tuple.443" }
%"class.std::tuple.443" = type { %"struct.std::_Tuple_impl.444" }
%"struct.std::_Tuple_impl.444" = type { %"struct.std::_Head_base.447" }
%"struct.std::_Head_base.447" = type { ptr }
%"class.std::shared_ptr.448" = type { %"class.std::__shared_ptr.449" }
%"class.std::__shared_ptr.449" = type { ptr, %"class.std::__shared_count" }
%"struct.std::pair" = type <{ %"struct.std::__detail::_Node_iterator", i8, [7 x i8] }>
%"struct.std::__detail::_Node_iterator" = type { %"struct.std::__detail::_Node_iterator_base" }
%"struct.std::__detail::_Node_iterator_base" = type { ptr }
%"struct.std::_Hashtable<node::CleanupQueue::CleanupHookCallback, node::CleanupQueue::CleanupHookCallback, std::allocator<node::CleanupQueue::CleanupHookCallback>, std::__detail::_Identity, node::CleanupQueue::CleanupHookCallback::Equal, node::CleanupQueue::CleanupHookCallback::Hash, std::__detail::_Mod_range_hashing, std::__detail::_Default_ranged_hash, std::__detail::_Prime_rehash_policy, std::__detail::_Hashtable_traits<true, true, true>>::_Scoped_node" = type { ptr, ptr }
%"struct.std::__detail::_Identity" = type { i8 }
%"struct.std::pair.452" = type { i8, i64 }
%"struct.std::__detail::_Hash_node_value_base" = type { %"struct.__gnu_cxx::__aligned_buffer" }
%"struct.__gnu_cxx::__aligned_buffer" = type { %"union.std::aligned_storage<24, 8>::type" }
%"union.std::aligned_storage<24, 8>::type" = type { [24 x i8] }
%"class.node::CleanupQueue::CleanupHookCallback" = type { ptr, ptr, i64 }
%"struct.std::__detail::_Mod_range_hashing" = type { i8 }
%"struct.std::__detail::_Hash_node_code_cache" = type { i64 }
%"class.std::allocator.454" = type { i8 }
%class.anon.459 = type { i8 }
%struct.CloseData = type { ptr, %class.anon.457, ptr }
%class.anon.457 = type { i8 }
%"class.std::unique_ptr.461" = type { %"struct.std::__uniq_ptr_data.462" }
%"struct.std::__uniq_ptr_data.462" = type { %"class.std::__uniq_ptr_impl.463" }
%"class.std::__uniq_ptr_impl.463" = type { %"class.std::tuple.464" }
%"class.std::tuple.464" = type { %"struct.std::_Tuple_impl.465" }
%"struct.std::_Tuple_impl.465" = type { %"struct.std::_Head_base.468" }
%"struct.std::_Head_base.468" = type { ptr }
%struct.uv_handle_s = type { ptr, ptr, i32, ptr, %struct.uv__queue, %union.anon.469, ptr, i32 }
%union.anon.469 = type { [4 x ptr] }
%"class.std::allocator.493" = type { i8 }
%"struct.std::__allocated_ptr" = type { ptr, ptr }
%"class.std::_Sp_counted_ptr_inplace" = type { %"class.std::_Sp_counted_base", %"class.std::_Sp_counted_ptr_inplace<node::inspector::MainThreadInterface, std::allocator<void>, __gnu_cxx::_S_atomic>::_Impl" }
%"class.std::_Sp_counted_ptr_inplace<node::inspector::MainThreadInterface, std::allocator<void>, __gnu_cxx::_S_atomic>::_Impl" = type { %"struct.__gnu_cxx::__aligned_buffer.496" }
%"struct.__gnu_cxx::__aligned_buffer.496" = type { %"union.std::aligned_storage<352, 8>::type" }
%"union.std::aligned_storage<352, 8>::type" = type { [352 x i8] }
%"class.std::enable_shared_from_this.472" = type { %"class.std::weak_ptr.473" }
%"class.std::weak_ptr.473" = type { %"class.std::__weak_ptr.474" }
%"class.std::__weak_ptr.474" = type { ptr, %"class.std::__weak_count" }
%"struct.std::__detail::_Node_const_iterator" = type { %"struct.std::__detail::_Node_iterator_base.499" }
%"struct.std::__detail::_Node_iterator_base.499" = type { ptr }
%"struct.std::pair.500" = type { i32, %"class.std::shared_ptr.502" }
%"class.std::shared_ptr.502" = type { %"class.std::__shared_ptr.503" }
%"class.std::__shared_ptr.503" = type { ptr, %"class.std::__shared_count" }
%"struct.std::__detail::_Select1st" = type { i8 }
%"struct.std::__detail::_Hash_node_value_base.507" = type { %"struct.__gnu_cxx::__aligned_buffer.508" }
%"struct.__gnu_cxx::__aligned_buffer.508" = type { %"union.std::aligned_storage<24, 8>::type" }
%"struct.std::hash" = type { i8 }
%"class.std::unique_ptr.549" = type { %"struct.std::__uniq_ptr_data.550" }
%"struct.std::__uniq_ptr_data.550" = type { %"class.std::__uniq_ptr_impl.551" }
%"class.std::__uniq_ptr_impl.551" = type { %"class.std::tuple.552" }
%"class.std::tuple.552" = type { %"struct.std::_Tuple_impl.553" }
%"struct.std::_Tuple_impl.553" = type { %"struct.std::_Head_base.556" }
%"struct.std::_Head_base.556" = type { ptr }
%"class.std::unique_ptr.557" = type { %"struct.std::__uniq_ptr_data.558" }
%"struct.std::__uniq_ptr_data.558" = type { %"class.std::__uniq_ptr_impl.559" }
%"class.std::__uniq_ptr_impl.559" = type { %"class.std::tuple.560" }
%"class.std::tuple.560" = type { %"struct.std::_Tuple_impl.561" }
%"struct.std::_Tuple_impl.561" = type { %"struct.std::_Head_base.564" }
%"struct.std::_Head_base.564" = type { ptr }
%"class.std::unique_ptr.533" = type { %"struct.std::__uniq_ptr_data.534" }
%"struct.std::__uniq_ptr_data.534" = type { %"class.std::__uniq_ptr_impl.535" }
%"class.std::__uniq_ptr_impl.535" = type { %"class.std::tuple.536" }
%"class.std::tuple.536" = type { %"struct.std::_Tuple_impl.537" }
%"struct.std::_Tuple_impl.537" = type { %"struct.std::_Head_base.540" }
%"struct.std::_Head_base.540" = type { ptr }
%"class.std::unique_ptr.541" = type { %"struct.std::__uniq_ptr_data.542" }
%"struct.std::__uniq_ptr_data.542" = type { %"class.std::__uniq_ptr_impl.543" }
%"class.std::__uniq_ptr_impl.543" = type { %"class.std::tuple.544" }
%"class.std::tuple.544" = type { %"struct.std::_Tuple_impl.545" }
%"struct.std::_Tuple_impl.545" = type { %"struct.std::_Head_base.548" }
%"struct.std::_Head_base.548" = type { ptr }
%"class.std::unique_ptr.525" = type { %"struct.std::__uniq_ptr_data.526" }
%"struct.std::__uniq_ptr_data.526" = type { %"class.std::__uniq_ptr_impl.527" }
%"class.std::__uniq_ptr_impl.527" = type { %"class.std::tuple.528" }
%"class.std::tuple.528" = type { %"struct.std::_Tuple_impl.529" }
%"struct.std::_Tuple_impl.529" = type { %"struct.std::_Head_base.532" }
%"struct.std::_Head_base.532" = type { ptr }
%"class.node::inspector::(anonymous namespace)::ChannelImpl" = type <{ %"class.v8_inspector::V8Inspector::Channel", %"class.node::inspector::protocol::FrontendChannel", %"class.std::unique_ptr.525", %"class.std::unique_ptr.533", %"class.std::unique_ptr.541", %"class.std::unique_ptr.331", %"class.std::unique_ptr.549", %"class.std::unique_ptr.557", i8, i8, [6 x i8] }>
%"class.v8_inspector::V8Inspector::Channel" = type { ptr }
%"class.node::inspector::protocol::FrontendChannel" = type { ptr }
%"class.std::weak_ptr.357" = type { %"class.std::__weak_ptr.358" }
%"class.std::__weak_ptr.358" = type { ptr, %"class.std::__weak_count" }
%"class.node::inspector::protocol::DispatchResponse" = type <{ i32, [4 x i8], %"class.std::__cxx11::basic_string", i32, [4 x i8] }>
%struct._Guard = type { ptr }
%"class.std::unique_ptr.593" = type { %"struct.std::__uniq_ptr_data.594" }
%"struct.std::__uniq_ptr_data.594" = type { %"class.std::__uniq_ptr_impl.595" }
%"class.std::__uniq_ptr_impl.595" = type { %"class.std::tuple.596" }
%"class.std::tuple.596" = type { %"struct.std::_Tuple_impl.597" }
%"struct.std::_Tuple_impl.597" = type { %"struct.std::_Head_base.600" }
%"struct.std::_Head_base.600" = type { ptr }
%"struct.std::_Hashtable<int, std::pair<const int, std::unique_ptr<node::inspector::(anonymous namespace)::ChannelImpl>>, std::allocator<std::pair<const int, std::unique_ptr<node::inspector::(anonymous namespace)::ChannelImpl>>>, std::__detail::_Select1st, std::equal_to<int>, std::hash<int>, std::__detail::_Mod_range_hashing, std::__detail::_Default_ranged_hash, std::__detail::_Prime_rehash_policy, std::__detail::_Hashtable_traits<false, false, true>>::_Scoped_node" = type { ptr, ptr }
%"class.std::tuple.657" = type { %"struct.std::_Tuple_impl.658" }
%"struct.std::_Tuple_impl.658" = type { %"struct.std::_Head_base.659" }
%"struct.std::_Head_base.659" = type { ptr }
%"class.std::tuple.660" = type { i8 }
%"struct.std::__detail::_Hash_node_value_base.651" = type { %"struct.__gnu_cxx::__aligned_buffer.652" }
%"struct.__gnu_cxx::__aligned_buffer.652" = type { %"union.std::aligned_storage<16, 8>::type" }
%"union.std::aligned_storage<16, 8>::type" = type { [16 x i8] }
%"struct.std::__detail::_Node_const_iterator.664" = type { %"struct.std::__detail::_Node_iterator_base.662" }
%"class.std::unique_ptr.665" = type { %"struct.std::__uniq_ptr_data.666" }
%"struct.std::__uniq_ptr_data.666" = type { %"class.std::__uniq_ptr_impl.667" }
%"class.std::__uniq_ptr_impl.667" = type { %"class.std::tuple.668" }
%"class.std::tuple.668" = type { %"struct.std::_Tuple_impl.669" }
%"struct.std::_Tuple_impl.669" = type { %"struct.std::_Head_base.672" }
%"struct.std::_Head_base.672" = type { ptr }
%"class.std::unique_ptr.673" = type { %"struct.std::__uniq_ptr_data.674" }
%"struct.std::__uniq_ptr_data.674" = type { %"class.std::__uniq_ptr_impl.675" }
%"class.std::__uniq_ptr_impl.675" = type { %"class.std::tuple.676" }
%"class.std::tuple.676" = type { %"struct.std::_Tuple_impl.677" }
%"struct.std::_Tuple_impl.677" = type { %"struct.std::_Head_base.680" }
%"struct.std::_Head_base.680" = type { ptr }
%"class.node::inspector::protocol::Value" = type <{ %"class.node::inspector::protocol::Serializable", i32, [4 x i8] }>
%"class.node::inspector::protocol::Serializable" = type { ptr }
%"class.node::TwoByteValue" = type { %"class.node::MaybeStackBuffer" }
%"class.node::MaybeStackBuffer" = type { i64, i64, ptr, [1024 x i16] }
%"class.node::Realm" = type { %"class.node::MemoryRetainer", %"class.std::set", %"class.std::set.703", %"class.std::set.703", %"class.std::vector", ptr, ptr, %"class.v8::Global.710", %"class.v8::Global.42", %"class.v8::Global.42", %"class.v8::Global.42", %"class.v8::Global.712", %"class.v8::Global.42", %"class.v8::Global.42", %"class.v8::Global.42", %"class.v8::Global.712", %"class.v8::Global.42", %"class.v8::Global.42", %"class.v8::Global.42", %"class.v8::Global.42", %"class.v8::Global.42", %"class.v8::Global.42", %"class.v8::Global.42", %"class.v8::Global.42", %"class.v8::Global.42", %"class.v8::Global.42", %"class.v8::Global.42", %"class.v8::Global.42", %"class.v8::Global.42", %"class.v8::Global.42", %"class.v8::Global.42", %"class.v8::Global.42", %"class.v8::Global.42", %"class.v8::Global.42", %"class.v8::Global.42", %"class.v8::Global.42", %"class.v8::Global.42", %"class.v8::Global.42", %"class.v8::Global.42", %"class.v8::Global.42", %"class.v8::Global.42", %"class.v8::Global.42", %"class.v8::Global.42", %"class.v8::Global.42", %"class.v8::Global.712", %"class.v8::Global.42", %"class.v8::Global.42", %"class.v8::Global.42", %"class.v8::Global.712", %"class.v8::Global.712", %"class.v8::Global.712", %"class.v8::Global.712", %"class.v8::Global.712", %"class.v8::Global.712", %"class.v8::Global.42", %"class.v8::Global.42", %"class.v8::Global.42", %"class.v8::Global.42", %"class.v8::Global.42", %"class.v8::Global.42", %"class.v8::Global.42", %"class.v8::Global.42", %"class.v8::Global.42", %"class.v8::Global.42", %"class.v8::Global.42", %"class.v8::Global.42", %"class.v8::Global.42", %"class.v8::Global.42", i32, i8, i64, i64, %"struct.std::array.714", %"class.node::CleanupQueue" }
%"class.std::set" = type { %"class.std::_Rb_tree" }
%"class.std::_Rb_tree" = type { %"struct.std::_Rb_tree<node::node_module *, node::node_module *, std::_Identity<node::node_module *>, std::less<node::node_module *>>::_Rb_tree_impl" }
%"struct.std::_Rb_tree<node::node_module *, node::node_module *, std::_Identity<node::node_module *>, std::less<node::node_module *>>::_Rb_tree_impl" = type { %"struct.std::_Rb_tree_key_compare", %"struct.std::_Rb_tree_header" }
%"struct.std::_Rb_tree_key_compare" = type { %"struct.std::less" }
%"struct.std::less" = type { i8 }
%"struct.std::_Rb_tree_header" = type { %"struct.std::_Rb_tree_node_base", i64 }
%"struct.std::_Rb_tree_node_base" = type { i32, ptr, ptr, ptr }
%"class.std::set.703" = type { %"class.std::_Rb_tree.704" }
%"class.std::_Rb_tree.704" = type { %"struct.std::_Rb_tree<std::__cxx11::basic_string<char>, std::__cxx11::basic_string<char>, std::_Identity<std::__cxx11::basic_string<char>>, std::less<std::__cxx11::basic_string<char>>>::_Rb_tree_impl" }
%"struct.std::_Rb_tree<std::__cxx11::basic_string<char>, std::__cxx11::basic_string<char>, std::_Identity<std::__cxx11::basic_string<char>>, std::less<std::__cxx11::basic_string<char>>>::_Rb_tree_impl" = type { %"struct.std::_Rb_tree_key_compare.708", %"struct.std::_Rb_tree_header" }
%"struct.std::_Rb_tree_key_compare.708" = type { %"struct.std::less.709" }
%"struct.std::less.709" = type { i8 }
%"class.v8::Global.710" = type { %"class.v8::PersistentBase.711" }
%"class.v8::PersistentBase.711" = type { %"class.v8::IndirectHandleBase" }
%"class.v8::Global.712" = type { %"class.v8::PersistentBase.713" }
%"class.v8::PersistentBase.713" = type { %"class.v8::IndirectHandleBase" }
%"struct.std::array.714" = type { [12 x %"class.node::BaseObjectPtrImpl"] }
%"class.node::BaseObjectPtrImpl" = type { %union.anon.715 }
%union.anon.715 = type { ptr }
%"class.std::allocator.733" = type { i8 }
%"struct.std::__allocated_ptr.736" = type { ptr, ptr }
%"class.std::_Sp_counted_ptr_inplace.737" = type { %"class.std::_Sp_counted_base", %"class.std::_Sp_counted_ptr_inplace<node::inspector::WorkerManager, std::allocator<void>, __gnu_cxx::_S_atomic>::_Impl" }
%"class.std::_Sp_counted_ptr_inplace<node::inspector::WorkerManager, std::allocator<void>, __gnu_cxx::_S_atomic>::_Impl" = type { %"struct.__gnu_cxx::__aligned_buffer.738" }
%"struct.__gnu_cxx::__aligned_buffer.738" = type { %"union.std::aligned_storage<208, 8>::type" }
%"union.std::aligned_storage<208, 8>::type" = type { [208 x i8] }
%"class.node::inspector::WorkerManager" = type <{ %"class.std::enable_shared_from_this.356", %"class.std::shared_ptr.272", %"class.std::unordered_map.359", %"class.std::unordered_map.379", %"class.std::unordered_set.219", i32, [4 x i8] }>
%"class.std::enable_shared_from_this.356" = type { %"class.std::weak_ptr.357" }
%"class.std::unordered_map.359" = type { %"class.std::_Hashtable.360" }
%"class.std::_Hashtable.360" = type { ptr, i64, %"struct.std::__detail::_Hash_node_base", i64, %"struct.std::__detail::_Prime_rehash_policy", ptr }
%"class.std::unordered_map.379" = type { %"class.std::_Hashtable.380" }
%"class.std::_Hashtable.380" = type { ptr, i64, %"struct.std::__detail::_Hash_node_base", i64, %"struct.std::__detail::_Prime_rehash_policy", ptr }
%"struct.std::__detail::_Hash_node_value_base.743" = type { %"struct.__gnu_cxx::__aligned_buffer.744" }
%"struct.__gnu_cxx::__aligned_buffer.744" = type { %"union.std::aligned_storage<4, 4>::type" }
%"union.std::aligned_storage<4, 4>::type" = type { [4 x i8] }
%"struct.std::__detail::_Hash_node_value_base.749" = type { %"struct.__gnu_cxx::__aligned_buffer.750" }
%"struct.__gnu_cxx::__aligned_buffer.750" = type { %"union.std::aligned_storage<16, 8>::type" }
%"struct.std::pair.751" = type { i32, %"class.std::unique_ptr.753" }
%"class.std::unique_ptr.753" = type { %"struct.std::__uniq_ptr_data.754" }
%"struct.std::__uniq_ptr_data.754" = type { %"class.std::__uniq_ptr_impl.755" }
%"class.std::__uniq_ptr_impl.755" = type { %"class.std::tuple.756" }
%"class.std::tuple.756" = type { %"struct.std::_Tuple_impl.757" }
%"struct.std::_Tuple_impl.757" = type { %"struct.std::_Head_base.760" }
%"struct.std::_Head_base.760" = type { ptr }
%"struct.std::__detail::_Hash_node_value_base.765" = type { %"struct.__gnu_cxx::__aligned_buffer.766" }
%"struct.__gnu_cxx::__aligned_buffer.766" = type { %"union.std::aligned_storage<88, 8>::type" }
%"union.std::aligned_storage<88, 8>::type" = type { [88 x i8] }
%"struct.std::pair.769" = type { i64, %"struct.node::inspector::WorkerInfo" }
%"struct.node::inspector::WorkerInfo" = type { %"class.std::__cxx11::basic_string", %"class.std::__cxx11::basic_string", %"class.std::shared_ptr.272" }
%"class.std::allocator.775" = type { i8 }
%"struct.std::__allocated_ptr.778" = type { ptr, ptr }
%"class.std::_Sp_counted_ptr_inplace.779" = type { %"class.std::_Sp_counted_base", %"class.std::_Sp_counted_ptr_inplace<node::inspector::NodeInspectorClient, std::allocator<void>, __gnu_cxx::_S_atomic>::_Impl" }
%"class.std::_Sp_counted_ptr_inplace<node::inspector::NodeInspectorClient, std::allocator<void>, __gnu_cxx::_S_atomic>::_Impl" = type { %"struct.__gnu_cxx::__aligned_buffer.780" }
%"struct.__gnu_cxx::__aligned_buffer.780" = type { %"union.std::aligned_storage<184, 8>::type" }
%"union.std::aligned_storage<184, 8>::type" = type { [184 x i8] }
%"class.std::__cxx11::basic_ostringstream" = type { %"class.std::basic_ostream.base", %"class.std::__cxx11::basic_stringbuf", %"class.std::basic_ios" }
%"class.std::basic_ostream.base" = type { ptr }
%"class.std::__cxx11::basic_stringbuf" = type { %"class.std::basic_streambuf", i32, %"class.std::__cxx11::basic_string" }
%"class.std::basic_streambuf" = type { ptr, ptr, ptr, ptr, ptr, ptr, ptr, %"class.std::locale" }
%"class.std::locale" = type { ptr }
%"class.std::basic_ios" = type { %"class.std::ios_base", ptr, i8, i8, ptr, ptr, ptr, ptr }
%"class.std::ios_base" = type { ptr, i64, i64, i32, i32, i32, ptr, %"struct.std::ios_base::_Words", [8 x %"struct.std::ios_base::_Words"], i32, ptr, %"class.std::locale" }
%"struct.std::ios_base::_Words" = type { ptr, i64 }
%"class.std::unique_ptr.783" = type { %"struct.std::__uniq_ptr_data.784" }
%"struct.std::__uniq_ptr_data.784" = type { %"class.std::__uniq_ptr_impl.785" }
%"class.std::__uniq_ptr_impl.785" = type { %"class.std::tuple.786" }
%"class.std::tuple.786" = type { %"struct.std::_Tuple_impl.787" }
%"struct.std::_Tuple_impl.787" = type { %"struct.std::_Head_base.790" }
%"struct.std::_Head_base.790" = type { ptr }
%"class.std::unique_ptr.791" = type { %"struct.std::__uniq_ptr_data.792" }
%"struct.std::__uniq_ptr_data.792" = type { %"class.std::__uniq_ptr_impl.793" }
%"class.std::__uniq_ptr_impl.793" = type { %"class.std::tuple.794" }
%"class.std::tuple.794" = type { %"struct.std::_Tuple_impl.795" }
%"struct.std::_Tuple_impl.795" = type { %"struct.std::_Head_base.798" }
%"struct.std::_Head_base.798" = type { ptr }
%"struct.std::pair.811" = type <{ %"struct.std::__detail::_Node_iterator.813", i8, [7 x i8] }>
%"struct.std::__detail::_Node_iterator.813" = type { %"struct.std::__detail::_Node_iterator_base.814" }
%"struct.std::__detail::_Node_iterator_base.814" = type { ptr }
%"class.std::tuple.816" = type { %"struct.std::_Tuple_impl.817" }
%"struct.std::_Tuple_impl.817" = type { %"struct.std::_Head_base.818" }
%"struct.std::_Head_base.818" = type { ptr }
%"class.std::tuple.819" = type { %"struct.std::_Tuple_impl.820" }
%"struct.std::_Tuple_impl.820" = type { %"struct.std::_Tuple_impl.821", %"struct.std::_Head_base.824" }
%"struct.std::_Tuple_impl.821" = type { %"struct.std::_Head_base.822" }
%"struct.std::_Head_base.822" = type { %class.anon.823 }
%class.anon.823 = type { ptr, ptr }
%"struct.std::_Head_base.824" = type { ptr }
%"struct.std::pair.805" = type { ptr, %"class.node::TimerWrapHandle" }
%"class.node::TimerWrapHandle" = type { %"class.node::MemoryRetainer", ptr }
%"struct.std::__detail::_Hash_node_value_base.803" = type { %"struct.__gnu_cxx::__aligned_buffer.804" }
%"struct.__gnu_cxx::__aligned_buffer.804" = type { %"union.std::aligned_storage<24, 8>::type" }
%"struct.std::_Hashtable<void *, std::pair<void *const, node::TimerWrapHandle>, std::allocator<std::pair<void *const, node::TimerWrapHandle>>, std::__detail::_Select1st, std::equal_to<void *>, std::hash<void *>, std::__detail::_Mod_range_hashing, std::__detail::_Default_ranged_hash, std::__detail::_Prime_rehash_policy, std::__detail::_Hashtable_traits<false, false, true>>::_Scoped_node" = type { ptr, ptr }
%"class.node::TimerWrap" = type { %"class.node::MemoryRetainer", ptr, %"class.std::function.826", %struct.uv_timer_s }
%"class.std::function.826" = type { %"class.std::_Function_base", ptr }
%"class.std::unique_ptr.828" = type { %"struct.std::__uniq_ptr_data.829" }
%"struct.std::__uniq_ptr_data.829" = type { %"class.std::__uniq_ptr_impl.830" }
%"class.std::__uniq_ptr_impl.830" = type { %"class.std::tuple.831" }
%"class.std::tuple.831" = type { %"struct.std::_Tuple_impl.832" }
%"struct.std::_Tuple_impl.832" = type { %"struct.std::_Head_base.835" }
%"struct.std::_Head_base.835" = type { ptr }
%"class.node::CallbackQueue<void, node::Environment *>::CallbackImpl" = type { %"class.node::CallbackQueue<void, node::Environment *>::Callback", %class.anon.355 }
%"class.node::CallbackQueue<void, node::Environment *>::Callback" = type { ptr, i32, %"class.std::unique_ptr.193" }
%"class.std::allocator.840" = type { i8 }
%"class.std::_Sp_counted_deleter" = type { %"class.std::_Sp_counted_base", %"class.std::_Sp_counted_deleter<node::inspector::WorkerManager *, std::default_delete<node::inspector::WorkerManager>, std::allocator<void>, __gnu_cxx::_S_atomic>::_Impl" }
%"class.std::_Sp_counted_deleter<node::inspector::WorkerManager *, std::default_delete<node::inspector::WorkerManager>, std::allocator<void>, __gnu_cxx::_S_atomic>::_Impl" = type { ptr }
%"struct.std::default_delete.771" = type { i8 }
%"struct.std::__allocated_ptr.845" = type { ptr, ptr }

$_ZN4node9MutexBaseINS_16LibuvMutexTraitsEEC2Ev = comdat any

$_ZN4node9MutexBaseINS_16LibuvMutexTraitsEED2Ev = comdat any

$_ZNSt10shared_ptrIN4node9inspector19NodeInspectorClientEEC2Ev = comdat any

$_ZNSt10unique_ptrIN4node9inspector11InspectorIoESt14default_deleteIS2_EEC2IS4_vEEv = comdat any

$_ZNSt10unique_ptrIN4node9inspector21ParentInspectorHandleESt14default_deleteIS2_EEC2IS4_vEEv = comdat any

$_ZN4node11Environment7optionsEv = comdat any

$_ZNKSt19__shared_ptr_accessIN4node18EnvironmentOptionsELN9__gnu_cxx12_Lock_policyE2ELb0ELb0EEptEv = comdat any

$_ZNK4node18EnvironmentOptions13debug_optionsEv = comdat any

$_ZN4node12DebugOptionsC2ERKS0_ = comdat any

$_ZNSt10shared_ptrIN4node18EnvironmentOptionsEED2Ev = comdat any

$_ZN4node11Environment19inspector_host_portEv = comdat any

$_ZNSt10shared_ptrIN4node15ExclusiveAccessINS0_8HostPortENS0_9MutexBaseINS0_16LibuvMutexTraitsEEEEEED2Ev = comdat any

$_ZN4node12DebugOptionsD2Ev = comdat any

$_ZNSt10unique_ptrIN4node9inspector21ParentInspectorHandleESt14default_deleteIS2_EED2Ev = comdat any

$_ZNSt10unique_ptrIN4node9inspector11InspectorIoESt14default_deleteIS2_EED2Ev = comdat any

$_ZNSt10shared_ptrIN4node9inspector19NodeInspectorClientEED2Ev = comdat any

$_ZN4node12DebugOptionsaSERKS0_ = comdat any

$_ZStneIN4node15ExclusiveAccessINS0_8HostPortENS0_9MutexBaseINS0_16LibuvMutexTraitsEEEEEEbRKSt10shared_ptrIT_EDn = comdat any

$_ZNSt10shared_ptrIN4node15ExclusiveAccessINS0_8HostPortENS0_9MutexBaseINS0_16LibuvMutexTraitsEEEEEEaSERKS7_ = comdat any

$_ZSt11make_sharedIN4node9inspector19NodeInspectorClientEJRPNS0_11EnvironmentERbEESt10shared_ptrINSt9enable_ifIXntsr8is_arrayIT_EE5valueES9_E4typeEEDpOT0_ = comdat any

$_ZNSt10shared_ptrIN4node9inspector19NodeInspectorClientEEaSEOS3_ = comdat any

$_ZNK4node11Environment14owns_inspectorEv = comdat any

$_ZN4node9MutexBaseINS_16LibuvMutexTraitsEE10ScopedLockC2ERKS2_ = comdat any

$_ZNSt6atomicIbE8exchangeEbSt12memory_order = comdat any

$_ZNK4node11Environment10event_loopEv = comdat any

$_ZN4node11Environment14AddCleanupHookEPFvPvES1_ = comdat any

$_ZN4node9MutexBaseINS_16LibuvMutexTraitsEE10ScopedLockD2Ev = comdat any

$_ZNK4node12DebugOptions16wait_for_connectEv = comdat any

$_ZNKSt10unique_ptrIN4node9inspector21ParentInspectorHandleESt14default_deleteIS2_EEcvbEv = comdat any

$_ZNKSt10unique_ptrIN4node9inspector21ParentInspectorHandleESt14default_deleteIS2_EEptEv = comdat any

$_ZN4node9inspector21ParentInspectorHandle14WaitForConnectEv = comdat any

$_ZNKSt19__shared_ptr_accessIN4node9inspector19NodeInspectorClientELN9__gnu_cxx12_Lock_policyE2ELb0ELb0EEptEv = comdat any

$_ZN4node9inspector19NodeInspectorClient15getThreadHandleEv = comdat any

$_ZNSt10shared_ptrIN4node9inspector16MainThreadHandleEED2Ev = comdat any

$_ZNK4node11Environment22has_serialized_optionsEv = comdat any

$_ZN4node12DebugOptions20EnableBreakFirstLineEv = comdat any

$_ZN4node18EnvironmentOptions17get_debug_optionsEv = comdat any

$_ZN4node9inspector19NodeInspectorClient15waitForFrontendEv = comdat any

$_ZStneIN4node9inspector11InspectorIoESt14default_deleteIS2_EEbRKSt10unique_ptrIT_T0_EDn = comdat any

$_ZN4node11Environment10permissionEv = comdat any

$_ZNSt17basic_string_viewIcSt11char_traitsIcEEC2EPKc = comdat any

$_ZNK4node11Environment23should_create_inspectorEv = comdat any

$_ZNKSt12__shared_ptrIN4node9inspector19NodeInspectorClientELN9__gnu_cxx12_Lock_policyE2EEcvbEv = comdat any

$_ZStneIN4node9inspector19NodeInspectorClientEEbRKSt10shared_ptrIT_EDn = comdat any

$_ZNSt10shared_ptrIN4node15ExclusiveAccessINS0_8HostPortENS0_9MutexBaseINS0_16LibuvMutexTraitsEEEEEEC2ERKS7_ = comdat any

$_ZNSt10unique_ptrIN4node9inspector11InspectorIoESt14default_deleteIS2_EEaSEOS5_ = comdat any

$_ZSteqIN4node9inspector11InspectorIoESt14default_deleteIS2_EEbRKSt10unique_ptrIT_T0_EDn = comdat any

$_ZNSt10unique_ptrIN4node9inspector11InspectorIoESt14default_deleteIS2_EE5resetEPS2_ = comdat any

$_ZNSt10unique_ptrIN4node9inspector16InspectorSessionESt14default_deleteIS2_EEC2IS4_vEEv = comdat any

$_ZN4node9inspector19NodeInspectorClient15connectFrontendESt10unique_ptrINS0_24InspectorSessionDelegateESt14default_deleteIS3_EEb = comdat any

$_ZNSt10unique_ptrIN4node9inspector24InspectorSessionDelegateESt14default_deleteIS2_EEC2EOS5_ = comdat any

$_ZNSt10unique_ptrIN4node9inspector24InspectorSessionDelegateESt14default_deleteIS2_EED2Ev = comdat any

$_ZNSt10shared_ptrIN4node9inspector19NodeInspectorClientEEC2ERKS3_ = comdat any

$_ZNSt10unique_ptrIN4node9inspector16InspectorSessionESt14default_deleteIS2_EEC2IS4_vEEPS2_ = comdat any

$_ZStneIN4node9inspector21ParentInspectorHandleESt14default_deleteIS2_EEbRKSt10unique_ptrIT_T0_EDn = comdat any

$_ZNKSt19__shared_ptr_accessIN4node9inspector16MainThreadHandleELN9__gnu_cxx12_Lock_policyE2ELb0ELb0EEptEv = comdat any

$_ZNSt10unique_ptrIN4node9inspector21ParentInspectorHandleESt14default_deleteIS2_EE5resetEPS2_ = comdat any

$_ZN4node9inspector19NodeInspectorClient20hasConnectedSessionsEv = comdat any

$_ZN4node9inspector19NodeInspectorClient26notifyWaitingForDisconnectEv = comdat any

$_ZN4node9inspector19NodeInspectorClient16contextDestroyedEN2v85LocalINS2_7ContextEEE = comdat any

$_ZNK4node11Environment7contextEv = comdat any

$_ZN4node9inspector19NodeInspectorClient25waitForSessionsDisconnectEv = comdat any

$_ZNKSt10unique_ptrIN4node9inspector11InspectorIoESt14default_deleteIS2_EEptEv = comdat any

$_ZN4node9inspector5Agent11IsListeningEv = comdat any

$_ZN4node9inspector19NodeInspectorClient23ReportUncaughtExceptionEN2v85LocalINS2_5ValueEEENS3_INS2_7MessageEEE = comdat any

$_ZN4node9inspector19NodeInspectorClient28schedulePauseOnNextStatementERKNSt7__cxx1112basic_stringIcSt11char_traitsIcESaIcEEE = comdat any

$_ZN4node11Environment32set_inspector_enable_async_hooksEN2v85LocalINS1_8FunctionEEE = comdat any

$_ZN4node11Environment33set_inspector_disable_async_hooksEN2v85LocalINS1_8FunctionEEE = comdat any

$_ZNK4node11Environment7isolateEv = comdat any

$_ZNK4node11Environment28inspector_enable_async_hooksEv = comdat any

$_ZNK4node11Environment16can_call_into_jsEv = comdat any

$_ZNK4node11Environment26has_run_bootstrapping_codeEv = comdat any

$_ZN4node3USEIN2v810MaybeLocalINS1_5ValueEEEEEvOT_ = comdat any

$_ZN4node9inspector19NodeInspectorClient18AsyncTaskScheduledERKN12v8_inspector10StringViewEPvb = comdat any

$_ZN4node9inspector19NodeInspectorClient17AsyncTaskCanceledEPv = comdat any

$_ZN4node9inspector19NodeInspectorClient16AsyncTaskStartedEPv = comdat any

$_ZN4node9inspector19NodeInspectorClient17AsyncTaskFinishedEPv = comdat any

$_ZN4node9inspector19NodeInspectorClient21AllAsyncTasksCanceledEv = comdat any

$_ZN4node9inspector5Agent7optionsEv = comdat any

$_ZNKSt6atomicIbEcvbEv = comdat any

$_ZSteqIN4node9inspector19NodeInspectorClientEEbRKSt10shared_ptrIT_EDn = comdat any

$_ZN4node9inspector19NodeInspectorClient14contextCreatedEN2v85LocalINS2_7ContextEEERKNS_11ContextInfoE = comdat any

$_ZN4node9inspector19NodeInspectorClient8IsActiveEv = comdat any

$_ZNSt10unique_ptrIN4node9inspector21ParentInspectorHandleESt14default_deleteIS2_EEaSEOS5_ = comdat any

$_ZN4node9inspector19NodeInspectorClient16getWorkerManagerEv = comdat any

$_ZNKSt19__shared_ptr_accessIN4node9inspector13WorkerManagerELN9__gnu_cxx12_Lock_policyE2ELb0ELb0EEptEv = comdat any

$_ZNSt10shared_ptrIN4node9inspector13WorkerManagerEED2Ev = comdat any

$_ZN4node9inspector21ParentInspectorHandle24NewParentInspectorHandleEmRKNSt7__cxx1112basic_stringIcSt11char_traitsIcESaIcEEES9_ = comdat any

$_ZNSt10unique_ptrIN4node9inspector13WorkerManagerESt14default_deleteIS2_EEC2IS4_vEEv = comdat any

$_ZNSt10shared_ptrIN4node9inspector13WorkerManagerEEC2IS2_St14default_deleteIS2_EvEEOSt10unique_ptrIT_T0_E = comdat any

$_ZNSt10unique_ptrIN4node9inspector13WorkerManagerESt14default_deleteIS2_EED2Ev = comdat any

$_ZNSt7__cxx1112basic_stringIcSt11char_traitsIcESaIcEEC2IS3_EEPKcRKS3_ = comdat any

$_ZNSt12__shared_ptrIN4node9inspector19NodeInspectorClientELN9__gnu_cxx12_Lock_policyE2EEC2Ev = comdat any

$_ZNSt14__shared_countILN9__gnu_cxx12_Lock_policyE2EEC2Ev = comdat any

$_ZNSt15__uniq_ptr_dataIN4node9inspector11InspectorIoESt14default_deleteIS2_ELb1ELb1EEC2Ev = comdat any

$_ZNSt15__uniq_ptr_implIN4node9inspector11InspectorIoESt14default_deleteIS2_EEC2Ev = comdat any

$_ZNSt5tupleIJPN4node9inspector11InspectorIoESt14default_deleteIS2_EEEC2ILb1ETnNSt9enable_ifIXclsr17_TupleConstraintsIXT_ES3_S5_EE37__is_implicitly_default_constructibleEEbE4typeELb1EEEv = comdat any

$_ZNSt11_Tuple_implILm0EJPN4node9inspector11InspectorIoESt14default_deleteIS2_EEEC2Ev = comdat any

$_ZNSt11_Tuple_implILm1EJSt14default_deleteIN4node9inspector11InspectorIoEEEEC2Ev = comdat any

$_ZNSt10_Head_baseILm0EPN4node9inspector11InspectorIoELb0EEC2Ev = comdat any

$_ZNSt10_Head_baseILm1ESt14default_deleteIN4node9inspector11InspectorIoEELb1EEC2Ev = comdat any

$_ZNSt15__uniq_ptr_dataIN4node9inspector21ParentInspectorHandleESt14default_deleteIS2_ELb1ELb1EEC2Ev = comdat any

$_ZNSt15__uniq_ptr_implIN4node9inspector21ParentInspectorHandleESt14default_deleteIS2_EEC2Ev = comdat any

$_ZNSt5tupleIJPN4node9inspector21ParentInspectorHandleESt14default_deleteIS2_EEEC2ILb1ETnNSt9enable_ifIXclsr17_TupleConstraintsIXT_ES3_S5_EE37__is_implicitly_default_constructibleEEbE4typeELb1EEEv = comdat any

$_ZNSt11_Tuple_implILm0EJPN4node9inspector21ParentInspectorHandleESt14default_deleteIS2_EEEC2Ev = comdat any

$_ZNSt11_Tuple_implILm1EJSt14default_deleteIN4node9inspector21ParentInspectorHandleEEEEC2Ev = comdat any

$_ZNSt10_Head_baseILm0EPN4node9inspector21ParentInspectorHandleELb0EEC2Ev = comdat any

$_ZNSt10_Head_baseILm1ESt14default_deleteIN4node9inspector21ParentInspectorHandleEELb1EEC2Ev = comdat any

$_ZNSt10shared_ptrIN4node18EnvironmentOptionsEEC2ERKS2_ = comdat any

$_ZNSt12__shared_ptrIN4node18EnvironmentOptionsELN9__gnu_cxx12_Lock_policyE2EEC2ERKS4_ = comdat any

$_ZNSt14__shared_countILN9__gnu_cxx12_Lock_policyE2EEC2ERKS2_ = comdat any

$_ZNSt16_Sp_counted_baseILN9__gnu_cxx12_Lock_policyE2EE15_M_add_ref_copyEv = comdat any

$_ZN4node7OptionsC2ERKS0_ = comdat any

$_ZN4node8HostPortC2ERKS0_ = comdat any

$_ZN4node7Options12CheckOptionsEPSt6vectorINSt7__cxx1112basic_stringIcSt11char_traitsIcESaIcEEESaIS7_EESA_ = comdat any

$_ZN4node7OptionsD2Ev = comdat any

$_ZN4node7OptionsD0Ev = comdat any

$_ZNSt12__shared_ptrIN4node18EnvironmentOptionsELN9__gnu_cxx12_Lock_policyE2EED2Ev = comdat any

$_ZNSt14__shared_countILN9__gnu_cxx12_Lock_policyE2EED2Ev = comdat any

$_ZNSt16_Sp_counted_baseILN9__gnu_cxx12_Lock_policyE2EE10_M_releaseEv = comdat any

$_ZNSt16_Sp_counted_baseILN9__gnu_cxx12_Lock_policyE2EE24_M_release_last_use_coldEv = comdat any

$_ZNSt16_Sp_counted_baseILN9__gnu_cxx12_Lock_policyE2EE19_M_release_last_useEv = comdat any

$_ZNSt12__shared_ptrIN4node15ExclusiveAccessINS0_8HostPortENS0_9MutexBaseINS0_16LibuvMutexTraitsEEEEELN9__gnu_cxx12_Lock_policyE2EED2Ev = comdat any

$_ZN4node8HostPortD2Ev = comdat any

$_ZN4node7OptionsaSERKS0_ = comdat any

$_ZN4node8HostPortaSERKS0_ = comdat any

$_ZNSt12__shared_ptrIN4node15ExclusiveAccessINS0_8HostPortENS0_9MutexBaseINS0_16LibuvMutexTraitsEEEEELN9__gnu_cxx12_Lock_policyE2EEaSERKS9_ = comdat any

$_ZNSt14__shared_countILN9__gnu_cxx12_Lock_policyE2EEaSERKS2_ = comdat any

$_ZNK4node11Environment12isolate_dataEv = comdat any

$_ZNK4node11IsolateData10event_loopEv = comdat any

$_ZSt3maxImERKT_S2_S2_ = comdat any

$_ZN4node12CleanupQueue3AddEPFvPvES1_ = comdat any

$_ZNSt13unordered_setIN4node12CleanupQueue19CleanupHookCallbackENS2_4HashENS2_5EqualESaIS2_EE7emplaceIJRPFvPvERS8_mEEESt4pairINSt8__detail14_Node_iteratorIS2_Lb1ELb1EEEbEDpOT_ = comdat any

$_ZNSt10_HashtableIN4node12CleanupQueue19CleanupHookCallbackES2_SaIS2_ENSt8__detail9_IdentityENS2_5EqualENS2_4HashENS4_18_Mod_range_hashingENS4_20_Default_ranged_hashENS4_20_Prime_rehash_policyENS4_17_Hashtable_traitsILb1ELb1ELb1EEEE7emplaceIJRPFvPvERSF_mEEESt4pairINS4_14_Node_iteratorIS2_Lb1ELb1EEEbEDpOT_ = comdat any

$_ZNSt10_HashtableIN4node12CleanupQueue19CleanupHookCallbackES2_SaIS2_ENSt8__detail9_IdentityENS2_5EqualENS2_4HashENS4_18_Mod_range_hashingENS4_20_Default_ranged_hashENS4_20_Prime_rehash_policyENS4_17_Hashtable_traitsILb1ELb1ELb1EEEE10_M_emplaceIJRPFvPvERSF_mEEESt4pairINS4_14_Node_iteratorIS2_Lb1ELb1EEEbESt17integral_constantIbLb1EEDpOT_ = comdat any

$_ZNSt10_HashtableIN4node12CleanupQueue19CleanupHookCallbackES2_SaIS2_ENSt8__detail9_IdentityENS2_5EqualENS2_4HashENS4_18_Mod_range_hashingENS4_20_Default_ranged_hashENS4_20_Prime_rehash_policyENS4_17_Hashtable_traitsILb1ELb1ELb1EEEE12_Scoped_nodeC2IJRPFvPvERSG_mEEEPNS4_16_Hashtable_allocISaINS4_10_Hash_nodeIS2_Lb1EEEEEEDpOT_ = comdat any

$_ZNKSt8__detail9_IdentityclIRN4node12CleanupQueue19CleanupHookCallbackEEEOT_S7_ = comdat any

$_ZNSt8__detail21_Hash_node_value_baseIN4node12CleanupQueue19CleanupHookCallbackEE4_M_vEv = comdat any

$_ZNKSt10_HashtableIN4node12CleanupQueue19CleanupHookCallbackES2_SaIS2_ENSt8__detail9_IdentityENS2_5EqualENS2_4HashENS4_18_Mod_range_hashingENS4_20_Default_ranged_hashENS4_20_Prime_rehash_policyENS4_17_Hashtable_traitsILb1ELb1ELb1EEEE4sizeEv = comdat any

$_ZNSt10_HashtableIN4node12CleanupQueue19CleanupHookCallbackES2_SaIS2_ENSt8__detail9_IdentityENS2_5EqualENS2_4HashENS4_18_Mod_range_hashingENS4_20_Default_ranged_hashENS4_20_Prime_rehash_policyENS4_17_Hashtable_traitsILb1ELb1ELb1EEEE22__small_size_thresholdEv = comdat any

$_ZNSt10_HashtableIN4node12CleanupQueue19CleanupHookCallbackES2_SaIS2_ENSt8__detail9_IdentityENS2_5EqualENS2_4HashENS4_18_Mod_range_hashingENS4_20_Default_ranged_hashENS4_20_Prime_rehash_policyENS4_17_Hashtable_traitsILb1ELb1ELb1EEEE5beginEv = comdat any

$_ZNSt8__detailneERKNS_19_Node_iterator_baseIN4node12CleanupQueue19CleanupHookCallbackELb1EEES6_ = comdat any

$_ZNSt10_HashtableIN4node12CleanupQueue19CleanupHookCallbackES2_SaIS2_ENSt8__detail9_IdentityENS2_5EqualENS2_4HashENS4_18_Mod_range_hashingENS4_20_Default_ranged_hashENS4_20_Prime_rehash_policyENS4_17_Hashtable_traitsILb1ELb1ELb1EEEE3endEv = comdat any

$_ZNKSt8__detail15_Hashtable_baseIN4node12CleanupQueue19CleanupHookCallbackES3_NS_9_IdentityENS3_5EqualENS3_4HashENS_18_Mod_range_hashingENS_20_Default_ranged_hashENS_17_Hashtable_traitsILb1ELb1ELb1EEEE13_M_key_equalsERKS3_RKNS_16_Hash_node_valueIS3_Lb1EEE = comdat any

$_ZNSt4pairINSt8__detail14_Node_iteratorIN4node12CleanupQueue19CleanupHookCallbackELb1ELb1EEEbEC2IRS5_bTnNSt9enable_ifIXaaclsr5_PCCPE22_MoveConstructiblePairIT_T0_EEclsr5_PCCPE30_ImplicitlyMoveConvertiblePairISA_SB_EEEbE4typeELb1EEEOSA_OSB_ = comdat any

$_ZNSt8__detail14_Node_iteratorIN4node12CleanupQueue19CleanupHookCallbackELb1ELb1EEppEv = comdat any

$_ZNKSt8__detail15_Hash_code_baseIN4node12CleanupQueue19CleanupHookCallbackES3_NS_9_IdentityENS3_4HashENS_18_Mod_range_hashingENS_20_Default_ranged_hashELb1EE12_M_hash_codeERKS3_ = comdat any

$_ZNKSt10_HashtableIN4node12CleanupQueue19CleanupHookCallbackES2_SaIS2_ENSt8__detail9_IdentityENS2_5EqualENS2_4HashENS4_18_Mod_range_hashingENS4_20_Default_ranged_hashENS4_20_Prime_rehash_policyENS4_17_Hashtable_traitsILb1ELb1ELb1EEEE15_M_bucket_indexEm = comdat any

$_ZNKSt10_HashtableIN4node12CleanupQueue19CleanupHookCallbackES2_SaIS2_ENSt8__detail9_IdentityENS2_5EqualENS2_4HashENS4_18_Mod_range_hashingENS4_20_Default_ranged_hashENS4_20_Prime_rehash_policyENS4_17_Hashtable_traitsILb1ELb1ELb1EEEE12_M_find_nodeEmRKS2_m = comdat any

$_ZNSt8__detail14_Node_iteratorIN4node12CleanupQueue19CleanupHookCallbackELb1ELb1EEC2EPNS_10_Hash_nodeIS3_Lb1EEE = comdat any

$_ZNSt4pairINSt8__detail14_Node_iteratorIN4node12CleanupQueue19CleanupHookCallbackELb1ELb1EEEbEC2IS5_bTnNSt9enable_ifIXaaclsr5_PCCPE22_MoveConstructiblePairIT_T0_EEclsr5_PCCPE30_ImplicitlyMoveConvertiblePairIS9_SA_EEEbE4typeELb1EEEOS9_OSA_ = comdat any

$_ZNSt10_HashtableIN4node12CleanupQueue19CleanupHookCallbackES2_SaIS2_ENSt8__detail9_IdentityENS2_5EqualENS2_4HashENS4_18_Mod_range_hashingENS4_20_Default_ranged_hashENS4_20_Prime_rehash_policyENS4_17_Hashtable_traitsILb1ELb1ELb1EEEE21_M_insert_unique_nodeEmmPNS4_10_Hash_nodeIS2_Lb1EEEm = comdat any

$_ZNSt10_HashtableIN4node12CleanupQueue19CleanupHookCallbackES2_SaIS2_ENSt8__detail9_IdentityENS2_5EqualENS2_4HashENS4_18_Mod_range_hashingENS4_20_Default_ranged_hashENS4_20_Prime_rehash_policyENS4_17_Hashtable_traitsILb1ELb1ELb1EEEE12_Scoped_nodeD2Ev = comdat any

$_ZNSt8__detail16_Hashtable_allocISaINS_10_Hash_nodeIN4node12CleanupQueue19CleanupHookCallbackELb1EEEEE16_M_allocate_nodeIJRPFvPvERS9_mEEEPS5_DpOT_ = comdat any

$_ZNSt16allocator_traitsISaINSt8__detail10_Hash_nodeIN4node12CleanupQueue19CleanupHookCallbackELb1EEEEE8allocateERS6_m = comdat any

$_ZNSt8__detail16_Hashtable_allocISaINS_10_Hash_nodeIN4node12CleanupQueue19CleanupHookCallbackELb1EEEEE17_M_node_allocatorEv = comdat any

$_ZSt12__to_addressINSt8__detail10_Hash_nodeIN4node12CleanupQueue19CleanupHookCallbackELb1EEEEPT_S7_ = comdat any

$_ZNSt8__detail10_Hash_nodeIN4node12CleanupQueue19CleanupHookCallbackELb1EEC2Ev = comdat any

$_ZNSt16allocator_traitsISaINSt8__detail10_Hash_nodeIN4node12CleanupQueue19CleanupHookCallbackELb1EEEEE9constructIS4_JRPFvPvERS9_mEEEvRS6_PT_DpOT0_ = comdat any

$_ZNSt8__detail21_Hash_node_value_baseIN4node12CleanupQueue19CleanupHookCallbackEE9_M_valptrEv = comdat any

$_ZNSt15__new_allocatorINSt8__detail10_Hash_nodeIN4node12CleanupQueue19CleanupHookCallbackELb1EEEE8allocateEmPKv = comdat any

$_ZNKSt15__new_allocatorINSt8__detail10_Hash_nodeIN4node12CleanupQueue19CleanupHookCallbackELb1EEEE11_M_max_sizeEv = comdat any

$_ZNSt8__detail21_Hashtable_ebo_helperILi0ESaINS_10_Hash_nodeIN4node12CleanupQueue19CleanupHookCallbackELb1EEEELb1EE6_M_getEv = comdat any

$_ZNSt15__new_allocatorINSt8__detail10_Hash_nodeIN4node12CleanupQueue19CleanupHookCallbackELb1EEEE9constructIS4_JRPFvPvERS8_mEEEvPT_DpOT0_ = comdat any

$_ZN4node12CleanupQueue19CleanupHookCallbackC2EPFvPvES2_m = comdat any

$_ZN9__gnu_cxx16__aligned_bufferIN4node12CleanupQueue19CleanupHookCallbackEE6_M_ptrEv = comdat any

$_ZN9__gnu_cxx16__aligned_bufferIN4node12CleanupQueue19CleanupHookCallbackEE7_M_addrEv = comdat any

$_ZNSt8__detail22_Hashtable_hash_traitsIN4node12CleanupQueue19CleanupHookCallback4HashEE22__small_size_thresholdEv = comdat any

$_ZNKSt10_HashtableIN4node12CleanupQueue19CleanupHookCallbackES2_SaIS2_ENSt8__detail9_IdentityENS2_5EqualENS2_4HashENS4_18_Mod_range_hashingENS4_20_Default_ranged_hashENS4_20_Prime_rehash_policyENS4_17_Hashtable_traitsILb1ELb1ELb1EEEE8_M_beginEv = comdat any

$_ZNKSt8__detail15_Hashtable_baseIN4node12CleanupQueue19CleanupHookCallbackES3_NS_9_IdentityENS3_5EqualENS3_4HashENS_18_Mod_range_hashingENS_20_Default_ranged_hashENS_17_Hashtable_traitsILb1ELb1ELb1EEEE5_M_eqEv = comdat any

$_ZNKSt8__detail9_IdentityclIRKN4node12CleanupQueue19CleanupHookCallbackEEEOT_S8_ = comdat any

$_ZNKSt8__detail21_Hash_node_value_baseIN4node12CleanupQueue19CleanupHookCallbackEE4_M_vEv = comdat any

$_ZNKSt8__detail21_Hashtable_ebo_helperILi0EN4node12CleanupQueue19CleanupHookCallback5EqualELb1EE7_M_cgetEv = comdat any

$_ZNKSt8__detail21_Hash_node_value_baseIN4node12CleanupQueue19CleanupHookCallbackEE9_M_valptrEv = comdat any

$_ZNK9__gnu_cxx16__aligned_bufferIN4node12CleanupQueue19CleanupHookCallbackEE6_M_ptrEv = comdat any

$_ZNK9__gnu_cxx16__aligned_bufferIN4node12CleanupQueue19CleanupHookCallbackEE7_M_addrEv = comdat any

$_ZNSt8__detail19_Node_iterator_baseIN4node12CleanupQueue19CleanupHookCallbackELb1EE7_M_incrEv = comdat any

$_ZNKSt8__detail10_Hash_nodeIN4node12CleanupQueue19CleanupHookCallbackELb1EE7_M_nextEv = comdat any

$_ZNKSt8__detail15_Hash_code_baseIN4node12CleanupQueue19CleanupHookCallbackES3_NS_9_IdentityENS3_4HashENS_18_Mod_range_hashingENS_20_Default_ranged_hashELb1EE7_M_hashEv = comdat any

$_ZNKSt8__detail21_Hashtable_ebo_helperILi1EN4node12CleanupQueue19CleanupHookCallback4HashELb1EE7_M_cgetEv = comdat any

$_ZNKSt8__detail15_Hash_code_baseIN4node12CleanupQueue19CleanupHookCallbackES3_NS_9_IdentityENS3_4HashENS_18_Mod_range_hashingENS_20_Default_ranged_hashELb1EE15_M_bucket_indexEmm = comdat any

$_ZNKSt8__detail18_Mod_range_hashingclEmm = comdat any

$_ZNKSt10_HashtableIN4node12CleanupQueue19CleanupHookCallbackES2_SaIS2_ENSt8__detail9_IdentityENS2_5EqualENS2_4HashENS4_18_Mod_range_hashingENS4_20_Default_ranged_hashENS4_20_Prime_rehash_policyENS4_17_Hashtable_traitsILb1ELb1ELb1EEEE19_M_find_before_nodeEmRKS2_m = comdat any

$_ZNKSt8__detail15_Hashtable_baseIN4node12CleanupQueue19CleanupHookCallbackES3_NS_9_IdentityENS3_5EqualENS3_4HashENS_18_Mod_range_hashingENS_20_Default_ranged_hashENS_17_Hashtable_traitsILb1ELb1ELb1EEEE9_M_equalsERKS3_mRKNS_16_Hash_node_valueIS3_Lb1EEE = comdat any

$_ZNKSt10_HashtableIN4node12CleanupQueue19CleanupHookCallbackES2_SaIS2_ENSt8__detail9_IdentityENS2_5EqualENS2_4HashENS4_18_Mod_range_hashingENS4_20_Default_ranged_hashENS4_20_Prime_rehash_policyENS4_17_Hashtable_traitsILb1ELb1ELb1EEEE15_M_bucket_indexERKNS4_16_Hash_node_valueIS2_Lb1EEE = comdat any

$_ZNSt8__detail15_Hashtable_baseIN4node12CleanupQueue19CleanupHookCallbackES3_NS_9_IdentityENS3_5EqualENS3_4HashENS_18_Mod_range_hashingENS_20_Default_ranged_hashENS_17_Hashtable_traitsILb1ELb1ELb1EEEE9_S_equalsEmRKNS_21_Hash_node_code_cacheILb1EEE = comdat any

$_ZNKSt8__detail15_Hash_code_baseIN4node12CleanupQueue19CleanupHookCallbackES3_NS_9_IdentityENS3_4HashENS_18_Mod_range_hashingENS_20_Default_ranged_hashELb1EE15_M_bucket_indexERKNS_16_Hash_node_valueIS3_Lb1EEEm = comdat any

$_ZNSt8__detail19_Node_iterator_baseIN4node12CleanupQueue19CleanupHookCallbackELb1EEC2EPNS_10_Hash_nodeIS3_Lb1EEE = comdat any

$_ZNKSt8__detail20_Prime_rehash_policy8_M_stateEv = comdat any

$_ZNSt10_HashtableIN4node12CleanupQueue19CleanupHookCallbackES2_SaIS2_ENSt8__detail9_IdentityENS2_5EqualENS2_4HashENS4_18_Mod_range_hashingENS4_20_Default_ranged_hashENS4_20_Prime_rehash_policyENS4_17_Hashtable_traitsILb1ELb1ELb1EEEE9_M_rehashEmRKm = comdat any

$_ZNKSt8__detail15_Hash_code_baseIN4node12CleanupQueue19CleanupHookCallbackES3_NS_9_IdentityENS3_4HashENS_18_Mod_range_hashingENS_20_Default_ranged_hashELb1EE13_M_store_codeERNS_21_Hash_node_code_cacheILb1EEEm = comdat any

$_ZNSt10_HashtableIN4node12CleanupQueue19CleanupHookCallbackES2_SaIS2_ENSt8__detail9_IdentityENS2_5EqualENS2_4HashENS4_18_Mod_range_hashingENS4_20_Default_ranged_hashENS4_20_Prime_rehash_policyENS4_17_Hashtable_traitsILb1ELb1ELb1EEEE22_M_insert_bucket_beginEmPNS4_10_Hash_nodeIS2_Lb1EEE = comdat any

$_ZNSt10_HashtableIN4node12CleanupQueue19CleanupHookCallbackES2_SaIS2_ENSt8__detail9_IdentityENS2_5EqualENS2_4HashENS4_18_Mod_range_hashingENS4_20_Default_ranged_hashENS4_20_Prime_rehash_policyENS4_17_Hashtable_traitsILb1ELb1ELb1EEEE13_M_rehash_auxEmSt17integral_constantIbLb1EE = comdat any

$_ZNSt10_HashtableIN4node12CleanupQueue19CleanupHookCallbackES2_SaIS2_ENSt8__detail9_IdentityENS2_5EqualENS2_4HashENS4_18_Mod_range_hashingENS4_20_Default_ranged_hashENS4_20_Prime_rehash_policyENS4_17_Hashtable_traitsILb1ELb1ELb1EEEE19_M_allocate_bucketsEm = comdat any

$_ZNSt10_HashtableIN4node12CleanupQueue19CleanupHookCallbackES2_SaIS2_ENSt8__detail9_IdentityENS2_5EqualENS2_4HashENS4_18_Mod_range_hashingENS4_20_Default_ranged_hashENS4_20_Prime_rehash_policyENS4_17_Hashtable_traitsILb1ELb1ELb1EEEE21_M_deallocate_bucketsEv = comdat any

$_ZNSt8__detail16_Hashtable_allocISaINS_10_Hash_nodeIN4node12CleanupQueue19CleanupHookCallbackELb1EEEEE19_M_allocate_bucketsEm = comdat any

$_ZNSaIPNSt8__detail15_Hash_node_baseEEC2INS_10_Hash_nodeIN4node12CleanupQueue19CleanupHookCallbackELb1EEEEERKSaIT_E = comdat any

$_ZNSt16allocator_traitsISaIPNSt8__detail15_Hash_node_baseEEE8allocateERS3_m = comdat any

$_ZSt12__to_addressIPNSt8__detail15_Hash_node_baseEEPT_S4_ = comdat any

$_ZNSaIPNSt8__detail15_Hash_node_baseEED2Ev = comdat any

$_ZNSt15__new_allocatorIPNSt8__detail15_Hash_node_baseEEC2Ev = comdat any

$_ZNSt15__new_allocatorIPNSt8__detail15_Hash_node_baseEE8allocateEmPKv = comdat any

$_ZNKSt15__new_allocatorIPNSt8__detail15_Hash_node_baseEE11_M_max_sizeEv = comdat any

$_ZNSt15__new_allocatorIPNSt8__detail15_Hash_node_baseEED2Ev = comdat any

$_ZNSt10_HashtableIN4node12CleanupQueue19CleanupHookCallbackES2_SaIS2_ENSt8__detail9_IdentityENS2_5EqualENS2_4HashENS4_18_Mod_range_hashingENS4_20_Default_ranged_hashENS4_20_Prime_rehash_policyENS4_17_Hashtable_traitsILb1ELb1ELb1EEEE21_M_deallocate_bucketsEPPNS4_15_Hash_node_baseEm = comdat any

$_ZNKSt10_HashtableIN4node12CleanupQueue19CleanupHookCallbackES2_SaIS2_ENSt8__detail9_IdentityENS2_5EqualENS2_4HashENS4_18_Mod_range_hashingENS4_20_Default_ranged_hashENS4_20_Prime_rehash_policyENS4_17_Hashtable_traitsILb1ELb1ELb1EEEE21_M_uses_single_bucketEPPNS4_15_Hash_node_baseE = comdat any

$_ZNSt8__detail16_Hashtable_allocISaINS_10_Hash_nodeIN4node12CleanupQueue19CleanupHookCallbackELb1EEEEE21_M_deallocate_bucketsEPPNS_15_Hash_node_baseEm = comdat any

$_ZNSt19__ptr_traits_ptr_toIPPNSt8__detail15_Hash_node_baseES2_Lb0EE10pointer_toERS2_ = comdat any

$_ZNSt16allocator_traitsISaIPNSt8__detail15_Hash_node_baseEEE10deallocateERS3_PS2_m = comdat any

$_ZNSt15__new_allocatorIPNSt8__detail15_Hash_node_baseEE10deallocateEPS2_m = comdat any

$_ZNSt8__detail16_Hashtable_allocISaINS_10_Hash_nodeIN4node12CleanupQueue19CleanupHookCallbackELb1EEEEE18_M_deallocate_nodeEPS5_ = comdat any

$_ZNSt16allocator_traitsISaINSt8__detail10_Hash_nodeIN4node12CleanupQueue19CleanupHookCallbackELb1EEEEE7destroyIS4_EEvRS6_PT_ = comdat any

$_ZNSt8__detail16_Hashtable_allocISaINS_10_Hash_nodeIN4node12CleanupQueue19CleanupHookCallbackELb1EEEEE22_M_deallocate_node_ptrEPS5_ = comdat any

$_ZNSt15__new_allocatorINSt8__detail10_Hash_nodeIN4node12CleanupQueue19CleanupHookCallbackELb1EEEE7destroyIS4_EEvPT_ = comdat any

$_ZNSt19__ptr_traits_ptr_toIPNSt8__detail10_Hash_nodeIN4node12CleanupQueue19CleanupHookCallbackELb1EEES5_Lb0EE10pointer_toERS5_ = comdat any

$_ZNSt16allocator_traitsISaINSt8__detail10_Hash_nodeIN4node12CleanupQueue19CleanupHookCallbackELb1EEEEE10deallocateERS6_PS5_m = comdat any

$_ZNSt15__new_allocatorINSt8__detail10_Hash_nodeIN4node12CleanupQueue19CleanupHookCallbackELb1EEEE10deallocateEPS5_m = comdat any

$_ZNK4node11Environment15inspector_agentEv = comdat any

$_ZNKSt10unique_ptrIN4node9inspector5AgentESt14default_deleteIS2_EE3getEv = comdat any

$_ZNKSt15__uniq_ptr_implIN4node9inspector5AgentESt14default_deleteIS2_EE6_M_ptrEv = comdat any

$_ZSt3getILm0EJPN4node9inspector5AgentESt14default_deleteIS2_EEERKNSt13tuple_elementIXT_ESt5tupleIJDpT0_EEE4typeERKSA_ = comdat any

$_ZSt12__get_helperILm0EPN4node9inspector5AgentEJSt14default_deleteIS2_EEERKT0_RKSt11_Tuple_implIXT_EJS6_DpT1_EE = comdat any

$_ZNSt11_Tuple_implILm0EJPN4node9inspector5AgentESt14default_deleteIS2_EEE7_M_headERKS6_ = comdat any

$_ZNSt10_Head_baseILm0EPN4node9inspector5AgentELb0EE7_M_headERKS4_ = comdat any

$_ZNKSt12__shared_ptrIN4node9inspector19MainThreadInterfaceELN9__gnu_cxx12_Lock_policyE2EEcvbEv = comdat any

$_ZSt11make_sharedIN4node9inspector19MainThreadInterfaceEJPNS1_5AgentEEESt10shared_ptrINSt9enable_ifIXntsr8is_arrayIT_EE5valueES7_E4typeEEDpOT0_ = comdat any

$_ZNSt10shared_ptrIN4node9inspector19MainThreadInterfaceEEaSEOS3_ = comdat any

$_ZNSt10shared_ptrIN4node9inspector19MainThreadInterfaceEED2Ev = comdat any

$_ZNKSt19__shared_ptr_accessIN4node9inspector19MainThreadInterfaceELN9__gnu_cxx12_Lock_policyE2ELb0ELb0EEptEv = comdat any

$_ZNSt10shared_ptrIN4node9inspector19MainThreadInterfaceEEC2ISaIvEJPNS1_5AgentEEEESt20_Sp_alloc_shared_tagIT_EDpOT0_ = comdat any

$_ZNSt12__shared_ptrIN4node9inspector19MainThreadInterfaceELN9__gnu_cxx12_Lock_policyE2EEC2ISaIvEJPNS1_5AgentEEEESt20_Sp_alloc_shared_tagIT_EDpOT0_ = comdat any

$_ZNSt14__shared_countILN9__gnu_cxx12_Lock_policyE2EEC2IN4node9inspector19MainThreadInterfaceESaIvEJPNS5_5AgentEEEERPT_St20_Sp_alloc_shared_tagIT0_EDpOT1_ = comdat any

$_ZNSt12__shared_ptrIN4node9inspector19MainThreadInterfaceELN9__gnu_cxx12_Lock_policyE2EE31_M_enable_shared_from_this_withIS2_S2_EENSt9enable_ifIXsr15__has_esft_baseIT0_EE5valueEvE4typeEPT_ = comdat any

$_ZNSaISt23_Sp_counted_ptr_inplaceIN4node9inspector19MainThreadInterfaceESaIvELN9__gnu_cxx12_Lock_policyE2EEEC2IvEERKSaIT_E = comdat any

$_ZSt18__allocate_guardedISaISt23_Sp_counted_ptr_inplaceIN4node9inspector19MainThreadInterfaceESaIvELN9__gnu_cxx12_Lock_policyE2EEEESt15__allocated_ptrIT_ERSA_ = comdat any

$_ZNSt15__allocated_ptrISaISt23_Sp_counted_ptr_inplaceIN4node9inspector19MainThreadInterfaceESaIvELN9__gnu_cxx12_Lock_policyE2EEEE3getEv = comdat any

$_ZNSt23_Sp_counted_ptr_inplaceIN4node9inspector19MainThreadInterfaceESaIvELN9__gnu_cxx12_Lock_policyE2EEC2IJPNS1_5AgentEEEES3_DpOT_ = comdat any

$_ZNSt15__allocated_ptrISaISt23_Sp_counted_ptr_inplaceIN4node9inspector19MainThreadInterfaceESaIvELN9__gnu_cxx12_Lock_policyE2EEEEaSEDn = comdat any

$_ZNSt23_Sp_counted_ptr_inplaceIN4node9inspector19MainThreadInterfaceESaIvELN9__gnu_cxx12_Lock_policyE2EE6_M_ptrEv = comdat any

$_ZNSt15__allocated_ptrISaISt23_Sp_counted_ptr_inplaceIN4node9inspector19MainThreadInterfaceESaIvELN9__gnu_cxx12_Lock_policyE2EEEED2Ev = comdat any

$_ZNSaISt23_Sp_counted_ptr_inplaceIN4node9inspector19MainThreadInterfaceESaIvELN9__gnu_cxx12_Lock_policyE2EEED2Ev = comdat any

$_ZNSt15__new_allocatorISt23_Sp_counted_ptr_inplaceIN4node9inspector19MainThreadInterfaceESaIvELN9__gnu_cxx12_Lock_policyE2EEEC2Ev = comdat any

$_ZNSt16allocator_traitsISaISt23_Sp_counted_ptr_inplaceIN4node9inspector19MainThreadInterfaceESaIvELN9__gnu_cxx12_Lock_policyE2EEEE8allocateERS8_m = comdat any

$_ZNSt15__allocated_ptrISaISt23_Sp_counted_ptr_inplaceIN4node9inspector19MainThreadInterfaceESaIvELN9__gnu_cxx12_Lock_policyE2EEEEC2ERS8_PS7_ = comdat any

$_ZNSt15__new_allocatorISt23_Sp_counted_ptr_inplaceIN4node9inspector19MainThreadInterfaceESaIvELN9__gnu_cxx12_Lock_policyE2EEE8allocateEmPKv = comdat any

$_ZNKSt15__new_allocatorISt23_Sp_counted_ptr_inplaceIN4node9inspector19MainThreadInterfaceESaIvELN9__gnu_cxx12_Lock_policyE2EEE11_M_max_sizeEv = comdat any

$_ZSt12__to_addressISt23_Sp_counted_ptr_inplaceIN4node9inspector19MainThreadInterfaceESaIvELN9__gnu_cxx12_Lock_policyE2EEEPT_S9_ = comdat any

$_ZNSt16_Sp_counted_baseILN9__gnu_cxx12_Lock_policyE2EEC2Ev = comdat any

$_ZNSt23_Sp_counted_ptr_inplaceIN4node9inspector19MainThreadInterfaceESaIvELN9__gnu_cxx12_Lock_policyE2EE5_ImplC2ES3_ = comdat any

$_ZNSt16allocator_traitsISaIvEE9constructIN4node9inspector19MainThreadInterfaceEJPNS4_5AgentEEEEvRS0_PT_DpOT0_ = comdat any

$_ZNSt23_Sp_counted_ptr_inplaceIN4node9inspector19MainThreadInterfaceESaIvELN9__gnu_cxx12_Lock_policyE2EED2Ev = comdat any

$_ZNSt23_Sp_counted_ptr_inplaceIN4node9inspector19MainThreadInterfaceESaIvELN9__gnu_cxx12_Lock_policyE2EED0Ev = comdat any

$_ZNSt23_Sp_counted_ptr_inplaceIN4node9inspector19MainThreadInterfaceESaIvELN9__gnu_cxx12_Lock_policyE2EE10_M_disposeEv = comdat any

$_ZNSt23_Sp_counted_ptr_inplaceIN4node9inspector19MainThreadInterfaceESaIvELN9__gnu_cxx12_Lock_policyE2EE10_M_destroyEv = comdat any

$_ZNSt23_Sp_counted_ptr_inplaceIN4node9inspector19MainThreadInterfaceESaIvELN9__gnu_cxx12_Lock_policyE2EE14_M_get_deleterERKSt9type_info = comdat any

$_ZNSt16_Sp_counted_baseILN9__gnu_cxx12_Lock_policyE2EED2Ev = comdat any

$_ZNSt16_Sp_counted_baseILN9__gnu_cxx12_Lock_policyE2EED0Ev = comdat any

$_ZNSt16_Sp_counted_baseILN9__gnu_cxx12_Lock_policyE2EE10_M_destroyEv = comdat any

$_ZNSt14_Sp_ebo_helperILi0ESaIvELb1EEC2ERKS0_ = comdat any

$_ZSt10_ConstructIN4node9inspector19MainThreadInterfaceEJPNS1_5AgentEEEvPT_DpOT0_ = comdat any

$_ZNSt16allocator_traitsISaIvEE7destroyIN4node9inspector19MainThreadInterfaceEEEvRS0_PT_ = comdat any

$_ZNSt23_Sp_counted_ptr_inplaceIN4node9inspector19MainThreadInterfaceESaIvELN9__gnu_cxx12_Lock_policyE2EE5_Impl8_M_allocEv = comdat any

$_ZSt8_DestroyIN4node9inspector19MainThreadInterfaceEEvPT_ = comdat any

$_ZNSt14_Sp_ebo_helperILi0ESaIvELb1EE6_S_getERS1_ = comdat any

$_ZNSt19_Sp_make_shared_tag5_S_tiEv = comdat any

$_ZN9__gnu_cxx16__aligned_bufferIN4node9inspector19MainThreadInterfaceEE6_M_ptrEv = comdat any

$_ZN9__gnu_cxx16__aligned_bufferIN4node9inspector19MainThreadInterfaceEE7_M_addrEv = comdat any

$_ZNSt16allocator_traitsISaISt23_Sp_counted_ptr_inplaceIN4node9inspector19MainThreadInterfaceESaIvELN9__gnu_cxx12_Lock_policyE2EEEE10deallocateERS8_PS7_m = comdat any

$_ZNSt15__new_allocatorISt23_Sp_counted_ptr_inplaceIN4node9inspector19MainThreadInterfaceESaIvELN9__gnu_cxx12_Lock_policyE2EEE10deallocateEPS7_m = comdat any

$_ZNSt15__new_allocatorISt23_Sp_counted_ptr_inplaceIN4node9inspector19MainThreadInterfaceESaIvELN9__gnu_cxx12_Lock_policyE2EEED2Ev = comdat any

$_ZSt30__enable_shared_from_this_baseRKSt14__shared_countILN9__gnu_cxx12_Lock_policyE2EEPKSt23enable_shared_from_thisIN4node9inspector19MainThreadInterfaceEE = comdat any

$_ZNKSt23enable_shared_from_thisIN4node9inspector19MainThreadInterfaceEE14_M_weak_assignIS2_EEvPT_RKSt14__shared_countILN9__gnu_cxx12_Lock_policyE2EE = comdat any

$_ZNSt10__weak_ptrIN4node9inspector19MainThreadInterfaceELN9__gnu_cxx12_Lock_policyE2EE9_M_assignEPS2_RKSt14__shared_countILS4_2EE = comdat any

$_ZNKSt10__weak_ptrIN4node9inspector19MainThreadInterfaceELN9__gnu_cxx12_Lock_policyE2EE9use_countEv = comdat any

$_ZNSt12__weak_countILN9__gnu_cxx12_Lock_policyE2EEaSERKSt14__shared_countILS1_2EE = comdat any

$_ZNKSt12__weak_countILN9__gnu_cxx12_Lock_policyE2EE16_M_get_use_countEv = comdat any

$_ZNKSt16_Sp_counted_baseILN9__gnu_cxx12_Lock_policyE2EE16_M_get_use_countEv = comdat any

$_ZNSt16_Sp_counted_baseILN9__gnu_cxx12_Lock_policyE2EE15_M_weak_add_refEv = comdat any

$_ZNSt16_Sp_counted_baseILN9__gnu_cxx12_Lock_policyE2EE15_M_weak_releaseEv = comdat any

$_ZNSt12__shared_ptrIN4node9inspector19MainThreadInterfaceELN9__gnu_cxx12_Lock_policyE2EEaSEOS5_ = comdat any

$_ZNSt12__shared_ptrIN4node9inspector19MainThreadInterfaceELN9__gnu_cxx12_Lock_policyE2EEC2EOS5_ = comdat any

$_ZNSt12__shared_ptrIN4node9inspector19MainThreadInterfaceELN9__gnu_cxx12_Lock_policyE2EE4swapERS5_ = comdat any

$_ZNSt12__shared_ptrIN4node9inspector19MainThreadInterfaceELN9__gnu_cxx12_Lock_policyE2EED2Ev = comdat any

$_ZNSt14__shared_countILN9__gnu_cxx12_Lock_policyE2EE7_M_swapERS2_ = comdat any

$_ZSt4swapIPN4node9inspector19MainThreadInterfaceEENSt9enable_ifIXsr6__and_ISt6__not_ISt15__is_tuple_likeIT_EESt21is_move_constructibleIS7_ESt18is_move_assignableIS7_EEE5valueEvE4typeERS7_SG_ = comdat any

$_ZNKSt19__shared_ptr_accessIN4node9inspector19MainThreadInterfaceELN9__gnu_cxx12_Lock_policyE2ELb0ELb0EE6_M_getEv = comdat any

$_ZNKSt12__shared_ptrIN4node9inspector19MainThreadInterfaceELN9__gnu_cxx12_Lock_policyE2EE3getEv = comdat any

$_ZNSt12__shared_ptrIN4node9inspector16MainThreadHandleELN9__gnu_cxx12_Lock_policyE2EED2Ev = comdat any

$_ZN4node9inspector19NodeInspectorClient14runMessageLoopEv = comdat any

$_ZN4node9inspector19NodeInspectorClient20shouldRunMessageLoopEv = comdat any

$_ZNK4node10permission10Permission16is_scope_grantedENS0_15PermissionScopeERKSt17basic_string_viewIcSt11char_traitsIcEE = comdat any

$_ZNKSt13unordered_mapIN4node10permission15PermissionScopeESt10shared_ptrINS1_14PermissionBaseEESt4hashIS2_ESt8equal_toIS2_ESaISt4pairIKS2_S5_EEE4findERSB_ = comdat any

$_ZNSt8__detailneERKNS_19_Node_iterator_baseISt4pairIKN4node10permission15PermissionScopeESt10shared_ptrINS3_14PermissionBaseEEELb0EEESC_ = comdat any

$_ZNKSt13unordered_mapIN4node10permission15PermissionScopeESt10shared_ptrINS1_14PermissionBaseEESt4hashIS2_ESt8equal_toIS2_ESaISt4pairIKS2_S5_EEE3endEv = comdat any

$_ZNKSt8__detail20_Node_const_iteratorISt4pairIKN4node10permission15PermissionScopeESt10shared_ptrINS3_14PermissionBaseEEELb0ELb0EEptEv = comdat any

$_ZNKSt19__shared_ptr_accessIN4node10permission14PermissionBaseELN9__gnu_cxx12_Lock_policyE2ELb0ELb0EEptEv = comdat any

$_ZNKSt10_HashtableIN4node10permission15PermissionScopeESt4pairIKS2_St10shared_ptrINS1_14PermissionBaseEEESaIS8_ENSt8__detail10_Select1stESt8equal_toIS2_ESt4hashIS2_ENSA_18_Mod_range_hashingENSA_20_Default_ranged_hashENSA_20_Prime_rehash_policyENSA_17_Hashtable_traitsILb0ELb0ELb1EEEE4findERS4_ = comdat any

$_ZNKSt10_HashtableIN4node10permission15PermissionScopeESt4pairIKS2_St10shared_ptrINS1_14PermissionBaseEEESaIS8_ENSt8__detail10_Select1stESt8equal_toIS2_ESt4hashIS2_ENSA_18_Mod_range_hashingENSA_20_Default_ranged_hashENSA_20_Prime_rehash_policyENSA_17_Hashtable_traitsILb0ELb0ELb1EEEE4sizeEv = comdat any

$_ZNSt10_HashtableIN4node10permission15PermissionScopeESt4pairIKS2_St10shared_ptrINS1_14PermissionBaseEEESaIS8_ENSt8__detail10_Select1stESt8equal_toIS2_ESt4hashIS2_ENSA_18_Mod_range_hashingENSA_20_Default_ranged_hashENSA_20_Prime_rehash_policyENSA_17_Hashtable_traitsILb0ELb0ELb1EEEE22__small_size_thresholdEv = comdat any

$_ZNKSt10_HashtableIN4node10permission15PermissionScopeESt4pairIKS2_St10shared_ptrINS1_14PermissionBaseEEESaIS8_ENSt8__detail10_Select1stESt8equal_toIS2_ESt4hashIS2_ENSA_18_Mod_range_hashingENSA_20_Default_ranged_hashENSA_20_Prime_rehash_policyENSA_17_Hashtable_traitsILb0ELb0ELb1EEEE5beginEv = comdat any

$_ZNKSt10_HashtableIN4node10permission15PermissionScopeESt4pairIKS2_St10shared_ptrINS1_14PermissionBaseEEESaIS8_ENSt8__detail10_Select1stESt8equal_toIS2_ESt4hashIS2_ENSA_18_Mod_range_hashingENSA_20_Default_ranged_hashENSA_20_Prime_rehash_policyENSA_17_Hashtable_traitsILb0ELb0ELb1EEEE3endEv = comdat any

$_ZNKSt8__detail15_Hashtable_baseIN4node10permission15PermissionScopeESt4pairIKS3_St10shared_ptrINS2_14PermissionBaseEEENS_10_Select1stESt8equal_toIS3_ESt4hashIS3_ENS_18_Mod_range_hashingENS_20_Default_ranged_hashENS_17_Hashtable_traitsILb0ELb0ELb1EEEE13_M_key_equalsERS5_RKNS_16_Hash_node_valueIS9_Lb0EEE = comdat any

$_ZNSt8__detail20_Node_const_iteratorISt4pairIKN4node10permission15PermissionScopeESt10shared_ptrINS3_14PermissionBaseEEELb0ELb0EEppEv = comdat any

$_ZNKSt8__detail15_Hash_code_baseIN4node10permission15PermissionScopeESt4pairIKS3_St10shared_ptrINS2_14PermissionBaseEEENS_10_Select1stESt4hashIS3_ENS_18_Mod_range_hashingENS_20_Default_ranged_hashELb0EE12_M_hash_codeERS5_ = comdat any

$_ZNKSt10_HashtableIN4node10permission15PermissionScopeESt4pairIKS2_St10shared_ptrINS1_14PermissionBaseEEESaIS8_ENSt8__detail10_Select1stESt8equal_toIS2_ESt4hashIS2_ENSA_18_Mod_range_hashingENSA_20_Default_ranged_hashENSA_20_Prime_rehash_policyENSA_17_Hashtable_traitsILb0ELb0ELb1EEEE15_M_bucket_indexEm = comdat any

$_ZNKSt10_HashtableIN4node10permission15PermissionScopeESt4pairIKS2_St10shared_ptrINS1_14PermissionBaseEEESaIS8_ENSt8__detail10_Select1stESt8equal_toIS2_ESt4hashIS2_ENSA_18_Mod_range_hashingENSA_20_Default_ranged_hashENSA_20_Prime_rehash_policyENSA_17_Hashtable_traitsILb0ELb0ELb1EEEE12_M_find_nodeEmRS4_m = comdat any

$_ZNSt8__detail20_Node_const_iteratorISt4pairIKN4node10permission15PermissionScopeESt10shared_ptrINS3_14PermissionBaseEEELb0ELb0EEC2EPNS_10_Hash_nodeIS9_Lb0EEE = comdat any

$_ZNSt8__detail22_Hashtable_hash_traitsISt4hashIN4node10permission15PermissionScopeEEE22__small_size_thresholdEv = comdat any

$_ZNKSt10_HashtableIN4node10permission15PermissionScopeESt4pairIKS2_St10shared_ptrINS1_14PermissionBaseEEESaIS8_ENSt8__detail10_Select1stESt8equal_toIS2_ESt4hashIS2_ENSA_18_Mod_range_hashingENSA_20_Default_ranged_hashENSA_20_Prime_rehash_policyENSA_17_Hashtable_traitsILb0ELb0ELb1EEEE8_M_beginEv = comdat any

$_ZNKSt8__detail15_Hashtable_baseIN4node10permission15PermissionScopeESt4pairIKS3_St10shared_ptrINS2_14PermissionBaseEEENS_10_Select1stESt8equal_toIS3_ESt4hashIS3_ENS_18_Mod_range_hashingENS_20_Default_ranged_hashENS_17_Hashtable_traitsILb0ELb0ELb1EEEE5_M_eqEv = comdat any

$_ZNKSt8equal_toIN4node10permission15PermissionScopeEEclERKS2_S5_ = comdat any

$_ZNKSt8__detail10_Select1stclIRKSt4pairIKN4node10permission15PermissionScopeESt10shared_ptrINS4_14PermissionBaseEEEEEONS0_10__1st_typeIT_E4typeEOSE_ = comdat any

$_ZNKSt8__detail21_Hash_node_value_baseISt4pairIKN4node10permission15PermissionScopeESt10shared_ptrINS3_14PermissionBaseEEEE4_M_vEv = comdat any

$_ZNKSt8__detail21_Hashtable_ebo_helperILi0ESt8equal_toIN4node10permission15PermissionScopeEELb1EE7_M_cgetEv = comdat any

$_ZNKSt8__detail21_Hash_node_value_baseISt4pairIKN4node10permission15PermissionScopeESt10shared_ptrINS3_14PermissionBaseEEEE9_M_valptrEv = comdat any

$_ZNK9__gnu_cxx16__aligned_bufferISt4pairIKN4node10permission15PermissionScopeESt10shared_ptrINS3_14PermissionBaseEEEE6_M_ptrEv = comdat any

$_ZNK9__gnu_cxx16__aligned_bufferISt4pairIKN4node10permission15PermissionScopeESt10shared_ptrINS3_14PermissionBaseEEEE7_M_addrEv = comdat any

$_ZNSt8__detail19_Node_iterator_baseISt4pairIKN4node10permission15PermissionScopeESt10shared_ptrINS3_14PermissionBaseEEELb0EE7_M_incrEv = comdat any

$_ZNKSt8__detail10_Hash_nodeISt4pairIKN4node10permission15PermissionScopeESt10shared_ptrINS3_14PermissionBaseEEELb0EE7_M_nextEv = comdat any

$_ZNKSt8__detail15_Hash_code_baseIN4node10permission15PermissionScopeESt4pairIKS3_St10shared_ptrINS2_14PermissionBaseEEENS_10_Select1stESt4hashIS3_ENS_18_Mod_range_hashingENS_20_Default_ranged_hashELb0EE7_M_hashEv = comdat any

$_ZNKSt11__hash_enumIN4node10permission15PermissionScopeELb1EEclES2_ = comdat any

$_ZNKSt8__detail21_Hashtable_ebo_helperILi1ESt4hashIN4node10permission15PermissionScopeEELb1EE7_M_cgetEv = comdat any

$_ZNKSt4hashIiEclEi = comdat any

$_ZNKSt8__detail15_Hash_code_baseIN4node10permission15PermissionScopeESt4pairIKS3_St10shared_ptrINS2_14PermissionBaseEEENS_10_Select1stESt4hashIS3_ENS_18_Mod_range_hashingENS_20_Default_ranged_hashELb0EE15_M_bucket_indexEmm = comdat any

$_ZNKSt10_HashtableIN4node10permission15PermissionScopeESt4pairIKS2_St10shared_ptrINS1_14PermissionBaseEEESaIS8_ENSt8__detail10_Select1stESt8equal_toIS2_ESt4hashIS2_ENSA_18_Mod_range_hashingENSA_20_Default_ranged_hashENSA_20_Prime_rehash_policyENSA_17_Hashtable_traitsILb0ELb0ELb1EEEE19_M_find_before_nodeEmRS4_m = comdat any

$_ZNKSt8__detail15_Hashtable_baseIN4node10permission15PermissionScopeESt4pairIKS3_St10shared_ptrINS2_14PermissionBaseEEENS_10_Select1stESt8equal_toIS3_ESt4hashIS3_ENS_18_Mod_range_hashingENS_20_Default_ranged_hashENS_17_Hashtable_traitsILb0ELb0ELb1EEEE9_M_equalsERS5_mRKNS_16_Hash_node_valueIS9_Lb0EEE = comdat any

$_ZNKSt10_HashtableIN4node10permission15PermissionScopeESt4pairIKS2_St10shared_ptrINS1_14PermissionBaseEEESaIS8_ENSt8__detail10_Select1stESt8equal_toIS2_ESt4hashIS2_ENSA_18_Mod_range_hashingENSA_20_Default_ranged_hashENSA_20_Prime_rehash_policyENSA_17_Hashtable_traitsILb0ELb0ELb1EEEE15_M_bucket_indexERKNSA_16_Hash_node_valueIS8_Lb0EEE = comdat any

$_ZNSt8__detail15_Hashtable_baseIN4node10permission15PermissionScopeESt4pairIKS3_St10shared_ptrINS2_14PermissionBaseEEENS_10_Select1stESt8equal_toIS3_ESt4hashIS3_ENS_18_Mod_range_hashingENS_20_Default_ranged_hashENS_17_Hashtable_traitsILb0ELb0ELb1EEEE9_S_equalsEmRKNS_21_Hash_node_code_cacheILb0EEE = comdat any

$_ZNKSt8__detail15_Hash_code_baseIN4node10permission15PermissionScopeESt4pairIKS3_St10shared_ptrINS2_14PermissionBaseEEENS_10_Select1stESt4hashIS3_ENS_18_Mod_range_hashingENS_20_Default_ranged_hashELb0EE15_M_bucket_indexERKNS_16_Hash_node_valueIS9_Lb0EEEm = comdat any

$_ZNSt8__detail19_Node_iterator_baseISt4pairIKN4node10permission15PermissionScopeESt10shared_ptrINS3_14PermissionBaseEEELb0EEC2EPNS_10_Hash_nodeIS9_Lb0EEE = comdat any

$_ZNSt8__detail21_Hash_node_value_baseISt4pairIKN4node10permission15PermissionScopeESt10shared_ptrINS3_14PermissionBaseEEEE9_M_valptrEv = comdat any

$_ZN9__gnu_cxx16__aligned_bufferISt4pairIKN4node10permission15PermissionScopeESt10shared_ptrINS3_14PermissionBaseEEEE6_M_ptrEv = comdat any

$_ZN9__gnu_cxx16__aligned_bufferISt4pairIKN4node10permission15PermissionScopeESt10shared_ptrINS3_14PermissionBaseEEEE7_M_addrEv = comdat any

$_ZNKSt19__shared_ptr_accessIN4node10permission14PermissionBaseELN9__gnu_cxx12_Lock_policyE2ELb0ELb0EE6_M_getEv = comdat any

$_ZNKSt12__shared_ptrIN4node10permission14PermissionBaseELN9__gnu_cxx12_Lock_policyE2EE3getEv = comdat any

$_ZNSt11char_traitsIcE6lengthEPKc = comdat any

$_ZNSt12__shared_ptrIN4node15ExclusiveAccessINS0_8HostPortENS0_9MutexBaseINS0_16LibuvMutexTraitsEEEEELN9__gnu_cxx12_Lock_policyE2EEC2ERKS9_ = comdat any

$_ZNSt15__uniq_ptr_dataIN4node9inspector11InspectorIoESt14default_deleteIS2_ELb1ELb1EEaSEOS5_ = comdat any

$_ZNSt15__uniq_ptr_implIN4node9inspector11InspectorIoESt14default_deleteIS2_EEaSEOS5_ = comdat any

$_ZNSt15__uniq_ptr_implIN4node9inspector11InspectorIoESt14default_deleteIS2_EE5resetEPS2_ = comdat any

$_ZNSt15__uniq_ptr_implIN4node9inspector11InspectorIoESt14default_deleteIS2_EE7releaseEv = comdat any

$_ZNSt15__uniq_ptr_implIN4node9inspector11InspectorIoESt14default_deleteIS2_EE10_M_deleterEv = comdat any

$_ZNSt15__uniq_ptr_implIN4node9inspector11InspectorIoESt14default_deleteIS2_EE6_M_ptrEv = comdat any

$_ZNKSt14default_deleteIN4node9inspector11InspectorIoEEclEPS2_ = comdat any

$_ZSt3getILm0EJPN4node9inspector11InspectorIoESt14default_deleteIS2_EEERNSt13tuple_elementIXT_ESt5tupleIJDpT0_EEE4typeERSA_ = comdat any

$_ZSt12__get_helperILm0EPN4node9inspector11InspectorIoEJSt14default_deleteIS2_EEERT0_RSt11_Tuple_implIXT_EJS6_DpT1_EE = comdat any

$_ZNSt11_Tuple_implILm0EJPN4node9inspector11InspectorIoESt14default_deleteIS2_EEE7_M_headERS6_ = comdat any

$_ZNSt10_Head_baseILm0EPN4node9inspector11InspectorIoELb0EE7_M_headERS4_ = comdat any

$_ZSt3getILm1EJPN4node9inspector11InspectorIoESt14default_deleteIS2_EEERNSt13tuple_elementIXT_ESt5tupleIJDpT0_EEE4typeERSA_ = comdat any

$_ZSt12__get_helperILm1ESt14default_deleteIN4node9inspector11InspectorIoEEJEERT0_RSt11_Tuple_implIXT_EJS5_DpT1_EE = comdat any

$_ZNSt11_Tuple_implILm1EJSt14default_deleteIN4node9inspector11InspectorIoEEEE7_M_headERS5_ = comdat any

$_ZNSt10_Head_baseILm1ESt14default_deleteIN4node9inspector11InspectorIoEELb1EE7_M_headERS5_ = comdat any

$_ZN4node21FIXED_ONE_BYTE_STRINGILi4EEEN2v85LocalINS1_6StringEEEPNS1_7IsolateERAT__Kc = comdat any

$_ZN4node21FIXED_ONE_BYTE_STRINGILi19EEEN2v85LocalINS1_6StringEEEPNS1_7IsolateERAT__Kc = comdat any

$_ZN4node13OneByteStringEPN2v87IsolateEPKci = comdat any

$_ZNSt15__uniq_ptr_dataIN4node9inspector16InspectorSessionESt14default_deleteIS2_ELb1ELb1EEC2Ev = comdat any

$_ZNSt15__uniq_ptr_implIN4node9inspector16InspectorSessionESt14default_deleteIS2_EEC2Ev = comdat any

$_ZNSt5tupleIJPN4node9inspector16InspectorSessionESt14default_deleteIS2_EEEC2ILb1ETnNSt9enable_ifIXclsr17_TupleConstraintsIXT_ES3_S5_EE37__is_implicitly_default_constructibleEEbE4typeELb1EEEv = comdat any

$_ZNSt11_Tuple_implILm0EJPN4node9inspector16InspectorSessionESt14default_deleteIS2_EEEC2Ev = comdat any

$_ZNSt11_Tuple_implILm1EJSt14default_deleteIN4node9inspector16InspectorSessionEEEEC2Ev = comdat any

$_ZNSt10_Head_baseILm0EPN4node9inspector16InspectorSessionELb0EEC2Ev = comdat any

$_ZNSt10_Head_baseILm1ESt14default_deleteIN4node9inspector16InspectorSessionEELb1EEC2Ev = comdat any

$_ZNSt10shared_ptrIN4node9inspector13WorkerManagerEEC2EOS3_ = comdat any

$_ZNSt10shared_ptrIN4node9inspector16MainThreadHandleEEC2EOS3_ = comdat any

$_ZNSt12__shared_ptrIN4node9inspector16MainThreadHandleELN9__gnu_cxx12_Lock_policyE2EEC2EOS5_ = comdat any

$_ZN12v8_inspector11V8Inspector7ChannelC2Ev = comdat any

$_ZN4node9inspector8protocol15FrontendChannelC2Ev = comdat any

$_ZNSt10unique_ptrIN4node9inspector8protocol12RuntimeAgentESt14default_deleteIS3_EEC2IS5_vEEv = comdat any

$_ZNSt10unique_ptrIN4node9inspector8protocol12TracingAgentESt14default_deleteIS3_EEC2IS5_vEEv = comdat any

$_ZNSt10unique_ptrIN4node9inspector8protocol11WorkerAgentESt14default_deleteIS3_EEC2IS5_vEEv = comdat any

$_ZNSt10unique_ptrIN12v8_inspector18V8InspectorSessionESt14default_deleteIS1_EEC2IS3_vEEv = comdat any

$_ZNSt10unique_ptrIN4node9inspector8protocol14UberDispatcherESt14default_deleteIS3_EEC2IS5_vEEv = comdat any

$_ZNKSt10unique_ptrIN12v8_inspector11V8InspectorESt14default_deleteIS1_EEptEv = comdat any

$_ZN12v8_inspector10StringViewC2Ev = comdat any

$_ZNSt10unique_ptrIN12v8_inspector18V8InspectorSessionESt14default_deleteIS1_EEaSEOS4_ = comdat any

$_ZNSt10unique_ptrIN12v8_inspector18V8InspectorSessionESt14default_deleteIS1_EED2Ev = comdat any

$_ZNSt10unique_ptrIN4node9inspector8protocol14UberDispatcherESt14default_deleteIS3_EEaSEOS6_ = comdat any

$_ZNSt10unique_ptrIN4node9inspector8protocol14UberDispatcherESt14default_deleteIS3_EED2Ev = comdat any

$_ZSt11make_uniqueIN4node9inspector8protocol12TracingAgentEJRPNS0_11EnvironmentERSt10shared_ptrINS1_16MainThreadHandleEEEENSt8__detail9_MakeUniqIT_E15__single_objectEDpOT0_ = comdat any

$_ZNSt10unique_ptrIN4node9inspector8protocol12TracingAgentESt14default_deleteIS3_EEaSEOS6_ = comdat any

$_ZNSt10unique_ptrIN4node9inspector8protocol12TracingAgentESt14default_deleteIS3_EED2Ev = comdat any

$_ZNKSt10unique_ptrIN4node9inspector8protocol12TracingAgentESt14default_deleteIS3_EEptEv = comdat any

$_ZNKSt10unique_ptrIN4node9inspector8protocol14UberDispatcherESt14default_deleteIS3_EE3getEv = comdat any

$_ZNKSt12__shared_ptrIN4node9inspector13WorkerManagerELN9__gnu_cxx12_Lock_policyE2EEcvbEv = comdat any

$_ZSt11make_uniqueIN4node9inspector8protocol11WorkerAgentEJRSt10shared_ptrINS1_13WorkerManagerEEEENSt8__detail9_MakeUniqIT_E15__single_objectEDpOT0_ = comdat any

$_ZNSt10unique_ptrIN4node9inspector8protocol11WorkerAgentESt14default_deleteIS3_EEaSEOS6_ = comdat any

$_ZNSt10unique_ptrIN4node9inspector8protocol11WorkerAgentESt14default_deleteIS3_EED2Ev = comdat any

$_ZNKSt10unique_ptrIN4node9inspector8protocol11WorkerAgentESt14default_deleteIS3_EEptEv = comdat any

$_ZSt11make_uniqueIN4node9inspector8protocol12RuntimeAgentEJEENSt8__detail9_MakeUniqIT_E15__single_objectEDpOT0_ = comdat any

$_ZNSt10unique_ptrIN4node9inspector8protocol12RuntimeAgentESt14default_deleteIS3_EEaSEOS6_ = comdat any

$_ZNSt10unique_ptrIN4node9inspector8protocol12RuntimeAgentESt14default_deleteIS3_EED2Ev = comdat any

$_ZNKSt10unique_ptrIN4node9inspector8protocol12RuntimeAgentESt14default_deleteIS3_EEptEv = comdat any

$_ZN12v8_inspector11V8Inspector7ChannelD2Ev = comdat any

$_ZN12v8_inspector11V8Inspector7ChannelD0Ev = comdat any

$_ZN4node9inspector8protocol15FrontendChannelD2Ev = comdat any

$_ZN4node9inspector8protocol15FrontendChannelD0Ev = comdat any

$_ZNSt15__uniq_ptr_dataIN4node9inspector8protocol12RuntimeAgentESt14default_deleteIS3_ELb1ELb1EEC2Ev = comdat any

$_ZNSt15__uniq_ptr_implIN4node9inspector8protocol12RuntimeAgentESt14default_deleteIS3_EEC2Ev = comdat any

$_ZNSt5tupleIJPN4node9inspector8protocol12RuntimeAgentESt14default_deleteIS3_EEEC2ILb1ETnNSt9enable_ifIXclsr17_TupleConstraintsIXT_ES4_S6_EE37__is_implicitly_default_constructibleEEbE4typeELb1EEEv = comdat any

$_ZNSt11_Tuple_implILm0EJPN4node9inspector8protocol12RuntimeAgentESt14default_deleteIS3_EEEC2Ev = comdat any

$_ZNSt11_Tuple_implILm1EJSt14default_deleteIN4node9inspector8protocol12RuntimeAgentEEEEC2Ev = comdat any

$_ZNSt10_Head_baseILm0EPN4node9inspector8protocol12RuntimeAgentELb0EEC2Ev = comdat any

$_ZNSt10_Head_baseILm1ESt14default_deleteIN4node9inspector8protocol12RuntimeAgentEELb1EEC2Ev = comdat any

$_ZNSt15__uniq_ptr_dataIN4node9inspector8protocol12TracingAgentESt14default_deleteIS3_ELb1ELb1EEC2Ev = comdat any

$_ZNSt15__uniq_ptr_implIN4node9inspector8protocol12TracingAgentESt14default_deleteIS3_EEC2Ev = comdat any

$_ZNSt5tupleIJPN4node9inspector8protocol12TracingAgentESt14default_deleteIS3_EEEC2ILb1ETnNSt9enable_ifIXclsr17_TupleConstraintsIXT_ES4_S6_EE37__is_implicitly_default_constructibleEEbE4typeELb1EEEv = comdat any

$_ZNSt11_Tuple_implILm0EJPN4node9inspector8protocol12TracingAgentESt14default_deleteIS3_EEEC2Ev = comdat any

$_ZNSt11_Tuple_implILm1EJSt14default_deleteIN4node9inspector8protocol12TracingAgentEEEEC2Ev = comdat any

$_ZNSt10_Head_baseILm0EPN4node9inspector8protocol12TracingAgentELb0EEC2Ev = comdat any

$_ZNSt10_Head_baseILm1ESt14default_deleteIN4node9inspector8protocol12TracingAgentEELb1EEC2Ev = comdat any

$_ZNSt15__uniq_ptr_dataIN4node9inspector8protocol11WorkerAgentESt14default_deleteIS3_ELb1ELb1EEC2Ev = comdat any

$_ZNSt15__uniq_ptr_implIN4node9inspector8protocol11WorkerAgentESt14default_deleteIS3_EEC2Ev = comdat any

$_ZNSt5tupleIJPN4node9inspector8protocol11WorkerAgentESt14default_deleteIS3_EEEC2ILb1ETnNSt9enable_ifIXclsr17_TupleConstraintsIXT_ES4_S6_EE37__is_implicitly_default_constructibleEEbE4typeELb1EEEv = comdat any

$_ZNSt11_Tuple_implILm0EJPN4node9inspector8protocol11WorkerAgentESt14default_deleteIS3_EEEC2Ev = comdat any

$_ZNSt11_Tuple_implILm1EJSt14default_deleteIN4node9inspector8protocol11WorkerAgentEEEEC2Ev = comdat any

$_ZNSt10_Head_baseILm0EPN4node9inspector8protocol11WorkerAgentELb0EEC2Ev = comdat any

$_ZNSt10_Head_baseILm1ESt14default_deleteIN4node9inspector8protocol11WorkerAgentEELb1EEC2Ev = comdat any

$_ZNSt15__uniq_ptr_dataIN12v8_inspector18V8InspectorSessionESt14default_deleteIS1_ELb1ELb1EEC2Ev = comdat any

$_ZNSt15__uniq_ptr_implIN12v8_inspector18V8InspectorSessionESt14default_deleteIS1_EEC2Ev = comdat any

$_ZNSt5tupleIJPN12v8_inspector18V8InspectorSessionESt14default_deleteIS1_EEEC2ILb1ETnNSt9enable_ifIXclsr17_TupleConstraintsIXT_ES2_S4_EE37__is_implicitly_default_constructibleEEbE4typeELb1EEEv = comdat any

$_ZNSt11_Tuple_implILm0EJPN12v8_inspector18V8InspectorSessionESt14default_deleteIS1_EEEC2Ev = comdat any

$_ZNSt11_Tuple_implILm1EJSt14default_deleteIN12v8_inspector18V8InspectorSessionEEEEC2Ev = comdat any

$_ZNSt10_Head_baseILm0EPN12v8_inspector18V8InspectorSessionELb0EEC2Ev = comdat any

$_ZNSt10_Head_baseILm1ESt14default_deleteIN12v8_inspector18V8InspectorSessionEELb1EEC2Ev = comdat any

$_ZNSt15__uniq_ptr_dataIN4node9inspector8protocol14UberDispatcherESt14default_deleteIS3_ELb1ELb1EEC2Ev = comdat any

$_ZNSt15__uniq_ptr_implIN4node9inspector8protocol14UberDispatcherESt14default_deleteIS3_EEC2Ev = comdat any

$_ZNSt5tupleIJPN4node9inspector8protocol14UberDispatcherESt14default_deleteIS3_EEEC2ILb1ETnNSt9enable_ifIXclsr17_TupleConstraintsIXT_ES4_S6_EE37__is_implicitly_default_constructibleEEbE4typeELb1EEEv = comdat any

$_ZNSt11_Tuple_implILm0EJPN4node9inspector8protocol14UberDispatcherESt14default_deleteIS3_EEEC2Ev = comdat any

$_ZNSt11_Tuple_implILm1EJSt14default_deleteIN4node9inspector8protocol14UberDispatcherEEEEC2Ev = comdat any

$_ZNSt10_Head_baseILm0EPN4node9inspector8protocol14UberDispatcherELb0EEC2Ev = comdat any

$_ZNSt10_Head_baseILm1ESt14default_deleteIN4node9inspector8protocol14UberDispatcherEELb1EEC2Ev = comdat any

$_ZNKSt10unique_ptrIN12v8_inspector11V8InspectorESt14default_deleteIS1_EE3getEv = comdat any

$_ZNKSt15__uniq_ptr_implIN12v8_inspector11V8InspectorESt14default_deleteIS1_EE6_M_ptrEv = comdat any

$_ZSt3getILm0EJPN12v8_inspector11V8InspectorESt14default_deleteIS1_EEERKNSt13tuple_elementIXT_ESt5tupleIJDpT0_EEE4typeERKS9_ = comdat any

$_ZSt12__get_helperILm0EPN12v8_inspector11V8InspectorEJSt14default_deleteIS1_EEERKT0_RKSt11_Tuple_implIXT_EJS5_DpT1_EE = comdat any

$_ZNSt11_Tuple_implILm0EJPN12v8_inspector11V8InspectorESt14default_deleteIS1_EEE7_M_headERKS5_ = comdat any

$_ZNSt10_Head_baseILm0EPN12v8_inspector11V8InspectorELb0EE7_M_headERKS3_ = comdat any

$_ZNSt15__uniq_ptr_dataIN12v8_inspector18V8InspectorSessionESt14default_deleteIS1_ELb1ELb1EEaSEOS4_ = comdat any

$_ZNSt15__uniq_ptr_implIN12v8_inspector18V8InspectorSessionESt14default_deleteIS1_EEaSEOS4_ = comdat any

$_ZNSt15__uniq_ptr_implIN12v8_inspector18V8InspectorSessionESt14default_deleteIS1_EE5resetEPS1_ = comdat any

$_ZNSt15__uniq_ptr_implIN12v8_inspector18V8InspectorSessionESt14default_deleteIS1_EE7releaseEv = comdat any

$_ZNSt15__uniq_ptr_implIN12v8_inspector18V8InspectorSessionESt14default_deleteIS1_EE10_M_deleterEv = comdat any

$_ZNSt15__uniq_ptr_implIN12v8_inspector18V8InspectorSessionESt14default_deleteIS1_EE6_M_ptrEv = comdat any

$_ZNKSt14default_deleteIN12v8_inspector18V8InspectorSessionEEclEPS1_ = comdat any

$_ZSt3getILm0EJPN12v8_inspector18V8InspectorSessionESt14default_deleteIS1_EEERNSt13tuple_elementIXT_ESt5tupleIJDpT0_EEE4typeERS9_ = comdat any

$_ZSt12__get_helperILm0EPN12v8_inspector18V8InspectorSessionEJSt14default_deleteIS1_EEERT0_RSt11_Tuple_implIXT_EJS5_DpT1_EE = comdat any

$_ZNSt11_Tuple_implILm0EJPN12v8_inspector18V8InspectorSessionESt14default_deleteIS1_EEE7_M_headERS5_ = comdat any

$_ZNSt10_Head_baseILm0EPN12v8_inspector18V8InspectorSessionELb0EE7_M_headERS3_ = comdat any

$_ZSt3getILm1EJPN12v8_inspector18V8InspectorSessionESt14default_deleteIS1_EEERNSt13tuple_elementIXT_ESt5tupleIJDpT0_EEE4typeERS9_ = comdat any

$_ZSt12__get_helperILm1ESt14default_deleteIN12v8_inspector18V8InspectorSessionEEJEERT0_RSt11_Tuple_implIXT_EJS4_DpT1_EE = comdat any

$_ZNSt11_Tuple_implILm1EJSt14default_deleteIN12v8_inspector18V8InspectorSessionEEEE7_M_headERS4_ = comdat any

$_ZNSt10_Head_baseILm1ESt14default_deleteIN12v8_inspector18V8InspectorSessionEELb1EE7_M_headERS4_ = comdat any

$_ZNSt10unique_ptrIN12v8_inspector18V8InspectorSessionESt14default_deleteIS1_EE11get_deleterEv = comdat any

$_ZNSt10unique_ptrIN4node9inspector8protocol14UberDispatcherESt14default_deleteIS3_EEC2IS5_vEEPS3_ = comdat any

$_ZNSt15__uniq_ptr_dataIN4node9inspector8protocol14UberDispatcherESt14default_deleteIS3_ELb1ELb1EECI2St15__uniq_ptr_implIS3_S5_EEPS3_ = comdat any

$_ZNSt15__uniq_ptr_implIN4node9inspector8protocol14UberDispatcherESt14default_deleteIS3_EEC2EPS3_ = comdat any

$_ZNSt15__uniq_ptr_implIN4node9inspector8protocol14UberDispatcherESt14default_deleteIS3_EE6_M_ptrEv = comdat any

$_ZSt3getILm0EJPN4node9inspector8protocol14UberDispatcherESt14default_deleteIS3_EEERNSt13tuple_elementIXT_ESt5tupleIJDpT0_EEE4typeERSB_ = comdat any

$_ZSt12__get_helperILm0EPN4node9inspector8protocol14UberDispatcherEJSt14default_deleteIS3_EEERT0_RSt11_Tuple_implIXT_EJS7_DpT1_EE = comdat any

$_ZNSt11_Tuple_implILm0EJPN4node9inspector8protocol14UberDispatcherESt14default_deleteIS3_EEE7_M_headERS7_ = comdat any

$_ZNSt10_Head_baseILm0EPN4node9inspector8protocol14UberDispatcherELb0EE7_M_headERS5_ = comdat any

$_ZNSt15__uniq_ptr_dataIN4node9inspector8protocol14UberDispatcherESt14default_deleteIS3_ELb1ELb1EEaSEOS6_ = comdat any

$_ZNSt15__uniq_ptr_implIN4node9inspector8protocol14UberDispatcherESt14default_deleteIS3_EEaSEOS6_ = comdat any

$_ZNSt15__uniq_ptr_implIN4node9inspector8protocol14UberDispatcherESt14default_deleteIS3_EE5resetEPS3_ = comdat any

$_ZNSt15__uniq_ptr_implIN4node9inspector8protocol14UberDispatcherESt14default_deleteIS3_EE7releaseEv = comdat any

$_ZNSt15__uniq_ptr_implIN4node9inspector8protocol14UberDispatcherESt14default_deleteIS3_EE10_M_deleterEv = comdat any

$_ZNKSt14default_deleteIN4node9inspector8protocol14UberDispatcherEEclEPS3_ = comdat any

$_ZSt3getILm1EJPN4node9inspector8protocol14UberDispatcherESt14default_deleteIS3_EEERNSt13tuple_elementIXT_ESt5tupleIJDpT0_EEE4typeERSB_ = comdat any

$_ZSt12__get_helperILm1ESt14default_deleteIN4node9inspector8protocol14UberDispatcherEEJEERT0_RSt11_Tuple_implIXT_EJS6_DpT1_EE = comdat any

$_ZNSt11_Tuple_implILm1EJSt14default_deleteIN4node9inspector8protocol14UberDispatcherEEEE7_M_headERS6_ = comdat any

$_ZNSt10_Head_baseILm1ESt14default_deleteIN4node9inspector8protocol14UberDispatcherEELb1EE7_M_headERS6_ = comdat any

$_ZNSt10unique_ptrIN4node9inspector8protocol14UberDispatcherESt14default_deleteIS3_EE11get_deleterEv = comdat any

$_ZNSt10shared_ptrIN4node9inspector16MainThreadHandleEEC2ERKS3_ = comdat any

$_ZNSt10unique_ptrIN4node9inspector8protocol12TracingAgentESt14default_deleteIS3_EEC2IS5_vEEPS3_ = comdat any

$_ZNSt12__shared_ptrIN4node9inspector16MainThreadHandleELN9__gnu_cxx12_Lock_policyE2EEC2ERKS5_ = comdat any

$_ZNSt15__uniq_ptr_dataIN4node9inspector8protocol12TracingAgentESt14default_deleteIS3_ELb1ELb1EECI2St15__uniq_ptr_implIS3_S5_EEPS3_ = comdat any

$_ZNSt15__uniq_ptr_implIN4node9inspector8protocol12TracingAgentESt14default_deleteIS3_EEC2EPS3_ = comdat any

$_ZNSt15__uniq_ptr_implIN4node9inspector8protocol12TracingAgentESt14default_deleteIS3_EE6_M_ptrEv = comdat any

$_ZSt3getILm0EJPN4node9inspector8protocol12TracingAgentESt14default_deleteIS3_EEERNSt13tuple_elementIXT_ESt5tupleIJDpT0_EEE4typeERSB_ = comdat any

$_ZSt12__get_helperILm0EPN4node9inspector8protocol12TracingAgentEJSt14default_deleteIS3_EEERT0_RSt11_Tuple_implIXT_EJS7_DpT1_EE = comdat any

$_ZNSt11_Tuple_implILm0EJPN4node9inspector8protocol12TracingAgentESt14default_deleteIS3_EEE7_M_headERS7_ = comdat any

$_ZNSt10_Head_baseILm0EPN4node9inspector8protocol12TracingAgentELb0EE7_M_headERS5_ = comdat any

$_ZNSt15__uniq_ptr_dataIN4node9inspector8protocol12TracingAgentESt14default_deleteIS3_ELb1ELb1EEaSEOS6_ = comdat any

$_ZNSt15__uniq_ptr_implIN4node9inspector8protocol12TracingAgentESt14default_deleteIS3_EEaSEOS6_ = comdat any

$_ZNSt15__uniq_ptr_implIN4node9inspector8protocol12TracingAgentESt14default_deleteIS3_EE5resetEPS3_ = comdat any

$_ZNSt15__uniq_ptr_implIN4node9inspector8protocol12TracingAgentESt14default_deleteIS3_EE7releaseEv = comdat any

$_ZNSt15__uniq_ptr_implIN4node9inspector8protocol12TracingAgentESt14default_deleteIS3_EE10_M_deleterEv = comdat any

$_ZNKSt14default_deleteIN4node9inspector8protocol12TracingAgentEEclEPS3_ = comdat any

$_ZSt3getILm1EJPN4node9inspector8protocol12TracingAgentESt14default_deleteIS3_EEERNSt13tuple_elementIXT_ESt5tupleIJDpT0_EEE4typeERSB_ = comdat any

$_ZSt12__get_helperILm1ESt14default_deleteIN4node9inspector8protocol12TracingAgentEEJEERT0_RSt11_Tuple_implIXT_EJS6_DpT1_EE = comdat any

$_ZNSt11_Tuple_implILm1EJSt14default_deleteIN4node9inspector8protocol12TracingAgentEEEE7_M_headERS6_ = comdat any

$_ZNSt10_Head_baseILm1ESt14default_deleteIN4node9inspector8protocol12TracingAgentEELb1EE7_M_headERS6_ = comdat any

$_ZNSt10unique_ptrIN4node9inspector8protocol12TracingAgentESt14default_deleteIS3_EE11get_deleterEv = comdat any

$_ZNKSt10unique_ptrIN4node9inspector8protocol12TracingAgentESt14default_deleteIS3_EE3getEv = comdat any

$_ZNKSt15__uniq_ptr_implIN4node9inspector8protocol12TracingAgentESt14default_deleteIS3_EE6_M_ptrEv = comdat any

$_ZSt3getILm0EJPN4node9inspector8protocol12TracingAgentESt14default_deleteIS3_EEERKNSt13tuple_elementIXT_ESt5tupleIJDpT0_EEE4typeERKSB_ = comdat any

$_ZSt12__get_helperILm0EPN4node9inspector8protocol12TracingAgentEJSt14default_deleteIS3_EEERKT0_RKSt11_Tuple_implIXT_EJS7_DpT1_EE = comdat any

$_ZNSt11_Tuple_implILm0EJPN4node9inspector8protocol12TracingAgentESt14default_deleteIS3_EEE7_M_headERKS7_ = comdat any

$_ZNSt10_Head_baseILm0EPN4node9inspector8protocol12TracingAgentELb0EE7_M_headERKS5_ = comdat any

$_ZNKSt15__uniq_ptr_implIN4node9inspector8protocol14UberDispatcherESt14default_deleteIS3_EE6_M_ptrEv = comdat any

$_ZSt3getILm0EJPN4node9inspector8protocol14UberDispatcherESt14default_deleteIS3_EEERKNSt13tuple_elementIXT_ESt5tupleIJDpT0_EEE4typeERKSB_ = comdat any

$_ZSt12__get_helperILm0EPN4node9inspector8protocol14UberDispatcherEJSt14default_deleteIS3_EEERKT0_RKSt11_Tuple_implIXT_EJS7_DpT1_EE = comdat any

$_ZNSt11_Tuple_implILm0EJPN4node9inspector8protocol14UberDispatcherESt14default_deleteIS3_EEE7_M_headERKS7_ = comdat any

$_ZNSt10_Head_baseILm0EPN4node9inspector8protocol14UberDispatcherELb0EE7_M_headERKS5_ = comdat any

$_ZNSt8weak_ptrIN4node9inspector13WorkerManagerEEC2IS2_vEERKSt10shared_ptrIT_E = comdat any

$_ZNSt10unique_ptrIN4node9inspector8protocol11WorkerAgentESt14default_deleteIS3_EEC2IS5_vEEPS3_ = comdat any

$_ZNSt8weak_ptrIN4node9inspector13WorkerManagerEED2Ev = comdat any

$_ZNSt10__weak_ptrIN4node9inspector13WorkerManagerELN9__gnu_cxx12_Lock_policyE2EEC2IS2_vEERKSt12__shared_ptrIT_LS4_2EE = comdat any

$_ZNSt12__weak_countILN9__gnu_cxx12_Lock_policyE2EEC2ERKSt14__shared_countILS1_2EE = comdat any

$_ZNSt15__uniq_ptr_dataIN4node9inspector8protocol11WorkerAgentESt14default_deleteIS3_ELb1ELb1EECI2St15__uniq_ptr_implIS3_S5_EEPS3_ = comdat any

$_ZNSt15__uniq_ptr_implIN4node9inspector8protocol11WorkerAgentESt14default_deleteIS3_EEC2EPS3_ = comdat any

$_ZNSt15__uniq_ptr_implIN4node9inspector8protocol11WorkerAgentESt14default_deleteIS3_EE6_M_ptrEv = comdat any

$_ZSt3getILm0EJPN4node9inspector8protocol11WorkerAgentESt14default_deleteIS3_EEERNSt13tuple_elementIXT_ESt5tupleIJDpT0_EEE4typeERSB_ = comdat any

$_ZSt12__get_helperILm0EPN4node9inspector8protocol11WorkerAgentEJSt14default_deleteIS3_EEERT0_RSt11_Tuple_implIXT_EJS7_DpT1_EE = comdat any

$_ZNSt11_Tuple_implILm0EJPN4node9inspector8protocol11WorkerAgentESt14default_deleteIS3_EEE7_M_headERS7_ = comdat any

$_ZNSt10_Head_baseILm0EPN4node9inspector8protocol11WorkerAgentELb0EE7_M_headERS5_ = comdat any

$_ZNSt10__weak_ptrIN4node9inspector13WorkerManagerELN9__gnu_cxx12_Lock_policyE2EED2Ev = comdat any

$_ZNSt12__weak_countILN9__gnu_cxx12_Lock_policyE2EED2Ev = comdat any

$_ZNSt15__uniq_ptr_dataIN4node9inspector8protocol11WorkerAgentESt14default_deleteIS3_ELb1ELb1EEaSEOS6_ = comdat any

$_ZNSt15__uniq_ptr_implIN4node9inspector8protocol11WorkerAgentESt14default_deleteIS3_EEaSEOS6_ = comdat any

$_ZNSt15__uniq_ptr_implIN4node9inspector8protocol11WorkerAgentESt14default_deleteIS3_EE5resetEPS3_ = comdat any

$_ZNSt15__uniq_ptr_implIN4node9inspector8protocol11WorkerAgentESt14default_deleteIS3_EE7releaseEv = comdat any

$_ZNSt15__uniq_ptr_implIN4node9inspector8protocol11WorkerAgentESt14default_deleteIS3_EE10_M_deleterEv = comdat any

$_ZNKSt14default_deleteIN4node9inspector8protocol11WorkerAgentEEclEPS3_ = comdat any

$_ZSt3getILm1EJPN4node9inspector8protocol11WorkerAgentESt14default_deleteIS3_EEERNSt13tuple_elementIXT_ESt5tupleIJDpT0_EEE4typeERSB_ = comdat any

$_ZSt12__get_helperILm1ESt14default_deleteIN4node9inspector8protocol11WorkerAgentEEJEERT0_RSt11_Tuple_implIXT_EJS6_DpT1_EE = comdat any

$_ZNSt11_Tuple_implILm1EJSt14default_deleteIN4node9inspector8protocol11WorkerAgentEEEE7_M_headERS6_ = comdat any

$_ZNSt10_Head_baseILm1ESt14default_deleteIN4node9inspector8protocol11WorkerAgentEELb1EE7_M_headERS6_ = comdat any

$_ZNSt10unique_ptrIN4node9inspector8protocol11WorkerAgentESt14default_deleteIS3_EE11get_deleterEv = comdat any

$_ZNKSt10unique_ptrIN4node9inspector8protocol11WorkerAgentESt14default_deleteIS3_EE3getEv = comdat any

$_ZNKSt15__uniq_ptr_implIN4node9inspector8protocol11WorkerAgentESt14default_deleteIS3_EE6_M_ptrEv = comdat any

$_ZSt3getILm0EJPN4node9inspector8protocol11WorkerAgentESt14default_deleteIS3_EEERKNSt13tuple_elementIXT_ESt5tupleIJDpT0_EEE4typeERKSB_ = comdat any

$_ZSt12__get_helperILm0EPN4node9inspector8protocol11WorkerAgentEJSt14default_deleteIS3_EEERKT0_RKSt11_Tuple_implIXT_EJS7_DpT1_EE = comdat any

$_ZNSt11_Tuple_implILm0EJPN4node9inspector8protocol11WorkerAgentESt14default_deleteIS3_EEE7_M_headERKS7_ = comdat any

$_ZNSt10_Head_baseILm0EPN4node9inspector8protocol11WorkerAgentELb0EE7_M_headERKS5_ = comdat any

$_ZNSt10unique_ptrIN4node9inspector8protocol12RuntimeAgentESt14default_deleteIS3_EEC2IS5_vEEPS3_ = comdat any

$_ZNSt15__uniq_ptr_dataIN4node9inspector8protocol12RuntimeAgentESt14default_deleteIS3_ELb1ELb1EECI2St15__uniq_ptr_implIS3_S5_EEPS3_ = comdat any

$_ZNSt15__uniq_ptr_implIN4node9inspector8protocol12RuntimeAgentESt14default_deleteIS3_EEC2EPS3_ = comdat any

$_ZNSt15__uniq_ptr_implIN4node9inspector8protocol12RuntimeAgentESt14default_deleteIS3_EE6_M_ptrEv = comdat any

$_ZSt3getILm0EJPN4node9inspector8protocol12RuntimeAgentESt14default_deleteIS3_EEERNSt13tuple_elementIXT_ESt5tupleIJDpT0_EEE4typeERSB_ = comdat any

$_ZSt12__get_helperILm0EPN4node9inspector8protocol12RuntimeAgentEJSt14default_deleteIS3_EEERT0_RSt11_Tuple_implIXT_EJS7_DpT1_EE = comdat any

$_ZNSt11_Tuple_implILm0EJPN4node9inspector8protocol12RuntimeAgentESt14default_deleteIS3_EEE7_M_headERS7_ = comdat any

$_ZNSt10_Head_baseILm0EPN4node9inspector8protocol12RuntimeAgentELb0EE7_M_headERS5_ = comdat any

$_ZNSt15__uniq_ptr_dataIN4node9inspector8protocol12RuntimeAgentESt14default_deleteIS3_ELb1ELb1EEaSEOS6_ = comdat any

$_ZNSt15__uniq_ptr_implIN4node9inspector8protocol12RuntimeAgentESt14default_deleteIS3_EEaSEOS6_ = comdat any

$_ZNSt15__uniq_ptr_implIN4node9inspector8protocol12RuntimeAgentESt14default_deleteIS3_EE5resetEPS3_ = comdat any

$_ZNSt15__uniq_ptr_implIN4node9inspector8protocol12RuntimeAgentESt14default_deleteIS3_EE7releaseEv = comdat any

$_ZNSt15__uniq_ptr_implIN4node9inspector8protocol12RuntimeAgentESt14default_deleteIS3_EE10_M_deleterEv = comdat any

$_ZNKSt14default_deleteIN4node9inspector8protocol12RuntimeAgentEEclEPS3_ = comdat any

$_ZSt3getILm1EJPN4node9inspector8protocol12RuntimeAgentESt14default_deleteIS3_EEERNSt13tuple_elementIXT_ESt5tupleIJDpT0_EEE4typeERSB_ = comdat any

$_ZSt12__get_helperILm1ESt14default_deleteIN4node9inspector8protocol12RuntimeAgentEEJEERT0_RSt11_Tuple_implIXT_EJS6_DpT1_EE = comdat any

$_ZNSt11_Tuple_implILm1EJSt14default_deleteIN4node9inspector8protocol12RuntimeAgentEEEE7_M_headERS6_ = comdat any

$_ZNSt10_Head_baseILm1ESt14default_deleteIN4node9inspector8protocol12RuntimeAgentEELb1EE7_M_headERS6_ = comdat any

$_ZNSt10unique_ptrIN4node9inspector8protocol12RuntimeAgentESt14default_deleteIS3_EE11get_deleterEv = comdat any

$_ZNKSt10unique_ptrIN4node9inspector8protocol12RuntimeAgentESt14default_deleteIS3_EE3getEv = comdat any

$_ZNKSt15__uniq_ptr_implIN4node9inspector8protocol12RuntimeAgentESt14default_deleteIS3_EE6_M_ptrEv = comdat any

$_ZSt3getILm0EJPN4node9inspector8protocol12RuntimeAgentESt14default_deleteIS3_EEERKNSt13tuple_elementIXT_ESt5tupleIJDpT0_EEE4typeERKSB_ = comdat any

$_ZSt12__get_helperILm0EPN4node9inspector8protocol12RuntimeAgentEJSt14default_deleteIS3_EEERKT0_RKSt11_Tuple_implIXT_EJS7_DpT1_EE = comdat any

$_ZNSt11_Tuple_implILm0EJPN4node9inspector8protocol12RuntimeAgentESt14default_deleteIS3_EEE7_M_headERKS7_ = comdat any

$_ZNSt10_Head_baseILm0EPN4node9inspector8protocol12RuntimeAgentELb0EE7_M_headERKS5_ = comdat any

$_ZN4node9inspector8protocol16DispatchResponseD2Ev = comdat any

$_ZNSt10unique_ptrIN4node9inspector8protocol12TracingAgentESt14default_deleteIS3_EE5resetEPS3_ = comdat any

$_ZNKSt10unique_ptrIN4node9inspector8protocol11WorkerAgentESt14default_deleteIS3_EEcvbEv = comdat any

$_ZNSt10unique_ptrIN4node9inspector8protocol11WorkerAgentESt14default_deleteIS3_EE5resetEPS3_ = comdat any

$_ZNSt10unique_ptrIN4node9inspector8protocol12RuntimeAgentESt14default_deleteIS3_EE5resetEPS3_ = comdat any

$_ZNKSt10unique_ptrIN12v8_inspector12StringBufferESt14default_deleteIS1_EEptEv = comdat any

$_ZNKSt10unique_ptrIN4node9inspector24InspectorSessionDelegateESt14default_deleteIS2_EEptEv = comdat any

$_ZN4node7FPrintFIJRNSt7__cxx1112basic_stringIcSt11char_traitsIcESaIcEEEEEEvP8_IO_FILEPKcDpOT_ = comdat any

$_ZN4node7SPrintFIJRNSt7__cxx1112basic_stringIcSt11char_traitsIcESaIcEEEEEES6_PKcDpOT_ = comdat any

$_ZN4node11SPrintFImplIRNSt7__cxx1112basic_stringIcSt11char_traitsIcESaIcEEEJEEES6_PKcOT_DpOT0_ = comdat any

$_ZNSt7__cxx1112basic_stringIcSt11char_traitsIcESaIcEEC2IPKcvEET_S8_RKS3_ = comdat any

$_ZStplIcSt11char_traitsIcESaIcEENSt7__cxx1112basic_stringIT_T0_T1_EEOS8_S9_ = comdat any

$_ZStplIcSt11char_traitsIcESaIcEENSt7__cxx1112basic_stringIT_T0_T1_EERKS8_S5_ = comdat any

$_ZN4node8ToStringINSt7__cxx1112basic_stringIcSt11char_traitsIcESaIcEEEEES6_RKT_ = comdat any

$_ZN4node12ToBaseStringILj3ENSt7__cxx1112basic_stringIcSt11char_traitsIcESaIcEEEEES6_RKT0_ = comdat any

$_ZN4node12ToBaseStringILj4ENSt7__cxx1112basic_stringIcSt11char_traitsIcESaIcEEEEES6_RKT0_ = comdat any

$_ZN4node7ToUpperERKNSt7__cxx1112basic_stringIcSt11char_traitsIcESaIcEEE = comdat any

$_ZStplIcSt11char_traitsIcESaIcEENSt7__cxx1112basic_stringIT_T0_T1_EERKS8_OS8_ = comdat any

$_ZN4node11SPrintFImplB5cxx11EPKc = comdat any

$_ZNSt7__cxx1112basic_stringIcSt11char_traitsIcESaIcEE12_M_constructIPKcEEvT_S8_St20forward_iterator_tag = comdat any

$_ZSt19__iterator_categoryIPKcENSt15iterator_traitsIT_E17iterator_categoryERKS3_ = comdat any

$_ZSt8distanceIPKcENSt15iterator_traitsIT_E15difference_typeES3_S3_ = comdat any

$_ZZNSt7__cxx1112basic_stringIcSt11char_traitsIcESaIcEE12_M_constructIPKcEEvT_S8_St20forward_iterator_tagEN6_GuardC2EPS4_ = comdat any

$_ZZNSt7__cxx1112basic_stringIcSt11char_traitsIcESaIcEE12_M_constructIPKcEEvT_S8_St20forward_iterator_tagEN6_GuardD2Ev = comdat any

$_ZSt10__distanceIPKcENSt15iterator_traitsIT_E15difference_typeES3_S3_St26random_access_iterator_tag = comdat any

$_ZN4node14ToStringHelper7ConvertERKNSt7__cxx1112basic_stringIcSt11char_traitsIcESaIcEEE = comdat any

$_ZN4node14ToStringHelper11BaseConvertILj3ENSt7__cxx1112basic_stringIcSt11char_traitsIcESaIcEEEvEES7_T0_ = comdat any

$_ZN4node14ToStringHelper11BaseConvertILj4ENSt7__cxx1112basic_stringIcSt11char_traitsIcESaIcEEEvEES7_T0_ = comdat any

$_ZNSt7__cxx1112basic_stringIcSt11char_traitsIcESaIcEEC2IS3_EEmcRKS3_ = comdat any

$_ZN4node7ToUpperEc = comdat any

$_ZSt7toupperIcET_S0_RKSt6locale = comdat any

$_ZNKSt5ctypeIcE7toupperEc = comdat any

$_ZNKSt10unique_ptrIN4node9inspector24InspectorSessionDelegateESt14default_deleteIS2_EE3getEv = comdat any

$_ZNKSt15__uniq_ptr_implIN4node9inspector24InspectorSessionDelegateESt14default_deleteIS2_EE6_M_ptrEv = comdat any

$_ZSt3getILm0EJPN4node9inspector24InspectorSessionDelegateESt14default_deleteIS2_EEERKNSt13tuple_elementIXT_ESt5tupleIJDpT0_EEE4typeERKSA_ = comdat any

$_ZSt12__get_helperILm0EPN4node9inspector24InspectorSessionDelegateEJSt14default_deleteIS2_EEERKT0_RKSt11_Tuple_implIXT_EJS6_DpT1_EE = comdat any

$_ZNSt11_Tuple_implILm0EJPN4node9inspector24InspectorSessionDelegateESt14default_deleteIS2_EEE7_M_headERKS6_ = comdat any

$_ZNSt10_Head_baseILm0EPN4node9inspector24InspectorSessionDelegateELb0EE7_M_headERKS4_ = comdat any

$_ZNKSt10unique_ptrIN12v8_inspector12StringBufferESt14default_deleteIS1_EE3getEv = comdat any

$_ZNKSt15__uniq_ptr_implIN12v8_inspector12StringBufferESt14default_deleteIS1_EE6_M_ptrEv = comdat any

$_ZSt3getILm0EJPN12v8_inspector12StringBufferESt14default_deleteIS1_EEERKNSt13tuple_elementIXT_ESt5tupleIJDpT0_EEE4typeERKS9_ = comdat any

$_ZSt12__get_helperILm0EPN12v8_inspector12StringBufferEJSt14default_deleteIS1_EEERKT0_RKSt11_Tuple_implIXT_EJS5_DpT1_EE = comdat any

$_ZNSt11_Tuple_implILm0EJPN12v8_inspector12StringBufferESt14default_deleteIS1_EEE7_M_headERKS5_ = comdat any

$_ZNSt10_Head_baseILm0EPN12v8_inspector12StringBufferELb0EE7_M_headERKS3_ = comdat any

$_ZNKSt10unique_ptrIN4node9inspector8protocol12SerializableESt14default_deleteIS3_EEptEv = comdat any

$_ZNSt10unique_ptrIN12v8_inspector12StringBufferESt14default_deleteIS1_EED2Ev = comdat any

$_ZNSt15__uniq_ptr_implIN12v8_inspector12StringBufferESt14default_deleteIS1_EE6_M_ptrEv = comdat any

$_ZNSt10unique_ptrIN12v8_inspector12StringBufferESt14default_deleteIS1_EE11get_deleterEv = comdat any

$_ZNKSt14default_deleteIN12v8_inspector12StringBufferEEclEPS1_ = comdat any

$_ZSt3getILm0EJPN12v8_inspector12StringBufferESt14default_deleteIS1_EEERNSt13tuple_elementIXT_ESt5tupleIJDpT0_EEE4typeERS9_ = comdat any

$_ZSt12__get_helperILm0EPN12v8_inspector12StringBufferEJSt14default_deleteIS1_EEERT0_RSt11_Tuple_implIXT_EJS5_DpT1_EE = comdat any

$_ZNSt11_Tuple_implILm0EJPN12v8_inspector12StringBufferESt14default_deleteIS1_EEE7_M_headERS5_ = comdat any

$_ZNSt10_Head_baseILm0EPN12v8_inspector12StringBufferELb0EE7_M_headERS3_ = comdat any

$_ZNSt15__uniq_ptr_implIN12v8_inspector12StringBufferESt14default_deleteIS1_EE10_M_deleterEv = comdat any

$_ZSt3getILm1EJPN12v8_inspector12StringBufferESt14default_deleteIS1_EEERNSt13tuple_elementIXT_ESt5tupleIJDpT0_EEE4typeERS9_ = comdat any

$_ZSt12__get_helperILm1ESt14default_deleteIN12v8_inspector12StringBufferEEJEERT0_RSt11_Tuple_implIXT_EJS4_DpT1_EE = comdat any

$_ZNSt11_Tuple_implILm1EJSt14default_deleteIN12v8_inspector12StringBufferEEEE7_M_headERS4_ = comdat any

$_ZNSt10_Head_baseILm1ESt14default_deleteIN12v8_inspector12StringBufferEELb1EE7_M_headERS4_ = comdat any

$_ZNKSt10unique_ptrIN4node9inspector8protocol12SerializableESt14default_deleteIS3_EE3getEv = comdat any

$_ZNKSt15__uniq_ptr_implIN4node9inspector8protocol12SerializableESt14default_deleteIS3_EE6_M_ptrEv = comdat any

$_ZSt3getILm0EJPN4node9inspector8protocol12SerializableESt14default_deleteIS3_EEERKNSt13tuple_elementIXT_ESt5tupleIJDpT0_EEE4typeERKSB_ = comdat any

$_ZSt12__get_helperILm0EPN4node9inspector8protocol12SerializableEJSt14default_deleteIS3_EEERKT0_RKSt11_Tuple_implIXT_EJS7_DpT1_EE = comdat any

$_ZNSt11_Tuple_implILm0EJPN4node9inspector8protocol12SerializableESt14default_deleteIS3_EEE7_M_headERKS7_ = comdat any

$_ZNSt10_Head_baseILm0EPN4node9inspector8protocol12SerializableELb0EE7_M_headERKS5_ = comdat any

$_ZNSt5tupleIJRKiEEC2ILb1ETnNSt9enable_ifIXclsr4_TCCIXT_EEE29__is_implicitly_constructibleIS1_EEEbE4typeELb1EEES1_ = comdat any

$_ZNKSt8__detail21_Hashtable_ebo_helperILi1ESt4hashIiELb1EE7_M_cgetEv = comdat any

$_ZNKSt8equal_toIiEclERKiS2_ = comdat any

$_ZNKSt8__detail21_Hashtable_ebo_helperILi0ESt8equal_toIiELb1EE7_M_cgetEv = comdat any

$_ZNSt11_Tuple_implILm0EJRKiEEC2ES1_ = comdat any

$_ZNSt10_Head_baseILm0ERKiLb0EEC2ES1_ = comdat any

$_ZNSt5tupleIJRKiEEC2EOS2_ = comdat any

$_ZNSt11_Tuple_implILm0EJRKiEEC2EOS2_ = comdat any

$_ZSt3getILm0EJRKiEERNSt13tuple_elementIXT_ESt5tupleIJDpT0_EEE4typeERS6_ = comdat any

$_ZSt12__get_helperILm0ERKiJEERT0_RSt11_Tuple_implIXT_EJS2_DpT1_EE = comdat any

$_ZNSt11_Tuple_implILm0EJRKiEE7_M_headERS2_ = comdat any

$_ZNSt10_Head_baseILm0ERKiLb0EE7_M_headERS2_ = comdat any

$_ZNSt15__uniq_ptr_dataIN4node9inspector24InspectorSessionDelegateESt14default_deleteIS2_ELb1ELb1EEC2EOS5_ = comdat any

$_ZNSt15__uniq_ptr_implIN4node9inspector24InspectorSessionDelegateESt14default_deleteIS2_EEC2EOS5_ = comdat any

$_ZNSt5tupleIJPN4node9inspector24InspectorSessionDelegateESt14default_deleteIS2_EEEC2EOS6_ = comdat any

$_ZNSt15__uniq_ptr_implIN4node9inspector24InspectorSessionDelegateESt14default_deleteIS2_EE6_M_ptrEv = comdat any

$_ZNSt11_Tuple_implILm0EJPN4node9inspector24InspectorSessionDelegateESt14default_deleteIS2_EEEC2EOS6_ = comdat any

$_ZNSt11_Tuple_implILm1EJSt14default_deleteIN4node9inspector24InspectorSessionDelegateEEEEC2EOS5_ = comdat any

$_ZSt3getILm0EJPN4node9inspector24InspectorSessionDelegateESt14default_deleteIS2_EEERNSt13tuple_elementIXT_ESt5tupleIJDpT0_EEE4typeERSA_ = comdat any

$_ZSt12__get_helperILm0EPN4node9inspector24InspectorSessionDelegateEJSt14default_deleteIS2_EEERT0_RSt11_Tuple_implIXT_EJS6_DpT1_EE = comdat any

$_ZNSt11_Tuple_implILm0EJPN4node9inspector24InspectorSessionDelegateESt14default_deleteIS2_EEE7_M_headERS6_ = comdat any

$_ZNSt10_Head_baseILm0EPN4node9inspector24InspectorSessionDelegateELb0EE7_M_headERS4_ = comdat any

$_ZNSt12__shared_ptrIN4node9inspector19NodeInspectorClientELN9__gnu_cxx12_Lock_policyE2EEC2ERKS5_ = comdat any

$_ZN4node9inspector16InspectorSessionC2Ev = comdat any

$_ZNSt8weak_ptrIN4node9inspector19NodeInspectorClientEEC2IS2_vEERKSt10shared_ptrIT_E = comdat any

$_ZN4node9inspector16InspectorSessionD2Ev = comdat any

$_ZN4node9inspector16InspectorSessionD0Ev = comdat any

$_ZNSt10__weak_ptrIN4node9inspector19NodeInspectorClientELN9__gnu_cxx12_Lock_policyE2EEC2IS2_vEERKSt12__shared_ptrIT_LS4_2EE = comdat any

$_ZNKSt8weak_ptrIN4node9inspector19NodeInspectorClientEE4lockEv = comdat any

$_ZN4node9inspector19NodeInspectorClient18disconnectFrontendEi = comdat any

$_ZNSt8weak_ptrIN4node9inspector19NodeInspectorClientEED2Ev = comdat any

$_ZNSt10shared_ptrIN4node9inspector19NodeInspectorClientEEC2ERKSt8weak_ptrIS2_ESt9nothrow_t = comdat any

$_ZNSt12__shared_ptrIN4node9inspector19NodeInspectorClientELN9__gnu_cxx12_Lock_policyE2EEC2ERKSt10__weak_ptrIS2_LS4_2EESt9nothrow_t = comdat any

$_ZNSt14__shared_countILN9__gnu_cxx12_Lock_policyE2EEC2ERKSt12__weak_countILS1_2EESt9nothrow_t = comdat any

$_ZNKSt14__shared_countILN9__gnu_cxx12_Lock_policyE2EE16_M_get_use_countEv = comdat any

$_ZNSt16_Sp_counted_baseILN9__gnu_cxx12_Lock_policyE2EE23_M_add_ref_lock_nothrowEv = comdat any

$_ZNSt8__detail22_Hashtable_hash_traitsISt4hashIiEE22__small_size_thresholdEv = comdat any

$_ZNSt10__weak_ptrIN4node9inspector19NodeInspectorClientELN9__gnu_cxx12_Lock_policyE2EED2Ev = comdat any

$_ZN4node9inspector19NodeInspectorClient27dispatchMessageFromFrontendEiRKN12v8_inspector10StringViewE = comdat any

$_ZN4node9inspector8protocol15DictionaryValue4castESt10unique_ptrINS1_5ValueESt14default_deleteIS4_EE = comdat any

$_ZNSt10unique_ptrIN4node9inspector8protocol5ValueESt14default_deleteIS3_EED2Ev = comdat any

$_ZNKSt10unique_ptrIN4node9inspector8protocol14UberDispatcherESt14default_deleteIS3_EEptEv = comdat any

$_ZNKSt10unique_ptrIN4node9inspector8protocol15DictionaryValueESt14default_deleteIS3_EE3getEv = comdat any

$_ZNKSt10unique_ptrIN12v8_inspector18V8InspectorSessionESt14default_deleteIS1_EEptEv = comdat any

$_ZNSt10unique_ptrIN4node9inspector8protocol5ValueESt14default_deleteIS3_EEC2INS2_15DictionaryValueES4_IS8_EvEEOS_IT_T0_E = comdat any

$_ZNSt10unique_ptrIN4node9inspector8protocol15DictionaryValueESt14default_deleteIS3_EED2Ev = comdat any

$_ZN4node9inspector8protocol15DictionaryValue4castEPNS1_5ValueE = comdat any

$_ZNSt10unique_ptrIN4node9inspector8protocol5ValueESt14default_deleteIS3_EE7releaseEv = comdat any

$_ZNSt10unique_ptrIN4node9inspector8protocol15DictionaryValueESt14default_deleteIS3_EEC2IS5_vEEPS3_ = comdat any

$_ZNK4node9inspector8protocol5Value4typeEv = comdat any

$_ZNSt15__uniq_ptr_implIN4node9inspector8protocol5ValueESt14default_deleteIS3_EE7releaseEv = comdat any

$_ZNSt15__uniq_ptr_implIN4node9inspector8protocol5ValueESt14default_deleteIS3_EE6_M_ptrEv = comdat any

$_ZSt3getILm0EJPN4node9inspector8protocol5ValueESt14default_deleteIS3_EEERNSt13tuple_elementIXT_ESt5tupleIJDpT0_EEE4typeERSB_ = comdat any

$_ZSt12__get_helperILm0EPN4node9inspector8protocol5ValueEJSt14default_deleteIS3_EEERT0_RSt11_Tuple_implIXT_EJS7_DpT1_EE = comdat any

$_ZNSt11_Tuple_implILm0EJPN4node9inspector8protocol5ValueESt14default_deleteIS3_EEE7_M_headERS7_ = comdat any

$_ZNSt10_Head_baseILm0EPN4node9inspector8protocol5ValueELb0EE7_M_headERS5_ = comdat any

$_ZNSt15__uniq_ptr_dataIN4node9inspector8protocol15DictionaryValueESt14default_deleteIS3_ELb1ELb1EECI2St15__uniq_ptr_implIS3_S5_EEPS3_ = comdat any

$_ZNSt15__uniq_ptr_implIN4node9inspector8protocol15DictionaryValueESt14default_deleteIS3_EEC2EPS3_ = comdat any

$_ZNSt5tupleIJPN4node9inspector8protocol15DictionaryValueESt14default_deleteIS3_EEEC2ILb1ETnNSt9enable_ifIXclsr17_TupleConstraintsIXT_ES4_S6_EE37__is_implicitly_default_constructibleEEbE4typeELb1EEEv = comdat any

$_ZNSt15__uniq_ptr_implIN4node9inspector8protocol15DictionaryValueESt14default_deleteIS3_EE6_M_ptrEv = comdat any

$_ZNSt11_Tuple_implILm0EJPN4node9inspector8protocol15DictionaryValueESt14default_deleteIS3_EEEC2Ev = comdat any

$_ZNSt11_Tuple_implILm1EJSt14default_deleteIN4node9inspector8protocol15DictionaryValueEEEEC2Ev = comdat any

$_ZNSt10_Head_baseILm0EPN4node9inspector8protocol15DictionaryValueELb0EEC2Ev = comdat any

$_ZNSt10_Head_baseILm1ESt14default_deleteIN4node9inspector8protocol15DictionaryValueEELb1EEC2Ev = comdat any

$_ZSt3getILm0EJPN4node9inspector8protocol15DictionaryValueESt14default_deleteIS3_EEERNSt13tuple_elementIXT_ESt5tupleIJDpT0_EEE4typeERSB_ = comdat any

$_ZSt12__get_helperILm0EPN4node9inspector8protocol15DictionaryValueEJSt14default_deleteIS3_EEERT0_RSt11_Tuple_implIXT_EJS7_DpT1_EE = comdat any

$_ZNSt11_Tuple_implILm0EJPN4node9inspector8protocol15DictionaryValueESt14default_deleteIS3_EEE7_M_headERS7_ = comdat any

$_ZNSt10_Head_baseILm0EPN4node9inspector8protocol15DictionaryValueELb0EE7_M_headERS5_ = comdat any

$_ZNSt10unique_ptrIN4node9inspector8protocol5ValueESt14default_deleteIS3_EE11get_deleterEv = comdat any

$_ZNKSt14default_deleteIN4node9inspector8protocol5ValueEEclEPS3_ = comdat any

$_ZNSt15__uniq_ptr_implIN4node9inspector8protocol5ValueESt14default_deleteIS3_EE10_M_deleterEv = comdat any

$_ZSt3getILm1EJPN4node9inspector8protocol5ValueESt14default_deleteIS3_EEERNSt13tuple_elementIXT_ESt5tupleIJDpT0_EEE4typeERSB_ = comdat any

$_ZSt12__get_helperILm1ESt14default_deleteIN4node9inspector8protocol5ValueEEJEERT0_RSt11_Tuple_implIXT_EJS6_DpT1_EE = comdat any

$_ZNSt11_Tuple_implILm1EJSt14default_deleteIN4node9inspector8protocol5ValueEEEE7_M_headERS6_ = comdat any

$_ZNSt10_Head_baseILm1ESt14default_deleteIN4node9inspector8protocol5ValueEELb1EE7_M_headERS6_ = comdat any

$_ZNKSt15__uniq_ptr_implIN4node9inspector8protocol15DictionaryValueESt14default_deleteIS3_EE6_M_ptrEv = comdat any

$_ZSt3getILm0EJPN4node9inspector8protocol15DictionaryValueESt14default_deleteIS3_EEERKNSt13tuple_elementIXT_ESt5tupleIJDpT0_EEE4typeERKSB_ = comdat any

$_ZSt12__get_helperILm0EPN4node9inspector8protocol15DictionaryValueEJSt14default_deleteIS3_EEERKT0_RKSt11_Tuple_implIXT_EJS7_DpT1_EE = comdat any

$_ZNSt11_Tuple_implILm0EJPN4node9inspector8protocol15DictionaryValueESt14default_deleteIS3_EEE7_M_headERKS7_ = comdat any

$_ZNSt10_Head_baseILm0EPN4node9inspector8protocol15DictionaryValueELb0EE7_M_headERKS5_ = comdat any

$_ZNKSt10unique_ptrIN12v8_inspector18V8InspectorSessionESt14default_deleteIS1_EE3getEv = comdat any

$_ZNKSt15__uniq_ptr_implIN12v8_inspector18V8InspectorSessionESt14default_deleteIS1_EE6_M_ptrEv = comdat any

$_ZSt3getILm0EJPN12v8_inspector18V8InspectorSessionESt14default_deleteIS1_EEERKNSt13tuple_elementIXT_ESt5tupleIJDpT0_EEE4typeERKS9_ = comdat any

$_ZSt12__get_helperILm0EPN12v8_inspector18V8InspectorSessionEJSt14default_deleteIS1_EEERKT0_RKSt11_Tuple_implIXT_EJS5_DpT1_EE = comdat any

$_ZNSt11_Tuple_implILm0EJPN12v8_inspector18V8InspectorSessionESt14default_deleteIS1_EEE7_M_headERKS5_ = comdat any

$_ZNSt10_Head_baseILm0EPN12v8_inspector18V8InspectorSessionELb0EE7_M_headERKS3_ = comdat any

$_ZNSt10unique_ptrIN4node9inspector8protocol15DictionaryValueESt14default_deleteIS3_EE7releaseEv = comdat any

$_ZNSt10unique_ptrIN4node9inspector8protocol15DictionaryValueESt14default_deleteIS3_EE11get_deleterEv = comdat any

$_ZNSt15__uniq_ptr_dataIN4node9inspector8protocol5ValueESt14default_deleteIS3_ELb1ELb1EECI2St15__uniq_ptr_implIS3_S5_EIS4_INS2_15DictionaryValueEEEEPS3_OT_ = comdat any

$_ZNSt15__uniq_ptr_implIN4node9inspector8protocol15DictionaryValueESt14default_deleteIS3_EE7releaseEv = comdat any

$_ZNSt15__uniq_ptr_implIN4node9inspector8protocol15DictionaryValueESt14default_deleteIS3_EE10_M_deleterEv = comdat any

$_ZSt3getILm1EJPN4node9inspector8protocol15DictionaryValueESt14default_deleteIS3_EEERNSt13tuple_elementIXT_ESt5tupleIJDpT0_EEE4typeERSB_ = comdat any

$_ZSt12__get_helperILm1ESt14default_deleteIN4node9inspector8protocol15DictionaryValueEEJEERT0_RSt11_Tuple_implIXT_EJS6_DpT1_EE = comdat any

$_ZNSt11_Tuple_implILm1EJSt14default_deleteIN4node9inspector8protocol15DictionaryValueEEEE7_M_headERS6_ = comdat any

$_ZNSt10_Head_baseILm1ESt14default_deleteIN4node9inspector8protocol15DictionaryValueEELb1EE7_M_headERS6_ = comdat any

$_ZNSt15__uniq_ptr_implIN4node9inspector8protocol5ValueESt14default_deleteIS3_EEC2IS4_INS2_15DictionaryValueEEEEPS3_OT_ = comdat any

$_ZNSt5tupleIJPN4node9inspector8protocol5ValueESt14default_deleteIS3_EEEC2IRS4_S5_INS2_15DictionaryValueEETnNSt9enable_ifIXclsr4_TCCIXntcl14__is_alloc_argIT_EEEEE29__is_implicitly_constructibleISD_T0_EEEbE4typeELb1EEEOSD_OSE_ = comdat any

$_ZNSt11_Tuple_implILm0EJPN4node9inspector8protocol5ValueESt14default_deleteIS3_EEEC2IRS4_JS5_INS2_15DictionaryValueEEEvEEOT_DpOT0_ = comdat any

$_ZNSt11_Tuple_implILm1EJSt14default_deleteIN4node9inspector8protocol5ValueEEEEC2IS0_INS3_15DictionaryValueEEEEOT_ = comdat any

$_ZNSt10_Head_baseILm0EPN4node9inspector8protocol5ValueELb0EEC2IRS4_EEOT_ = comdat any

$_ZNSt10_Head_baseILm1ESt14default_deleteIN4node9inspector8protocol5ValueEELb1EEC2IS0_INS3_15DictionaryValueEEEEOT_ = comdat any

$_ZNSt14default_deleteIN4node9inspector8protocol5ValueEEC2INS2_15DictionaryValueEvEERKS_IT_E = comdat any

$_ZNKSt14default_deleteIN4node9inspector8protocol15DictionaryValueEEclEPS3_ = comdat any

$_ZNK4node11Environment15principal_realmEv = comdat any

$_ZNKSt10unique_ptrIN4node14PrincipalRealmESt14default_deleteIS1_EE3getEv = comdat any

$_ZNKSt15__uniq_ptr_implIN4node14PrincipalRealmESt14default_deleteIS1_EE6_M_ptrEv = comdat any

$_ZSt3getILm0EJPN4node14PrincipalRealmESt14default_deleteIS1_EEERKNSt13tuple_elementIXT_ESt5tupleIJDpT0_EEE4typeERKS9_ = comdat any

$_ZSt12__get_helperILm0EPN4node14PrincipalRealmEJSt14default_deleteIS1_EEERKT0_RKSt11_Tuple_implIXT_EJS5_DpT1_EE = comdat any

$_ZNSt11_Tuple_implILm0EJPN4node14PrincipalRealmESt14default_deleteIS1_EEE7_M_headERKS5_ = comdat any

$_ZNSt10_Head_baseILm0EPN4node14PrincipalRealmELb0EE7_M_headERKS3_ = comdat any

$_ZN12v8_inspector10StringViewC2EPKhm = comdat any

$_ZNSt10unique_ptrIN12v8_inspector12V8StackTraceESt14default_deleteIS1_EED2Ev = comdat any

$_ZN4node16MaybeStackBufferItLm1024EEdeEv = comdat any

$_ZNK4node16MaybeStackBufferItLm1024EE6lengthEv = comdat any

$_ZN12v8_inspector10StringViewC2EPKtm = comdat any

$_ZN4node12TwoByteValueD2Ev = comdat any

$_ZN4node16MaybeStackBufferItLm1024EED2Ev = comdat any

$_ZNK4node16MaybeStackBufferItLm1024EE11IsAllocatedEv = comdat any

$_ZNK4node16MaybeStackBufferItLm1024EE13IsInvalidatedEv = comdat any

$_ZNSt15__uniq_ptr_implIN12v8_inspector12V8StackTraceESt14default_deleteIS1_EE6_M_ptrEv = comdat any

$_ZNSt10unique_ptrIN12v8_inspector12V8StackTraceESt14default_deleteIS1_EE11get_deleterEv = comdat any

$_ZNKSt14default_deleteIN12v8_inspector12V8StackTraceEEclEPS1_ = comdat any

$_ZSt3getILm0EJPN12v8_inspector12V8StackTraceESt14default_deleteIS1_EEERNSt13tuple_elementIXT_ESt5tupleIJDpT0_EEE4typeERS9_ = comdat any

$_ZSt12__get_helperILm0EPN12v8_inspector12V8StackTraceEJSt14default_deleteIS1_EEERT0_RSt11_Tuple_implIXT_EJS5_DpT1_EE = comdat any

$_ZNSt11_Tuple_implILm0EJPN12v8_inspector12V8StackTraceESt14default_deleteIS1_EEE7_M_headERS5_ = comdat any

$_ZNSt10_Head_baseILm0EPN12v8_inspector12V8StackTraceELb0EE7_M_headERS3_ = comdat any

$_ZNSt15__uniq_ptr_implIN12v8_inspector12V8StackTraceESt14default_deleteIS1_EE10_M_deleterEv = comdat any

$_ZSt3getILm1EJPN12v8_inspector12V8StackTraceESt14default_deleteIS1_EEERNSt13tuple_elementIXT_ESt5tupleIJDpT0_EEE4typeERS9_ = comdat any

$_ZSt12__get_helperILm1ESt14default_deleteIN12v8_inspector12V8StackTraceEEJEERT0_RSt11_Tuple_implIXT_EJS4_DpT1_EE = comdat any

$_ZNSt11_Tuple_implILm1EJSt14default_deleteIN12v8_inspector12V8StackTraceEEEE7_M_headERS4_ = comdat any

$_ZNSt10_Head_baseILm1ESt14default_deleteIN12v8_inspector12V8StackTraceEELb1EE7_M_headERS4_ = comdat any

$_ZNKSt10unique_ptrIN4node14PrincipalRealmESt14default_deleteIS1_EEptEv = comdat any

$_ZNK4node11Environment11is_stoppingEv = comdat any

$_ZNKSt6atomicIbE4loadESt12memory_order = comdat any

$_ZStanSt12memory_orderSt23__memory_order_modifier = comdat any

$_ZNK4node5Realm26has_run_bootstrapping_codeEv = comdat any

$_ZNSt10unique_ptrIN12v8_inspector12StringBufferESt14default_deleteIS1_EEC2IS3_vEEv = comdat any

$_ZN12v8_inspector13V8ContextInfoC2EN2v85LocalINS1_7ContextEEEiNS_10StringViewE = comdat any

$_ZNSt10unique_ptrIN12v8_inspector12StringBufferESt14default_deleteIS1_EEaSEOS4_ = comdat any

$_ZNSt15__uniq_ptr_dataIN12v8_inspector12StringBufferESt14default_deleteIS1_ELb1ELb1EEC2Ev = comdat any

$_ZNSt15__uniq_ptr_implIN12v8_inspector12StringBufferESt14default_deleteIS1_EEC2Ev = comdat any

$_ZNSt5tupleIJPN12v8_inspector12StringBufferESt14default_deleteIS1_EEEC2ILb1ETnNSt9enable_ifIXclsr17_TupleConstraintsIXT_ES2_S4_EE37__is_implicitly_default_constructibleEEbE4typeELb1EEEv = comdat any

$_ZNSt11_Tuple_implILm0EJPN12v8_inspector12StringBufferESt14default_deleteIS1_EEEC2Ev = comdat any

$_ZNSt11_Tuple_implILm1EJSt14default_deleteIN12v8_inspector12StringBufferEEEEC2Ev = comdat any

$_ZNSt10_Head_baseILm0EPN12v8_inspector12StringBufferELb0EEC2Ev = comdat any

$_ZNSt10_Head_baseILm1ESt14default_deleteIN12v8_inspector12StringBufferEELb1EEC2Ev = comdat any

$_ZNSt15__uniq_ptr_dataIN12v8_inspector12StringBufferESt14default_deleteIS1_ELb1ELb1EEaSEOS4_ = comdat any

$_ZNSt15__uniq_ptr_implIN12v8_inspector12StringBufferESt14default_deleteIS1_EEaSEOS4_ = comdat any

$_ZNSt15__uniq_ptr_implIN12v8_inspector12StringBufferESt14default_deleteIS1_EE5resetEPS1_ = comdat any

$_ZNSt15__uniq_ptr_implIN12v8_inspector12StringBufferESt14default_deleteIS1_EE7releaseEv = comdat any

$_ZNSt15__uniq_ptr_dataIN4node9inspector21ParentInspectorHandleESt14default_deleteIS2_ELb1ELb1EEaSEOS5_ = comdat any

$_ZNSt15__uniq_ptr_implIN4node9inspector21ParentInspectorHandleESt14default_deleteIS2_EEaSEOS5_ = comdat any

$_ZNSt15__uniq_ptr_implIN4node9inspector21ParentInspectorHandleESt14default_deleteIS2_EE5resetEPS2_ = comdat any

$_ZNSt15__uniq_ptr_implIN4node9inspector21ParentInspectorHandleESt14default_deleteIS2_EE7releaseEv = comdat any

$_ZNSt15__uniq_ptr_implIN4node9inspector21ParentInspectorHandleESt14default_deleteIS2_EE10_M_deleterEv = comdat any

$_ZNSt15__uniq_ptr_implIN4node9inspector21ParentInspectorHandleESt14default_deleteIS2_EE6_M_ptrEv = comdat any

$_ZNKSt14default_deleteIN4node9inspector21ParentInspectorHandleEEclEPS2_ = comdat any

$_ZSt3getILm0EJPN4node9inspector21ParentInspectorHandleESt14default_deleteIS2_EEERNSt13tuple_elementIXT_ESt5tupleIJDpT0_EEE4typeERSA_ = comdat any

$_ZSt12__get_helperILm0EPN4node9inspector21ParentInspectorHandleEJSt14default_deleteIS2_EEERT0_RSt11_Tuple_implIXT_EJS6_DpT1_EE = comdat any

$_ZNSt11_Tuple_implILm0EJPN4node9inspector21ParentInspectorHandleESt14default_deleteIS2_EEE7_M_headERS6_ = comdat any

$_ZNSt10_Head_baseILm0EPN4node9inspector21ParentInspectorHandleELb0EE7_M_headERS4_ = comdat any

$_ZSt3getILm1EJPN4node9inspector21ParentInspectorHandleESt14default_deleteIS2_EEERNSt13tuple_elementIXT_ESt5tupleIJDpT0_EEE4typeERSA_ = comdat any

$_ZSt12__get_helperILm1ESt14default_deleteIN4node9inspector21ParentInspectorHandleEEJEERT0_RSt11_Tuple_implIXT_EJS5_DpT1_EE = comdat any

$_ZNSt11_Tuple_implILm1EJSt14default_deleteIN4node9inspector21ParentInspectorHandleEEEE7_M_headERS5_ = comdat any

$_ZNSt10_Head_baseILm1ESt14default_deleteIN4node9inspector21ParentInspectorHandleEELb1EE7_M_headERS5_ = comdat any

$_ZNSt10shared_ptrIN4node9inspector13WorkerManagerEEC2EDn = comdat any

$_ZSteqIN4node9inspector13WorkerManagerEEbRKSt10shared_ptrIT_EDn = comdat any

$_ZSt11make_sharedIN4node9inspector13WorkerManagerEJSt10shared_ptrINS1_16MainThreadHandleEEEES3_INSt9enable_ifIXntsr8is_arrayIT_EE5valueES7_E4typeEEDpOT0_ = comdat any

$_ZNSt10shared_ptrIN4node9inspector13WorkerManagerEEaSEOS3_ = comdat any

$_ZNSt10shared_ptrIN4node9inspector13WorkerManagerEEC2ERKS3_ = comdat any

$_ZNSt12__shared_ptrIN4node9inspector13WorkerManagerELN9__gnu_cxx12_Lock_policyE2EEC2Ev = comdat any

$_ZNSt10shared_ptrIN4node9inspector13WorkerManagerEEC2ISaIvEJS_INS1_16MainThreadHandleEEEEESt20_Sp_alloc_shared_tagIT_EDpOT0_ = comdat any

$_ZNSt12__shared_ptrIN4node9inspector13WorkerManagerELN9__gnu_cxx12_Lock_policyE2EEC2ISaIvEJSt10shared_ptrINS1_16MainThreadHandleEEEEESt20_Sp_alloc_shared_tagIT_EDpOT0_ = comdat any

$_ZNSt14__shared_countILN9__gnu_cxx12_Lock_policyE2EEC2IN4node9inspector13WorkerManagerESaIvEJSt10shared_ptrINS5_16MainThreadHandleEEEEERPT_St20_Sp_alloc_shared_tagIT0_EDpOT1_ = comdat any

$_ZNSt12__shared_ptrIN4node9inspector13WorkerManagerELN9__gnu_cxx12_Lock_policyE2EE31_M_enable_shared_from_this_withIS2_S2_EENSt9enable_ifIXsr15__has_esft_baseIT0_EE5valueEvE4typeEPT_ = comdat any

$_ZNSaISt23_Sp_counted_ptr_inplaceIN4node9inspector13WorkerManagerESaIvELN9__gnu_cxx12_Lock_policyE2EEEC2IvEERKSaIT_E = comdat any

$_ZSt18__allocate_guardedISaISt23_Sp_counted_ptr_inplaceIN4node9inspector13WorkerManagerESaIvELN9__gnu_cxx12_Lock_policyE2EEEESt15__allocated_ptrIT_ERSA_ = comdat any

$_ZNSt15__allocated_ptrISaISt23_Sp_counted_ptr_inplaceIN4node9inspector13WorkerManagerESaIvELN9__gnu_cxx12_Lock_policyE2EEEE3getEv = comdat any

$_ZNSt23_Sp_counted_ptr_inplaceIN4node9inspector13WorkerManagerESaIvELN9__gnu_cxx12_Lock_policyE2EEC2IJSt10shared_ptrINS1_16MainThreadHandleEEEEES3_DpOT_ = comdat any

$_ZNSt15__allocated_ptrISaISt23_Sp_counted_ptr_inplaceIN4node9inspector13WorkerManagerESaIvELN9__gnu_cxx12_Lock_policyE2EEEEaSEDn = comdat any

$_ZNSt23_Sp_counted_ptr_inplaceIN4node9inspector13WorkerManagerESaIvELN9__gnu_cxx12_Lock_policyE2EE6_M_ptrEv = comdat any

$_ZNSt15__allocated_ptrISaISt23_Sp_counted_ptr_inplaceIN4node9inspector13WorkerManagerESaIvELN9__gnu_cxx12_Lock_policyE2EEEED2Ev = comdat any

$_ZNSaISt23_Sp_counted_ptr_inplaceIN4node9inspector13WorkerManagerESaIvELN9__gnu_cxx12_Lock_policyE2EEED2Ev = comdat any

$_ZNSt15__new_allocatorISt23_Sp_counted_ptr_inplaceIN4node9inspector13WorkerManagerESaIvELN9__gnu_cxx12_Lock_policyE2EEEC2Ev = comdat any

$_ZNSt16allocator_traitsISaISt23_Sp_counted_ptr_inplaceIN4node9inspector13WorkerManagerESaIvELN9__gnu_cxx12_Lock_policyE2EEEE8allocateERS8_m = comdat any

$_ZNSt15__allocated_ptrISaISt23_Sp_counted_ptr_inplaceIN4node9inspector13WorkerManagerESaIvELN9__gnu_cxx12_Lock_policyE2EEEEC2ERS8_PS7_ = comdat any

$_ZNSt15__new_allocatorISt23_Sp_counted_ptr_inplaceIN4node9inspector13WorkerManagerESaIvELN9__gnu_cxx12_Lock_policyE2EEE8allocateEmPKv = comdat any

$_ZNKSt15__new_allocatorISt23_Sp_counted_ptr_inplaceIN4node9inspector13WorkerManagerESaIvELN9__gnu_cxx12_Lock_policyE2EEE11_M_max_sizeEv = comdat any

$_ZSt12__to_addressISt23_Sp_counted_ptr_inplaceIN4node9inspector13WorkerManagerESaIvELN9__gnu_cxx12_Lock_policyE2EEEPT_S9_ = comdat any

$_ZNSt23_Sp_counted_ptr_inplaceIN4node9inspector13WorkerManagerESaIvELN9__gnu_cxx12_Lock_policyE2EE5_ImplC2ES3_ = comdat any

$_ZNSt16allocator_traitsISaIvEE9constructIN4node9inspector13WorkerManagerEJSt10shared_ptrINS4_16MainThreadHandleEEEEEvRS0_PT_DpOT0_ = comdat any

$_ZNSt23_Sp_counted_ptr_inplaceIN4node9inspector13WorkerManagerESaIvELN9__gnu_cxx12_Lock_policyE2EED2Ev = comdat any

$_ZNSt23_Sp_counted_ptr_inplaceIN4node9inspector13WorkerManagerESaIvELN9__gnu_cxx12_Lock_policyE2EED0Ev = comdat any

$_ZNSt23_Sp_counted_ptr_inplaceIN4node9inspector13WorkerManagerESaIvELN9__gnu_cxx12_Lock_policyE2EE10_M_disposeEv = comdat any

$_ZNSt23_Sp_counted_ptr_inplaceIN4node9inspector13WorkerManagerESaIvELN9__gnu_cxx12_Lock_policyE2EE10_M_destroyEv = comdat any

$_ZNSt23_Sp_counted_ptr_inplaceIN4node9inspector13WorkerManagerESaIvELN9__gnu_cxx12_Lock_policyE2EE14_M_get_deleterERKSt9type_info = comdat any

$_ZSt10_ConstructIN4node9inspector13WorkerManagerEJSt10shared_ptrINS1_16MainThreadHandleEEEEvPT_DpOT0_ = comdat any

$_ZN4node9inspector13WorkerManagerC2ESt10shared_ptrINS0_16MainThreadHandleEE = comdat any

$_ZNSt23enable_shared_from_thisIN4node9inspector13WorkerManagerEEC2Ev = comdat any

$_ZNSt13unordered_mapImN4node9inspector10WorkerInfoESt4hashImESt8equal_toImESaISt4pairIKmS2_EEEC2Ev = comdat any

$_ZNSt13unordered_mapIiSt10unique_ptrIN4node9inspector14WorkerDelegateESt14default_deleteIS3_EESt4hashIiESt8equal_toIiESaISt4pairIKiS6_EEEC2Ev = comdat any

$_ZNSt13unordered_setIiSt4hashIiESt8equal_toIiESaIiEEC2Ev = comdat any

$_ZNSt8weak_ptrIN4node9inspector13WorkerManagerEEC2Ev = comdat any

$_ZNSt10__weak_ptrIN4node9inspector13WorkerManagerELN9__gnu_cxx12_Lock_policyE2EEC2Ev = comdat any

$_ZNSt12__weak_countILN9__gnu_cxx12_Lock_policyE2EEC2Ev = comdat any

$_ZNSt10_HashtableImSt4pairIKmN4node9inspector10WorkerInfoEESaIS5_ENSt8__detail10_Select1stESt8equal_toImESt4hashImENS7_18_Mod_range_hashingENS7_20_Default_ranged_hashENS7_20_Prime_rehash_policyENS7_17_Hashtable_traitsILb0ELb0ELb1EEEEC2Ev = comdat any

$_ZNSt8__detail15_Hashtable_baseImSt4pairIKmN4node9inspector10WorkerInfoEENS_10_Select1stESt8equal_toImESt4hashImENS_18_Mod_range_hashingENS_20_Default_ranged_hashENS_17_Hashtable_traitsILb0ELb0ELb1EEEEC2Ev = comdat any

$_ZNSt8__detail16_Hashtable_allocISaINS_10_Hash_nodeISt4pairIKmN4node9inspector10WorkerInfoEELb0EEEEEC2Ev = comdat any

$_ZNSt8__detail15_Hash_node_baseC2Ev = comdat any

$_ZNSt8__detail20_Prime_rehash_policyC2Ef = comdat any

$_ZNSt8__detail15_Hash_code_baseImSt4pairIKmN4node9inspector10WorkerInfoEENS_10_Select1stESt4hashImENS_18_Mod_range_hashingENS_20_Default_ranged_hashELb0EEC2Ev = comdat any

$_ZNSt8__detail21_Hashtable_ebo_helperILi0ESt8equal_toImELb1EEC2Ev = comdat any

$_ZNSt8__detail21_Hashtable_ebo_helperILi1ESt4hashImELb1EEC2Ev = comdat any

$_ZNSt8__detail21_Hashtable_ebo_helperILi0ESaINS_10_Hash_nodeISt4pairIKmN4node9inspector10WorkerInfoEELb0EEEELb1EEC2Ev = comdat any

$_ZNSaINSt8__detail10_Hash_nodeISt4pairIKmN4node9inspector10WorkerInfoEELb0EEEEC2Ev = comdat any

$_ZNSt15__new_allocatorINSt8__detail10_Hash_nodeISt4pairIKmN4node9inspector10WorkerInfoEELb0EEEEC2Ev = comdat any

$_ZNSt10_HashtableIiSt4pairIKiSt10unique_ptrIN4node9inspector14WorkerDelegateESt14default_deleteIS5_EEESaIS9_ENSt8__detail10_Select1stESt8equal_toIiESt4hashIiENSB_18_Mod_range_hashingENSB_20_Default_ranged_hashENSB_20_Prime_rehash_policyENSB_17_Hashtable_traitsILb0ELb0ELb1EEEEC2Ev = comdat any

$_ZNSt8__detail15_Hashtable_baseIiSt4pairIKiSt10unique_ptrIN4node9inspector14WorkerDelegateESt14default_deleteIS6_EEENS_10_Select1stESt8equal_toIiESt4hashIiENS_18_Mod_range_hashingENS_20_Default_ranged_hashENS_17_Hashtable_traitsILb0ELb0ELb1EEEEC2Ev = comdat any

$_ZNSt8__detail16_Hashtable_allocISaINS_10_Hash_nodeISt4pairIKiSt10unique_ptrIN4node9inspector14WorkerDelegateESt14default_deleteIS7_EEELb0EEEEEC2Ev = comdat any

$_ZNSt8__detail15_Hash_code_baseIiSt4pairIKiSt10unique_ptrIN4node9inspector14WorkerDelegateESt14default_deleteIS6_EEENS_10_Select1stESt4hashIiENS_18_Mod_range_hashingENS_20_Default_ranged_hashELb0EEC2Ev = comdat any

$_ZNSt8__detail21_Hashtable_ebo_helperILi0ESt8equal_toIiELb1EEC2Ev = comdat any

$_ZNSt8__detail21_Hashtable_ebo_helperILi1ESt4hashIiELb1EEC2Ev = comdat any

$_ZNSt8__detail21_Hashtable_ebo_helperILi0ESaINS_10_Hash_nodeISt4pairIKiSt10unique_ptrIN4node9inspector14WorkerDelegateESt14default_deleteIS7_EEELb0EEEELb1EEC2Ev = comdat any

$_ZNSaINSt8__detail10_Hash_nodeISt4pairIKiSt10unique_ptrIN4node9inspector14WorkerDelegateESt14default_deleteIS6_EEELb0EEEEC2Ev = comdat any

$_ZNSt15__new_allocatorINSt8__detail10_Hash_nodeISt4pairIKiSt10unique_ptrIN4node9inspector14WorkerDelegateESt14default_deleteIS7_EEELb0EEEEC2Ev = comdat any

$_ZNSt10_HashtableIiiSaIiENSt8__detail9_IdentityESt8equal_toIiESt4hashIiENS1_18_Mod_range_hashingENS1_20_Default_ranged_hashENS1_20_Prime_rehash_policyENS1_17_Hashtable_traitsILb0ELb1ELb1EEEEC2Ev = comdat any

$_ZNSt8__detail15_Hashtable_baseIiiNS_9_IdentityESt8equal_toIiESt4hashIiENS_18_Mod_range_hashingENS_20_Default_ranged_hashENS_17_Hashtable_traitsILb0ELb1ELb1EEEEC2Ev = comdat any

$_ZNSt8__detail16_Hashtable_allocISaINS_10_Hash_nodeIiLb0EEEEEC2Ev = comdat any

$_ZNSt8__detail15_Hash_code_baseIiiNS_9_IdentityESt4hashIiENS_18_Mod_range_hashingENS_20_Default_ranged_hashELb0EEC2Ev = comdat any

$_ZNSt8__detail21_Hashtable_ebo_helperILi0ESaINS_10_Hash_nodeIiLb0EEEELb1EEC2Ev = comdat any

$_ZNSaINSt8__detail10_Hash_nodeIiLb0EEEEC2Ev = comdat any

$_ZNSt15__new_allocatorINSt8__detail10_Hash_nodeIiLb0EEEEC2Ev = comdat any

$_ZNSt16allocator_traitsISaIvEE7destroyIN4node9inspector13WorkerManagerEEEvRS0_PT_ = comdat any

$_ZNSt23_Sp_counted_ptr_inplaceIN4node9inspector13WorkerManagerESaIvELN9__gnu_cxx12_Lock_policyE2EE5_Impl8_M_allocEv = comdat any

$_ZSt8_DestroyIN4node9inspector13WorkerManagerEEvPT_ = comdat any

$_ZN4node9inspector13WorkerManagerD2Ev = comdat any

$_ZNSt13unordered_setIiSt4hashIiESt8equal_toIiESaIiEED2Ev = comdat any

$_ZNSt13unordered_mapIiSt10unique_ptrIN4node9inspector14WorkerDelegateESt14default_deleteIS3_EESt4hashIiESt8equal_toIiESaISt4pairIKiS6_EEED2Ev = comdat any

$_ZNSt13unordered_mapImN4node9inspector10WorkerInfoESt4hashImESt8equal_toImESaISt4pairIKmS2_EEED2Ev = comdat any

$_ZNSt23enable_shared_from_thisIN4node9inspector13WorkerManagerEED2Ev = comdat any

$_ZNSt10_HashtableIiiSaIiENSt8__detail9_IdentityESt8equal_toIiESt4hashIiENS1_18_Mod_range_hashingENS1_20_Default_ranged_hashENS1_20_Prime_rehash_policyENS1_17_Hashtable_traitsILb0ELb1ELb1EEEED2Ev = comdat any

$_ZNSt10_HashtableIiiSaIiENSt8__detail9_IdentityESt8equal_toIiESt4hashIiENS1_18_Mod_range_hashingENS1_20_Default_ranged_hashENS1_20_Prime_rehash_policyENS1_17_Hashtable_traitsILb0ELb1ELb1EEEE5clearEv = comdat any

$_ZNSt10_HashtableIiiSaIiENSt8__detail9_IdentityESt8equal_toIiESt4hashIiENS1_18_Mod_range_hashingENS1_20_Default_ranged_hashENS1_20_Prime_rehash_policyENS1_17_Hashtable_traitsILb0ELb1ELb1EEEE21_M_deallocate_bucketsEv = comdat any

$_ZNSt8__detail16_Hashtable_allocISaINS_10_Hash_nodeIiLb0EEEEED2Ev = comdat any

$_ZNSt8__detail16_Hashtable_allocISaINS_10_Hash_nodeIiLb0EEEEE19_M_deallocate_nodesEPS2_ = comdat any

$_ZNKSt10_HashtableIiiSaIiENSt8__detail9_IdentityESt8equal_toIiESt4hashIiENS1_18_Mod_range_hashingENS1_20_Default_ranged_hashENS1_20_Prime_rehash_policyENS1_17_Hashtable_traitsILb0ELb1ELb1EEEE8_M_beginEv = comdat any

$_ZNKSt8__detail10_Hash_nodeIiLb0EE7_M_nextEv = comdat any

$_ZNSt8__detail16_Hashtable_allocISaINS_10_Hash_nodeIiLb0EEEEE18_M_deallocate_nodeEPS2_ = comdat any

$_ZNSt16allocator_traitsISaINSt8__detail10_Hash_nodeIiLb0EEEEE7destroyIiEEvRS3_PT_ = comdat any

$_ZNSt8__detail16_Hashtable_allocISaINS_10_Hash_nodeIiLb0EEEEE17_M_node_allocatorEv = comdat any

$_ZNSt8__detail21_Hash_node_value_baseIiE9_M_valptrEv = comdat any

$_ZNSt8__detail16_Hashtable_allocISaINS_10_Hash_nodeIiLb0EEEEE22_M_deallocate_node_ptrEPS2_ = comdat any

$_ZNSt15__new_allocatorINSt8__detail10_Hash_nodeIiLb0EEEE7destroyIiEEvPT_ = comdat any

$_ZNSt8__detail21_Hashtable_ebo_helperILi0ESaINS_10_Hash_nodeIiLb0EEEELb1EE6_M_getEv = comdat any

$_ZN9__gnu_cxx16__aligned_bufferIiE6_M_ptrEv = comdat any

$_ZN9__gnu_cxx16__aligned_bufferIiE7_M_addrEv = comdat any

$_ZNSt19__ptr_traits_ptr_toIPNSt8__detail10_Hash_nodeIiLb0EEES2_Lb0EE10pointer_toERS2_ = comdat any

$_ZNSt16allocator_traitsISaINSt8__detail10_Hash_nodeIiLb0EEEEE10deallocateERS3_PS2_m = comdat any

$_ZNSt15__new_allocatorINSt8__detail10_Hash_nodeIiLb0EEEE10deallocateEPS2_m = comdat any

$_ZNSt10_HashtableIiiSaIiENSt8__detail9_IdentityESt8equal_toIiESt4hashIiENS1_18_Mod_range_hashingENS1_20_Default_ranged_hashENS1_20_Prime_rehash_policyENS1_17_Hashtable_traitsILb0ELb1ELb1EEEE21_M_deallocate_bucketsEPPNS1_15_Hash_node_baseEm = comdat any

$_ZNKSt10_HashtableIiiSaIiENSt8__detail9_IdentityESt8equal_toIiESt4hashIiENS1_18_Mod_range_hashingENS1_20_Default_ranged_hashENS1_20_Prime_rehash_policyENS1_17_Hashtable_traitsILb0ELb1ELb1EEEE21_M_uses_single_bucketEPPNS1_15_Hash_node_baseE = comdat any

$_ZNSt8__detail16_Hashtable_allocISaINS_10_Hash_nodeIiLb0EEEEE21_M_deallocate_bucketsEPPNS_15_Hash_node_baseEm = comdat any

$_ZNSaIPNSt8__detail15_Hash_node_baseEEC2INS_10_Hash_nodeIiLb0EEEEERKSaIT_E = comdat any

$_ZNSt8__detail21_Hashtable_ebo_helperILi0ESaINS_10_Hash_nodeIiLb0EEEELb1EED2Ev = comdat any

$_ZNSaINSt8__detail10_Hash_nodeIiLb0EEEED2Ev = comdat any

$_ZNSt15__new_allocatorINSt8__detail10_Hash_nodeIiLb0EEEED2Ev = comdat any

$_ZNSt10_HashtableIiSt4pairIKiSt10unique_ptrIN4node9inspector14WorkerDelegateESt14default_deleteIS5_EEESaIS9_ENSt8__detail10_Select1stESt8equal_toIiESt4hashIiENSB_18_Mod_range_hashingENSB_20_Default_ranged_hashENSB_20_Prime_rehash_policyENSB_17_Hashtable_traitsILb0ELb0ELb1EEEED2Ev = comdat any

$_ZNSt10_HashtableIiSt4pairIKiSt10unique_ptrIN4node9inspector14WorkerDelegateESt14default_deleteIS5_EEESaIS9_ENSt8__detail10_Select1stESt8equal_toIiESt4hashIiENSB_18_Mod_range_hashingENSB_20_Default_ranged_hashENSB_20_Prime_rehash_policyENSB_17_Hashtable_traitsILb0ELb0ELb1EEEE5clearEv = comdat any

$_ZNSt10_HashtableIiSt4pairIKiSt10unique_ptrIN4node9inspector14WorkerDelegateESt14default_deleteIS5_EEESaIS9_ENSt8__detail10_Select1stESt8equal_toIiESt4hashIiENSB_18_Mod_range_hashingENSB_20_Default_ranged_hashENSB_20_Prime_rehash_policyENSB_17_Hashtable_traitsILb0ELb0ELb1EEEE21_M_deallocate_bucketsEv = comdat any

$_ZNSt8__detail16_Hashtable_allocISaINS_10_Hash_nodeISt4pairIKiSt10unique_ptrIN4node9inspector14WorkerDelegateESt14default_deleteIS7_EEELb0EEEEED2Ev = comdat any

$_ZNSt8__detail16_Hashtable_allocISaINS_10_Hash_nodeISt4pairIKiSt10unique_ptrIN4node9inspector14WorkerDelegateESt14default_deleteIS7_EEELb0EEEEE19_M_deallocate_nodesEPSC_ = comdat any

$_ZNKSt10_HashtableIiSt4pairIKiSt10unique_ptrIN4node9inspector14WorkerDelegateESt14default_deleteIS5_EEESaIS9_ENSt8__detail10_Select1stESt8equal_toIiESt4hashIiENSB_18_Mod_range_hashingENSB_20_Default_ranged_hashENSB_20_Prime_rehash_policyENSB_17_Hashtable_traitsILb0ELb0ELb1EEEE8_M_beginEv = comdat any

$_ZNKSt8__detail10_Hash_nodeISt4pairIKiSt10unique_ptrIN4node9inspector14WorkerDelegateESt14default_deleteIS6_EEELb0EE7_M_nextEv = comdat any

$_ZNSt8__detail16_Hashtable_allocISaINS_10_Hash_nodeISt4pairIKiSt10unique_ptrIN4node9inspector14WorkerDelegateESt14default_deleteIS7_EEELb0EEEEE18_M_deallocate_nodeEPSC_ = comdat any

$_ZNSt16allocator_traitsISaINSt8__detail10_Hash_nodeISt4pairIKiSt10unique_ptrIN4node9inspector14WorkerDelegateESt14default_deleteIS7_EEELb0EEEEE7destroyISB_EEvRSD_PT_ = comdat any

$_ZNSt8__detail16_Hashtable_allocISaINS_10_Hash_nodeISt4pairIKiSt10unique_ptrIN4node9inspector14WorkerDelegateESt14default_deleteIS7_EEELb0EEEEE17_M_node_allocatorEv = comdat any

$_ZNSt8__detail21_Hash_node_value_baseISt4pairIKiSt10unique_ptrIN4node9inspector14WorkerDelegateESt14default_deleteIS6_EEEE9_M_valptrEv = comdat any

$_ZNSt8__detail16_Hashtable_allocISaINS_10_Hash_nodeISt4pairIKiSt10unique_ptrIN4node9inspector14WorkerDelegateESt14default_deleteIS7_EEELb0EEEEE22_M_deallocate_node_ptrEPSC_ = comdat any

$_ZNSt15__new_allocatorINSt8__detail10_Hash_nodeISt4pairIKiSt10unique_ptrIN4node9inspector14WorkerDelegateESt14default_deleteIS7_EEELb0EEEE7destroyISB_EEvPT_ = comdat any

$_ZNSt4pairIKiSt10unique_ptrIN4node9inspector14WorkerDelegateESt14default_deleteIS4_EEED2Ev = comdat any

$_ZNSt10unique_ptrIN4node9inspector14WorkerDelegateESt14default_deleteIS2_EED2Ev = comdat any

$_ZNSt15__uniq_ptr_implIN4node9inspector14WorkerDelegateESt14default_deleteIS2_EE6_M_ptrEv = comdat any

$_ZNSt10unique_ptrIN4node9inspector14WorkerDelegateESt14default_deleteIS2_EE11get_deleterEv = comdat any

$_ZNKSt14default_deleteIN4node9inspector14WorkerDelegateEEclEPS2_ = comdat any

$_ZSt3getILm0EJPN4node9inspector14WorkerDelegateESt14default_deleteIS2_EEERNSt13tuple_elementIXT_ESt5tupleIJDpT0_EEE4typeERSA_ = comdat any

$_ZSt12__get_helperILm0EPN4node9inspector14WorkerDelegateEJSt14default_deleteIS2_EEERT0_RSt11_Tuple_implIXT_EJS6_DpT1_EE = comdat any

$_ZNSt11_Tuple_implILm0EJPN4node9inspector14WorkerDelegateESt14default_deleteIS2_EEE7_M_headERS6_ = comdat any

$_ZNSt10_Head_baseILm0EPN4node9inspector14WorkerDelegateELb0EE7_M_headERS4_ = comdat any

$_ZNSt15__uniq_ptr_implIN4node9inspector14WorkerDelegateESt14default_deleteIS2_EE10_M_deleterEv = comdat any

$_ZSt3getILm1EJPN4node9inspector14WorkerDelegateESt14default_deleteIS2_EEERNSt13tuple_elementIXT_ESt5tupleIJDpT0_EEE4typeERSA_ = comdat any

$_ZSt12__get_helperILm1ESt14default_deleteIN4node9inspector14WorkerDelegateEEJEERT0_RSt11_Tuple_implIXT_EJS5_DpT1_EE = comdat any

$_ZNSt11_Tuple_implILm1EJSt14default_deleteIN4node9inspector14WorkerDelegateEEEE7_M_headERS5_ = comdat any

$_ZNSt10_Head_baseILm1ESt14default_deleteIN4node9inspector14WorkerDelegateEELb1EE7_M_headERS5_ = comdat any

$_ZNSt8__detail21_Hashtable_ebo_helperILi0ESaINS_10_Hash_nodeISt4pairIKiSt10unique_ptrIN4node9inspector14WorkerDelegateESt14default_deleteIS7_EEELb0EEEELb1EE6_M_getEv = comdat any

$_ZN9__gnu_cxx16__aligned_bufferISt4pairIKiSt10unique_ptrIN4node9inspector14WorkerDelegateESt14default_deleteIS6_EEEE6_M_ptrEv = comdat any

$_ZN9__gnu_cxx16__aligned_bufferISt4pairIKiSt10unique_ptrIN4node9inspector14WorkerDelegateESt14default_deleteIS6_EEEE7_M_addrEv = comdat any

$_ZNSt19__ptr_traits_ptr_toIPNSt8__detail10_Hash_nodeISt4pairIKiSt10unique_ptrIN4node9inspector14WorkerDelegateESt14default_deleteIS7_EEELb0EEESC_Lb0EE10pointer_toERSC_ = comdat any

$_ZNSt16allocator_traitsISaINSt8__detail10_Hash_nodeISt4pairIKiSt10unique_ptrIN4node9inspector14WorkerDelegateESt14default_deleteIS7_EEELb0EEEEE10deallocateERSD_PSC_m = comdat any

$_ZNSt15__new_allocatorINSt8__detail10_Hash_nodeISt4pairIKiSt10unique_ptrIN4node9inspector14WorkerDelegateESt14default_deleteIS7_EEELb0EEEE10deallocateEPSC_m = comdat any

$_ZNSt10_HashtableIiSt4pairIKiSt10unique_ptrIN4node9inspector14WorkerDelegateESt14default_deleteIS5_EEESaIS9_ENSt8__detail10_Select1stESt8equal_toIiESt4hashIiENSB_18_Mod_range_hashingENSB_20_Default_ranged_hashENSB_20_Prime_rehash_policyENSB_17_Hashtable_traitsILb0ELb0ELb1EEEE21_M_deallocate_bucketsEPPNSB_15_Hash_node_baseEm = comdat any

$_ZNKSt10_HashtableIiSt4pairIKiSt10unique_ptrIN4node9inspector14WorkerDelegateESt14default_deleteIS5_EEESaIS9_ENSt8__detail10_Select1stESt8equal_toIiESt4hashIiENSB_18_Mod_range_hashingENSB_20_Default_ranged_hashENSB_20_Prime_rehash_policyENSB_17_Hashtable_traitsILb0ELb0ELb1EEEE21_M_uses_single_bucketEPPNSB_15_Hash_node_baseE = comdat any

$_ZNSt8__detail16_Hashtable_allocISaINS_10_Hash_nodeISt4pairIKiSt10unique_ptrIN4node9inspector14WorkerDelegateESt14default_deleteIS7_EEELb0EEEEE21_M_deallocate_bucketsEPPNS_15_Hash_node_baseEm = comdat any

$_ZNSaIPNSt8__detail15_Hash_node_baseEEC2INS_10_Hash_nodeISt4pairIKiSt10unique_ptrIN4node9inspector14WorkerDelegateESt14default_deleteISA_EEELb0EEEEERKSaIT_E = comdat any

$_ZNSt8__detail21_Hashtable_ebo_helperILi0ESaINS_10_Hash_nodeISt4pairIKiSt10unique_ptrIN4node9inspector14WorkerDelegateESt14default_deleteIS7_EEELb0EEEELb1EED2Ev = comdat any

$_ZNSaINSt8__detail10_Hash_nodeISt4pairIKiSt10unique_ptrIN4node9inspector14WorkerDelegateESt14default_deleteIS6_EEELb0EEEED2Ev = comdat any

$_ZNSt15__new_allocatorINSt8__detail10_Hash_nodeISt4pairIKiSt10unique_ptrIN4node9inspector14WorkerDelegateESt14default_deleteIS7_EEELb0EEEED2Ev = comdat any

$_ZNSt10_HashtableImSt4pairIKmN4node9inspector10WorkerInfoEESaIS5_ENSt8__detail10_Select1stESt8equal_toImESt4hashImENS7_18_Mod_range_hashingENS7_20_Default_ranged_hashENS7_20_Prime_rehash_policyENS7_17_Hashtable_traitsILb0ELb0ELb1EEEED2Ev = comdat any

$_ZNSt10_HashtableImSt4pairIKmN4node9inspector10WorkerInfoEESaIS5_ENSt8__detail10_Select1stESt8equal_toImESt4hashImENS7_18_Mod_range_hashingENS7_20_Default_ranged_hashENS7_20_Prime_rehash_policyENS7_17_Hashtable_traitsILb0ELb0ELb1EEEE5clearEv = comdat any

$_ZNSt10_HashtableImSt4pairIKmN4node9inspector10WorkerInfoEESaIS5_ENSt8__detail10_Select1stESt8equal_toImESt4hashImENS7_18_Mod_range_hashingENS7_20_Default_ranged_hashENS7_20_Prime_rehash_policyENS7_17_Hashtable_traitsILb0ELb0ELb1EEEE21_M_deallocate_bucketsEv = comdat any

$_ZNSt8__detail16_Hashtable_allocISaINS_10_Hash_nodeISt4pairIKmN4node9inspector10WorkerInfoEELb0EEEEED2Ev = comdat any

$_ZNSt8__detail16_Hashtable_allocISaINS_10_Hash_nodeISt4pairIKmN4node9inspector10WorkerInfoEELb0EEEEE19_M_deallocate_nodesEPS8_ = comdat any

$_ZNKSt10_HashtableImSt4pairIKmN4node9inspector10WorkerInfoEESaIS5_ENSt8__detail10_Select1stESt8equal_toImESt4hashImENS7_18_Mod_range_hashingENS7_20_Default_ranged_hashENS7_20_Prime_rehash_policyENS7_17_Hashtable_traitsILb0ELb0ELb1EEEE8_M_beginEv = comdat any

$_ZNKSt8__detail10_Hash_nodeISt4pairIKmN4node9inspector10WorkerInfoEELb0EE7_M_nextEv = comdat any

$_ZNSt8__detail16_Hashtable_allocISaINS_10_Hash_nodeISt4pairIKmN4node9inspector10WorkerInfoEELb0EEEEE18_M_deallocate_nodeEPS8_ = comdat any

$_ZNSt16allocator_traitsISaINSt8__detail10_Hash_nodeISt4pairIKmN4node9inspector10WorkerInfoEELb0EEEEE7destroyIS7_EEvRS9_PT_ = comdat any

$_ZNSt8__detail16_Hashtable_allocISaINS_10_Hash_nodeISt4pairIKmN4node9inspector10WorkerInfoEELb0EEEEE17_M_node_allocatorEv = comdat any

$_ZNSt8__detail21_Hash_node_value_baseISt4pairIKmN4node9inspector10WorkerInfoEEE9_M_valptrEv = comdat any

$_ZNSt8__detail16_Hashtable_allocISaINS_10_Hash_nodeISt4pairIKmN4node9inspector10WorkerInfoEELb0EEEEE22_M_deallocate_node_ptrEPS8_ = comdat any

$_ZNSt15__new_allocatorINSt8__detail10_Hash_nodeISt4pairIKmN4node9inspector10WorkerInfoEELb0EEEE7destroyIS7_EEvPT_ = comdat any

$_ZNSt4pairIKmN4node9inspector10WorkerInfoEED2Ev = comdat any

$_ZN4node9inspector10WorkerInfoD2Ev = comdat any

$_ZNSt8__detail21_Hashtable_ebo_helperILi0ESaINS_10_Hash_nodeISt4pairIKmN4node9inspector10WorkerInfoEELb0EEEELb1EE6_M_getEv = comdat any

$_ZN9__gnu_cxx16__aligned_bufferISt4pairIKmN4node9inspector10WorkerInfoEEE6_M_ptrEv = comdat any

$_ZN9__gnu_cxx16__aligned_bufferISt4pairIKmN4node9inspector10WorkerInfoEEE7_M_addrEv = comdat any

$_ZNSt19__ptr_traits_ptr_toIPNSt8__detail10_Hash_nodeISt4pairIKmN4node9inspector10WorkerInfoEELb0EEES8_Lb0EE10pointer_toERS8_ = comdat any

$_ZNSt16allocator_traitsISaINSt8__detail10_Hash_nodeISt4pairIKmN4node9inspector10WorkerInfoEELb0EEEEE10deallocateERS9_PS8_m = comdat any

$_ZNSt15__new_allocatorINSt8__detail10_Hash_nodeISt4pairIKmN4node9inspector10WorkerInfoEELb0EEEE10deallocateEPS8_m = comdat any

$_ZNSt10_HashtableImSt4pairIKmN4node9inspector10WorkerInfoEESaIS5_ENSt8__detail10_Select1stESt8equal_toImESt4hashImENS7_18_Mod_range_hashingENS7_20_Default_ranged_hashENS7_20_Prime_rehash_policyENS7_17_Hashtable_traitsILb0ELb0ELb1EEEE21_M_deallocate_bucketsEPPNS7_15_Hash_node_baseEm = comdat any

$_ZNKSt10_HashtableImSt4pairIKmN4node9inspector10WorkerInfoEESaIS5_ENSt8__detail10_Select1stESt8equal_toImESt4hashImENS7_18_Mod_range_hashingENS7_20_Default_ranged_hashENS7_20_Prime_rehash_policyENS7_17_Hashtable_traitsILb0ELb0ELb1EEEE21_M_uses_single_bucketEPPNS7_15_Hash_node_baseE = comdat any

$_ZNSt8__detail16_Hashtable_allocISaINS_10_Hash_nodeISt4pairIKmN4node9inspector10WorkerInfoEELb0EEEEE21_M_deallocate_bucketsEPPNS_15_Hash_node_baseEm = comdat any

$_ZNSaIPNSt8__detail15_Hash_node_baseEEC2INS_10_Hash_nodeISt4pairIKmN4node9inspector10WorkerInfoEELb0EEEEERKSaIT_E = comdat any

$_ZNSt8__detail21_Hashtable_ebo_helperILi0ESaINS_10_Hash_nodeISt4pairIKmN4node9inspector10WorkerInfoEELb0EEEELb1EED2Ev = comdat any

$_ZNSaINSt8__detail10_Hash_nodeISt4pairIKmN4node9inspector10WorkerInfoEELb0EEEED2Ev = comdat any

$_ZNSt15__new_allocatorINSt8__detail10_Hash_nodeISt4pairIKmN4node9inspector10WorkerInfoEELb0EEEED2Ev = comdat any

$_ZN9__gnu_cxx16__aligned_bufferIN4node9inspector13WorkerManagerEE6_M_ptrEv = comdat any

$_ZN9__gnu_cxx16__aligned_bufferIN4node9inspector13WorkerManagerEE7_M_addrEv = comdat any

$_ZNSt16allocator_traitsISaISt23_Sp_counted_ptr_inplaceIN4node9inspector13WorkerManagerESaIvELN9__gnu_cxx12_Lock_policyE2EEEE10deallocateERS8_PS7_m = comdat any

$_ZNSt15__new_allocatorISt23_Sp_counted_ptr_inplaceIN4node9inspector13WorkerManagerESaIvELN9__gnu_cxx12_Lock_policyE2EEE10deallocateEPS7_m = comdat any

$_ZNSt15__new_allocatorISt23_Sp_counted_ptr_inplaceIN4node9inspector13WorkerManagerESaIvELN9__gnu_cxx12_Lock_policyE2EEED2Ev = comdat any

$_ZSt30__enable_shared_from_this_baseRKSt14__shared_countILN9__gnu_cxx12_Lock_policyE2EEPKSt23enable_shared_from_thisIN4node9inspector13WorkerManagerEE = comdat any

$_ZNKSt23enable_shared_from_thisIN4node9inspector13WorkerManagerEE14_M_weak_assignIS2_EEvPT_RKSt14__shared_countILN9__gnu_cxx12_Lock_policyE2EE = comdat any

$_ZNSt10__weak_ptrIN4node9inspector13WorkerManagerELN9__gnu_cxx12_Lock_policyE2EE9_M_assignEPS2_RKSt14__shared_countILS4_2EE = comdat any

$_ZNKSt10__weak_ptrIN4node9inspector13WorkerManagerELN9__gnu_cxx12_Lock_policyE2EE9use_countEv = comdat any

$_ZNSt12__shared_ptrIN4node9inspector13WorkerManagerELN9__gnu_cxx12_Lock_policyE2EEaSEOS5_ = comdat any

$_ZNSt12__shared_ptrIN4node9inspector13WorkerManagerELN9__gnu_cxx12_Lock_policyE2EEC2EOS5_ = comdat any

$_ZNSt12__shared_ptrIN4node9inspector13WorkerManagerELN9__gnu_cxx12_Lock_policyE2EE4swapERS5_ = comdat any

$_ZNSt12__shared_ptrIN4node9inspector13WorkerManagerELN9__gnu_cxx12_Lock_policyE2EED2Ev = comdat any

$_ZSt4swapIPN4node9inspector13WorkerManagerEENSt9enable_ifIXsr6__and_ISt6__not_ISt15__is_tuple_likeIT_EESt21is_move_constructibleIS7_ESt18is_move_assignableIS7_EEE5valueEvE4typeERS7_SG_ = comdat any

$_ZNSt12__shared_ptrIN4node9inspector13WorkerManagerELN9__gnu_cxx12_Lock_policyE2EEC2ERKS5_ = comdat any

$_ZSt11make_uniqueIN4node9inspector21ParentInspectorHandleEJRmRKNSt7__cxx1112basic_stringIcSt11char_traitsIcESaIcEEERSt10shared_ptrINS1_16MainThreadHandleEERbSB_EENSt8__detail9_MakeUniqIT_E15__single_objectEDpOT0_ = comdat any

$_ZNSt10unique_ptrIN4node9inspector21ParentInspectorHandleESt14default_deleteIS2_EEC2IS4_vEEPS2_ = comdat any

$_ZNSt15__uniq_ptr_dataIN4node9inspector21ParentInspectorHandleESt14default_deleteIS2_ELb1ELb1EECI2St15__uniq_ptr_implIS2_S4_EEPS2_ = comdat any

$_ZNSt15__uniq_ptr_implIN4node9inspector21ParentInspectorHandleESt14default_deleteIS2_EEC2EPS2_ = comdat any

$_ZNSt15__uniq_ptr_dataIN4node9inspector13WorkerManagerESt14default_deleteIS2_ELb1ELb1EEC2Ev = comdat any

$_ZNSt15__uniq_ptr_implIN4node9inspector13WorkerManagerESt14default_deleteIS2_EEC2Ev = comdat any

$_ZNSt5tupleIJPN4node9inspector13WorkerManagerESt14default_deleteIS2_EEEC2ILb1ETnNSt9enable_ifIXclsr17_TupleConstraintsIXT_ES3_S5_EE37__is_implicitly_default_constructibleEEbE4typeELb1EEEv = comdat any

$_ZNSt11_Tuple_implILm0EJPN4node9inspector13WorkerManagerESt14default_deleteIS2_EEEC2Ev = comdat any

$_ZNSt11_Tuple_implILm1EJSt14default_deleteIN4node9inspector13WorkerManagerEEEEC2Ev = comdat any

$_ZNSt10_Head_baseILm0EPN4node9inspector13WorkerManagerELb0EEC2Ev = comdat any

$_ZNSt10_Head_baseILm1ESt14default_deleteIN4node9inspector13WorkerManagerEELb1EEC2Ev = comdat any

$_ZNKSt10unique_ptrIN4node9inspector11InspectorIoESt14default_deleteIS2_EEcvbEv = comdat any

$_ZNKSt10unique_ptrIN4node9inspector11InspectorIoESt14default_deleteIS2_EE3getEv = comdat any

$_ZNKSt15__uniq_ptr_implIN4node9inspector11InspectorIoESt14default_deleteIS2_EE6_M_ptrEv = comdat any

$_ZSt3getILm0EJPN4node9inspector11InspectorIoESt14default_deleteIS2_EEERKNSt13tuple_elementIXT_ESt5tupleIJDpT0_EEE4typeERKSA_ = comdat any

$_ZSt12__get_helperILm0EPN4node9inspector11InspectorIoEJSt14default_deleteIS2_EEERKT0_RKSt11_Tuple_implIXT_EJS6_DpT1_EE = comdat any

$_ZNSt11_Tuple_implILm0EJPN4node9inspector11InspectorIoESt14default_deleteIS2_EEE7_M_headERKS6_ = comdat any

$_ZNSt10_Head_baseILm0EPN4node9inspector11InspectorIoELb0EE7_M_headERKS4_ = comdat any

$_ZN4node16LibuvMutexTraits10mutex_lockEP15pthread_mutex_t = comdat any

$_ZN4node16LibuvMutexTraits12mutex_unlockEP15pthread_mutex_t = comdat any

$_ZNKSt19__shared_ptr_accessIN4node18EnvironmentOptionsELN9__gnu_cxx12_Lock_policyE2ELb0ELb0EE6_M_getEv = comdat any

$_ZNKSt12__shared_ptrIN4node18EnvironmentOptionsELN9__gnu_cxx12_Lock_policyE2EE3getEv = comdat any

$_ZN4node16LibuvMutexTraits10mutex_initEP15pthread_mutex_t = comdat any

$_ZN4node16LibuvMutexTraits13mutex_destroyEP15pthread_mutex_t = comdat any

$_ZNSt10unique_ptrIN4node9inspector21ParentInspectorHandleESt14default_deleteIS2_EE11get_deleterEv = comdat any

$_ZNSt10unique_ptrIN4node9inspector24InspectorSessionDelegateESt14default_deleteIS2_EE11get_deleterEv = comdat any

$_ZNKSt14default_deleteIN4node9inspector24InspectorSessionDelegateEEclEPS2_ = comdat any

$_ZNSt15__uniq_ptr_implIN4node9inspector24InspectorSessionDelegateESt14default_deleteIS2_EE10_M_deleterEv = comdat any

$_ZSt3getILm1EJPN4node9inspector24InspectorSessionDelegateESt14default_deleteIS2_EEERNSt13tuple_elementIXT_ESt5tupleIJDpT0_EEE4typeERSA_ = comdat any

$_ZSt12__get_helperILm1ESt14default_deleteIN4node9inspector24InspectorSessionDelegateEEJEERT0_RSt11_Tuple_implIXT_EJS5_DpT1_EE = comdat any

$_ZNSt11_Tuple_implILm1EJSt14default_deleteIN4node9inspector24InspectorSessionDelegateEEEE7_M_headERS5_ = comdat any

$_ZNSt10_Head_baseILm1ESt14default_deleteIN4node9inspector24InspectorSessionDelegateEELb1EE7_M_headERS5_ = comdat any

$_ZNSt10unique_ptrIN4node9inspector11InspectorIoESt14default_deleteIS2_EE11get_deleterEv = comdat any

$_ZNKSt12__shared_ptrIN4node15ExclusiveAccessINS0_8HostPortENS0_9MutexBaseINS0_16LibuvMutexTraitsEEEEELN9__gnu_cxx12_Lock_policyE2EEcvbEv = comdat any

$_ZNSt10shared_ptrIN4node9inspector19NodeInspectorClientEEC2ISaIvEJRPNS0_11EnvironmentERbEEESt20_Sp_alloc_shared_tagIT_EDpOT0_ = comdat any

$_ZNSt12__shared_ptrIN4node9inspector19NodeInspectorClientELN9__gnu_cxx12_Lock_policyE2EEC2ISaIvEJRPNS0_11EnvironmentERbEEESt20_Sp_alloc_shared_tagIT_EDpOT0_ = comdat any

$_ZNSt14__shared_countILN9__gnu_cxx12_Lock_policyE2EEC2IN4node9inspector19NodeInspectorClientESaIvEJRPNS4_11EnvironmentERbEEERPT_St20_Sp_alloc_shared_tagIT0_EDpOT1_ = comdat any

$_ZNSt12__shared_ptrIN4node9inspector19NodeInspectorClientELN9__gnu_cxx12_Lock_policyE2EE31_M_enable_shared_from_this_withIS2_S2_EENSt9enable_ifIXntsr15__has_esft_baseIT0_EE5valueEvE4typeEPT_ = comdat any

$_ZNSaISt23_Sp_counted_ptr_inplaceIN4node9inspector19NodeInspectorClientESaIvELN9__gnu_cxx12_Lock_policyE2EEEC2IvEERKSaIT_E = comdat any

$_ZSt18__allocate_guardedISaISt23_Sp_counted_ptr_inplaceIN4node9inspector19NodeInspectorClientESaIvELN9__gnu_cxx12_Lock_policyE2EEEESt15__allocated_ptrIT_ERSA_ = comdat any

$_ZNSt15__allocated_ptrISaISt23_Sp_counted_ptr_inplaceIN4node9inspector19NodeInspectorClientESaIvELN9__gnu_cxx12_Lock_policyE2EEEE3getEv = comdat any

$_ZNSt23_Sp_counted_ptr_inplaceIN4node9inspector19NodeInspectorClientESaIvELN9__gnu_cxx12_Lock_policyE2EEC2IJRPNS0_11EnvironmentERbEEES3_DpOT_ = comdat any

$_ZNSt15__allocated_ptrISaISt23_Sp_counted_ptr_inplaceIN4node9inspector19NodeInspectorClientESaIvELN9__gnu_cxx12_Lock_policyE2EEEEaSEDn = comdat any

$_ZNSt23_Sp_counted_ptr_inplaceIN4node9inspector19NodeInspectorClientESaIvELN9__gnu_cxx12_Lock_policyE2EE6_M_ptrEv = comdat any

$_ZNSt15__allocated_ptrISaISt23_Sp_counted_ptr_inplaceIN4node9inspector19NodeInspectorClientESaIvELN9__gnu_cxx12_Lock_policyE2EEEED2Ev = comdat any

$_ZNSaISt23_Sp_counted_ptr_inplaceIN4node9inspector19NodeInspectorClientESaIvELN9__gnu_cxx12_Lock_policyE2EEED2Ev = comdat any

$_ZNSt15__new_allocatorISt23_Sp_counted_ptr_inplaceIN4node9inspector19NodeInspectorClientESaIvELN9__gnu_cxx12_Lock_policyE2EEEC2Ev = comdat any

$_ZNSt16allocator_traitsISaISt23_Sp_counted_ptr_inplaceIN4node9inspector19NodeInspectorClientESaIvELN9__gnu_cxx12_Lock_policyE2EEEE8allocateERS8_m = comdat any

$_ZNSt15__allocated_ptrISaISt23_Sp_counted_ptr_inplaceIN4node9inspector19NodeInspectorClientESaIvELN9__gnu_cxx12_Lock_policyE2EEEEC2ERS8_PS7_ = comdat any

$_ZNSt15__new_allocatorISt23_Sp_counted_ptr_inplaceIN4node9inspector19NodeInspectorClientESaIvELN9__gnu_cxx12_Lock_policyE2EEE8allocateEmPKv = comdat any

$_ZNKSt15__new_allocatorISt23_Sp_counted_ptr_inplaceIN4node9inspector19NodeInspectorClientESaIvELN9__gnu_cxx12_Lock_policyE2EEE11_M_max_sizeEv = comdat any

$_ZSt12__to_addressISt23_Sp_counted_ptr_inplaceIN4node9inspector19NodeInspectorClientESaIvELN9__gnu_cxx12_Lock_policyE2EEEPT_S9_ = comdat any

$_ZNSt23_Sp_counted_ptr_inplaceIN4node9inspector19NodeInspectorClientESaIvELN9__gnu_cxx12_Lock_policyE2EE5_ImplC2ES3_ = comdat any

$_ZNSt16allocator_traitsISaIvEE9constructIN4node9inspector19NodeInspectorClientEJRPNS3_11EnvironmentERbEEEvRS0_PT_DpOT0_ = comdat any

$_ZNSt23_Sp_counted_ptr_inplaceIN4node9inspector19NodeInspectorClientESaIvELN9__gnu_cxx12_Lock_policyE2EED2Ev = comdat any

$_ZNSt23_Sp_counted_ptr_inplaceIN4node9inspector19NodeInspectorClientESaIvELN9__gnu_cxx12_Lock_policyE2EED0Ev = comdat any

$_ZNSt23_Sp_counted_ptr_inplaceIN4node9inspector19NodeInspectorClientESaIvELN9__gnu_cxx12_Lock_policyE2EE10_M_disposeEv = comdat any

$_ZNSt23_Sp_counted_ptr_inplaceIN4node9inspector19NodeInspectorClientESaIvELN9__gnu_cxx12_Lock_policyE2EE10_M_destroyEv = comdat any

$_ZNSt23_Sp_counted_ptr_inplaceIN4node9inspector19NodeInspectorClientESaIvELN9__gnu_cxx12_Lock_policyE2EE14_M_get_deleterERKSt9type_info = comdat any

$_ZSt10_ConstructIN4node9inspector19NodeInspectorClientEJRPNS0_11EnvironmentERbEEvPT_DpOT0_ = comdat any

$_ZN4node9inspector19NodeInspectorClientC2EPNS_11EnvironmentEb = comdat any

$_ZN12v8_inspector17V8InspectorClientC2Ev = comdat any

$_ZNSt10unique_ptrIN12v8_inspector11V8InspectorESt14default_deleteIS1_EEC2IS3_vEEv = comdat any

$_ZNSt13unordered_mapIPvN4node15TimerWrapHandleESt4hashIS0_ESt8equal_toIS0_ESaISt4pairIKS0_S2_EEEC2Ev = comdat any

$_ZNSt10shared_ptrIN4node9inspector19MainThreadInterfaceEEC2Ev = comdat any

$_ZNSt10shared_ptrIN4node9inspector13WorkerManagerEEC2Ev = comdat any

$_ZNSt10unique_ptrIN12v8_inspector11V8InspectorESt14default_deleteIS1_EEaSEOS4_ = comdat any

$_ZNSt10unique_ptrIN12v8_inspector11V8InspectorESt14default_deleteIS1_EED2Ev = comdat any

$_ZN4node11ContextInfoC2ERKNSt7__cxx1112basic_stringIcSt11char_traitsIcESaIcEEE = comdat any

$_ZN4node11ContextInfoD2Ev = comdat any

$_ZN4node9inspector19NodeInspectorClientD2Ev = comdat any

$_ZN4node9inspector19NodeInspectorClientD0Ev = comdat any

$_ZN4node9inspector19NodeInspectorClient21runMessageLoopOnPauseEi = comdat any

$_ZN12v8_inspector17V8InspectorClient36runMessageLoopOnInstrumentationPauseEi = comdat any

$_ZN4node9inspector19NodeInspectorClient22quitMessageLoopOnPauseEv = comdat any

$_ZN4node9inspector19NodeInspectorClient23runIfWaitingForDebuggerEi = comdat any

$_ZN12v8_inspector17V8InspectorClient11muteMetricsEi = comdat any

$_ZN12v8_inspector17V8InspectorClient13unmuteMetricsEi = comdat any

$_ZN12v8_inspector17V8InspectorClient16beginUserGestureEv = comdat any

$_ZN12v8_inspector17V8InspectorClient14endUserGestureEv = comdat any

$_ZN12v8_inspector17V8InspectorClient25serializeToWebDriverValueEN2v85LocalINS1_5ValueEEEi = comdat any

$_ZN12v8_inspector17V8InspectorClient13deepSerializeEN2v85LocalINS1_5ValueEEEiNS2_INS1_6ObjectEEE = comdat any

$_ZN12v8_inspector17V8InspectorClient12valueSubtypeEN2v85LocalINS1_5ValueEEE = comdat any

$_ZN12v8_inspector17V8InspectorClient26descriptionForValueSubtypeEN2v85LocalINS1_7ContextEEENS2_INS1_5ValueEEE = comdat any

$_ZN12v8_inspector17V8InspectorClient23isInspectableHeapObjectEN2v85LocalINS1_6ObjectEEE = comdat any

$_ZN4node9inspector19NodeInspectorClient27ensureDefaultContextInGroupEi = comdat any

$_ZN12v8_inspector17V8InspectorClient29beginEnsureAllContextsInGroupEi = comdat any

$_ZN12v8_inspector17V8InspectorClient27endEnsureAllContextsInGroupEi = comdat any

$_ZN4node9inspector19NodeInspectorClient31installAdditionalCommandLineAPIEN2v85LocalINS2_7ContextEEENS3_INS2_6ObjectEEE = comdat any

$_ZN12v8_inspector17V8InspectorClient17consoleAPIMessageEiN2v87Isolate17MessageErrorLevelERKNS_10StringViewES6_jjPNS_12V8StackTraceE = comdat any

$_ZN12v8_inspector17V8InspectorClient10memoryInfoEPN2v87IsolateENS1_5LocalINS1_7ContextEEE = comdat any

$_ZN12v8_inspector17V8InspectorClient11consoleTimeERKNS_10StringViewE = comdat any

$_ZN12v8_inspector17V8InspectorClient14consoleTimeEndERKNS_10StringViewE = comdat any

$_ZN12v8_inspector17V8InspectorClient16consoleTimeStampERKNS_10StringViewE = comdat any

$_ZN12v8_inspector17V8InspectorClient12consoleClearEi = comdat any

$_ZN4node9inspector19NodeInspectorClient13currentTimeMSEv = comdat any

$_ZN4node9inspector19NodeInspectorClient19startRepeatingTimerEdPFvPvES2_ = comdat any

$_ZN4node9inspector19NodeInspectorClient11cancelTimerEPv = comdat any

$_ZN12v8_inspector17V8InspectorClient17canExecuteScriptsEi = comdat any

$_ZN4node9inspector19NodeInspectorClient29maxAsyncCallStackDepthChangedEi = comdat any

$_ZN4node9inspector19NodeInspectorClient17resourceNameToUrlERKN12v8_inspector10StringViewE = comdat any

$_ZN12v8_inspector17V8InspectorClient16generateUniqueIdEv = comdat any

$_ZN12v8_inspector17V8InspectorClient13dispatchErrorEN2v85LocalINS1_7ContextEEENS2_INS1_7MessageEEENS2_INS1_5ValueEEE = comdat any

$_ZN12v8_inspector17V8InspectorClientD2Ev = comdat any

$_ZN12v8_inspector17V8InspectorClientD0Ev = comdat any

$_ZN12v8_inspector17V8InspectorClient21runMessageLoopOnPauseEi = comdat any

$_ZN12v8_inspector17V8InspectorClient22quitMessageLoopOnPauseEv = comdat any

$_ZN12v8_inspector17V8InspectorClient23runIfWaitingForDebuggerEi = comdat any

$_ZN12v8_inspector17V8InspectorClient27ensureDefaultContextInGroupEi = comdat any

$_ZN12v8_inspector17V8InspectorClient31installAdditionalCommandLineAPIEN2v85LocalINS1_7ContextEEENS2_INS1_6ObjectEEE = comdat any

$_ZN12v8_inspector17V8InspectorClient13currentTimeMSEv = comdat any

$_ZN12v8_inspector17V8InspectorClient19startRepeatingTimerEdPFvPvES1_ = comdat any

$_ZN12v8_inspector17V8InspectorClient11cancelTimerEPv = comdat any

$_ZN12v8_inspector17V8InspectorClient29maxAsyncCallStackDepthChangedEi = comdat any

$_ZN12v8_inspector17V8InspectorClient17resourceNameToUrlERKNS_10StringViewE = comdat any

$_ZNSt10unique_ptrIN12v8_inspector12StringBufferESt14default_deleteIS1_EEC2IS3_vEEDn = comdat any

$_ZNSt15__uniq_ptr_dataIN12v8_inspector11V8InspectorESt14default_deleteIS1_ELb1ELb1EEC2Ev = comdat any

$_ZNSt15__uniq_ptr_implIN12v8_inspector11V8InspectorESt14default_deleteIS1_EEC2Ev = comdat any

$_ZNSt5tupleIJPN12v8_inspector11V8InspectorESt14default_deleteIS1_EEEC2ILb1ETnNSt9enable_ifIXclsr17_TupleConstraintsIXT_ES2_S4_EE37__is_implicitly_default_constructibleEEbE4typeELb1EEEv = comdat any

$_ZNSt11_Tuple_implILm0EJPN12v8_inspector11V8InspectorESt14default_deleteIS1_EEEC2Ev = comdat any

$_ZNSt11_Tuple_implILm1EJSt14default_deleteIN12v8_inspector11V8InspectorEEEEC2Ev = comdat any

$_ZNSt10_Head_baseILm0EPN12v8_inspector11V8InspectorELb0EEC2Ev = comdat any

$_ZNSt10_Head_baseILm1ESt14default_deleteIN12v8_inspector11V8InspectorEELb1EEC2Ev = comdat any

$_ZNSt10_HashtableIPvSt4pairIKS0_N4node15TimerWrapHandleEESaIS5_ENSt8__detail10_Select1stESt8equal_toIS0_ESt4hashIS0_ENS7_18_Mod_range_hashingENS7_20_Default_ranged_hashENS7_20_Prime_rehash_policyENS7_17_Hashtable_traitsILb0ELb0ELb1EEEEC2Ev = comdat any

$_ZNSt8__detail15_Hashtable_baseIPvSt4pairIKS1_N4node15TimerWrapHandleEENS_10_Select1stESt8equal_toIS1_ESt4hashIS1_ENS_18_Mod_range_hashingENS_20_Default_ranged_hashENS_17_Hashtable_traitsILb0ELb0ELb1EEEEC2Ev = comdat any

$_ZNSt8__detail16_Hashtable_allocISaINS_10_Hash_nodeISt4pairIKPvN4node15TimerWrapHandleEELb0EEEEEC2Ev = comdat any

$_ZNSt8__detail15_Hash_code_baseIPvSt4pairIKS1_N4node15TimerWrapHandleEENS_10_Select1stESt4hashIS1_ENS_18_Mod_range_hashingENS_20_Default_ranged_hashELb0EEC2Ev = comdat any

$_ZNSt8__detail21_Hashtable_ebo_helperILi0ESt8equal_toIPvELb1EEC2Ev = comdat any

$_ZNSt8__detail21_Hashtable_ebo_helperILi1ESt4hashIPvELb1EEC2Ev = comdat any

$_ZNSt8__detail21_Hashtable_ebo_helperILi0ESaINS_10_Hash_nodeISt4pairIKPvN4node15TimerWrapHandleEELb0EEEELb1EEC2Ev = comdat any

$_ZNSaINSt8__detail10_Hash_nodeISt4pairIKPvN4node15TimerWrapHandleEELb0EEEEC2Ev = comdat any

$_ZNSt15__new_allocatorINSt8__detail10_Hash_nodeISt4pairIKPvN4node15TimerWrapHandleEELb0EEEEC2Ev = comdat any

$_ZNSt12__shared_ptrIN4node9inspector19MainThreadInterfaceELN9__gnu_cxx12_Lock_policyE2EEC2Ev = comdat any

$_ZNSt15__uniq_ptr_dataIN12v8_inspector11V8InspectorESt14default_deleteIS1_ELb1ELb1EEaSEOS4_ = comdat any

$_ZNSt15__uniq_ptr_implIN12v8_inspector11V8InspectorESt14default_deleteIS1_EEaSEOS4_ = comdat any

$_ZNSt15__uniq_ptr_implIN12v8_inspector11V8InspectorESt14default_deleteIS1_EE5resetEPS1_ = comdat any

$_ZNSt15__uniq_ptr_implIN12v8_inspector11V8InspectorESt14default_deleteIS1_EE7releaseEv = comdat any

$_ZNSt15__uniq_ptr_implIN12v8_inspector11V8InspectorESt14default_deleteIS1_EE10_M_deleterEv = comdat any

$_ZNSt15__uniq_ptr_implIN12v8_inspector11V8InspectorESt14default_deleteIS1_EE6_M_ptrEv = comdat any

$_ZNKSt14default_deleteIN12v8_inspector11V8InspectorEEclEPS1_ = comdat any

$_ZSt3getILm0EJPN12v8_inspector11V8InspectorESt14default_deleteIS1_EEERNSt13tuple_elementIXT_ESt5tupleIJDpT0_EEE4typeERS9_ = comdat any

$_ZSt12__get_helperILm0EPN12v8_inspector11V8InspectorEJSt14default_deleteIS1_EEERT0_RSt11_Tuple_implIXT_EJS5_DpT1_EE = comdat any

$_ZNSt11_Tuple_implILm0EJPN12v8_inspector11V8InspectorESt14default_deleteIS1_EEE7_M_headERS5_ = comdat any

$_ZNSt10_Head_baseILm0EPN12v8_inspector11V8InspectorELb0EE7_M_headERS3_ = comdat any

$_ZSt3getILm1EJPN12v8_inspector11V8InspectorESt14default_deleteIS1_EEERNSt13tuple_elementIXT_ESt5tupleIJDpT0_EEE4typeERS9_ = comdat any

$_ZSt12__get_helperILm1ESt14default_deleteIN12v8_inspector11V8InspectorEEJEERT0_RSt11_Tuple_implIXT_EJS4_DpT1_EE = comdat any

$_ZNSt11_Tuple_implILm1EJSt14default_deleteIN12v8_inspector11V8InspectorEEEE7_M_headERS4_ = comdat any

$_ZNSt10_Head_baseILm1ESt14default_deleteIN12v8_inspector11V8InspectorEELb1EE7_M_headERS4_ = comdat any

$_ZNSt10unique_ptrIN12v8_inspector11V8InspectorESt14default_deleteIS1_EE11get_deleterEv = comdat any

$_ZNK4node11Environment9thread_idEv = comdat any

$_ZNSt13unordered_mapIPvN4node15TimerWrapHandleESt4hashIS0_ESt8equal_toIS0_ESaISt4pairIKS0_S2_EEED2Ev = comdat any

$_ZNSt10_HashtableIPvSt4pairIKS0_N4node15TimerWrapHandleEESaIS5_ENSt8__detail10_Select1stESt8equal_toIS0_ESt4hashIS0_ENS7_18_Mod_range_hashingENS7_20_Default_ranged_hashENS7_20_Prime_rehash_policyENS7_17_Hashtable_traitsILb0ELb0ELb1EEEED2Ev = comdat any

$_ZNSt10_HashtableIPvSt4pairIKS0_N4node15TimerWrapHandleEESaIS5_ENSt8__detail10_Select1stESt8equal_toIS0_ESt4hashIS0_ENS7_18_Mod_range_hashingENS7_20_Default_ranged_hashENS7_20_Prime_rehash_policyENS7_17_Hashtable_traitsILb0ELb0ELb1EEEE5clearEv = comdat any

$_ZNSt10_HashtableIPvSt4pairIKS0_N4node15TimerWrapHandleEESaIS5_ENSt8__detail10_Select1stESt8equal_toIS0_ESt4hashIS0_ENS7_18_Mod_range_hashingENS7_20_Default_ranged_hashENS7_20_Prime_rehash_policyENS7_17_Hashtable_traitsILb0ELb0ELb1EEEE21_M_deallocate_bucketsEv = comdat any

$_ZNSt8__detail16_Hashtable_allocISaINS_10_Hash_nodeISt4pairIKPvN4node15TimerWrapHandleEELb0EEEEED2Ev = comdat any

$_ZNSt8__detail16_Hashtable_allocISaINS_10_Hash_nodeISt4pairIKPvN4node15TimerWrapHandleEELb0EEEEE19_M_deallocate_nodesEPS8_ = comdat any

$_ZNKSt10_HashtableIPvSt4pairIKS0_N4node15TimerWrapHandleEESaIS5_ENSt8__detail10_Select1stESt8equal_toIS0_ESt4hashIS0_ENS7_18_Mod_range_hashingENS7_20_Default_ranged_hashENS7_20_Prime_rehash_policyENS7_17_Hashtable_traitsILb0ELb0ELb1EEEE8_M_beginEv = comdat any

$_ZNKSt8__detail10_Hash_nodeISt4pairIKPvN4node15TimerWrapHandleEELb0EE7_M_nextEv = comdat any

$_ZNSt8__detail16_Hashtable_allocISaINS_10_Hash_nodeISt4pairIKPvN4node15TimerWrapHandleEELb0EEEEE18_M_deallocate_nodeEPS8_ = comdat any

$_ZNSt16allocator_traitsISaINSt8__detail10_Hash_nodeISt4pairIKPvN4node15TimerWrapHandleEELb0EEEEE7destroyIS7_EEvRS9_PT_ = comdat any

$_ZNSt8__detail16_Hashtable_allocISaINS_10_Hash_nodeISt4pairIKPvN4node15TimerWrapHandleEELb0EEEEE17_M_node_allocatorEv = comdat any

$_ZNSt8__detail21_Hash_node_value_baseISt4pairIKPvN4node15TimerWrapHandleEEE9_M_valptrEv = comdat any

$_ZNSt8__detail16_Hashtable_allocISaINS_10_Hash_nodeISt4pairIKPvN4node15TimerWrapHandleEELb0EEEEE22_M_deallocate_node_ptrEPS8_ = comdat any

$_ZNSt15__new_allocatorINSt8__detail10_Hash_nodeISt4pairIKPvN4node15TimerWrapHandleEELb0EEEE7destroyIS7_EEvPT_ = comdat any

$_ZNSt4pairIKPvN4node15TimerWrapHandleEED2Ev = comdat any

$_ZN4node15TimerWrapHandleD2Ev = comdat any

$_ZNSt8__detail21_Hashtable_ebo_helperILi0ESaINS_10_Hash_nodeISt4pairIKPvN4node15TimerWrapHandleEELb0EEEELb1EE6_M_getEv = comdat any

$_ZN9__gnu_cxx16__aligned_bufferISt4pairIKPvN4node15TimerWrapHandleEEE6_M_ptrEv = comdat any

$_ZN9__gnu_cxx16__aligned_bufferISt4pairIKPvN4node15TimerWrapHandleEEE7_M_addrEv = comdat any

$_ZNSt19__ptr_traits_ptr_toIPNSt8__detail10_Hash_nodeISt4pairIKPvN4node15TimerWrapHandleEELb0EEES8_Lb0EE10pointer_toERS8_ = comdat any

$_ZNSt16allocator_traitsISaINSt8__detail10_Hash_nodeISt4pairIKPvN4node15TimerWrapHandleEELb0EEEEE10deallocateERS9_PS8_m = comdat any

$_ZNSt15__new_allocatorINSt8__detail10_Hash_nodeISt4pairIKPvN4node15TimerWrapHandleEELb0EEEE10deallocateEPS8_m = comdat any

$_ZNSt10_HashtableIPvSt4pairIKS0_N4node15TimerWrapHandleEESaIS5_ENSt8__detail10_Select1stESt8equal_toIS0_ESt4hashIS0_ENS7_18_Mod_range_hashingENS7_20_Default_ranged_hashENS7_20_Prime_rehash_policyENS7_17_Hashtable_traitsILb0ELb0ELb1EEEE21_M_deallocate_bucketsEPPNS7_15_Hash_node_baseEm = comdat any

$_ZNKSt10_HashtableIPvSt4pairIKS0_N4node15TimerWrapHandleEESaIS5_ENSt8__detail10_Select1stESt8equal_toIS0_ESt4hashIS0_ENS7_18_Mod_range_hashingENS7_20_Default_ranged_hashENS7_20_Prime_rehash_policyENS7_17_Hashtable_traitsILb0ELb0ELb1EEEE21_M_uses_single_bucketEPPNS7_15_Hash_node_baseE = comdat any

$_ZNSt8__detail16_Hashtable_allocISaINS_10_Hash_nodeISt4pairIKPvN4node15TimerWrapHandleEELb0EEEEE21_M_deallocate_bucketsEPPNS_15_Hash_node_baseEm = comdat any

$_ZNSaIPNSt8__detail15_Hash_node_baseEEC2INS_10_Hash_nodeISt4pairIKPvN4node15TimerWrapHandleEELb0EEEEERKSaIT_E = comdat any

$_ZNSt8__detail21_Hashtable_ebo_helperILi0ESaINS_10_Hash_nodeISt4pairIKPvN4node15TimerWrapHandleEELb0EEEELb1EED2Ev = comdat any

$_ZNSaINSt8__detail10_Hash_nodeISt4pairIKPvN4node15TimerWrapHandleEELb0EEEED2Ev = comdat any

$_ZNSt15__new_allocatorINSt8__detail10_Hash_nodeISt4pairIKPvN4node15TimerWrapHandleEELb0EEEED2Ev = comdat any

$_ZNSt10unique_ptrIN12v8_inspector14WebDriverValueESt14default_deleteIS1_EEC2IS3_vEEDn = comdat any

$_ZNSt15__uniq_ptr_dataIN12v8_inspector14WebDriverValueESt14default_deleteIS1_ELb1ELb1EEC2Ev = comdat any

$_ZNSt15__uniq_ptr_implIN12v8_inspector14WebDriverValueESt14default_deleteIS1_EEC2Ev = comdat any

$_ZNSt5tupleIJPN12v8_inspector14WebDriverValueESt14default_deleteIS1_EEEC2ILb1ETnNSt9enable_ifIXclsr17_TupleConstraintsIXT_ES2_S4_EE37__is_implicitly_default_constructibleEEbE4typeELb1EEEv = comdat any

$_ZNSt11_Tuple_implILm0EJPN12v8_inspector14WebDriverValueESt14default_deleteIS1_EEEC2Ev = comdat any

$_ZNSt11_Tuple_implILm1EJSt14default_deleteIN12v8_inspector14WebDriverValueEEEEC2Ev = comdat any

$_ZNSt10_Head_baseILm0EPN12v8_inspector14WebDriverValueELb0EEC2Ev = comdat any

$_ZNSt10_Head_baseILm1ESt14default_deleteIN12v8_inspector14WebDriverValueEELb1EEC2Ev = comdat any

$_ZNSt10unique_ptrIN12v8_inspector23DeepSerializationResultESt14default_deleteIS1_EEC2IS3_vEEDn = comdat any

$_ZNSt15__uniq_ptr_dataIN12v8_inspector23DeepSerializationResultESt14default_deleteIS1_ELb1ELb1EEC2Ev = comdat any

$_ZNSt15__uniq_ptr_implIN12v8_inspector23DeepSerializationResultESt14default_deleteIS1_EEC2Ev = comdat any

$_ZNSt5tupleIJPN12v8_inspector23DeepSerializationResultESt14default_deleteIS1_EEEC2ILb1ETnNSt9enable_ifIXclsr17_TupleConstraintsIXT_ES2_S4_EE37__is_implicitly_default_constructibleEEbE4typeELb1EEEv = comdat any

$_ZNSt11_Tuple_implILm0EJPN12v8_inspector23DeepSerializationResultESt14default_deleteIS1_EEEC2Ev = comdat any

$_ZNSt11_Tuple_implILm1EJSt14default_deleteIN12v8_inspector23DeepSerializationResultEEEEC2Ev = comdat any

$_ZNSt10_Head_baseILm0EPN12v8_inspector23DeepSerializationResultELb0EEC2Ev = comdat any

$_ZNSt10_Head_baseILm1ESt14default_deleteIN12v8_inspector23DeepSerializationResultEELb1EEC2Ev = comdat any

$_ZNK4node11Environment37inspector_console_extension_installerEv = comdat any

$_ZN4node9arraysizeIN2v85LocalINS1_5ValueEEELm1EEEmRAT0__KT_ = comdat any

$_ZNK4node11IsolateData8platformEv = comdat any

$_ZNSt13unordered_mapIPvN4node15TimerWrapHandleESt4hashIS0_ESt8equal_toIS0_ESaISt4pairIKS0_S2_EEE7emplaceIJRKSt21piecewise_construct_tSt5tupleIJS0_EESG_IJPNS1_11EnvironmentEZNS1_9inspector19NodeInspectorClient19startRepeatingTimerEdPFvS0_ES0_EUlvE_EEEEES7_INSt8__detail14_Node_iteratorIS9_Lb0ELb0EEEbEDpOT_ = comdat any

$_ZSt10make_tupleIJRPvEESt5tupleIJDpNSt25__strip_reference_wrapperINSt5decayIT_E4typeEE6__typeEEEDpOS5_ = comdat any

$_ZSt10make_tupleIJRPN4node11EnvironmentEZNS0_9inspector19NodeInspectorClient19startRepeatingTimerEdPFvPvES6_EUlvE_EESt5tupleIJDpNSt25__strip_reference_wrapperINSt5decayIT_E4typeEE6__typeEEEDpOSD_ = comdat any

$_ZNKSt8__detail14_Node_iteratorISt4pairIKPvN4node15TimerWrapHandleEELb0ELb0EEptEv = comdat any

$_ZNSt10_HashtableIPvSt4pairIKS0_N4node15TimerWrapHandleEESaIS5_ENSt8__detail10_Select1stESt8equal_toIS0_ESt4hashIS0_ENS7_18_Mod_range_hashingENS7_20_Default_ranged_hashENS7_20_Prime_rehash_policyENS7_17_Hashtable_traitsILb0ELb0ELb1EEEE7emplaceIJRKSt21piecewise_construct_tSt5tupleIJS0_EESN_IJPNS3_11EnvironmentEZNS3_9inspector19NodeInspectorClient19startRepeatingTimerEdPFvS0_ES0_EUlvE_EEEEES1_INS7_14_Node_iteratorIS5_Lb0ELb0EEEbEDpOT_ = comdat any

$_ZNSt10_HashtableIPvSt4pairIKS0_N4node15TimerWrapHandleEESaIS5_ENSt8__detail10_Select1stESt8equal_toIS0_ESt4hashIS0_ENS7_18_Mod_range_hashingENS7_20_Default_ranged_hashENS7_20_Prime_rehash_policyENS7_17_Hashtable_traitsILb0ELb0ELb1EEEE10_M_emplaceIJRKSt21piecewise_construct_tSt5tupleIJS0_EESN_IJPNS3_11EnvironmentEZNS3_9inspector19NodeInspectorClient19startRepeatingTimerEdPFvS0_ES0_EUlvE_EEEEES1_INS7_14_Node_iteratorIS5_Lb0ELb0EEEbESt17integral_constantIbLb1EEDpOT_ = comdat any

$_ZNSt10_HashtableIPvSt4pairIKS0_N4node15TimerWrapHandleEESaIS5_ENSt8__detail10_Select1stESt8equal_toIS0_ESt4hashIS0_ENS7_18_Mod_range_hashingENS7_20_Default_ranged_hashENS7_20_Prime_rehash_policyENS7_17_Hashtable_traitsILb0ELb0ELb1EEEE12_Scoped_nodeC2IJRKSt21piecewise_construct_tSt5tupleIJS0_EESO_IJPNS3_11EnvironmentEZNS3_9inspector19NodeInspectorClient19startRepeatingTimerEdPFvS0_ES0_EUlvE_EEEEEPNS7_16_Hashtable_allocISaINS7_10_Hash_nodeIS5_Lb0EEEEEEDpOT_ = comdat any

$_ZNKSt8__detail10_Select1stclIRSt4pairIKPvN4node15TimerWrapHandleEEEEONS0_10__1st_typeIT_E4typeEOSA_ = comdat any

$_ZNSt8__detail21_Hash_node_value_baseISt4pairIKPvN4node15TimerWrapHandleEEE4_M_vEv = comdat any

$_ZNKSt10_HashtableIPvSt4pairIKS0_N4node15TimerWrapHandleEESaIS5_ENSt8__detail10_Select1stESt8equal_toIS0_ESt4hashIS0_ENS7_18_Mod_range_hashingENS7_20_Default_ranged_hashENS7_20_Prime_rehash_policyENS7_17_Hashtable_traitsILb0ELb0ELb1EEEE4sizeEv = comdat any

$_ZNSt10_HashtableIPvSt4pairIKS0_N4node15TimerWrapHandleEESaIS5_ENSt8__detail10_Select1stESt8equal_toIS0_ESt4hashIS0_ENS7_18_Mod_range_hashingENS7_20_Default_ranged_hashENS7_20_Prime_rehash_policyENS7_17_Hashtable_traitsILb0ELb0ELb1EEEE22__small_size_thresholdEv = comdat any

$_ZNSt10_HashtableIPvSt4pairIKS0_N4node15TimerWrapHandleEESaIS5_ENSt8__detail10_Select1stESt8equal_toIS0_ESt4hashIS0_ENS7_18_Mod_range_hashingENS7_20_Default_ranged_hashENS7_20_Prime_rehash_policyENS7_17_Hashtable_traitsILb0ELb0ELb1EEEE5beginEv = comdat any

$_ZNSt8__detailneERKNS_19_Node_iterator_baseISt4pairIKPvN4node15TimerWrapHandleEELb0EEES9_ = comdat any

$_ZNSt10_HashtableIPvSt4pairIKS0_N4node15TimerWrapHandleEESaIS5_ENSt8__detail10_Select1stESt8equal_toIS0_ESt4hashIS0_ENS7_18_Mod_range_hashingENS7_20_Default_ranged_hashENS7_20_Prime_rehash_policyENS7_17_Hashtable_traitsILb0ELb0ELb1EEEE3endEv = comdat any

$_ZNKSt8__detail15_Hashtable_baseIPvSt4pairIKS1_N4node15TimerWrapHandleEENS_10_Select1stESt8equal_toIS1_ESt4hashIS1_ENS_18_Mod_range_hashingENS_20_Default_ranged_hashENS_17_Hashtable_traitsILb0ELb0ELb1EEEE13_M_key_equalsERS3_RKNS_16_Hash_node_valueIS6_Lb0EEE = comdat any

$_ZNSt4pairINSt8__detail14_Node_iteratorIS_IKPvN4node15TimerWrapHandleEELb0ELb0EEEbEC2IRS7_bTnNSt9enable_ifIXaaclsr5_PCCPE22_MoveConstructiblePairIT_T0_EEclsr5_PCCPE30_ImplicitlyMoveConvertiblePairISC_SD_EEEbE4typeELb1EEEOSC_OSD_ = comdat any

$_ZNSt8__detail14_Node_iteratorISt4pairIKPvN4node15TimerWrapHandleEELb0ELb0EEppEv = comdat any

$_ZNKSt8__detail15_Hash_code_baseIPvSt4pairIKS1_N4node15TimerWrapHandleEENS_10_Select1stESt4hashIS1_ENS_18_Mod_range_hashingENS_20_Default_ranged_hashELb0EE12_M_hash_codeERS3_ = comdat any

$_ZNKSt10_HashtableIPvSt4pairIKS0_N4node15TimerWrapHandleEESaIS5_ENSt8__detail10_Select1stESt8equal_toIS0_ESt4hashIS0_ENS7_18_Mod_range_hashingENS7_20_Default_ranged_hashENS7_20_Prime_rehash_policyENS7_17_Hashtable_traitsILb0ELb0ELb1EEEE15_M_bucket_indexEm = comdat any

$_ZNKSt10_HashtableIPvSt4pairIKS0_N4node15TimerWrapHandleEESaIS5_ENSt8__detail10_Select1stESt8equal_toIS0_ESt4hashIS0_ENS7_18_Mod_range_hashingENS7_20_Default_ranged_hashENS7_20_Prime_rehash_policyENS7_17_Hashtable_traitsILb0ELb0ELb1EEEE12_M_find_nodeEmRS2_m = comdat any

$_ZNSt8__detail14_Node_iteratorISt4pairIKPvN4node15TimerWrapHandleEELb0ELb0EEC2EPNS_10_Hash_nodeIS6_Lb0EEE = comdat any

$_ZNSt4pairINSt8__detail14_Node_iteratorIS_IKPvN4node15TimerWrapHandleEELb0ELb0EEEbEC2IS7_bTnNSt9enable_ifIXaaclsr5_PCCPE22_MoveConstructiblePairIT_T0_EEclsr5_PCCPE30_ImplicitlyMoveConvertiblePairISB_SC_EEEbE4typeELb1EEEOSB_OSC_ = comdat any

$_ZNSt10_HashtableIPvSt4pairIKS0_N4node15TimerWrapHandleEESaIS5_ENSt8__detail10_Select1stESt8equal_toIS0_ESt4hashIS0_ENS7_18_Mod_range_hashingENS7_20_Default_ranged_hashENS7_20_Prime_rehash_policyENS7_17_Hashtable_traitsILb0ELb0ELb1EEEE21_M_insert_unique_nodeEmmPNS7_10_Hash_nodeIS5_Lb0EEEm = comdat any

$_ZNSt10_HashtableIPvSt4pairIKS0_N4node15TimerWrapHandleEESaIS5_ENSt8__detail10_Select1stESt8equal_toIS0_ESt4hashIS0_ENS7_18_Mod_range_hashingENS7_20_Default_ranged_hashENS7_20_Prime_rehash_policyENS7_17_Hashtable_traitsILb0ELb0ELb1EEEE12_Scoped_nodeD2Ev = comdat any

$_ZNSt8__detail16_Hashtable_allocISaINS_10_Hash_nodeISt4pairIKPvN4node15TimerWrapHandleEELb0EEEEE16_M_allocate_nodeIJRKSt21piecewise_construct_tSt5tupleIJS3_EESF_IJPNS5_11EnvironmentEZNS5_9inspector19NodeInspectorClient19startRepeatingTimerEdPFvS3_ES3_EUlvE_EEEEEPS8_DpOT_ = comdat any

$_ZNSt16allocator_traitsISaINSt8__detail10_Hash_nodeISt4pairIKPvN4node15TimerWrapHandleEELb0EEEEE8allocateERS9_m = comdat any

$_ZSt12__to_addressINSt8__detail10_Hash_nodeISt4pairIKPvN4node15TimerWrapHandleEELb0EEEEPT_SA_ = comdat any

$_ZNSt8__detail10_Hash_nodeISt4pairIKPvN4node15TimerWrapHandleEELb0EEC2Ev = comdat any

$_ZNSt16allocator_traitsISaINSt8__detail10_Hash_nodeISt4pairIKPvN4node15TimerWrapHandleEELb0EEEEE9constructIS7_JRKSt21piecewise_construct_tSt5tupleIJS3_EESF_IJPNS5_11EnvironmentEZNS5_9inspector19NodeInspectorClient19startRepeatingTimerEdPFvS3_ES3_EUlvE_EEEEEvRS9_PT_DpOT0_ = comdat any

$_ZNSt15__new_allocatorINSt8__detail10_Hash_nodeISt4pairIKPvN4node15TimerWrapHandleEELb0EEEE8allocateEmPKv = comdat any

$_ZNKSt15__new_allocatorINSt8__detail10_Hash_nodeISt4pairIKPvN4node15TimerWrapHandleEELb0EEEE11_M_max_sizeEv = comdat any

$_ZNSt15__new_allocatorINSt8__detail10_Hash_nodeISt4pairIKPvN4node15TimerWrapHandleEELb0EEEE9constructIS7_JRKSt21piecewise_construct_tSt5tupleIJS3_EESE_IJPNS5_11EnvironmentEZNS5_9inspector19NodeInspectorClient19startRepeatingTimerEdPFvS3_ES3_EUlvE_EEEEEvPT_DpOT0_ = comdat any

$_ZNSt5tupleIJPvEEC2EOS1_ = comdat any

$_ZNSt5tupleIJPN4node11EnvironmentEZNS0_9inspector19NodeInspectorClient19startRepeatingTimerEdPFvPvES5_EUlvE_EEC2EOS9_ = comdat any

$_ZNSt4pairIKPvN4node15TimerWrapHandleEEC2IJS0_EJPNS2_11EnvironmentEZNS2_9inspector19NodeInspectorClient19startRepeatingTimerEdPFvS0_ES0_EUlvE_EEESt21piecewise_construct_tSt5tupleIJDpT_EESE_IJDpT0_EE = comdat any

$_ZNSt11_Tuple_implILm0EJPvEEC2EOS1_ = comdat any

$_ZNSt11_Tuple_implILm0EJPN4node11EnvironmentEZNS0_9inspector19NodeInspectorClient19startRepeatingTimerEdPFvPvES5_EUlvE_EEC2EOS9_ = comdat any

$_ZNSt11_Tuple_implILm1EJZN4node9inspector19NodeInspectorClient19startRepeatingTimerEdPFvPvES3_EUlvE_EEC2EOS7_ = comdat any

$_ZNSt4pairIKPvN4node15TimerWrapHandleEEC2IJS0_EJLm0EEJPNS2_11EnvironmentEZNS2_9inspector19NodeInspectorClient19startRepeatingTimerEdPFvS0_ES0_EUlvE_EJLm0ELm1EEEERSt5tupleIJDpT_EERSD_IJDpT1_EESt12_Index_tupleIJXspT0_EEESM_IJXspT2_EEE = comdat any

$_ZSt3getILm0EJPvEERNSt13tuple_elementIXT_ESt5tupleIJDpT0_EEE4typeERS5_ = comdat any

$_ZSt3getILm0EJPN4node11EnvironmentEZNS0_9inspector19NodeInspectorClient19startRepeatingTimerEdPFvPvES5_EUlvE_EERNSt13tuple_elementIXT_ESt5tupleIJDpT0_EEE4typeERSD_ = comdat any

$_ZSt3getILm1EJPN4node11EnvironmentEZNS0_9inspector19NodeInspectorClient19startRepeatingTimerEdPFvPvES5_EUlvE_EERNSt13tuple_elementIXT_ESt5tupleIJDpT0_EEE4typeERSD_ = comdat any

$_ZN4node15TimerWrapHandleC2IJZNS_9inspector19NodeInspectorClient19startRepeatingTimerEdPFvPvES4_EUlvE_EEEPNS_11EnvironmentEDpOT_ = comdat any

$_ZSt12__get_helperILm0EPvJEERT0_RSt11_Tuple_implIXT_EJS1_DpT1_EE = comdat any

$_ZNSt11_Tuple_implILm0EJPvEE7_M_headERS1_ = comdat any

$_ZNSt10_Head_baseILm0EPvLb0EE7_M_headERS1_ = comdat any

$_ZSt12__get_helperILm0EPN4node11EnvironmentEJZNS0_9inspector19NodeInspectorClient19startRepeatingTimerEdPFvPvES5_EUlvE_EERT0_RSt11_Tuple_implIXT_EJS9_DpT1_EE = comdat any

$_ZNSt11_Tuple_implILm0EJPN4node11EnvironmentEZNS0_9inspector19NodeInspectorClient19startRepeatingTimerEdPFvPvES5_EUlvE_EE7_M_headERS9_ = comdat any

$_ZNSt10_Head_baseILm0EPN4node11EnvironmentELb0EE7_M_headERS3_ = comdat any

$_ZSt12__get_helperILm1EZN4node9inspector19NodeInspectorClient19startRepeatingTimerEdPFvPvES3_EUlvE_JEERT0_RSt11_Tuple_implIXT_EJS7_DpT1_EE = comdat any

$_ZNSt11_Tuple_implILm1EJZN4node9inspector19NodeInspectorClient19startRepeatingTimerEdPFvPvES3_EUlvE_EE7_M_headERS7_ = comdat any

$_ZNSt10_Head_baseILm1EZN4node9inspector19NodeInspectorClient19startRepeatingTimerEdPFvPvES3_EUlvE_Lb0EE7_M_headERS7_ = comdat any

$_ZN4node14MemoryRetainerC2Ev = comdat any

$_ZN4node9TimerWrapC2IJZNS_9inspector19NodeInspectorClient19startRepeatingTimerEdPFvPvES4_EUlvE_EEEPNS_11EnvironmentEDpOT_ = comdat any

$_ZN4node14MemoryRetainerD2Ev = comdat any

$_ZN4node14MemoryRetainerD0Ev = comdat any

$_ZNK4node14MemoryRetainer13WrappedObjectEv = comdat any

$_ZNK4node14MemoryRetainer10IsRootNodeEv = comdat any

$_ZNK4node14MemoryRetainer15GetDetachednessEv = comdat any

$_ZNSt8functionIFvvEEC2IZN4node9inspector19NodeInspectorClient19startRepeatingTimerEdPFvPvES6_EUlvE_vEEOT_ = comdat any

$_ZN4node9TimerWrapD2Ev = comdat any

$_ZN4node9TimerWrapD0Ev = comdat any

$_ZNK4node9TimerWrap10MemoryInfoEPNS_13MemoryTrackerE = comdat any

$_ZNK4node9TimerWrap14MemoryInfoNameEv = comdat any

$_ZNK4node9TimerWrap8SelfSizeEv = comdat any

$_ZNSt14_Function_baseC2Ev = comdat any

$_ZNSt14_Function_base13_Base_managerIZN4node9inspector19NodeInspectorClient19startRepeatingTimerEdPFvPvES4_EUlvE_E21_M_not_empty_functionIS7_EEbRKT_ = comdat any

$_ZNSt14_Function_base13_Base_managerIZN4node9inspector19NodeInspectorClient19startRepeatingTimerEdPFvPvES4_EUlvE_E15_M_init_functorIS7_EEvRSt9_Any_dataOT_ = comdat any

$_ZNSt17_Function_handlerIFvvEZN4node9inspector19NodeInspectorClient19startRepeatingTimerEdPFvPvES4_EUlvE_E9_M_invokeERKSt9_Any_data = comdat any

$_ZNSt17_Function_handlerIFvvEZN4node9inspector19NodeInspectorClient19startRepeatingTimerEdPFvPvES4_EUlvE_E10_M_managerERSt9_Any_dataRKS9_St18_Manager_operation = comdat any

$_ZNSt14_Function_base13_Base_managerIZN4node9inspector19NodeInspectorClient19startRepeatingTimerEdPFvPvES4_EUlvE_E9_M_createIS7_EEvRSt9_Any_dataOT_St17integral_constantIbLb1EE = comdat any

$_ZNSt9_Any_data9_M_accessEv = comdat any

$_ZSt10__invoke_rIvRZN4node9inspector19NodeInspectorClient19startRepeatingTimerEdPFvPvES3_EUlvE_JEENSt9enable_ifIX16is_invocable_r_vIT_T0_DpT1_EES9_E4typeEOSA_DpOSB_ = comdat any

$_ZNSt14_Function_base13_Base_managerIZN4node9inspector19NodeInspectorClient19startRepeatingTimerEdPFvPvES4_EUlvE_E14_M_get_pointerERKSt9_Any_data = comdat any

$_ZSt13__invoke_implIvRZN4node9inspector19NodeInspectorClient19startRepeatingTimerEdPFvPvES3_EUlvE_JEET_St14__invoke_otherOT0_DpOT1_ = comdat any

$_ZZN4node9inspector19NodeInspectorClient19startRepeatingTimerEdPFvPvES2_ENKUlvE_clEv = comdat any

$_ZNKSt9_Any_data9_M_accessIZN4node9inspector19NodeInspectorClient19startRepeatingTimerEdPFvPvES4_EUlvE_EERKT_v = comdat any

$_ZNKSt9_Any_data9_M_accessEv = comdat any

$_ZNSt9_Any_data9_M_accessIPZN4node9inspector19NodeInspectorClient19startRepeatingTimerEdPFvPvES4_EUlvE_EERT_v = comdat any

$_ZNSt14_Function_base13_Base_managerIZN4node9inspector19NodeInspectorClient19startRepeatingTimerEdPFvPvES4_EUlvE_E10_M_managerERSt9_Any_dataRKS9_St18_Manager_operation = comdat any

$_ZNSt9_Any_data9_M_accessIPKSt9type_infoEERT_v = comdat any

$_ZNSt14_Function_base13_Base_managerIZN4node9inspector19NodeInspectorClient19startRepeatingTimerEdPFvPvES4_EUlvE_E15_M_init_functorIRKS7_EEvRSt9_Any_dataOT_ = comdat any

$_ZNSt14_Function_base13_Base_managerIZN4node9inspector19NodeInspectorClient19startRepeatingTimerEdPFvPvES4_EUlvE_E10_M_destroyERSt9_Any_dataSt17integral_constantIbLb1EE = comdat any

$_ZNSt14_Function_base13_Base_managerIZN4node9inspector19NodeInspectorClient19startRepeatingTimerEdPFvPvES4_EUlvE_E9_M_createIRKS7_EEvRSt9_Any_dataOT_St17integral_constantIbLb1EE = comdat any

$_ZNSt9_Any_data9_M_accessIZN4node9inspector19NodeInspectorClient19startRepeatingTimerEdPFvPvES4_EUlvE_EERT_v = comdat any

$_ZNSt8functionIFvvEED2Ev = comdat any

$_ZNSt14_Function_baseD2Ev = comdat any

$_ZNSt8__detail22_Hashtable_hash_traitsISt4hashIPvEE22__small_size_thresholdEv = comdat any

$_ZNKSt8__detail15_Hashtable_baseIPvSt4pairIKS1_N4node15TimerWrapHandleEENS_10_Select1stESt8equal_toIS1_ESt4hashIS1_ENS_18_Mod_range_hashingENS_20_Default_ranged_hashENS_17_Hashtable_traitsILb0ELb0ELb1EEEE5_M_eqEv = comdat any

$_ZNKSt8equal_toIPvEclERKS0_S3_ = comdat any

$_ZNKSt8__detail10_Select1stclIRKSt4pairIKPvN4node15TimerWrapHandleEEEEONS0_10__1st_typeIT_E4typeEOSB_ = comdat any

$_ZNKSt8__detail21_Hash_node_value_baseISt4pairIKPvN4node15TimerWrapHandleEEE4_M_vEv = comdat any

$_ZNKSt8__detail21_Hashtable_ebo_helperILi0ESt8equal_toIPvELb1EE7_M_cgetEv = comdat any

$_ZNKSt8__detail21_Hash_node_value_baseISt4pairIKPvN4node15TimerWrapHandleEEE9_M_valptrEv = comdat any

$_ZNK9__gnu_cxx16__aligned_bufferISt4pairIKPvN4node15TimerWrapHandleEEE6_M_ptrEv = comdat any

$_ZNK9__gnu_cxx16__aligned_bufferISt4pairIKPvN4node15TimerWrapHandleEEE7_M_addrEv = comdat any

$_ZNSt8__detail19_Node_iterator_baseISt4pairIKPvN4node15TimerWrapHandleEELb0EE7_M_incrEv = comdat any

$_ZNKSt8__detail15_Hash_code_baseIPvSt4pairIKS1_N4node15TimerWrapHandleEENS_10_Select1stESt4hashIS1_ENS_18_Mod_range_hashingENS_20_Default_ranged_hashELb0EE7_M_hashEv = comdat any

$_ZNKSt4hashIPvEclES0_ = comdat any

$_ZNKSt8__detail21_Hashtable_ebo_helperILi1ESt4hashIPvELb1EE7_M_cgetEv = comdat any

$_ZNKSt8__detail15_Hash_code_baseIPvSt4pairIKS1_N4node15TimerWrapHandleEENS_10_Select1stESt4hashIS1_ENS_18_Mod_range_hashingENS_20_Default_ranged_hashELb0EE15_M_bucket_indexEmm = comdat any

$_ZNKSt10_HashtableIPvSt4pairIKS0_N4node15TimerWrapHandleEESaIS5_ENSt8__detail10_Select1stESt8equal_toIS0_ESt4hashIS0_ENS7_18_Mod_range_hashingENS7_20_Default_ranged_hashENS7_20_Prime_rehash_policyENS7_17_Hashtable_traitsILb0ELb0ELb1EEEE19_M_find_before_nodeEmRS2_m = comdat any

$_ZNKSt8__detail15_Hashtable_baseIPvSt4pairIKS1_N4node15TimerWrapHandleEENS_10_Select1stESt8equal_toIS1_ESt4hashIS1_ENS_18_Mod_range_hashingENS_20_Default_ranged_hashENS_17_Hashtable_traitsILb0ELb0ELb1EEEE9_M_equalsERS3_mRKNS_16_Hash_node_valueIS6_Lb0EEE = comdat any

$_ZNKSt10_HashtableIPvSt4pairIKS0_N4node15TimerWrapHandleEESaIS5_ENSt8__detail10_Select1stESt8equal_toIS0_ESt4hashIS0_ENS7_18_Mod_range_hashingENS7_20_Default_ranged_hashENS7_20_Prime_rehash_policyENS7_17_Hashtable_traitsILb0ELb0ELb1EEEE15_M_bucket_indexERKNS7_16_Hash_node_valueIS5_Lb0EEE = comdat any

$_ZNSt8__detail15_Hashtable_baseIPvSt4pairIKS1_N4node15TimerWrapHandleEENS_10_Select1stESt8equal_toIS1_ESt4hashIS1_ENS_18_Mod_range_hashingENS_20_Default_ranged_hashENS_17_Hashtable_traitsILb0ELb0ELb1EEEE9_S_equalsEmRKNS_21_Hash_node_code_cacheILb0EEE = comdat any

$_ZNKSt8__detail15_Hash_code_baseIPvSt4pairIKS1_N4node15TimerWrapHandleEENS_10_Select1stESt4hashIS1_ENS_18_Mod_range_hashingENS_20_Default_ranged_hashELb0EE15_M_bucket_indexERKNS_16_Hash_node_valueIS6_Lb0EEEm = comdat any

$_ZNSt8__detail19_Node_iterator_baseISt4pairIKPvN4node15TimerWrapHandleEELb0EEC2EPNS_10_Hash_nodeIS6_Lb0EEE = comdat any

$_ZNSt10_HashtableIPvSt4pairIKS0_N4node15TimerWrapHandleEESaIS5_ENSt8__detail10_Select1stESt8equal_toIS0_ESt4hashIS0_ENS7_18_Mod_range_hashingENS7_20_Default_ranged_hashENS7_20_Prime_rehash_policyENS7_17_Hashtable_traitsILb0ELb0ELb1EEEE9_M_rehashEmRKm = comdat any

$_ZNKSt8__detail15_Hash_code_baseIPvSt4pairIKS1_N4node15TimerWrapHandleEENS_10_Select1stESt4hashIS1_ENS_18_Mod_range_hashingENS_20_Default_ranged_hashELb0EE13_M_store_codeERNS_21_Hash_node_code_cacheILb0EEEm = comdat any

$_ZNSt10_HashtableIPvSt4pairIKS0_N4node15TimerWrapHandleEESaIS5_ENSt8__detail10_Select1stESt8equal_toIS0_ESt4hashIS0_ENS7_18_Mod_range_hashingENS7_20_Default_ranged_hashENS7_20_Prime_rehash_policyENS7_17_Hashtable_traitsILb0ELb0ELb1EEEE22_M_insert_bucket_beginEmPNS7_10_Hash_nodeIS5_Lb0EEE = comdat any

$_ZNSt10_HashtableIPvSt4pairIKS0_N4node15TimerWrapHandleEESaIS5_ENSt8__detail10_Select1stESt8equal_toIS0_ESt4hashIS0_ENS7_18_Mod_range_hashingENS7_20_Default_ranged_hashENS7_20_Prime_rehash_policyENS7_17_Hashtable_traitsILb0ELb0ELb1EEEE13_M_rehash_auxEmSt17integral_constantIbLb1EE = comdat any

$_ZNSt10_HashtableIPvSt4pairIKS0_N4node15TimerWrapHandleEESaIS5_ENSt8__detail10_Select1stESt8equal_toIS0_ESt4hashIS0_ENS7_18_Mod_range_hashingENS7_20_Default_ranged_hashENS7_20_Prime_rehash_policyENS7_17_Hashtable_traitsILb0ELb0ELb1EEEE19_M_allocate_bucketsEm = comdat any

$_ZNSt8__detail16_Hashtable_allocISaINS_10_Hash_nodeISt4pairIKPvN4node15TimerWrapHandleEELb0EEEEE19_M_allocate_bucketsEm = comdat any

$_ZNSt5tupleIJPvEEC2IJRS0_ELb1ETnNSt9enable_ifIXclsr4_TCCIXT0_EEE29__is_implicitly_constructibleIDpT_EEEbE4typeELb1EEEDpOS5_ = comdat any

$_ZNSt11_Tuple_implILm0EJPvEEC2IRS0_EEOT_ = comdat any

$_ZNSt10_Head_baseILm0EPvLb0EEC2IRS0_EEOT_ = comdat any

$_ZNSt5tupleIJPN4node11EnvironmentEZNS0_9inspector19NodeInspectorClient19startRepeatingTimerEdPFvPvES5_EUlvE_EEC2IRS2_S8_TnNSt9enable_ifIXclsr4_TCCIXntcl14__is_alloc_argIT_EEEEE29__is_implicitly_constructibleISD_T0_EEEbE4typeELb1EEEOSD_OSE_ = comdat any

$_ZNSt11_Tuple_implILm0EJPN4node11EnvironmentEZNS0_9inspector19NodeInspectorClient19startRepeatingTimerEdPFvPvES5_EUlvE_EEC2IRS2_JS8_EvEEOT_DpOT0_ = comdat any

$_ZNSt11_Tuple_implILm1EJZN4node9inspector19NodeInspectorClient19startRepeatingTimerEdPFvPvES3_EUlvE_EEC2IS6_EEOT_ = comdat any

$_ZNSt10_Head_baseILm0EPN4node11EnvironmentELb0EEC2IRS2_EEOT_ = comdat any

$_ZNSt10_Head_baseILm1EZN4node9inspector19NodeInspectorClient19startRepeatingTimerEdPFvPvES3_EUlvE_Lb0EEC2IS6_EEOT_ = comdat any

$_ZNSt13unordered_mapIPvN4node15TimerWrapHandleESt4hashIS0_ESt8equal_toIS0_ESaISt4pairIKS0_S2_EEE5eraseERS8_ = comdat any

$_ZNSt10_HashtableIPvSt4pairIKS0_N4node15TimerWrapHandleEESaIS5_ENSt8__detail10_Select1stESt8equal_toIS0_ESt4hashIS0_ENS7_18_Mod_range_hashingENS7_20_Default_ranged_hashENS7_20_Prime_rehash_policyENS7_17_Hashtable_traitsILb0ELb0ELb1EEEE5eraseERS2_ = comdat any

$_ZNSt10_HashtableIPvSt4pairIKS0_N4node15TimerWrapHandleEESaIS5_ENSt8__detail10_Select1stESt8equal_toIS0_ESt4hashIS0_ENS7_18_Mod_range_hashingENS7_20_Default_ranged_hashENS7_20_Prime_rehash_policyENS7_17_Hashtable_traitsILb0ELb0ELb1EEEE8_M_eraseESt17integral_constantIbLb1EERS2_ = comdat any

$_ZNSt10_HashtableIPvSt4pairIKS0_N4node15TimerWrapHandleEESaIS5_ENSt8__detail10_Select1stESt8equal_toIS0_ESt4hashIS0_ENS7_18_Mod_range_hashingENS7_20_Default_ranged_hashENS7_20_Prime_rehash_policyENS7_17_Hashtable_traitsILb0ELb0ELb1EEEE19_M_find_before_nodeERS2_ = comdat any

$_ZNSt10_HashtableIPvSt4pairIKS0_N4node15TimerWrapHandleEESaIS5_ENSt8__detail10_Select1stESt8equal_toIS0_ESt4hashIS0_ENS7_18_Mod_range_hashingENS7_20_Default_ranged_hashENS7_20_Prime_rehash_policyENS7_17_Hashtable_traitsILb0ELb0ELb1EEEE8_M_eraseEmPNS7_15_Hash_node_baseEPNS7_10_Hash_nodeIS5_Lb0EEE = comdat any

$_ZNSt10_HashtableIPvSt4pairIKS0_N4node15TimerWrapHandleEESaIS5_ENSt8__detail10_Select1stESt8equal_toIS0_ESt4hashIS0_ENS7_18_Mod_range_hashingENS7_20_Default_ranged_hashENS7_20_Prime_rehash_policyENS7_17_Hashtable_traitsILb0ELb0ELb1EEEE22_M_remove_bucket_beginEmPNS7_10_Hash_nodeIS5_Lb0EEEm = comdat any

$_ZNSt16allocator_traitsISaIvEE7destroyIN4node9inspector19NodeInspectorClientEEEvRS0_PT_ = comdat any

$_ZNSt23_Sp_counted_ptr_inplaceIN4node9inspector19NodeInspectorClientESaIvELN9__gnu_cxx12_Lock_policyE2EE5_Impl8_M_allocEv = comdat any

$_ZSt8_DestroyIN4node9inspector19NodeInspectorClientEEvPT_ = comdat any

$_ZN9__gnu_cxx16__aligned_bufferIN4node9inspector19NodeInspectorClientEE6_M_ptrEv = comdat any

$_ZN9__gnu_cxx16__aligned_bufferIN4node9inspector19NodeInspectorClientEE7_M_addrEv = comdat any

$_ZNSt16allocator_traitsISaISt23_Sp_counted_ptr_inplaceIN4node9inspector19NodeInspectorClientESaIvELN9__gnu_cxx12_Lock_policyE2EEEE10deallocateERS8_PS7_m = comdat any

$_ZNSt15__new_allocatorISt23_Sp_counted_ptr_inplaceIN4node9inspector19NodeInspectorClientESaIvELN9__gnu_cxx12_Lock_policyE2EEE10deallocateEPS7_m = comdat any

$_ZNSt15__new_allocatorISt23_Sp_counted_ptr_inplaceIN4node9inspector19NodeInspectorClientESaIvELN9__gnu_cxx12_Lock_policyE2EEED2Ev = comdat any

$_ZNSt12__shared_ptrIN4node9inspector19NodeInspectorClientELN9__gnu_cxx12_Lock_policyE2EEaSEOS5_ = comdat any

$_ZNSt12__shared_ptrIN4node9inspector19NodeInspectorClientELN9__gnu_cxx12_Lock_policyE2EEC2EOS5_ = comdat any

$_ZNSt12__shared_ptrIN4node9inspector19NodeInspectorClientELN9__gnu_cxx12_Lock_policyE2EE4swapERS5_ = comdat any

$_ZNSt12__shared_ptrIN4node9inspector19NodeInspectorClientELN9__gnu_cxx12_Lock_policyE2EED2Ev = comdat any

$_ZSt4swapIPN4node9inspector19NodeInspectorClientEENSt9enable_ifIXsr6__and_ISt6__not_ISt15__is_tuple_likeIT_EESt21is_move_constructibleIS7_ESt18is_move_assignableIS7_EEE5valueEvE4typeERS7_SG_ = comdat any

$_ZNKSt10unique_ptrIN4node9inspector21ParentInspectorHandleESt14default_deleteIS2_EE3getEv = comdat any

$_ZNKSt15__uniq_ptr_implIN4node9inspector21ParentInspectorHandleESt14default_deleteIS2_EE6_M_ptrEv = comdat any

$_ZSt3getILm0EJPN4node9inspector21ParentInspectorHandleESt14default_deleteIS2_EEERKNSt13tuple_elementIXT_ESt5tupleIJDpT0_EEE4typeERKSA_ = comdat any

$_ZSt12__get_helperILm0EPN4node9inspector21ParentInspectorHandleEJSt14default_deleteIS2_EEERKT0_RKSt11_Tuple_implIXT_EJS6_DpT1_EE = comdat any

$_ZNSt11_Tuple_implILm0EJPN4node9inspector21ParentInspectorHandleESt14default_deleteIS2_EEE7_M_headERKS6_ = comdat any

$_ZNSt10_Head_baseILm0EPN4node9inspector21ParentInspectorHandleELb0EE7_M_headERKS4_ = comdat any

$_ZNKSt19__shared_ptr_accessIN4node9inspector19NodeInspectorClientELN9__gnu_cxx12_Lock_policyE2ELb0ELb0EE6_M_getEv = comdat any

$_ZNKSt12__shared_ptrIN4node9inspector19NodeInspectorClientELN9__gnu_cxx12_Lock_policyE2EE3getEv = comdat any

$_ZNSt15__uniq_ptr_dataIN4node9inspector16InspectorSessionESt14default_deleteIS2_ELb1ELb1EECI2St15__uniq_ptr_implIS2_S4_EEPS2_ = comdat any

$_ZNSt15__uniq_ptr_implIN4node9inspector16InspectorSessionESt14default_deleteIS2_EEC2EPS2_ = comdat any

$_ZNSt15__uniq_ptr_implIN4node9inspector16InspectorSessionESt14default_deleteIS2_EE6_M_ptrEv = comdat any

$_ZSt3getILm0EJPN4node9inspector16InspectorSessionESt14default_deleteIS2_EEERNSt13tuple_elementIXT_ESt5tupleIJDpT0_EEE4typeERSA_ = comdat any

$_ZSt12__get_helperILm0EPN4node9inspector16InspectorSessionEJSt14default_deleteIS2_EEERT0_RSt11_Tuple_implIXT_EJS6_DpT1_EE = comdat any

$_ZNSt11_Tuple_implILm0EJPN4node9inspector16InspectorSessionESt14default_deleteIS2_EEE7_M_headERS6_ = comdat any

$_ZNSt10_Head_baseILm0EPN4node9inspector16InspectorSessionELb0EE7_M_headERS4_ = comdat any

$_ZNKSt19__shared_ptr_accessIN4node9inspector16MainThreadHandleELN9__gnu_cxx12_Lock_policyE2ELb0ELb0EE6_M_getEv = comdat any

$_ZNKSt12__shared_ptrIN4node9inspector16MainThreadHandleELN9__gnu_cxx12_Lock_policyE2EE3getEv = comdat any

$_ZN4node13CallbackQueueIvJPNS_11EnvironmentEEE4PushESt10unique_ptrINS3_8CallbackESt14default_deleteIS5_EE = comdat any

$_ZNSt10unique_ptrIN4node13CallbackQueueIvJPNS0_11EnvironmentEEE8CallbackESt14default_deleteIS5_EEC2EOS8_ = comdat any

$_ZNSt10unique_ptrIN4node13CallbackQueueIvJPNS0_11EnvironmentEEE8CallbackESt14default_deleteIS5_EED2Ev = comdat any

$_ZN4node13CallbackQueueIvJPNS_11EnvironmentEEE8CallbackC2ENS_13CallbackFlags5FlagsE = comdat any

$_ZNSt10unique_ptrIN4node13CallbackQueueIvJPNS0_11EnvironmentEEE8CallbackESt14default_deleteIS5_EEC2IS7_vEEv = comdat any

$_ZN4node13CallbackQueueIvJPNS_11EnvironmentEEE8CallbackD2Ev = comdat any

$_ZN4node13CallbackQueueIvJPNS_11EnvironmentEEE8CallbackD0Ev = comdat any

$_ZNSt15__uniq_ptr_dataIN4node13CallbackQueueIvJPNS0_11EnvironmentEEE8CallbackESt14default_deleteIS5_ELb1ELb1EEC2Ev = comdat any

$_ZNSt15__uniq_ptr_implIN4node13CallbackQueueIvJPNS0_11EnvironmentEEE8CallbackESt14default_deleteIS5_EEC2Ev = comdat any

$_ZNSt5tupleIJPN4node13CallbackQueueIvJPNS0_11EnvironmentEEE8CallbackESt14default_deleteIS5_EEEC2ILb1ETnNSt9enable_ifIXclsr17_TupleConstraintsIXT_ES6_S8_EE37__is_implicitly_default_constructibleEEbE4typeELb1EEEv = comdat any

$_ZNSt11_Tuple_implILm0EJPN4node13CallbackQueueIvJPNS0_11EnvironmentEEE8CallbackESt14default_deleteIS5_EEEC2Ev = comdat any

$_ZNSt11_Tuple_implILm1EJSt14default_deleteIN4node13CallbackQueueIvJPNS1_11EnvironmentEEE8CallbackEEEEC2Ev = comdat any

$_ZNSt10_Head_baseILm0EPN4node13CallbackQueueIvJPNS0_11EnvironmentEEE8CallbackELb0EEC2Ev = comdat any

$_ZNSt10_Head_baseILm1ESt14default_deleteIN4node13CallbackQueueIvJPNS1_11EnvironmentEEE8CallbackEELb1EEC2Ev = comdat any

$_ZNSt10_Head_baseILm0EPN4node13CallbackQueueIvJPNS0_11EnvironmentEEE8CallbackELb0EEC2IRS6_EEOT_ = comdat any

$_ZNSt13__atomic_baseImEppEi = comdat any

$_ZNKSt10unique_ptrIN4node13CallbackQueueIvJPNS0_11EnvironmentEEE8CallbackESt14default_deleteIS5_EE3getEv = comdat any

$_ZN4node13CallbackQueueIvJPNS_11EnvironmentEEE8Callback8set_nextESt10unique_ptrIS4_St14default_deleteIS4_EE = comdat any

$_ZNSt10unique_ptrIN4node13CallbackQueueIvJPNS0_11EnvironmentEEE8CallbackESt14default_deleteIS5_EEaSEOS8_ = comdat any

$_ZNKSt15__uniq_ptr_implIN4node13CallbackQueueIvJPNS0_11EnvironmentEEE8CallbackESt14default_deleteIS5_EE6_M_ptrEv = comdat any

$_ZSt3getILm0EJPN4node13CallbackQueueIvJPNS0_11EnvironmentEEE8CallbackESt14default_deleteIS5_EEERKNSt13tuple_elementIXT_ESt5tupleIJDpT0_EEE4typeERKSD_ = comdat any

$_ZSt12__get_helperILm0EPN4node13CallbackQueueIvJPNS0_11EnvironmentEEE8CallbackEJSt14default_deleteIS5_EEERKT0_RKSt11_Tuple_implIXT_EJS9_DpT1_EE = comdat any

$_ZNSt11_Tuple_implILm0EJPN4node13CallbackQueueIvJPNS0_11EnvironmentEEE8CallbackESt14default_deleteIS5_EEE7_M_headERKS9_ = comdat any

$_ZNSt10_Head_baseILm0EPN4node13CallbackQueueIvJPNS0_11EnvironmentEEE8CallbackELb0EE7_M_headERKS7_ = comdat any

$_ZNSt15__uniq_ptr_dataIN4node13CallbackQueueIvJPNS0_11EnvironmentEEE8CallbackESt14default_deleteIS5_ELb1ELb1EEaSEOS8_ = comdat any

$_ZNSt15__uniq_ptr_implIN4node13CallbackQueueIvJPNS0_11EnvironmentEEE8CallbackESt14default_deleteIS5_EEaSEOS8_ = comdat any

$_ZNSt15__uniq_ptr_implIN4node13CallbackQueueIvJPNS0_11EnvironmentEEE8CallbackESt14default_deleteIS5_EE5resetEPS5_ = comdat any

$_ZNSt15__uniq_ptr_implIN4node13CallbackQueueIvJPNS0_11EnvironmentEEE8CallbackESt14default_deleteIS5_EE7releaseEv = comdat any

$_ZNSt15__uniq_ptr_implIN4node13CallbackQueueIvJPNS0_11EnvironmentEEE8CallbackESt14default_deleteIS5_EE10_M_deleterEv = comdat any

$_ZNSt15__uniq_ptr_implIN4node13CallbackQueueIvJPNS0_11EnvironmentEEE8CallbackESt14default_deleteIS5_EE6_M_ptrEv = comdat any

$_ZNKSt14default_deleteIN4node13CallbackQueueIvJPNS0_11EnvironmentEEE8CallbackEEclEPS5_ = comdat any

$_ZSt3getILm0EJPN4node13CallbackQueueIvJPNS0_11EnvironmentEEE8CallbackESt14default_deleteIS5_EEERNSt13tuple_elementIXT_ESt5tupleIJDpT0_EEE4typeERSD_ = comdat any

$_ZSt12__get_helperILm0EPN4node13CallbackQueueIvJPNS0_11EnvironmentEEE8CallbackEJSt14default_deleteIS5_EEERT0_RSt11_Tuple_implIXT_EJS9_DpT1_EE = comdat any

$_ZNSt11_Tuple_implILm0EJPN4node13CallbackQueueIvJPNS0_11EnvironmentEEE8CallbackESt14default_deleteIS5_EEE7_M_headERS9_ = comdat any

$_ZNSt10_Head_baseILm0EPN4node13CallbackQueueIvJPNS0_11EnvironmentEEE8CallbackELb0EE7_M_headERS7_ = comdat any

$_ZSt3getILm1EJPN4node13CallbackQueueIvJPNS0_11EnvironmentEEE8CallbackESt14default_deleteIS5_EEERNSt13tuple_elementIXT_ESt5tupleIJDpT0_EEE4typeERSD_ = comdat any

$_ZSt12__get_helperILm1ESt14default_deleteIN4node13CallbackQueueIvJPNS1_11EnvironmentEEE8CallbackEEJEERT0_RSt11_Tuple_implIXT_EJS8_DpT1_EE = comdat any

$_ZNSt11_Tuple_implILm1EJSt14default_deleteIN4node13CallbackQueueIvJPNS1_11EnvironmentEEE8CallbackEEEE7_M_headERS8_ = comdat any

$_ZNSt10_Head_baseILm1ESt14default_deleteIN4node13CallbackQueueIvJPNS1_11EnvironmentEEE8CallbackEELb1EE7_M_headERS8_ = comdat any

$_ZNSt15__uniq_ptr_dataIN4node13CallbackQueueIvJPNS0_11EnvironmentEEE8CallbackESt14default_deleteIS5_ELb1ELb1EEC2EOS8_ = comdat any

$_ZNSt15__uniq_ptr_implIN4node13CallbackQueueIvJPNS0_11EnvironmentEEE8CallbackESt14default_deleteIS5_EEC2EOS8_ = comdat any

$_ZNSt5tupleIJPN4node13CallbackQueueIvJPNS0_11EnvironmentEEE8CallbackESt14default_deleteIS5_EEEC2EOS9_ = comdat any

$_ZNSt11_Tuple_implILm0EJPN4node13CallbackQueueIvJPNS0_11EnvironmentEEE8CallbackESt14default_deleteIS5_EEEC2EOS9_ = comdat any

$_ZNSt11_Tuple_implILm1EJSt14default_deleteIN4node13CallbackQueueIvJPNS1_11EnvironmentEEE8CallbackEEEEC2EOS8_ = comdat any

$_ZNSt10unique_ptrIN4node13CallbackQueueIvJPNS0_11EnvironmentEEE8CallbackESt14default_deleteIS5_EE11get_deleterEv = comdat any

$_ZNKSt19__shared_ptr_accessIN4node9inspector13WorkerManagerELN9__gnu_cxx12_Lock_policyE2ELb0ELb0EE6_M_getEv = comdat any

$_ZNKSt12__shared_ptrIN4node9inspector13WorkerManagerELN9__gnu_cxx12_Lock_policyE2EE3getEv = comdat any

$_ZNSt15__uniq_ptr_implIN4node9inspector13WorkerManagerESt14default_deleteIS2_EE6_M_ptrEv = comdat any

$_ZNSt10unique_ptrIN4node9inspector13WorkerManagerESt14default_deleteIS2_EE11get_deleterEv = comdat any

$_ZNKSt14default_deleteIN4node9inspector13WorkerManagerEEclEPS2_ = comdat any

$_ZSt3getILm0EJPN4node9inspector13WorkerManagerESt14default_deleteIS2_EEERNSt13tuple_elementIXT_ESt5tupleIJDpT0_EEE4typeERSA_ = comdat any

$_ZSt12__get_helperILm0EPN4node9inspector13WorkerManagerEJSt14default_deleteIS2_EEERT0_RSt11_Tuple_implIXT_EJS6_DpT1_EE = comdat any

$_ZNSt11_Tuple_implILm0EJPN4node9inspector13WorkerManagerESt14default_deleteIS2_EEE7_M_headERS6_ = comdat any

$_ZNSt10_Head_baseILm0EPN4node9inspector13WorkerManagerELb0EE7_M_headERS4_ = comdat any

$_ZNSt15__uniq_ptr_implIN4node9inspector13WorkerManagerESt14default_deleteIS2_EE10_M_deleterEv = comdat any

$_ZSt3getILm1EJPN4node9inspector13WorkerManagerESt14default_deleteIS2_EEERNSt13tuple_elementIXT_ESt5tupleIJDpT0_EEE4typeERSA_ = comdat any

$_ZSt12__get_helperILm1ESt14default_deleteIN4node9inspector13WorkerManagerEEJEERT0_RSt11_Tuple_implIXT_EJS5_DpT1_EE = comdat any

$_ZNSt11_Tuple_implILm1EJSt14default_deleteIN4node9inspector13WorkerManagerEEEE7_M_headERS5_ = comdat any

$_ZNSt10_Head_baseILm1ESt14default_deleteIN4node9inspector13WorkerManagerEELb1EE7_M_headERS5_ = comdat any

$_ZNSt12__shared_ptrIN4node9inspector13WorkerManagerELN9__gnu_cxx12_Lock_policyE2EEC2IS2_St14default_deleteIS2_EvEEOSt10unique_ptrIT_T0_E = comdat any

$_ZNKSt10unique_ptrIN4node9inspector13WorkerManagerESt14default_deleteIS2_EE3getEv = comdat any

$_ZSt12__to_addressIN4node9inspector13WorkerManagerEEPT_S4_ = comdat any

$_ZNSt14__shared_countILN9__gnu_cxx12_Lock_policyE2EEC2IN4node9inspector13WorkerManagerESt14default_deleteIS6_EEEOSt10unique_ptrIT_T0_E = comdat any

$_ZNKSt15__uniq_ptr_implIN4node9inspector13WorkerManagerESt14default_deleteIS2_EE6_M_ptrEv = comdat any

$_ZSt3getILm0EJPN4node9inspector13WorkerManagerESt14default_deleteIS2_EEERKNSt13tuple_elementIXT_ESt5tupleIJDpT0_EEE4typeERKSA_ = comdat any

$_ZSt12__get_helperILm0EPN4node9inspector13WorkerManagerEJSt14default_deleteIS2_EEERKT0_RKSt11_Tuple_implIXT_EJS6_DpT1_EE = comdat any

$_ZNSt11_Tuple_implILm0EJPN4node9inspector13WorkerManagerESt14default_deleteIS2_EEE7_M_headERKS6_ = comdat any

$_ZNSt10_Head_baseILm0EPN4node9inspector13WorkerManagerELb0EE7_M_headERKS4_ = comdat any

$_ZNSaISt19_Sp_counted_deleterIPN4node9inspector13WorkerManagerESt14default_deleteIS2_ESaIvELN9__gnu_cxx12_Lock_policyE2EEEC2Ev = comdat any

$_ZNSt16allocator_traitsISaISt19_Sp_counted_deleterIPN4node9inspector13WorkerManagerESt14default_deleteIS3_ESaIvELN9__gnu_cxx12_Lock_policyE2EEEE8allocateERSB_m = comdat any

$_ZNSt16allocator_traitsISaISt19_Sp_counted_deleterIPN4node9inspector13WorkerManagerESt14default_deleteIS3_ESaIvELN9__gnu_cxx12_Lock_policyE2EEEE9constructISA_JS4_S6_EEEvRSB_PT_DpOT0_ = comdat any

$_ZNSt10unique_ptrIN4node9inspector13WorkerManagerESt14default_deleteIS2_EE7releaseEv = comdat any

$_ZNSaISt19_Sp_counted_deleterIPN4node9inspector13WorkerManagerESt14default_deleteIS2_ESaIvELN9__gnu_cxx12_Lock_policyE2EEED2Ev = comdat any

$_ZNSt15__new_allocatorISt19_Sp_counted_deleterIPN4node9inspector13WorkerManagerESt14default_deleteIS3_ESaIvELN9__gnu_cxx12_Lock_policyE2EEEC2Ev = comdat any

$_ZNSt15__new_allocatorISt19_Sp_counted_deleterIPN4node9inspector13WorkerManagerESt14default_deleteIS3_ESaIvELN9__gnu_cxx12_Lock_policyE2EEE8allocateEmPKv = comdat any

$_ZNKSt15__new_allocatorISt19_Sp_counted_deleterIPN4node9inspector13WorkerManagerESt14default_deleteIS3_ESaIvELN9__gnu_cxx12_Lock_policyE2EEE11_M_max_sizeEv = comdat any

$_ZNSt15__new_allocatorISt19_Sp_counted_deleterIPN4node9inspector13WorkerManagerESt14default_deleteIS3_ESaIvELN9__gnu_cxx12_Lock_policyE2EEE9constructISA_JS4_S6_EEEvPT_DpOT0_ = comdat any

$_ZNSt19_Sp_counted_deleterIPN4node9inspector13WorkerManagerESt14default_deleteIS2_ESaIvELN9__gnu_cxx12_Lock_policyE2EEC2ES3_S5_ = comdat any

$_ZNSt19_Sp_counted_deleterIPN4node9inspector13WorkerManagerESt14default_deleteIS2_ESaIvELN9__gnu_cxx12_Lock_policyE2EE5_ImplC2ES3_S5_RKS6_ = comdat any

$_ZNSt19_Sp_counted_deleterIPN4node9inspector13WorkerManagerESt14default_deleteIS2_ESaIvELN9__gnu_cxx12_Lock_policyE2EED2Ev = comdat any

$_ZNSt19_Sp_counted_deleterIPN4node9inspector13WorkerManagerESt14default_deleteIS2_ESaIvELN9__gnu_cxx12_Lock_policyE2EED0Ev = comdat any

$_ZNSt19_Sp_counted_deleterIPN4node9inspector13WorkerManagerESt14default_deleteIS2_ESaIvELN9__gnu_cxx12_Lock_policyE2EE10_M_disposeEv = comdat any

$_ZNSt19_Sp_counted_deleterIPN4node9inspector13WorkerManagerESt14default_deleteIS2_ESaIvELN9__gnu_cxx12_Lock_policyE2EE10_M_destroyEv = comdat any

$_ZNSt19_Sp_counted_deleterIPN4node9inspector13WorkerManagerESt14default_deleteIS2_ESaIvELN9__gnu_cxx12_Lock_policyE2EE14_M_get_deleterERKSt9type_info = comdat any

$_ZNSt14_Sp_ebo_helperILi0ESt14default_deleteIN4node9inspector13WorkerManagerEELb1EEC2EOS4_ = comdat any

$_ZNSt14_Sp_ebo_helperILi1ESaIvELb1EEC2ERKS0_ = comdat any

$_ZNSt19_Sp_counted_deleterIPN4node9inspector13WorkerManagerESt14default_deleteIS2_ESaIvELN9__gnu_cxx12_Lock_policyE2EE5_Impl6_M_delEv = comdat any

$_ZNSt14_Sp_ebo_helperILi0ESt14default_deleteIN4node9inspector13WorkerManagerEELb1EE6_S_getERS5_ = comdat any

$_ZNSt19_Sp_counted_deleterIPN4node9inspector13WorkerManagerESt14default_deleteIS2_ESaIvELN9__gnu_cxx12_Lock_policyE2EE5_Impl8_M_allocEv = comdat any

$_ZNSaISt19_Sp_counted_deleterIPN4node9inspector13WorkerManagerESt14default_deleteIS2_ESaIvELN9__gnu_cxx12_Lock_policyE2EEEC2IvEERKSaIT_E = comdat any

$_ZNSt15__allocated_ptrISaISt19_Sp_counted_deleterIPN4node9inspector13WorkerManagerESt14default_deleteIS3_ESaIvELN9__gnu_cxx12_Lock_policyE2EEEEC2ERSB_PSA_ = comdat any

$_ZNSt15__allocated_ptrISaISt19_Sp_counted_deleterIPN4node9inspector13WorkerManagerESt14default_deleteIS3_ESaIvELN9__gnu_cxx12_Lock_policyE2EEEED2Ev = comdat any

$_ZNSt14_Sp_ebo_helperILi1ESaIvELb1EE6_S_getERS1_ = comdat any

$_ZNSt16allocator_traitsISaISt19_Sp_counted_deleterIPN4node9inspector13WorkerManagerESt14default_deleteIS3_ESaIvELN9__gnu_cxx12_Lock_policyE2EEEE10deallocateERSB_PSA_m = comdat any

$_ZNSt15__new_allocatorISt19_Sp_counted_deleterIPN4node9inspector13WorkerManagerESt14default_deleteIS3_ESaIvELN9__gnu_cxx12_Lock_policyE2EEE10deallocateEPSA_m = comdat any

$_ZNSt15__uniq_ptr_implIN4node9inspector13WorkerManagerESt14default_deleteIS2_EE7releaseEv = comdat any

$_ZNSt15__new_allocatorISt19_Sp_counted_deleterIPN4node9inspector13WorkerManagerESt14default_deleteIS3_ESaIvELN9__gnu_cxx12_Lock_policyE2EEED2Ev = comdat any

$_ZTVN4node7OptionsE = comdat any

$_ZZN4node12CleanupQueue3AddEPFvPvES1_E4args = comdat any

$_ZTVSt23_Sp_counted_ptr_inplaceIN4node9inspector19MainThreadInterfaceESaIvELN9__gnu_cxx12_Lock_policyE2EE = comdat any

$_ZTVSt16_Sp_counted_baseILN9__gnu_cxx12_Lock_policyE2EE = comdat any

$_ZZNSt19_Sp_make_shared_tag5_S_tiEvE5__tag = comdat any

$_ZTVN12v8_inspector11V8Inspector7ChannelE = comdat any

$_ZTVN4node9inspector8protocol15FrontendChannelE = comdat any

$_ZZN4node11SPrintFImplIRNSt7__cxx1112basic_stringIcSt11char_traitsIcESaIcEEEJEEES6_PKcOT_DpOT0_E4args = comdat any

$_ZZN4node11SPrintFImplIRNSt7__cxx1112basic_stringIcSt11char_traitsIcESaIcEEEJEEES6_PKcOT_DpOT0_E4args_0 = comdat any

$_ZZN4node11SPrintFImplIRNSt7__cxx1112basic_stringIcSt11char_traitsIcESaIcEEEJEEES6_PKcOT_DpOT0_E4args_1 = comdat any

$_ZZN4node11SPrintFImplB5cxx11EPKcE4args = comdat any

$_ZSt19piecewise_construct = comdat any

$_ZTVN4node9inspector16InspectorSessionE = comdat any

$_ZTVSt23_Sp_counted_ptr_inplaceIN4node9inspector13WorkerManagerESaIvELN9__gnu_cxx12_Lock_policyE2EE = comdat any

$_ZZN4node9MutexBaseINS_16LibuvMutexTraitsEEC1EvE4args = comdat any

$_ZTVSt23_Sp_counted_ptr_inplaceIN4node9inspector19NodeInspectorClientESaIvELN9__gnu_cxx12_Lock_policyE2EE = comdat any

$_ZTVN4node9inspector19NodeInspectorClientE = comdat any

$_ZTVN12v8_inspector17V8InspectorClientE = comdat any

$_ZZN4node9inspector19NodeInspectorClient19startRepeatingTimerEdPFvPvES2_E4args = comdat any

$_ZTVN4node14MemoryRetainerE = comdat any

$_ZTVN4node9TimerWrapE = comdat any

$_ZTVN4node13CallbackQueueIvJPNS_11EnvironmentEEE8CallbackE = comdat any

$_ZTVSt19_Sp_counted_deleterIPN4node9inspector13WorkerManagerESt14default_deleteIS2_ESaIvELN9__gnu_cxx12_Lock_policyE2EE = comdat any

@_ZStL8__ioinit = internal global %"class.std::ios_base::Init" zeroinitializer, align 1
@__dso_handle = external hidden global i8
@_ZN4node9inspector12_GLOBAL__N_127start_io_thread_async_mutexE = internal global %"class.node::MutexBase" zeroinitializer, align 8
@_ZZN4node9inspector5Agent5StartERKNSt7__cxx1112basic_stringIcSt11char_traitsIcESaIcEEERKNS_12DebugOptionsESt10shared_ptrINS_15ExclusiveAccessINS_8HostPortENS_9MutexBaseINS_16LibuvMutexTraitsEEEEEEbE4args = internal constant %"struct.node::AssertionInfo" { ptr @.str, ptr @.str.2, ptr @.str.3 }, align 8
@.str = private unnamed_addr constant [33 x i8] c"../../src/inspector_agent.cc:695\00", align 1
@.str.2 = private unnamed_addr constant [23 x i8] c"(host_port) != nullptr\00", align 1
@.str.3 = private unnamed_addr constant [128 x i8] c"bool node::inspector::Agent::Start(const std::string &, const DebugOptions &, std::shared_ptr<ExclusiveAccess<HostPort>>, bool)\00", align 1
@_ZN4node9inspector12_GLOBAL__N_133start_io_thread_async_initializedE = internal global %"struct.std::atomic" zeroinitializer, align 1
@_ZZN4node9inspector5Agent5StartERKNSt7__cxx1112basic_stringIcSt11char_traitsIcESaIcEEERKNS_12DebugOptionsESt10shared_ptrINS_15ExclusiveAccessINS_8HostPortENS_9MutexBaseINS_16LibuvMutexTraitsEEEEEEbE4args_0 = internal constant %"struct.node::AssertionInfo" { ptr @.str.4, ptr @.str.5, ptr @.str.3 }, align 8
@.str.4 = private unnamed_addr constant [33 x i8] c"../../src/inspector_agent.cc:701\00", align 1
@.str.5 = private unnamed_addr constant [62 x i8] c"(start_io_thread_async_initialized.exchange(true)) == (false)\00", align 1
@_ZN4node9inspector12_GLOBAL__N_121start_io_thread_asyncE = internal global %struct.uv_async_s zeroinitializer, align 8
@_ZZN4node9inspector5Agent5StartERKNSt7__cxx1112basic_stringIcSt11char_traitsIcESaIcEEERKNS_12DebugOptionsESt10shared_ptrINS_15ExclusiveAccessINS_8HostPortENS_9MutexBaseINS_16LibuvMutexTraitsEEEEEEbE4args_1 = internal constant %"struct.node::AssertionInfo" { ptr @.str.6, ptr @.str.7, ptr @.str.3 }, align 8
@.str.6 = private unnamed_addr constant [33 x i8] c"../../src/inspector_agent.cc:704\00", align 1
@.str.7 = private unnamed_addr constant [102 x i8] c"(0) == (uv_async_init(parent_env_->event_loop(), &start_io_thread_async, StartIoThreadAsyncCallback))\00", align 1
@_ZZN4node9inspector5Agent5StartERKNSt7__cxx1112basic_stringIcSt11char_traitsIcESaIcEEERKNS_12DebugOptionsESt10shared_ptrINS_15ExclusiveAccessINS_8HostPortENS_9MutexBaseINS_16LibuvMutexTraitsEEEEEEbE4args_2 = internal constant %"struct.node::AssertionInfo" { ptr @.str.8, ptr @.str.9, ptr @.str.3 }, align 8
@.str.8 = private unnamed_addr constant [33 x i8] c"../../src/inspector_agent.cc:744\00", align 1
@.str.9 = private unnamed_addr constant [39 x i8] c"!parent_env_->has_serialized_options()\00", align 1
@.str.10 = private unnamed_addr constant [14 x i8] c"StartIoThread\00", align 1
@_ZZN4node9inspector5Agent13StartIoThreadEvE4args = internal constant %"struct.node::AssertionInfo" { ptr @.str.11, ptr @.str.12, ptr @.str.13 }, align 8
@.str.11 = private unnamed_addr constant [33 x i8] c"../../src/inspector_agent.cc:765\00", align 1
@.str.12 = private unnamed_addr constant [21 x i8] c"(client_) != nullptr\00", align 1
@.str.13 = private unnamed_addr constant [45 x i8] c"bool node::inspector::Agent::StartIoThread()\00", align 1
@.str.14 = private unnamed_addr constant [8 x i8] c"Connect\00", align 1
@_ZZN4node9inspector5Agent7ConnectESt10unique_ptrINS0_24InspectorSessionDelegateESt14default_deleteIS3_EEbE4args = internal constant %"struct.node::AssertionInfo" { ptr @.str.15, ptr @.str.12, ptr @.str.16 }, align 8
@.str.15 = private unnamed_addr constant [33 x i8] c"../../src/inspector_agent.cc:794\00", align 1
@.str.16 = private unnamed_addr constant [115 x i8] c"std::unique_ptr<InspectorSession> node::inspector::Agent::Connect(std::unique_ptr<InspectorSessionDelegate>, bool)\00", align 1
@.str.17 = private unnamed_addr constant [20 x i8] c"ConnectToMainThread\00", align 1
@_ZZN4node9inspector5Agent19ConnectToMainThreadESt10unique_ptrINS0_24InspectorSessionDelegateESt14default_deleteIS3_EEbE4args = internal constant %"struct.node::AssertionInfo" { ptr @.str.18, ptr @.str.19, ptr @.str.20 }, align 8
@.str.18 = private unnamed_addr constant [33 x i8] c"../../src/inspector_agent.cc:814\00", align 1
@.str.19 = private unnamed_addr constant [28 x i8] c"(parent_handle_) != nullptr\00", align 1
@.str.20 = private unnamed_addr constant [127 x i8] c"std::unique_ptr<InspectorSession> node::inspector::Agent::ConnectToMainThread(std::unique_ptr<InspectorSessionDelegate>, bool)\00", align 1
@_ZZN4node9inspector5Agent19ConnectToMainThreadESt10unique_ptrINS0_24InspectorSessionDelegateESt14default_deleteIS3_EEbE4args_0 = internal constant %"struct.node::AssertionInfo" { ptr @.str.21, ptr @.str.12, ptr @.str.20 }, align 8
@.str.21 = private unnamed_addr constant [33 x i8] c"../../src/inspector_agent.cc:815\00", align 1
@.str.22 = private unnamed_addr constant [18 x i8] c"WaitForDisconnect\00", align 1
@_ZZN4node9inspector5Agent17WaitForDisconnectEvE4args = internal constant %"struct.node::AssertionInfo" { ptr @.str.23, ptr @.str.12, ptr @.str.24 }, align 8
@.str.23 = private unnamed_addr constant [33 x i8] c"../../src/inspector_agent.cc:831\00", align 1
@.str.24 = private unnamed_addr constant [49 x i8] c"void node::inspector::Agent::WaitForDisconnect()\00", align 1
@stderr = external global ptr, align 8
@.str.25 = private unnamed_addr constant [43 x i8] c"Waiting for the debugger to disconnect...\0A\00", align 1
@_ZZN4node9inspector5Agent17RegisterAsyncHookEPN2v87IsolateENS2_5LocalINS2_8FunctionEEES7_E4args = internal constant %"struct.node::AssertionInfo" { ptr @.str.26, ptr @.str.27, ptr @.str.28 }, align 8
@.str.26 = private unnamed_addr constant [33 x i8] c"../../src/inspector_agent.cc:867\00", align 1
@.str.27 = private unnamed_addr constant [29 x i8] c"!pending_disable_async_hook_\00", align 1
@.str.28 = private unnamed_addr constant [92 x i8] c"void node::inspector::Agent::RegisterAsyncHook(Isolate *, Local<Function>, Local<Function>)\00", align 1
@_ZZN4node9inspector5Agent17RegisterAsyncHookEPN2v87IsolateENS2_5LocalINS2_8FunctionEEES7_E4args_0 = internal constant %"struct.node::AssertionInfo" { ptr @.str.29, ptr @.str.30, ptr @.str.28 }, align 8
@.str.29 = private unnamed_addr constant [33 x i8] c"../../src/inspector_agent.cc:871\00", align 1
@.str.30 = private unnamed_addr constant [28 x i8] c"!pending_enable_async_hook_\00", align 1
@_ZZN4node9inspector5Agent15EnableAsyncHookEvE4args = internal constant %"struct.node::AssertionInfo" { ptr @.str.31, ptr @.str.30, ptr @.str.32 }, align 8
@.str.31 = private unnamed_addr constant [33 x i8] c"../../src/inspector_agent.cc:883\00", align 1
@.str.32 = private unnamed_addr constant [47 x i8] c"void node::inspector::Agent::EnableAsyncHook()\00", align 1
@_ZZN4node9inspector5Agent16DisableAsyncHookEvE4args = internal constant %"struct.node::AssertionInfo" { ptr @.str.33, ptr @.str.27, ptr @.str.34 }, align 8
@.str.33 = private unnamed_addr constant [33 x i8] c"../../src/inspector_agent.cc:896\00", align 1
@.str.34 = private unnamed_addr constant [48 x i8] c"void node::inspector::Agent::DisableAsyncHook()\00", align 1
@_ZZN4node9inspector5Agent15ToggleAsyncHookEPN2v87IsolateENS2_5LocalINS2_8FunctionEEEE4args = internal constant %"struct.node::AssertionInfo" { ptr @.str.35, ptr @.str.36, ptr @.str.37 }, align 8
@.str.35 = private unnamed_addr constant [33 x i8] c"../../src/inspector_agent.cc:909\00", align 1
@.str.36 = private unnamed_addr constant [42 x i8] c"parent_env_->has_run_bootstrapping_code()\00", align 1
@.str.37 = private unnamed_addr constant [73 x i8] c"void node::inspector::Agent::ToggleAsyncHook(Isolate *, Local<Function>)\00", align 1
@_ZZN4node9inspector5Agent15ToggleAsyncHookEPN2v87IsolateENS2_5LocalINS2_8FunctionEEEE4args_0 = internal constant %"struct.node::AssertionInfo" { ptr @.str.38, ptr @.str.39, ptr @.str.37 }, align 8
@.str.38 = private unnamed_addr constant [33 x i8] c"../../src/inspector_agent.cc:911\00", align 1
@.str.39 = private unnamed_addr constant [14 x i8] c"!fn.IsEmpty()\00", align 1
@_ZZN4node9inspector5Agent15ToggleAsyncHookEPN2v87IsolateENS2_5LocalINS2_8FunctionEEEE4args_1 = internal constant %"struct.node::AssertionInfo" { ptr @.str.40, ptr @.str.41, ptr @.str.37 }, align 8
@.str.40 = private unnamed_addr constant [33 x i8] c"../../src/inspector_agent.cc:917\00", align 1
@.str.41 = private unnamed_addr constant [91 x i8] c"\22Unreachable code reached\22 \22: \22 \22Cannot toggle Inspector's AsyncHook, please report this.\22\00", align 1
@_ZZN4node9inspector5Agent20RequestIoThreadStartEvE4args = internal constant %"struct.node::AssertionInfo" { ptr @.str.42, ptr @.str.43, ptr @.str.44 }, align 8
@.str.42 = private unnamed_addr constant [33 x i8] c"../../src/inspector_agent.cc:949\00", align 1
@.str.43 = private unnamed_addr constant [34 x i8] c"start_io_thread_async_initialized\00", align 1
@.str.44 = private unnamed_addr constant [52 x i8] c"void node::inspector::Agent::RequestIoThreadStart()\00", align 1
@_ZZN4node9inspector5Agent20RequestIoThreadStartEvE4args_0 = internal constant %"struct.node::AssertionInfo" { ptr @.str.45, ptr @.str.43, ptr @.str.44 }, align 8
@.str.45 = private unnamed_addr constant [33 x i8] c"../../src/inspector_agent.cc:955\00", align 1
@.str.46 = private unnamed_addr constant [16 x i8] c"GetParentHandle\00", align 1
@_ZZN4node9inspector5Agent15GetParentHandleEmRKNSt7__cxx1112basic_stringIcSt11char_traitsIcESaIcEEES9_E4args = internal constant %"struct.node::AssertionInfo" { ptr @.str.47, ptr @.str.12, ptr @.str.48 }, align 8
@.str.47 = private unnamed_addr constant [33 x i8] c"../../src/inspector_agent.cc:987\00", align 1
@.str.48 = private unnamed_addr constant [131 x i8] c"std::unique_ptr<ParentInspectorHandle> node::inspector::Agent::GetParentHandle(uint64_t, const std::string &, const std::string &)\00", align 1
@.str.49 = private unnamed_addr constant [15 x i8] c"WaitForConnect\00", align 1
@_ZZN4node9inspector5Agent14WaitForConnectEvE4args = internal constant %"struct.node::AssertionInfo" { ptr @.str.50, ptr @.str.12, ptr @.str.51 }, align 8
@.str.50 = private unnamed_addr constant [34 x i8] c"../../src/inspector_agent.cc:1003\00", align 1
@.str.51 = private unnamed_addr constant [46 x i8] c"void node::inspector::Agent::WaitForConnect()\00", align 1
@.str.52 = private unnamed_addr constant [17 x i8] c"GetWorkerManager\00", align 1
@_ZZN4node9inspector5Agent16GetWorkerManagerEvE4args = internal constant %"struct.node::AssertionInfo" { ptr @.str.53, ptr @.str.12, ptr @.str.54 }, align 8
@.str.53 = private unnamed_addr constant [34 x i8] c"../../src/inspector_agent.cc:1017\00", align 1
@.str.54 = private unnamed_addr constant [74 x i8] c"std::shared_ptr<WorkerManager> node::inspector::Agent::GetWorkerManager()\00", align 1
@.str.55 = private unnamed_addr constant [1 x i8] zeroinitializer, align 1
@__libc_single_threaded = external global i8, align 1
@_ZTVN4node12DebugOptionsE = external unnamed_addr constant { [5 x ptr] }, align 8
@_ZTVN4node7OptionsE = linkonce_odr dso_local unnamed_addr constant { [5 x ptr] } { [5 x ptr] [ptr null, ptr null, ptr @_ZN4node7Options12CheckOptionsEPSt6vectorINSt7__cxx1112basic_stringIcSt11char_traitsIcESaIcEEESaIS7_EESA_, ptr @_ZN4node7OptionsD2Ev, ptr @_ZN4node7OptionsD0Ev] }, comdat, align 8
@_ZN4node9inspector12_GLOBAL__N_125start_io_thread_semaphoreE = internal global %union.sem_t zeroinitializer, align 8
@_ZZN4node9inspector12_GLOBAL__N_123StartDebugSignalHandlerEvE4args = internal constant %"struct.node::AssertionInfo" { ptr @.str.56, ptr @.str.57, ptr @.str.58 }, align 8
@.str.56 = private unnamed_addr constant [32 x i8] c"../../src/inspector_agent.cc:96\00", align 1
@.str.57 = private unnamed_addr constant [52 x i8] c"(0) == (uv_sem_init(&start_io_thread_semaphore, 0))\00", align 1
@.str.58 = private unnamed_addr constant [70 x i8] c"int node::inspector::(anonymous namespace)::StartDebugSignalHandler()\00", align 1
@_ZZN4node9inspector12_GLOBAL__N_123StartDebugSignalHandlerEvE4args_0 = internal constant %"struct.node::AssertionInfo" { ptr @.str.59, ptr @.str.60, ptr @.str.58 }, align 8
@.str.59 = private unnamed_addr constant [32 x i8] c"../../src/inspector_agent.cc:98\00", align 1
@.str.60 = private unnamed_addr constant [34 x i8] c"(0) == (pthread_attr_init(&attr))\00", align 1
@_ZZN4node9inspector12_GLOBAL__N_123StartDebugSignalHandlerEvE4args_1 = internal constant %"struct.node::AssertionInfo" { ptr @.str.61, ptr @.str.62, ptr @.str.58 }, align 8
@.str.61 = private unnamed_addr constant [33 x i8] c"../../src/inspector_agent.cc:109\00", align 1
@.str.62 = private unnamed_addr constant [54 x i8] c"(0) == (pthread_attr_setstacksize(&attr, stack_size))\00", align 1
@_ZZN4node9inspector12_GLOBAL__N_123StartDebugSignalHandlerEvE4args_2 = internal constant %"struct.node::AssertionInfo" { ptr @.str.63, ptr @.str.64, ptr @.str.58 }, align 8
@.str.63 = private unnamed_addr constant [33 x i8] c"../../src/inspector_agent.cc:111\00", align 1
@.str.64 = private unnamed_addr constant [69 x i8] c"(0) == (pthread_attr_setdetachstate(&attr, PTHREAD_CREATE_DETACHED))\00", align 1
@_ZZN4node9inspector12_GLOBAL__N_123StartDebugSignalHandlerEvE4args_3 = internal constant %"struct.node::AssertionInfo" { ptr @.str.65, ptr @.str.66, ptr @.str.58 }, align 8
@.str.65 = private unnamed_addr constant [33 x i8] c"../../src/inspector_agent.cc:116\00", align 1
@.str.66 = private unnamed_addr constant [49 x i8] c"(0) == (pthread_sigmask(2, &sigmask, &savemask))\00", align 1
@_ZZN4node9inspector12_GLOBAL__N_123StartDebugSignalHandlerEvE4args_4 = internal constant %"struct.node::AssertionInfo" { ptr @.str.67, ptr @.str.68, ptr @.str.58 }, align 8
@.str.67 = private unnamed_addr constant [33 x i8] c"../../src/inspector_agent.cc:122\00", align 1
@.str.68 = private unnamed_addr constant [47 x i8] c"(0) == (pthread_sigmask(2, &sigmask, nullptr))\00", align 1
@_ZZN4node9inspector12_GLOBAL__N_123StartDebugSignalHandlerEvE4args_5 = internal constant %"struct.node::AssertionInfo" { ptr @.str.69, ptr @.str.70, ptr @.str.58 }, align 8
@.str.69 = private unnamed_addr constant [33 x i8] c"../../src/inspector_agent.cc:123\00", align 1
@.str.70 = private unnamed_addr constant [37 x i8] c"(0) == (pthread_attr_destroy(&attr))\00", align 1
@.str.71 = private unnamed_addr constant [30 x i8] c"node[%u]: pthread_create: %s\0A\00", align 1
@_ZZN4node9inspector12_GLOBAL__N_123StartDebugSignalHandlerEvE4args_6 = internal constant %"struct.node::AssertionInfo" { ptr @.str.72, ptr @.str.73, ptr @.str.58 }, align 8
@.str.72 = private unnamed_addr constant [33 x i8] c"../../src/inspector_agent.cc:136\00", align 1
@.str.73 = private unnamed_addr constant [47 x i8] c"(0) == (pthread_sigmask(1, &sigmask, nullptr))\00", align 1
@_ZZN4node9inspector12_GLOBAL__N_117StartIoThreadMainEPvE4args = internal constant %"struct.node::AssertionInfo" { ptr @.str.74, ptr @.str.43, ptr @.str.75 }, align 8
@.str.74 = private unnamed_addr constant [32 x i8] c"../../src/inspector_agent.cc:85\00", align 1
@.str.75 = private unnamed_addr constant [72 x i8] c"void *node::inspector::(anonymous namespace)::StartIoThreadMain(void *)\00", align 1
@_ZZN4node12CleanupQueue3AddEPFvPvES1_E4args = linkonce_odr dso_local constant %"struct.node::AssertionInfo" { ptr @.str.76, ptr @.str.77, ptr @.str.78 }, comdat, align 8
@.str.76 = private unnamed_addr constant [33 x i8] c"../../src/cleanup_queue-inl.h:32\00", align 1
@.str.77 = private unnamed_addr constant [34 x i8] c"(insertion_info.second) == (true)\00", align 1
@.str.78 = private unnamed_addr constant [47 x i8] c"void node::CleanupQueue::Add(Callback, void *)\00", align 1
@"_ZZZZN4node9inspector5Agent5StartERKNSt7__cxx1112basic_stringIcSt11char_traitsIcESaIcEEERKNS_12DebugOptionsESt10shared_ptrINS_15ExclusiveAccessINS_8HostPortENS_9MutexBaseINS_16LibuvMutexTraitsEEEEEEbENK3$_0clEPvENKUlP10uv_async_sE_clESO_E4args" = internal constant %"struct.node::AssertionInfo" { ptr @.str.79, ptr @.str.80, ptr @.str.81 }, align 8
@.str.79 = private unnamed_addr constant [33 x i8] c"../../src/inspector_agent.cc:720\00", align 1
@.str.80 = private unnamed_addr constant [50 x i8] c"start_io_thread_async_initialized.exchange(false)\00", align 1
@.str.81 = private unnamed_addr constant [218 x i8] c"auto node::inspector::Agent::Start(const std::string &, const DebugOptions &, std::shared_ptr<ExclusiveAccess<HostPort>>, bool)::(anonymous class)::operator()(void *)::(anonymous class)::operator()(uv_async_t *) const\00", align 1
@_ZTVSt23_Sp_counted_ptr_inplaceIN4node9inspector19MainThreadInterfaceESaIvELN9__gnu_cxx12_Lock_policyE2EE = linkonce_odr dso_local unnamed_addr constant { [7 x ptr] } { [7 x ptr] [ptr null, ptr null, ptr @_ZNSt23_Sp_counted_ptr_inplaceIN4node9inspector19MainThreadInterfaceESaIvELN9__gnu_cxx12_Lock_policyE2EED2Ev, ptr @_ZNSt23_Sp_counted_ptr_inplaceIN4node9inspector19MainThreadInterfaceESaIvELN9__gnu_cxx12_Lock_policyE2EED0Ev, ptr @_ZNSt23_Sp_counted_ptr_inplaceIN4node9inspector19MainThreadInterfaceESaIvELN9__gnu_cxx12_Lock_policyE2EE10_M_disposeEv, ptr @_ZNSt23_Sp_counted_ptr_inplaceIN4node9inspector19MainThreadInterfaceESaIvELN9__gnu_cxx12_Lock_policyE2EE10_M_destroyEv, ptr @_ZNSt23_Sp_counted_ptr_inplaceIN4node9inspector19MainThreadInterfaceESaIvELN9__gnu_cxx12_Lock_policyE2EE14_M_get_deleterERKSt9type_info] }, comdat, align 8
@_ZTVSt16_Sp_counted_baseILN9__gnu_cxx12_Lock_policyE2EE = linkonce_odr dso_local unnamed_addr constant { [7 x ptr] } { [7 x ptr] [ptr null, ptr null, ptr @_ZNSt16_Sp_counted_baseILN9__gnu_cxx12_Lock_policyE2EED2Ev, ptr @_ZNSt16_Sp_counted_baseILN9__gnu_cxx12_Lock_policyE2EED0Ev, ptr @__cxa_pure_virtual, ptr @_ZNSt16_Sp_counted_baseILN9__gnu_cxx12_Lock_policyE2EE10_M_destroyEv, ptr @__cxa_pure_virtual] }, comdat, align 8
@_ZZNSt19_Sp_make_shared_tag5_S_tiEvE5__tag = linkonce_odr dso_local constant [16 x i8] zeroinitializer, comdat, align 8
@.str.82 = private unnamed_addr constant [57 x i8] c"This Environment was initialized without a V8::Inspector\00", align 1
@.str.83 = private unnamed_addr constant [4 x i8] c"cmd\00", align 1
@.str.84 = private unnamed_addr constant [19 x i8] c"NODE_DEBUG_ENABLED\00", align 1
@.str.85 = private unnamed_addr constant [16 x i8] c"internalMessage\00", align 1
@_ZTVN4node9inspector12_GLOBAL__N_111ChannelImplE = internal unnamed_addr constant { [10 x ptr], [8 x ptr] } { [10 x ptr] [ptr null, ptr null, ptr @_ZN4node9inspector12_GLOBAL__N_111ChannelImplD2Ev, ptr @_ZN4node9inspector12_GLOBAL__N_111ChannelImplD0Ev, ptr @_ZN4node9inspector12_GLOBAL__N_111ChannelImpl12sendResponseEiSt10unique_ptrIN12v8_inspector12StringBufferESt14default_deleteIS5_EE, ptr @_ZN4node9inspector12_GLOBAL__N_111ChannelImpl16sendNotificationESt10unique_ptrIN12v8_inspector12StringBufferESt14default_deleteIS5_EE, ptr @_ZN4node9inspector12_GLOBAL__N_111ChannelImpl26flushProtocolNotificationsEv, ptr @_ZN4node9inspector12_GLOBAL__N_111ChannelImpl20sendProtocolResponseEiSt10unique_ptrINS0_8protocol12SerializableESt14default_deleteIS5_EE, ptr @_ZN4node9inspector12_GLOBAL__N_111ChannelImpl24sendProtocolNotificationESt10unique_ptrINS0_8protocol12SerializableESt14default_deleteIS5_EE, ptr @_ZN4node9inspector12_GLOBAL__N_111ChannelImpl11fallThroughEiRKNSt7__cxx1112basic_stringIcSt11char_traitsIcESaIcEEESA_], [8 x ptr] [ptr inttoptr (i64 -8 to ptr), ptr null, ptr @_ZThn8_N4node9inspector12_GLOBAL__N_111ChannelImplD1Ev, ptr @_ZThn8_N4node9inspector12_GLOBAL__N_111ChannelImplD0Ev, ptr @_ZThn8_N4node9inspector12_GLOBAL__N_111ChannelImpl20sendProtocolResponseEiSt10unique_ptrINS0_8protocol12SerializableESt14default_deleteIS5_EE, ptr @_ZThn8_N4node9inspector12_GLOBAL__N_111ChannelImpl24sendProtocolNotificationESt10unique_ptrINS0_8protocol12SerializableESt14default_deleteIS5_EE, ptr @_ZThn8_N4node9inspector12_GLOBAL__N_111ChannelImpl11fallThroughEiRKNSt7__cxx1112basic_stringIcSt11char_traitsIcESaIcEEESA_, ptr @_ZThn8_N4node9inspector12_GLOBAL__N_111ChannelImpl26flushProtocolNotificationsEv] }, align 8
@_ZTVN12v8_inspector11V8Inspector7ChannelE = linkonce_odr dso_local unnamed_addr constant { [7 x ptr] } { [7 x ptr] [ptr null, ptr null, ptr @_ZN12v8_inspector11V8Inspector7ChannelD2Ev, ptr @_ZN12v8_inspector11V8Inspector7ChannelD0Ev, ptr @__cxa_pure_virtual, ptr @__cxa_pure_virtual, ptr @__cxa_pure_virtual] }, comdat, align 8
@_ZTVN4node9inspector8protocol15FrontendChannelE = linkonce_odr dso_local unnamed_addr constant { [8 x ptr] } { [8 x ptr] [ptr null, ptr null, ptr @_ZN4node9inspector8protocol15FrontendChannelD2Ev, ptr @_ZN4node9inspector8protocol15FrontendChannelD0Ev, ptr @__cxa_pure_virtual, ptr @__cxa_pure_virtual, ptr @__cxa_pure_virtual, ptr @__cxa_pure_virtual] }, comdat, align 8
@_ZN4node11per_process18enabled_debug_listE = external global %"class.node::EnabledDebugList", align 1
@.str.86 = private unnamed_addr constant [21 x i8] c"[inspector send] %s\0A\00", align 1
@_ZZN4node11SPrintFImplIRNSt7__cxx1112basic_stringIcSt11char_traitsIcESaIcEEEJEEES6_PKcOT_DpOT0_E4args = linkonce_odr dso_local constant %"struct.node::AssertionInfo" { ptr @.str.87, ptr @.str.88, ptr @.str.89 }, comdat, align 8
@.str.87 = private unnamed_addr constant [31 x i8] c"../../src/debug_utils-inl.h:79\00", align 1
@.str.88 = private unnamed_addr constant [15 x i8] c"(p) != nullptr\00", align 1
@.str.89 = private unnamed_addr constant [109 x i8] c"std::string node::SPrintFImpl(const char *, Arg &&, Args &&...) [Arg = std::basic_string<char> &, Args = <>]\00", align 1
@.str.90 = private unnamed_addr constant [3 x i8] c"lz\00", align 1
@_ZZN4node11SPrintFImplIRNSt7__cxx1112basic_stringIcSt11char_traitsIcESaIcEEEJEEES6_PKcOT_DpOT0_E4args_0 = linkonce_odr dso_local constant %"struct.node::AssertionInfo" { ptr @.str.91, ptr @.str.92, ptr @.str.89 }, comdat, align 8
@.str.91 = private unnamed_addr constant [32 x i8] c"../../src/debug_utils-inl.h:110\00", align 1
@.str.92 = private unnamed_addr constant [66 x i8] c"std::is_pointer<typename std::remove_reference<Arg>::type>::value\00", align 1
@.str.93 = private unnamed_addr constant [3 x i8] c"%p\00", align 1
@_ZZN4node11SPrintFImplIRNSt7__cxx1112basic_stringIcSt11char_traitsIcESaIcEEEJEEES6_PKcOT_DpOT0_E4args_1 = linkonce_odr dso_local constant %"struct.node::AssertionInfo" { ptr @.str.94, ptr @.str.95, ptr @.str.89 }, comdat, align 8
@.str.94 = private unnamed_addr constant [32 x i8] c"../../src/debug_utils-inl.h:116\00", align 1
@.str.95 = private unnamed_addr constant [11 x i8] c"(n) >= (0)\00", align 1
@_ZZN4node11SPrintFImplB5cxx11EPKcE4args = linkonce_odr dso_local constant %"struct.node::AssertionInfo" { ptr @.str.96, ptr @.str.97, ptr @.str.98 }, comdat, align 8
@.str.96 = private unnamed_addr constant [31 x i8] c"../../src/debug_utils-inl.h:70\00", align 1
@.str.97 = private unnamed_addr constant [16 x i8] c"(p[1]) == ('%')\00", align 1
@.str.98 = private unnamed_addr constant [44 x i8] c"std::string node::SPrintFImpl(const char *)\00", align 1
@_ZSt19piecewise_construct = linkonce_odr dso_local constant %"struct.std::piecewise_construct_t" zeroinitializer, comdat, align 1
@_ZTVN4node9inspector12_GLOBAL__N_126SameThreadInspectorSessionE = internal unnamed_addr constant { [5 x ptr] } { [5 x ptr] [ptr null, ptr null, ptr @_ZN4node9inspector12_GLOBAL__N_126SameThreadInspectorSessionD2Ev, ptr @_ZN4node9inspector12_GLOBAL__N_126SameThreadInspectorSessionD0Ev, ptr @_ZN4node9inspector12_GLOBAL__N_126SameThreadInspectorSession8DispatchERKN12v8_inspector10StringViewE] }, align 8
@_ZTVN4node9inspector16InspectorSessionE = linkonce_odr dso_local unnamed_addr constant { [5 x ptr] } { [5 x ptr] [ptr null, ptr null, ptr @_ZN4node9inspector16InspectorSessionD2Ev, ptr @_ZN4node9inspector16InspectorSessionD0Ev, ptr @__cxa_pure_virtual] }, comdat, align 8
@.str.99 = private unnamed_addr constant [25 x i8] c"[inspector received] %s\0A\00", align 1
@__const._ZN4node9inspector19NodeInspectorClient23ReportUncaughtExceptionEN2v85LocalINS2_5ValueEEENS3_INS2_7MessageEEE.DETAILS = private unnamed_addr constant [9 x i8] c"Uncaught\00", align 1
@.str.100 = private unnamed_addr constant [19 x i8] c"{\22isDefault\22:true}\00", align 1
@.str.101 = private unnamed_addr constant [20 x i8] c"{\22isDefault\22:false}\00", align 1
@_ZTVSt23_Sp_counted_ptr_inplaceIN4node9inspector13WorkerManagerESaIvELN9__gnu_cxx12_Lock_policyE2EE = linkonce_odr dso_local unnamed_addr constant { [7 x ptr] } { [7 x ptr] [ptr null, ptr null, ptr @_ZNSt23_Sp_counted_ptr_inplaceIN4node9inspector13WorkerManagerESaIvELN9__gnu_cxx12_Lock_policyE2EED2Ev, ptr @_ZNSt23_Sp_counted_ptr_inplaceIN4node9inspector13WorkerManagerESaIvELN9__gnu_cxx12_Lock_policyE2EED0Ev, ptr @_ZNSt23_Sp_counted_ptr_inplaceIN4node9inspector13WorkerManagerESaIvELN9__gnu_cxx12_Lock_policyE2EE10_M_disposeEv, ptr @_ZNSt23_Sp_counted_ptr_inplaceIN4node9inspector13WorkerManagerESaIvELN9__gnu_cxx12_Lock_policyE2EE10_M_destroyEv, ptr @_ZNSt23_Sp_counted_ptr_inplaceIN4node9inspector13WorkerManagerESaIvELN9__gnu_cxx12_Lock_policyE2EE14_M_get_deleterERKSt9type_info] }, comdat, align 8
@.str.102 = private unnamed_addr constant [50 x i8] c"basic_string: construction from null is not valid\00", align 1
@_ZZN4node9MutexBaseINS_16LibuvMutexTraitsEEC1EvE4args = linkonce_odr dso_local constant %"struct.node::AssertionInfo" { ptr @.str.103, ptr @.str.104, ptr @.str.105 }, comdat, align 8
@.str.103 = private unnamed_addr constant [27 x i8] c"../../src/node_mutex.h:254\00", align 1
@.str.104 = private unnamed_addr constant [37 x i8] c"(0) == (Traits::mutex_init(&mutex_))\00", align 1
@.str.105 = private unnamed_addr constant [87 x i8] c"node::MutexBase<node::LibuvMutexTraits>::MutexBase() [Traits = node::LibuvMutexTraits]\00", align 1
@_ZTVSt23_Sp_counted_ptr_inplaceIN4node9inspector19NodeInspectorClientESaIvELN9__gnu_cxx12_Lock_policyE2EE = linkonce_odr dso_local unnamed_addr constant { [7 x ptr] } { [7 x ptr] [ptr null, ptr null, ptr @_ZNSt23_Sp_counted_ptr_inplaceIN4node9inspector19NodeInspectorClientESaIvELN9__gnu_cxx12_Lock_policyE2EED2Ev, ptr @_ZNSt23_Sp_counted_ptr_inplaceIN4node9inspector19NodeInspectorClientESaIvELN9__gnu_cxx12_Lock_policyE2EED0Ev, ptr @_ZNSt23_Sp_counted_ptr_inplaceIN4node9inspector19NodeInspectorClientESaIvELN9__gnu_cxx12_Lock_policyE2EE10_M_disposeEv, ptr @_ZNSt23_Sp_counted_ptr_inplaceIN4node9inspector19NodeInspectorClientESaIvELN9__gnu_cxx12_Lock_policyE2EE10_M_destroyEv, ptr @_ZNSt23_Sp_counted_ptr_inplaceIN4node9inspector19NodeInspectorClientESaIvELN9__gnu_cxx12_Lock_policyE2EE14_M_get_deleterERKSt9type_info] }, comdat, align 8
@_ZTVN4node9inspector19NodeInspectorClientE = linkonce_odr dso_local unnamed_addr constant { [35 x ptr] } { [35 x ptr] [ptr null, ptr null, ptr @_ZN4node9inspector19NodeInspectorClientD2Ev, ptr @_ZN4node9inspector19NodeInspectorClientD0Ev, ptr @_ZN4node9inspector19NodeInspectorClient21runMessageLoopOnPauseEi, ptr @_ZN12v8_inspector17V8InspectorClient36runMessageLoopOnInstrumentationPauseEi, ptr @_ZN4node9inspector19NodeInspectorClient22quitMessageLoopOnPauseEv, ptr @_ZN4node9inspector19NodeInspectorClient23runIfWaitingForDebuggerEi, ptr @_ZN12v8_inspector17V8InspectorClient11muteMetricsEi, ptr @_ZN12v8_inspector17V8InspectorClient13unmuteMetricsEi, ptr @_ZN12v8_inspector17V8InspectorClient16beginUserGestureEv, ptr @_ZN12v8_inspector17V8InspectorClient14endUserGestureEv, ptr @_ZN12v8_inspector17V8InspectorClient25serializeToWebDriverValueEN2v85LocalINS1_5ValueEEEi, ptr @_ZN12v8_inspector17V8InspectorClient13deepSerializeEN2v85LocalINS1_5ValueEEEiNS2_INS1_6ObjectEEE, ptr @_ZN12v8_inspector17V8InspectorClient12valueSubtypeEN2v85LocalINS1_5ValueEEE, ptr @_ZN12v8_inspector17V8InspectorClient26descriptionForValueSubtypeEN2v85LocalINS1_7ContextEEENS2_INS1_5ValueEEE, ptr @_ZN12v8_inspector17V8InspectorClient23isInspectableHeapObjectEN2v85LocalINS1_6ObjectEEE, ptr @_ZN4node9inspector19NodeInspectorClient27ensureDefaultContextInGroupEi, ptr @_ZN12v8_inspector17V8InspectorClient29beginEnsureAllContextsInGroupEi, ptr @_ZN12v8_inspector17V8InspectorClient27endEnsureAllContextsInGroupEi, ptr @_ZN4node9inspector19NodeInspectorClient31installAdditionalCommandLineAPIEN2v85LocalINS2_7ContextEEENS3_INS2_6ObjectEEE, ptr @_ZN12v8_inspector17V8InspectorClient17consoleAPIMessageEiN2v87Isolate17MessageErrorLevelERKNS_10StringViewES6_jjPNS_12V8StackTraceE, ptr @_ZN12v8_inspector17V8InspectorClient10memoryInfoEPN2v87IsolateENS1_5LocalINS1_7ContextEEE, ptr @_ZN12v8_inspector17V8InspectorClient11consoleTimeERKNS_10StringViewE, ptr @_ZN12v8_inspector17V8InspectorClient14consoleTimeEndERKNS_10StringViewE, ptr @_ZN12v8_inspector17V8InspectorClient16consoleTimeStampERKNS_10StringViewE, ptr @_ZN12v8_inspector17V8InspectorClient12consoleClearEi, ptr @_ZN4node9inspector19NodeInspectorClient13currentTimeMSEv, ptr @_ZN4node9inspector19NodeInspectorClient19startRepeatingTimerEdPFvPvES2_, ptr @_ZN4node9inspector19NodeInspectorClient11cancelTimerEPv, ptr @_ZN12v8_inspector17V8InspectorClient17canExecuteScriptsEi, ptr @_ZN4node9inspector19NodeInspectorClient29maxAsyncCallStackDepthChangedEi, ptr @_ZN4node9inspector19NodeInspectorClient17resourceNameToUrlERKN12v8_inspector10StringViewE, ptr @_ZN12v8_inspector17V8InspectorClient16generateUniqueIdEv, ptr @_ZN12v8_inspector17V8InspectorClient13dispatchErrorEN2v85LocalINS1_7ContextEEENS2_INS1_7MessageEEENS2_INS1_5ValueEEE] }, comdat, align 8
@_ZTVN12v8_inspector17V8InspectorClientE = linkonce_odr dso_local unnamed_addr constant { [35 x ptr] } { [35 x ptr] [ptr null, ptr null, ptr @_ZN12v8_inspector17V8InspectorClientD2Ev, ptr @_ZN12v8_inspector17V8InspectorClientD0Ev, ptr @_ZN12v8_inspector17V8InspectorClient21runMessageLoopOnPauseEi, ptr @_ZN12v8_inspector17V8InspectorClient36runMessageLoopOnInstrumentationPauseEi, ptr @_ZN12v8_inspector17V8InspectorClient22quitMessageLoopOnPauseEv, ptr @_ZN12v8_inspector17V8InspectorClient23runIfWaitingForDebuggerEi, ptr @_ZN12v8_inspector17V8InspectorClient11muteMetricsEi, ptr @_ZN12v8_inspector17V8InspectorClient13unmuteMetricsEi, ptr @_ZN12v8_inspector17V8InspectorClient16beginUserGestureEv, ptr @_ZN12v8_inspector17V8InspectorClient14endUserGestureEv, ptr @_ZN12v8_inspector17V8InspectorClient25serializeToWebDriverValueEN2v85LocalINS1_5ValueEEEi, ptr @_ZN12v8_inspector17V8InspectorClient13deepSerializeEN2v85LocalINS1_5ValueEEEiNS2_INS1_6ObjectEEE, ptr @_ZN12v8_inspector17V8InspectorClient12valueSubtypeEN2v85LocalINS1_5ValueEEE, ptr @_ZN12v8_inspector17V8InspectorClient26descriptionForValueSubtypeEN2v85LocalINS1_7ContextEEENS2_INS1_5ValueEEE, ptr @_ZN12v8_inspector17V8InspectorClient23isInspectableHeapObjectEN2v85LocalINS1_6ObjectEEE, ptr @_ZN12v8_inspector17V8InspectorClient27ensureDefaultContextInGroupEi, ptr @_ZN12v8_inspector17V8InspectorClient29beginEnsureAllContextsInGroupEi, ptr @_ZN12v8_inspector17V8InspectorClient27endEnsureAllContextsInGroupEi, ptr @_ZN12v8_inspector17V8InspectorClient31installAdditionalCommandLineAPIEN2v85LocalINS1_7ContextEEENS2_INS1_6ObjectEEE, ptr @_ZN12v8_inspector17V8InspectorClient17consoleAPIMessageEiN2v87Isolate17MessageErrorLevelERKNS_10StringViewES6_jjPNS_12V8StackTraceE, ptr @_ZN12v8_inspector17V8InspectorClient10memoryInfoEPN2v87IsolateENS1_5LocalINS1_7ContextEEE, ptr @_ZN12v8_inspector17V8InspectorClient11consoleTimeERKNS_10StringViewE, ptr @_ZN12v8_inspector17V8InspectorClient14consoleTimeEndERKNS_10StringViewE, ptr @_ZN12v8_inspector17V8InspectorClient16consoleTimeStampERKNS_10StringViewE, ptr @_ZN12v8_inspector17V8InspectorClient12consoleClearEi, ptr @_ZN12v8_inspector17V8InspectorClient13currentTimeMSEv, ptr @_ZN12v8_inspector17V8InspectorClient19startRepeatingTimerEdPFvPvES1_, ptr @_ZN12v8_inspector17V8InspectorClient11cancelTimerEPv, ptr @_ZN12v8_inspector17V8InspectorClient17canExecuteScriptsEi, ptr @_ZN12v8_inspector17V8InspectorClient29maxAsyncCallStackDepthChangedEi, ptr @_ZN12v8_inspector17V8InspectorClient17resourceNameToUrlERKNS_10StringViewE, ptr @_ZN12v8_inspector17V8InspectorClient16generateUniqueIdEv, ptr @_ZN12v8_inspector17V8InspectorClient13dispatchErrorEN2v85LocalINS1_7ContextEEENS2_INS1_7MessageEEENS2_INS1_5ValueEEE] }, comdat, align 8
@.str.106 = private unnamed_addr constant [8 x i8] c"Worker[\00", align 1
@.str.107 = private unnamed_addr constant [2 x i8] c"]\00", align 1
@_ZTVN4node15TimerWrapHandleE = external unnamed_addr constant { [10 x ptr] }, align 8
@_ZZN4node9inspector19NodeInspectorClient19startRepeatingTimerEdPFvPvES2_E4args = linkonce_odr dso_local constant %"struct.node::AssertionInfo" { ptr @.str.108, ptr @.str.109, ptr @.str.110 }, comdat, align 8
@.str.108 = private unnamed_addr constant [33 x i8] c"../../src/inspector_agent.cc:550\00", align 1
@.str.109 = private unnamed_addr constant [14 x i8] c"result.second\00", align 1
@.str.110 = private unnamed_addr constant [102 x i8] c"virtual void node::inspector::NodeInspectorClient::startRepeatingTimer(double, TimerCallback, void *)\00", align 1
@_ZTVN4node14MemoryRetainerE = linkonce_odr dso_local unnamed_addr constant { [10 x ptr] } { [10 x ptr] [ptr null, ptr null, ptr @_ZN4node14MemoryRetainerD2Ev, ptr @_ZN4node14MemoryRetainerD0Ev, ptr @__cxa_pure_virtual, ptr @__cxa_pure_virtual, ptr @__cxa_pure_virtual, ptr @_ZNK4node14MemoryRetainer13WrappedObjectEv, ptr @_ZNK4node14MemoryRetainer10IsRootNodeEv, ptr @_ZNK4node14MemoryRetainer15GetDetachednessEv] }, comdat, align 8
@_ZTVN4node9TimerWrapE = linkonce_odr dso_local unnamed_addr constant { [10 x ptr] } { [10 x ptr] [ptr null, ptr null, ptr @_ZN4node9TimerWrapD2Ev, ptr @_ZN4node9TimerWrapD0Ev, ptr @_ZNK4node9TimerWrap10MemoryInfoEPNS_13MemoryTrackerE, ptr @_ZNK4node9TimerWrap14MemoryInfoNameEv, ptr @_ZNK4node9TimerWrap8SelfSizeEv, ptr @_ZNK4node14MemoryRetainer13WrappedObjectEv, ptr @_ZNK4node14MemoryRetainer10IsRootNodeEv, ptr @_ZNK4node14MemoryRetainer15GetDetachednessEv] }, comdat, align 8
@.str.111 = private unnamed_addr constant [10 x i8] c"TimerWrap\00", align 1
@"_ZTVN4node13CallbackQueueIvJPNS_11EnvironmentEEE12CallbackImplIZNS_9inspector5Agent20RequestIoThreadStartEvE3$_0EE" = internal unnamed_addr constant { [5 x ptr] } { [5 x ptr] [ptr null, ptr null, ptr @"_ZN4node13CallbackQueueIvJPNS_11EnvironmentEEE12CallbackImplIZNS_9inspector5Agent20RequestIoThreadStartEvE3$_0ED2Ev", ptr @"_ZN4node13CallbackQueueIvJPNS_11EnvironmentEEE12CallbackImplIZNS_9inspector5Agent20RequestIoThreadStartEvE3$_0ED0Ev", ptr @"_ZN4node13CallbackQueueIvJPNS_11EnvironmentEEE12CallbackImplIZNS_9inspector5Agent20RequestIoThreadStartEvE3$_0E4CallES2_"] }, align 8
@_ZTVN4node13CallbackQueueIvJPNS_11EnvironmentEEE8CallbackE = linkonce_odr dso_local unnamed_addr constant { [5 x ptr] } { [5 x ptr] [ptr null, ptr null, ptr @_ZN4node13CallbackQueueIvJPNS_11EnvironmentEEE8CallbackD2Ev, ptr @_ZN4node13CallbackQueueIvJPNS_11EnvironmentEEE8CallbackD0Ev, ptr @__cxa_pure_virtual] }, comdat, align 8
@_ZTVSt19_Sp_counted_deleterIPN4node9inspector13WorkerManagerESt14default_deleteIS2_ESaIvELN9__gnu_cxx12_Lock_policyE2EE = linkonce_odr dso_local unnamed_addr constant { [7 x ptr] } { [7 x ptr] [ptr null, ptr null, ptr @_ZNSt19_Sp_counted_deleterIPN4node9inspector13WorkerManagerESt14default_deleteIS2_ESaIvELN9__gnu_cxx12_Lock_policyE2EED2Ev, ptr @_ZNSt19_Sp_counted_deleterIPN4node9inspector13WorkerManagerESt14default_deleteIS2_ESaIvELN9__gnu_cxx12_Lock_policyE2EED0Ev, ptr @_ZNSt19_Sp_counted_deleterIPN4node9inspector13WorkerManagerESt14default_deleteIS2_ESaIvELN9__gnu_cxx12_Lock_policyE2EE10_M_disposeEv, ptr @_ZNSt19_Sp_counted_deleterIPN4node9inspector13WorkerManagerESt14default_deleteIS2_ESaIvELN9__gnu_cxx12_Lock_policyE2EE10_M_destroyEv, ptr @_ZNSt19_Sp_counted_deleterIPN4node9inspector13WorkerManagerESt14default_deleteIS2_ESaIvELN9__gnu_cxx12_Lock_policyE2EE14_M_get_deleterERKSt9type_info] }, comdat, align 8
@llvm.global_ctors = appending global [1 x { i32, ptr, ptr }] [{ i32, ptr, ptr } { i32 65535, ptr @_GLOBAL__sub_I_inspector_agent.cc, ptr null }]

@_ZN4node9inspector5AgentC1EPNS_11EnvironmentE = dso_local unnamed_addr alias void (ptr, ptr), ptr @_ZN4node9inspector5AgentC2EPNS_11EnvironmentE
@_ZN4node9inspector5AgentD1Ev = dso_local unnamed_addr alias void (ptr), ptr @_ZN4node9inspector5AgentD2Ev

; Function Attrs: nounwind uwtable
define internal void @__cxx_global_var_init() #0 section ".text.startup" {
entry:
  call void @_ZNSt8ios_base4InitC1Ev(ptr noundef nonnull align 1 dereferenceable(1) @_ZStL8__ioinit)
  %0 = call i32 @__cxa_atexit(ptr @_ZNSt8ios_base4InitD1Ev, ptr @_ZStL8__ioinit, ptr @__dso_handle) #3
  ret void
}

declare void @_ZNSt8ios_base4InitC1Ev(ptr noundef nonnull align 1 dereferenceable(1)) unnamed_addr #1

; Function Attrs: nounwind
declare void @_ZNSt8ios_base4InitD1Ev(ptr noundef nonnull align 1 dereferenceable(1)) unnamed_addr #2

; Function Attrs: nounwind
declare i32 @__cxa_atexit(ptr, ptr, ptr) #3

; Function Attrs: nounwind uwtable
define internal void @__cxx_global_var_init.1() #0 section ".text.startup" {
entry:
  call void @_ZN4node9MutexBaseINS_16LibuvMutexTraitsEEC2Ev(ptr noundef nonnull align 8 dereferenceable(40) @_ZN4node9inspector12_GLOBAL__N_127start_io_thread_async_mutexE)
  %0 = call i32 @__cxa_atexit(ptr @_ZN4node9MutexBaseINS_16LibuvMutexTraitsEED2Ev, ptr @_ZN4node9inspector12_GLOBAL__N_127start_io_thread_async_mutexE, ptr @__dso_handle) #3
  ret void
}

; Function Attrs: mustprogress nounwind uwtable
define linkonce_odr dso_local void @_ZN4node9MutexBaseINS_16LibuvMutexTraitsEEC2Ev(ptr noundef nonnull align 8 dereferenceable(40) %this) unnamed_addr #4 comdat align 2 {
entry:
  %this.addr = alloca ptr, align 8
  store ptr %this, ptr %this.addr, align 8
  %this1 = load ptr, ptr %this.addr, align 8
  br label %do.body

do.body:                                          ; preds = %entry
  %mutex_2 = getelementptr inbounds %"class.node::MutexBase", ptr %this1, i32 0, i32 0
  %call = call noundef i32 @_ZN4node16LibuvMutexTraits10mutex_initEP15pthread_mutex_t(ptr noundef %mutex_2)
  %cmp = icmp eq i32 0, %call
  %lnot = xor i1 %cmp, true
  %lnot3 = xor i1 %lnot, true
  %lnot4 = xor i1 %lnot3, true
  br i1 %lnot4, label %if.then, label %if.end

if.then:                                          ; preds = %do.body
  br label %do.body5

do.body5:                                         ; preds = %if.then
  call void @_ZN4node6AssertERKNS_13AssertionInfoE(ptr noundef nonnull align 8 dereferenceable(24) @_ZZN4node9MutexBaseINS_16LibuvMutexTraitsEEC1EvE4args)
  call void @abort() #14
  unreachable

do.end:                                           ; No predecessors!
  br label %if.end

if.end:                                           ; preds = %do.end, %do.body
  br label %do.end6

do.end6:                                          ; preds = %if.end
  ret void
}

; Function Attrs: mustprogress nounwind uwtable
define linkonce_odr dso_local void @_ZN4node9MutexBaseINS_16LibuvMutexTraitsEED2Ev(ptr noundef nonnull align 8 dereferenceable(40) %this) unnamed_addr #4 comdat align 2 {
entry:
  %this.addr = alloca ptr, align 8
  store ptr %this, ptr %this.addr, align 8
  %this1 = load ptr, ptr %this.addr, align 8
  %mutex_ = getelementptr inbounds %"class.node::MutexBase", ptr %this1, i32 0, i32 0
  call void @_ZN4node16LibuvMutexTraits13mutex_destroyEP15pthread_mutex_t(ptr noundef %mutex_)
  ret void
}

; Function Attrs: mustprogress nounwind uwtable
define dso_local void @_ZN4node9inspector5AgentC2EPNS_11EnvironmentE(ptr noundef nonnull align 8 dereferenceable(186) %this, ptr noundef %env) unnamed_addr #4 align 2 {
entry:
  %this.addr = alloca ptr, align 8
  %env.addr = alloca ptr, align 8
  %ref.tmp = alloca %"class.std::shared_ptr.16", align 8
  store ptr %this, ptr %this.addr, align 8
  store ptr %env, ptr %env.addr, align 8
  %this1 = load ptr, ptr %this.addr, align 8
  %parent_env_ = getelementptr inbounds %"class.node::inspector::Agent", ptr %this1, i32 0, i32 0
  %0 = load ptr, ptr %env.addr, align 8
  store ptr %0, ptr %parent_env_, align 8
  %client_ = getelementptr inbounds %"class.node::inspector::Agent", ptr %this1, i32 0, i32 1
  call void @_ZNSt10shared_ptrIN4node9inspector19NodeInspectorClientEEC2Ev(ptr noundef nonnull align 8 dereferenceable(16) %client_) #3
  %io_ = getelementptr inbounds %"class.node::inspector::Agent", ptr %this1, i32 0, i32 2
  call void @_ZNSt10unique_ptrIN4node9inspector11InspectorIoESt14default_deleteIS2_EEC2IS4_vEEv(ptr noundef nonnull align 8 dereferenceable(8) %io_) #3
  %parent_handle_ = getelementptr inbounds %"class.node::inspector::Agent", ptr %this1, i32 0, i32 3
  call void @_ZNSt10unique_ptrIN4node9inspector21ParentInspectorHandleESt14default_deleteIS2_EEC2IS4_vEEv(ptr noundef nonnull align 8 dereferenceable(8) %parent_handle_) #3
  %path_ = getelementptr inbounds %"class.node::inspector::Agent", ptr %this1, i32 0, i32 4
  call void @_ZNSt7__cxx1112basic_stringIcSt11char_traitsIcESaIcEEC1Ev(ptr noundef nonnull align 8 dereferenceable(32) %path_) #3
  %debug_options_ = getelementptr inbounds %"class.node::inspector::Agent", ptr %this1, i32 0, i32 5
  %1 = load ptr, ptr %env.addr, align 8
  call void @_ZN4node11Environment7optionsEv(ptr sret(%"class.std::shared_ptr.16") align 8 %ref.tmp, ptr noundef nonnull align 8 dereferenceable(2872) %1)
  %call = call noundef ptr @_ZNKSt19__shared_ptr_accessIN4node18EnvironmentOptionsELN9__gnu_cxx12_Lock_policyE2ELb0ELb0EEptEv(ptr noundef nonnull align 1 dereferenceable(1) %ref.tmp) #3
  %call2 = call noundef nonnull align 8 dereferenceable(96) ptr @_ZNK4node18EnvironmentOptions13debug_optionsEv(ptr noundef nonnull align 8 dereferenceable(1144) %call)
  call void @_ZN4node12DebugOptionsC2ERKS0_(ptr noundef nonnull align 8 dereferenceable(96) %debug_options_, ptr noundef nonnull align 8 dereferenceable(96) %call2)
  call void @_ZNSt10shared_ptrIN4node18EnvironmentOptionsEED2Ev(ptr noundef nonnull align 8 dereferenceable(16) %ref.tmp) #3
  %host_port_ = getelementptr inbounds %"class.node::inspector::Agent", ptr %this1, i32 0, i32 6
  %2 = load ptr, ptr %env.addr, align 8
  call void @_ZN4node11Environment19inspector_host_portEv(ptr sret(%"class.std::shared_ptr.10") align 8 %host_port_, ptr noundef nonnull align 8 dereferenceable(2872) %2)
  %pending_enable_async_hook_ = getelementptr inbounds %"class.node::inspector::Agent", ptr %this1, i32 0, i32 7
  store i8 0, ptr %pending_enable_async_hook_, align 8
  %pending_disable_async_hook_ = getelementptr inbounds %"class.node::inspector::Agent", ptr %this1, i32 0, i32 8
  store i8 0, ptr %pending_disable_async_hook_, align 1
  ret void
}

; Function Attrs: mustprogress nounwind uwtable
define linkonce_odr dso_local void @_ZNSt10shared_ptrIN4node9inspector19NodeInspectorClientEEC2Ev(ptr noundef nonnull align 8 dereferenceable(16) %this) unnamed_addr #4 comdat align 2 {
entry:
  %this.addr = alloca ptr, align 8
  store ptr %this, ptr %this.addr, align 8
  %this1 = load ptr, ptr %this.addr, align 8
  call void @_ZNSt12__shared_ptrIN4node9inspector19NodeInspectorClientELN9__gnu_cxx12_Lock_policyE2EEC2Ev(ptr noundef nonnull align 8 dereferenceable(16) %this1) #3
  ret void
}

; Function Attrs: mustprogress nounwind uwtable
define linkonce_odr dso_local void @_ZNSt10unique_ptrIN4node9inspector11InspectorIoESt14default_deleteIS2_EEC2IS4_vEEv(ptr noundef nonnull align 8 dereferenceable(8) %this) unnamed_addr #4 comdat align 2 {
entry:
  %this.addr = alloca ptr, align 8
  store ptr %this, ptr %this.addr, align 8
  %this1 = load ptr, ptr %this.addr, align 8
  %_M_t = getelementptr inbounds %"class.std::unique_ptr", ptr %this1, i32 0, i32 0
  call void @llvm.memset.p0.i64(ptr align 8 %_M_t, i8 0, i64 8, i1 false)
  call void @_ZNSt15__uniq_ptr_dataIN4node9inspector11InspectorIoESt14default_deleteIS2_ELb1ELb1EEC2Ev(ptr noundef nonnull align 8 dereferenceable(8) %_M_t) #3
  ret void
}

; Function Attrs: mustprogress nounwind uwtable
define linkonce_odr dso_local void @_ZNSt10unique_ptrIN4node9inspector21ParentInspectorHandleESt14default_deleteIS2_EEC2IS4_vEEv(ptr noundef nonnull align 8 dereferenceable(8) %this) unnamed_addr #4 comdat align 2 {
entry:
  %this.addr = alloca ptr, align 8
  store ptr %this, ptr %this.addr, align 8
  %this1 = load ptr, ptr %this.addr, align 8
  %_M_t = getelementptr inbounds %"class.std::unique_ptr.2", ptr %this1, i32 0, i32 0
  call void @llvm.memset.p0.i64(ptr align 8 %_M_t, i8 0, i64 8, i1 false)
  call void @_ZNSt15__uniq_ptr_dataIN4node9inspector21ParentInspectorHandleESt14default_deleteIS2_ELb1ELb1EEC2Ev(ptr noundef nonnull align 8 dereferenceable(8) %_M_t) #3
  ret void
}

; Function Attrs: nounwind
declare void @_ZNSt7__cxx1112basic_stringIcSt11char_traitsIcESaIcEEC1Ev(ptr noundef nonnull align 8 dereferenceable(32)) unnamed_addr #2

; Function Attrs: mustprogress nounwind uwtable
define linkonce_odr dso_local void @_ZN4node11Environment7optionsEv(ptr noalias sret(%"class.std::shared_ptr.16") align 8 %agg.result, ptr noundef nonnull align 8 dereferenceable(2872) %this) #4 comdat align 2 {
entry:
  %result.ptr = alloca ptr, align 8
  %this.addr = alloca ptr, align 8
  store ptr %agg.result, ptr %result.ptr, align 8
  store ptr %this, ptr %this.addr, align 8
  %this1 = load ptr, ptr %this.addr, align 8
  %options_ = getelementptr inbounds %"class.node::Environment", ptr %this1, i32 0, i32 40
  call void @_ZNSt10shared_ptrIN4node18EnvironmentOptionsEEC2ERKS2_(ptr noundef nonnull align 8 dereferenceable(16) %agg.result, ptr noundef nonnull align 8 dereferenceable(16) %options_) #3
  ret void
}

; Function Attrs: mustprogress nounwind uwtable
define linkonce_odr dso_local noundef ptr @_ZNKSt19__shared_ptr_accessIN4node18EnvironmentOptionsELN9__gnu_cxx12_Lock_policyE2ELb0ELb0EEptEv(ptr noundef nonnull align 1 dereferenceable(1) %this) #4 comdat align 2 {
entry:
  %this.addr = alloca ptr, align 8
  store ptr %this, ptr %this.addr, align 8
  %this1 = load ptr, ptr %this.addr, align 8
  %call = call noundef ptr @_ZNKSt19__shared_ptr_accessIN4node18EnvironmentOptionsELN9__gnu_cxx12_Lock_policyE2ELb0ELb0EE6_M_getEv(ptr noundef nonnull align 1 dereferenceable(1) %this1) #3
  ret ptr %call
}

; Function Attrs: mustprogress nounwind uwtable
define linkonce_odr dso_local noundef nonnull align 8 dereferenceable(96) ptr @_ZNK4node18EnvironmentOptions13debug_optionsEv(ptr noundef nonnull align 8 dereferenceable(1144) %this) #4 comdat align 2 {
entry:
  %this.addr = alloca ptr, align 8
  store ptr %this, ptr %this.addr, align 8
  %this1 = load ptr, ptr %this.addr, align 8
  %debug_options_ = getelementptr inbounds %"class.node::EnvironmentOptions", ptr %this1, i32 0, i32 99
  ret ptr %debug_options_
}

; Function Attrs: mustprogress nounwind uwtable
define linkonce_odr dso_local void @_ZN4node12DebugOptionsC2ERKS0_(ptr noundef nonnull align 8 dereferenceable(96) %this, ptr noundef nonnull align 8 dereferenceable(96) %0) unnamed_addr #4 comdat align 2 {
entry:
  %this.addr = alloca ptr, align 8
  %.addr = alloca ptr, align 8
  store ptr %this, ptr %this.addr, align 8
  store ptr %0, ptr %.addr, align 8
  %this1 = load ptr, ptr %this.addr, align 8
  %1 = load ptr, ptr %.addr, align 8
  call void @_ZN4node7OptionsC2ERKS0_(ptr noundef nonnull align 8 dereferenceable(8) %this1, ptr noundef nonnull align 8 dereferenceable(8) %1) #3
  store ptr getelementptr inbounds ({ [5 x ptr] }, ptr @_ZTVN4node12DebugOptionsE, i32 0, inrange i32 0, i32 2), ptr %this1, align 8
  %allow_attaching_debugger = getelementptr inbounds %"class.node::DebugOptions", ptr %this1, i32 0, i32 1
  %2 = load ptr, ptr %.addr, align 8
  %allow_attaching_debugger2 = getelementptr inbounds %"class.node::DebugOptions", ptr %2, i32 0, i32 1
  call void @llvm.memcpy.p0.p0.i64(ptr align 8 %allow_attaching_debugger, ptr align 8 %allow_attaching_debugger2, i64 5, i1 false)
  %inspect_publish_uid_string = getelementptr inbounds %"class.node::DebugOptions", ptr %this1, i32 0, i32 6
  %3 = load ptr, ptr %.addr, align 8
  %inspect_publish_uid_string3 = getelementptr inbounds %"class.node::DebugOptions", ptr %3, i32 0, i32 6
  call void @_ZNSt7__cxx1112basic_stringIcSt11char_traitsIcESaIcEEC1ERKS4_(ptr noundef nonnull align 8 dereferenceable(32) %inspect_publish_uid_string, ptr noundef nonnull align 8 dereferenceable(32) %inspect_publish_uid_string3)
  %inspect_publish_uid = getelementptr inbounds %"class.node::DebugOptions", ptr %this1, i32 0, i32 7
  %4 = load ptr, ptr %.addr, align 8
  %inspect_publish_uid4 = getelementptr inbounds %"class.node::DebugOptions", ptr %4, i32 0, i32 7
  call void @llvm.memcpy.p0.p0.i64(ptr align 8 %inspect_publish_uid, ptr align 8 %inspect_publish_uid4, i64 2, i1 false)
  %host_port = getelementptr inbounds %"class.node::DebugOptions", ptr %this1, i32 0, i32 9
  %5 = load ptr, ptr %.addr, align 8
  %host_port5 = getelementptr inbounds %"class.node::DebugOptions", ptr %5, i32 0, i32 9
  call void @_ZN4node8HostPortC2ERKS0_(ptr noundef nonnull align 8 dereferenceable(34) %host_port, ptr noundef nonnull align 8 dereferenceable(34) %host_port5)
  ret void
}

; Function Attrs: mustprogress nounwind uwtable
define linkonce_odr dso_local void @_ZNSt10shared_ptrIN4node18EnvironmentOptionsEED2Ev(ptr noundef nonnull align 8 dereferenceable(16) %this) unnamed_addr #4 comdat align 2 {
entry:
  %this.addr = alloca ptr, align 8
  store ptr %this, ptr %this.addr, align 8
  %this1 = load ptr, ptr %this.addr, align 8
  call void @_ZNSt12__shared_ptrIN4node18EnvironmentOptionsELN9__gnu_cxx12_Lock_policyE2EED2Ev(ptr noundef nonnull align 8 dereferenceable(16) %this1) #3
  ret void
}

; Function Attrs: mustprogress nounwind uwtable
define linkonce_odr dso_local void @_ZN4node11Environment19inspector_host_portEv(ptr noalias sret(%"class.std::shared_ptr.10") align 8 %agg.result, ptr noundef nonnull align 8 dereferenceable(2872) %this) #4 comdat align 2 {
entry:
  %result.ptr = alloca ptr, align 8
  %this.addr = alloca ptr, align 8
  store ptr %agg.result, ptr %result.ptr, align 8
  store ptr %this, ptr %this.addr, align 8
  %this1 = load ptr, ptr %this.addr, align 8
  %inspector_host_port_ = getelementptr inbounds %"class.node::Environment", ptr %this1, i32 0, i32 41
  call void @_ZNSt10shared_ptrIN4node15ExclusiveAccessINS0_8HostPortENS0_9MutexBaseINS0_16LibuvMutexTraitsEEEEEEC2ERKS7_(ptr noundef nonnull align 8 dereferenceable(16) %agg.result, ptr noundef nonnull align 8 dereferenceable(16) %inspector_host_port_) #3
  ret void
}

; Function Attrs: mustprogress nounwind uwtable
define dso_local void @_ZN4node9inspector5AgentD2Ev(ptr noundef nonnull align 8 dereferenceable(186) %this) unnamed_addr #4 align 2 {
entry:
  %this.addr = alloca ptr, align 8
  store ptr %this, ptr %this.addr, align 8
  %this1 = load ptr, ptr %this.addr, align 8
  %host_port_ = getelementptr inbounds %"class.node::inspector::Agent", ptr %this1, i32 0, i32 6
  call void @_ZNSt10shared_ptrIN4node15ExclusiveAccessINS0_8HostPortENS0_9MutexBaseINS0_16LibuvMutexTraitsEEEEEED2Ev(ptr noundef nonnull align 8 dereferenceable(16) %host_port_) #3
  %debug_options_ = getelementptr inbounds %"class.node::inspector::Agent", ptr %this1, i32 0, i32 5
  call void @_ZN4node12DebugOptionsD2Ev(ptr noundef nonnull align 8 dereferenceable(96) %debug_options_) #3
  %path_ = getelementptr inbounds %"class.node::inspector::Agent", ptr %this1, i32 0, i32 4
  call void @_ZNSt7__cxx1112basic_stringIcSt11char_traitsIcESaIcEED1Ev(ptr noundef nonnull align 8 dereferenceable(32) %path_) #3
  %parent_handle_ = getelementptr inbounds %"class.node::inspector::Agent", ptr %this1, i32 0, i32 3
  call void @_ZNSt10unique_ptrIN4node9inspector21ParentInspectorHandleESt14default_deleteIS2_EED2Ev(ptr noundef nonnull align 8 dereferenceable(8) %parent_handle_) #3
  %io_ = getelementptr inbounds %"class.node::inspector::Agent", ptr %this1, i32 0, i32 2
  call void @_ZNSt10unique_ptrIN4node9inspector11InspectorIoESt14default_deleteIS2_EED2Ev(ptr noundef nonnull align 8 dereferenceable(8) %io_) #3
  %client_ = getelementptr inbounds %"class.node::inspector::Agent", ptr %this1, i32 0, i32 1
  call void @_ZNSt10shared_ptrIN4node9inspector19NodeInspectorClientEED2Ev(ptr noundef nonnull align 8 dereferenceable(16) %client_) #3
  ret void
}

; Function Attrs: mustprogress nounwind uwtable
define linkonce_odr dso_local void @_ZNSt10shared_ptrIN4node15ExclusiveAccessINS0_8HostPortENS0_9MutexBaseINS0_16LibuvMutexTraitsEEEEEED2Ev(ptr noundef nonnull align 8 dereferenceable(16) %this) unnamed_addr #4 comdat align 2 {
entry:
  %this.addr = alloca ptr, align 8
  store ptr %this, ptr %this.addr, align 8
  %this1 = load ptr, ptr %this.addr, align 8
  call void @_ZNSt12__shared_ptrIN4node15ExclusiveAccessINS0_8HostPortENS0_9MutexBaseINS0_16LibuvMutexTraitsEEEEELN9__gnu_cxx12_Lock_policyE2EED2Ev(ptr noundef nonnull align 8 dereferenceable(16) %this1) #3
  ret void
}

; Function Attrs: mustprogress nounwind uwtable
define linkonce_odr dso_local void @_ZN4node12DebugOptionsD2Ev(ptr noundef nonnull align 8 dereferenceable(96) %this) unnamed_addr #4 comdat align 2 {
entry:
  %this.addr = alloca ptr, align 8
  store ptr %this, ptr %this.addr, align 8
  %this1 = load ptr, ptr %this.addr, align 8
  store ptr getelementptr inbounds ({ [5 x ptr] }, ptr @_ZTVN4node12DebugOptionsE, i32 0, inrange i32 0, i32 2), ptr %this1, align 8
  %host_port = getelementptr inbounds %"class.node::DebugOptions", ptr %this1, i32 0, i32 9
  call void @_ZN4node8HostPortD2Ev(ptr noundef nonnull align 8 dereferenceable(34) %host_port) #3
  %inspect_publish_uid_string = getelementptr inbounds %"class.node::DebugOptions", ptr %this1, i32 0, i32 6
  call void @_ZNSt7__cxx1112basic_stringIcSt11char_traitsIcESaIcEED1Ev(ptr noundef nonnull align 8 dereferenceable(32) %inspect_publish_uid_string) #3
  call void @_ZN4node7OptionsD2Ev(ptr noundef nonnull align 8 dereferenceable(8) %this1) #3
  ret void
}

; Function Attrs: nounwind
declare void @_ZNSt7__cxx1112basic_stringIcSt11char_traitsIcESaIcEED1Ev(ptr noundef nonnull align 8 dereferenceable(32)) unnamed_addr #2

; Function Attrs: mustprogress nounwind uwtable
define linkonce_odr dso_local void @_ZNSt10unique_ptrIN4node9inspector21ParentInspectorHandleESt14default_deleteIS2_EED2Ev(ptr noundef nonnull align 8 dereferenceable(8) %this) unnamed_addr #4 comdat align 2 {
entry:
  %this.addr = alloca ptr, align 8
  %__ptr = alloca ptr, align 8
  store ptr %this, ptr %this.addr, align 8
  %this1 = load ptr, ptr %this.addr, align 8
  %_M_t = getelementptr inbounds %"class.std::unique_ptr.2", ptr %this1, i32 0, i32 0
  %call = call noundef nonnull align 8 dereferenceable(8) ptr @_ZNSt15__uniq_ptr_implIN4node9inspector21ParentInspectorHandleESt14default_deleteIS2_EE6_M_ptrEv(ptr noundef nonnull align 8 dereferenceable(8) %_M_t) #3
  store ptr %call, ptr %__ptr, align 8
  %0 = load ptr, ptr %__ptr, align 8
  %1 = load ptr, ptr %0, align 8
  %cmp = icmp ne ptr %1, null
  br i1 %cmp, label %if.then, label %if.end

if.then:                                          ; preds = %entry
  %call2 = call noundef nonnull align 1 dereferenceable(1) ptr @_ZNSt10unique_ptrIN4node9inspector21ParentInspectorHandleESt14default_deleteIS2_EE11get_deleterEv(ptr noundef nonnull align 8 dereferenceable(8) %this1) #3
  %2 = load ptr, ptr %__ptr, align 8
  %3 = load ptr, ptr %2, align 8
  call void @_ZNKSt14default_deleteIN4node9inspector21ParentInspectorHandleEEclEPS2_(ptr noundef nonnull align 1 dereferenceable(1) %call2, ptr noundef %3)
  br label %if.end

if.end:                                           ; preds = %if.then, %entry
  %4 = load ptr, ptr %__ptr, align 8
  store ptr null, ptr %4, align 8
  ret void
}

; Function Attrs: mustprogress nounwind uwtable
define linkonce_odr dso_local void @_ZNSt10unique_ptrIN4node9inspector11InspectorIoESt14default_deleteIS2_EED2Ev(ptr noundef nonnull align 8 dereferenceable(8) %this) unnamed_addr #4 comdat align 2 {
entry:
  %this.addr = alloca ptr, align 8
  %__ptr = alloca ptr, align 8
  store ptr %this, ptr %this.addr, align 8
  %this1 = load ptr, ptr %this.addr, align 8
  %_M_t = getelementptr inbounds %"class.std::unique_ptr", ptr %this1, i32 0, i32 0
  %call = call noundef nonnull align 8 dereferenceable(8) ptr @_ZNSt15__uniq_ptr_implIN4node9inspector11InspectorIoESt14default_deleteIS2_EE6_M_ptrEv(ptr noundef nonnull align 8 dereferenceable(8) %_M_t) #3
  store ptr %call, ptr %__ptr, align 8
  %0 = load ptr, ptr %__ptr, align 8
  %1 = load ptr, ptr %0, align 8
  %cmp = icmp ne ptr %1, null
  br i1 %cmp, label %if.then, label %if.end

if.then:                                          ; preds = %entry
  %call2 = call noundef nonnull align 1 dereferenceable(1) ptr @_ZNSt10unique_ptrIN4node9inspector11InspectorIoESt14default_deleteIS2_EE11get_deleterEv(ptr noundef nonnull align 8 dereferenceable(8) %this1) #3
  %2 = load ptr, ptr %__ptr, align 8
  %3 = load ptr, ptr %2, align 8
  call void @_ZNKSt14default_deleteIN4node9inspector11InspectorIoEEclEPS2_(ptr noundef nonnull align 1 dereferenceable(1) %call2, ptr noundef %3)
  br label %if.end

if.end:                                           ; preds = %if.then, %entry
  %4 = load ptr, ptr %__ptr, align 8
  store ptr null, ptr %4, align 8
  ret void
}

; Function Attrs: mustprogress nounwind uwtable
define linkonce_odr dso_local void @_ZNSt10shared_ptrIN4node9inspector19NodeInspectorClientEED2Ev(ptr noundef nonnull align 8 dereferenceable(16) %this) unnamed_addr #4 comdat align 2 {
entry:
  %this.addr = alloca ptr, align 8
  store ptr %this, ptr %this.addr, align 8
  %this1 = load ptr, ptr %this.addr, align 8
  call void @_ZNSt12__shared_ptrIN4node9inspector19NodeInspectorClientELN9__gnu_cxx12_Lock_policyE2EED2Ev(ptr noundef nonnull align 8 dereferenceable(16) %this1) #3
  ret void
}

; Function Attrs: mustprogress nounwind uwtable
define dso_local noundef zeroext i1 @_ZN4node9inspector5Agent5StartERKNSt7__cxx1112basic_stringIcSt11char_traitsIcESaIcEEERKNS_12DebugOptionsESt10shared_ptrINS_15ExclusiveAccessINS_8HostPortENS_9MutexBaseINS_16LibuvMutexTraitsEEEEEEb(ptr noundef nonnull align 8 dereferenceable(186) %this, ptr noundef nonnull align 8 dereferenceable(32) %path, ptr noundef nonnull align 8 dereferenceable(96) %options, ptr noundef %host_port, i1 noundef zeroext %is_main) #4 align 2 {
entry:
  %retval = alloca i1, align 1
  %this.addr = alloca ptr, align 8
  %path.addr = alloca ptr, align 8
  %options.addr = alloca ptr, align 8
  %host_port.indirect_addr = alloca ptr, align 8
  %is_main.addr = alloca i8, align 1
  %ref.tmp = alloca %"class.std::shared_ptr", align 8
  %lock = alloca %"class.node::MutexBase<node::LibuvMutexTraits>::ScopedLock", align 8
  %ref.tmp43 = alloca %class.anon, align 1
  %ref.tmp48 = alloca %class.anon.270, align 1
  %wait_for_connect = alloca i8, align 1
  %agg.tmp = alloca %"class.std::shared_ptr.272", align 8
  %ref.tmp88 = alloca %"class.std::shared_ptr.16", align 8
  store ptr %this, ptr %this.addr, align 8
  store ptr %path, ptr %path.addr, align 8
  store ptr %options, ptr %options.addr, align 8
  store ptr %host_port, ptr %host_port.indirect_addr, align 8
  %frombool = zext i1 %is_main to i8
  store i8 %frombool, ptr %is_main.addr, align 1
  %this1 = load ptr, ptr %this.addr, align 8
  %0 = load ptr, ptr %path.addr, align 8
  %path_ = getelementptr inbounds %"class.node::inspector::Agent", ptr %this1, i32 0, i32 4
  %call = call noundef nonnull align 8 dereferenceable(32) ptr @_ZNSt7__cxx1112basic_stringIcSt11char_traitsIcESaIcEEaSERKS4_(ptr noundef nonnull align 8 dereferenceable(32) %path_, ptr noundef nonnull align 8 dereferenceable(32) %0)
  %1 = load ptr, ptr %options.addr, align 8
  %debug_options_ = getelementptr inbounds %"class.node::inspector::Agent", ptr %this1, i32 0, i32 5
  %call2 = call noundef nonnull align 8 dereferenceable(96) ptr @_ZN4node12DebugOptionsaSERKS0_(ptr noundef nonnull align 8 dereferenceable(96) %debug_options_, ptr noundef nonnull align 8 dereferenceable(96) %1)
  br label %do.body

do.body:                                          ; preds = %entry
  %call3 = call noundef zeroext i1 @_ZStneIN4node15ExclusiveAccessINS0_8HostPortENS0_9MutexBaseINS0_16LibuvMutexTraitsEEEEEEbRKSt10shared_ptrIT_EDn(ptr noundef nonnull align 8 dereferenceable(16) %host_port, ptr null) #3
  %lnot = xor i1 %call3, true
  %lnot4 = xor i1 %lnot, true
  %lnot5 = xor i1 %lnot4, true
  br i1 %lnot5, label %if.then, label %if.end

if.then:                                          ; preds = %do.body
  br label %do.body6

do.body6:                                         ; preds = %if.then
  call void @_ZN4node6AssertERKNS_13AssertionInfoE(ptr noundef nonnull align 8 dereferenceable(24) @_ZZN4node9inspector5Agent5StartERKNSt7__cxx1112basic_stringIcSt11char_traitsIcESaIcEEERKNS_12DebugOptionsESt10shared_ptrINS_15ExclusiveAccessINS_8HostPortENS_9MutexBaseINS_16LibuvMutexTraitsEEEEEEbE4args)
  call void @abort() #14
  unreachable

do.end:                                           ; No predecessors!
  br label %if.end

if.end:                                           ; preds = %do.end, %do.body
  br label %do.end7

do.end7:                                          ; preds = %if.end
  %host_port_ = getelementptr inbounds %"class.node::inspector::Agent", ptr %this1, i32 0, i32 6
  %call8 = call noundef nonnull align 8 dereferenceable(16) ptr @_ZNSt10shared_ptrIN4node15ExclusiveAccessINS0_8HostPortENS0_9MutexBaseINS0_16LibuvMutexTraitsEEEEEEaSERKS7_(ptr noundef nonnull align 8 dereferenceable(16) %host_port_, ptr noundef nonnull align 8 dereferenceable(16) %host_port) #3
  %parent_env_ = getelementptr inbounds %"class.node::inspector::Agent", ptr %this1, i32 0, i32 0
  call void @_ZSt11make_sharedIN4node9inspector19NodeInspectorClientEJRPNS0_11EnvironmentERbEESt10shared_ptrINSt9enable_ifIXntsr8is_arrayIT_EE5valueES9_E4typeEEDpOT0_(ptr sret(%"class.std::shared_ptr") align 8 %ref.tmp, ptr noundef nonnull align 8 dereferenceable(8) %parent_env_, ptr noundef nonnull align 1 dereferenceable(1) %is_main.addr)
  %client_ = getelementptr inbounds %"class.node::inspector::Agent", ptr %this1, i32 0, i32 1
  %call9 = call noundef nonnull align 8 dereferenceable(16) ptr @_ZNSt10shared_ptrIN4node9inspector19NodeInspectorClientEEaSEOS3_(ptr noundef nonnull align 8 dereferenceable(16) %client_, ptr noundef nonnull align 8 dereferenceable(16) %ref.tmp) #3
  call void @_ZNSt10shared_ptrIN4node9inspector19NodeInspectorClientEED2Ev(ptr noundef nonnull align 8 dereferenceable(16) %ref.tmp) #3
  %parent_env_10 = getelementptr inbounds %"class.node::inspector::Agent", ptr %this1, i32 0, i32 0
  %2 = load ptr, ptr %parent_env_10, align 8
  %call11 = call noundef zeroext i1 @_ZNK4node11Environment14owns_inspectorEv(ptr noundef nonnull align 8 dereferenceable(2872) %2)
  br i1 %call11, label %if.then12, label %if.end46

if.then12:                                        ; preds = %do.end7
  call void @_ZN4node9MutexBaseINS_16LibuvMutexTraitsEE10ScopedLockC2ERKS2_(ptr noundef nonnull align 8 dereferenceable(8) %lock, ptr noundef nonnull align 8 dereferenceable(40) @_ZN4node9inspector12_GLOBAL__N_127start_io_thread_async_mutexE)
  br label %do.body13

do.body13:                                        ; preds = %if.then12
  %call14 = call noundef zeroext i1 @_ZNSt6atomicIbE8exchangeEbSt12memory_order(ptr noundef nonnull align 1 dereferenceable(1) @_ZN4node9inspector12_GLOBAL__N_133start_io_thread_async_initializedE, i1 noundef zeroext true, i32 noundef 5) #3
  %conv = zext i1 %call14 to i32
  %cmp = icmp eq i32 %conv, 0
  %lnot15 = xor i1 %cmp, true
  %lnot16 = xor i1 %lnot15, true
  %lnot17 = xor i1 %lnot16, true
  br i1 %lnot17, label %if.then19, label %if.end22

if.then19:                                        ; preds = %do.body13
  br label %do.body20

do.body20:                                        ; preds = %if.then19
  call void @_ZN4node6AssertERKNS_13AssertionInfoE(ptr noundef nonnull align 8 dereferenceable(24) @_ZZN4node9inspector5Agent5StartERKNSt7__cxx1112basic_stringIcSt11char_traitsIcESaIcEEERKNS_12DebugOptionsESt10shared_ptrINS_15ExclusiveAccessINS_8HostPortENS_9MutexBaseINS_16LibuvMutexTraitsEEEEEEbE4args_0)
  call void @abort() #14
  unreachable

do.cond:                                          ; No predecessors!
  br label %do.end21

do.end21:                                         ; preds = %do.cond
  br label %if.end22

if.end22:                                         ; preds = %do.end21, %do.body13
  br label %do.cond23

do.cond23:                                        ; preds = %if.end22
  br label %do.end24

do.end24:                                         ; preds = %do.cond23
  br label %do.body25

do.body25:                                        ; preds = %do.end24
  %parent_env_26 = getelementptr inbounds %"class.node::inspector::Agent", ptr %this1, i32 0, i32 0
  %3 = load ptr, ptr %parent_env_26, align 8
  %call27 = call noundef ptr @_ZNK4node11Environment10event_loopEv(ptr noundef nonnull align 8 dereferenceable(2872) %3)
  %call28 = call i32 @uv_async_init(ptr noundef %call27, ptr noundef @_ZN4node9inspector12_GLOBAL__N_121start_io_thread_asyncE, ptr noundef @_ZN4node9inspector12_GLOBAL__N_126StartIoThreadAsyncCallbackEP10uv_async_s)
  %cmp29 = icmp eq i32 0, %call28
  %lnot30 = xor i1 %cmp29, true
  %lnot31 = xor i1 %lnot30, true
  %lnot32 = xor i1 %lnot31, true
  br i1 %lnot32, label %if.then34, label %if.end38

if.then34:                                        ; preds = %do.body25
  br label %do.body35

do.body35:                                        ; preds = %if.then34
  call void @_ZN4node6AssertERKNS_13AssertionInfoE(ptr noundef nonnull align 8 dereferenceable(24) @_ZZN4node9inspector5Agent5StartERKNSt7__cxx1112basic_stringIcSt11char_traitsIcESaIcEEERKNS_12DebugOptionsESt10shared_ptrINS_15ExclusiveAccessINS_8HostPortENS_9MutexBaseINS_16LibuvMutexTraitsEEEEEEbE4args_1)
  call void @abort() #14
  unreachable

do.cond36:                                        ; No predecessors!
  br label %do.end37

do.end37:                                         ; preds = %do.cond36
  br label %if.end38

if.end38:                                         ; preds = %do.end37, %do.body25
  br label %do.cond39

do.cond39:                                        ; preds = %if.end38
  br label %do.end40

do.end40:                                         ; preds = %do.cond39
  call void @uv_unref(ptr noundef @_ZN4node9inspector12_GLOBAL__N_121start_io_thread_asyncE)
  store ptr %this1, ptr @_ZN4node9inspector12_GLOBAL__N_121start_io_thread_asyncE, align 8
  %call41 = call noundef i32 @_ZN4node9inspector12_GLOBAL__N_123StartDebugSignalHandlerEv()
  %parent_env_42 = getelementptr inbounds %"class.node::inspector::Agent", ptr %this1, i32 0, i32 0
  %4 = load ptr, ptr %parent_env_42, align 8
  %call44 = call noundef ptr @"_ZZN4node9inspector5Agent5StartERKNSt7__cxx1112basic_stringIcSt11char_traitsIcESaIcEEERKNS_12DebugOptionsESt10shared_ptrINS_15ExclusiveAccessINS_8HostPortENS_9MutexBaseINS_16LibuvMutexTraitsEEEEEEbENK3$_0cvPFvPvEEv"(ptr noundef nonnull align 1 dereferenceable(1) %ref.tmp43) #3
  %parent_env_45 = getelementptr inbounds %"class.node::inspector::Agent", ptr %this1, i32 0, i32 0
  %5 = load ptr, ptr %parent_env_45, align 8
  call void @_ZN4node11Environment14AddCleanupHookEPFvPvES1_(ptr noundef nonnull align 8 dereferenceable(2872) %4, ptr noundef %call44, ptr noundef %5)
  call void @_ZN4node9MutexBaseINS_16LibuvMutexTraitsEE10ScopedLockD2Ev(ptr noundef nonnull align 8 dereferenceable(8) %lock) #3
  br label %if.end46

if.end46:                                         ; preds = %do.end40, %do.end7
  %parent_env_47 = getelementptr inbounds %"class.node::inspector::Agent", ptr %this1, i32 0, i32 0
  %6 = load ptr, ptr %parent_env_47, align 8
  %call49 = call noundef ptr @"_ZZN4node9inspector5Agent5StartERKNSt7__cxx1112basic_stringIcSt11char_traitsIcESaIcEEERKNS_12DebugOptionsESt10shared_ptrINS_15ExclusiveAccessINS_8HostPortENS_9MutexBaseINS_16LibuvMutexTraitsEEEEEEbENK3$_1cvPFvPvEEv"(ptr noundef nonnull align 1 dereferenceable(1) %ref.tmp48) #3
  %parent_env_50 = getelementptr inbounds %"class.node::inspector::Agent", ptr %this1, i32 0, i32 0
  %7 = load ptr, ptr %parent_env_50, align 8
  call void @_ZN4node6AtExitEPNS_11EnvironmentEPFvPvES2_(ptr noundef %6, ptr noundef %call49, ptr noundef %7)
  %8 = load ptr, ptr %options.addr, align 8
  %call51 = call noundef zeroext i1 @_ZNK4node12DebugOptions16wait_for_connectEv(ptr noundef nonnull align 8 dereferenceable(96) %8)
  %frombool52 = zext i1 %call51 to i8
  store i8 %frombool52, ptr %wait_for_connect, align 1
  %parent_handle_ = getelementptr inbounds %"class.node::inspector::Agent", ptr %this1, i32 0, i32 3
  %call53 = call noundef zeroext i1 @_ZNKSt10unique_ptrIN4node9inspector21ParentInspectorHandleESt14default_deleteIS2_EEcvbEv(ptr noundef nonnull align 8 dereferenceable(8) %parent_handle_) #3
  br i1 %call53, label %if.then54, label %if.else

if.then54:                                        ; preds = %if.end46
  %parent_handle_55 = getelementptr inbounds %"class.node::inspector::Agent", ptr %this1, i32 0, i32 3
  %call56 = call noundef ptr @_ZNKSt10unique_ptrIN4node9inspector21ParentInspectorHandleESt14default_deleteIS2_EEptEv(ptr noundef nonnull align 8 dereferenceable(8) %parent_handle_55) #3
  %call57 = call noundef zeroext i1 @_ZN4node9inspector21ParentInspectorHandle14WaitForConnectEv(ptr noundef nonnull align 8 dereferenceable(96) %call56)
  %frombool58 = zext i1 %call57 to i8
  store i8 %frombool58, ptr %wait_for_connect, align 1
  %parent_handle_59 = getelementptr inbounds %"class.node::inspector::Agent", ptr %this1, i32 0, i32 3
  %call60 = call noundef ptr @_ZNKSt10unique_ptrIN4node9inspector21ParentInspectorHandleESt14default_deleteIS2_EEptEv(ptr noundef nonnull align 8 dereferenceable(8) %parent_handle_59) #3
  %client_61 = getelementptr inbounds %"class.node::inspector::Agent", ptr %this1, i32 0, i32 1
  %call62 = call noundef ptr @_ZNKSt19__shared_ptr_accessIN4node9inspector19NodeInspectorClientELN9__gnu_cxx12_Lock_policyE2ELb0ELb0EEptEv(ptr noundef nonnull align 1 dereferenceable(1) %client_61) #3
  call void @_ZN4node9inspector19NodeInspectorClient15getThreadHandleEv(ptr sret(%"class.std::shared_ptr.272") align 8 %agg.tmp, ptr noundef nonnull align 8 dereferenceable(184) %call62)
  %9 = load i8, ptr %wait_for_connect, align 1
  %tobool = trunc i8 %9 to i1
  call void @_ZN4node9inspector21ParentInspectorHandle13WorkerStartedESt10shared_ptrINS0_16MainThreadHandleEEb(ptr noundef nonnull align 8 dereferenceable(96) %call60, ptr noundef %agg.tmp, i1 noundef zeroext %tobool)
  call void @_ZNSt10shared_ptrIN4node9inspector16MainThreadHandleEED2Ev(ptr noundef nonnull align 8 dereferenceable(16) %agg.tmp) #3
  br label %if.end69

if.else:                                          ; preds = %if.end46
  %10 = load ptr, ptr %options.addr, align 8
  %inspector_enabled = getelementptr inbounds %"class.node::DebugOptions", ptr %10, i32 0, i32 2
  %11 = load i8, ptr %inspector_enabled, align 1
  %tobool63 = trunc i8 %11 to i1
  br i1 %tobool63, label %lor.lhs.false, label %if.then67

lor.lhs.false:                                    ; preds = %if.else
  %12 = load ptr, ptr %options.addr, align 8
  %allow_attaching_debugger = getelementptr inbounds %"class.node::DebugOptions", ptr %12, i32 0, i32 1
  %13 = load i8, ptr %allow_attaching_debugger, align 8
  %tobool64 = trunc i8 %13 to i1
  br i1 %tobool64, label %lor.lhs.false65, label %if.then67

lor.lhs.false65:                                  ; preds = %lor.lhs.false
  %call66 = call noundef zeroext i1 @_ZN4node9inspector5Agent13StartIoThreadEv(ptr noundef nonnull align 8 dereferenceable(186) %this1)
  br i1 %call66, label %if.end68, label %if.then67

if.then67:                                        ; preds = %lor.lhs.false65, %lor.lhs.false, %if.else
  store i1 false, ptr %retval, align 1
  br label %return

if.end68:                                         ; preds = %lor.lhs.false65
  br label %if.end69

if.end69:                                         ; preds = %if.end68, %if.then54
  %14 = load i8, ptr %wait_for_connect, align 1
  %tobool70 = trunc i8 %14 to i1
  br i1 %tobool70, label %if.then71, label %if.end94

if.then71:                                        ; preds = %if.end69
  br label %do.body72

do.body72:                                        ; preds = %if.then71
  %parent_env_73 = getelementptr inbounds %"class.node::inspector::Agent", ptr %this1, i32 0, i32 0
  %15 = load ptr, ptr %parent_env_73, align 8
  %call74 = call noundef zeroext i1 @_ZNK4node11Environment22has_serialized_optionsEv(ptr noundef nonnull align 8 dereferenceable(2872) %15)
  %lnot75 = xor i1 %call74, true
  %lnot76 = xor i1 %lnot75, true
  %lnot77 = xor i1 %lnot76, true
  %lnot78 = xor i1 %lnot77, true
  br i1 %lnot78, label %if.then80, label %if.end84

if.then80:                                        ; preds = %do.body72
  br label %do.body81

do.body81:                                        ; preds = %if.then80
  call void @_ZN4node6AssertERKNS_13AssertionInfoE(ptr noundef nonnull align 8 dereferenceable(24) @_ZZN4node9inspector5Agent5StartERKNSt7__cxx1112basic_stringIcSt11char_traitsIcESaIcEEERKNS_12DebugOptionsESt10shared_ptrINS_15ExclusiveAccessINS_8HostPortENS_9MutexBaseINS_16LibuvMutexTraitsEEEEEEbE4args_2)
  call void @abort() #14
  unreachable

do.end83:                                         ; No predecessors!
  br label %if.end84

if.end84:                                         ; preds = %do.end83, %do.body72
  br label %do.end86

do.end86:                                         ; preds = %if.end84
  %debug_options_87 = getelementptr inbounds %"class.node::inspector::Agent", ptr %this1, i32 0, i32 5
  call void @_ZN4node12DebugOptions20EnableBreakFirstLineEv(ptr noundef nonnull align 8 dereferenceable(96) %debug_options_87)
  %parent_env_89 = getelementptr inbounds %"class.node::inspector::Agent", ptr %this1, i32 0, i32 0
  %16 = load ptr, ptr %parent_env_89, align 8
  call void @_ZN4node11Environment7optionsEv(ptr sret(%"class.std::shared_ptr.16") align 8 %ref.tmp88, ptr noundef nonnull align 8 dereferenceable(2872) %16)
  %call90 = call noundef ptr @_ZNKSt19__shared_ptr_accessIN4node18EnvironmentOptionsELN9__gnu_cxx12_Lock_policyE2ELb0ELb0EEptEv(ptr noundef nonnull align 1 dereferenceable(1) %ref.tmp88) #3
  %call91 = call noundef ptr @_ZN4node18EnvironmentOptions17get_debug_optionsEv(ptr noundef nonnull align 8 dereferenceable(1144) %call90)
  call void @_ZN4node12DebugOptions20EnableBreakFirstLineEv(ptr noundef nonnull align 8 dereferenceable(96) %call91)
  call void @_ZNSt10shared_ptrIN4node18EnvironmentOptionsEED2Ev(ptr noundef nonnull align 8 dereferenceable(16) %ref.tmp88) #3
  %client_92 = getelementptr inbounds %"class.node::inspector::Agent", ptr %this1, i32 0, i32 1
  %call93 = call noundef ptr @_ZNKSt19__shared_ptr_accessIN4node9inspector19NodeInspectorClientELN9__gnu_cxx12_Lock_policyE2ELb0ELb0EEptEv(ptr noundef nonnull align 1 dereferenceable(1) %client_92) #3
  call void @_ZN4node9inspector19NodeInspectorClient15waitForFrontendEv(ptr noundef nonnull align 8 dereferenceable(184) %call93)
  br label %if.end94

if.end94:                                         ; preds = %do.end86, %if.end69
  store i1 true, ptr %retval, align 1
  br label %return

return:                                           ; preds = %if.end94, %if.then67
  %17 = load i1, ptr %retval, align 1
  ret i1 %17
}

declare noundef nonnull align 8 dereferenceable(32) ptr @_ZNSt7__cxx1112basic_stringIcSt11char_traitsIcESaIcEEaSERKS4_(ptr noundef nonnull align 8 dereferenceable(32), ptr noundef nonnull align 8 dereferenceable(32)) #1

; Function Attrs: mustprogress nounwind uwtable
define linkonce_odr dso_local noundef nonnull align 8 dereferenceable(96) ptr @_ZN4node12DebugOptionsaSERKS0_(ptr noundef nonnull align 8 dereferenceable(96) %this, ptr noundef nonnull align 8 dereferenceable(96) %0) #4 comdat align 2 {
entry:
  %this.addr = alloca ptr, align 8
  %.addr = alloca ptr, align 8
  store ptr %this, ptr %this.addr, align 8
  store ptr %0, ptr %.addr, align 8
  %this1 = load ptr, ptr %this.addr, align 8
  %1 = load ptr, ptr %.addr, align 8
  %call = call noundef nonnull align 8 dereferenceable(8) ptr @_ZN4node7OptionsaSERKS0_(ptr noundef nonnull align 8 dereferenceable(8) %this1, ptr noundef nonnull align 8 dereferenceable(8) %1) #3
  %allow_attaching_debugger = getelementptr inbounds %"class.node::DebugOptions", ptr %this1, i32 0, i32 1
  %2 = load ptr, ptr %.addr, align 8
  %allow_attaching_debugger2 = getelementptr inbounds %"class.node::DebugOptions", ptr %2, i32 0, i32 1
  call void @llvm.memcpy.p0.p0.i64(ptr align 8 %allow_attaching_debugger, ptr align 8 %allow_attaching_debugger2, i64 5, i1 false)
  %inspect_publish_uid_string = getelementptr inbounds %"class.node::DebugOptions", ptr %this1, i32 0, i32 6
  %3 = load ptr, ptr %.addr, align 8
  %inspect_publish_uid_string3 = getelementptr inbounds %"class.node::DebugOptions", ptr %3, i32 0, i32 6
  %call4 = call noundef nonnull align 8 dereferenceable(32) ptr @_ZNSt7__cxx1112basic_stringIcSt11char_traitsIcESaIcEEaSERKS4_(ptr noundef nonnull align 8 dereferenceable(32) %inspect_publish_uid_string, ptr noundef nonnull align 8 dereferenceable(32) %inspect_publish_uid_string3)
  %inspect_publish_uid = getelementptr inbounds %"class.node::DebugOptions", ptr %this1, i32 0, i32 7
  %4 = load ptr, ptr %.addr, align 8
  %inspect_publish_uid5 = getelementptr inbounds %"class.node::DebugOptions", ptr %4, i32 0, i32 7
  call void @llvm.memcpy.p0.p0.i64(ptr align 8 %inspect_publish_uid, ptr align 8 %inspect_publish_uid5, i64 2, i1 false)
  %host_port = getelementptr inbounds %"class.node::DebugOptions", ptr %this1, i32 0, i32 9
  %5 = load ptr, ptr %.addr, align 8
  %host_port6 = getelementptr inbounds %"class.node::DebugOptions", ptr %5, i32 0, i32 9
  %call7 = call noundef nonnull align 8 dereferenceable(34) ptr @_ZN4node8HostPortaSERKS0_(ptr noundef nonnull align 8 dereferenceable(34) %host_port, ptr noundef nonnull align 8 dereferenceable(34) %host_port6)
  ret ptr %this1
}

; Function Attrs: mustprogress nounwind uwtable
define linkonce_odr dso_local noundef zeroext i1 @_ZStneIN4node15ExclusiveAccessINS0_8HostPortENS0_9MutexBaseINS0_16LibuvMutexTraitsEEEEEEbRKSt10shared_ptrIT_EDn(ptr noundef nonnull align 8 dereferenceable(16) %__a, ptr %0) #4 comdat {
entry:
  %__a.addr = alloca ptr, align 8
  %.addr = alloca ptr, align 8
  store ptr %__a, ptr %__a.addr, align 8
  store ptr %0, ptr %.addr, align 8
  %1 = load ptr, ptr %__a.addr, align 8
  %call = call noundef zeroext i1 @_ZNKSt12__shared_ptrIN4node15ExclusiveAccessINS0_8HostPortENS0_9MutexBaseINS0_16LibuvMutexTraitsEEEEELN9__gnu_cxx12_Lock_policyE2EEcvbEv(ptr noundef nonnull align 8 dereferenceable(16) %1) #3
  ret i1 %call
}

declare void @_ZN4node6AssertERKNS_13AssertionInfoE(ptr noundef nonnull align 8 dereferenceable(24)) #1

; Function Attrs: noreturn nounwind
declare void @abort() #5

; Function Attrs: mustprogress nounwind uwtable
define linkonce_odr dso_local noundef nonnull align 8 dereferenceable(16) ptr @_ZNSt10shared_ptrIN4node15ExclusiveAccessINS0_8HostPortENS0_9MutexBaseINS0_16LibuvMutexTraitsEEEEEEaSERKS7_(ptr noundef nonnull align 8 dereferenceable(16) %this, ptr noundef nonnull align 8 dereferenceable(16) %0) #4 comdat align 2 {
entry:
  %this.addr = alloca ptr, align 8
  %.addr = alloca ptr, align 8
  store ptr %this, ptr %this.addr, align 8
  store ptr %0, ptr %.addr, align 8
  %this1 = load ptr, ptr %this.addr, align 8
  %1 = load ptr, ptr %.addr, align 8
  %call = call noundef nonnull align 8 dereferenceable(16) ptr @_ZNSt12__shared_ptrIN4node15ExclusiveAccessINS0_8HostPortENS0_9MutexBaseINS0_16LibuvMutexTraitsEEEEELN9__gnu_cxx12_Lock_policyE2EEaSERKS9_(ptr noundef nonnull align 8 dereferenceable(16) %this1, ptr noundef nonnull align 8 dereferenceable(16) %1) #3
  ret ptr %this1
}

; Function Attrs: mustprogress nounwind uwtable
define linkonce_odr dso_local void @_ZSt11make_sharedIN4node9inspector19NodeInspectorClientEJRPNS0_11EnvironmentERbEESt10shared_ptrINSt9enable_ifIXntsr8is_arrayIT_EE5valueES9_E4typeEEDpOT0_(ptr noalias sret(%"class.std::shared_ptr") align 8 %agg.result, ptr noundef nonnull align 8 dereferenceable(8) %__args, ptr noundef nonnull align 1 dereferenceable(1) %__args1) #4 comdat {
entry:
  %result.ptr = alloca ptr, align 8
  %__args.addr = alloca ptr, align 8
  %__args.addr2 = alloca ptr, align 8
  %__a = alloca %"class.std::allocator.492", align 1
  %agg.tmp = alloca %"struct.std::_Sp_alloc_shared_tag", align 8
  store ptr %agg.result, ptr %result.ptr, align 8
  store ptr %__args, ptr %__args.addr, align 8
  store ptr %__args1, ptr %__args.addr2, align 8
  %_M_a = getelementptr inbounds %"struct.std::_Sp_alloc_shared_tag", ptr %agg.tmp, i32 0, i32 0
  store ptr %__a, ptr %_M_a, align 8
  %0 = load ptr, ptr %__args.addr, align 8
  %1 = load ptr, ptr %__args.addr2, align 8
  %coerce.dive = getelementptr inbounds %"struct.std::_Sp_alloc_shared_tag", ptr %agg.tmp, i32 0, i32 0
  %2 = load ptr, ptr %coerce.dive, align 8
  call void @_ZNSt10shared_ptrIN4node9inspector19NodeInspectorClientEEC2ISaIvEJRPNS0_11EnvironmentERbEEESt20_Sp_alloc_shared_tagIT_EDpOT0_(ptr noundef nonnull align 8 dereferenceable(16) %agg.result, ptr %2, ptr noundef nonnull align 8 dereferenceable(8) %0, ptr noundef nonnull align 1 dereferenceable(1) %1)
  ret void
}

; Function Attrs: mustprogress nounwind uwtable
define linkonce_odr dso_local noundef nonnull align 8 dereferenceable(16) ptr @_ZNSt10shared_ptrIN4node9inspector19NodeInspectorClientEEaSEOS3_(ptr noundef nonnull align 8 dereferenceable(16) %this, ptr noundef nonnull align 8 dereferenceable(16) %__r) #4 comdat align 2 {
entry:
  %this.addr = alloca ptr, align 8
  %__r.addr = alloca ptr, align 8
  store ptr %this, ptr %this.addr, align 8
  store ptr %__r, ptr %__r.addr, align 8
  %this1 = load ptr, ptr %this.addr, align 8
  %0 = load ptr, ptr %__r.addr, align 8
  %call = call noundef nonnull align 8 dereferenceable(16) ptr @_ZNSt12__shared_ptrIN4node9inspector19NodeInspectorClientELN9__gnu_cxx12_Lock_policyE2EEaSEOS5_(ptr noundef nonnull align 8 dereferenceable(16) %this1, ptr noundef nonnull align 8 dereferenceable(16) %0) #3
  ret ptr %this1
}

; Function Attrs: mustprogress nounwind uwtable
define linkonce_odr dso_local noundef zeroext i1 @_ZNK4node11Environment14owns_inspectorEv(ptr noundef nonnull align 8 dereferenceable(2872) %this) #4 comdat align 2 {
entry:
  %this.addr = alloca ptr, align 8
  store ptr %this, ptr %this.addr, align 8
  %this1 = load ptr, ptr %this.addr, align 8
  %flags_ = getelementptr inbounds %"class.node::Environment", ptr %this1, i32 0, i32 63
  %0 = load i64, ptr %flags_, align 8
  %and = and i64 %0, 4
  %tobool = icmp ne i64 %and, 0
  ret i1 %tobool
}

; Function Attrs: mustprogress nounwind uwtable
define linkonce_odr dso_local void @_ZN4node9MutexBaseINS_16LibuvMutexTraitsEE10ScopedLockC2ERKS2_(ptr noundef nonnull align 8 dereferenceable(8) %this, ptr noundef nonnull align 8 dereferenceable(40) %mutex) unnamed_addr #4 comdat align 2 {
entry:
  %this.addr = alloca ptr, align 8
  %mutex.addr = alloca ptr, align 8
  store ptr %this, ptr %this.addr, align 8
  store ptr %mutex, ptr %mutex.addr, align 8
  %this1 = load ptr, ptr %this.addr, align 8
  %mutex_ = getelementptr inbounds %"class.node::MutexBase<node::LibuvMutexTraits>::ScopedLock", ptr %this1, i32 0, i32 0
  %0 = load ptr, ptr %mutex.addr, align 8
  store ptr %0, ptr %mutex_, align 8
  %mutex_2 = getelementptr inbounds %"class.node::MutexBase<node::LibuvMutexTraits>::ScopedLock", ptr %this1, i32 0, i32 0
  %1 = load ptr, ptr %mutex_2, align 8
  %mutex_3 = getelementptr inbounds %"class.node::MutexBase", ptr %1, i32 0, i32 0
  call void @_ZN4node16LibuvMutexTraits10mutex_lockEP15pthread_mutex_t(ptr noundef %mutex_3)
  ret void
}

; Function Attrs: mustprogress nounwind uwtable
define linkonce_odr dso_local noundef zeroext i1 @_ZNSt6atomicIbE8exchangeEbSt12memory_order(ptr noundef nonnull align 1 dereferenceable(1) %this, i1 noundef zeroext %__i, i32 noundef %__m) #4 comdat align 2 {
entry:
  %this.addr.i = alloca ptr, align 8
  %__i.addr.i = alloca i8, align 1
  %__m.addr.i = alloca i32, align 4
  %.atomictmp.i = alloca i8, align 1
  %atomic-temp.i = alloca i8, align 1
  %this.addr = alloca ptr, align 8
  %__i.addr = alloca i8, align 1
  %__m.addr = alloca i32, align 4
  store ptr %this, ptr %this.addr, align 8
  %frombool = zext i1 %__i to i8
  store i8 %frombool, ptr %__i.addr, align 1
  store i32 %__m, ptr %__m.addr, align 4
  %this1 = load ptr, ptr %this.addr, align 8
  %_M_base = getelementptr inbounds %"struct.std::atomic", ptr %this1, i32 0, i32 0
  %0 = load i8, ptr %__i.addr, align 1
  %tobool = trunc i8 %0 to i1
  %1 = load i32, ptr %__m.addr, align 4
  store ptr %_M_base, ptr %this.addr.i, align 8
  %frombool.i = zext i1 %tobool to i8
  store i8 %frombool.i, ptr %__i.addr.i, align 1
  store i32 %1, ptr %__m.addr.i, align 4
  %this1.i = load ptr, ptr %this.addr.i, align 8
  %2 = load i32, ptr %__m.addr.i, align 4
  %3 = load i8, ptr %__i.addr.i, align 1
  %tobool.i = trunc i8 %3 to i1
  %frombool2.i = zext i1 %tobool.i to i8
  store i8 %frombool2.i, ptr %.atomictmp.i, align 1
  switch i32 %2, label %monotonic.i [
    i32 1, label %acquire.i
    i32 2, label %acquire.i
    i32 3, label %release.i
    i32 4, label %acqrel.i
    i32 5, label %seqcst.i
  ]

monotonic.i:                                      ; preds = %entry
  %4 = load i8, ptr %.atomictmp.i, align 1
  %5 = atomicrmw xchg ptr %this1.i, i8 %4 monotonic, align 1
  store i8 %5, ptr %atomic-temp.i, align 1
  br label %_ZNSt13__atomic_baseIbE8exchangeEbSt12memory_order.exit

acquire.i:                                        ; preds = %entry, %entry
  %6 = load i8, ptr %.atomictmp.i, align 1
  %7 = atomicrmw xchg ptr %this1.i, i8 %6 acquire, align 1
  store i8 %7, ptr %atomic-temp.i, align 1
  br label %_ZNSt13__atomic_baseIbE8exchangeEbSt12memory_order.exit

release.i:                                        ; preds = %entry
  %8 = load i8, ptr %.atomictmp.i, align 1
  %9 = atomicrmw xchg ptr %this1.i, i8 %8 release, align 1
  store i8 %9, ptr %atomic-temp.i, align 1
  br label %_ZNSt13__atomic_baseIbE8exchangeEbSt12memory_order.exit

acqrel.i:                                         ; preds = %entry
  %10 = load i8, ptr %.atomictmp.i, align 1
  %11 = atomicrmw xchg ptr %this1.i, i8 %10 acq_rel, align 1
  store i8 %11, ptr %atomic-temp.i, align 1
  br label %_ZNSt13__atomic_baseIbE8exchangeEbSt12memory_order.exit

seqcst.i:                                         ; preds = %entry
  %12 = load i8, ptr %.atomictmp.i, align 1
  %13 = atomicrmw xchg ptr %this1.i, i8 %12 seq_cst, align 1
  store i8 %13, ptr %atomic-temp.i, align 1
  br label %_ZNSt13__atomic_baseIbE8exchangeEbSt12memory_order.exit

_ZNSt13__atomic_baseIbE8exchangeEbSt12memory_order.exit: ; preds = %seqcst.i, %acqrel.i, %release.i, %acquire.i, %monotonic.i
  %14 = load i8, ptr %atomic-temp.i, align 1
  %tobool3.i = trunc i8 %14 to i1
  ret i1 %tobool3.i
}

declare i32 @uv_async_init(ptr noundef, ptr noundef, ptr noundef) #1

; Function Attrs: mustprogress nounwind uwtable
define linkonce_odr dso_local noundef ptr @_ZNK4node11Environment10event_loopEv(ptr noundef nonnull align 8 dereferenceable(2872) %this) #4 comdat align 2 {
entry:
  %this.addr = alloca ptr, align 8
  store ptr %this, ptr %this.addr, align 8
  %this1 = load ptr, ptr %this.addr, align 8
  %call = call noundef ptr @_ZNK4node11Environment12isolate_dataEv(ptr noundef nonnull align 8 dereferenceable(2872) %this1)
  %call2 = call noundef ptr @_ZNK4node11IsolateData10event_loopEv(ptr noundef nonnull align 8 dereferenceable(4192) %call)
  ret ptr %call2
}

; Function Attrs: mustprogress nounwind uwtable
define internal void @_ZN4node9inspector12_GLOBAL__N_126StartIoThreadAsyncCallbackEP10uv_async_s(ptr noundef %handle) #4 {
entry:
  %handle.addr = alloca ptr, align 8
  store ptr %handle, ptr %handle.addr, align 8
  %0 = load ptr, ptr %handle.addr, align 8
  %data = getelementptr inbounds %struct.uv_async_s, ptr %0, i32 0, i32 0
  %1 = load ptr, ptr %data, align 8
  %call = call noundef zeroext i1 @_ZN4node9inspector5Agent13StartIoThreadEv(ptr noundef nonnull align 8 dereferenceable(186) %1)
  ret void
}

declare void @uv_unref(ptr noundef) #1

; Function Attrs: mustprogress nounwind uwtable
define internal noundef i32 @_ZN4node9inspector12_GLOBAL__N_123StartDebugSignalHandlerEv() #4 {
entry:
  %retval = alloca i32, align 4
  %attr = alloca %union.pthread_attr_t, align 8
  %stack_size = alloca i64, align 8
  %ref.tmp = alloca i64, align 8
  %ref.tmp16 = alloca i64, align 8
  %sigmask = alloca %struct.__sigset_t, align 8
  %savemask = alloca %struct.__sigset_t, align 8
  %thread = alloca i64, align 8
  %err = alloca i32, align 4
  br label %do.body

do.body:                                          ; preds = %entry
  %call = call i32 @uv_sem_init(ptr noundef @_ZN4node9inspector12_GLOBAL__N_125start_io_thread_semaphoreE, i32 noundef 0)
  %cmp = icmp eq i32 0, %call
  %lnot = xor i1 %cmp, true
  %lnot1 = xor i1 %lnot, true
  %lnot2 = xor i1 %lnot1, true
  br i1 %lnot2, label %if.then, label %if.end

if.then:                                          ; preds = %do.body
  br label %do.body3

do.body3:                                         ; preds = %if.then
  call void @_ZN4node6AssertERKNS_13AssertionInfoE(ptr noundef nonnull align 8 dereferenceable(24) @_ZZN4node9inspector12_GLOBAL__N_123StartDebugSignalHandlerEvE4args)
  call void @abort() #14
  unreachable

do.end:                                           ; No predecessors!
  br label %if.end

if.end:                                           ; preds = %do.end, %do.body
  br label %do.end4

do.end4:                                          ; preds = %if.end
  br label %do.body5

do.body5:                                         ; preds = %do.end4
  %call6 = call i32 @pthread_attr_init(ptr noundef %attr) #3
  %cmp7 = icmp eq i32 0, %call6
  %lnot8 = xor i1 %cmp7, true
  %lnot9 = xor i1 %lnot8, true
  %lnot10 = xor i1 %lnot9, true
  br i1 %lnot10, label %if.then11, label %if.end14

if.then11:                                        ; preds = %do.body5
  br label %do.body12

do.body12:                                        ; preds = %if.then11
  call void @_ZN4node6AssertERKNS_13AssertionInfoE(ptr noundef nonnull align 8 dereferenceable(24) @_ZZN4node9inspector12_GLOBAL__N_123StartDebugSignalHandlerEvE4args_0)
  call void @abort() #14
  unreachable

do.end13:                                         ; No predecessors!
  br label %if.end14

if.end14:                                         ; preds = %do.end13, %do.body5
  br label %do.end15

do.end15:                                         ; preds = %if.end14
  store i64 32768, ptr %ref.tmp, align 8
  %call17 = call i64 @__sysconf(i32 noundef 75) #3
  store i64 %call17, ptr %ref.tmp16, align 8
  %call18 = call noundef nonnull align 8 dereferenceable(8) ptr @_ZSt3maxImERKT_S2_S2_(ptr noundef nonnull align 8 dereferenceable(8) %ref.tmp, ptr noundef nonnull align 8 dereferenceable(8) %ref.tmp16)
  %0 = load i64, ptr %call18, align 8
  store i64 %0, ptr %stack_size, align 8
  br label %do.body19

do.body19:                                        ; preds = %do.end15
  %1 = load i64, ptr %stack_size, align 8
  %call20 = call i32 @pthread_attr_setstacksize(ptr noundef %attr, i64 noundef %1) #3
  %cmp21 = icmp eq i32 0, %call20
  %lnot22 = xor i1 %cmp21, true
  %lnot23 = xor i1 %lnot22, true
  %lnot24 = xor i1 %lnot23, true
  br i1 %lnot24, label %if.then25, label %if.end28

if.then25:                                        ; preds = %do.body19
  br label %do.body26

do.body26:                                        ; preds = %if.then25
  call void @_ZN4node6AssertERKNS_13AssertionInfoE(ptr noundef nonnull align 8 dereferenceable(24) @_ZZN4node9inspector12_GLOBAL__N_123StartDebugSignalHandlerEvE4args_1)
  call void @abort() #14
  unreachable

do.end27:                                         ; No predecessors!
  br label %if.end28

if.end28:                                         ; preds = %do.end27, %do.body19
  br label %do.end29

do.end29:                                         ; preds = %if.end28
  br label %do.body30

do.body30:                                        ; preds = %do.end29
  %call31 = call i32 @pthread_attr_setdetachstate(ptr noundef %attr, i32 noundef 1) #3
  %cmp32 = icmp eq i32 0, %call31
  %lnot33 = xor i1 %cmp32, true
  %lnot34 = xor i1 %lnot33, true
  %lnot35 = xor i1 %lnot34, true
  br i1 %lnot35, label %if.then36, label %if.end39

if.then36:                                        ; preds = %do.body30
  br label %do.body37

do.body37:                                        ; preds = %if.then36
  call void @_ZN4node6AssertERKNS_13AssertionInfoE(ptr noundef nonnull align 8 dereferenceable(24) @_ZZN4node9inspector12_GLOBAL__N_123StartDebugSignalHandlerEvE4args_2)
  call void @abort() #14
  unreachable

do.end38:                                         ; No predecessors!
  br label %if.end39

if.end39:                                         ; preds = %do.end38, %do.body30
  br label %do.end40

do.end40:                                         ; preds = %if.end39
  %call41 = call i32 @sigfillset(ptr noundef %sigmask) #3
  br label %do.body42

do.body42:                                        ; preds = %do.end40
  %call43 = call i32 @pthread_sigmask(i32 noundef 2, ptr noundef %sigmask, ptr noundef %savemask) #3
  %cmp44 = icmp eq i32 0, %call43
  %lnot45 = xor i1 %cmp44, true
  %lnot46 = xor i1 %lnot45, true
  %lnot47 = xor i1 %lnot46, true
  br i1 %lnot47, label %if.then48, label %if.end51

if.then48:                                        ; preds = %do.body42
  br label %do.body49

do.body49:                                        ; preds = %if.then48
  call void @_ZN4node6AssertERKNS_13AssertionInfoE(ptr noundef nonnull align 8 dereferenceable(24) @_ZZN4node9inspector12_GLOBAL__N_123StartDebugSignalHandlerEvE4args_3)
  call void @abort() #14
  unreachable

do.end50:                                         ; No predecessors!
  br label %if.end51

if.end51:                                         ; preds = %do.end50, %do.body42
  br label %do.end52

do.end52:                                         ; preds = %if.end51
  call void @llvm.memcpy.p0.p0.i64(ptr align 8 %sigmask, ptr align 8 %savemask, i64 128, i1 false)
  %call53 = call i32 @pthread_create(ptr noundef %thread, ptr noundef %attr, ptr noundef @_ZN4node9inspector12_GLOBAL__N_117StartIoThreadMainEPv, ptr noundef null) #3
  store i32 %call53, ptr %err, align 4
  br label %do.body54

do.body54:                                        ; preds = %do.end52
  %call55 = call i32 @pthread_sigmask(i32 noundef 2, ptr noundef %sigmask, ptr noundef null) #3
  %cmp56 = icmp eq i32 0, %call55
  %lnot57 = xor i1 %cmp56, true
  %lnot58 = xor i1 %lnot57, true
  %lnot59 = xor i1 %lnot58, true
  br i1 %lnot59, label %if.then60, label %if.end63

if.then60:                                        ; preds = %do.body54
  br label %do.body61

do.body61:                                        ; preds = %if.then60
  call void @_ZN4node6AssertERKNS_13AssertionInfoE(ptr noundef nonnull align 8 dereferenceable(24) @_ZZN4node9inspector12_GLOBAL__N_123StartDebugSignalHandlerEvE4args_4)
  call void @abort() #14
  unreachable

do.end62:                                         ; No predecessors!
  br label %if.end63

if.end63:                                         ; preds = %do.end62, %do.body54
  br label %do.end64

do.end64:                                         ; preds = %if.end63
  br label %do.body65

do.body65:                                        ; preds = %do.end64
  %call66 = call i32 @pthread_attr_destroy(ptr noundef %attr) #3
  %cmp67 = icmp eq i32 0, %call66
  %lnot68 = xor i1 %cmp67, true
  %lnot69 = xor i1 %lnot68, true
  %lnot70 = xor i1 %lnot69, true
  br i1 %lnot70, label %if.then71, label %if.end74

if.then71:                                        ; preds = %do.body65
  br label %do.body72

do.body72:                                        ; preds = %if.then71
  call void @_ZN4node6AssertERKNS_13AssertionInfoE(ptr noundef nonnull align 8 dereferenceable(24) @_ZZN4node9inspector12_GLOBAL__N_123StartDebugSignalHandlerEvE4args_5)
  call void @abort() #14
  unreachable

do.end73:                                         ; No predecessors!
  br label %if.end74

if.end74:                                         ; preds = %do.end73, %do.body65
  br label %do.end75

do.end75:                                         ; preds = %if.end74
  %2 = load i32, ptr %err, align 4
  %cmp76 = icmp ne i32 %2, 0
  br i1 %cmp76, label %if.then77, label %if.end82

if.then77:                                        ; preds = %do.end75
  %3 = load ptr, ptr @stderr, align 8
  %call78 = call i32 @uv_os_getpid()
  %4 = load i32, ptr %err, align 4
  %call79 = call ptr @strerror(i32 noundef %4) #3
  %call80 = call i32 (ptr, ptr, ...) @fprintf(ptr noundef %3, ptr noundef @.str.71, i32 noundef %call78, ptr noundef %call79)
  %5 = load ptr, ptr @stderr, align 8
  %call81 = call i32 @fflush(ptr noundef %5)
  %6 = load i32, ptr %err, align 4
  %sub = sub nsw i32 0, %6
  store i32 %sub, ptr %retval, align 4
  br label %return

if.end82:                                         ; preds = %do.end75
  call void @_ZN4node21RegisterSignalHandlerEiPFviP9siginfo_tPvEb(i32 noundef 10, ptr noundef @_ZN4node9inspector12_GLOBAL__N_119StartIoThreadWakeupEiP9siginfo_tPv, i1 noundef zeroext false)
  %call83 = call i32 @sigemptyset(ptr noundef %sigmask) #3
  %call84 = call i32 @sigaddset(ptr noundef %sigmask, i32 noundef 10) #3
  br label %do.body85

do.body85:                                        ; preds = %if.end82
  %call86 = call i32 @pthread_sigmask(i32 noundef 1, ptr noundef %sigmask, ptr noundef null) #3
  %cmp87 = icmp eq i32 0, %call86
  %lnot88 = xor i1 %cmp87, true
  %lnot89 = xor i1 %lnot88, true
  %lnot90 = xor i1 %lnot89, true
  br i1 %lnot90, label %if.then91, label %if.end94

if.then91:                                        ; preds = %do.body85
  br label %do.body92

do.body92:                                        ; preds = %if.then91
  call void @_ZN4node6AssertERKNS_13AssertionInfoE(ptr noundef nonnull align 8 dereferenceable(24) @_ZZN4node9inspector12_GLOBAL__N_123StartDebugSignalHandlerEvE4args_6)
  call void @abort() #14
  unreachable

do.end93:                                         ; No predecessors!
  br label %if.end94

if.end94:                                         ; preds = %do.end93, %do.body85
  br label %do.end95

do.end95:                                         ; preds = %if.end94
  store i32 0, ptr %retval, align 4
  br label %return

return:                                           ; preds = %do.end95, %if.then77
  %7 = load i32, ptr %retval, align 4
  ret i32 %7
}

; Function Attrs: mustprogress nounwind uwtable
define linkonce_odr dso_local void @_ZN4node11Environment14AddCleanupHookEPFvPvES1_(ptr noundef nonnull align 8 dereferenceable(2872) %this, ptr noundef %fn, ptr noundef %arg) #4 comdat align 2 {
entry:
  %this.addr = alloca ptr, align 8
  %fn.addr = alloca ptr, align 8
  %arg.addr = alloca ptr, align 8
  store ptr %this, ptr %this.addr, align 8
  store ptr %fn, ptr %fn.addr, align 8
  store ptr %arg, ptr %arg.addr, align 8
  %this1 = load ptr, ptr %this.addr, align 8
  %cleanup_queue_ = getelementptr inbounds %"class.node::Environment", ptr %this1, i32 0, i32 85
  %0 = load ptr, ptr %fn.addr, align 8
  %1 = load ptr, ptr %arg.addr, align 8
  call void @_ZN4node12CleanupQueue3AddEPFvPvES1_(ptr noundef nonnull align 8 dereferenceable(72) %cleanup_queue_, ptr noundef %0, ptr noundef %1)
  ret void
}

; Function Attrs: mustprogress nounwind uwtable
define internal noundef ptr @"_ZZN4node9inspector5Agent5StartERKNSt7__cxx1112basic_stringIcSt11char_traitsIcESaIcEEERKNS_12DebugOptionsESt10shared_ptrINS_15ExclusiveAccessINS_8HostPortENS_9MutexBaseINS_16LibuvMutexTraitsEEEEEEbENK3$_0cvPFvPvEEv"(ptr noundef nonnull align 1 dereferenceable(1) %this) #4 align 2 {
entry:
  %this.addr = alloca ptr, align 8
  store ptr %this, ptr %this.addr, align 8
  ret ptr @"_ZZN4node9inspector5Agent5StartERKNSt7__cxx1112basic_stringIcSt11char_traitsIcESaIcEEERKNS_12DebugOptionsESt10shared_ptrINS_15ExclusiveAccessINS_8HostPortENS_9MutexBaseINS_16LibuvMutexTraitsEEEEEEbEN3$_08__invokeEPv"
}

; Function Attrs: mustprogress nounwind uwtable
define linkonce_odr dso_local void @_ZN4node9MutexBaseINS_16LibuvMutexTraitsEE10ScopedLockD2Ev(ptr noundef nonnull align 8 dereferenceable(8) %this) unnamed_addr #4 comdat align 2 {
entry:
  %this.addr = alloca ptr, align 8
  store ptr %this, ptr %this.addr, align 8
  %this1 = load ptr, ptr %this.addr, align 8
  %mutex_ = getelementptr inbounds %"class.node::MutexBase<node::LibuvMutexTraits>::ScopedLock", ptr %this1, i32 0, i32 0
  %0 = load ptr, ptr %mutex_, align 8
  %mutex_2 = getelementptr inbounds %"class.node::MutexBase", ptr %0, i32 0, i32 0
  call void @_ZN4node16LibuvMutexTraits12mutex_unlockEP15pthread_mutex_t(ptr noundef %mutex_2)
  ret void
}

declare void @_ZN4node6AtExitEPNS_11EnvironmentEPFvPvES2_(ptr noundef, ptr noundef, ptr noundef) #1

; Function Attrs: mustprogress nounwind uwtable
define internal noundef ptr @"_ZZN4node9inspector5Agent5StartERKNSt7__cxx1112basic_stringIcSt11char_traitsIcESaIcEEERKNS_12DebugOptionsESt10shared_ptrINS_15ExclusiveAccessINS_8HostPortENS_9MutexBaseINS_16LibuvMutexTraitsEEEEEEbENK3$_1cvPFvPvEEv"(ptr noundef nonnull align 1 dereferenceable(1) %this) #4 align 2 {
entry:
  %this.addr = alloca ptr, align 8
  store ptr %this, ptr %this.addr, align 8
  ret ptr @"_ZZN4node9inspector5Agent5StartERKNSt7__cxx1112basic_stringIcSt11char_traitsIcESaIcEEERKNS_12DebugOptionsESt10shared_ptrINS_15ExclusiveAccessINS_8HostPortENS_9MutexBaseINS_16LibuvMutexTraitsEEEEEEbEN3$_18__invokeEPv"
}

; Function Attrs: mustprogress nounwind uwtable
define linkonce_odr dso_local noundef zeroext i1 @_ZNK4node12DebugOptions16wait_for_connectEv(ptr noundef nonnull align 8 dereferenceable(96) %this) #4 comdat align 2 {
entry:
  %this.addr = alloca ptr, align 8
  store ptr %this, ptr %this.addr, align 8
  %this1 = load ptr, ptr %this.addr, align 8
  %break_first_line = getelementptr inbounds %"class.node::DebugOptions", ptr %this1, i32 0, i32 4
  %0 = load i8, ptr %break_first_line, align 1
  %tobool = trunc i8 %0 to i1
  br i1 %tobool, label %lor.end, label %lor.rhs

lor.rhs:                                          ; preds = %entry
  %break_node_first_line = getelementptr inbounds %"class.node::DebugOptions", ptr %this1, i32 0, i32 5
  %1 = load i8, ptr %break_node_first_line, align 4
  %tobool2 = trunc i8 %1 to i1
  br label %lor.end

lor.end:                                          ; preds = %lor.rhs, %entry
  %2 = phi i1 [ true, %entry ], [ %tobool2, %lor.rhs ]
  ret i1 %2
}

; Function Attrs: mustprogress nounwind uwtable
define linkonce_odr dso_local noundef zeroext i1 @_ZNKSt10unique_ptrIN4node9inspector21ParentInspectorHandleESt14default_deleteIS2_EEcvbEv(ptr noundef nonnull align 8 dereferenceable(8) %this) #4 comdat align 2 {
entry:
  %this.addr = alloca ptr, align 8
  store ptr %this, ptr %this.addr, align 8
  %this1 = load ptr, ptr %this.addr, align 8
  %call = call noundef ptr @_ZNKSt10unique_ptrIN4node9inspector21ParentInspectorHandleESt14default_deleteIS2_EE3getEv(ptr noundef nonnull align 8 dereferenceable(8) %this1) #3
  %cmp = icmp eq ptr %call, null
  %cond = select i1 %cmp, i1 false, i1 true
  ret i1 %cond
}

; Function Attrs: mustprogress nounwind uwtable
define linkonce_odr dso_local noundef ptr @_ZNKSt10unique_ptrIN4node9inspector21ParentInspectorHandleESt14default_deleteIS2_EEptEv(ptr noundef nonnull align 8 dereferenceable(8) %this) #4 comdat align 2 {
entry:
  %this.addr = alloca ptr, align 8
  store ptr %this, ptr %this.addr, align 8
  %this1 = load ptr, ptr %this.addr, align 8
  %call = call noundef ptr @_ZNKSt10unique_ptrIN4node9inspector21ParentInspectorHandleESt14default_deleteIS2_EE3getEv(ptr noundef nonnull align 8 dereferenceable(8) %this1) #3
  ret ptr %call
}

; Function Attrs: mustprogress nounwind uwtable
define linkonce_odr dso_local noundef zeroext i1 @_ZN4node9inspector21ParentInspectorHandle14WaitForConnectEv(ptr noundef nonnull align 8 dereferenceable(96) %this) #4 comdat align 2 {
entry:
  %this.addr = alloca ptr, align 8
  store ptr %this, ptr %this.addr, align 8
  %this1 = load ptr, ptr %this.addr, align 8
  %wait_ = getelementptr inbounds %"class.node::inspector::ParentInspectorHandle", ptr %this1, i32 0, i32 3
  %0 = load i8, ptr %wait_, align 8
  %tobool = trunc i8 %0 to i1
  ret i1 %tobool
}

declare void @_ZN4node9inspector21ParentInspectorHandle13WorkerStartedESt10shared_ptrINS0_16MainThreadHandleEEb(ptr noundef nonnull align 8 dereferenceable(96), ptr noundef, i1 noundef zeroext) #1

; Function Attrs: mustprogress nounwind uwtable
define linkonce_odr dso_local noundef ptr @_ZNKSt19__shared_ptr_accessIN4node9inspector19NodeInspectorClientELN9__gnu_cxx12_Lock_policyE2ELb0ELb0EEptEv(ptr noundef nonnull align 1 dereferenceable(1) %this) #4 comdat align 2 {
entry:
  %this.addr = alloca ptr, align 8
  store ptr %this, ptr %this.addr, align 8
  %this1 = load ptr, ptr %this.addr, align 8
  %call = call noundef ptr @_ZNKSt19__shared_ptr_accessIN4node9inspector19NodeInspectorClientELN9__gnu_cxx12_Lock_policyE2ELb0ELb0EE6_M_getEv(ptr noundef nonnull align 1 dereferenceable(1) %this1) #3
  ret ptr %call
}

; Function Attrs: mustprogress nounwind uwtable
define linkonce_odr dso_local void @_ZN4node9inspector19NodeInspectorClient15getThreadHandleEv(ptr noalias sret(%"class.std::shared_ptr.272") align 8 %agg.result, ptr noundef nonnull align 8 dereferenceable(184) %this) #4 comdat align 2 {
entry:
  %result.ptr = alloca ptr, align 8
  %this.addr = alloca ptr, align 8
  %ref.tmp = alloca %"class.std::shared_ptr.317", align 8
  %ref.tmp2 = alloca ptr, align 8
  store ptr %agg.result, ptr %result.ptr, align 8
  store ptr %this, ptr %this.addr, align 8
  %this1 = load ptr, ptr %this.addr, align 8
  %interface_ = getelementptr inbounds %"class.node::inspector::NodeInspectorClient", ptr %this1, i32 0, i32 11
  %call = call noundef zeroext i1 @_ZNKSt12__shared_ptrIN4node9inspector19MainThreadInterfaceELN9__gnu_cxx12_Lock_policyE2EEcvbEv(ptr noundef nonnull align 8 dereferenceable(16) %interface_) #3
  br i1 %call, label %if.end, label %if.then

if.then:                                          ; preds = %entry
  %env_ = getelementptr inbounds %"class.node::inspector::NodeInspectorClient", ptr %this1, i32 0, i32 1
  %0 = load ptr, ptr %env_, align 8
  %call3 = call noundef ptr @_ZNK4node11Environment15inspector_agentEv(ptr noundef nonnull align 8 dereferenceable(2872) %0)
  store ptr %call3, ptr %ref.tmp2, align 8
  call void @_ZSt11make_sharedIN4node9inspector19MainThreadInterfaceEJPNS1_5AgentEEESt10shared_ptrINSt9enable_ifIXntsr8is_arrayIT_EE5valueES7_E4typeEEDpOT0_(ptr sret(%"class.std::shared_ptr.317") align 8 %ref.tmp, ptr noundef nonnull align 8 dereferenceable(8) %ref.tmp2)
  %interface_4 = getelementptr inbounds %"class.node::inspector::NodeInspectorClient", ptr %this1, i32 0, i32 11
  %call5 = call noundef nonnull align 8 dereferenceable(16) ptr @_ZNSt10shared_ptrIN4node9inspector19MainThreadInterfaceEEaSEOS3_(ptr noundef nonnull align 8 dereferenceable(16) %interface_4, ptr noundef nonnull align 8 dereferenceable(16) %ref.tmp) #3
  call void @_ZNSt10shared_ptrIN4node9inspector19MainThreadInterfaceEED2Ev(ptr noundef nonnull align 8 dereferenceable(16) %ref.tmp) #3
  br label %if.end

if.end:                                           ; preds = %if.then, %entry
  %interface_6 = getelementptr inbounds %"class.node::inspector::NodeInspectorClient", ptr %this1, i32 0, i32 11
  %call7 = call noundef ptr @_ZNKSt19__shared_ptr_accessIN4node9inspector19MainThreadInterfaceELN9__gnu_cxx12_Lock_policyE2ELb0ELb0EEptEv(ptr noundef nonnull align 1 dereferenceable(1) %interface_6) #3
  call void @_ZN4node9inspector19MainThreadInterface9GetHandleEv(ptr sret(%"class.std::shared_ptr.272") align 8 %agg.result, ptr noundef nonnull align 8 dereferenceable(352) %call7)
  ret void
}

; Function Attrs: mustprogress nounwind uwtable
define linkonce_odr dso_local void @_ZNSt10shared_ptrIN4node9inspector16MainThreadHandleEED2Ev(ptr noundef nonnull align 8 dereferenceable(16) %this) unnamed_addr #4 comdat align 2 {
entry:
  %this.addr = alloca ptr, align 8
  store ptr %this, ptr %this.addr, align 8
  %this1 = load ptr, ptr %this.addr, align 8
  call void @_ZNSt12__shared_ptrIN4node9inspector16MainThreadHandleELN9__gnu_cxx12_Lock_policyE2EED2Ev(ptr noundef nonnull align 8 dereferenceable(16) %this1) #3
  ret void
}

; Function Attrs: mustprogress nounwind uwtable
define dso_local noundef zeroext i1 @_ZN4node9inspector5Agent13StartIoThreadEv(ptr noundef nonnull align 8 dereferenceable(186) %this) #4 align 2 {
entry:
  %retval.i = alloca i1, align 1
  %this.addr.i = alloca ptr, align 8
  %permission.addr.i = alloca i32, align 4
  %res.addr.i = alloca ptr, align 8
  %retval = alloca i1, align 1
  %this.addr = alloca ptr, align 8
  %ref.tmp = alloca %"class.std::basic_string_view", align 8
  %ref.tmp8 = alloca %"class.std::basic_string_view", align 8
  %ref.tmp27 = alloca %"class.std::unique_ptr", align 8
  %agg.tmp = alloca %"class.std::shared_ptr.272", align 8
  %agg.tmp30 = alloca %"class.std::shared_ptr.10", align 8
  store ptr %this, ptr %this.addr, align 8
  %this1 = load ptr, ptr %this.addr, align 8
  %io_ = getelementptr inbounds %"class.node::inspector::Agent", ptr %this1, i32 0, i32 2
  %call = call noundef zeroext i1 @_ZStneIN4node9inspector11InspectorIoESt14default_deleteIS2_EEbRKSt10unique_ptrIT_T0_EDn(ptr noundef nonnull align 8 dereferenceable(8) %io_, ptr null) #3
  br i1 %call, label %if.then, label %if.end

if.then:                                          ; preds = %entry
  store i1 true, ptr %retval, align 1
  br label %return

if.end:                                           ; preds = %entry
  br label %do.body

do.body:                                          ; preds = %if.end
  %parent_env_ = getelementptr inbounds %"class.node::inspector::Agent", ptr %this1, i32 0, i32 0
  %0 = load ptr, ptr %parent_env_, align 8
  %call2 = call noundef ptr @_ZN4node11Environment10permissionEv(ptr noundef nonnull align 8 dereferenceable(2872) %0)
  call void @_ZNSt17basic_string_viewIcSt11char_traitsIcEEC2EPKc(ptr noundef nonnull align 8 dereferenceable(16) %ref.tmp, ptr noundef @.str.10) #3
  store ptr %call2, ptr %this.addr.i, align 8
  store i32 5, ptr %permission.addr.i, align 4
  store ptr %ref.tmp, ptr %res.addr.i, align 8
  %this1.i = load ptr, ptr %this.addr.i, align 8
  %enabled_.i = getelementptr inbounds %"class.node::permission::Permission", ptr %this1.i, i32 0, i32 1
  %1 = load i8, ptr %enabled_.i, align 8
  %tobool.i = trunc i8 %1 to i1
  %lnot3.i = xor i1 %tobool.i, true
  br i1 %lnot3.i, label %if.then.i, label %if.end.i

if.then.i:                                        ; preds = %do.body
  store i1 true, ptr %retval.i, align 1
  br label %_ZNK4node10permission10Permission10is_grantedENS0_15PermissionScopeERKSt17basic_string_viewIcSt11char_traitsIcEE.exit

if.end.i:                                         ; preds = %do.body
  %2 = load i32, ptr %permission.addr.i, align 4
  %3 = load ptr, ptr %res.addr.i, align 8
  %call.i = call noundef zeroext i1 @_ZNK4node10permission10Permission16is_scope_grantedENS0_15PermissionScopeERKSt17basic_string_viewIcSt11char_traitsIcEE(ptr noundef nonnull align 8 dereferenceable(57) %this1.i, i32 noundef %2, ptr noundef nonnull align 8 dereferenceable(16) %3) #15
  store i1 %call.i, ptr %retval.i, align 1
  br label %_ZNK4node10permission10Permission10is_grantedENS0_15PermissionScopeERKSt17basic_string_viewIcSt11char_traitsIcEE.exit

_ZNK4node10permission10Permission10is_grantedENS0_15PermissionScopeERKSt17basic_string_viewIcSt11char_traitsIcEE.exit: ; preds = %if.end.i, %if.then.i
  %4 = load i1, ptr %retval.i, align 1
  %lnot = xor i1 %4, true
  %lnot4 = xor i1 %lnot, true
  %lnot5 = xor i1 %lnot4, true
  br i1 %lnot5, label %if.then6, label %if.end9

if.then6:                                         ; preds = %_ZNK4node10permission10Permission10is_grantedENS0_15PermissionScopeERKSt17basic_string_viewIcSt11char_traitsIcEE.exit
  %parent_env_7 = getelementptr inbounds %"class.node::inspector::Agent", ptr %this1, i32 0, i32 0
  %5 = load ptr, ptr %parent_env_7, align 8
  call void @_ZNSt17basic_string_viewIcSt11char_traitsIcEEC2EPKc(ptr noundef nonnull align 8 dereferenceable(16) %ref.tmp8, ptr noundef @.str.10) #3
  call void @_ZN4node10permission10Permission17ThrowAccessDeniedEPNS_11EnvironmentENS0_15PermissionScopeERKSt17basic_string_viewIcSt11char_traitsIcEE(ptr noundef %5, i32 noundef 5, ptr noundef nonnull align 8 dereferenceable(16) %ref.tmp8)
  store i1 false, ptr %retval, align 1
  br label %return

if.end9:                                          ; preds = %_ZNK4node10permission10Permission10is_grantedENS0_15PermissionScopeERKSt17basic_string_viewIcSt11char_traitsIcEE.exit
  br label %do.end

do.end:                                           ; preds = %if.end9
  %parent_env_10 = getelementptr inbounds %"class.node::inspector::Agent", ptr %this1, i32 0, i32 0
  %6 = load ptr, ptr %parent_env_10, align 8
  %call11 = call noundef zeroext i1 @_ZNK4node11Environment23should_create_inspectorEv(ptr noundef nonnull align 8 dereferenceable(2872) %6)
  br i1 %call11, label %if.end15, label %land.lhs.true

land.lhs.true:                                    ; preds = %do.end
  %client_ = getelementptr inbounds %"class.node::inspector::Agent", ptr %this1, i32 0, i32 1
  %call12 = call noundef zeroext i1 @_ZNKSt12__shared_ptrIN4node9inspector19NodeInspectorClientELN9__gnu_cxx12_Lock_policyE2EEcvbEv(ptr noundef nonnull align 8 dereferenceable(16) %client_) #3
  br i1 %call12, label %if.end15, label %if.then13

if.then13:                                        ; preds = %land.lhs.true
  %parent_env_14 = getelementptr inbounds %"class.node::inspector::Agent", ptr %this1, i32 0, i32 0
  %7 = load ptr, ptr %parent_env_14, align 8
  call void @_ZN4node9inspector12_GLOBAL__N_132ThrowUninitializedInspectorErrorEPNS_11EnvironmentE(ptr noundef %7)
  store i1 false, ptr %retval, align 1
  br label %return

if.end15:                                         ; preds = %land.lhs.true, %do.end
  br label %do.body16

do.body16:                                        ; preds = %if.end15
  %client_17 = getelementptr inbounds %"class.node::inspector::Agent", ptr %this1, i32 0, i32 1
  %call18 = call noundef zeroext i1 @_ZStneIN4node9inspector19NodeInspectorClientEEbRKSt10shared_ptrIT_EDn(ptr noundef nonnull align 8 dereferenceable(16) %client_17, ptr null) #3
  %lnot19 = xor i1 %call18, true
  %lnot20 = xor i1 %lnot19, true
  %lnot21 = xor i1 %lnot20, true
  br i1 %lnot21, label %if.then22, label %if.end25

if.then22:                                        ; preds = %do.body16
  br label %do.body23

do.body23:                                        ; preds = %if.then22
  call void @_ZN4node6AssertERKNS_13AssertionInfoE(ptr noundef nonnull align 8 dereferenceable(24) @_ZZN4node9inspector5Agent13StartIoThreadEvE4args)
  call void @abort() #14
  unreachable

do.end24:                                         ; No predecessors!
  br label %if.end25

if.end25:                                         ; preds = %do.end24, %do.body16
  br label %do.end26

do.end26:                                         ; preds = %if.end25
  %client_28 = getelementptr inbounds %"class.node::inspector::Agent", ptr %this1, i32 0, i32 1
  %call29 = call noundef ptr @_ZNKSt19__shared_ptr_accessIN4node9inspector19NodeInspectorClientELN9__gnu_cxx12_Lock_policyE2ELb0ELb0EEptEv(ptr noundef nonnull align 1 dereferenceable(1) %client_28) #3
  call void @_ZN4node9inspector19NodeInspectorClient15getThreadHandleEv(ptr sret(%"class.std::shared_ptr.272") align 8 %agg.tmp, ptr noundef nonnull align 8 dereferenceable(184) %call29)
  %path_ = getelementptr inbounds %"class.node::inspector::Agent", ptr %this1, i32 0, i32 4
  %host_port_ = getelementptr inbounds %"class.node::inspector::Agent", ptr %this1, i32 0, i32 6
  call void @_ZNSt10shared_ptrIN4node15ExclusiveAccessINS0_8HostPortENS0_9MutexBaseINS0_16LibuvMutexTraitsEEEEEEC2ERKS7_(ptr noundef nonnull align 8 dereferenceable(16) %agg.tmp30, ptr noundef nonnull align 8 dereferenceable(16) %host_port_) #3
  %debug_options_ = getelementptr inbounds %"class.node::inspector::Agent", ptr %this1, i32 0, i32 5
  %inspect_publish_uid = getelementptr inbounds %"class.node::DebugOptions", ptr %debug_options_, i32 0, i32 7
  call void @_ZN4node9inspector11InspectorIo5StartESt10shared_ptrINS0_16MainThreadHandleEERKNSt7__cxx1112basic_stringIcSt11char_traitsIcESaIcEEES2_INS_15ExclusiveAccessINS_8HostPortENS_9MutexBaseINS_16LibuvMutexTraitsEEEEEERKNS_17InspectPublishUidE(ptr sret(%"class.std::unique_ptr") align 8 %ref.tmp27, ptr noundef %agg.tmp, ptr noundef nonnull align 8 dereferenceable(32) %path_, ptr noundef %agg.tmp30, ptr noundef nonnull align 1 dereferenceable(2) %inspect_publish_uid)
  %io_31 = getelementptr inbounds %"class.node::inspector::Agent", ptr %this1, i32 0, i32 2
  %call32 = call noundef nonnull align 8 dereferenceable(8) ptr @_ZNSt10unique_ptrIN4node9inspector11InspectorIoESt14default_deleteIS2_EEaSEOS5_(ptr noundef nonnull align 8 dereferenceable(8) %io_31, ptr noundef nonnull align 8 dereferenceable(8) %ref.tmp27) #3
  call void @_ZNSt10unique_ptrIN4node9inspector11InspectorIoESt14default_deleteIS2_EED2Ev(ptr noundef nonnull align 8 dereferenceable(8) %ref.tmp27) #3
  call void @_ZNSt10shared_ptrIN4node15ExclusiveAccessINS0_8HostPortENS0_9MutexBaseINS0_16LibuvMutexTraitsEEEEEED2Ev(ptr noundef nonnull align 8 dereferenceable(16) %agg.tmp30) #3
  call void @_ZNSt10shared_ptrIN4node9inspector16MainThreadHandleEED2Ev(ptr noundef nonnull align 8 dereferenceable(16) %agg.tmp) #3
  %io_33 = getelementptr inbounds %"class.node::inspector::Agent", ptr %this1, i32 0, i32 2
  %call34 = call noundef zeroext i1 @_ZSteqIN4node9inspector11InspectorIoESt14default_deleteIS2_EEbRKSt10unique_ptrIT_T0_EDn(ptr noundef nonnull align 8 dereferenceable(8) %io_33, ptr null) #3
  br i1 %call34, label %if.then35, label %if.end36

if.then35:                                        ; preds = %do.end26
  store i1 false, ptr %retval, align 1
  br label %return

if.end36:                                         ; preds = %do.end26
  %parent_env_37 = getelementptr inbounds %"class.node::inspector::Agent", ptr %this1, i32 0, i32 0
  %8 = load ptr, ptr %parent_env_37, align 8
  call void @_ZN4node9inspector12_GLOBAL__N_132NotifyClusterWorkersDebugEnabledEPNS_11EnvironmentE(ptr noundef %8)
  store i1 true, ptr %retval, align 1
  br label %return

return:                                           ; preds = %if.end36, %if.then35, %if.then13, %if.then6, %if.then
  %9 = load i1, ptr %retval, align 1
  ret i1 %9
}

; Function Attrs: mustprogress nounwind uwtable
define linkonce_odr dso_local noundef zeroext i1 @_ZNK4node11Environment22has_serialized_optionsEv(ptr noundef nonnull align 8 dereferenceable(2872) %this) #4 comdat align 2 {
entry:
  %this.addr = alloca ptr, align 8
  store ptr %this, ptr %this.addr, align 8
  %this1 = load ptr, ptr %this.addr, align 8
  %has_serialized_options_ = getelementptr inbounds %"class.node::Environment", ptr %this1, i32 0, i32 62
  %0 = load i8, ptr %has_serialized_options_, align 8
  %tobool = trunc i8 %0 to i1
  ret i1 %tobool
}

; Function Attrs: mustprogress nounwind uwtable
define linkonce_odr dso_local void @_ZN4node12DebugOptions20EnableBreakFirstLineEv(ptr noundef nonnull align 8 dereferenceable(96) %this) #4 comdat align 2 {
entry:
  %this.addr = alloca ptr, align 8
  store ptr %this, ptr %this.addr, align 8
  %this1 = load ptr, ptr %this.addr, align 8
  %inspector_enabled = getelementptr inbounds %"class.node::DebugOptions", ptr %this1, i32 0, i32 2
  store i8 1, ptr %inspector_enabled, align 1
  %break_first_line = getelementptr inbounds %"class.node::DebugOptions", ptr %this1, i32 0, i32 4
  store i8 1, ptr %break_first_line, align 1
  ret void
}

; Function Attrs: mustprogress nounwind uwtable
define linkonce_odr dso_local noundef ptr @_ZN4node18EnvironmentOptions17get_debug_optionsEv(ptr noundef nonnull align 8 dereferenceable(1144) %this) #4 comdat align 2 {
entry:
  %this.addr = alloca ptr, align 8
  store ptr %this, ptr %this.addr, align 8
  %this1 = load ptr, ptr %this.addr, align 8
  %debug_options_ = getelementptr inbounds %"class.node::EnvironmentOptions", ptr %this1, i32 0, i32 99
  ret ptr %debug_options_
}

; Function Attrs: mustprogress nounwind uwtable
define linkonce_odr dso_local void @_ZN4node9inspector19NodeInspectorClient15waitForFrontendEv(ptr noundef nonnull align 8 dereferenceable(184) %this) #4 comdat align 2 {
entry:
  %this.addr = alloca ptr, align 8
  store ptr %this, ptr %this.addr, align 8
  %this1 = load ptr, ptr %this.addr, align 8
  %waiting_for_frontend_ = getelementptr inbounds %"class.node::inspector::NodeInspectorClient", ptr %this1, i32 0, i32 9
  store i8 1, ptr %waiting_for_frontend_, align 1
  call void @_ZN4node9inspector19NodeInspectorClient14runMessageLoopEv(ptr noundef nonnull align 8 dereferenceable(184) %this1)
  ret void
}

; Function Attrs: mustprogress nounwind uwtable
define linkonce_odr dso_local noundef zeroext i1 @_ZStneIN4node9inspector11InspectorIoESt14default_deleteIS2_EEbRKSt10unique_ptrIT_T0_EDn(ptr noundef nonnull align 8 dereferenceable(8) %__x, ptr %0) #4 comdat {
entry:
  %__x.addr = alloca ptr, align 8
  %.addr = alloca ptr, align 8
  store ptr %__x, ptr %__x.addr, align 8
  store ptr %0, ptr %.addr, align 8
  %1 = load ptr, ptr %__x.addr, align 8
  %call = call noundef zeroext i1 @_ZNKSt10unique_ptrIN4node9inspector11InspectorIoESt14default_deleteIS2_EEcvbEv(ptr noundef nonnull align 8 dereferenceable(8) %1) #3
  ret i1 %call
}

; Function Attrs: mustprogress nounwind uwtable
define linkonce_odr dso_local noundef ptr @_ZN4node11Environment10permissionEv(ptr noundef nonnull align 8 dereferenceable(2872) %this) #4 comdat align 2 {
entry:
  %this.addr = alloca ptr, align 8
  store ptr %this, ptr %this.addr, align 8
  %this1 = load ptr, ptr %this.addr, align 8
  %permission_ = getelementptr inbounds %"class.node::Environment", ptr %this1, i32 0, i32 18
  ret ptr %permission_
}

; Function Attrs: mustprogress nounwind uwtable
define linkonce_odr dso_local void @_ZNSt17basic_string_viewIcSt11char_traitsIcEEC2EPKc(ptr noundef nonnull align 8 dereferenceable(16) %this, ptr noundef nonnull %__str) unnamed_addr #4 comdat align 2 {
entry:
  %this.addr = alloca ptr, align 8
  %__str.addr = alloca ptr, align 8
  store ptr %this, ptr %this.addr, align 8
  store ptr %__str, ptr %__str.addr, align 8
  %this1 = load ptr, ptr %this.addr, align 8
  %_M_len = getelementptr inbounds %"class.std::basic_string_view", ptr %this1, i32 0, i32 0
  %0 = load ptr, ptr %__str.addr, align 8
  %call = call noundef i64 @_ZNSt11char_traitsIcE6lengthEPKc(ptr noundef %0)
  store i64 %call, ptr %_M_len, align 8
  %_M_str = getelementptr inbounds %"class.std::basic_string_view", ptr %this1, i32 0, i32 1
  %1 = load ptr, ptr %__str.addr, align 8
  store ptr %1, ptr %_M_str, align 8
  ret void
}

declare void @_ZN4node10permission10Permission17ThrowAccessDeniedEPNS_11EnvironmentENS0_15PermissionScopeERKSt17basic_string_viewIcSt11char_traitsIcEE(ptr noundef, i32 noundef, ptr noundef nonnull align 8 dereferenceable(16)) #1

; Function Attrs: mustprogress nounwind uwtable
define linkonce_odr dso_local noundef zeroext i1 @_ZNK4node11Environment23should_create_inspectorEv(ptr noundef nonnull align 8 dereferenceable(2872) %this) #4 comdat align 2 {
entry:
  %this.addr = alloca ptr, align 8
  store ptr %this, ptr %this.addr, align 8
  %this1 = load ptr, ptr %this.addr, align 8
  %flags_ = getelementptr inbounds %"class.node::Environment", ptr %this1, i32 0, i32 63
  %0 = load i64, ptr %flags_, align 8
  %and = and i64 %0, 512
  %cmp = icmp eq i64 %and, 0
  br i1 %cmp, label %land.lhs.true, label %land.end

land.lhs.true:                                    ; preds = %entry
  %options_ = getelementptr inbounds %"class.node::Environment", ptr %this1, i32 0, i32 40
  %call = call noundef ptr @_ZNKSt19__shared_ptr_accessIN4node18EnvironmentOptionsELN9__gnu_cxx12_Lock_policyE2ELb0ELb0EEptEv(ptr noundef nonnull align 1 dereferenceable(1) %options_) #3
  %test_runner = getelementptr inbounds %"class.node::EnvironmentOptions", ptr %call, i32 0, i32 56
  %1 = load i8, ptr %test_runner, align 1
  %tobool = trunc i8 %1 to i1
  br i1 %tobool, label %land.end, label %land.rhs

land.rhs:                                         ; preds = %land.lhs.true
  %options_2 = getelementptr inbounds %"class.node::Environment", ptr %this1, i32 0, i32 40
  %call3 = call noundef ptr @_ZNKSt19__shared_ptr_accessIN4node18EnvironmentOptionsELN9__gnu_cxx12_Lock_policyE2ELb0ELb0EEptEv(ptr noundef nonnull align 1 dereferenceable(1) %options_2) #3
  %watch_mode = getelementptr inbounds %"class.node::EnvironmentOptions", ptr %call3, i32 0, i32 79
  %2 = load i8, ptr %watch_mode, align 1
  %tobool4 = trunc i8 %2 to i1
  %lnot = xor i1 %tobool4, true
  br label %land.end

land.end:                                         ; preds = %land.rhs, %land.lhs.true, %entry
  %3 = phi i1 [ false, %land.lhs.true ], [ false, %entry ], [ %lnot, %land.rhs ]
  ret i1 %3
}

; Function Attrs: mustprogress nounwind uwtable
define linkonce_odr dso_local noundef zeroext i1 @_ZNKSt12__shared_ptrIN4node9inspector19NodeInspectorClientELN9__gnu_cxx12_Lock_policyE2EEcvbEv(ptr noundef nonnull align 8 dereferenceable(16) %this) #4 comdat align 2 {
entry:
  %this.addr = alloca ptr, align 8
  store ptr %this, ptr %this.addr, align 8
  %this1 = load ptr, ptr %this.addr, align 8
  %_M_ptr = getelementptr inbounds %"class.std::__shared_ptr", ptr %this1, i32 0, i32 0
  %0 = load ptr, ptr %_M_ptr, align 8
  %cmp = icmp ne ptr %0, null
  ret i1 %cmp
}

; Function Attrs: mustprogress nounwind uwtable
define internal void @_ZN4node9inspector12_GLOBAL__N_132ThrowUninitializedInspectorErrorEPNS_11EnvironmentE(ptr noundef %env) #4 {
entry:
  %this.addr.i25 = alloca ptr, align 8
  %other.addr.i = alloca ptr, align 8
  %this.addr.i.i = alloca ptr, align 8
  %this.addr.i23 = alloca ptr, align 8
  %that.i = alloca %"class.v8::Local.510", align 8
  %this.addr.i22 = alloca ptr, align 8
  %retval.i = alloca %"class.v8::Local.510", align 8
  %this.addr.i = alloca ptr, align 8
  %env.addr = alloca ptr, align 8
  %scope = alloca %"class.v8::HandleScope", align 8
  %msg = alloca ptr, align 8
  %exception = alloca %"class.v8::Local.346", align 8
  %agg.tmp = alloca %"class.v8::Local.510", align 8
  %ref.tmp = alloca %"class.v8::MaybeLocal.512", align 8
  %agg.tmp14 = alloca %"class.v8::Local.346", align 8
  %coerce = alloca %"class.v8::Local.346", align 8
  store ptr %env, ptr %env.addr, align 8
  %0 = load ptr, ptr %env.addr, align 8
  %call = call noundef ptr @_ZNK4node11Environment7isolateEv(ptr noundef nonnull align 8 dereferenceable(2872) %0)
  call void @_ZN2v811HandleScopeC1EPNS_7IsolateE(ptr noundef nonnull align 8 dereferenceable(24) %scope, ptr noundef %call)
  store ptr @.str.82, ptr %msg, align 8
  %1 = load ptr, ptr %env.addr, align 8
  %call1 = call noundef ptr @_ZNK4node11Environment7isolateEv(ptr noundef nonnull align 8 dereferenceable(2872) %1)
  %2 = load ptr, ptr %msg, align 8
  %call2 = call ptr @_ZN2v86String11NewFromUtf8EPNS_7IsolateEPKcNS_13NewStringTypeEi(ptr noundef %call1, ptr noundef %2, i32 noundef 0, i32 noundef -1)
  %coerce.dive = getelementptr inbounds %"class.v8::MaybeLocal.512", ptr %ref.tmp, i32 0, i32 0
  %coerce.dive3 = getelementptr inbounds %"class.v8::Local.510", ptr %coerce.dive, i32 0, i32 0
  %coerce.dive4 = getelementptr inbounds %"class.v8::LocalBase.511", ptr %coerce.dive3, i32 0, i32 0
  %coerce.dive5 = getelementptr inbounds %"class.v8::IndirectHandleBase", ptr %coerce.dive4, i32 0, i32 0
  store ptr %call2, ptr %coerce.dive5, align 8
  store ptr %ref.tmp, ptr %this.addr.i, align 8
  %this1.i = load ptr, ptr %this.addr.i, align 8
  store ptr %this1.i, ptr %this.addr.i23, align 8
  %this1.i24 = load ptr, ptr %this.addr.i23, align 8
  store ptr %this1.i24, ptr %this.addr.i.i, align 8
  %this1.i.i = load ptr, ptr %this.addr.i.i, align 8
  %3 = load ptr, ptr %this1.i.i, align 8
  %cmp.i.i = icmp eq ptr %3, null
  br i1 %cmp.i.i, label %if.then.i, label %_ZN2v810MaybeLocalINS_6StringEE14ToLocalCheckedEv.exit

if.then.i:                                        ; preds = %entry
  call void @_ZN2v812api_internal12ToLocalEmptyEv() #3
  br label %_ZN2v810MaybeLocalINS_6StringEE14ToLocalCheckedEv.exit

_ZN2v810MaybeLocalINS_6StringEE14ToLocalCheckedEv.exit: ; preds = %if.then.i, %entry
  call void @llvm.memcpy.p0.p0.i64(ptr align 8 %retval.i, ptr align 8 %this1.i, i64 8, i1 false)
  %4 = load ptr, ptr %retval.i, align 8
  %coerce.dive7 = getelementptr inbounds %"class.v8::Local.510", ptr %agg.tmp, i32 0, i32 0
  %coerce.dive8 = getelementptr inbounds %"class.v8::LocalBase.511", ptr %coerce.dive7, i32 0, i32 0
  %coerce.dive9 = getelementptr inbounds %"class.v8::IndirectHandleBase", ptr %coerce.dive8, i32 0, i32 0
  store ptr %4, ptr %coerce.dive9, align 8
  %coerce.dive10 = getelementptr inbounds %"class.v8::Local.510", ptr %agg.tmp, i32 0, i32 0
  %coerce.dive11 = getelementptr inbounds %"class.v8::LocalBase.511", ptr %coerce.dive10, i32 0, i32 0
  %coerce.dive12 = getelementptr inbounds %"class.v8::IndirectHandleBase", ptr %coerce.dive11, i32 0, i32 0
  %5 = load ptr, ptr %coerce.dive12, align 8
  store ptr %5, ptr %that.i, align 8
  store ptr %exception, ptr %this.addr.i22, align 8
  %this3.i = load ptr, ptr %this.addr.i22, align 8
  store ptr %this3.i, ptr %this.addr.i25, align 8
  store ptr %that.i, ptr %other.addr.i, align 8
  %this1.i26 = load ptr, ptr %this.addr.i25, align 8
  %6 = load ptr, ptr %other.addr.i, align 8
  call void @llvm.memcpy.p0.p0.i64(ptr align 8 %this1.i26, ptr align 8 %6, i64 8, i1 false)
  %7 = load ptr, ptr %env.addr, align 8
  %call13 = call noundef ptr @_ZNK4node11Environment7isolateEv(ptr noundef nonnull align 8 dereferenceable(2872) %7)
  call void @llvm.memcpy.p0.p0.i64(ptr align 8 %agg.tmp14, ptr align 8 %exception, i64 8, i1 false)
  %coerce.dive15 = getelementptr inbounds %"class.v8::Local.346", ptr %agg.tmp14, i32 0, i32 0
  %coerce.dive16 = getelementptr inbounds %"class.v8::LocalBase.347", ptr %coerce.dive15, i32 0, i32 0
  %coerce.dive17 = getelementptr inbounds %"class.v8::IndirectHandleBase", ptr %coerce.dive16, i32 0, i32 0
  %8 = load ptr, ptr %coerce.dive17, align 8
  %call18 = call ptr @_ZN2v87Isolate14ThrowExceptionENS_5LocalINS_5ValueEEE(ptr noundef nonnull align 1 dereferenceable(1) %call13, ptr %8)
  %coerce.dive19 = getelementptr inbounds %"class.v8::Local.346", ptr %coerce, i32 0, i32 0
  %coerce.dive20 = getelementptr inbounds %"class.v8::LocalBase.347", ptr %coerce.dive19, i32 0, i32 0
  %coerce.dive21 = getelementptr inbounds %"class.v8::IndirectHandleBase", ptr %coerce.dive20, i32 0, i32 0
  store ptr %call18, ptr %coerce.dive21, align 8
  call void @_ZN2v811HandleScopeD1Ev(ptr noundef nonnull align 8 dereferenceable(24) %scope) #3
  ret void
}

; Function Attrs: mustprogress nounwind uwtable
define linkonce_odr dso_local noundef zeroext i1 @_ZStneIN4node9inspector19NodeInspectorClientEEbRKSt10shared_ptrIT_EDn(ptr noundef nonnull align 8 dereferenceable(16) %__a, ptr %0) #4 comdat {
entry:
  %__a.addr = alloca ptr, align 8
  %.addr = alloca ptr, align 8
  store ptr %__a, ptr %__a.addr, align 8
  store ptr %0, ptr %.addr, align 8
  %1 = load ptr, ptr %__a.addr, align 8
  %call = call noundef zeroext i1 @_ZNKSt12__shared_ptrIN4node9inspector19NodeInspectorClientELN9__gnu_cxx12_Lock_policyE2EEcvbEv(ptr noundef nonnull align 8 dereferenceable(16) %1) #3
  ret i1 %call
}

declare void @_ZN4node9inspector11InspectorIo5StartESt10shared_ptrINS0_16MainThreadHandleEERKNSt7__cxx1112basic_stringIcSt11char_traitsIcESaIcEEES2_INS_15ExclusiveAccessINS_8HostPortENS_9MutexBaseINS_16LibuvMutexTraitsEEEEEERKNS_17InspectPublishUidE(ptr sret(%"class.std::unique_ptr") align 8, ptr noundef, ptr noundef nonnull align 8 dereferenceable(32), ptr noundef, ptr noundef nonnull align 1 dereferenceable(2)) #1

; Function Attrs: mustprogress nounwind uwtable
define linkonce_odr dso_local void @_ZNSt10shared_ptrIN4node15ExclusiveAccessINS0_8HostPortENS0_9MutexBaseINS0_16LibuvMutexTraitsEEEEEEC2ERKS7_(ptr noundef nonnull align 8 dereferenceable(16) %this, ptr noundef nonnull align 8 dereferenceable(16) %0) unnamed_addr #4 comdat align 2 {
entry:
  %this.addr = alloca ptr, align 8
  %.addr = alloca ptr, align 8
  store ptr %this, ptr %this.addr, align 8
  store ptr %0, ptr %.addr, align 8
  %this1 = load ptr, ptr %this.addr, align 8
  %1 = load ptr, ptr %.addr, align 8
  call void @_ZNSt12__shared_ptrIN4node15ExclusiveAccessINS0_8HostPortENS0_9MutexBaseINS0_16LibuvMutexTraitsEEEEELN9__gnu_cxx12_Lock_policyE2EEC2ERKS9_(ptr noundef nonnull align 8 dereferenceable(16) %this1, ptr noundef nonnull align 8 dereferenceable(16) %1) #3
  ret void
}

; Function Attrs: mustprogress nounwind uwtable
define linkonce_odr dso_local noundef nonnull align 8 dereferenceable(8) ptr @_ZNSt10unique_ptrIN4node9inspector11InspectorIoESt14default_deleteIS2_EEaSEOS5_(ptr noundef nonnull align 8 dereferenceable(8) %this, ptr noundef nonnull align 8 dereferenceable(8) %0) #4 comdat align 2 {
entry:
  %this.addr = alloca ptr, align 8
  %.addr = alloca ptr, align 8
  store ptr %this, ptr %this.addr, align 8
  store ptr %0, ptr %.addr, align 8
  %this1 = load ptr, ptr %this.addr, align 8
  %_M_t = getelementptr inbounds %"class.std::unique_ptr", ptr %this1, i32 0, i32 0
  %1 = load ptr, ptr %.addr, align 8
  %_M_t2 = getelementptr inbounds %"class.std::unique_ptr", ptr %1, i32 0, i32 0
  %call = call noundef nonnull align 8 dereferenceable(8) ptr @_ZNSt15__uniq_ptr_dataIN4node9inspector11InspectorIoESt14default_deleteIS2_ELb1ELb1EEaSEOS5_(ptr noundef nonnull align 8 dereferenceable(8) %_M_t, ptr noundef nonnull align 8 dereferenceable(8) %_M_t2) #3
  ret ptr %this1
}

; Function Attrs: mustprogress nounwind uwtable
define linkonce_odr dso_local noundef zeroext i1 @_ZSteqIN4node9inspector11InspectorIoESt14default_deleteIS2_EEbRKSt10unique_ptrIT_T0_EDn(ptr noundef nonnull align 8 dereferenceable(8) %__x, ptr %0) #4 comdat {
entry:
  %__x.addr = alloca ptr, align 8
  %.addr = alloca ptr, align 8
  store ptr %__x, ptr %__x.addr, align 8
  store ptr %0, ptr %.addr, align 8
  %1 = load ptr, ptr %__x.addr, align 8
  %call = call noundef zeroext i1 @_ZNKSt10unique_ptrIN4node9inspector11InspectorIoESt14default_deleteIS2_EEcvbEv(ptr noundef nonnull align 8 dereferenceable(8) %1) #3
  %lnot = xor i1 %call, true
  ret i1 %lnot
}

; Function Attrs: mustprogress nounwind uwtable
define internal void @_ZN4node9inspector12_GLOBAL__N_132NotifyClusterWorkersDebugEnabledEPNS_11EnvironmentE(ptr noundef %env) #4 {
entry:
  %this.addr.i72 = alloca ptr, align 8
  %other.addr.i73 = alloca ptr, align 8
  %this.addr.i70 = alloca ptr, align 8
  %this.addr.i68 = alloca ptr, align 8
  %slot.addr.i = alloca ptr, align 8
  %this.addr.i65 = alloca ptr, align 8
  %that.i62 = alloca %"class.v8::Local.513", align 8
  %this.addr.i63 = alloca ptr, align 8
  %this.addr.i59 = alloca ptr, align 8
  %this.addr.i57 = alloca ptr, align 8
  %this.addr.i54 = alloca ptr, align 8
  %other.addr.i55 = alloca ptr, align 8
  %this.addr.i53 = alloca ptr, align 8
  %other.addr.i = alloca ptr, align 8
  %that.i50 = alloca %"class.v8::Local.510", align 8
  %this.addr.i51 = alloca ptr, align 8
  %that.i = alloca %"class.v8::Local.510", align 8
  %this.addr.i = alloca ptr, align 8
  %env.addr = alloca ptr, align 8
  %isolate = alloca ptr, align 8
  %handle_scope = alloca %"class.v8::HandleScope", align 8
  %context = alloca %"class.v8::Local", align 8
  %message = alloca %"class.v8::Local.513", align 8
  %ref.tmp = alloca %"class.v8::Maybe", align 1
  %agg.tmp = alloca %"class.v8::Local", align 8
  %agg.tmp9 = alloca %"class.v8::Local.346", align 8
  %agg.tmp10 = alloca %"class.v8::Local.510", align 8
  %agg.tmp18 = alloca %"class.v8::Local.346", align 8
  %agg.tmp19 = alloca %"class.v8::Local.510", align 8
  %agg.tmp37 = alloca %"class.v8::Local.346", align 8
  %agg.tmp38 = alloca %"class.v8::Local.513", align 8
  %coerce = alloca %"class.v8::MaybeLocal", align 8
  store ptr %env, ptr %env.addr, align 8
  %0 = load ptr, ptr %env.addr, align 8
  %call = call noundef ptr @_ZNK4node11Environment7isolateEv(ptr noundef nonnull align 8 dereferenceable(2872) %0)
  store ptr %call, ptr %isolate, align 8
  %1 = load ptr, ptr %isolate, align 8
  call void @_ZN2v811HandleScopeC1EPNS_7IsolateE(ptr noundef nonnull align 8 dereferenceable(24) %handle_scope, ptr noundef %1)
  %2 = load ptr, ptr %env.addr, align 8
  %call1 = call ptr @_ZNK4node11Environment7contextEv(ptr noundef nonnull align 8 dereferenceable(2872) %2)
  %coerce.dive = getelementptr inbounds %"class.v8::Local", ptr %context, i32 0, i32 0
  %coerce.dive2 = getelementptr inbounds %"class.v8::LocalBase", ptr %coerce.dive, i32 0, i32 0
  %coerce.dive3 = getelementptr inbounds %"class.v8::IndirectHandleBase", ptr %coerce.dive2, i32 0, i32 0
  store ptr %call1, ptr %coerce.dive3, align 8
  %3 = load ptr, ptr %isolate, align 8
  %call4 = call ptr @_ZN2v86Object3NewEPNS_7IsolateE(ptr noundef %3)
  %coerce.dive5 = getelementptr inbounds %"class.v8::Local.513", ptr %message, i32 0, i32 0
  %coerce.dive6 = getelementptr inbounds %"class.v8::LocalBase.514", ptr %coerce.dive5, i32 0, i32 0
  %coerce.dive7 = getelementptr inbounds %"class.v8::IndirectHandleBase", ptr %coerce.dive6, i32 0, i32 0
  store ptr %call4, ptr %coerce.dive7, align 8
  store ptr %message, ptr %this.addr.i57, align 8
  %this1.i58 = load ptr, ptr %this.addr.i57, align 8
  store ptr %this1.i58, ptr %this.addr.i65, align 8
  %this1.i66 = load ptr, ptr %this.addr.i65, align 8
  store ptr %this1.i66, ptr %this.addr.i68, align 8
  %this1.i69 = load ptr, ptr %this.addr.i68, align 8
  %4 = load ptr, ptr %this1.i69, align 8
  store ptr %4, ptr %slot.addr.i, align 8
  %5 = load ptr, ptr %slot.addr.i, align 8
  call void @llvm.memcpy.p0.p0.i64(ptr align 8 %agg.tmp, ptr align 8 %context, i64 8, i1 false)
  %6 = load ptr, ptr %isolate, align 8
  %call11 = call ptr @_ZN4node21FIXED_ONE_BYTE_STRINGILi4EEEN2v85LocalINS1_6StringEEEPNS1_7IsolateERAT__Kc(ptr noundef %6, ptr noundef nonnull align 1 dereferenceable(4) @.str.83)
  %coerce.dive12 = getelementptr inbounds %"class.v8::Local.510", ptr %agg.tmp10, i32 0, i32 0
  %coerce.dive13 = getelementptr inbounds %"class.v8::LocalBase.511", ptr %coerce.dive12, i32 0, i32 0
  %coerce.dive14 = getelementptr inbounds %"class.v8::IndirectHandleBase", ptr %coerce.dive13, i32 0, i32 0
  store ptr %call11, ptr %coerce.dive14, align 8
  %coerce.dive15 = getelementptr inbounds %"class.v8::Local.510", ptr %agg.tmp10, i32 0, i32 0
  %coerce.dive16 = getelementptr inbounds %"class.v8::LocalBase.511", ptr %coerce.dive15, i32 0, i32 0
  %coerce.dive17 = getelementptr inbounds %"class.v8::IndirectHandleBase", ptr %coerce.dive16, i32 0, i32 0
  %7 = load ptr, ptr %coerce.dive17, align 8
  store ptr %7, ptr %that.i, align 8
  store ptr %agg.tmp9, ptr %this.addr.i, align 8
  %this3.i = load ptr, ptr %this.addr.i, align 8
  store ptr %this3.i, ptr %this.addr.i54, align 8
  store ptr %that.i, ptr %other.addr.i55, align 8
  %this1.i56 = load ptr, ptr %this.addr.i54, align 8
  %8 = load ptr, ptr %other.addr.i55, align 8
  call void @llvm.memcpy.p0.p0.i64(ptr align 8 %this1.i56, ptr align 8 %8, i64 8, i1 false)
  %9 = load ptr, ptr %isolate, align 8
  %call20 = call ptr @_ZN4node21FIXED_ONE_BYTE_STRINGILi19EEEN2v85LocalINS1_6StringEEEPNS1_7IsolateERAT__Kc(ptr noundef %9, ptr noundef nonnull align 1 dereferenceable(19) @.str.84)
  %coerce.dive21 = getelementptr inbounds %"class.v8::Local.510", ptr %agg.tmp19, i32 0, i32 0
  %coerce.dive22 = getelementptr inbounds %"class.v8::LocalBase.511", ptr %coerce.dive21, i32 0, i32 0
  %coerce.dive23 = getelementptr inbounds %"class.v8::IndirectHandleBase", ptr %coerce.dive22, i32 0, i32 0
  store ptr %call20, ptr %coerce.dive23, align 8
  %coerce.dive24 = getelementptr inbounds %"class.v8::Local.510", ptr %agg.tmp19, i32 0, i32 0
  %coerce.dive25 = getelementptr inbounds %"class.v8::LocalBase.511", ptr %coerce.dive24, i32 0, i32 0
  %coerce.dive26 = getelementptr inbounds %"class.v8::IndirectHandleBase", ptr %coerce.dive25, i32 0, i32 0
  %10 = load ptr, ptr %coerce.dive26, align 8
  store ptr %10, ptr %that.i50, align 8
  store ptr %agg.tmp18, ptr %this.addr.i51, align 8
  %this3.i52 = load ptr, ptr %this.addr.i51, align 8
  store ptr %this3.i52, ptr %this.addr.i53, align 8
  store ptr %that.i50, ptr %other.addr.i, align 8
  %this1.i = load ptr, ptr %this.addr.i53, align 8
  %11 = load ptr, ptr %other.addr.i, align 8
  call void @llvm.memcpy.p0.p0.i64(ptr align 8 %this1.i, ptr align 8 %11, i64 8, i1 false)
  %coerce.dive27 = getelementptr inbounds %"class.v8::Local", ptr %agg.tmp, i32 0, i32 0
  %coerce.dive28 = getelementptr inbounds %"class.v8::LocalBase", ptr %coerce.dive27, i32 0, i32 0
  %coerce.dive29 = getelementptr inbounds %"class.v8::IndirectHandleBase", ptr %coerce.dive28, i32 0, i32 0
  %12 = load ptr, ptr %coerce.dive29, align 8
  %coerce.dive30 = getelementptr inbounds %"class.v8::Local.346", ptr %agg.tmp9, i32 0, i32 0
  %coerce.dive31 = getelementptr inbounds %"class.v8::LocalBase.347", ptr %coerce.dive30, i32 0, i32 0
  %coerce.dive32 = getelementptr inbounds %"class.v8::IndirectHandleBase", ptr %coerce.dive31, i32 0, i32 0
  %13 = load ptr, ptr %coerce.dive32, align 8
  %coerce.dive33 = getelementptr inbounds %"class.v8::Local.346", ptr %agg.tmp18, i32 0, i32 0
  %coerce.dive34 = getelementptr inbounds %"class.v8::LocalBase.347", ptr %coerce.dive33, i32 0, i32 0
  %coerce.dive35 = getelementptr inbounds %"class.v8::IndirectHandleBase", ptr %coerce.dive34, i32 0, i32 0
  %14 = load ptr, ptr %coerce.dive35, align 8
  %call36 = call i16 @_ZN2v86Object3SetENS_5LocalINS_7ContextEEENS1_INS_5ValueEEES5_(ptr noundef nonnull align 1 dereferenceable(1) %5, ptr %12, ptr %13, ptr %14)
  store i16 %call36, ptr %ref.tmp, align 1
  store ptr %ref.tmp, ptr %this.addr.i59, align 8
  %this1.i60 = load ptr, ptr %this.addr.i59, align 8
  store ptr %this1.i60, ptr %this.addr.i70, align 8
  %this1.i71 = load ptr, ptr %this.addr.i70, align 8
  %15 = load i8, ptr %this1.i71, align 1
  %tobool.i = trunc i8 %15 to i1
  %lnot3.i = xor i1 %tobool.i, true
  br i1 %lnot3.i, label %if.then.i, label %_ZNK2v85MaybeIbE5CheckEv.exit

if.then.i:                                        ; preds = %entry
  call void @_ZN2v812api_internal17FromJustIsNothingEv() #3
  br label %_ZNK2v85MaybeIbE5CheckEv.exit

_ZNK2v85MaybeIbE5CheckEv.exit:                    ; preds = %if.then.i, %entry
  %16 = load ptr, ptr %env.addr, align 8
  call void @llvm.memcpy.p0.p0.i64(ptr align 8 %agg.tmp38, ptr align 8 %message, i64 8, i1 false)
  %coerce.dive39 = getelementptr inbounds %"class.v8::Local.513", ptr %agg.tmp38, i32 0, i32 0
  %coerce.dive40 = getelementptr inbounds %"class.v8::LocalBase.514", ptr %coerce.dive39, i32 0, i32 0
  %coerce.dive41 = getelementptr inbounds %"class.v8::IndirectHandleBase", ptr %coerce.dive40, i32 0, i32 0
  %17 = load ptr, ptr %coerce.dive41, align 8
  store ptr %17, ptr %that.i62, align 8
  store ptr %agg.tmp37, ptr %this.addr.i63, align 8
  %this3.i64 = load ptr, ptr %this.addr.i63, align 8
  store ptr %this3.i64, ptr %this.addr.i72, align 8
  store ptr %that.i62, ptr %other.addr.i73, align 8
  %this1.i74 = load ptr, ptr %this.addr.i72, align 8
  %18 = load ptr, ptr %other.addr.i73, align 8
  call void @llvm.memcpy.p0.p0.i64(ptr align 8 %this1.i74, ptr align 8 %18, i64 8, i1 false)
  %coerce.dive42 = getelementptr inbounds %"class.v8::Local.346", ptr %agg.tmp37, i32 0, i32 0
  %coerce.dive43 = getelementptr inbounds %"class.v8::LocalBase.347", ptr %coerce.dive42, i32 0, i32 0
  %coerce.dive44 = getelementptr inbounds %"class.v8::IndirectHandleBase", ptr %coerce.dive43, i32 0, i32 0
  %19 = load ptr, ptr %coerce.dive44, align 8
  %call45 = call ptr @_ZN4node11ProcessEmitEPNS_11EnvironmentEPKcN2v85LocalINS4_5ValueEEE(ptr noundef %16, ptr noundef @.str.85, ptr %19)
  %coerce.dive46 = getelementptr inbounds %"class.v8::MaybeLocal", ptr %coerce, i32 0, i32 0
  %coerce.dive47 = getelementptr inbounds %"class.v8::Local.346", ptr %coerce.dive46, i32 0, i32 0
  %coerce.dive48 = getelementptr inbounds %"class.v8::LocalBase.347", ptr %coerce.dive47, i32 0, i32 0
  %coerce.dive49 = getelementptr inbounds %"class.v8::IndirectHandleBase", ptr %coerce.dive48, i32 0, i32 0
  store ptr %call45, ptr %coerce.dive49, align 8
  call void @_ZN2v811HandleScopeD1Ev(ptr noundef nonnull align 8 dereferenceable(24) %handle_scope) #3
  ret void
}

; Function Attrs: mustprogress nounwind uwtable
define dso_local void @_ZN4node9inspector5Agent4StopEv(ptr noundef nonnull align 8 dereferenceable(186) %this) #4 align 2 {
entry:
  %this.addr = alloca ptr, align 8
  store ptr %this, ptr %this.addr, align 8
  %this1 = load ptr, ptr %this.addr, align 8
  %io_ = getelementptr inbounds %"class.node::inspector::Agent", ptr %this1, i32 0, i32 2
  call void @_ZNSt10unique_ptrIN4node9inspector11InspectorIoESt14default_deleteIS2_EE5resetEPS2_(ptr noundef nonnull align 8 dereferenceable(8) %io_, ptr noundef null) #3
  ret void
}

; Function Attrs: mustprogress nounwind uwtable
define linkonce_odr dso_local void @_ZNSt10unique_ptrIN4node9inspector11InspectorIoESt14default_deleteIS2_EE5resetEPS2_(ptr noundef nonnull align 8 dereferenceable(8) %this, ptr noundef %__p) #4 comdat align 2 {
entry:
  %this.addr = alloca ptr, align 8
  %__p.addr = alloca ptr, align 8
  store ptr %this, ptr %this.addr, align 8
  store ptr %__p, ptr %__p.addr, align 8
  %this1 = load ptr, ptr %this.addr, align 8
  %_M_t = getelementptr inbounds %"class.std::unique_ptr", ptr %this1, i32 0, i32 0
  %0 = load ptr, ptr %__p.addr, align 8
  call void @_ZNSt15__uniq_ptr_implIN4node9inspector11InspectorIoESt14default_deleteIS2_EE5resetEPS2_(ptr noundef nonnull align 8 dereferenceable(8) %_M_t, ptr noundef %0) #3
  ret void
}

; Function Attrs: mustprogress nounwind uwtable
define dso_local void @_ZN4node9inspector5Agent7ConnectESt10unique_ptrINS0_24InspectorSessionDelegateESt14default_deleteIS3_EEb(ptr noalias sret(%"class.std::unique_ptr.323") align 8 %agg.result, ptr noundef nonnull align 8 dereferenceable(186) %this, ptr noundef %delegate, i1 noundef zeroext %prevent_shutdown) #4 align 2 {
entry:
  %retval.i = alloca i1, align 1
  %this.addr.i = alloca ptr, align 8
  %permission.addr.i = alloca i32, align 4
  %res.addr.i = alloca ptr, align 8
  %result.ptr = alloca ptr, align 8
  %this.addr = alloca ptr, align 8
  %delegate.indirect_addr = alloca ptr, align 8
  %prevent_shutdown.addr = alloca i8, align 1
  %ref.tmp = alloca %"class.std::basic_string_view", align 8
  %ref.tmp6 = alloca %"class.std::basic_string_view", align 8
  %session_id = alloca i32, align 4
  %agg.tmp = alloca %"class.std::unique_ptr.331", align 8
  %agg.tmp28 = alloca %"class.std::shared_ptr", align 8
  store ptr %agg.result, ptr %result.ptr, align 8
  store ptr %this, ptr %this.addr, align 8
  store ptr %delegate, ptr %delegate.indirect_addr, align 8
  %frombool = zext i1 %prevent_shutdown to i8
  store i8 %frombool, ptr %prevent_shutdown.addr, align 1
  %this1 = load ptr, ptr %this.addr, align 8
  br label %do.body

do.body:                                          ; preds = %entry
  %parent_env_ = getelementptr inbounds %"class.node::inspector::Agent", ptr %this1, i32 0, i32 0
  %0 = load ptr, ptr %parent_env_, align 8
  %call = call noundef ptr @_ZN4node11Environment10permissionEv(ptr noundef nonnull align 8 dereferenceable(2872) %0)
  call void @_ZNSt17basic_string_viewIcSt11char_traitsIcEEC2EPKc(ptr noundef nonnull align 8 dereferenceable(16) %ref.tmp, ptr noundef @.str.14) #3
  store ptr %call, ptr %this.addr.i, align 8
  store i32 5, ptr %permission.addr.i, align 4
  store ptr %ref.tmp, ptr %res.addr.i, align 8
  %this1.i = load ptr, ptr %this.addr.i, align 8
  %enabled_.i = getelementptr inbounds %"class.node::permission::Permission", ptr %this1.i, i32 0, i32 1
  %1 = load i8, ptr %enabled_.i, align 8
  %tobool.i = trunc i8 %1 to i1
  %lnot3.i = xor i1 %tobool.i, true
  br i1 %lnot3.i, label %if.then.i, label %if.end.i

if.then.i:                                        ; preds = %do.body
  store i1 true, ptr %retval.i, align 1
  br label %_ZNK4node10permission10Permission10is_grantedENS0_15PermissionScopeERKSt17basic_string_viewIcSt11char_traitsIcEE.exit

if.end.i:                                         ; preds = %do.body
  %2 = load i32, ptr %permission.addr.i, align 4
  %3 = load ptr, ptr %res.addr.i, align 8
  %call.i = call noundef zeroext i1 @_ZNK4node10permission10Permission16is_scope_grantedENS0_15PermissionScopeERKSt17basic_string_viewIcSt11char_traitsIcEE(ptr noundef nonnull align 8 dereferenceable(57) %this1.i, i32 noundef %2, ptr noundef nonnull align 8 dereferenceable(16) %3) #15
  store i1 %call.i, ptr %retval.i, align 1
  br label %_ZNK4node10permission10Permission10is_grantedENS0_15PermissionScopeERKSt17basic_string_viewIcSt11char_traitsIcEE.exit

_ZNK4node10permission10Permission10is_grantedENS0_15PermissionScopeERKSt17basic_string_viewIcSt11char_traitsIcEE.exit: ; preds = %if.end.i, %if.then.i
  %4 = load i1, ptr %retval.i, align 1
  %lnot = xor i1 %4, true
  %lnot3 = xor i1 %lnot, true
  %lnot4 = xor i1 %lnot3, true
  br i1 %lnot4, label %if.then, label %if.end

if.then:                                          ; preds = %_ZNK4node10permission10Permission10is_grantedENS0_15PermissionScopeERKSt17basic_string_viewIcSt11char_traitsIcEE.exit
  %parent_env_5 = getelementptr inbounds %"class.node::inspector::Agent", ptr %this1, i32 0, i32 0
  %5 = load ptr, ptr %parent_env_5, align 8
  call void @_ZNSt17basic_string_viewIcSt11char_traitsIcEEC2EPKc(ptr noundef nonnull align 8 dereferenceable(16) %ref.tmp6, ptr noundef @.str.14) #3
  call void @_ZN4node10permission10Permission17ThrowAccessDeniedEPNS_11EnvironmentENS0_15PermissionScopeERKSt17basic_string_viewIcSt11char_traitsIcEE(ptr noundef %5, i32 noundef 5, ptr noundef nonnull align 8 dereferenceable(16) %ref.tmp6)
  call void @_ZNSt10unique_ptrIN4node9inspector16InspectorSessionESt14default_deleteIS2_EEC2IS4_vEEv(ptr noundef nonnull align 8 dereferenceable(8) %agg.result) #3
  br label %return

if.end:                                           ; preds = %_ZNK4node10permission10Permission10is_grantedENS0_15PermissionScopeERKSt17basic_string_viewIcSt11char_traitsIcEE.exit
  br label %do.end

do.end:                                           ; preds = %if.end
  %parent_env_7 = getelementptr inbounds %"class.node::inspector::Agent", ptr %this1, i32 0, i32 0
  %6 = load ptr, ptr %parent_env_7, align 8
  %call8 = call noundef zeroext i1 @_ZNK4node11Environment23should_create_inspectorEv(ptr noundef nonnull align 8 dereferenceable(2872) %6)
  br i1 %call8, label %if.end12, label %land.lhs.true

land.lhs.true:                                    ; preds = %do.end
  %client_ = getelementptr inbounds %"class.node::inspector::Agent", ptr %this1, i32 0, i32 1
  %call9 = call noundef zeroext i1 @_ZNKSt12__shared_ptrIN4node9inspector19NodeInspectorClientELN9__gnu_cxx12_Lock_policyE2EEcvbEv(ptr noundef nonnull align 8 dereferenceable(16) %client_) #3
  br i1 %call9, label %if.end12, label %if.then10

if.then10:                                        ; preds = %land.lhs.true
  %parent_env_11 = getelementptr inbounds %"class.node::inspector::Agent", ptr %this1, i32 0, i32 0
  %7 = load ptr, ptr %parent_env_11, align 8
  call void @_ZN4node9inspector12_GLOBAL__N_132ThrowUninitializedInspectorErrorEPNS_11EnvironmentE(ptr noundef %7)
  call void @_ZNSt10unique_ptrIN4node9inspector16InspectorSessionESt14default_deleteIS2_EEC2IS4_vEEv(ptr noundef nonnull align 8 dereferenceable(8) %agg.result) #3
  br label %return

if.end12:                                         ; preds = %land.lhs.true, %do.end
  br label %do.body13

do.body13:                                        ; preds = %if.end12
  %client_14 = getelementptr inbounds %"class.node::inspector::Agent", ptr %this1, i32 0, i32 1
  %call15 = call noundef zeroext i1 @_ZStneIN4node9inspector19NodeInspectorClientEEbRKSt10shared_ptrIT_EDn(ptr noundef nonnull align 8 dereferenceable(16) %client_14, ptr null) #3
  %lnot16 = xor i1 %call15, true
  %lnot17 = xor i1 %lnot16, true
  %lnot18 = xor i1 %lnot17, true
  br i1 %lnot18, label %if.then19, label %if.end22

if.then19:                                        ; preds = %do.body13
  br label %do.body20

do.body20:                                        ; preds = %if.then19
  call void @_ZN4node6AssertERKNS_13AssertionInfoE(ptr noundef nonnull align 8 dereferenceable(24) @_ZZN4node9inspector5Agent7ConnectESt10unique_ptrINS0_24InspectorSessionDelegateESt14default_deleteIS3_EEbE4args)
  call void @abort() #14
  unreachable

do.end21:                                         ; No predecessors!
  br label %if.end22

if.end22:                                         ; preds = %do.end21, %do.body13
  br label %do.end23

do.end23:                                         ; preds = %if.end22
  %client_24 = getelementptr inbounds %"class.node::inspector::Agent", ptr %this1, i32 0, i32 1
  %call25 = call noundef ptr @_ZNKSt19__shared_ptr_accessIN4node9inspector19NodeInspectorClientELN9__gnu_cxx12_Lock_policyE2ELb0ELb0EEptEv(ptr noundef nonnull align 1 dereferenceable(1) %client_24) #3
  call void @_ZNSt10unique_ptrIN4node9inspector24InspectorSessionDelegateESt14default_deleteIS2_EEC2EOS5_(ptr noundef nonnull align 8 dereferenceable(8) %agg.tmp, ptr noundef nonnull align 8 dereferenceable(8) %delegate) #3
  %8 = load i8, ptr %prevent_shutdown.addr, align 1
  %tobool = trunc i8 %8 to i1
  %call26 = call noundef i32 @_ZN4node9inspector19NodeInspectorClient15connectFrontendESt10unique_ptrINS0_24InspectorSessionDelegateESt14default_deleteIS3_EEb(ptr noundef nonnull align 8 dereferenceable(184) %call25, ptr noundef %agg.tmp, i1 noundef zeroext %tobool)
  call void @_ZNSt10unique_ptrIN4node9inspector24InspectorSessionDelegateESt14default_deleteIS2_EED2Ev(ptr noundef nonnull align 8 dereferenceable(8) %agg.tmp) #3
  store i32 %call26, ptr %session_id, align 4
  %call27 = call noalias noundef nonnull ptr @_Znwm(i64 noundef 32) #16
  %9 = load i32, ptr %session_id, align 4
  %client_29 = getelementptr inbounds %"class.node::inspector::Agent", ptr %this1, i32 0, i32 1
  call void @_ZNSt10shared_ptrIN4node9inspector19NodeInspectorClientEEC2ERKS3_(ptr noundef nonnull align 8 dereferenceable(16) %agg.tmp28, ptr noundef nonnull align 8 dereferenceable(16) %client_29) #3
  call void @_ZN4node9inspector12_GLOBAL__N_126SameThreadInspectorSessionC2EiSt10shared_ptrINS0_19NodeInspectorClientEE(ptr noundef nonnull align 8 dereferenceable(32) %call27, i32 noundef %9, ptr noundef %agg.tmp28)
  call void @_ZNSt10unique_ptrIN4node9inspector16InspectorSessionESt14default_deleteIS2_EEC2IS4_vEEPS2_(ptr noundef nonnull align 8 dereferenceable(8) %agg.result, ptr noundef %call27) #3
  call void @_ZNSt10shared_ptrIN4node9inspector19NodeInspectorClientEED2Ev(ptr noundef nonnull align 8 dereferenceable(16) %agg.tmp28) #3
  br label %return

return:                                           ; preds = %do.end23, %if.then10, %if.then
  ret void
}

; Function Attrs: mustprogress nounwind uwtable
define linkonce_odr dso_local void @_ZNSt10unique_ptrIN4node9inspector16InspectorSessionESt14default_deleteIS2_EEC2IS4_vEEv(ptr noundef nonnull align 8 dereferenceable(8) %this) unnamed_addr #4 comdat align 2 {
entry:
  %this.addr = alloca ptr, align 8
  store ptr %this, ptr %this.addr, align 8
  %this1 = load ptr, ptr %this.addr, align 8
  %_M_t = getelementptr inbounds %"class.std::unique_ptr.323", ptr %this1, i32 0, i32 0
  call void @llvm.memset.p0.i64(ptr align 8 %_M_t, i8 0, i64 8, i1 false)
  call void @_ZNSt15__uniq_ptr_dataIN4node9inspector16InspectorSessionESt14default_deleteIS2_ELb1ELb1EEC2Ev(ptr noundef nonnull align 8 dereferenceable(8) %_M_t) #3
  ret void
}

; Function Attrs: mustprogress nounwind uwtable
define linkonce_odr dso_local noundef i32 @_ZN4node9inspector19NodeInspectorClient15connectFrontendESt10unique_ptrINS0_24InspectorSessionDelegateESt14default_deleteIS3_EEb(ptr noundef nonnull align 8 dereferenceable(184) %this, ptr noundef %delegate, i1 noundef zeroext %prevent_shutdown) #4 comdat align 2 {
entry:
  %this.addr = alloca ptr, align 8
  %delegate.indirect_addr = alloca ptr, align 8
  %prevent_shutdown.addr = alloca i8, align 1
  %session_id = alloca i32, align 4
  %ref.tmp = alloca %"class.std::unique_ptr.517", align 8
  %ref.tmp2 = alloca %"class.std::shared_ptr.320", align 8
  %ref.tmp3 = alloca %"class.std::shared_ptr.272", align 8
  store ptr %this, ptr %this.addr, align 8
  store ptr %delegate, ptr %delegate.indirect_addr, align 8
  %frombool = zext i1 %prevent_shutdown to i8
  store i8 %frombool, ptr %prevent_shutdown.addr, align 1
  %this1 = load ptr, ptr %this.addr, align 8
  %next_session_id_ = getelementptr inbounds %"class.node::inspector::NodeInspectorClient", ptr %this1, i32 0, i32 7
  %0 = load i32, ptr %next_session_id_, align 8
  %inc = add nsw i32 %0, 1
  store i32 %inc, ptr %next_session_id_, align 8
  store i32 %0, ptr %session_id, align 4
  %env_ = getelementptr inbounds %"class.node::inspector::NodeInspectorClient", ptr %this1, i32 0, i32 1
  %client_ = getelementptr inbounds %"class.node::inspector::NodeInspectorClient", ptr %this1, i32 0, i32 4
  call void @_ZN4node9inspector19NodeInspectorClient16getWorkerManagerEv(ptr sret(%"class.std::shared_ptr.320") align 8 %ref.tmp2, ptr noundef nonnull align 8 dereferenceable(184) %this1)
  call void @_ZN4node9inspector19NodeInspectorClient15getThreadHandleEv(ptr sret(%"class.std::shared_ptr.272") align 8 %ref.tmp3, ptr noundef nonnull align 8 dereferenceable(184) %this1)
  call void @_ZSt11make_uniqueIN4node9inspector12_GLOBAL__N_111ChannelImplEJRPNS0_11EnvironmentERSt10unique_ptrIN12v8_inspector11V8InspectorESt14default_deleteIS9_EESt10shared_ptrINS1_13WorkerManagerEES7_INS1_24InspectorSessionDelegateESA_ISH_EESE_INS1_16MainThreadHandleEERbEENSt8__detail9_MakeUniqIT_E15__single_objectEDpOT0_(ptr sret(%"class.std::unique_ptr.517") align 8 %ref.tmp, ptr noundef nonnull align 8 dereferenceable(8) %env_, ptr noundef nonnull align 8 dereferenceable(8) %client_, ptr noundef nonnull align 8 dereferenceable(16) %ref.tmp2, ptr noundef nonnull align 8 dereferenceable(8) %delegate, ptr noundef nonnull align 8 dereferenceable(16) %ref.tmp3, ptr noundef nonnull align 1 dereferenceable(1) %prevent_shutdown.addr)
  %channels_ = getelementptr inbounds %"class.node::inspector::NodeInspectorClient", ptr %this1, i32 0, i32 6
  %call = call noundef nonnull align 8 dereferenceable(8) ptr @_ZNSt13unordered_mapIiSt10unique_ptrIN4node9inspector12_GLOBAL__N_111ChannelImplESt14default_deleteIS4_EESt4hashIiESt8equal_toIiESaISt4pairIKiS7_EEEixERSD_(ptr noundef nonnull align 8 dereferenceable(56) %channels_, ptr noundef nonnull align 4 dereferenceable(4) %session_id)
  %call4 = call noundef nonnull align 8 dereferenceable(8) ptr @_ZNSt10unique_ptrIN4node9inspector12_GLOBAL__N_111ChannelImplESt14default_deleteIS3_EEaSEOS6_(ptr noundef nonnull align 8 dereferenceable(8) %call, ptr noundef nonnull align 8 dereferenceable(8) %ref.tmp) #3
  call void @_ZNSt10unique_ptrIN4node9inspector12_GLOBAL__N_111ChannelImplESt14default_deleteIS3_EED2Ev(ptr noundef nonnull align 8 dereferenceable(8) %ref.tmp) #3
  call void @_ZNSt10shared_ptrIN4node9inspector16MainThreadHandleEED2Ev(ptr noundef nonnull align 8 dereferenceable(16) %ref.tmp3) #3
  call void @_ZNSt10shared_ptrIN4node9inspector13WorkerManagerEED2Ev(ptr noundef nonnull align 8 dereferenceable(16) %ref.tmp2) #3
  %1 = load i32, ptr %session_id, align 4
  ret i32 %1
}

; Function Attrs: mustprogress nounwind uwtable
define linkonce_odr dso_local void @_ZNSt10unique_ptrIN4node9inspector24InspectorSessionDelegateESt14default_deleteIS2_EEC2EOS5_(ptr noundef nonnull align 8 dereferenceable(8) %this, ptr noundef nonnull align 8 dereferenceable(8) %0) unnamed_addr #4 comdat align 2 {
entry:
  %this.addr = alloca ptr, align 8
  %.addr = alloca ptr, align 8
  store ptr %this, ptr %this.addr, align 8
  store ptr %0, ptr %.addr, align 8
  %this1 = load ptr, ptr %this.addr, align 8
  %_M_t = getelementptr inbounds %"class.std::unique_ptr.331", ptr %this1, i32 0, i32 0
  %1 = load ptr, ptr %.addr, align 8
  %_M_t2 = getelementptr inbounds %"class.std::unique_ptr.331", ptr %1, i32 0, i32 0
  call void @_ZNSt15__uniq_ptr_dataIN4node9inspector24InspectorSessionDelegateESt14default_deleteIS2_ELb1ELb1EEC2EOS5_(ptr noundef nonnull align 8 dereferenceable(8) %_M_t, ptr noundef nonnull align 8 dereferenceable(8) %_M_t2) #3
  ret void
}

; Function Attrs: mustprogress nounwind uwtable
define linkonce_odr dso_local void @_ZNSt10unique_ptrIN4node9inspector24InspectorSessionDelegateESt14default_deleteIS2_EED2Ev(ptr noundef nonnull align 8 dereferenceable(8) %this) unnamed_addr #4 comdat align 2 {
entry:
  %this.addr = alloca ptr, align 8
  %__ptr = alloca ptr, align 8
  store ptr %this, ptr %this.addr, align 8
  %this1 = load ptr, ptr %this.addr, align 8
  %_M_t = getelementptr inbounds %"class.std::unique_ptr.331", ptr %this1, i32 0, i32 0
  %call = call noundef nonnull align 8 dereferenceable(8) ptr @_ZNSt15__uniq_ptr_implIN4node9inspector24InspectorSessionDelegateESt14default_deleteIS2_EE6_M_ptrEv(ptr noundef nonnull align 8 dereferenceable(8) %_M_t) #3
  store ptr %call, ptr %__ptr, align 8
  %0 = load ptr, ptr %__ptr, align 8
  %1 = load ptr, ptr %0, align 8
  %cmp = icmp ne ptr %1, null
  br i1 %cmp, label %if.then, label %if.end

if.then:                                          ; preds = %entry
  %call2 = call noundef nonnull align 1 dereferenceable(1) ptr @_ZNSt10unique_ptrIN4node9inspector24InspectorSessionDelegateESt14default_deleteIS2_EE11get_deleterEv(ptr noundef nonnull align 8 dereferenceable(8) %this1) #3
  %2 = load ptr, ptr %__ptr, align 8
  %3 = load ptr, ptr %2, align 8
  call void @_ZNKSt14default_deleteIN4node9inspector24InspectorSessionDelegateEEclEPS2_(ptr noundef nonnull align 1 dereferenceable(1) %call2, ptr noundef %3)
  br label %if.end

if.end:                                           ; preds = %if.then, %entry
  %4 = load ptr, ptr %__ptr, align 8
  store ptr null, ptr %4, align 8
  ret void
}

; Function Attrs: nobuiltin allocsize(0)
declare noundef nonnull ptr @_Znwm(i64 noundef) #6

; Function Attrs: mustprogress nounwind uwtable
define linkonce_odr dso_local void @_ZNSt10shared_ptrIN4node9inspector19NodeInspectorClientEEC2ERKS3_(ptr noundef nonnull align 8 dereferenceable(16) %this, ptr noundef nonnull align 8 dereferenceable(16) %0) unnamed_addr #4 comdat align 2 {
entry:
  %this.addr = alloca ptr, align 8
  %.addr = alloca ptr, align 8
  store ptr %this, ptr %this.addr, align 8
  store ptr %0, ptr %.addr, align 8
  %this1 = load ptr, ptr %this.addr, align 8
  %1 = load ptr, ptr %.addr, align 8
  call void @_ZNSt12__shared_ptrIN4node9inspector19NodeInspectorClientELN9__gnu_cxx12_Lock_policyE2EEC2ERKS5_(ptr noundef nonnull align 8 dereferenceable(16) %this1, ptr noundef nonnull align 8 dereferenceable(16) %1) #3
  ret void
}

; Function Attrs: mustprogress nounwind uwtable
define internal void @_ZN4node9inspector12_GLOBAL__N_126SameThreadInspectorSessionC2EiSt10shared_ptrINS0_19NodeInspectorClientEE(ptr noundef nonnull align 8 dereferenceable(32) %this, i32 noundef %session_id, ptr noundef %client) unnamed_addr #4 align 2 {
entry:
  %this.addr = alloca ptr, align 8
  %session_id.addr = alloca i32, align 4
  %client.indirect_addr = alloca ptr, align 8
  store ptr %this, ptr %this.addr, align 8
  store i32 %session_id, ptr %session_id.addr, align 4
  store ptr %client, ptr %client.indirect_addr, align 8
  %this1 = load ptr, ptr %this.addr, align 8
  call void @_ZN4node9inspector16InspectorSessionC2Ev(ptr noundef nonnull align 8 dereferenceable(8) %this1) #3
  store ptr getelementptr inbounds ({ [5 x ptr] }, ptr @_ZTVN4node9inspector12_GLOBAL__N_126SameThreadInspectorSessionE, i32 0, inrange i32 0, i32 2), ptr %this1, align 8
  %session_id_ = getelementptr inbounds %"class.node::inspector::(anonymous namespace)::SameThreadInspectorSession", ptr %this1, i32 0, i32 1
  %0 = load i32, ptr %session_id.addr, align 4
  store i32 %0, ptr %session_id_, align 8
  %client_ = getelementptr inbounds %"class.node::inspector::(anonymous namespace)::SameThreadInspectorSession", ptr %this1, i32 0, i32 2
  call void @_ZNSt8weak_ptrIN4node9inspector19NodeInspectorClientEEC2IS2_vEERKSt10shared_ptrIT_E(ptr noundef nonnull align 8 dereferenceable(16) %client_, ptr noundef nonnull align 8 dereferenceable(16) %client) #3
  ret void
}

; Function Attrs: mustprogress nounwind uwtable
define linkonce_odr dso_local void @_ZNSt10unique_ptrIN4node9inspector16InspectorSessionESt14default_deleteIS2_EEC2IS4_vEEPS2_(ptr noundef nonnull align 8 dereferenceable(8) %this, ptr noundef %__p) unnamed_addr #4 comdat align 2 {
entry:
  %this.addr = alloca ptr, align 8
  %__p.addr = alloca ptr, align 8
  store ptr %this, ptr %this.addr, align 8
  store ptr %__p, ptr %__p.addr, align 8
  %this1 = load ptr, ptr %this.addr, align 8
  %_M_t = getelementptr inbounds %"class.std::unique_ptr.323", ptr %this1, i32 0, i32 0
  %0 = load ptr, ptr %__p.addr, align 8
  call void @_ZNSt15__uniq_ptr_dataIN4node9inspector16InspectorSessionESt14default_deleteIS2_ELb1ELb1EECI2St15__uniq_ptr_implIS2_S4_EEPS2_(ptr noundef nonnull align 8 dereferenceable(8) %_M_t, ptr noundef %0)
  ret void
}

; Function Attrs: mustprogress nounwind uwtable
define dso_local void @_ZN4node9inspector5Agent19ConnectToMainThreadESt10unique_ptrINS0_24InspectorSessionDelegateESt14default_deleteIS3_EEb(ptr noalias sret(%"class.std::unique_ptr.323") align 8 %agg.result, ptr noundef nonnull align 8 dereferenceable(186) %this, ptr noundef %delegate, i1 noundef zeroext %prevent_shutdown) #4 align 2 {
entry:
  %retval.i = alloca i1, align 1
  %this.addr.i = alloca ptr, align 8
  %permission.addr.i = alloca i32, align 4
  %res.addr.i = alloca ptr, align 8
  %result.ptr = alloca ptr, align 8
  %this.addr = alloca ptr, align 8
  %delegate.indirect_addr = alloca ptr, align 8
  %prevent_shutdown.addr = alloca i8, align 1
  %ref.tmp = alloca %"class.std::basic_string_view", align 8
  %ref.tmp6 = alloca %"class.std::basic_string_view", align 8
  %thread_safe_delegate = alloca %"class.std::unique_ptr.331", align 8
  %ref.tmp34 = alloca %"class.std::shared_ptr.272", align 8
  %agg.tmp = alloca %"class.std::unique_ptr.331", align 8
  %agg.tmp40 = alloca %"class.std::unique_ptr.331", align 8
  store ptr %agg.result, ptr %result.ptr, align 8
  store ptr %this, ptr %this.addr, align 8
  store ptr %delegate, ptr %delegate.indirect_addr, align 8
  %frombool = zext i1 %prevent_shutdown to i8
  store i8 %frombool, ptr %prevent_shutdown.addr, align 1
  %this1 = load ptr, ptr %this.addr, align 8
  br label %do.body

do.body:                                          ; preds = %entry
  %parent_env_ = getelementptr inbounds %"class.node::inspector::Agent", ptr %this1, i32 0, i32 0
  %0 = load ptr, ptr %parent_env_, align 8
  %call = call noundef ptr @_ZN4node11Environment10permissionEv(ptr noundef nonnull align 8 dereferenceable(2872) %0)
  call void @_ZNSt17basic_string_viewIcSt11char_traitsIcEEC2EPKc(ptr noundef nonnull align 8 dereferenceable(16) %ref.tmp, ptr noundef @.str.17) #3
  store ptr %call, ptr %this.addr.i, align 8
  store i32 5, ptr %permission.addr.i, align 4
  store ptr %ref.tmp, ptr %res.addr.i, align 8
  %this1.i = load ptr, ptr %this.addr.i, align 8
  %enabled_.i = getelementptr inbounds %"class.node::permission::Permission", ptr %this1.i, i32 0, i32 1
  %1 = load i8, ptr %enabled_.i, align 8
  %tobool.i = trunc i8 %1 to i1
  %lnot3.i = xor i1 %tobool.i, true
  br i1 %lnot3.i, label %if.then.i, label %if.end.i

if.then.i:                                        ; preds = %do.body
  store i1 true, ptr %retval.i, align 1
  br label %_ZNK4node10permission10Permission10is_grantedENS0_15PermissionScopeERKSt17basic_string_viewIcSt11char_traitsIcEE.exit

if.end.i:                                         ; preds = %do.body
  %2 = load i32, ptr %permission.addr.i, align 4
  %3 = load ptr, ptr %res.addr.i, align 8
  %call.i = call noundef zeroext i1 @_ZNK4node10permission10Permission16is_scope_grantedENS0_15PermissionScopeERKSt17basic_string_viewIcSt11char_traitsIcEE(ptr noundef nonnull align 8 dereferenceable(57) %this1.i, i32 noundef %2, ptr noundef nonnull align 8 dereferenceable(16) %3) #15
  store i1 %call.i, ptr %retval.i, align 1
  br label %_ZNK4node10permission10Permission10is_grantedENS0_15PermissionScopeERKSt17basic_string_viewIcSt11char_traitsIcEE.exit

_ZNK4node10permission10Permission10is_grantedENS0_15PermissionScopeERKSt17basic_string_viewIcSt11char_traitsIcEE.exit: ; preds = %if.end.i, %if.then.i
  %4 = load i1, ptr %retval.i, align 1
  %lnot = xor i1 %4, true
  %lnot3 = xor i1 %lnot, true
  %lnot4 = xor i1 %lnot3, true
  br i1 %lnot4, label %if.then, label %if.end

if.then:                                          ; preds = %_ZNK4node10permission10Permission10is_grantedENS0_15PermissionScopeERKSt17basic_string_viewIcSt11char_traitsIcEE.exit
  %parent_env_5 = getelementptr inbounds %"class.node::inspector::Agent", ptr %this1, i32 0, i32 0
  %5 = load ptr, ptr %parent_env_5, align 8
  call void @_ZNSt17basic_string_viewIcSt11char_traitsIcEEC2EPKc(ptr noundef nonnull align 8 dereferenceable(16) %ref.tmp6, ptr noundef @.str.17) #3
  call void @_ZN4node10permission10Permission17ThrowAccessDeniedEPNS_11EnvironmentENS0_15PermissionScopeERKSt17basic_string_viewIcSt11char_traitsIcEE(ptr noundef %5, i32 noundef 5, ptr noundef nonnull align 8 dereferenceable(16) %ref.tmp6)
  call void @_ZNSt10unique_ptrIN4node9inspector16InspectorSessionESt14default_deleteIS2_EEC2IS4_vEEv(ptr noundef nonnull align 8 dereferenceable(8) %agg.result) #3
  br label %return

if.end:                                           ; preds = %_ZNK4node10permission10Permission10is_grantedENS0_15PermissionScopeERKSt17basic_string_viewIcSt11char_traitsIcEE.exit
  br label %do.end

do.end:                                           ; preds = %if.end
  %parent_env_7 = getelementptr inbounds %"class.node::inspector::Agent", ptr %this1, i32 0, i32 0
  %6 = load ptr, ptr %parent_env_7, align 8
  %call8 = call noundef zeroext i1 @_ZNK4node11Environment23should_create_inspectorEv(ptr noundef nonnull align 8 dereferenceable(2872) %6)
  br i1 %call8, label %if.end12, label %land.lhs.true

land.lhs.true:                                    ; preds = %do.end
  %client_ = getelementptr inbounds %"class.node::inspector::Agent", ptr %this1, i32 0, i32 1
  %call9 = call noundef zeroext i1 @_ZNKSt12__shared_ptrIN4node9inspector19NodeInspectorClientELN9__gnu_cxx12_Lock_policyE2EEcvbEv(ptr noundef nonnull align 8 dereferenceable(16) %client_) #3
  br i1 %call9, label %if.end12, label %if.then10

if.then10:                                        ; preds = %land.lhs.true
  %parent_env_11 = getelementptr inbounds %"class.node::inspector::Agent", ptr %this1, i32 0, i32 0
  %7 = load ptr, ptr %parent_env_11, align 8
  call void @_ZN4node9inspector12_GLOBAL__N_132ThrowUninitializedInspectorErrorEPNS_11EnvironmentE(ptr noundef %7)
  call void @_ZNSt10unique_ptrIN4node9inspector16InspectorSessionESt14default_deleteIS2_EEC2IS4_vEEv(ptr noundef nonnull align 8 dereferenceable(8) %agg.result) #3
  br label %return

if.end12:                                         ; preds = %land.lhs.true, %do.end
  br label %do.body13

do.body13:                                        ; preds = %if.end12
  %parent_handle_ = getelementptr inbounds %"class.node::inspector::Agent", ptr %this1, i32 0, i32 3
  %call14 = call noundef zeroext i1 @_ZStneIN4node9inspector21ParentInspectorHandleESt14default_deleteIS2_EEbRKSt10unique_ptrIT_T0_EDn(ptr noundef nonnull align 8 dereferenceable(8) %parent_handle_, ptr null) #3
  %lnot15 = xor i1 %call14, true
  %lnot16 = xor i1 %lnot15, true
  %lnot17 = xor i1 %lnot16, true
  br i1 %lnot17, label %if.then18, label %if.end21

if.then18:                                        ; preds = %do.body13
  br label %do.body19

do.body19:                                        ; preds = %if.then18
  call void @_ZN4node6AssertERKNS_13AssertionInfoE(ptr noundef nonnull align 8 dereferenceable(24) @_ZZN4node9inspector5Agent19ConnectToMainThreadESt10unique_ptrINS0_24InspectorSessionDelegateESt14default_deleteIS3_EEbE4args)
  call void @abort() #14
  unreachable

do.end20:                                         ; No predecessors!
  br label %if.end21

if.end21:                                         ; preds = %do.end20, %do.body13
  br label %do.end22

do.end22:                                         ; preds = %if.end21
  br label %do.body23

do.body23:                                        ; preds = %do.end22
  %client_24 = getelementptr inbounds %"class.node::inspector::Agent", ptr %this1, i32 0, i32 1
  %call25 = call noundef zeroext i1 @_ZStneIN4node9inspector19NodeInspectorClientEEbRKSt10shared_ptrIT_EDn(ptr noundef nonnull align 8 dereferenceable(16) %client_24, ptr null) #3
  %lnot26 = xor i1 %call25, true
  %lnot27 = xor i1 %lnot26, true
  %lnot28 = xor i1 %lnot27, true
  br i1 %lnot28, label %if.then29, label %if.end32

if.then29:                                        ; preds = %do.body23
  br label %do.body30

do.body30:                                        ; preds = %if.then29
  call void @_ZN4node6AssertERKNS_13AssertionInfoE(ptr noundef nonnull align 8 dereferenceable(24) @_ZZN4node9inspector5Agent19ConnectToMainThreadESt10unique_ptrINS0_24InspectorSessionDelegateESt14default_deleteIS3_EEbE4args_0)
  call void @abort() #14
  unreachable

do.end31:                                         ; No predecessors!
  br label %if.end32

if.end32:                                         ; preds = %do.end31, %do.body23
  br label %do.end33

do.end33:                                         ; preds = %if.end32
  %client_35 = getelementptr inbounds %"class.node::inspector::Agent", ptr %this1, i32 0, i32 1
  %call36 = call noundef ptr @_ZNKSt19__shared_ptr_accessIN4node9inspector19NodeInspectorClientELN9__gnu_cxx12_Lock_policyE2ELb0ELb0EEptEv(ptr noundef nonnull align 1 dereferenceable(1) %client_35) #3
  call void @_ZN4node9inspector19NodeInspectorClient15getThreadHandleEv(ptr sret(%"class.std::shared_ptr.272") align 8 %ref.tmp34, ptr noundef nonnull align 8 dereferenceable(184) %call36)
  %call37 = call noundef ptr @_ZNKSt19__shared_ptr_accessIN4node9inspector16MainThreadHandleELN9__gnu_cxx12_Lock_policyE2ELb0ELb0EEptEv(ptr noundef nonnull align 1 dereferenceable(1) %ref.tmp34) #3
  call void @_ZNSt10unique_ptrIN4node9inspector24InspectorSessionDelegateESt14default_deleteIS2_EEC2EOS5_(ptr noundef nonnull align 8 dereferenceable(8) %agg.tmp, ptr noundef nonnull align 8 dereferenceable(8) %delegate) #3
  call void @_ZN4node9inspector16MainThreadHandle22MakeDelegateThreadSafeESt10unique_ptrINS0_24InspectorSessionDelegateESt14default_deleteIS3_EE(ptr sret(%"class.std::unique_ptr.331") align 8 %thread_safe_delegate, ptr noundef nonnull align 8 dereferenceable(72) %call37, ptr noundef %agg.tmp)
  call void @_ZNSt10unique_ptrIN4node9inspector24InspectorSessionDelegateESt14default_deleteIS2_EED2Ev(ptr noundef nonnull align 8 dereferenceable(8) %agg.tmp) #3
  call void @_ZNSt10shared_ptrIN4node9inspector16MainThreadHandleEED2Ev(ptr noundef nonnull align 8 dereferenceable(16) %ref.tmp34) #3
  %parent_handle_38 = getelementptr inbounds %"class.node::inspector::Agent", ptr %this1, i32 0, i32 3
  %call39 = call noundef ptr @_ZNKSt10unique_ptrIN4node9inspector21ParentInspectorHandleESt14default_deleteIS2_EEptEv(ptr noundef nonnull align 8 dereferenceable(8) %parent_handle_38) #3
  call void @_ZNSt10unique_ptrIN4node9inspector24InspectorSessionDelegateESt14default_deleteIS2_EEC2EOS5_(ptr noundef nonnull align 8 dereferenceable(8) %agg.tmp40, ptr noundef nonnull align 8 dereferenceable(8) %thread_safe_delegate) #3
  %8 = load i8, ptr %prevent_shutdown.addr, align 1
  %tobool = trunc i8 %8 to i1
  call void @_ZN4node9inspector21ParentInspectorHandle7ConnectESt10unique_ptrINS0_24InspectorSessionDelegateESt14default_deleteIS3_EEb(ptr sret(%"class.std::unique_ptr.323") align 8 %agg.result, ptr noundef nonnull align 8 dereferenceable(96) %call39, ptr noundef %agg.tmp40, i1 noundef zeroext %tobool)
  call void @_ZNSt10unique_ptrIN4node9inspector24InspectorSessionDelegateESt14default_deleteIS2_EED2Ev(ptr noundef nonnull align 8 dereferenceable(8) %agg.tmp40) #3
  call void @_ZNSt10unique_ptrIN4node9inspector24InspectorSessionDelegateESt14default_deleteIS2_EED2Ev(ptr noundef nonnull align 8 dereferenceable(8) %thread_safe_delegate) #3
  br label %return

return:                                           ; preds = %do.end33, %if.then10, %if.then
  ret void
}

; Function Attrs: mustprogress nounwind uwtable
define linkonce_odr dso_local noundef zeroext i1 @_ZStneIN4node9inspector21ParentInspectorHandleESt14default_deleteIS2_EEbRKSt10unique_ptrIT_T0_EDn(ptr noundef nonnull align 8 dereferenceable(8) %__x, ptr %0) #4 comdat {
entry:
  %__x.addr = alloca ptr, align 8
  %.addr = alloca ptr, align 8
  store ptr %__x, ptr %__x.addr, align 8
  store ptr %0, ptr %.addr, align 8
  %1 = load ptr, ptr %__x.addr, align 8
  %call = call noundef zeroext i1 @_ZNKSt10unique_ptrIN4node9inspector21ParentInspectorHandleESt14default_deleteIS2_EEcvbEv(ptr noundef nonnull align 8 dereferenceable(8) %1) #3
  ret i1 %call
}

; Function Attrs: mustprogress nounwind uwtable
define linkonce_odr dso_local noundef ptr @_ZNKSt19__shared_ptr_accessIN4node9inspector16MainThreadHandleELN9__gnu_cxx12_Lock_policyE2ELb0ELb0EEptEv(ptr noundef nonnull align 1 dereferenceable(1) %this) #4 comdat align 2 {
entry:
  %this.addr = alloca ptr, align 8
  store ptr %this, ptr %this.addr, align 8
  %this1 = load ptr, ptr %this.addr, align 8
  %call = call noundef ptr @_ZNKSt19__shared_ptr_accessIN4node9inspector16MainThreadHandleELN9__gnu_cxx12_Lock_policyE2ELb0ELb0EE6_M_getEv(ptr noundef nonnull align 1 dereferenceable(1) %this1) #3
  ret ptr %call
}

declare void @_ZN4node9inspector16MainThreadHandle22MakeDelegateThreadSafeESt10unique_ptrINS0_24InspectorSessionDelegateESt14default_deleteIS3_EE(ptr sret(%"class.std::unique_ptr.331") align 8, ptr noundef nonnull align 8 dereferenceable(72), ptr noundef) #1

declare void @_ZN4node9inspector21ParentInspectorHandle7ConnectESt10unique_ptrINS0_24InspectorSessionDelegateESt14default_deleteIS3_EEb(ptr sret(%"class.std::unique_ptr.323") align 8, ptr noundef nonnull align 8 dereferenceable(96), ptr noundef, i1 noundef zeroext) #1

; Function Attrs: mustprogress nounwind uwtable
define dso_local void @_ZN4node9inspector5Agent17WaitForDisconnectEv(ptr noundef nonnull align 8 dereferenceable(186) %this) #4 align 2 {
entry:
  %retval.i = alloca i1, align 1
  %this.addr.i = alloca ptr, align 8
  %permission.addr.i = alloca i32, align 4
  %res.addr.i = alloca ptr, align 8
  %this.addr = alloca ptr, align 8
  %ref.tmp = alloca %"class.std::basic_string_view", align 8
  %ref.tmp6 = alloca %"class.std::basic_string_view", align 8
  %is_worker = alloca i8, align 1
  %agg.tmp = alloca %"class.v8::Local", align 8
  store ptr %this, ptr %this.addr, align 8
  %this1 = load ptr, ptr %this.addr, align 8
  br label %do.body

do.body:                                          ; preds = %entry
  %parent_env_ = getelementptr inbounds %"class.node::inspector::Agent", ptr %this1, i32 0, i32 0
  %0 = load ptr, ptr %parent_env_, align 8
  %call = call noundef ptr @_ZN4node11Environment10permissionEv(ptr noundef nonnull align 8 dereferenceable(2872) %0)
  call void @_ZNSt17basic_string_viewIcSt11char_traitsIcEEC2EPKc(ptr noundef nonnull align 8 dereferenceable(16) %ref.tmp, ptr noundef @.str.22) #3
  store ptr %call, ptr %this.addr.i, align 8
  store i32 5, ptr %permission.addr.i, align 4
  store ptr %ref.tmp, ptr %res.addr.i, align 8
  %this1.i = load ptr, ptr %this.addr.i, align 8
  %enabled_.i = getelementptr inbounds %"class.node::permission::Permission", ptr %this1.i, i32 0, i32 1
  %1 = load i8, ptr %enabled_.i, align 8
  %tobool.i = trunc i8 %1 to i1
  %lnot3.i = xor i1 %tobool.i, true
  br i1 %lnot3.i, label %if.then.i, label %if.end.i

if.then.i:                                        ; preds = %do.body
  store i1 true, ptr %retval.i, align 1
  br label %_ZNK4node10permission10Permission10is_grantedENS0_15PermissionScopeERKSt17basic_string_viewIcSt11char_traitsIcEE.exit

if.end.i:                                         ; preds = %do.body
  %2 = load i32, ptr %permission.addr.i, align 4
  %3 = load ptr, ptr %res.addr.i, align 8
  %call.i = call noundef zeroext i1 @_ZNK4node10permission10Permission16is_scope_grantedENS0_15PermissionScopeERKSt17basic_string_viewIcSt11char_traitsIcEE(ptr noundef nonnull align 8 dereferenceable(57) %this1.i, i32 noundef %2, ptr noundef nonnull align 8 dereferenceable(16) %3) #15
  store i1 %call.i, ptr %retval.i, align 1
  br label %_ZNK4node10permission10Permission10is_grantedENS0_15PermissionScopeERKSt17basic_string_viewIcSt11char_traitsIcEE.exit

_ZNK4node10permission10Permission10is_grantedENS0_15PermissionScopeERKSt17basic_string_viewIcSt11char_traitsIcEE.exit: ; preds = %if.end.i, %if.then.i
  %4 = load i1, ptr %retval.i, align 1
  %lnot = xor i1 %4, true
  %lnot3 = xor i1 %lnot, true
  %lnot4 = xor i1 %lnot3, true
  br i1 %lnot4, label %if.then, label %if.end

if.then:                                          ; preds = %_ZNK4node10permission10Permission10is_grantedENS0_15PermissionScopeERKSt17basic_string_viewIcSt11char_traitsIcEE.exit
  %parent_env_5 = getelementptr inbounds %"class.node::inspector::Agent", ptr %this1, i32 0, i32 0
  %5 = load ptr, ptr %parent_env_5, align 8
  call void @_ZNSt17basic_string_viewIcSt11char_traitsIcEEC2EPKc(ptr noundef nonnull align 8 dereferenceable(16) %ref.tmp6, ptr noundef @.str.22) #3
  call void @_ZN4node10permission10Permission17ThrowAccessDeniedEPNS_11EnvironmentENS0_15PermissionScopeERKSt17basic_string_viewIcSt11char_traitsIcEE(ptr noundef %5, i32 noundef 5, ptr noundef nonnull align 8 dereferenceable(16) %ref.tmp6)
  br label %if.end59

if.end:                                           ; preds = %_ZNK4node10permission10Permission10is_grantedENS0_15PermissionScopeERKSt17basic_string_viewIcSt11char_traitsIcEE.exit
  br label %do.end

do.end:                                           ; preds = %if.end
  %parent_env_7 = getelementptr inbounds %"class.node::inspector::Agent", ptr %this1, i32 0, i32 0
  %6 = load ptr, ptr %parent_env_7, align 8
  %call8 = call noundef zeroext i1 @_ZNK4node11Environment23should_create_inspectorEv(ptr noundef nonnull align 8 dereferenceable(2872) %6)
  br i1 %call8, label %if.end12, label %land.lhs.true

land.lhs.true:                                    ; preds = %do.end
  %client_ = getelementptr inbounds %"class.node::inspector::Agent", ptr %this1, i32 0, i32 1
  %call9 = call noundef zeroext i1 @_ZNKSt12__shared_ptrIN4node9inspector19NodeInspectorClientELN9__gnu_cxx12_Lock_policyE2EEcvbEv(ptr noundef nonnull align 8 dereferenceable(16) %client_) #3
  br i1 %call9, label %if.end12, label %if.then10

if.then10:                                        ; preds = %land.lhs.true
  %parent_env_11 = getelementptr inbounds %"class.node::inspector::Agent", ptr %this1, i32 0, i32 0
  %7 = load ptr, ptr %parent_env_11, align 8
  call void @_ZN4node9inspector12_GLOBAL__N_132ThrowUninitializedInspectorErrorEPNS_11EnvironmentE(ptr noundef %7)
  br label %if.end59

if.end12:                                         ; preds = %land.lhs.true, %do.end
  br label %do.body13

do.body13:                                        ; preds = %if.end12
  %client_14 = getelementptr inbounds %"class.node::inspector::Agent", ptr %this1, i32 0, i32 1
  %call15 = call noundef zeroext i1 @_ZStneIN4node9inspector19NodeInspectorClientEEbRKSt10shared_ptrIT_EDn(ptr noundef nonnull align 8 dereferenceable(16) %client_14, ptr null) #3
  %lnot16 = xor i1 %call15, true
  %lnot17 = xor i1 %lnot16, true
  %lnot18 = xor i1 %lnot17, true
  br i1 %lnot18, label %if.then19, label %if.end22

if.then19:                                        ; preds = %do.body13
  br label %do.body20

do.body20:                                        ; preds = %if.then19
  call void @_ZN4node6AssertERKNS_13AssertionInfoE(ptr noundef nonnull align 8 dereferenceable(24) @_ZZN4node9inspector5Agent17WaitForDisconnectEvE4args)
  call void @abort() #14
  unreachable

do.end21:                                         ; No predecessors!
  br label %if.end22

if.end22:                                         ; preds = %do.end21, %do.body13
  br label %do.end23

do.end23:                                         ; preds = %if.end22
  %parent_handle_ = getelementptr inbounds %"class.node::inspector::Agent", ptr %this1, i32 0, i32 3
  %call24 = call noundef zeroext i1 @_ZStneIN4node9inspector21ParentInspectorHandleESt14default_deleteIS2_EEbRKSt10unique_ptrIT_T0_EDn(ptr noundef nonnull align 8 dereferenceable(8) %parent_handle_, ptr null) #3
  %frombool = zext i1 %call24 to i8
  store i8 %frombool, ptr %is_worker, align 1
  %parent_handle_25 = getelementptr inbounds %"class.node::inspector::Agent", ptr %this1, i32 0, i32 3
  call void @_ZNSt10unique_ptrIN4node9inspector21ParentInspectorHandleESt14default_deleteIS2_EE5resetEPS2_(ptr noundef nonnull align 8 dereferenceable(8) %parent_handle_25, ptr noundef null) #3
  %client_26 = getelementptr inbounds %"class.node::inspector::Agent", ptr %this1, i32 0, i32 1
  %call27 = call noundef ptr @_ZNKSt19__shared_ptr_accessIN4node9inspector19NodeInspectorClientELN9__gnu_cxx12_Lock_policyE2ELb0ELb0EEptEv(ptr noundef nonnull align 1 dereferenceable(1) %client_26) #3
  %call28 = call noundef zeroext i1 @_ZN4node9inspector19NodeInspectorClient20hasConnectedSessionsEv(ptr noundef nonnull align 8 dereferenceable(184) %call27)
  br i1 %call28, label %land.lhs.true29, label %if.end33

land.lhs.true29:                                  ; preds = %do.end23
  %8 = load i8, ptr %is_worker, align 1
  %tobool = trunc i8 %8 to i1
  br i1 %tobool, label %if.end33, label %if.then30

if.then30:                                        ; preds = %land.lhs.true29
  %9 = load ptr, ptr @stderr, align 8
  %call31 = call i32 (ptr, ptr, ...) @fprintf(ptr noundef %9, ptr noundef @.str.25)
  %10 = load ptr, ptr @stderr, align 8
  %call32 = call i32 @fflush(ptr noundef %10)
  br label %if.end33

if.end33:                                         ; preds = %if.then30, %land.lhs.true29, %do.end23
  %client_34 = getelementptr inbounds %"class.node::inspector::Agent", ptr %this1, i32 0, i32 1
  %call35 = call noundef ptr @_ZNKSt19__shared_ptr_accessIN4node9inspector19NodeInspectorClientELN9__gnu_cxx12_Lock_policyE2ELb0ELb0EEptEv(ptr noundef nonnull align 1 dereferenceable(1) %client_34) #3
  %call36 = call noundef zeroext i1 @_ZN4node9inspector19NodeInspectorClient26notifyWaitingForDisconnectEv(ptr noundef nonnull align 8 dereferenceable(184) %call35)
  br i1 %call36, label %if.else, label %if.then37

if.then37:                                        ; preds = %if.end33
  %client_38 = getelementptr inbounds %"class.node::inspector::Agent", ptr %this1, i32 0, i32 1
  %call39 = call noundef ptr @_ZNKSt19__shared_ptr_accessIN4node9inspector19NodeInspectorClientELN9__gnu_cxx12_Lock_policyE2ELb0ELb0EEptEv(ptr noundef nonnull align 1 dereferenceable(1) %client_38) #3
  %parent_env_40 = getelementptr inbounds %"class.node::inspector::Agent", ptr %this1, i32 0, i32 0
  %11 = load ptr, ptr %parent_env_40, align 8
  %call41 = call ptr @_ZNK4node11Environment7contextEv(ptr noundef nonnull align 8 dereferenceable(2872) %11)
  %coerce.dive = getelementptr inbounds %"class.v8::Local", ptr %agg.tmp, i32 0, i32 0
  %coerce.dive42 = getelementptr inbounds %"class.v8::LocalBase", ptr %coerce.dive, i32 0, i32 0
  %coerce.dive43 = getelementptr inbounds %"class.v8::IndirectHandleBase", ptr %coerce.dive42, i32 0, i32 0
  store ptr %call41, ptr %coerce.dive43, align 8
  %coerce.dive44 = getelementptr inbounds %"class.v8::Local", ptr %agg.tmp, i32 0, i32 0
  %coerce.dive45 = getelementptr inbounds %"class.v8::LocalBase", ptr %coerce.dive44, i32 0, i32 0
  %coerce.dive46 = getelementptr inbounds %"class.v8::IndirectHandleBase", ptr %coerce.dive45, i32 0, i32 0
  %12 = load ptr, ptr %coerce.dive46, align 8
  call void @_ZN4node9inspector19NodeInspectorClient16contextDestroyedEN2v85LocalINS2_7ContextEEE(ptr noundef nonnull align 8 dereferenceable(184) %call39, ptr %12)
  br label %if.end52

if.else:                                          ; preds = %if.end33
  %13 = load i8, ptr %is_worker, align 1
  %tobool47 = trunc i8 %13 to i1
  br i1 %tobool47, label %if.then48, label %if.end51

if.then48:                                        ; preds = %if.else
  %client_49 = getelementptr inbounds %"class.node::inspector::Agent", ptr %this1, i32 0, i32 1
  %call50 = call noundef ptr @_ZNKSt19__shared_ptr_accessIN4node9inspector19NodeInspectorClientELN9__gnu_cxx12_Lock_policyE2ELb0ELb0EEptEv(ptr noundef nonnull align 1 dereferenceable(1) %client_49) #3
  call void @_ZN4node9inspector19NodeInspectorClient25waitForSessionsDisconnectEv(ptr noundef nonnull align 8 dereferenceable(184) %call50)
  br label %if.end51

if.end51:                                         ; preds = %if.then48, %if.else
  br label %if.end52

if.end52:                                         ; preds = %if.end51, %if.then37
  %io_ = getelementptr inbounds %"class.node::inspector::Agent", ptr %this1, i32 0, i32 2
  %call53 = call noundef zeroext i1 @_ZStneIN4node9inspector11InspectorIoESt14default_deleteIS2_EEbRKSt10unique_ptrIT_T0_EDn(ptr noundef nonnull align 8 dereferenceable(8) %io_, ptr null) #3
  br i1 %call53, label %if.then54, label %if.end59

if.then54:                                        ; preds = %if.end52
  %io_55 = getelementptr inbounds %"class.node::inspector::Agent", ptr %this1, i32 0, i32 2
  %call56 = call noundef ptr @_ZNKSt10unique_ptrIN4node9inspector11InspectorIoESt14default_deleteIS2_EEptEv(ptr noundef nonnull align 8 dereferenceable(8) %io_55) #3
  call void @_ZN4node9inspector11InspectorIo27StopAcceptingNewConnectionsEv(ptr noundef nonnull align 8 dereferenceable(216) %call56)
  %client_57 = getelementptr inbounds %"class.node::inspector::Agent", ptr %this1, i32 0, i32 1
  %call58 = call noundef ptr @_ZNKSt19__shared_ptr_accessIN4node9inspector19NodeInspectorClientELN9__gnu_cxx12_Lock_policyE2ELb0ELb0EEptEv(ptr noundef nonnull align 1 dereferenceable(1) %client_57) #3
  call void @_ZN4node9inspector19NodeInspectorClient25waitForSessionsDisconnectEv(ptr noundef nonnull align 8 dereferenceable(184) %call58)
  br label %if.end59

if.end59:                                         ; preds = %if.then54, %if.end52, %if.then10, %if.then
  ret void
}

; Function Attrs: mustprogress nounwind uwtable
define linkonce_odr dso_local void @_ZNSt10unique_ptrIN4node9inspector21ParentInspectorHandleESt14default_deleteIS2_EE5resetEPS2_(ptr noundef nonnull align 8 dereferenceable(8) %this, ptr noundef %__p) #4 comdat align 2 {
entry:
  %this.addr = alloca ptr, align 8
  %__p.addr = alloca ptr, align 8
  store ptr %this, ptr %this.addr, align 8
  store ptr %__p, ptr %__p.addr, align 8
  %this1 = load ptr, ptr %this.addr, align 8
  %_M_t = getelementptr inbounds %"class.std::unique_ptr.2", ptr %this1, i32 0, i32 0
  %0 = load ptr, ptr %__p.addr, align 8
  call void @_ZNSt15__uniq_ptr_implIN4node9inspector21ParentInspectorHandleESt14default_deleteIS2_EE5resetEPS2_(ptr noundef nonnull align 8 dereferenceable(8) %_M_t, ptr noundef %0) #3
  ret void
}

; Function Attrs: mustprogress nounwind uwtable
define linkonce_odr dso_local noundef zeroext i1 @_ZN4node9inspector19NodeInspectorClient20hasConnectedSessionsEv(ptr noundef nonnull align 8 dereferenceable(184) %this) #4 comdat align 2 {
entry:
  %retval = alloca i1, align 1
  %this.addr = alloca ptr, align 8
  %__range2 = alloca ptr, align 8
  %__begin2 = alloca %"struct.std::__detail::_Node_iterator.661", align 8
  %__end2 = alloca %"struct.std::__detail::_Node_iterator.661", align 8
  %id_channel = alloca ptr, align 8
  store ptr %this, ptr %this.addr, align 8
  %this1 = load ptr, ptr %this.addr, align 8
  %channels_ = getelementptr inbounds %"class.node::inspector::NodeInspectorClient", ptr %this1, i32 0, i32 6
  store ptr %channels_, ptr %__range2, align 8
  %0 = load ptr, ptr %__range2, align 8
  %call = call ptr @_ZNSt13unordered_mapIiSt10unique_ptrIN4node9inspector12_GLOBAL__N_111ChannelImplESt14default_deleteIS4_EESt4hashIiESt8equal_toIiESaISt4pairIKiS7_EEE5beginEv(ptr noundef nonnull align 8 dereferenceable(56) %0) #3
  %coerce.dive = getelementptr inbounds %"struct.std::__detail::_Node_iterator.661", ptr %__begin2, i32 0, i32 0
  %coerce.dive2 = getelementptr inbounds %"struct.std::__detail::_Node_iterator_base.662", ptr %coerce.dive, i32 0, i32 0
  store ptr %call, ptr %coerce.dive2, align 8
  %1 = load ptr, ptr %__range2, align 8
  %call3 = call ptr @_ZNSt13unordered_mapIiSt10unique_ptrIN4node9inspector12_GLOBAL__N_111ChannelImplESt14default_deleteIS4_EESt4hashIiESt8equal_toIiESaISt4pairIKiS7_EEE3endEv(ptr noundef nonnull align 8 dereferenceable(56) %1) #3
  %coerce.dive4 = getelementptr inbounds %"struct.std::__detail::_Node_iterator.661", ptr %__end2, i32 0, i32 0
  %coerce.dive5 = getelementptr inbounds %"struct.std::__detail::_Node_iterator_base.662", ptr %coerce.dive4, i32 0, i32 0
  store ptr %call3, ptr %coerce.dive5, align 8
  br label %for.cond

for.cond:                                         ; preds = %for.inc, %entry
  %call6 = call noundef zeroext i1 @_ZNSt8__detailneERKNS_19_Node_iterator_baseISt4pairIKiSt10unique_ptrIN4node9inspector12_GLOBAL__N_111ChannelImplESt14default_deleteIS7_EEELb0EEESE_(ptr noundef nonnull align 8 dereferenceable(8) %__begin2, ptr noundef nonnull align 8 dereferenceable(8) %__end2) #3
  br i1 %call6, label %for.body, label %for.end

for.body:                                         ; preds = %for.cond
  %call7 = call noundef nonnull align 8 dereferenceable(16) ptr @_ZNKSt8__detail14_Node_iteratorISt4pairIKiSt10unique_ptrIN4node9inspector12_GLOBAL__N_111ChannelImplESt14default_deleteIS7_EEELb0ELb0EEdeEv(ptr noundef nonnull align 8 dereferenceable(8) %__begin2) #3
  store ptr %call7, ptr %id_channel, align 8
  %2 = load ptr, ptr %id_channel, align 8
  %second = getelementptr inbounds %"struct.std::pair.655", ptr %2, i32 0, i32 1
  %call8 = call noundef ptr @_ZNKSt10unique_ptrIN4node9inspector12_GLOBAL__N_111ChannelImplESt14default_deleteIS3_EEptEv(ptr noundef nonnull align 8 dereferenceable(8) %second) #3
  %call9 = call noundef zeroext i1 @_ZN4node9inspector12_GLOBAL__N_111ChannelImpl15preventShutdownEv(ptr noundef nonnull align 8 dereferenceable(72) %call8)
  br i1 %call9, label %if.then, label %if.end

if.then:                                          ; preds = %for.body
  store i1 true, ptr %retval, align 1
  br label %return

if.end:                                           ; preds = %for.body
  br label %for.inc

for.inc:                                          ; preds = %if.end
  %call10 = call noundef nonnull align 8 dereferenceable(8) ptr @_ZNSt8__detail14_Node_iteratorISt4pairIKiSt10unique_ptrIN4node9inspector12_GLOBAL__N_111ChannelImplESt14default_deleteIS7_EEELb0ELb0EEppEv(ptr noundef nonnull align 8 dereferenceable(8) %__begin2) #3
  br label %for.cond

for.end:                                          ; preds = %for.cond
  store i1 false, ptr %retval, align 1
  br label %return

return:                                           ; preds = %for.end, %if.then
  %3 = load i1, ptr %retval, align 1
  ret i1 %3
}

declare i32 @fprintf(ptr noundef, ptr noundef, ...) #1

declare i32 @fflush(ptr noundef) #1

; Function Attrs: mustprogress nounwind uwtable
define linkonce_odr dso_local noundef zeroext i1 @_ZN4node9inspector19NodeInspectorClient26notifyWaitingForDisconnectEv(ptr noundef nonnull align 8 dereferenceable(184) %this) #4 comdat align 2 {
entry:
  %this.addr = alloca ptr, align 8
  %retaining_context = alloca i8, align 1
  %__range2 = alloca ptr, align 8
  %__begin2 = alloca %"struct.std::__detail::_Node_iterator.661", align 8
  %__end2 = alloca %"struct.std::__detail::_Node_iterator.661", align 8
  %id_channel = alloca ptr, align 8
  store ptr %this, ptr %this.addr, align 8
  %this1 = load ptr, ptr %this.addr, align 8
  store i8 0, ptr %retaining_context, align 1
  %channels_ = getelementptr inbounds %"class.node::inspector::NodeInspectorClient", ptr %this1, i32 0, i32 6
  store ptr %channels_, ptr %__range2, align 8
  %0 = load ptr, ptr %__range2, align 8
  %call = call ptr @_ZNSt13unordered_mapIiSt10unique_ptrIN4node9inspector12_GLOBAL__N_111ChannelImplESt14default_deleteIS4_EESt4hashIiESt8equal_toIiESaISt4pairIKiS7_EEE5beginEv(ptr noundef nonnull align 8 dereferenceable(56) %0) #3
  %coerce.dive = getelementptr inbounds %"struct.std::__detail::_Node_iterator.661", ptr %__begin2, i32 0, i32 0
  %coerce.dive2 = getelementptr inbounds %"struct.std::__detail::_Node_iterator_base.662", ptr %coerce.dive, i32 0, i32 0
  store ptr %call, ptr %coerce.dive2, align 8
  %1 = load ptr, ptr %__range2, align 8
  %call3 = call ptr @_ZNSt13unordered_mapIiSt10unique_ptrIN4node9inspector12_GLOBAL__N_111ChannelImplESt14default_deleteIS4_EESt4hashIiESt8equal_toIiESaISt4pairIKiS7_EEE3endEv(ptr noundef nonnull align 8 dereferenceable(56) %1) #3
  %coerce.dive4 = getelementptr inbounds %"struct.std::__detail::_Node_iterator.661", ptr %__end2, i32 0, i32 0
  %coerce.dive5 = getelementptr inbounds %"struct.std::__detail::_Node_iterator_base.662", ptr %coerce.dive4, i32 0, i32 0
  store ptr %call3, ptr %coerce.dive5, align 8
  br label %for.cond

for.cond:                                         ; preds = %for.inc, %entry
  %call6 = call noundef zeroext i1 @_ZNSt8__detailneERKNS_19_Node_iterator_baseISt4pairIKiSt10unique_ptrIN4node9inspector12_GLOBAL__N_111ChannelImplESt14default_deleteIS7_EEELb0EEESE_(ptr noundef nonnull align 8 dereferenceable(8) %__begin2, ptr noundef nonnull align 8 dereferenceable(8) %__end2) #3
  br i1 %call6, label %for.body, label %for.end

for.body:                                         ; preds = %for.cond
  %call7 = call noundef nonnull align 8 dereferenceable(16) ptr @_ZNKSt8__detail14_Node_iteratorISt4pairIKiSt10unique_ptrIN4node9inspector12_GLOBAL__N_111ChannelImplESt14default_deleteIS7_EEELb0ELb0EEdeEv(ptr noundef nonnull align 8 dereferenceable(8) %__begin2) #3
  store ptr %call7, ptr %id_channel, align 8
  %2 = load ptr, ptr %id_channel, align 8
  %second = getelementptr inbounds %"struct.std::pair.655", ptr %2, i32 0, i32 1
  %call8 = call noundef ptr @_ZNKSt10unique_ptrIN4node9inspector12_GLOBAL__N_111ChannelImplESt14default_deleteIS3_EEptEv(ptr noundef nonnull align 8 dereferenceable(8) %second) #3
  %call9 = call noundef zeroext i1 @_ZN4node9inspector12_GLOBAL__N_111ChannelImpl26notifyWaitingForDisconnectEv(ptr noundef nonnull align 8 dereferenceable(72) %call8)
  br i1 %call9, label %if.then, label %if.end

if.then:                                          ; preds = %for.body
  store i8 1, ptr %retaining_context, align 1
  br label %if.end

if.end:                                           ; preds = %if.then, %for.body
  br label %for.inc

for.inc:                                          ; preds = %if.end
  %call10 = call noundef nonnull align 8 dereferenceable(8) ptr @_ZNSt8__detail14_Node_iteratorISt4pairIKiSt10unique_ptrIN4node9inspector12_GLOBAL__N_111ChannelImplESt14default_deleteIS7_EEELb0ELb0EEppEv(ptr noundef nonnull align 8 dereferenceable(8) %__begin2) #3
  br label %for.cond

for.end:                                          ; preds = %for.cond
  %3 = load i8, ptr %retaining_context, align 1
  %tobool = trunc i8 %3 to i1
  ret i1 %tobool
}

; Function Attrs: mustprogress nounwind uwtable
define linkonce_odr dso_local void @_ZN4node9inspector19NodeInspectorClient16contextDestroyedEN2v85LocalINS2_7ContextEEE(ptr noundef nonnull align 8 dereferenceable(184) %this, ptr %context.coerce) #4 comdat align 2 {
entry:
  %context = alloca %"class.v8::Local", align 8
  %this.addr = alloca ptr, align 8
  %agg.tmp = alloca %"class.v8::Local", align 8
  %coerce.dive = getelementptr inbounds %"class.v8::Local", ptr %context, i32 0, i32 0
  %coerce.dive1 = getelementptr inbounds %"class.v8::LocalBase", ptr %coerce.dive, i32 0, i32 0
  %coerce.dive2 = getelementptr inbounds %"class.v8::IndirectHandleBase", ptr %coerce.dive1, i32 0, i32 0
  store ptr %context.coerce, ptr %coerce.dive2, align 8
  store ptr %this, ptr %this.addr, align 8
  %this3 = load ptr, ptr %this.addr, align 8
  %client_ = getelementptr inbounds %"class.node::inspector::NodeInspectorClient", ptr %this3, i32 0, i32 4
  %call = call noundef ptr @_ZNKSt10unique_ptrIN12v8_inspector11V8InspectorESt14default_deleteIS1_EEptEv(ptr noundef nonnull align 8 dereferenceable(8) %client_) #3
  call void @llvm.memcpy.p0.p0.i64(ptr align 8 %agg.tmp, ptr align 8 %context, i64 8, i1 false)
  %coerce.dive4 = getelementptr inbounds %"class.v8::Local", ptr %agg.tmp, i32 0, i32 0
  %coerce.dive5 = getelementptr inbounds %"class.v8::LocalBase", ptr %coerce.dive4, i32 0, i32 0
  %coerce.dive6 = getelementptr inbounds %"class.v8::IndirectHandleBase", ptr %coerce.dive5, i32 0, i32 0
  %0 = load ptr, ptr %coerce.dive6, align 8
  %vtable = load ptr, ptr %call, align 8
  %vfn = getelementptr inbounds ptr, ptr %vtable, i64 3
  %1 = load ptr, ptr %vfn, align 8
  call void %1(ptr noundef nonnull align 8 dereferenceable(8) %call, ptr %0)
  ret void
}

; Function Attrs: mustprogress nounwind uwtable
define linkonce_odr dso_local ptr @_ZNK4node11Environment7contextEv(ptr noundef nonnull align 8 dereferenceable(2872) %this) #4 comdat align 2 {
entry:
  %retval = alloca %"class.v8::Local", align 8
  %this.addr = alloca ptr, align 8
  store ptr %this, ptr %this.addr, align 8
  %this1 = load ptr, ptr %this.addr, align 8
  %call = call noundef ptr @_ZNK4node11Environment15principal_realmEv(ptr noundef nonnull align 8 dereferenceable(2872) %this1)
  %vtable = load ptr, ptr %call, align 8
  %vfn = getelementptr inbounds ptr, ptr %vtable, i64 8
  %0 = load ptr, ptr %vfn, align 8
  %call2 = call ptr %0(ptr noundef nonnull align 8 dereferenceable(872) %call)
  %coerce.dive = getelementptr inbounds %"class.v8::Local", ptr %retval, i32 0, i32 0
  %coerce.dive3 = getelementptr inbounds %"class.v8::LocalBase", ptr %coerce.dive, i32 0, i32 0
  %coerce.dive4 = getelementptr inbounds %"class.v8::IndirectHandleBase", ptr %coerce.dive3, i32 0, i32 0
  store ptr %call2, ptr %coerce.dive4, align 8
  %coerce.dive5 = getelementptr inbounds %"class.v8::Local", ptr %retval, i32 0, i32 0
  %coerce.dive6 = getelementptr inbounds %"class.v8::LocalBase", ptr %coerce.dive5, i32 0, i32 0
  %coerce.dive7 = getelementptr inbounds %"class.v8::IndirectHandleBase", ptr %coerce.dive6, i32 0, i32 0
  %1 = load ptr, ptr %coerce.dive7, align 8
  ret ptr %1
}

; Function Attrs: mustprogress nounwind uwtable
define linkonce_odr dso_local void @_ZN4node9inspector19NodeInspectorClient25waitForSessionsDisconnectEv(ptr noundef nonnull align 8 dereferenceable(184) %this) #4 comdat align 2 {
entry:
  %this.addr = alloca ptr, align 8
  store ptr %this, ptr %this.addr, align 8
  %this1 = load ptr, ptr %this.addr, align 8
  %waiting_for_sessions_disconnect_ = getelementptr inbounds %"class.node::inspector::NodeInspectorClient", ptr %this1, i32 0, i32 10
  store i8 1, ptr %waiting_for_sessions_disconnect_, align 2
  call void @_ZN4node9inspector19NodeInspectorClient14runMessageLoopEv(ptr noundef nonnull align 8 dereferenceable(184) %this1)
  ret void
}

; Function Attrs: mustprogress nounwind uwtable
define linkonce_odr dso_local noundef ptr @_ZNKSt10unique_ptrIN4node9inspector11InspectorIoESt14default_deleteIS2_EEptEv(ptr noundef nonnull align 8 dereferenceable(8) %this) #4 comdat align 2 {
entry:
  %this.addr = alloca ptr, align 8
  store ptr %this, ptr %this.addr, align 8
  %this1 = load ptr, ptr %this.addr, align 8
  %call = call noundef ptr @_ZNKSt10unique_ptrIN4node9inspector11InspectorIoESt14default_deleteIS2_EE3getEv(ptr noundef nonnull align 8 dereferenceable(8) %this1) #3
  ret ptr %call
}

declare void @_ZN4node9inspector11InspectorIo27StopAcceptingNewConnectionsEv(ptr noundef nonnull align 8 dereferenceable(216)) #1

; Function Attrs: mustprogress nounwind uwtable
define dso_local void @_ZN4node9inspector5Agent23ReportUncaughtExceptionEN2v85LocalINS2_5ValueEEENS3_INS2_7MessageEEE(ptr noundef nonnull align 8 dereferenceable(186) %this, ptr %error.coerce, ptr %message.coerce) #4 align 2 {
entry:
  %error = alloca %"class.v8::Local.346", align 8
  %message = alloca %"class.v8::Local.348", align 8
  %this.addr = alloca ptr, align 8
  %agg.tmp = alloca %"class.v8::Local.346", align 8
  %agg.tmp8 = alloca %"class.v8::Local.348", align 8
  %coerce.dive = getelementptr inbounds %"class.v8::Local.346", ptr %error, i32 0, i32 0
  %coerce.dive1 = getelementptr inbounds %"class.v8::LocalBase.347", ptr %coerce.dive, i32 0, i32 0
  %coerce.dive2 = getelementptr inbounds %"class.v8::IndirectHandleBase", ptr %coerce.dive1, i32 0, i32 0
  store ptr %error.coerce, ptr %coerce.dive2, align 8
  %coerce.dive3 = getelementptr inbounds %"class.v8::Local.348", ptr %message, i32 0, i32 0
  %coerce.dive4 = getelementptr inbounds %"class.v8::LocalBase.349", ptr %coerce.dive3, i32 0, i32 0
  %coerce.dive5 = getelementptr inbounds %"class.v8::IndirectHandleBase", ptr %coerce.dive4, i32 0, i32 0
  store ptr %message.coerce, ptr %coerce.dive5, align 8
  store ptr %this, ptr %this.addr, align 8
  %this6 = load ptr, ptr %this.addr, align 8
  %call = call noundef zeroext i1 @_ZN4node9inspector5Agent11IsListeningEv(ptr noundef nonnull align 8 dereferenceable(186) %this6)
  br i1 %call, label %if.end, label %if.then

if.then:                                          ; preds = %entry
  br label %return

if.end:                                           ; preds = %entry
  %client_ = getelementptr inbounds %"class.node::inspector::Agent", ptr %this6, i32 0, i32 1
  %call7 = call noundef ptr @_ZNKSt19__shared_ptr_accessIN4node9inspector19NodeInspectorClientELN9__gnu_cxx12_Lock_policyE2ELb0ELb0EEptEv(ptr noundef nonnull align 1 dereferenceable(1) %client_) #3
  call void @llvm.memcpy.p0.p0.i64(ptr align 8 %agg.tmp, ptr align 8 %error, i64 8, i1 false)
  call void @llvm.memcpy.p0.p0.i64(ptr align 8 %agg.tmp8, ptr align 8 %message, i64 8, i1 false)
  %coerce.dive9 = getelementptr inbounds %"class.v8::Local.346", ptr %agg.tmp, i32 0, i32 0
  %coerce.dive10 = getelementptr inbounds %"class.v8::LocalBase.347", ptr %coerce.dive9, i32 0, i32 0
  %coerce.dive11 = getelementptr inbounds %"class.v8::IndirectHandleBase", ptr %coerce.dive10, i32 0, i32 0
  %0 = load ptr, ptr %coerce.dive11, align 8
  %coerce.dive12 = getelementptr inbounds %"class.v8::Local.348", ptr %agg.tmp8, i32 0, i32 0
  %coerce.dive13 = getelementptr inbounds %"class.v8::LocalBase.349", ptr %coerce.dive12, i32 0, i32 0
  %coerce.dive14 = getelementptr inbounds %"class.v8::IndirectHandleBase", ptr %coerce.dive13, i32 0, i32 0
  %1 = load ptr, ptr %coerce.dive14, align 8
  call void @_ZN4node9inspector19NodeInspectorClient23ReportUncaughtExceptionEN2v85LocalINS2_5ValueEEENS3_INS2_7MessageEEE(ptr noundef nonnull align 8 dereferenceable(184) %call7, ptr %0, ptr %1)
  call void @_ZN4node9inspector5Agent17WaitForDisconnectEv(ptr noundef nonnull align 8 dereferenceable(186) %this6)
  br label %return

return:                                           ; preds = %if.end, %if.then
  ret void
}

; Function Attrs: mustprogress nounwind uwtable
define linkonce_odr dso_local noundef zeroext i1 @_ZN4node9inspector5Agent11IsListeningEv(ptr noundef nonnull align 8 dereferenceable(186) %this) #4 comdat align 2 {
entry:
  %this.addr = alloca ptr, align 8
  store ptr %this, ptr %this.addr, align 8
  %this1 = load ptr, ptr %this.addr, align 8
  %io_ = getelementptr inbounds %"class.node::inspector::Agent", ptr %this1, i32 0, i32 2
  %call = call noundef zeroext i1 @_ZStneIN4node9inspector11InspectorIoESt14default_deleteIS2_EEbRKSt10unique_ptrIT_T0_EDn(ptr noundef nonnull align 8 dereferenceable(8) %io_, ptr null) #3
  ret i1 %call
}

; Function Attrs: mustprogress nounwind uwtable
define linkonce_odr dso_local void @_ZN4node9inspector19NodeInspectorClient23ReportUncaughtExceptionEN2v85LocalINS2_5ValueEEENS3_INS2_7MessageEEE(ptr noundef nonnull align 8 dereferenceable(184) %this, ptr %error.coerce, ptr %message.coerce) #4 comdat align 2 {
entry:
  %slot.addr.i189 = alloca ptr, align 8
  %this.addr.i.i185 = alloca ptr, align 8
  %this.addr.i186 = alloca ptr, align 8
  %slot.addr.i184 = alloca ptr, align 8
  %slot.addr.i183 = alloca ptr, align 8
  %this.addr.i.i178 = alloca ptr, align 8
  %this.addr.i179 = alloca ptr, align 8
  %this.addr.i.i174 = alloca ptr, align 8
  %this.addr.i175 = alloca ptr, align 8
  %slot.addr.i173 = alloca ptr, align 8
  %slot.addr.i172 = alloca ptr, align 8
  %slot.addr.i171 = alloca ptr, align 8
  %slot.addr.i170 = alloca ptr, align 8
  %slot.addr.i169 = alloca ptr, align 8
  %slot.addr.i = alloca ptr, align 8
  %this.addr.i.i164 = alloca ptr, align 8
  %this.addr.i165 = alloca ptr, align 8
  %this.addr.i.i159 = alloca ptr, align 8
  %this.addr.i160 = alloca ptr, align 8
  %this.addr.i.i154 = alloca ptr, align 8
  %this.addr.i155 = alloca ptr, align 8
  %this.addr.i.i149 = alloca ptr, align 8
  %this.addr.i150 = alloca ptr, align 8
  %this.addr.i.i144 = alloca ptr, align 8
  %this.addr.i145 = alloca ptr, align 8
  %this.addr.i.i = alloca ptr, align 8
  %this.addr.i142 = alloca ptr, align 8
  %this.addr.i133 = alloca ptr, align 8
  %default_value.addr.i134 = alloca ptr, align 8
  %this.addr.i131 = alloca ptr, align 8
  %default_value.addr.i = alloca ptr, align 8
  %this.addr.i128 = alloca ptr, align 8
  %this.addr.i125 = alloca ptr, align 8
  %this.addr.i122 = alloca ptr, align 8
  %this.addr.i120 = alloca ptr, align 8
  %this.addr.i117 = alloca ptr, align 8
  %this.addr.i114 = alloca ptr, align 8
  %this.addr.i111 = alloca ptr, align 8
  %this.addr.i108 = alloca ptr, align 8
  %this.addr.i105 = alloca ptr, align 8
  %this.addr.i103 = alloca ptr, align 8
  %this.addr.i101 = alloca ptr, align 8
  %other.addr.i = alloca ptr, align 8
  %that.i = alloca %"class.v8::Local.510", align 8
  %this.addr.i100 = alloca ptr, align 8
  %this.addr.i = alloca ptr, align 8
  %error = alloca %"class.v8::Local.346", align 8
  %message = alloca %"class.v8::Local.348", align 8
  %this.addr = alloca ptr, align 8
  %isolate = alloca ptr, align 8
  %context = alloca %"class.v8::Local", align 8
  %script_id = alloca i32, align 4
  %ref.tmp = alloca %"class.v8::ScriptOrigin", align 8
  %stack_trace = alloca %"class.v8::Local.718", align 8
  %ref.tmp22 = alloca %"class.v8::Local.720", align 8
  %DETAILS = alloca [9 x i8], align 1
  %agg.tmp = alloca %"class.v8::Local", align 8
  %agg.tmp32 = alloca %"class.v8_inspector::StringView", align 8
  %agg.tmp33 = alloca %"class.v8::Local.346", align 8
  %agg.tmp34 = alloca %"class.v8_inspector::StringView", align 8
  %ref.tmp35 = alloca %"class.std::unique_ptr.585", align 8
  %agg.tmp36 = alloca %"class.v8::Local.346", align 8
  %agg.tmp37 = alloca %"class.v8::Local.510", align 8
  %agg.tmp50 = alloca %"class.v8_inspector::StringView", align 8
  %ref.tmp51 = alloca %"class.std::unique_ptr.585", align 8
  %agg.tmp52 = alloca %"class.v8::Local.346", align 8
  %ref.tmp64 = alloca %"class.v8::Maybe.722", align 4
  %agg.tmp66 = alloca %"class.v8::Local", align 8
  %ref.tmp71 = alloca i32, align 4
  %ref.tmp73 = alloca %"class.v8::Maybe.722", align 4
  %agg.tmp75 = alloca %"class.v8::Local", align 8
  %ref.tmp80 = alloca i32, align 4
  %agg.tmp82 = alloca %"class.std::unique_ptr.723", align 8
  %agg.tmp85 = alloca %"class.v8::Local.718", align 8
  %coerce.dive = getelementptr inbounds %"class.v8::Local.346", ptr %error, i32 0, i32 0
  %coerce.dive1 = getelementptr inbounds %"class.v8::LocalBase.347", ptr %coerce.dive, i32 0, i32 0
  %coerce.dive2 = getelementptr inbounds %"class.v8::IndirectHandleBase", ptr %coerce.dive1, i32 0, i32 0
  store ptr %error.coerce, ptr %coerce.dive2, align 8
  %coerce.dive3 = getelementptr inbounds %"class.v8::Local.348", ptr %message, i32 0, i32 0
  %coerce.dive4 = getelementptr inbounds %"class.v8::LocalBase.349", ptr %coerce.dive3, i32 0, i32 0
  %coerce.dive5 = getelementptr inbounds %"class.v8::IndirectHandleBase", ptr %coerce.dive4, i32 0, i32 0
  store ptr %message.coerce, ptr %coerce.dive5, align 8
  store ptr %this, ptr %this.addr, align 8
  %this6 = load ptr, ptr %this.addr, align 8
  %env_ = getelementptr inbounds %"class.node::inspector::NodeInspectorClient", ptr %this6, i32 0, i32 1
  %0 = load ptr, ptr %env_, align 8
  %call = call noundef ptr @_ZNK4node11Environment7isolateEv(ptr noundef nonnull align 8 dereferenceable(2872) %0)
  store ptr %call, ptr %isolate, align 8
  %env_7 = getelementptr inbounds %"class.node::inspector::NodeInspectorClient", ptr %this6, i32 0, i32 1
  %1 = load ptr, ptr %env_7, align 8
  %call8 = call ptr @_ZNK4node11Environment7contextEv(ptr noundef nonnull align 8 dereferenceable(2872) %1)
  %coerce.dive9 = getelementptr inbounds %"class.v8::Local", ptr %context, i32 0, i32 0
  %coerce.dive10 = getelementptr inbounds %"class.v8::LocalBase", ptr %coerce.dive9, i32 0, i32 0
  %coerce.dive11 = getelementptr inbounds %"class.v8::IndirectHandleBase", ptr %coerce.dive10, i32 0, i32 0
  store ptr %call8, ptr %coerce.dive11, align 8
  store ptr %message, ptr %this.addr.i117, align 8
  %this1.i118 = load ptr, ptr %this.addr.i117, align 8
  store ptr %this1.i118, ptr %this.addr.i142, align 8
  %this1.i143 = load ptr, ptr %this.addr.i142, align 8
  store ptr %this1.i143, ptr %this.addr.i.i, align 8
  %this1.i.i = load ptr, ptr %this.addr.i.i, align 8
  %2 = load ptr, ptr %this1.i.i, align 8
  store ptr %2, ptr %slot.addr.i173, align 8
  %3 = load ptr, ptr %slot.addr.i173, align 8
  call void @_ZNK2v87Message15GetScriptOriginEv(ptr sret(%"class.v8::ScriptOrigin") align 8 %ref.tmp, ptr noundef nonnull align 1 dereferenceable(1) %3)
  store ptr %ref.tmp, ptr %this.addr.i120, align 8
  %this1.i121 = load ptr, ptr %this.addr.i120, align 8
  %script_id_.i = getelementptr inbounds %"class.v8::ScriptOrigin", ptr %this1.i121, i32 0, i32 5
  %4 = load i32, ptr %script_id_.i, align 4
  store i32 %4, ptr %script_id, align 4
  store ptr %message, ptr %this.addr.i114, align 8
  %this1.i115 = load ptr, ptr %this.addr.i114, align 8
  store ptr %this1.i115, ptr %this.addr.i145, align 8
  %this1.i146 = load ptr, ptr %this.addr.i145, align 8
  store ptr %this1.i146, ptr %this.addr.i.i144, align 8
  %this1.i.i147 = load ptr, ptr %this.addr.i.i144, align 8
  %5 = load ptr, ptr %this1.i.i147, align 8
  store ptr %5, ptr %slot.addr.i172, align 8
  %6 = load ptr, ptr %slot.addr.i172, align 8
  %call15 = call ptr @_ZNK2v87Message13GetStackTraceEv(ptr noundef nonnull align 1 dereferenceable(1) %6)
  %coerce.dive16 = getelementptr inbounds %"class.v8::Local.718", ptr %stack_trace, i32 0, i32 0
  %coerce.dive17 = getelementptr inbounds %"class.v8::LocalBase.719", ptr %coerce.dive16, i32 0, i32 0
  %coerce.dive18 = getelementptr inbounds %"class.v8::IndirectHandleBase", ptr %coerce.dive17, i32 0, i32 0
  store ptr %call15, ptr %coerce.dive18, align 8
  store ptr %stack_trace, ptr %this.addr.i, align 8
  %this1.i = load ptr, ptr %this.addr.i, align 8
  %7 = load ptr, ptr %this1.i, align 8
  %cmp.i = icmp eq ptr %7, null
  br i1 %cmp.i, label %land.end, label %land.lhs.true

land.lhs.true:                                    ; preds = %entry
  store ptr %stack_trace, ptr %this.addr.i125, align 8
  %this1.i126 = load ptr, ptr %this.addr.i125, align 8
  store ptr %this1.i126, ptr %this.addr.i175, align 8
  %this1.i176 = load ptr, ptr %this.addr.i175, align 8
  store ptr %this1.i176, ptr %this.addr.i.i174, align 8
  %this1.i.i177 = load ptr, ptr %this.addr.i.i174, align 8
  %8 = load ptr, ptr %this1.i.i177, align 8
  store ptr %8, ptr %slot.addr.i184, align 8
  %9 = load ptr, ptr %slot.addr.i184, align 8
  %call21 = call noundef i32 @_ZNK2v810StackTrace13GetFrameCountEv(ptr noundef nonnull align 1 dereferenceable(1) %9)
  %cmp = icmp sgt i32 %call21, 0
  br i1 %cmp, label %land.rhs, label %land.end

land.rhs:                                         ; preds = %land.lhs.true
  %10 = load i32, ptr %script_id, align 4
  store ptr %stack_trace, ptr %this.addr.i122, align 8
  %this1.i123 = load ptr, ptr %this.addr.i122, align 8
  store ptr %this1.i123, ptr %this.addr.i179, align 8
  %this1.i180 = load ptr, ptr %this.addr.i179, align 8
  store ptr %this1.i180, ptr %this.addr.i.i178, align 8
  %this1.i.i181 = load ptr, ptr %this.addr.i.i178, align 8
  %11 = load ptr, ptr %this1.i.i181, align 8
  store ptr %11, ptr %slot.addr.i183, align 8
  %12 = load ptr, ptr %slot.addr.i183, align 8
  %13 = load ptr, ptr %isolate, align 8
  %call24 = call ptr @_ZNK2v810StackTrace8GetFrameEPNS_7IsolateEj(ptr noundef nonnull align 1 dereferenceable(1) %12, ptr noundef %13, i32 noundef 0)
  %coerce.dive25 = getelementptr inbounds %"class.v8::Local.720", ptr %ref.tmp22, i32 0, i32 0
  %coerce.dive26 = getelementptr inbounds %"class.v8::LocalBase.721", ptr %coerce.dive25, i32 0, i32 0
  %coerce.dive27 = getelementptr inbounds %"class.v8::IndirectHandleBase", ptr %coerce.dive26, i32 0, i32 0
  store ptr %call24, ptr %coerce.dive27, align 8
  store ptr %ref.tmp22, ptr %this.addr.i128, align 8
  %this1.i129 = load ptr, ptr %this.addr.i128, align 8
  store ptr %this1.i129, ptr %this.addr.i186, align 8
  %this1.i187 = load ptr, ptr %this.addr.i186, align 8
  store ptr %this1.i187, ptr %this.addr.i.i185, align 8
  %this1.i.i188 = load ptr, ptr %this.addr.i.i185, align 8
  %14 = load ptr, ptr %this1.i.i188, align 8
  store ptr %14, ptr %slot.addr.i189, align 8
  %15 = load ptr, ptr %slot.addr.i189, align 8
  %call29 = call noundef i32 @_ZNK2v810StackFrame11GetScriptIdEv(ptr noundef nonnull align 1 dereferenceable(1) %15)
  %cmp30 = icmp eq i32 %10, %call29
  br label %land.end

land.end:                                         ; preds = %land.rhs, %land.lhs.true, %entry
  %16 = phi i1 [ false, %land.lhs.true ], [ false, %entry ], [ %cmp30, %land.rhs ]
  br i1 %16, label %if.then, label %if.end

if.then:                                          ; preds = %land.end
  store i32 0, ptr %script_id, align 4
  br label %if.end

if.end:                                           ; preds = %if.then, %land.end
  call void @llvm.memcpy.p0.p0.i64(ptr align 1 %DETAILS, ptr align 1 @__const._ZN4node9inspector19NodeInspectorClient23ReportUncaughtExceptionEN2v85LocalINS2_5ValueEEENS3_INS2_7MessageEEE.DETAILS, i64 9, i1 false)
  %client_ = getelementptr inbounds %"class.node::inspector::NodeInspectorClient", ptr %this6, i32 0, i32 4
  %call31 = call noundef ptr @_ZNKSt10unique_ptrIN12v8_inspector11V8InspectorESt14default_deleteIS1_EEptEv(ptr noundef nonnull align 8 dereferenceable(8) %client_) #3
  call void @llvm.memcpy.p0.p0.i64(ptr align 8 %agg.tmp, ptr align 8 %context, i64 8, i1 false)
  %arraydecay = getelementptr inbounds [9 x i8], ptr %DETAILS, i64 0, i64 0
  call void @_ZN12v8_inspector10StringViewC2EPKhm(ptr noundef nonnull align 8 dereferenceable(24) %agg.tmp32, ptr noundef %arraydecay, i64 noundef 8)
  call void @llvm.memcpy.p0.p0.i64(ptr align 8 %agg.tmp33, ptr align 8 %error, i64 8, i1 false)
  %17 = load ptr, ptr %isolate, align 8
  store ptr %message, ptr %this.addr.i111, align 8
  %this1.i112 = load ptr, ptr %this.addr.i111, align 8
  store ptr %this1.i112, ptr %this.addr.i150, align 8
  %this1.i151 = load ptr, ptr %this.addr.i150, align 8
  store ptr %this1.i151, ptr %this.addr.i.i149, align 8
  %this1.i.i152 = load ptr, ptr %this.addr.i.i149, align 8
  %18 = load ptr, ptr %this1.i.i152, align 8
  store ptr %18, ptr %slot.addr.i171, align 8
  %19 = load ptr, ptr %slot.addr.i171, align 8
  %call39 = call ptr @_ZNK2v87Message3GetEv(ptr noundef nonnull align 1 dereferenceable(1) %19)
  %coerce.dive40 = getelementptr inbounds %"class.v8::Local.510", ptr %agg.tmp37, i32 0, i32 0
  %coerce.dive41 = getelementptr inbounds %"class.v8::LocalBase.511", ptr %coerce.dive40, i32 0, i32 0
  %coerce.dive42 = getelementptr inbounds %"class.v8::IndirectHandleBase", ptr %coerce.dive41, i32 0, i32 0
  store ptr %call39, ptr %coerce.dive42, align 8
  %coerce.dive43 = getelementptr inbounds %"class.v8::Local.510", ptr %agg.tmp37, i32 0, i32 0
  %coerce.dive44 = getelementptr inbounds %"class.v8::LocalBase.511", ptr %coerce.dive43, i32 0, i32 0
  %coerce.dive45 = getelementptr inbounds %"class.v8::IndirectHandleBase", ptr %coerce.dive44, i32 0, i32 0
  %20 = load ptr, ptr %coerce.dive45, align 8
  store ptr %20, ptr %that.i, align 8
  store ptr %agg.tmp36, ptr %this.addr.i100, align 8
  %this3.i = load ptr, ptr %this.addr.i100, align 8
  store ptr %this3.i, ptr %this.addr.i101, align 8
  store ptr %that.i, ptr %other.addr.i, align 8
  %this1.i102 = load ptr, ptr %this.addr.i101, align 8
  %21 = load ptr, ptr %other.addr.i, align 8
  call void @llvm.memcpy.p0.p0.i64(ptr align 8 %this1.i102, ptr align 8 %21, i64 8, i1 false)
  %coerce.dive46 = getelementptr inbounds %"class.v8::Local.346", ptr %agg.tmp36, i32 0, i32 0
  %coerce.dive47 = getelementptr inbounds %"class.v8::LocalBase.347", ptr %coerce.dive46, i32 0, i32 0
  %coerce.dive48 = getelementptr inbounds %"class.v8::IndirectHandleBase", ptr %coerce.dive47, i32 0, i32 0
  %22 = load ptr, ptr %coerce.dive48, align 8
  call void @_ZN4node9inspector12_GLOBAL__N_116ToProtocolStringEPN2v87IsolateENS2_5LocalINS2_5ValueEEE(ptr sret(%"class.std::unique_ptr.585") align 8 %ref.tmp35, ptr noundef %17, ptr %22)
  %call49 = call noundef ptr @_ZNKSt10unique_ptrIN12v8_inspector12StringBufferESt14default_deleteIS1_EEptEv(ptr noundef nonnull align 8 dereferenceable(8) %ref.tmp35) #3
  %vtable = load ptr, ptr %call49, align 8
  %vfn = getelementptr inbounds ptr, ptr %vtable, i64 2
  %23 = load ptr, ptr %vfn, align 8
  call void %23(ptr sret(%"class.v8_inspector::StringView") align 8 %agg.tmp34, ptr noundef nonnull align 8 dereferenceable(8) %call49)
  %24 = load ptr, ptr %isolate, align 8
  store ptr %message, ptr %this.addr.i108, align 8
  %this1.i109 = load ptr, ptr %this.addr.i108, align 8
  store ptr %this1.i109, ptr %this.addr.i155, align 8
  %this1.i156 = load ptr, ptr %this.addr.i155, align 8
  store ptr %this1.i156, ptr %this.addr.i.i154, align 8
  %this1.i.i157 = load ptr, ptr %this.addr.i.i154, align 8
  %25 = load ptr, ptr %this1.i.i157, align 8
  store ptr %25, ptr %slot.addr.i170, align 8
  %26 = load ptr, ptr %slot.addr.i170, align 8
  %call54 = call ptr @_ZNK2v87Message21GetScriptResourceNameEv(ptr noundef nonnull align 1 dereferenceable(1) %26)
  %coerce.dive55 = getelementptr inbounds %"class.v8::Local.346", ptr %agg.tmp52, i32 0, i32 0
  %coerce.dive56 = getelementptr inbounds %"class.v8::LocalBase.347", ptr %coerce.dive55, i32 0, i32 0
  %coerce.dive57 = getelementptr inbounds %"class.v8::IndirectHandleBase", ptr %coerce.dive56, i32 0, i32 0
  store ptr %call54, ptr %coerce.dive57, align 8
  %coerce.dive58 = getelementptr inbounds %"class.v8::Local.346", ptr %agg.tmp52, i32 0, i32 0
  %coerce.dive59 = getelementptr inbounds %"class.v8::LocalBase.347", ptr %coerce.dive58, i32 0, i32 0
  %coerce.dive60 = getelementptr inbounds %"class.v8::IndirectHandleBase", ptr %coerce.dive59, i32 0, i32 0
  %27 = load ptr, ptr %coerce.dive60, align 8
  call void @_ZN4node9inspector12_GLOBAL__N_116ToProtocolStringEPN2v87IsolateENS2_5LocalINS2_5ValueEEE(ptr sret(%"class.std::unique_ptr.585") align 8 %ref.tmp51, ptr noundef %24, ptr %27)
  %call61 = call noundef ptr @_ZNKSt10unique_ptrIN12v8_inspector12StringBufferESt14default_deleteIS1_EEptEv(ptr noundef nonnull align 8 dereferenceable(8) %ref.tmp51) #3
  %vtable62 = load ptr, ptr %call61, align 8
  %vfn63 = getelementptr inbounds ptr, ptr %vtable62, i64 2
  %28 = load ptr, ptr %vfn63, align 8
  call void %28(ptr sret(%"class.v8_inspector::StringView") align 8 %agg.tmp50, ptr noundef nonnull align 8 dereferenceable(8) %call61)
  store ptr %message, ptr %this.addr.i105, align 8
  %this1.i106 = load ptr, ptr %this.addr.i105, align 8
  store ptr %this1.i106, ptr %this.addr.i160, align 8
  %this1.i161 = load ptr, ptr %this.addr.i160, align 8
  store ptr %this1.i161, ptr %this.addr.i.i159, align 8
  %this1.i.i162 = load ptr, ptr %this.addr.i.i159, align 8
  %29 = load ptr, ptr %this1.i.i162, align 8
  store ptr %29, ptr %slot.addr.i169, align 8
  %30 = load ptr, ptr %slot.addr.i169, align 8
  call void @llvm.memcpy.p0.p0.i64(ptr align 8 %agg.tmp66, ptr align 8 %context, i64 8, i1 false)
  %coerce.dive67 = getelementptr inbounds %"class.v8::Local", ptr %agg.tmp66, i32 0, i32 0
  %coerce.dive68 = getelementptr inbounds %"class.v8::LocalBase", ptr %coerce.dive67, i32 0, i32 0
  %coerce.dive69 = getelementptr inbounds %"class.v8::IndirectHandleBase", ptr %coerce.dive68, i32 0, i32 0
  %31 = load ptr, ptr %coerce.dive69, align 8
  %call70 = call i64 @_ZNK2v87Message13GetLineNumberENS_5LocalINS_7ContextEEE(ptr noundef nonnull align 1 dereferenceable(1) %30, ptr %31)
  store i64 %call70, ptr %ref.tmp64, align 4
  store i32 0, ptr %ref.tmp71, align 4
  store ptr %ref.tmp64, ptr %this.addr.i133, align 8
  store ptr %ref.tmp71, ptr %default_value.addr.i134, align 8
  %this1.i135 = load ptr, ptr %this.addr.i133, align 8
  %32 = load i8, ptr %this1.i135, align 4
  %tobool.i136 = trunc i8 %32 to i1
  br i1 %tobool.i136, label %cond.true.i139, label %cond.false.i137

cond.true.i139:                                   ; preds = %if.end
  %value_.i140 = getelementptr inbounds %"class.v8::Maybe.722", ptr %this1.i135, i32 0, i32 1
  %33 = load i32, ptr %value_.i140, align 4
  br label %_ZNK2v85MaybeIiE9FromMaybeERKi.exit141

cond.false.i137:                                  ; preds = %if.end
  %34 = load ptr, ptr %default_value.addr.i134, align 8
  %35 = load i32, ptr %34, align 4
  br label %_ZNK2v85MaybeIiE9FromMaybeERKi.exit141

_ZNK2v85MaybeIiE9FromMaybeERKi.exit141:           ; preds = %cond.false.i137, %cond.true.i139
  %cond.i138 = phi i32 [ %33, %cond.true.i139 ], [ %35, %cond.false.i137 ]
  store ptr %message, ptr %this.addr.i103, align 8
  %this1.i104 = load ptr, ptr %this.addr.i103, align 8
  store ptr %this1.i104, ptr %this.addr.i165, align 8
  %this1.i166 = load ptr, ptr %this.addr.i165, align 8
  store ptr %this1.i166, ptr %this.addr.i.i164, align 8
  %this1.i.i167 = load ptr, ptr %this.addr.i.i164, align 8
  %36 = load ptr, ptr %this1.i.i167, align 8
  store ptr %36, ptr %slot.addr.i, align 8
  %37 = load ptr, ptr %slot.addr.i, align 8
  call void @llvm.memcpy.p0.p0.i64(ptr align 8 %agg.tmp75, ptr align 8 %context, i64 8, i1 false)
  %coerce.dive76 = getelementptr inbounds %"class.v8::Local", ptr %agg.tmp75, i32 0, i32 0
  %coerce.dive77 = getelementptr inbounds %"class.v8::LocalBase", ptr %coerce.dive76, i32 0, i32 0
  %coerce.dive78 = getelementptr inbounds %"class.v8::IndirectHandleBase", ptr %coerce.dive77, i32 0, i32 0
  %38 = load ptr, ptr %coerce.dive78, align 8
  %call79 = call i64 @_ZNK2v87Message14GetStartColumnENS_5LocalINS_7ContextEEE(ptr noundef nonnull align 1 dereferenceable(1) %37, ptr %38)
  store i64 %call79, ptr %ref.tmp73, align 4
  store i32 0, ptr %ref.tmp80, align 4
  store ptr %ref.tmp73, ptr %this.addr.i131, align 8
  store ptr %ref.tmp80, ptr %default_value.addr.i, align 8
  %this1.i132 = load ptr, ptr %this.addr.i131, align 8
  %39 = load i8, ptr %this1.i132, align 4
  %tobool.i = trunc i8 %39 to i1
  br i1 %tobool.i, label %cond.true.i, label %cond.false.i

cond.true.i:                                      ; preds = %_ZNK2v85MaybeIiE9FromMaybeERKi.exit141
  %value_.i = getelementptr inbounds %"class.v8::Maybe.722", ptr %this1.i132, i32 0, i32 1
  %40 = load i32, ptr %value_.i, align 4
  br label %_ZNK2v85MaybeIiE9FromMaybeERKi.exit

cond.false.i:                                     ; preds = %_ZNK2v85MaybeIiE9FromMaybeERKi.exit141
  %41 = load ptr, ptr %default_value.addr.i, align 8
  %42 = load i32, ptr %41, align 4
  br label %_ZNK2v85MaybeIiE9FromMaybeERKi.exit

_ZNK2v85MaybeIiE9FromMaybeERKi.exit:              ; preds = %cond.false.i, %cond.true.i
  %cond.i = phi i32 [ %40, %cond.true.i ], [ %42, %cond.false.i ]
  %client_83 = getelementptr inbounds %"class.node::inspector::NodeInspectorClient", ptr %this6, i32 0, i32 4
  %call84 = call noundef ptr @_ZNKSt10unique_ptrIN12v8_inspector11V8InspectorESt14default_deleteIS1_EEptEv(ptr noundef nonnull align 8 dereferenceable(8) %client_83) #3
  call void @llvm.memcpy.p0.p0.i64(ptr align 8 %agg.tmp85, ptr align 8 %stack_trace, i64 8, i1 false)
  %coerce.dive86 = getelementptr inbounds %"class.v8::Local.718", ptr %agg.tmp85, i32 0, i32 0
  %coerce.dive87 = getelementptr inbounds %"class.v8::LocalBase.719", ptr %coerce.dive86, i32 0, i32 0
  %coerce.dive88 = getelementptr inbounds %"class.v8::IndirectHandleBase", ptr %coerce.dive87, i32 0, i32 0
  %43 = load ptr, ptr %coerce.dive88, align 8
  %vtable89 = load ptr, ptr %call84, align 8
  %vfn90 = getelementptr inbounds ptr, ptr %vtable89, i64 21
  %44 = load ptr, ptr %vfn90, align 8
  call void %44(ptr sret(%"class.std::unique_ptr.723") align 8 %agg.tmp82, ptr noundef nonnull align 8 dereferenceable(8) %call84, ptr %43)
  %45 = load i32, ptr %script_id, align 4
  %coerce.dive91 = getelementptr inbounds %"class.v8::Local", ptr %agg.tmp, i32 0, i32 0
  %coerce.dive92 = getelementptr inbounds %"class.v8::LocalBase", ptr %coerce.dive91, i32 0, i32 0
  %coerce.dive93 = getelementptr inbounds %"class.v8::IndirectHandleBase", ptr %coerce.dive92, i32 0, i32 0
  %46 = load ptr, ptr %coerce.dive93, align 8
  %coerce.dive94 = getelementptr inbounds %"class.v8::Local.346", ptr %agg.tmp33, i32 0, i32 0
  %coerce.dive95 = getelementptr inbounds %"class.v8::LocalBase.347", ptr %coerce.dive94, i32 0, i32 0
  %coerce.dive96 = getelementptr inbounds %"class.v8::IndirectHandleBase", ptr %coerce.dive95, i32 0, i32 0
  %47 = load ptr, ptr %coerce.dive96, align 8
  %vtable97 = load ptr, ptr %call31, align 8
  %vfn98 = getelementptr inbounds ptr, ptr %vtable97, i64 17
  %48 = load ptr, ptr %vfn98, align 8
  %call99 = call noundef i32 %48(ptr noundef nonnull align 8 dereferenceable(8) %call31, ptr %46, ptr noundef byval(%"class.v8_inspector::StringView") align 8 %agg.tmp32, ptr %47, ptr noundef byval(%"class.v8_inspector::StringView") align 8 %agg.tmp34, ptr noundef byval(%"class.v8_inspector::StringView") align 8 %agg.tmp50, i32 noundef %cond.i138, i32 noundef %cond.i, ptr noundef %agg.tmp82, i32 noundef %45)
  call void @_ZNSt10unique_ptrIN12v8_inspector12V8StackTraceESt14default_deleteIS1_EED2Ev(ptr noundef nonnull align 8 dereferenceable(8) %agg.tmp82) #3
  call void @_ZNSt10unique_ptrIN12v8_inspector12StringBufferESt14default_deleteIS1_EED2Ev(ptr noundef nonnull align 8 dereferenceable(8) %ref.tmp51) #3
  call void @_ZNSt10unique_ptrIN12v8_inspector12StringBufferESt14default_deleteIS1_EED2Ev(ptr noundef nonnull align 8 dereferenceable(8) %ref.tmp35) #3
  ret void
}

; Function Attrs: nocallback nofree nounwind willreturn memory(argmem: readwrite)
declare void @llvm.memcpy.p0.p0.i64(ptr noalias nocapture writeonly, ptr noalias nocapture readonly, i64, i1 immarg) #7

; Function Attrs: mustprogress nounwind uwtable
define dso_local void @_ZN4node9inspector5Agent30PauseOnNextJavascriptStatementERKNSt7__cxx1112basic_stringIcSt11char_traitsIcESaIcEEE(ptr noundef nonnull align 8 dereferenceable(186) %this, ptr noundef nonnull align 8 dereferenceable(32) %reason) #4 align 2 {
entry:
  %this.addr = alloca ptr, align 8
  %reason.addr = alloca ptr, align 8
  store ptr %this, ptr %this.addr, align 8
  store ptr %reason, ptr %reason.addr, align 8
  %this1 = load ptr, ptr %this.addr, align 8
  %client_ = getelementptr inbounds %"class.node::inspector::Agent", ptr %this1, i32 0, i32 1
  %call = call noundef ptr @_ZNKSt19__shared_ptr_accessIN4node9inspector19NodeInspectorClientELN9__gnu_cxx12_Lock_policyE2ELb0ELb0EEptEv(ptr noundef nonnull align 1 dereferenceable(1) %client_) #3
  %0 = load ptr, ptr %reason.addr, align 8
  call void @_ZN4node9inspector19NodeInspectorClient28schedulePauseOnNextStatementERKNSt7__cxx1112basic_stringIcSt11char_traitsIcESaIcEEE(ptr noundef nonnull align 8 dereferenceable(184) %call, ptr noundef nonnull align 8 dereferenceable(32) %0)
  ret void
}

; Function Attrs: mustprogress nounwind uwtable
define linkonce_odr dso_local void @_ZN4node9inspector19NodeInspectorClient28schedulePauseOnNextStatementERKNSt7__cxx1112basic_stringIcSt11char_traitsIcESaIcEEE(ptr noundef nonnull align 8 dereferenceable(184) %this, ptr noundef nonnull align 8 dereferenceable(32) %reason) #4 comdat align 2 {
entry:
  %this.addr = alloca ptr, align 8
  %reason.addr = alloca ptr, align 8
  %__range2 = alloca ptr, align 8
  %__begin2 = alloca %"struct.std::__detail::_Node_iterator.661", align 8
  %__end2 = alloca %"struct.std::__detail::_Node_iterator.661", align 8
  %id_channel = alloca ptr, align 8
  store ptr %this, ptr %this.addr, align 8
  store ptr %reason, ptr %reason.addr, align 8
  %this1 = load ptr, ptr %this.addr, align 8
  %channels_ = getelementptr inbounds %"class.node::inspector::NodeInspectorClient", ptr %this1, i32 0, i32 6
  store ptr %channels_, ptr %__range2, align 8
  %0 = load ptr, ptr %__range2, align 8
  %call = call ptr @_ZNSt13unordered_mapIiSt10unique_ptrIN4node9inspector12_GLOBAL__N_111ChannelImplESt14default_deleteIS4_EESt4hashIiESt8equal_toIiESaISt4pairIKiS7_EEE5beginEv(ptr noundef nonnull align 8 dereferenceable(56) %0) #3
  %coerce.dive = getelementptr inbounds %"struct.std::__detail::_Node_iterator.661", ptr %__begin2, i32 0, i32 0
  %coerce.dive2 = getelementptr inbounds %"struct.std::__detail::_Node_iterator_base.662", ptr %coerce.dive, i32 0, i32 0
  store ptr %call, ptr %coerce.dive2, align 8
  %1 = load ptr, ptr %__range2, align 8
  %call3 = call ptr @_ZNSt13unordered_mapIiSt10unique_ptrIN4node9inspector12_GLOBAL__N_111ChannelImplESt14default_deleteIS4_EESt4hashIiESt8equal_toIiESaISt4pairIKiS7_EEE3endEv(ptr noundef nonnull align 8 dereferenceable(56) %1) #3
  %coerce.dive4 = getelementptr inbounds %"struct.std::__detail::_Node_iterator.661", ptr %__end2, i32 0, i32 0
  %coerce.dive5 = getelementptr inbounds %"struct.std::__detail::_Node_iterator_base.662", ptr %coerce.dive4, i32 0, i32 0
  store ptr %call3, ptr %coerce.dive5, align 8
  br label %for.cond

for.cond:                                         ; preds = %for.inc, %entry
  %call6 = call noundef zeroext i1 @_ZNSt8__detailneERKNS_19_Node_iterator_baseISt4pairIKiSt10unique_ptrIN4node9inspector12_GLOBAL__N_111ChannelImplESt14default_deleteIS7_EEELb0EEESE_(ptr noundef nonnull align 8 dereferenceable(8) %__begin2, ptr noundef nonnull align 8 dereferenceable(8) %__end2) #3
  br i1 %call6, label %for.body, label %for.end

for.body:                                         ; preds = %for.cond
  %call7 = call noundef nonnull align 8 dereferenceable(16) ptr @_ZNKSt8__detail14_Node_iteratorISt4pairIKiSt10unique_ptrIN4node9inspector12_GLOBAL__N_111ChannelImplESt14default_deleteIS7_EEELb0ELb0EEdeEv(ptr noundef nonnull align 8 dereferenceable(8) %__begin2) #3
  store ptr %call7, ptr %id_channel, align 8
  %2 = load ptr, ptr %id_channel, align 8
  %second = getelementptr inbounds %"struct.std::pair.655", ptr %2, i32 0, i32 1
  %call8 = call noundef ptr @_ZNKSt10unique_ptrIN4node9inspector12_GLOBAL__N_111ChannelImplESt14default_deleteIS3_EEptEv(ptr noundef nonnull align 8 dereferenceable(8) %second) #3
  %3 = load ptr, ptr %reason.addr, align 8
  call void @_ZN4node9inspector12_GLOBAL__N_111ChannelImpl28schedulePauseOnNextStatementERKNSt7__cxx1112basic_stringIcSt11char_traitsIcESaIcEEE(ptr noundef nonnull align 8 dereferenceable(72) %call8, ptr noundef nonnull align 8 dereferenceable(32) %3)
  br label %for.inc

for.inc:                                          ; preds = %for.body
  %call9 = call noundef nonnull align 8 dereferenceable(8) ptr @_ZNSt8__detail14_Node_iteratorISt4pairIKiSt10unique_ptrIN4node9inspector12_GLOBAL__N_111ChannelImplESt14default_deleteIS7_EEELb0ELb0EEppEv(ptr noundef nonnull align 8 dereferenceable(8) %__begin2) #3
  br label %for.cond

for.end:                                          ; preds = %for.cond
  ret void
}

; Function Attrs: mustprogress nounwind uwtable
define dso_local void @_ZN4node9inspector5Agent17RegisterAsyncHookEPN2v87IsolateENS2_5LocalINS2_8FunctionEEES7_(ptr noundef nonnull align 8 dereferenceable(186) %this, ptr noundef %isolate, ptr %enable_function.coerce, ptr %disable_function.coerce) #4 align 2 {
entry:
  %enable_function = alloca %"class.v8::Local.350", align 8
  %disable_function = alloca %"class.v8::Local.350", align 8
  %this.addr = alloca ptr, align 8
  %isolate.addr = alloca ptr, align 8
  %agg.tmp = alloca %"class.v8::Local.350", align 8
  %agg.tmp11 = alloca %"class.v8::Local.350", align 8
  %coerce.dive = getelementptr inbounds %"class.v8::Local.350", ptr %enable_function, i32 0, i32 0
  %coerce.dive1 = getelementptr inbounds %"class.v8::LocalBase.351", ptr %coerce.dive, i32 0, i32 0
  %coerce.dive2 = getelementptr inbounds %"class.v8::IndirectHandleBase", ptr %coerce.dive1, i32 0, i32 0
  store ptr %enable_function.coerce, ptr %coerce.dive2, align 8
  %coerce.dive3 = getelementptr inbounds %"class.v8::Local.350", ptr %disable_function, i32 0, i32 0
  %coerce.dive4 = getelementptr inbounds %"class.v8::LocalBase.351", ptr %coerce.dive3, i32 0, i32 0
  %coerce.dive5 = getelementptr inbounds %"class.v8::IndirectHandleBase", ptr %coerce.dive4, i32 0, i32 0
  store ptr %disable_function.coerce, ptr %coerce.dive5, align 8
  store ptr %this, ptr %this.addr, align 8
  store ptr %isolate, ptr %isolate.addr, align 8
  %this6 = load ptr, ptr %this.addr, align 8
  %parent_env_ = getelementptr inbounds %"class.node::inspector::Agent", ptr %this6, i32 0, i32 0
  %0 = load ptr, ptr %parent_env_, align 8
  call void @llvm.memcpy.p0.p0.i64(ptr align 8 %agg.tmp, ptr align 8 %enable_function, i64 8, i1 false)
  %coerce.dive7 = getelementptr inbounds %"class.v8::Local.350", ptr %agg.tmp, i32 0, i32 0
  %coerce.dive8 = getelementptr inbounds %"class.v8::LocalBase.351", ptr %coerce.dive7, i32 0, i32 0
  %coerce.dive9 = getelementptr inbounds %"class.v8::IndirectHandleBase", ptr %coerce.dive8, i32 0, i32 0
  %1 = load ptr, ptr %coerce.dive9, align 8
  call void @_ZN4node11Environment32set_inspector_enable_async_hooksEN2v85LocalINS1_8FunctionEEE(ptr noundef nonnull align 8 dereferenceable(2872) %0, ptr %1)
  %parent_env_10 = getelementptr inbounds %"class.node::inspector::Agent", ptr %this6, i32 0, i32 0
  %2 = load ptr, ptr %parent_env_10, align 8
  call void @llvm.memcpy.p0.p0.i64(ptr align 8 %agg.tmp11, ptr align 8 %disable_function, i64 8, i1 false)
  %coerce.dive12 = getelementptr inbounds %"class.v8::Local.350", ptr %agg.tmp11, i32 0, i32 0
  %coerce.dive13 = getelementptr inbounds %"class.v8::LocalBase.351", ptr %coerce.dive12, i32 0, i32 0
  %coerce.dive14 = getelementptr inbounds %"class.v8::IndirectHandleBase", ptr %coerce.dive13, i32 0, i32 0
  %3 = load ptr, ptr %coerce.dive14, align 8
  call void @_ZN4node11Environment33set_inspector_disable_async_hooksEN2v85LocalINS1_8FunctionEEE(ptr noundef nonnull align 8 dereferenceable(2872) %2, ptr %3)
  %pending_enable_async_hook_ = getelementptr inbounds %"class.node::inspector::Agent", ptr %this6, i32 0, i32 7
  %4 = load i8, ptr %pending_enable_async_hook_, align 8
  %tobool = trunc i8 %4 to i1
  br i1 %tobool, label %if.then, label %if.else

if.then:                                          ; preds = %entry
  br label %do.body

do.body:                                          ; preds = %if.then
  %pending_disable_async_hook_ = getelementptr inbounds %"class.node::inspector::Agent", ptr %this6, i32 0, i32 8
  %5 = load i8, ptr %pending_disable_async_hook_, align 1
  %tobool15 = trunc i8 %5 to i1
  %lnot = xor i1 %tobool15, true
  %lnot16 = xor i1 %lnot, true
  %lnot17 = xor i1 %lnot16, true
  %lnot18 = xor i1 %lnot17, true
  br i1 %lnot18, label %if.then19, label %if.end

if.then19:                                        ; preds = %do.body
  br label %do.body20

do.body20:                                        ; preds = %if.then19
  call void @_ZN4node6AssertERKNS_13AssertionInfoE(ptr noundef nonnull align 8 dereferenceable(24) @_ZZN4node9inspector5Agent17RegisterAsyncHookEPN2v87IsolateENS2_5LocalINS2_8FunctionEEES7_E4args)
  call void @abort() #14
  unreachable

do.end:                                           ; No predecessors!
  br label %if.end

if.end:                                           ; preds = %do.end, %do.body
  br label %do.end21

do.end21:                                         ; preds = %if.end
  %pending_enable_async_hook_22 = getelementptr inbounds %"class.node::inspector::Agent", ptr %this6, i32 0, i32 7
  store i8 0, ptr %pending_enable_async_hook_22, align 8
  call void @_ZN4node9inspector5Agent15EnableAsyncHookEv(ptr noundef nonnull align 8 dereferenceable(186) %this6)
  br label %if.end40

if.else:                                          ; preds = %entry
  %pending_disable_async_hook_23 = getelementptr inbounds %"class.node::inspector::Agent", ptr %this6, i32 0, i32 8
  %6 = load i8, ptr %pending_disable_async_hook_23, align 1
  %tobool24 = trunc i8 %6 to i1
  br i1 %tobool24, label %if.then25, label %if.end39

if.then25:                                        ; preds = %if.else
  br label %do.body26

do.body26:                                        ; preds = %if.then25
  %pending_enable_async_hook_27 = getelementptr inbounds %"class.node::inspector::Agent", ptr %this6, i32 0, i32 7
  %7 = load i8, ptr %pending_enable_async_hook_27, align 8
  %tobool28 = trunc i8 %7 to i1
  %lnot29 = xor i1 %tobool28, true
  %lnot30 = xor i1 %lnot29, true
  %lnot31 = xor i1 %lnot30, true
  %lnot32 = xor i1 %lnot31, true
  br i1 %lnot32, label %if.then33, label %if.end36

if.then33:                                        ; preds = %do.body26
  br label %do.body34

do.body34:                                        ; preds = %if.then33
  call void @_ZN4node6AssertERKNS_13AssertionInfoE(ptr noundef nonnull align 8 dereferenceable(24) @_ZZN4node9inspector5Agent17RegisterAsyncHookEPN2v87IsolateENS2_5LocalINS2_8FunctionEEES7_E4args_0)
  call void @abort() #14
  unreachable

do.end35:                                         ; No predecessors!
  br label %if.end36

if.end36:                                         ; preds = %do.end35, %do.body26
  br label %do.end37

do.end37:                                         ; preds = %if.end36
  %pending_disable_async_hook_38 = getelementptr inbounds %"class.node::inspector::Agent", ptr %this6, i32 0, i32 8
  store i8 0, ptr %pending_disable_async_hook_38, align 1
  call void @_ZN4node9inspector5Agent16DisableAsyncHookEv(ptr noundef nonnull align 8 dereferenceable(186) %this6)
  br label %if.end39

if.end39:                                         ; preds = %do.end37, %if.else
  br label %if.end40

if.end40:                                         ; preds = %if.end39, %do.end21
  ret void
}

; Function Attrs: mustprogress nounwind uwtable
define linkonce_odr dso_local void @_ZN4node11Environment32set_inspector_enable_async_hooksEN2v85LocalINS1_8FunctionEEE(ptr noundef nonnull align 8 dereferenceable(2872) %this, ptr %value.coerce) #4 comdat align 2 {
entry:
  %value = alloca %"class.v8::Local.350", align 8
  %this.addr = alloca ptr, align 8
  %agg.tmp = alloca %"class.v8::Local.350", align 8
  %coerce.dive = getelementptr inbounds %"class.v8::Local.350", ptr %value, i32 0, i32 0
  %coerce.dive1 = getelementptr inbounds %"class.v8::LocalBase.351", ptr %coerce.dive, i32 0, i32 0
  %coerce.dive2 = getelementptr inbounds %"class.v8::IndirectHandleBase", ptr %coerce.dive1, i32 0, i32 0
  store ptr %value.coerce, ptr %coerce.dive2, align 8
  store ptr %this, ptr %this.addr, align 8
  %this3 = load ptr, ptr %this.addr, align 8
  %principal_realm_ = getelementptr inbounds %"class.node::Environment", ptr %this3, i32 0, i32 89
  %call = call noundef ptr @_ZNKSt10unique_ptrIN4node14PrincipalRealmESt14default_deleteIS1_EEptEv(ptr noundef nonnull align 8 dereferenceable(8) %principal_realm_) #3
  call void @llvm.memcpy.p0.p0.i64(ptr align 8 %agg.tmp, ptr align 8 %value, i64 8, i1 false)
  %coerce.dive4 = getelementptr inbounds %"class.v8::Local.350", ptr %agg.tmp, i32 0, i32 0
  %coerce.dive5 = getelementptr inbounds %"class.v8::LocalBase.351", ptr %coerce.dive4, i32 0, i32 0
  %coerce.dive6 = getelementptr inbounds %"class.v8::IndirectHandleBase", ptr %coerce.dive5, i32 0, i32 0
  %0 = load ptr, ptr %coerce.dive6, align 8
  %vtable = load ptr, ptr %call, align 8
  %vfn = getelementptr inbounds ptr, ptr %vtable, i64 76
  %1 = load ptr, ptr %vfn, align 8
  call void %1(ptr noundef nonnull align 8 dereferenceable(872) %call, ptr %0)
  ret void
}

; Function Attrs: mustprogress nounwind uwtable
define linkonce_odr dso_local void @_ZN4node11Environment33set_inspector_disable_async_hooksEN2v85LocalINS1_8FunctionEEE(ptr noundef nonnull align 8 dereferenceable(2872) %this, ptr %value.coerce) #4 comdat align 2 {
entry:
  %value = alloca %"class.v8::Local.350", align 8
  %this.addr = alloca ptr, align 8
  %agg.tmp = alloca %"class.v8::Local.350", align 8
  %coerce.dive = getelementptr inbounds %"class.v8::Local.350", ptr %value, i32 0, i32 0
  %coerce.dive1 = getelementptr inbounds %"class.v8::LocalBase.351", ptr %coerce.dive, i32 0, i32 0
  %coerce.dive2 = getelementptr inbounds %"class.v8::IndirectHandleBase", ptr %coerce.dive1, i32 0, i32 0
  store ptr %value.coerce, ptr %coerce.dive2, align 8
  store ptr %this, ptr %this.addr, align 8
  %this3 = load ptr, ptr %this.addr, align 8
  %principal_realm_ = getelementptr inbounds %"class.node::Environment", ptr %this3, i32 0, i32 89
  %call = call noundef ptr @_ZNKSt10unique_ptrIN4node14PrincipalRealmESt14default_deleteIS1_EEptEv(ptr noundef nonnull align 8 dereferenceable(8) %principal_realm_) #3
  call void @llvm.memcpy.p0.p0.i64(ptr align 8 %agg.tmp, ptr align 8 %value, i64 8, i1 false)
  %coerce.dive4 = getelementptr inbounds %"class.v8::Local.350", ptr %agg.tmp, i32 0, i32 0
  %coerce.dive5 = getelementptr inbounds %"class.v8::LocalBase.351", ptr %coerce.dive4, i32 0, i32 0
  %coerce.dive6 = getelementptr inbounds %"class.v8::IndirectHandleBase", ptr %coerce.dive5, i32 0, i32 0
  %0 = load ptr, ptr %coerce.dive6, align 8
  %vtable = load ptr, ptr %call, align 8
  %vfn = getelementptr inbounds ptr, ptr %vtable, i64 74
  %1 = load ptr, ptr %vfn, align 8
  call void %1(ptr noundef nonnull align 8 dereferenceable(872) %call, ptr %0)
  ret void
}

; Function Attrs: mustprogress nounwind uwtable
define dso_local void @_ZN4node9inspector5Agent15EnableAsyncHookEv(ptr noundef nonnull align 8 dereferenceable(186) %this) #4 align 2 {
entry:
  %this.addr.i = alloca ptr, align 8
  %this.addr = alloca ptr, align 8
  %scope = alloca %"class.v8::HandleScope", align 8
  %enable = alloca %"class.v8::Local.350", align 8
  %agg.tmp = alloca %"class.v8::Local.350", align 8
  store ptr %this, ptr %this.addr, align 8
  %this1 = load ptr, ptr %this.addr, align 8
  %parent_env_ = getelementptr inbounds %"class.node::inspector::Agent", ptr %this1, i32 0, i32 0
  %0 = load ptr, ptr %parent_env_, align 8
  %call = call noundef ptr @_ZNK4node11Environment7isolateEv(ptr noundef nonnull align 8 dereferenceable(2872) %0)
  call void @_ZN2v811HandleScopeC1EPNS_7IsolateE(ptr noundef nonnull align 8 dereferenceable(24) %scope, ptr noundef %call)
  %parent_env_2 = getelementptr inbounds %"class.node::inspector::Agent", ptr %this1, i32 0, i32 0
  %1 = load ptr, ptr %parent_env_2, align 8
  %call3 = call ptr @_ZNK4node11Environment28inspector_enable_async_hooksEv(ptr noundef nonnull align 8 dereferenceable(2872) %1)
  %coerce.dive = getelementptr inbounds %"class.v8::Local.350", ptr %enable, i32 0, i32 0
  %coerce.dive4 = getelementptr inbounds %"class.v8::LocalBase.351", ptr %coerce.dive, i32 0, i32 0
  %coerce.dive5 = getelementptr inbounds %"class.v8::IndirectHandleBase", ptr %coerce.dive4, i32 0, i32 0
  store ptr %call3, ptr %coerce.dive5, align 8
  store ptr %enable, ptr %this.addr.i, align 8
  %this1.i = load ptr, ptr %this.addr.i, align 8
  %2 = load ptr, ptr %this1.i, align 8
  %cmp.i = icmp eq ptr %2, null
  br i1 %cmp.i, label %if.else, label %if.then

if.then:                                          ; preds = %entry
  %parent_env_7 = getelementptr inbounds %"class.node::inspector::Agent", ptr %this1, i32 0, i32 0
  %3 = load ptr, ptr %parent_env_7, align 8
  %call8 = call noundef ptr @_ZNK4node11Environment7isolateEv(ptr noundef nonnull align 8 dereferenceable(2872) %3)
  call void @llvm.memcpy.p0.p0.i64(ptr align 8 %agg.tmp, ptr align 8 %enable, i64 8, i1 false)
  %coerce.dive9 = getelementptr inbounds %"class.v8::Local.350", ptr %agg.tmp, i32 0, i32 0
  %coerce.dive10 = getelementptr inbounds %"class.v8::LocalBase.351", ptr %coerce.dive9, i32 0, i32 0
  %coerce.dive11 = getelementptr inbounds %"class.v8::IndirectHandleBase", ptr %coerce.dive10, i32 0, i32 0
  %4 = load ptr, ptr %coerce.dive11, align 8
  call void @_ZN4node9inspector5Agent15ToggleAsyncHookEPN2v87IsolateENS2_5LocalINS2_8FunctionEEE(ptr noundef nonnull align 8 dereferenceable(186) %this1, ptr noundef %call8, ptr %4)
  br label %if.end25

if.else:                                          ; preds = %entry
  %pending_disable_async_hook_ = getelementptr inbounds %"class.node::inspector::Agent", ptr %this1, i32 0, i32 8
  %5 = load i8, ptr %pending_disable_async_hook_, align 1
  %tobool = trunc i8 %5 to i1
  br i1 %tobool, label %if.then12, label %if.else22

if.then12:                                        ; preds = %if.else
  br label %do.body

do.body:                                          ; preds = %if.then12
  %pending_enable_async_hook_ = getelementptr inbounds %"class.node::inspector::Agent", ptr %this1, i32 0, i32 7
  %6 = load i8, ptr %pending_enable_async_hook_, align 8
  %tobool13 = trunc i8 %6 to i1
  %lnot = xor i1 %tobool13, true
  %lnot14 = xor i1 %lnot, true
  %lnot15 = xor i1 %lnot14, true
  %lnot16 = xor i1 %lnot15, true
  br i1 %lnot16, label %if.then17, label %if.end

if.then17:                                        ; preds = %do.body
  br label %do.body18

do.body18:                                        ; preds = %if.then17
  call void @_ZN4node6AssertERKNS_13AssertionInfoE(ptr noundef nonnull align 8 dereferenceable(24) @_ZZN4node9inspector5Agent15EnableAsyncHookEvE4args)
  call void @abort() #14
  unreachable

do.cond:                                          ; No predecessors!
  br label %do.end

do.end:                                           ; preds = %do.cond
  br label %if.end

if.end:                                           ; preds = %do.end, %do.body
  br label %do.cond19

do.cond19:                                        ; preds = %if.end
  br label %do.end20

do.end20:                                         ; preds = %do.cond19
  %pending_disable_async_hook_21 = getelementptr inbounds %"class.node::inspector::Agent", ptr %this1, i32 0, i32 8
  store i8 0, ptr %pending_disable_async_hook_21, align 1
  br label %if.end24

if.else22:                                        ; preds = %if.else
  %pending_enable_async_hook_23 = getelementptr inbounds %"class.node::inspector::Agent", ptr %this1, i32 0, i32 7
  store i8 1, ptr %pending_enable_async_hook_23, align 8
  br label %if.end24

if.end24:                                         ; preds = %if.else22, %do.end20
  br label %if.end25

if.end25:                                         ; preds = %if.end24, %if.then
  call void @_ZN2v811HandleScopeD1Ev(ptr noundef nonnull align 8 dereferenceable(24) %scope) #3
  ret void
}

; Function Attrs: mustprogress nounwind uwtable
define dso_local void @_ZN4node9inspector5Agent16DisableAsyncHookEv(ptr noundef nonnull align 8 dereferenceable(186) %this) #4 align 2 {
entry:
  %this.addr.i = alloca ptr, align 8
  %this.addr = alloca ptr, align 8
  %scope = alloca %"class.v8::HandleScope", align 8
  %disable = alloca %"class.v8::Local.350", align 8
  %agg.tmp = alloca %"class.v8::Local.350", align 8
  store ptr %this, ptr %this.addr, align 8
  %this1 = load ptr, ptr %this.addr, align 8
  %parent_env_ = getelementptr inbounds %"class.node::inspector::Agent", ptr %this1, i32 0, i32 0
  %0 = load ptr, ptr %parent_env_, align 8
  %call = call noundef ptr @_ZNK4node11Environment7isolateEv(ptr noundef nonnull align 8 dereferenceable(2872) %0)
  call void @_ZN2v811HandleScopeC1EPNS_7IsolateE(ptr noundef nonnull align 8 dereferenceable(24) %scope, ptr noundef %call)
  %parent_env_2 = getelementptr inbounds %"class.node::inspector::Agent", ptr %this1, i32 0, i32 0
  %1 = load ptr, ptr %parent_env_2, align 8
  %call3 = call ptr @_ZNK4node11Environment28inspector_enable_async_hooksEv(ptr noundef nonnull align 8 dereferenceable(2872) %1)
  %coerce.dive = getelementptr inbounds %"class.v8::Local.350", ptr %disable, i32 0, i32 0
  %coerce.dive4 = getelementptr inbounds %"class.v8::LocalBase.351", ptr %coerce.dive, i32 0, i32 0
  %coerce.dive5 = getelementptr inbounds %"class.v8::IndirectHandleBase", ptr %coerce.dive4, i32 0, i32 0
  store ptr %call3, ptr %coerce.dive5, align 8
  store ptr %disable, ptr %this.addr.i, align 8
  %this1.i = load ptr, ptr %this.addr.i, align 8
  %2 = load ptr, ptr %this1.i, align 8
  %cmp.i = icmp eq ptr %2, null
  br i1 %cmp.i, label %if.else, label %if.then

if.then:                                          ; preds = %entry
  %parent_env_7 = getelementptr inbounds %"class.node::inspector::Agent", ptr %this1, i32 0, i32 0
  %3 = load ptr, ptr %parent_env_7, align 8
  %call8 = call noundef ptr @_ZNK4node11Environment7isolateEv(ptr noundef nonnull align 8 dereferenceable(2872) %3)
  call void @llvm.memcpy.p0.p0.i64(ptr align 8 %agg.tmp, ptr align 8 %disable, i64 8, i1 false)
  %coerce.dive9 = getelementptr inbounds %"class.v8::Local.350", ptr %agg.tmp, i32 0, i32 0
  %coerce.dive10 = getelementptr inbounds %"class.v8::LocalBase.351", ptr %coerce.dive9, i32 0, i32 0
  %coerce.dive11 = getelementptr inbounds %"class.v8::IndirectHandleBase", ptr %coerce.dive10, i32 0, i32 0
  %4 = load ptr, ptr %coerce.dive11, align 8
  call void @_ZN4node9inspector5Agent15ToggleAsyncHookEPN2v87IsolateENS2_5LocalINS2_8FunctionEEE(ptr noundef nonnull align 8 dereferenceable(186) %this1, ptr noundef %call8, ptr %4)
  br label %if.end25

if.else:                                          ; preds = %entry
  %pending_enable_async_hook_ = getelementptr inbounds %"class.node::inspector::Agent", ptr %this1, i32 0, i32 7
  %5 = load i8, ptr %pending_enable_async_hook_, align 8
  %tobool = trunc i8 %5 to i1
  br i1 %tobool, label %if.then12, label %if.else22

if.then12:                                        ; preds = %if.else
  br label %do.body

do.body:                                          ; preds = %if.then12
  %pending_disable_async_hook_ = getelementptr inbounds %"class.node::inspector::Agent", ptr %this1, i32 0, i32 8
  %6 = load i8, ptr %pending_disable_async_hook_, align 1
  %tobool13 = trunc i8 %6 to i1
  %lnot = xor i1 %tobool13, true
  %lnot14 = xor i1 %lnot, true
  %lnot15 = xor i1 %lnot14, true
  %lnot16 = xor i1 %lnot15, true
  br i1 %lnot16, label %if.then17, label %if.end

if.then17:                                        ; preds = %do.body
  br label %do.body18

do.body18:                                        ; preds = %if.then17
  call void @_ZN4node6AssertERKNS_13AssertionInfoE(ptr noundef nonnull align 8 dereferenceable(24) @_ZZN4node9inspector5Agent16DisableAsyncHookEvE4args)
  call void @abort() #14
  unreachable

do.cond:                                          ; No predecessors!
  br label %do.end

do.end:                                           ; preds = %do.cond
  br label %if.end

if.end:                                           ; preds = %do.end, %do.body
  br label %do.cond19

do.cond19:                                        ; preds = %if.end
  br label %do.end20

do.end20:                                         ; preds = %do.cond19
  %pending_enable_async_hook_21 = getelementptr inbounds %"class.node::inspector::Agent", ptr %this1, i32 0, i32 7
  store i8 0, ptr %pending_enable_async_hook_21, align 8
  br label %if.end24

if.else22:                                        ; preds = %if.else
  %pending_disable_async_hook_23 = getelementptr inbounds %"class.node::inspector::Agent", ptr %this1, i32 0, i32 8
  store i8 1, ptr %pending_disable_async_hook_23, align 1
  br label %if.end24

