target datalayout = "e-m:e-p270:32:32-p271:32:32-p272:64:64-i64:64-i128:128-f80:128-n8:16:32:64-S128"
target triple = "x86_64-unknown-linux-gnu"

%"class.std::ios_base::Init" = type { i8 }
%"struct.node::AssertionInfo" = type { ptr, ptr, ptr }
%"struct.std::in_place_t" = type { i8 }
%"struct.std::nullopt_t" = type { i8 }
%"class.node::crypto::ManagedEVPPKey" = type { %"class.node::MemoryRetainer", %"class.std::unique_ptr", %"class.std::shared_ptr" }
%"class.node::MemoryRetainer" = type { ptr }
%"class.std::unique_ptr" = type { %"struct.std::__uniq_ptr_data" }
%"struct.std::__uniq_ptr_data" = type { %"class.std::__uniq_ptr_impl" }
%"class.std::__uniq_ptr_impl" = type { %"class.std::tuple" }
%"class.std::tuple" = type { %"struct.std::_Tuple_impl" }
%"struct.std::_Tuple_impl" = type { %"struct.std::_Head_base.1" }
%"struct.std::_Head_base.1" = type { ptr }
%"class.std::shared_ptr" = type { %"class.std::__shared_ptr" }
%"class.std::__shared_ptr" = type { ptr, %"class.std::__shared_count" }
%"class.std::__shared_count" = type { ptr }
%"class.std::allocator.484" = type { i8 }
%"struct.std::_Sp_alloc_shared_tag" = type { ptr }
%"class.node::MutexBase<node::LibuvMutexTraits>::ScopedLock" = type { ptr }
%"class.node::MutexBase" = type { %union.pthread_mutex_t }
%union.pthread_mutex_t = type { %struct.__pthread_mutex_s }
%struct.__pthread_mutex_s = type { i32, i32, i32, i32, i32, i16, i16, %struct.__pthread_internal_list }
%struct.__pthread_internal_list = type { ptr, ptr }
%"class.v8::Local.10" = type { %"class.v8::LocalBase.11" }
%"class.v8::LocalBase.11" = type { %"class.v8::IndirectHandleBase" }
%"class.v8::IndirectHandleBase" = type { ptr }
%"class.v8::Local" = type { %"class.v8::LocalBase" }
%"class.v8::LocalBase" = type { %"class.v8::IndirectHandleBase" }
%"class.v8::Maybe" = type { i8, i8 }
%"class.std::shared_ptr.7" = type { %"class.std::__shared_ptr.8" }
%"class.std::__shared_ptr.8" = type { ptr, %"class.std::__shared_count" }
%"class.node::crypto::KeyObjectData" = type { %"class.node::MemoryRetainer", i32, %"class.node::crypto::ByteSource", %"class.node::crypto::ManagedEVPPKey" }
%"class.node::crypto::ByteSource" = type { ptr, ptr, i64 }
%"class.v8::Local.313" = type { %"class.v8::LocalBase.314" }
%"class.v8::LocalBase.314" = type { %"class.v8::IndirectHandleBase" }
%"class.v8::MaybeLocal.291" = type { %"class.v8::Local" }
%"class.v8::Local.304" = type { %"class.v8::LocalBase.305" }
%"class.v8::LocalBase.305" = type { %"class.v8::IndirectHandleBase" }
%"class.v8::Maybe.441" = type { i8 }
%"class.v8::MaybeLocal" = type { %"class.v8::Local.10" }
%"struct.node::crypto::AsymmetricKeyEncodingConfig" = type { i8, i32, %"class.v8::Maybe.12" }
%"class.v8::Maybe.12" = type { i8, i32 }
%"class.v8::Local.297" = type { %"class.v8::LocalBase.298" }
%"class.v8::LocalBase.298" = type { %"class.v8::IndirectHandleBase" }
%"class.v8::Local.295" = type { %"class.v8::LocalBase.296" }
%"class.v8::LocalBase.296" = type { %"class.v8::IndirectHandleBase" }
%"class.node::crypto::KeyObjectHandle" = type { %"class.node::BaseObject", %"class.std::shared_ptr.7" }
%"class.node::BaseObject" = type { %"class.node::MemoryRetainer", %"class.v8::Global.293", ptr, ptr }
%"class.v8::Global.293" = type { %"class.v8::PersistentBase.294" }
%"class.v8::PersistentBase.294" = type { %"class.v8::IndirectHandleBase" }
%"class.node::Environment" = type { %"class.node::MemoryRetainer", %"class.std::unordered_multimap", %"class.std::__cxx11::list", ptr, ptr, %struct.uv_timer_s, %struct.uv_check_s, %struct.uv_idle_s, %struct.uv_prepare_s, %struct.uv_check_s, %struct.uv_async_s, i64, %"struct.std::atomic", %"struct.std::atomic", %"class.node::AsyncHooks", %"class.node::ImmediateInfo", %"class.node::AliasedBufferBase.49", %"class.node::TickInfo", %"class.node::permission::Permission", i64, %"class.std::shared_ptr.75", i8, i8, i8, i8, i8, i8, i64, %"class.std::vector.78", %"class.std::unordered_set", %"class.std::unique_ptr.102", %"class.std::unique_ptr.110", %"class.std::__cxx11::basic_string", %"class.std::__cxx11::basic_string", %"class.std::__cxx11::basic_string", i64, %"class.std::unique_ptr.122", %"class.std::__cxx11::basic_string", %"class.std::__cxx11::basic_string", i64, %"class.std::shared_ptr.130", %"class.std::shared_ptr.133", %"class.std::vector.136", %"class.std::vector.136", %"class.std::__cxx11::basic_string", i8, i32, i32, i8, i32, i32, i32, i32, %"class.node::AliasedBufferBase.49", %"class.node::AliasedBufferBase.39", i32, %"class.std::unique_ptr.141", %"class.node::AliasedBufferBase.49", i64, double, i64, %"class.std::unique_ptr.149", i8, i64, i64, %"class.std::unordered_set.157", %"class.std::unique_ptr.177", i8, %"class.std::__cxx11::list.185", %"class.node::ListHead", %"class.node::ListHead.190", %"class.std::__cxx11::list.192", i32, i32, %"class.node::EnabledDebugList", %"class.std::vector.197", %"class.std::__cxx11::list.202", %"class.node::MutexBase", %"class.std::__cxx11::list.207", %"class.node::CallbackQueue", %"class.node::MutexBase", %"class.node::CallbackQueue", %"class.node::CallbackQueue", i8, %"struct.std::atomic.222", %"class.node::CleanupQueue", i8, %"class.std::unordered_set.240", %"class.std::function", %"class.std::unique_ptr.255", %"class.node::builtins::BuiltinLoader", %"class.std::function.269", %"class.std::unordered_map.271" }
%"class.std::unordered_multimap" = type { %"class.std::_Hashtable.13" }
%"class.std::_Hashtable.13" = type { ptr, i64, %"struct.std::__detail::_Hash_node_base", i64, %"struct.std::__detail::_Prime_rehash_policy", ptr }
%"struct.std::__detail::_Hash_node_base" = type { ptr }
%"struct.std::__detail::_Prime_rehash_policy" = type { float, i64 }
%"class.std::__cxx11::list" = type { %"class.std::__cxx11::_List_base" }
%"class.std::__cxx11::_List_base" = type { %"struct.std::__cxx11::_List_base<node::binding::DLib, std::allocator<node::binding::DLib>>::_List_impl" }
%"struct.std::__cxx11::_List_base<node::binding::DLib, std::allocator<node::binding::DLib>>::_List_impl" = type { %"struct.std::__detail::_List_node_header" }
%"struct.std::__detail::_List_node_header" = type { %"struct.std::__detail::_List_node_base", i64 }
%"struct.std::__detail::_List_node_base" = type { ptr, ptr }
%struct.uv_timer_s = type { ptr, ptr, i32, ptr, %struct.uv__queue, %union.anon, ptr, i32, ptr, [3 x ptr], i64, i64, i64 }
%struct.uv__queue = type { ptr, ptr }
%union.anon = type { [4 x ptr] }
%struct.uv_idle_s = type { ptr, ptr, i32, ptr, %struct.uv__queue, %union.anon.36, ptr, i32, ptr, %struct.uv__queue }
%union.anon.36 = type { [4 x ptr] }
%struct.uv_prepare_s = type { ptr, ptr, i32, ptr, %struct.uv__queue, %union.anon.37, ptr, i32, ptr, %struct.uv__queue }
%union.anon.37 = type { [4 x ptr] }
%struct.uv_check_s = type { ptr, ptr, i32, ptr, %struct.uv__queue, %union.anon.35, ptr, i32, ptr, %struct.uv__queue }
%union.anon.35 = type { [4 x ptr] }
%struct.uv_async_s = type { ptr, ptr, i32, ptr, %struct.uv__queue, %union.anon.38, ptr, i32, ptr, %struct.uv__queue, i32 }
%union.anon.38 = type { [4 x ptr] }
%"struct.std::atomic" = type { %"struct.std::__atomic_base" }
%"struct.std::__atomic_base" = type { i8 }
%"class.node::AsyncHooks" = type { %"class.node::MemoryRetainer", %"class.node::AliasedBufferBase", %"class.node::AliasedBufferBase.39", %"class.node::AliasedBufferBase", %"class.v8::Global.42", %"class.std::vector", ptr, %"struct.std::array" }
%"class.node::AliasedBufferBase" = type { %"class.node::MemoryRetainer", ptr, i64, i64, ptr, %"class.v8::Global", ptr }
%"class.v8::Global" = type { %"class.v8::PersistentBase" }
%"class.v8::PersistentBase" = type { %"class.v8::IndirectHandleBase" }
%"class.v8::Global.42" = type { %"class.v8::PersistentBase.43" }
%"class.v8::PersistentBase.43" = type { %"class.v8::IndirectHandleBase" }
%"class.std::vector" = type { %"struct.std::_Vector_base" }
%"struct.std::_Vector_base" = type { %"struct.std::_Vector_base<v8::Local<v8::Object>, std::allocator<v8::Local<v8::Object>>>::_Vector_impl" }
%"struct.std::_Vector_base<v8::Local<v8::Object>, std::allocator<v8::Local<v8::Object>>>::_Vector_impl" = type { %"struct.std::_Vector_base<v8::Local<v8::Object>, std::allocator<v8::Local<v8::Object>>>::_Vector_impl_data" }
%"struct.std::_Vector_base<v8::Local<v8::Object>, std::allocator<v8::Local<v8::Object>>>::_Vector_impl_data" = type { ptr, ptr, ptr }
%"struct.std::array" = type { [4 x %"class.v8::Global.47"] }
%"class.v8::Global.47" = type { %"class.v8::PersistentBase.48" }
%"class.v8::PersistentBase.48" = type { %"class.v8::IndirectHandleBase" }
%"class.node::ImmediateInfo" = type { %"class.node::MemoryRetainer", %"class.node::AliasedBufferBase.39" }
%"class.node::TickInfo" = type { %"class.node::MemoryRetainer", %"class.node::AliasedBufferBase.52" }
%"class.node::AliasedBufferBase.52" = type { %"class.node::MemoryRetainer", ptr, i64, i64, ptr, %"class.v8::Global.53", ptr }
%"class.v8::Global.53" = type { %"class.v8::PersistentBase.54" }
%"class.v8::PersistentBase.54" = type { %"class.v8::IndirectHandleBase" }
%"class.node::permission::Permission" = type <{ %"class.std::unordered_map.55", i8, [7 x i8] }>
%"class.std::unordered_map.55" = type { %"class.std::_Hashtable.56" }
%"class.std::_Hashtable.56" = type { ptr, i64, %"struct.std::__detail::_Hash_node_base", i64, %"struct.std::__detail::_Prime_rehash_policy", ptr }
%"class.std::shared_ptr.75" = type { %"class.std::__shared_ptr.76" }
%"class.std::__shared_ptr.76" = type { ptr, %"class.std::__shared_count" }
%"class.std::vector.78" = type { %"struct.std::_Vector_base.79" }
%"struct.std::_Vector_base.79" = type { %"struct.std::_Vector_base<double, std::allocator<double>>::_Vector_impl" }
%"struct.std::_Vector_base<double, std::allocator<double>>::_Vector_impl" = type { %"struct.std::_Vector_base<double, std::allocator<double>>::_Vector_impl_data" }
%"struct.std::_Vector_base<double, std::allocator<double>>::_Vector_impl_data" = type { ptr, ptr, ptr }
%"class.std::unordered_set" = type { %"class.std::_Hashtable.83" }
%"class.std::_Hashtable.83" = type { ptr, i64, %"struct.std::__detail::_Hash_node_base", i64, %"struct.std::__detail::_Prime_rehash_policy", ptr }
%"class.std::unique_ptr.102" = type { %"struct.std::__uniq_ptr_data.103" }
%"struct.std::__uniq_ptr_data.103" = type { %"class.std::__uniq_ptr_impl.104" }
%"class.std::__uniq_ptr_impl.104" = type { %"class.std::tuple.105" }
%"class.std::tuple.105" = type { %"struct.std::_Tuple_impl.106" }
%"struct.std::_Tuple_impl.106" = type { %"struct.std::_Head_base.109" }
%"struct.std::_Head_base.109" = type { ptr }
%"class.std::unique_ptr.110" = type { %"struct.std::__uniq_ptr_data.111" }
%"struct.std::__uniq_ptr_data.111" = type { %"class.std::__uniq_ptr_impl.112" }
%"class.std::__uniq_ptr_impl.112" = type { %"class.std::tuple.113" }
%"class.std::tuple.113" = type { %"struct.std::_Tuple_impl.114" }
%"struct.std::_Tuple_impl.114" = type { %"struct.std::_Head_base.117" }
%"struct.std::_Head_base.117" = type { ptr }
%"class.std::unique_ptr.122" = type { %"struct.std::__uniq_ptr_data.123" }
%"struct.std::__uniq_ptr_data.123" = type { %"class.std::__uniq_ptr_impl.124" }
%"class.std::__uniq_ptr_impl.124" = type { %"class.std::tuple.125" }
%"class.std::tuple.125" = type { %"struct.std::_Tuple_impl.126" }
%"struct.std::_Tuple_impl.126" = type { %"struct.std::_Head_base.129" }
%"struct.std::_Head_base.129" = type { ptr }
%"class.std::shared_ptr.130" = type { %"class.std::__shared_ptr.131" }
%"class.std::__shared_ptr.131" = type { ptr, %"class.std::__shared_count" }
%"class.std::shared_ptr.133" = type { %"class.std::__shared_ptr.134" }
%"class.std::__shared_ptr.134" = type { ptr, %"class.std::__shared_count" }
%"class.std::vector.136" = type { %"struct.std::_Vector_base.137" }
%"struct.std::_Vector_base.137" = type { %"struct.std::_Vector_base<std::__cxx11::basic_string<char>, std::allocator<std::__cxx11::basic_string<char>>>::_Vector_impl" }
%"struct.std::_Vector_base<std::__cxx11::basic_string<char>, std::allocator<std::__cxx11::basic_string<char>>>::_Vector_impl" = type { %"struct.std::_Vector_base<std::__cxx11::basic_string<char>, std::allocator<std::__cxx11::basic_string<char>>>::_Vector_impl_data" }
%"struct.std::_Vector_base<std::__cxx11::basic_string<char>, std::allocator<std::__cxx11::basic_string<char>>>::_Vector_impl_data" = type { ptr, ptr, ptr }
%"class.std::__cxx11::basic_string" = type { %"struct.std::__cxx11::basic_string<char>::_Alloc_hider", i64, %union.anon.121 }
%"struct.std::__cxx11::basic_string<char>::_Alloc_hider" = type { ptr }
%union.anon.121 = type { i64, [8 x i8] }
%"class.node::AliasedBufferBase.39" = type { %"class.node::MemoryRetainer", ptr, i64, i64, ptr, %"class.v8::Global.40", ptr }
%"class.v8::Global.40" = type { %"class.v8::PersistentBase.41" }
%"class.v8::PersistentBase.41" = type { %"class.v8::IndirectHandleBase" }
%"class.std::unique_ptr.141" = type { %"struct.std::__uniq_ptr_data.142" }
%"struct.std::__uniq_ptr_data.142" = type { %"class.std::__uniq_ptr_impl.143" }
%"class.std::__uniq_ptr_impl.143" = type { %"class.std::tuple.144" }
%"class.std::tuple.144" = type { %"struct.std::_Tuple_impl.145" }
%"struct.std::_Tuple_impl.145" = type { %"struct.std::_Head_base.148" }
%"struct.std::_Head_base.148" = type { ptr }
%"class.node::AliasedBufferBase.49" = type { %"class.node::MemoryRetainer", ptr, i64, i64, ptr, %"class.v8::Global.50", ptr }
%"class.v8::Global.50" = type { %"class.v8::PersistentBase.51" }
%"class.v8::PersistentBase.51" = type { %"class.v8::IndirectHandleBase" }
%"class.std::unique_ptr.149" = type { %"struct.std::__uniq_ptr_data.150" }
%"struct.std::__uniq_ptr_data.150" = type { %"class.std::__uniq_ptr_impl.151" }
%"class.std::__uniq_ptr_impl.151" = type { %"class.std::tuple.152" }
%"class.std::tuple.152" = type { %"struct.std::_Tuple_impl.153" }
%"struct.std::_Tuple_impl.153" = type { %"struct.std::_Head_base.156" }
%"struct.std::_Head_base.156" = type { ptr }
%"class.std::unordered_set.157" = type { %"class.std::_Hashtable.158" }
%"class.std::_Hashtable.158" = type { ptr, i64, %"struct.std::__detail::_Hash_node_base", i64, %"struct.std::__detail::_Prime_rehash_policy", ptr }
%"class.std::unique_ptr.177" = type { %"struct.std::__uniq_ptr_data.178" }
%"struct.std::__uniq_ptr_data.178" = type { %"class.std::__uniq_ptr_impl.179" }
%"class.std::__uniq_ptr_impl.179" = type { %"class.std::tuple.180" }
%"class.std::tuple.180" = type { %"struct.std::_Tuple_impl.181" }
%"struct.std::_Tuple_impl.181" = type { %"struct.std::_Head_base.184" }
%"struct.std::_Head_base.184" = type { ptr }
%"class.std::__cxx11::list.185" = type { %"class.std::__cxx11::_List_base.186" }
%"class.std::__cxx11::_List_base.186" = type { %"struct.std::__cxx11::_List_base<node::DeserializeRequest, std::allocator<node::DeserializeRequest>>::_List_impl" }
%"struct.std::__cxx11::_List_base<node::DeserializeRequest, std::allocator<node::DeserializeRequest>>::_List_impl" = type { %"struct.std::__detail::_List_node_header" }
%"class.node::ListHead" = type { %"class.node::ListNode" }
%"class.node::ListNode" = type { ptr, ptr }
%"class.node::ListHead.190" = type { %"class.node::ListNode.191" }
%"class.node::ListNode.191" = type { ptr, ptr }
%"class.std::__cxx11::list.192" = type { %"class.std::__cxx11::_List_base.193" }
%"class.std::__cxx11::_List_base.193" = type { %"struct.std::__cxx11::_List_base<node::Environment::HandleCleanup, std::allocator<node::Environment::HandleCleanup>>::_List_impl" }
%"struct.std::__cxx11::_List_base<node::Environment::HandleCleanup, std::allocator<node::Environment::HandleCleanup>>::_List_impl" = type { %"struct.std::__detail::_List_node_header" }
%"class.node::EnabledDebugList" = type { [75 x i8] }
%"class.std::vector.197" = type { %"struct.std::_Vector_base.198" }
%"struct.std::_Vector_base.198" = type { %"struct.std::_Vector_base<v8::Global<v8::Context>, std::allocator<v8::Global<v8::Context>>>::_Vector_impl" }
%"struct.std::_Vector_base<v8::Global<v8::Context>, std::allocator<v8::Global<v8::Context>>>::_Vector_impl" = type { %"struct.std::_Vector_base<v8::Global<v8::Context>, std::allocator<v8::Global<v8::Context>>>::_Vector_impl_data" }
%"struct.std::_Vector_base<v8::Global<v8::Context>, std::allocator<v8::Global<v8::Context>>>::_Vector_impl_data" = type { ptr, ptr, ptr }
%"class.std::__cxx11::list.202" = type { %"class.std::__cxx11::_List_base.203" }
%"class.std::__cxx11::_List_base.203" = type { %"struct.std::__cxx11::_List_base<node::node_module, std::allocator<node::node_module>>::_List_impl" }
%"struct.std::__cxx11::_List_base<node::node_module, std::allocator<node::node_module>>::_List_impl" = type { %"struct.std::__detail::_List_node_header" }
%"class.std::__cxx11::list.207" = type { %"class.std::__cxx11::_List_base.208" }
%"class.std::__cxx11::_List_base.208" = type { %"struct.std::__cxx11::_List_base<node::Environment::ExitCallback, std::allocator<node::Environment::ExitCallback>>::_List_impl" }
%"struct.std::__cxx11::_List_base<node::Environment::ExitCallback, std::allocator<node::Environment::ExitCallback>>::_List_impl" = type { %"struct.std::__detail::_List_node_header" }
%"class.node::CallbackQueue" = type { %"struct.std::atomic.212", %"class.std::unique_ptr.214", ptr }
%"struct.std::atomic.212" = type { %"struct.std::__atomic_base.213" }
%"struct.std::__atomic_base.213" = type { i64 }
%"class.std::unique_ptr.214" = type { %"struct.std::__uniq_ptr_data.215" }
%"struct.std::__uniq_ptr_data.215" = type { %"class.std::__uniq_ptr_impl.216" }
%"class.std::__uniq_ptr_impl.216" = type { %"class.std::tuple.217" }
%"class.std::tuple.217" = type { %"struct.std::_Tuple_impl.218" }
%"struct.std::_Tuple_impl.218" = type { %"struct.std::_Head_base.221" }
%"struct.std::_Head_base.221" = type { ptr }
%"struct.std::atomic.222" = type { %"struct.std::__atomic_base.223" }
%"struct.std::__atomic_base.223" = type { ptr }
%"class.node::CleanupQueue" = type { %"class.node::MemoryRetainer", %"class.std::unordered_set.224", i64 }
%"class.std::unordered_set.224" = type { %"class.std::_Hashtable.225" }
%"class.std::_Hashtable.225" = type { ptr, i64, %"struct.std::__detail::_Hash_node_base", i64, %"struct.std::__detail::_Prime_rehash_policy", ptr }
%"class.std::unordered_set.240" = type { %"class.std::_Hashtable.241" }
%"class.std::_Hashtable.241" = type { ptr, i64, %"struct.std::__detail::_Hash_node_base", i64, %"struct.std::__detail::_Prime_rehash_policy", ptr }
%"class.std::function" = type { %"class.std::_Function_base", ptr }
%"class.std::_Function_base" = type { %"union.std::_Any_data", ptr }
%"union.std::_Any_data" = type { %"union.std::_Nocopy_types" }
%"union.std::_Nocopy_types" = type { { i64, i64 } }
%"class.std::unique_ptr.255" = type { %"struct.std::__uniq_ptr_data.256" }
%"struct.std::__uniq_ptr_data.256" = type { %"class.std::__uniq_ptr_impl.257" }
%"class.std::__uniq_ptr_impl.257" = type { %"class.std::tuple.258" }
%"class.std::tuple.258" = type { %"struct.std::_Tuple_impl.259" }
%"struct.std::_Tuple_impl.259" = type { %"struct.std::_Head_base.262" }
%"struct.std::_Head_base.262" = type { ptr }
%"class.node::builtins::BuiltinLoader" = type { %"class.node::ThreadsafeCopyOnWrite", %"class.node::UnionBytes", %"class.std::shared_ptr.266" }
%"class.node::ThreadsafeCopyOnWrite" = type { %"class.node::CopyOnWrite" }
%"class.node::CopyOnWrite" = type { %"class.std::shared_ptr.263" }
%"class.std::shared_ptr.263" = type { %"class.std::__shared_ptr.264" }
%"class.std::__shared_ptr.264" = type { ptr, %"class.std::__shared_count" }
%"class.node::UnionBytes" = type { ptr, ptr }
%"class.std::shared_ptr.266" = type { %"class.std::__shared_ptr.267" }
%"class.std::__shared_ptr.267" = type { ptr, %"class.std::__shared_count" }
%"class.std::function.269" = type { %"class.std::_Function_base", ptr }
%"class.std::unordered_map.271" = type { %"class.std::_Hashtable.272" }
%"class.std::_Hashtable.272" = type { ptr, i64, %"struct.std::__detail::_Hash_node_base", i64, %"struct.std::__detail::_Prime_rehash_policy", ptr }
%"class.std::unique_ptr.363" = type { %"struct.std::__uniq_ptr_data.364" }
%"struct.std::__uniq_ptr_data.364" = type { %"class.std::__uniq_ptr_impl.365" }
%"class.std::__uniq_ptr_impl.365" = type { %"class.std::tuple.366" }
%"class.std::tuple.366" = type { %"struct.std::_Tuple_impl.367" }
%"struct.std::_Tuple_impl.367" = type { %"struct.std::_Head_base.370" }
%"struct.std::_Head_base.370" = type { ptr }
%"struct.node::crypto::MarkPopErrorOnReturn" = type { i8 }
%"class.std::unique_ptr.442" = type { %"struct.std::__uniq_ptr_data.443" }
%"struct.std::__uniq_ptr_data.443" = type { %"class.std::__uniq_ptr_impl.444" }
%"class.std::__uniq_ptr_impl.444" = type { %"class.std::tuple.445" }
%"class.std::tuple.445" = type { %"struct.std::_Tuple_impl.446" }
%"struct.std::_Tuple_impl.446" = type { %"struct.std::_Head_base.449" }
%"struct.std::_Head_base.449" = type { ptr }
%"class.std::unique_ptr.315" = type { %"struct.std::__uniq_ptr_data.316" }
%"struct.std::__uniq_ptr_data.316" = type { %"class.std::__uniq_ptr_impl.317" }
%"class.std::__uniq_ptr_impl.317" = type { %"class.std::tuple.318" }
%"class.std::tuple.318" = type { %"struct.std::_Tuple_impl.319" }
%"struct.std::_Tuple_impl.319" = type { %"struct.std::_Head_base.322" }
%"struct.std::_Head_base.322" = type { ptr }
%"struct.node::crypto::PrivateKeyEncodingConfig" = type { %"struct.node::crypto::AsymmetricKeyEncodingConfig", ptr, %"class.node::NonCopyableMaybe" }
%"class.node::NonCopyableMaybe" = type { i8, %"class.node::crypto::ByteSource" }
%"class.node::NonCopyableMaybe.292" = type { i8, %"struct.node::crypto::PrivateKeyEncodingConfig" }
%"class.v8::LocalBase.335" = type { %"class.v8::IndirectHandleBase" }
%"class.v8::Local.334" = type { %"class.v8::LocalBase.335" }
%"class.node::Utf8Value" = type { %"class.node::MaybeStackBuffer" }
%"class.node::MaybeStackBuffer" = type { i64, i64, ptr, [1024 x i8] }
%"class.node::crypto::ArrayBufferOrViewContents" = type { i8, i64, i64, ptr }
%"class.v8::FunctionCallbackInfo" = type <{ ptr, ptr, i32, [4 x i8] }>
%"class.v8::Local.332" = type { %"class.v8::LocalBase.333" }
%"class.v8::LocalBase.333" = type { %"class.v8::IndirectHandleBase" }
%"class.v8::Local.495" = type { %"class.v8::LocalBase.496" }
%"class.v8::LocalBase.496" = type { %"class.v8::IndirectHandleBase" }
%"class.v8::Local.493" = type { %"class.v8::LocalBase.494" }
%"class.v8::LocalBase.494" = type { %"class.v8::IndirectHandleBase" }
%"class.v8::Local.491" = type { %"class.v8::LocalBase.492" }
%"class.v8::LocalBase.492" = type { %"class.v8::IndirectHandleBase" }
%"class.node::crypto::ByteSource::Builder" = type { ptr, i64 }
%"class.std::optional.497" = type { %"struct.std::_Optional_base.498" }
%"struct.std::_Optional_base.498" = type { %"struct.std::_Optional_payload.500" }
%"struct.std::_Optional_payload.500" = type { %"struct.std::_Optional_payload_base.base.502", [7 x i8] }
%"struct.std::_Optional_payload_base.base.502" = type <{ %"union.std::_Optional_payload_base<unsigned long>::_Storage", i8 }>
%"union.std::_Optional_payload_base<unsigned long>::_Storage" = type { i64 }
%"class.std::unique_ptr.371" = type { %"struct.std::__uniq_ptr_data.372" }
%"struct.std::__uniq_ptr_data.372" = type { %"class.std::__uniq_ptr_impl.373" }
%"class.std::__uniq_ptr_impl.373" = type { %"class.std::tuple.374" }
%"class.std::tuple.374" = type { %"struct.std::_Tuple_impl.375" }
%"struct.std::_Tuple_impl.375" = type { %"struct.std::_Head_base.378" }
%"struct.std::_Head_base.378" = type { ptr }
%"class.std::function.451" = type { %"class.std::_Function_base", ptr }
%class.anon = type { i8 }
%class.anon.454 = type { i8 }
%class.anon.456 = type { i8 }
%"class.v8::Local.299" = type { %"class.v8::LocalBase.300" }
%"class.v8::LocalBase.300" = type { %"class.v8::IndirectHandleBase" }
%"class.v8::Local.301" = type { %"class.v8::LocalBase.302" }
%"class.v8::LocalBase.302" = type { %"class.v8::IndirectHandleBase" }
%"class.std::basic_string_view" = type { i64, ptr }
%"class.v8::MaybeLocal.303" = type { %"class.v8::Local.297" }
%"class.v8::Local.311" = type { %"class.v8::LocalBase.312" }
%"class.v8::LocalBase.312" = type { %"class.v8::IndirectHandleBase" }
%"class.v8::Local.506" = type { %"class.v8::LocalBase.507" }
%"class.v8::LocalBase.507" = type { %"class.v8::IndirectHandleBase" }
%"class.v8::ReturnValue" = type { ptr }
%"class.std::unique_ptr.323" = type { %"struct.std::__uniq_ptr_data.324" }
%"struct.std::__uniq_ptr_data.324" = type { %"class.std::__uniq_ptr_impl.325" }
%"class.std::__uniq_ptr_impl.325" = type { %"class.std::tuple.326" }
%"class.std::tuple.326" = type { %"struct.std::_Tuple_impl.327" }
%"struct.std::_Tuple_impl.327" = type { %"struct.std::_Head_base.330" }
%"struct.std::_Head_base.330" = type { ptr }
%"class.node::crypto::ArrayBufferOrViewContents.331" = type { i8, i64, i64, ptr }
%"class.v8::Local.380" = type { %"class.v8::LocalBase.381" }
%"class.v8::LocalBase.381" = type { %"class.v8::IndirectHandleBase" }
%"class.std::unique_ptr.336" = type { %"struct.std::__uniq_ptr_data.337" }
%"struct.std::__uniq_ptr_data.337" = type { %"class.std::__uniq_ptr_impl.338" }
%"class.std::__uniq_ptr_impl.338" = type { %"class.std::tuple.339" }
%"class.std::tuple.339" = type { %"struct.std::_Tuple_impl.340" }
%"struct.std::_Tuple_impl.340" = type { %"struct.std::_Head_base.343" }
%"struct.std::_Head_base.343" = type { ptr }
%"class.v8::Local.344" = type { %"class.v8::LocalBase.345" }
%"class.v8::LocalBase.345" = type { %"class.v8::IndirectHandleBase" }
%"class.node::crypto::NativeKeyObject" = type { %"class.node::BaseObject", %"class.std::shared_ptr.7" }
%"class.node::BaseObjectPtrImpl" = type { %union.anon.346 }
%union.anon.346 = type { ptr }
%"class.node::crypto::NativeKeyObject::KeyObjectTransferData" = type { %"class.node::worker::TransferData", %"class.std::shared_ptr.7" }
%"class.node::worker::TransferData" = type { %"class.node::MemoryRetainer" }
%"class.std::unique_ptr.347" = type { %"struct.std::__uniq_ptr_data.348" }
%"struct.std::__uniq_ptr_data.348" = type { %"class.std::__uniq_ptr_impl.349" }
%"class.std::__uniq_ptr_impl.349" = type { %"class.std::tuple.350" }
%"class.std::tuple.350" = type { %"struct.std::_Tuple_impl.351" }
%"struct.std::_Tuple_impl.351" = type { %"struct.std::_Head_base.354" }
%"struct.std::_Head_base.354" = type { ptr }
%"class.std::unique_ptr.355" = type { %"struct.std::__uniq_ptr_data.356" }
%"struct.std::__uniq_ptr_data.356" = type { %"class.std::__uniq_ptr_impl.357" }
%"class.std::__uniq_ptr_impl.357" = type { %"class.std::tuple.358" }
%"class.std::tuple.358" = type { %"struct.std::_Tuple_impl.359" }
%"struct.std::_Tuple_impl.359" = type { %"struct.std::_Head_base.362" }
%"struct.std::_Head_base.362" = type { ptr }
%"class.v8::MaybeLocal.379" = type { %"class.v8::Local.313" }
%"class.v8::Local.382" = type { %"class.v8::LocalBase.383" }
%"class.v8::LocalBase.383" = type { %"class.v8::IndirectHandleBase" }
%"class.std::_Sp_counted_base" = type { ptr, i32, i32 }
%"class.std::unique_ptr.384" = type { %"struct.std::__uniq_ptr_data.385" }
%"struct.std::__uniq_ptr_data.385" = type { %"class.std::__uniq_ptr_impl.386" }
%"class.std::__uniq_ptr_impl.386" = type { %"class.std::tuple.387" }
%"class.std::tuple.387" = type { %"struct.std::_Tuple_impl.388" }
%"struct.std::_Tuple_impl.388" = type { %"struct.std::_Head_base.391" }
%"struct.std::_Head_base.391" = type { ptr }
%"class.node::MemoryTracker" = type { ptr, ptr, %"class.std::stack", %"class.std::unordered_map" }
%"class.std::stack" = type { %"class.std::deque" }
%"class.std::deque" = type { %"class.std::_Deque_base" }
%"class.std::_Deque_base" = type { %"struct.std::_Deque_base<node::MemoryRetainerNode *, std::allocator<node::MemoryRetainerNode *>>::_Deque_impl" }
%"struct.std::_Deque_base<node::MemoryRetainerNode *, std::allocator<node::MemoryRetainerNode *>>::_Deque_impl" = type { %"struct.std::_Deque_base<node::MemoryRetainerNode *, std::allocator<node::MemoryRetainerNode *>>::_Deque_impl_data" }
%"struct.std::_Deque_base<node::MemoryRetainerNode *, std::allocator<node::MemoryRetainerNode *>>::_Deque_impl_data" = type { ptr, i64, %"struct.std::_Deque_iterator", %"struct.std::_Deque_iterator" }
%"struct.std::_Deque_iterator" = type { ptr, ptr, ptr, ptr }
%"class.std::unordered_map" = type { %"class.std::_Hashtable" }
%"class.std::_Hashtable" = type { ptr, i64, %"struct.std::__detail::_Hash_node_base", i64, %"struct.std::__detail::_Prime_rehash_policy", ptr }
%"class.node::MemoryRetainerNode" = type <{ %"class.v8::EmbedderGraph::Node", ptr, ptr, i8, [7 x i8], ptr, i64, i8, [7 x i8] }>
%"class.v8::EmbedderGraph::Node" = type { ptr }
%"struct.std::_Deque_iterator.392" = type { ptr, ptr, ptr, ptr }
%"class.node::IsolateData" = type { %"class.node::MemoryRetainer", i64, %"class.std::unordered_map.393", %"class.v8::Eternal", %"class.v8::Eternal", %"class.v8::Eternal", %"class.v8::Eternal", %"class.v8::Eternal", %"class.v8::Eternal", %"class.v8::Eternal", %"class.v8::Eternal", %"class.v8::Eternal", %"class.v8::Eternal", %"class.v8::Eternal", %"class.v8::Eternal", %"class.v8::Eternal.413", %"class.v8::Eternal.413", %"class.v8::Eternal.413", %"class.v8::Eternal.413", %"class.v8::Eternal.413", %"class.v8::Eternal.413", %"class.v8::Eternal.413", %"class.v8::Eternal.413", %"class.v8::Eternal.413", %"class.v8::Eternal.413", %"class.v8::Eternal.413", %"class.v8::Eternal.413", %"class.v8::Eternal.413", %"class.v8::Eternal.413", %"class.v8::Eternal.413", %"class.v8::Eternal.414", %"class.v8::Eternal.414", %"class.v8::Eternal.414", %"class.v8::Eternal.414", %"class.v8::Eternal.414", %"class.v8::Eternal.414", %"class.v8::Eternal.414", %"class.v8::Eternal.414", %"class.v8::Eternal.414", %"class.v8::Eternal.414", %"class.v8::Eternal.414", %"class.v8::Eternal.414", %"class.v8::Eternal.414", %"class.v8::Eternal.414", %"class.v8::Eternal.414", %"class.v8::Eternal.414", %"class.v8::Eternal.414", %"class.v8::Eternal.414", %"class.v8::Eternal.414", %"class.v8::Eternal.414", %"class.v8::Eternal.414", %"class.v8::Eternal.414", %"class.v8::Eternal.414", %"class.v8::Eternal.414", %"class.v8::Eternal.414", %"class.v8::Eternal.414", %"class.v8::Eternal.414", %"class.v8::Eternal.414", %"class.v8::Eternal.414", %"class.v8::Eternal.414", %"class.v8::Eternal.414", %"class.v8::Eternal.414", %"class.v8::Eternal.414", %"class.v8::Eternal.414", %"class.v8::Eternal.414", %"class.v8::Eternal.414", %"class.v8::Eternal.414", %"class.v8::Eternal.414", %"class.v8::Eternal.414", %"class.v8::Eternal.414", %"class.v8::Eternal.414", %"class.v8::Eternal.414", %"class.v8::Eternal.414", %"class.v8::Eternal.414", %"class.v8::Eternal.414", %"class.v8::Eternal.414", %"class.v8::Eternal.414", %"class.v8::Eternal.414", %"class.v8::Eternal.414", %"class.v8::Eternal.414", %"class.v8::Eternal.414", %"class.v8::Eternal.414", %"class.v8::Eternal.414", %"class.v8::Eternal.414", %"class.v8::Eternal.414", %"class.v8::Eternal.414", %"class.v8::Eternal.414", %"class.v8::Eternal.414", %"class.v8::Eternal.414", %"class.v8::Eternal.414", %"class.v8::Eternal.414", %"class.v8::Eternal.414", %"class.v8::Eternal.414", %"class.v8::Eternal.414", %"class.v8::Eternal.414", %"class.v8::Eternal.414", %"class.v8::Eternal.414", %"class.v8::Eternal.414", %"class.v8::Eternal.414", %"class.v8::Eternal.414", %"class.v8::Eternal.414", %"class.v8::Eternal.414", %"class.v8::Eternal.414", %"class.v8::Eternal.414", %"class.v8::Eternal.414", %"class.v8::Eternal.414", %"class.v8::Eternal.414", %"class.v8::Eternal.414", %"class.v8::Eternal.414", %"class.v8::Eternal.414", %"class.v8::Eternal.414", %"class.v8::Eternal.414", %"class.v8::Eternal.414", %"class.v8::Eternal.414", %"class.v8::Eternal.414", %"class.v8::Eternal.414", %"class.v8::Eternal.414", %"class.v8::Eternal.414", %"class.v8::Eternal.414", %"class.v8::Eternal.414", %"class.v8::Eternal.414", %"class.v8::Eternal.414", %"class.v8::Eternal.414", %"class.v8::Eternal.414", %"class.v8::Eternal.414", %"class.v8::Eternal.414", %"class.v8::Eternal.414", %"class.v8::Eternal.414", %"class.v8::Eternal.414", %"class.v8::Eternal.414", %"class.v8::Eternal.414", %"class.v8::Eternal.414", %"class.v8::Eternal.414", %"class.v8::Eternal.414", %"class.v8::Eternal.414", %"class.v8::Eternal.414", %"class.v8::Eternal.414", %"class.v8::Eternal.414", %"class.v8::Eternal.414", %"class.v8::Eternal.414", %"class.v8::Eternal.414", %"class.v8::Eternal.414", %"class.v8::Eternal.414", %"class.v8::Eternal.414", %"class.v8::Eternal.414", %"class.v8::Eternal.414", %"class.v8::Eternal.414", %"class.v8::Eternal.414", %"class.v8::Eternal.414", %"class.v8::Eternal.414", %"class.v8::Eternal.414", %"class.v8::Eternal.414", %"class.v8::Eternal.414", %"class.v8::Eternal.414", %"class.v8::Eternal.414", %"class.v8::Eternal.414", %"class.v8::Eternal.414", %"class.v8::Eternal.414", %"class.v8::Eternal.414", %"class.v8::Eternal.414", %"class.v8::Eternal.414", %"class.v8::Eternal.414", %"class.v8::Eternal.414", %"class.v8::Eternal.414", %"class.v8::Eternal.414", %"class.v8::Eternal.414", %"class.v8::Eternal.414", %"class.v8::Eternal.414", %"class.v8::Eternal.414", %"class.v8::Eternal.414", %"class.v8::Eternal.414", %"class.v8::Eternal.414", %"class.v8::Eternal.414", %"class.v8::Eternal.414", %"class.v8::Eternal.414", %"class.v8::Eternal.414", %"class.v8::Eternal.414", %"class.v8::Eternal.414", %"class.v8::Eternal.414", %"class.v8::Eternal.414", %"class.v8::Eternal.414", %"class.v8::Eternal.414", %"class.v8::Eternal.414", %"class.v8::Eternal.414", %"class.v8::Eternal.414", %"class.v8::Eternal.414", %"class.v8::Eternal.414", %"class.v8::Eternal.414", %"class.v8::Eternal.414", %"class.v8::Eternal.414", %"class.v8::Eternal.414", %"class.v8::Eternal.414", %"class.v8::Eternal.414", %"class.v8::Eternal.414", %"class.v8::Eternal.414", %"class.v8::Eternal.414", %"class.v8::Eternal.414", %"class.v8::Eternal.414", %"class.v8::Eternal.414", %"class.v8::Eternal.414", %"class.v8::Eternal.414", %"class.v8::Eternal.414", %"class.v8::Eternal.414", %"class.v8::Eternal.414", %"class.v8::Eternal.414", %"class.v8::Eternal.414", %"class.v8::Eternal.414", %"class.v8::Eternal.414", %"class.v8::Eternal.414", %"class.v8::Eternal.414", %"class.v8::Eternal.414", %"class.v8::Eternal.414", %"class.v8::Eternal.414", %"class.v8::Eternal.414", %"class.v8::Eternal.414", %"class.v8::Eternal.414", %"class.v8::Eternal.414", %"class.v8::Eternal.414", %"class.v8::Eternal.414", %"class.v8::Eternal.414", %"class.v8::Eternal.414", %"class.v8::Eternal.414", %"class.v8::Eternal.414", %"class.v8::Eternal.414", %"class.v8::Eternal.414", %"class.v8::Eternal.414", %"class.v8::Eternal.414", %"class.v8::Eternal.414", %"class.v8::Eternal.414", %"class.v8::Eternal.414", %"class.v8::Eternal.414", %"class.v8::Eternal.414", %"class.v8::Eternal.414", %"class.v8::Eternal.414", %"class.v8::Eternal.414", %"class.v8::Eternal.414", %"class.v8::Eternal.414", %"class.v8::Eternal.414", %"class.v8::Eternal.414", %"class.v8::Eternal.414", %"class.v8::Eternal.414", %"class.v8::Eternal.414", %"class.v8::Eternal.414", %"class.v8::Eternal.414", %"class.v8::Eternal.414", %"class.v8::Eternal.414", %"class.v8::Eternal.414", %"class.v8::Eternal.414", %"class.v8::Eternal.414", %"class.v8::Eternal.414", %"class.v8::Eternal.414", %"class.v8::Eternal.414", %"class.v8::Eternal.414", %"class.v8::Eternal.414", %"class.v8::Eternal.414", %"class.v8::Eternal.414", %"class.v8::Eternal.414", %"class.v8::Eternal.414", %"class.v8::Eternal.414", %"class.v8::Eternal.414", %"class.v8::Eternal.414", %"class.v8::Eternal.414", %"class.v8::Eternal.414", %"class.v8::Eternal.414", %"class.v8::Eternal.414", %"class.v8::Eternal.414", %"class.v8::Eternal.414", %"class.v8::Eternal.414", %"class.v8::Eternal.414", %"class.v8::Eternal.414", %"class.v8::Eternal.414", %"class.v8::Eternal.414", %"class.v8::Eternal.414", %"class.v8::Eternal.414", %"class.v8::Eternal.414", %"class.v8::Eternal.414", %"class.v8::Eternal.414", %"class.v8::Eternal.414", %"class.v8::Eternal.414", %"class.v8::Eternal.414", %"class.v8::Eternal.414", %"class.v8::Eternal.414", %"class.v8::Eternal.414", %"class.v8::Eternal.414", %"class.v8::Eternal.414", %"class.v8::Eternal.414", %"class.v8::Eternal.414", %"class.v8::Eternal.414", %"class.v8::Eternal.414", %"class.v8::Eternal.414", %"class.v8::Eternal.414", %"class.v8::Eternal.414", %"class.v8::Eternal.414", %"class.v8::Eternal.414", %"class.v8::Eternal.414", %"class.v8::Eternal.414", %"class.v8::Eternal.414", %"class.v8::Eternal.414", %"class.v8::Eternal.414", %"class.v8::Eternal.414", %"class.v8::Eternal.414", %"class.v8::Eternal.414", %"class.v8::Eternal.414", %"class.v8::Eternal.414", %"class.v8::Eternal.414", %"class.v8::Eternal.414", %"class.v8::Eternal.414", %"class.v8::Eternal.414", %"class.v8::Eternal.414", %"class.v8::Eternal.414", %"class.v8::Eternal.414", %"class.v8::Eternal.414", %"class.v8::Eternal.414", %"class.v8::Eternal.414", %"class.v8::Eternal.414", %"class.v8::Eternal.415", %"class.v8::Eternal.415", %"class.v8::Eternal.416", %"class.v8::Eternal.415", %"class.v8::Eternal.415", %"class.v8::Eternal.415", %"class.v8::Eternal.416", %"class.v8::Eternal.416", %"class.v8::Eternal.415", %"class.v8::Eternal.416", %"class.v8::Eternal.415", %"class.v8::Eternal.416", %"class.v8::Eternal.416", %"class.v8::Eternal.416", %"class.v8::Eternal.415", %"class.v8::Eternal.416", %"class.v8::Eternal.416", %"class.v8::Eternal.415", %"class.v8::Eternal.415", %"class.v8::Eternal.416", %"class.v8::Eternal.416", %"class.v8::Eternal.416", %"class.v8::Eternal.416", %"class.v8::Eternal.415", %"class.v8::Eternal.415", %"class.v8::Eternal.415", %"class.v8::Eternal.415", %"class.v8::Eternal.415", %"class.v8::Eternal.415", %"class.v8::Eternal.416", %"class.v8::Eternal.415", %"class.v8::Eternal.415", %"class.v8::Eternal.415", %"class.v8::Eternal.416", %"class.v8::Eternal.415", %"class.v8::Eternal.415", %"class.v8::Eternal.416", %"class.v8::Eternal.415", %"class.v8::Eternal.415", %"class.v8::Eternal.416", %"class.v8::Eternal.415", %"class.v8::Eternal.415", %"class.v8::Eternal.416", %"class.v8::Eternal.416", %"class.v8::Eternal.415", %"class.v8::Eternal", %"class.v8::Eternal", %"class.v8::Eternal", %"class.v8::Eternal", %"class.v8::Eternal", %"class.v8::Eternal", %"class.v8::Eternal", %"class.v8::Eternal", %"class.v8::Eternal", %"class.v8::Eternal", %"class.v8::Eternal", %"class.v8::Eternal", %"class.v8::Eternal", %"class.v8::Eternal", %"class.v8::Eternal", %"class.v8::Eternal", %"class.v8::Eternal", %"class.v8::Eternal", %"class.v8::Eternal", %"class.v8::Eternal", %"class.v8::Eternal", %"class.v8::Eternal", %"class.v8::Eternal", %"class.v8::Eternal", %"class.v8::Eternal", %"class.v8::Eternal", %"class.v8::Eternal", %"class.v8::Eternal", %"class.v8::Eternal", %"class.v8::Eternal", %"class.v8::Eternal", %"class.v8::Eternal", %"class.v8::Eternal", %"class.v8::Eternal", %"class.v8::Eternal", %"class.v8::Eternal", %"class.v8::Eternal", %"class.v8::Eternal", %"class.v8::Eternal", %"class.v8::Eternal", %"class.v8::Eternal", %"class.v8::Eternal", %"class.v8::Eternal", %"class.v8::Eternal", %"class.v8::Eternal", %"class.v8::Eternal", %"class.v8::Eternal", %"class.v8::Eternal", %"class.v8::Eternal", %"class.v8::Eternal", %"class.v8::Eternal", %"class.v8::Eternal", %"class.v8::Eternal", %"class.v8::Eternal", %"class.v8::Eternal", %"class.v8::Eternal", %"class.v8::Eternal", %"class.v8::Eternal", %"class.v8::Eternal", %"class.v8::Eternal", %"class.v8::Eternal.416", %"class.v8::Eternal.416", %"class.v8::Eternal.416", %"class.v8::Eternal.416", %"class.v8::Eternal.416", %"class.v8::Eternal.416", %"class.v8::Eternal.416", %"class.v8::Eternal.416", %"class.v8::Eternal.416", %"class.v8::Eternal.416", %"class.v8::Eternal.416", %"class.v8::Eternal.416", %"class.v8::Eternal.416", %"class.v8::Eternal.416", %"class.v8::Eternal.416", %"class.v8::Eternal.416", %"class.v8::Eternal.416", %"struct.std::array.417", ptr, ptr, ptr, ptr, ptr, %"class.std::optional", %"class.std::unique_ptr.430", %"class.std::shared_ptr.438", ptr, ptr }
%"class.std::unordered_map.393" = type { %"class.std::_Hashtable.394" }
%"class.std::_Hashtable.394" = type { ptr, i64, %"struct.std::__detail::_Hash_node_base", i64, %"struct.std::__detail::_Prime_rehash_policy", ptr }
%"class.v8::Eternal.413" = type { %"class.v8::IndirectHandleBase" }
%"class.v8::Eternal.414" = type { %"class.v8::IndirectHandleBase" }
%"class.v8::Eternal.415" = type { %"class.v8::IndirectHandleBase" }
%"class.v8::Eternal" = type { %"class.v8::IndirectHandleBase" }
%"class.v8::Eternal.416" = type { %"class.v8::IndirectHandleBase" }
%"struct.std::array.417" = type { [64 x %"class.v8::Eternal.414"] }
%"class.std::optional" = type { %"struct.std::_Optional_base" }
%"struct.std::_Optional_base" = type { %"struct.std::_Optional_payload" }
%"struct.std::_Optional_payload" = type { %"struct.std::_Optional_payload.base.427", [7 x i8] }
%"struct.std::_Optional_payload.base.427" = type { %"struct.std::_Optional_payload_base.base.426" }
%"struct.std::_Optional_payload_base.base.426" = type <{ %"union.std::_Optional_payload_base<node::SnapshotConfig>::_Storage", i8 }>
%"union.std::_Optional_payload_base<node::SnapshotConfig>::_Storage" = type { %"struct.node::SnapshotConfig" }
%"struct.node::SnapshotConfig" = type { i32, [4 x i8], %"class.std::optional.419" }
%"class.std::optional.419" = type { %"struct.std::_Optional_base.420" }
%"struct.std::_Optional_base.420" = type { %"struct.std::_Optional_payload.422" }
%"struct.std::_Optional_payload.422" = type { %"struct.std::_Optional_payload.base", [7 x i8] }
%"struct.std::_Optional_payload.base" = type { %"struct.std::_Optional_payload_base.base" }
%"struct.std::_Optional_payload_base.base" = type <{ %"union.std::_Optional_payload_base<std::__cxx11::basic_string<char>>::_Storage", i8 }>
%"union.std::_Optional_payload_base<std::__cxx11::basic_string<char>>::_Storage" = type { %"class.std::__cxx11::basic_string" }
%"class.std::unique_ptr.430" = type { %"struct.std::__uniq_ptr_data.431" }
%"struct.std::__uniq_ptr_data.431" = type { %"class.std::__uniq_ptr_impl.432" }
%"class.std::__uniq_ptr_impl.432" = type { %"class.std::tuple.433" }
%"class.std::tuple.433" = type { %"struct.std::_Tuple_impl.434" }
%"struct.std::_Tuple_impl.434" = type { %"struct.std::_Head_base.437" }
%"struct.std::_Head_base.437" = type { ptr }
%"class.std::shared_ptr.438" = type { %"class.std::__shared_ptr.439" }
%"class.std::__shared_ptr.439" = type { ptr, %"class.std::__shared_count" }
%"class.std::allocator.118" = type { i8 }
%struct._Guard = type { ptr }
%struct.buf_mem_st = type { i64, ptr, i64, i64 }
%"class.std::unique_ptr.458" = type { %"struct.std::__uniq_ptr_data.459" }
%"struct.std::__uniq_ptr_data.459" = type { %"class.std::__uniq_ptr_impl.460" }
%"class.std::__uniq_ptr_impl.460" = type { %"class.std::tuple.461" }
%"class.std::tuple.461" = type { %"struct.std::_Tuple_impl.462" }
%"struct.std::_Tuple_impl.462" = type { %"struct.std::_Head_base.465" }
%"struct.std::_Head_base.465" = type { ptr }
%"class.node::ExternalReferenceRegistry" = type { i8, %"class.std::vector.306" }
%"class.std::vector.306" = type { %"struct.std::_Vector_base.307" }
%"struct.std::_Vector_base.307" = type { %"struct.std::_Vector_base<long, std::allocator<long>>::_Vector_impl" }
%"struct.std::_Vector_base<long, std::allocator<long>>::_Vector_impl" = type { %"struct.std::_Vector_base<long, std::allocator<long>>::_Vector_impl_data" }
%"struct.std::_Vector_base<long, std::allocator<long>>::_Vector_impl_data" = type { ptr, ptr, ptr }
%"class.__gnu_cxx::__normal_iterator" = type { ptr }
%"class.node::Realm" = type { %"class.node::MemoryRetainer", %"class.std::set", %"class.std::set.471", %"class.std::set.471", %"class.std::vector.136", ptr, ptr, %"class.v8::Global.479", %"class.v8::Global.47", %"class.v8::Global.47", %"class.v8::Global.47", %"class.v8::Global.293", %"class.v8::Global.47", %"class.v8::Global.47", %"class.v8::Global.47", %"class.v8::Global.293", %"class.v8::Global.47", %"class.v8::Global.47", %"class.v8::Global.47", %"class.v8::Global.47", %"class.v8::Global.47", %"class.v8::Global.47", %"class.v8::Global.47", %"class.v8::Global.47", %"class.v8::Global.47", %"class.v8::Global.47", %"class.v8::Global.47", %"class.v8::Global.47", %"class.v8::Global.47", %"class.v8::Global.47", %"class.v8::Global.47", %"class.v8::Global.47", %"class.v8::Global.47", %"class.v8::Global.47", %"class.v8::Global.47", %"class.v8::Global.47", %"class.v8::Global.47", %"class.v8::Global.47", %"class.v8::Global.47", %"class.v8::Global.47", %"class.v8::Global.47", %"class.v8::Global.47", %"class.v8::Global.47", %"class.v8::Global.47", %"class.v8::Global.293", %"class.v8::Global.47", %"class.v8::Global.47", %"class.v8::Global.47", %"class.v8::Global.293", %"class.v8::Global.293", %"class.v8::Global.293", %"class.v8::Global.293", %"class.v8::Global.293", %"class.v8::Global.293", %"class.v8::Global.47", %"class.v8::Global.47", %"class.v8::Global.47", %"class.v8::Global.47", %"class.v8::Global.47", %"class.v8::Global.47", %"class.v8::Global.47", %"class.v8::Global.47", %"class.v8::Global.47", %"class.v8::Global.47", %"class.v8::Global.47", %"class.v8::Global.47", %"class.v8::Global.47", %"class.v8::Global.47", i32, i8, i64, i64, %"struct.std::array.481", %"class.node::CleanupQueue" }
%"class.std::set" = type { %"class.std::_Rb_tree" }
%"class.std::_Rb_tree" = type { %"struct.std::_Rb_tree<node::node_module *, node::node_module *, std::_Identity<node::node_module *>, std::less<node::node_module *>>::_Rb_tree_impl" }
%"struct.std::_Rb_tree<node::node_module *, node::node_module *, std::_Identity<node::node_module *>, std::less<node::node_module *>>::_Rb_tree_impl" = type { %"struct.std::_Rb_tree_key_compare", %"struct.std::_Rb_tree_header" }
%"struct.std::_Rb_tree_key_compare" = type { %"struct.std::less" }
%"struct.std::less" = type { i8 }
%"struct.std::_Rb_tree_header" = type { %"struct.std::_Rb_tree_node_base", i64 }
%"struct.std::_Rb_tree_node_base" = type { i32, ptr, ptr, ptr }
%"class.std::set.471" = type { %"class.std::_Rb_tree.472" }
%"class.std::_Rb_tree.472" = type { %"struct.std::_Rb_tree<std::__cxx11::basic_string<char>, std::__cxx11::basic_string<char>, std::_Identity<std::__cxx11::basic_string<char>>, std::less<std::__cxx11::basic_string<char>>>::_Rb_tree_impl" }
%"struct.std::_Rb_tree<std::__cxx11::basic_string<char>, std::__cxx11::basic_string<char>, std::_Identity<std::__cxx11::basic_string<char>>, std::less<std::__cxx11::basic_string<char>>>::_Rb_tree_impl" = type { %"struct.std::_Rb_tree_key_compare.476", %"struct.std::_Rb_tree_header" }
%"struct.std::_Rb_tree_key_compare.476" = type { %"struct.std::less.477" }
%"struct.std::less.477" = type { i8 }
%"class.v8::Global.479" = type { %"class.v8::PersistentBase.480" }
%"class.v8::PersistentBase.480" = type { %"class.v8::IndirectHandleBase" }
%"struct.std::array.481" = type { [12 x %"class.node::BaseObjectPtrImpl.482"] }
%"class.node::BaseObjectPtrImpl.482" = type { %union.anon.483 }
%union.anon.483 = type { ptr }
%"struct.node::BaseObject::PointerData" = type { i32, i32, i8, i8, ptr }
%"class.std::allocator.485" = type { i8 }
%"struct.std::__allocated_ptr" = type { ptr, ptr }
%"class.std::_Sp_counted_ptr_inplace" = type { %"class.std::_Sp_counted_base", %"class.std::_Sp_counted_ptr_inplace<node::MutexBase<node::LibuvMutexTraits>, std::allocator<void>, __gnu_cxx::_S_atomic>::_Impl" }
%"class.std::_Sp_counted_ptr_inplace<node::MutexBase<node::LibuvMutexTraits>, std::allocator<void>, __gnu_cxx::_S_atomic>::_Impl" = type { %"struct.__gnu_cxx::__aligned_buffer" }
%"struct.__gnu_cxx::__aligned_buffer" = type { %"union.std::aligned_storage<40, 8>::type" }
%"union.std::aligned_storage<40, 8>::type" = type { [40 x i8] }
%"struct.std::_Optional_payload_base.501" = type <{ %"union.std::_Optional_payload_base<unsigned long>::_Storage", i8, [7 x i8] }>
%"class.std::_Sp_counted_ptr" = type { %"class.std::_Sp_counted_base", ptr }

$_ZN4node14MemoryRetainerC2Ev = comdat any

$_ZNSt10unique_ptrI11evp_pkey_stN4node15FunctionDeleterIS0_XadL_Z13EVP_PKEY_freeEEEEEC2EOS4_ = comdat any

$_ZSt11make_sharedIN4node9MutexBaseINS0_16LibuvMutexTraitsEEEJEESt10shared_ptrINSt9enable_ifIXntsr8is_arrayIT_EE5valueES6_E4typeEEDpOT0_ = comdat any

$_ZNSt10unique_ptrI11evp_pkey_stN4node15FunctionDeleterIS0_XadL_Z13EVP_PKEY_freeEEEEEC2IS3_vEEv = comdat any

$_ZNSt10shared_ptrIN4node9MutexBaseINS0_16LibuvMutexTraitsEEEEC2Ev = comdat any

$_ZNKSt19__shared_ptr_accessIN4node9MutexBaseINS0_16LibuvMutexTraitsEEELN9__gnu_cxx12_Lock_policyE2ELb0ELb0EEdeEv = comdat any

$_ZN4node9MutexBaseINS_16LibuvMutexTraitsEE10ScopedLockC2ERKS2_ = comdat any

$_ZNSt10unique_ptrI11evp_pkey_stN4node15FunctionDeleterIS0_XadL_Z13EVP_PKEY_freeEEEEE5resetEPS0_ = comdat any

$_ZNKSt10unique_ptrI11evp_pkey_stN4node15FunctionDeleterIS0_XadL_Z13EVP_PKEY_freeEEEEEcvbEv = comdat any

$_ZNKSt10unique_ptrI11evp_pkey_stN4node15FunctionDeleterIS0_XadL_Z13EVP_PKEY_freeEEEEE3getEv = comdat any

$_ZNSt10shared_ptrIN4node9MutexBaseINS0_16LibuvMutexTraitsEEEEaSERKS4_ = comdat any

$_ZN4node9MutexBaseINS_16LibuvMutexTraitsEE10ScopedLockD2Ev = comdat any

$_ZNKSt12__shared_ptrIN4node9MutexBaseINS0_16LibuvMutexTraitsEEELN9__gnu_cxx12_Lock_policyE2EE3getEv = comdat any

$_ZN4node13MemoryTracker18TrackFieldWithSizeEPKcmS2_ = comdat any

$_ZNKSt19__shared_ptr_accessIN4node6crypto13KeyObjectDataELN9__gnu_cxx12_Lock_policyE2ELb0ELb0EEptEv = comdat any

$_ZNSt10shared_ptrIN4node6crypto13KeyObjectDataEEC2ERKS3_ = comdat any

$_ZNSt10shared_ptrIN4node6crypto13KeyObjectDataEED2Ev = comdat any

$_ZN2v87NothingIbEENS_5MaybeIT_EEv = comdat any

$_ZNK4node11Environment7isolateEv = comdat any

$_ZN4node11Environment10GetCurrentERKN2v820FunctionCallbackInfoINS1_5ValueEEE = comdat any

$_ZN4node6crypto24PrivateKeyEncodingConfigC2Ev = comdat any

$_ZN4node16MaybeStackBufferIcLm1024EEdeEv = comdat any

$_ZN4node31THROW_ERR_CRYPTO_UNKNOWN_CIPHEREPNS_11EnvironmentE = comdat any

$_ZN4node16NonCopyableMaybeINS_6crypto24PrivateKeyEncodingConfigEEC2Ev = comdat any

$_ZN4node9Utf8ValueD2Ev = comdat any

$_ZN4node6crypto17IsAnyBufferSourceEN2v85LocalINS1_5ValueEEE = comdat any

$_ZN4node6crypto25ArrayBufferOrViewContentsIcEC2EN2v85LocalINS3_5ValueEEE = comdat any

$_ZN4node6crypto25ArrayBufferOrViewContentsIcE14CheckSizeInt32Ev = comdat any

$_ZN4node22THROW_ERR_OUT_OF_RANGEIJEEEvPNS_11EnvironmentEPKcDpOT_ = comdat any

$_ZNK4node6crypto25ArrayBufferOrViewContentsIcE20ToNullTerminatedCopyEv = comdat any

$_ZN4node16NonCopyableMaybeINS_6crypto10ByteSourceEEC2EOS2_ = comdat any

$_ZN4node16NonCopyableMaybeINS_6crypto10ByteSourceEEaSEOS3_ = comdat any

$_ZN4node16NonCopyableMaybeINS_6crypto10ByteSourceEED2Ev = comdat any

$_ZN4node16NonCopyableMaybeINS_6crypto24PrivateKeyEncodingConfigEEC2EOS2_ = comdat any

$_ZN4node6crypto24PrivateKeyEncodingConfigD2Ev = comdat any

$_ZN4node6crypto27AsymmetricKeyEncodingConfigC2Ev = comdat any

$_ZNK4node16NonCopyableMaybeINS_6crypto24PrivateKeyEncodingConfigEE7IsEmptyEv = comdat any

$_ZN4node6crypto14ManagedEVPPKeyC2Ev = comdat any

$_ZN4node16NonCopyableMaybeINS_6crypto24PrivateKeyEncodingConfigEE7ReleaseEv = comdat any

$_ZNK4node6crypto10ByteSource4dataIcEEPKT_v = comdat any

$_ZNK4node6crypto10ByteSource4sizeEv = comdat any

$_ZNSt10unique_ptrI11evp_pkey_stN4node15FunctionDeleterIS0_XadL_Z13EVP_PKEY_freeEEEEED2Ev = comdat any

$_ZN4node16NonCopyableMaybeINS_6crypto24PrivateKeyEncodingConfigEED2Ev = comdat any

$_ZN4node10BaseObject12FromJSObjectEN2v85LocalINS1_5ValueEEE = comdat any

$_ZN4node6crypto24PrivateKeyEncodingConfigC2EOS1_ = comdat any

$_ZN4node6crypto25ArrayBufferOrViewContentsIcE4dataEv = comdat any

$_ZNK4node6crypto25ArrayBufferOrViewContentsIcE4sizeEv = comdat any

$_ZN4node6UnwrapINS_6crypto15KeyObjectHandleEEEPT_N2v85LocalINS5_5ValueEEE = comdat any

$_ZN4node28THROW_ERR_MISSING_PASSPHRASEIJEEEvPNS_11EnvironmentEPKcDpOT_ = comdat any

$_ZN4node6crypto10ByteSourceC2Ev = comdat any

$_ZNSt10shared_ptrIN4node6crypto13KeyObjectDataEEC2IS2_vEEPT_ = comdat any

$_ZNK4node11Environment36crypto_key_object_handle_constructorEv = comdat any

$_ZNSt17basic_string_viewIcSt11char_traitsIcEEC2EPKc = comdat any

$_ZN4node11Environment40set_crypto_key_object_handle_constructorEN2v85LocalINS1_16FunctionTemplateEEE = comdat any

$_ZNK4node11Environment7contextEv = comdat any

$_ZN4node25ExternalReferenceRegistry8RegisterEPFvRKN2v820FunctionCallbackInfoINS1_5ValueEEEE = comdat any

$_ZNSt10shared_ptrIN4node6crypto13KeyObjectDataEEaSERKS3_ = comdat any

$_ZN4node10BaseObjectC2EPNS_11EnvironmentEN2v85LocalINS3_6ObjectEEE = comdat any

$_ZNSt10shared_ptrIN4node6crypto13KeyObjectDataEEC2Ev = comdat any

$_ZN4node6crypto20MarkPopErrorOnReturnC2Ev = comdat any

$_ZNK4node6crypto25ArrayBufferOrViewContentsIcE6ToCopyEv = comdat any

$_ZNSt10shared_ptrIN4node6crypto13KeyObjectDataEEaSEOS3_ = comdat any

$_ZN4node6crypto14ManagedEVPPKeyD2Ev = comdat any

$_ZN4node6crypto20MarkPopErrorOnReturnD2Ev = comdat any

$_ZNK4node11Environment14jwk_kty_stringEv = comdat any

$_ZN4node28THROW_ERR_CRYPTO_INVALID_JWKEPNS_11EnvironmentE = comdat any

$_ZNKSt12__shared_ptrIN4node6crypto13KeyObjectDataELN9__gnu_cxx12_Lock_policyE2EEcvbEv = comdat any

$_ZNSt10unique_ptrI9ec_key_stN4node15FunctionDeleterIS0_XadL_Z11EC_KEY_freeEEEEEC2IS3_vEEPS0_ = comdat any

$_ZNKSt10unique_ptrI9ec_key_stN4node15FunctionDeleterIS0_XadL_Z11EC_KEY_freeEEEEEcvbEv = comdat any

$_ZNKSt10unique_ptrI9ec_key_stN4node15FunctionDeleterIS0_XadL_Z11EC_KEY_freeEEEEE3getEv = comdat any

$_ZNKSt10unique_ptrI11ec_point_stN4node15FunctionDeleterIS0_XadL_Z13EC_POINT_freeEEEEEcvbEv = comdat any

$_ZNKSt10unique_ptrI11ec_point_stN4node15FunctionDeleterIS0_XadL_Z13EC_POINT_freeEEEEE3getEv = comdat any

$_ZNSt10unique_ptrI11evp_pkey_stN4node15FunctionDeleterIS0_XadL_Z13EVP_PKEY_freeEEEEEC2IS3_vEEPS0_ = comdat any

$_ZNSt10unique_ptrI9ec_key_stN4node15FunctionDeleterIS0_XadL_Z11EC_KEY_freeEEEEE7releaseEv = comdat any

$_ZNSt10unique_ptrI11ec_point_stN4node15FunctionDeleterIS0_XadL_Z13EC_POINT_freeEEEEED2Ev = comdat any

$_ZNSt10unique_ptrI9ec_key_stN4node15FunctionDeleterIS0_XadL_Z11EC_KEY_freeEEEEED2Ev = comdat any

$_ZN4node6crypto25ArrayBufferOrViewContentsIhEC2EN2v85LocalINS3_5ValueEEE = comdat any

$_ZN4node6crypto25ArrayBufferOrViewContentsIhE4dataEv = comdat any

$_ZNK4node6crypto25ArrayBufferOrViewContentsIhE4sizeEv = comdat any

$_ZN4node38THROW_ERR_CRYPTO_UNSUPPORTED_OPERATIONEPNS_11EnvironmentE = comdat any

$_ZNK4node10BaseObject3envEv = comdat any

$_ZNK4node11Environment17crypto_rsa_stringEv = comdat any

$_ZNK4node11Environment21crypto_rsa_pss_stringEv = comdat any

$_ZNK4node11Environment17crypto_dsa_stringEv = comdat any

$_ZNK4node11Environment16crypto_dh_stringEv = comdat any

$_ZNK4node11Environment16crypto_ec_stringEv = comdat any

$_ZNK4node11Environment21crypto_ed25519_stringEv = comdat any

$_ZNK4node11Environment19crypto_ed448_stringEv = comdat any

$_ZNK4node11Environment20crypto_x25519_stringEv = comdat any

$_ZNK4node11Environment18crypto_x448_stringEv = comdat any

$_ZNSt10unique_ptrI15evp_pkey_ctx_stN4node15FunctionDeleterIS0_XadL_Z17EVP_PKEY_CTX_freeEEEEEC2IS3_vEEPS0_ = comdat any

$_ZNKSt10unique_ptrI15evp_pkey_ctx_stN4node15FunctionDeleterIS0_XadL_Z17EVP_PKEY_CTX_freeEEEEEcvbEv = comdat any

$_ZNKSt10unique_ptrI15evp_pkey_ctx_stN4node15FunctionDeleterIS0_XadL_Z17EVP_PKEY_CTX_freeEEEEE3getEv = comdat any

$_ZNSt10unique_ptrI15evp_pkey_ctx_stN4node15FunctionDeleterIS0_XadL_Z17EVP_PKEY_CTX_freeEEEEED2Ev = comdat any

$_ZN4node6crypto15NativeKeyObjectC2EPNS_11EnvironmentEN2v85LocalINS4_6ObjectEEERKSt10shared_ptrINS0_13KeyObjectDataEE = comdat any

$_ZN4node11Environment40set_crypto_key_object_secret_constructorEN2v85LocalINS1_8FunctionEEE = comdat any

$_ZN4node11Environment40set_crypto_key_object_public_constructorEN2v85LocalINS1_8FunctionEEE = comdat any

$_ZN4node11Environment41set_crypto_key_object_private_constructorEN2v85LocalINS1_8FunctionEEE = comdat any

$_ZN4node44THROW_ERR_MESSAGE_TARGET_CONTEXT_UNAVAILABLEEPNS_11EnvironmentE = comdat any

$_ZN4node17BaseObjectPtrImplINS_10BaseObjectELb0EEC2Ev = comdat any

$_ZN4node21FIXED_ONE_BYTE_STRINGILi21EEEN2v85LocalINS1_6StringEEEPNS1_7IsolateERAT__Kc = comdat any

$_ZNK4node11Environment22builtin_module_requireEv = comdat any

$_ZNK4node11Environment36crypto_key_object_secret_constructorEv = comdat any

$_ZNK4node11Environment36crypto_key_object_public_constructorEv = comdat any

$_ZNK4node11Environment37crypto_key_object_private_constructorEv = comdat any

$_ZN4node17BaseObjectPtrImplINS_10BaseObjectELb0EEC2EPS1_ = comdat any

$_ZSt11make_uniqueIN4node6crypto15NativeKeyObject21KeyObjectTransferDataEJRKSt10shared_ptrINS1_13KeyObjectDataEEEENSt8__detail9_MakeUniqIT_E15__single_objectEDpOT0_ = comdat any

$_ZNSt10unique_ptrIN4node6worker12TransferDataESt14default_deleteIS2_EEC2INS0_6crypto15NativeKeyObject21KeyObjectTransferDataES3_IS9_EvEEOS_IT_T0_E = comdat any

$_ZNSt10unique_ptrIN4node6crypto15NativeKeyObject21KeyObjectTransferDataESt14default_deleteIS3_EED2Ev = comdat any

$_ZNSt10unique_ptrI6bio_stN4node15FunctionDeleterIS0_XadL_Z12BIO_free_allEEEEEC2IS3_vEEPS0_ = comdat any

$_ZNKSt10unique_ptrI6bio_stN4node15FunctionDeleterIS0_XadL_Z12BIO_free_allEEEEEcvbEv = comdat any

$_ZNKSt10unique_ptrI6bio_stN4node15FunctionDeleterIS0_XadL_Z12BIO_free_allEEEEE3getEv = comdat any

$_ZNSt10unique_ptrI6bio_stN4node15FunctionDeleterIS0_XadL_Z12BIO_free_allEEEEED2Ev = comdat any

$_ZNSt10unique_ptrI22pkcs8_priv_key_info_stN4node15FunctionDeleterIS0_XadL_Z24PKCS8_PRIV_KEY_INFO_freeEEEEEC2IS3_vEEPS0_ = comdat any

$_ZNKSt10unique_ptrI22pkcs8_priv_key_info_stN4node15FunctionDeleterIS0_XadL_Z24PKCS8_PRIV_KEY_INFO_freeEEEEE3getEv = comdat any

$_ZNSt10unique_ptrI22pkcs8_priv_key_info_stN4node15FunctionDeleterIS0_XadL_Z24PKCS8_PRIV_KEY_INFO_freeEEEEED2Ev = comdat any

$_ZN4node21FIXED_ONE_BYTE_STRINGILi16EEEN2v85LocalINS1_6StringEEEPNS1_7IsolateERAT__Kc = comdat any

$_ZN4node6crypto14ManagedEVPPKeyD0Ev = comdat any

$_ZNK4node6crypto14ManagedEVPPKey14MemoryInfoNameEv = comdat any

$_ZNK4node6crypto14ManagedEVPPKey8SelfSizeEv = comdat any

$_ZNK4node14MemoryRetainer13WrappedObjectEv = comdat any

$_ZNK4node14MemoryRetainer10IsRootNodeEv = comdat any

$_ZNK4node14MemoryRetainer15GetDetachednessEv = comdat any

$_ZN4node6crypto15NativeKeyObject21KeyObjectTransferDataD2Ev = comdat any

$_ZN4node6crypto15NativeKeyObject21KeyObjectTransferDataD0Ev = comdat any

$_ZNK4node6crypto15NativeKeyObject21KeyObjectTransferData10MemoryInfoEPNS_13MemoryTrackerE = comdat any

$_ZNK4node6crypto15NativeKeyObject21KeyObjectTransferData14MemoryInfoNameEv = comdat any

$_ZNK4node6crypto15NativeKeyObject21KeyObjectTransferData8SelfSizeEv = comdat any

$_ZN4node6crypto15NativeKeyObjectD2Ev = comdat any

$_ZN4node6crypto15NativeKeyObjectD0Ev = comdat any

$_ZNK4node6crypto15NativeKeyObject10MemoryInfoEPNS_13MemoryTrackerE = comdat any

$_ZNK4node6crypto15NativeKeyObject14MemoryInfoNameEv = comdat any

$_ZNK4node6crypto15NativeKeyObject8SelfSizeEv = comdat any

$_ZNK4node10BaseObject15GetDetachednessEv = comdat any

$_ZN4node10BaseObject11OnGCCollectEv = comdat any

$_ZNK4node10BaseObject15is_snapshotableEv = comdat any

$_ZN4node6crypto13KeyObjectDataD2Ev = comdat any

$_ZN4node6crypto13KeyObjectDataD0Ev = comdat any

$_ZNK4node6crypto13KeyObjectData14MemoryInfoNameEv = comdat any

$_ZNK4node6crypto13KeyObjectData8SelfSizeEv = comdat any

$_ZN4node6crypto15KeyObjectHandleD2Ev = comdat any

$_ZN4node6crypto15KeyObjectHandleD0Ev = comdat any

$_ZNK4node6crypto15KeyObjectHandle10MemoryInfoEPNS_13MemoryTrackerE = comdat any

$_ZNK4node6crypto15KeyObjectHandle14MemoryInfoNameEv = comdat any

$_ZNK4node6crypto15KeyObjectHandle8SelfSizeEv = comdat any

$_ZN4node14MemoryRetainerD2Ev = comdat any

$_ZN4node14MemoryRetainerD0Ev = comdat any

$_ZNSt15__uniq_ptr_dataI11evp_pkey_stN4node15FunctionDeleterIS0_XadL_Z13EVP_PKEY_freeEEEELb1ELb1EEC2EOS4_ = comdat any

$_ZNSt15__uniq_ptr_implI11evp_pkey_stN4node15FunctionDeleterIS0_XadL_Z13EVP_PKEY_freeEEEEEC2EOS4_ = comdat any

$_ZNSt5tupleIJP11evp_pkey_stN4node15FunctionDeleterIS0_XadL_Z13EVP_PKEY_freeEEEEEEC2EOS5_ = comdat any

$_ZNSt15__uniq_ptr_implI11evp_pkey_stN4node15FunctionDeleterIS0_XadL_Z13EVP_PKEY_freeEEEEE6_M_ptrEv = comdat any

$_ZNSt11_Tuple_implILm0EJP11evp_pkey_stN4node15FunctionDeleterIS0_XadL_Z13EVP_PKEY_freeEEEEEEC2EOS5_ = comdat any

$_ZNSt11_Tuple_implILm1EJN4node15FunctionDeleterI11evp_pkey_stXadL_Z13EVP_PKEY_freeEEEEEEC2EOS4_ = comdat any

$_ZSt3getILm0EJP11evp_pkey_stN4node15FunctionDeleterIS0_XadL_Z13EVP_PKEY_freeEEEEEERNSt13tuple_elementIXT_ESt5tupleIJDpT0_EEE4typeERS9_ = comdat any

$_ZSt12__get_helperILm0EP11evp_pkey_stJN4node15FunctionDeleterIS0_XadL_Z13EVP_PKEY_freeEEEEEERT0_RSt11_Tuple_implIXT_EJS5_DpT1_EE = comdat any

$_ZNSt11_Tuple_implILm0EJP11evp_pkey_stN4node15FunctionDeleterIS0_XadL_Z13EVP_PKEY_freeEEEEEE7_M_headERS5_ = comdat any

$_ZNSt10_Head_baseILm0EP11evp_pkey_stLb0EE7_M_headERS2_ = comdat any

$_ZNSt15__uniq_ptr_dataI11evp_pkey_stN4node15FunctionDeleterIS0_XadL_Z13EVP_PKEY_freeEEEELb1ELb1EEC2Ev = comdat any

$_ZNSt15__uniq_ptr_implI11evp_pkey_stN4node15FunctionDeleterIS0_XadL_Z13EVP_PKEY_freeEEEEEC2Ev = comdat any

$_ZNSt5tupleIJP11evp_pkey_stN4node15FunctionDeleterIS0_XadL_Z13EVP_PKEY_freeEEEEEEC2ILb1ETnNSt9enable_ifIXclsr17_TupleConstraintsIXT_ES1_S4_EE37__is_implicitly_default_constructibleEEbE4typeELb1EEEv = comdat any

$_ZNSt11_Tuple_implILm0EJP11evp_pkey_stN4node15FunctionDeleterIS0_XadL_Z13EVP_PKEY_freeEEEEEEC2Ev = comdat any

$_ZNSt11_Tuple_implILm1EJN4node15FunctionDeleterI11evp_pkey_stXadL_Z13EVP_PKEY_freeEEEEEEC2Ev = comdat any

$_ZNSt10_Head_baseILm0EP11evp_pkey_stLb0EEC2Ev = comdat any

$_ZNSt10_Head_baseILm1EN4node15FunctionDeleterI11evp_pkey_stXadL_Z13EVP_PKEY_freeEEEELb1EEC2Ev = comdat any

$_ZNSt12__shared_ptrIN4node9MutexBaseINS0_16LibuvMutexTraitsEEELN9__gnu_cxx12_Lock_policyE2EEC2Ev = comdat any

$_ZNSt14__shared_countILN9__gnu_cxx12_Lock_policyE2EEC2Ev = comdat any

$_ZNSt12__shared_ptrIN4node9MutexBaseINS0_16LibuvMutexTraitsEEELN9__gnu_cxx12_Lock_policyE2EEaSERKS6_ = comdat any

$_ZNSt14__shared_countILN9__gnu_cxx12_Lock_policyE2EEaSERKS2_ = comdat any

$_ZNSt16_Sp_counted_baseILN9__gnu_cxx12_Lock_policyE2EE15_M_add_ref_copyEv = comdat any

$_ZNSt16_Sp_counted_baseILN9__gnu_cxx12_Lock_policyE2EE10_M_releaseEv = comdat any

$_ZNSt16_Sp_counted_baseILN9__gnu_cxx12_Lock_policyE2EE24_M_release_last_use_coldEv = comdat any

$_ZNSt16_Sp_counted_baseILN9__gnu_cxx12_Lock_policyE2EE19_M_release_last_useEv = comdat any

$_ZN4node13MemoryTracker7AddNodeEPKcmS2_ = comdat any

$_ZN4node11GetNodeNameEPKcS1_ = comdat any

$_ZN4node18MemoryRetainerNodeC2EPNS_13MemoryTrackerEPKcmb = comdat any

$_ZNSt10unique_ptrIN2v813EmbedderGraph4NodeESt14default_deleteIS2_EEC2IS4_vEEPS2_ = comdat any

$_ZNSt10unique_ptrIN2v813EmbedderGraph4NodeESt14default_deleteIS2_EED2Ev = comdat any

$_ZNK4node13MemoryTracker11CurrentNodeEv = comdat any

$_ZN2v813EmbedderGraph4NodeC2Ev = comdat any

$_ZN4node18MemoryRetainerNodeD2Ev = comdat any

$_ZN4node18MemoryRetainerNodeD0Ev = comdat any

$_ZN4node18MemoryRetainerNode4NameEv = comdat any

$_ZN4node18MemoryRetainerNode11SizeInBytesEv = comdat any

$_ZN2v813EmbedderGraph4Node11WrapperNodeEv = comdat any

$_ZN4node18MemoryRetainerNode10IsRootNodeEv = comdat any

$_ZN2v813EmbedderGraph4Node14IsEmbedderNodeEv = comdat any

$_ZN4node18MemoryRetainerNode10NamePrefixEv = comdat any

$_ZN2v813EmbedderGraph4Node15GetNativeObjectEv = comdat any

$_ZN4node18MemoryRetainerNode15GetDetachednessEv = comdat any

$_ZN2v813EmbedderGraph4Node10GetAddressEv = comdat any

$_ZN2v813EmbedderGraph4NodeD2Ev = comdat any

$_ZN2v813EmbedderGraph4NodeD0Ev = comdat any

$_ZN2v813EmbedderGraph4Node10IsRootNodeEv = comdat any

$_ZN2v813EmbedderGraph4Node10NamePrefixEv = comdat any

$_ZN2v813EmbedderGraph4Node15GetDetachednessEv = comdat any

$_ZNSt15__uniq_ptr_dataIN2v813EmbedderGraph4NodeESt14default_deleteIS2_ELb1ELb1EECI2St15__uniq_ptr_implIS2_S4_EEPS2_ = comdat any

$_ZNSt15__uniq_ptr_implIN2v813EmbedderGraph4NodeESt14default_deleteIS2_EEC2EPS2_ = comdat any

$_ZNSt5tupleIJPN2v813EmbedderGraph4NodeESt14default_deleteIS2_EEEC2ILb1ETnNSt9enable_ifIXclsr17_TupleConstraintsIXT_ES3_S5_EE37__is_implicitly_default_constructibleEEbE4typeELb1EEEv = comdat any

$_ZNSt15__uniq_ptr_implIN2v813EmbedderGraph4NodeESt14default_deleteIS2_EE6_M_ptrEv = comdat any

$_ZNSt11_Tuple_implILm0EJPN2v813EmbedderGraph4NodeESt14default_deleteIS2_EEEC2Ev = comdat any

$_ZNSt11_Tuple_implILm1EJSt14default_deleteIN2v813EmbedderGraph4NodeEEEEC2Ev = comdat any

$_ZNSt10_Head_baseILm0EPN2v813EmbedderGraph4NodeELb0EEC2Ev = comdat any

$_ZNSt10_Head_baseILm1ESt14default_deleteIN2v813EmbedderGraph4NodeEELb1EEC2Ev = comdat any

$_ZSt3getILm0EJPN2v813EmbedderGraph4NodeESt14default_deleteIS2_EEERNSt13tuple_elementIXT_ESt5tupleIJDpT0_EEE4typeERSA_ = comdat any

$_ZSt12__get_helperILm0EPN2v813EmbedderGraph4NodeEJSt14default_deleteIS2_EEERT0_RSt11_Tuple_implIXT_EJS6_DpT1_EE = comdat any

$_ZNSt11_Tuple_implILm0EJPN2v813EmbedderGraph4NodeESt14default_deleteIS2_EEE7_M_headERS6_ = comdat any

$_ZNSt10_Head_baseILm0EPN2v813EmbedderGraph4NodeELb0EE7_M_headERS4_ = comdat any

$_ZNSt10unique_ptrIN2v813EmbedderGraph4NodeESt14default_deleteIS2_EE11get_deleterEv = comdat any

$_ZNKSt14default_deleteIN2v813EmbedderGraph4NodeEEclEPS2_ = comdat any

$_ZNSt15__uniq_ptr_implIN2v813EmbedderGraph4NodeESt14default_deleteIS2_EE10_M_deleterEv = comdat any

$_ZSt3getILm1EJPN2v813EmbedderGraph4NodeESt14default_deleteIS2_EEERNSt13tuple_elementIXT_ESt5tupleIJDpT0_EEE4typeERSA_ = comdat any

$_ZSt12__get_helperILm1ESt14default_deleteIN2v813EmbedderGraph4NodeEEJEERT0_RSt11_Tuple_implIXT_EJS5_DpT1_EE = comdat any

$_ZNSt11_Tuple_implILm1EJSt14default_deleteIN2v813EmbedderGraph4NodeEEEE7_M_headERS5_ = comdat any

$_ZNSt10_Head_baseILm1ESt14default_deleteIN2v813EmbedderGraph4NodeEELb1EE7_M_headERS5_ = comdat any

$_ZNKSt5stackIPN4node18MemoryRetainerNodeESt5dequeIS2_SaIS2_EEE5emptyEv = comdat any

$_ZNKSt5stackIPN4node18MemoryRetainerNodeESt5dequeIS2_SaIS2_EEE3topEv = comdat any

$_ZNKSt5dequeIPN4node18MemoryRetainerNodeESaIS2_EE5emptyEv = comdat any

$_ZSteqRKSt15_Deque_iteratorIPN4node18MemoryRetainerNodeERS2_PS2_ES7_ = comdat any

$_ZNKSt5dequeIPN4node18MemoryRetainerNodeESaIS2_EE4backEv = comdat any

$_ZNKSt5dequeIPN4node18MemoryRetainerNodeESaIS2_EE3endEv = comdat any

$_ZNSt15_Deque_iteratorIPN4node18MemoryRetainerNodeERKS2_PS3_EmmEv = comdat any

$_ZNKSt15_Deque_iteratorIPN4node18MemoryRetainerNodeERKS2_PS3_EdeEv = comdat any

$_ZNSt15_Deque_iteratorIPN4node18MemoryRetainerNodeERKS2_PS3_EC2IS_IS2_RS2_PS2_EvEERKT_ = comdat any

$_ZNSt15_Deque_iteratorIPN4node18MemoryRetainerNodeERKS2_PS3_E11_M_set_nodeEPPS2_ = comdat any

$_ZNSt15_Deque_iteratorIPN4node18MemoryRetainerNodeERKS2_PS3_E14_S_buffer_sizeEv = comdat any

$_ZSt16__deque_buf_sizem = comdat any

$_ZNK4node11Environment14jwk_oct_stringEv = comdat any

$_ZNK4node11Environment12jwk_k_stringEv = comdat any

$_ZN2v84JustIbTnPNSt9enable_ifIXntsr3stdE21is_lvalue_reference_vIT_EEvE4typeELPv0EEENS_5MaybeIS2_EEOS2_ = comdat any

$_ZNK4node11Environment12isolate_dataEv = comdat any

$_ZNK4node11IsolateData14jwk_oct_stringEv = comdat any

$_ZNK4node11IsolateData12jwk_k_stringEv = comdat any

$_ZN2v85MaybeIbEC2EOb = comdat any

$_ZNSt12__shared_ptrIN4node6crypto13KeyObjectDataELN9__gnu_cxx12_Lock_policyE2EEC2ERKS5_ = comdat any

$_ZNSt14__shared_countILN9__gnu_cxx12_Lock_policyE2EEC2ERKS2_ = comdat any

$_ZNSt14__shared_countILN9__gnu_cxx12_Lock_policyE2EED2Ev = comdat any

$_ZN4node41THROW_ERR_CRYPTO_JWK_UNSUPPORTED_KEY_TYPEEPNS_11EnvironmentE = comdat any

$_ZN4node41THROW_ERR_CRYPTO_JWK_UNSUPPORTED_KEY_TYPEEPN2v87IsolateE = comdat any

$_ZN4node35ERR_CRYPTO_JWK_UNSUPPORTED_KEY_TYPEIJEEEN2v85LocalINS1_5ValueEEEPNS1_7IsolateEPKcDpOT_ = comdat any

$_ZN4node7SPrintFIJEEENSt7__cxx1112basic_stringIcSt11char_traitsIcESaIcEEEPKcDpOT_ = comdat any

$_ZN4node13OneByteStringEPN2v87IsolateEPKci = comdat any

$_ZN4node11SPrintFImplB5cxx11EPKc = comdat any

$_ZNSt7__cxx1112basic_stringIcSt11char_traitsIcESaIcEEC2IS3_EEPKcRKS3_ = comdat any

$_ZStplIcSt11char_traitsIcESaIcEENSt7__cxx1112basic_stringIT_T0_T1_EEOS8_S9_ = comdat any

$_ZNSt7__cxx1112basic_stringIcSt11char_traitsIcESaIcEEC2IPKcvEET_S8_RKS3_ = comdat any

$_ZNSt11char_traitsIcE6lengthEPKc = comdat any

$_ZNSt7__cxx1112basic_stringIcSt11char_traitsIcESaIcEE12_M_constructIPKcEEvT_S8_St20forward_iterator_tag = comdat any

$_ZSt8distanceIPKcENSt15iterator_traitsIT_E15difference_typeES3_S3_ = comdat any

$_ZZNSt7__cxx1112basic_stringIcSt11char_traitsIcESaIcEE12_M_constructIPKcEEvT_S8_St20forward_iterator_tagEN6_GuardC2EPS4_ = comdat any

$_ZZNSt7__cxx1112basic_stringIcSt11char_traitsIcESaIcEE12_M_constructIPKcEEvT_S8_St20forward_iterator_tagEN6_GuardD2Ev = comdat any

$_ZSt10__distanceIPKcENSt15iterator_traitsIT_E15difference_typeES3_S3_St26random_access_iterator_tag = comdat any

$_ZSt19__iterator_categoryIPKcENSt15iterator_traitsIT_E17iterator_categoryERKS3_ = comdat any

$_ZNSt10unique_ptrI6rsa_stN4node15FunctionDeleterIS0_XadL_Z8RSA_freeEEEEEC2IS3_vEEPS0_ = comdat any

$_ZNKSt10unique_ptrI6rsa_stN4node15FunctionDeleterIS0_XadL_Z8RSA_freeEEEEE3getEv = comdat any

$_ZNSt10unique_ptrI6rsa_stN4node15FunctionDeleterIS0_XadL_Z8RSA_freeEEEEED2Ev = comdat any

$_ZNSt15__uniq_ptr_dataI6rsa_stN4node15FunctionDeleterIS0_XadL_Z8RSA_freeEEEELb1ELb1EECI2St15__uniq_ptr_implIS0_S3_EEPS0_ = comdat any

$_ZNSt15__uniq_ptr_implI6rsa_stN4node15FunctionDeleterIS0_XadL_Z8RSA_freeEEEEEC2EPS0_ = comdat any

$_ZNSt5tupleIJP6rsa_stN4node15FunctionDeleterIS0_XadL_Z8RSA_freeEEEEEEC2ILb1ETnNSt9enable_ifIXclsr17_TupleConstraintsIXT_ES1_S4_EE37__is_implicitly_default_constructibleEEbE4typeELb1EEEv = comdat any

$_ZNSt15__uniq_ptr_implI6rsa_stN4node15FunctionDeleterIS0_XadL_Z8RSA_freeEEEEE6_M_ptrEv = comdat any

$_ZNSt11_Tuple_implILm0EJP6rsa_stN4node15FunctionDeleterIS0_XadL_Z8RSA_freeEEEEEEC2Ev = comdat any

$_ZNSt11_Tuple_implILm1EJN4node15FunctionDeleterI6rsa_stXadL_Z8RSA_freeEEEEEEC2Ev = comdat any

$_ZNSt10_Head_baseILm0EP6rsa_stLb0EEC2Ev = comdat any

$_ZNSt10_Head_baseILm1EN4node15FunctionDeleterI6rsa_stXadL_Z8RSA_freeEEEELb1EEC2Ev = comdat any

$_ZSt3getILm0EJP6rsa_stN4node15FunctionDeleterIS0_XadL_Z8RSA_freeEEEEEERNSt13tuple_elementIXT_ESt5tupleIJDpT0_EEE4typeERS9_ = comdat any

$_ZSt12__get_helperILm0EP6rsa_stJN4node15FunctionDeleterIS0_XadL_Z8RSA_freeEEEEEERT0_RSt11_Tuple_implIXT_EJS5_DpT1_EE = comdat any

$_ZNSt11_Tuple_implILm0EJP6rsa_stN4node15FunctionDeleterIS0_XadL_Z8RSA_freeEEEEEE7_M_headERS5_ = comdat any

$_ZNSt10_Head_baseILm0EP6rsa_stLb0EE7_M_headERS2_ = comdat any

$_ZNKSt15__uniq_ptr_implI6rsa_stN4node15FunctionDeleterIS0_XadL_Z8RSA_freeEEEEE6_M_ptrEv = comdat any

$_ZSt3getILm0EJP6rsa_stN4node15FunctionDeleterIS0_XadL_Z8RSA_freeEEEEEERKNSt13tuple_elementIXT_ESt5tupleIJDpT0_EEE4typeERKS9_ = comdat any

$_ZSt12__get_helperILm0EP6rsa_stJN4node15FunctionDeleterIS0_XadL_Z8RSA_freeEEEEEERKT0_RKSt11_Tuple_implIXT_EJS5_DpT1_EE = comdat any

$_ZNSt11_Tuple_implILm0EJP6rsa_stN4node15FunctionDeleterIS0_XadL_Z8RSA_freeEEEEEE7_M_headERKS5_ = comdat any

$_ZNSt10_Head_baseILm0EP6rsa_stLb0EE7_M_headERKS2_ = comdat any

$_ZNSt10unique_ptrI6rsa_stN4node15FunctionDeleterIS0_XadL_Z8RSA_freeEEEEE11get_deleterEv = comdat any

$_ZNK4node15FunctionDeleterI6rsa_stXadL_Z8RSA_freeEEEclEPS1_ = comdat any

$_ZNSt15__uniq_ptr_implI6rsa_stN4node15FunctionDeleterIS0_XadL_Z8RSA_freeEEEEE10_M_deleterEv = comdat any

$_ZSt3getILm1EJP6rsa_stN4node15FunctionDeleterIS0_XadL_Z8RSA_freeEEEEEERNSt13tuple_elementIXT_ESt5tupleIJDpT0_EEE4typeERS9_ = comdat any

$_ZSt12__get_helperILm1EN4node15FunctionDeleterI6rsa_stXadL_Z8RSA_freeEEEEJEERT0_RSt11_Tuple_implIXT_EJS4_DpT1_EE = comdat any

$_ZNSt11_Tuple_implILm1EJN4node15FunctionDeleterI6rsa_stXadL_Z8RSA_freeEEEEEE7_M_headERS4_ = comdat any

$_ZNSt10_Head_baseILm1EN4node15FunctionDeleterI6rsa_stXadL_Z8RSA_freeEEEELb1EE7_M_headERS4_ = comdat any

$_ZNK4node16NonCopyableMaybeINS_6crypto10ByteSourceEE7IsEmptyEv = comdat any

$_ZNK4node16NonCopyableMaybeINS_6crypto10ByteSourceEEptEv = comdat any

$_ZN4node11Environment10GetCurrentEN2v85LocalINS1_7ContextEEE = comdat any

$_ZN4node18ContextEmbedderTag13IsNodeContextEN2v85LocalINS1_7ContextEEE = comdat any

$_ZN4node16NonCopyableMaybeINS_6crypto10ByteSourceEEC2Ev = comdat any

$_ZN2v87NothingIN4node6crypto14PKEncodingTypeEEENS_5MaybeIT_EEv = comdat any

$_ZN2v85MaybeIN4node6crypto14PKEncodingTypeEEC2Ev = comdat any

$_ZN2v84JustIN4node6crypto14PKEncodingTypeETnPNSt9enable_ifIXntsr3stdE21is_lvalue_reference_vIT_EEvE4typeELPv0EEENS_5MaybeIS5_EEOS5_ = comdat any

$_ZN2v85MaybeIN4node6crypto14PKEncodingTypeEEC2EOS3_ = comdat any

$_ZN4node31THROW_ERR_CRYPTO_UNKNOWN_CIPHEREPN2v87IsolateE = comdat any

$_ZN4node25ERR_CRYPTO_UNKNOWN_CIPHERIJEEEN2v85LocalINS1_5ValueEEEPNS1_7IsolateEPKcDpOT_ = comdat any

$_ZN4node16MaybeStackBufferIcLm1024EED2Ev = comdat any

$_ZNK4node16MaybeStackBufferIcLm1024EE11IsAllocatedEv = comdat any

$_ZNK4node16MaybeStackBufferIcLm1024EE13IsInvalidatedEv = comdat any

$_ZNK4node16NonCopyableMaybeINS_6crypto10ByteSourceEE3getEv = comdat any

$_ZNKSt10unique_ptrI22pkcs8_priv_key_info_stN4node15FunctionDeleterIS0_XadL_Z24PKCS8_PRIV_KEY_INFO_freeEEEEEcvbEv = comdat any

$_ZSt3minImERKT_S2_S2_ = comdat any

$_ZN4node16NonCopyableMaybeINS_6crypto10ByteSourceEEC2EOS3_ = comdat any

$_ZNSt8functionIFP11evp_pkey_stPPKhlEED2Ev = comdat any

$_ZNKSt8functionIFP11evp_pkey_stPPKhlEEclES4_l = comdat any

$_ZNKSt14_Function_base8_M_emptyEv = comdat any

$_ZNSt14_Function_baseC2Ev = comdat any

$_ZNSt9_Any_data9_M_accessEv = comdat any

$_ZNKSt9_Any_data9_M_accessEv = comdat any

$_ZNSt9_Any_data9_M_accessIPKSt9type_infoEERT_v = comdat any

$_ZNSt14_Function_baseD2Ev = comdat any

$_ZNSt10unique_ptrI7x509_stN4node15FunctionDeleterIS0_XadL_Z9X509_freeEEEEEC2IS3_vEEPS0_ = comdat any

$_ZNKSt10unique_ptrI7x509_stN4node15FunctionDeleterIS0_XadL_Z9X509_freeEEEEEcvbEv = comdat any

$_ZNKSt10unique_ptrI7x509_stN4node15FunctionDeleterIS0_XadL_Z9X509_freeEEEEE3getEv = comdat any

$_ZNSt10unique_ptrI7x509_stN4node15FunctionDeleterIS0_XadL_Z9X509_freeEEEEED2Ev = comdat any

$_ZNSt15__uniq_ptr_dataI7x509_stN4node15FunctionDeleterIS0_XadL_Z9X509_freeEEEELb1ELb1EECI2St15__uniq_ptr_implIS0_S3_EEPS0_ = comdat any

$_ZNSt15__uniq_ptr_implI7x509_stN4node15FunctionDeleterIS0_XadL_Z9X509_freeEEEEEC2EPS0_ = comdat any

$_ZNSt5tupleIJP7x509_stN4node15FunctionDeleterIS0_XadL_Z9X509_freeEEEEEEC2ILb1ETnNSt9enable_ifIXclsr17_TupleConstraintsIXT_ES1_S4_EE37__is_implicitly_default_constructibleEEbE4typeELb1EEEv = comdat any

$_ZNSt15__uniq_ptr_implI7x509_stN4node15FunctionDeleterIS0_XadL_Z9X509_freeEEEEE6_M_ptrEv = comdat any

$_ZNSt11_Tuple_implILm0EJP7x509_stN4node15FunctionDeleterIS0_XadL_Z9X509_freeEEEEEEC2Ev = comdat any

$_ZNSt11_Tuple_implILm1EJN4node15FunctionDeleterI7x509_stXadL_Z9X509_freeEEEEEEC2Ev = comdat any

$_ZNSt10_Head_baseILm0EP7x509_stLb0EEC2Ev = comdat any

$_ZNSt10_Head_baseILm1EN4node15FunctionDeleterI7x509_stXadL_Z9X509_freeEEEELb1EEC2Ev = comdat any

$_ZSt3getILm0EJP7x509_stN4node15FunctionDeleterIS0_XadL_Z9X509_freeEEEEEERNSt13tuple_elementIXT_ESt5tupleIJDpT0_EEE4typeERS9_ = comdat any

$_ZSt12__get_helperILm0EP7x509_stJN4node15FunctionDeleterIS0_XadL_Z9X509_freeEEEEEERT0_RSt11_Tuple_implIXT_EJS5_DpT1_EE = comdat any

$_ZNSt11_Tuple_implILm0EJP7x509_stN4node15FunctionDeleterIS0_XadL_Z9X509_freeEEEEEE7_M_headERS5_ = comdat any

$_ZNSt10_Head_baseILm0EP7x509_stLb0EE7_M_headERS2_ = comdat any

$_ZNKSt15__uniq_ptr_implI7x509_stN4node15FunctionDeleterIS0_XadL_Z9X509_freeEEEEE6_M_ptrEv = comdat any

$_ZSt3getILm0EJP7x509_stN4node15FunctionDeleterIS0_XadL_Z9X509_freeEEEEEERKNSt13tuple_elementIXT_ESt5tupleIJDpT0_EEE4typeERKS9_ = comdat any

$_ZSt12__get_helperILm0EP7x509_stJN4node15FunctionDeleterIS0_XadL_Z9X509_freeEEEEEERKT0_RKSt11_Tuple_implIXT_EJS5_DpT1_EE = comdat any

$_ZNSt11_Tuple_implILm0EJP7x509_stN4node15FunctionDeleterIS0_XadL_Z9X509_freeEEEEEE7_M_headERKS5_ = comdat any

$_ZNSt10_Head_baseILm0EP7x509_stLb0EE7_M_headERKS2_ = comdat any

$_ZNSt10unique_ptrI7x509_stN4node15FunctionDeleterIS0_XadL_Z9X509_freeEEEEE11get_deleterEv = comdat any

$_ZNK4node15FunctionDeleterI7x509_stXadL_Z9X509_freeEEEclEPS1_ = comdat any

$_ZNSt15__uniq_ptr_implI7x509_stN4node15FunctionDeleterIS0_XadL_Z9X509_freeEEEEE10_M_deleterEv = comdat any

$_ZSt3getILm1EJP7x509_stN4node15FunctionDeleterIS0_XadL_Z9X509_freeEEEEEERNSt13tuple_elementIXT_ESt5tupleIJDpT0_EEE4typeERS9_ = comdat any

$_ZSt12__get_helperILm1EN4node15FunctionDeleterI7x509_stXadL_Z9X509_freeEEEEJEERT0_RSt11_Tuple_implIXT_EJS4_DpT1_EE = comdat any

$_ZNSt11_Tuple_implILm1EJN4node15FunctionDeleterI7x509_stXadL_Z9X509_freeEEEEEE7_M_headERS4_ = comdat any

$_ZNSt10_Head_baseILm1EN4node15FunctionDeleterI7x509_stXadL_Z9X509_freeEEEELb1EE7_M_headERS4_ = comdat any

$_ZNK4node11IsolateData36crypto_key_object_handle_constructorEv = comdat any

$_ZN4node11IsolateData40set_crypto_key_object_handle_constructorEN2v85LocalINS1_16FunctionTemplateEEE = comdat any

$_ZN2v87EternalINS_16FunctionTemplateEE3SetIS1_EEvPNS_7IsolateENS_5LocalIT_EE = comdat any

$_ZNK4node11Environment15principal_realmEv = comdat any

$_ZNKSt10unique_ptrIN4node14PrincipalRealmESt14default_deleteIS1_EE3getEv = comdat any

$_ZNKSt15__uniq_ptr_implIN4node14PrincipalRealmESt14default_deleteIS1_EE6_M_ptrEv = comdat any

$_ZSt3getILm0EJPN4node14PrincipalRealmESt14default_deleteIS1_EEERKNSt13tuple_elementIXT_ESt5tupleIJDpT0_EEE4typeERKS9_ = comdat any

$_ZSt12__get_helperILm0EPN4node14PrincipalRealmEJSt14default_deleteIS1_EEERKT0_RKSt11_Tuple_implIXT_EJS5_DpT1_EE = comdat any

$_ZNSt11_Tuple_implILm0EJPN4node14PrincipalRealmESt14default_deleteIS1_EEE7_M_headERKS5_ = comdat any

$_ZNSt10_Head_baseILm0EPN4node14PrincipalRealmELb0EE7_M_headERKS3_ = comdat any

$_ZN4node25ExternalReferenceRegistry9RegisterTIFvRKN2v820FunctionCallbackInfoINS2_5ValueEEEEEEvPT_ = comdat any

$_ZNSt6vectorIlSaIlEE9push_backEOl = comdat any

$_ZNSt6vectorIlSaIlEE12emplace_backIJlEEERlDpOT_ = comdat any

$_ZNSt16allocator_traitsISaIlEE9constructIlJlEEEvRS0_PT_DpOT0_ = comdat any

$_ZNSt6vectorIlSaIlEE17_M_realloc_insertIJlEEEvN9__gnu_cxx17__normal_iteratorIPlS1_EEDpOT_ = comdat any

$_ZNSt6vectorIlSaIlEE3endEv = comdat any

$_ZNSt6vectorIlSaIlEE4backEv = comdat any

$_ZNSt15__new_allocatorIlE9constructIlJlEEEvPT_DpOT0_ = comdat any

$_ZNKSt6vectorIlSaIlEE12_M_check_lenEmPKc = comdat any

$_ZN9__gnu_cxxmiIPlSt6vectorIlSaIlEEEENS_17__normal_iteratorIT_T0_E15difference_typeERKS8_SB_ = comdat any

$_ZNSt6vectorIlSaIlEE5beginEv = comdat any

$_ZNSt12_Vector_baseIlSaIlEE11_M_allocateEm = comdat any

$_ZNSt6vectorIlSaIlEE11_S_relocateEPlS2_S2_RS0_ = comdat any

$_ZNK9__gnu_cxx17__normal_iteratorIPlSt6vectorIlSaIlEEE4baseEv = comdat any

$_ZNSt12_Vector_baseIlSaIlEE19_M_get_Tp_allocatorEv = comdat any

$_ZNSt12_Vector_baseIlSaIlEE13_M_deallocateEPlm = comdat any

$_ZNKSt6vectorIlSaIlEE8max_sizeEv = comdat any

$_ZNKSt6vectorIlSaIlEE4sizeEv = comdat any

$_ZSt3maxImERKT_S2_S2_ = comdat any

$_ZNSt6vectorIlSaIlEE11_S_max_sizeERKS0_ = comdat any

$_ZNKSt12_Vector_baseIlSaIlEE19_M_get_Tp_allocatorEv = comdat any

$_ZNSt16allocator_traitsISaIlEE8max_sizeERKS0_ = comdat any

$_ZNKSt15__new_allocatorIlE8max_sizeEv = comdat any

$_ZNKSt15__new_allocatorIlE11_M_max_sizeEv = comdat any

$_ZN9__gnu_cxx17__normal_iteratorIPlSt6vectorIlSaIlEEEC2ERKS1_ = comdat any

$_ZNSt16allocator_traitsISaIlEE8allocateERS0_m = comdat any

$_ZNSt15__new_allocatorIlE8allocateEmPKv = comdat any

$_ZSt12__relocate_aIPlS0_SaIlEET0_T_S3_S2_RT1_ = comdat any

$_ZSt14__relocate_a_1IllENSt9enable_ifIXsr3std24__is_bitwise_relocatableIT_EE5valueEPS1_E4typeES2_S2_S2_RSaIT0_E = comdat any

$_ZSt12__niter_baseIPlET_S1_ = comdat any

$_ZNSt16allocator_traitsISaIlEE10deallocateERS0_Plm = comdat any

$_ZNSt15__new_allocatorIlE10deallocateEPlm = comdat any

$_ZNK9__gnu_cxx17__normal_iteratorIPlSt6vectorIlSaIlEEEmiEl = comdat any

$_ZNK9__gnu_cxx17__normal_iteratorIPlSt6vectorIlSaIlEEEdeEv = comdat any

$_ZNSt12__shared_ptrIN4node6crypto13KeyObjectDataELN9__gnu_cxx12_Lock_policyE2EEaSERKS5_ = comdat any

$_ZNSt12__shared_ptrIN4node6crypto13KeyObjectDataELN9__gnu_cxx12_Lock_policyE2EEC2Ev = comdat any

$_ZNSt10shared_ptrIN4node9MutexBaseINS0_16LibuvMutexTraitsEEEED2Ev = comdat any

$_ZNSt12__shared_ptrIN4node9MutexBaseINS0_16LibuvMutexTraitsEEELN9__gnu_cxx12_Lock_policyE2EED2Ev = comdat any

$_ZNK4node11IsolateData14jwk_kty_stringEv = comdat any

$_ZN4node28THROW_ERR_CRYPTO_INVALID_JWKEPN2v87IsolateE = comdat any

$_ZN4node22ERR_CRYPTO_INVALID_JWKIJEEEN2v85LocalINS1_5ValueEEEPNS1_7IsolateEPKcDpOT_ = comdat any

$_ZN4node28THROW_ERR_CRYPTO_INVALID_JWKIJEEEvPNS_11EnvironmentEPKcDpOT_ = comdat any

$_ZN4node28THROW_ERR_CRYPTO_INVALID_JWKIJEEEvPN2v87IsolateEPKcDpOT_ = comdat any

$_ZN4node28THROW_ERR_CRYPTO_INVALID_JWKIJRPKcEEEvPNS_11EnvironmentES2_DpOT_ = comdat any

$_ZN4node28THROW_ERR_CRYPTO_INVALID_JWKIJRPKcEEEvPN2v87IsolateES2_DpOT_ = comdat any

$_ZN4node22ERR_CRYPTO_INVALID_JWKIJRPKcEEEN2v85LocalINS4_5ValueEEEPNS4_7IsolateES2_DpOT_ = comdat any

$_ZN4node7SPrintFIJRPKcEEENSt7__cxx1112basic_stringIcSt11char_traitsIcESaIcEEES2_DpOT_ = comdat any

$_ZN4node11SPrintFImplIRPKcJEEENSt7__cxx1112basic_stringIcSt11char_traitsIcESaIcEEES2_OT_DpOT0_ = comdat any

$_ZStplIcSt11char_traitsIcESaIcEENSt7__cxx1112basic_stringIT_T0_T1_EERKS8_S5_ = comdat any

$_ZN4node8ToStringIPKcEENSt7__cxx1112basic_stringIcSt11char_traitsIcESaIcEEERKT_ = comdat any

$_ZN4node12ToBaseStringILj3EPKcEENSt7__cxx1112basic_stringIcSt11char_traitsIcESaIcEEERKT0_ = comdat any

$_ZN4node12ToBaseStringILj4EPKcEENSt7__cxx1112basic_stringIcSt11char_traitsIcESaIcEEERKT0_ = comdat any

$_ZN4node7ToUpperERKNSt7__cxx1112basic_stringIcSt11char_traitsIcESaIcEEE = comdat any

$_ZStplIcSt11char_traitsIcESaIcEENSt7__cxx1112basic_stringIT_T0_T1_EERKS8_OS8_ = comdat any

$_ZN4node14ToStringHelper7ConvertB5cxx11EPKc = comdat any

$_ZN4node14ToStringHelper11BaseConvertILj3EPKcvEENSt7__cxx1112basic_stringIcSt11char_traitsIcESaIcEEET0_ = comdat any

$_ZN4node14ToStringHelper11BaseConvertILj4EPKcvEENSt7__cxx1112basic_stringIcSt11char_traitsIcESaIcEEET0_ = comdat any

$_ZNSt7__cxx1112basic_stringIcSt11char_traitsIcESaIcEEC2IS3_EEmcRKS3_ = comdat any

$_ZN4node7ToUpperEc = comdat any

$_ZSt7toupperIcET_S0_RKSt6locale = comdat any

$_ZNKSt5ctypeIcE7toupperEc = comdat any

$_ZN4node38THROW_ERR_CRYPTO_UNSUPPORTED_OPERATIONEPN2v87IsolateE = comdat any

$_ZN4node32ERR_CRYPTO_UNSUPPORTED_OPERATIONIJEEEN2v85LocalINS1_5ValueEEEPNS1_7IsolateEPKcDpOT_ = comdat any

$_ZNK4node11Environment13length_stringEv = comdat any

$_ZNK4node11IsolateData13length_stringEv = comdat any

$_ZN4node32THROW_ERR_CRYPTO_INVALID_KEYTYPEEPNS_11EnvironmentE = comdat any

$_ZN4node32THROW_ERR_CRYPTO_INVALID_KEYTYPEEPN2v87IsolateE = comdat any

$_ZN4node26ERR_CRYPTO_INVALID_KEYTYPEIJEEEN2v85LocalINS1_5ValueEEEPNS1_7IsolateEPKcDpOT_ = comdat any

$_ZNK4node5Realm3envEv = comdat any

$_ZNK4node11IsolateData17crypto_rsa_stringEv = comdat any

$_ZNK4node11IsolateData21crypto_rsa_pss_stringEv = comdat any

$_ZNK4node11IsolateData17crypto_dsa_stringEv = comdat any

$_ZNK4node11IsolateData16crypto_dh_stringEv = comdat any

$_ZNK4node11IsolateData16crypto_ec_stringEv = comdat any

$_ZNK4node11IsolateData21crypto_ed25519_stringEv = comdat any

$_ZNK4node11IsolateData19crypto_ed448_stringEv = comdat any

$_ZNK4node11IsolateData20crypto_x25519_stringEv = comdat any

$_ZNK4node11IsolateData18crypto_x448_stringEv = comdat any

$_ZNKSt10unique_ptrIN4node14PrincipalRealmESt14default_deleteIS1_EEptEv = comdat any

$_ZN4node44THROW_ERR_MESSAGE_TARGET_CONTEXT_UNAVAILABLEEPN2v87IsolateE = comdat any

$_ZN4node38ERR_MESSAGE_TARGET_CONTEXT_UNAVAILABLEIJEEEN2v85LocalINS1_5ValueEEEPNS1_7IsolateEPKcDpOT_ = comdat any

$_ZN4node6worker12TransferDataD2Ev = comdat any

$_ZNK4node10BaseObject16IsWeakOrDetachedEv = comdat any

$_ZNK4node10BaseObject16has_pointer_dataEv = comdat any

$_ZN4node16LibuvMutexTraits10mutex_lockEP15pthread_mutex_t = comdat any

$_ZN4node16LibuvMutexTraits12mutex_unlockEP15pthread_mutex_t = comdat any

$_ZN2v85MaybeIbEC2Ev = comdat any

$_ZNSt10shared_ptrIN4node9MutexBaseINS0_16LibuvMutexTraitsEEEEC2ISaIvEJEEESt20_Sp_alloc_shared_tagIT_EDpOT0_ = comdat any

$_ZNSt12__shared_ptrIN4node9MutexBaseINS0_16LibuvMutexTraitsEEELN9__gnu_cxx12_Lock_policyE2EEC2ISaIvEJEEESt20_Sp_alloc_shared_tagIT_EDpOT0_ = comdat any

$_ZNSt14__shared_countILN9__gnu_cxx12_Lock_policyE2EEC2IN4node9MutexBaseINS4_16LibuvMutexTraitsEEESaIvEJEEERPT_St20_Sp_alloc_shared_tagIT0_EDpOT1_ = comdat any

$_ZNSt12__shared_ptrIN4node9MutexBaseINS0_16LibuvMutexTraitsEEELN9__gnu_cxx12_Lock_policyE2EE31_M_enable_shared_from_this_withIS3_S3_EENSt9enable_ifIXntsr15__has_esft_baseIT0_EE5valueEvE4typeEPT_ = comdat any

$_ZNSaISt23_Sp_counted_ptr_inplaceIN4node9MutexBaseINS0_16LibuvMutexTraitsEEESaIvELN9__gnu_cxx12_Lock_policyE2EEEC2IvEERKSaIT_E = comdat any

$_ZSt18__allocate_guardedISaISt23_Sp_counted_ptr_inplaceIN4node9MutexBaseINS1_16LibuvMutexTraitsEEESaIvELN9__gnu_cxx12_Lock_policyE2EEEESt15__allocated_ptrIT_ERSB_ = comdat any

$_ZNSt15__allocated_ptrISaISt23_Sp_counted_ptr_inplaceIN4node9MutexBaseINS1_16LibuvMutexTraitsEEESaIvELN9__gnu_cxx12_Lock_policyE2EEEE3getEv = comdat any

$_ZNSt23_Sp_counted_ptr_inplaceIN4node9MutexBaseINS0_16LibuvMutexTraitsEEESaIvELN9__gnu_cxx12_Lock_policyE2EEC2IJEEES4_DpOT_ = comdat any

$_ZNSt15__allocated_ptrISaISt23_Sp_counted_ptr_inplaceIN4node9MutexBaseINS1_16LibuvMutexTraitsEEESaIvELN9__gnu_cxx12_Lock_policyE2EEEEaSEDn = comdat any

$_ZNSt23_Sp_counted_ptr_inplaceIN4node9MutexBaseINS0_16LibuvMutexTraitsEEESaIvELN9__gnu_cxx12_Lock_policyE2EE6_M_ptrEv = comdat any

$_ZNSt15__allocated_ptrISaISt23_Sp_counted_ptr_inplaceIN4node9MutexBaseINS1_16LibuvMutexTraitsEEESaIvELN9__gnu_cxx12_Lock_policyE2EEEED2Ev = comdat any

$_ZNSaISt23_Sp_counted_ptr_inplaceIN4node9MutexBaseINS0_16LibuvMutexTraitsEEESaIvELN9__gnu_cxx12_Lock_policyE2EEED2Ev = comdat any

$_ZNSt15__new_allocatorISt23_Sp_counted_ptr_inplaceIN4node9MutexBaseINS1_16LibuvMutexTraitsEEESaIvELN9__gnu_cxx12_Lock_policyE2EEEC2Ev = comdat any

$_ZNSt16allocator_traitsISaISt23_Sp_counted_ptr_inplaceIN4node9MutexBaseINS1_16LibuvMutexTraitsEEESaIvELN9__gnu_cxx12_Lock_policyE2EEEE8allocateERS9_m = comdat any

$_ZNSt15__allocated_ptrISaISt23_Sp_counted_ptr_inplaceIN4node9MutexBaseINS1_16LibuvMutexTraitsEEESaIvELN9__gnu_cxx12_Lock_policyE2EEEEC2ERS9_PS8_ = comdat any

$_ZNSt15__new_allocatorISt23_Sp_counted_ptr_inplaceIN4node9MutexBaseINS1_16LibuvMutexTraitsEEESaIvELN9__gnu_cxx12_Lock_policyE2EEE8allocateEmPKv = comdat any

$_ZNKSt15__new_allocatorISt23_Sp_counted_ptr_inplaceIN4node9MutexBaseINS1_16LibuvMutexTraitsEEESaIvELN9__gnu_cxx12_Lock_policyE2EEE11_M_max_sizeEv = comdat any

$_ZSt12__to_addressISt23_Sp_counted_ptr_inplaceIN4node9MutexBaseINS1_16LibuvMutexTraitsEEESaIvELN9__gnu_cxx12_Lock_policyE2EEEPT_SA_ = comdat any

$_ZNSt16_Sp_counted_baseILN9__gnu_cxx12_Lock_policyE2EEC2Ev = comdat any

$_ZNSt23_Sp_counted_ptr_inplaceIN4node9MutexBaseINS0_16LibuvMutexTraitsEEESaIvELN9__gnu_cxx12_Lock_policyE2EE5_ImplC2ES4_ = comdat any

$_ZNSt16allocator_traitsISaIvEE9constructIN4node9MutexBaseINS3_16LibuvMutexTraitsEEEJEEEvRS0_PT_DpOT0_ = comdat any

$_ZNSt23_Sp_counted_ptr_inplaceIN4node9MutexBaseINS0_16LibuvMutexTraitsEEESaIvELN9__gnu_cxx12_Lock_policyE2EED2Ev = comdat any

$_ZNSt23_Sp_counted_ptr_inplaceIN4node9MutexBaseINS0_16LibuvMutexTraitsEEESaIvELN9__gnu_cxx12_Lock_policyE2EED0Ev = comdat any

$_ZNSt23_Sp_counted_ptr_inplaceIN4node9MutexBaseINS0_16LibuvMutexTraitsEEESaIvELN9__gnu_cxx12_Lock_policyE2EE10_M_disposeEv = comdat any

$_ZNSt23_Sp_counted_ptr_inplaceIN4node9MutexBaseINS0_16LibuvMutexTraitsEEESaIvELN9__gnu_cxx12_Lock_policyE2EE10_M_destroyEv = comdat any

$_ZNSt23_Sp_counted_ptr_inplaceIN4node9MutexBaseINS0_16LibuvMutexTraitsEEESaIvELN9__gnu_cxx12_Lock_policyE2EE14_M_get_deleterERKSt9type_info = comdat any

$_ZNSt16_Sp_counted_baseILN9__gnu_cxx12_Lock_policyE2EED2Ev = comdat any

$_ZNSt16_Sp_counted_baseILN9__gnu_cxx12_Lock_policyE2EED0Ev = comdat any

$_ZNSt16_Sp_counted_baseILN9__gnu_cxx12_Lock_policyE2EE10_M_destroyEv = comdat any

$_ZNSt14_Sp_ebo_helperILi0ESaIvELb1EEC2ERKS0_ = comdat any

$_ZSt10_ConstructIN4node9MutexBaseINS0_16LibuvMutexTraitsEEEJEEvPT_DpOT0_ = comdat any

$_ZN4node9MutexBaseINS_16LibuvMutexTraitsEEC2Ev = comdat any

$_ZN4node16LibuvMutexTraits10mutex_initEP15pthread_mutex_t = comdat any

$_ZNSt16allocator_traitsISaIvEE7destroyIN4node9MutexBaseINS3_16LibuvMutexTraitsEEEEEvRS0_PT_ = comdat any

$_ZNSt23_Sp_counted_ptr_inplaceIN4node9MutexBaseINS0_16LibuvMutexTraitsEEESaIvELN9__gnu_cxx12_Lock_policyE2EE5_Impl8_M_allocEv = comdat any

$_ZSt8_DestroyIN4node9MutexBaseINS0_16LibuvMutexTraitsEEEEvPT_ = comdat any

$_ZN4node9MutexBaseINS_16LibuvMutexTraitsEED2Ev = comdat any

$_ZN4node16LibuvMutexTraits13mutex_destroyEP15pthread_mutex_t = comdat any

$_ZNSt14_Sp_ebo_helperILi0ESaIvELb1EE6_S_getERS1_ = comdat any

$_ZNSt19_Sp_make_shared_tag5_S_tiEv = comdat any

$_ZN9__gnu_cxx16__aligned_bufferIN4node9MutexBaseINS1_16LibuvMutexTraitsEEEE6_M_ptrEv = comdat any

$_ZN9__gnu_cxx16__aligned_bufferIN4node9MutexBaseINS1_16LibuvMutexTraitsEEEE7_M_addrEv = comdat any

$_ZNSt16allocator_traitsISaISt23_Sp_counted_ptr_inplaceIN4node9MutexBaseINS1_16LibuvMutexTraitsEEESaIvELN9__gnu_cxx12_Lock_policyE2EEEE10deallocateERS9_PS8_m = comdat any

$_ZNSt15__new_allocatorISt23_Sp_counted_ptr_inplaceIN4node9MutexBaseINS1_16LibuvMutexTraitsEEESaIvELN9__gnu_cxx12_Lock_policyE2EEE10deallocateEPS8_m = comdat any

$_ZNSt15__new_allocatorISt23_Sp_counted_ptr_inplaceIN4node9MutexBaseINS1_16LibuvMutexTraitsEEESaIvELN9__gnu_cxx12_Lock_policyE2EEED2Ev = comdat any

$_ZNSt10unique_ptrI11evp_pkey_stN4node15FunctionDeleterIS0_XadL_Z13EVP_PKEY_freeEEEEE11get_deleterEv = comdat any

$_ZNK4node15FunctionDeleterI11evp_pkey_stXadL_Z13EVP_PKEY_freeEEEclEPS1_ = comdat any

$_ZNSt15__uniq_ptr_implI11evp_pkey_stN4node15FunctionDeleterIS0_XadL_Z13EVP_PKEY_freeEEEEE10_M_deleterEv = comdat any

$_ZSt3getILm1EJP11evp_pkey_stN4node15FunctionDeleterIS0_XadL_Z13EVP_PKEY_freeEEEEEERNSt13tuple_elementIXT_ESt5tupleIJDpT0_EEE4typeERS9_ = comdat any

$_ZSt12__get_helperILm1EN4node15FunctionDeleterI11evp_pkey_stXadL_Z13EVP_PKEY_freeEEEEJEERT0_RSt11_Tuple_implIXT_EJS4_DpT1_EE = comdat any

$_ZNSt11_Tuple_implILm1EJN4node15FunctionDeleterI11evp_pkey_stXadL_Z13EVP_PKEY_freeEEEEEE7_M_headERS4_ = comdat any

$_ZNSt10_Head_baseILm1EN4node15FunctionDeleterI11evp_pkey_stXadL_Z13EVP_PKEY_freeEEEELb1EE7_M_headERS4_ = comdat any

$_ZNKSt15__uniq_ptr_implI6bio_stN4node15FunctionDeleterIS0_XadL_Z12BIO_free_allEEEEE6_M_ptrEv = comdat any

$_ZSt3getILm0EJP6bio_stN4node15FunctionDeleterIS0_XadL_Z12BIO_free_allEEEEEERKNSt13tuple_elementIXT_ESt5tupleIJDpT0_EEE4typeERKS9_ = comdat any

$_ZSt12__get_helperILm0EP6bio_stJN4node15FunctionDeleterIS0_XadL_Z12BIO_free_allEEEEEERKT0_RKSt11_Tuple_implIXT_EJS5_DpT1_EE = comdat any

$_ZNSt11_Tuple_implILm0EJP6bio_stN4node15FunctionDeleterIS0_XadL_Z12BIO_free_allEEEEEE7_M_headERKS5_ = comdat any

$_ZNSt10_Head_baseILm0EP6bio_stLb0EE7_M_headERKS2_ = comdat any

$_ZNSt15__uniq_ptr_implI11evp_pkey_stN4node15FunctionDeleterIS0_XadL_Z13EVP_PKEY_freeEEEEE5resetEPS0_ = comdat any

$_ZNSt15__uniq_ptr_dataI6bio_stN4node15FunctionDeleterIS0_XadL_Z12BIO_free_allEEEELb1ELb1EECI2St15__uniq_ptr_implIS0_S3_EEPS0_ = comdat any

$_ZNSt15__uniq_ptr_implI6bio_stN4node15FunctionDeleterIS0_XadL_Z12BIO_free_allEEEEEC2EPS0_ = comdat any

$_ZNSt5tupleIJP6bio_stN4node15FunctionDeleterIS0_XadL_Z12BIO_free_allEEEEEEC2ILb1ETnNSt9enable_ifIXclsr17_TupleConstraintsIXT_ES1_S4_EE37__is_implicitly_default_constructibleEEbE4typeELb1EEEv = comdat any

$_ZNSt15__uniq_ptr_implI6bio_stN4node15FunctionDeleterIS0_XadL_Z12BIO_free_allEEEEE6_M_ptrEv = comdat any

$_ZNSt11_Tuple_implILm0EJP6bio_stN4node15FunctionDeleterIS0_XadL_Z12BIO_free_allEEEEEEC2Ev = comdat any

$_ZNSt11_Tuple_implILm1EJN4node15FunctionDeleterI6bio_stXadL_Z12BIO_free_allEEEEEEC2Ev = comdat any

$_ZNSt10_Head_baseILm0EP6bio_stLb0EEC2Ev = comdat any

$_ZNSt10_Head_baseILm1EN4node15FunctionDeleterI6bio_stXadL_Z12BIO_free_allEEEELb1EEC2Ev = comdat any

$_ZSt3getILm0EJP6bio_stN4node15FunctionDeleterIS0_XadL_Z12BIO_free_allEEEEEERNSt13tuple_elementIXT_ESt5tupleIJDpT0_EEE4typeERS9_ = comdat any

$_ZSt12__get_helperILm0EP6bio_stJN4node15FunctionDeleterIS0_XadL_Z12BIO_free_allEEEEEERT0_RSt11_Tuple_implIXT_EJS5_DpT1_EE = comdat any

$_ZNSt11_Tuple_implILm0EJP6bio_stN4node15FunctionDeleterIS0_XadL_Z12BIO_free_allEEEEEE7_M_headERS5_ = comdat any

$_ZNSt10_Head_baseILm0EP6bio_stLb0EE7_M_headERS2_ = comdat any

$_ZNSt10unique_ptrI6bio_stN4node15FunctionDeleterIS0_XadL_Z12BIO_free_allEEEEE11get_deleterEv = comdat any

$_ZNK4node15FunctionDeleterI6bio_stXadL_Z12BIO_free_allEEEclEPS1_ = comdat any

$_ZNSt15__uniq_ptr_implI6bio_stN4node15FunctionDeleterIS0_XadL_Z12BIO_free_allEEEEE10_M_deleterEv = comdat any

$_ZSt3getILm1EJP6bio_stN4node15FunctionDeleterIS0_XadL_Z12BIO_free_allEEEEEERNSt13tuple_elementIXT_ESt5tupleIJDpT0_EEE4typeERS9_ = comdat any

$_ZSt12__get_helperILm1EN4node15FunctionDeleterI6bio_stXadL_Z12BIO_free_allEEEEJEERT0_RSt11_Tuple_implIXT_EJS4_DpT1_EE = comdat any

$_ZNSt11_Tuple_implILm1EJN4node15FunctionDeleterI6bio_stXadL_Z12BIO_free_allEEEEEE7_M_headERS4_ = comdat any

$_ZNSt10_Head_baseILm1EN4node15FunctionDeleterI6bio_stXadL_Z12BIO_free_allEEEELb1EE7_M_headERS4_ = comdat any

$_ZNSt15__uniq_ptr_dataI22pkcs8_priv_key_info_stN4node15FunctionDeleterIS0_XadL_Z24PKCS8_PRIV_KEY_INFO_freeEEEELb1ELb1EECI2St15__uniq_ptr_implIS0_S3_EEPS0_ = comdat any

$_ZNSt15__uniq_ptr_implI22pkcs8_priv_key_info_stN4node15FunctionDeleterIS0_XadL_Z24PKCS8_PRIV_KEY_INFO_freeEEEEEC2EPS0_ = comdat any

$_ZNSt5tupleIJP22pkcs8_priv_key_info_stN4node15FunctionDeleterIS0_XadL_Z24PKCS8_PRIV_KEY_INFO_freeEEEEEEC2ILb1ETnNSt9enable_ifIXclsr17_TupleConstraintsIXT_ES1_S4_EE37__is_implicitly_default_constructibleEEbE4typeELb1EEEv = comdat any

$_ZNSt15__uniq_ptr_implI22pkcs8_priv_key_info_stN4node15FunctionDeleterIS0_XadL_Z24PKCS8_PRIV_KEY_INFO_freeEEEEE6_M_ptrEv = comdat any

$_ZNSt11_Tuple_implILm0EJP22pkcs8_priv_key_info_stN4node15FunctionDeleterIS0_XadL_Z24PKCS8_PRIV_KEY_INFO_freeEEEEEEC2Ev = comdat any

$_ZNSt11_Tuple_implILm1EJN4node15FunctionDeleterI22pkcs8_priv_key_info_stXadL_Z24PKCS8_PRIV_KEY_INFO_freeEEEEEEC2Ev = comdat any

$_ZNSt10_Head_baseILm0EP22pkcs8_priv_key_info_stLb0EEC2Ev = comdat any

$_ZNSt10_Head_baseILm1EN4node15FunctionDeleterI22pkcs8_priv_key_info_stXadL_Z24PKCS8_PRIV_KEY_INFO_freeEEEELb1EEC2Ev = comdat any

$_ZSt3getILm0EJP22pkcs8_priv_key_info_stN4node15FunctionDeleterIS0_XadL_Z24PKCS8_PRIV_KEY_INFO_freeEEEEEERNSt13tuple_elementIXT_ESt5tupleIJDpT0_EEE4typeERS9_ = comdat any

$_ZSt12__get_helperILm0EP22pkcs8_priv_key_info_stJN4node15FunctionDeleterIS0_XadL_Z24PKCS8_PRIV_KEY_INFO_freeEEEEEERT0_RSt11_Tuple_implIXT_EJS5_DpT1_EE = comdat any

$_ZNSt11_Tuple_implILm0EJP22pkcs8_priv_key_info_stN4node15FunctionDeleterIS0_XadL_Z24PKCS8_PRIV_KEY_INFO_freeEEEEEE7_M_headERS5_ = comdat any

$_ZNSt10_Head_baseILm0EP22pkcs8_priv_key_info_stLb0EE7_M_headERS2_ = comdat any

$_ZNSt10unique_ptrI22pkcs8_priv_key_info_stN4node15FunctionDeleterIS0_XadL_Z24PKCS8_PRIV_KEY_INFO_freeEEEEE11get_deleterEv = comdat any

$_ZNK4node15FunctionDeleterI22pkcs8_priv_key_info_stXadL_Z24PKCS8_PRIV_KEY_INFO_freeEEEclEPS1_ = comdat any

$_ZNSt15__uniq_ptr_implI22pkcs8_priv_key_info_stN4node15FunctionDeleterIS0_XadL_Z24PKCS8_PRIV_KEY_INFO_freeEEEEE10_M_deleterEv = comdat any

$_ZSt3getILm1EJP22pkcs8_priv_key_info_stN4node15FunctionDeleterIS0_XadL_Z24PKCS8_PRIV_KEY_INFO_freeEEEEEERNSt13tuple_elementIXT_ESt5tupleIJDpT0_EEE4typeERS9_ = comdat any

$_ZSt12__get_helperILm1EN4node15FunctionDeleterI22pkcs8_priv_key_info_stXadL_Z24PKCS8_PRIV_KEY_INFO_freeEEEEJEERT0_RSt11_Tuple_implIXT_EJS4_DpT1_EE = comdat any

$_ZNSt11_Tuple_implILm1EJN4node15FunctionDeleterI22pkcs8_priv_key_info_stXadL_Z24PKCS8_PRIV_KEY_INFO_freeEEEEEE7_M_headERS4_ = comdat any

$_ZNSt10_Head_baseILm1EN4node15FunctionDeleterI22pkcs8_priv_key_info_stXadL_Z24PKCS8_PRIV_KEY_INFO_freeEEEELb1EE7_M_headERS4_ = comdat any

$_ZNKSt15__uniq_ptr_implI22pkcs8_priv_key_info_stN4node15FunctionDeleterIS0_XadL_Z24PKCS8_PRIV_KEY_INFO_freeEEEEE6_M_ptrEv = comdat any

$_ZSt3getILm0EJP22pkcs8_priv_key_info_stN4node15FunctionDeleterIS0_XadL_Z24PKCS8_PRIV_KEY_INFO_freeEEEEEERKNSt13tuple_elementIXT_ESt5tupleIJDpT0_EEE4typeERKS9_ = comdat any

$_ZSt12__get_helperILm0EP22pkcs8_priv_key_info_stJN4node15FunctionDeleterIS0_XadL_Z24PKCS8_PRIV_KEY_INFO_freeEEEEEERKT0_RKSt11_Tuple_implIXT_EJS5_DpT1_EE = comdat any

$_ZNSt11_Tuple_implILm0EJP22pkcs8_priv_key_info_stN4node15FunctionDeleterIS0_XadL_Z24PKCS8_PRIV_KEY_INFO_freeEEEEEE7_M_headERKS5_ = comdat any

$_ZNSt10_Head_baseILm0EP22pkcs8_priv_key_info_stLb0EE7_M_headERKS2_ = comdat any

$_ZNSt15__uniq_ptr_dataI9ec_key_stN4node15FunctionDeleterIS0_XadL_Z11EC_KEY_freeEEEELb1ELb1EECI2St15__uniq_ptr_implIS0_S3_EEPS0_ = comdat any

$_ZNSt15__uniq_ptr_implI9ec_key_stN4node15FunctionDeleterIS0_XadL_Z11EC_KEY_freeEEEEEC2EPS0_ = comdat any

$_ZNSt5tupleIJP9ec_key_stN4node15FunctionDeleterIS0_XadL_Z11EC_KEY_freeEEEEEEC2ILb1ETnNSt9enable_ifIXclsr17_TupleConstraintsIXT_ES1_S4_EE37__is_implicitly_default_constructibleEEbE4typeELb1EEEv = comdat any

$_ZNSt15__uniq_ptr_implI9ec_key_stN4node15FunctionDeleterIS0_XadL_Z11EC_KEY_freeEEEEE6_M_ptrEv = comdat any

$_ZNSt11_Tuple_implILm0EJP9ec_key_stN4node15FunctionDeleterIS0_XadL_Z11EC_KEY_freeEEEEEEC2Ev = comdat any

$_ZNSt11_Tuple_implILm1EJN4node15FunctionDeleterI9ec_key_stXadL_Z11EC_KEY_freeEEEEEEC2Ev = comdat any

$_ZNSt10_Head_baseILm0EP9ec_key_stLb0EEC2Ev = comdat any

$_ZNSt10_Head_baseILm1EN4node15FunctionDeleterI9ec_key_stXadL_Z11EC_KEY_freeEEEELb1EEC2Ev = comdat any

$_ZSt3getILm0EJP9ec_key_stN4node15FunctionDeleterIS0_XadL_Z11EC_KEY_freeEEEEEERNSt13tuple_elementIXT_ESt5tupleIJDpT0_EEE4typeERS9_ = comdat any

$_ZSt12__get_helperILm0EP9ec_key_stJN4node15FunctionDeleterIS0_XadL_Z11EC_KEY_freeEEEEEERT0_RSt11_Tuple_implIXT_EJS5_DpT1_EE = comdat any

$_ZNSt11_Tuple_implILm0EJP9ec_key_stN4node15FunctionDeleterIS0_XadL_Z11EC_KEY_freeEEEEEE7_M_headERS5_ = comdat any

$_ZNSt10_Head_baseILm0EP9ec_key_stLb0EE7_M_headERS2_ = comdat any

$_ZNSt10unique_ptrI9ec_key_stN4node15FunctionDeleterIS0_XadL_Z11EC_KEY_freeEEEEE11get_deleterEv = comdat any

$_ZNK4node15FunctionDeleterI9ec_key_stXadL_Z11EC_KEY_freeEEEclEPS1_ = comdat any

$_ZNSt15__uniq_ptr_implI9ec_key_stN4node15FunctionDeleterIS0_XadL_Z11EC_KEY_freeEEEEE10_M_deleterEv = comdat any

$_ZSt3getILm1EJP9ec_key_stN4node15FunctionDeleterIS0_XadL_Z11EC_KEY_freeEEEEEERNSt13tuple_elementIXT_ESt5tupleIJDpT0_EEE4typeERS9_ = comdat any

$_ZSt12__get_helperILm1EN4node15FunctionDeleterI9ec_key_stXadL_Z11EC_KEY_freeEEEEJEERT0_RSt11_Tuple_implIXT_EJS4_DpT1_EE = comdat any

$_ZNSt11_Tuple_implILm1EJN4node15FunctionDeleterI9ec_key_stXadL_Z11EC_KEY_freeEEEEEE7_M_headERS4_ = comdat any

$_ZNSt10_Head_baseILm1EN4node15FunctionDeleterI9ec_key_stXadL_Z11EC_KEY_freeEEEELb1EE7_M_headERS4_ = comdat any

$_ZNKSt15__uniq_ptr_implI9ec_key_stN4node15FunctionDeleterIS0_XadL_Z11EC_KEY_freeEEEEE6_M_ptrEv = comdat any

$_ZSt3getILm0EJP9ec_key_stN4node15FunctionDeleterIS0_XadL_Z11EC_KEY_freeEEEEEERKNSt13tuple_elementIXT_ESt5tupleIJDpT0_EEE4typeERKS9_ = comdat any

$_ZSt12__get_helperILm0EP9ec_key_stJN4node15FunctionDeleterIS0_XadL_Z11EC_KEY_freeEEEEEERKT0_RKSt11_Tuple_implIXT_EJS5_DpT1_EE = comdat any

$_ZNSt11_Tuple_implILm0EJP9ec_key_stN4node15FunctionDeleterIS0_XadL_Z11EC_KEY_freeEEEEEE7_M_headERKS5_ = comdat any

$_ZNSt10_Head_baseILm0EP9ec_key_stLb0EE7_M_headERKS2_ = comdat any

$_ZNKSt19__shared_ptr_accessIN4node6crypto13KeyObjectDataELN9__gnu_cxx12_Lock_policyE2ELb0ELb0EE6_M_getEv = comdat any

$_ZNKSt12__shared_ptrIN4node6crypto13KeyObjectDataELN9__gnu_cxx12_Lock_policyE2EE3getEv = comdat any

$_ZNKSt19__shared_ptr_accessIN4node9MutexBaseINS0_16LibuvMutexTraitsEEELN9__gnu_cxx12_Lock_policyE2ELb0ELb0EE6_M_getEv = comdat any

$_ZNKSt15__uniq_ptr_implI11evp_pkey_stN4node15FunctionDeleterIS0_XadL_Z13EVP_PKEY_freeEEEEE6_M_ptrEv = comdat any

$_ZSt3getILm0EJP11evp_pkey_stN4node15FunctionDeleterIS0_XadL_Z13EVP_PKEY_freeEEEEEERKNSt13tuple_elementIXT_ESt5tupleIJDpT0_EEE4typeERKS9_ = comdat any

$_ZSt12__get_helperILm0EP11evp_pkey_stJN4node15FunctionDeleterIS0_XadL_Z13EVP_PKEY_freeEEEEEERKT0_RKSt11_Tuple_implIXT_EJS5_DpT1_EE = comdat any

$_ZNSt11_Tuple_implILm0EJP11evp_pkey_stN4node15FunctionDeleterIS0_XadL_Z13EVP_PKEY_freeEEEEEE7_M_headERKS5_ = comdat any

$_ZNSt10_Head_baseILm0EP11evp_pkey_stLb0EE7_M_headERKS2_ = comdat any

$_ZN4node22THROW_ERR_OUT_OF_RANGEIJEEEvPN2v87IsolateEPKcDpOT_ = comdat any

$_ZN4node16ERR_OUT_OF_RANGEIJEEEN2v85LocalINS1_5ValueEEEPNS1_7IsolateEPKcDpOT_ = comdat any

$_ZN4node6crypto10ByteSource7BuilderC2Em = comdat any

$_ZN4node6crypto10ByteSource7Builder4dataIvEEPT_v = comdat any

$_ZNK4node6crypto25ArrayBufferOrViewContentsIcE4dataEv = comdat any

$_ZN4node6crypto10ByteSource7Builder4dataIcEEPT_v = comdat any

$_ZNO4node6crypto10ByteSource7Builder7releaseESt8optionalImE = comdat any

$_ZNSt8optionalImEC2ImTnNSt9enable_ifIX7__and_vISt6__not_ISt7is_sameIS0_NSt9remove_cvINSt16remove_referenceIT_E4typeEE4typeEEES3_IS4_ISt10in_place_tSB_EESt16is_constructibleImJS7_EESt14is_convertibleIS7_mEEEbE4typeELb1EEEOS7_ = comdat any

$_ZN4node6crypto10ByteSource7BuilderD2Ev = comdat any

$_ZN4node6crypto13MallocOpenSSLIcEEPT_m = comdat any

$_ZN4node25MultiplyWithOverflowCheckImEET_S1_S1_ = comdat any

$_ZNKSt8optionalImEcvbEv = comdat any

$_ZNRSt8optionalImEdeEv = comdat any

$_ZNKSt19_Optional_base_implImSt14_Optional_baseImLb1ELb1EEE13_M_is_engagedEv = comdat any

$_ZNSt19_Optional_base_implImSt14_Optional_baseImLb1ELb1EEE6_M_getEv = comdat any

$_ZNSt22_Optional_payload_baseImE6_M_getEv = comdat any

$_ZNSt14_Optional_baseImLb1ELb1EEC2IJmETnNSt9enable_ifIX18is_constructible_vImDpT_EEbE4typeELb0EEESt10in_place_tDpOS3_ = comdat any

$_ZNSt17_Optional_payloadImLb1ELb1ELb1EECI2St22_Optional_payload_baseImEIJmEEESt10in_place_tDpOT_ = comdat any

$_ZNSt22_Optional_payload_baseImEC2IJmEEESt10in_place_tDpOT_ = comdat any

$_ZNSt22_Optional_payload_baseImE8_StorageImLb1EEC2IJmEEESt10in_place_tDpOT_ = comdat any

$_ZN4node10BaseObject12FromJSObjectINS_6crypto15KeyObjectHandleEEEPT_N2v85LocalINS6_5ValueEEE = comdat any

$_ZN4node28THROW_ERR_MISSING_PASSPHRASEIJEEEvPN2v87IsolateEPKcDpOT_ = comdat any

$_ZN4node22ERR_MISSING_PASSPHRASEIJEEEN2v85LocalINS1_5ValueEEEPNS1_7IsolateEPKcDpOT_ = comdat any

$_ZNSt12__shared_ptrIN4node6crypto13KeyObjectDataELN9__gnu_cxx12_Lock_policyE2EEC2IS2_vEEPT_ = comdat any

$_ZNSt14__shared_countILN9__gnu_cxx12_Lock_policyE2EEC2IPN4node6crypto13KeyObjectDataEEET_St17integral_constantIbLb0EE = comdat any

$_ZNSt12__shared_ptrIN4node6crypto13KeyObjectDataELN9__gnu_cxx12_Lock_policyE2EE31_M_enable_shared_from_this_withIS2_S2_EENSt9enable_ifIXntsr15__has_esft_baseIT0_EE5valueEvE4typeEPT_ = comdat any

$_ZNSt14__shared_countILN9__gnu_cxx12_Lock_policyE2EEC2IPN4node6crypto13KeyObjectDataEEET_ = comdat any

$_ZNSt15_Sp_counted_ptrIPN4node6crypto13KeyObjectDataELN9__gnu_cxx12_Lock_policyE2EEC2ES3_ = comdat any

$_ZNSt15_Sp_counted_ptrIPN4node6crypto13KeyObjectDataELN9__gnu_cxx12_Lock_policyE2EED2Ev = comdat any

$_ZNSt15_Sp_counted_ptrIPN4node6crypto13KeyObjectDataELN9__gnu_cxx12_Lock_policyE2EED0Ev = comdat any

$_ZNSt15_Sp_counted_ptrIPN4node6crypto13KeyObjectDataELN9__gnu_cxx12_Lock_policyE2EE10_M_disposeEv = comdat any

$_ZNSt15_Sp_counted_ptrIPN4node6crypto13KeyObjectDataELN9__gnu_cxx12_Lock_policyE2EE10_M_destroyEv = comdat any

$_ZNSt15_Sp_counted_ptrIPN4node6crypto13KeyObjectDataELN9__gnu_cxx12_Lock_policyE2EE14_M_get_deleterERKSt9type_info = comdat any

$_ZNSt8optionalImEC2ESt9nullopt_t = comdat any

$_ZNSt14_Optional_baseImLb1ELb1EEC2Ev = comdat any

$_ZNSt17_Optional_payloadImLb1ELb1ELb1EEC2Ev = comdat any

$_ZNSt22_Optional_payload_baseImEC2Ev = comdat any

$_ZNSt22_Optional_payload_baseImE8_StorageImLb1EEC2Ev = comdat any

$_ZNSt12__shared_ptrIN4node6crypto13KeyObjectDataELN9__gnu_cxx12_Lock_policyE2EEaSEOS5_ = comdat any

$_ZNSt12__shared_ptrIN4node6crypto13KeyObjectDataELN9__gnu_cxx12_Lock_policyE2EEC2EOS5_ = comdat any

$_ZNSt12__shared_ptrIN4node6crypto13KeyObjectDataELN9__gnu_cxx12_Lock_policyE2EE4swapERS5_ = comdat any

$_ZNSt12__shared_ptrIN4node6crypto13KeyObjectDataELN9__gnu_cxx12_Lock_policyE2EED2Ev = comdat any

$_ZNSt14__shared_countILN9__gnu_cxx12_Lock_policyE2EE7_M_swapERS2_ = comdat any

$_ZSt4swapIPN4node6crypto13KeyObjectDataEENSt9enable_ifIXsr6__and_ISt6__not_ISt15__is_tuple_likeIT_EESt21is_move_constructibleIS7_ESt18is_move_assignableIS7_EEE5valueEvE4typeERS7_SG_ = comdat any

$_ZNSt15__uniq_ptr_implI11ec_point_stN4node15FunctionDeleterIS0_XadL_Z13EC_POINT_freeEEEEE6_M_ptrEv = comdat any

$_ZNSt10unique_ptrI11ec_point_stN4node15FunctionDeleterIS0_XadL_Z13EC_POINT_freeEEEEE11get_deleterEv = comdat any

$_ZNK4node15FunctionDeleterI11ec_point_stXadL_Z13EC_POINT_freeEEEclEPS1_ = comdat any

$_ZSt3getILm0EJP11ec_point_stN4node15FunctionDeleterIS0_XadL_Z13EC_POINT_freeEEEEEERNSt13tuple_elementIXT_ESt5tupleIJDpT0_EEE4typeERS9_ = comdat any

$_ZSt12__get_helperILm0EP11ec_point_stJN4node15FunctionDeleterIS0_XadL_Z13EC_POINT_freeEEEEEERT0_RSt11_Tuple_implIXT_EJS5_DpT1_EE = comdat any

$_ZNSt11_Tuple_implILm0EJP11ec_point_stN4node15FunctionDeleterIS0_XadL_Z13EC_POINT_freeEEEEEE7_M_headERS5_ = comdat any

$_ZNSt10_Head_baseILm0EP11ec_point_stLb0EE7_M_headERS2_ = comdat any

$_ZNSt15__uniq_ptr_implI11ec_point_stN4node15FunctionDeleterIS0_XadL_Z13EC_POINT_freeEEEEE10_M_deleterEv = comdat any

$_ZSt3getILm1EJP11ec_point_stN4node15FunctionDeleterIS0_XadL_Z13EC_POINT_freeEEEEEERNSt13tuple_elementIXT_ESt5tupleIJDpT0_EEE4typeERS9_ = comdat any

$_ZSt12__get_helperILm1EN4node15FunctionDeleterI11ec_point_stXadL_Z13EC_POINT_freeEEEEJEERT0_RSt11_Tuple_implIXT_EJS4_DpT1_EE = comdat any

$_ZNSt11_Tuple_implILm1EJN4node15FunctionDeleterI11ec_point_stXadL_Z13EC_POINT_freeEEEEEE7_M_headERS4_ = comdat any

$_ZNSt10_Head_baseILm1EN4node15FunctionDeleterI11ec_point_stXadL_Z13EC_POINT_freeEEEELb1EE7_M_headERS4_ = comdat any

$_ZNKSt15__uniq_ptr_implI11ec_point_stN4node15FunctionDeleterIS0_XadL_Z13EC_POINT_freeEEEEE6_M_ptrEv = comdat any

$_ZSt3getILm0EJP11ec_point_stN4node15FunctionDeleterIS0_XadL_Z13EC_POINT_freeEEEEEERKNSt13tuple_elementIXT_ESt5tupleIJDpT0_EEE4typeERKS9_ = comdat any

$_ZSt12__get_helperILm0EP11ec_point_stJN4node15FunctionDeleterIS0_XadL_Z13EC_POINT_freeEEEEEERKT0_RKSt11_Tuple_implIXT_EJS5_DpT1_EE = comdat any

$_ZNSt11_Tuple_implILm0EJP11ec_point_stN4node15FunctionDeleterIS0_XadL_Z13EC_POINT_freeEEEEEE7_M_headERKS5_ = comdat any

$_ZNSt10_Head_baseILm0EP11ec_point_stLb0EE7_M_headERKS2_ = comdat any

$_ZNSt15__uniq_ptr_dataI11evp_pkey_stN4node15FunctionDeleterIS0_XadL_Z13EVP_PKEY_freeEEEELb1ELb1EECI2St15__uniq_ptr_implIS0_S3_EEPS0_ = comdat any

$_ZNSt15__uniq_ptr_implI11evp_pkey_stN4node15FunctionDeleterIS0_XadL_Z13EVP_PKEY_freeEEEEEC2EPS0_ = comdat any

$_ZNSt15__uniq_ptr_implI9ec_key_stN4node15FunctionDeleterIS0_XadL_Z11EC_KEY_freeEEEEE7releaseEv = comdat any

$_ZNSt15__uniq_ptr_dataI15evp_pkey_ctx_stN4node15FunctionDeleterIS0_XadL_Z17EVP_PKEY_CTX_freeEEEELb1ELb1EECI2St15__uniq_ptr_implIS0_S3_EEPS0_ = comdat any

$_ZNSt15__uniq_ptr_implI15evp_pkey_ctx_stN4node15FunctionDeleterIS0_XadL_Z17EVP_PKEY_CTX_freeEEEEEC2EPS0_ = comdat any

$_ZNSt5tupleIJP15evp_pkey_ctx_stN4node15FunctionDeleterIS0_XadL_Z17EVP_PKEY_CTX_freeEEEEEEC2ILb1ETnNSt9enable_ifIXclsr17_TupleConstraintsIXT_ES1_S4_EE37__is_implicitly_default_constructibleEEbE4typeELb1EEEv = comdat any

$_ZNSt15__uniq_ptr_implI15evp_pkey_ctx_stN4node15FunctionDeleterIS0_XadL_Z17EVP_PKEY_CTX_freeEEEEE6_M_ptrEv = comdat any

$_ZNSt11_Tuple_implILm0EJP15evp_pkey_ctx_stN4node15FunctionDeleterIS0_XadL_Z17EVP_PKEY_CTX_freeEEEEEEC2Ev = comdat any

$_ZNSt11_Tuple_implILm1EJN4node15FunctionDeleterI15evp_pkey_ctx_stXadL_Z17EVP_PKEY_CTX_freeEEEEEEC2Ev = comdat any

$_ZNSt10_Head_baseILm0EP15evp_pkey_ctx_stLb0EEC2Ev = comdat any

$_ZNSt10_Head_baseILm1EN4node15FunctionDeleterI15evp_pkey_ctx_stXadL_Z17EVP_PKEY_CTX_freeEEEELb1EEC2Ev = comdat any

$_ZSt3getILm0EJP15evp_pkey_ctx_stN4node15FunctionDeleterIS0_XadL_Z17EVP_PKEY_CTX_freeEEEEEERNSt13tuple_elementIXT_ESt5tupleIJDpT0_EEE4typeERS9_ = comdat any

$_ZSt12__get_helperILm0EP15evp_pkey_ctx_stJN4node15FunctionDeleterIS0_XadL_Z17EVP_PKEY_CTX_freeEEEEEERT0_RSt11_Tuple_implIXT_EJS5_DpT1_EE = comdat any

$_ZNSt11_Tuple_implILm0EJP15evp_pkey_ctx_stN4node15FunctionDeleterIS0_XadL_Z17EVP_PKEY_CTX_freeEEEEEE7_M_headERS5_ = comdat any

$_ZNSt10_Head_baseILm0EP15evp_pkey_ctx_stLb0EE7_M_headERS2_ = comdat any

$_ZNSt10unique_ptrI15evp_pkey_ctx_stN4node15FunctionDeleterIS0_XadL_Z17EVP_PKEY_CTX_freeEEEEE11get_deleterEv = comdat any

$_ZNK4node15FunctionDeleterI15evp_pkey_ctx_stXadL_Z17EVP_PKEY_CTX_freeEEEclEPS1_ = comdat any

$_ZNSt15__uniq_ptr_implI15evp_pkey_ctx_stN4node15FunctionDeleterIS0_XadL_Z17EVP_PKEY_CTX_freeEEEEE10_M_deleterEv = comdat any

$_ZSt3getILm1EJP15evp_pkey_ctx_stN4node15FunctionDeleterIS0_XadL_Z17EVP_PKEY_CTX_freeEEEEEERNSt13tuple_elementIXT_ESt5tupleIJDpT0_EEE4typeERS9_ = comdat any

$_ZSt12__get_helperILm1EN4node15FunctionDeleterI15evp_pkey_ctx_stXadL_Z17EVP_PKEY_CTX_freeEEEEJEERT0_RSt11_Tuple_implIXT_EJS4_DpT1_EE = comdat any

$_ZNSt11_Tuple_implILm1EJN4node15FunctionDeleterI15evp_pkey_ctx_stXadL_Z17EVP_PKEY_CTX_freeEEEEEE7_M_headERS4_ = comdat any

$_ZNSt10_Head_baseILm1EN4node15FunctionDeleterI15evp_pkey_ctx_stXadL_Z17EVP_PKEY_CTX_freeEEEELb1EE7_M_headERS4_ = comdat any

$_ZNKSt15__uniq_ptr_implI15evp_pkey_ctx_stN4node15FunctionDeleterIS0_XadL_Z17EVP_PKEY_CTX_freeEEEEE6_M_ptrEv = comdat any

$_ZSt3getILm0EJP15evp_pkey_ctx_stN4node15FunctionDeleterIS0_XadL_Z17EVP_PKEY_CTX_freeEEEEEERKNSt13tuple_elementIXT_ESt5tupleIJDpT0_EEE4typeERKS9_ = comdat any

$_ZSt12__get_helperILm0EP15evp_pkey_ctx_stJN4node15FunctionDeleterIS0_XadL_Z17EVP_PKEY_CTX_freeEEEEEERKT0_RKSt11_Tuple_implIXT_EJS5_DpT1_EE = comdat any

$_ZNSt11_Tuple_implILm0EJP15evp_pkey_ctx_stN4node15FunctionDeleterIS0_XadL_Z17EVP_PKEY_CTX_freeEEEEEE7_M_headERKS5_ = comdat any

$_ZNSt10_Head_baseILm0EP15evp_pkey_ctx_stLb0EE7_M_headERKS2_ = comdat any

$_ZNK4node17BaseObjectPtrImplINS_10BaseObjectELb0EE12pointer_dataEv = comdat any

$_ZNK4node17BaseObjectPtrImplINS_10BaseObjectELb0EE3getEv = comdat any

$_ZNK4node17BaseObjectPtrImplINS_10BaseObjectELb0EE15get_base_objectEv = comdat any

$_ZN4node6crypto15NativeKeyObject21KeyObjectTransferDataC2ERKSt10shared_ptrINS0_13KeyObjectDataEE = comdat any

$_ZNSt10unique_ptrIN4node6crypto15NativeKeyObject21KeyObjectTransferDataESt14default_deleteIS3_EEC2IS5_vEEPS3_ = comdat any

$_ZN4node6worker12TransferDataC2Ev = comdat any

$_ZNSt15__uniq_ptr_dataIN4node6crypto15NativeKeyObject21KeyObjectTransferDataESt14default_deleteIS3_ELb1ELb1EECI2St15__uniq_ptr_implIS3_S5_EEPS3_ = comdat any

$_ZNSt15__uniq_ptr_implIN4node6crypto15NativeKeyObject21KeyObjectTransferDataESt14default_deleteIS3_EEC2EPS3_ = comdat any

$_ZNSt5tupleIJPN4node6crypto15NativeKeyObject21KeyObjectTransferDataESt14default_deleteIS3_EEEC2ILb1ETnNSt9enable_ifIXclsr17_TupleConstraintsIXT_ES4_S6_EE37__is_implicitly_default_constructibleEEbE4typeELb1EEEv = comdat any

$_ZNSt15__uniq_ptr_implIN4node6crypto15NativeKeyObject21KeyObjectTransferDataESt14default_deleteIS3_EE6_M_ptrEv = comdat any

$_ZNSt11_Tuple_implILm0EJPN4node6crypto15NativeKeyObject21KeyObjectTransferDataESt14default_deleteIS3_EEEC2Ev = comdat any

$_ZNSt11_Tuple_implILm1EJSt14default_deleteIN4node6crypto15NativeKeyObject21KeyObjectTransferDataEEEEC2Ev = comdat any

$_ZNSt10_Head_baseILm0EPN4node6crypto15NativeKeyObject21KeyObjectTransferDataELb0EEC2Ev = comdat any

$_ZNSt10_Head_baseILm1ESt14default_deleteIN4node6crypto15NativeKeyObject21KeyObjectTransferDataEELb1EEC2Ev = comdat any

$_ZSt3getILm0EJPN4node6crypto15NativeKeyObject21KeyObjectTransferDataESt14default_deleteIS3_EEERNSt13tuple_elementIXT_ESt5tupleIJDpT0_EEE4typeERSB_ = comdat any

$_ZSt12__get_helperILm0EPN4node6crypto15NativeKeyObject21KeyObjectTransferDataEJSt14default_deleteIS3_EEERT0_RSt11_Tuple_implIXT_EJS7_DpT1_EE = comdat any

$_ZNSt11_Tuple_implILm0EJPN4node6crypto15NativeKeyObject21KeyObjectTransferDataESt14default_deleteIS3_EEE7_M_headERS7_ = comdat any

$_ZNSt10_Head_baseILm0EPN4node6crypto15NativeKeyObject21KeyObjectTransferDataELb0EE7_M_headERS5_ = comdat any

$_ZNSt10unique_ptrIN4node6crypto15NativeKeyObject21KeyObjectTransferDataESt14default_deleteIS3_EE11get_deleterEv = comdat any

$_ZNKSt14default_deleteIN4node6crypto15NativeKeyObject21KeyObjectTransferDataEEclEPS3_ = comdat any

$_ZNSt15__uniq_ptr_implIN4node6crypto15NativeKeyObject21KeyObjectTransferDataESt14default_deleteIS3_EE10_M_deleterEv = comdat any

$_ZSt3getILm1EJPN4node6crypto15NativeKeyObject21KeyObjectTransferDataESt14default_deleteIS3_EEERNSt13tuple_elementIXT_ESt5tupleIJDpT0_EEE4typeERSB_ = comdat any

$_ZSt12__get_helperILm1ESt14default_deleteIN4node6crypto15NativeKeyObject21KeyObjectTransferDataEEJEERT0_RSt11_Tuple_implIXT_EJS6_DpT1_EE = comdat any

$_ZNSt11_Tuple_implILm1EJSt14default_deleteIN4node6crypto15NativeKeyObject21KeyObjectTransferDataEEEE7_M_headERS6_ = comdat any

$_ZNSt10_Head_baseILm1ESt14default_deleteIN4node6crypto15NativeKeyObject21KeyObjectTransferDataEELb1EE7_M_headERS6_ = comdat any

$_ZNSt10unique_ptrIN4node6crypto15NativeKeyObject21KeyObjectTransferDataESt14default_deleteIS3_EE7releaseEv = comdat any

$_ZNSt15__uniq_ptr_dataIN4node6worker12TransferDataESt14default_deleteIS2_ELb1ELb1EECI2St15__uniq_ptr_implIS2_S4_EIS3_INS0_6crypto15NativeKeyObject21KeyObjectTransferDataEEEEPS2_OT_ = comdat any

$_ZNSt15__uniq_ptr_implIN4node6crypto15NativeKeyObject21KeyObjectTransferDataESt14default_deleteIS3_EE7releaseEv = comdat any

$_ZNSt15__uniq_ptr_implIN4node6worker12TransferDataESt14default_deleteIS2_EEC2IS3_INS0_6crypto15NativeKeyObject21KeyObjectTransferDataEEEEPS2_OT_ = comdat any

$_ZNSt5tupleIJPN4node6worker12TransferDataESt14default_deleteIS2_EEEC2IRS3_S4_INS0_6crypto15NativeKeyObject21KeyObjectTransferDataEETnNSt9enable_ifIXclsr4_TCCIXntcl14__is_alloc_argIT_EEEEE29__is_implicitly_constructibleISE_T0_EEEbE4typeELb1EEEOSE_OSF_ = comdat any

$_ZNSt11_Tuple_implILm0EJPN4node6worker12TransferDataESt14default_deleteIS2_EEEC2IRS3_JS4_INS0_6crypto15NativeKeyObject21KeyObjectTransferDataEEEvEEOT_DpOT0_ = comdat any

$_ZNSt11_Tuple_implILm1EJSt14default_deleteIN4node6worker12TransferDataEEEEC2IS0_INS1_6crypto15NativeKeyObject21KeyObjectTransferDataEEEEOT_ = comdat any

$_ZNSt10_Head_baseILm0EPN4node6worker12TransferDataELb0EEC2IRS3_EEOT_ = comdat any

$_ZNSt10_Head_baseILm1ESt14default_deleteIN4node6worker12TransferDataEELb1EEC2IS0_INS1_6crypto15NativeKeyObject21KeyObjectTransferDataEEEEOT_ = comdat any

$_ZNSt14default_deleteIN4node6worker12TransferDataEEC2INS0_6crypto15NativeKeyObject21KeyObjectTransferDataEvEERKS_IT_E = comdat any

$_ZTVN4node6crypto15KeyObjectHandleE = comdat any

$_ZTVN4node14MemoryRetainerE = comdat any

$_ZTVN4node18MemoryRetainerNodeE = comdat any

$_ZTVN2v813EmbedderGraph4NodeE = comdat any

$_ZZN4node11SPrintFImplB5cxx11EPKcE4args = comdat any

$_ZZNK4node16NonCopyableMaybeINS_6crypto10ByteSourceEEptEvE4args = comdat any

$_ZZN4node11SPrintFImplIRPKcJEEENSt7__cxx1112basic_stringIcSt11char_traitsIcESaIcEEES2_OT_DpOT0_E4args = comdat any

$_ZZN4node11SPrintFImplIRPKcJEEENSt7__cxx1112basic_stringIcSt11char_traitsIcESaIcEEES2_OT_DpOT0_E4args_1 = comdat any

$_ZTVSt23_Sp_counted_ptr_inplaceIN4node9MutexBaseINS0_16LibuvMutexTraitsEEESaIvELN9__gnu_cxx12_Lock_policyE2EE = comdat any

$_ZTVSt16_Sp_counted_baseILN9__gnu_cxx12_Lock_policyE2EE = comdat any

$_ZZN4node9MutexBaseINS_16LibuvMutexTraitsEEC1EvE4args = comdat any

$_ZZNSt19_Sp_make_shared_tag5_S_tiEvE5__tag = comdat any

$_ZZN4node6crypto25ArrayBufferOrViewContentsIcEC1EN2v85LocalINS3_5ValueEEEE4args = comdat any

$_ZZN4node6crypto13MallocOpenSSLIcEEPT_mE4args = comdat any

$_ZZN4node25MultiplyWithOverflowCheckImEET_S1_S1_E4args = comdat any

$_ZZNO4node6crypto10ByteSource7Builder7releaseESt8optionalImEE4args = comdat any

$_ZSt8in_place = comdat any

$_ZZN4node16NonCopyableMaybeINS_6crypto24PrivateKeyEncodingConfigEE7ReleaseEvE4args = comdat any

$_ZTVSt15_Sp_counted_ptrIPN4node6crypto13KeyObjectDataELN9__gnu_cxx12_Lock_policyE2EE = comdat any

$_ZSt7nullopt = comdat any

$_ZZN4node6crypto25ArrayBufferOrViewContentsIhEC1EN2v85LocalINS3_5ValueEEEE4args = comdat any

$_ZZN4node17BaseObjectPtrImplINS_10BaseObjectELb0EEC1EPS1_E4args_0 = comdat any

@_ZStL8__ioinit = internal global %"class.std::ios_base::Init" zeroinitializer, align 1
@__dso_handle = external hidden global i8
@_ZTVN4node6crypto14ManagedEVPPKeyE = dso_local unnamed_addr constant { [10 x ptr] } { [10 x ptr] [ptr null, ptr null, ptr @_ZN4node6crypto14ManagedEVPPKeyD2Ev, ptr @_ZN4node6crypto14ManagedEVPPKeyD0Ev, ptr @_ZNK4node6crypto14ManagedEVPPKey10MemoryInfoEPNS_13MemoryTrackerE, ptr @_ZNK4node6crypto14ManagedEVPPKey14MemoryInfoNameEv, ptr @_ZNK4node6crypto14ManagedEVPPKey8SelfSizeEv, ptr @_ZNK4node14MemoryRetainer13WrappedObjectEv, ptr @_ZNK4node14MemoryRetainer10IsRootNodeEv, ptr @_ZNK4node14MemoryRetainer15GetDetachednessEv] }, align 8
@.str = private unnamed_addr constant [5 x i8] c"pkey\00", align 1
@_ZZN4node6crypto14ExportJWKInnerEPNS_11EnvironmentESt10shared_ptrINS0_13KeyObjectDataEEN2v85LocalINS6_5ValueEEEbE4args = internal constant %"struct.node::AssertionInfo" { ptr @.str.1, ptr @.str.2, ptr @.str.3 }, align 8
@.str.1 = private unnamed_addr constant [36 x i8] c"../../src/crypto/crypto_keys.cc:627\00", align 1
@.str.2 = private unnamed_addr constant [27 x i8] c"\22Unreachable code reached\22\00", align 1
@.str.3 = private unnamed_addr constant [108 x i8] c"Maybe<bool> node::crypto::ExportJWKInner(Environment *, std::shared_ptr<KeyObjectData>, Local<Value>, bool)\00", align 1
@_ZZN4node6crypto14ManagedEVPPKey27GetPrivateKeyEncodingFromJsERKN2v820FunctionCallbackInfoINS2_5ValueEEEPjNS0_18KeyEncodingContextEE4args = internal constant %"struct.node::AssertionInfo" { ptr @.str.4, ptr @.str.5, ptr @.str.6 }, align 8
@.str.4 = private unnamed_addr constant [36 x i8] c"../../src/crypto/crypto_keys.cc:696\00", align 1
@.str.5 = private unnamed_addr constant [35 x i8] c"args[*offset]->IsNullOrUndefined()\00", align 1
@.str.6 = private unnamed_addr constant [181 x i8] c"static NonCopyableMaybe<PrivateKeyEncodingConfig> node::crypto::ManagedEVPPKey::GetPrivateKeyEncodingFromJs(const FunctionCallbackInfo<Value> &, unsigned int *, KeyEncodingContext)\00", align 1
@_ZZN4node6crypto14ManagedEVPPKey27GetPrivateKeyEncodingFromJsERKN2v820FunctionCallbackInfoINS2_5ValueEEEPjNS0_18KeyEncodingContextEE4args_0 = internal constant %"struct.node::AssertionInfo" { ptr @.str.7, ptr @.str.8, ptr @.str.6 }, align 8
@.str.7 = private unnamed_addr constant [36 x i8] c"../../src/crypto/crypto_keys.cc:703\00", align 1
@.str.8 = private unnamed_addr constant [62 x i8] c"!(context != kKeyContextInput) || (result.cipher_ != nullptr)\00", align 1
@.str.9 = private unnamed_addr constant [22 x i8] c"passphrase is too big\00", align 1
@_ZZN4node6crypto14ManagedEVPPKey27GetPrivateKeyEncodingFromJsERKN2v820FunctionCallbackInfoINS2_5ValueEEEPjNS0_18KeyEncodingContextEE4args_1 = internal constant %"struct.node::AssertionInfo" { ptr @.str.10, ptr @.str.11, ptr @.str.6 }, align 8
@.str.10 = private unnamed_addr constant [36 x i8] c"../../src/crypto/crypto_keys.cc:712\00", align 1
@.str.11 = private unnamed_addr constant [56 x i8] c"args[*offset]->IsNullOrUndefined() && !needs_passphrase\00", align 1
@.str.12 = private unnamed_addr constant [27 x i8] c"Failed to read private key\00", align 1
@_ZZN4node6crypto14ManagedEVPPKey19GetPrivateKeyFromJsERKN2v820FunctionCallbackInfoINS2_5ValueEEEPjbE4args = internal constant %"struct.node::AssertionInfo" { ptr @.str.13, ptr @.str.14, ptr @.str.15 }, align 8
@.str.13 = private unnamed_addr constant [36 x i8] c"../../src/crypto/crypto_keys.cc:747\00", align 1
@.str.14 = private unnamed_addr constant [46 x i8] c"args[*offset]->IsObject() && allow_key_object\00", align 1
@.str.15 = private unnamed_addr constant [131 x i8] c"static ManagedEVPPKey node::crypto::ManagedEVPPKey::GetPrivateKeyFromJs(const FunctionCallbackInfo<Value> &, unsigned int *, bool)\00", align 1
@_ZZN4node6crypto14ManagedEVPPKey19GetPrivateKeyFromJsERKN2v820FunctionCallbackInfoINS2_5ValueEEEPjbE4args_0 = internal constant %"struct.node::AssertionInfo" { ptr @.str.16, ptr @.str.17, ptr @.str.15 }, align 8
@.str.16 = private unnamed_addr constant [36 x i8] c"../../src/crypto/crypto_keys.cc:750\00", align 1
@.str.17 = private unnamed_addr constant [49 x i8] c"(key->Data()->GetKeyType()) == (kKeyTypePrivate)\00", align 1
@.str.18 = private unnamed_addr constant [19 x i8] c"keyData is too big\00", align 1
@_ZZN4node6crypto14ManagedEVPPKey27GetPublicOrPrivateKeyFromJsERKN2v820FunctionCallbackInfoINS2_5ValueEEEPjE4args = internal constant %"struct.node::AssertionInfo" { ptr @.str.19, ptr @.str.20, ptr @.str.21 }, align 8
@.str.19 = private unnamed_addr constant [36 x i8] c"../../src/crypto/crypto_keys.cc:798\00", align 1
@.str.20 = private unnamed_addr constant [60 x i8] c"\22Unreachable code reached\22 \22: \22 \22Invalid key encoding type\22\00", align 1
@.str.21 = private unnamed_addr constant [133 x i8] c"static ManagedEVPPKey node::crypto::ManagedEVPPKey::GetPublicOrPrivateKeyFromJs(const FunctionCallbackInfo<Value> &, unsigned int *)\00", align 1
@.str.22 = private unnamed_addr constant [30 x i8] c"Failed to read asymmetric key\00", align 1
@_ZZN4node6crypto14ManagedEVPPKey27GetPublicOrPrivateKeyFromJsERKN2v820FunctionCallbackInfoINS2_5ValueEEEPjE4args_0 = internal constant %"struct.node::AssertionInfo" { ptr @.str.23, ptr @.str.24, ptr @.str.21 }, align 8
@.str.23 = private unnamed_addr constant [36 x i8] c"../../src/crypto/crypto_keys.cc:811\00", align 1
@.str.24 = private unnamed_addr constant [26 x i8] c"args[*offset]->IsObject()\00", align 1
@_ZZN4node6crypto14ManagedEVPPKey27GetPublicOrPrivateKeyFromJsERKN2v820FunctionCallbackInfoINS2_5ValueEEEPjE4args_1 = internal constant %"struct.node::AssertionInfo" { ptr @.str.25, ptr @.str.26, ptr @.str.21 }, align 8
@.str.25 = private unnamed_addr constant [36 x i8] c"../../src/crypto/crypto_keys.cc:813\00", align 1
@.str.26 = private unnamed_addr constant [17 x i8] c"(key) != nullptr\00", align 1
@_ZZN4node6crypto14ManagedEVPPKey27GetPublicOrPrivateKeyFromJsERKN2v820FunctionCallbackInfoINS2_5ValueEEEPjE4args_2 = internal constant %"struct.node::AssertionInfo" { ptr @.str.27, ptr @.str.28, ptr @.str.21 }, align 8
@.str.27 = private unnamed_addr constant [36 x i8] c"../../src/crypto/crypto_keys.cc:814\00", align 1
@.str.28 = private unnamed_addr constant [48 x i8] c"(key->Data()->GetKeyType()) != (kKeyTypeSecret)\00", align 1
@_ZZN4node6crypto14ManagedEVPPKey12GetParsedKeyEPNS_11EnvironmentEOSt10unique_ptrI11evp_pkey_stNS_15FunctionDeleterIS5_XadL_Z13EVP_PKEY_freeEEEEENS0_14ParseKeyResultEPKcE4args = internal constant %"struct.node::AssertionInfo" { ptr @.str.29, ptr @.str, ptr @.str.30 }, align 8
@.str.29 = private unnamed_addr constant [36 x i8] c"../../src/crypto/crypto_keys.cc:826\00", align 1
@.str.30 = private unnamed_addr constant [128 x i8] c"static ManagedEVPPKey node::crypto::ManagedEVPPKey::GetParsedKey(Environment *, EVPKeyPointer &&, ParseKeyResult, const char *)\00", align 1
@.str.31 = private unnamed_addr constant [38 x i8] c"Passphrase required for encrypted key\00", align 1
@_ZTVN4node6crypto13KeyObjectDataE = dso_local unnamed_addr constant { [10 x ptr] } { [10 x ptr] [ptr null, ptr null, ptr @_ZN4node6crypto13KeyObjectDataD2Ev, ptr @_ZN4node6crypto13KeyObjectDataD0Ev, ptr @_ZNK4node6crypto13KeyObjectData10MemoryInfoEPNS_13MemoryTrackerE, ptr @_ZNK4node6crypto13KeyObjectData14MemoryInfoNameEv, ptr @_ZNK4node6crypto13KeyObjectData8SelfSizeEv, ptr @_ZNK4node14MemoryRetainer13WrappedObjectEv, ptr @_ZNK4node14MemoryRetainer10IsRootNodeEv, ptr @_ZNK4node14MemoryRetainer15GetDetachednessEv] }, align 8
@.str.32 = private unnamed_addr constant [14 x i8] c"symmetric_key\00", align 1
@.str.33 = private unnamed_addr constant [4 x i8] c"key\00", align 1
@_ZZNK4node6crypto13KeyObjectData10MemoryInfoEPNS_13MemoryTrackerEE4args = internal constant %"struct.node::AssertionInfo" { ptr @.str.34, ptr @.str.2, ptr @.str.35 }, align 8
@.str.34 = private unnamed_addr constant [36 x i8] c"../../src/crypto/crypto_keys.cc:858\00", align 1
@.str.35 = private unnamed_addr constant [76 x i8] c"virtual void node::crypto::KeyObjectData::MemoryInfo(MemoryTracker *) const\00", align 1
@_ZZN4node6crypto13KeyObjectData16CreateAsymmetricENS0_7KeyTypeERKNS0_14ManagedEVPPKeyEE4args = internal constant %"struct.node::AssertionInfo" { ptr @.str.36, ptr @.str, ptr @.str.37 }, align 8
@.str.36 = private unnamed_addr constant [36 x i8] c"../../src/crypto/crypto_keys.cc:869\00", align 1
@.str.37 = private unnamed_addr constant [117 x i8] c"static std::shared_ptr<KeyObjectData> node::crypto::KeyObjectData::CreateAsymmetric(KeyType, const ManagedEVPPKey &)\00", align 1
@_ZZNK4node6crypto13KeyObjectData16GetAsymmetricKeyEvE4args = internal constant %"struct.node::AssertionInfo" { ptr @.str.38, ptr @.str.39, ptr @.str.40 }, align 8
@.str.38 = private unnamed_addr constant [36 x i8] c"../../src/crypto/crypto_keys.cc:878\00", align 1
@.str.39 = private unnamed_addr constant [32 x i8] c"(key_type_) != (kKeyTypeSecret)\00", align 1
@.str.40 = private unnamed_addr constant [69 x i8] c"ManagedEVPPKey node::crypto::KeyObjectData::GetAsymmetricKey() const\00", align 1
@_ZZNK4node6crypto13KeyObjectData15GetSymmetricKeyEvE4args = internal constant %"struct.node::AssertionInfo" { ptr @.str.41, ptr @.str.42, ptr @.str.43 }, align 8
@.str.41 = private unnamed_addr constant [36 x i8] c"../../src/crypto/crypto_keys.cc:883\00", align 1
@.str.42 = private unnamed_addr constant [32 x i8] c"(key_type_) == (kKeyTypeSecret)\00", align 1
@.str.43 = private unnamed_addr constant [65 x i8] c"const char *node::crypto::KeyObjectData::GetSymmetricKey() const\00", align 1
@_ZZNK4node6crypto13KeyObjectData19GetSymmetricKeySizeEvE4args = internal constant %"struct.node::AssertionInfo" { ptr @.str.44, ptr @.str.42, ptr @.str.45 }, align 8
@.str.44 = private unnamed_addr constant [36 x i8] c"../../src/crypto/crypto_keys.cc:888\00", align 1
@.str.45 = private unnamed_addr constant [64 x i8] c"size_t node::crypto::KeyObjectData::GetSymmetricKeySize() const\00", align 1
@.str.46 = private unnamed_addr constant [5 x i8] c"init\00", align 1
@.str.47 = private unnamed_addr constant [20 x i8] c"getSymmetricKeySize\00", align 1
@.str.48 = private unnamed_addr constant [21 x i8] c"getAsymmetricKeyType\00", align 1
@.str.49 = private unnamed_addr constant [15 x i8] c"checkEcKeyData\00", align 1
@.str.50 = private unnamed_addr constant [7 x i8] c"export\00", align 1
@.str.51 = private unnamed_addr constant [10 x i8] c"exportJwk\00", align 1
@.str.52 = private unnamed_addr constant [10 x i8] c"initECRaw\00", align 1
@.str.53 = private unnamed_addr constant [10 x i8] c"initEDRaw\00", align 1
@.str.54 = private unnamed_addr constant [8 x i8] c"initJwk\00", align 1
@.str.55 = private unnamed_addr constant [10 x i8] c"keyDetail\00", align 1
@.str.56 = private unnamed_addr constant [7 x i8] c"equals\00", align 1
@_ZZN4node6crypto15KeyObjectHandle6CreateEPNS_11EnvironmentESt10shared_ptrINS0_13KeyObjectDataEEE4args = internal constant %"struct.node::AssertionInfo" { ptr @.str.57, ptr @.str.58, ptr @.str.59 }, align 8
@.str.57 = private unnamed_addr constant [36 x i8] c"../../src/crypto/crypto_keys.cc:946\00", align 1
@.str.58 = private unnamed_addr constant [55 x i8] c"!env->crypto_key_object_handle_constructor().IsEmpty()\00", align 1
@.str.59 = private unnamed_addr constant [111 x i8] c"static MaybeLocal<Object> node::crypto::KeyObjectHandle::Create(Environment *, std::shared_ptr<KeyObjectData>)\00", align 1
@_ZZN4node6crypto15KeyObjectHandle6CreateEPNS_11EnvironmentESt10shared_ptrINS0_13KeyObjectDataEEE4args_0 = internal constant %"struct.node::AssertionInfo" { ptr @.str.60, ptr @.str.26, ptr @.str.59 }, align 8
@.str.60 = private unnamed_addr constant [36 x i8] c"../../src/crypto/crypto_keys.cc:951\00", align 1
@_ZZN4node6crypto15KeyObjectHandle3NewERKN2v820FunctionCallbackInfoINS2_5ValueEEEE4args = internal constant %"struct.node::AssertionInfo" { ptr @.str.61, ptr @.str.62, ptr @.str.63 }, align 8
@.str.61 = private unnamed_addr constant [36 x i8] c"../../src/crypto/crypto_keys.cc:961\00", align 1
@.str.62 = private unnamed_addr constant [23 x i8] c"args.IsConstructCall()\00", align 1
@.str.63 = private unnamed_addr constant [84 x i8] c"static void node::crypto::KeyObjectHandle::New(const FunctionCallbackInfo<Value> &)\00", align 1
@_ZTVN4node6crypto15KeyObjectHandleE = linkonce_odr dso_local unnamed_addr constant { [19 x ptr] } { [19 x ptr] [ptr null, ptr null, ptr @_ZN4node6crypto15KeyObjectHandleD2Ev, ptr @_ZN4node6crypto15KeyObjectHandleD0Ev, ptr @_ZNK4node6crypto15KeyObjectHandle10MemoryInfoEPNS_13MemoryTrackerE, ptr @_ZNK4node6crypto15KeyObjectHandle14MemoryInfoNameEv, ptr @_ZNK4node6crypto15KeyObjectHandle8SelfSizeEv, ptr @_ZNK4node10BaseObject13WrappedObjectEv, ptr @_ZNK4node10BaseObject10IsRootNodeEv, ptr @_ZNK4node10BaseObject15GetDetachednessEv, ptr @_ZNK4node10BaseObject18IsDoneInitializingEv, ptr @_ZNK4node10BaseObject15GetTransferModeEv, ptr @_ZN4node10BaseObject20TransferForMessagingEv, ptr @_ZNK4node10BaseObject17CloneForMessagingEv, ptr @_ZNK4node10BaseObject19NestedTransferablesEv, ptr @_ZN4node10BaseObject20FinalizeTransferReadEN2v85LocalINS1_7ContextEEEPNS1_17ValueDeserializerE, ptr @_ZNK4node10BaseObject33IsNotIndicativeOfMemoryLeakAtExitEv, ptr @_ZN4node10BaseObject11OnGCCollectEv, ptr @_ZNK4node10BaseObject15is_snapshotableEv] }, comdat, align 8
@_ZZN4node6crypto15KeyObjectHandle4InitERKN2v820FunctionCallbackInfoINS2_5ValueEEEE4args = internal constant %"struct.node::AssertionInfo" { ptr @.str.64, ptr @.str.65, ptr @.str.66 }, align 8
@.str.64 = private unnamed_addr constant [36 x i8] c"../../src/crypto/crypto_keys.cc:977\00", align 1
@.str.65 = private unnamed_addr constant [19 x i8] c"args[0]->IsInt32()\00", align 1
@.str.66 = private unnamed_addr constant [85 x i8] c"static void node::crypto::KeyObjectHandle::Init(const FunctionCallbackInfo<Value> &)\00", align 1
@_ZZN4node6crypto15KeyObjectHandle4InitERKN2v820FunctionCallbackInfoINS2_5ValueEEEE4args_0 = internal constant %"struct.node::AssertionInfo" { ptr @.str.67, ptr @.str.68, ptr @.str.66 }, align 8
@.str.67 = private unnamed_addr constant [36 x i8] c"../../src/crypto/crypto_keys.cc:985\00", align 1
@.str.68 = private unnamed_addr constant [23 x i8] c"(args.Length()) == (2)\00", align 1
@_ZZN4node6crypto15KeyObjectHandle4InitERKN2v820FunctionCallbackInfoINS2_5ValueEEEE4args_1 = internal constant %"struct.node::AssertionInfo" { ptr @.str.69, ptr @.str.70, ptr @.str.66 }, align 8
@.str.69 = private unnamed_addr constant [36 x i8] c"../../src/crypto/crypto_keys.cc:991\00", align 1
@.str.70 = private unnamed_addr constant [23 x i8] c"(args.Length()) == (5)\00", align 1
@_ZZN4node6crypto15KeyObjectHandle4InitERKN2v820FunctionCallbackInfoINS2_5ValueEEEE4args_2 = internal constant %"struct.node::AssertionInfo" { ptr @.str.71, ptr @.str.70, ptr @.str.66 }, align 8
@.str.71 = private unnamed_addr constant [37 x i8] c"../../src/crypto/crypto_keys.cc:1001\00", align 1
@_ZZN4node6crypto15KeyObjectHandle4InitERKN2v820FunctionCallbackInfoINS2_5ValueEEEE4args_3 = internal constant %"struct.node::AssertionInfo" { ptr @.str.72, ptr @.str.2, ptr @.str.66 }, align 8
@.str.72 = private unnamed_addr constant [37 x i8] c"../../src/crypto/crypto_keys.cc:1011\00", align 1
@_ZZN4node6crypto15KeyObjectHandle7InitJWKERKN2v820FunctionCallbackInfoINS2_5ValueEEEE4args = internal constant %"struct.node::AssertionInfo" { ptr @.str.73, ptr @.str.74, ptr @.str.75 }, align 8
@.str.73 = private unnamed_addr constant [37 x i8] c"../../src/crypto/crypto_keys.cc:1023\00", align 1
@.str.74 = private unnamed_addr constant [20 x i8] c"args[0]->IsObject()\00", align 1
@.str.75 = private unnamed_addr constant [88 x i8] c"static void node::crypto::KeyObjectHandle::InitJWK(const FunctionCallbackInfo<Value> &)\00", align 1
@.str.76 = private unnamed_addr constant [4 x i8] c"oct\00", align 1
@_ZZN4node6crypto15KeyObjectHandle9InitECRawERKN2v820FunctionCallbackInfoINS2_5ValueEEEE4args = internal constant %"struct.node::AssertionInfo" { ptr @.str.77, ptr @.str.78, ptr @.str.79 }, align 8
@.str.77 = private unnamed_addr constant [37 x i8] c"../../src/crypto/crypto_keys.cc:1059\00", align 1
@.str.78 = private unnamed_addr constant [20 x i8] c"args[0]->IsString()\00", align 1
@.str.79 = private unnamed_addr constant [90 x i8] c"static void node::crypto::KeyObjectHandle::InitECRaw(const FunctionCallbackInfo<Value> &)\00", align 1
@_ZZN4node6crypto15KeyObjectHandle9InitEDRawERKN2v820FunctionCallbackInfoINS2_5ValueEEEE4args = internal constant %"struct.node::AssertionInfo" { ptr @.str.80, ptr @.str.78, ptr @.str.81 }, align 8
@.str.80 = private unnamed_addr constant [37 x i8] c"../../src/crypto/crypto_keys.cc:1097\00", align 1
@.str.81 = private unnamed_addr constant [90 x i8] c"static void node::crypto::KeyObjectHandle::InitEDRaw(const FunctionCallbackInfo<Value> &)\00", align 1
@_ZZN4node6crypto15KeyObjectHandle9InitEDRawERKN2v820FunctionCallbackInfoINS2_5ValueEEEE4args_0 = internal constant %"struct.node::AssertionInfo" { ptr @.str.82, ptr @.str.83, ptr @.str.81 }, align 8
@.str.82 = private unnamed_addr constant [37 x i8] c"../../src/crypto/crypto_keys.cc:1124\00", align 1
@.str.83 = private unnamed_addr constant [11 x i8] c"key->data_\00", align 1
@_ZZN4node6crypto15KeyObjectHandle9InitEDRawERKN2v820FunctionCallbackInfoINS2_5ValueEEEE4args_1 = internal constant %"struct.node::AssertionInfo" { ptr @.str.84, ptr @.str.2, ptr @.str.81 }, align 8
@.str.84 = private unnamed_addr constant [37 x i8] c"../../src/crypto/crypto_keys.cc:1128\00", align 1
@_ZZN4node6crypto15KeyObjectHandle6EqualsERKN2v820FunctionCallbackInfoINS2_5ValueEEEE4args = internal constant %"struct.node::AssertionInfo" { ptr @.str.85, ptr @.str.86, ptr @.str.87 }, align 8
@.str.85 = private unnamed_addr constant [37 x i8] c"../../src/crypto/crypto_keys.cc:1143\00", align 1
@.str.86 = private unnamed_addr constant [35 x i8] c"(key_type) == (key2->GetKeyType())\00", align 1
@.str.87 = private unnamed_addr constant [87 x i8] c"static void node::crypto::KeyObjectHandle::Equals(const FunctionCallbackInfo<Value> &)\00", align 1
@_ZZN4node6crypto15KeyObjectHandle6EqualsERKN2v820FunctionCallbackInfoINS2_5ValueEEEE4args_0 = internal constant %"struct.node::AssertionInfo" { ptr @.str.88, ptr @.str.89, ptr @.str.87 }, align 8
@.str.88 = private unnamed_addr constant [37 x i8] c"../../src/crypto/crypto_keys.cc:1176\00", align 1
@.str.89 = private unnamed_addr constant [55 x i8] c"\22Unreachable code reached\22 \22: \22 \22unsupported key type\22\00", align 1
@_ZZN4node6crypto15KeyObjectHandle12GetKeyDetailERKN2v820FunctionCallbackInfoINS2_5ValueEEEE4args = internal constant %"struct.node::AssertionInfo" { ptr @.str.90, ptr @.str.74, ptr @.str.91 }, align 8
@.str.90 = private unnamed_addr constant [37 x i8] c"../../src/crypto/crypto_keys.cc:1187\00", align 1
@.str.91 = private unnamed_addr constant [93 x i8] c"static void node::crypto::KeyObjectHandle::GetKeyDetail(const FunctionCallbackInfo<Value> &)\00", align 1
@_ZZN4node6crypto15KeyObjectHandle12GetKeyDetailERKN2v820FunctionCallbackInfoINS2_5ValueEEEE4args_0 = internal constant %"struct.node::AssertionInfo" { ptr @.str.92, ptr @.str.2, ptr @.str.91 }, align 8
@.str.92 = private unnamed_addr constant [37 x i8] c"../../src/crypto/crypto_keys.cc:1203\00", align 1
@_ZZNK4node6crypto15KeyObjectHandle14CheckEcKeyDataEvE4args = internal constant %"struct.node::AssertionInfo" { ptr @.str.93, ptr @.str.94, ptr @.str.95 }, align 8
@.str.93 = private unnamed_addr constant [37 x i8] c"../../src/crypto/crypto_keys.cc:1248\00", align 1
@.str.94 = private unnamed_addr constant [27 x i8] c"(type) != (kKeyTypeSecret)\00", align 1
@.str.95 = private unnamed_addr constant [59 x i8] c"bool node::crypto::KeyObjectHandle::CheckEcKeyData() const\00", align 1
@_ZZNK4node6crypto15KeyObjectHandle14CheckEcKeyDataEvE4args_0 = internal constant %"struct.node::AssertionInfo" { ptr @.str.96, ptr @.str.97, ptr @.str.95 }, align 8
@.str.96 = private unnamed_addr constant [37 x i8] c"../../src/crypto/crypto_keys.cc:1250\00", align 1
@.str.97 = private unnamed_addr constant [4 x i8] c"ctx\00", align 1
@_ZZNK4node6crypto15KeyObjectHandle14CheckEcKeyDataEvE4args_1 = internal constant %"struct.node::AssertionInfo" { ptr @.str.98, ptr @.str.99, ptr @.str.95 }, align 8
@.str.98 = private unnamed_addr constant [37 x i8] c"../../src/crypto/crypto_keys.cc:1251\00", align 1
@.str.99 = private unnamed_addr constant [38 x i8] c"(EVP_PKEY_get_id(key.get())) == (408)\00", align 1
@_ZZN4node6crypto15KeyObjectHandle6ExportERKN2v820FunctionCallbackInfoINS2_5ValueEEEE4args = internal constant %"struct.node::AssertionInfo" { ptr @.str.100, ptr @.str.101, ptr @.str.102 }, align 8
@.str.100 = private unnamed_addr constant [37 x i8] c"../../src/crypto/crypto_keys.cc:1293\00", align 1
@.str.101 = private unnamed_addr constant [55 x i8] c"(offset) == (static_cast<unsigned int>(args.Length()))\00", align 1
@.str.102 = private unnamed_addr constant [87 x i8] c"static void node::crypto::KeyObjectHandle::Export(const FunctionCallbackInfo<Value> &)\00", align 1
@_ZZN4node6crypto15KeyObjectHandle6ExportERKN2v820FunctionCallbackInfoINS2_5ValueEEEE4args_0 = internal constant %"struct.node::AssertionInfo" { ptr @.str.103, ptr @.str.104, ptr @.str.102 }, align 8
@.str.103 = private unnamed_addr constant [37 x i8] c"../../src/crypto/crypto_keys.cc:1296\00", align 1
@.str.104 = private unnamed_addr constant [28 x i8] c"(type) == (kKeyTypePrivate)\00", align 1
@_ZZN4node6crypto15KeyObjectHandle6ExportERKN2v820FunctionCallbackInfoINS2_5ValueEEEE4args_1 = internal constant %"struct.node::AssertionInfo" { ptr @.str.105, ptr @.str.101, ptr @.str.102 }, align 8
@.str.105 = private unnamed_addr constant [37 x i8] c"../../src/crypto/crypto_keys.cc:1303\00", align 1
@_ZZN4node6crypto15KeyObjectHandle9ExportJWKERKN2v820FunctionCallbackInfoINS2_5ValueEEEE4args = internal constant %"struct.node::AssertionInfo" { ptr @.str.106, ptr @.str.74, ptr @.str.107 }, align 8
@.str.106 = private unnamed_addr constant [37 x i8] c"../../src/crypto/crypto_keys.cc:1333\00", align 1
@.str.107 = private unnamed_addr constant [98 x i8] c"static void node::crypto::KeyObjectHandle::ExportJWK(const v8::FunctionCallbackInfo<v8::Value> &)\00", align 1
@_ZZN4node6crypto15KeyObjectHandle9ExportJWKERKN2v820FunctionCallbackInfoINS2_5ValueEEEE4args_0 = internal constant %"struct.node::AssertionInfo" { ptr @.str.108, ptr @.str.109, ptr @.str.107 }, align 8
@.str.108 = private unnamed_addr constant [37 x i8] c"../../src/crypto/crypto_keys.cc:1334\00", align 1
@.str.109 = private unnamed_addr constant [21 x i8] c"args[1]->IsBoolean()\00", align 1
@.str.110 = private unnamed_addr constant [27 x i8] c"createNativeKeyObjectClass\00", align 1
@_ZZN4node6crypto15NativeKeyObject3NewERKN2v820FunctionCallbackInfoINS2_5ValueEEEE4args = internal constant %"struct.node::AssertionInfo" { ptr @.str.111, ptr @.str.112, ptr @.str.113 }, align 8
@.str.111 = private unnamed_addr constant [37 x i8] c"../../src/crypto/crypto_keys.cc:1356\00", align 1
@.str.112 = private unnamed_addr constant [23 x i8] c"(args.Length()) == (1)\00", align 1
@.str.113 = private unnamed_addr constant [84 x i8] c"static void node::crypto::NativeKeyObject::New(const FunctionCallbackInfo<Value> &)\00", align 1
@_ZZN4node6crypto15NativeKeyObject3NewERKN2v820FunctionCallbackInfoINS2_5ValueEEEE4args_0 = internal constant %"struct.node::AssertionInfo" { ptr @.str.114, ptr @.str.74, ptr @.str.113 }, align 8
@.str.114 = private unnamed_addr constant [37 x i8] c"../../src/crypto/crypto_keys.cc:1357\00", align 1
@_ZZN4node6crypto15NativeKeyObject26CreateNativeKeyObjectClassERKN2v820FunctionCallbackInfoINS2_5ValueEEEE4args = internal constant %"struct.node::AssertionInfo" { ptr @.str.115, ptr @.str.112, ptr @.str.116 }, align 8
@.str.115 = private unnamed_addr constant [37 x i8] c"../../src/crypto/crypto_keys.cc:1367\00", align 1
@.str.116 = private unnamed_addr constant [107 x i8] c"static void node::crypto::NativeKeyObject::CreateNativeKeyObjectClass(const FunctionCallbackInfo<Value> &)\00", align 1
@_ZZN4node6crypto15NativeKeyObject26CreateNativeKeyObjectClassERKN2v820FunctionCallbackInfoINS2_5ValueEEEE4args_0 = internal constant %"struct.node::AssertionInfo" { ptr @.str.117, ptr @.str.118, ptr @.str.116 }, align 8
@.str.117 = private unnamed_addr constant [37 x i8] c"../../src/crypto/crypto_keys.cc:1369\00", align 1
@.str.118 = private unnamed_addr constant [23 x i8] c"callback->IsFunction()\00", align 1
@.str.119 = private unnamed_addr constant [21 x i8] c"internal/crypto/keys\00", align 1
@_ZZN4node6crypto15NativeKeyObject21KeyObjectTransferData11DeserializeEPNS_11EnvironmentEN2v85LocalINS5_7ContextEEESt10unique_ptrINS_6worker12TransferDataESt14default_deleteISB_EEE4args = internal constant %"struct.node::AssertionInfo" { ptr @.str.120, ptr @.str.2, ptr @.str.121 }, align 8
@.str.120 = private unnamed_addr constant [37 x i8] c"../../src/crypto/crypto_keys.cc:1428\00", align 1
@.str.121 = private unnamed_addr constant [170 x i8] c"virtual BaseObjectPtr<BaseObject> node::crypto::NativeKeyObject::KeyObjectTransferData::Deserialize(Environment *, Local<Context>, std::unique_ptr<worker::TransferData>)\00", align 1
@_ZZN4node6crypto16PKEY_SPKI_ExportEPNS0_13KeyObjectDataEPNS0_10ByteSourceEE4args = internal constant %"struct.node::AssertionInfo" { ptr @.str.122, ptr @.str.123, ptr @.str.124 }, align 8
@.str.122 = private unnamed_addr constant [37 x i8] c"../../src/crypto/crypto_keys.cc:1450\00", align 1
@.str.123 = private unnamed_addr constant [45 x i8] c"(key_data->GetKeyType()) == (kKeyTypePublic)\00", align 1
@.str.124 = private unnamed_addr constant [87 x i8] c"WebCryptoKeyExportStatus node::crypto::PKEY_SPKI_Export(KeyObjectData *, ByteSource *)\00", align 1
@_ZZN4node6crypto16PKEY_SPKI_ExportEPNS0_13KeyObjectDataEPNS0_10ByteSourceEE4args_0 = internal constant %"struct.node::AssertionInfo" { ptr @.str.125, ptr @.str.126, ptr @.str.124 }, align 8
@.str.125 = private unnamed_addr constant [37 x i8] c"../../src/crypto/crypto_keys.cc:1454\00", align 1
@.str.126 = private unnamed_addr constant [4 x i8] c"bio\00", align 1
@_ZZN4node6crypto17PKEY_PKCS8_ExportEPNS0_13KeyObjectDataEPNS0_10ByteSourceEE4args = internal constant %"struct.node::AssertionInfo" { ptr @.str.127, ptr @.str.128, ptr @.str.129 }, align 8
@.str.127 = private unnamed_addr constant [37 x i8] c"../../src/crypto/crypto_keys.cc:1465\00", align 1
@.str.128 = private unnamed_addr constant [46 x i8] c"(key_data->GetKeyType()) == (kKeyTypePrivate)\00", align 1
@.str.129 = private unnamed_addr constant [88 x i8] c"WebCryptoKeyExportStatus node::crypto::PKEY_PKCS8_Export(KeyObjectData *, ByteSource *)\00", align 1
@_ZZN4node6crypto17PKEY_PKCS8_ExportEPNS0_13KeyObjectDataEPNS0_10ByteSourceEE4args_0 = internal constant %"struct.node::AssertionInfo" { ptr @.str.130, ptr @.str.126, ptr @.str.129 }, align 8
@.str.130 = private unnamed_addr constant [37 x i8] c"../../src/crypto/crypto_keys.cc:1470\00", align 1
@.str.131 = private unnamed_addr constant [16 x i8] c"KeyObjectHandle\00", align 1
@.str.132 = private unnamed_addr constant [23 x i8] c"kWebCryptoKeyFormatRaw\00", align 1
@.str.133 = private unnamed_addr constant [25 x i8] c"kWebCryptoKeyFormatPKCS8\00", align 1
@.str.134 = private unnamed_addr constant [24 x i8] c"kWebCryptoKeyFormatSPKI\00", align 1
@.str.135 = private unnamed_addr constant [23 x i8] c"kWebCryptoKeyFormatJWK\00", align 1
@.str.136 = private unnamed_addr constant [17 x i8] c"EVP_PKEY_ED25519\00", align 1
@.str.137 = private unnamed_addr constant [15 x i8] c"EVP_PKEY_ED448\00", align 1
@.str.138 = private unnamed_addr constant [16 x i8] c"EVP_PKEY_X25519\00", align 1
@.str.139 = private unnamed_addr constant [14 x i8] c"EVP_PKEY_X448\00", align 1
@.str.140 = private unnamed_addr constant [18 x i8] c"kKeyEncodingPKCS1\00", align 1
@.str.141 = private unnamed_addr constant [18 x i8] c"kKeyEncodingPKCS8\00", align 1
@.str.142 = private unnamed_addr constant [17 x i8] c"kKeyEncodingSPKI\00", align 1
@.str.143 = private unnamed_addr constant [17 x i8] c"kKeyEncodingSEC1\00", align 1
@.str.144 = private unnamed_addr constant [14 x i8] c"kKeyFormatDER\00", align 1
@.str.145 = private unnamed_addr constant [14 x i8] c"kKeyFormatPEM\00", align 1
@.str.146 = private unnamed_addr constant [14 x i8] c"kKeyFormatJWK\00", align 1
@.str.147 = private unnamed_addr constant [15 x i8] c"kKeyTypeSecret\00", align 1
@.str.148 = private unnamed_addr constant [15 x i8] c"kKeyTypePublic\00", align 1
@.str.149 = private unnamed_addr constant [16 x i8] c"kKeyTypePrivate\00", align 1
@.str.150 = private unnamed_addr constant [11 x i8] c"kSigEncDER\00", align 1
@.str.151 = private unnamed_addr constant [13 x i8] c"kSigEncP1363\00", align 1
@_ZTVN4node6crypto15NativeKeyObject21KeyObjectTransferDataE = dso_local unnamed_addr constant { [12 x ptr] } { [12 x ptr] [ptr null, ptr null, ptr @_ZN4node6crypto15NativeKeyObject21KeyObjectTransferDataD2Ev, ptr @_ZN4node6crypto15NativeKeyObject21KeyObjectTransferDataD0Ev, ptr @_ZNK4node6crypto15NativeKeyObject21KeyObjectTransferData10MemoryInfoEPNS_13MemoryTrackerE, ptr @_ZNK4node6crypto15NativeKeyObject21KeyObjectTransferData14MemoryInfoNameEv, ptr @_ZNK4node6crypto15NativeKeyObject21KeyObjectTransferData8SelfSizeEv, ptr @_ZNK4node14MemoryRetainer13WrappedObjectEv, ptr @_ZNK4node14MemoryRetainer10IsRootNodeEv, ptr @_ZNK4node14MemoryRetainer15GetDetachednessEv, ptr @_ZN4node6crypto15NativeKeyObject21KeyObjectTransferData11DeserializeEPNS_11EnvironmentEN2v85LocalINS5_7ContextEEESt10unique_ptrINS_6worker12TransferDataESt14default_deleteISB_EE, ptr @_ZN4node6worker12TransferData21FinalizeTransferWriteEN2v85LocalINS2_7ContextEEEPNS2_15ValueSerializerE] }, align 8
@_ZTVN4node6crypto15NativeKeyObjectE = dso_local unnamed_addr constant { [19 x ptr] } { [19 x ptr] [ptr null, ptr null, ptr @_ZN4node6crypto15NativeKeyObjectD2Ev, ptr @_ZN4node6crypto15NativeKeyObjectD0Ev, ptr @_ZNK4node6crypto15NativeKeyObject10MemoryInfoEPNS_13MemoryTrackerE, ptr @_ZNK4node6crypto15NativeKeyObject14MemoryInfoNameEv, ptr @_ZNK4node6crypto15NativeKeyObject8SelfSizeEv, ptr @_ZNK4node10BaseObject13WrappedObjectEv, ptr @_ZNK4node10BaseObject10IsRootNodeEv, ptr @_ZNK4node10BaseObject15GetDetachednessEv, ptr @_ZNK4node10BaseObject18IsDoneInitializingEv, ptr @_ZNK4node6crypto15NativeKeyObject15GetTransferModeEv, ptr @_ZN4node10BaseObject20TransferForMessagingEv, ptr @_ZNK4node6crypto15NativeKeyObject17CloneForMessagingEv, ptr @_ZNK4node10BaseObject19NestedTransferablesEv, ptr @_ZN4node10BaseObject20FinalizeTransferReadEN2v85LocalINS1_7ContextEEEPNS1_17ValueDeserializerE, ptr @_ZNK4node10BaseObject33IsNotIndicativeOfMemoryLeakAtExitEv, ptr @_ZN4node10BaseObject11OnGCCollectEv, ptr @_ZNK4node10BaseObject15is_snapshotableEv] }, align 8
@_ZTVN4node14MemoryRetainerE = linkonce_odr dso_local unnamed_addr constant { [10 x ptr] } { [10 x ptr] [ptr null, ptr null, ptr @_ZN4node14MemoryRetainerD2Ev, ptr @_ZN4node14MemoryRetainerD0Ev, ptr @__cxa_pure_virtual, ptr @__cxa_pure_virtual, ptr @__cxa_pure_virtual, ptr @_ZNK4node14MemoryRetainer13WrappedObjectEv, ptr @_ZNK4node14MemoryRetainer10IsRootNodeEv, ptr @_ZNK4node14MemoryRetainer15GetDetachednessEv] }, comdat, align 8
@__libc_single_threaded = external global i8, align 1
@_ZTVN4node18MemoryRetainerNodeE = linkonce_odr dso_local unnamed_addr constant { [13 x ptr] } { [13 x ptr] [ptr null, ptr null, ptr @_ZN4node18MemoryRetainerNodeD2Ev, ptr @_ZN4node18MemoryRetainerNodeD0Ev, ptr @_ZN4node18MemoryRetainerNode4NameEv, ptr @_ZN4node18MemoryRetainerNode11SizeInBytesEv, ptr @_ZN2v813EmbedderGraph4Node11WrapperNodeEv, ptr @_ZN4node18MemoryRetainerNode10IsRootNodeEv, ptr @_ZN2v813EmbedderGraph4Node14IsEmbedderNodeEv, ptr @_ZN4node18MemoryRetainerNode10NamePrefixEv, ptr @_ZN2v813EmbedderGraph4Node15GetNativeObjectEv, ptr @_ZN4node18MemoryRetainerNode15GetDetachednessEv, ptr @_ZN2v813EmbedderGraph4Node10GetAddressEv] }, comdat, align 8
@_ZTVN2v813EmbedderGraph4NodeE = linkonce_odr dso_local unnamed_addr constant { [13 x ptr] } { [13 x ptr] [ptr null, ptr null, ptr @_ZN2v813EmbedderGraph4NodeD2Ev, ptr @_ZN2v813EmbedderGraph4NodeD0Ev, ptr @__cxa_pure_virtual, ptr @__cxa_pure_virtual, ptr @_ZN2v813EmbedderGraph4Node11WrapperNodeEv, ptr @_ZN2v813EmbedderGraph4Node10IsRootNodeEv, ptr @_ZN2v813EmbedderGraph4Node14IsEmbedderNodeEv, ptr @_ZN2v813EmbedderGraph4Node10NamePrefixEv, ptr @_ZN2v813EmbedderGraph4Node15GetNativeObjectEv, ptr @_ZN2v813EmbedderGraph4Node15GetDetachednessEv, ptr @_ZN2v813EmbedderGraph4Node10GetAddressEv] }, comdat, align 8
@.str.152 = private unnamed_addr constant [7 x i8] c"Node /\00", align 1
@.str.153 = private unnamed_addr constant [1 x i8] zeroinitializer, align 1
@_ZZN4node6crypto12_GLOBAL__N_118ExportJWKSecretKeyEPNS_11EnvironmentESt10shared_ptrINS0_13KeyObjectDataEEN2v85LocalINS7_6ObjectEEEE4args = internal constant %"struct.node::AssertionInfo" { ptr @.str.154, ptr @.str.155, ptr @.str.156 }, align 8
@.str.154 = private unnamed_addr constant [36 x i8] c"../../src/crypto/crypto_keys.cc:439\00", align 1
@.str.155 = private unnamed_addr constant [40 x i8] c"(key->GetKeyType()) == (kKeyTypeSecret)\00", align 1
@.str.156 = private unnamed_addr constant [130 x i8] c"Maybe<bool> node::crypto::(anonymous namespace)::ExportJWKSecretKey(Environment *, std::shared_ptr<KeyObjectData>, Local<Object>)\00", align 1
@_ZZN4node6crypto12_GLOBAL__N_118ExportJWKSecretKeyEPNS_11EnvironmentESt10shared_ptrINS0_13KeyObjectDataEEN2v85LocalINS7_6ObjectEEEE4args_0 = internal constant %"struct.node::AssertionInfo" { ptr @.str.157, ptr @.str.158, ptr @.str.156 }, align 8
@.str.157 = private unnamed_addr constant [36 x i8] c"../../src/crypto/crypto_keys.cc:451\00", align 1
@.str.158 = private unnamed_addr constant [17 x i8] c"!error.IsEmpty()\00", align 1
@.str.159 = private unnamed_addr constant [26 x i8] c"Unsupported JWK Key Type.\00", align 1
@.str.160 = private unnamed_addr constant [36 x i8] c"ERR_CRYPTO_JWK_UNSUPPORTED_KEY_TYPE\00", align 1
@.str.161 = private unnamed_addr constant [5 x i8] c"code\00", align 1
@_ZZN4node11SPrintFImplB5cxx11EPKcE4args = linkonce_odr dso_local constant %"struct.node::AssertionInfo" { ptr @.str.162, ptr @.str.163, ptr @.str.164 }, comdat, align 8
@.str.162 = private unnamed_addr constant [31 x i8] c"../../src/debug_utils-inl.h:70\00", align 1
@.str.163 = private unnamed_addr constant [16 x i8] c"(p[1]) == ('%')\00", align 1
@.str.164 = private unnamed_addr constant [44 x i8] c"std::string node::SPrintFImpl(const char *)\00", align 1
@.str.165 = private unnamed_addr constant [50 x i8] c"basic_string: construction from null is not valid\00", align 1
@_ZZN4node6crypto12_GLOBAL__N_114WritePublicKeyEPNS_11EnvironmentEP11evp_pkey_stRKNS0_27AsymmetricKeyEncodingConfigEE4args = internal constant %"struct.node::AssertionInfo" { ptr @.str.166, ptr @.str.126, ptr @.str.167 }, align 8
@.str.166 = private unnamed_addr constant [36 x i8] c"../../src/crypto/crypto_keys.cc:426\00", align 1
@.str.167 = private unnamed_addr constant [130 x i8] c"MaybeLocal<Value> node::crypto::(anonymous namespace)::WritePublicKey(Environment *, EVP_PKEY *, const PublicKeyEncodingConfig &)\00", align 1
@.str.168 = private unnamed_addr constant [28 x i8] c"Failed to encode public key\00", align 1
@_ZZN4node6crypto12_GLOBAL__N_119WritePublicKeyInnerEP11evp_pkey_stRKSt10unique_ptrI6bio_stNS_15FunctionDeleterIS5_XadL_Z12BIO_free_allEEEEERKNS0_27AsymmetricKeyEncodingConfigEE4args = internal constant %"struct.node::AssertionInfo" { ptr @.str.169, ptr @.str.170, ptr @.str.171 }, align 8
@.str.169 = private unnamed_addr constant [36 x i8] c"../../src/crypto/crypto_keys.cc:399\00", align 1
@.str.170 = private unnamed_addr constant [31 x i8] c"(EVP_PKEY_get_id(pkey)) == (6)\00", align 1
@.str.171 = private unnamed_addr constant [127 x i8] c"bool node::crypto::(anonymous namespace)::WritePublicKeyInner(EVP_PKEY *, const BIOPointer &, const PublicKeyEncodingConfig &)\00", align 1
@_ZZN4node6crypto12_GLOBAL__N_119WritePublicKeyInnerEP11evp_pkey_stRKSt10unique_ptrI6bio_stNS_15FunctionDeleterIS5_XadL_Z12BIO_free_allEEEEERKNS0_27AsymmetricKeyEncodingConfigEE4args_0 = internal constant %"struct.node::AssertionInfo" { ptr @.str.172, ptr @.str.173, ptr @.str.171 }, align 8
@.str.172 = private unnamed_addr constant [36 x i8] c"../../src/crypto/crypto_keys.cc:406\00", align 1
@.str.173 = private unnamed_addr constant [36 x i8] c"(config.format_) == (kKeyFormatDER)\00", align 1
@_ZZN4node6crypto12_GLOBAL__N_119WritePublicKeyInnerEP11evp_pkey_stRKSt10unique_ptrI6bio_stNS_15FunctionDeleterIS5_XadL_Z12BIO_free_allEEEEERKNS0_27AsymmetricKeyEncodingConfigEE4args_1 = internal constant %"struct.node::AssertionInfo" { ptr @.str.174, ptr @.str.175, ptr @.str.171 }, align 8
@.str.174 = private unnamed_addr constant [36 x i8] c"../../src/crypto/crypto_keys.cc:410\00", align 1
@.str.175 = private unnamed_addr constant [49 x i8] c"(config.type_.ToChecked()) == (kKeyEncodingSPKI)\00", align 1
@_ZZN4node6crypto12_GLOBAL__N_119WritePublicKeyInnerEP11evp_pkey_stRKSt10unique_ptrI6bio_stNS_15FunctionDeleterIS5_XadL_Z12BIO_free_allEEEEERKNS0_27AsymmetricKeyEncodingConfigEE4args_2 = internal constant %"struct.node::AssertionInfo" { ptr @.str.176, ptr @.str.173, ptr @.str.171 }, align 8
@.str.176 = private unnamed_addr constant [36 x i8] c"../../src/crypto/crypto_keys.cc:416\00", align 1
@_ZZN4node6crypto12_GLOBAL__N_119BIOToStringOrBufferEPNS_11EnvironmentEP6bio_stNS0_12PKFormatTypeEE4args = internal constant %"struct.node::AssertionInfo" { ptr @.str.177, ptr @.str.178, ptr @.str.179 }, align 8
@.str.177 = private unnamed_addr constant [36 x i8] c"../../src/crypto/crypto_keys.cc:285\00", align 1
@.str.178 = private unnamed_addr constant [28 x i8] c"(format) == (kKeyFormatDER)\00", align 1
@.str.179 = private unnamed_addr constant [111 x i8] c"MaybeLocal<Value> node::crypto::(anonymous namespace)::BIOToStringOrBuffer(Environment *, BIO *, PKFormatType)\00", align 1
@_ZZN4node6crypto12_GLOBAL__N_115WritePrivateKeyEPNS_11EnvironmentEP11evp_pkey_stRKNS0_24PrivateKeyEncodingConfigEE4args = internal constant %"struct.node::AssertionInfo" { ptr @.str.180, ptr @.str.126, ptr @.str.181 }, align 8
@.str.180 = private unnamed_addr constant [36 x i8] c"../../src/crypto/crypto_keys.cc:298\00", align 1
@.str.181 = private unnamed_addr constant [132 x i8] c"MaybeLocal<Value> node::crypto::(anonymous namespace)::WritePrivateKey(Environment *, EVP_PKEY *, const PrivateKeyEncodingConfig &)\00", align 1
@_ZZN4node6crypto12_GLOBAL__N_115WritePrivateKeyEPNS_11EnvironmentEP11evp_pkey_stRKNS0_24PrivateKeyEncodingConfigEE4args_0 = internal constant %"struct.node::AssertionInfo" { ptr @.str.182, ptr @.str.183, ptr @.str.181 }, align 8
@.str.182 = private unnamed_addr constant [36 x i8] c"../../src/crypto/crypto_keys.cc:316\00", align 1
@.str.183 = private unnamed_addr constant [18 x i8] c"(pass_len) == (0)\00", align 1
@_ZZN4node6crypto12_GLOBAL__N_115WritePrivateKeyEPNS_11EnvironmentEP11evp_pkey_stRKNS0_24PrivateKeyEncodingConfigEE4args_1 = internal constant %"struct.node::AssertionInfo" { ptr @.str.184, ptr @.str.185, ptr @.str.181 }, align 8
@.str.184 = private unnamed_addr constant [36 x i8] c"../../src/crypto/crypto_keys.cc:318\00", align 1
@.str.185 = private unnamed_addr constant [20 x i8] c"(pass) != (nullptr)\00", align 1
@_ZZN4node6crypto12_GLOBAL__N_115WritePrivateKeyEPNS_11EnvironmentEP11evp_pkey_stRKNS0_24PrivateKeyEncodingConfigEE4args_2 = internal constant %"struct.node::AssertionInfo" { ptr @.str.186, ptr @.str.170, ptr @.str.181 }, align 8
@.str.186 = private unnamed_addr constant [36 x i8] c"../../src/crypto/crypto_keys.cc:328\00", align 1
@_ZZN4node6crypto12_GLOBAL__N_115WritePrivateKeyEPNS_11EnvironmentEP11evp_pkey_stRKNS0_24PrivateKeyEncodingConfigEE4args_3 = internal constant %"struct.node::AssertionInfo" { ptr @.str.187, ptr @.str.173, ptr @.str.181 }, align 8
@.str.187 = private unnamed_addr constant [36 x i8] c"../../src/crypto/crypto_keys.cc:341\00", align 1
@_ZZN4node6crypto12_GLOBAL__N_115WritePrivateKeyEPNS_11EnvironmentEP11evp_pkey_stRKNS0_24PrivateKeyEncodingConfigEE4args_4 = internal constant %"struct.node::AssertionInfo" { ptr @.str.188, ptr @.str.189, ptr @.str.181 }, align 8
@.str.188 = private unnamed_addr constant [36 x i8] c"../../src/crypto/crypto_keys.cc:342\00", align 1
@.str.189 = private unnamed_addr constant [28 x i8] c"(config.cipher_) == nullptr\00", align 1
@_ZZN4node6crypto12_GLOBAL__N_115WritePrivateKeyEPNS_11EnvironmentEP11evp_pkey_stRKNS0_24PrivateKeyEncodingConfigEE4args_5 = internal constant %"struct.node::AssertionInfo" { ptr @.str.190, ptr @.str.173, ptr @.str.181 }, align 8
@.str.190 = private unnamed_addr constant [36 x i8] c"../../src/crypto/crypto_keys.cc:356\00", align 1
@_ZZN4node6crypto12_GLOBAL__N_115WritePrivateKeyEPNS_11EnvironmentEP11evp_pkey_stRKNS0_24PrivateKeyEncodingConfigEE4args_6 = internal constant %"struct.node::AssertionInfo" { ptr @.str.191, ptr @.str.192, ptr @.str.181 }, align 8
@.str.191 = private unnamed_addr constant [36 x i8] c"../../src/crypto/crypto_keys.cc:365\00", align 1
@.str.192 = private unnamed_addr constant [38 x i8] c"(encoding_type) == (kKeyEncodingSEC1)\00", align 1
@_ZZN4node6crypto12_GLOBAL__N_115WritePrivateKeyEPNS_11EnvironmentEP11evp_pkey_stRKNS0_24PrivateKeyEncodingConfigEE4args_7 = internal constant %"struct.node::AssertionInfo" { ptr @.str.193, ptr @.str.194, ptr @.str.181 }, align 8
@.str.193 = private unnamed_addr constant [36 x i8] c"../../src/crypto/crypto_keys.cc:368\00", align 1
@.str.194 = private unnamed_addr constant [33 x i8] c"(EVP_PKEY_get_id(pkey)) == (408)\00", align 1
@_ZZN4node6crypto12_GLOBAL__N_115WritePrivateKeyEPNS_11EnvironmentEP11evp_pkey_stRKNS0_24PrivateKeyEncodingConfigEE4args_8 = internal constant %"struct.node::AssertionInfo" { ptr @.str.195, ptr @.str.173, ptr @.str.181 }, align 8
@.str.195 = private unnamed_addr constant [36 x i8] c"../../src/crypto/crypto_keys.cc:381\00", align 1
@_ZZN4node6crypto12_GLOBAL__N_115WritePrivateKeyEPNS_11EnvironmentEP11evp_pkey_stRKNS0_24PrivateKeyEncodingConfigEE4args_9 = internal constant %"struct.node::AssertionInfo" { ptr @.str.196, ptr @.str.189, ptr @.str.181 }, align 8
@.str.196 = private unnamed_addr constant [36 x i8] c"../../src/crypto/crypto_keys.cc:382\00", align 1
@.str.197 = private unnamed_addr constant [29 x i8] c"Failed to encode private key\00", align 1
@_ZZNK4node16NonCopyableMaybeINS_6crypto10ByteSourceEEptEvE4args = linkonce_odr dso_local constant %"struct.node::AssertionInfo" { ptr @.str.198, ptr @.str.199, ptr @.str.200 }, comdat, align 8
@.str.198 = private unnamed_addr constant [21 x i8] c"../../src/util.h:667\00", align 1
@.str.199 = private unnamed_addr constant [8 x i8] c"!empty_\00", align 1
@.str.200 = private unnamed_addr constant [109 x i8] c"const T *node::NonCopyableMaybe<node::crypto::ByteSource>::operator->() const [T = node::crypto::ByteSource]\00", align 1
@_ZN4node18ContextEmbedderTag18kNodeContextTagPtrE = external constant ptr, align 8
@_ZZN4node6crypto12_GLOBAL__N_125GetKeyFormatAndTypeFromJsEPNS0_27AsymmetricKeyEncodingConfigERKN2v820FunctionCallbackInfoINS4_5ValueEEEPjNS0_18KeyEncodingContextEE4args = internal constant %"struct.node::AssertionInfo" { ptr @.str.201, ptr @.str.202, ptr @.str.203 }, align 8
@.str.201 = private unnamed_addr constant [35 x i8] c"../../src/crypto/crypto_keys.cc:51\00", align 1
@.str.202 = private unnamed_addr constant [35 x i8] c"(context) == (kKeyContextGenerate)\00", align 1
@.str.203 = private unnamed_addr constant [172 x i8] c"void node::crypto::(anonymous namespace)::GetKeyFormatAndTypeFromJs(AsymmetricKeyEncodingConfig *, const FunctionCallbackInfo<Value> &, unsigned int *, KeyEncodingContext)\00", align 1
@_ZZN4node6crypto12_GLOBAL__N_125GetKeyFormatAndTypeFromJsEPNS0_27AsymmetricKeyEncodingConfigERKN2v820FunctionCallbackInfoINS4_5ValueEEEPjNS0_18KeyEncodingContextEE4args_0 = internal constant %"struct.node::AssertionInfo" { ptr @.str.204, ptr @.str.205, ptr @.str.203 }, align 8
@.str.204 = private unnamed_addr constant [35 x i8] c"../../src/crypto/crypto_keys.cc:52\00", align 1
@.str.205 = private unnamed_addr constant [33 x i8] c"args[*offset + 1]->IsUndefined()\00", align 1
@_ZZN4node6crypto12_GLOBAL__N_125GetKeyFormatAndTypeFromJsEPNS0_27AsymmetricKeyEncodingConfigERKN2v820FunctionCallbackInfoINS4_5ValueEEEPjNS0_18KeyEncodingContextEE4args_1 = internal constant %"struct.node::AssertionInfo" { ptr @.str.206, ptr @.str.207, ptr @.str.203 }, align 8
@.str.206 = private unnamed_addr constant [35 x i8] c"../../src/crypto/crypto_keys.cc:57\00", align 1
@.str.207 = private unnamed_addr constant [25 x i8] c"args[*offset]->IsInt32()\00", align 1
@_ZZN4node6crypto12_GLOBAL__N_125GetKeyFormatAndTypeFromJsEPNS0_27AsymmetricKeyEncodingConfigERKN2v820FunctionCallbackInfoINS4_5ValueEEEPjNS0_18KeyEncodingContextEE4args_2 = internal constant %"struct.node::AssertionInfo" { ptr @.str.208, ptr @.str.209, ptr @.str.203 }, align 8
@.str.208 = private unnamed_addr constant [35 x i8] c"../../src/crypto/crypto_keys.cc:69\00", align 1
@.str.209 = private unnamed_addr constant [138 x i8] c"(context == kKeyContextInput && config->format_ == kKeyFormatPEM) || (context == kKeyContextGenerate && config->format_ == kKeyFormatJWK)\00", align 1
@_ZZN4node6crypto12_GLOBAL__N_125GetKeyFormatAndTypeFromJsEPNS0_27AsymmetricKeyEncodingConfigERKN2v820FunctionCallbackInfoINS4_5ValueEEEPjNS0_18KeyEncodingContextEE4args_3 = internal constant %"struct.node::AssertionInfo" { ptr @.str.210, ptr @.str.211, ptr @.str.203 }, align 8
@.str.210 = private unnamed_addr constant [35 x i8] c"../../src/crypto/crypto_keys.cc:70\00", align 1
@.str.211 = private unnamed_addr constant [39 x i8] c"args[*offset + 1]->IsNullOrUndefined()\00", align 1
@.str.212 = private unnamed_addr constant [15 x i8] c"Unknown cipher\00", align 1
@.str.213 = private unnamed_addr constant [26 x i8] c"ERR_CRYPTO_UNKNOWN_CIPHER\00", align 1
@_ZZN4node6crypto12_GLOBAL__N_115ParsePrivateKeyEPSt10unique_ptrI11evp_pkey_stNS_15FunctionDeleterIS3_XadL_Z13EVP_PKEY_freeEEEEERKNS0_24PrivateKeyEncodingConfigEPKcmE4args = internal constant %"struct.node::AssertionInfo" { ptr @.str.214, ptr @.str.173, ptr @.str.215 }, align 8
@.str.214 = private unnamed_addr constant [36 x i8] c"../../src/crypto/crypto_keys.cc:230\00", align 1
@.str.215 = private unnamed_addr constant [141 x i8] c"ParseKeyResult node::crypto::(anonymous namespace)::ParsePrivateKey(EVPKeyPointer *, const PrivateKeyEncodingConfig &, const char *, size_t)\00", align 1
@_ZZN4node6crypto12_GLOBAL__N_115ParsePrivateKeyEPSt10unique_ptrI11evp_pkey_stNS_15FunctionDeleterIS3_XadL_Z13EVP_PKEY_freeEEEEERKNS0_24PrivateKeyEncodingConfigEPKcmE4args_0 = internal constant %"struct.node::AssertionInfo" { ptr @.str.216, ptr @.str.217, ptr @.str.215 }, align 8
@.str.216 = private unnamed_addr constant [36 x i8] c"../../src/crypto/crypto_keys.cc:252\00", align 1
@.str.217 = private unnamed_addr constant [49 x i8] c"(config.type_.ToChecked()) == (kKeyEncodingSEC1)\00", align 1
@.str.218 = private unnamed_addr constant [11 x i8] c"PUBLIC KEY\00", align 1
@_ZZN4node6crypto12_GLOBAL__N_117ParsePublicKeyPEMEPSt10unique_ptrI11evp_pkey_stNS_15FunctionDeleterIS3_XadL_Z13EVP_PKEY_freeEEEEEPKciE4args = internal constant %"struct.node::AssertionInfo" { ptr @.str.219, ptr @.str.220, ptr @.str.221 }, align 8
@.str.219 = private unnamed_addr constant [36 x i8] c"../../src/crypto/crypto_keys.cc:122\00", align 1
@.str.220 = private unnamed_addr constant [35 x i8] c"(int)BIO_ctrl(bp.get(),1,0,__null)\00", align 1
@.str.221 = private unnamed_addr constant [106 x i8] c"ParseKeyResult node::crypto::(anonymous namespace)::ParsePublicKeyPEM(EVPKeyPointer *, const char *, int)\00", align 1
@.str.222 = private unnamed_addr constant [15 x i8] c"RSA PUBLIC KEY\00", align 1
@_ZZN4node6crypto12_GLOBAL__N_117ParsePublicKeyPEMEPSt10unique_ptrI11evp_pkey_stNS_15FunctionDeleterIS3_XadL_Z13EVP_PKEY_freeEEEEEPKciE4args_0 = internal constant %"struct.node::AssertionInfo" { ptr @.str.223, ptr @.str.220, ptr @.str.221 }, align 8
@.str.223 = private unnamed_addr constant [36 x i8] c"../../src/crypto/crypto_keys.cc:131\00", align 1
@.str.224 = private unnamed_addr constant [12 x i8] c"CERTIFICATE\00", align 1
@.str.225 = private unnamed_addr constant [32 x i8] c"../../src/crypto/crypto_keys.cc\00", align 1
@_ZZN4node6crypto12_GLOBAL__N_114ParsePublicKeyEPSt10unique_ptrI11evp_pkey_stNS_15FunctionDeleterIS3_XadL_Z13EVP_PKEY_freeEEEEERKNS0_27AsymmetricKeyEncodingConfigEPKcmE4args = internal constant %"struct.node::AssertionInfo" { ptr @.str.226, ptr @.str.173, ptr @.str.227 }, align 8
@.str.226 = private unnamed_addr constant [36 x i8] c"../../src/crypto/crypto_keys.cc:146\00", align 1
@.str.227 = private unnamed_addr constant [139 x i8] c"ParseKeyResult node::crypto::(anonymous namespace)::ParsePublicKey(EVPKeyPointer *, const PublicKeyEncodingConfig &, const char *, size_t)\00", align 1
@_ZZN4node6crypto12_GLOBAL__N_114ParsePublicKeyEPSt10unique_ptrI11evp_pkey_stNS_15FunctionDeleterIS3_XadL_Z13EVP_PKEY_freeEEEEERKNS0_27AsymmetricKeyEncodingConfigEPKcmE4args_0 = internal constant %"struct.node::AssertionInfo" { ptr @.str.228, ptr @.str.175, ptr @.str.227 }, align 8
@.str.228 = private unnamed_addr constant [36 x i8] c"../../src/crypto/crypto_keys.cc:152\00", align 1
@.str.229 = private unnamed_addr constant [26 x i8] c"vector::_M_realloc_insert\00", align 1
@.str.230 = private unnamed_addr constant [19 x i8] c"Invalid JWK format\00", align 1
@.str.231 = private unnamed_addr constant [23 x i8] c"ERR_CRYPTO_INVALID_JWK\00", align 1
@.str.232 = private unnamed_addr constant [30 x i8] c"Invalid JWK secret key format\00", align 1
@.str.233 = private unnamed_addr constant [4 x i8] c"RSA\00", align 1
@.str.234 = private unnamed_addr constant [3 x i8] c"EC\00", align 1
@.str.235 = private unnamed_addr constant [35 x i8] c"%s is not a supported JWK key type\00", align 1
@_ZZN4node11SPrintFImplIRPKcJEEENSt7__cxx1112basic_stringIcSt11char_traitsIcESaIcEEES2_OT_DpOT0_E4args = linkonce_odr dso_local constant %"struct.node::AssertionInfo" { ptr @.str.236, ptr @.str.237, ptr @.str.238 }, comdat, align 8
@.str.236 = private unnamed_addr constant [31 x i8] c"../../src/debug_utils-inl.h:79\00", align 1
@.str.237 = private unnamed_addr constant [15 x i8] c"(p) != nullptr\00", align 1
@.str.238 = private unnamed_addr constant [97 x i8] c"std::string node::SPrintFImpl(const char *, Arg &&, Args &&...) [Arg = const char *&, Args = <>]\00", align 1
@.str.239 = private unnamed_addr constant [3 x i8] c"lz\00", align 1
@.str.240 = private unnamed_addr constant [3 x i8] c"%p\00", align 1
@_ZZN4node11SPrintFImplIRPKcJEEENSt7__cxx1112basic_stringIcSt11char_traitsIcESaIcEEES2_OT_DpOT0_E4args_1 = linkonce_odr dso_local constant %"struct.node::AssertionInfo" { ptr @.str.241, ptr @.str.242, ptr @.str.238 }, comdat, align 8
@.str.241 = private unnamed_addr constant [32 x i8] c"../../src/debug_utils-inl.h:116\00", align 1
@.str.242 = private unnamed_addr constant [11 x i8] c"(n) >= (0)\00", align 1
@.str.243 = private unnamed_addr constant [7 x i8] c"(null)\00", align 1
@.str.244 = private unnamed_addr constant [29 x i8] c"Unsupported crypto operation\00", align 1
@.str.245 = private unnamed_addr constant [33 x i8] c"ERR_CRYPTO_UNSUPPORTED_OPERATION\00", align 1
@.str.246 = private unnamed_addr constant [17 x i8] c"Invalid key type\00", align 1
@.str.247 = private unnamed_addr constant [27 x i8] c"ERR_CRYPTO_INVALID_KEYTYPE\00", align 1
@.str.248 = private unnamed_addr constant [81 x i8] c"A message object could not be deserialized successfully in the target vm.Context\00", align 1
@.str.249 = private unnamed_addr constant [39 x i8] c"ERR_MESSAGE_TARGET_CONTEXT_UNAVAILABLE\00", align 1
@.str.250 = private unnamed_addr constant [15 x i8] c"ManagedEVPPKey\00", align 1
@.str.251 = private unnamed_addr constant [22 x i8] c"KeyObjectTransferData\00", align 1
@.str.252 = private unnamed_addr constant [16 x i8] c"NativeKeyObject\00", align 1
@.str.253 = private unnamed_addr constant [14 x i8] c"KeyObjectData\00", align 1
@_ZTVSt23_Sp_counted_ptr_inplaceIN4node9MutexBaseINS0_16LibuvMutexTraitsEEESaIvELN9__gnu_cxx12_Lock_policyE2EE = linkonce_odr dso_local unnamed_addr constant { [7 x ptr] } { [7 x ptr] [ptr null, ptr null, ptr @_ZNSt23_Sp_counted_ptr_inplaceIN4node9MutexBaseINS0_16LibuvMutexTraitsEEESaIvELN9__gnu_cxx12_Lock_policyE2EED2Ev, ptr @_ZNSt23_Sp_counted_ptr_inplaceIN4node9MutexBaseINS0_16LibuvMutexTraitsEEESaIvELN9__gnu_cxx12_Lock_policyE2EED0Ev, ptr @_ZNSt23_Sp_counted_ptr_inplaceIN4node9MutexBaseINS0_16LibuvMutexTraitsEEESaIvELN9__gnu_cxx12_Lock_policyE2EE10_M_disposeEv, ptr @_ZNSt23_Sp_counted_ptr_inplaceIN4node9MutexBaseINS0_16LibuvMutexTraitsEEESaIvELN9__gnu_cxx12_Lock_policyE2EE10_M_destroyEv, ptr @_ZNSt23_Sp_counted_ptr_inplaceIN4node9MutexBaseINS0_16LibuvMutexTraitsEEESaIvELN9__gnu_cxx12_Lock_policyE2EE14_M_get_deleterERKSt9type_info] }, comdat, align 8
@_ZTVSt16_Sp_counted_baseILN9__gnu_cxx12_Lock_policyE2EE = linkonce_odr dso_local unnamed_addr constant { [7 x ptr] } { [7 x ptr] [ptr null, ptr null, ptr @_ZNSt16_Sp_counted_baseILN9__gnu_cxx12_Lock_policyE2EED2Ev, ptr @_ZNSt16_Sp_counted_baseILN9__gnu_cxx12_Lock_policyE2EED0Ev, ptr @__cxa_pure_virtual, ptr @_ZNSt16_Sp_counted_baseILN9__gnu_cxx12_Lock_policyE2EE10_M_destroyEv, ptr @__cxa_pure_virtual] }, comdat, align 8
@_ZZN4node9MutexBaseINS_16LibuvMutexTraitsEEC1EvE4args = linkonce_odr dso_local constant %"struct.node::AssertionInfo" { ptr @.str.254, ptr @.str.255, ptr @.str.256 }, comdat, align 8
@.str.254 = private unnamed_addr constant [27 x i8] c"../../src/node_mutex.h:254\00", align 1
@.str.255 = private unnamed_addr constant [37 x i8] c"(0) == (Traits::mutex_init(&mutex_))\00", align 1
@.str.256 = private unnamed_addr constant [87 x i8] c"node::MutexBase<node::LibuvMutexTraits>::MutexBase() [Traits = node::LibuvMutexTraits]\00", align 1
@_ZZNSt19_Sp_make_shared_tag5_S_tiEvE5__tag = linkonce_odr dso_local constant [16 x i8] zeroinitializer, comdat, align 8
@_ZZN4node6crypto25ArrayBufferOrViewContentsIcEC1EN2v85LocalINS3_5ValueEEEE4args = linkonce_odr dso_local constant %"struct.node::AssertionInfo" { ptr @.str.257, ptr @.str.258, ptr @.str.259 }, comdat, align 8
@.str.257 = private unnamed_addr constant [35 x i8] c"../../src/crypto/crypto_util.h:698\00", align 1
@.str.258 = private unnamed_addr constant [23 x i8] c"IsAnyBufferSource(buf)\00", align 1
@.str.259 = private unnamed_addr constant [106 x i8] c"node::crypto::ArrayBufferOrViewContents<char>::ArrayBufferOrViewContents(v8::Local<v8::Value>) [T = char]\00", align 1
@.str.260 = private unnamed_addr constant [17 x i8] c"ERR_OUT_OF_RANGE\00", align 1
@.str.261 = private unnamed_addr constant [31 x i8] c"../../src/crypto/crypto_util.h\00", align 1
@_ZZN4node6crypto13MallocOpenSSLIcEEPT_mE4args = linkonce_odr dso_local constant %"struct.node::AssertionInfo" { ptr @.str.262, ptr @.str.263, ptr @.str.264 }, comdat, align 8
@.str.262 = private unnamed_addr constant [35 x i8] c"../../src/crypto/crypto_util.h:206\00", align 1
@.str.263 = private unnamed_addr constant [34 x i8] c"!(mem == nullptr) || (count == 0)\00", align 1
@.str.264 = private unnamed_addr constant [50 x i8] c"T *node::crypto::MallocOpenSSL(size_t) [T = char]\00", align 1
@_ZZN4node25MultiplyWithOverflowCheckImEET_S1_S1_E4args = linkonce_odr dso_local constant %"struct.node::AssertionInfo" { ptr @.str.265, ptr @.str.266, ptr @.str.267 }, comdat, align 8
@.str.265 = private unnamed_addr constant [25 x i8] c"../../src/util-inl.h:329\00", align 1
@.str.266 = private unnamed_addr constant [17 x i8] c"(b) == (ret / a)\00", align 1
@.str.267 = private unnamed_addr constant [60 x i8] c"T node::MultiplyWithOverflowCheck(T, T) [T = unsigned long]\00", align 1
@_ZZNO4node6crypto10ByteSource7Builder7releaseESt8optionalImEE4args = linkonce_odr dso_local constant %"struct.node::AssertionInfo" { ptr @.str.268, ptr @.str.269, ptr @.str.270 }, comdat, align 8
@.str.268 = private unnamed_addr constant [35 x i8] c"../../src/crypto/crypto_util.h:240\00", align 1
@.str.269 = private unnamed_addr constant [21 x i8] c"(*resize) <= (size_)\00", align 1
@.str.270 = private unnamed_addr constant [80 x i8] c"ByteSource node::crypto::ByteSource::Builder::release(std::optional<size_t>) &&\00", align 1
@_ZSt8in_place = linkonce_odr dso_local constant %"struct.std::in_place_t" zeroinitializer, comdat, align 1
@_ZZN4node16NonCopyableMaybeINS_6crypto24PrivateKeyEncodingConfigEE7ReleaseEvE4args = linkonce_odr dso_local constant %"struct.node::AssertionInfo" { ptr @.str.271, ptr @.str.272, ptr @.str.273 }, comdat, align 8
@.str.271 = private unnamed_addr constant [21 x i8] c"../../src/util.h:672\00", align 1
@.str.272 = private unnamed_addr constant [20 x i8] c"(empty_) == (false)\00", align 1
@.str.273 = private unnamed_addr constant [123 x i8] c"T &&node::NonCopyableMaybe<node::crypto::PrivateKeyEncodingConfig>::Release() [T = node::crypto::PrivateKeyEncodingConfig]\00", align 1
@.str.274 = private unnamed_addr constant [23 x i8] c"ERR_MISSING_PASSPHRASE\00", align 1
@_ZTVSt15_Sp_counted_ptrIPN4node6crypto13KeyObjectDataELN9__gnu_cxx12_Lock_policyE2EE = linkonce_odr dso_local unnamed_addr constant { [7 x ptr] } { [7 x ptr] [ptr null, ptr null, ptr @_ZNSt15_Sp_counted_ptrIPN4node6crypto13KeyObjectDataELN9__gnu_cxx12_Lock_policyE2EED2Ev, ptr @_ZNSt15_Sp_counted_ptrIPN4node6crypto13KeyObjectDataELN9__gnu_cxx12_Lock_policyE2EED0Ev, ptr @_ZNSt15_Sp_counted_ptrIPN4node6crypto13KeyObjectDataELN9__gnu_cxx12_Lock_policyE2EE10_M_disposeEv, ptr @_ZNSt15_Sp_counted_ptrIPN4node6crypto13KeyObjectDataELN9__gnu_cxx12_Lock_policyE2EE10_M_destroyEv, ptr @_ZNSt15_Sp_counted_ptrIPN4node6crypto13KeyObjectDataELN9__gnu_cxx12_Lock_policyE2EE14_M_get_deleterERKSt9type_info] }, comdat, align 8
@_ZSt7nullopt = linkonce_odr dso_local constant %"struct.std::nullopt_t" undef, comdat, align 1
@_ZZN4node6crypto25ArrayBufferOrViewContentsIhEC1EN2v85LocalINS3_5ValueEEEE4args = linkonce_odr dso_local constant %"struct.node::AssertionInfo" { ptr @.str.257, ptr @.str.258, ptr @.str.275 }, comdat, align 8
@.str.275 = private unnamed_addr constant [124 x i8] c"node::crypto::ArrayBufferOrViewContents<unsigned char>::ArrayBufferOrViewContents(v8::Local<v8::Value>) [T = unsigned char]\00", align 1
@_ZZN4node17BaseObjectPtrImplINS_10BaseObjectELb0EEC1EPS1_E4args_0 = linkonce_odr dso_local constant %"struct.node::AssertionInfo" { ptr @.str.276, ptr @.str.277, ptr @.str.278 }, comdat, align 8
@.str.276 = private unnamed_addr constant [32 x i8] c"../../src/base_object-inl.h:206\00", align 1
@.str.277 = private unnamed_addr constant [28 x i8] c"(pointer_data()) != nullptr\00", align 1
@.str.278 = private unnamed_addr constant [113 x i8] c"node::BaseObjectPtrImpl<node::BaseObject, false>::BaseObjectPtrImpl(T *) [T = node::BaseObject, kIsWeak = false]\00", align 1
@_ZTVN4node6worker12TransferDataE = external unnamed_addr constant { [12 x ptr] }, align 8
@llvm.global_ctors = appending global [1 x { i32, ptr, ptr }] [{ i32, ptr, ptr } { i32 65535, ptr @_GLOBAL__sub_I_crypto_keys.cc, ptr null }]

@_ZN4node6crypto14ManagedEVPPKeyC1EOSt10unique_ptrI11evp_pkey_stNS_15FunctionDeleterIS3_XadL_Z13EVP_PKEY_freeEEEEE = dso_local unnamed_addr alias void (ptr, ptr), ptr @_ZN4node6crypto14ManagedEVPPKeyC2EOSt10unique_ptrI11evp_pkey_stNS_15FunctionDeleterIS3_XadL_Z13EVP_PKEY_freeEEEEE
@_ZN4node6crypto14ManagedEVPPKeyC1ERKS1_ = dso_local unnamed_addr alias void (ptr, ptr), ptr @_ZN4node6crypto14ManagedEVPPKeyC2ERKS1_
@_ZN4node6crypto13KeyObjectDataC1ENS0_10ByteSourceE = dso_local unnamed_addr alias void (ptr, ptr), ptr @_ZN4node6crypto13KeyObjectDataC2ENS0_10ByteSourceE
@_ZN4node6crypto13KeyObjectDataC1ENS0_7KeyTypeERKNS0_14ManagedEVPPKeyE = dso_local unnamed_addr alias void (ptr, i32, ptr), ptr @_ZN4node6crypto13KeyObjectDataC2ENS0_7KeyTypeERKNS0_14ManagedEVPPKeyE
@_ZN4node6crypto15KeyObjectHandleC1EPNS_11EnvironmentEN2v85LocalINS4_6ObjectEEE = dso_local unnamed_addr alias void (ptr, ptr, ptr), ptr @_ZN4node6crypto15KeyObjectHandleC2EPNS_11EnvironmentEN2v85LocalINS4_6ObjectEEE

; Function Attrs: nounwind uwtable
define internal void @__cxx_global_var_init() #0 section ".text.startup" {
entry:
  call void @_ZNSt8ios_base4InitC1Ev(ptr noundef nonnull align 1 dereferenceable(1) @_ZStL8__ioinit)
  %0 = call i32 @__cxa_atexit(ptr @_ZNSt8ios_base4InitD1Ev, ptr @_ZStL8__ioinit, ptr @__dso_handle) #3
  ret void
}

declare void @_ZNSt8ios_base4InitC1Ev(ptr noundef nonnull align 1 dereferenceable(1)) unnamed_addr #1

; Function Attrs: nounwind
declare void @_ZNSt8ios_base4InitD1Ev(ptr noundef nonnull align 1 dereferenceable(1)) unnamed_addr #2

; Function Attrs: nounwind
declare i32 @__cxa_atexit(ptr, ptr, ptr) #3

; Function Attrs: mustprogress nounwind uwtable
define dso_local void @_ZN4node6crypto14ManagedEVPPKeyC2EOSt10unique_ptrI11evp_pkey_stNS_15FunctionDeleterIS3_XadL_Z13EVP_PKEY_freeEEEEE(ptr noundef nonnull align 8 dereferenceable(32) %this, ptr noundef nonnull align 8 dereferenceable(8) %pkey) unnamed_addr #4 align 2 {
entry:
  %this.addr = alloca ptr, align 8
  %pkey.addr = alloca ptr, align 8
  store ptr %this, ptr %this.addr, align 8
  store ptr %pkey, ptr %pkey.addr, align 8
  %this1 = load ptr, ptr %this.addr, align 8
  call void @_ZN4node14MemoryRetainerC2Ev(ptr noundef nonnull align 8 dereferenceable(8) %this1) #3
  store ptr getelementptr inbounds ({ [10 x ptr] }, ptr @_ZTVN4node6crypto14ManagedEVPPKeyE, i32 0, inrange i32 0, i32 2), ptr %this1, align 8
  %pkey_ = getelementptr inbounds %"class.node::crypto::ManagedEVPPKey", ptr %this1, i32 0, i32 1
  %0 = load ptr, ptr %pkey.addr, align 8
  call void @_ZNSt10unique_ptrI11evp_pkey_stN4node15FunctionDeleterIS0_XadL_Z13EVP_PKEY_freeEEEEEC2EOS4_(ptr noundef nonnull align 8 dereferenceable(8) %pkey_, ptr noundef nonnull align 8 dereferenceable(8) %0) #3
  %mutex_ = getelementptr inbounds %"class.node::crypto::ManagedEVPPKey", ptr %this1, i32 0, i32 2
  call void @_ZSt11make_sharedIN4node9MutexBaseINS0_16LibuvMutexTraitsEEEJEESt10shared_ptrINSt9enable_ifIXntsr8is_arrayIT_EE5valueES6_E4typeEEDpOT0_(ptr sret(%"class.std::shared_ptr") align 8 %mutex_)
  ret void
}

; Function Attrs: mustprogress nounwind uwtable
define linkonce_odr dso_local void @_ZN4node14MemoryRetainerC2Ev(ptr noundef nonnull align 8 dereferenceable(8) %this) unnamed_addr #4 comdat align 2 {
entry:
  %this.addr = alloca ptr, align 8
  store ptr %this, ptr %this.addr, align 8
  %this1 = load ptr, ptr %this.addr, align 8
  store ptr getelementptr inbounds ({ [10 x ptr] }, ptr @_ZTVN4node14MemoryRetainerE, i32 0, inrange i32 0, i32 2), ptr %this1, align 8
  ret void
}

; Function Attrs: mustprogress nounwind uwtable
define linkonce_odr dso_local void @_ZNSt10unique_ptrI11evp_pkey_stN4node15FunctionDeleterIS0_XadL_Z13EVP_PKEY_freeEEEEEC2EOS4_(ptr noundef nonnull align 8 dereferenceable(8) %this, ptr noundef nonnull align 8 dereferenceable(8) %0) unnamed_addr #4 comdat align 2 {
entry:
  %this.addr = alloca ptr, align 8
  %.addr = alloca ptr, align 8
  store ptr %this, ptr %this.addr, align 8
  store ptr %0, ptr %.addr, align 8
  %this1 = load ptr, ptr %this.addr, align 8
  %_M_t = getelementptr inbounds %"class.std::unique_ptr", ptr %this1, i32 0, i32 0
  %1 = load ptr, ptr %.addr, align 8
  %_M_t2 = getelementptr inbounds %"class.std::unique_ptr", ptr %1, i32 0, i32 0
  call void @_ZNSt15__uniq_ptr_dataI11evp_pkey_stN4node15FunctionDeleterIS0_XadL_Z13EVP_PKEY_freeEEEELb1ELb1EEC2EOS4_(ptr noundef nonnull align 8 dereferenceable(8) %_M_t, ptr noundef nonnull align 8 dereferenceable(8) %_M_t2) #3
  ret void
}

; Function Attrs: mustprogress nounwind uwtable
define linkonce_odr dso_local void @_ZSt11make_sharedIN4node9MutexBaseINS0_16LibuvMutexTraitsEEEJEESt10shared_ptrINSt9enable_ifIXntsr8is_arrayIT_EE5valueES6_E4typeEEDpOT0_(ptr noalias sret(%"class.std::shared_ptr") align 8 %agg.result) #4 comdat {
entry:
  %result.ptr = alloca ptr, align 8
  %__a = alloca %"class.std::allocator.484", align 1
  %agg.tmp = alloca %"struct.std::_Sp_alloc_shared_tag", align 8
  store ptr %agg.result, ptr %result.ptr, align 8
  %_M_a = getelementptr inbounds %"struct.std::_Sp_alloc_shared_tag", ptr %agg.tmp, i32 0, i32 0
  store ptr %__a, ptr %_M_a, align 8
  %coerce.dive = getelementptr inbounds %"struct.std::_Sp_alloc_shared_tag", ptr %agg.tmp, i32 0, i32 0
  %0 = load ptr, ptr %coerce.dive, align 8
  call void @_ZNSt10shared_ptrIN4node9MutexBaseINS0_16LibuvMutexTraitsEEEEC2ISaIvEJEEESt20_Sp_alloc_shared_tagIT_EDpOT0_(ptr noundef nonnull align 8 dereferenceable(16) %agg.result, ptr %0)
  ret void
}

; Function Attrs: mustprogress nounwind uwtable
define dso_local void @_ZN4node6crypto14ManagedEVPPKeyC2ERKS1_(ptr noundef nonnull align 8 dereferenceable(32) %this, ptr noundef nonnull align 8 dereferenceable(32) %that) unnamed_addr #4 align 2 {
entry:
  %this.addr = alloca ptr, align 8
  %that.addr = alloca ptr, align 8
  store ptr %this, ptr %this.addr, align 8
  store ptr %that, ptr %that.addr, align 8
  %this1 = load ptr, ptr %this.addr, align 8
  call void @_ZN4node14MemoryRetainerC2Ev(ptr noundef nonnull align 8 dereferenceable(8) %this1) #3
  store ptr getelementptr inbounds ({ [10 x ptr] }, ptr @_ZTVN4node6crypto14ManagedEVPPKeyE, i32 0, inrange i32 0, i32 2), ptr %this1, align 8
  %pkey_ = getelementptr inbounds %"class.node::crypto::ManagedEVPPKey", ptr %this1, i32 0, i32 1
  call void @_ZNSt10unique_ptrI11evp_pkey_stN4node15FunctionDeleterIS0_XadL_Z13EVP_PKEY_freeEEEEEC2IS3_vEEv(ptr noundef nonnull align 8 dereferenceable(8) %pkey_) #3
  %mutex_ = getelementptr inbounds %"class.node::crypto::ManagedEVPPKey", ptr %this1, i32 0, i32 2
  call void @_ZNSt10shared_ptrIN4node9MutexBaseINS0_16LibuvMutexTraitsEEEEC2Ev(ptr noundef nonnull align 8 dereferenceable(16) %mutex_) #3
  %0 = load ptr, ptr %that.addr, align 8
  %call = call noundef nonnull align 8 dereferenceable(32) ptr @_ZN4node6crypto14ManagedEVPPKeyaSERKS1_(ptr noundef nonnull align 8 dereferenceable(32) %this1, ptr noundef nonnull align 8 dereferenceable(32) %0)
  ret void
}

; Function Attrs: mustprogress nounwind uwtable
define linkonce_odr dso_local void @_ZNSt10unique_ptrI11evp_pkey_stN4node15FunctionDeleterIS0_XadL_Z13EVP_PKEY_freeEEEEEC2IS3_vEEv(ptr noundef nonnull align 8 dereferenceable(8) %this) unnamed_addr #4 comdat align 2 {
entry:
  %this.addr = alloca ptr, align 8
  store ptr %this, ptr %this.addr, align 8
  %this1 = load ptr, ptr %this.addr, align 8
  %_M_t = getelementptr inbounds %"class.std::unique_ptr", ptr %this1, i32 0, i32 0
  call void @llvm.memset.p0.i64(ptr align 8 %_M_t, i8 0, i64 8, i1 false)
  call void @_ZNSt15__uniq_ptr_dataI11evp_pkey_stN4node15FunctionDeleterIS0_XadL_Z13EVP_PKEY_freeEEEELb1ELb1EEC2Ev(ptr noundef nonnull align 8 dereferenceable(8) %_M_t) #3
  ret void
}

; Function Attrs: mustprogress nounwind uwtable
define linkonce_odr dso_local void @_ZNSt10shared_ptrIN4node9MutexBaseINS0_16LibuvMutexTraitsEEEEC2Ev(ptr noundef nonnull align 8 dereferenceable(16) %this) unnamed_addr #4 comdat align 2 {
entry:
  %this.addr = alloca ptr, align 8
  store ptr %this, ptr %this.addr, align 8
  %this1 = load ptr, ptr %this.addr, align 8
  call void @_ZNSt12__shared_ptrIN4node9MutexBaseINS0_16LibuvMutexTraitsEEELN9__gnu_cxx12_Lock_policyE2EEC2Ev(ptr noundef nonnull align 8 dereferenceable(16) %this1) #3
  ret void
}

; Function Attrs: mustprogress nounwind uwtable
define dso_local noundef nonnull align 8 dereferenceable(32) ptr @_ZN4node6crypto14ManagedEVPPKeyaSERKS1_(ptr noundef nonnull align 8 dereferenceable(32) %this, ptr noundef nonnull align 8 dereferenceable(32) %that) #4 align 2 {
entry:
  %this.addr = alloca ptr, align 8
  %that.addr = alloca ptr, align 8
  %lock = alloca %"class.node::MutexBase<node::LibuvMutexTraits>::ScopedLock", align 8
  store ptr %this, ptr %this.addr, align 8
  store ptr %that, ptr %that.addr, align 8
  %this1 = load ptr, ptr %this.addr, align 8
  %0 = load ptr, ptr %that.addr, align 8
  %mutex_ = getelementptr inbounds %"class.node::crypto::ManagedEVPPKey", ptr %0, i32 0, i32 2
  %call = call noundef nonnull align 8 dereferenceable(40) ptr @_ZNKSt19__shared_ptr_accessIN4node9MutexBaseINS0_16LibuvMutexTraitsEEELN9__gnu_cxx12_Lock_policyE2ELb0ELb0EEdeEv(ptr noundef nonnull align 1 dereferenceable(1) %mutex_) #3
  call void @_ZN4node9MutexBaseINS_16LibuvMutexTraitsEE10ScopedLockC2ERKS2_(ptr noundef nonnull align 8 dereferenceable(8) %lock, ptr noundef nonnull align 8 dereferenceable(40) %call)
  %pkey_ = getelementptr inbounds %"class.node::crypto::ManagedEVPPKey", ptr %this1, i32 0, i32 1
  %1 = load ptr, ptr %that.addr, align 8
  %call2 = call noundef ptr @_ZNK4node6crypto14ManagedEVPPKey3getEv(ptr noundef nonnull align 8 dereferenceable(32) %1)
  call void @_ZNSt10unique_ptrI11evp_pkey_stN4node15FunctionDeleterIS0_XadL_Z13EVP_PKEY_freeEEEEE5resetEPS0_(ptr noundef nonnull align 8 dereferenceable(8) %pkey_, ptr noundef %call2) #3
  %pkey_3 = getelementptr inbounds %"class.node::crypto::ManagedEVPPKey", ptr %this1, i32 0, i32 1
  %call4 = call noundef zeroext i1 @_ZNKSt10unique_ptrI11evp_pkey_stN4node15FunctionDeleterIS0_XadL_Z13EVP_PKEY_freeEEEEEcvbEv(ptr noundef nonnull align 8 dereferenceable(8) %pkey_3) #3
  br i1 %call4, label %if.then, label %if.end

if.then:                                          ; preds = %entry
  %pkey_5 = getelementptr inbounds %"class.node::crypto::ManagedEVPPKey", ptr %this1, i32 0, i32 1
  %call6 = call noundef ptr @_ZNKSt10unique_ptrI11evp_pkey_stN4node15FunctionDeleterIS0_XadL_Z13EVP_PKEY_freeEEEEE3getEv(ptr noundef nonnull align 8 dereferenceable(8) %pkey_5) #3
  %call7 = call i32 @EVP_PKEY_up_ref(ptr noundef %call6)
  br label %if.end

if.end:                                           ; preds = %if.then, %entry
  %2 = load ptr, ptr %that.addr, align 8
  %mutex_8 = getelementptr inbounds %"class.node::crypto::ManagedEVPPKey", ptr %2, i32 0, i32 2
  %mutex_9 = getelementptr inbounds %"class.node::crypto::ManagedEVPPKey", ptr %this1, i32 0, i32 2
  %call10 = call noundef nonnull align 8 dereferenceable(16) ptr @_ZNSt10shared_ptrIN4node9MutexBaseINS0_16LibuvMutexTraitsEEEEaSERKS4_(ptr noundef nonnull align 8 dereferenceable(16) %mutex_9, ptr noundef nonnull align 8 dereferenceable(16) %mutex_8) #3
  call void @_ZN4node9MutexBaseINS_16LibuvMutexTraitsEE10ScopedLockD2Ev(ptr noundef nonnull align 8 dereferenceable(8) %lock) #3
  ret ptr %this1
}

; Function Attrs: mustprogress nounwind uwtable
define linkonce_odr dso_local noundef nonnull align 8 dereferenceable(40) ptr @_ZNKSt19__shared_ptr_accessIN4node9MutexBaseINS0_16LibuvMutexTraitsEEELN9__gnu_cxx12_Lock_policyE2ELb0ELb0EEdeEv(ptr noundef nonnull align 1 dereferenceable(1) %this) #4 comdat align 2 {
entry:
  %this.addr = alloca ptr, align 8
  store ptr %this, ptr %this.addr, align 8
  %this1 = load ptr, ptr %this.addr, align 8
  br label %do.body

do.body:                                          ; preds = %entry
  br label %do.end

do.end:                                           ; preds = %do.body
  %call = call noundef ptr @_ZNKSt19__shared_ptr_accessIN4node9MutexBaseINS0_16LibuvMutexTraitsEEELN9__gnu_cxx12_Lock_policyE2ELb0ELb0EE6_M_getEv(ptr noundef nonnull align 1 dereferenceable(1) %this1) #3
  ret ptr %call
}

; Function Attrs: mustprogress nounwind uwtable
define linkonce_odr dso_local void @_ZN4node9MutexBaseINS_16LibuvMutexTraitsEE10ScopedLockC2ERKS2_(ptr noundef nonnull align 8 dereferenceable(8) %this, ptr noundef nonnull align 8 dereferenceable(40) %mutex) unnamed_addr #4 comdat align 2 {
entry:
  %this.addr = alloca ptr, align 8
  %mutex.addr = alloca ptr, align 8
  store ptr %this, ptr %this.addr, align 8
  store ptr %mutex, ptr %mutex.addr, align 8
  %this1 = load ptr, ptr %this.addr, align 8
  %mutex_ = getelementptr inbounds %"class.node::MutexBase<node::LibuvMutexTraits>::ScopedLock", ptr %this1, i32 0, i32 0
  %0 = load ptr, ptr %mutex.addr, align 8
  store ptr %0, ptr %mutex_, align 8
  %mutex_2 = getelementptr inbounds %"class.node::MutexBase<node::LibuvMutexTraits>::ScopedLock", ptr %this1, i32 0, i32 0
  %1 = load ptr, ptr %mutex_2, align 8
  %mutex_3 = getelementptr inbounds %"class.node::MutexBase", ptr %1, i32 0, i32 0
  call void @_ZN4node16LibuvMutexTraits10mutex_lockEP15pthread_mutex_t(ptr noundef %mutex_3)
  ret void
}

; Function Attrs: mustprogress nounwind uwtable
define linkonce_odr dso_local void @_ZNSt10unique_ptrI11evp_pkey_stN4node15FunctionDeleterIS0_XadL_Z13EVP_PKEY_freeEEEEE5resetEPS0_(ptr noundef nonnull align 8 dereferenceable(8) %this, ptr noundef %__p) #4 comdat align 2 {
entry:
  %this.addr = alloca ptr, align 8
  %__p.addr = alloca ptr, align 8
  store ptr %this, ptr %this.addr, align 8
  store ptr %__p, ptr %__p.addr, align 8
  %this1 = load ptr, ptr %this.addr, align 8
  %_M_t = getelementptr inbounds %"class.std::unique_ptr", ptr %this1, i32 0, i32 0
  %0 = load ptr, ptr %__p.addr, align 8
  call void @_ZNSt15__uniq_ptr_implI11evp_pkey_stN4node15FunctionDeleterIS0_XadL_Z13EVP_PKEY_freeEEEEE5resetEPS0_(ptr noundef nonnull align 8 dereferenceable(8) %_M_t, ptr noundef %0) #3
  ret void
}

; Function Attrs: mustprogress nounwind uwtable
define dso_local noundef ptr @_ZNK4node6crypto14ManagedEVPPKey3getEv(ptr noundef nonnull align 8 dereferenceable(32) %this) #4 align 2 {
entry:
  %this.addr = alloca ptr, align 8
  store ptr %this, ptr %this.addr, align 8
  %this1 = load ptr, ptr %this.addr, align 8
  %pkey_ = getelementptr inbounds %"class.node::crypto::ManagedEVPPKey", ptr %this1, i32 0, i32 1
  %call = call noundef ptr @_ZNKSt10unique_ptrI11evp_pkey_stN4node15FunctionDeleterIS0_XadL_Z13EVP_PKEY_freeEEEEE3getEv(ptr noundef nonnull align 8 dereferenceable(8) %pkey_) #3
  ret ptr %call
}

; Function Attrs: mustprogress nounwind uwtable
define linkonce_odr dso_local noundef zeroext i1 @_ZNKSt10unique_ptrI11evp_pkey_stN4node15FunctionDeleterIS0_XadL_Z13EVP_PKEY_freeEEEEEcvbEv(ptr noundef nonnull align 8 dereferenceable(8) %this) #4 comdat align 2 {
entry:
  %this.addr = alloca ptr, align 8
  store ptr %this, ptr %this.addr, align 8
  %this1 = load ptr, ptr %this.addr, align 8
  %call = call noundef ptr @_ZNKSt10unique_ptrI11evp_pkey_stN4node15FunctionDeleterIS0_XadL_Z13EVP_PKEY_freeEEEEE3getEv(ptr noundef nonnull align 8 dereferenceable(8) %this1) #3
  %cmp = icmp eq ptr %call, null
  %cond = select i1 %cmp, i1 false, i1 true
  ret i1 %cond
}

declare i32 @EVP_PKEY_up_ref(ptr noundef) #1

; Function Attrs: mustprogress nounwind uwtable
define linkonce_odr dso_local noundef ptr @_ZNKSt10unique_ptrI11evp_pkey_stN4node15FunctionDeleterIS0_XadL_Z13EVP_PKEY_freeEEEEE3getEv(ptr noundef nonnull align 8 dereferenceable(8) %this) #4 comdat align 2 {
entry:
  %this.addr = alloca ptr, align 8
  store ptr %this, ptr %this.addr, align 8
  %this1 = load ptr, ptr %this.addr, align 8
  %_M_t = getelementptr inbounds %"class.std::unique_ptr", ptr %this1, i32 0, i32 0
  %call = call noundef ptr @_ZNKSt15__uniq_ptr_implI11evp_pkey_stN4node15FunctionDeleterIS0_XadL_Z13EVP_PKEY_freeEEEEE6_M_ptrEv(ptr noundef nonnull align 8 dereferenceable(8) %_M_t) #3
  ret ptr %call
}

; Function Attrs: mustprogress nounwind uwtable
define linkonce_odr dso_local noundef nonnull align 8 dereferenceable(16) ptr @_ZNSt10shared_ptrIN4node9MutexBaseINS0_16LibuvMutexTraitsEEEEaSERKS4_(ptr noundef nonnull align 8 dereferenceable(16) %this, ptr noundef nonnull align 8 dereferenceable(16) %0) #4 comdat align 2 {
entry:
  %this.addr = alloca ptr, align 8
  %.addr = alloca ptr, align 8
  store ptr %this, ptr %this.addr, align 8
  store ptr %0, ptr %.addr, align 8
  %this1 = load ptr, ptr %this.addr, align 8
  %1 = load ptr, ptr %.addr, align 8
  %call = call noundef nonnull align 8 dereferenceable(16) ptr @_ZNSt12__shared_ptrIN4node9MutexBaseINS0_16LibuvMutexTraitsEEELN9__gnu_cxx12_Lock_policyE2EEaSERKS6_(ptr noundef nonnull align 8 dereferenceable(16) %this1, ptr noundef nonnull align 8 dereferenceable(16) %1) #3
  ret ptr %this1
}

; Function Attrs: mustprogress nounwind uwtable
define linkonce_odr dso_local void @_ZN4node9MutexBaseINS_16LibuvMutexTraitsEE10ScopedLockD2Ev(ptr noundef nonnull align 8 dereferenceable(8) %this) unnamed_addr #4 comdat align 2 {
entry:
  %this.addr = alloca ptr, align 8
  store ptr %this, ptr %this.addr, align 8
  %this1 = load ptr, ptr %this.addr, align 8
  %mutex_ = getelementptr inbounds %"class.node::MutexBase<node::LibuvMutexTraits>::ScopedLock", ptr %this1, i32 0, i32 0
  %0 = load ptr, ptr %mutex_, align 8
  %mutex_2 = getelementptr inbounds %"class.node::MutexBase", ptr %0, i32 0, i32 0
  call void @_ZN4node16LibuvMutexTraits12mutex_unlockEP15pthread_mutex_t(ptr noundef %mutex_2)
  ret void
}

; Function Attrs: mustprogress nounwind uwtable
define dso_local noundef zeroext i1 @_ZNK4node6crypto14ManagedEVPPKeycvbEv(ptr noundef nonnull align 8 dereferenceable(32) %this) #4 align 2 {
entry:
  %this.addr = alloca ptr, align 8
  store ptr %this, ptr %this.addr, align 8
  %this1 = load ptr, ptr %this.addr, align 8
  %pkey_ = getelementptr inbounds %"class.node::crypto::ManagedEVPPKey", ptr %this1, i32 0, i32 1
  %call = call noundef zeroext i1 @_ZNKSt10unique_ptrI11evp_pkey_stN4node15FunctionDeleterIS0_XadL_Z13EVP_PKEY_freeEEEEEcvbEv(ptr noundef nonnull align 8 dereferenceable(8) %pkey_) #3
  %lnot = xor i1 %call, true
  %lnot2 = xor i1 %lnot, true
  ret i1 %lnot2
}

; Function Attrs: mustprogress nounwind uwtable
define dso_local noundef ptr @_ZNK4node6crypto14ManagedEVPPKey5mutexEv(ptr noundef nonnull align 8 dereferenceable(32) %this) #4 align 2 {
entry:
  %this.addr = alloca ptr, align 8
  store ptr %this, ptr %this.addr, align 8
  %this1 = load ptr, ptr %this.addr, align 8
  %mutex_ = getelementptr inbounds %"class.node::crypto::ManagedEVPPKey", ptr %this1, i32 0, i32 2
  %call = call noundef ptr @_ZNKSt12__shared_ptrIN4node9MutexBaseINS0_16LibuvMutexTraitsEEELN9__gnu_cxx12_Lock_policyE2EE3getEv(ptr noundef nonnull align 8 dereferenceable(16) %mutex_) #3
  ret ptr %call
}

; Function Attrs: mustprogress nounwind uwtable
define linkonce_odr dso_local noundef ptr @_ZNKSt12__shared_ptrIN4node9MutexBaseINS0_16LibuvMutexTraitsEEELN9__gnu_cxx12_Lock_policyE2EE3getEv(ptr noundef nonnull align 8 dereferenceable(16) %this) #4 comdat align 2 {
entry:
  %this.addr = alloca ptr, align 8
  store ptr %this, ptr %this.addr, align 8
  %this1 = load ptr, ptr %this.addr, align 8
  %_M_ptr = getelementptr inbounds %"class.std::__shared_ptr", ptr %this1, i32 0, i32 0
  %0 = load ptr, ptr %_M_ptr, align 8
  ret ptr %0
}

; Function Attrs: mustprogress nounwind uwtable
define dso_local void @_ZNK4node6crypto14ManagedEVPPKey10MemoryInfoEPNS_13MemoryTrackerE(ptr noundef nonnull align 8 dereferenceable(32) %this, ptr noundef %tracker) unnamed_addr #4 align 2 {
entry:
  %this.addr = alloca ptr, align 8
  %tracker.addr = alloca ptr, align 8
  store ptr %this, ptr %this.addr, align 8
  store ptr %tracker, ptr %tracker.addr, align 8
  %this1 = load ptr, ptr %this.addr, align 8
  %0 = load ptr, ptr %tracker.addr, align 8
  %pkey_ = getelementptr inbounds %"class.node::crypto::ManagedEVPPKey", ptr %this1, i32 0, i32 1
  %call = call noundef zeroext i1 @_ZNKSt10unique_ptrI11evp_pkey_stN4node15FunctionDeleterIS0_XadL_Z13EVP_PKEY_freeEEEEEcvbEv(ptr noundef nonnull align 8 dereferenceable(8) %pkey_) #3
  br i1 %call, label %cond.false, label %cond.true

cond.true:                                        ; preds = %entry
  br label %cond.end

cond.false:                                       ; preds = %entry
  %call2 = call noundef i64 @_ZNK4node6crypto14ManagedEVPPKey19size_of_private_keyEv(ptr noundef nonnull align 8 dereferenceable(32) %this1)
  %add = add i64 72, %call2
  %call3 = call noundef i64 @_ZNK4node6crypto14ManagedEVPPKey18size_of_public_keyEv(ptr noundef nonnull align 8 dereferenceable(32) %this1)
  %add4 = add i64 %add, %call3
  br label %cond.end

cond.end:                                         ; preds = %cond.false, %cond.true
  %cond = phi i64 [ 0, %cond.true ], [ %add4, %cond.false ]
  call void @_ZN4node13MemoryTracker18TrackFieldWithSizeEPKcmS2_(ptr noundef nonnull align 8 dereferenceable(152) %0, ptr noundef @.str, i64 noundef %cond, ptr noundef null)
  ret void
}

; Function Attrs: mustprogress nounwind uwtable
define linkonce_odr dso_local void @_ZN4node13MemoryTracker18TrackFieldWithSizeEPKcmS2_(ptr noundef nonnull align 8 dereferenceable(152) %this, ptr noundef %edge_name, i64 noundef %size, ptr noundef %node_name) #4 comdat align 2 {
entry:
  %this.addr = alloca ptr, align 8
  %edge_name.addr = alloca ptr, align 8
  %size.addr = alloca i64, align 8
  %node_name.addr = alloca ptr, align 8
  store ptr %this, ptr %this.addr, align 8
  store ptr %edge_name, ptr %edge_name.addr, align 8
  store i64 %size, ptr %size.addr, align 8
  store ptr %node_name, ptr %node_name.addr, align 8
  %this1 = load ptr, ptr %this.addr, align 8
  %0 = load i64, ptr %size.addr, align 8
  %cmp = icmp ugt i64 %0, 0
  br i1 %cmp, label %if.then, label %if.end

if.then:                                          ; preds = %entry
  %1 = load ptr, ptr %node_name.addr, align 8
  %2 = load ptr, ptr %edge_name.addr, align 8
  %call = call noundef ptr @_ZN4node11GetNodeNameEPKcS1_(ptr noundef %1, ptr noundef %2)
  %3 = load i64, ptr %size.addr, align 8
  %4 = load ptr, ptr %edge_name.addr, align 8
  %call2 = call noundef ptr @_ZN4node13MemoryTracker7AddNodeEPKcmS2_(ptr noundef nonnull align 8 dereferenceable(152) %this1, ptr noundef %call, i64 noundef %3, ptr noundef %4)
  br label %if.end

if.end:                                           ; preds = %if.then, %entry
  ret void
}

; Function Attrs: mustprogress nounwind uwtable
define dso_local noundef i64 @_ZNK4node6crypto14ManagedEVPPKey19size_of_private_keyEv(ptr noundef nonnull align 8 dereferenceable(32) %this) #4 align 2 {
entry:
  %this.addr = alloca ptr, align 8
  %len = alloca i64, align 8
  store ptr %this, ptr %this.addr, align 8
  %this1 = load ptr, ptr %this.addr, align 8
  store i64 0, ptr %len, align 8
  %pkey_ = getelementptr inbounds %"class.node::crypto::ManagedEVPPKey", ptr %this1, i32 0, i32 1
  %call = call noundef zeroext i1 @_ZNKSt10unique_ptrI11evp_pkey_stN4node15FunctionDeleterIS0_XadL_Z13EVP_PKEY_freeEEEEEcvbEv(ptr noundef nonnull align 8 dereferenceable(8) %pkey_) #3
  br i1 %call, label %land.lhs.true, label %cond.false

land.lhs.true:                                    ; preds = %entry
  %pkey_2 = getelementptr inbounds %"class.node::crypto::ManagedEVPPKey", ptr %this1, i32 0, i32 1
  %call3 = call noundef ptr @_ZNKSt10unique_ptrI11evp_pkey_stN4node15FunctionDeleterIS0_XadL_Z13EVP_PKEY_freeEEEEE3getEv(ptr noundef nonnull align 8 dereferenceable(8) %pkey_2) #3
  %call4 = call i32 @EVP_PKEY_get_raw_private_key(ptr noundef %call3, ptr noundef null, ptr noundef %len)
  %cmp = icmp eq i32 %call4, 1
  br i1 %cmp, label %cond.true, label %cond.false

cond.true:                                        ; preds = %land.lhs.true
  %0 = load i64, ptr %len, align 8
  br label %cond.end

cond.false:                                       ; preds = %land.lhs.true, %entry
  br label %cond.end

cond.end:                                         ; preds = %cond.false, %cond.true
  %cond = phi i64 [ %0, %cond.true ], [ 0, %cond.false ]
  ret i64 %cond
}

; Function Attrs: mustprogress nounwind uwtable
define dso_local noundef i64 @_ZNK4node6crypto14ManagedEVPPKey18size_of_public_keyEv(ptr noundef nonnull align 8 dereferenceable(32) %this) #4 align 2 {
entry:
  %this.addr = alloca ptr, align 8
  %len = alloca i64, align 8
  store ptr %this, ptr %this.addr, align 8
  %this1 = load ptr, ptr %this.addr, align 8
  store i64 0, ptr %len, align 8
  %pkey_ = getelementptr inbounds %"class.node::crypto::ManagedEVPPKey", ptr %this1, i32 0, i32 1
  %call = call noundef zeroext i1 @_ZNKSt10unique_ptrI11evp_pkey_stN4node15FunctionDeleterIS0_XadL_Z13EVP_PKEY_freeEEEEEcvbEv(ptr noundef nonnull align 8 dereferenceable(8) %pkey_) #3
  br i1 %call, label %land.lhs.true, label %cond.false

land.lhs.true:                                    ; preds = %entry
  %pkey_2 = getelementptr inbounds %"class.node::crypto::ManagedEVPPKey", ptr %this1, i32 0, i32 1
  %call3 = call noundef ptr @_ZNKSt10unique_ptrI11evp_pkey_stN4node15FunctionDeleterIS0_XadL_Z13EVP_PKEY_freeEEEEE3getEv(ptr noundef nonnull align 8 dereferenceable(8) %pkey_2) #3
  %call4 = call i32 @EVP_PKEY_get_raw_public_key(ptr noundef %call3, ptr noundef null, ptr noundef %len)
  %cmp = icmp eq i32 %call4, 1
  br i1 %cmp, label %cond.true, label %cond.false

cond.true:                                        ; preds = %land.lhs.true
  %0 = load i64, ptr %len, align 8
  br label %cond.end

cond.false:                                       ; preds = %land.lhs.true, %entry
  br label %cond.end

cond.end:                                         ; preds = %cond.false, %cond.true
  %cond = phi i64 [ %0, %cond.true ], [ 0, %cond.false ]
  ret i64 %cond
}

declare i32 @EVP_PKEY_get_raw_private_key(ptr noundef, ptr noundef, ptr noundef) #1

declare i32 @EVP_PKEY_get_raw_public_key(ptr noundef, ptr noundef, ptr noundef) #1

; Function Attrs: mustprogress nounwind uwtable
define dso_local i16 @_ZN4node6crypto14ExportJWKInnerEPNS_11EnvironmentESt10shared_ptrINS0_13KeyObjectDataEEN2v85LocalINS6_5ValueEEEb(ptr noundef %env, ptr noundef %key, ptr %result.coerce, i1 noundef zeroext %handleRsaPss) #4 {
entry:
  %this.addr.i41 = alloca ptr, align 8
  %other.addr.i42 = alloca ptr, align 8
  %this.addr.i38 = alloca ptr, align 8
  %other.addr.i39 = alloca ptr, align 8
  %this.addr.i35 = alloca ptr, align 8
  %other.addr.i36 = alloca ptr, align 8
  %this.addr.i33 = alloca ptr, align 8
  %other.addr.i = alloca ptr, align 8
  %retval.i30 = alloca %"class.v8::Local.10", align 8
  %that.i31 = alloca %"class.v8::Local", align 8
  %ref.tmp.i32 = alloca %"class.v8::LocalBase.11", align 8
  %retval.i29 = alloca %"class.v8::Local.10", align 8
  %that.i = alloca %"class.v8::Local", align 8
  %ref.tmp.i = alloca %"class.v8::LocalBase.11", align 8
  %retval.i24 = alloca %"class.v8::Local.10", align 8
  %this.addr.i25 = alloca ptr, align 8
  %agg.tmp.i26 = alloca %"class.v8::Local", align 8
  %retval.i = alloca %"class.v8::Local.10", align 8
  %this.addr.i = alloca ptr, align 8
  %agg.tmp.i = alloca %"class.v8::Local", align 8
  %retval = alloca %"class.v8::Maybe", align 1
  %result = alloca %"class.v8::Local", align 8
  %env.addr = alloca ptr, align 8
  %key.indirect_addr = alloca ptr, align 8
  %handleRsaPss.addr = alloca i8, align 1
  %agg.tmp = alloca %"class.std::shared_ptr.7", align 8
  %agg.tmp4 = alloca %"class.v8::Local.10", align 8
  %agg.tmp14 = alloca %"class.std::shared_ptr.7", align 8
  %agg.tmp15 = alloca %"class.v8::Local.10", align 8
  %coerce.dive = getelementptr inbounds %"class.v8::Local", ptr %result, i32 0, i32 0
  %coerce.dive1 = getelementptr inbounds %"class.v8::LocalBase", ptr %coerce.dive, i32 0, i32 0
  %coerce.dive2 = getelementptr inbounds %"class.v8::IndirectHandleBase", ptr %coerce.dive1, i32 0, i32 0
  store ptr %result.coerce, ptr %coerce.dive2, align 8
  store ptr %env, ptr %env.addr, align 8
  store ptr %key, ptr %key.indirect_addr, align 8
  %frombool = zext i1 %handleRsaPss to i8
  store i8 %frombool, ptr %handleRsaPss.addr, align 1
  %call = call noundef ptr @_ZNKSt19__shared_ptr_accessIN4node6crypto13KeyObjectDataELN9__gnu_cxx12_Lock_policyE2ELb0ELb0EEptEv(ptr noundef nonnull align 1 dereferenceable(1) %key) #3
  %call3 = call noundef i32 @_ZNK4node6crypto13KeyObjectData10GetKeyTypeEv(ptr noundef nonnull align 8 dereferenceable(72) %call)
  switch i32 %call3, label %sw.default [
    i32 0, label %sw.bb
    i32 1, label %sw.bb13
    i32 2, label %sw.bb13
  ]

sw.bb:                                            ; preds = %entry
  %0 = load ptr, ptr %env.addr, align 8
  call void @_ZNSt10shared_ptrIN4node6crypto13KeyObjectDataEEC2ERKS3_(ptr noundef nonnull align 8 dereferenceable(16) %agg.tmp, ptr noundef nonnull align 8 dereferenceable(16) %key) #3
  store ptr %result, ptr %this.addr.i25, align 8
  %this1.i27 = load ptr, ptr %this.addr.i25, align 8
  call void @llvm.memcpy.p0.p0.i64(ptr align 8 %agg.tmp.i26, ptr align 8 %this1.i27, i64 8, i1 false)
  %1 = load ptr, ptr %agg.tmp.i26, align 8
  store ptr %1, ptr %that.i, align 8
  store ptr %ref.tmp.i, ptr %this.addr.i35, align 8
  store ptr %that.i, ptr %other.addr.i36, align 8
  %this1.i37 = load ptr, ptr %this.addr.i35, align 8
  %2 = load ptr, ptr %other.addr.i36, align 8
  call void @llvm.memcpy.p0.p0.i64(ptr align 8 %this1.i37, ptr align 8 %2, i64 8, i1 false)
  store ptr %retval.i29, ptr %this.addr.i41, align 8
  store ptr %ref.tmp.i, ptr %other.addr.i42, align 8
  %this1.i43 = load ptr, ptr %this.addr.i41, align 8
  %3 = load ptr, ptr %other.addr.i42, align 8
  call void @llvm.memcpy.p0.p0.i64(ptr align 8 %this1.i43, ptr align 8 %3, i64 8, i1 false)
  %4 = load ptr, ptr %retval.i29, align 8
  store ptr %4, ptr %retval.i24, align 8
  %5 = load ptr, ptr %retval.i24, align 8
  %coerce.dive6 = getelementptr inbounds %"class.v8::Local.10", ptr %agg.tmp4, i32 0, i32 0
  %coerce.dive7 = getelementptr inbounds %"class.v8::LocalBase.11", ptr %coerce.dive6, i32 0, i32 0
  %coerce.dive8 = getelementptr inbounds %"class.v8::IndirectHandleBase", ptr %coerce.dive7, i32 0, i32 0
  store ptr %5, ptr %coerce.dive8, align 8
  %coerce.dive9 = getelementptr inbounds %"class.v8::Local.10", ptr %agg.tmp4, i32 0, i32 0
  %coerce.dive10 = getelementptr inbounds %"class.v8::LocalBase.11", ptr %coerce.dive9, i32 0, i32 0
  %coerce.dive11 = getelementptr inbounds %"class.v8::IndirectHandleBase", ptr %coerce.dive10, i32 0, i32 0
  %6 = load ptr, ptr %coerce.dive11, align 8
  %call12 = call i16 @_ZN4node6crypto12_GLOBAL__N_118ExportJWKSecretKeyEPNS_11EnvironmentESt10shared_ptrINS0_13KeyObjectDataEEN2v85LocalINS7_6ObjectEEE(ptr noundef %0, ptr noundef %agg.tmp, ptr %6)
  store i16 %call12, ptr %retval, align 1
  call void @_ZNSt10shared_ptrIN4node6crypto13KeyObjectDataEED2Ev(ptr noundef nonnull align 8 dereferenceable(16) %agg.tmp) #3
  br label %return

sw.bb13:                                          ; preds = %entry, %entry
  %7 = load ptr, ptr %env.addr, align 8
  call void @_ZNSt10shared_ptrIN4node6crypto13KeyObjectDataEEC2ERKS3_(ptr noundef nonnull align 8 dereferenceable(16) %agg.tmp14, ptr noundef nonnull align 8 dereferenceable(16) %key) #3
  store ptr %result, ptr %this.addr.i, align 8
  %this1.i = load ptr, ptr %this.addr.i, align 8
  call void @llvm.memcpy.p0.p0.i64(ptr align 8 %agg.tmp.i, ptr align 8 %this1.i, i64 8, i1 false)
  %8 = load ptr, ptr %agg.tmp.i, align 8
  store ptr %8, ptr %that.i31, align 8
  store ptr %ref.tmp.i32, ptr %this.addr.i33, align 8
  store ptr %that.i31, ptr %other.addr.i, align 8
  %this1.i34 = load ptr, ptr %this.addr.i33, align 8
  %9 = load ptr, ptr %other.addr.i, align 8
  call void @llvm.memcpy.p0.p0.i64(ptr align 8 %this1.i34, ptr align 8 %9, i64 8, i1 false)
  store ptr %retval.i30, ptr %this.addr.i38, align 8
  store ptr %ref.tmp.i32, ptr %other.addr.i39, align 8
  %this1.i40 = load ptr, ptr %this.addr.i38, align 8
  %10 = load ptr, ptr %other.addr.i39, align 8
  call void @llvm.memcpy.p0.p0.i64(ptr align 8 %this1.i40, ptr align 8 %10, i64 8, i1 false)
  %11 = load ptr, ptr %retval.i30, align 8
  store ptr %11, ptr %retval.i, align 8
  %12 = load ptr, ptr %retval.i, align 8
  %coerce.dive17 = getelementptr inbounds %"class.v8::Local.10", ptr %agg.tmp15, i32 0, i32 0
  %coerce.dive18 = getelementptr inbounds %"class.v8::LocalBase.11", ptr %coerce.dive17, i32 0, i32 0
  %coerce.dive19 = getelementptr inbounds %"class.v8::IndirectHandleBase", ptr %coerce.dive18, i32 0, i32 0
  store ptr %12, ptr %coerce.dive19, align 8
  %13 = load i8, ptr %handleRsaPss.addr, align 1
  %tobool = trunc i8 %13 to i1
  %coerce.dive20 = getelementptr inbounds %"class.v8::Local.10", ptr %agg.tmp15, i32 0, i32 0
  %coerce.dive21 = getelementptr inbounds %"class.v8::LocalBase.11", ptr %coerce.dive20, i32 0, i32 0
  %coerce.dive22 = getelementptr inbounds %"class.v8::IndirectHandleBase", ptr %coerce.dive21, i32 0, i32 0
  %14 = load ptr, ptr %coerce.dive22, align 8
  %call23 = call i16 @_ZN4node6crypto12_GLOBAL__N_122ExportJWKAsymmetricKeyEPNS_11EnvironmentESt10shared_ptrINS0_13KeyObjectDataEEN2v85LocalINS7_6ObjectEEEb(ptr noundef %7, ptr noundef %agg.tmp14, ptr %14, i1 noundef zeroext %tobool)
  store i16 %call23, ptr %retval, align 1
  call void @_ZNSt10shared_ptrIN4node6crypto13KeyObjectDataEED2Ev(ptr noundef nonnull align 8 dereferenceable(16) %agg.tmp14) #3
  br label %return

sw.default:                                       ; preds = %entry
  br label %do.body

do.body:                                          ; preds = %sw.default
  call void @_ZN4node6AssertERKNS_13AssertionInfoE(ptr noundef nonnull align 8 dereferenceable(24) @_ZZN4node6crypto14ExportJWKInnerEPNS_11EnvironmentESt10shared_ptrINS0_13KeyObjectDataEEN2v85LocalINS6_5ValueEEEbE4args)
  call void @abort() #14
  unreachable

do.end:                                           ; No predecessors!
  br label %sw.epilog

sw.epilog:                                        ; preds = %do.end
  call void @llvm.trap()
  unreachable

return:                                           ; preds = %sw.bb13, %sw.bb
  %15 = load i16, ptr %retval, align 1
  ret i16 %15
}

; Function Attrs: mustprogress nounwind uwtable
define linkonce_odr dso_local noundef ptr @_ZNKSt19__shared_ptr_accessIN4node6crypto13KeyObjectDataELN9__gnu_cxx12_Lock_policyE2ELb0ELb0EEptEv(ptr noundef nonnull align 1 dereferenceable(1) %this) #4 comdat align 2 {
entry:
  %this.addr = alloca ptr, align 8
  store ptr %this, ptr %this.addr, align 8
  %this1 = load ptr, ptr %this.addr, align 8
  %call = call noundef ptr @_ZNKSt19__shared_ptr_accessIN4node6crypto13KeyObjectDataELN9__gnu_cxx12_Lock_policyE2ELb0ELb0EE6_M_getEv(ptr noundef nonnull align 1 dereferenceable(1) %this1) #3
  ret ptr %call
}

; Function Attrs: mustprogress nounwind uwtable
define dso_local noundef i32 @_ZNK4node6crypto13KeyObjectData10GetKeyTypeEv(ptr noundef nonnull align 8 dereferenceable(72) %this) #4 align 2 {
entry:
  %this.addr = alloca ptr, align 8
  store ptr %this, ptr %this.addr, align 8
  %this1 = load ptr, ptr %this.addr, align 8
  %key_type_ = getelementptr inbounds %"class.node::crypto::KeyObjectData", ptr %this1, i32 0, i32 1
  %0 = load i32, ptr %key_type_, align 8
  ret i32 %0
}

; Function Attrs: mustprogress nounwind uwtable
define internal i16 @_ZN4node6crypto12_GLOBAL__N_118ExportJWKSecretKeyEPNS_11EnvironmentESt10shared_ptrINS0_13KeyObjectDataEEN2v85LocalINS7_6ObjectEEE(ptr noundef %env, ptr noundef %key, ptr %target.coerce) #4 {
entry:
  %this.addr.i169 = alloca ptr, align 8
  %other.addr.i170 = alloca ptr, align 8
  %this.addr.i166 = alloca ptr, align 8
  %other.addr.i167 = alloca ptr, align 8
  %this.addr.i164 = alloca ptr, align 8
  %other.addr.i = alloca ptr, align 8
  %slot.addr.i163 = alloca ptr, align 8
  %slot.addr.i = alloca ptr, align 8
  %this.addr.i.i158 = alloca ptr, align 8
  %this.addr.i159 = alloca ptr, align 8
  %this.addr.i.i154 = alloca ptr, align 8
  %this.addr.i155 = alloca ptr, align 8
  %this.addr.i.i150 = alloca ptr, align 8
  %this.addr.i151 = alloca ptr, align 8
  %this.addr.i.i146 = alloca ptr, align 8
  %this.addr.i147 = alloca ptr, align 8
  %this.addr.i.i141 = alloca ptr, align 8
  %this.addr.i142 = alloca ptr, align 8
  %this.addr.i.i = alloca ptr, align 8
  %this.addr.i139 = alloca ptr, align 8
  %this.addr.i135 = alloca ptr, align 8
  %this.addr.i132 = alloca ptr, align 8
  %that.i129 = alloca %"class.v8::Local.313", align 8
  %this.addr.i130 = alloca ptr, align 8
  %that.i126 = alloca %"class.v8::Local.313", align 8
  %this.addr.i127 = alloca ptr, align 8
  %that.i = alloca %"class.v8::Local.313", align 8
  %this.addr.i125 = alloca ptr, align 8
  %this.addr.i122 = alloca ptr, align 8
  %this.addr.i119 = alloca ptr, align 8
  %this.addr.i117 = alloca ptr, align 8
  %this.addr.i115 = alloca ptr, align 8
  %this.addr.i113 = alloca ptr, align 8
  %this.addr.i = alloca ptr, align 8
  %out.addr.i = alloca ptr, align 8
  %retval = alloca %"class.v8::Maybe", align 1
  %target = alloca %"class.v8::Local.10", align 8
  %env.addr = alloca ptr, align 8
  %key.indirect_addr = alloca ptr, align 8
  %error = alloca %"class.v8::Local", align 8
  %raw = alloca %"class.v8::Local", align 8
  %key_data = alloca %"class.v8::MaybeLocal.291", align 8
  %agg.tmp = alloca %"class.v8::Local", align 8
  %coerce = alloca %"class.v8::Local", align 8
  %ref.tmp = alloca %"class.v8::Maybe", align 1
  %agg.tmp46 = alloca %"class.v8::Local.304", align 8
  %agg.tmp51 = alloca %"class.v8::Local", align 8
  %agg.tmp52 = alloca %"class.v8::Local.313", align 8
  %agg.tmp60 = alloca %"class.v8::Local", align 8
  %agg.tmp61 = alloca %"class.v8::Local.313", align 8
  %ref.tmp80 = alloca %"class.v8::Maybe", align 1
  %agg.tmp82 = alloca %"class.v8::Local.304", align 8
  %agg.tmp87 = alloca %"class.v8::Local", align 8
  %agg.tmp88 = alloca %"class.v8::Local.313", align 8
  %agg.tmp96 = alloca %"class.v8::Local", align 8
  %ref.tmp111 = alloca i8, align 1
  %coerce.dive = getelementptr inbounds %"class.v8::Local.10", ptr %target, i32 0, i32 0
  %coerce.dive1 = getelementptr inbounds %"class.v8::LocalBase.11", ptr %coerce.dive, i32 0, i32 0
  %coerce.dive2 = getelementptr inbounds %"class.v8::IndirectHandleBase", ptr %coerce.dive1, i32 0, i32 0
  store ptr %target.coerce, ptr %coerce.dive2, align 8
  store ptr %env, ptr %env.addr, align 8
  store ptr %key, ptr %key.indirect_addr, align 8
  br label %do.body

do.body:                                          ; preds = %entry
  %call = call noundef ptr @_ZNKSt19__shared_ptr_accessIN4node6crypto13KeyObjectDataELN9__gnu_cxx12_Lock_policyE2ELb0ELb0EEptEv(ptr noundef nonnull align 1 dereferenceable(1) %key) #3
  %call3 = call noundef i32 @_ZNK4node6crypto13KeyObjectData10GetKeyTypeEv(ptr noundef nonnull align 8 dereferenceable(72) %call)
  %cmp = icmp eq i32 %call3, 0
  %lnot = xor i1 %cmp, true
  %lnot4 = xor i1 %lnot, true
  %lnot5 = xor i1 %lnot4, true
  br i1 %lnot5, label %if.then, label %if.end

if.then:                                          ; preds = %do.body
  br label %do.body6

do.body6:                                         ; preds = %if.then
  call void @_ZN4node6AssertERKNS_13AssertionInfoE(ptr noundef nonnull align 8 dereferenceable(24) @_ZZN4node6crypto12_GLOBAL__N_118ExportJWKSecretKeyEPNS_11EnvironmentESt10shared_ptrINS0_13KeyObjectDataEEN2v85LocalINS7_6ObjectEEEE4args)
  call void @abort() #14
  unreachable

do.end:                                           ; No predecessors!
  br label %if.end

if.end:                                           ; preds = %do.end, %do.body
  br label %do.end7

do.end7:                                          ; preds = %if.end
  store ptr %error, ptr %this.addr.i115, align 8
  %this1.i116 = load ptr, ptr %this.addr.i115, align 8
  store ptr %this1.i116, ptr %this.addr.i151, align 8
  %this1.i152 = load ptr, ptr %this.addr.i151, align 8
  store ptr %this1.i152, ptr %this.addr.i.i150, align 8
  %this1.i.i153 = load ptr, ptr %this.addr.i.i150, align 8
  store ptr null, ptr %this1.i.i153, align 8
  store ptr %raw, ptr %this.addr.i117, align 8
  %this1.i118 = load ptr, ptr %this.addr.i117, align 8
  store ptr %this1.i118, ptr %this.addr.i147, align 8
  %this1.i148 = load ptr, ptr %this.addr.i147, align 8
  store ptr %this1.i148, ptr %this.addr.i.i146, align 8
  %this1.i.i149 = load ptr, ptr %this.addr.i.i146, align 8
  store ptr null, ptr %this1.i.i149, align 8
  %0 = load ptr, ptr %env.addr, align 8
  %call8 = call noundef ptr @_ZNK4node11Environment7isolateEv(ptr noundef nonnull align 8 dereferenceable(2872) %0)
  %call9 = call noundef ptr @_ZNKSt19__shared_ptr_accessIN4node6crypto13KeyObjectDataELN9__gnu_cxx12_Lock_policyE2ELb0ELb0EEptEv(ptr noundef nonnull align 1 dereferenceable(1) %key) #3
  %call10 = call noundef ptr @_ZNK4node6crypto13KeyObjectData15GetSymmetricKeyEv(ptr noundef nonnull align 8 dereferenceable(72) %call9)
  %call11 = call noundef ptr @_ZNKSt19__shared_ptr_accessIN4node6crypto13KeyObjectDataELN9__gnu_cxx12_Lock_policyE2ELb0ELb0EEptEv(ptr noundef nonnull align 1 dereferenceable(1) %key) #3
  %call12 = call noundef i64 @_ZNK4node6crypto13KeyObjectData19GetSymmetricKeySizeEv(ptr noundef nonnull align 8 dereferenceable(72) %call11)
  %call13 = call ptr @_ZN4node11StringBytes6EncodeEPN2v87IsolateEPKcmNS_8encodingEPNS1_5LocalINS1_5ValueEEE(ptr noundef %call8, ptr noundef %call10, i64 noundef %call12, i32 noundef 7, ptr noundef %error)
  %coerce.dive14 = getelementptr inbounds %"class.v8::MaybeLocal.291", ptr %key_data, i32 0, i32 0
  %coerce.dive15 = getelementptr inbounds %"class.v8::Local", ptr %coerce.dive14, i32 0, i32 0
  %coerce.dive16 = getelementptr inbounds %"class.v8::LocalBase", ptr %coerce.dive15, i32 0, i32 0
  %coerce.dive17 = getelementptr inbounds %"class.v8::IndirectHandleBase", ptr %coerce.dive16, i32 0, i32 0
  store ptr %call13, ptr %coerce.dive17, align 8
  store ptr %key_data, ptr %this.addr.i142, align 8
  %this1.i143 = load ptr, ptr %this.addr.i142, align 8
  store ptr %this1.i143, ptr %this.addr.i.i141, align 8
  %this1.i.i144 = load ptr, ptr %this.addr.i.i141, align 8
  %1 = load ptr, ptr %this1.i.i144, align 8
  %cmp.i.i145 = icmp eq ptr %1, null
  br i1 %cmp.i.i145, label %if.then19, label %if.end40

if.then19:                                        ; preds = %do.end7
  br label %do.body20

do.body20:                                        ; preds = %if.then19
  store ptr %error, ptr %this.addr.i113, align 8
  %this1.i114 = load ptr, ptr %this.addr.i113, align 8
  %2 = load ptr, ptr %this1.i114, align 8
  %cmp.i = icmp eq ptr %2, null
  %lnot22 = xor i1 %cmp.i, true
  %lnot23 = xor i1 %lnot22, true
  %lnot24 = xor i1 %lnot23, true
  %lnot25 = xor i1 %lnot24, true
  br i1 %lnot25, label %if.then26, label %if.end29

if.then26:                                        ; preds = %do.body20
  br label %do.body27

do.body27:                                        ; preds = %if.then26
  call void @_ZN4node6AssertERKNS_13AssertionInfoE(ptr noundef nonnull align 8 dereferenceable(24) @_ZZN4node6crypto12_GLOBAL__N_118ExportJWKSecretKeyEPNS_11EnvironmentESt10shared_ptrINS0_13KeyObjectDataEEN2v85LocalINS7_6ObjectEEEE4args_0)
  call void @abort() #14
  unreachable

do.end28:                                         ; No predecessors!
  br label %if.end29

if.end29:                                         ; preds = %do.end28, %do.body20
  br label %do.end30

do.end30:                                         ; preds = %if.end29
  %3 = load ptr, ptr %env.addr, align 8
  %call31 = call noundef ptr @_ZNK4node11Environment7isolateEv(ptr noundef nonnull align 8 dereferenceable(2872) %3)
  call void @llvm.memcpy.p0.p0.i64(ptr align 8 %agg.tmp, ptr align 8 %error, i64 8, i1 false)
  %coerce.dive32 = getelementptr inbounds %"class.v8::Local", ptr %agg.tmp, i32 0, i32 0
  %coerce.dive33 = getelementptr inbounds %"class.v8::LocalBase", ptr %coerce.dive32, i32 0, i32 0
  %coerce.dive34 = getelementptr inbounds %"class.v8::IndirectHandleBase", ptr %coerce.dive33, i32 0, i32 0
  %4 = load ptr, ptr %coerce.dive34, align 8
  %call35 = call ptr @_ZN2v87Isolate14ThrowExceptionENS_5LocalINS_5ValueEEE(ptr noundef nonnull align 1 dereferenceable(1) %call31, ptr %4)
  %coerce.dive36 = getelementptr inbounds %"class.v8::Local", ptr %coerce, i32 0, i32 0
  %coerce.dive37 = getelementptr inbounds %"class.v8::LocalBase", ptr %coerce.dive36, i32 0, i32 0
  %coerce.dive38 = getelementptr inbounds %"class.v8::IndirectHandleBase", ptr %coerce.dive37, i32 0, i32 0
  store ptr %call35, ptr %coerce.dive38, align 8
  %call39 = call i16 @_ZN2v87NothingIbEENS_5MaybeIT_EEv()
  store i16 %call39, ptr %retval, align 1
  br label %return

if.end40:                                         ; preds = %do.end7
  store ptr %key_data, ptr %this.addr.i, align 8
  store ptr %raw, ptr %out.addr.i, align 8
  %this1.i = load ptr, ptr %this.addr.i, align 8
  %5 = load ptr, ptr %out.addr.i, align 8
  call void @llvm.memcpy.p0.p0.i64(ptr align 8 %5, ptr align 8 %this1.i, i64 8, i1 false)
  store ptr %this1.i, ptr %this.addr.i139, align 8
  %this1.i140 = load ptr, ptr %this.addr.i139, align 8
  store ptr %this1.i140, ptr %this.addr.i.i, align 8
  %this1.i.i = load ptr, ptr %this.addr.i.i, align 8
  %6 = load ptr, ptr %this1.i.i, align 8
  %cmp.i.i = icmp eq ptr %6, null
  %lnot.i = xor i1 %cmp.i.i, true
  br i1 %lnot.i, label %if.end44, label %if.then42

if.then42:                                        ; preds = %if.end40
  %call43 = call i16 @_ZN2v87NothingIbEENS_5MaybeIT_EEv()
  store i16 %call43, ptr %retval, align 1
  br label %return

if.end44:                                         ; preds = %if.end40
  store ptr %target, ptr %this.addr.i122, align 8
  %this1.i123 = load ptr, ptr %this.addr.i122, align 8
  store ptr %this1.i123, ptr %this.addr.i155, align 8
  %this1.i156 = load ptr, ptr %this.addr.i155, align 8
  store ptr %this1.i156, ptr %this.addr.i.i154, align 8
  %this1.i.i157 = load ptr, ptr %this.addr.i.i154, align 8
  %7 = load ptr, ptr %this1.i.i157, align 8
  store ptr %7, ptr %slot.addr.i163, align 8
  %8 = load ptr, ptr %slot.addr.i163, align 8
  %9 = load ptr, ptr %env.addr, align 8
  %call47 = call ptr @_ZNK4node11Environment7contextEv(ptr noundef nonnull align 8 dereferenceable(2872) %9)
  %coerce.dive48 = getelementptr inbounds %"class.v8::Local.304", ptr %agg.tmp46, i32 0, i32 0
  %coerce.dive49 = getelementptr inbounds %"class.v8::LocalBase.305", ptr %coerce.dive48, i32 0, i32 0
  %coerce.dive50 = getelementptr inbounds %"class.v8::IndirectHandleBase", ptr %coerce.dive49, i32 0, i32 0
  store ptr %call47, ptr %coerce.dive50, align 8
  %10 = load ptr, ptr %env.addr, align 8
  %call53 = call ptr @_ZNK4node11Environment14jwk_kty_stringEv(ptr noundef nonnull align 8 dereferenceable(2872) %10)
  %coerce.dive54 = getelementptr inbounds %"class.v8::Local.313", ptr %agg.tmp52, i32 0, i32 0
  %coerce.dive55 = getelementptr inbounds %"class.v8::LocalBase.314", ptr %coerce.dive54, i32 0, i32 0
  %coerce.dive56 = getelementptr inbounds %"class.v8::IndirectHandleBase", ptr %coerce.dive55, i32 0, i32 0
  store ptr %call53, ptr %coerce.dive56, align 8
  %coerce.dive57 = getelementptr inbounds %"class.v8::Local.313", ptr %agg.tmp52, i32 0, i32 0
  %coerce.dive58 = getelementptr inbounds %"class.v8::LocalBase.314", ptr %coerce.dive57, i32 0, i32 0
  %coerce.dive59 = getelementptr inbounds %"class.v8::IndirectHandleBase", ptr %coerce.dive58, i32 0, i32 0
  %11 = load ptr, ptr %coerce.dive59, align 8
  store ptr %11, ptr %that.i, align 8
  store ptr %agg.tmp51, ptr %this.addr.i125, align 8
  %this3.i = load ptr, ptr %this.addr.i125, align 8
  store ptr %this3.i, ptr %this.addr.i169, align 8
  store ptr %that.i, ptr %other.addr.i170, align 8
  %this1.i171 = load ptr, ptr %this.addr.i169, align 8
  %12 = load ptr, ptr %other.addr.i170, align 8
  call void @llvm.memcpy.p0.p0.i64(ptr align 8 %this1.i171, ptr align 8 %12, i64 8, i1 false)
  %13 = load ptr, ptr %env.addr, align 8
  %call62 = call ptr @_ZNK4node11Environment14jwk_oct_stringEv(ptr noundef nonnull align 8 dereferenceable(2872) %13)
  %coerce.dive63 = getelementptr inbounds %"class.v8::Local.313", ptr %agg.tmp61, i32 0, i32 0
  %coerce.dive64 = getelementptr inbounds %"class.v8::LocalBase.314", ptr %coerce.dive63, i32 0, i32 0
  %coerce.dive65 = getelementptr inbounds %"class.v8::IndirectHandleBase", ptr %coerce.dive64, i32 0, i32 0
  store ptr %call62, ptr %coerce.dive65, align 8
  %coerce.dive66 = getelementptr inbounds %"class.v8::Local.313", ptr %agg.tmp61, i32 0, i32 0
  %coerce.dive67 = getelementptr inbounds %"class.v8::LocalBase.314", ptr %coerce.dive66, i32 0, i32 0
  %coerce.dive68 = getelementptr inbounds %"class.v8::IndirectHandleBase", ptr %coerce.dive67, i32 0, i32 0
  %14 = load ptr, ptr %coerce.dive68, align 8
  store ptr %14, ptr %that.i126, align 8
  store ptr %agg.tmp60, ptr %this.addr.i127, align 8
  %this3.i128 = load ptr, ptr %this.addr.i127, align 8
  store ptr %this3.i128, ptr %this.addr.i166, align 8
  store ptr %that.i126, ptr %other.addr.i167, align 8
  %this1.i168 = load ptr, ptr %this.addr.i166, align 8
  %15 = load ptr, ptr %other.addr.i167, align 8
  call void @llvm.memcpy.p0.p0.i64(ptr align 8 %this1.i168, ptr align 8 %15, i64 8, i1 false)
  %coerce.dive69 = getelementptr inbounds %"class.v8::Local.304", ptr %agg.tmp46, i32 0, i32 0
  %coerce.dive70 = getelementptr inbounds %"class.v8::LocalBase.305", ptr %coerce.dive69, i32 0, i32 0
  %coerce.dive71 = getelementptr inbounds %"class.v8::IndirectHandleBase", ptr %coerce.dive70, i32 0, i32 0
  %16 = load ptr, ptr %coerce.dive71, align 8
  %coerce.dive72 = getelementptr inbounds %"class.v8::Local", ptr %agg.tmp51, i32 0, i32 0
  %coerce.dive73 = getelementptr inbounds %"class.v8::LocalBase", ptr %coerce.dive72, i32 0, i32 0
  %coerce.dive74 = getelementptr inbounds %"class.v8::IndirectHandleBase", ptr %coerce.dive73, i32 0, i32 0
  %17 = load ptr, ptr %coerce.dive74, align 8
  %coerce.dive75 = getelementptr inbounds %"class.v8::Local", ptr %agg.tmp60, i32 0, i32 0
  %coerce.dive76 = getelementptr inbounds %"class.v8::LocalBase", ptr %coerce.dive75, i32 0, i32 0
  %coerce.dive77 = getelementptr inbounds %"class.v8::IndirectHandleBase", ptr %coerce.dive76, i32 0, i32 0
  %18 = load ptr, ptr %coerce.dive77, align 8
  %call78 = call i16 @_ZN2v86Object3SetENS_5LocalINS_7ContextEEENS1_INS_5ValueEEES5_(ptr noundef nonnull align 1 dereferenceable(1) %8, ptr %16, ptr %17, ptr %18)
  store i16 %call78, ptr %ref.tmp, align 1
  store ptr %ref.tmp, ptr %this.addr.i135, align 8
  %this1.i136 = load ptr, ptr %this.addr.i135, align 8
  %19 = load i8, ptr %this1.i136, align 1
  %tobool.i137 = trunc i8 %19 to i1
  %lnot.i138 = xor i1 %tobool.i137, true
  br i1 %lnot.i138, label %lor.end, label %lor.rhs

lor.rhs:                                          ; preds = %if.end44
  store ptr %target, ptr %this.addr.i119, align 8
  %this1.i120 = load ptr, ptr %this.addr.i119, align 8
  store ptr %this1.i120, ptr %this.addr.i159, align 8
  %this1.i160 = load ptr, ptr %this.addr.i159, align 8
  store ptr %this1.i160, ptr %this.addr.i.i158, align 8
  %this1.i.i161 = load ptr, ptr %this.addr.i.i158, align 8
  %20 = load ptr, ptr %this1.i.i161, align 8
  store ptr %20, ptr %slot.addr.i, align 8
  %21 = load ptr, ptr %slot.addr.i, align 8
  %22 = load ptr, ptr %env.addr, align 8
  %call83 = call ptr @_ZNK4node11Environment7contextEv(ptr noundef nonnull align 8 dereferenceable(2872) %22)
  %coerce.dive84 = getelementptr inbounds %"class.v8::Local.304", ptr %agg.tmp82, i32 0, i32 0
  %coerce.dive85 = getelementptr inbounds %"class.v8::LocalBase.305", ptr %coerce.dive84, i32 0, i32 0
  %coerce.dive86 = getelementptr inbounds %"class.v8::IndirectHandleBase", ptr %coerce.dive85, i32 0, i32 0
  store ptr %call83, ptr %coerce.dive86, align 8
  %23 = load ptr, ptr %env.addr, align 8
  %call89 = call ptr @_ZNK4node11Environment12jwk_k_stringEv(ptr noundef nonnull align 8 dereferenceable(2872) %23)
  %coerce.dive90 = getelementptr inbounds %"class.v8::Local.313", ptr %agg.tmp88, i32 0, i32 0
  %coerce.dive91 = getelementptr inbounds %"class.v8::LocalBase.314", ptr %coerce.dive90, i32 0, i32 0
  %coerce.dive92 = getelementptr inbounds %"class.v8::IndirectHandleBase", ptr %coerce.dive91, i32 0, i32 0
  store ptr %call89, ptr %coerce.dive92, align 8
  %coerce.dive93 = getelementptr inbounds %"class.v8::Local.313", ptr %agg.tmp88, i32 0, i32 0
  %coerce.dive94 = getelementptr inbounds %"class.v8::LocalBase.314", ptr %coerce.dive93, i32 0, i32 0
  %coerce.dive95 = getelementptr inbounds %"class.v8::IndirectHandleBase", ptr %coerce.dive94, i32 0, i32 0
  %24 = load ptr, ptr %coerce.dive95, align 8
  store ptr %24, ptr %that.i129, align 8
  store ptr %agg.tmp87, ptr %this.addr.i130, align 8
  %this3.i131 = load ptr, ptr %this.addr.i130, align 8
  store ptr %this3.i131, ptr %this.addr.i164, align 8
  store ptr %that.i129, ptr %other.addr.i, align 8
  %this1.i165 = load ptr, ptr %this.addr.i164, align 8
  %25 = load ptr, ptr %other.addr.i, align 8
  call void @llvm.memcpy.p0.p0.i64(ptr align 8 %this1.i165, ptr align 8 %25, i64 8, i1 false)
  call void @llvm.memcpy.p0.p0.i64(ptr align 8 %agg.tmp96, ptr align 8 %raw, i64 8, i1 false)
  %coerce.dive97 = getelementptr inbounds %"class.v8::Local.304", ptr %agg.tmp82, i32 0, i32 0
  %coerce.dive98 = getelementptr inbounds %"class.v8::LocalBase.305", ptr %coerce.dive97, i32 0, i32 0
  %coerce.dive99 = getelementptr inbounds %"class.v8::IndirectHandleBase", ptr %coerce.dive98, i32 0, i32 0
  %26 = load ptr, ptr %coerce.dive99, align 8
  %coerce.dive100 = getelementptr inbounds %"class.v8::Local", ptr %agg.tmp87, i32 0, i32 0
  %coerce.dive101 = getelementptr inbounds %"class.v8::LocalBase", ptr %coerce.dive100, i32 0, i32 0
  %coerce.dive102 = getelementptr inbounds %"class.v8::IndirectHandleBase", ptr %coerce.dive101, i32 0, i32 0
  %27 = load ptr, ptr %coerce.dive102, align 8
  %coerce.dive103 = getelementptr inbounds %"class.v8::Local", ptr %agg.tmp96, i32 0, i32 0
  %coerce.dive104 = getelementptr inbounds %"class.v8::LocalBase", ptr %coerce.dive103, i32 0, i32 0
  %coerce.dive105 = getelementptr inbounds %"class.v8::IndirectHandleBase", ptr %coerce.dive104, i32 0, i32 0
  %28 = load ptr, ptr %coerce.dive105, align 8
  %call106 = call i16 @_ZN2v86Object3SetENS_5LocalINS_7ContextEEENS1_INS_5ValueEEES5_(ptr noundef nonnull align 1 dereferenceable(1) %21, ptr %26, ptr %27, ptr %28)
  store i16 %call106, ptr %ref.tmp80, align 1
  store ptr %ref.tmp80, ptr %this.addr.i132, align 8
  %this1.i133 = load ptr, ptr %this.addr.i132, align 8
  %29 = load i8, ptr %this1.i133, align 1
  %tobool.i = trunc i8 %29 to i1
  %lnot.i134 = xor i1 %tobool.i, true
  br label %lor.end

lor.end:                                          ; preds = %lor.rhs, %if.end44
  %30 = phi i1 [ true, %if.end44 ], [ %lnot.i134, %lor.rhs ]
  br i1 %30, label %if.then108, label %if.end110

if.then108:                                       ; preds = %lor.end
  %call109 = call i16 @_ZN2v87NothingIbEENS_5MaybeIT_EEv()
  store i16 %call109, ptr %retval, align 1
  br label %return

if.end110:                                        ; preds = %lor.end
  store i8 1, ptr %ref.tmp111, align 1
  %call112 = call i16 @_ZN2v84JustIbTnPNSt9enable_ifIXntsr3stdE21is_lvalue_reference_vIT_EEvE4typeELPv0EEENS_5MaybeIS2_EEOS2_(ptr noundef nonnull align 1 dereferenceable(1) %ref.tmp111)
  store i16 %call112, ptr %retval, align 1
  br label %return

return:                                           ; preds = %if.end110, %if.then108, %if.then42, %do.end30
  %31 = load i16, ptr %retval, align 1
  ret i16 %31
}

; Function Attrs: mustprogress nounwind uwtable
define linkonce_odr dso_local void @_ZNSt10shared_ptrIN4node6crypto13KeyObjectDataEEC2ERKS3_(ptr noundef nonnull align 8 dereferenceable(16) %this, ptr noundef nonnull align 8 dereferenceable(16) %0) unnamed_addr #4 comdat align 2 {
entry:
  %this.addr = alloca ptr, align 8
  %.addr = alloca ptr, align 8
  store ptr %this, ptr %this.addr, align 8
  store ptr %0, ptr %.addr, align 8
  %this1 = load ptr, ptr %this.addr, align 8
  %1 = load ptr, ptr %.addr, align 8
  call void @_ZNSt12__shared_ptrIN4node6crypto13KeyObjectDataELN9__gnu_cxx12_Lock_policyE2EEC2ERKS5_(ptr noundef nonnull align 8 dereferenceable(16) %this1, ptr noundef nonnull align 8 dereferenceable(16) %1) #3
  ret void
}

; Function Attrs: mustprogress nounwind uwtable
define linkonce_odr dso_local void @_ZNSt10shared_ptrIN4node6crypto13KeyObjectDataEED2Ev(ptr noundef nonnull align 8 dereferenceable(16) %this) unnamed_addr #4 comdat align 2 {
entry:
  %this.addr = alloca ptr, align 8
  store ptr %this, ptr %this.addr, align 8
  %this1 = load ptr, ptr %this.addr, align 8
  call void @_ZNSt12__shared_ptrIN4node6crypto13KeyObjectDataELN9__gnu_cxx12_Lock_policyE2EED2Ev(ptr noundef nonnull align 8 dereferenceable(16) %this1) #3
  ret void
}

; Function Attrs: mustprogress nounwind uwtable
define internal i16 @_ZN4node6crypto12_GLOBAL__N_122ExportJWKAsymmetricKeyEPNS_11EnvironmentESt10shared_ptrINS0_13KeyObjectDataEEN2v85LocalINS7_6ObjectEEEb(ptr noundef %env, ptr noundef %key, ptr %target.coerce, i1 noundef zeroext %handleRsaPss) #4 {
entry:
  %this.addr.i = alloca ptr, align 8
  %retval = alloca %"class.v8::Maybe", align 1
  %target = alloca %"class.v8::Local.10", align 8
  %env.addr = alloca ptr, align 8
  %key.indirect_addr = alloca ptr, align 8
  %handleRsaPss.addr = alloca i8, align 1
  %ref.tmp = alloca %"class.node::crypto::ManagedEVPPKey", align 8
  %agg.tmp = alloca %"class.std::shared_ptr.7", align 8
  %agg.tmp5 = alloca %"class.v8::Local.10", align 8
  %agg.tmp11 = alloca %"class.std::shared_ptr.7", align 8
  %agg.tmp12 = alloca %"class.v8::Local.10", align 8
  %ref.tmp18 = alloca %"class.v8::Maybe.441", align 1
  %agg.tmp19 = alloca %"class.std::shared_ptr.7", align 8
  %agg.tmp20 = alloca %"class.v8::Local.10", align 8
  %ref.tmp27 = alloca i8, align 1
  %agg.tmp31 = alloca %"class.std::shared_ptr.7", align 8
  %agg.tmp32 = alloca %"class.v8::Local.10", align 8
  %ref.tmp37 = alloca i8, align 1
  %coerce.dive = getelementptr inbounds %"class.v8::Local.10", ptr %target, i32 0, i32 0
  %coerce.dive1 = getelementptr inbounds %"class.v8::LocalBase.11", ptr %coerce.dive, i32 0, i32 0
  %coerce.dive2 = getelementptr inbounds %"class.v8::IndirectHandleBase", ptr %coerce.dive1, i32 0, i32 0
  store ptr %target.coerce, ptr %coerce.dive2, align 8
  store ptr %env, ptr %env.addr, align 8
  store ptr %key, ptr %key.indirect_addr, align 8
  %frombool = zext i1 %handleRsaPss to i8
  store i8 %frombool, ptr %handleRsaPss.addr, align 1
  %call = call noundef ptr @_ZNKSt19__shared_ptr_accessIN4node6crypto13KeyObjectDataELN9__gnu_cxx12_Lock_policyE2ELb0ELb0EEptEv(ptr noundef nonnull align 1 dereferenceable(1) %key) #3
  call void @_ZNK4node6crypto13KeyObjectData16GetAsymmetricKeyEv(ptr sret(%"class.node::crypto::ManagedEVPPKey") align 8 %ref.tmp, ptr noundef nonnull align 8 dereferenceable(72) %call)
  %call3 = call noundef ptr @_ZNK4node6crypto14ManagedEVPPKey3getEv(ptr noundef nonnull align 8 dereferenceable(32) %ref.tmp)
  %call4 = call i32 @EVP_PKEY_get_id(ptr noundef %call3)
  call void @_ZN4node6crypto14ManagedEVPPKeyD2Ev(ptr noundef nonnull align 8 dereferenceable(32) %ref.tmp) #3
  switch i32 %call4, label %sw.epilog [
    i32 912, label %sw.bb
    i32 6, label %sw.bb10
    i32 408, label %sw.bb17
    i32 1087, label %sw.bb30
    i32 1088, label %sw.bb30
    i32 1034, label %sw.bb30
    i32 1035, label %sw.bb30
  ]

sw.bb:                                            ; preds = %entry
  %0 = load i8, ptr %handleRsaPss.addr, align 1
  %tobool = trunc i8 %0 to i1
  br i1 %tobool, label %if.then, label %if.end

if.then:                                          ; preds = %sw.bb
  %1 = load ptr, ptr %env.addr, align 8
  call void @_ZNSt10shared_ptrIN4node6crypto13KeyObjectDataEEC2ERKS3_(ptr noundef nonnull align 8 dereferenceable(16) %agg.tmp, ptr noundef nonnull align 8 dereferenceable(16) %key) #3
  call void @llvm.memcpy.p0.p0.i64(ptr align 8 %agg.tmp5, ptr align 8 %target, i64 8, i1 false)
  %coerce.dive6 = getelementptr inbounds %"class.v8::Local.10", ptr %agg.tmp5, i32 0, i32 0
  %coerce.dive7 = getelementptr inbounds %"class.v8::LocalBase.11", ptr %coerce.dive6, i32 0, i32 0
  %coerce.dive8 = getelementptr inbounds %"class.v8::IndirectHandleBase", ptr %coerce.dive7, i32 0, i32 0
  %2 = load ptr, ptr %coerce.dive8, align 8
  %call9 = call i16 @_ZN4node6crypto15ExportJWKRsaKeyEPNS_11EnvironmentESt10shared_ptrINS0_13KeyObjectDataEEN2v85LocalINS6_6ObjectEEE(ptr noundef %1, ptr noundef %agg.tmp, ptr %2)
  store i16 %call9, ptr %retval, align 1
  call void @_ZNSt10shared_ptrIN4node6crypto13KeyObjectDataEED2Ev(ptr noundef nonnull align 8 dereferenceable(16) %agg.tmp) #3
  br label %return

if.end:                                           ; preds = %sw.bb
  br label %sw.epilog

sw.bb10:                                          ; preds = %entry
  %3 = load ptr, ptr %env.addr, align 8
  call void @_ZNSt10shared_ptrIN4node6crypto13KeyObjectDataEEC2ERKS3_(ptr noundef nonnull align 8 dereferenceable(16) %agg.tmp11, ptr noundef nonnull align 8 dereferenceable(16) %key) #3
  call void @llvm.memcpy.p0.p0.i64(ptr align 8 %agg.tmp12, ptr align 8 %target, i64 8, i1 false)
  %coerce.dive13 = getelementptr inbounds %"class.v8::Local.10", ptr %agg.tmp12, i32 0, i32 0
  %coerce.dive14 = getelementptr inbounds %"class.v8::LocalBase.11", ptr %coerce.dive13, i32 0, i32 0
  %coerce.dive15 = getelementptr inbounds %"class.v8::IndirectHandleBase", ptr %coerce.dive14, i32 0, i32 0
  %4 = load ptr, ptr %coerce.dive15, align 8
  %call16 = call i16 @_ZN4node6crypto15ExportJWKRsaKeyEPNS_11EnvironmentESt10shared_ptrINS0_13KeyObjectDataEEN2v85LocalINS6_6ObjectEEE(ptr noundef %3, ptr noundef %agg.tmp11, ptr %4)
  store i16 %call16, ptr %retval, align 1
  call void @_ZNSt10shared_ptrIN4node6crypto13KeyObjectDataEED2Ev(ptr noundef nonnull align 8 dereferenceable(16) %agg.tmp11) #3
  br label %return

sw.bb17:                                          ; preds = %entry
  %5 = load ptr, ptr %env.addr, align 8
  call void @_ZNSt10shared_ptrIN4node6crypto13KeyObjectDataEEC2ERKS3_(ptr noundef nonnull align 8 dereferenceable(16) %agg.tmp19, ptr noundef nonnull align 8 dereferenceable(16) %key) #3
  call void @llvm.memcpy.p0.p0.i64(ptr align 8 %agg.tmp20, ptr align 8 %target, i64 8, i1 false)
  %coerce.dive21 = getelementptr inbounds %"class.v8::Local.10", ptr %agg.tmp20, i32 0, i32 0
  %coerce.dive22 = getelementptr inbounds %"class.v8::LocalBase.11", ptr %coerce.dive21, i32 0, i32 0
  %coerce.dive23 = getelementptr inbounds %"class.v8::IndirectHandleBase", ptr %coerce.dive22, i32 0, i32 0
  %6 = load ptr, ptr %coerce.dive23, align 8
  %call24 = call i8 @_ZN4node6crypto14ExportJWKEcKeyEPNS_11EnvironmentESt10shared_ptrINS0_13KeyObjectDataEEN2v85LocalINS6_6ObjectEEE(ptr noundef %5, ptr noundef %agg.tmp19, ptr %6)
  %coerce.dive25 = getelementptr inbounds %"class.v8::Maybe.441", ptr %ref.tmp18, i32 0, i32 0
  store i8 %call24, ptr %coerce.dive25, align 1
  store ptr %ref.tmp18, ptr %this.addr.i, align 8
  %this1.i = load ptr, ptr %this.addr.i, align 8
  %7 = load i8, ptr %this1.i, align 1
  %tobool.i = trunc i8 %7 to i1
  br i1 %tobool.i, label %cond.true, label %cond.false

cond.true:                                        ; preds = %sw.bb17
  store i8 1, ptr %ref.tmp27, align 1
  %call28 = call i16 @_ZN2v84JustIbTnPNSt9enable_ifIXntsr3stdE21is_lvalue_reference_vIT_EEvE4typeELPv0EEENS_5MaybeIS2_EEOS2_(ptr noundef nonnull align 1 dereferenceable(1) %ref.tmp27)
  store i16 %call28, ptr %retval, align 1
  br label %cond.end

cond.false:                                       ; preds = %sw.bb17
  %call29 = call i16 @_ZN2v87NothingIbEENS_5MaybeIT_EEv()
  store i16 %call29, ptr %retval, align 1
  br label %cond.end

cond.end:                                         ; preds = %cond.false, %cond.true
  call void @_ZNSt10shared_ptrIN4node6crypto13KeyObjectDataEED2Ev(ptr noundef nonnull align 8 dereferenceable(16) %agg.tmp19) #3
  br label %return

sw.bb30:                                          ; preds = %entry, %entry, %entry, %entry
  %8 = load ptr, ptr %env.addr, align 8
  call void @_ZNSt10shared_ptrIN4node6crypto13KeyObjectDataEEC2ERKS3_(ptr noundef nonnull align 8 dereferenceable(16) %agg.tmp31, ptr noundef nonnull align 8 dereferenceable(16) %key) #3
  call void @llvm.memcpy.p0.p0.i64(ptr align 8 %agg.tmp32, ptr align 8 %target, i64 8, i1 false)
  %coerce.dive33 = getelementptr inbounds %"class.v8::Local.10", ptr %agg.tmp32, i32 0, i32 0
  %coerce.dive34 = getelementptr inbounds %"class.v8::LocalBase.11", ptr %coerce.dive33, i32 0, i32 0
  %coerce.dive35 = getelementptr inbounds %"class.v8::IndirectHandleBase", ptr %coerce.dive34, i32 0, i32 0
  %9 = load ptr, ptr %coerce.dive35, align 8
  %call36 = call i16 @_ZN4node6crypto14ExportJWKEdKeyEPNS_11EnvironmentESt10shared_ptrINS0_13KeyObjectDataEEN2v85LocalINS6_6ObjectEEE(ptr noundef %8, ptr noundef %agg.tmp31, ptr %9)
  store i16 %call36, ptr %retval, align 1
  call void @_ZNSt10shared_ptrIN4node6crypto13KeyObjectDataEED2Ev(ptr noundef nonnull align 8 dereferenceable(16) %agg.tmp31) #3
  br label %return

sw.epilog:                                        ; preds = %if.end, %entry
  %10 = load ptr, ptr %env.addr, align 8
  call void @_ZN4node41THROW_ERR_CRYPTO_JWK_UNSUPPORTED_KEY_TYPEEPNS_11EnvironmentE(ptr noundef %10)
  store i8 0, ptr %ref.tmp37, align 1
  %call38 = call i16 @_ZN2v84JustIbTnPNSt9enable_ifIXntsr3stdE21is_lvalue_reference_vIT_EEvE4typeELPv0EEENS_5MaybeIS2_EEOS2_(ptr noundef nonnull align 1 dereferenceable(1) %ref.tmp37)
  store i16 %call38, ptr %retval, align 1
  br label %return

return:                                           ; preds = %sw.epilog, %sw.bb30, %cond.end, %sw.bb10, %if.then
  %11 = load i16, ptr %retval, align 1
  ret i16 %11
}

declare void @_ZN4node6AssertERKNS_13AssertionInfoE(ptr noundef nonnull align 8 dereferenceable(24)) #1

; Function Attrs: noreturn nounwind
declare void @abort() #5

; Function Attrs: cold noreturn nounwind memory(inaccessiblemem: write)
declare void @llvm.trap() #6

; Function Attrs: mustprogress nounwind uwtable
define dso_local i16 @_ZN4node6crypto14ManagedEVPPKey18ToEncodedPublicKeyEPNS_11EnvironmentERKNS0_27AsymmetricKeyEncodingConfigEPN2v85LocalINS7_5ValueEEE(ptr noundef nonnull align 8 dereferenceable(32) %this, ptr noundef %env, ptr noundef nonnull align 4 dereferenceable(16) %config, ptr noundef %out) #4 align 2 {
entry:
  %this.addr.i57 = alloca ptr, align 8
  %other.addr.i58 = alloca ptr, align 8
  %this.addr.i55 = alloca ptr, align 8
  %other.addr.i = alloca ptr, align 8
  %this.addr.i.i50 = alloca ptr, align 8
  %this.addr.i51 = alloca ptr, align 8
  %this.addr.i.i = alloca ptr, align 8
  %this.addr.i48 = alloca ptr, align 8
  %this.addr.i43 = alloca ptr, align 8
  %out.addr.i44 = alloca ptr, align 8
  %that.i40 = alloca %"class.v8::Local.10", align 8
  %this.addr.i41 = alloca ptr, align 8
  %that.i = alloca %"class.v8::Local.10", align 8
  %this.addr.i39 = alloca ptr, align 8
  %this.addr.i = alloca ptr, align 8
  %out.addr.i = alloca ptr, align 8
  %ref.tmp.i = alloca %"class.v8::Local", align 8
  %agg.tmp.i = alloca %"class.v8::Local.10", align 8
  %retval = alloca %"class.v8::Maybe", align 1
  %this.addr = alloca ptr, align 8
  %env.addr = alloca ptr, align 8
  %config.addr = alloca ptr, align 8
  %out.addr = alloca ptr, align 8
  %data = alloca %"class.std::shared_ptr.7", align 8
  %ref.tmp = alloca %"class.v8::MaybeLocal", align 8
  %agg.tmp = alloca %"class.std::shared_ptr.7", align 8
  %data11 = alloca %"class.std::shared_ptr.7", align 8
  %ref.tmp12 = alloca %"class.v8::Local", align 8
  %agg.tmp13 = alloca %"class.v8::Local.10", align 8
  %agg.tmp22 = alloca %"class.std::shared_ptr.7", align 8
  %agg.tmp23 = alloca %"class.v8::Local", align 8
  %ref.tmp30 = alloca %"class.v8::MaybeLocal.291", align 8
  store ptr %this, ptr %this.addr, align 8
  store ptr %env, ptr %env.addr, align 8
  store ptr %config, ptr %config.addr, align 8
  store ptr %out, ptr %out.addr, align 8
  %this1 = load ptr, ptr %this.addr, align 8
  %call = call noundef zeroext i1 @_ZNK4node6crypto14ManagedEVPPKeycvbEv(ptr noundef nonnull align 8 dereferenceable(32) %this1)
  br i1 %call, label %if.end, label %if.then

if.then:                                          ; preds = %entry
  %call2 = call i16 @_ZN2v87NothingIbEENS_5MaybeIT_EEv()
  store i16 %call2, ptr %retval, align 1
  br label %return

if.end:                                           ; preds = %entry
  %0 = load ptr, ptr %config.addr, align 8
  %output_key_object_ = getelementptr inbounds %"struct.node::crypto::AsymmetricKeyEncodingConfig", ptr %0, i32 0, i32 0
  %1 = load i8, ptr %output_key_object_, align 4
  %tobool = trunc i8 %1 to i1
  br i1 %tobool, label %if.then3, label %if.else

if.then3:                                         ; preds = %if.end
  call void @_ZN4node6crypto13KeyObjectData16CreateAsymmetricENS0_7KeyTypeERKNS0_14ManagedEVPPKeyE(ptr sret(%"class.std::shared_ptr.7") align 8 %data, i32 noundef 1, ptr noundef nonnull align 8 dereferenceable(32) %this1)
  %2 = load ptr, ptr %env.addr, align 8
  call void @_ZNSt10shared_ptrIN4node6crypto13KeyObjectDataEEC2ERKS3_(ptr noundef nonnull align 8 dereferenceable(16) %agg.tmp, ptr noundef nonnull align 8 dereferenceable(16) %data) #3
  %call4 = call ptr @_ZN4node6crypto15KeyObjectHandle6CreateEPNS_11EnvironmentESt10shared_ptrINS0_13KeyObjectDataEE(ptr noundef %2, ptr noundef %agg.tmp)
  %coerce.dive = getelementptr inbounds %"class.v8::MaybeLocal", ptr %ref.tmp, i32 0, i32 0
  %coerce.dive5 = getelementptr inbounds %"class.v8::Local.10", ptr %coerce.dive, i32 0, i32 0
  %coerce.dive6 = getelementptr inbounds %"class.v8::LocalBase.11", ptr %coerce.dive5, i32 0, i32 0
  %coerce.dive7 = getelementptr inbounds %"class.v8::IndirectHandleBase", ptr %coerce.dive6, i32 0, i32 0
  store ptr %call4, ptr %coerce.dive7, align 8
  %3 = load ptr, ptr %out.addr, align 8
  store ptr %ref.tmp, ptr %this.addr.i, align 8
  store ptr %3, ptr %out.addr.i, align 8
  %this1.i = load ptr, ptr %this.addr.i, align 8
  call void @llvm.memcpy.p0.p0.i64(ptr align 8 %agg.tmp.i, ptr align 8 %this1.i, i64 8, i1 false)
  %4 = load ptr, ptr %agg.tmp.i, align 8
  store ptr %4, ptr %that.i, align 8
  store ptr %ref.tmp.i, ptr %this.addr.i39, align 8
  %this3.i = load ptr, ptr %this.addr.i39, align 8
  store ptr %this3.i, ptr %this.addr.i57, align 8
  store ptr %that.i, ptr %other.addr.i58, align 8
  %this1.i59 = load ptr, ptr %this.addr.i57, align 8
  %5 = load ptr, ptr %other.addr.i58, align 8
  call void @llvm.memcpy.p0.p0.i64(ptr align 8 %this1.i59, ptr align 8 %5, i64 8, i1 false)
  %6 = load ptr, ptr %out.addr.i, align 8
  call void @llvm.memcpy.p0.p0.i64(ptr align 8 %6, ptr align 8 %ref.tmp.i, i64 8, i1 false)
  store ptr %this1.i, ptr %this.addr.i51, align 8
  %this1.i52 = load ptr, ptr %this.addr.i51, align 8
  store ptr %this1.i52, ptr %this.addr.i.i50, align 8
  %this1.i.i53 = load ptr, ptr %this.addr.i.i50, align 8
  %7 = load ptr, ptr %this1.i.i53, align 8
  %cmp.i.i54 = icmp eq ptr %7, null
  %lnot.i = xor i1 %cmp.i.i54, true
  %call9 = call i16 @_ZN4node6cryptoL8TristateEb(i1 noundef zeroext %lnot.i)
  store i16 %call9, ptr %retval, align 1
  call void @_ZNSt10shared_ptrIN4node6crypto13KeyObjectDataEED2Ev(ptr noundef nonnull align 8 dereferenceable(16) %agg.tmp) #3
  call void @_ZNSt10shared_ptrIN4node6crypto13KeyObjectDataEED2Ev(ptr noundef nonnull align 8 dereferenceable(16) %data) #3
  br label %return

if.else:                                          ; preds = %if.end
  %8 = load ptr, ptr %config.addr, align 8
  %format_ = getelementptr inbounds %"struct.node::crypto::AsymmetricKeyEncodingConfig", ptr %8, i32 0, i32 1
  %9 = load i32, ptr %format_, align 4
  %cmp = icmp eq i32 %9, 2
  br i1 %cmp, label %if.then10, label %if.end28

if.then10:                                        ; preds = %if.else
  call void @_ZN4node6crypto13KeyObjectData16CreateAsymmetricENS0_7KeyTypeERKNS0_14ManagedEVPPKeyE(ptr sret(%"class.std::shared_ptr.7") align 8 %data11, i32 noundef 1, ptr noundef nonnull align 8 dereferenceable(32) %this1)
  %10 = load ptr, ptr %env.addr, align 8
  %call14 = call noundef ptr @_ZNK4node11Environment7isolateEv(ptr noundef nonnull align 8 dereferenceable(2872) %10)
  %call15 = call ptr @_ZN2v86Object3NewEPNS_7IsolateE(ptr noundef %call14)
  %coerce.dive16 = getelementptr inbounds %"class.v8::Local.10", ptr %agg.tmp13, i32 0, i32 0
  %coerce.dive17 = getelementptr inbounds %"class.v8::LocalBase.11", ptr %coerce.dive16, i32 0, i32 0
  %coerce.dive18 = getelementptr inbounds %"class.v8::IndirectHandleBase", ptr %coerce.dive17, i32 0, i32 0
  store ptr %call15, ptr %coerce.dive18, align 8
  %coerce.dive19 = getelementptr inbounds %"class.v8::Local.10", ptr %agg.tmp13, i32 0, i32 0
  %coerce.dive20 = getelementptr inbounds %"class.v8::LocalBase.11", ptr %coerce.dive19, i32 0, i32 0
  %coerce.dive21 = getelementptr inbounds %"class.v8::IndirectHandleBase", ptr %coerce.dive20, i32 0, i32 0
  %11 = load ptr, ptr %coerce.dive21, align 8
  store ptr %11, ptr %that.i40, align 8
  store ptr %ref.tmp12, ptr %this.addr.i41, align 8
  %this3.i42 = load ptr, ptr %this.addr.i41, align 8
  store ptr %this3.i42, ptr %this.addr.i55, align 8
  store ptr %that.i40, ptr %other.addr.i, align 8
  %this1.i56 = load ptr, ptr %this.addr.i55, align 8
  %12 = load ptr, ptr %other.addr.i, align 8
  call void @llvm.memcpy.p0.p0.i64(ptr align 8 %this1.i56, ptr align 8 %12, i64 8, i1 false)
  %13 = load ptr, ptr %out.addr, align 8
  call void @llvm.memcpy.p0.p0.i64(ptr align 8 %13, ptr align 8 %ref.tmp12, i64 8, i1 false)
  %14 = load ptr, ptr %env.addr, align 8
  call void @_ZNSt10shared_ptrIN4node6crypto13KeyObjectDataEEC2ERKS3_(ptr noundef nonnull align 8 dereferenceable(16) %agg.tmp22, ptr noundef nonnull align 8 dereferenceable(16) %data11) #3
  %15 = load ptr, ptr %out.addr, align 8
  call void @llvm.memcpy.p0.p0.i64(ptr align 8 %agg.tmp23, ptr align 8 %15, i64 8, i1 false)
  %coerce.dive24 = getelementptr inbounds %"class.v8::Local", ptr %agg.tmp23, i32 0, i32 0
  %coerce.dive25 = getelementptr inbounds %"class.v8::LocalBase", ptr %coerce.dive24, i32 0, i32 0
  %coerce.dive26 = getelementptr inbounds %"class.v8::IndirectHandleBase", ptr %coerce.dive25, i32 0, i32 0
  %16 = load ptr, ptr %coerce.dive26, align 8
  %call27 = call i16 @_ZN4node6crypto14ExportJWKInnerEPNS_11EnvironmentESt10shared_ptrINS0_13KeyObjectDataEEN2v85LocalINS6_5ValueEEEb(ptr noundef %14, ptr noundef %agg.tmp22, ptr %16, i1 noundef zeroext false)
  store i16 %call27, ptr %retval, align 1
  call void @_ZNSt10shared_ptrIN4node6crypto13KeyObjectDataEED2Ev(ptr noundef nonnull align 8 dereferenceable(16) %agg.tmp22) #3
  call void @_ZNSt10shared_ptrIN4node6crypto13KeyObjectDataEED2Ev(ptr noundef nonnull align 8 dereferenceable(16) %data11) #3
  br label %return

if.end28:                                         ; preds = %if.else
  br label %if.end29

if.end29:                                         ; preds = %if.end28
  %17 = load ptr, ptr %env.addr, align 8
  %call31 = call noundef ptr @_ZNK4node6crypto14ManagedEVPPKey3getEv(ptr noundef nonnull align 8 dereferenceable(32) %this1)
  %18 = load ptr, ptr %config.addr, align 8
  %call32 = call ptr @_ZN4node6crypto12_GLOBAL__N_114WritePublicKeyEPNS_11EnvironmentEP11evp_pkey_stRKNS0_27AsymmetricKeyEncodingConfigE(ptr noundef %17, ptr noundef %call31, ptr noundef nonnull align 4 dereferenceable(16) %18)
  %coerce.dive33 = getelementptr inbounds %"class.v8::MaybeLocal.291", ptr %ref.tmp30, i32 0, i32 0
  %coerce.dive34 = getelementptr inbounds %"class.v8::Local", ptr %coerce.dive33, i32 0, i32 0
  %coerce.dive35 = getelementptr inbounds %"class.v8::LocalBase", ptr %coerce.dive34, i32 0, i32 0
  %coerce.dive36 = getelementptr inbounds %"class.v8::IndirectHandleBase", ptr %coerce.dive35, i32 0, i32 0
  store ptr %call32, ptr %coerce.dive36, align 8
  %19 = load ptr, ptr %out.addr, align 8
  store ptr %ref.tmp30, ptr %this.addr.i43, align 8
  store ptr %19, ptr %out.addr.i44, align 8
  %this1.i45 = load ptr, ptr %this.addr.i43, align 8
  %20 = load ptr, ptr %out.addr.i44, align 8
  call void @llvm.memcpy.p0.p0.i64(ptr align 8 %20, ptr align 8 %this1.i45, i64 8, i1 false)
  store ptr %this1.i45, ptr %this.addr.i48, align 8
  %this1.i49 = load ptr, ptr %this.addr.i48, align 8
  store ptr %this1.i49, ptr %this.addr.i.i, align 8
  %this1.i.i = load ptr, ptr %this.addr.i.i, align 8
  %21 = load ptr, ptr %this1.i.i, align 8
  %cmp.i.i = icmp eq ptr %21, null
  %lnot.i47 = xor i1 %cmp.i.i, true
  %call38 = call i16 @_ZN4node6cryptoL8TristateEb(i1 noundef zeroext %lnot.i47)
  store i16 %call38, ptr %retval, align 1
  br label %return

return:                                           ; preds = %if.end29, %if.then10, %if.then3, %if.then
  %22 = load i16, ptr %retval, align 1
  ret i16 %22
}

; Function Attrs: mustprogress nounwind uwtable
define linkonce_odr dso_local i16 @_ZN2v87NothingIbEENS_5MaybeIT_EEv() #4 comdat {
entry:
  %retval = alloca %"class.v8::Maybe", align 1
  call void @_ZN2v85MaybeIbEC2Ev(ptr noundef nonnull align 1 dereferenceable(2) %retval)
  %0 = load i16, ptr %retval, align 1
  ret i16 %0
}

; Function Attrs: mustprogress nounwind uwtable
define dso_local void @_ZN4node6crypto13KeyObjectData16CreateAsymmetricENS0_7KeyTypeERKNS0_14ManagedEVPPKeyE(ptr noalias sret(%"class.std::shared_ptr.7") align 8 %agg.result, i32 noundef %key_type, ptr noundef nonnull align 8 dereferenceable(32) %pkey) #4 align 2 {
entry:
  %result.ptr = alloca ptr, align 8
  %key_type.addr = alloca i32, align 4
  %pkey.addr = alloca ptr, align 8
  store ptr %agg.result, ptr %result.ptr, align 8
  store i32 %key_type, ptr %key_type.addr, align 4
  store ptr %pkey, ptr %pkey.addr, align 8
  br label %do.body

do.body:                                          ; preds = %entry
  %0 = load ptr, ptr %pkey.addr, align 8
  %call = call noundef zeroext i1 @_ZNK4node6crypto14ManagedEVPPKeycvbEv(ptr noundef nonnull align 8 dereferenceable(32) %0)
  %lnot = xor i1 %call, true
  %lnot1 = xor i1 %lnot, true
  %lnot2 = xor i1 %lnot1, true
  br i1 %lnot2, label %if.then, label %if.end

if.then:                                          ; preds = %do.body
  br label %do.body3

do.body3:                                         ; preds = %if.then
  call void @_ZN4node6AssertERKNS_13AssertionInfoE(ptr noundef nonnull align 8 dereferenceable(24) @_ZZN4node6crypto13KeyObjectData16CreateAsymmetricENS0_7KeyTypeERKNS0_14ManagedEVPPKeyEE4args)
  call void @abort() #14
  unreachable

do.end:                                           ; No predecessors!
  br label %if.end

if.end:                                           ; preds = %do.end, %do.body
  br label %do.end4

do.end4:                                          ; preds = %if.end
  %call5 = call noalias noundef nonnull ptr @_Znwm(i64 noundef 72) #15
  %1 = load i32, ptr %key_type.addr, align 4
  %2 = load ptr, ptr %pkey.addr, align 8
  call void @_ZN4node6crypto13KeyObjectDataC1ENS0_7KeyTypeERKNS0_14ManagedEVPPKeyE(ptr noundef nonnull align 8 dereferenceable(72) %call5, i32 noundef %1, ptr noundef nonnull align 8 dereferenceable(32) %2)
  call void @_ZNSt10shared_ptrIN4node6crypto13KeyObjectDataEEC2IS2_vEEPT_(ptr noundef nonnull align 8 dereferenceable(16) %agg.result, ptr noundef %call5)
  ret void
}

; Function Attrs: mustprogress nounwind uwtable
define internal i16 @_ZN4node6cryptoL8TristateEb(i1 noundef zeroext %b) #4 {
entry:
  %retval = alloca %"class.v8::Maybe", align 1
  %b.addr = alloca i8, align 1
  %ref.tmp = alloca i8, align 1
  %frombool = zext i1 %b to i8
  store i8 %frombool, ptr %b.addr, align 1
  %0 = load i8, ptr %b.addr, align 1
  %tobool = trunc i8 %0 to i1
  br i1 %tobool, label %cond.true, label %cond.false

cond.true:                                        ; preds = %entry
  store i8 1, ptr %ref.tmp, align 1
  %call = call i16 @_ZN2v84JustIbTnPNSt9enable_ifIXntsr3stdE21is_lvalue_reference_vIT_EEvE4typeELPv0EEENS_5MaybeIS2_EEOS2_(ptr noundef nonnull align 1 dereferenceable(1) %ref.tmp)
  store i16 %call, ptr %retval, align 1
  br label %cond.end

cond.false:                                       ; preds = %entry
  %call1 = call i16 @_ZN2v87NothingIbEENS_5MaybeIT_EEv()
  store i16 %call1, ptr %retval, align 1
  br label %cond.end

cond.end:                                         ; preds = %cond.false, %cond.true
  %1 = load i16, ptr %retval, align 1
  ret i16 %1
}

; Function Attrs: mustprogress nounwind uwtable
define dso_local ptr @_ZN4node6crypto15KeyObjectHandle6CreateEPNS_11EnvironmentESt10shared_ptrINS0_13KeyObjectDataEE(ptr noundef %env, ptr noundef %data) #4 align 2 {
entry:
  %this.addr.i87 = alloca ptr, align 8
  %other.addr.i = alloca ptr, align 8
  %slot.addr.i = alloca ptr, align 8
  %this.addr.i.i83 = alloca ptr, align 8
  %this.addr.i84 = alloca ptr, align 8
  %this.addr.i.i79 = alloca ptr, align 8
  %this.addr.i80 = alloca ptr, align 8
  %this.addr.i.i75 = alloca ptr, align 8
  %this.addr.i76 = alloca ptr, align 8
  %this.addr.i.i71 = alloca ptr, align 8
  %this.addr.i72 = alloca ptr, align 8
  %that.i68 = alloca %"class.v8::Local.10", align 8
  %this.addr.i69 = alloca ptr, align 8
  %this.addr.i.i = alloca ptr, align 8
  %this.addr.i66 = alloca ptr, align 8
  %this.addr.i63 = alloca ptr, align 8
  %out.addr.i = alloca ptr, align 8
  %this.addr.i61 = alloca ptr, align 8
  %this.addr.i59 = alloca ptr, align 8
  %this.addr.i58 = alloca ptr, align 8
  %that.i = alloca %"class.v8::Local.10", align 8
  %this.addr.i = alloca ptr, align 8
  %retval = alloca %"class.v8::MaybeLocal", align 8
  %env.addr = alloca ptr, align 8
  %data.indirect_addr = alloca ptr, align 8
  %obj = alloca %"class.v8::Local.10", align 8
  %ctor = alloca %"class.v8::Local.297", align 8
  %ref.tmp = alloca %"class.v8::Local.295", align 8
  %ref.tmp13 = alloca %"class.v8::MaybeLocal", align 8
  %agg.tmp = alloca %"class.v8::Local.304", align 8
  %key = alloca ptr, align 8
  %agg.tmp31 = alloca %"class.v8::Local", align 8
  %agg.tmp32 = alloca %"class.v8::Local.10", align 8
  %agg.tmp50 = alloca %"class.v8::Local.10", align 8
  store ptr %env, ptr %env.addr, align 8
  store ptr %data, ptr %data.indirect_addr, align 8
  store ptr %obj, ptr %this.addr.i59, align 8
  %this1.i60 = load ptr, ptr %this.addr.i59, align 8
  store ptr %this1.i60, ptr %this.addr.i80, align 8
  %this1.i81 = load ptr, ptr %this.addr.i80, align 8
  store ptr %this1.i81, ptr %this.addr.i.i79, align 8
  %this1.i.i82 = load ptr, ptr %this.addr.i.i79, align 8
  store ptr null, ptr %this1.i.i82, align 8
  %0 = load ptr, ptr %env.addr, align 8
  %call = call ptr @_ZN4node6crypto15KeyObjectHandle10InitializeEPNS_11EnvironmentE(ptr noundef %0)
  %coerce.dive = getelementptr inbounds %"class.v8::Local.297", ptr %ctor, i32 0, i32 0
  %coerce.dive1 = getelementptr inbounds %"class.v8::LocalBase.298", ptr %coerce.dive, i32 0, i32 0
  %coerce.dive2 = getelementptr inbounds %"class.v8::IndirectHandleBase", ptr %coerce.dive1, i32 0, i32 0
  store ptr %call, ptr %coerce.dive2, align 8
  br label %do.body

do.body:                                          ; preds = %entry
  %1 = load ptr, ptr %env.addr, align 8
  %call3 = call ptr @_ZNK4node11Environment36crypto_key_object_handle_constructorEv(ptr noundef nonnull align 8 dereferenceable(2872) %1)
  %coerce.dive4 = getelementptr inbounds %"class.v8::Local.295", ptr %ref.tmp, i32 0, i32 0
  %coerce.dive5 = getelementptr inbounds %"class.v8::LocalBase.296", ptr %coerce.dive4, i32 0, i32 0
  %coerce.dive6 = getelementptr inbounds %"class.v8::IndirectHandleBase", ptr %coerce.dive5, i32 0, i32 0
  store ptr %call3, ptr %coerce.dive6, align 8
  store ptr %ref.tmp, ptr %this.addr.i58, align 8
  %this1.i = load ptr, ptr %this.addr.i58, align 8
  %2 = load ptr, ptr %this1.i, align 8
  %cmp.i = icmp eq ptr %2, null
  %lnot = xor i1 %cmp.i, true
  %lnot8 = xor i1 %lnot, true
  %lnot9 = xor i1 %lnot8, true
  %lnot10 = xor i1 %lnot9, true
  br i1 %lnot10, label %if.then, label %if.end

if.then:                                          ; preds = %do.body
  br label %do.body11

do.body11:                                        ; preds = %if.then
  call void @_ZN4node6AssertERKNS_13AssertionInfoE(ptr noundef nonnull align 8 dereferenceable(24) @_ZZN4node6crypto15KeyObjectHandle6CreateEPNS_11EnvironmentESt10shared_ptrINS0_13KeyObjectDataEEE4args)
  call void @abort() #14
  unreachable

do.end:                                           ; No predecessors!
  br label %if.end

if.end:                                           ; preds = %do.end, %do.body
  br label %do.end12

do.end12:                                         ; preds = %if.end
  store ptr %ctor, ptr %this.addr.i61, align 8
  %this1.i62 = load ptr, ptr %this.addr.i61, align 8
  store ptr %this1.i62, ptr %this.addr.i84, align 8
  %this1.i85 = load ptr, ptr %this.addr.i84, align 8
  store ptr %this1.i85, ptr %this.addr.i.i83, align 8
  %this1.i.i86 = load ptr, ptr %this.addr.i.i83, align 8
  %3 = load ptr, ptr %this1.i.i86, align 8
  store ptr %3, ptr %slot.addr.i, align 8
  %4 = load ptr, ptr %slot.addr.i, align 8
  %5 = load ptr, ptr %env.addr, align 8
  %call15 = call ptr @_ZNK4node11Environment7contextEv(ptr noundef nonnull align 8 dereferenceable(2872) %5)
  %coerce.dive16 = getelementptr inbounds %"class.v8::Local.304", ptr %agg.tmp, i32 0, i32 0
  %coerce.dive17 = getelementptr inbounds %"class.v8::LocalBase.305", ptr %coerce.dive16, i32 0, i32 0
  %coerce.dive18 = getelementptr inbounds %"class.v8::IndirectHandleBase", ptr %coerce.dive17, i32 0, i32 0
  store ptr %call15, ptr %coerce.dive18, align 8
  %coerce.dive19 = getelementptr inbounds %"class.v8::Local.304", ptr %agg.tmp, i32 0, i32 0
  %coerce.dive20 = getelementptr inbounds %"class.v8::LocalBase.305", ptr %coerce.dive19, i32 0, i32 0
  %coerce.dive21 = getelementptr inbounds %"class.v8::IndirectHandleBase", ptr %coerce.dive20, i32 0, i32 0
  %6 = load ptr, ptr %coerce.dive21, align 8
  %call22 = call ptr @_ZNK2v88Function11NewInstanceENS_5LocalINS_7ContextEEEiPNS1_INS_5ValueEEE(ptr noundef nonnull align 1 dereferenceable(1) %4, ptr %6, i32 noundef 0, ptr noundef null)
  %coerce.dive23 = getelementptr inbounds %"class.v8::MaybeLocal", ptr %ref.tmp13, i32 0, i32 0
  %coerce.dive24 = getelementptr inbounds %"class.v8::Local.10", ptr %coerce.dive23, i32 0, i32 0
  %coerce.dive25 = getelementptr inbounds %"class.v8::LocalBase.11", ptr %coerce.dive24, i32 0, i32 0
  %coerce.dive26 = getelementptr inbounds %"class.v8::IndirectHandleBase", ptr %coerce.dive25, i32 0, i32 0
  store ptr %call22, ptr %coerce.dive26, align 8
  store ptr %ref.tmp13, ptr %this.addr.i63, align 8
  store ptr %obj, ptr %out.addr.i, align 8
  %this1.i64 = load ptr, ptr %this.addr.i63, align 8
  %7 = load ptr, ptr %out.addr.i, align 8
  call void @llvm.memcpy.p0.p0.i64(ptr align 8 %7, ptr align 8 %this1.i64, i64 8, i1 false)
  store ptr %this1.i64, ptr %this.addr.i72, align 8
  %this1.i73 = load ptr, ptr %this.addr.i72, align 8
  store ptr %this1.i73, ptr %this.addr.i.i71, align 8
  %this1.i.i74 = load ptr, ptr %this.addr.i.i71, align 8
  %8 = load ptr, ptr %this1.i.i74, align 8
  %cmp.i.i = icmp eq ptr %8, null
  %lnot.i = xor i1 %cmp.i.i, true
  %lnot28 = xor i1 %lnot.i, true
  br i1 %lnot28, label %if.then29, label %if.end30

if.then29:                                        ; preds = %do.end12
  store ptr %retval, ptr %this.addr.i66, align 8
  %this1.i67 = load ptr, ptr %this.addr.i66, align 8
  call void @llvm.memset.p0.i64(ptr align 8 %this1.i67, i8 0, i64 8, i1 false)
  store ptr %this1.i67, ptr %this.addr.i.i, align 8
  %this1.i.i = load ptr, ptr %this.addr.i.i, align 8
  store ptr %this1.i.i, ptr %this.addr.i76, align 8
  %this1.i77 = load ptr, ptr %this.addr.i76, align 8
  store ptr %this1.i77, ptr %this.addr.i.i75, align 8
  %this1.i.i78 = load ptr, ptr %this.addr.i.i75, align 8
  store ptr null, ptr %this1.i.i78, align 8
  br label %return

if.end30:                                         ; preds = %do.end12
  call void @llvm.memcpy.p0.p0.i64(ptr align 8 %agg.tmp32, ptr align 8 %obj, i64 8, i1 false)
  %coerce.dive33 = getelementptr inbounds %"class.v8::Local.10", ptr %agg.tmp32, i32 0, i32 0
  %coerce.dive34 = getelementptr inbounds %"class.v8::LocalBase.11", ptr %coerce.dive33, i32 0, i32 0
  %coerce.dive35 = getelementptr inbounds %"class.v8::IndirectHandleBase", ptr %coerce.dive34, i32 0, i32 0
  %9 = load ptr, ptr %coerce.dive35, align 8
  store ptr %9, ptr %that.i, align 8
  store ptr %agg.tmp31, ptr %this.addr.i, align 8
  %this3.i = load ptr, ptr %this.addr.i, align 8
  store ptr %this3.i, ptr %this.addr.i87, align 8
  store ptr %that.i, ptr %other.addr.i, align 8
  %this1.i88 = load ptr, ptr %this.addr.i87, align 8
  %10 = load ptr, ptr %other.addr.i, align 8
  call void @llvm.memcpy.p0.p0.i64(ptr align 8 %this1.i88, ptr align 8 %10, i64 8, i1 false)
  %coerce.dive36 = getelementptr inbounds %"class.v8::Local", ptr %agg.tmp31, i32 0, i32 0
  %coerce.dive37 = getelementptr inbounds %"class.v8::LocalBase", ptr %coerce.dive36, i32 0, i32 0
  %coerce.dive38 = getelementptr inbounds %"class.v8::IndirectHandleBase", ptr %coerce.dive37, i32 0, i32 0
  %11 = load ptr, ptr %coerce.dive38, align 8
  %call39 = call noundef ptr @_ZN4node6UnwrapINS_6crypto15KeyObjectHandleEEEPT_N2v85LocalINS5_5ValueEEE(ptr %11)
  store ptr %call39, ptr %key, align 8
  br label %do.body40

do.body40:                                        ; preds = %if.end30
  %12 = load ptr, ptr %key, align 8
  %cmp = icmp ne ptr %12, null
  %lnot41 = xor i1 %cmp, true
  %lnot42 = xor i1 %lnot41, true
  %lnot43 = xor i1 %lnot42, true
  br i1 %lnot43, label %if.then44, label %if.end47

if.then44:                                        ; preds = %do.body40
  br label %do.body45

do.body45:                                        ; preds = %if.then44
  call void @_ZN4node6AssertERKNS_13AssertionInfoE(ptr noundef nonnull align 8 dereferenceable(24) @_ZZN4node6crypto15KeyObjectHandle6CreateEPNS_11EnvironmentESt10shared_ptrINS0_13KeyObjectDataEEE4args_0)
  call void @abort() #14
  unreachable

do.end46:                                         ; No predecessors!
  br label %if.end47

if.end47:                                         ; preds = %do.end46, %do.body40
  br label %do.end48

do.end48:                                         ; preds = %if.end47
  %13 = load ptr, ptr %key, align 8
  %data_ = getelementptr inbounds %"class.node::crypto::KeyObjectHandle", ptr %13, i32 0, i32 1
  %call49 = call noundef nonnull align 8 dereferenceable(16) ptr @_ZNSt10shared_ptrIN4node6crypto13KeyObjectDataEEaSERKS3_(ptr noundef nonnull align 8 dereferenceable(16) %data_, ptr noundef nonnull align 8 dereferenceable(16) %data) #3
  call void @llvm.memcpy.p0.p0.i64(ptr align 8 %agg.tmp50, ptr align 8 %obj, i64 8, i1 false)
  %coerce.dive51 = getelementptr inbounds %"class.v8::Local.10", ptr %agg.tmp50, i32 0, i32 0
  %coerce.dive52 = getelementptr inbounds %"class.v8::LocalBase.11", ptr %coerce.dive51, i32 0, i32 0
  %coerce.dive53 = getelementptr inbounds %"class.v8::IndirectHandleBase", ptr %coerce.dive52, i32 0, i32 0
  %14 = load ptr, ptr %coerce.dive53, align 8
  store ptr %14, ptr %that.i68, align 8
  store ptr %retval, ptr %this.addr.i69, align 8
  %this3.i70 = load ptr, ptr %this.addr.i69, align 8
  call void @llvm.memcpy.p0.p0.i64(ptr align 8 %this3.i70, ptr align 8 %that.i68, i64 8, i1 false)
  br label %return

return:                                           ; preds = %do.end48, %if.then29
  %coerce.dive54 = getelementptr inbounds %"class.v8::MaybeLocal", ptr %retval, i32 0, i32 0
  %coerce.dive55 = getelementptr inbounds %"class.v8::Local.10", ptr %coerce.dive54, i32 0, i32 0
  %coerce.dive56 = getelementptr inbounds %"class.v8::LocalBase.11", ptr %coerce.dive55, i32 0, i32 0
  %coerce.dive57 = getelementptr inbounds %"class.v8::IndirectHandleBase", ptr %coerce.dive56, i32 0, i32 0
  %15 = load ptr, ptr %coerce.dive57, align 8
  ret ptr %15
}

declare ptr @_ZN2v86Object3NewEPNS_7IsolateE(ptr noundef) #1

; Function Attrs: mustprogress nounwind uwtable
define linkonce_odr dso_local noundef ptr @_ZNK4node11Environment7isolateEv(ptr noundef nonnull align 8 dereferenceable(2872) %this) #4 comdat align 2 {
entry:
  %this.addr = alloca ptr, align 8
  store ptr %this, ptr %this.addr, align 8
  %this1 = load ptr, ptr %this.addr, align 8
  %isolate_ = getelementptr inbounds %"class.node::Environment", ptr %this1, i32 0, i32 3
  %0 = load ptr, ptr %isolate_, align 8
  ret ptr %0
}

; Function Attrs: nocallback nofree nounwind willreturn memory(argmem: readwrite)
declare void @llvm.memcpy.p0.p0.i64(ptr noalias nocapture writeonly, ptr noalias nocapture readonly, i64, i1 immarg) #7

; Function Attrs: mustprogress nounwind uwtable
define internal ptr @_ZN4node6crypto12_GLOBAL__N_114WritePublicKeyEPNS_11EnvironmentEP11evp_pkey_stRKNS0_27AsymmetricKeyEncodingConfigE(ptr noundef %env, ptr noundef %pkey, ptr noundef nonnull align 4 dereferenceable(16) %config) #4 {
entry:
  %this.addr.i.i21 = alloca ptr, align 8
  %this.addr.i22 = alloca ptr, align 8
  %this.addr.i.i = alloca ptr, align 8
  %this.addr.i = alloca ptr, align 8
  %retval = alloca %"class.v8::MaybeLocal.291", align 8
  %env.addr = alloca ptr, align 8
  %pkey.addr = alloca ptr, align 8
  %config.addr = alloca ptr, align 8
  %bio = alloca %"class.std::unique_ptr.363", align 8
  %cleanup.dest.slot = alloca i32, align 4
  store ptr %env, ptr %env.addr, align 8
  store ptr %pkey, ptr %pkey.addr, align 8
  store ptr %config, ptr %config.addr, align 8
  %call = call ptr @BIO_s_mem()
  %call1 = call ptr @BIO_new(ptr noundef %call)
  call void @_ZNSt10unique_ptrI6bio_stN4node15FunctionDeleterIS0_XadL_Z12BIO_free_allEEEEEC2IS3_vEEPS0_(ptr noundef nonnull align 8 dereferenceable(8) %bio, ptr noundef %call1) #3
  br label %do.body

do.body:                                          ; preds = %entry
  %call2 = call noundef zeroext i1 @_ZNKSt10unique_ptrI6bio_stN4node15FunctionDeleterIS0_XadL_Z12BIO_free_allEEEEEcvbEv(ptr noundef nonnull align 8 dereferenceable(8) %bio) #3
  %lnot = xor i1 %call2, true
  %lnot3 = xor i1 %lnot, true
  %lnot4 = xor i1 %lnot3, true
  br i1 %lnot4, label %if.then, label %if.end

if.then:                                          ; preds = %do.body
  br label %do.body5

do.body5:                                         ; preds = %if.then
  call void @_ZN4node6AssertERKNS_13AssertionInfoE(ptr noundef nonnull align 8 dereferenceable(24) @_ZZN4node6crypto12_GLOBAL__N_114WritePublicKeyEPNS_11EnvironmentEP11evp_pkey_stRKNS0_27AsymmetricKeyEncodingConfigEE4args)
  call void @abort() #14
  unreachable

do.cond:                                          ; No predecessors!
  br label %do.end

do.end:                                           ; preds = %do.cond
  br label %if.end

if.end:                                           ; preds = %do.end, %do.body
  br label %do.cond6

do.cond6:                                         ; preds = %if.end
  br label %do.end7

do.end7:                                          ; preds = %do.cond6
  %0 = load ptr, ptr %pkey.addr, align 8
  %1 = load ptr, ptr %config.addr, align 8
  %call8 = call noundef zeroext i1 @_ZN4node6crypto12_GLOBAL__N_119WritePublicKeyInnerEP11evp_pkey_stRKSt10unique_ptrI6bio_stNS_15FunctionDeleterIS5_XadL_Z12BIO_free_allEEEEERKNS0_27AsymmetricKeyEncodingConfigE(ptr noundef %0, ptr noundef nonnull align 8 dereferenceable(8) %bio, ptr noundef nonnull align 4 dereferenceable(16) %1)
  br i1 %call8, label %if.end11, label %if.then9

if.then9:                                         ; preds = %do.end7
  %2 = load ptr, ptr %env.addr, align 8
  %call10 = call i64 @ERR_get_error()
  call void @_ZN4node6crypto16ThrowCryptoErrorEPNS_11EnvironmentEmPKc(ptr noundef %2, i64 noundef %call10, ptr noundef @.str.168)
  store ptr %retval, ptr %this.addr.i, align 8
  %this1.i = load ptr, ptr %this.addr.i, align 8
  call void @llvm.memset.p0.i64(ptr align 8 %this1.i, i8 0, i64 8, i1 false)
  store ptr %this1.i, ptr %this.addr.i.i, align 8
  %this1.i.i = load ptr, ptr %this.addr.i.i, align 8
  store ptr %this1.i.i, ptr %this.addr.i22, align 8
  %this1.i23 = load ptr, ptr %this.addr.i22, align 8
  store ptr %this1.i23, ptr %this.addr.i.i21, align 8
  %this1.i.i24 = load ptr, ptr %this.addr.i.i21, align 8
  store ptr null, ptr %this1.i.i24, align 8
  store i32 1, ptr %cleanup.dest.slot, align 4
  br label %cleanup

if.end11:                                         ; preds = %do.end7
  %3 = load ptr, ptr %env.addr, align 8
  %call12 = call noundef ptr @_ZNKSt10unique_ptrI6bio_stN4node15FunctionDeleterIS0_XadL_Z12BIO_free_allEEEEE3getEv(ptr noundef nonnull align 8 dereferenceable(8) %bio) #3
  %4 = load ptr, ptr %config.addr, align 8
  %format_ = getelementptr inbounds %"struct.node::crypto::AsymmetricKeyEncodingConfig", ptr %4, i32 0, i32 1
  %5 = load i32, ptr %format_, align 4
  %call13 = call ptr @_ZN4node6crypto12_GLOBAL__N_119BIOToStringOrBufferEPNS_11EnvironmentEP6bio_stNS0_12PKFormatTypeE(ptr noundef %3, ptr noundef %call12, i32 noundef %5)
  %coerce.dive = getelementptr inbounds %"class.v8::MaybeLocal.291", ptr %retval, i32 0, i32 0
  %coerce.dive14 = getelementptr inbounds %"class.v8::Local", ptr %coerce.dive, i32 0, i32 0
  %coerce.dive15 = getelementptr inbounds %"class.v8::LocalBase", ptr %coerce.dive14, i32 0, i32 0
  %coerce.dive16 = getelementptr inbounds %"class.v8::IndirectHandleBase", ptr %coerce.dive15, i32 0, i32 0
  store ptr %call13, ptr %coerce.dive16, align 8
  store i32 1, ptr %cleanup.dest.slot, align 4
  br label %cleanup

cleanup:                                          ; preds = %if.end11, %if.then9
  call void @_ZNSt10unique_ptrI6bio_stN4node15FunctionDeleterIS0_XadL_Z12BIO_free_allEEEEED2Ev(ptr noundef nonnull align 8 dereferenceable(8) %bio) #3
  %coerce.dive17 = getelementptr inbounds %"class.v8::MaybeLocal.291", ptr %retval, i32 0, i32 0
  %coerce.dive18 = getelementptr inbounds %"class.v8::Local", ptr %coerce.dive17, i32 0, i32 0
  %coerce.dive19 = getelementptr inbounds %"class.v8::LocalBase", ptr %coerce.dive18, i32 0, i32 0
  %coerce.dive20 = getelementptr inbounds %"class.v8::IndirectHandleBase", ptr %coerce.dive19, i32 0, i32 0
  %6 = load ptr, ptr %coerce.dive20, align 8
  ret ptr %6
}

; Function Attrs: mustprogress nounwind uwtable
define dso_local i16 @_ZN4node6crypto14ManagedEVPPKey19ToEncodedPrivateKeyEPNS_11EnvironmentERKNS0_24PrivateKeyEncodingConfigEPN2v85LocalINS7_5ValueEEE(ptr noundef nonnull align 8 dereferenceable(32) %this, ptr noundef %env, ptr noundef nonnull align 8 dereferenceable(56) %config, ptr noundef %out) #4 align 2 {
entry:
  %this.addr.i57 = alloca ptr, align 8
  %other.addr.i58 = alloca ptr, align 8
  %this.addr.i55 = alloca ptr, align 8
  %other.addr.i = alloca ptr, align 8
  %this.addr.i.i50 = alloca ptr, align 8
  %this.addr.i51 = alloca ptr, align 8
  %this.addr.i.i = alloca ptr, align 8
  %this.addr.i48 = alloca ptr, align 8
  %this.addr.i43 = alloca ptr, align 8
  %out.addr.i44 = alloca ptr, align 8
  %that.i40 = alloca %"class.v8::Local.10", align 8
  %this.addr.i41 = alloca ptr, align 8
  %that.i = alloca %"class.v8::Local.10", align 8
  %this.addr.i39 = alloca ptr, align 8
  %this.addr.i = alloca ptr, align 8
  %out.addr.i = alloca ptr, align 8
  %ref.tmp.i = alloca %"class.v8::Local", align 8
  %agg.tmp.i = alloca %"class.v8::Local.10", align 8
  %retval = alloca %"class.v8::Maybe", align 1
  %this.addr = alloca ptr, align 8
  %env.addr = alloca ptr, align 8
  %config.addr = alloca ptr, align 8
  %out.addr = alloca ptr, align 8
  %data = alloca %"class.std::shared_ptr.7", align 8
  %ref.tmp = alloca %"class.v8::MaybeLocal", align 8
  %agg.tmp = alloca %"class.std::shared_ptr.7", align 8
  %data11 = alloca %"class.std::shared_ptr.7", align 8
  %ref.tmp12 = alloca %"class.v8::Local", align 8
  %agg.tmp13 = alloca %"class.v8::Local.10", align 8
  %agg.tmp22 = alloca %"class.std::shared_ptr.7", align 8
  %agg.tmp23 = alloca %"class.v8::Local", align 8
  %ref.tmp30 = alloca %"class.v8::MaybeLocal.291", align 8
  store ptr %this, ptr %this.addr, align 8
  store ptr %env, ptr %env.addr, align 8
  store ptr %config, ptr %config.addr, align 8
  store ptr %out, ptr %out.addr, align 8
  %this1 = load ptr, ptr %this.addr, align 8
  %call = call noundef zeroext i1 @_ZNK4node6crypto14ManagedEVPPKeycvbEv(ptr noundef nonnull align 8 dereferenceable(32) %this1)
  br i1 %call, label %if.end, label %if.then

if.then:                                          ; preds = %entry
  %call2 = call i16 @_ZN2v87NothingIbEENS_5MaybeIT_EEv()
  store i16 %call2, ptr %retval, align 1
  br label %return

if.end:                                           ; preds = %entry
  %0 = load ptr, ptr %config.addr, align 8
  %output_key_object_ = getelementptr inbounds %"struct.node::crypto::AsymmetricKeyEncodingConfig", ptr %0, i32 0, i32 0
  %1 = load i8, ptr %output_key_object_, align 8
  %tobool = trunc i8 %1 to i1
  br i1 %tobool, label %if.then3, label %if.else

if.then3:                                         ; preds = %if.end
  call void @_ZN4node6crypto13KeyObjectData16CreateAsymmetricENS0_7KeyTypeERKNS0_14ManagedEVPPKeyE(ptr sret(%"class.std::shared_ptr.7") align 8 %data, i32 noundef 2, ptr noundef nonnull align 8 dereferenceable(32) %this1)
  %2 = load ptr, ptr %env.addr, align 8
  call void @_ZNSt10shared_ptrIN4node6crypto13KeyObjectDataEEC2ERKS3_(ptr noundef nonnull align 8 dereferenceable(16) %agg.tmp, ptr noundef nonnull align 8 dereferenceable(16) %data) #3
  %call4 = call ptr @_ZN4node6crypto15KeyObjectHandle6CreateEPNS_11EnvironmentESt10shared_ptrINS0_13KeyObjectDataEE(ptr noundef %2, ptr noundef %agg.tmp)
  %coerce.dive = getelementptr inbounds %"class.v8::MaybeLocal", ptr %ref.tmp, i32 0, i32 0
  %coerce.dive5 = getelementptr inbounds %"class.v8::Local.10", ptr %coerce.dive, i32 0, i32 0
  %coerce.dive6 = getelementptr inbounds %"class.v8::LocalBase.11", ptr %coerce.dive5, i32 0, i32 0
  %coerce.dive7 = getelementptr inbounds %"class.v8::IndirectHandleBase", ptr %coerce.dive6, i32 0, i32 0
  store ptr %call4, ptr %coerce.dive7, align 8
  %3 = load ptr, ptr %out.addr, align 8
  store ptr %ref.tmp, ptr %this.addr.i, align 8
  store ptr %3, ptr %out.addr.i, align 8
  %this1.i = load ptr, ptr %this.addr.i, align 8
  call void @llvm.memcpy.p0.p0.i64(ptr align 8 %agg.tmp.i, ptr align 8 %this1.i, i64 8, i1 false)
  %4 = load ptr, ptr %agg.tmp.i, align 8
  store ptr %4, ptr %that.i, align 8
  store ptr %ref.tmp.i, ptr %this.addr.i39, align 8
  %this3.i = load ptr, ptr %this.addr.i39, align 8
  store ptr %this3.i, ptr %this.addr.i57, align 8
  store ptr %that.i, ptr %other.addr.i58, align 8
  %this1.i59 = load ptr, ptr %this.addr.i57, align 8
  %5 = load ptr, ptr %other.addr.i58, align 8
  call void @llvm.memcpy.p0.p0.i64(ptr align 8 %this1.i59, ptr align 8 %5, i64 8, i1 false)
  %6 = load ptr, ptr %out.addr.i, align 8
  call void @llvm.memcpy.p0.p0.i64(ptr align 8 %6, ptr align 8 %ref.tmp.i, i64 8, i1 false)
  store ptr %this1.i, ptr %this.addr.i51, align 8
  %this1.i52 = load ptr, ptr %this.addr.i51, align 8
  store ptr %this1.i52, ptr %this.addr.i.i50, align 8
  %this1.i.i53 = load ptr, ptr %this.addr.i.i50, align 8
  %7 = load ptr, ptr %this1.i.i53, align 8
  %cmp.i.i54 = icmp eq ptr %7, null
  %lnot.i = xor i1 %cmp.i.i54, true
  %call9 = call i16 @_ZN4node6cryptoL8TristateEb(i1 noundef zeroext %lnot.i)
  store i16 %call9, ptr %retval, align 1
  call void @_ZNSt10shared_ptrIN4node6crypto13KeyObjectDataEED2Ev(ptr noundef nonnull align 8 dereferenceable(16) %agg.tmp) #3
  call void @_ZNSt10shared_ptrIN4node6crypto13KeyObjectDataEED2Ev(ptr noundef nonnull align 8 dereferenceable(16) %data) #3
  br label %return

if.else:                                          ; preds = %if.end
  %8 = load ptr, ptr %config.addr, align 8
  %format_ = getelementptr inbounds %"struct.node::crypto::AsymmetricKeyEncodingConfig", ptr %8, i32 0, i32 1
  %9 = load i32, ptr %format_, align 4
  %cmp = icmp eq i32 %9, 2
  br i1 %cmp, label %if.then10, label %if.end28

if.then10:                                        ; preds = %if.else
  call void @_ZN4node6crypto13KeyObjectData16CreateAsymmetricENS0_7KeyTypeERKNS0_14ManagedEVPPKeyE(ptr sret(%"class.std::shared_ptr.7") align 8 %data11, i32 noundef 2, ptr noundef nonnull align 8 dereferenceable(32) %this1)
  %10 = load ptr, ptr %env.addr, align 8
  %call14 = call noundef ptr @_ZNK4node11Environment7isolateEv(ptr noundef nonnull align 8 dereferenceable(2872) %10)
  %call15 = call ptr @_ZN2v86Object3NewEPNS_7IsolateE(ptr noundef %call14)
  %coerce.dive16 = getelementptr inbounds %"class.v8::Local.10", ptr %agg.tmp13, i32 0, i32 0
  %coerce.dive17 = getelementptr inbounds %"class.v8::LocalBase.11", ptr %coerce.dive16, i32 0, i32 0
  %coerce.dive18 = getelementptr inbounds %"class.v8::IndirectHandleBase", ptr %coerce.dive17, i32 0, i32 0
  store ptr %call15, ptr %coerce.dive18, align 8
  %coerce.dive19 = getelementptr inbounds %"class.v8::Local.10", ptr %agg.tmp13, i32 0, i32 0
  %coerce.dive20 = getelementptr inbounds %"class.v8::LocalBase.11", ptr %coerce.dive19, i32 0, i32 0
  %coerce.dive21 = getelementptr inbounds %"class.v8::IndirectHandleBase", ptr %coerce.dive20, i32 0, i32 0
  %11 = load ptr, ptr %coerce.dive21, align 8
  store ptr %11, ptr %that.i40, align 8
  store ptr %ref.tmp12, ptr %this.addr.i41, align 8
  %this3.i42 = load ptr, ptr %this.addr.i41, align 8
  store ptr %this3.i42, ptr %this.addr.i55, align 8
  store ptr %that.i40, ptr %other.addr.i, align 8
  %this1.i56 = load ptr, ptr %this.addr.i55, align 8
  %12 = load ptr, ptr %other.addr.i, align 8
  call void @llvm.memcpy.p0.p0.i64(ptr align 8 %this1.i56, ptr align 8 %12, i64 8, i1 false)
  %13 = load ptr, ptr %out.addr, align 8
  call void @llvm.memcpy.p0.p0.i64(ptr align 8 %13, ptr align 8 %ref.tmp12, i64 8, i1 false)
  %14 = load ptr, ptr %env.addr, align 8
  call void @_ZNSt10shared_ptrIN4node6crypto13KeyObjectDataEEC2ERKS3_(ptr noundef nonnull align 8 dereferenceable(16) %agg.tmp22, ptr noundef nonnull align 8 dereferenceable(16) %data11) #3
  %15 = load ptr, ptr %out.addr, align 8
  call void @llvm.memcpy.p0.p0.i64(ptr align 8 %agg.tmp23, ptr align 8 %15, i64 8, i1 false)
  %coerce.dive24 = getelementptr inbounds %"class.v8::Local", ptr %agg.tmp23, i32 0, i32 0
  %coerce.dive25 = getelementptr inbounds %"class.v8::LocalBase", ptr %coerce.dive24, i32 0, i32 0
  %coerce.dive26 = getelementptr inbounds %"class.v8::IndirectHandleBase", ptr %coerce.dive25, i32 0, i32 0
  %16 = load ptr, ptr %coerce.dive26, align 8
  %call27 = call i16 @_ZN4node6crypto14ExportJWKInnerEPNS_11EnvironmentESt10shared_ptrINS0_13KeyObjectDataEEN2v85LocalINS6_5ValueEEEb(ptr noundef %14, ptr noundef %agg.tmp22, ptr %16, i1 noundef zeroext false)
  store i16 %call27, ptr %retval, align 1
  call void @_ZNSt10shared_ptrIN4node6crypto13KeyObjectDataEED2Ev(ptr noundef nonnull align 8 dereferenceable(16) %agg.tmp22) #3
  call void @_ZNSt10shared_ptrIN4node6crypto13KeyObjectDataEED2Ev(ptr noundef nonnull align 8 dereferenceable(16) %data11) #3
  br label %return

if.end28:                                         ; preds = %if.else
  br label %if.end29

if.end29:                                         ; preds = %if.end28
  %17 = load ptr, ptr %env.addr, align 8
  %call31 = call noundef ptr @_ZNK4node6crypto14ManagedEVPPKey3getEv(ptr noundef nonnull align 8 dereferenceable(32) %this1)
  %18 = load ptr, ptr %config.addr, align 8
  %call32 = call ptr @_ZN4node6crypto12_GLOBAL__N_115WritePrivateKeyEPNS_11EnvironmentEP11evp_pkey_stRKNS0_24PrivateKeyEncodingConfigE(ptr noundef %17, ptr noundef %call31, ptr noundef nonnull align 8 dereferenceable(56) %18)
  %coerce.dive33 = getelementptr inbounds %"class.v8::MaybeLocal.291", ptr %ref.tmp30, i32 0, i32 0
  %coerce.dive34 = getelementptr inbounds %"class.v8::Local", ptr %coerce.dive33, i32 0, i32 0
  %coerce.dive35 = getelementptr inbounds %"class.v8::LocalBase", ptr %coerce.dive34, i32 0, i32 0
  %coerce.dive36 = getelementptr inbounds %"class.v8::IndirectHandleBase", ptr %coerce.dive35, i32 0, i32 0
  store ptr %call32, ptr %coerce.dive36, align 8
  %19 = load ptr, ptr %out.addr, align 8
  store ptr %ref.tmp30, ptr %this.addr.i43, align 8
  store ptr %19, ptr %out.addr.i44, align 8
  %this1.i45 = load ptr, ptr %this.addr.i43, align 8
  %20 = load ptr, ptr %out.addr.i44, align 8
  call void @llvm.memcpy.p0.p0.i64(ptr align 8 %20, ptr align 8 %this1.i45, i64 8, i1 false)
  store ptr %this1.i45, ptr %this.addr.i48, align 8
  %this1.i49 = load ptr, ptr %this.addr.i48, align 8
  store ptr %this1.i49, ptr %this.addr.i.i, align 8
  %this1.i.i = load ptr, ptr %this.addr.i.i, align 8
  %21 = load ptr, ptr %this1.i.i, align 8
  %cmp.i.i = icmp eq ptr %21, null
  %lnot.i47 = xor i1 %cmp.i.i, true
  %call38 = call i16 @_ZN4node6cryptoL8TristateEb(i1 noundef zeroext %lnot.i47)
  store i16 %call38, ptr %retval, align 1
  br label %return

return:                                           ; preds = %if.end29, %if.then10, %if.then3, %if.then
  %22 = load i16, ptr %retval, align 1
  ret i16 %22
}

; Function Attrs: mustprogress nounwind uwtable
define internal ptr @_ZN4node6crypto12_GLOBAL__N_115WritePrivateKeyEPNS_11EnvironmentEP11evp_pkey_stRKNS0_24PrivateKeyEncodingConfigE(ptr noundef %env, ptr noundef %pkey, ptr noundef nonnull align 8 dereferenceable(56) %config) #4 {
entry:
  %this.addr.i233 = alloca ptr, align 8
  %this.addr.i230 = alloca ptr, align 8
  %this.addr.i.i226 = alloca ptr, align 8
  %this.addr.i227 = alloca ptr, align 8
  %this.addr.i.i = alloca ptr, align 8
  %this.addr.i224 = alloca ptr, align 8
  %this.addr.i = alloca ptr, align 8
  %retval = alloca %"class.v8::MaybeLocal.291", align 8
  %env.addr = alloca ptr, align 8
  %pkey.addr = alloca ptr, align 8
  %config.addr = alloca ptr, align 8
  %bio = alloca %"class.std::unique_ptr.363", align 8
  %pass = alloca ptr, align 8
  %pass_len = alloca i64, align 8
  %mark_pop_error_on_return = alloca %"struct.node::crypto::MarkPopErrorOnReturn", align 1
  %err = alloca i8, align 1
  %encoding_type = alloca i32, align 4
  %rsa = alloca %"class.std::unique_ptr.442", align 8
  %ec_key = alloca %"class.std::unique_ptr.315", align 8
  %cleanup.dest.slot = alloca i32, align 4
  store ptr %env, ptr %env.addr, align 8
  store ptr %pkey, ptr %pkey.addr, align 8
  store ptr %config, ptr %config.addr, align 8
  %call = call ptr @BIO_s_mem()
  %call1 = call ptr @BIO_new(ptr noundef %call)
  call void @_ZNSt10unique_ptrI6bio_stN4node15FunctionDeleterIS0_XadL_Z12BIO_free_allEEEEEC2IS3_vEEPS0_(ptr noundef nonnull align 8 dereferenceable(8) %bio, ptr noundef %call1) #3
  br label %do.body

do.body:                                          ; preds = %entry
  %call2 = call noundef zeroext i1 @_ZNKSt10unique_ptrI6bio_stN4node15FunctionDeleterIS0_XadL_Z12BIO_free_allEEEEEcvbEv(ptr noundef nonnull align 8 dereferenceable(8) %bio) #3
  %lnot = xor i1 %call2, true
  %lnot3 = xor i1 %lnot, true
  %lnot4 = xor i1 %lnot3, true
  br i1 %lnot4, label %if.then, label %if.end

if.then:                                          ; preds = %do.body
  br label %do.body5

do.body5:                                         ; preds = %if.then
  call void @_ZN4node6AssertERKNS_13AssertionInfoE(ptr noundef nonnull align 8 dereferenceable(24) @_ZZN4node6crypto12_GLOBAL__N_115WritePrivateKeyEPNS_11EnvironmentEP11evp_pkey_stRKNS0_24PrivateKeyEncodingConfigEE4args)
  call void @abort() #14
  unreachable

do.cond:                                          ; No predecessors!
  br label %do.end

do.end:                                           ; preds = %do.cond
  br label %if.end

if.end:                                           ; preds = %do.end, %do.body
  br label %do.cond6

do.cond6:                                         ; preds = %if.end
  br label %do.end7

do.end7:                                          ; preds = %do.cond6
  store ptr null, ptr %pass, align 8
  store i64 0, ptr %pass_len, align 8
  %0 = load ptr, ptr %config.addr, align 8
  %passphrase_ = getelementptr inbounds %"struct.node::crypto::PrivateKeyEncodingConfig", ptr %0, i32 0, i32 2
  %call8 = call noundef zeroext i1 @_ZNK4node16NonCopyableMaybeINS_6crypto10ByteSourceEE7IsEmptyEv(ptr noundef nonnull align 8 dereferenceable(32) %passphrase_)
  br i1 %call8, label %if.end42, label %if.then9

if.then9:                                         ; preds = %do.end7
  %1 = load ptr, ptr %config.addr, align 8
  %passphrase_10 = getelementptr inbounds %"struct.node::crypto::PrivateKeyEncodingConfig", ptr %1, i32 0, i32 2
  %call11 = call noundef ptr @_ZNK4node16NonCopyableMaybeINS_6crypto10ByteSourceEEptEv(ptr noundef nonnull align 8 dereferenceable(32) %passphrase_10)
  %call12 = call noundef ptr @_ZNK4node6crypto10ByteSource4dataIcEEPKT_v(ptr noundef nonnull align 8 dereferenceable(24) %call11)
  store ptr %call12, ptr %pass, align 8
  %2 = load ptr, ptr %config.addr, align 8
  %passphrase_13 = getelementptr inbounds %"struct.node::crypto::PrivateKeyEncodingConfig", ptr %2, i32 0, i32 2
  %call14 = call noundef ptr @_ZNK4node16NonCopyableMaybeINS_6crypto10ByteSourceEEptEv(ptr noundef nonnull align 8 dereferenceable(32) %passphrase_13)
  %call15 = call noundef i64 @_ZNK4node6crypto10ByteSource4sizeEv(ptr noundef nonnull align 8 dereferenceable(24) %call14)
  store i64 %call15, ptr %pass_len, align 8
  %3 = load ptr, ptr %pass, align 8
  %cmp = icmp eq ptr %3, null
  br i1 %cmp, label %if.then16, label %if.end41

if.then16:                                        ; preds = %if.then9
  br label %do.body17

do.body17:                                        ; preds = %if.then16
  %4 = load i64, ptr %pass_len, align 8
  %cmp18 = icmp eq i64 %4, 0
  %lnot19 = xor i1 %cmp18, true
  %lnot20 = xor i1 %lnot19, true
  %lnot21 = xor i1 %lnot20, true
  br i1 %lnot21, label %if.then22, label %if.end26

if.then22:                                        ; preds = %do.body17
  br label %do.body23

do.body23:                                        ; preds = %if.then22
  call void @_ZN4node6AssertERKNS_13AssertionInfoE(ptr noundef nonnull align 8 dereferenceable(24) @_ZZN4node6crypto12_GLOBAL__N_115WritePrivateKeyEPNS_11EnvironmentEP11evp_pkey_stRKNS0_24PrivateKeyEncodingConfigEE4args_0)
  call void @abort() #14
  unreachable

do.cond24:                                        ; No predecessors!
  br label %do.end25

do.end25:                                         ; preds = %do.cond24
  br label %if.end26

if.end26:                                         ; preds = %do.end25, %do.body17
  br label %do.cond27

do.cond27:                                        ; preds = %if.end26
  br label %do.end28

do.end28:                                         ; preds = %do.cond27
  store ptr inttoptr (i64 -1 to ptr), ptr %pass, align 8
  br label %do.body29

do.body29:                                        ; preds = %do.end28
  %5 = load ptr, ptr %pass, align 8
  %cmp30 = icmp ne ptr %5, null
  %lnot31 = xor i1 %cmp30, true
  %lnot32 = xor i1 %lnot31, true
  %lnot33 = xor i1 %lnot32, true
  br i1 %lnot33, label %if.then34, label %if.end38

if.then34:                                        ; preds = %do.body29
  br label %do.body35

do.body35:                                        ; preds = %if.then34
  call void @_ZN4node6AssertERKNS_13AssertionInfoE(ptr noundef nonnull align 8 dereferenceable(24) @_ZZN4node6crypto12_GLOBAL__N_115WritePrivateKeyEPNS_11EnvironmentEP11evp_pkey_stRKNS0_24PrivateKeyEncodingConfigEE4args_1)
  call void @abort() #14
  unreachable

do.cond36:                                        ; No predecessors!
  br label %do.end37

do.end37:                                         ; preds = %do.cond36
  br label %if.end38

if.end38:                                         ; preds = %do.end37, %do.body29
  br label %do.cond39

do.cond39:                                        ; preds = %if.end38
  br label %do.end40

do.end40:                                         ; preds = %do.cond39
  br label %if.end41

if.end41:                                         ; preds = %do.end40, %if.then9
  br label %if.end42

if.end42:                                         ; preds = %if.end41, %do.end7
  call void @_ZN4node6crypto20MarkPopErrorOnReturnC2Ev(ptr noundef nonnull align 1 dereferenceable(1) %mark_pop_error_on_return)
  %6 = load ptr, ptr %config.addr, align 8
  %type_ = getelementptr inbounds %"struct.node::crypto::AsymmetricKeyEncodingConfig", ptr %6, i32 0, i32 2
  store ptr %type_, ptr %this.addr.i, align 8
  %this1.i = load ptr, ptr %this.addr.i, align 8
  store ptr %this1.i, ptr %this.addr.i230, align 8
  %this1.i231 = load ptr, ptr %this.addr.i230, align 8
  store ptr %this1.i231, ptr %this.addr.i233, align 8
  %this1.i234 = load ptr, ptr %this.addr.i233, align 8
  %7 = load i8, ptr %this1.i234, align 4
  %tobool.i = trunc i8 %7 to i1
  %lnot3.i = xor i1 %tobool.i, true
  br i1 %lnot3.i, label %if.then.i, label %_ZNKR2v85MaybeIN4node6crypto14PKEncodingTypeEE8FromJustEv.exit

if.then.i:                                        ; preds = %if.end42
  call void @_ZN2v812api_internal17FromJustIsNothingEv() #3
  br label %_ZNKR2v85MaybeIN4node6crypto14PKEncodingTypeEE8FromJustEv.exit

_ZNKR2v85MaybeIN4node6crypto14PKEncodingTypeEE8FromJustEv.exit: ; preds = %if.then.i, %if.end42
  %value_.i = getelementptr inbounds %"class.v8::Maybe.12", ptr %this1.i231, i32 0, i32 1
  %8 = load i32, ptr %value_.i, align 4
  store i32 %8, ptr %encoding_type, align 4
  %9 = load i32, ptr %encoding_type, align 4
  %cmp44 = icmp eq i32 %9, 0
  br i1 %cmp44, label %if.then45, label %if.else100

if.then45:                                        ; preds = %_ZNKR2v85MaybeIN4node6crypto14PKEncodingTypeEE8FromJustEv.exit
  br label %do.body46

do.body46:                                        ; preds = %if.then45
  %10 = load ptr, ptr %pkey.addr, align 8
  %call47 = call i32 @EVP_PKEY_get_id(ptr noundef %10)
  %cmp48 = icmp eq i32 %call47, 6
  %lnot49 = xor i1 %cmp48, true
  %lnot50 = xor i1 %lnot49, true
  %lnot51 = xor i1 %lnot50, true
  br i1 %lnot51, label %if.then52, label %if.end56

if.then52:                                        ; preds = %do.body46
  br label %do.body53

do.body53:                                        ; preds = %if.then52
  call void @_ZN4node6AssertERKNS_13AssertionInfoE(ptr noundef nonnull align 8 dereferenceable(24) @_ZZN4node6crypto12_GLOBAL__N_115WritePrivateKeyEPNS_11EnvironmentEP11evp_pkey_stRKNS0_24PrivateKeyEncodingConfigEE4args_2)
  call void @abort() #14
  unreachable

do.cond54:                                        ; No predecessors!
  br label %do.end55

do.end55:                                         ; preds = %do.cond54
  br label %if.end56

if.end56:                                         ; preds = %do.end55, %do.body46
  br label %do.cond57

do.cond57:                                        ; preds = %if.end56
  br label %do.end58

do.end58:                                         ; preds = %do.cond57
  %11 = load ptr, ptr %pkey.addr, align 8
  %call59 = call ptr @EVP_PKEY_get1_RSA(ptr noundef %11)
  call void @_ZNSt10unique_ptrI6rsa_stN4node15FunctionDeleterIS0_XadL_Z8RSA_freeEEEEEC2IS3_vEEPS0_(ptr noundef nonnull align 8 dereferenceable(8) %rsa, ptr noundef %call59) #3
  %12 = load ptr, ptr %config.addr, align 8
  %format_ = getelementptr inbounds %"struct.node::crypto::AsymmetricKeyEncodingConfig", ptr %12, i32 0, i32 1
  %13 = load i32, ptr %format_, align 4
  %cmp60 = icmp eq i32 %13, 1
  br i1 %cmp60, label %if.then61, label %if.else

if.then61:                                        ; preds = %do.end58
  %call62 = call noundef ptr @_ZNKSt10unique_ptrI6bio_stN4node15FunctionDeleterIS0_XadL_Z12BIO_free_allEEEEE3getEv(ptr noundef nonnull align 8 dereferenceable(8) %bio) #3
  %call63 = call noundef ptr @_ZNKSt10unique_ptrI6rsa_stN4node15FunctionDeleterIS0_XadL_Z8RSA_freeEEEEE3getEv(ptr noundef nonnull align 8 dereferenceable(8) %rsa) #3
  %14 = load ptr, ptr %config.addr, align 8
  %cipher_ = getelementptr inbounds %"struct.node::crypto::PrivateKeyEncodingConfig", ptr %14, i32 0, i32 1
  %15 = load ptr, ptr %cipher_, align 8
  %16 = load ptr, ptr %pass, align 8
  %17 = load i64, ptr %pass_len, align 8
  %conv = trunc i64 %17 to i32
  %call64 = call i32 @PEM_write_bio_RSAPrivateKey(ptr noundef %call62, ptr noundef %call63, ptr noundef %15, ptr noundef %16, i32 noundef %conv, ptr noundef null, ptr noundef null)
  %cmp65 = icmp ne i32 %call64, 1
  %frombool = zext i1 %cmp65 to i8
  store i8 %frombool, ptr %err, align 1
  br label %if.end99

if.else:                                          ; preds = %do.end58
  br label %do.body66

do.body66:                                        ; preds = %if.else
  %18 = load ptr, ptr %config.addr, align 8
  %format_67 = getelementptr inbounds %"struct.node::crypto::AsymmetricKeyEncodingConfig", ptr %18, i32 0, i32 1
  %19 = load i32, ptr %format_67, align 4
  %cmp68 = icmp eq i32 %19, 0
  %lnot69 = xor i1 %cmp68, true
  %lnot70 = xor i1 %lnot69, true
  %lnot71 = xor i1 %lnot70, true
  br i1 %lnot71, label %if.then73, label %if.end77

if.then73:                                        ; preds = %do.body66
  br label %do.body74

do.body74:                                        ; preds = %if.then73
  call void @_ZN4node6AssertERKNS_13AssertionInfoE(ptr noundef nonnull align 8 dereferenceable(24) @_ZZN4node6crypto12_GLOBAL__N_115WritePrivateKeyEPNS_11EnvironmentEP11evp_pkey_stRKNS0_24PrivateKeyEncodingConfigEE4args_3)
  call void @abort() #14
  unreachable

do.cond75:                                        ; No predecessors!
  br label %do.end76

do.end76:                                         ; preds = %do.cond75
  br label %if.end77

if.end77:                                         ; preds = %do.end76, %do.body66
  br label %do.cond78

do.cond78:                                        ; preds = %if.end77
  br label %do.end79

do.end79:                                         ; preds = %do.cond78
  br label %do.body80

do.body80:                                        ; preds = %do.end79
  %20 = load ptr, ptr %config.addr, align 8
  %cipher_81 = getelementptr inbounds %"struct.node::crypto::PrivateKeyEncodingConfig", ptr %20, i32 0, i32 1
  %21 = load ptr, ptr %cipher_81, align 8
  %cmp82 = icmp eq ptr %21, null
  %lnot83 = xor i1 %cmp82, true
  %lnot84 = xor i1 %lnot83, true
  %lnot85 = xor i1 %lnot84, true
  br i1 %lnot85, label %if.then87, label %if.end91

if.then87:                                        ; preds = %do.body80
  br label %do.body88

do.body88:                                        ; preds = %if.then87
  call void @_ZN4node6AssertERKNS_13AssertionInfoE(ptr noundef nonnull align 8 dereferenceable(24) @_ZZN4node6crypto12_GLOBAL__N_115WritePrivateKeyEPNS_11EnvironmentEP11evp_pkey_stRKNS0_24PrivateKeyEncodingConfigEE4args_4)
  call void @abort() #14
  unreachable

do.cond89:                                        ; No predecessors!
  br label %do.end90

do.end90:                                         ; preds = %do.cond89
  br label %if.end91

if.end91:                                         ; preds = %do.end90, %do.body80
  br label %do.cond92

do.cond92:                                        ; preds = %if.end91
  br label %do.end93

do.end93:                                         ; preds = %do.cond92
  %call94 = call noundef ptr @_ZNKSt10unique_ptrI6bio_stN4node15FunctionDeleterIS0_XadL_Z12BIO_free_allEEEEE3getEv(ptr noundef nonnull align 8 dereferenceable(8) %bio) #3
  %call95 = call noundef ptr @_ZNKSt10unique_ptrI6rsa_stN4node15FunctionDeleterIS0_XadL_Z8RSA_freeEEEEE3getEv(ptr noundef nonnull align 8 dereferenceable(8) %rsa) #3
  %call96 = call i32 @i2d_RSAPrivateKey_bio(ptr noundef %call94, ptr noundef %call95)
  %cmp97 = icmp ne i32 %call96, 1
  %frombool98 = zext i1 %cmp97 to i8
  store i8 %frombool98, ptr %err, align 1
  br label %if.end99

if.end99:                                         ; preds = %do.end93, %if.then61
  call void @_ZNSt10unique_ptrI6rsa_stN4node15FunctionDeleterIS0_XadL_Z8RSA_freeEEEEED2Ev(ptr noundef nonnull align 8 dereferenceable(8) %rsa) #3
  br label %if.end209

if.else100:                                       ; preds = %_ZNKR2v85MaybeIN4node6crypto14PKEncodingTypeEE8FromJustEv.exit
  %22 = load i32, ptr %encoding_type, align 4
  %cmp101 = icmp eq i32 %22, 1
  br i1 %cmp101, label %if.then102, label %if.else134

if.then102:                                       ; preds = %if.else100
  %23 = load ptr, ptr %config.addr, align 8
  %format_103 = getelementptr inbounds %"struct.node::crypto::AsymmetricKeyEncodingConfig", ptr %23, i32 0, i32 1
  %24 = load i32, ptr %format_103, align 4
  %cmp104 = icmp eq i32 %24, 1
  br i1 %cmp104, label %if.then105, label %if.else112

if.then105:                                       ; preds = %if.then102
  %call106 = call noundef ptr @_ZNKSt10unique_ptrI6bio_stN4node15FunctionDeleterIS0_XadL_Z12BIO_free_allEEEEE3getEv(ptr noundef nonnull align 8 dereferenceable(8) %bio) #3
  %25 = load ptr, ptr %pkey.addr, align 8
  %26 = load ptr, ptr %config.addr, align 8
  %cipher_107 = getelementptr inbounds %"struct.node::crypto::PrivateKeyEncodingConfig", ptr %26, i32 0, i32 1
  %27 = load ptr, ptr %cipher_107, align 8
  %28 = load ptr, ptr %pass, align 8
  %29 = load i64, ptr %pass_len, align 8
  %conv108 = trunc i64 %29 to i32
  %call109 = call i32 @PEM_write_bio_PKCS8PrivateKey(ptr noundef %call106, ptr noundef %25, ptr noundef %27, ptr noundef %28, i32 noundef %conv108, ptr noundef null, ptr noundef null)
  %cmp110 = icmp ne i32 %call109, 1
  %frombool111 = zext i1 %cmp110 to i8
  store i8 %frombool111, ptr %err, align 1
  br label %if.end133

if.else112:                                       ; preds = %if.then102
  br label %do.body113

do.body113:                                       ; preds = %if.else112
  %30 = load ptr, ptr %config.addr, align 8
  %format_114 = getelementptr inbounds %"struct.node::crypto::AsymmetricKeyEncodingConfig", ptr %30, i32 0, i32 1
  %31 = load i32, ptr %format_114, align 4
  %cmp115 = icmp eq i32 %31, 0
  %lnot116 = xor i1 %cmp115, true
  %lnot117 = xor i1 %lnot116, true
  %lnot118 = xor i1 %lnot117, true
  br i1 %lnot118, label %if.then120, label %if.end124

if.then120:                                       ; preds = %do.body113
  br label %do.body121

do.body121:                                       ; preds = %if.then120
  call void @_ZN4node6AssertERKNS_13AssertionInfoE(ptr noundef nonnull align 8 dereferenceable(24) @_ZZN4node6crypto12_GLOBAL__N_115WritePrivateKeyEPNS_11EnvironmentEP11evp_pkey_stRKNS0_24PrivateKeyEncodingConfigEE4args_5)
  call void @abort() #14
  unreachable

do.cond122:                                       ; No predecessors!
  br label %do.end123

do.end123:                                        ; preds = %do.cond122
  br label %if.end124

if.end124:                                        ; preds = %do.end123, %do.body113
  br label %do.cond125

do.cond125:                                       ; preds = %if.end124
  br label %do.end126

do.end126:                                        ; preds = %do.cond125
  %call127 = call noundef ptr @_ZNKSt10unique_ptrI6bio_stN4node15FunctionDeleterIS0_XadL_Z12BIO_free_allEEEEE3getEv(ptr noundef nonnull align 8 dereferenceable(8) %bio) #3
  %32 = load ptr, ptr %pkey.addr, align 8
  %33 = load ptr, ptr %config.addr, align 8
  %cipher_128 = getelementptr inbounds %"struct.node::crypto::PrivateKeyEncodingConfig", ptr %33, i32 0, i32 1
  %34 = load ptr, ptr %cipher_128, align 8
  %35 = load ptr, ptr %pass, align 8
  %36 = load i64, ptr %pass_len, align 8
  %conv129 = trunc i64 %36 to i32
  %call130 = call i32 @i2d_PKCS8PrivateKey_bio(ptr noundef %call127, ptr noundef %32, ptr noundef %34, ptr noundef %35, i32 noundef %conv129, ptr noundef null, ptr noundef null)
  %cmp131 = icmp ne i32 %call130, 1
  %frombool132 = zext i1 %cmp131 to i8
  store i8 %frombool132, ptr %err, align 1
  br label %if.end133

if.end133:                                        ; preds = %do.end126, %if.then105
  br label %if.end208

if.else134:                                       ; preds = %if.else100
  br label %do.body135

do.body135:                                       ; preds = %if.else134
  %37 = load i32, ptr %encoding_type, align 4
  %cmp136 = icmp eq i32 %37, 3
  %lnot137 = xor i1 %cmp136, true
  %lnot138 = xor i1 %lnot137, true
  %lnot139 = xor i1 %lnot138, true
  br i1 %lnot139, label %if.then141, label %if.end145

if.then141:                                       ; preds = %do.body135
  br label %do.body142

do.body142:                                       ; preds = %if.then141
  call void @_ZN4node6AssertERKNS_13AssertionInfoE(ptr noundef nonnull align 8 dereferenceable(24) @_ZZN4node6crypto12_GLOBAL__N_115WritePrivateKeyEPNS_11EnvironmentEP11evp_pkey_stRKNS0_24PrivateKeyEncodingConfigEE4args_6)
  call void @abort() #14
  unreachable

do.cond143:                                       ; No predecessors!
  br label %do.end144

do.end144:                                        ; preds = %do.cond143
  br label %if.end145

if.end145:                                        ; preds = %do.end144, %do.body135
  br label %do.cond146

do.cond146:                                       ; preds = %if.end145
  br label %do.end147

do.end147:                                        ; preds = %do.cond146
  br label %do.body148

do.body148:                                       ; preds = %do.end147
  %38 = load ptr, ptr %pkey.addr, align 8
  %call149 = call i32 @EVP_PKEY_get_id(ptr noundef %38)
  %cmp150 = icmp eq i32 %call149, 408
  %lnot151 = xor i1 %cmp150, true
  %lnot152 = xor i1 %lnot151, true
  %lnot153 = xor i1 %lnot152, true
  br i1 %lnot153, label %if.then155, label %if.end159

if.then155:                                       ; preds = %do.body148
  br label %do.body156

do.body156:                                       ; preds = %if.then155
  call void @_ZN4node6AssertERKNS_13AssertionInfoE(ptr noundef nonnull align 8 dereferenceable(24) @_ZZN4node6crypto12_GLOBAL__N_115WritePrivateKeyEPNS_11EnvironmentEP11evp_pkey_stRKNS0_24PrivateKeyEncodingConfigEE4args_7)
  call void @abort() #14
  unreachable

do.cond157:                                       ; No predecessors!
  br label %do.end158

do.end158:                                        ; preds = %do.cond157
  br label %if.end159

if.end159:                                        ; preds = %do.end158, %do.body148
  br label %do.cond160

do.cond160:                                       ; preds = %if.end159
  br label %do.end161

do.end161:                                        ; preds = %do.cond160
  %39 = load ptr, ptr %pkey.addr, align 8
  %call162 = call ptr @EVP_PKEY_get1_EC_KEY(ptr noundef %39)
  call void @_ZNSt10unique_ptrI9ec_key_stN4node15FunctionDeleterIS0_XadL_Z11EC_KEY_freeEEEEEC2IS3_vEEPS0_(ptr noundef nonnull align 8 dereferenceable(8) %ec_key, ptr noundef %call162) #3
  %40 = load ptr, ptr %config.addr, align 8
  %format_163 = getelementptr inbounds %"struct.node::crypto::AsymmetricKeyEncodingConfig", ptr %40, i32 0, i32 1
  %41 = load i32, ptr %format_163, align 4
  %cmp164 = icmp eq i32 %41, 1
  br i1 %cmp164, label %if.then165, label %if.else173

if.then165:                                       ; preds = %do.end161
  %call166 = call noundef ptr @_ZNKSt10unique_ptrI6bio_stN4node15FunctionDeleterIS0_XadL_Z12BIO_free_allEEEEE3getEv(ptr noundef nonnull align 8 dereferenceable(8) %bio) #3
  %call167 = call noundef ptr @_ZNKSt10unique_ptrI9ec_key_stN4node15FunctionDeleterIS0_XadL_Z11EC_KEY_freeEEEEE3getEv(ptr noundef nonnull align 8 dereferenceable(8) %ec_key) #3
  %42 = load ptr, ptr %config.addr, align 8
  %cipher_168 = getelementptr inbounds %"struct.node::crypto::PrivateKeyEncodingConfig", ptr %42, i32 0, i32 1
  %43 = load ptr, ptr %cipher_168, align 8
  %44 = load ptr, ptr %pass, align 8
  %45 = load i64, ptr %pass_len, align 8
  %conv169 = trunc i64 %45 to i32
  %call170 = call i32 @PEM_write_bio_ECPrivateKey(ptr noundef %call166, ptr noundef %call167, ptr noundef %43, ptr noundef %44, i32 noundef %conv169, ptr noundef null, ptr noundef null)
  %cmp171 = icmp ne i32 %call170, 1
  %frombool172 = zext i1 %cmp171 to i8
  store i8 %frombool172, ptr %err, align 1
  br label %if.end207

if.else173:                                       ; preds = %do.end161
  br label %do.body174

do.body174:                                       ; preds = %if.else173
  %46 = load ptr, ptr %config.addr, align 8
  %format_175 = getelementptr inbounds %"struct.node::crypto::AsymmetricKeyEncodingConfig", ptr %46, i32 0, i32 1
  %47 = load i32, ptr %format_175, align 4
  %cmp176 = icmp eq i32 %47, 0
  %lnot177 = xor i1 %cmp176, true
  %lnot178 = xor i1 %lnot177, true
  %lnot179 = xor i1 %lnot178, true
  br i1 %lnot179, label %if.then181, label %if.end185

if.then181:                                       ; preds = %do.body174
  br label %do.body182

do.body182:                                       ; preds = %if.then181
  call void @_ZN4node6AssertERKNS_13AssertionInfoE(ptr noundef nonnull align 8 dereferenceable(24) @_ZZN4node6crypto12_GLOBAL__N_115WritePrivateKeyEPNS_11EnvironmentEP11evp_pkey_stRKNS0_24PrivateKeyEncodingConfigEE4args_8)
  call void @abort() #14
  unreachable

do.cond183:                                       ; No predecessors!
  br label %do.end184

do.end184:                                        ; preds = %do.cond183
  br label %if.end185

if.end185:                                        ; preds = %do.end184, %do.body174
  br label %do.cond186

do.cond186:                                       ; preds = %if.end185
  br label %do.end187

do.end187:                                        ; preds = %do.cond186
  br label %do.body188

do.body188:                                       ; preds = %do.end187
  %48 = load ptr, ptr %config.addr, align 8
  %cipher_189 = getelementptr inbounds %"struct.node::crypto::PrivateKeyEncodingConfig", ptr %48, i32 0, i32 1
  %49 = load ptr, ptr %cipher_189, align 8
  %cmp190 = icmp eq ptr %49, null
  %lnot191 = xor i1 %cmp190, true
  %lnot192 = xor i1 %lnot191, true
  %lnot193 = xor i1 %lnot192, true
  br i1 %lnot193, label %if.then195, label %if.end199

if.then195:                                       ; preds = %do.body188
  br label %do.body196

do.body196:                                       ; preds = %if.then195
  call void @_ZN4node6AssertERKNS_13AssertionInfoE(ptr noundef nonnull align 8 dereferenceable(24) @_ZZN4node6crypto12_GLOBAL__N_115WritePrivateKeyEPNS_11EnvironmentEP11evp_pkey_stRKNS0_24PrivateKeyEncodingConfigEE4args_9)
  call void @abort() #14
  unreachable

do.cond197:                                       ; No predecessors!
  br label %do.end198

do.end198:                                        ; preds = %do.cond197
  br label %if.end199

if.end199:                                        ; preds = %do.end198, %do.body188
  br label %do.cond200

do.cond200:                                       ; preds = %if.end199
  br label %do.end201

do.end201:                                        ; preds = %do.cond200
  %call202 = call noundef ptr @_ZNKSt10unique_ptrI6bio_stN4node15FunctionDeleterIS0_XadL_Z12BIO_free_allEEEEE3getEv(ptr noundef nonnull align 8 dereferenceable(8) %bio) #3
  %call203 = call noundef ptr @_ZNKSt10unique_ptrI9ec_key_stN4node15FunctionDeleterIS0_XadL_Z11EC_KEY_freeEEEEE3getEv(ptr noundef nonnull align 8 dereferenceable(8) %ec_key) #3
  %call204 = call i32 @i2d_ECPrivateKey_bio(ptr noundef %call202, ptr noundef %call203)
  %cmp205 = icmp ne i32 %call204, 1
  %frombool206 = zext i1 %cmp205 to i8
  store i8 %frombool206, ptr %err, align 1
  br label %if.end207

if.end207:                                        ; preds = %do.end201, %if.then165
  call void @_ZNSt10unique_ptrI9ec_key_stN4node15FunctionDeleterIS0_XadL_Z11EC_KEY_freeEEEEED2Ev(ptr noundef nonnull align 8 dereferenceable(8) %ec_key) #3
  br label %if.end208

if.end208:                                        ; preds = %if.end207, %if.end133
  br label %if.end209

if.end209:                                        ; preds = %if.end208, %if.end99
  %50 = load i8, ptr %err, align 1
  %tobool = trunc i8 %50 to i1
  br i1 %tobool, label %if.then210, label %if.end212

if.then210:                                       ; preds = %if.end209
  %51 = load ptr, ptr %env.addr, align 8
  %call211 = call i64 @ERR_get_error()
  call void @_ZN4node6crypto16ThrowCryptoErrorEPNS_11EnvironmentEmPKc(ptr noundef %51, i64 noundef %call211, ptr noundef @.str.197)
  store ptr %retval, ptr %this.addr.i224, align 8
  %this1.i225 = load ptr, ptr %this.addr.i224, align 8
  call void @llvm.memset.p0.i64(ptr align 8 %this1.i225, i8 0, i64 8, i1 false)
  store ptr %this1.i225, ptr %this.addr.i.i, align 8
  %this1.i.i = load ptr, ptr %this.addr.i.i, align 8
  store ptr %this1.i.i, ptr %this.addr.i227, align 8
  %this1.i228 = load ptr, ptr %this.addr.i227, align 8
  store ptr %this1.i228, ptr %this.addr.i.i226, align 8
  %this1.i.i229 = load ptr, ptr %this.addr.i.i226, align 8
  store ptr null, ptr %this1.i.i229, align 8
  store i32 1, ptr %cleanup.dest.slot, align 4
  br label %cleanup

if.end212:                                        ; preds = %if.end209
  %52 = load ptr, ptr %env.addr, align 8
  %call213 = call noundef ptr @_ZNKSt10unique_ptrI6bio_stN4node15FunctionDeleterIS0_XadL_Z12BIO_free_allEEEEE3getEv(ptr noundef nonnull align 8 dereferenceable(8) %bio) #3
  %53 = load ptr, ptr %config.addr, align 8
  %format_214 = getelementptr inbounds %"struct.node::crypto::AsymmetricKeyEncodingConfig", ptr %53, i32 0, i32 1
  %54 = load i32, ptr %format_214, align 4
  %call215 = call ptr @_ZN4node6crypto12_GLOBAL__N_119BIOToStringOrBufferEPNS_11EnvironmentEP6bio_stNS0_12PKFormatTypeE(ptr noundef %52, ptr noundef %call213, i32 noundef %54)
  %coerce.dive = getelementptr inbounds %"class.v8::MaybeLocal.291", ptr %retval, i32 0, i32 0
  %coerce.dive216 = getelementptr inbounds %"class.v8::Local", ptr %coerce.dive, i32 0, i32 0
  %coerce.dive217 = getelementptr inbounds %"class.v8::LocalBase", ptr %coerce.dive216, i32 0, i32 0
  %coerce.dive218 = getelementptr inbounds %"class.v8::IndirectHandleBase", ptr %coerce.dive217, i32 0, i32 0
  store ptr %call215, ptr %coerce.dive218, align 8
  store i32 1, ptr %cleanup.dest.slot, align 4
  br label %cleanup

cleanup:                                          ; preds = %if.end212, %if.then210
  call void @_ZN4node6crypto20MarkPopErrorOnReturnD2Ev(ptr noundef nonnull align 1 dereferenceable(1) %mark_pop_error_on_return) #3
  call void @_ZNSt10unique_ptrI6bio_stN4node15FunctionDeleterIS0_XadL_Z12BIO_free_allEEEEED2Ev(ptr noundef nonnull align 8 dereferenceable(8) %bio) #3
  %coerce.dive220 = getelementptr inbounds %"class.v8::MaybeLocal.291", ptr %retval, i32 0, i32 0
  %coerce.dive221 = getelementptr inbounds %"class.v8::Local", ptr %coerce.dive220, i32 0, i32 0
  %coerce.dive222 = getelementptr inbounds %"class.v8::LocalBase", ptr %coerce.dive221, i32 0, i32 0
  %coerce.dive223 = getelementptr inbounds %"class.v8::IndirectHandleBase", ptr %coerce.dive222, i32 0, i32 0
  %55 = load ptr, ptr %coerce.dive223, align 8
  ret ptr %55
}

; Function Attrs: mustprogress nounwind uwtable
define dso_local void @_ZN4node6crypto14ManagedEVPPKey27GetPrivateKeyEncodingFromJsERKN2v820FunctionCallbackInfoINS2_5ValueEEEPjNS0_18KeyEncodingContextE(ptr noalias sret(%"class.node::NonCopyableMaybe.292") align 8 %agg.result, ptr noundef nonnull align 8 dereferenceable(20) %args, ptr noundef %offset, i32 noundef %context) #4 align 2 {
entry:
  %this.addr.i604 = alloca ptr, align 8
  %other.addr.i605 = alloca ptr, align 8
  %this.addr.i601 = alloca ptr, align 8
  %other.addr.i602 = alloca ptr, align 8
  %this.addr.i598 = alloca ptr, align 8
  %other.addr.i599 = alloca ptr, align 8
  %this.addr.i595 = alloca ptr, align 8
  %other.addr.i596 = alloca ptr, align 8
  %this.addr.i592 = alloca ptr, align 8
  %other.addr.i593 = alloca ptr, align 8
  %this.addr.i589 = alloca ptr, align 8
  %other.addr.i590 = alloca ptr, align 8
  %slot.addr.i588 = alloca ptr, align 8
  %slot.addr.i587 = alloca ptr, align 8
  %slot.addr.i586 = alloca ptr, align 8
  %this.addr.i.i581 = alloca ptr, align 8
  %this.addr.i582 = alloca ptr, align 8
  %this.addr.i.i576 = alloca ptr, align 8
  %this.addr.i577 = alloca ptr, align 8
  %this.addr.i.i572 = alloca ptr, align 8
  %this.addr.i573 = alloca ptr, align 8
  %this.addr.i.i566 = alloca ptr, align 8
  %location.addr.i.i567 = alloca ptr, align 8
  %this.addr.i568 = alloca ptr, align 8
  %location.addr.i569 = alloca ptr, align 8
  %this.addr.i.i560 = alloca ptr, align 8
  %location.addr.i.i561 = alloca ptr, align 8
  %this.addr.i562 = alloca ptr, align 8
  %location.addr.i563 = alloca ptr, align 8
  %this.addr.i.i554 = alloca ptr, align 8
  %location.addr.i.i555 = alloca ptr, align 8
  %this.addr.i556 = alloca ptr, align 8
  %location.addr.i557 = alloca ptr, align 8
  %this.addr.i.i548 = alloca ptr, align 8
  %location.addr.i.i549 = alloca ptr, align 8
  %this.addr.i550 = alloca ptr, align 8
  %location.addr.i551 = alloca ptr, align 8
  %this.addr.i.i542 = alloca ptr, align 8
  %location.addr.i.i543 = alloca ptr, align 8
  %this.addr.i544 = alloca ptr, align 8
  %location.addr.i545 = alloca ptr, align 8
  %this.addr.i.i536 = alloca ptr, align 8
  %location.addr.i.i537 = alloca ptr, align 8
  %this.addr.i538 = alloca ptr, align 8
  %location.addr.i539 = alloca ptr, align 8
  %retval.i534 = alloca %"class.v8::LocalBase", align 8
  %slot.addr.i535 = alloca ptr, align 8
  %retval.i532 = alloca %"class.v8::LocalBase", align 8
  %slot.addr.i533 = alloca ptr, align 8
  %retval.i530 = alloca %"class.v8::LocalBase", align 8
  %slot.addr.i531 = alloca ptr, align 8
  %retval.i528 = alloca %"class.v8::LocalBase", align 8
  %slot.addr.i529 = alloca ptr, align 8
  %retval.i526 = alloca %"class.v8::LocalBase", align 8
  %slot.addr.i527 = alloca ptr, align 8
  %retval.i524 = alloca %"class.v8::LocalBase", align 8
  %slot.addr.i525 = alloca ptr, align 8
  %this.addr.i.i517 = alloca ptr, align 8
  %other.addr.i.i518 = alloca ptr, align 8
  %retval.i519 = alloca %"class.v8::Local", align 8
  %slot.addr.i520 = alloca ptr, align 8
  %ref.tmp.i521 = alloca %"class.v8::LocalBase", align 8
  %this.addr.i.i510 = alloca ptr, align 8
  %other.addr.i.i511 = alloca ptr, align 8
  %retval.i512 = alloca %"class.v8::Local", align 8
  %slot.addr.i513 = alloca ptr, align 8
  %ref.tmp.i514 = alloca %"class.v8::LocalBase", align 8
  %this.addr.i.i503 = alloca ptr, align 8
  %other.addr.i.i504 = alloca ptr, align 8
  %retval.i505 = alloca %"class.v8::Local", align 8
  %slot.addr.i506 = alloca ptr, align 8
  %ref.tmp.i507 = alloca %"class.v8::LocalBase", align 8
  %this.addr.i.i496 = alloca ptr, align 8
  %other.addr.i.i497 = alloca ptr, align 8
  %retval.i498 = alloca %"class.v8::Local", align 8
  %slot.addr.i499 = alloca ptr, align 8
  %ref.tmp.i500 = alloca %"class.v8::LocalBase", align 8
  %this.addr.i.i489 = alloca ptr, align 8
  %other.addr.i.i490 = alloca ptr, align 8
  %retval.i491 = alloca %"class.v8::Local", align 8
  %slot.addr.i492 = alloca ptr, align 8
  %ref.tmp.i493 = alloca %"class.v8::LocalBase", align 8
  %this.addr.i.i484 = alloca ptr, align 8
  %other.addr.i.i = alloca ptr, align 8
  %retval.i485 = alloca %"class.v8::Local", align 8
  %slot.addr.i486 = alloca ptr, align 8
  %ref.tmp.i487 = alloca %"class.v8::LocalBase", align 8
  %this.addr.i.i478 = alloca ptr, align 8
  %location.addr.i.i479 = alloca ptr, align 8
  %this.addr.i480 = alloca ptr, align 8
  %location.addr.i481 = alloca ptr, align 8
  %this.addr.i.i472 = alloca ptr, align 8
  %location.addr.i.i473 = alloca ptr, align 8
  %this.addr.i474 = alloca ptr, align 8
  %location.addr.i475 = alloca ptr, align 8
  %this.addr.i.i466 = alloca ptr, align 8
  %location.addr.i.i467 = alloca ptr, align 8
  %this.addr.i468 = alloca ptr, align 8
  %location.addr.i469 = alloca ptr, align 8
  %this.addr.i.i460 = alloca ptr, align 8
  %location.addr.i.i461 = alloca ptr, align 8
  %this.addr.i462 = alloca ptr, align 8
  %location.addr.i463 = alloca ptr, align 8
  %this.addr.i.i454 = alloca ptr, align 8
  %location.addr.i.i455 = alloca ptr, align 8
  %this.addr.i456 = alloca ptr, align 8
  %location.addr.i457 = alloca ptr, align 8
  %this.addr.i.i = alloca ptr, align 8
  %location.addr.i.i = alloca ptr, align 8
  %this.addr.i452 = alloca ptr, align 8
  %location.addr.i = alloca ptr, align 8
  %this.addr.i449 = alloca ptr, align 8
  %other.addr.i450 = alloca ptr, align 8
  %this.addr.i446 = alloca ptr, align 8
  %other.addr.i447 = alloca ptr, align 8
  %this.addr.i443 = alloca ptr, align 8
  %other.addr.i444 = alloca ptr, align 8
  %this.addr.i440 = alloca ptr, align 8
  %other.addr.i441 = alloca ptr, align 8
  %this.addr.i437 = alloca ptr, align 8
  %other.addr.i438 = alloca ptr, align 8
  %this.addr.i435 = alloca ptr, align 8
  %other.addr.i = alloca ptr, align 8
  %retval.i433 = alloca %"class.v8::LocalBase.335", align 8
  %slot.addr.i434 = alloca ptr, align 8
  %retval.i431 = alloca %"class.v8::LocalBase.335", align 8
  %slot.addr.i432 = alloca ptr, align 8
  %retval.i429 = alloca %"class.v8::LocalBase.335", align 8
  %slot.addr.i430 = alloca ptr, align 8
  %retval.i427 = alloca %"class.v8::LocalBase.335", align 8
  %slot.addr.i428 = alloca ptr, align 8
  %retval.i425 = alloca %"class.v8::LocalBase.335", align 8
  %slot.addr.i426 = alloca ptr, align 8
  %retval.i423 = alloca %"class.v8::LocalBase.335", align 8
  %slot.addr.i424 = alloca ptr, align 8
  %retval.i419 = alloca %"class.v8::Local.334", align 8
  %slot.addr.i420 = alloca ptr, align 8
  %ref.tmp.i421 = alloca %"class.v8::LocalBase.335", align 8
  %retval.i415 = alloca %"class.v8::Local.334", align 8
  %slot.addr.i416 = alloca ptr, align 8
  %ref.tmp.i417 = alloca %"class.v8::LocalBase.335", align 8
  %retval.i411 = alloca %"class.v8::Local.334", align 8
  %slot.addr.i412 = alloca ptr, align 8
  %ref.tmp.i413 = alloca %"class.v8::LocalBase.335", align 8
  %retval.i407 = alloca %"class.v8::Local.334", align 8
  %slot.addr.i408 = alloca ptr, align 8
  %ref.tmp.i409 = alloca %"class.v8::LocalBase.335", align 8
  %retval.i403 = alloca %"class.v8::Local.334", align 8
  %slot.addr.i404 = alloca ptr, align 8
  %ref.tmp.i405 = alloca %"class.v8::LocalBase.335", align 8
  %retval.i402 = alloca %"class.v8::Local.334", align 8
  %slot.addr.i = alloca ptr, align 8
  %ref.tmp.i = alloca %"class.v8::LocalBase.335", align 8
  %isolate.addr.i395 = alloca ptr, align 8
  %index.addr.i396 = alloca i32, align 4
  %addr.i397 = alloca i64, align 8
  %isolate.addr.i388 = alloca ptr, align 8
  %index.addr.i389 = alloca i32, align 4
  %addr.i390 = alloca i64, align 8
  %isolate.addr.i381 = alloca ptr, align 8
  %index.addr.i382 = alloca i32, align 4
  %addr.i383 = alloca i64, align 8
  %isolate.addr.i374 = alloca ptr, align 8
  %index.addr.i375 = alloca i32, align 4
  %addr.i376 = alloca i64, align 8
  %isolate.addr.i367 = alloca ptr, align 8
  %index.addr.i368 = alloca i32, align 4
  %addr.i369 = alloca i64, align 8
  %isolate.addr.i366 = alloca ptr, align 8
  %index.addr.i = alloca i32, align 4
  %addr.i = alloca i64, align 8
  %isolate.addr.i365 = alloca ptr, align 8
  %isolate.addr.i364 = alloca ptr, align 8
  %isolate.addr.i363 = alloca ptr, align 8
  %isolate.addr.i362 = alloca ptr, align 8
  %isolate.addr.i361 = alloca ptr, align 8
  %isolate.addr.i360 = alloca ptr, align 8
  %value.addr.i23.i309 = alloca i64, align 8
  %shift_bits.i.i310 = alloca i32, align 4
  %heap_object_ptr.addr.i.i15.i311 = alloca i64, align 8
  %offset.addr.i.i16.i312 = alloca i32, align 4
  %addr.i.i17.i313 = alloca i64, align 8
  %heap_object_ptr.addr.i18.i314 = alloca i64, align 8
  %offset.addr.i19.i315 = alloca i32, align 4
  %value.addr.i13.i316 = alloca i64, align 8
  %heap_object_ptr.addr.i.i317 = alloca i64, align 8
  %offset.addr.i.i318 = alloca i32, align 4
  %addr.i.i319 = alloca i64, align 8
  %obj.addr.i10.i320 = alloca i64, align 8
  %heap_object_ptr.addr.i2.i.i321 = alloca i64, align 8
  %offset.addr.i3.i.i322 = alloca i32, align 4
  %addr.i.i.i323 = alloca i64, align 8
  %heap_object_ptr.addr.i.i.i324 = alloca i64, align 8
  %offset.addr.i.i.i325 = alloca i32, align 4
  %obj.addr.i.i326 = alloca i64, align 8
  %map.i.i327 = alloca i64, align 8
  %value.addr.i9.i328 = alloca i64, align 8
  %value.addr.i.i329 = alloca ptr, align 8
  %retval.i330 = alloca i1, align 1
  %this.addr.i331 = alloca ptr, align 8
  %obj.i332 = alloca i64, align 8
  %kind.i333 = alloca i32, align 4
  %value.addr.i23.i = alloca i64, align 8
  %shift_bits.i.i = alloca i32, align 4
  %heap_object_ptr.addr.i.i15.i = alloca i64, align 8
  %offset.addr.i.i16.i = alloca i32, align 4
  %addr.i.i17.i = alloca i64, align 8
  %heap_object_ptr.addr.i18.i = alloca i64, align 8
  %offset.addr.i19.i = alloca i32, align 4
  %value.addr.i13.i = alloca i64, align 8
  %heap_object_ptr.addr.i.i283 = alloca i64, align 8
  %offset.addr.i.i284 = alloca i32, align 4
  %addr.i.i285 = alloca i64, align 8
  %obj.addr.i10.i = alloca i64, align 8
  %heap_object_ptr.addr.i2.i.i286 = alloca i64, align 8
  %offset.addr.i3.i.i287 = alloca i32, align 4
  %addr.i.i.i288 = alloca i64, align 8
  %heap_object_ptr.addr.i.i.i289 = alloca i64, align 8
  %offset.addr.i.i.i290 = alloca i32, align 4
  %obj.addr.i.i291 = alloca i64, align 8
  %map.i.i292 = alloca i64, align 8
  %value.addr.i9.i = alloca i64, align 8
  %value.addr.i.i293 = alloca ptr, align 8
  %retval.i294 = alloca i1, align 1
  %this.addr.i295 = alloca ptr, align 8
  %obj.i296 = alloca i64, align 8
  %kind.i = alloca i32, align 4
  %heap_object_ptr.addr.i.i = alloca i64, align 8
  %offset.addr.i.i = alloca i32, align 4
  %addr.i.i = alloca i64, align 8
  %heap_object_ptr.addr.i2.i.i = alloca i64, align 8
  %offset.addr.i3.i.i = alloca i32, align 4
  %addr.i.i.i = alloca i64, align 8
  %heap_object_ptr.addr.i.i.i = alloca i64, align 8
  %offset.addr.i.i.i = alloca i32, align 4
  %obj.addr.i.i = alloca i64, align 8
  %map.i.i = alloca i64, align 8
  %value.addr.i4.i = alloca i64, align 8
  %value.addr.i.i = alloca ptr, align 8
  %retval.i277 = alloca i1, align 1
  %this.addr.i278 = alloca ptr, align 8
  %obj.i = alloca i64, align 8
  %this.addr.i274 = alloca ptr, align 8
  %this.addr.i271 = alloca ptr, align 8
  %this.addr.i268 = alloca ptr, align 8
  %this.addr.i265 = alloca ptr, align 8
  %this.addr.i262 = alloca ptr, align 8
  %this.addr.i260 = alloca ptr, align 8
  %that.i257 = alloca %"class.v8::Local.334", align 8
  %this.addr.i258 = alloca ptr, align 8
  %that.i254 = alloca %"class.v8::Local.334", align 8
  %this.addr.i255 = alloca ptr, align 8
  %that.i251 = alloca %"class.v8::Local.334", align 8
  %this.addr.i252 = alloca ptr, align 8
  %that.i248 = alloca %"class.v8::Local.334", align 8
  %this.addr.i249 = alloca ptr, align 8
  %that.i245 = alloca %"class.v8::Local.334", align 8
  %this.addr.i246 = alloca ptr, align 8
  %that.i = alloca %"class.v8::Local.334", align 8
  %this.addr.i244 = alloca ptr, align 8
  %retval.i239 = alloca %"class.v8::Local.334", align 8
  %isolate.addr.i240 = alloca ptr, align 8
  %slot.i241 = alloca ptr, align 8
  %retval.i234 = alloca %"class.v8::Local.334", align 8
  %isolate.addr.i235 = alloca ptr, align 8
  %slot.i236 = alloca ptr, align 8
  %retval.i229 = alloca %"class.v8::Local.334", align 8
  %isolate.addr.i230 = alloca ptr, align 8
  %slot.i231 = alloca ptr, align 8
  %retval.i224 = alloca %"class.v8::Local.334", align 8
  %isolate.addr.i225 = alloca ptr, align 8
  %slot.i226 = alloca ptr, align 8
  %retval.i219 = alloca %"class.v8::Local.334", align 8
  %isolate.addr.i220 = alloca ptr, align 8
  %slot.i221 = alloca ptr, align 8
  %retval.i217 = alloca %"class.v8::Local.334", align 8
  %isolate.addr.i = alloca ptr, align 8
  %slot.i = alloca ptr, align 8
  %this.addr.i214 = alloca ptr, align 8
  %this.addr.i211 = alloca ptr, align 8
  %this.addr.i208 = alloca ptr, align 8
  %this.addr.i205 = alloca ptr, align 8
  %this.addr.i202 = alloca ptr, align 8
  %this.addr.i199 = alloca ptr, align 8
  %retval.i181 = alloca %"class.v8::Local", align 8
  %this.addr.i182 = alloca ptr, align 8
  %i.addr.i183 = alloca i32, align 4
  %agg.tmp.i184 = alloca %"class.v8::Local.334", align 8
  %retval.i163 = alloca %"class.v8::Local", align 8
  %this.addr.i164 = alloca ptr, align 8
  %i.addr.i165 = alloca i32, align 4
  %agg.tmp.i166 = alloca %"class.v8::Local.334", align 8
  %retval.i145 = alloca %"class.v8::Local", align 8
  %this.addr.i146 = alloca ptr, align 8
  %i.addr.i147 = alloca i32, align 4
  %agg.tmp.i148 = alloca %"class.v8::Local.334", align 8
  %retval.i127 = alloca %"class.v8::Local", align 8
  %this.addr.i128 = alloca ptr, align 8
  %i.addr.i129 = alloca i32, align 4
  %agg.tmp.i130 = alloca %"class.v8::Local.334", align 8
  %retval.i109 = alloca %"class.v8::Local", align 8
  %this.addr.i110 = alloca ptr, align 8
  %i.addr.i111 = alloca i32, align 4
  %agg.tmp.i112 = alloca %"class.v8::Local.334", align 8
  %retval.i = alloca %"class.v8::Local", align 8
  %this.addr.i = alloca ptr, align 8
  %i.addr.i = alloca i32, align 4
  %agg.tmp.i = alloca %"class.v8::Local.334", align 8
  %result.ptr = alloca ptr, align 8
  %args.addr = alloca ptr, align 8
  %offset.addr = alloca ptr, align 8
  %context.addr = alloca i32, align 4
  %env = alloca ptr, align 8
  %result = alloca %"struct.node::crypto::PrivateKeyEncodingConfig", align 8
  %needs_passphrase = alloca i8, align 1
  %ref.tmp = alloca %"class.v8::Local", align 8
  %cipher_name = alloca %"class.node::Utf8Value", align 8
  %agg.tmp = alloca %"class.v8::Local", align 8
  %cleanup.dest.slot = alloca i32, align 4
  %ref.tmp25 = alloca %"class.v8::Local", align 8
  %agg.tmp43 = alloca %"class.v8::Local", align 8
  %passphrase = alloca %"class.node::crypto::ArrayBufferOrViewContents", align 8
  %agg.tmp67 = alloca %"class.v8::Local", align 8
  %ref.tmp81 = alloca %"class.node::NonCopyableMaybe", align 8
  %ref.tmp82 = alloca %"class.node::crypto::ByteSource", align 8
  %ref.tmp86 = alloca %"class.v8::Local", align 8
  store ptr %agg.result, ptr %result.ptr, align 8
  store ptr %args, ptr %args.addr, align 8
  store ptr %offset, ptr %offset.addr, align 8
  store i32 %context, ptr %context.addr, align 4
  %0 = load ptr, ptr %args.addr, align 8
  %call = call noundef ptr @_ZN4node11Environment10GetCurrentERKN2v820FunctionCallbackInfoINS1_5ValueEEE(ptr noundef nonnull align 8 dereferenceable(20) %0)
  store ptr %call, ptr %env, align 8
  call void @_ZN4node6crypto24PrivateKeyEncodingConfigC2Ev(ptr noundef nonnull align 8 dereferenceable(56) %result)
  %1 = load ptr, ptr %args.addr, align 8
  %2 = load ptr, ptr %offset.addr, align 8
  %3 = load i32, ptr %context.addr, align 4
  call void @_ZN4node6crypto12_GLOBAL__N_125GetKeyFormatAndTypeFromJsEPNS0_27AsymmetricKeyEncodingConfigERKN2v820FunctionCallbackInfoINS4_5ValueEEEPjNS0_18KeyEncodingContextE(ptr noundef %result, ptr noundef nonnull align 8 dereferenceable(20) %1, ptr noundef %2, i32 noundef %3)
  %output_key_object_ = getelementptr inbounds %"struct.node::crypto::AsymmetricKeyEncodingConfig", ptr %result, i32 0, i32 0
  %4 = load i8, ptr %output_key_object_, align 8
  %tobool = trunc i8 %4 to i1
  br i1 %tobool, label %if.then, label %if.else

if.then:                                          ; preds = %entry
  %5 = load i32, ptr %context.addr, align 4
  %cmp = icmp ne i32 %5, 0
  br i1 %cmp, label %if.then1, label %if.end

if.then1:                                         ; preds = %if.then
  %6 = load ptr, ptr %offset.addr, align 8
  %7 = load i32, ptr %6, align 4
  %inc = add i32 %7, 1
  store i32 %inc, ptr %6, align 4
  br label %if.end

if.end:                                           ; preds = %if.then1, %if.then
  br label %if.end106

if.else:                                          ; preds = %entry
  store i8 0, ptr %needs_passphrase, align 1
  %8 = load i32, ptr %context.addr, align 4
  %cmp2 = icmp ne i32 %8, 0
  br i1 %cmp2, label %if.then3, label %if.end42

if.then3:                                         ; preds = %if.else
  %9 = load ptr, ptr %args.addr, align 8
  %10 = load ptr, ptr %offset.addr, align 8
  %11 = load i32, ptr %10, align 4
  store ptr %9, ptr %this.addr.i182, align 8
  store i32 %11, ptr %i.addr.i183, align 4
  %this1.i185 = load ptr, ptr %this.addr.i182, align 8
  %12 = load i32, ptr %i.addr.i183, align 4
  %cmp.i186 = icmp slt i32 %12, 0
  br i1 %cmp.i186, label %if.then.i195, label %lor.lhs.false.i187

lor.lhs.false.i187:                               ; preds = %if.then3
  %length_.i188 = getelementptr inbounds %"class.v8::FunctionCallbackInfo", ptr %this1.i185, i32 0, i32 2
  %13 = load i32, ptr %length_.i188, align 8
  %14 = load i32, ptr %i.addr.i183, align 4
  %cmp2.i189 = icmp sle i32 %13, %14
  br i1 %cmp2.i189, label %if.then.i195, label %if.end.i190

if.then.i195:                                     ; preds = %lor.lhs.false.i187, %if.then3
  store ptr %this1.i185, ptr %this.addr.i260, align 8
  %this1.i261 = load ptr, ptr %this.addr.i260, align 8
  %15 = load ptr, ptr %this1.i261, align 8
  %arrayidx.i = getelementptr inbounds i64, ptr %15, i64 1
  %16 = load ptr, ptr %arrayidx.i, align 8
  store ptr %16, ptr %isolate.addr.i, align 8
  %17 = load ptr, ptr %isolate.addr.i, align 8
  store ptr %17, ptr %isolate.addr.i365, align 8
  %18 = load ptr, ptr %isolate.addr.i, align 8
  store ptr %18, ptr %isolate.addr.i395, align 8
  store i32 4, ptr %index.addr.i396, align 4
  %19 = load ptr, ptr %isolate.addr.i395, align 8
  %20 = ptrtoint ptr %19 to i64
  %add.i398 = add i64 %20, 576
  %21 = load i32, ptr %index.addr.i396, align 4
  %mul.i399 = mul nsw i32 %21, 8
  %conv.i400 = sext i32 %mul.i399 to i64
  %add1.i401 = add i64 %add.i398, %conv.i400
  store i64 %add1.i401, ptr %addr.i397, align 8
  %22 = load i64, ptr %addr.i397, align 8
  %23 = inttoptr i64 %22 to ptr
  store ptr %23, ptr %slot.i, align 8
  %24 = load ptr, ptr %slot.i, align 8
  store ptr %24, ptr %slot.addr.i420, align 8
  %25 = load ptr, ptr %slot.addr.i420, align 8
  store ptr %25, ptr %slot.addr.i424, align 8
  %26 = load ptr, ptr %slot.addr.i424, align 8
  store ptr %retval.i423, ptr %this.addr.i480, align 8
  store ptr %26, ptr %location.addr.i481, align 8
  %this1.i482 = load ptr, ptr %this.addr.i480, align 8
  %27 = load ptr, ptr %location.addr.i481, align 8
  store ptr %this1.i482, ptr %this.addr.i.i478, align 8
  store ptr %27, ptr %location.addr.i.i479, align 8
  %this1.i.i483 = load ptr, ptr %this.addr.i.i478, align 8
  %28 = load ptr, ptr %location.addr.i.i479, align 8
  store ptr %28, ptr %this1.i.i483, align 8
  %29 = load ptr, ptr %retval.i423, align 8
  store ptr %29, ptr %ref.tmp.i421, align 8
  store ptr %retval.i419, ptr %this.addr.i435, align 8
  store ptr %ref.tmp.i421, ptr %other.addr.i, align 8
  %this1.i436 = load ptr, ptr %this.addr.i435, align 8
  %30 = load ptr, ptr %other.addr.i, align 8
  call void @llvm.memcpy.p0.p0.i64(ptr align 8 %this1.i436, ptr align 8 %30, i64 8, i1 false)
  %31 = load ptr, ptr %retval.i419, align 8
  store ptr %31, ptr %retval.i217, align 8
  %32 = load ptr, ptr %retval.i217, align 8
  store ptr %32, ptr %agg.tmp.i184, align 8
  %33 = load ptr, ptr %agg.tmp.i184, align 8
  store ptr %33, ptr %that.i, align 8
  store ptr %retval.i181, ptr %this.addr.i244, align 8
  %this3.i = load ptr, ptr %this.addr.i244, align 8
  store ptr %this3.i, ptr %this.addr.i604, align 8
  store ptr %that.i, ptr %other.addr.i605, align 8
  %this1.i606 = load ptr, ptr %this.addr.i604, align 8
  %34 = load ptr, ptr %other.addr.i605, align 8
  call void @llvm.memcpy.p0.p0.i64(ptr align 8 %this1.i606, ptr align 8 %34, i64 8, i1 false)
  br label %_ZNK2v820FunctionCallbackInfoINS_5ValueEEixEi.exit198

if.end.i190:                                      ; preds = %lor.lhs.false.i187
  %values_.i191 = getelementptr inbounds %"class.v8::FunctionCallbackInfo", ptr %this1.i185, i32 0, i32 1
  %35 = load ptr, ptr %values_.i191, align 8
  %36 = load i32, ptr %i.addr.i183, align 4
  %idx.ext.i192 = sext i32 %36 to i64
  %add.ptr.i193 = getelementptr inbounds i64, ptr %35, i64 %idx.ext.i192
  store ptr %add.ptr.i193, ptr %slot.addr.i486, align 8
  %37 = load ptr, ptr %slot.addr.i486, align 8
  store ptr %37, ptr %slot.addr.i535, align 8
  %38 = load ptr, ptr %slot.addr.i535, align 8
  store ptr %retval.i534, ptr %this.addr.i538, align 8
  store ptr %38, ptr %location.addr.i539, align 8
  %this1.i540 = load ptr, ptr %this.addr.i538, align 8
  %39 = load ptr, ptr %location.addr.i539, align 8
  store ptr %this1.i540, ptr %this.addr.i.i536, align 8
  store ptr %39, ptr %location.addr.i.i537, align 8
  %this1.i.i541 = load ptr, ptr %this.addr.i.i536, align 8
  %40 = load ptr, ptr %location.addr.i.i537, align 8
  store ptr %40, ptr %this1.i.i541, align 8
  %41 = load ptr, ptr %retval.i534, align 8
  store ptr %41, ptr %ref.tmp.i487, align 8
  store ptr %retval.i485, ptr %this.addr.i.i484, align 8
  store ptr %ref.tmp.i487, ptr %other.addr.i.i, align 8
  %this1.i.i488 = load ptr, ptr %this.addr.i.i484, align 8
  %42 = load ptr, ptr %other.addr.i.i, align 8
  call void @llvm.memcpy.p0.p0.i64(ptr align 8 %this1.i.i488, ptr align 8 %42, i64 8, i1 false)
  %43 = load ptr, ptr %retval.i485, align 8
  store ptr %43, ptr %retval.i181, align 8
  br label %_ZNK2v820FunctionCallbackInfoINS_5ValueEEixEi.exit198

_ZNK2v820FunctionCallbackInfoINS_5ValueEEixEi.exit198: ; preds = %if.end.i190, %if.then.i195
  %44 = load ptr, ptr %retval.i181, align 8
  %coerce.dive = getelementptr inbounds %"class.v8::Local", ptr %ref.tmp, i32 0, i32 0
  %coerce.dive5 = getelementptr inbounds %"class.v8::LocalBase", ptr %coerce.dive, i32 0, i32 0
  %coerce.dive6 = getelementptr inbounds %"class.v8::IndirectHandleBase", ptr %coerce.dive5, i32 0, i32 0
  store ptr %44, ptr %coerce.dive6, align 8
  store ptr %ref.tmp, ptr %this.addr.i205, align 8
  %this1.i206 = load ptr, ptr %this.addr.i205, align 8
  store ptr %this1.i206, ptr %this.addr.i573, align 8
  %this1.i574 = load ptr, ptr %this.addr.i573, align 8
  store ptr %this1.i574, ptr %this.addr.i.i572, align 8
  %this1.i.i575 = load ptr, ptr %this.addr.i.i572, align 8
  %45 = load ptr, ptr %this1.i.i575, align 8
  store ptr %45, ptr %slot.addr.i588, align 8
  %46 = load ptr, ptr %slot.addr.i588, align 8
  store ptr %46, ptr %this.addr.i208, align 8
  %this1.i209 = load ptr, ptr %this.addr.i208, align 8
  store ptr %this1.i209, ptr %this.addr.i278, align 8
  %this1.i279 = load ptr, ptr %this.addr.i278, align 8
  store ptr %this1.i279, ptr %value.addr.i.i, align 8
  %47 = load ptr, ptr %value.addr.i.i, align 8
  %48 = load i64, ptr %47, align 8
  store i64 %48, ptr %obj.i, align 8
  %49 = load i64, ptr %obj.i, align 8
  store i64 %49, ptr %value.addr.i4.i, align 8
  %50 = load i64, ptr %value.addr.i4.i, align 8
  %and.i.i = and i64 %50, 3
  %cmp.i.i = icmp eq i64 %and.i.i, 1
  br i1 %cmp.i.i, label %if.end.i281, label %if.then.i280

if.then.i280:                                     ; preds = %_ZNK2v820FunctionCallbackInfoINS_5ValueEEixEi.exit198
  store i1 false, ptr %retval.i277, align 1
  br label %_ZNK2v85Value13QuickIsStringEv.exit

if.end.i281:                                      ; preds = %_ZNK2v820FunctionCallbackInfoINS_5ValueEEixEi.exit198
  %51 = load i64, ptr %obj.i, align 8
  store i64 %51, ptr %obj.addr.i.i, align 8
  %52 = load i64, ptr %obj.addr.i.i, align 8
  store i64 %52, ptr %heap_object_ptr.addr.i.i.i, align 8
  store i32 0, ptr %offset.addr.i.i.i, align 4
  %53 = load i64, ptr %heap_object_ptr.addr.i.i.i, align 8
  %54 = load i32, ptr %offset.addr.i.i.i, align 4
  store i64 %53, ptr %heap_object_ptr.addr.i2.i.i, align 8
  store i32 %54, ptr %offset.addr.i3.i.i, align 4
  %55 = load i64, ptr %heap_object_ptr.addr.i2.i.i, align 8
  %56 = load i32, ptr %offset.addr.i3.i.i, align 4
  %conv.i.i.i = sext i32 %56 to i64
  %add.i.i.i = add i64 %55, %conv.i.i.i
  %sub.i.i.i = sub i64 %add.i.i.i, 1
  store i64 %sub.i.i.i, ptr %addr.i.i.i, align 8
  %57 = load i64, ptr %addr.i.i.i, align 8
  %58 = inttoptr i64 %57 to ptr
  %59 = load i64, ptr %58, align 8
  store i64 %59, ptr %map.i.i, align 8
  %60 = load i64, ptr %map.i.i, align 8
  store i64 %60, ptr %heap_object_ptr.addr.i.i, align 8
  store i32 12, ptr %offset.addr.i.i, align 4
  %61 = load i64, ptr %heap_object_ptr.addr.i.i, align 8
  %62 = load i32, ptr %offset.addr.i.i, align 4
  %conv.i5.i = sext i32 %62 to i64
  %add.i.i = add i64 %61, %conv.i5.i
  %sub.i.i = sub i64 %add.i.i, 1
  store i64 %sub.i.i, ptr %addr.i.i, align 8
  %63 = load i64, ptr %addr.i.i, align 8
  %64 = inttoptr i64 %63 to ptr
  %65 = load i16, ptr %64, align 2
  %conv.i.i = zext i16 %65 to i32
  %cmp.i282 = icmp slt i32 %conv.i.i, 128
  store i1 %cmp.i282, ptr %retval.i277, align 1
  br label %_ZNK2v85Value13QuickIsStringEv.exit

_ZNK2v85Value13QuickIsStringEv.exit:              ; preds = %if.end.i281, %if.then.i280
  %66 = load i1, ptr %retval.i277, align 1
  br i1 %66, label %if.then9, label %if.else24

if.then9:                                         ; preds = %_ZNK2v85Value13QuickIsStringEv.exit
  %67 = load ptr, ptr %env, align 8
  %call10 = call noundef ptr @_ZNK4node11Environment7isolateEv(ptr noundef nonnull align 8 dereferenceable(2872) %67)
  %68 = load ptr, ptr %args.addr, align 8
  %69 = load ptr, ptr %offset.addr, align 8
  %70 = load i32, ptr %69, align 4
  store ptr %68, ptr %this.addr.i164, align 8
  store i32 %70, ptr %i.addr.i165, align 4
  %this1.i167 = load ptr, ptr %this.addr.i164, align 8
  %71 = load i32, ptr %i.addr.i165, align 4
  %cmp.i168 = icmp slt i32 %71, 0
  br i1 %cmp.i168, label %if.then.i177, label %lor.lhs.false.i169

lor.lhs.false.i169:                               ; preds = %if.then9
  %length_.i170 = getelementptr inbounds %"class.v8::FunctionCallbackInfo", ptr %this1.i167, i32 0, i32 2
  %72 = load i32, ptr %length_.i170, align 8
  %73 = load i32, ptr %i.addr.i165, align 4
  %cmp2.i171 = icmp sle i32 %72, %73
  br i1 %cmp2.i171, label %if.then.i177, label %if.end.i172

if.then.i177:                                     ; preds = %lor.lhs.false.i169, %if.then9
  store ptr %this1.i167, ptr %this.addr.i262, align 8
  %this1.i263 = load ptr, ptr %this.addr.i262, align 8
  %74 = load ptr, ptr %this1.i263, align 8
  %arrayidx.i264 = getelementptr inbounds i64, ptr %74, i64 1
  %75 = load ptr, ptr %arrayidx.i264, align 8
  store ptr %75, ptr %isolate.addr.i220, align 8
  %76 = load ptr, ptr %isolate.addr.i220, align 8
  store ptr %76, ptr %isolate.addr.i364, align 8
  %77 = load ptr, ptr %isolate.addr.i220, align 8
  store ptr %77, ptr %isolate.addr.i388, align 8
  store i32 4, ptr %index.addr.i389, align 4
  %78 = load ptr, ptr %isolate.addr.i388, align 8
  %79 = ptrtoint ptr %78 to i64
  %add.i391 = add i64 %79, 576
  %80 = load i32, ptr %index.addr.i389, align 4
  %mul.i392 = mul nsw i32 %80, 8
  %conv.i393 = sext i32 %mul.i392 to i64
  %add1.i394 = add i64 %add.i391, %conv.i393
  store i64 %add1.i394, ptr %addr.i390, align 8
  %81 = load i64, ptr %addr.i390, align 8
  %82 = inttoptr i64 %81 to ptr
  store ptr %82, ptr %slot.i221, align 8
  %83 = load ptr, ptr %slot.i221, align 8
  store ptr %83, ptr %slot.addr.i416, align 8
  %84 = load ptr, ptr %slot.addr.i416, align 8
  store ptr %84, ptr %slot.addr.i426, align 8
  %85 = load ptr, ptr %slot.addr.i426, align 8
  store ptr %retval.i425, ptr %this.addr.i474, align 8
  store ptr %85, ptr %location.addr.i475, align 8
  %this1.i476 = load ptr, ptr %this.addr.i474, align 8
  %86 = load ptr, ptr %location.addr.i475, align 8
  store ptr %this1.i476, ptr %this.addr.i.i472, align 8
  store ptr %86, ptr %location.addr.i.i473, align 8
  %this1.i.i477 = load ptr, ptr %this.addr.i.i472, align 8
  %87 = load ptr, ptr %location.addr.i.i473, align 8
  store ptr %87, ptr %this1.i.i477, align 8
  %88 = load ptr, ptr %retval.i425, align 8
  store ptr %88, ptr %ref.tmp.i417, align 8
  store ptr %retval.i415, ptr %this.addr.i437, align 8
  store ptr %ref.tmp.i417, ptr %other.addr.i438, align 8
  %this1.i439 = load ptr, ptr %this.addr.i437, align 8
  %89 = load ptr, ptr %other.addr.i438, align 8
  call void @llvm.memcpy.p0.p0.i64(ptr align 8 %this1.i439, ptr align 8 %89, i64 8, i1 false)
  %90 = load ptr, ptr %retval.i415, align 8
  store ptr %90, ptr %retval.i219, align 8
  %91 = load ptr, ptr %retval.i219, align 8
  store ptr %91, ptr %agg.tmp.i166, align 8
  %92 = load ptr, ptr %agg.tmp.i166, align 8
  store ptr %92, ptr %that.i245, align 8
  store ptr %retval.i163, ptr %this.addr.i246, align 8
  %this3.i247 = load ptr, ptr %this.addr.i246, align 8
  store ptr %this3.i247, ptr %this.addr.i601, align 8
  store ptr %that.i245, ptr %other.addr.i602, align 8
  %this1.i603 = load ptr, ptr %this.addr.i601, align 8
  %93 = load ptr, ptr %other.addr.i602, align 8
  call void @llvm.memcpy.p0.p0.i64(ptr align 8 %this1.i603, ptr align 8 %93, i64 8, i1 false)
  br label %_ZNK2v820FunctionCallbackInfoINS_5ValueEEixEi.exit180

if.end.i172:                                      ; preds = %lor.lhs.false.i169
  %values_.i173 = getelementptr inbounds %"class.v8::FunctionCallbackInfo", ptr %this1.i167, i32 0, i32 1
  %94 = load ptr, ptr %values_.i173, align 8
  %95 = load i32, ptr %i.addr.i165, align 4
  %idx.ext.i174 = sext i32 %95 to i64
  %add.ptr.i175 = getelementptr inbounds i64, ptr %94, i64 %idx.ext.i174
  store ptr %add.ptr.i175, ptr %slot.addr.i492, align 8
  %96 = load ptr, ptr %slot.addr.i492, align 8
  store ptr %96, ptr %slot.addr.i533, align 8
  %97 = load ptr, ptr %slot.addr.i533, align 8
  store ptr %retval.i532, ptr %this.addr.i544, align 8
  store ptr %97, ptr %location.addr.i545, align 8
  %this1.i546 = load ptr, ptr %this.addr.i544, align 8
  %98 = load ptr, ptr %location.addr.i545, align 8
  store ptr %this1.i546, ptr %this.addr.i.i542, align 8
  store ptr %98, ptr %location.addr.i.i543, align 8
  %this1.i.i547 = load ptr, ptr %this.addr.i.i542, align 8
  %99 = load ptr, ptr %location.addr.i.i543, align 8
  store ptr %99, ptr %this1.i.i547, align 8
  %100 = load ptr, ptr %retval.i532, align 8
  store ptr %100, ptr %ref.tmp.i493, align 8
  store ptr %retval.i491, ptr %this.addr.i.i489, align 8
  store ptr %ref.tmp.i493, ptr %other.addr.i.i490, align 8
  %this1.i.i495 = load ptr, ptr %this.addr.i.i489, align 8
  %101 = load ptr, ptr %other.addr.i.i490, align 8
  call void @llvm.memcpy.p0.p0.i64(ptr align 8 %this1.i.i495, ptr align 8 %101, i64 8, i1 false)
  %102 = load ptr, ptr %retval.i491, align 8
  store ptr %102, ptr %retval.i163, align 8
  br label %_ZNK2v820FunctionCallbackInfoINS_5ValueEEixEi.exit180

_ZNK2v820FunctionCallbackInfoINS_5ValueEEixEi.exit180: ; preds = %if.end.i172, %if.then.i177
  %103 = load ptr, ptr %retval.i163, align 8
  %coerce.dive12 = getelementptr inbounds %"class.v8::Local", ptr %agg.tmp, i32 0, i32 0
  %coerce.dive13 = getelementptr inbounds %"class.v8::LocalBase", ptr %coerce.dive12, i32 0, i32 0
  %coerce.dive14 = getelementptr inbounds %"class.v8::IndirectHandleBase", ptr %coerce.dive13, i32 0, i32 0
  store ptr %103, ptr %coerce.dive14, align 8
  %coerce.dive15 = getelementptr inbounds %"class.v8::Local", ptr %agg.tmp, i32 0, i32 0
  %coerce.dive16 = getelementptr inbounds %"class.v8::LocalBase", ptr %coerce.dive15, i32 0, i32 0
  %coerce.dive17 = getelementptr inbounds %"class.v8::IndirectHandleBase", ptr %coerce.dive16, i32 0, i32 0
  %104 = load ptr, ptr %coerce.dive17, align 8
  call void @_ZN4node9Utf8ValueC1EPN2v87IsolateENS1_5LocalINS1_5ValueEEE(ptr noundef nonnull align 8 dereferenceable(1048) %cipher_name, ptr noundef %call10, ptr %104)
  %call18 = call noundef ptr @_ZN4node16MaybeStackBufferIcLm1024EEdeEv(ptr noundef nonnull align 8 dereferenceable(1048) %cipher_name)
  %call19 = call ptr @EVP_get_cipherbyname(ptr noundef %call18)
  %cipher_ = getelementptr inbounds %"struct.node::crypto::PrivateKeyEncodingConfig", ptr %result, i32 0, i32 1
  store ptr %call19, ptr %cipher_, align 8
  %cipher_20 = getelementptr inbounds %"struct.node::crypto::PrivateKeyEncodingConfig", ptr %result, i32 0, i32 1
  %105 = load ptr, ptr %cipher_20, align 8
  %cmp21 = icmp eq ptr %105, null
  br i1 %cmp21, label %if.then22, label %if.end23

if.then22:                                        ; preds = %_ZNK2v820FunctionCallbackInfoINS_5ValueEEixEi.exit180
  %106 = load ptr, ptr %env, align 8
  call void @_ZN4node31THROW_ERR_CRYPTO_UNKNOWN_CIPHEREPNS_11EnvironmentE(ptr noundef %106)
  call void @_ZN4node16NonCopyableMaybeINS_6crypto24PrivateKeyEncodingConfigEEC2Ev(ptr noundef nonnull align 8 dereferenceable(64) %agg.result)
  store i32 1, ptr %cleanup.dest.slot, align 4
  br label %cleanup

if.end23:                                         ; preds = %_ZNK2v820FunctionCallbackInfoINS_5ValueEEixEi.exit180
  store i8 1, ptr %needs_passphrase, align 1
  store i32 0, ptr %cleanup.dest.slot, align 4
  br label %cleanup

cleanup:                                          ; preds = %if.end23, %if.then22
  call void @_ZN4node9Utf8ValueD2Ev(ptr noundef nonnull align 8 dereferenceable(1048) %cipher_name) #3
  %cleanup.dest = load i32, ptr %cleanup.dest.slot, align 4
  switch i32 %cleanup.dest, label %cleanup108 [
    i32 0, label %cleanup.cont
  ]

cleanup.cont:                                     ; preds = %cleanup
  br label %if.end40

if.else24:                                        ; preds = %_ZNK2v85Value13QuickIsStringEv.exit
  br label %do.body

do.body:                                          ; preds = %if.else24
  %107 = load ptr, ptr %args.addr, align 8
  %108 = load ptr, ptr %offset.addr, align 8
  %109 = load i32, ptr %108, align 4
  store ptr %107, ptr %this.addr.i146, align 8
  store i32 %109, ptr %i.addr.i147, align 4
  %this1.i149 = load ptr, ptr %this.addr.i146, align 8
  %110 = load i32, ptr %i.addr.i147, align 4
  %cmp.i150 = icmp slt i32 %110, 0
  br i1 %cmp.i150, label %if.then.i159, label %lor.lhs.false.i151

lor.lhs.false.i151:                               ; preds = %do.body
  %length_.i152 = getelementptr inbounds %"class.v8::FunctionCallbackInfo", ptr %this1.i149, i32 0, i32 2
  %111 = load i32, ptr %length_.i152, align 8
  %112 = load i32, ptr %i.addr.i147, align 4
  %cmp2.i153 = icmp sle i32 %111, %112
  br i1 %cmp2.i153, label %if.then.i159, label %if.end.i154

if.then.i159:                                     ; preds = %lor.lhs.false.i151, %do.body
  store ptr %this1.i149, ptr %this.addr.i265, align 8
  %this1.i266 = load ptr, ptr %this.addr.i265, align 8
  %113 = load ptr, ptr %this1.i266, align 8
  %arrayidx.i267 = getelementptr inbounds i64, ptr %113, i64 1
  %114 = load ptr, ptr %arrayidx.i267, align 8
  store ptr %114, ptr %isolate.addr.i225, align 8
  %115 = load ptr, ptr %isolate.addr.i225, align 8
  store ptr %115, ptr %isolate.addr.i363, align 8
  %116 = load ptr, ptr %isolate.addr.i225, align 8
  store ptr %116, ptr %isolate.addr.i381, align 8
  store i32 4, ptr %index.addr.i382, align 4
  %117 = load ptr, ptr %isolate.addr.i381, align 8
  %118 = ptrtoint ptr %117 to i64
  %add.i384 = add i64 %118, 576
  %119 = load i32, ptr %index.addr.i382, align 4
  %mul.i385 = mul nsw i32 %119, 8
  %conv.i386 = sext i32 %mul.i385 to i64
  %add1.i387 = add i64 %add.i384, %conv.i386
  store i64 %add1.i387, ptr %addr.i383, align 8
  %120 = load i64, ptr %addr.i383, align 8
  %121 = inttoptr i64 %120 to ptr
  store ptr %121, ptr %slot.i226, align 8
  %122 = load ptr, ptr %slot.i226, align 8
  store ptr %122, ptr %slot.addr.i412, align 8
  %123 = load ptr, ptr %slot.addr.i412, align 8
  store ptr %123, ptr %slot.addr.i428, align 8
  %124 = load ptr, ptr %slot.addr.i428, align 8
  store ptr %retval.i427, ptr %this.addr.i468, align 8
  store ptr %124, ptr %location.addr.i469, align 8
  %this1.i470 = load ptr, ptr %this.addr.i468, align 8
  %125 = load ptr, ptr %location.addr.i469, align 8
  store ptr %this1.i470, ptr %this.addr.i.i466, align 8
  store ptr %125, ptr %location.addr.i.i467, align 8
  %this1.i.i471 = load ptr, ptr %this.addr.i.i466, align 8
  %126 = load ptr, ptr %location.addr.i.i467, align 8
  store ptr %126, ptr %this1.i.i471, align 8
  %127 = load ptr, ptr %retval.i427, align 8
  store ptr %127, ptr %ref.tmp.i413, align 8
  store ptr %retval.i411, ptr %this.addr.i440, align 8
  store ptr %ref.tmp.i413, ptr %other.addr.i441, align 8
  %this1.i442 = load ptr, ptr %this.addr.i440, align 8
  %128 = load ptr, ptr %other.addr.i441, align 8
  call void @llvm.memcpy.p0.p0.i64(ptr align 8 %this1.i442, ptr align 8 %128, i64 8, i1 false)
  %129 = load ptr, ptr %retval.i411, align 8
  store ptr %129, ptr %retval.i224, align 8
  %130 = load ptr, ptr %retval.i224, align 8
  store ptr %130, ptr %agg.tmp.i148, align 8
  %131 = load ptr, ptr %agg.tmp.i148, align 8
  store ptr %131, ptr %that.i248, align 8
  store ptr %retval.i145, ptr %this.addr.i249, align 8
  %this3.i250 = load ptr, ptr %this.addr.i249, align 8
  store ptr %this3.i250, ptr %this.addr.i598, align 8
  store ptr %that.i248, ptr %other.addr.i599, align 8
  %this1.i600 = load ptr, ptr %this.addr.i598, align 8
  %132 = load ptr, ptr %other.addr.i599, align 8
  call void @llvm.memcpy.p0.p0.i64(ptr align 8 %this1.i600, ptr align 8 %132, i64 8, i1 false)
  br label %_ZNK2v820FunctionCallbackInfoINS_5ValueEEixEi.exit162

if.end.i154:                                      ; preds = %lor.lhs.false.i151
  %values_.i155 = getelementptr inbounds %"class.v8::FunctionCallbackInfo", ptr %this1.i149, i32 0, i32 1
  %133 = load ptr, ptr %values_.i155, align 8
  %134 = load i32, ptr %i.addr.i147, align 4
  %idx.ext.i156 = sext i32 %134 to i64
  %add.ptr.i157 = getelementptr inbounds i64, ptr %133, i64 %idx.ext.i156
  store ptr %add.ptr.i157, ptr %slot.addr.i499, align 8
  %135 = load ptr, ptr %slot.addr.i499, align 8
  store ptr %135, ptr %slot.addr.i531, align 8
  %136 = load ptr, ptr %slot.addr.i531, align 8
  store ptr %retval.i530, ptr %this.addr.i550, align 8
  store ptr %136, ptr %location.addr.i551, align 8
  %this1.i552 = load ptr, ptr %this.addr.i550, align 8
  %137 = load ptr, ptr %location.addr.i551, align 8
  store ptr %this1.i552, ptr %this.addr.i.i548, align 8
  store ptr %137, ptr %location.addr.i.i549, align 8
  %this1.i.i553 = load ptr, ptr %this.addr.i.i548, align 8
  %138 = load ptr, ptr %location.addr.i.i549, align 8
  store ptr %138, ptr %this1.i.i553, align 8
  %139 = load ptr, ptr %retval.i530, align 8
  store ptr %139, ptr %ref.tmp.i500, align 8
  store ptr %retval.i498, ptr %this.addr.i.i496, align 8
  store ptr %ref.tmp.i500, ptr %other.addr.i.i497, align 8
  %this1.i.i502 = load ptr, ptr %this.addr.i.i496, align 8
  %140 = load ptr, ptr %other.addr.i.i497, align 8
  call void @llvm.memcpy.p0.p0.i64(ptr align 8 %this1.i.i502, ptr align 8 %140, i64 8, i1 false)
  %141 = load ptr, ptr %retval.i498, align 8
  store ptr %141, ptr %retval.i145, align 8
  br label %_ZNK2v820FunctionCallbackInfoINS_5ValueEEixEi.exit162

_ZNK2v820FunctionCallbackInfoINS_5ValueEEixEi.exit162: ; preds = %if.end.i154, %if.then.i159
  %142 = load ptr, ptr %retval.i145, align 8
  %coerce.dive27 = getelementptr inbounds %"class.v8::Local", ptr %ref.tmp25, i32 0, i32 0
  %coerce.dive28 = getelementptr inbounds %"class.v8::LocalBase", ptr %coerce.dive27, i32 0, i32 0
  %coerce.dive29 = getelementptr inbounds %"class.v8::IndirectHandleBase", ptr %coerce.dive28, i32 0, i32 0
  store ptr %142, ptr %coerce.dive29, align 8
  store ptr %ref.tmp25, ptr %this.addr.i202, align 8
  %this1.i203 = load ptr, ptr %this.addr.i202, align 8
  store ptr %this1.i203, ptr %this.addr.i577, align 8
  %this1.i578 = load ptr, ptr %this.addr.i577, align 8
  store ptr %this1.i578, ptr %this.addr.i.i576, align 8
  %this1.i.i579 = load ptr, ptr %this.addr.i.i576, align 8
  %143 = load ptr, ptr %this1.i.i579, align 8
  store ptr %143, ptr %slot.addr.i587, align 8
  %144 = load ptr, ptr %slot.addr.i587, align 8
  store ptr %144, ptr %this.addr.i214, align 8
  %this1.i215 = load ptr, ptr %this.addr.i214, align 8
  store ptr %this1.i215, ptr %this.addr.i295, align 8
  %this1.i297 = load ptr, ptr %this.addr.i295, align 8
  store ptr %this1.i297, ptr %value.addr.i.i293, align 8
  %145 = load ptr, ptr %value.addr.i.i293, align 8
  %146 = load i64, ptr %145, align 8
  store i64 %146, ptr %obj.i296, align 8
  %147 = load i64, ptr %obj.i296, align 8
  store i64 %147, ptr %value.addr.i9.i, align 8
  %148 = load i64, ptr %value.addr.i9.i, align 8
  %and.i.i298 = and i64 %148, 3
  %cmp.i.i299 = icmp eq i64 %and.i.i298, 1
  br i1 %cmp.i.i299, label %if.end.i301, label %if.then.i300

if.then.i300:                                     ; preds = %_ZNK2v820FunctionCallbackInfoINS_5ValueEEixEi.exit162
  store i1 false, ptr %retval.i294, align 1
  br label %_ZNK2v85Value22QuickIsNullOrUndefinedEv.exit

if.end.i301:                                      ; preds = %_ZNK2v820FunctionCallbackInfoINS_5ValueEEixEi.exit162
  %149 = load i64, ptr %obj.i296, align 8
  store i64 %149, ptr %obj.addr.i.i291, align 8
  %150 = load i64, ptr %obj.addr.i.i291, align 8
  store i64 %150, ptr %heap_object_ptr.addr.i.i.i289, align 8
  store i32 0, ptr %offset.addr.i.i.i290, align 4
  %151 = load i64, ptr %heap_object_ptr.addr.i.i.i289, align 8
  %152 = load i32, ptr %offset.addr.i.i.i290, align 4
  store i64 %151, ptr %heap_object_ptr.addr.i2.i.i286, align 8
  store i32 %152, ptr %offset.addr.i3.i.i287, align 4
  %153 = load i64, ptr %heap_object_ptr.addr.i2.i.i286, align 8
  %154 = load i32, ptr %offset.addr.i3.i.i287, align 4
  %conv.i.i.i302 = sext i32 %154 to i64
  %add.i.i.i303 = add i64 %153, %conv.i.i.i302
  %sub.i.i.i304 = sub i64 %add.i.i.i303, 1
  store i64 %sub.i.i.i304, ptr %addr.i.i.i288, align 8
  %155 = load i64, ptr %addr.i.i.i288, align 8
  %156 = inttoptr i64 %155 to ptr
  %157 = load i64, ptr %156, align 8
  store i64 %157, ptr %map.i.i292, align 8
  %158 = load i64, ptr %map.i.i292, align 8
  store i64 %158, ptr %heap_object_ptr.addr.i.i283, align 8
  store i32 12, ptr %offset.addr.i.i284, align 4
  %159 = load i64, ptr %heap_object_ptr.addr.i.i283, align 8
  %160 = load i32, ptr %offset.addr.i.i284, align 4
  %conv.i12.i = sext i32 %160 to i64
  %add.i.i305 = add i64 %159, %conv.i12.i
  %sub.i.i306 = sub i64 %add.i.i305, 1
  store i64 %sub.i.i306, ptr %addr.i.i285, align 8
  %161 = load i64, ptr %addr.i.i285, align 8
  %162 = inttoptr i64 %161 to ptr
  %163 = load i16, ptr %162, align 2
  %conv.i.i307 = zext i16 %163 to i32
  %cmp.i308 = icmp ne i32 %conv.i.i307, 131
  br i1 %cmp.i308, label %if.then4.i, label %if.end5.i

if.then4.i:                                       ; preds = %if.end.i301
  store i1 false, ptr %retval.i294, align 1
  br label %_ZNK2v85Value22QuickIsNullOrUndefinedEv.exit

if.end5.i:                                        ; preds = %if.end.i301
  %164 = load i64, ptr %obj.i296, align 8
  store i64 %164, ptr %obj.addr.i10.i, align 8
  %165 = load i64, ptr %obj.addr.i10.i, align 8
  store i64 %165, ptr %heap_object_ptr.addr.i18.i, align 8
  store i32 40, ptr %offset.addr.i19.i, align 4
  %166 = load i64, ptr %heap_object_ptr.addr.i18.i, align 8
  %167 = load i32, ptr %offset.addr.i19.i, align 4
  store i64 %166, ptr %heap_object_ptr.addr.i.i15.i, align 8
  store i32 %167, ptr %offset.addr.i.i16.i, align 4
  %168 = load i64, ptr %heap_object_ptr.addr.i.i15.i, align 8
  %169 = load i32, ptr %offset.addr.i.i16.i, align 4
  %conv.i.i20.i = sext i32 %169 to i64
  %add.i.i21.i = add i64 %168, %conv.i.i20.i
  %sub.i.i22.i = sub i64 %add.i.i21.i, 1
  store i64 %sub.i.i22.i, ptr %addr.i.i17.i, align 8
  %170 = load i64, ptr %addr.i.i17.i, align 8
  %171 = inttoptr i64 %170 to ptr
  %172 = load i64, ptr %171, align 8
  store i64 %172, ptr %value.addr.i13.i, align 8
  %173 = load i64, ptr %value.addr.i13.i, align 8
  store i64 %173, ptr %value.addr.i23.i, align 8
  store i32 32, ptr %shift_bits.i.i, align 4
  %174 = load i64, ptr %value.addr.i23.i, align 8
  %175 = load i32, ptr %shift_bits.i.i, align 4
  %sh_prom.i.i = zext i32 %175 to i64
  %shr.i.i = ashr i64 %174, %sh_prom.i.i
  %conv.i24.i = trunc i64 %shr.i.i to i32
  store i32 %conv.i24.i, ptr %kind.i, align 4
  %176 = load i32, ptr %kind.i, align 4
  %cmp7.i = icmp eq i32 %176, 3
  br i1 %cmp7.i, label %lor.end.i, label %lor.rhs.i

lor.rhs.i:                                        ; preds = %if.end5.i
  %177 = load i32, ptr %kind.i, align 4
  %cmp8.i = icmp eq i32 %177, 5
  br label %lor.end.i

lor.end.i:                                        ; preds = %lor.rhs.i, %if.end5.i
  %178 = phi i1 [ true, %if.end5.i ], [ %cmp8.i, %lor.rhs.i ]
  store i1 %178, ptr %retval.i294, align 1
  br label %_ZNK2v85Value22QuickIsNullOrUndefinedEv.exit

_ZNK2v85Value22QuickIsNullOrUndefinedEv.exit:     ; preds = %lor.end.i, %if.then4.i, %if.then.i300
  %179 = load i1, ptr %retval.i294, align 1
  %lnot = xor i1 %179, true
  %lnot32 = xor i1 %lnot, true
  %lnot33 = xor i1 %lnot32, true
  br i1 %lnot33, label %if.then34, label %if.end36

if.then34:                                        ; preds = %_ZNK2v85Value22QuickIsNullOrUndefinedEv.exit
  br label %do.body35

do.body35:                                        ; preds = %if.then34
  call void @_ZN4node6AssertERKNS_13AssertionInfoE(ptr noundef nonnull align 8 dereferenceable(24) @_ZZN4node6crypto14ManagedEVPPKey27GetPrivateKeyEncodingFromJsERKN2v820FunctionCallbackInfoINS2_5ValueEEEPjNS0_18KeyEncodingContextEE4args)
  call void @abort() #14
  unreachable

do.cond:                                          ; No predecessors!
  br label %do.end

do.end:                                           ; preds = %do.cond
  br label %if.end36

if.end36:                                         ; preds = %do.end, %_ZNK2v85Value22QuickIsNullOrUndefinedEv.exit
  br label %do.cond37

do.cond37:                                        ; preds = %if.end36
  br label %do.end38

do.end38:                                         ; preds = %do.cond37
  %cipher_39 = getelementptr inbounds %"struct.node::crypto::PrivateKeyEncodingConfig", ptr %result, i32 0, i32 1
  store ptr null, ptr %cipher_39, align 8
  br label %if.end40

if.end40:                                         ; preds = %do.end38, %cleanup.cont
  %180 = load ptr, ptr %offset.addr, align 8
  %181 = load i32, ptr %180, align 4
  %inc41 = add i32 %181, 1
  store i32 %inc41, ptr %180, align 4
  br label %if.end42

if.end42:                                         ; preds = %if.end40, %if.else
  %182 = load ptr, ptr %args.addr, align 8
  %183 = load ptr, ptr %offset.addr, align 8
  %184 = load i32, ptr %183, align 4
  store ptr %182, ptr %this.addr.i128, align 8
  store i32 %184, ptr %i.addr.i129, align 4
  %this1.i131 = load ptr, ptr %this.addr.i128, align 8
  %185 = load i32, ptr %i.addr.i129, align 4
  %cmp.i132 = icmp slt i32 %185, 0
  br i1 %cmp.i132, label %if.then.i141, label %lor.lhs.false.i133

lor.lhs.false.i133:                               ; preds = %if.end42
  %length_.i134 = getelementptr inbounds %"class.v8::FunctionCallbackInfo", ptr %this1.i131, i32 0, i32 2
  %186 = load i32, ptr %length_.i134, align 8
  %187 = load i32, ptr %i.addr.i129, align 4
  %cmp2.i135 = icmp sle i32 %186, %187
  br i1 %cmp2.i135, label %if.then.i141, label %if.end.i136

if.then.i141:                                     ; preds = %lor.lhs.false.i133, %if.end42
  store ptr %this1.i131, ptr %this.addr.i268, align 8
  %this1.i269 = load ptr, ptr %this.addr.i268, align 8
  %188 = load ptr, ptr %this1.i269, align 8
  %arrayidx.i270 = getelementptr inbounds i64, ptr %188, i64 1
  %189 = load ptr, ptr %arrayidx.i270, align 8
  store ptr %189, ptr %isolate.addr.i230, align 8
  %190 = load ptr, ptr %isolate.addr.i230, align 8
  store ptr %190, ptr %isolate.addr.i362, align 8
  %191 = load ptr, ptr %isolate.addr.i230, align 8
  store ptr %191, ptr %isolate.addr.i374, align 8
  store i32 4, ptr %index.addr.i375, align 4
  %192 = load ptr, ptr %isolate.addr.i374, align 8
  %193 = ptrtoint ptr %192 to i64
  %add.i377 = add i64 %193, 576
  %194 = load i32, ptr %index.addr.i375, align 4
  %mul.i378 = mul nsw i32 %194, 8
  %conv.i379 = sext i32 %mul.i378 to i64
  %add1.i380 = add i64 %add.i377, %conv.i379
  store i64 %add1.i380, ptr %addr.i376, align 8
  %195 = load i64, ptr %addr.i376, align 8
  %196 = inttoptr i64 %195 to ptr
  store ptr %196, ptr %slot.i231, align 8
  %197 = load ptr, ptr %slot.i231, align 8
  store ptr %197, ptr %slot.addr.i408, align 8
  %198 = load ptr, ptr %slot.addr.i408, align 8
  store ptr %198, ptr %slot.addr.i430, align 8
  %199 = load ptr, ptr %slot.addr.i430, align 8
  store ptr %retval.i429, ptr %this.addr.i462, align 8
  store ptr %199, ptr %location.addr.i463, align 8
  %this1.i464 = load ptr, ptr %this.addr.i462, align 8
  %200 = load ptr, ptr %location.addr.i463, align 8
  store ptr %this1.i464, ptr %this.addr.i.i460, align 8
  store ptr %200, ptr %location.addr.i.i461, align 8
  %this1.i.i465 = load ptr, ptr %this.addr.i.i460, align 8
  %201 = load ptr, ptr %location.addr.i.i461, align 8
  store ptr %201, ptr %this1.i.i465, align 8
  %202 = load ptr, ptr %retval.i429, align 8
  store ptr %202, ptr %ref.tmp.i409, align 8
  store ptr %retval.i407, ptr %this.addr.i443, align 8
  store ptr %ref.tmp.i409, ptr %other.addr.i444, align 8
  %this1.i445 = load ptr, ptr %this.addr.i443, align 8
  %203 = load ptr, ptr %other.addr.i444, align 8
  call void @llvm.memcpy.p0.p0.i64(ptr align 8 %this1.i445, ptr align 8 %203, i64 8, i1 false)
  %204 = load ptr, ptr %retval.i407, align 8
  store ptr %204, ptr %retval.i229, align 8
  %205 = load ptr, ptr %retval.i229, align 8
  store ptr %205, ptr %agg.tmp.i130, align 8
  %206 = load ptr, ptr %agg.tmp.i130, align 8
  store ptr %206, ptr %that.i251, align 8
  store ptr %retval.i127, ptr %this.addr.i252, align 8
  %this3.i253 = load ptr, ptr %this.addr.i252, align 8
  store ptr %this3.i253, ptr %this.addr.i595, align 8
  store ptr %that.i251, ptr %other.addr.i596, align 8
  %this1.i597 = load ptr, ptr %this.addr.i595, align 8
  %207 = load ptr, ptr %other.addr.i596, align 8
  call void @llvm.memcpy.p0.p0.i64(ptr align 8 %this1.i597, ptr align 8 %207, i64 8, i1 false)
  br label %_ZNK2v820FunctionCallbackInfoINS_5ValueEEixEi.exit144

if.end.i136:                                      ; preds = %lor.lhs.false.i133
  %values_.i137 = getelementptr inbounds %"class.v8::FunctionCallbackInfo", ptr %this1.i131, i32 0, i32 1
  %208 = load ptr, ptr %values_.i137, align 8
  %209 = load i32, ptr %i.addr.i129, align 4
  %idx.ext.i138 = sext i32 %209 to i64
  %add.ptr.i139 = getelementptr inbounds i64, ptr %208, i64 %idx.ext.i138
  store ptr %add.ptr.i139, ptr %slot.addr.i506, align 8
  %210 = load ptr, ptr %slot.addr.i506, align 8
  store ptr %210, ptr %slot.addr.i529, align 8
  %211 = load ptr, ptr %slot.addr.i529, align 8
  store ptr %retval.i528, ptr %this.addr.i556, align 8
  store ptr %211, ptr %location.addr.i557, align 8
  %this1.i558 = load ptr, ptr %this.addr.i556, align 8
  %212 = load ptr, ptr %location.addr.i557, align 8
  store ptr %this1.i558, ptr %this.addr.i.i554, align 8
  store ptr %212, ptr %location.addr.i.i555, align 8
  %this1.i.i559 = load ptr, ptr %this.addr.i.i554, align 8
  %213 = load ptr, ptr %location.addr.i.i555, align 8
  store ptr %213, ptr %this1.i.i559, align 8
  %214 = load ptr, ptr %retval.i528, align 8
  store ptr %214, ptr %ref.tmp.i507, align 8
  store ptr %retval.i505, ptr %this.addr.i.i503, align 8
  store ptr %ref.tmp.i507, ptr %other.addr.i.i504, align 8
  %this1.i.i509 = load ptr, ptr %this.addr.i.i503, align 8
  %215 = load ptr, ptr %other.addr.i.i504, align 8
  call void @llvm.memcpy.p0.p0.i64(ptr align 8 %this1.i.i509, ptr align 8 %215, i64 8, i1 false)
  %216 = load ptr, ptr %retval.i505, align 8
  store ptr %216, ptr %retval.i127, align 8
  br label %_ZNK2v820FunctionCallbackInfoINS_5ValueEEixEi.exit144

_ZNK2v820FunctionCallbackInfoINS_5ValueEEixEi.exit144: ; preds = %if.end.i136, %if.then.i141
  %217 = load ptr, ptr %retval.i127, align 8
  %coerce.dive45 = getelementptr inbounds %"class.v8::Local", ptr %agg.tmp43, i32 0, i32 0
  %coerce.dive46 = getelementptr inbounds %"class.v8::LocalBase", ptr %coerce.dive45, i32 0, i32 0
  %coerce.dive47 = getelementptr inbounds %"class.v8::IndirectHandleBase", ptr %coerce.dive46, i32 0, i32 0
  store ptr %217, ptr %coerce.dive47, align 8
  %coerce.dive48 = getelementptr inbounds %"class.v8::Local", ptr %agg.tmp43, i32 0, i32 0
  %coerce.dive49 = getelementptr inbounds %"class.v8::LocalBase", ptr %coerce.dive48, i32 0, i32 0
  %coerce.dive50 = getelementptr inbounds %"class.v8::IndirectHandleBase", ptr %coerce.dive49, i32 0, i32 0
  %218 = load ptr, ptr %coerce.dive50, align 8
  %call51 = call noundef zeroext i1 @_ZN4node6crypto17IsAnyBufferSourceEN2v85LocalINS1_5ValueEEE(ptr %218)
  br i1 %call51, label %if.then52, label %if.else84

if.then52:                                        ; preds = %_ZNK2v820FunctionCallbackInfoINS_5ValueEEixEi.exit144
  br label %do.body53

do.body53:                                        ; preds = %if.then52
  %219 = load i32, ptr %context.addr, align 4
  %cmp54 = icmp ne i32 %219, 0
  br i1 %cmp54, label %lor.rhs, label %lor.end

lor.rhs:                                          ; preds = %do.body53
  %cipher_55 = getelementptr inbounds %"struct.node::crypto::PrivateKeyEncodingConfig", ptr %result, i32 0, i32 1
  %220 = load ptr, ptr %cipher_55, align 8
  %cmp56 = icmp ne ptr %220, null
  br label %lor.end

lor.end:                                          ; preds = %lor.rhs, %do.body53
  %221 = phi i1 [ true, %do.body53 ], [ %cmp56, %lor.rhs ]
  %lnot57 = xor i1 %221, true
  %lnot58 = xor i1 %lnot57, true
  %lnot59 = xor i1 %lnot58, true
  br i1 %lnot59, label %if.then60, label %if.end64

if.then60:                                        ; preds = %lor.end
  br label %do.body61

do.body61:                                        ; preds = %if.then60
  call void @_ZN4node6AssertERKNS_13AssertionInfoE(ptr noundef nonnull align 8 dereferenceable(24) @_ZZN4node6crypto14ManagedEVPPKey27GetPrivateKeyEncodingFromJsERKN2v820FunctionCallbackInfoINS2_5ValueEEEPjNS0_18KeyEncodingContextEE4args_0)
  call void @abort() #14
  unreachable

do.cond62:                                        ; No predecessors!
  br label %do.end63

do.end63:                                         ; preds = %do.cond62
  br label %if.end64

if.end64:                                         ; preds = %do.end63, %lor.end
  br label %do.cond65

do.cond65:                                        ; preds = %if.end64
  br label %do.end66

do.end66:                                         ; preds = %do.cond65
  %222 = load ptr, ptr %args.addr, align 8
  %223 = load ptr, ptr %offset.addr, align 8
  %224 = load i32, ptr %223, align 4
  store ptr %222, ptr %this.addr.i110, align 8
  store i32 %224, ptr %i.addr.i111, align 4
  %this1.i113 = load ptr, ptr %this.addr.i110, align 8
  %225 = load i32, ptr %i.addr.i111, align 4
  %cmp.i114 = icmp slt i32 %225, 0
  br i1 %cmp.i114, label %if.then.i123, label %lor.lhs.false.i115

lor.lhs.false.i115:                               ; preds = %do.end66
  %length_.i116 = getelementptr inbounds %"class.v8::FunctionCallbackInfo", ptr %this1.i113, i32 0, i32 2
  %226 = load i32, ptr %length_.i116, align 8
  %227 = load i32, ptr %i.addr.i111, align 4
  %cmp2.i117 = icmp sle i32 %226, %227
  br i1 %cmp2.i117, label %if.then.i123, label %if.end.i118

if.then.i123:                                     ; preds = %lor.lhs.false.i115, %do.end66
  store ptr %this1.i113, ptr %this.addr.i271, align 8
  %this1.i272 = load ptr, ptr %this.addr.i271, align 8
  %228 = load ptr, ptr %this1.i272, align 8
  %arrayidx.i273 = getelementptr inbounds i64, ptr %228, i64 1
  %229 = load ptr, ptr %arrayidx.i273, align 8
  store ptr %229, ptr %isolate.addr.i235, align 8
  %230 = load ptr, ptr %isolate.addr.i235, align 8
  store ptr %230, ptr %isolate.addr.i361, align 8
  %231 = load ptr, ptr %isolate.addr.i235, align 8
  store ptr %231, ptr %isolate.addr.i367, align 8
  store i32 4, ptr %index.addr.i368, align 4
  %232 = load ptr, ptr %isolate.addr.i367, align 8
  %233 = ptrtoint ptr %232 to i64
  %add.i370 = add i64 %233, 576
  %234 = load i32, ptr %index.addr.i368, align 4
  %mul.i371 = mul nsw i32 %234, 8
  %conv.i372 = sext i32 %mul.i371 to i64
  %add1.i373 = add i64 %add.i370, %conv.i372
  store i64 %add1.i373, ptr %addr.i369, align 8
  %235 = load i64, ptr %addr.i369, align 8
  %236 = inttoptr i64 %235 to ptr
  store ptr %236, ptr %slot.i236, align 8
  %237 = load ptr, ptr %slot.i236, align 8
  store ptr %237, ptr %slot.addr.i404, align 8
  %238 = load ptr, ptr %slot.addr.i404, align 8
  store ptr %238, ptr %slot.addr.i432, align 8
  %239 = load ptr, ptr %slot.addr.i432, align 8
  store ptr %retval.i431, ptr %this.addr.i456, align 8
  store ptr %239, ptr %location.addr.i457, align 8
  %this1.i458 = load ptr, ptr %this.addr.i456, align 8
  %240 = load ptr, ptr %location.addr.i457, align 8
  store ptr %this1.i458, ptr %this.addr.i.i454, align 8
  store ptr %240, ptr %location.addr.i.i455, align 8
  %this1.i.i459 = load ptr, ptr %this.addr.i.i454, align 8
  %241 = load ptr, ptr %location.addr.i.i455, align 8
  store ptr %241, ptr %this1.i.i459, align 8
  %242 = load ptr, ptr %retval.i431, align 8
  store ptr %242, ptr %ref.tmp.i405, align 8
  store ptr %retval.i403, ptr %this.addr.i446, align 8
  store ptr %ref.tmp.i405, ptr %other.addr.i447, align 8
  %this1.i448 = load ptr, ptr %this.addr.i446, align 8
  %243 = load ptr, ptr %other.addr.i447, align 8
  call void @llvm.memcpy.p0.p0.i64(ptr align 8 %this1.i448, ptr align 8 %243, i64 8, i1 false)
  %244 = load ptr, ptr %retval.i403, align 8
  store ptr %244, ptr %retval.i234, align 8
  %245 = load ptr, ptr %retval.i234, align 8
  store ptr %245, ptr %agg.tmp.i112, align 8
  %246 = load ptr, ptr %agg.tmp.i112, align 8
  store ptr %246, ptr %that.i254, align 8
  store ptr %retval.i109, ptr %this.addr.i255, align 8
  %this3.i256 = load ptr, ptr %this.addr.i255, align 8
  store ptr %this3.i256, ptr %this.addr.i592, align 8
  store ptr %that.i254, ptr %other.addr.i593, align 8
  %this1.i594 = load ptr, ptr %this.addr.i592, align 8
  %247 = load ptr, ptr %other.addr.i593, align 8
  call void @llvm.memcpy.p0.p0.i64(ptr align 8 %this1.i594, ptr align 8 %247, i64 8, i1 false)
  br label %_ZNK2v820FunctionCallbackInfoINS_5ValueEEixEi.exit126

if.end.i118:                                      ; preds = %lor.lhs.false.i115
  %values_.i119 = getelementptr inbounds %"class.v8::FunctionCallbackInfo", ptr %this1.i113, i32 0, i32 1
  %248 = load ptr, ptr %values_.i119, align 8
  %249 = load i32, ptr %i.addr.i111, align 4
  %idx.ext.i120 = sext i32 %249 to i64
  %add.ptr.i121 = getelementptr inbounds i64, ptr %248, i64 %idx.ext.i120
  store ptr %add.ptr.i121, ptr %slot.addr.i513, align 8
  %250 = load ptr, ptr %slot.addr.i513, align 8
  store ptr %250, ptr %slot.addr.i527, align 8
  %251 = load ptr, ptr %slot.addr.i527, align 8
  store ptr %retval.i526, ptr %this.addr.i562, align 8
  store ptr %251, ptr %location.addr.i563, align 8
  %this1.i564 = load ptr, ptr %this.addr.i562, align 8
  %252 = load ptr, ptr %location.addr.i563, align 8
  store ptr %this1.i564, ptr %this.addr.i.i560, align 8
  store ptr %252, ptr %location.addr.i.i561, align 8
  %this1.i.i565 = load ptr, ptr %this.addr.i.i560, align 8
  %253 = load ptr, ptr %location.addr.i.i561, align 8
  store ptr %253, ptr %this1.i.i565, align 8
  %254 = load ptr, ptr %retval.i526, align 8
  store ptr %254, ptr %ref.tmp.i514, align 8
  store ptr %retval.i512, ptr %this.addr.i.i510, align 8
  store ptr %ref.tmp.i514, ptr %other.addr.i.i511, align 8
  %this1.i.i516 = load ptr, ptr %this.addr.i.i510, align 8
  %255 = load ptr, ptr %other.addr.i.i511, align 8
  call void @llvm.memcpy.p0.p0.i64(ptr align 8 %this1.i.i516, ptr align 8 %255, i64 8, i1 false)
  %256 = load ptr, ptr %retval.i512, align 8
  store ptr %256, ptr %retval.i109, align 8
  br label %_ZNK2v820FunctionCallbackInfoINS_5ValueEEixEi.exit126

_ZNK2v820FunctionCallbackInfoINS_5ValueEEixEi.exit126: ; preds = %if.end.i118, %if.then.i123
  %257 = load ptr, ptr %retval.i109, align 8
  %coerce.dive69 = getelementptr inbounds %"class.v8::Local", ptr %agg.tmp67, i32 0, i32 0
  %coerce.dive70 = getelementptr inbounds %"class.v8::LocalBase", ptr %coerce.dive69, i32 0, i32 0
  %coerce.dive71 = getelementptr inbounds %"class.v8::IndirectHandleBase", ptr %coerce.dive70, i32 0, i32 0
  store ptr %257, ptr %coerce.dive71, align 8
  %coerce.dive72 = getelementptr inbounds %"class.v8::Local", ptr %agg.tmp67, i32 0, i32 0
  %coerce.dive73 = getelementptr inbounds %"class.v8::LocalBase", ptr %coerce.dive72, i32 0, i32 0
  %coerce.dive74 = getelementptr inbounds %"class.v8::IndirectHandleBase", ptr %coerce.dive73, i32 0, i32 0
  %258 = load ptr, ptr %coerce.dive74, align 8
  call void @_ZN4node6crypto25ArrayBufferOrViewContentsIcEC2EN2v85LocalINS3_5ValueEEE(ptr noundef nonnull align 8 dereferenceable(32) %passphrase, ptr %258)
  %call75 = call noundef zeroext i1 @_ZN4node6crypto25ArrayBufferOrViewContentsIcE14CheckSizeInt32Ev(ptr noundef nonnull align 8 dereferenceable(32) %passphrase)
  %lnot76 = xor i1 %call75, true
  %lnot77 = xor i1 %lnot76, true
  %lnot78 = xor i1 %lnot77, true
  br i1 %lnot78, label %if.then79, label %if.end80

if.then79:                                        ; preds = %_ZNK2v820FunctionCallbackInfoINS_5ValueEEixEi.exit126
  %259 = load ptr, ptr %env, align 8
  call void @_ZN4node22THROW_ERR_OUT_OF_RANGEIJEEEvPNS_11EnvironmentEPKcDpOT_(ptr noundef %259, ptr noundef @.str.9)
  call void @_ZN4node16NonCopyableMaybeINS_6crypto24PrivateKeyEncodingConfigEEC2Ev(ptr noundef nonnull align 8 dereferenceable(64) %agg.result)
  store i32 1, ptr %cleanup.dest.slot, align 4
  br label %cleanup108

if.end80:                                         ; preds = %_ZNK2v820FunctionCallbackInfoINS_5ValueEEixEi.exit126
  call void @_ZNK4node6crypto25ArrayBufferOrViewContentsIcE20ToNullTerminatedCopyEv(ptr sret(%"class.node::crypto::ByteSource") align 8 %ref.tmp82, ptr noundef nonnull align 8 dereferenceable(32) %passphrase)
  call void @_ZN4node16NonCopyableMaybeINS_6crypto10ByteSourceEEC2EOS2_(ptr noundef nonnull align 8 dereferenceable(32) %ref.tmp81, ptr noundef nonnull align 8 dereferenceable(24) %ref.tmp82)
  %passphrase_ = getelementptr inbounds %"struct.node::crypto::PrivateKeyEncodingConfig", ptr %result, i32 0, i32 2
  %call83 = call noundef nonnull align 8 dereferenceable(32) ptr @_ZN4node16NonCopyableMaybeINS_6crypto10ByteSourceEEaSEOS3_(ptr noundef nonnull align 8 dereferenceable(32) %passphrase_, ptr noundef nonnull align 8 dereferenceable(32) %ref.tmp81) #3
  call void @_ZN4node16NonCopyableMaybeINS_6crypto10ByteSourceEED2Ev(ptr noundef nonnull align 8 dereferenceable(32) %ref.tmp81) #3
  call void @_ZN4node6crypto10ByteSourceD1Ev(ptr noundef nonnull align 8 dereferenceable(24) %ref.tmp82) #3
  br label %if.end105

if.else84:                                        ; preds = %_ZNK2v820FunctionCallbackInfoINS_5ValueEEixEi.exit144
  br label %do.body85

do.body85:                                        ; preds = %if.else84
  %260 = load ptr, ptr %args.addr, align 8
  %261 = load ptr, ptr %offset.addr, align 8
  %262 = load i32, ptr %261, align 4
  store ptr %260, ptr %this.addr.i, align 8
  store i32 %262, ptr %i.addr.i, align 4
  %this1.i = load ptr, ptr %this.addr.i, align 8
  %263 = load i32, ptr %i.addr.i, align 4
  %cmp.i = icmp slt i32 %263, 0
  br i1 %cmp.i, label %if.then.i, label %lor.lhs.false.i

lor.lhs.false.i:                                  ; preds = %do.body85
  %length_.i = getelementptr inbounds %"class.v8::FunctionCallbackInfo", ptr %this1.i, i32 0, i32 2
  %264 = load i32, ptr %length_.i, align 8
  %265 = load i32, ptr %i.addr.i, align 4
  %cmp2.i = icmp sle i32 %264, %265
  br i1 %cmp2.i, label %if.then.i, label %if.end.i

if.then.i:                                        ; preds = %lor.lhs.false.i, %do.body85
  store ptr %this1.i, ptr %this.addr.i274, align 8
  %this1.i275 = load ptr, ptr %this.addr.i274, align 8
  %266 = load ptr, ptr %this1.i275, align 8
  %arrayidx.i276 = getelementptr inbounds i64, ptr %266, i64 1
  %267 = load ptr, ptr %arrayidx.i276, align 8
  store ptr %267, ptr %isolate.addr.i240, align 8
  %268 = load ptr, ptr %isolate.addr.i240, align 8
  store ptr %268, ptr %isolate.addr.i360, align 8
  %269 = load ptr, ptr %isolate.addr.i240, align 8
  store ptr %269, ptr %isolate.addr.i366, align 8
  store i32 4, ptr %index.addr.i, align 4
  %270 = load ptr, ptr %isolate.addr.i366, align 8
  %271 = ptrtoint ptr %270 to i64
  %add.i = add i64 %271, 576
  %272 = load i32, ptr %index.addr.i, align 4
  %mul.i = mul nsw i32 %272, 8
  %conv.i = sext i32 %mul.i to i64
  %add1.i = add i64 %add.i, %conv.i
  store i64 %add1.i, ptr %addr.i, align 8
  %273 = load i64, ptr %addr.i, align 8
  %274 = inttoptr i64 %273 to ptr
  store ptr %274, ptr %slot.i241, align 8
  %275 = load ptr, ptr %slot.i241, align 8
  store ptr %275, ptr %slot.addr.i, align 8
  %276 = load ptr, ptr %slot.addr.i, align 8
  store ptr %276, ptr %slot.addr.i434, align 8
  %277 = load ptr, ptr %slot.addr.i434, align 8
  store ptr %retval.i433, ptr %this.addr.i452, align 8
  store ptr %277, ptr %location.addr.i, align 8
  %this1.i453 = load ptr, ptr %this.addr.i452, align 8
  %278 = load ptr, ptr %location.addr.i, align 8
  store ptr %this1.i453, ptr %this.addr.i.i, align 8
  store ptr %278, ptr %location.addr.i.i, align 8
  %this1.i.i = load ptr, ptr %this.addr.i.i, align 8
  %279 = load ptr, ptr %location.addr.i.i, align 8
  store ptr %279, ptr %this1.i.i, align 8
  %280 = load ptr, ptr %retval.i433, align 8
  store ptr %280, ptr %ref.tmp.i, align 8
  store ptr %retval.i402, ptr %this.addr.i449, align 8
  store ptr %ref.tmp.i, ptr %other.addr.i450, align 8
  %this1.i451 = load ptr, ptr %this.addr.i449, align 8
  %281 = load ptr, ptr %other.addr.i450, align 8
  call void @llvm.memcpy.p0.p0.i64(ptr align 8 %this1.i451, ptr align 8 %281, i64 8, i1 false)
  %282 = load ptr, ptr %retval.i402, align 8
  store ptr %282, ptr %retval.i239, align 8
  %283 = load ptr, ptr %retval.i239, align 8
  store ptr %283, ptr %agg.tmp.i, align 8
  %284 = load ptr, ptr %agg.tmp.i, align 8
  store ptr %284, ptr %that.i257, align 8
  store ptr %retval.i, ptr %this.addr.i258, align 8
  %this3.i259 = load ptr, ptr %this.addr.i258, align 8
  store ptr %this3.i259, ptr %this.addr.i589, align 8
  store ptr %that.i257, ptr %other.addr.i590, align 8
  %this1.i591 = load ptr, ptr %this.addr.i589, align 8
  %285 = load ptr, ptr %other.addr.i590, align 8
  call void @llvm.memcpy.p0.p0.i64(ptr align 8 %this1.i591, ptr align 8 %285, i64 8, i1 false)
  br label %_ZNK2v820FunctionCallbackInfoINS_5ValueEEixEi.exit

if.end.i:                                         ; preds = %lor.lhs.false.i
  %values_.i = getelementptr inbounds %"class.v8::FunctionCallbackInfo", ptr %this1.i, i32 0, i32 1
  %286 = load ptr, ptr %values_.i, align 8
  %287 = load i32, ptr %i.addr.i, align 4
  %idx.ext.i = sext i32 %287 to i64
  %add.ptr.i = getelementptr inbounds i64, ptr %286, i64 %idx.ext.i
  store ptr %add.ptr.i, ptr %slot.addr.i520, align 8
  %288 = load ptr, ptr %slot.addr.i520, align 8
  store ptr %288, ptr %slot.addr.i525, align 8
  %289 = load ptr, ptr %slot.addr.i525, align 8
  store ptr %retval.i524, ptr %this.addr.i568, align 8
  store ptr %289, ptr %location.addr.i569, align 8
  %this1.i570 = load ptr, ptr %this.addr.i568, align 8
  %290 = load ptr, ptr %location.addr.i569, align 8
  store ptr %this1.i570, ptr %this.addr.i.i566, align 8
  store ptr %290, ptr %location.addr.i.i567, align 8
  %this1.i.i571 = load ptr, ptr %this.addr.i.i566, align 8
  %291 = load ptr, ptr %location.addr.i.i567, align 8
  store ptr %291, ptr %this1.i.i571, align 8
  %292 = load ptr, ptr %retval.i524, align 8
  store ptr %292, ptr %ref.tmp.i521, align 8
  store ptr %retval.i519, ptr %this.addr.i.i517, align 8
  store ptr %ref.tmp.i521, ptr %other.addr.i.i518, align 8
  %this1.i.i523 = load ptr, ptr %this.addr.i.i517, align 8
  %293 = load ptr, ptr %other.addr.i.i518, align 8
  call void @llvm.memcpy.p0.p0.i64(ptr align 8 %this1.i.i523, ptr align 8 %293, i64 8, i1 false)
  %294 = load ptr, ptr %retval.i519, align 8
  store ptr %294, ptr %retval.i, align 8
  br label %_ZNK2v820FunctionCallbackInfoINS_5ValueEEixEi.exit

_ZNK2v820FunctionCallbackInfoINS_5ValueEEixEi.exit: ; preds = %if.end.i, %if.then.i
  %295 = load ptr, ptr %retval.i, align 8
  %coerce.dive88 = getelementptr inbounds %"class.v8::Local", ptr %ref.tmp86, i32 0, i32 0
  %coerce.dive89 = getelementptr inbounds %"class.v8::LocalBase", ptr %coerce.dive88, i32 0, i32 0
  %coerce.dive90 = getelementptr inbounds %"class.v8::IndirectHandleBase", ptr %coerce.dive89, i32 0, i32 0
  store ptr %295, ptr %coerce.dive90, align 8
  store ptr %ref.tmp86, ptr %this.addr.i199, align 8
  %this1.i200 = load ptr, ptr %this.addr.i199, align 8
  store ptr %this1.i200, ptr %this.addr.i582, align 8
  %this1.i583 = load ptr, ptr %this.addr.i582, align 8
  store ptr %this1.i583, ptr %this.addr.i.i581, align 8
  %this1.i.i584 = load ptr, ptr %this.addr.i.i581, align 8
  %296 = load ptr, ptr %this1.i.i584, align 8
  store ptr %296, ptr %slot.addr.i586, align 8
  %297 = load ptr, ptr %slot.addr.i586, align 8
  store ptr %297, ptr %this.addr.i211, align 8
  %this1.i212 = load ptr, ptr %this.addr.i211, align 8
  store ptr %this1.i212, ptr %this.addr.i331, align 8
  %this1.i334 = load ptr, ptr %this.addr.i331, align 8
  store ptr %this1.i334, ptr %value.addr.i.i329, align 8
  %298 = load ptr, ptr %value.addr.i.i329, align 8
  %299 = load i64, ptr %298, align 8
  store i64 %299, ptr %obj.i332, align 8
  %300 = load i64, ptr %obj.i332, align 8
  store i64 %300, ptr %value.addr.i9.i328, align 8
  %301 = load i64, ptr %value.addr.i9.i328, align 8
  %and.i.i335 = and i64 %301, 3
  %cmp.i.i336 = icmp eq i64 %and.i.i335, 1
  br i1 %cmp.i.i336, label %if.end.i338, label %if.then.i337

if.then.i337:                                     ; preds = %_ZNK2v820FunctionCallbackInfoINS_5ValueEEixEi.exit
  store i1 false, ptr %retval.i330, align 1
  br label %_ZNK2v85Value22QuickIsNullOrUndefinedEv.exit359

if.end.i338:                                      ; preds = %_ZNK2v820FunctionCallbackInfoINS_5ValueEEixEi.exit
  %302 = load i64, ptr %obj.i332, align 8
  store i64 %302, ptr %obj.addr.i.i326, align 8
  %303 = load i64, ptr %obj.addr.i.i326, align 8
  store i64 %303, ptr %heap_object_ptr.addr.i.i.i324, align 8
  store i32 0, ptr %offset.addr.i.i.i325, align 4
  %304 = load i64, ptr %heap_object_ptr.addr.i.i.i324, align 8
  %305 = load i32, ptr %offset.addr.i.i.i325, align 4
  store i64 %304, ptr %heap_object_ptr.addr.i2.i.i321, align 8
  store i32 %305, ptr %offset.addr.i3.i.i322, align 4
  %306 = load i64, ptr %heap_object_ptr.addr.i2.i.i321, align 8
  %307 = load i32, ptr %offset.addr.i3.i.i322, align 4
  %conv.i.i.i339 = sext i32 %307 to i64
  %add.i.i.i340 = add i64 %306, %conv.i.i.i339
  %sub.i.i.i341 = sub i64 %add.i.i.i340, 1
  store i64 %sub.i.i.i341, ptr %addr.i.i.i323, align 8
  %308 = load i64, ptr %addr.i.i.i323, align 8
  %309 = inttoptr i64 %308 to ptr
  %310 = load i64, ptr %309, align 8
  store i64 %310, ptr %map.i.i327, align 8
  %311 = load i64, ptr %map.i.i327, align 8
  store i64 %311, ptr %heap_object_ptr.addr.i.i317, align 8
  store i32 12, ptr %offset.addr.i.i318, align 4
  %312 = load i64, ptr %heap_object_ptr.addr.i.i317, align 8
  %313 = load i32, ptr %offset.addr.i.i318, align 4
  %conv.i12.i342 = sext i32 %313 to i64
  %add.i.i343 = add i64 %312, %conv.i12.i342
  %sub.i.i344 = sub i64 %add.i.i343, 1
  store i64 %sub.i.i344, ptr %addr.i.i319, align 8
  %314 = load i64, ptr %addr.i.i319, align 8
  %315 = inttoptr i64 %314 to ptr
  %316 = load i16, ptr %315, align 2
  %conv.i.i345 = zext i16 %316 to i32
  %cmp.i346 = icmp ne i32 %conv.i.i345, 131
  br i1 %cmp.i346, label %if.then4.i358, label %if.end5.i347

if.then4.i358:                                    ; preds = %if.end.i338
  store i1 false, ptr %retval.i330, align 1
  br label %_ZNK2v85Value22QuickIsNullOrUndefinedEv.exit359

if.end5.i347:                                     ; preds = %if.end.i338
  %317 = load i64, ptr %obj.i332, align 8
  store i64 %317, ptr %obj.addr.i10.i320, align 8
  %318 = load i64, ptr %obj.addr.i10.i320, align 8
  store i64 %318, ptr %heap_object_ptr.addr.i18.i314, align 8
  store i32 40, ptr %offset.addr.i19.i315, align 4
  %319 = load i64, ptr %heap_object_ptr.addr.i18.i314, align 8
  %320 = load i32, ptr %offset.addr.i19.i315, align 4
  store i64 %319, ptr %heap_object_ptr.addr.i.i15.i311, align 8
  store i32 %320, ptr %offset.addr.i.i16.i312, align 4
  %321 = load i64, ptr %heap_object_ptr.addr.i.i15.i311, align 8
  %322 = load i32, ptr %offset.addr.i.i16.i312, align 4
  %conv.i.i20.i348 = sext i32 %322 to i64
  %add.i.i21.i349 = add i64 %321, %conv.i.i20.i348
  %sub.i.i22.i350 = sub i64 %add.i.i21.i349, 1
  store i64 %sub.i.i22.i350, ptr %addr.i.i17.i313, align 8
  %323 = load i64, ptr %addr.i.i17.i313, align 8
  %324 = inttoptr i64 %323 to ptr
  %325 = load i64, ptr %324, align 8
  store i64 %325, ptr %value.addr.i13.i316, align 8
  %326 = load i64, ptr %value.addr.i13.i316, align 8
  store i64 %326, ptr %value.addr.i23.i309, align 8
  store i32 32, ptr %shift_bits.i.i310, align 4
  %327 = load i64, ptr %value.addr.i23.i309, align 8
  %328 = load i32, ptr %shift_bits.i.i310, align 4
  %sh_prom.i.i351 = zext i32 %328 to i64
  %shr.i.i352 = ashr i64 %327, %sh_prom.i.i351
  %conv.i24.i353 = trunc i64 %shr.i.i352 to i32
  store i32 %conv.i24.i353, ptr %kind.i333, align 4
  %329 = load i32, ptr %kind.i333, align 4
  %cmp7.i354 = icmp eq i32 %329, 3
  br i1 %cmp7.i354, label %lor.end.i357, label %lor.rhs.i355

lor.rhs.i355:                                     ; preds = %if.end5.i347
  %330 = load i32, ptr %kind.i333, align 4
  %cmp8.i356 = icmp eq i32 %330, 5
  br label %lor.end.i357

lor.end.i357:                                     ; preds = %lor.rhs.i355, %if.end5.i347
  %331 = phi i1 [ true, %if.end5.i347 ], [ %cmp8.i356, %lor.rhs.i355 ]
  store i1 %331, ptr %retval.i330, align 1
  br label %_ZNK2v85Value22QuickIsNullOrUndefinedEv.exit359

_ZNK2v85Value22QuickIsNullOrUndefinedEv.exit359:  ; preds = %lor.end.i357, %if.then4.i358, %if.then.i337
  %332 = load i1, ptr %retval.i330, align 1
  br i1 %332, label %land.rhs, label %land.end

land.rhs:                                         ; preds = %_ZNK2v85Value22QuickIsNullOrUndefinedEv.exit359
  %333 = load i8, ptr %needs_passphrase, align 1
  %tobool93 = trunc i8 %333 to i1
  %lnot94 = xor i1 %tobool93, true
  br label %land.end

land.end:                                         ; preds = %land.rhs, %_ZNK2v85Value22QuickIsNullOrUndefinedEv.exit359
  %334 = phi i1 [ false, %_ZNK2v85Value22QuickIsNullOrUndefinedEv.exit359 ], [ %lnot94, %land.rhs ]
  %lnot95 = xor i1 %334, true
  %lnot96 = xor i1 %lnot95, true
  %lnot97 = xor i1 %lnot96, true
  br i1 %lnot97, label %if.then98, label %if.end102

if.then98:                                        ; preds = %land.end
  br label %do.body99

do.body99:                                        ; preds = %if.then98
  call void @_ZN4node6AssertERKNS_13AssertionInfoE(ptr noundef nonnull align 8 dereferenceable(24) @_ZZN4node6crypto14ManagedEVPPKey27GetPrivateKeyEncodingFromJsERKN2v820FunctionCallbackInfoINS2_5ValueEEEPjNS0_18KeyEncodingContextEE4args_1)
  call void @abort() #14
  unreachable

do.cond100:                                       ; No predecessors!
  br label %do.end101

do.end101:                                        ; preds = %do.cond100
  br label %if.end102

if.end102:                                        ; preds = %do.end101, %land.end
  br label %do.cond103

do.cond103:                                       ; preds = %if.end102
  br label %do.end104

do.end104:                                        ; preds = %do.cond103
  br label %if.end105

if.end105:                                        ; preds = %do.end104, %if.end80
  br label %if.end106

if.end106:                                        ; preds = %if.end105, %if.end
  %335 = load ptr, ptr %offset.addr, align 8
  %336 = load i32, ptr %335, align 4
  %inc107 = add i32 %336, 1
  store i32 %inc107, ptr %335, align 4
  call void @_ZN4node16NonCopyableMaybeINS_6crypto24PrivateKeyEncodingConfigEEC2EOS2_(ptr noundef nonnull align 8 dereferenceable(64) %agg.result, ptr noundef nonnull align 8 dereferenceable(56) %result)
  store i32 1, ptr %cleanup.dest.slot, align 4
  br label %cleanup108

cleanup108:                                       ; preds = %if.end106, %if.then79, %cleanup
  call void @_ZN4node6crypto24PrivateKeyEncodingConfigD2Ev(ptr noundef nonnull align 8 dereferenceable(56) %result) #3
  ret void
}

; Function Attrs: mustprogress nounwind uwtable
define linkonce_odr dso_local noundef ptr @_ZN4node11Environment10GetCurrentERKN2v820FunctionCallbackInfoINS1_5ValueEEE(ptr noundef nonnull align 8 dereferenceable(20) %info) #4 comdat align 2 {
entry:
  %this.addr.i = alloca ptr, align 8
  %info.addr = alloca ptr, align 8
  %agg.tmp = alloca %"class.v8::Local.304", align 8
  store ptr %info, ptr %info.addr, align 8
  %0 = load ptr, ptr %info.addr, align 8
  store ptr %0, ptr %this.addr.i, align 8
  %this1.i = load ptr, ptr %this.addr.i, align 8
  %1 = load ptr, ptr %this1.i, align 8
  %arrayidx.i = getelementptr inbounds i64, ptr %1, i64 1
  %2 = load ptr, ptr %arrayidx.i, align 8
  %call1 = call ptr @_ZN2v87Isolate17GetCurrentContextEv(ptr noundef nonnull align 1 dereferenceable(1) %2)
  %coerce.dive = getelementptr inbounds %"class.v8::Local.304", ptr %agg.tmp, i32 0, i32 0
  %coerce.dive2 = getelementptr inbounds %"class.v8::LocalBase.305", ptr %coerce.dive, i32 0, i32 0
  %coerce.dive3 = getelementptr inbounds %"class.v8::IndirectHandleBase", ptr %coerce.dive2, i32 0, i32 0
  store ptr %call1, ptr %coerce.dive3, align 8
  %coerce.dive4 = getelementptr inbounds %"class.v8::Local.304", ptr %agg.tmp, i32 0, i32 0
  %coerce.dive5 = getelementptr inbounds %"class.v8::LocalBase.305", ptr %coerce.dive4, i32 0, i32 0
  %coerce.dive6 = getelementptr inbounds %"class.v8::IndirectHandleBase", ptr %coerce.dive5, i32 0, i32 0
  %3 = load ptr, ptr %coerce.dive6, align 8
  %call7 = call noundef ptr @_ZN4node11Environment10GetCurrentEN2v85LocalINS1_7ContextEEE(ptr %3)
  ret ptr %call7
}

; Function Attrs: mustprogress nounwind uwtable
define linkonce_odr dso_local void @_ZN4node6crypto24PrivateKeyEncodingConfigC2Ev(ptr noundef nonnull align 8 dereferenceable(56) %this) unnamed_addr #4 comdat align 2 {
entry:
  %this.addr = alloca ptr, align 8
  store ptr %this, ptr %this.addr, align 8
  %this1 = load ptr, ptr %this.addr, align 8
  call void @_ZN4node6crypto27AsymmetricKeyEncodingConfigC2Ev(ptr noundef nonnull align 4 dereferenceable(16) %this1)
  %passphrase_ = getelementptr inbounds %"struct.node::crypto::PrivateKeyEncodingConfig", ptr %this1, i32 0, i32 2
  call void @_ZN4node16NonCopyableMaybeINS_6crypto10ByteSourceEEC2Ev(ptr noundef nonnull align 8 dereferenceable(32) %passphrase_)
  ret void
}

; Function Attrs: mustprogress nounwind uwtable
define internal void @_ZN4node6crypto12_GLOBAL__N_125GetKeyFormatAndTypeFromJsEPNS0_27AsymmetricKeyEncodingConfigERKN2v820FunctionCallbackInfoINS4_5ValueEEEPjNS0_18KeyEncodingContextE(ptr noundef %config, ptr noundef nonnull align 8 dereferenceable(20) %args, ptr noundef %offset, i32 noundef %context) #4 {
entry:
  %this.addr.i762 = alloca ptr, align 8
  %other.addr.i763 = alloca ptr, align 8
  %this.addr.i759 = alloca ptr, align 8
  %other.addr.i760 = alloca ptr, align 8
  %this.addr.i756 = alloca ptr, align 8
  %other.addr.i757 = alloca ptr, align 8
  %this.addr.i753 = alloca ptr, align 8
  %other.addr.i754 = alloca ptr, align 8
  %this.addr.i750 = alloca ptr, align 8
  %other.addr.i751 = alloca ptr, align 8
  %this.addr.i747 = alloca ptr, align 8
  %other.addr.i748 = alloca ptr, align 8
  %this.addr.i744 = alloca ptr, align 8
  %other.addr.i745 = alloca ptr, align 8
  %slot.addr.i743 = alloca ptr, align 8
  %slot.addr.i742 = alloca ptr, align 8
  %this.addr.i.i737 = alloca ptr, align 8
  %this.addr.i738 = alloca ptr, align 8
  %this.addr.i.i733 = alloca ptr, align 8
  %this.addr.i734 = alloca ptr, align 8
  %this.addr.i730 = alloca ptr, align 8
  %other.addr.i731 = alloca ptr, align 8
  %this.addr.i727 = alloca ptr, align 8
  %other.addr.i728 = alloca ptr, align 8
  %this.addr.i724 = alloca ptr, align 8
  %other.addr.i725 = alloca ptr, align 8
  %this.addr.i721 = alloca ptr, align 8
  %other.addr.i722 = alloca ptr, align 8
  %retval.i718 = alloca %"class.v8::Local.332", align 8
  %that.i719 = alloca %"class.v8::Local", align 8
  %ref.tmp.i720 = alloca %"class.v8::LocalBase.333", align 8
  %retval.i715 = alloca %"class.v8::Local.332", align 8
  %that.i716 = alloca %"class.v8::Local", align 8
  %ref.tmp.i717 = alloca %"class.v8::LocalBase.333", align 8
  %slot.addr.i714 = alloca ptr, align 8
  %slot.addr.i713 = alloca ptr, align 8
  %slot.addr.i712 = alloca ptr, align 8
  %slot.addr.i711 = alloca ptr, align 8
  %slot.addr.i710 = alloca ptr, align 8
  %this.addr.i.i705 = alloca ptr, align 8
  %this.addr.i706 = alloca ptr, align 8
  %this.addr.i.i700 = alloca ptr, align 8
  %this.addr.i701 = alloca ptr, align 8
  %this.addr.i.i695 = alloca ptr, align 8
  %this.addr.i696 = alloca ptr, align 8
  %this.addr.i.i690 = alloca ptr, align 8
  %this.addr.i691 = alloca ptr, align 8
  %this.addr.i.i686 = alloca ptr, align 8
  %this.addr.i687 = alloca ptr, align 8
  %this.addr.i.i680 = alloca ptr, align 8
  %location.addr.i.i681 = alloca ptr, align 8
  %this.addr.i682 = alloca ptr, align 8
  %location.addr.i683 = alloca ptr, align 8
  %this.addr.i.i674 = alloca ptr, align 8
  %location.addr.i.i675 = alloca ptr, align 8
  %this.addr.i676 = alloca ptr, align 8
  %location.addr.i677 = alloca ptr, align 8
  %this.addr.i.i668 = alloca ptr, align 8
  %location.addr.i.i669 = alloca ptr, align 8
  %this.addr.i670 = alloca ptr, align 8
  %location.addr.i671 = alloca ptr, align 8
  %this.addr.i.i662 = alloca ptr, align 8
  %location.addr.i.i663 = alloca ptr, align 8
  %this.addr.i664 = alloca ptr, align 8
  %location.addr.i665 = alloca ptr, align 8
  %this.addr.i.i656 = alloca ptr, align 8
  %location.addr.i.i657 = alloca ptr, align 8
  %this.addr.i658 = alloca ptr, align 8
  %location.addr.i659 = alloca ptr, align 8
  %this.addr.i.i650 = alloca ptr, align 8
  %location.addr.i.i651 = alloca ptr, align 8
  %this.addr.i652 = alloca ptr, align 8
  %location.addr.i653 = alloca ptr, align 8
  %this.addr.i.i644 = alloca ptr, align 8
  %location.addr.i.i645 = alloca ptr, align 8
  %this.addr.i646 = alloca ptr, align 8
  %location.addr.i647 = alloca ptr, align 8
  %retval.i642 = alloca %"class.v8::LocalBase", align 8
  %slot.addr.i643 = alloca ptr, align 8
  %retval.i640 = alloca %"class.v8::LocalBase", align 8
  %slot.addr.i641 = alloca ptr, align 8
  %retval.i638 = alloca %"class.v8::LocalBase", align 8
  %slot.addr.i639 = alloca ptr, align 8
  %retval.i636 = alloca %"class.v8::LocalBase", align 8
  %slot.addr.i637 = alloca ptr, align 8
  %retval.i634 = alloca %"class.v8::LocalBase", align 8
  %slot.addr.i635 = alloca ptr, align 8
  %retval.i632 = alloca %"class.v8::LocalBase", align 8
  %slot.addr.i633 = alloca ptr, align 8
  %retval.i630 = alloca %"class.v8::LocalBase", align 8
  %slot.addr.i631 = alloca ptr, align 8
  %this.addr.i.i623 = alloca ptr, align 8
  %other.addr.i.i624 = alloca ptr, align 8
  %retval.i625 = alloca %"class.v8::Local", align 8
  %slot.addr.i626 = alloca ptr, align 8
  %ref.tmp.i627 = alloca %"class.v8::LocalBase", align 8
  %this.addr.i.i616 = alloca ptr, align 8
  %other.addr.i.i617 = alloca ptr, align 8
  %retval.i618 = alloca %"class.v8::Local", align 8
  %slot.addr.i619 = alloca ptr, align 8
  %ref.tmp.i620 = alloca %"class.v8::LocalBase", align 8
  %this.addr.i.i609 = alloca ptr, align 8
  %other.addr.i.i610 = alloca ptr, align 8
  %retval.i611 = alloca %"class.v8::Local", align 8
  %slot.addr.i612 = alloca ptr, align 8
  %ref.tmp.i613 = alloca %"class.v8::LocalBase", align 8
  %this.addr.i.i602 = alloca ptr, align 8
  %other.addr.i.i603 = alloca ptr, align 8
  %retval.i604 = alloca %"class.v8::Local", align 8
  %slot.addr.i605 = alloca ptr, align 8
  %ref.tmp.i606 = alloca %"class.v8::LocalBase", align 8
  %this.addr.i.i595 = alloca ptr, align 8
  %other.addr.i.i596 = alloca ptr, align 8
  %retval.i597 = alloca %"class.v8::Local", align 8
  %slot.addr.i598 = alloca ptr, align 8
  %ref.tmp.i599 = alloca %"class.v8::LocalBase", align 8
  %this.addr.i.i588 = alloca ptr, align 8
  %other.addr.i.i589 = alloca ptr, align 8
  %retval.i590 = alloca %"class.v8::Local", align 8
  %slot.addr.i591 = alloca ptr, align 8
  %ref.tmp.i592 = alloca %"class.v8::LocalBase", align 8
  %this.addr.i.i583 = alloca ptr, align 8
  %other.addr.i.i = alloca ptr, align 8
  %retval.i584 = alloca %"class.v8::Local", align 8
  %slot.addr.i585 = alloca ptr, align 8
  %ref.tmp.i586 = alloca %"class.v8::LocalBase", align 8
  %this.addr.i.i577 = alloca ptr, align 8
  %location.addr.i.i578 = alloca ptr, align 8
  %this.addr.i579 = alloca ptr, align 8
  %location.addr.i580 = alloca ptr, align 8
  %this.addr.i.i571 = alloca ptr, align 8
  %location.addr.i.i572 = alloca ptr, align 8
  %this.addr.i573 = alloca ptr, align 8
  %location.addr.i574 = alloca ptr, align 8
  %this.addr.i.i565 = alloca ptr, align 8
  %location.addr.i.i566 = alloca ptr, align 8
  %this.addr.i567 = alloca ptr, align 8
  %location.addr.i568 = alloca ptr, align 8
  %this.addr.i.i559 = alloca ptr, align 8
  %location.addr.i.i560 = alloca ptr, align 8
  %this.addr.i561 = alloca ptr, align 8
  %location.addr.i562 = alloca ptr, align 8
  %this.addr.i.i553 = alloca ptr, align 8
  %location.addr.i.i554 = alloca ptr, align 8
  %this.addr.i555 = alloca ptr, align 8
  %location.addr.i556 = alloca ptr, align 8
  %this.addr.i.i547 = alloca ptr, align 8
  %location.addr.i.i548 = alloca ptr, align 8
  %this.addr.i549 = alloca ptr, align 8
  %location.addr.i550 = alloca ptr, align 8
  %this.addr.i.i = alloca ptr, align 8
  %location.addr.i.i = alloca ptr, align 8
  %this.addr.i545 = alloca ptr, align 8
  %location.addr.i = alloca ptr, align 8
  %this.addr.i542 = alloca ptr, align 8
  %other.addr.i543 = alloca ptr, align 8
  %this.addr.i539 = alloca ptr, align 8
  %other.addr.i540 = alloca ptr, align 8
  %this.addr.i536 = alloca ptr, align 8
  %other.addr.i537 = alloca ptr, align 8
  %this.addr.i533 = alloca ptr, align 8
  %other.addr.i534 = alloca ptr, align 8
  %this.addr.i530 = alloca ptr, align 8
  %other.addr.i531 = alloca ptr, align 8
  %this.addr.i527 = alloca ptr, align 8
  %other.addr.i528 = alloca ptr, align 8
  %this.addr.i525 = alloca ptr, align 8
  %other.addr.i = alloca ptr, align 8
  %retval.i523 = alloca %"class.v8::LocalBase.335", align 8
  %slot.addr.i524 = alloca ptr, align 8
  %retval.i521 = alloca %"class.v8::LocalBase.335", align 8
  %slot.addr.i522 = alloca ptr, align 8
  %retval.i519 = alloca %"class.v8::LocalBase.335", align 8
  %slot.addr.i520 = alloca ptr, align 8
  %retval.i517 = alloca %"class.v8::LocalBase.335", align 8
  %slot.addr.i518 = alloca ptr, align 8
  %retval.i515 = alloca %"class.v8::LocalBase.335", align 8
  %slot.addr.i516 = alloca ptr, align 8
  %retval.i513 = alloca %"class.v8::LocalBase.335", align 8
  %slot.addr.i514 = alloca ptr, align 8
  %retval.i511 = alloca %"class.v8::LocalBase.335", align 8
  %slot.addr.i512 = alloca ptr, align 8
  %retval.i507 = alloca %"class.v8::Local.334", align 8
  %slot.addr.i508 = alloca ptr, align 8
  %ref.tmp.i509 = alloca %"class.v8::LocalBase.335", align 8
  %retval.i503 = alloca %"class.v8::Local.334", align 8
  %slot.addr.i504 = alloca ptr, align 8
  %ref.tmp.i505 = alloca %"class.v8::LocalBase.335", align 8
  %retval.i499 = alloca %"class.v8::Local.334", align 8
  %slot.addr.i500 = alloca ptr, align 8
  %ref.tmp.i501 = alloca %"class.v8::LocalBase.335", align 8
  %retval.i495 = alloca %"class.v8::Local.334", align 8
  %slot.addr.i496 = alloca ptr, align 8
  %ref.tmp.i497 = alloca %"class.v8::LocalBase.335", align 8
  %retval.i491 = alloca %"class.v8::Local.334", align 8
  %slot.addr.i492 = alloca ptr, align 8
  %ref.tmp.i493 = alloca %"class.v8::LocalBase.335", align 8
  %retval.i487 = alloca %"class.v8::Local.334", align 8
  %slot.addr.i488 = alloca ptr, align 8
  %ref.tmp.i489 = alloca %"class.v8::LocalBase.335", align 8
  %retval.i486 = alloca %"class.v8::Local.334", align 8
  %slot.addr.i = alloca ptr, align 8
  %ref.tmp.i = alloca %"class.v8::LocalBase.335", align 8
  %isolate.addr.i479 = alloca ptr, align 8
  %index.addr.i480 = alloca i32, align 4
  %addr.i481 = alloca i64, align 8
  %isolate.addr.i472 = alloca ptr, align 8
  %index.addr.i473 = alloca i32, align 4
  %addr.i474 = alloca i64, align 8
  %isolate.addr.i465 = alloca ptr, align 8
  %index.addr.i466 = alloca i32, align 4
  %addr.i467 = alloca i64, align 8
  %isolate.addr.i458 = alloca ptr, align 8
  %index.addr.i459 = alloca i32, align 4
  %addr.i460 = alloca i64, align 8
  %isolate.addr.i451 = alloca ptr, align 8
  %index.addr.i452 = alloca i32, align 4
  %addr.i453 = alloca i64, align 8
  %isolate.addr.i444 = alloca ptr, align 8
  %index.addr.i445 = alloca i32, align 4
  %addr.i446 = alloca i64, align 8
  %isolate.addr.i440 = alloca ptr, align 8
  %index.addr.i = alloca i32, align 4
  %addr.i441 = alloca i64, align 8
  %isolate.addr.i439 = alloca ptr, align 8
  %isolate.addr.i438 = alloca ptr, align 8
  %isolate.addr.i437 = alloca ptr, align 8
  %isolate.addr.i436 = alloca ptr, align 8
  %isolate.addr.i435 = alloca ptr, align 8
  %isolate.addr.i434 = alloca ptr, align 8
  %isolate.addr.i433 = alloca ptr, align 8
  %value.addr.i23.i = alloca i64, align 8
  %shift_bits.i.i = alloca i32, align 4
  %heap_object_ptr.addr.i.i15.i = alloca i64, align 8
  %offset.addr.i.i16.i = alloca i32, align 4
  %addr.i.i17.i = alloca i64, align 8
  %heap_object_ptr.addr.i18.i = alloca i64, align 8
  %offset.addr.i19.i = alloca i32, align 4
  %value.addr.i13.i = alloca i64, align 8
  %heap_object_ptr.addr.i.i417 = alloca i64, align 8
  %offset.addr.i.i418 = alloca i32, align 4
  %addr.i.i419 = alloca i64, align 8
  %obj.addr.i10.i = alloca i64, align 8
  %heap_object_ptr.addr.i2.i.i = alloca i64, align 8
  %offset.addr.i3.i.i = alloca i32, align 4
  %addr.i.i.i = alloca i64, align 8
  %heap_object_ptr.addr.i.i.i = alloca i64, align 8
  %offset.addr.i.i.i = alloca i32, align 4
  %obj.addr.i.i = alloca i64, align 8
  %map.i.i = alloca i64, align 8
  %value.addr.i9.i = alloca i64, align 8
  %value.addr.i.i = alloca ptr, align 8
  %retval.i420 = alloca i1, align 1
  %this.addr.i421 = alloca ptr, align 8
  %obj.i422 = alloca i64, align 8
  %kind.i = alloca i32, align 4
  %value.addr.i412 = alloca i64, align 8
  %shift_bits.i413 = alloca i32, align 4
  %value.addr.i410 = alloca i64, align 8
  %shift_bits.i = alloca i32, align 4
  %heap_object_ptr.addr.i.i402 = alloca i64, align 8
  %offset.addr.i.i403 = alloca i32, align 4
  %addr.i.i404 = alloca i64, align 8
  %heap_object_ptr.addr.i405 = alloca i64, align 8
  %offset.addr.i406 = alloca i32, align 4
  %heap_object_ptr.addr.i.i394 = alloca i64, align 8
  %offset.addr.i.i395 = alloca i32, align 4
  %addr.i.i396 = alloca i64, align 8
  %heap_object_ptr.addr.i397 = alloca i64, align 8
  %offset.addr.i398 = alloca i32, align 4
  %value.addr.i392 = alloca i64, align 8
  %value.addr.i390 = alloca i64, align 8
  %heap_object_ptr.addr.i384 = alloca i64, align 8
  %offset.addr.i385 = alloca i32, align 4
  %addr.i386 = alloca i64, align 8
  %heap_object_ptr.addr.i = alloca i64, align 8
  %offset.addr.i = alloca i32, align 4
  %addr.i = alloca i64, align 8
  %obj.addr.i380 = alloca i64, align 8
  %obj.addr.i378 = alloca i64, align 8
  %heap_object_ptr.addr.i2.i366 = alloca i64, align 8
  %offset.addr.i3.i367 = alloca i32, align 4
  %addr.i.i368 = alloca i64, align 8
  %heap_object_ptr.addr.i.i369 = alloca i64, align 8
  %offset.addr.i.i370 = alloca i32, align 4
  %obj.addr.i371 = alloca i64, align 8
  %map.i372 = alloca i64, align 8
  %heap_object_ptr.addr.i2.i = alloca i64, align 8
  %offset.addr.i3.i = alloca i32, align 4
  %addr.i.i = alloca i64, align 8
  %heap_object_ptr.addr.i.i = alloca i64, align 8
  %offset.addr.i.i = alloca i32, align 4
  %obj.addr.i = alloca i64, align 8
  %map.i = alloca i64, align 8
  %value.addr.i362 = alloca i64, align 8
  %value.addr.i360 = alloca i64, align 8
  %value.addr.i359 = alloca ptr, align 8
  %value.addr.i = alloca ptr, align 8
  %retval.i344 = alloca i1, align 1
  %this.addr.i345 = alloca ptr, align 8
  %obj.i346 = alloca i64, align 8
  %retval.i337 = alloca i1, align 1
  %this.addr.i338 = alloca ptr, align 8
  %obj.i = alloca i64, align 8
  %this.addr.i334 = alloca ptr, align 8
  %this.addr.i332 = alloca ptr, align 8
  %this.addr.i329 = alloca ptr, align 8
  %this.addr.i326 = alloca ptr, align 8
  %this.addr.i323 = alloca ptr, align 8
  %this.addr.i320 = alloca ptr, align 8
  %this.addr.i317 = alloca ptr, align 8
  %this.addr.i314 = alloca ptr, align 8
  %this.addr.i312 = alloca ptr, align 8
  %that.i309 = alloca %"class.v8::Local.334", align 8
  %this.addr.i310 = alloca ptr, align 8
  %that.i306 = alloca %"class.v8::Local.334", align 8
  %this.addr.i307 = alloca ptr, align 8
  %that.i303 = alloca %"class.v8::Local.334", align 8
  %this.addr.i304 = alloca ptr, align 8
  %that.i300 = alloca %"class.v8::Local.334", align 8
  %this.addr.i301 = alloca ptr, align 8
  %that.i297 = alloca %"class.v8::Local.334", align 8
  %this.addr.i298 = alloca ptr, align 8
  %that.i294 = alloca %"class.v8::Local.334", align 8
  %this.addr.i295 = alloca ptr, align 8
  %that.i = alloca %"class.v8::Local.334", align 8
  %this.addr.i293 = alloca ptr, align 8
  %retval.i288 = alloca %"class.v8::Local.334", align 8
  %isolate.addr.i289 = alloca ptr, align 8
  %slot.i290 = alloca ptr, align 8
  %retval.i283 = alloca %"class.v8::Local.334", align 8
  %isolate.addr.i284 = alloca ptr, align 8
  %slot.i285 = alloca ptr, align 8
  %retval.i278 = alloca %"class.v8::Local.334", align 8
  %isolate.addr.i279 = alloca ptr, align 8
  %slot.i280 = alloca ptr, align 8
  %retval.i273 = alloca %"class.v8::Local.334", align 8
  %isolate.addr.i274 = alloca ptr, align 8
  %slot.i275 = alloca ptr, align 8
  %retval.i268 = alloca %"class.v8::Local.334", align 8
  %isolate.addr.i269 = alloca ptr, align 8
  %slot.i270 = alloca ptr, align 8
  %retval.i263 = alloca %"class.v8::Local.334", align 8
  %isolate.addr.i264 = alloca ptr, align 8
  %slot.i265 = alloca ptr, align 8
  %retval.i261 = alloca %"class.v8::Local.334", align 8
  %isolate.addr.i = alloca ptr, align 8
  %slot.i = alloca ptr, align 8
  %this.addr.i258 = alloca ptr, align 8
  %this.addr.i255 = alloca ptr, align 8
  %retval.i250 = alloca %"class.v8::Local.332", align 8
  %this.addr.i251 = alloca ptr, align 8
  %agg.tmp.i252 = alloca %"class.v8::Local", align 8
  %retval.i245 = alloca %"class.v8::Local.332", align 8
  %this.addr.i246 = alloca ptr, align 8
  %agg.tmp.i247 = alloca %"class.v8::Local", align 8
  %this.addr.i242 = alloca ptr, align 8
  %this.addr.i239 = alloca ptr, align 8
  %this.addr.i236 = alloca ptr, align 8
  %this.addr.i233 = alloca ptr, align 8
  %this.addr.i230 = alloca ptr, align 8
  %this.addr.i227 = alloca ptr, align 8
  %retval.i209 = alloca %"class.v8::Local", align 8
  %this.addr.i210 = alloca ptr, align 8
  %i.addr.i211 = alloca i32, align 4
  %agg.tmp.i212 = alloca %"class.v8::Local.334", align 8
  %retval.i191 = alloca %"class.v8::Local", align 8
  %this.addr.i192 = alloca ptr, align 8
  %i.addr.i193 = alloca i32, align 4
  %agg.tmp.i194 = alloca %"class.v8::Local.334", align 8
  %retval.i173 = alloca %"class.v8::Local", align 8
  %this.addr.i174 = alloca ptr, align 8
  %i.addr.i175 = alloca i32, align 4
  %agg.tmp.i176 = alloca %"class.v8::Local.334", align 8
  %retval.i155 = alloca %"class.v8::Local", align 8
  %this.addr.i156 = alloca ptr, align 8
  %i.addr.i157 = alloca i32, align 4
  %agg.tmp.i158 = alloca %"class.v8::Local.334", align 8
  %retval.i137 = alloca %"class.v8::Local", align 8
  %this.addr.i138 = alloca ptr, align 8
  %i.addr.i139 = alloca i32, align 4
  %agg.tmp.i140 = alloca %"class.v8::Local.334", align 8
  %retval.i119 = alloca %"class.v8::Local", align 8
  %this.addr.i120 = alloca ptr, align 8
  %i.addr.i121 = alloca i32, align 4
  %agg.tmp.i122 = alloca %"class.v8::Local.334", align 8
  %retval.i = alloca %"class.v8::Local", align 8
  %this.addr.i = alloca ptr, align 8
  %i.addr.i = alloca i32, align 4
  %agg.tmp.i = alloca %"class.v8::Local.334", align 8
  %config.addr = alloca ptr, align 8
  %args.addr = alloca ptr, align 8
  %offset.addr = alloca ptr, align 8
  %context.addr = alloca i32, align 4
  %ref.tmp = alloca %"class.v8::Local", align 8
  %ref.tmp11 = alloca %"class.v8::Local", align 8
  %ref.tmp28 = alloca %"class.v8::Local", align 8
  %ref.tmp43 = alloca %"class.v8::Local.332", align 8
  %ref.tmp44 = alloca %"class.v8::Local", align 8
  %ref.tmp55 = alloca %"class.v8::Local", align 8
  %ref.tmp64 = alloca %"class.v8::Maybe.12", align 4
  %ref.tmp65 = alloca i32, align 4
  %ref.tmp66 = alloca %"class.v8::Local.332", align 8
  %ref.tmp67 = alloca %"class.v8::Local", align 8
  %ref.tmp97 = alloca %"class.v8::Local", align 8
  %ref.tmp113 = alloca %"class.v8::Maybe.12", align 4
  store ptr %config, ptr %config.addr, align 8
  store ptr %args, ptr %args.addr, align 8
  store ptr %offset, ptr %offset.addr, align 8
  store i32 %context, ptr %context.addr, align 4
  %0 = load ptr, ptr %args.addr, align 8
  %1 = load ptr, ptr %offset.addr, align 8
  %2 = load i32, ptr %1, align 4
  store ptr %0, ptr %this.addr.i210, align 8
  store i32 %2, ptr %i.addr.i211, align 4
  %this1.i213 = load ptr, ptr %this.addr.i210, align 8
  %3 = load i32, ptr %i.addr.i211, align 4
  %cmp.i214 = icmp slt i32 %3, 0
  br i1 %cmp.i214, label %if.then.i223, label %lor.lhs.false.i215

lor.lhs.false.i215:                               ; preds = %entry
  %length_.i216 = getelementptr inbounds %"class.v8::FunctionCallbackInfo", ptr %this1.i213, i32 0, i32 2
  %4 = load i32, ptr %length_.i216, align 8
  %5 = load i32, ptr %i.addr.i211, align 4
  %cmp2.i217 = icmp sle i32 %4, %5
  br i1 %cmp2.i217, label %if.then.i223, label %if.end.i218

if.then.i223:                                     ; preds = %lor.lhs.false.i215, %entry
  store ptr %this1.i213, ptr %this.addr.i312, align 8
  %this1.i313 = load ptr, ptr %this.addr.i312, align 8
  %6 = load ptr, ptr %this1.i313, align 8
  %arrayidx.i = getelementptr inbounds i64, ptr %6, i64 1
  %7 = load ptr, ptr %arrayidx.i, align 8
  store ptr %7, ptr %isolate.addr.i, align 8
  %8 = load ptr, ptr %isolate.addr.i, align 8
  store ptr %8, ptr %isolate.addr.i439, align 8
  %9 = load ptr, ptr %isolate.addr.i, align 8
  store ptr %9, ptr %isolate.addr.i479, align 8
  store i32 4, ptr %index.addr.i480, align 4
  %10 = load ptr, ptr %isolate.addr.i479, align 8
  %11 = ptrtoint ptr %10 to i64
  %add.i482 = add i64 %11, 576
  %12 = load i32, ptr %index.addr.i480, align 4
  %mul.i483 = mul nsw i32 %12, 8
  %conv.i484 = sext i32 %mul.i483 to i64
  %add1.i485 = add i64 %add.i482, %conv.i484
  store i64 %add1.i485, ptr %addr.i481, align 8
  %13 = load i64, ptr %addr.i481, align 8
  %14 = inttoptr i64 %13 to ptr
  store ptr %14, ptr %slot.i, align 8
  %15 = load ptr, ptr %slot.i, align 8
  store ptr %15, ptr %slot.addr.i508, align 8
  %16 = load ptr, ptr %slot.addr.i508, align 8
  store ptr %16, ptr %slot.addr.i512, align 8
  %17 = load ptr, ptr %slot.addr.i512, align 8
  store ptr %retval.i511, ptr %this.addr.i579, align 8
  store ptr %17, ptr %location.addr.i580, align 8
  %this1.i581 = load ptr, ptr %this.addr.i579, align 8
  %18 = load ptr, ptr %location.addr.i580, align 8
  store ptr %this1.i581, ptr %this.addr.i.i577, align 8
  store ptr %18, ptr %location.addr.i.i578, align 8
  %this1.i.i582 = load ptr, ptr %this.addr.i.i577, align 8
  %19 = load ptr, ptr %location.addr.i.i578, align 8
  store ptr %19, ptr %this1.i.i582, align 8
  %20 = load ptr, ptr %retval.i511, align 8
  store ptr %20, ptr %ref.tmp.i509, align 8
  store ptr %retval.i507, ptr %this.addr.i525, align 8
  store ptr %ref.tmp.i509, ptr %other.addr.i, align 8
  %this1.i526 = load ptr, ptr %this.addr.i525, align 8
  %21 = load ptr, ptr %other.addr.i, align 8
  call void @llvm.memcpy.p0.p0.i64(ptr align 8 %this1.i526, ptr align 8 %21, i64 8, i1 false)
  %22 = load ptr, ptr %retval.i507, align 8
  store ptr %22, ptr %retval.i261, align 8
  %23 = load ptr, ptr %retval.i261, align 8
  store ptr %23, ptr %agg.tmp.i212, align 8
  %24 = load ptr, ptr %agg.tmp.i212, align 8
  store ptr %24, ptr %that.i, align 8
  store ptr %retval.i209, ptr %this.addr.i293, align 8
  %this3.i = load ptr, ptr %this.addr.i293, align 8
  store ptr %this3.i, ptr %this.addr.i762, align 8
  store ptr %that.i, ptr %other.addr.i763, align 8
  %this1.i764 = load ptr, ptr %this.addr.i762, align 8
  %25 = load ptr, ptr %other.addr.i763, align 8
  call void @llvm.memcpy.p0.p0.i64(ptr align 8 %this1.i764, ptr align 8 %25, i64 8, i1 false)
  br label %_ZNK2v820FunctionCallbackInfoINS_5ValueEEixEi.exit226

if.end.i218:                                      ; preds = %lor.lhs.false.i215
  %values_.i219 = getelementptr inbounds %"class.v8::FunctionCallbackInfo", ptr %this1.i213, i32 0, i32 1
  %26 = load ptr, ptr %values_.i219, align 8
  %27 = load i32, ptr %i.addr.i211, align 4
  %idx.ext.i220 = sext i32 %27 to i64
  %add.ptr.i221 = getelementptr inbounds i64, ptr %26, i64 %idx.ext.i220
  store ptr %add.ptr.i221, ptr %slot.addr.i585, align 8
  %28 = load ptr, ptr %slot.addr.i585, align 8
  store ptr %28, ptr %slot.addr.i643, align 8
  %29 = load ptr, ptr %slot.addr.i643, align 8
  store ptr %retval.i642, ptr %this.addr.i646, align 8
  store ptr %29, ptr %location.addr.i647, align 8
  %this1.i648 = load ptr, ptr %this.addr.i646, align 8
  %30 = load ptr, ptr %location.addr.i647, align 8
  store ptr %this1.i648, ptr %this.addr.i.i644, align 8
  store ptr %30, ptr %location.addr.i.i645, align 8
  %this1.i.i649 = load ptr, ptr %this.addr.i.i644, align 8
  %31 = load ptr, ptr %location.addr.i.i645, align 8
  store ptr %31, ptr %this1.i.i649, align 8
  %32 = load ptr, ptr %retval.i642, align 8
  store ptr %32, ptr %ref.tmp.i586, align 8
  store ptr %retval.i584, ptr %this.addr.i.i583, align 8
  store ptr %ref.tmp.i586, ptr %other.addr.i.i, align 8
  %this1.i.i587 = load ptr, ptr %this.addr.i.i583, align 8
  %33 = load ptr, ptr %other.addr.i.i, align 8
  call void @llvm.memcpy.p0.p0.i64(ptr align 8 %this1.i.i587, ptr align 8 %33, i64 8, i1 false)
  %34 = load ptr, ptr %retval.i584, align 8
  store ptr %34, ptr %retval.i209, align 8
  br label %_ZNK2v820FunctionCallbackInfoINS_5ValueEEixEi.exit226

_ZNK2v820FunctionCallbackInfoINS_5ValueEEixEi.exit226: ; preds = %if.end.i218, %if.then.i223
  %35 = load ptr, ptr %retval.i209, align 8
  %coerce.dive = getelementptr inbounds %"class.v8::Local", ptr %ref.tmp, i32 0, i32 0
  %coerce.dive1 = getelementptr inbounds %"class.v8::LocalBase", ptr %coerce.dive, i32 0, i32 0
  %coerce.dive2 = getelementptr inbounds %"class.v8::IndirectHandleBase", ptr %coerce.dive1, i32 0, i32 0
  store ptr %35, ptr %coerce.dive2, align 8
  store ptr %ref.tmp, ptr %this.addr.i239, align 8
  %this1.i240 = load ptr, ptr %this.addr.i239, align 8
  store ptr %this1.i240, ptr %this.addr.i687, align 8
  %this1.i688 = load ptr, ptr %this.addr.i687, align 8
  store ptr %this1.i688, ptr %this.addr.i.i686, align 8
  %this1.i.i689 = load ptr, ptr %this.addr.i.i686, align 8
  %36 = load ptr, ptr %this1.i.i689, align 8
  store ptr %36, ptr %slot.addr.i714, align 8
  %37 = load ptr, ptr %slot.addr.i714, align 8
  store ptr %37, ptr %this.addr.i334, align 8
  %this1.i335 = load ptr, ptr %this.addr.i334, align 8
  store ptr %this1.i335, ptr %this.addr.i338, align 8
  %this1.i339 = load ptr, ptr %this.addr.i338, align 8
  store ptr %this1.i339, ptr %value.addr.i359, align 8
  %38 = load ptr, ptr %value.addr.i359, align 8
  %39 = load i64, ptr %38, align 8
  store i64 %39, ptr %obj.i, align 8
  %40 = load i64, ptr %obj.i, align 8
  store i64 %40, ptr %value.addr.i362, align 8
  %41 = load i64, ptr %value.addr.i362, align 8
  %and.i363 = and i64 %41, 3
  %cmp.i364 = icmp eq i64 %and.i363, 1
  br i1 %cmp.i364, label %if.end.i342, label %if.then.i341

if.then.i341:                                     ; preds = %_ZNK2v820FunctionCallbackInfoINS_5ValueEEixEi.exit226
  store i1 false, ptr %retval.i337, align 1
  br label %_ZNK2v85Value16QuickIsUndefinedEv.exit

if.end.i342:                                      ; preds = %_ZNK2v820FunctionCallbackInfoINS_5ValueEEixEi.exit226
  %42 = load i64, ptr %obj.i, align 8
  store i64 %42, ptr %obj.addr.i371, align 8
  %43 = load i64, ptr %obj.addr.i371, align 8
  store i64 %43, ptr %heap_object_ptr.addr.i.i369, align 8
  store i32 0, ptr %offset.addr.i.i370, align 4
  %44 = load i64, ptr %heap_object_ptr.addr.i.i369, align 8
  %45 = load i32, ptr %offset.addr.i.i370, align 4
  store i64 %44, ptr %heap_object_ptr.addr.i2.i366, align 8
  store i32 %45, ptr %offset.addr.i3.i367, align 4
  %46 = load i64, ptr %heap_object_ptr.addr.i2.i366, align 8
  %47 = load i32, ptr %offset.addr.i3.i367, align 4
  %conv.i.i373 = sext i32 %47 to i64
  %add.i.i374 = add i64 %46, %conv.i.i373
  %sub.i.i375 = sub i64 %add.i.i374, 1
  store i64 %sub.i.i375, ptr %addr.i.i368, align 8
  %48 = load i64, ptr %addr.i.i368, align 8
  %49 = inttoptr i64 %48 to ptr
  %50 = load i64, ptr %49, align 8
  store i64 %50, ptr %map.i372, align 8
  %51 = load i64, ptr %map.i372, align 8
  store i64 %51, ptr %heap_object_ptr.addr.i, align 8
  store i32 12, ptr %offset.addr.i, align 4
  %52 = load i64, ptr %heap_object_ptr.addr.i, align 8
  %53 = load i32, ptr %offset.addr.i, align 4
  %conv.i383 = sext i32 %53 to i64
  %add.i = add i64 %52, %conv.i383
  %sub.i = sub i64 %add.i, 1
  store i64 %sub.i, ptr %addr.i, align 8
  %54 = load i64, ptr %addr.i, align 8
  %55 = inttoptr i64 %54 to ptr
  %56 = load i16, ptr %55, align 2
  %conv.i377 = zext i16 %56 to i32
  %cmp.i343 = icmp ne i32 %conv.i377, 131
  br i1 %cmp.i343, label %if.then4.i, label %if.end5.i

if.then4.i:                                       ; preds = %if.end.i342
  store i1 false, ptr %retval.i337, align 1
  br label %_ZNK2v85Value16QuickIsUndefinedEv.exit

if.end5.i:                                        ; preds = %if.end.i342
  %57 = load i64, ptr %obj.i, align 8
  store i64 %57, ptr %obj.addr.i380, align 8
  %58 = load i64, ptr %obj.addr.i380, align 8
  store i64 %58, ptr %heap_object_ptr.addr.i397, align 8
  store i32 40, ptr %offset.addr.i398, align 4
  %59 = load i64, ptr %heap_object_ptr.addr.i397, align 8
  %60 = load i32, ptr %offset.addr.i398, align 4
  store i64 %59, ptr %heap_object_ptr.addr.i.i394, align 8
  store i32 %60, ptr %offset.addr.i.i395, align 4
  %61 = load i64, ptr %heap_object_ptr.addr.i.i394, align 8
  %62 = load i32, ptr %offset.addr.i.i395, align 4
  %conv.i.i399 = sext i32 %62 to i64
  %add.i.i400 = add i64 %61, %conv.i.i399
  %sub.i.i401 = sub i64 %add.i.i400, 1
  store i64 %sub.i.i401, ptr %addr.i.i396, align 8
  %63 = load i64, ptr %addr.i.i396, align 8
  %64 = inttoptr i64 %63 to ptr
  %65 = load i64, ptr %64, align 8
  store i64 %65, ptr %value.addr.i390, align 8
  %66 = load i64, ptr %value.addr.i390, align 8
  store i64 %66, ptr %value.addr.i412, align 8
  store i32 32, ptr %shift_bits.i413, align 4
  %67 = load i64, ptr %value.addr.i412, align 8
  %68 = load i32, ptr %shift_bits.i413, align 4
  %sh_prom.i414 = zext i32 %68 to i64
  %shr.i415 = ashr i64 %67, %sh_prom.i414
  %conv.i416 = trunc i64 %shr.i415 to i32
  %cmp7.i = icmp eq i32 %conv.i416, 5
  store i1 %cmp7.i, ptr %retval.i337, align 1
  br label %_ZNK2v85Value16QuickIsUndefinedEv.exit

_ZNK2v85Value16QuickIsUndefinedEv.exit:           ; preds = %if.end5.i, %if.then4.i, %if.then.i341
  %69 = load i1, ptr %retval.i337, align 1
  br i1 %69, label %if.then, label %if.else

if.then:                                          ; preds = %_ZNK2v85Value16QuickIsUndefinedEv.exit
  br label %do.body

do.body:                                          ; preds = %if.then
  %70 = load i32, ptr %context.addr, align 4
  %cmp = icmp eq i32 %70, 2
  %lnot = xor i1 %cmp, true
  %lnot5 = xor i1 %lnot, true
  %lnot6 = xor i1 %lnot5, true
  br i1 %lnot6, label %if.then7, label %if.end

if.then7:                                         ; preds = %do.body
  br label %do.body8

do.body8:                                         ; preds = %if.then7
  call void @_ZN4node6AssertERKNS_13AssertionInfoE(ptr noundef nonnull align 8 dereferenceable(24) @_ZZN4node6crypto12_GLOBAL__N_125GetKeyFormatAndTypeFromJsEPNS0_27AsymmetricKeyEncodingConfigERKN2v820FunctionCallbackInfoINS4_5ValueEEEPjNS0_18KeyEncodingContextEE4args)
  call void @abort() #14
  unreachable

do.end:                                           ; No predecessors!
  br label %if.end

if.end:                                           ; preds = %do.end, %do.body
  br label %do.end9

do.end9:                                          ; preds = %if.end
  br label %do.body10

do.body10:                                        ; preds = %do.end9
  %71 = load ptr, ptr %args.addr, align 8
  %72 = load ptr, ptr %offset.addr, align 8
  %73 = load i32, ptr %72, align 4
  %add = add i32 %73, 1
  store ptr %71, ptr %this.addr.i192, align 8
  store i32 %add, ptr %i.addr.i193, align 4
  %this1.i195 = load ptr, ptr %this.addr.i192, align 8
  %74 = load i32, ptr %i.addr.i193, align 4
  %cmp.i196 = icmp slt i32 %74, 0
  br i1 %cmp.i196, label %if.then.i205, label %lor.lhs.false.i197

lor.lhs.false.i197:                               ; preds = %do.body10
  %length_.i198 = getelementptr inbounds %"class.v8::FunctionCallbackInfo", ptr %this1.i195, i32 0, i32 2
  %75 = load i32, ptr %length_.i198, align 8
  %76 = load i32, ptr %i.addr.i193, align 4
  %cmp2.i199 = icmp sle i32 %75, %76
  br i1 %cmp2.i199, label %if.then.i205, label %if.end.i200

if.then.i205:                                     ; preds = %lor.lhs.false.i197, %do.body10
  store ptr %this1.i195, ptr %this.addr.i314, align 8
  %this1.i315 = load ptr, ptr %this.addr.i314, align 8
  %77 = load ptr, ptr %this1.i315, align 8
  %arrayidx.i316 = getelementptr inbounds i64, ptr %77, i64 1
  %78 = load ptr, ptr %arrayidx.i316, align 8
  store ptr %78, ptr %isolate.addr.i264, align 8
  %79 = load ptr, ptr %isolate.addr.i264, align 8
  store ptr %79, ptr %isolate.addr.i438, align 8
  %80 = load ptr, ptr %isolate.addr.i264, align 8
  store ptr %80, ptr %isolate.addr.i472, align 8
  store i32 4, ptr %index.addr.i473, align 4
  %81 = load ptr, ptr %isolate.addr.i472, align 8
  %82 = ptrtoint ptr %81 to i64
  %add.i475 = add i64 %82, 576
  %83 = load i32, ptr %index.addr.i473, align 4
  %mul.i476 = mul nsw i32 %83, 8
  %conv.i477 = sext i32 %mul.i476 to i64
  %add1.i478 = add i64 %add.i475, %conv.i477
  store i64 %add1.i478, ptr %addr.i474, align 8
  %84 = load i64, ptr %addr.i474, align 8
  %85 = inttoptr i64 %84 to ptr
  store ptr %85, ptr %slot.i265, align 8
  %86 = load ptr, ptr %slot.i265, align 8
  store ptr %86, ptr %slot.addr.i504, align 8
  %87 = load ptr, ptr %slot.addr.i504, align 8
  store ptr %87, ptr %slot.addr.i514, align 8
  %88 = load ptr, ptr %slot.addr.i514, align 8
  store ptr %retval.i513, ptr %this.addr.i573, align 8
  store ptr %88, ptr %location.addr.i574, align 8
  %this1.i575 = load ptr, ptr %this.addr.i573, align 8
  %89 = load ptr, ptr %location.addr.i574, align 8
  store ptr %this1.i575, ptr %this.addr.i.i571, align 8
  store ptr %89, ptr %location.addr.i.i572, align 8
  %this1.i.i576 = load ptr, ptr %this.addr.i.i571, align 8
  %90 = load ptr, ptr %location.addr.i.i572, align 8
  store ptr %90, ptr %this1.i.i576, align 8
  %91 = load ptr, ptr %retval.i513, align 8
  store ptr %91, ptr %ref.tmp.i505, align 8
  store ptr %retval.i503, ptr %this.addr.i527, align 8
  store ptr %ref.tmp.i505, ptr %other.addr.i528, align 8
  %this1.i529 = load ptr, ptr %this.addr.i527, align 8
  %92 = load ptr, ptr %other.addr.i528, align 8
  call void @llvm.memcpy.p0.p0.i64(ptr align 8 %this1.i529, ptr align 8 %92, i64 8, i1 false)
  %93 = load ptr, ptr %retval.i503, align 8
  store ptr %93, ptr %retval.i263, align 8
  %94 = load ptr, ptr %retval.i263, align 8
  store ptr %94, ptr %agg.tmp.i194, align 8
  %95 = load ptr, ptr %agg.tmp.i194, align 8
  store ptr %95, ptr %that.i294, align 8
  store ptr %retval.i191, ptr %this.addr.i295, align 8
  %this3.i296 = load ptr, ptr %this.addr.i295, align 8
  store ptr %this3.i296, ptr %this.addr.i759, align 8
  store ptr %that.i294, ptr %other.addr.i760, align 8
  %this1.i761 = load ptr, ptr %this.addr.i759, align 8
  %96 = load ptr, ptr %other.addr.i760, align 8
  call void @llvm.memcpy.p0.p0.i64(ptr align 8 %this1.i761, ptr align 8 %96, i64 8, i1 false)
  br label %_ZNK2v820FunctionCallbackInfoINS_5ValueEEixEi.exit208

if.end.i200:                                      ; preds = %lor.lhs.false.i197
  %values_.i201 = getelementptr inbounds %"class.v8::FunctionCallbackInfo", ptr %this1.i195, i32 0, i32 1
  %97 = load ptr, ptr %values_.i201, align 8
  %98 = load i32, ptr %i.addr.i193, align 4
  %idx.ext.i202 = sext i32 %98 to i64
  %add.ptr.i203 = getelementptr inbounds i64, ptr %97, i64 %idx.ext.i202
  store ptr %add.ptr.i203, ptr %slot.addr.i591, align 8
  %99 = load ptr, ptr %slot.addr.i591, align 8
  store ptr %99, ptr %slot.addr.i641, align 8
  %100 = load ptr, ptr %slot.addr.i641, align 8
  store ptr %retval.i640, ptr %this.addr.i652, align 8
  store ptr %100, ptr %location.addr.i653, align 8
  %this1.i654 = load ptr, ptr %this.addr.i652, align 8
  %101 = load ptr, ptr %location.addr.i653, align 8
  store ptr %this1.i654, ptr %this.addr.i.i650, align 8
  store ptr %101, ptr %location.addr.i.i651, align 8
  %this1.i.i655 = load ptr, ptr %this.addr.i.i650, align 8
  %102 = load ptr, ptr %location.addr.i.i651, align 8
  store ptr %102, ptr %this1.i.i655, align 8
  %103 = load ptr, ptr %retval.i640, align 8
  store ptr %103, ptr %ref.tmp.i592, align 8
  store ptr %retval.i590, ptr %this.addr.i.i588, align 8
  store ptr %ref.tmp.i592, ptr %other.addr.i.i589, align 8
  %this1.i.i594 = load ptr, ptr %this.addr.i.i588, align 8
  %104 = load ptr, ptr %other.addr.i.i589, align 8
  call void @llvm.memcpy.p0.p0.i64(ptr align 8 %this1.i.i594, ptr align 8 %104, i64 8, i1 false)
  %105 = load ptr, ptr %retval.i590, align 8
  store ptr %105, ptr %retval.i191, align 8
  br label %_ZNK2v820FunctionCallbackInfoINS_5ValueEEixEi.exit208

_ZNK2v820FunctionCallbackInfoINS_5ValueEEixEi.exit208: ; preds = %if.end.i200, %if.then.i205
  %106 = load ptr, ptr %retval.i191, align 8
  %coerce.dive13 = getelementptr inbounds %"class.v8::Local", ptr %ref.tmp11, i32 0, i32 0
  %coerce.dive14 = getelementptr inbounds %"class.v8::LocalBase", ptr %coerce.dive13, i32 0, i32 0
  %coerce.dive15 = getelementptr inbounds %"class.v8::IndirectHandleBase", ptr %coerce.dive14, i32 0, i32 0
  store ptr %106, ptr %coerce.dive15, align 8
  store ptr %ref.tmp11, ptr %this.addr.i236, align 8
  %this1.i237 = load ptr, ptr %this.addr.i236, align 8
  store ptr %this1.i237, ptr %this.addr.i691, align 8
  %this1.i692 = load ptr, ptr %this.addr.i691, align 8
  store ptr %this1.i692, ptr %this.addr.i.i690, align 8
  %this1.i.i693 = load ptr, ptr %this.addr.i.i690, align 8
  %107 = load ptr, ptr %this1.i.i693, align 8
  store ptr %107, ptr %slot.addr.i713, align 8
  %108 = load ptr, ptr %slot.addr.i713, align 8
  store ptr %108, ptr %this.addr.i332, align 8
  %this1.i333 = load ptr, ptr %this.addr.i332, align 8
  store ptr %this1.i333, ptr %this.addr.i345, align 8
  %this1.i347 = load ptr, ptr %this.addr.i345, align 8
  store ptr %this1.i347, ptr %value.addr.i, align 8
  %109 = load ptr, ptr %value.addr.i, align 8
  %110 = load i64, ptr %109, align 8
  store i64 %110, ptr %obj.i346, align 8
  %111 = load i64, ptr %obj.i346, align 8
  store i64 %111, ptr %value.addr.i360, align 8
  %112 = load i64, ptr %value.addr.i360, align 8
  %and.i = and i64 %112, 3
  %cmp.i361 = icmp eq i64 %and.i, 1
  br i1 %cmp.i361, label %if.end.i351, label %if.then.i350

if.then.i350:                                     ; preds = %_ZNK2v820FunctionCallbackInfoINS_5ValueEEixEi.exit208
  store i1 false, ptr %retval.i344, align 1
  br label %_ZNK2v85Value16QuickIsUndefinedEv.exit358

if.end.i351:                                      ; preds = %_ZNK2v820FunctionCallbackInfoINS_5ValueEEixEi.exit208
  %113 = load i64, ptr %obj.i346, align 8
  store i64 %113, ptr %obj.addr.i, align 8
  %114 = load i64, ptr %obj.addr.i, align 8
  store i64 %114, ptr %heap_object_ptr.addr.i.i, align 8
  store i32 0, ptr %offset.addr.i.i, align 4
  %115 = load i64, ptr %heap_object_ptr.addr.i.i, align 8
  %116 = load i32, ptr %offset.addr.i.i, align 4
  store i64 %115, ptr %heap_object_ptr.addr.i2.i, align 8
  store i32 %116, ptr %offset.addr.i3.i, align 4
  %117 = load i64, ptr %heap_object_ptr.addr.i2.i, align 8
  %118 = load i32, ptr %offset.addr.i3.i, align 4
  %conv.i.i = sext i32 %118 to i64
  %add.i.i = add i64 %117, %conv.i.i
  %sub.i.i = sub i64 %add.i.i, 1
  store i64 %sub.i.i, ptr %addr.i.i, align 8
  %119 = load i64, ptr %addr.i.i, align 8
  %120 = inttoptr i64 %119 to ptr
  %121 = load i64, ptr %120, align 8
  store i64 %121, ptr %map.i, align 8
  %122 = load i64, ptr %map.i, align 8
  store i64 %122, ptr %heap_object_ptr.addr.i384, align 8
  store i32 12, ptr %offset.addr.i385, align 4
  %123 = load i64, ptr %heap_object_ptr.addr.i384, align 8
  %124 = load i32, ptr %offset.addr.i385, align 4
  %conv.i387 = sext i32 %124 to i64
  %add.i388 = add i64 %123, %conv.i387
  %sub.i389 = sub i64 %add.i388, 1
  store i64 %sub.i389, ptr %addr.i386, align 8
  %125 = load i64, ptr %addr.i386, align 8
  %126 = inttoptr i64 %125 to ptr
  %127 = load i16, ptr %126, align 2
  %conv.i = zext i16 %127 to i32
  %cmp.i353 = icmp ne i32 %conv.i, 131
  br i1 %cmp.i353, label %if.then4.i357, label %if.end5.i354

if.then4.i357:                                    ; preds = %if.end.i351
  store i1 false, ptr %retval.i344, align 1
  br label %_ZNK2v85Value16QuickIsUndefinedEv.exit358

if.end5.i354:                                     ; preds = %if.end.i351
  %128 = load i64, ptr %obj.i346, align 8
  store i64 %128, ptr %obj.addr.i378, align 8
  %129 = load i64, ptr %obj.addr.i378, align 8
  store i64 %129, ptr %heap_object_ptr.addr.i405, align 8
  store i32 40, ptr %offset.addr.i406, align 4
  %130 = load i64, ptr %heap_object_ptr.addr.i405, align 8
  %131 = load i32, ptr %offset.addr.i406, align 4
  store i64 %130, ptr %heap_object_ptr.addr.i.i402, align 8
  store i32 %131, ptr %offset.addr.i.i403, align 4
  %132 = load i64, ptr %heap_object_ptr.addr.i.i402, align 8
  %133 = load i32, ptr %offset.addr.i.i403, align 4
  %conv.i.i407 = sext i32 %133 to i64
  %add.i.i408 = add i64 %132, %conv.i.i407
  %sub.i.i409 = sub i64 %add.i.i408, 1
  store i64 %sub.i.i409, ptr %addr.i.i404, align 8
  %134 = load i64, ptr %addr.i.i404, align 8
  %135 = inttoptr i64 %134 to ptr
  %136 = load i64, ptr %135, align 8
  store i64 %136, ptr %value.addr.i392, align 8
  %137 = load i64, ptr %value.addr.i392, align 8
  store i64 %137, ptr %value.addr.i410, align 8
  store i32 32, ptr %shift_bits.i, align 4
  %138 = load i64, ptr %value.addr.i410, align 8
  %139 = load i32, ptr %shift_bits.i, align 4
  %sh_prom.i = zext i32 %139 to i64
  %shr.i = ashr i64 %138, %sh_prom.i
  %conv.i411 = trunc i64 %shr.i to i32
  %cmp7.i356 = icmp eq i32 %conv.i411, 5
  store i1 %cmp7.i356, ptr %retval.i344, align 1
  br label %_ZNK2v85Value16QuickIsUndefinedEv.exit358

_ZNK2v85Value16QuickIsUndefinedEv.exit358:        ; preds = %if.end5.i354, %if.then4.i357, %if.then.i350
  %140 = load i1, ptr %retval.i344, align 1
  %lnot18 = xor i1 %140, true
  %lnot19 = xor i1 %lnot18, true
  %lnot20 = xor i1 %lnot19, true
  br i1 %lnot20, label %if.then21, label %if.end24

if.then21:                                        ; preds = %_ZNK2v85Value16QuickIsUndefinedEv.exit358
  br label %do.body22

do.body22:                                        ; preds = %if.then21
  call void @_ZN4node6AssertERKNS_13AssertionInfoE(ptr noundef nonnull align 8 dereferenceable(24) @_ZZN4node6crypto12_GLOBAL__N_125GetKeyFormatAndTypeFromJsEPNS0_27AsymmetricKeyEncodingConfigERKN2v820FunctionCallbackInfoINS4_5ValueEEEPjNS0_18KeyEncodingContextEE4args_0)
  call void @abort() #14
  unreachable

do.end23:                                         ; No predecessors!
  br label %if.end24

if.end24:                                         ; preds = %do.end23, %_ZNK2v85Value16QuickIsUndefinedEv.exit358
  br label %do.end25

do.end25:                                         ; preds = %if.end24
  %141 = load ptr, ptr %config.addr, align 8
  %output_key_object_ = getelementptr inbounds %"struct.node::crypto::AsymmetricKeyEncodingConfig", ptr %141, i32 0, i32 0
  store i8 1, ptr %output_key_object_, align 4
  br label %if.end117

if.else:                                          ; preds = %_ZNK2v85Value16QuickIsUndefinedEv.exit
  %142 = load ptr, ptr %config.addr, align 8
  %output_key_object_26 = getelementptr inbounds %"struct.node::crypto::AsymmetricKeyEncodingConfig", ptr %142, i32 0, i32 0
  store i8 0, ptr %output_key_object_26, align 4
  br label %do.body27

do.body27:                                        ; preds = %if.else
  %143 = load ptr, ptr %args.addr, align 8
  %144 = load ptr, ptr %offset.addr, align 8
  %145 = load i32, ptr %144, align 4
  store ptr %143, ptr %this.addr.i174, align 8
  store i32 %145, ptr %i.addr.i175, align 4
  %this1.i177 = load ptr, ptr %this.addr.i174, align 8
  %146 = load i32, ptr %i.addr.i175, align 4
  %cmp.i178 = icmp slt i32 %146, 0
  br i1 %cmp.i178, label %if.then.i187, label %lor.lhs.false.i179

lor.lhs.false.i179:                               ; preds = %do.body27
  %length_.i180 = getelementptr inbounds %"class.v8::FunctionCallbackInfo", ptr %this1.i177, i32 0, i32 2
  %147 = load i32, ptr %length_.i180, align 8
  %148 = load i32, ptr %i.addr.i175, align 4
  %cmp2.i181 = icmp sle i32 %147, %148
  br i1 %cmp2.i181, label %if.then.i187, label %if.end.i182

if.then.i187:                                     ; preds = %lor.lhs.false.i179, %do.body27
  store ptr %this1.i177, ptr %this.addr.i317, align 8
  %this1.i318 = load ptr, ptr %this.addr.i317, align 8
  %149 = load ptr, ptr %this1.i318, align 8
  %arrayidx.i319 = getelementptr inbounds i64, ptr %149, i64 1
  %150 = load ptr, ptr %arrayidx.i319, align 8
  store ptr %150, ptr %isolate.addr.i269, align 8
  %151 = load ptr, ptr %isolate.addr.i269, align 8
  store ptr %151, ptr %isolate.addr.i437, align 8
  %152 = load ptr, ptr %isolate.addr.i269, align 8
  store ptr %152, ptr %isolate.addr.i465, align 8
  store i32 4, ptr %index.addr.i466, align 4
  %153 = load ptr, ptr %isolate.addr.i465, align 8
  %154 = ptrtoint ptr %153 to i64
  %add.i468 = add i64 %154, 576
  %155 = load i32, ptr %index.addr.i466, align 4
  %mul.i469 = mul nsw i32 %155, 8
  %conv.i470 = sext i32 %mul.i469 to i64
  %add1.i471 = add i64 %add.i468, %conv.i470
  store i64 %add1.i471, ptr %addr.i467, align 8
  %156 = load i64, ptr %addr.i467, align 8
  %157 = inttoptr i64 %156 to ptr
  store ptr %157, ptr %slot.i270, align 8
  %158 = load ptr, ptr %slot.i270, align 8
  store ptr %158, ptr %slot.addr.i500, align 8
  %159 = load ptr, ptr %slot.addr.i500, align 8
  store ptr %159, ptr %slot.addr.i516, align 8
  %160 = load ptr, ptr %slot.addr.i516, align 8
  store ptr %retval.i515, ptr %this.addr.i567, align 8
  store ptr %160, ptr %location.addr.i568, align 8
  %this1.i569 = load ptr, ptr %this.addr.i567, align 8
  %161 = load ptr, ptr %location.addr.i568, align 8
  store ptr %this1.i569, ptr %this.addr.i.i565, align 8
  store ptr %161, ptr %location.addr.i.i566, align 8
  %this1.i.i570 = load ptr, ptr %this.addr.i.i565, align 8
  %162 = load ptr, ptr %location.addr.i.i566, align 8
  store ptr %162, ptr %this1.i.i570, align 8
  %163 = load ptr, ptr %retval.i515, align 8
  store ptr %163, ptr %ref.tmp.i501, align 8
  store ptr %retval.i499, ptr %this.addr.i530, align 8
  store ptr %ref.tmp.i501, ptr %other.addr.i531, align 8
  %this1.i532 = load ptr, ptr %this.addr.i530, align 8
  %164 = load ptr, ptr %other.addr.i531, align 8
  call void @llvm.memcpy.p0.p0.i64(ptr align 8 %this1.i532, ptr align 8 %164, i64 8, i1 false)
  %165 = load ptr, ptr %retval.i499, align 8
  store ptr %165, ptr %retval.i268, align 8
  %166 = load ptr, ptr %retval.i268, align 8
  store ptr %166, ptr %agg.tmp.i176, align 8
  %167 = load ptr, ptr %agg.tmp.i176, align 8
  store ptr %167, ptr %that.i297, align 8
  store ptr %retval.i173, ptr %this.addr.i298, align 8
  %this3.i299 = load ptr, ptr %this.addr.i298, align 8
  store ptr %this3.i299, ptr %this.addr.i756, align 8
  store ptr %that.i297, ptr %other.addr.i757, align 8
  %this1.i758 = load ptr, ptr %this.addr.i756, align 8
  %168 = load ptr, ptr %other.addr.i757, align 8
  call void @llvm.memcpy.p0.p0.i64(ptr align 8 %this1.i758, ptr align 8 %168, i64 8, i1 false)
  br label %_ZNK2v820FunctionCallbackInfoINS_5ValueEEixEi.exit190

if.end.i182:                                      ; preds = %lor.lhs.false.i179
  %values_.i183 = getelementptr inbounds %"class.v8::FunctionCallbackInfo", ptr %this1.i177, i32 0, i32 1
  %169 = load ptr, ptr %values_.i183, align 8
  %170 = load i32, ptr %i.addr.i175, align 4
  %idx.ext.i184 = sext i32 %170 to i64
  %add.ptr.i185 = getelementptr inbounds i64, ptr %169, i64 %idx.ext.i184
  store ptr %add.ptr.i185, ptr %slot.addr.i598, align 8
  %171 = load ptr, ptr %slot.addr.i598, align 8
  store ptr %171, ptr %slot.addr.i639, align 8
  %172 = load ptr, ptr %slot.addr.i639, align 8
  store ptr %retval.i638, ptr %this.addr.i658, align 8
  store ptr %172, ptr %location.addr.i659, align 8
  %this1.i660 = load ptr, ptr %this.addr.i658, align 8
  %173 = load ptr, ptr %location.addr.i659, align 8
  store ptr %this1.i660, ptr %this.addr.i.i656, align 8
  store ptr %173, ptr %location.addr.i.i657, align 8
  %this1.i.i661 = load ptr, ptr %this.addr.i.i656, align 8
  %174 = load ptr, ptr %location.addr.i.i657, align 8
  store ptr %174, ptr %this1.i.i661, align 8
  %175 = load ptr, ptr %retval.i638, align 8
  store ptr %175, ptr %ref.tmp.i599, align 8
  store ptr %retval.i597, ptr %this.addr.i.i595, align 8
  store ptr %ref.tmp.i599, ptr %other.addr.i.i596, align 8
  %this1.i.i601 = load ptr, ptr %this.addr.i.i595, align 8
  %176 = load ptr, ptr %other.addr.i.i596, align 8
  call void @llvm.memcpy.p0.p0.i64(ptr align 8 %this1.i.i601, ptr align 8 %176, i64 8, i1 false)
  %177 = load ptr, ptr %retval.i597, align 8
  store ptr %177, ptr %retval.i173, align 8
  br label %_ZNK2v820FunctionCallbackInfoINS_5ValueEEixEi.exit190

_ZNK2v820FunctionCallbackInfoINS_5ValueEEixEi.exit190: ; preds = %if.end.i182, %if.then.i187
  %178 = load ptr, ptr %retval.i173, align 8
  %coerce.dive30 = getelementptr inbounds %"class.v8::Local", ptr %ref.tmp28, i32 0, i32 0
  %coerce.dive31 = getelementptr inbounds %"class.v8::LocalBase", ptr %coerce.dive30, i32 0, i32 0
  %coerce.dive32 = getelementptr inbounds %"class.v8::IndirectHandleBase", ptr %coerce.dive31, i32 0, i32 0
  store ptr %178, ptr %coerce.dive32, align 8
  store ptr %ref.tmp28, ptr %this.addr.i233, align 8
  %this1.i234 = load ptr, ptr %this.addr.i233, align 8
  store ptr %this1.i234, ptr %this.addr.i696, align 8
  %this1.i697 = load ptr, ptr %this.addr.i696, align 8
  store ptr %this1.i697, ptr %this.addr.i.i695, align 8
  %this1.i.i698 = load ptr, ptr %this.addr.i.i695, align 8
  %179 = load ptr, ptr %this1.i.i698, align 8
  store ptr %179, ptr %slot.addr.i712, align 8
  %180 = load ptr, ptr %slot.addr.i712, align 8
  %call34 = call noundef zeroext i1 @_ZNK2v85Value7IsInt32Ev(ptr noundef nonnull align 1 dereferenceable(1) %180)
  %lnot35 = xor i1 %call34, true
  %lnot36 = xor i1 %lnot35, true
  %lnot37 = xor i1 %lnot36, true
  br i1 %lnot37, label %if.then38, label %if.end41

if.then38:                                        ; preds = %_ZNK2v820FunctionCallbackInfoINS_5ValueEEixEi.exit190
  br label %do.body39

do.body39:                                        ; preds = %if.then38
  call void @_ZN4node6AssertERKNS_13AssertionInfoE(ptr noundef nonnull align 8 dereferenceable(24) @_ZZN4node6crypto12_GLOBAL__N_125GetKeyFormatAndTypeFromJsEPNS0_27AsymmetricKeyEncodingConfigERKN2v820FunctionCallbackInfoINS4_5ValueEEEPjNS0_18KeyEncodingContextEE4args_1)
  call void @abort() #14
  unreachable

do.end40:                                         ; No predecessors!
  br label %if.end41

if.end41:                                         ; preds = %do.end40, %_ZNK2v820FunctionCallbackInfoINS_5ValueEEixEi.exit190
  br label %do.end42

do.end42:                                         ; preds = %if.end41
  %181 = load ptr, ptr %args.addr, align 8
  %182 = load ptr, ptr %offset.addr, align 8
  %183 = load i32, ptr %182, align 4
  store ptr %181, ptr %this.addr.i156, align 8
  store i32 %183, ptr %i.addr.i157, align 4
  %this1.i159 = load ptr, ptr %this.addr.i156, align 8
  %184 = load i32, ptr %i.addr.i157, align 4
  %cmp.i160 = icmp slt i32 %184, 0
  br i1 %cmp.i160, label %if.then.i169, label %lor.lhs.false.i161

lor.lhs.false.i161:                               ; preds = %do.end42
  %length_.i162 = getelementptr inbounds %"class.v8::FunctionCallbackInfo", ptr %this1.i159, i32 0, i32 2
  %185 = load i32, ptr %length_.i162, align 8
  %186 = load i32, ptr %i.addr.i157, align 4
  %cmp2.i163 = icmp sle i32 %185, %186
  br i1 %cmp2.i163, label %if.then.i169, label %if.end.i164

if.then.i169:                                     ; preds = %lor.lhs.false.i161, %do.end42
  store ptr %this1.i159, ptr %this.addr.i320, align 8
  %this1.i321 = load ptr, ptr %this.addr.i320, align 8
  %187 = load ptr, ptr %this1.i321, align 8
  %arrayidx.i322 = getelementptr inbounds i64, ptr %187, i64 1
  %188 = load ptr, ptr %arrayidx.i322, align 8
  store ptr %188, ptr %isolate.addr.i274, align 8
  %189 = load ptr, ptr %isolate.addr.i274, align 8
  store ptr %189, ptr %isolate.addr.i436, align 8
  %190 = load ptr, ptr %isolate.addr.i274, align 8
  store ptr %190, ptr %isolate.addr.i458, align 8
  store i32 4, ptr %index.addr.i459, align 4
  %191 = load ptr, ptr %isolate.addr.i458, align 8
  %192 = ptrtoint ptr %191 to i64
  %add.i461 = add i64 %192, 576
  %193 = load i32, ptr %index.addr.i459, align 4
  %mul.i462 = mul nsw i32 %193, 8
  %conv.i463 = sext i32 %mul.i462 to i64
  %add1.i464 = add i64 %add.i461, %conv.i463
  store i64 %add1.i464, ptr %addr.i460, align 8
  %194 = load i64, ptr %addr.i460, align 8
  %195 = inttoptr i64 %194 to ptr
  store ptr %195, ptr %slot.i275, align 8
  %196 = load ptr, ptr %slot.i275, align 8
  store ptr %196, ptr %slot.addr.i496, align 8
  %197 = load ptr, ptr %slot.addr.i496, align 8
  store ptr %197, ptr %slot.addr.i518, align 8
  %198 = load ptr, ptr %slot.addr.i518, align 8
  store ptr %retval.i517, ptr %this.addr.i561, align 8
  store ptr %198, ptr %location.addr.i562, align 8
  %this1.i563 = load ptr, ptr %this.addr.i561, align 8
  %199 = load ptr, ptr %location.addr.i562, align 8
  store ptr %this1.i563, ptr %this.addr.i.i559, align 8
  store ptr %199, ptr %location.addr.i.i560, align 8
  %this1.i.i564 = load ptr, ptr %this.addr.i.i559, align 8
  %200 = load ptr, ptr %location.addr.i.i560, align 8
  store ptr %200, ptr %this1.i.i564, align 8
  %201 = load ptr, ptr %retval.i517, align 8
  store ptr %201, ptr %ref.tmp.i497, align 8
  store ptr %retval.i495, ptr %this.addr.i533, align 8
  store ptr %ref.tmp.i497, ptr %other.addr.i534, align 8
  %this1.i535 = load ptr, ptr %this.addr.i533, align 8
  %202 = load ptr, ptr %other.addr.i534, align 8
  call void @llvm.memcpy.p0.p0.i64(ptr align 8 %this1.i535, ptr align 8 %202, i64 8, i1 false)
  %203 = load ptr, ptr %retval.i495, align 8
  store ptr %203, ptr %retval.i273, align 8
  %204 = load ptr, ptr %retval.i273, align 8
  store ptr %204, ptr %agg.tmp.i158, align 8
  %205 = load ptr, ptr %agg.tmp.i158, align 8
  store ptr %205, ptr %that.i300, align 8
  store ptr %retval.i155, ptr %this.addr.i301, align 8
  %this3.i302 = load ptr, ptr %this.addr.i301, align 8
  store ptr %this3.i302, ptr %this.addr.i753, align 8
  store ptr %that.i300, ptr %other.addr.i754, align 8
  %this1.i755 = load ptr, ptr %this.addr.i753, align 8
  %206 = load ptr, ptr %other.addr.i754, align 8
  call void @llvm.memcpy.p0.p0.i64(ptr align 8 %this1.i755, ptr align 8 %206, i64 8, i1 false)
  br label %_ZNK2v820FunctionCallbackInfoINS_5ValueEEixEi.exit172

if.end.i164:                                      ; preds = %lor.lhs.false.i161
  %values_.i165 = getelementptr inbounds %"class.v8::FunctionCallbackInfo", ptr %this1.i159, i32 0, i32 1
  %207 = load ptr, ptr %values_.i165, align 8
  %208 = load i32, ptr %i.addr.i157, align 4
  %idx.ext.i166 = sext i32 %208 to i64
  %add.ptr.i167 = getelementptr inbounds i64, ptr %207, i64 %idx.ext.i166
  store ptr %add.ptr.i167, ptr %slot.addr.i605, align 8
  %209 = load ptr, ptr %slot.addr.i605, align 8
  store ptr %209, ptr %slot.addr.i637, align 8
  %210 = load ptr, ptr %slot.addr.i637, align 8
  store ptr %retval.i636, ptr %this.addr.i664, align 8
  store ptr %210, ptr %location.addr.i665, align 8
  %this1.i666 = load ptr, ptr %this.addr.i664, align 8
  %211 = load ptr, ptr %location.addr.i665, align 8
  store ptr %this1.i666, ptr %this.addr.i.i662, align 8
  store ptr %211, ptr %location.addr.i.i663, align 8
  %this1.i.i667 = load ptr, ptr %this.addr.i.i662, align 8
  %212 = load ptr, ptr %location.addr.i.i663, align 8
  store ptr %212, ptr %this1.i.i667, align 8
  %213 = load ptr, ptr %retval.i636, align 8
  store ptr %213, ptr %ref.tmp.i606, align 8
  store ptr %retval.i604, ptr %this.addr.i.i602, align 8
  store ptr %ref.tmp.i606, ptr %other.addr.i.i603, align 8
  %this1.i.i608 = load ptr, ptr %this.addr.i.i602, align 8
  %214 = load ptr, ptr %other.addr.i.i603, align 8
  call void @llvm.memcpy.p0.p0.i64(ptr align 8 %this1.i.i608, ptr align 8 %214, i64 8, i1 false)
  %215 = load ptr, ptr %retval.i604, align 8
  store ptr %215, ptr %retval.i155, align 8
  br label %_ZNK2v820FunctionCallbackInfoINS_5ValueEEixEi.exit172

_ZNK2v820FunctionCallbackInfoINS_5ValueEEixEi.exit172: ; preds = %if.end.i164, %if.then.i169
  %216 = load ptr, ptr %retval.i155, align 8
  %coerce.dive46 = getelementptr inbounds %"class.v8::Local", ptr %ref.tmp44, i32 0, i32 0
  %coerce.dive47 = getelementptr inbounds %"class.v8::LocalBase", ptr %coerce.dive46, i32 0, i32 0
  %coerce.dive48 = getelementptr inbounds %"class.v8::IndirectHandleBase", ptr %coerce.dive47, i32 0, i32 0
  store ptr %216, ptr %coerce.dive48, align 8
  store ptr %ref.tmp44, ptr %this.addr.i251, align 8
  %this1.i253 = load ptr, ptr %this.addr.i251, align 8
  call void @llvm.memcpy.p0.p0.i64(ptr align 8 %agg.tmp.i252, ptr align 8 %this1.i253, i64 8, i1 false)
  %217 = load ptr, ptr %agg.tmp.i252, align 8
  store ptr %217, ptr %that.i716, align 8
  store ptr %ref.tmp.i717, ptr %this.addr.i724, align 8
  store ptr %that.i716, ptr %other.addr.i725, align 8
  %this1.i726 = load ptr, ptr %this.addr.i724, align 8
  %218 = load ptr, ptr %other.addr.i725, align 8
  call void @llvm.memcpy.p0.p0.i64(ptr align 8 %this1.i726, ptr align 8 %218, i64 8, i1 false)
  store ptr %retval.i715, ptr %this.addr.i730, align 8
  store ptr %ref.tmp.i717, ptr %other.addr.i731, align 8
  %this1.i732 = load ptr, ptr %this.addr.i730, align 8
  %219 = load ptr, ptr %other.addr.i731, align 8
  call void @llvm.memcpy.p0.p0.i64(ptr align 8 %this1.i732, ptr align 8 %219, i64 8, i1 false)
  %220 = load ptr, ptr %retval.i715, align 8
  store ptr %220, ptr %retval.i250, align 8
  %221 = load ptr, ptr %retval.i250, align 8
  %coerce.dive50 = getelementptr inbounds %"class.v8::Local.332", ptr %ref.tmp43, i32 0, i32 0
  %coerce.dive51 = getelementptr inbounds %"class.v8::LocalBase.333", ptr %coerce.dive50, i32 0, i32 0
  %coerce.dive52 = getelementptr inbounds %"class.v8::IndirectHandleBase", ptr %coerce.dive51, i32 0, i32 0
  store ptr %221, ptr %coerce.dive52, align 8
  store ptr %ref.tmp43, ptr %this.addr.i258, align 8
  %this1.i259 = load ptr, ptr %this.addr.i258, align 8
  store ptr %this1.i259, ptr %this.addr.i734, align 8
  %this1.i735 = load ptr, ptr %this.addr.i734, align 8
  store ptr %this1.i735, ptr %this.addr.i.i733, align 8
  %this1.i.i736 = load ptr, ptr %this.addr.i.i733, align 8
  %222 = load ptr, ptr %this1.i.i736, align 8
  store ptr %222, ptr %slot.addr.i743, align 8
  %223 = load ptr, ptr %slot.addr.i743, align 8
  %call54 = call noundef i32 @_ZNK2v85Int325ValueEv(ptr noundef nonnull align 1 dereferenceable(1) %223)
  %224 = load ptr, ptr %config.addr, align 8
  %format_ = getelementptr inbounds %"struct.node::crypto::AsymmetricKeyEncodingConfig", ptr %224, i32 0, i32 1
  store i32 %call54, ptr %format_, align 4
  %225 = load ptr, ptr %args.addr, align 8
  %226 = load ptr, ptr %offset.addr, align 8
  %227 = load i32, ptr %226, align 4
  %add56 = add i32 %227, 1
  store ptr %225, ptr %this.addr.i138, align 8
  store i32 %add56, ptr %i.addr.i139, align 4
  %this1.i141 = load ptr, ptr %this.addr.i138, align 8
  %228 = load i32, ptr %i.addr.i139, align 4
  %cmp.i142 = icmp slt i32 %228, 0
  br i1 %cmp.i142, label %if.then.i151, label %lor.lhs.false.i143

lor.lhs.false.i143:                               ; preds = %_ZNK2v820FunctionCallbackInfoINS_5ValueEEixEi.exit172
  %length_.i144 = getelementptr inbounds %"class.v8::FunctionCallbackInfo", ptr %this1.i141, i32 0, i32 2
  %229 = load i32, ptr %length_.i144, align 8
  %230 = load i32, ptr %i.addr.i139, align 4
  %cmp2.i145 = icmp sle i32 %229, %230
  br i1 %cmp2.i145, label %if.then.i151, label %if.end.i146

if.then.i151:                                     ; preds = %lor.lhs.false.i143, %_ZNK2v820FunctionCallbackInfoINS_5ValueEEixEi.exit172
  store ptr %this1.i141, ptr %this.addr.i323, align 8
  %this1.i324 = load ptr, ptr %this.addr.i323, align 8
  %231 = load ptr, ptr %this1.i324, align 8
  %arrayidx.i325 = getelementptr inbounds i64, ptr %231, i64 1
  %232 = load ptr, ptr %arrayidx.i325, align 8
  store ptr %232, ptr %isolate.addr.i279, align 8
  %233 = load ptr, ptr %isolate.addr.i279, align 8
  store ptr %233, ptr %isolate.addr.i435, align 8
  %234 = load ptr, ptr %isolate.addr.i279, align 8
  store ptr %234, ptr %isolate.addr.i451, align 8
  store i32 4, ptr %index.addr.i452, align 4
  %235 = load ptr, ptr %isolate.addr.i451, align 8
  %236 = ptrtoint ptr %235 to i64
  %add.i454 = add i64 %236, 576
  %237 = load i32, ptr %index.addr.i452, align 4
  %mul.i455 = mul nsw i32 %237, 8
  %conv.i456 = sext i32 %mul.i455 to i64
  %add1.i457 = add i64 %add.i454, %conv.i456
  store i64 %add1.i457, ptr %addr.i453, align 8
  %238 = load i64, ptr %addr.i453, align 8
  %239 = inttoptr i64 %238 to ptr
  store ptr %239, ptr %slot.i280, align 8
  %240 = load ptr, ptr %slot.i280, align 8
  store ptr %240, ptr %slot.addr.i492, align 8
  %241 = load ptr, ptr %slot.addr.i492, align 8
  store ptr %241, ptr %slot.addr.i520, align 8
  %242 = load ptr, ptr %slot.addr.i520, align 8
  store ptr %retval.i519, ptr %this.addr.i555, align 8
  store ptr %242, ptr %location.addr.i556, align 8
  %this1.i557 = load ptr, ptr %this.addr.i555, align 8
  %243 = load ptr, ptr %location.addr.i556, align 8
  store ptr %this1.i557, ptr %this.addr.i.i553, align 8
  store ptr %243, ptr %location.addr.i.i554, align 8
  %this1.i.i558 = load ptr, ptr %this.addr.i.i553, align 8
  %244 = load ptr, ptr %location.addr.i.i554, align 8
  store ptr %244, ptr %this1.i.i558, align 8
  %245 = load ptr, ptr %retval.i519, align 8
  store ptr %245, ptr %ref.tmp.i493, align 8
  store ptr %retval.i491, ptr %this.addr.i536, align 8
  store ptr %ref.tmp.i493, ptr %other.addr.i537, align 8
  %this1.i538 = load ptr, ptr %this.addr.i536, align 8
  %246 = load ptr, ptr %other.addr.i537, align 8
  call void @llvm.memcpy.p0.p0.i64(ptr align 8 %this1.i538, ptr align 8 %246, i64 8, i1 false)
  %247 = load ptr, ptr %retval.i491, align 8
  store ptr %247, ptr %retval.i278, align 8
  %248 = load ptr, ptr %retval.i278, align 8
  store ptr %248, ptr %agg.tmp.i140, align 8
  %249 = load ptr, ptr %agg.tmp.i140, align 8
  store ptr %249, ptr %that.i303, align 8
  store ptr %retval.i137, ptr %this.addr.i304, align 8
  %this3.i305 = load ptr, ptr %this.addr.i304, align 8
  store ptr %this3.i305, ptr %this.addr.i750, align 8
  store ptr %that.i303, ptr %other.addr.i751, align 8
  %this1.i752 = load ptr, ptr %this.addr.i750, align 8
  %250 = load ptr, ptr %other.addr.i751, align 8
  call void @llvm.memcpy.p0.p0.i64(ptr align 8 %this1.i752, ptr align 8 %250, i64 8, i1 false)
  br label %_ZNK2v820FunctionCallbackInfoINS_5ValueEEixEi.exit154

if.end.i146:                                      ; preds = %lor.lhs.false.i143
  %values_.i147 = getelementptr inbounds %"class.v8::FunctionCallbackInfo", ptr %this1.i141, i32 0, i32 1
  %251 = load ptr, ptr %values_.i147, align 8
  %252 = load i32, ptr %i.addr.i139, align 4
  %idx.ext.i148 = sext i32 %252 to i64
  %add.ptr.i149 = getelementptr inbounds i64, ptr %251, i64 %idx.ext.i148
  store ptr %add.ptr.i149, ptr %slot.addr.i612, align 8
  %253 = load ptr, ptr %slot.addr.i612, align 8
  store ptr %253, ptr %slot.addr.i635, align 8
  %254 = load ptr, ptr %slot.addr.i635, align 8
  store ptr %retval.i634, ptr %this.addr.i670, align 8
  store ptr %254, ptr %location.addr.i671, align 8
  %this1.i672 = load ptr, ptr %this.addr.i670, align 8
  %255 = load ptr, ptr %location.addr.i671, align 8
  store ptr %this1.i672, ptr %this.addr.i.i668, align 8
  store ptr %255, ptr %location.addr.i.i669, align 8
  %this1.i.i673 = load ptr, ptr %this.addr.i.i668, align 8
  %256 = load ptr, ptr %location.addr.i.i669, align 8
  store ptr %256, ptr %this1.i.i673, align 8
  %257 = load ptr, ptr %retval.i634, align 8
  store ptr %257, ptr %ref.tmp.i613, align 8
  store ptr %retval.i611, ptr %this.addr.i.i609, align 8
  store ptr %ref.tmp.i613, ptr %other.addr.i.i610, align 8
  %this1.i.i615 = load ptr, ptr %this.addr.i.i609, align 8
  %258 = load ptr, ptr %other.addr.i.i610, align 8
  call void @llvm.memcpy.p0.p0.i64(ptr align 8 %this1.i.i615, ptr align 8 %258, i64 8, i1 false)
  %259 = load ptr, ptr %retval.i611, align 8
  store ptr %259, ptr %retval.i137, align 8
  br label %_ZNK2v820FunctionCallbackInfoINS_5ValueEEixEi.exit154

_ZNK2v820FunctionCallbackInfoINS_5ValueEEixEi.exit154: ; preds = %if.end.i146, %if.then.i151
  %260 = load ptr, ptr %retval.i137, align 8
  %coerce.dive58 = getelementptr inbounds %"class.v8::Local", ptr %ref.tmp55, i32 0, i32 0
  %coerce.dive59 = getelementptr inbounds %"class.v8::LocalBase", ptr %coerce.dive58, i32 0, i32 0
  %coerce.dive60 = getelementptr inbounds %"class.v8::IndirectHandleBase", ptr %coerce.dive59, i32 0, i32 0
  store ptr %260, ptr %coerce.dive60, align 8
  store ptr %ref.tmp55, ptr %this.addr.i230, align 8
  %this1.i231 = load ptr, ptr %this.addr.i230, align 8
  store ptr %this1.i231, ptr %this.addr.i701, align 8
  %this1.i702 = load ptr, ptr %this.addr.i701, align 8
  store ptr %this1.i702, ptr %this.addr.i.i700, align 8
  %this1.i.i703 = load ptr, ptr %this.addr.i.i700, align 8
  %261 = load ptr, ptr %this1.i.i703, align 8
  store ptr %261, ptr %slot.addr.i711, align 8
  %262 = load ptr, ptr %slot.addr.i711, align 8
  %call62 = call noundef zeroext i1 @_ZNK2v85Value7IsInt32Ev(ptr noundef nonnull align 1 dereferenceable(1) %262)
  br i1 %call62, label %if.then63, label %if.else80

if.then63:                                        ; preds = %_ZNK2v820FunctionCallbackInfoINS_5ValueEEixEi.exit154
  %263 = load ptr, ptr %args.addr, align 8
  %264 = load ptr, ptr %offset.addr, align 8
  %265 = load i32, ptr %264, align 4
  %add68 = add i32 %265, 1
  store ptr %263, ptr %this.addr.i120, align 8
  store i32 %add68, ptr %i.addr.i121, align 4
  %this1.i123 = load ptr, ptr %this.addr.i120, align 8
  %266 = load i32, ptr %i.addr.i121, align 4
  %cmp.i124 = icmp slt i32 %266, 0
  br i1 %cmp.i124, label %if.then.i133, label %lor.lhs.false.i125

lor.lhs.false.i125:                               ; preds = %if.then63
  %length_.i126 = getelementptr inbounds %"class.v8::FunctionCallbackInfo", ptr %this1.i123, i32 0, i32 2
  %267 = load i32, ptr %length_.i126, align 8
  %268 = load i32, ptr %i.addr.i121, align 4
  %cmp2.i127 = icmp sle i32 %267, %268
  br i1 %cmp2.i127, label %if.then.i133, label %if.end.i128

if.then.i133:                                     ; preds = %lor.lhs.false.i125, %if.then63
  store ptr %this1.i123, ptr %this.addr.i326, align 8
  %this1.i327 = load ptr, ptr %this.addr.i326, align 8
  %269 = load ptr, ptr %this1.i327, align 8
  %arrayidx.i328 = getelementptr inbounds i64, ptr %269, i64 1
  %270 = load ptr, ptr %arrayidx.i328, align 8
  store ptr %270, ptr %isolate.addr.i284, align 8
  %271 = load ptr, ptr %isolate.addr.i284, align 8
  store ptr %271, ptr %isolate.addr.i434, align 8
  %272 = load ptr, ptr %isolate.addr.i284, align 8
  store ptr %272, ptr %isolate.addr.i444, align 8
  store i32 4, ptr %index.addr.i445, align 4
  %273 = load ptr, ptr %isolate.addr.i444, align 8
  %274 = ptrtoint ptr %273 to i64
  %add.i447 = add i64 %274, 576
  %275 = load i32, ptr %index.addr.i445, align 4
  %mul.i448 = mul nsw i32 %275, 8
  %conv.i449 = sext i32 %mul.i448 to i64
  %add1.i450 = add i64 %add.i447, %conv.i449
  store i64 %add1.i450, ptr %addr.i446, align 8
  %276 = load i64, ptr %addr.i446, align 8
  %277 = inttoptr i64 %276 to ptr
  store ptr %277, ptr %slot.i285, align 8
  %278 = load ptr, ptr %slot.i285, align 8
  store ptr %278, ptr %slot.addr.i488, align 8
  %279 = load ptr, ptr %slot.addr.i488, align 8
  store ptr %279, ptr %slot.addr.i522, align 8
  %280 = load ptr, ptr %slot.addr.i522, align 8
  store ptr %retval.i521, ptr %this.addr.i549, align 8
  store ptr %280, ptr %location.addr.i550, align 8
  %this1.i551 = load ptr, ptr %this.addr.i549, align 8
  %281 = load ptr, ptr %location.addr.i550, align 8
  store ptr %this1.i551, ptr %this.addr.i.i547, align 8
  store ptr %281, ptr %location.addr.i.i548, align 8
  %this1.i.i552 = load ptr, ptr %this.addr.i.i547, align 8
  %282 = load ptr, ptr %location.addr.i.i548, align 8
  store ptr %282, ptr %this1.i.i552, align 8
  %283 = load ptr, ptr %retval.i521, align 8
  store ptr %283, ptr %ref.tmp.i489, align 8
  store ptr %retval.i487, ptr %this.addr.i539, align 8
  store ptr %ref.tmp.i489, ptr %other.addr.i540, align 8
  %this1.i541 = load ptr, ptr %this.addr.i539, align 8
  %284 = load ptr, ptr %other.addr.i540, align 8
  call void @llvm.memcpy.p0.p0.i64(ptr align 8 %this1.i541, ptr align 8 %284, i64 8, i1 false)
  %285 = load ptr, ptr %retval.i487, align 8
  store ptr %285, ptr %retval.i283, align 8
  %286 = load ptr, ptr %retval.i283, align 8
  store ptr %286, ptr %agg.tmp.i122, align 8
  %287 = load ptr, ptr %agg.tmp.i122, align 8
  store ptr %287, ptr %that.i306, align 8
  store ptr %retval.i119, ptr %this.addr.i307, align 8
  %this3.i308 = load ptr, ptr %this.addr.i307, align 8
  store ptr %this3.i308, ptr %this.addr.i747, align 8
  store ptr %that.i306, ptr %other.addr.i748, align 8
  %this1.i749 = load ptr, ptr %this.addr.i747, align 8
  %288 = load ptr, ptr %other.addr.i748, align 8
  call void @llvm.memcpy.p0.p0.i64(ptr align 8 %this1.i749, ptr align 8 %288, i64 8, i1 false)
  br label %_ZNK2v820FunctionCallbackInfoINS_5ValueEEixEi.exit136

if.end.i128:                                      ; preds = %lor.lhs.false.i125
  %values_.i129 = getelementptr inbounds %"class.v8::FunctionCallbackInfo", ptr %this1.i123, i32 0, i32 1
  %289 = load ptr, ptr %values_.i129, align 8
  %290 = load i32, ptr %i.addr.i121, align 4
  %idx.ext.i130 = sext i32 %290 to i64
  %add.ptr.i131 = getelementptr inbounds i64, ptr %289, i64 %idx.ext.i130
  store ptr %add.ptr.i131, ptr %slot.addr.i619, align 8
  %291 = load ptr, ptr %slot.addr.i619, align 8
  store ptr %291, ptr %slot.addr.i633, align 8
  %292 = load ptr, ptr %slot.addr.i633, align 8
  store ptr %retval.i632, ptr %this.addr.i676, align 8
  store ptr %292, ptr %location.addr.i677, align 8
  %this1.i678 = load ptr, ptr %this.addr.i676, align 8
  %293 = load ptr, ptr %location.addr.i677, align 8
  store ptr %this1.i678, ptr %this.addr.i.i674, align 8
  store ptr %293, ptr %location.addr.i.i675, align 8
  %this1.i.i679 = load ptr, ptr %this.addr.i.i674, align 8
  %294 = load ptr, ptr %location.addr.i.i675, align 8
  store ptr %294, ptr %this1.i.i679, align 8
  %295 = load ptr, ptr %retval.i632, align 8
  store ptr %295, ptr %ref.tmp.i620, align 8
  store ptr %retval.i618, ptr %this.addr.i.i616, align 8
  store ptr %ref.tmp.i620, ptr %other.addr.i.i617, align 8
  %this1.i.i622 = load ptr, ptr %this.addr.i.i616, align 8
  %296 = load ptr, ptr %other.addr.i.i617, align 8
  call void @llvm.memcpy.p0.p0.i64(ptr align 8 %this1.i.i622, ptr align 8 %296, i64 8, i1 false)
  %297 = load ptr, ptr %retval.i618, align 8
  store ptr %297, ptr %retval.i119, align 8
  br label %_ZNK2v820FunctionCallbackInfoINS_5ValueEEixEi.exit136

_ZNK2v820FunctionCallbackInfoINS_5ValueEEixEi.exit136: ; preds = %if.end.i128, %if.then.i133
  %298 = load ptr, ptr %retval.i119, align 8
  %coerce.dive70 = getelementptr inbounds %"class.v8::Local", ptr %ref.tmp67, i32 0, i32 0
  %coerce.dive71 = getelementptr inbounds %"class.v8::LocalBase", ptr %coerce.dive70, i32 0, i32 0
  %coerce.dive72 = getelementptr inbounds %"class.v8::IndirectHandleBase", ptr %coerce.dive71, i32 0, i32 0
  store ptr %298, ptr %coerce.dive72, align 8
  store ptr %ref.tmp67, ptr %this.addr.i246, align 8
  %this1.i248 = load ptr, ptr %this.addr.i246, align 8
  call void @llvm.memcpy.p0.p0.i64(ptr align 8 %agg.tmp.i247, ptr align 8 %this1.i248, i64 8, i1 false)
  %299 = load ptr, ptr %agg.tmp.i247, align 8
  store ptr %299, ptr %that.i719, align 8
  store ptr %ref.tmp.i720, ptr %this.addr.i721, align 8
  store ptr %that.i719, ptr %other.addr.i722, align 8
  %this1.i723 = load ptr, ptr %this.addr.i721, align 8
  %300 = load ptr, ptr %other.addr.i722, align 8
  call void @llvm.memcpy.p0.p0.i64(ptr align 8 %this1.i723, ptr align 8 %300, i64 8, i1 false)
  store ptr %retval.i718, ptr %this.addr.i727, align 8
  store ptr %ref.tmp.i720, ptr %other.addr.i728, align 8
  %this1.i729 = load ptr, ptr %this.addr.i727, align 8
  %301 = load ptr, ptr %other.addr.i728, align 8
  call void @llvm.memcpy.p0.p0.i64(ptr align 8 %this1.i729, ptr align 8 %301, i64 8, i1 false)
  %302 = load ptr, ptr %retval.i718, align 8
  store ptr %302, ptr %retval.i245, align 8
  %303 = load ptr, ptr %retval.i245, align 8
  %coerce.dive74 = getelementptr inbounds %"class.v8::Local.332", ptr %ref.tmp66, i32 0, i32 0
  %coerce.dive75 = getelementptr inbounds %"class.v8::LocalBase.333", ptr %coerce.dive74, i32 0, i32 0
  %coerce.dive76 = getelementptr inbounds %"class.v8::IndirectHandleBase", ptr %coerce.dive75, i32 0, i32 0
  store ptr %303, ptr %coerce.dive76, align 8
  store ptr %ref.tmp66, ptr %this.addr.i255, align 8
  %this1.i256 = load ptr, ptr %this.addr.i255, align 8
  store ptr %this1.i256, ptr %this.addr.i738, align 8
  %this1.i739 = load ptr, ptr %this.addr.i738, align 8
  store ptr %this1.i739, ptr %this.addr.i.i737, align 8
  %this1.i.i740 = load ptr, ptr %this.addr.i.i737, align 8
  %304 = load ptr, ptr %this1.i.i740, align 8
  store ptr %304, ptr %slot.addr.i742, align 8
  %305 = load ptr, ptr %slot.addr.i742, align 8
  %call78 = call noundef i32 @_ZNK2v85Int325ValueEv(ptr noundef nonnull align 1 dereferenceable(1) %305)
  store i32 %call78, ptr %ref.tmp65, align 4
  %call79 = call i64 @_ZN2v84JustIN4node6crypto14PKEncodingTypeETnPNSt9enable_ifIXntsr3stdE21is_lvalue_reference_vIT_EEvE4typeELPv0EEENS_5MaybeIS5_EEOS5_(ptr noundef nonnull align 4 dereferenceable(4) %ref.tmp65)
  store i64 %call79, ptr %ref.tmp64, align 4
  %306 = load ptr, ptr %config.addr, align 8
  %type_ = getelementptr inbounds %"struct.node::crypto::AsymmetricKeyEncodingConfig", ptr %306, i32 0, i32 2
  call void @llvm.memcpy.p0.p0.i64(ptr align 4 %type_, ptr align 4 %ref.tmp64, i64 8, i1 false)
  br label %if.end116

if.else80:                                        ; preds = %_ZNK2v820FunctionCallbackInfoINS_5ValueEEixEi.exit154
  br label %do.body81

do.body81:                                        ; preds = %if.else80
  %307 = load i32, ptr %context.addr, align 4
  %cmp82 = icmp eq i32 %307, 0
  br i1 %cmp82, label %land.lhs.true, label %lor.rhs

land.lhs.true:                                    ; preds = %do.body81
  %308 = load ptr, ptr %config.addr, align 8
  %format_83 = getelementptr inbounds %"struct.node::crypto::AsymmetricKeyEncodingConfig", ptr %308, i32 0, i32 1
  %309 = load i32, ptr %format_83, align 4
  %cmp84 = icmp eq i32 %309, 1
  br i1 %cmp84, label %lor.end, label %lor.rhs

lor.rhs:                                          ; preds = %land.lhs.true, %do.body81
  %310 = load i32, ptr %context.addr, align 4
  %cmp85 = icmp eq i32 %310, 2
  br i1 %cmp85, label %land.rhs, label %land.end

land.rhs:                                         ; preds = %lor.rhs
  %311 = load ptr, ptr %config.addr, align 8
  %format_86 = getelementptr inbounds %"struct.node::crypto::AsymmetricKeyEncodingConfig", ptr %311, i32 0, i32 1
  %312 = load i32, ptr %format_86, align 4
  %cmp87 = icmp eq i32 %312, 2
  br label %land.end

land.end:                                         ; preds = %land.rhs, %lor.rhs
  %313 = phi i1 [ false, %lor.rhs ], [ %cmp87, %land.rhs ]
  br label %lor.end

lor.end:                                          ; preds = %land.end, %land.lhs.true
  %314 = phi i1 [ true, %land.lhs.true ], [ %313, %land.end ]
  %lnot88 = xor i1 %314, true
  %lnot89 = xor i1 %lnot88, true
  %lnot90 = xor i1 %lnot89, true
  br i1 %lnot90, label %if.then91, label %if.end94

if.then91:                                        ; preds = %lor.end
  br label %do.body92

do.body92:                                        ; preds = %if.then91
  call void @_ZN4node6AssertERKNS_13AssertionInfoE(ptr noundef nonnull align 8 dereferenceable(24) @_ZZN4node6crypto12_GLOBAL__N_125GetKeyFormatAndTypeFromJsEPNS0_27AsymmetricKeyEncodingConfigERKN2v820FunctionCallbackInfoINS4_5ValueEEEPjNS0_18KeyEncodingContextEE4args_2)
  call void @abort() #14
  unreachable

do.end93:                                         ; No predecessors!
  br label %if.end94

if.end94:                                         ; preds = %do.end93, %lor.end
  br label %do.end95

do.end95:                                         ; preds = %if.end94
  br label %do.body96

do.body96:                                        ; preds = %do.end95
  %315 = load ptr, ptr %args.addr, align 8
  %316 = load ptr, ptr %offset.addr, align 8
  %317 = load i32, ptr %316, align 4
  %add98 = add i32 %317, 1
  store ptr %315, ptr %this.addr.i, align 8
  store i32 %add98, ptr %i.addr.i, align 4
  %this1.i = load ptr, ptr %this.addr.i, align 8
  %318 = load i32, ptr %i.addr.i, align 4
  %cmp.i = icmp slt i32 %318, 0
  br i1 %cmp.i, label %if.then.i, label %lor.lhs.false.i

lor.lhs.false.i:                                  ; preds = %do.body96
  %length_.i = getelementptr inbounds %"class.v8::FunctionCallbackInfo", ptr %this1.i, i32 0, i32 2
  %319 = load i32, ptr %length_.i, align 8
  %320 = load i32, ptr %i.addr.i, align 4
  %cmp2.i = icmp sle i32 %319, %320
  br i1 %cmp2.i, label %if.then.i, label %if.end.i

if.then.i:                                        ; preds = %lor.lhs.false.i, %do.body96
  store ptr %this1.i, ptr %this.addr.i329, align 8
  %this1.i330 = load ptr, ptr %this.addr.i329, align 8
  %321 = load ptr, ptr %this1.i330, align 8
  %arrayidx.i331 = getelementptr inbounds i64, ptr %321, i64 1
  %322 = load ptr, ptr %arrayidx.i331, align 8
  store ptr %322, ptr %isolate.addr.i289, align 8
  %323 = load ptr, ptr %isolate.addr.i289, align 8
  store ptr %323, ptr %isolate.addr.i433, align 8
  %324 = load ptr, ptr %isolate.addr.i289, align 8
  store ptr %324, ptr %isolate.addr.i440, align 8
  store i32 4, ptr %index.addr.i, align 4
  %325 = load ptr, ptr %isolate.addr.i440, align 8
  %326 = ptrtoint ptr %325 to i64
  %add.i442 = add i64 %326, 576
  %327 = load i32, ptr %index.addr.i, align 4
  %mul.i = mul nsw i32 %327, 8
  %conv.i443 = sext i32 %mul.i to i64
  %add1.i = add i64 %add.i442, %conv.i443
  store i64 %add1.i, ptr %addr.i441, align 8
  %328 = load i64, ptr %addr.i441, align 8
  %329 = inttoptr i64 %328 to ptr
  store ptr %329, ptr %slot.i290, align 8
  %330 = load ptr, ptr %slot.i290, align 8
  store ptr %330, ptr %slot.addr.i, align 8
  %331 = load ptr, ptr %slot.addr.i, align 8
  store ptr %331, ptr %slot.addr.i524, align 8
  %332 = load ptr, ptr %slot.addr.i524, align 8
  store ptr %retval.i523, ptr %this.addr.i545, align 8
  store ptr %332, ptr %location.addr.i, align 8
  %this1.i546 = load ptr, ptr %this.addr.i545, align 8
  %333 = load ptr, ptr %location.addr.i, align 8
  store ptr %this1.i546, ptr %this.addr.i.i, align 8
  store ptr %333, ptr %location.addr.i.i, align 8
  %this1.i.i = load ptr, ptr %this.addr.i.i, align 8
  %334 = load ptr, ptr %location.addr.i.i, align 8
  store ptr %334, ptr %this1.i.i, align 8
  %335 = load ptr, ptr %retval.i523, align 8
  store ptr %335, ptr %ref.tmp.i, align 8
  store ptr %retval.i486, ptr %this.addr.i542, align 8
  store ptr %ref.tmp.i, ptr %other.addr.i543, align 8
  %this1.i544 = load ptr, ptr %this.addr.i542, align 8
  %336 = load ptr, ptr %other.addr.i543, align 8
  call void @llvm.memcpy.p0.p0.i64(ptr align 8 %this1.i544, ptr align 8 %336, i64 8, i1 false)
  %337 = load ptr, ptr %retval.i486, align 8
  store ptr %337, ptr %retval.i288, align 8
  %338 = load ptr, ptr %retval.i288, align 8
  store ptr %338, ptr %agg.tmp.i, align 8
  %339 = load ptr, ptr %agg.tmp.i, align 8
  store ptr %339, ptr %that.i309, align 8
  store ptr %retval.i, ptr %this.addr.i310, align 8
  %this3.i311 = load ptr, ptr %this.addr.i310, align 8
  store ptr %this3.i311, ptr %this.addr.i744, align 8
  store ptr %that.i309, ptr %other.addr.i745, align 8
  %this1.i746 = load ptr, ptr %this.addr.i744, align 8
  %340 = load ptr, ptr %other.addr.i745, align 8
  call void @llvm.memcpy.p0.p0.i64(ptr align 8 %this1.i746, ptr align 8 %340, i64 8, i1 false)
  br label %_ZNK2v820FunctionCallbackInfoINS_5ValueEEixEi.exit

if.end.i:                                         ; preds = %lor.lhs.false.i
  %values_.i = getelementptr inbounds %"class.v8::FunctionCallbackInfo", ptr %this1.i, i32 0, i32 1
  %341 = load ptr, ptr %values_.i, align 8
  %342 = load i32, ptr %i.addr.i, align 4
  %idx.ext.i = sext i32 %342 to i64
  %add.ptr.i = getelementptr inbounds i64, ptr %341, i64 %idx.ext.i
  store ptr %add.ptr.i, ptr %slot.addr.i626, align 8
  %343 = load ptr, ptr %slot.addr.i626, align 8
  store ptr %343, ptr %slot.addr.i631, align 8
  %344 = load ptr, ptr %slot.addr.i631, align 8
  store ptr %retval.i630, ptr %this.addr.i682, align 8
  store ptr %344, ptr %location.addr.i683, align 8
  %this1.i684 = load ptr, ptr %this.addr.i682, align 8
  %345 = load ptr, ptr %location.addr.i683, align 8
  store ptr %this1.i684, ptr %this.addr.i.i680, align 8
  store ptr %345, ptr %location.addr.i.i681, align 8
  %this1.i.i685 = load ptr, ptr %this.addr.i.i680, align 8
  %346 = load ptr, ptr %location.addr.i.i681, align 8
  store ptr %346, ptr %this1.i.i685, align 8
  %347 = load ptr, ptr %retval.i630, align 8
  store ptr %347, ptr %ref.tmp.i627, align 8
  store ptr %retval.i625, ptr %this.addr.i.i623, align 8
  store ptr %ref.tmp.i627, ptr %other.addr.i.i624, align 8
  %this1.i.i629 = load ptr, ptr %this.addr.i.i623, align 8
  %348 = load ptr, ptr %other.addr.i.i624, align 8
  call void @llvm.memcpy.p0.p0.i64(ptr align 8 %this1.i.i629, ptr align 8 %348, i64 8, i1 false)
  %349 = load ptr, ptr %retval.i625, align 8
  store ptr %349, ptr %retval.i, align 8
  br label %_ZNK2v820FunctionCallbackInfoINS_5ValueEEixEi.exit

_ZNK2v820FunctionCallbackInfoINS_5ValueEEixEi.exit: ; preds = %if.end.i, %if.then.i
  %350 = load ptr, ptr %retval.i, align 8
  %coerce.dive100 = getelementptr inbounds %"class.v8::Local", ptr %ref.tmp97, i32 0, i32 0
  %coerce.dive101 = getelementptr inbounds %"class.v8::LocalBase", ptr %coerce.dive100, i32 0, i32 0
  %coerce.dive102 = getelementptr inbounds %"class.v8::IndirectHandleBase", ptr %coerce.dive101, i32 0, i32 0
  store ptr %350, ptr %coerce.dive102, align 8
  store ptr %ref.tmp97, ptr %this.addr.i227, align 8
  %this1.i228 = load ptr, ptr %this.addr.i227, align 8
  store ptr %this1.i228, ptr %this.addr.i706, align 8
  %this1.i707 = load ptr, ptr %this.addr.i706, align 8
  store ptr %this1.i707, ptr %this.addr.i.i705, align 8
  %this1.i.i708 = load ptr, ptr %this.addr.i.i705, align 8
  %351 = load ptr, ptr %this1.i.i708, align 8
  store ptr %351, ptr %slot.addr.i710, align 8
  %352 = load ptr, ptr %slot.addr.i710, align 8
  store ptr %352, ptr %this.addr.i242, align 8
  %this1.i243 = load ptr, ptr %this.addr.i242, align 8
  store ptr %this1.i243, ptr %this.addr.i421, align 8
  %this1.i423 = load ptr, ptr %this.addr.i421, align 8
  store ptr %this1.i423, ptr %value.addr.i.i, align 8
  %353 = load ptr, ptr %value.addr.i.i, align 8
  %354 = load i64, ptr %353, align 8
  store i64 %354, ptr %obj.i422, align 8
  %355 = load i64, ptr %obj.i422, align 8
  store i64 %355, ptr %value.addr.i9.i, align 8
  %356 = load i64, ptr %value.addr.i9.i, align 8
  %and.i.i = and i64 %356, 3
  %cmp.i.i = icmp eq i64 %and.i.i, 1
  br i1 %cmp.i.i, label %if.end.i425, label %if.then.i424

if.then.i424:                                     ; preds = %_ZNK2v820FunctionCallbackInfoINS_5ValueEEixEi.exit
  store i1 false, ptr %retval.i420, align 1
  br label %_ZNK2v85Value22QuickIsNullOrUndefinedEv.exit

if.end.i425:                                      ; preds = %_ZNK2v820FunctionCallbackInfoINS_5ValueEEixEi.exit
  %357 = load i64, ptr %obj.i422, align 8
  store i64 %357, ptr %obj.addr.i.i, align 8
  %358 = load i64, ptr %obj.addr.i.i, align 8
  store i64 %358, ptr %heap_object_ptr.addr.i.i.i, align 8
  store i32 0, ptr %offset.addr.i.i.i, align 4
  %359 = load i64, ptr %heap_object_ptr.addr.i.i.i, align 8
  %360 = load i32, ptr %offset.addr.i.i.i, align 4
  store i64 %359, ptr %heap_object_ptr.addr.i2.i.i, align 8
  store i32 %360, ptr %offset.addr.i3.i.i, align 4
  %361 = load i64, ptr %heap_object_ptr.addr.i2.i.i, align 8
  %362 = load i32, ptr %offset.addr.i3.i.i, align 4
  %conv.i.i.i = sext i32 %362 to i64
  %add.i.i.i = add i64 %361, %conv.i.i.i
  %sub.i.i.i = sub i64 %add.i.i.i, 1
  store i64 %sub.i.i.i, ptr %addr.i.i.i, align 8
  %363 = load i64, ptr %addr.i.i.i, align 8
  %364 = inttoptr i64 %363 to ptr
  %365 = load i64, ptr %364, align 8
  store i64 %365, ptr %map.i.i, align 8
  %366 = load i64, ptr %map.i.i, align 8
  store i64 %366, ptr %heap_object_ptr.addr.i.i417, align 8
  store i32 12, ptr %offset.addr.i.i418, align 4
  %367 = load i64, ptr %heap_object_ptr.addr.i.i417, align 8
  %368 = load i32, ptr %offset.addr.i.i418, align 4
  %conv.i12.i = sext i32 %368 to i64
  %add.i.i426 = add i64 %367, %conv.i12.i
  %sub.i.i427 = sub i64 %add.i.i426, 1
  store i64 %sub.i.i427, ptr %addr.i.i419, align 8
  %369 = load i64, ptr %addr.i.i419, align 8
  %370 = inttoptr i64 %369 to ptr
  %371 = load i16, ptr %370, align 2
  %conv.i.i428 = zext i16 %371 to i32
  %cmp.i429 = icmp ne i32 %conv.i.i428, 131
  br i1 %cmp.i429, label %if.then4.i432, label %if.end5.i430

if.then4.i432:                                    ; preds = %if.end.i425
  store i1 false, ptr %retval.i420, align 1
  br label %_ZNK2v85Value22QuickIsNullOrUndefinedEv.exit

if.end5.i430:                                     ; preds = %if.end.i425
  %372 = load i64, ptr %obj.i422, align 8
  store i64 %372, ptr %obj.addr.i10.i, align 8
  %373 = load i64, ptr %obj.addr.i10.i, align 8
  store i64 %373, ptr %heap_object_ptr.addr.i18.i, align 8
  store i32 40, ptr %offset.addr.i19.i, align 4
  %374 = load i64, ptr %heap_object_ptr.addr.i18.i, align 8
  %375 = load i32, ptr %offset.addr.i19.i, align 4
  store i64 %374, ptr %heap_object_ptr.addr.i.i15.i, align 8
  store i32 %375, ptr %offset.addr.i.i16.i, align 4
  %376 = load i64, ptr %heap_object_ptr.addr.i.i15.i, align 8
  %377 = load i32, ptr %offset.addr.i.i16.i, align 4
  %conv.i.i20.i = sext i32 %377 to i64
  %add.i.i21.i = add i64 %376, %conv.i.i20.i
  %sub.i.i22.i = sub i64 %add.i.i21.i, 1
  store i64 %sub.i.i22.i, ptr %addr.i.i17.i, align 8
  %378 = load i64, ptr %addr.i.i17.i, align 8
  %379 = inttoptr i64 %378 to ptr
  %380 = load i64, ptr %379, align 8
  store i64 %380, ptr %value.addr.i13.i, align 8
  %381 = load i64, ptr %value.addr.i13.i, align 8
  store i64 %381, ptr %value.addr.i23.i, align 8
  store i32 32, ptr %shift_bits.i.i, align 4
  %382 = load i64, ptr %value.addr.i23.i, align 8
  %383 = load i32, ptr %shift_bits.i.i, align 4
  %sh_prom.i.i = zext i32 %383 to i64
  %shr.i.i = ashr i64 %382, %sh_prom.i.i
  %conv.i24.i = trunc i64 %shr.i.i to i32
  store i32 %conv.i24.i, ptr %kind.i, align 4
  %384 = load i32, ptr %kind.i, align 4
  %cmp7.i431 = icmp eq i32 %384, 3
  br i1 %cmp7.i431, label %lor.end.i, label %lor.rhs.i

lor.rhs.i:                                        ; preds = %if.end5.i430
  %385 = load i32, ptr %kind.i, align 4
  %cmp8.i = icmp eq i32 %385, 5
  br label %lor.end.i

lor.end.i:                                        ; preds = %lor.rhs.i, %if.end5.i430
  %386 = phi i1 [ true, %if.end5.i430 ], [ %cmp8.i, %lor.rhs.i ]
  store i1 %386, ptr %retval.i420, align 1
  br label %_ZNK2v85Value22QuickIsNullOrUndefinedEv.exit

_ZNK2v85Value22QuickIsNullOrUndefinedEv.exit:     ; preds = %lor.end.i, %if.then4.i432, %if.then.i424
  %387 = load i1, ptr %retval.i420, align 1
  %lnot105 = xor i1 %387, true
  %lnot106 = xor i1 %lnot105, true
  %lnot107 = xor i1 %lnot106, true
  br i1 %lnot107, label %if.then108, label %if.end111

if.then108:                                       ; preds = %_ZNK2v85Value22QuickIsNullOrUndefinedEv.exit
  br label %do.body109

do.body109:                                       ; preds = %if.then108
  call void @_ZN4node6AssertERKNS_13AssertionInfoE(ptr noundef nonnull align 8 dereferenceable(24) @_ZZN4node6crypto12_GLOBAL__N_125GetKeyFormatAndTypeFromJsEPNS0_27AsymmetricKeyEncodingConfigERKN2v820FunctionCallbackInfoINS4_5ValueEEEPjNS0_18KeyEncodingContextEE4args_3)
  call void @abort() #14
  unreachable

do.end110:                                        ; No predecessors!
  br label %if.end111

if.end111:                                        ; preds = %do.end110, %_ZNK2v85Value22QuickIsNullOrUndefinedEv.exit
  br label %do.end112

do.end112:                                        ; preds = %if.end111
  %call114 = call i64 @_ZN2v87NothingIN4node6crypto14PKEncodingTypeEEENS_5MaybeIT_EEv()
  store i64 %call114, ptr %ref.tmp113, align 4
  %388 = load ptr, ptr %config.addr, align 8
  %type_115 = getelementptr inbounds %"struct.node::crypto::AsymmetricKeyEncodingConfig", ptr %388, i32 0, i32 2
  call void @llvm.memcpy.p0.p0.i64(ptr align 4 %type_115, ptr align 4 %ref.tmp113, i64 8, i1 false)
  br label %if.end116

if.end116:                                        ; preds = %do.end112, %_ZNK2v820FunctionCallbackInfoINS_5ValueEEixEi.exit136
  br label %if.end117

if.end117:                                        ; preds = %if.end116, %do.end25
  %389 = load ptr, ptr %offset.addr, align 8
  %390 = load i32, ptr %389, align 4
  %add118 = add i32 %390, 2
  store i32 %add118, ptr %389, align 4
  ret void
}

declare void @_ZN4node9Utf8ValueC1EPN2v87IsolateENS1_5LocalINS1_5ValueEEE(ptr noundef nonnull align 8 dereferenceable(1048), ptr noundef, ptr) unnamed_addr #1

declare ptr @EVP_get_cipherbyname(ptr noundef) #1

; Function Attrs: mustprogress nounwind uwtable
define linkonce_odr dso_local noundef ptr @_ZN4node16MaybeStackBufferIcLm1024EEdeEv(ptr noundef nonnull align 8 dereferenceable(1048) %this) #4 comdat align 2 {
entry:
  %this.addr = alloca ptr, align 8
  store ptr %this, ptr %this.addr, align 8
  %this1 = load ptr, ptr %this.addr, align 8
  %buf_ = getelementptr inbounds %"class.node::MaybeStackBuffer", ptr %this1, i32 0, i32 2
  %0 = load ptr, ptr %buf_, align 8
  ret ptr %0
}

; Function Attrs: mustprogress nounwind uwtable
define linkonce_odr dso_local void @_ZN4node31THROW_ERR_CRYPTO_UNKNOWN_CIPHEREPNS_11EnvironmentE(ptr noundef %env) #4 comdat {
entry:
  %env.addr = alloca ptr, align 8
  store ptr %env, ptr %env.addr, align 8
  %0 = load ptr, ptr %env.addr, align 8
  %call = call noundef ptr @_ZNK4node11Environment7isolateEv(ptr noundef nonnull align 8 dereferenceable(2872) %0)
  call void @_ZN4node31THROW_ERR_CRYPTO_UNKNOWN_CIPHEREPN2v87IsolateE(ptr noundef %call)
  ret void
}

; Function Attrs: mustprogress nounwind uwtable
define linkonce_odr dso_local void @_ZN4node16NonCopyableMaybeINS_6crypto24PrivateKeyEncodingConfigEEC2Ev(ptr noundef nonnull align 8 dereferenceable(64) %this) unnamed_addr #4 comdat align 2 {
entry:
  %this.addr = alloca ptr, align 8
  store ptr %this, ptr %this.addr, align 8
  %this1 = load ptr, ptr %this.addr, align 8
  %empty_ = getelementptr inbounds %"class.node::NonCopyableMaybe.292", ptr %this1, i32 0, i32 0
  store i8 1, ptr %empty_, align 8
  %value_ = getelementptr inbounds %"class.node::NonCopyableMaybe.292", ptr %this1, i32 0, i32 1
  call void @_ZN4node6crypto24PrivateKeyEncodingConfigC2Ev(ptr noundef nonnull align 8 dereferenceable(56) %value_)
  ret void
}

; Function Attrs: mustprogress nounwind uwtable
define linkonce_odr dso_local void @_ZN4node9Utf8ValueD2Ev(ptr noundef nonnull align 8 dereferenceable(1048) %this) unnamed_addr #4 comdat align 2 {
entry:
  %this.addr = alloca ptr, align 8
  store ptr %this, ptr %this.addr, align 8
  %this1 = load ptr, ptr %this.addr, align 8
  call void @_ZN4node16MaybeStackBufferIcLm1024EED2Ev(ptr noundef nonnull align 8 dereferenceable(1048) %this1) #3
  ret void
}

; Function Attrs: mustprogress nounwind uwtable
define linkonce_odr dso_local noundef zeroext i1 @_ZN4node6crypto17IsAnyBufferSourceEN2v85LocalINS1_5ValueEEE(ptr %arg.coerce) #4 comdat {
entry:
  %slot.addr.i27 = alloca ptr, align 8
  %slot.addr.i26 = alloca ptr, align 8
  %slot.addr.i = alloca ptr, align 8
  %this.addr.i.i21 = alloca ptr, align 8
  %this.addr.i22 = alloca ptr, align 8
  %this.addr.i.i16 = alloca ptr, align 8
  %this.addr.i17 = alloca ptr, align 8
  %this.addr.i.i = alloca ptr, align 8
  %this.addr.i14 = alloca ptr, align 8
  %this.addr.i11 = alloca ptr, align 8
  %this.addr.i8 = alloca ptr, align 8
  %this.addr.i = alloca ptr, align 8
  %arg = alloca %"class.v8::Local", align 8
  %coerce.dive = getelementptr inbounds %"class.v8::Local", ptr %arg, i32 0, i32 0
  %coerce.dive1 = getelementptr inbounds %"class.v8::LocalBase", ptr %coerce.dive, i32 0, i32 0
  %coerce.dive2 = getelementptr inbounds %"class.v8::IndirectHandleBase", ptr %coerce.dive1, i32 0, i32 0
  store ptr %arg.coerce, ptr %coerce.dive2, align 8
  store ptr %arg, ptr %this.addr.i11, align 8
  %this1.i12 = load ptr, ptr %this.addr.i11, align 8
  store ptr %this1.i12, ptr %this.addr.i14, align 8
  %this1.i15 = load ptr, ptr %this.addr.i14, align 8
  store ptr %this1.i15, ptr %this.addr.i.i, align 8
  %this1.i.i = load ptr, ptr %this.addr.i.i, align 8
  %0 = load ptr, ptr %this1.i.i, align 8
  store ptr %0, ptr %slot.addr.i27, align 8
  %1 = load ptr, ptr %slot.addr.i27, align 8
  %call3 = call noundef zeroext i1 @_ZNK2v85Value17IsArrayBufferViewEv(ptr noundef nonnull align 1 dereferenceable(1) %1)
  br i1 %call3, label %lor.end, label %lor.lhs.false

lor.lhs.false:                                    ; preds = %entry
  store ptr %arg, ptr %this.addr.i8, align 8
  %this1.i9 = load ptr, ptr %this.addr.i8, align 8
  store ptr %this1.i9, ptr %this.addr.i17, align 8
  %this1.i18 = load ptr, ptr %this.addr.i17, align 8
  store ptr %this1.i18, ptr %this.addr.i.i16, align 8
  %this1.i.i19 = load ptr, ptr %this.addr.i.i16, align 8
  %2 = load ptr, ptr %this1.i.i19, align 8
  store ptr %2, ptr %slot.addr.i26, align 8
  %3 = load ptr, ptr %slot.addr.i26, align 8
  %call5 = call noundef zeroext i1 @_ZNK2v85Value13IsArrayBufferEv(ptr noundef nonnull align 1 dereferenceable(1) %3)
  br i1 %call5, label %lor.end, label %lor.rhs

lor.rhs:                                          ; preds = %lor.lhs.false
  store ptr %arg, ptr %this.addr.i, align 8
  %this1.i = load ptr, ptr %this.addr.i, align 8
  store ptr %this1.i, ptr %this.addr.i22, align 8
  %this1.i23 = load ptr, ptr %this.addr.i22, align 8
  store ptr %this1.i23, ptr %this.addr.i.i21, align 8
  %this1.i.i24 = load ptr, ptr %this.addr.i.i21, align 8
  %4 = load ptr, ptr %this1.i.i24, align 8
  store ptr %4, ptr %slot.addr.i, align 8
  %5 = load ptr, ptr %slot.addr.i, align 8
  %call7 = call noundef zeroext i1 @_ZNK2v85Value19IsSharedArrayBufferEv(ptr noundef nonnull align 1 dereferenceable(1) %5)
  br label %lor.end

lor.end:                                          ; preds = %lor.rhs, %lor.lhs.false, %entry
  %6 = phi i1 [ true, %lor.lhs.false ], [ true, %entry ], [ %call7, %lor.rhs ]
  ret i1 %6
}

; Function Attrs: mustprogress nounwind uwtable
define linkonce_odr dso_local void @_ZN4node6crypto25ArrayBufferOrViewContentsIcEC2EN2v85LocalINS3_5ValueEEE(ptr noundef nonnull align 8 dereferenceable(32) %this, ptr %buf.coerce) unnamed_addr #4 comdat align 2 {
entry:
  %slot.addr.i181 = alloca ptr, align 8
  %slot.addr.i180 = alloca ptr, align 8
  %this.addr.i.i175 = alloca ptr, align 8
  %this.addr.i176 = alloca ptr, align 8
  %this.addr.i.i171 = alloca ptr, align 8
  %this.addr.i172 = alloca ptr, align 8
  %this.addr.i168 = alloca ptr, align 8
  %other.addr.i169 = alloca ptr, align 8
  %this.addr.i165 = alloca ptr, align 8
  %other.addr.i166 = alloca ptr, align 8
  %retval.i162 = alloca %"class.v8::Local.495", align 8
  %that.i163 = alloca %"class.v8::Local", align 8
  %ref.tmp.i164 = alloca %"class.v8::LocalBase.496", align 8
  %this.addr.i159 = alloca ptr, align 8
  %other.addr.i160 = alloca ptr, align 8
  %this.addr.i156 = alloca ptr, align 8
  %other.addr.i157 = alloca ptr, align 8
  %retval.i153 = alloca %"class.v8::Local.493", align 8
  %that.i154 = alloca %"class.v8::Local", align 8
  %ref.tmp.i155 = alloca %"class.v8::LocalBase.494", align 8
  %slot.addr.i152 = alloca ptr, align 8
  %slot.addr.i151 = alloca ptr, align 8
  %slot.addr.i150 = alloca ptr, align 8
  %this.addr.i.i145 = alloca ptr, align 8
  %this.addr.i146 = alloca ptr, align 8
  %this.addr.i.i140 = alloca ptr, align 8
  %this.addr.i141 = alloca ptr, align 8
  %this.addr.i.i136 = alloca ptr, align 8
  %this.addr.i137 = alloca ptr, align 8
  %slot.addr.i135 = alloca ptr, align 8
  %slot.addr.i134 = alloca ptr, align 8
  %slot.addr.i133 = alloca ptr, align 8
  %this.addr.i.i128 = alloca ptr, align 8
  %this.addr.i129 = alloca ptr, align 8
  %this.addr.i.i123 = alloca ptr, align 8
  %this.addr.i124 = alloca ptr, align 8
  %this.addr.i.i119 = alloca ptr, align 8
  %this.addr.i120 = alloca ptr, align 8
  %this.addr.i116 = alloca ptr, align 8
  %other.addr.i117 = alloca ptr, align 8
  %this.addr.i114 = alloca ptr, align 8
  %other.addr.i = alloca ptr, align 8
  %retval.i113 = alloca %"class.v8::Local.491", align 8
  %that.i = alloca %"class.v8::Local", align 8
  %ref.tmp.i = alloca %"class.v8::LocalBase.492", align 8
  %this.addr.i110 = alloca ptr, align 8
  %this.addr.i107 = alloca ptr, align 8
  %retval.i102 = alloca %"class.v8::Local.495", align 8
  %this.addr.i103 = alloca ptr, align 8
  %agg.tmp.i104 = alloca %"class.v8::Local", align 8
  %retval.i97 = alloca %"class.v8::Local.493", align 8
  %this.addr.i98 = alloca ptr, align 8
  %agg.tmp.i99 = alloca %"class.v8::Local", align 8
  %this.addr.i94 = alloca ptr, align 8
  %this.addr.i91 = alloca ptr, align 8
  %this.addr.i88 = alloca ptr, align 8
  %this.addr.i85 = alloca ptr, align 8
  %this.addr.i82 = alloca ptr, align 8
  %this.addr.i79 = alloca ptr, align 8
  %retval.i = alloca %"class.v8::Local.491", align 8
  %this.addr.i77 = alloca ptr, align 8
  %agg.tmp.i = alloca %"class.v8::Local", align 8
  %slot.addr.i76 = alloca ptr, align 8
  %slot.addr.i = alloca ptr, align 8
  %this.addr.i.i71 = alloca ptr, align 8
  %this.addr.i72 = alloca ptr, align 8
  %this.addr.i.i = alloca ptr, align 8
  %this.addr.i69 = alloca ptr, align 8
  %this.addr.i67 = alloca ptr, align 8
  %this.addr.i64 = alloca ptr, align 8
  %this.addr.i = alloca ptr, align 8
  %buf = alloca %"class.v8::Local", align 8
  %this.addr = alloca ptr, align 8
  %agg.tmp = alloca %"class.v8::Local", align 8
  %view = alloca %"class.v8::Local.491", align 8
  %ref.tmp = alloca %"class.v8::Local.493", align 8
  %ab = alloca %"class.v8::Local.493", align 8
  %sab = alloca %"class.v8::Local.495", align 8
  %coerce.dive = getelementptr inbounds %"class.v8::Local", ptr %buf, i32 0, i32 0
  %coerce.dive1 = getelementptr inbounds %"class.v8::LocalBase", ptr %coerce.dive, i32 0, i32 0
  %coerce.dive2 = getelementptr inbounds %"class.v8::IndirectHandleBase", ptr %coerce.dive1, i32 0, i32 0
  store ptr %buf.coerce, ptr %coerce.dive2, align 8
  store ptr %this, ptr %this.addr, align 8
  %this3 = load ptr, ptr %this.addr, align 8
  %buf4 = getelementptr inbounds %"class.node::crypto::ArrayBufferOrViewContents", ptr %this3, i32 0, i32 0
  store i8 0, ptr %buf4, align 8
  %offset_ = getelementptr inbounds %"class.node::crypto::ArrayBufferOrViewContents", ptr %this3, i32 0, i32 1
  store i64 0, ptr %offset_, align 8
  %length_ = getelementptr inbounds %"class.node::crypto::ArrayBufferOrViewContents", ptr %this3, i32 0, i32 2
  store i64 0, ptr %length_, align 8
  %data_ = getelementptr inbounds %"class.node::crypto::ArrayBufferOrViewContents", ptr %this3, i32 0, i32 3
  store ptr null, ptr %data_, align 8
  store ptr %buf, ptr %this.addr.i67, align 8
  %this1.i68 = load ptr, ptr %this.addr.i67, align 8
  %0 = load ptr, ptr %this1.i68, align 8
  %cmp.i = icmp eq ptr %0, null
  br i1 %cmp.i, label %if.then, label %if.end

if.then:                                          ; preds = %entry
  br label %if.end63

if.end:                                           ; preds = %entry
  br label %do.body

do.body:                                          ; preds = %if.end
  call void @llvm.memcpy.p0.p0.i64(ptr align 8 %agg.tmp, ptr align 8 %buf, i64 8, i1 false)
  %coerce.dive5 = getelementptr inbounds %"class.v8::Local", ptr %agg.tmp, i32 0, i32 0
  %coerce.dive6 = getelementptr inbounds %"class.v8::LocalBase", ptr %coerce.dive5, i32 0, i32 0
  %coerce.dive7 = getelementptr inbounds %"class.v8::IndirectHandleBase", ptr %coerce.dive6, i32 0, i32 0
  %1 = load ptr, ptr %coerce.dive7, align 8
  %call8 = call noundef zeroext i1 @_ZN4node6crypto17IsAnyBufferSourceEN2v85LocalINS1_5ValueEEE(ptr %1)
  %lnot = xor i1 %call8, true
  %lnot9 = xor i1 %lnot, true
  %lnot10 = xor i1 %lnot9, true
  br i1 %lnot10, label %if.then11, label %if.end13

if.then11:                                        ; preds = %do.body
  br label %do.body12

do.body12:                                        ; preds = %if.then11
  call void @_ZN4node6AssertERKNS_13AssertionInfoE(ptr noundef nonnull align 8 dereferenceable(24) @_ZZN4node6crypto25ArrayBufferOrViewContentsIcEC1EN2v85LocalINS3_5ValueEEEE4args)
  call void @abort() #14
  unreachable

do.end:                                           ; No predecessors!
  br label %if.end13

if.end13:                                         ; preds = %do.end, %do.body
  br label %do.end14

do.end14:                                         ; preds = %if.end13
  store ptr %buf, ptr %this.addr.i64, align 8
  %this1.i65 = load ptr, ptr %this.addr.i64, align 8
  store ptr %this1.i65, ptr %this.addr.i69, align 8
  %this1.i70 = load ptr, ptr %this.addr.i69, align 8
  store ptr %this1.i70, ptr %this.addr.i.i, align 8
  %this1.i.i = load ptr, ptr %this.addr.i.i, align 8
  %2 = load ptr, ptr %this1.i.i, align 8
  store ptr %2, ptr %slot.addr.i76, align 8
  %3 = load ptr, ptr %slot.addr.i76, align 8
  %call16 = call noundef zeroext i1 @_ZNK2v85Value17IsArrayBufferViewEv(ptr noundef nonnull align 1 dereferenceable(1) %3)
  br i1 %call16, label %if.then17, label %if.else

if.then17:                                        ; preds = %do.end14
  store ptr %buf, ptr %this.addr.i77, align 8
  %this1.i78 = load ptr, ptr %this.addr.i77, align 8
  call void @llvm.memcpy.p0.p0.i64(ptr align 8 %agg.tmp.i, ptr align 8 %this1.i78, i64 8, i1 false)
  %4 = load ptr, ptr %agg.tmp.i, align 8
  store ptr %4, ptr %that.i, align 8
  store ptr %ref.tmp.i, ptr %this.addr.i114, align 8
  store ptr %that.i, ptr %other.addr.i, align 8
  %this1.i115 = load ptr, ptr %this.addr.i114, align 8
  %5 = load ptr, ptr %other.addr.i, align 8
  call void @llvm.memcpy.p0.p0.i64(ptr align 8 %this1.i115, ptr align 8 %5, i64 8, i1 false)
  store ptr %retval.i113, ptr %this.addr.i116, align 8
  store ptr %ref.tmp.i, ptr %other.addr.i117, align 8
  %this1.i118 = load ptr, ptr %this.addr.i116, align 8
  %6 = load ptr, ptr %other.addr.i117, align 8
  call void @llvm.memcpy.p0.p0.i64(ptr align 8 %this1.i118, ptr align 8 %6, i64 8, i1 false)
  %7 = load ptr, ptr %retval.i113, align 8
  store ptr %7, ptr %retval.i, align 8
  %8 = load ptr, ptr %retval.i, align 8
  %coerce.dive19 = getelementptr inbounds %"class.v8::Local.491", ptr %view, i32 0, i32 0
  %coerce.dive20 = getelementptr inbounds %"class.v8::LocalBase.492", ptr %coerce.dive19, i32 0, i32 0
  %coerce.dive21 = getelementptr inbounds %"class.v8::IndirectHandleBase", ptr %coerce.dive20, i32 0, i32 0
  store ptr %8, ptr %coerce.dive21, align 8
  store ptr %view, ptr %this.addr.i85, align 8
  %this1.i86 = load ptr, ptr %this.addr.i85, align 8
  store ptr %this1.i86, ptr %this.addr.i120, align 8
  %this1.i121 = load ptr, ptr %this.addr.i120, align 8
  store ptr %this1.i121, ptr %this.addr.i.i119, align 8
  %this1.i.i122 = load ptr, ptr %this.addr.i.i119, align 8
  %9 = load ptr, ptr %this1.i.i122, align 8
  store ptr %9, ptr %slot.addr.i135, align 8
  %10 = load ptr, ptr %slot.addr.i135, align 8
  %call23 = call noundef i64 @_ZN2v815ArrayBufferView10ByteOffsetEv(ptr noundef nonnull align 1 dereferenceable(1) %10)
  %offset_24 = getelementptr inbounds %"class.node::crypto::ArrayBufferOrViewContents", ptr %this3, i32 0, i32 1
  store i64 %call23, ptr %offset_24, align 8
  store ptr %view, ptr %this.addr.i82, align 8
  %this1.i83 = load ptr, ptr %this.addr.i82, align 8
  store ptr %this1.i83, ptr %this.addr.i124, align 8
  %this1.i125 = load ptr, ptr %this.addr.i124, align 8
  store ptr %this1.i125, ptr %this.addr.i.i123, align 8
  %this1.i.i126 = load ptr, ptr %this.addr.i.i123, align 8
  %11 = load ptr, ptr %this1.i.i126, align 8
  store ptr %11, ptr %slot.addr.i134, align 8
  %12 = load ptr, ptr %slot.addr.i134, align 8
  %call26 = call noundef i64 @_ZN2v815ArrayBufferView10ByteLengthEv(ptr noundef nonnull align 1 dereferenceable(1) %12)
  %length_27 = getelementptr inbounds %"class.node::crypto::ArrayBufferOrViewContents", ptr %this3, i32 0, i32 2
  store i64 %call26, ptr %length_27, align 8
  store ptr %view, ptr %this.addr.i79, align 8
  %this1.i80 = load ptr, ptr %this.addr.i79, align 8
  store ptr %this1.i80, ptr %this.addr.i129, align 8
  %this1.i130 = load ptr, ptr %this.addr.i129, align 8
  store ptr %this1.i130, ptr %this.addr.i.i128, align 8
  %this1.i.i131 = load ptr, ptr %this.addr.i.i128, align 8
  %13 = load ptr, ptr %this1.i.i131, align 8
  store ptr %13, ptr %slot.addr.i133, align 8
  %14 = load ptr, ptr %slot.addr.i133, align 8
  %call29 = call ptr @_ZN2v815ArrayBufferView6BufferEv(ptr noundef nonnull align 1 dereferenceable(1) %14)
  %coerce.dive30 = getelementptr inbounds %"class.v8::Local.493", ptr %ref.tmp, i32 0, i32 0
  %coerce.dive31 = getelementptr inbounds %"class.v8::LocalBase.494", ptr %coerce.dive30, i32 0, i32 0
  %coerce.dive32 = getelementptr inbounds %"class.v8::IndirectHandleBase", ptr %coerce.dive31, i32 0, i32 0
  store ptr %call29, ptr %coerce.dive32, align 8
  store ptr %ref.tmp, ptr %this.addr.i94, align 8
  %this1.i95 = load ptr, ptr %this.addr.i94, align 8
  store ptr %this1.i95, ptr %this.addr.i137, align 8
  %this1.i138 = load ptr, ptr %this.addr.i137, align 8
  store ptr %this1.i138, ptr %this.addr.i.i136, align 8
  %this1.i.i139 = load ptr, ptr %this.addr.i.i136, align 8
  %15 = load ptr, ptr %this1.i.i139, align 8
  store ptr %15, ptr %slot.addr.i152, align 8
  %16 = load ptr, ptr %slot.addr.i152, align 8
  %call34 = call noundef ptr @_ZNK2v811ArrayBuffer4DataEv(ptr noundef nonnull align 1 dereferenceable(1) %16)
