target datalayout = "e-m:e-p270:32:32-p271:32:32-p272:64:64-i64:64-i128:128-f80:128-n8:16:32:64-S128"
target triple = "x86_64-unknown-linux-gnu"

%"class.std::ios_base::Init" = type { i8 }
%"struct.std::_Optional_payload_base<node::SocketAddress>::_Empty_byte" = type { i8 }
%"class.node::quic::QuicError" = type { %"class.node::MemoryRetainer", %"class.std::__cxx11::basic_string", %struct.ngtcp2_connection_close_error, ptr }
%"class.node::MemoryRetainer" = type { ptr }
%"class.std::__cxx11::basic_string" = type { %"struct.std::__cxx11::basic_string<char>::_Alloc_hider", i64, %union.anon }
%"struct.std::__cxx11::basic_string<char>::_Alloc_hider" = type { ptr }
%union.anon = type { i64, [8 x i8] }
%struct.ngtcp2_connection_close_error = type { i32, i64, i64, ptr, i64 }
%"struct.node::AssertionInfo" = type { ptr, ptr, ptr }
%"struct.std::piecewise_construct_t" = type { i8 }
%"struct.node::quic::TransportParams::Options" = type <{ %"class.node::MemoryRetainer", %"class.std::optional", %"class.std::optional", i64, i64, i64, i64, i64, i64, i64, i64, i64, i64, i64, i8, [7 x i8] }>
%"class.std::optional" = type { %"struct.std::_Optional_base" }
%"struct.std::_Optional_base" = type { %"struct.std::_Optional_payload" }
%"struct.std::_Optional_payload" = type { %"struct.std::_Optional_payload.base", [7 x i8] }
%"struct.std::_Optional_payload.base" = type { %"struct.std::_Optional_payload_base.base" }
%"struct.std::_Optional_payload_base.base" = type <{ %"union.std::_Optional_payload_base<node::SocketAddress>::_Storage", i8 }>
%"union.std::_Optional_payload_base<node::SocketAddress>::_Storage" = type { %"class.node::SocketAddress" }
%"class.node::SocketAddress" = type { %"class.node::MemoryRetainer", %struct.sockaddr_storage }
%struct.sockaddr_storage = type { i16, [118 x i8], i64 }
%"struct.node::quic::TransportParams::Config" = type { i32, ptr, ptr }
%"class.v8::Maybe" = type { i8, [7 x i8], %"struct.node::quic::TransportParams::Options" }
%"class.v8::Local.11" = type { %"class.v8::LocalBase.12" }
%"class.v8::LocalBase.12" = type { %"class.v8::IndirectHandleBase" }
%"class.v8::IndirectHandleBase" = type { ptr }
%"class.v8::Local" = type { %"class.v8::LocalBase" }
%"class.v8::LocalBase" = type { %"class.v8::IndirectHandleBase" }
%"class.v8::Local.13" = type { %"class.v8::LocalBase.14" }
%"class.v8::LocalBase.14" = type { %"class.v8::IndirectHandleBase" }
%"class.v8::Local.494" = type { %"class.v8::LocalBase.495" }
%"class.v8::LocalBase.495" = type { %"class.v8::IndirectHandleBase" }
%"class.v8::Local.524" = type { %"class.v8::LocalBase.525" }
%"class.v8::LocalBase.525" = type { %"class.v8::IndirectHandleBase" }
%"class.v8::MaybeLocal.523" = type { %"class.v8::Local" }
%"class.v8::Local.492" = type { %"class.v8::LocalBase.493" }
%"class.v8::LocalBase.493" = type { %"class.v8::IndirectHandleBase" }
%"class.node::Utf8Value" = type { %"class.node::MaybeStackBuffer" }
%"class.node::MaybeStackBuffer" = type { i64, i64, ptr, [1024 x i8] }
%"class.node::quic::TransportParams" = type { i32, %struct.ngtcp2_transport_params, ptr, %"class.node::quic::QuicError" }
%struct.ngtcp2_transport_params = type { %struct.ngtcp2_preferred_addr, %struct.ngtcp2_cid, %struct.ngtcp2_cid, %struct.ngtcp2_cid, i64, i64, i64, i64, i64, i64, i64, i64, i64, i64, i64, i64, i8, i8, i8, i8, [16 x i8], i8, %struct.ngtcp2_version_info, i8 }
%struct.ngtcp2_preferred_addr = type { %struct.ngtcp2_cid, i16, i16, [4 x i8], [16 x i8], i8, i8, [16 x i8] }
%struct.ngtcp2_cid = type { i64, [20 x i8] }
%struct.ngtcp2_version_info = type { i32, ptr, i64 }
%struct.sockaddr_in = type { i16, i16, %struct.in_addr, [8 x i8] }
%struct.in_addr = type { i32 }
%struct.sockaddr_in6 = type { i16, i16, i32, %struct.in6_addr, i32 }
%struct.in6_addr = type { %union.anon.320 }
%union.anon.320 = type { [4 x i32] }
%"class.std::basic_string_view" = type { i64, ptr }
%struct.ngtcp2_vec = type { ptr, i64 }
%"class.node::quic::Store" = type { %"class.node::MemoryRetainer", %"class.std::shared_ptr", i64, i64 }
%"class.std::shared_ptr" = type { %"class.std::__shared_ptr" }
%"class.std::__shared_ptr" = type { ptr, %"class.std::__shared_count" }
%"class.std::__shared_count" = type { ptr }
%"class.std::unique_ptr" = type { %"struct.std::__uniq_ptr_data" }
%"struct.std::__uniq_ptr_data" = type { %"class.std::__uniq_ptr_impl" }
%"class.std::__uniq_ptr_impl" = type { %"class.std::tuple" }
%"class.std::tuple" = type { %"struct.std::_Tuple_impl" }
%"struct.std::_Tuple_impl" = type { %"struct.std::_Head_base.42" }
%"struct.std::_Head_base.42" = type { ptr }
%"class.node::Environment" = type { %"class.node::MemoryRetainer", %"class.std::unordered_multimap", %"class.std::__cxx11::list", ptr, ptr, %struct.uv_timer_s, %struct.uv_check_s, %struct.uv_idle_s, %struct.uv_prepare_s, %struct.uv_check_s, %struct.uv_async_s, i64, %"struct.std::atomic", %"struct.std::atomic", %"class.node::AsyncHooks", %"class.node::ImmediateInfo", %"class.node::AliasedBufferBase.82", %"class.node::TickInfo", %"class.node::permission::Permission", i64, %"class.std::shared_ptr.108", i8, i8, i8, i8, i8, i8, i64, %"class.std::vector.111", %"class.std::unordered_set", %"class.std::unique_ptr.135", %"class.std::unique_ptr.143", %"class.std::__cxx11::basic_string", %"class.std::__cxx11::basic_string", %"class.std::__cxx11::basic_string", i64, %"class.std::unique_ptr.151", %"class.std::__cxx11::basic_string", %"class.std::__cxx11::basic_string", i64, %"class.std::shared_ptr.159", %"class.std::shared_ptr.162", %"class.std::vector.165", %"class.std::vector.165", %"class.std::__cxx11::basic_string", i8, i32, i32, i8, i32, i32, i32, i32, %"class.node::AliasedBufferBase.82", %"class.node::AliasedBufferBase.72", i32, %"class.std::unique_ptr.170", %"class.node::AliasedBufferBase.82", i64, double, i64, %"class.std::unique_ptr.178", i8, i64, i64, %"class.std::unordered_set.186", %"class.std::unique_ptr.206", i8, %"class.std::__cxx11::list.214", %"class.node::ListHead", %"class.node::ListHead.219", %"class.std::__cxx11::list.221", i32, i32, %"class.node::EnabledDebugList", %"class.std::vector.226", %"class.std::__cxx11::list.231", %"class.node::MutexBase", %"class.std::__cxx11::list.236", %"class.node::CallbackQueue", %"class.node::MutexBase", %"class.node::CallbackQueue", %"class.node::CallbackQueue", i8, %"struct.std::atomic.251", %"class.node::CleanupQueue", i8, %"class.std::unordered_set.269", %"class.std::function", %"class.std::unique_ptr.284", %"class.node::builtins::BuiltinLoader", %"class.std::function.298", %"class.std::unordered_map.300" }
%"class.std::unordered_multimap" = type { %"class.std::_Hashtable.43" }
%"class.std::_Hashtable.43" = type { ptr, i64, %"struct.std::__detail::_Hash_node_base", i64, %"struct.std::__detail::_Prime_rehash_policy", ptr }
%"struct.std::__detail::_Hash_node_base" = type { ptr }
%"struct.std::__detail::_Prime_rehash_policy" = type { float, i64 }
%"class.std::__cxx11::list" = type { %"class.std::__cxx11::_List_base" }
%"class.std::__cxx11::_List_base" = type { %"struct.std::__cxx11::_List_base<node::binding::DLib, std::allocator<node::binding::DLib>>::_List_impl" }
%"struct.std::__cxx11::_List_base<node::binding::DLib, std::allocator<node::binding::DLib>>::_List_impl" = type { %"struct.std::__detail::_List_node_header" }
%"struct.std::__detail::_List_node_header" = type { %"struct.std::__detail::_List_node_base", i64 }
%"struct.std::__detail::_List_node_base" = type { ptr, ptr }
%struct.uv_timer_s = type { ptr, ptr, i32, ptr, %struct.uv__queue, %union.anon.65, ptr, i32, ptr, [3 x ptr], i64, i64, i64 }
%struct.uv__queue = type { ptr, ptr }
%union.anon.65 = type { [4 x ptr] }
%struct.uv_idle_s = type { ptr, ptr, i32, ptr, %struct.uv__queue, %union.anon.67, ptr, i32, ptr, %struct.uv__queue }
%union.anon.67 = type { [4 x ptr] }
%struct.uv_prepare_s = type { ptr, ptr, i32, ptr, %struct.uv__queue, %union.anon.68, ptr, i32, ptr, %struct.uv__queue }
%union.anon.68 = type { [4 x ptr] }
%struct.uv_check_s = type { ptr, ptr, i32, ptr, %struct.uv__queue, %union.anon.66, ptr, i32, ptr, %struct.uv__queue }
%union.anon.66 = type { [4 x ptr] }
%struct.uv_async_s = type { ptr, ptr, i32, ptr, %struct.uv__queue, %union.anon.69, ptr, i32, ptr, %struct.uv__queue, i32 }
%union.anon.69 = type { [4 x ptr] }
%"struct.std::atomic" = type { %"struct.std::__atomic_base" }
%"struct.std::__atomic_base" = type { i8 }
%"class.node::AsyncHooks" = type { %"class.node::MemoryRetainer", %"class.node::AliasedBufferBase", %"class.node::AliasedBufferBase.72", %"class.node::AliasedBufferBase", %"class.v8::Global.75", %"class.std::vector.77", ptr, %"struct.std::array" }
%"class.node::AliasedBufferBase" = type { %"class.node::MemoryRetainer", ptr, i64, i64, ptr, %"class.v8::Global.70", ptr }
%"class.v8::Global.70" = type { %"class.v8::PersistentBase.71" }
%"class.v8::PersistentBase.71" = type { %"class.v8::IndirectHandleBase" }
%"class.v8::Global.75" = type { %"class.v8::PersistentBase.76" }
%"class.v8::PersistentBase.76" = type { %"class.v8::IndirectHandleBase" }
%"class.std::vector.77" = type { %"struct.std::_Vector_base.78" }
%"struct.std::_Vector_base.78" = type { %"struct.std::_Vector_base<v8::Local<v8::Object>, std::allocator<v8::Local<v8::Object>>>::_Vector_impl" }
%"struct.std::_Vector_base<v8::Local<v8::Object>, std::allocator<v8::Local<v8::Object>>>::_Vector_impl" = type { %"struct.std::_Vector_base<v8::Local<v8::Object>, std::allocator<v8::Local<v8::Object>>>::_Vector_impl_data" }
%"struct.std::_Vector_base<v8::Local<v8::Object>, std::allocator<v8::Local<v8::Object>>>::_Vector_impl_data" = type { ptr, ptr, ptr }
%"struct.std::array" = type { [4 x %"class.v8::Global.9"] }
%"class.v8::Global.9" = type { %"class.v8::PersistentBase.10" }
%"class.v8::PersistentBase.10" = type { %"class.v8::IndirectHandleBase" }
%"class.node::ImmediateInfo" = type { %"class.node::MemoryRetainer", %"class.node::AliasedBufferBase.72" }
%"class.node::TickInfo" = type { %"class.node::MemoryRetainer", %"class.node::AliasedBufferBase.85" }
%"class.node::AliasedBufferBase.85" = type { %"class.node::MemoryRetainer", ptr, i64, i64, ptr, %"class.v8::Global.86", ptr }
%"class.v8::Global.86" = type { %"class.v8::PersistentBase.87" }
%"class.v8::PersistentBase.87" = type { %"class.v8::IndirectHandleBase" }
%"class.node::permission::Permission" = type <{ %"class.std::unordered_map.88", i8, [7 x i8] }>
%"class.std::unordered_map.88" = type { %"class.std::_Hashtable.89" }
%"class.std::_Hashtable.89" = type { ptr, i64, %"struct.std::__detail::_Hash_node_base", i64, %"struct.std::__detail::_Prime_rehash_policy", ptr }
%"class.std::shared_ptr.108" = type { %"class.std::__shared_ptr.109" }
%"class.std::__shared_ptr.109" = type { ptr, %"class.std::__shared_count" }
%"class.std::vector.111" = type { %"struct.std::_Vector_base.112" }
%"struct.std::_Vector_base.112" = type { %"struct.std::_Vector_base<double, std::allocator<double>>::_Vector_impl" }
%"struct.std::_Vector_base<double, std::allocator<double>>::_Vector_impl" = type { %"struct.std::_Vector_base<double, std::allocator<double>>::_Vector_impl_data" }
%"struct.std::_Vector_base<double, std::allocator<double>>::_Vector_impl_data" = type { ptr, ptr, ptr }
%"class.std::unordered_set" = type { %"class.std::_Hashtable.116" }
%"class.std::_Hashtable.116" = type { ptr, i64, %"struct.std::__detail::_Hash_node_base", i64, %"struct.std::__detail::_Prime_rehash_policy", ptr }
%"class.std::unique_ptr.135" = type { %"struct.std::__uniq_ptr_data.136" }
%"struct.std::__uniq_ptr_data.136" = type { %"class.std::__uniq_ptr_impl.137" }
%"class.std::__uniq_ptr_impl.137" = type { %"class.std::tuple.138" }
%"class.std::tuple.138" = type { %"struct.std::_Tuple_impl.139" }
%"struct.std::_Tuple_impl.139" = type { %"struct.std::_Head_base.142" }
%"struct.std::_Head_base.142" = type { ptr }
%"class.std::unique_ptr.143" = type { %"struct.std::__uniq_ptr_data.144" }
%"struct.std::__uniq_ptr_data.144" = type { %"class.std::__uniq_ptr_impl.145" }
%"class.std::__uniq_ptr_impl.145" = type { %"class.std::tuple.146" }
%"class.std::tuple.146" = type { %"struct.std::_Tuple_impl.147" }
%"struct.std::_Tuple_impl.147" = type { %"struct.std::_Head_base.150" }
%"struct.std::_Head_base.150" = type { ptr }
%"class.std::unique_ptr.151" = type { %"struct.std::__uniq_ptr_data.152" }
%"struct.std::__uniq_ptr_data.152" = type { %"class.std::__uniq_ptr_impl.153" }
%"class.std::__uniq_ptr_impl.153" = type { %"class.std::tuple.154" }
%"class.std::tuple.154" = type { %"struct.std::_Tuple_impl.155" }
%"struct.std::_Tuple_impl.155" = type { %"struct.std::_Head_base.158" }
%"struct.std::_Head_base.158" = type { ptr }
%"class.std::shared_ptr.159" = type { %"class.std::__shared_ptr.160" }
%"class.std::__shared_ptr.160" = type { ptr, %"class.std::__shared_count" }
%"class.std::shared_ptr.162" = type { %"class.std::__shared_ptr.163" }
%"class.std::__shared_ptr.163" = type { ptr, %"class.std::__shared_count" }
%"class.std::vector.165" = type { %"struct.std::_Vector_base.166" }
%"struct.std::_Vector_base.166" = type { %"struct.std::_Vector_base<std::__cxx11::basic_string<char>, std::allocator<std::__cxx11::basic_string<char>>>::_Vector_impl" }
%"struct.std::_Vector_base<std::__cxx11::basic_string<char>, std::allocator<std::__cxx11::basic_string<char>>>::_Vector_impl" = type { %"struct.std::_Vector_base<std::__cxx11::basic_string<char>, std::allocator<std::__cxx11::basic_string<char>>>::_Vector_impl_data" }
%"struct.std::_Vector_base<std::__cxx11::basic_string<char>, std::allocator<std::__cxx11::basic_string<char>>>::_Vector_impl_data" = type { ptr, ptr, ptr }
%"class.node::AliasedBufferBase.72" = type { %"class.node::MemoryRetainer", ptr, i64, i64, ptr, %"class.v8::Global.73", ptr }
%"class.v8::Global.73" = type { %"class.v8::PersistentBase.74" }
%"class.v8::PersistentBase.74" = type { %"class.v8::IndirectHandleBase" }
%"class.std::unique_ptr.170" = type { %"struct.std::__uniq_ptr_data.171" }
%"struct.std::__uniq_ptr_data.171" = type { %"class.std::__uniq_ptr_impl.172" }
%"class.std::__uniq_ptr_impl.172" = type { %"class.std::tuple.173" }
%"class.std::tuple.173" = type { %"struct.std::_Tuple_impl.174" }
%"struct.std::_Tuple_impl.174" = type { %"struct.std::_Head_base.177" }
%"struct.std::_Head_base.177" = type { ptr }
%"class.node::AliasedBufferBase.82" = type { %"class.node::MemoryRetainer", ptr, i64, i64, ptr, %"class.v8::Global.83", ptr }
%"class.v8::Global.83" = type { %"class.v8::PersistentBase.84" }
%"class.v8::PersistentBase.84" = type { %"class.v8::IndirectHandleBase" }
%"class.std::unique_ptr.178" = type { %"struct.std::__uniq_ptr_data.179" }
%"struct.std::__uniq_ptr_data.179" = type { %"class.std::__uniq_ptr_impl.180" }
%"class.std::__uniq_ptr_impl.180" = type { %"class.std::tuple.181" }
%"class.std::tuple.181" = type { %"struct.std::_Tuple_impl.182" }
%"struct.std::_Tuple_impl.182" = type { %"struct.std::_Head_base.185" }
%"struct.std::_Head_base.185" = type { ptr }
%"class.std::unordered_set.186" = type { %"class.std::_Hashtable.187" }
%"class.std::_Hashtable.187" = type { ptr, i64, %"struct.std::__detail::_Hash_node_base", i64, %"struct.std::__detail::_Prime_rehash_policy", ptr }
%"class.std::unique_ptr.206" = type { %"struct.std::__uniq_ptr_data.207" }
%"struct.std::__uniq_ptr_data.207" = type { %"class.std::__uniq_ptr_impl.208" }
%"class.std::__uniq_ptr_impl.208" = type { %"class.std::tuple.209" }
%"class.std::tuple.209" = type { %"struct.std::_Tuple_impl.210" }
%"struct.std::_Tuple_impl.210" = type { %"struct.std::_Head_base.213" }
%"struct.std::_Head_base.213" = type { ptr }
%"class.std::__cxx11::list.214" = type { %"class.std::__cxx11::_List_base.215" }
%"class.std::__cxx11::_List_base.215" = type { %"struct.std::__cxx11::_List_base<node::DeserializeRequest, std::allocator<node::DeserializeRequest>>::_List_impl" }
%"struct.std::__cxx11::_List_base<node::DeserializeRequest, std::allocator<node::DeserializeRequest>>::_List_impl" = type { %"struct.std::__detail::_List_node_header" }
%"class.node::ListHead" = type { %"class.node::ListNode" }
%"class.node::ListNode" = type { ptr, ptr }
%"class.node::ListHead.219" = type { %"class.node::ListNode.220" }
%"class.node::ListNode.220" = type { ptr, ptr }
%"class.std::__cxx11::list.221" = type { %"class.std::__cxx11::_List_base.222" }
%"class.std::__cxx11::_List_base.222" = type { %"struct.std::__cxx11::_List_base<node::Environment::HandleCleanup, std::allocator<node::Environment::HandleCleanup>>::_List_impl" }
%"struct.std::__cxx11::_List_base<node::Environment::HandleCleanup, std::allocator<node::Environment::HandleCleanup>>::_List_impl" = type { %"struct.std::__detail::_List_node_header" }
%"class.node::EnabledDebugList" = type { [75 x i8] }
%"class.std::vector.226" = type { %"struct.std::_Vector_base.227" }
%"struct.std::_Vector_base.227" = type { %"struct.std::_Vector_base<v8::Global<v8::Context>, std::allocator<v8::Global<v8::Context>>>::_Vector_impl" }
%"struct.std::_Vector_base<v8::Global<v8::Context>, std::allocator<v8::Global<v8::Context>>>::_Vector_impl" = type { %"struct.std::_Vector_base<v8::Global<v8::Context>, std::allocator<v8::Global<v8::Context>>>::_Vector_impl_data" }
%"struct.std::_Vector_base<v8::Global<v8::Context>, std::allocator<v8::Global<v8::Context>>>::_Vector_impl_data" = type { ptr, ptr, ptr }
%"class.std::__cxx11::list.231" = type { %"class.std::__cxx11::_List_base.232" }
%"class.std::__cxx11::_List_base.232" = type { %"struct.std::__cxx11::_List_base<node::node_module, std::allocator<node::node_module>>::_List_impl" }
%"struct.std::__cxx11::_List_base<node::node_module, std::allocator<node::node_module>>::_List_impl" = type { %"struct.std::__detail::_List_node_header" }
%"class.std::__cxx11::list.236" = type { %"class.std::__cxx11::_List_base.237" }
%"class.std::__cxx11::_List_base.237" = type { %"struct.std::__cxx11::_List_base<node::Environment::ExitCallback, std::allocator<node::Environment::ExitCallback>>::_List_impl" }
%"struct.std::__cxx11::_List_base<node::Environment::ExitCallback, std::allocator<node::Environment::ExitCallback>>::_List_impl" = type { %"struct.std::__detail::_List_node_header" }
%"class.node::MutexBase" = type { %union.pthread_mutex_t }
%union.pthread_mutex_t = type { %struct.__pthread_mutex_s }
%struct.__pthread_mutex_s = type { i32, i32, i32, i32, i32, i16, i16, %struct.__pthread_internal_list }
%struct.__pthread_internal_list = type { ptr, ptr }
%"class.node::CallbackQueue" = type { %"struct.std::atomic.241", %"class.std::unique_ptr.243", ptr }
%"struct.std::atomic.241" = type { %"struct.std::__atomic_base.242" }
%"struct.std::__atomic_base.242" = type { i64 }
%"class.std::unique_ptr.243" = type { %"struct.std::__uniq_ptr_data.244" }
%"struct.std::__uniq_ptr_data.244" = type { %"class.std::__uniq_ptr_impl.245" }
%"class.std::__uniq_ptr_impl.245" = type { %"class.std::tuple.246" }
%"class.std::tuple.246" = type { %"struct.std::_Tuple_impl.247" }
%"struct.std::_Tuple_impl.247" = type { %"struct.std::_Head_base.250" }
%"struct.std::_Head_base.250" = type { ptr }
%"struct.std::atomic.251" = type { %"struct.std::__atomic_base.252" }
%"struct.std::__atomic_base.252" = type { ptr }
%"class.node::CleanupQueue" = type { %"class.node::MemoryRetainer", %"class.std::unordered_set.253", i64 }
%"class.std::unordered_set.253" = type { %"class.std::_Hashtable.254" }
%"class.std::_Hashtable.254" = type { ptr, i64, %"struct.std::__detail::_Hash_node_base", i64, %"struct.std::__detail::_Prime_rehash_policy", ptr }
%"class.std::unordered_set.269" = type { %"class.std::_Hashtable.270" }
%"class.std::_Hashtable.270" = type { ptr, i64, %"struct.std::__detail::_Hash_node_base", i64, %"struct.std::__detail::_Prime_rehash_policy", ptr }
%"class.std::function" = type { %"class.std::_Function_base", ptr }
%"class.std::_Function_base" = type { %"union.std::_Any_data", ptr }
%"union.std::_Any_data" = type { %"union.std::_Nocopy_types" }
%"union.std::_Nocopy_types" = type { { i64, i64 } }
%"class.std::unique_ptr.284" = type { %"struct.std::__uniq_ptr_data.285" }
%"struct.std::__uniq_ptr_data.285" = type { %"class.std::__uniq_ptr_impl.286" }
%"class.std::__uniq_ptr_impl.286" = type { %"class.std::tuple.287" }
%"class.std::tuple.287" = type { %"struct.std::_Tuple_impl.288" }
%"struct.std::_Tuple_impl.288" = type { %"struct.std::_Head_base.291" }
%"struct.std::_Head_base.291" = type { ptr }
%"class.node::builtins::BuiltinLoader" = type { %"class.node::ThreadsafeCopyOnWrite", %"class.node::UnionBytes", %"class.std::shared_ptr.295" }
%"class.node::ThreadsafeCopyOnWrite" = type { %"class.node::CopyOnWrite" }
%"class.node::CopyOnWrite" = type { %"class.std::shared_ptr.292" }
%"class.std::shared_ptr.292" = type { %"class.std::__shared_ptr.293" }
%"class.std::__shared_ptr.293" = type { ptr, %"class.std::__shared_count" }
%"class.node::UnionBytes" = type { ptr, ptr }
%"class.std::shared_ptr.295" = type { %"class.std::__shared_ptr.296" }
%"class.std::__shared_ptr.296" = type { ptr, %"class.std::__shared_count" }
%"class.std::function.298" = type { %"class.std::_Function_base", ptr }
%"class.std::unordered_map.300" = type { %"class.std::_Hashtable.301" }
%"class.std::_Hashtable.301" = type { ptr, i64, %"struct.std::__detail::_Hash_node_base", i64, %"struct.std::__detail::_Prime_rehash_policy", ptr }
%"class.node::quic::Session" = type { %"class.node::AsyncWrap", %"class.node::quic::SessionTicket::AppData::Source", %"class.node::AliasedStruct", %"class.node::AliasedStruct.323", %struct.ngtcp2_mem, %"struct.node::quic::Session::Config", %"class.std::unique_ptr.345", %"class.node::BaseObjectPtrImpl.353", %"class.node::quic::TLSContext", %"class.std::unique_ptr.373", %"class.node::SocketAddress", %"class.node::SocketAddress", %"class.std::unordered_map.381", %"class.node::TimerWrapHandle", i64, i64, %"class.node::quic::QuicError", %"class.node::BaseObjectPtrImpl.401", %"class.node::BaseObjectPtrImpl.403", %"class.node::BaseObjectPtrImpl.403" }
%"class.node::AsyncWrap" = type { %"class.node::BaseObject", i32, i8, double, double }
%"class.node::BaseObject" = type { %"class.node::MemoryRetainer", %"class.v8::Global", ptr, ptr }
%"class.v8::Global" = type { %"class.v8::PersistentBase" }
%"class.v8::PersistentBase" = type { %"class.v8::IndirectHandleBase" }
%"class.node::quic::SessionTicket::AppData::Source" = type { ptr }
%"class.node::AliasedStruct" = type { ptr, %"class.std::shared_ptr", ptr, %"class.v8::Global.321" }
%"class.v8::Global.321" = type { %"class.v8::PersistentBase.322" }
%"class.v8::PersistentBase.322" = type { %"class.v8::IndirectHandleBase" }
%"class.node::AliasedStruct.323" = type { ptr, %"class.std::shared_ptr", ptr, %"class.v8::Global.321" }
%struct.ngtcp2_mem = type { ptr, ptr, ptr, ptr, ptr }
%"struct.node::quic::Session::Config" = type { %"class.node::MemoryRetainer", i32, [4 x i8], %"struct.node::quic::Session::Options", i32, %"class.node::SocketAddress", %"class.node::SocketAddress", %"class.node::quic::CID", %"class.node::quic::CID", %"class.node::quic::CID", %"class.node::quic::CID", %"class.node::quic::CID", %"class.std::optional.335", %struct.ngtcp2_settings }
%"struct.node::quic::Session::Options" = type <{ %"class.node::MemoryRetainer", i32, i32, i32, [4 x i8], %"struct.node::quic::TransportParams::Options", %"struct.node::quic::TLSContext::Options", %"struct.node::quic::Session::Application_Options", ptr, %"class.node::BaseObjectPtrImpl", i8, [7 x i8] }>
%"struct.node::quic::TLSContext::Options" = type { %"class.node::MemoryRetainer", %"class.std::__cxx11::basic_string", %"class.std::__cxx11::basic_string", i8, i8, i8, i8, i8, %"class.std::__cxx11::basic_string", %"class.std::__cxx11::basic_string", %"class.std::__cxx11::basic_string", %"class.std::vector.324", %"class.std::vector.329", %"class.std::vector.329", %"class.std::vector.329" }
%"class.std::vector.324" = type { %"struct.std::_Vector_base.325" }
%"struct.std::_Vector_base.325" = type { %"struct.std::_Vector_base<std::shared_ptr<node::crypto::KeyObjectData>, std::allocator<std::shared_ptr<node::crypto::KeyObjectData>>>::_Vector_impl" }
%"struct.std::_Vector_base<std::shared_ptr<node::crypto::KeyObjectData>, std::allocator<std::shared_ptr<node::crypto::KeyObjectData>>>::_Vector_impl" = type { %"struct.std::_Vector_base<std::shared_ptr<node::crypto::KeyObjectData>, std::allocator<std::shared_ptr<node::crypto::KeyObjectData>>>::_Vector_impl_data" }
%"struct.std::_Vector_base<std::shared_ptr<node::crypto::KeyObjectData>, std::allocator<std::shared_ptr<node::crypto::KeyObjectData>>>::_Vector_impl_data" = type { ptr, ptr, ptr }
%"class.std::vector.329" = type { %"struct.std::_Vector_base.330" }
%"struct.std::_Vector_base.330" = type { %"struct.std::_Vector_base<node::quic::Store, std::allocator<node::quic::Store>>::_Vector_impl" }
%"struct.std::_Vector_base<node::quic::Store, std::allocator<node::quic::Store>>::_Vector_impl" = type { %"struct.std::_Vector_base<node::quic::Store, std::allocator<node::quic::Store>>::_Vector_impl_data" }
%"struct.std::_Vector_base<node::quic::Store, std::allocator<node::quic::Store>>::_Vector_impl_data" = type { ptr, ptr, ptr }
%"struct.node::quic::Session::Application_Options" = type { %"class.node::MemoryRetainer", i64, i64, i64, i64, i64, i64 }
%"class.node::BaseObjectPtrImpl" = type { %union.anon.334 }
%union.anon.334 = type { ptr }
%"class.node::quic::CID" = type { %"class.node::MemoryRetainer", %struct.ngtcp2_cid, ptr }
%"class.std::optional.335" = type { %"struct.std::_Optional_base.336" }
%"struct.std::_Optional_base.336" = type { %"struct.std::_Optional_payload.338" }
%"struct.std::_Optional_payload.338" = type { %"struct.std::_Optional_payload.base.342", [7 x i8] }
%"struct.std::_Optional_payload.base.342" = type { %"struct.std::_Optional_payload_base.base.341" }
%"struct.std::_Optional_payload_base.base.341" = type <{ %"union.std::_Optional_payload_base<node::quic::SessionTicket>::_Storage", i8 }>
%"union.std::_Optional_payload_base<node::quic::SessionTicket>::_Storage" = type { %"class.node::quic::SessionTicket" }
%"class.node::quic::SessionTicket" = type { %"class.node::MemoryRetainer", %"class.node::quic::Store", %"class.node::quic::Store" }
%struct.ngtcp2_settings = type { %struct.ngtcp2_qlog_settings, i32, i64, i64, ptr, i64, %struct.ngtcp2_vec, %struct.ngtcp2_rand_ctx, i64, i64, i64, i32, i64, ptr, i64, ptr, i64, i32, i32 }
%struct.ngtcp2_qlog_settings = type { %struct.ngtcp2_cid, ptr }
%struct.ngtcp2_rand_ctx = type { ptr }
%"class.std::unique_ptr.345" = type { %"struct.std::__uniq_ptr_data.346" }
%"struct.std::__uniq_ptr_data.346" = type { %"class.std::__uniq_ptr_impl.347" }
%"class.std::__uniq_ptr_impl.347" = type { %"class.std::tuple.348" }
%"class.std::tuple.348" = type { %"struct.std::_Tuple_impl.349" }
%"struct.std::_Tuple_impl.349" = type { %"struct.std::_Head_base.352" }
%"struct.std::_Head_base.352" = type { ptr }
%"class.node::BaseObjectPtrImpl.353" = type { %union.anon.354 }
%union.anon.354 = type { ptr }
%"class.node::quic::TLSContext" = type <{ %"class.node::MemoryRetainer", %struct.ngtcp2_crypto_conn_ref, i32, [4 x i8], ptr, ptr, %"struct.node::quic::TLSContext::Options", %"class.node::BaseObjectPtrImpl.355", %"class.std::unique_ptr.357", %"class.std::unique_ptr.365", i8, i8, [6 x i8] }>
%struct.ngtcp2_crypto_conn_ref = type { ptr, ptr }
%"class.node::BaseObjectPtrImpl.355" = type { %union.anon.356 }
%union.anon.356 = type { ptr }
%"class.std::unique_ptr.357" = type { %"struct.std::__uniq_ptr_data.358" }
%"struct.std::__uniq_ptr_data.358" = type { %"class.std::__uniq_ptr_impl.359" }
%"class.std::__uniq_ptr_impl.359" = type { %"class.std::tuple.360" }
%"class.std::tuple.360" = type { %"struct.std::_Tuple_impl.361" }
%"struct.std::_Tuple_impl.361" = type { %"struct.std::_Head_base.364" }
%"struct.std::_Head_base.364" = type { ptr }
%"class.std::unique_ptr.365" = type { %"struct.std::__uniq_ptr_data.366" }
%"struct.std::__uniq_ptr_data.366" = type { %"class.std::__uniq_ptr_impl.367" }
%"class.std::__uniq_ptr_impl.367" = type { %"class.std::tuple.368" }
%"class.std::tuple.368" = type { %"struct.std::_Tuple_impl.369" }
%"struct.std::_Tuple_impl.369" = type { %"struct.std::_Head_base.372" }
%"struct.std::_Head_base.372" = type { ptr }
%"class.std::unique_ptr.373" = type { %"struct.std::__uniq_ptr_data.374" }
%"struct.std::__uniq_ptr_data.374" = type { %"class.std::__uniq_ptr_impl.375" }
%"class.std::__uniq_ptr_impl.375" = type { %"class.std::tuple.376" }
%"class.std::tuple.376" = type { %"struct.std::_Tuple_impl.377" }
%"struct.std::_Tuple_impl.377" = type { %"struct.std::_Head_base.380" }
%"struct.std::_Head_base.380" = type { ptr }
%"class.std::unordered_map.381" = type { %"class.std::_Hashtable.382" }
%"class.std::_Hashtable.382" = type { ptr, i64, %"struct.std::__detail::_Hash_node_base", i64, %"struct.std::__detail::_Prime_rehash_policy", ptr }
%"class.node::TimerWrapHandle" = type { %"class.node::MemoryRetainer", ptr }
%"class.node::BaseObjectPtrImpl.401" = type { %union.anon.402 }
%union.anon.402 = type { ptr }
%"class.node::BaseObjectPtrImpl.403" = type { %union.anon.404 }
%union.anon.404 = type { ptr }
%"class.node::quic::StatelessResetToken" = type { %"class.node::MemoryRetainer", ptr, [16 x i8] }
%"class.v8::MaybeLocal" = type { %"class.v8::Local.13" }
%"class.v8::Maybe.496" = type { i8, i8 }
%"class.v8::Local.497" = type { %"class.v8::LocalBase.498" }
%"class.v8::LocalBase.498" = type { %"class.v8::IndirectHandleBase" }
%"struct.std::_Optional_payload_base" = type <{ %"union.std::_Optional_payload_base<node::SocketAddress>::_Storage", i8, [7 x i8] }>
%"struct.std::__detail::_Node_iterator" = type { %"struct.std::__detail::_Node_iterator_base" }
%"struct.std::__detail::_Node_iterator_base" = type { ptr }
%"class.node::MemoryTracker" = type { ptr, ptr, %"class.std::stack", %"class.std::unordered_map.18" }
%"class.std::stack" = type { %"class.std::deque" }
%"class.std::deque" = type { %"class.std::_Deque_base" }
%"class.std::_Deque_base" = type { %"struct.std::_Deque_base<node::MemoryRetainerNode *, std::allocator<node::MemoryRetainerNode *>>::_Deque_impl" }
%"struct.std::_Deque_base<node::MemoryRetainerNode *, std::allocator<node::MemoryRetainerNode *>>::_Deque_impl" = type { %"struct.std::_Deque_base<node::MemoryRetainerNode *, std::allocator<node::MemoryRetainerNode *>>::_Deque_impl_data" }
%"struct.std::_Deque_base<node::MemoryRetainerNode *, std::allocator<node::MemoryRetainerNode *>>::_Deque_impl_data" = type { ptr, i64, %"struct.std::_Deque_iterator", %"struct.std::_Deque_iterator" }
%"struct.std::_Deque_iterator" = type { ptr, ptr, ptr, ptr }
%"class.std::unordered_map.18" = type { %"class.std::_Hashtable.19" }
%"class.std::_Hashtable.19" = type { ptr, i64, %"struct.std::__detail::_Hash_node_base", i64, %"struct.std::__detail::_Prime_rehash_policy", ptr }
%"struct.std::pair" = type { ptr, ptr }
%"class.v8::HandleScope" = type { ptr, ptr, ptr }
%"class.node::MemoryRetainerNode" = type <{ %"class.v8::EmbedderGraph::Node", ptr, ptr, i8, [7 x i8], ptr, i64, i8, [7 x i8] }>
%"class.v8::EmbedderGraph::Node" = type { ptr }
%"struct.std::__detail::_Select1st" = type { i8 }
%"struct.std::__detail::_Hash_node_value_base" = type { %"struct.__gnu_cxx::__aligned_buffer" }
%"struct.__gnu_cxx::__aligned_buffer" = type { %"union.std::aligned_storage<16, 8>::type" }
%"union.std::aligned_storage<16, 8>::type" = type { [16 x i8] }
%"struct.std::__detail::_Mod_range_hashing" = type { i8 }
%"struct.std::_Deque_iterator.499" = type { ptr, ptr, ptr, ptr }
%"class.std::unique_ptr.500" = type { %"struct.std::__uniq_ptr_data.501" }
%"struct.std::__uniq_ptr_data.501" = type { %"class.std::__uniq_ptr_impl.502" }
%"class.std::__uniq_ptr_impl.502" = type { %"class.std::tuple.503" }
%"class.std::tuple.503" = type { %"struct.std::_Tuple_impl.504" }
%"struct.std::_Tuple_impl.504" = type { %"struct.std::_Head_base.507" }
%"struct.std::_Head_base.507" = type { ptr }
%"struct.std::_Hashtable<const node::MemoryRetainer *, std::pair<const node::MemoryRetainer *const, node::MemoryRetainerNode *>, std::allocator<std::pair<const node::MemoryRetainer *const, node::MemoryRetainerNode *>>, std::__detail::_Select1st, std::equal_to<const node::MemoryRetainer *>, std::hash<const node::MemoryRetainer *>, std::__detail::_Mod_range_hashing, std::__detail::_Default_ranged_hash, std::__detail::_Prime_rehash_policy, std::__detail::_Hashtable_traits<false, false, true>>::_Scoped_node" = type { ptr, ptr }
%"class.std::tuple.508" = type { %"struct.std::_Tuple_impl.509" }
%"struct.std::_Tuple_impl.509" = type { %"struct.std::_Head_base.510" }
%"struct.std::_Head_base.510" = type { ptr }
%"class.std::tuple.511" = type { i8 }
%"struct.std::pair.513" = type { i8, i64 }
%"class.std::allocator.515" = type { i8 }
%"class.std::allocator.518" = type { i8 }
%struct.sockaddr = type { i16, [14 x i8] }
%"class.std::allocator.38" = type { i8 }
%"class.v8::MaybeLocal.543" = type { %"class.v8::Local.11" }
%struct._Guard = type { ptr }

$_ZN4node4quic15TransportParams7OptionsD2Ev = comdat any

$_ZN2v87NothingIKN4node4quic15TransportParams7OptionsEEENS_5MaybeIT_EEv = comdat any

$_ZN4node4quic15TransportParams7OptionsC2Ev = comdat any

$_ZN4node4quic9SetOptionINS0_15TransportParams7OptionsETnMT_mXadL_ZNS3_34initial_max_stream_data_bidi_localEEEEEbPNS_11EnvironmentEPS4_RKN2v85LocalINS9_6ObjectEEERKNSA_INS9_6StringEEE = comdat any

$_ZN4node4quic9SetOptionINS0_15TransportParams7OptionsETnMT_mXadL_ZNS3_35initial_max_stream_data_bidi_remoteEEEEEbPNS_11EnvironmentEPS4_RKN2v85LocalINS9_6ObjectEEERKNSA_INS9_6StringEEE = comdat any

$_ZN4node4quic9SetOptionINS0_15TransportParams7OptionsETnMT_mXadL_ZNS3_27initial_max_stream_data_uniEEEEEbPNS_11EnvironmentEPS4_RKN2v85LocalINS9_6ObjectEEERKNSA_INS9_6StringEEE = comdat any

$_ZN4node4quic9SetOptionINS0_15TransportParams7OptionsETnMT_mXadL_ZNS3_16initial_max_dataEEEEEbPNS_11EnvironmentEPS4_RKN2v85LocalINS9_6ObjectEEERKNSA_INS9_6StringEEE = comdat any

$_ZN4node4quic9SetOptionINS0_15TransportParams7OptionsETnMT_mXadL_ZNS3_24initial_max_streams_bidiEEEEEbPNS_11EnvironmentEPS4_RKN2v85LocalINS9_6ObjectEEERKNSA_INS9_6StringEEE = comdat any

$_ZN4node4quic9SetOptionINS0_15TransportParams7OptionsETnMT_mXadL_ZNS3_23initial_max_streams_uniEEEEEbPNS_11EnvironmentEPS4_RKN2v85LocalINS9_6ObjectEEERKNSA_INS9_6StringEEE = comdat any

$_ZN4node4quic9SetOptionINS0_15TransportParams7OptionsETnMT_mXadL_ZNS3_16max_idle_timeoutEEEEEbPNS_11EnvironmentEPS4_RKN2v85LocalINS9_6ObjectEEERKNSA_INS9_6StringEEE = comdat any

$_ZN4node4quic9SetOptionINS0_15TransportParams7OptionsETnMT_mXadL_ZNS3_26active_connection_id_limitEEEEEbPNS_11EnvironmentEPS4_RKN2v85LocalINS9_6ObjectEEERKNSA_INS9_6StringEEE = comdat any

$_ZN4node4quic9SetOptionINS0_15TransportParams7OptionsETnMT_mXadL_ZNS3_18ack_delay_exponentEEEEEbPNS_11EnvironmentEPS4_RKN2v85LocalINS9_6ObjectEEERKNSA_INS9_6StringEEE = comdat any

$_ZN4node4quic9SetOptionINS0_15TransportParams7OptionsETnMT_mXadL_ZNS3_13max_ack_delayEEEEEbPNS_11EnvironmentEPS4_RKN2v85LocalINS9_6ObjectEEERKNSA_INS9_6StringEEE = comdat any

$_ZN4node4quic9SetOptionINS0_15TransportParams7OptionsETnMT_mXadL_ZNS3_23max_datagram_frame_sizeEEEEEbPNS_11EnvironmentEPS4_RKN2v85LocalINS9_6ObjectEEERKNSA_INS9_6StringEEE = comdat any

$_ZN4node4quic9SetOptionINS0_15TransportParams7OptionsETnMT_bXadL_ZNS3_24disable_active_migrationEEEEEbPNS_11EnvironmentEPS4_RKN2v85LocalINS9_6ObjectEEERKNSA_INS9_6StringEEE = comdat any

$_ZN2v84JustIKN4node4quic15TransportParams7OptionsEEENS_5MaybeIT_EERKS7_ = comdat any

$_ZNKSt8optionalIN4node13SocketAddressEE9has_valueEv = comdat any

$_ZN4node13MemoryTracker10TrackFieldEPKcRKNS_14MemoryRetainerES2_ = comdat any

$_ZNKRSt8optionalIN4node13SocketAddressEE5valueEv = comdat any

$_ZN4node4quic9QuicErrorC2ERKS1_ = comdat any

$_ZNSt17basic_string_viewIcSt11char_traitsIcEEC2EPKc = comdat any

$_ZN4node4quic9QuicErroraSEOS1_ = comdat any

$_ZN4node4quic9QuicErrorD2Ev = comdat any

$_ZN4node4quic5StoreC2Ev = comdat any

$_ZNK4node11Environment7isolateEv = comdat any

$_ZNKSt10unique_ptrIN2v812BackingStoreESt14default_deleteIS1_EEptEv = comdat any

$_ZNSt10unique_ptrIN2v812BackingStoreESt14default_deleteIS1_EEC2EOS4_ = comdat any

$_ZNSt10unique_ptrIN2v812BackingStoreESt14default_deleteIS1_EED2Ev = comdat any

$_ZNK4node13SocketAddress6familyEv = comdat any

$_ZNK4node13SocketAddress4dataEv = comdat any

$_ZNK4node13SocketAddress4portEv = comdat any

$_ZN4node4quic19StatelessResetTokenD2Ev = comdat any

$_ZN4node4quic3CIDD2Ev = comdat any

$_ZN4node4quic15TransportParams7OptionsD0Ev = comdat any

$_ZNK4node4quic15TransportParams7Options14MemoryInfoNameEv = comdat any

$_ZNK4node4quic15TransportParams7Options8SelfSizeEv = comdat any

$_ZNK4node14MemoryRetainer13WrappedObjectEv = comdat any

$_ZNK4node14MemoryRetainer10IsRootNodeEv = comdat any

$_ZNK4node14MemoryRetainer15GetDetachednessEv = comdat any

$_ZNSt8optionalIN4node13SocketAddressEED2Ev = comdat any

$_ZNSt14_Optional_baseIN4node13SocketAddressELb0ELb0EED2Ev = comdat any

$_ZNSt17_Optional_payloadIN4node13SocketAddressELb0ELb0ELb0EED2Ev = comdat any

$_ZNSt22_Optional_payload_baseIN4node13SocketAddressEE8_M_resetEv = comdat any

$_ZNSt17_Optional_payloadIN4node13SocketAddressELb1ELb0ELb0EED2Ev = comdat any

$_ZNSt22_Optional_payload_baseIN4node13SocketAddressEE10_M_destroyEv = comdat any

$_ZN4node13SocketAddressD2Ev = comdat any

$_ZNSt22_Optional_payload_baseIN4node13SocketAddressEED2Ev = comdat any

$_ZNSt22_Optional_payload_baseIN4node13SocketAddressEE8_StorageIS1_Lb0EED2Ev = comdat any

$_ZN4node14MemoryRetainerC2Ev = comdat any

$_ZNSt8optionalIN4node13SocketAddressEEC2Ev = comdat any

$_ZN4node14MemoryRetainerD2Ev = comdat any

$_ZN4node14MemoryRetainerD0Ev = comdat any

$_ZNSt14_Optional_baseIN4node13SocketAddressELb0ELb0EEC2Ev = comdat any

$_ZNSt17_Optional_payloadIN4node13SocketAddressELb0ELb0ELb0EEC2Ev = comdat any

$_ZNSt17_Optional_payloadIN4node13SocketAddressELb1ELb0ELb0EEC2Ev = comdat any

$_ZNSt22_Optional_payload_baseIN4node13SocketAddressEEC2Ev = comdat any

$_ZNSt22_Optional_payload_baseIN4node13SocketAddressEE8_StorageIS1_Lb0EEC2Ev = comdat any

$_ZNKSt19_Optional_base_implIN4node13SocketAddressESt14_Optional_baseIS1_Lb0ELb0EEE13_M_is_engagedEv = comdat any

$_ZN4node13MemoryTracker10TrackFieldEPKcPKNS_14MemoryRetainerES2_ = comdat any

$_ZNSt13unordered_mapIPKN4node14MemoryRetainerEPNS0_18MemoryRetainerNodeESt4hashIS3_ESt8equal_toIS3_ESaISt4pairIKS3_S5_EEE4findERSB_ = comdat any

$_ZNSt8__detailneERKNS_19_Node_iterator_baseISt4pairIKPKN4node14MemoryRetainerEPNS2_18MemoryRetainerNodeEELb0EEESC_ = comdat any

$_ZNSt13unordered_mapIPKN4node14MemoryRetainerEPNS0_18MemoryRetainerNodeESt4hashIS3_ESt8equal_toIS3_ESaISt4pairIKS3_S5_EEE3endEv = comdat any

$_ZNK4node13MemoryTracker11CurrentNodeEv = comdat any

$_ZNKSt8__detail14_Node_iteratorISt4pairIKPKN4node14MemoryRetainerEPNS2_18MemoryRetainerNodeEELb0ELb0EEptEv = comdat any

$_ZN4node13MemoryTracker5TrackEPKNS_14MemoryRetainerEPKc = comdat any

$_ZNSt10_HashtableIPKN4node14MemoryRetainerESt4pairIKS3_PNS0_18MemoryRetainerNodeEESaIS8_ENSt8__detail10_Select1stESt8equal_toIS3_ESt4hashIS3_ENSA_18_Mod_range_hashingENSA_20_Default_ranged_hashENSA_20_Prime_rehash_policyENSA_17_Hashtable_traitsILb0ELb0ELb1EEEE4findERS5_ = comdat any

$_ZNKSt10_HashtableIPKN4node14MemoryRetainerESt4pairIKS3_PNS0_18MemoryRetainerNodeEESaIS8_ENSt8__detail10_Select1stESt8equal_toIS3_ESt4hashIS3_ENSA_18_Mod_range_hashingENSA_20_Default_ranged_hashENSA_20_Prime_rehash_policyENSA_17_Hashtable_traitsILb0ELb0ELb1EEEE4sizeEv = comdat any

$_ZNSt10_HashtableIPKN4node14MemoryRetainerESt4pairIKS3_PNS0_18MemoryRetainerNodeEESaIS8_ENSt8__detail10_Select1stESt8equal_toIS3_ESt4hashIS3_ENSA_18_Mod_range_hashingENSA_20_Default_ranged_hashENSA_20_Prime_rehash_policyENSA_17_Hashtable_traitsILb0ELb0ELb1EEEE22__small_size_thresholdEv = comdat any

$_ZNSt10_HashtableIPKN4node14MemoryRetainerESt4pairIKS3_PNS0_18MemoryRetainerNodeEESaIS8_ENSt8__detail10_Select1stESt8equal_toIS3_ESt4hashIS3_ENSA_18_Mod_range_hashingENSA_20_Default_ranged_hashENSA_20_Prime_rehash_policyENSA_17_Hashtable_traitsILb0ELb0ELb1EEEE5beginEv = comdat any

$_ZNSt10_HashtableIPKN4node14MemoryRetainerESt4pairIKS3_PNS0_18MemoryRetainerNodeEESaIS8_ENSt8__detail10_Select1stESt8equal_toIS3_ESt4hashIS3_ENSA_18_Mod_range_hashingENSA_20_Default_ranged_hashENSA_20_Prime_rehash_policyENSA_17_Hashtable_traitsILb0ELb0ELb1EEEE3endEv = comdat any

$_ZNKSt8__detail15_Hashtable_baseIPKN4node14MemoryRetainerESt4pairIKS4_PNS1_18MemoryRetainerNodeEENS_10_Select1stESt8equal_toIS4_ESt4hashIS4_ENS_18_Mod_range_hashingENS_20_Default_ranged_hashENS_17_Hashtable_traitsILb0ELb0ELb1EEEE13_M_key_equalsERS6_RKNS_16_Hash_node_valueIS9_Lb0EEE = comdat any

$_ZNSt8__detail14_Node_iteratorISt4pairIKPKN4node14MemoryRetainerEPNS2_18MemoryRetainerNodeEELb0ELb0EEppEv = comdat any

$_ZNKSt8__detail15_Hash_code_baseIPKN4node14MemoryRetainerESt4pairIKS4_PNS1_18MemoryRetainerNodeEENS_10_Select1stESt4hashIS4_ENS_18_Mod_range_hashingENS_20_Default_ranged_hashELb0EE12_M_hash_codeERS6_ = comdat any

$_ZNKSt10_HashtableIPKN4node14MemoryRetainerESt4pairIKS3_PNS0_18MemoryRetainerNodeEESaIS8_ENSt8__detail10_Select1stESt8equal_toIS3_ESt4hashIS3_ENSA_18_Mod_range_hashingENSA_20_Default_ranged_hashENSA_20_Prime_rehash_policyENSA_17_Hashtable_traitsILb0ELb0ELb1EEEE15_M_bucket_indexEm = comdat any

$_ZNKSt10_HashtableIPKN4node14MemoryRetainerESt4pairIKS3_PNS0_18MemoryRetainerNodeEESaIS8_ENSt8__detail10_Select1stESt8equal_toIS3_ESt4hashIS3_ENSA_18_Mod_range_hashingENSA_20_Default_ranged_hashENSA_20_Prime_rehash_policyENSA_17_Hashtable_traitsILb0ELb0ELb1EEEE12_M_find_nodeEmRS5_m = comdat any

$_ZNSt8__detail14_Node_iteratorISt4pairIKPKN4node14MemoryRetainerEPNS2_18MemoryRetainerNodeEELb0ELb0EEC2EPNS_10_Hash_nodeIS9_Lb0EEE = comdat any

$_ZNSt8__detail22_Hashtable_hash_traitsISt4hashIPKN4node14MemoryRetainerEEE22__small_size_thresholdEv = comdat any

$_ZNKSt10_HashtableIPKN4node14MemoryRetainerESt4pairIKS3_PNS0_18MemoryRetainerNodeEESaIS8_ENSt8__detail10_Select1stESt8equal_toIS3_ESt4hashIS3_ENSA_18_Mod_range_hashingENSA_20_Default_ranged_hashENSA_20_Prime_rehash_policyENSA_17_Hashtable_traitsILb0ELb0ELb1EEEE8_M_beginEv = comdat any

$_ZNKSt8__detail15_Hashtable_baseIPKN4node14MemoryRetainerESt4pairIKS4_PNS1_18MemoryRetainerNodeEENS_10_Select1stESt8equal_toIS4_ESt4hashIS4_ENS_18_Mod_range_hashingENS_20_Default_ranged_hashENS_17_Hashtable_traitsILb0ELb0ELb1EEEE5_M_eqEv = comdat any

$_ZNKSt8equal_toIPKN4node14MemoryRetainerEEclERKS3_S6_ = comdat any

$_ZNKSt8__detail10_Select1stclIRKSt4pairIKPKN4node14MemoryRetainerEPNS3_18MemoryRetainerNodeEEEEONS0_10__1st_typeIT_E4typeEOSE_ = comdat any

$_ZNKSt8__detail21_Hash_node_value_baseISt4pairIKPKN4node14MemoryRetainerEPNS2_18MemoryRetainerNodeEEE4_M_vEv = comdat any

$_ZNKSt8__detail21_Hashtable_ebo_helperILi0ESt8equal_toIPKN4node14MemoryRetainerEELb1EE7_M_cgetEv = comdat any

$_ZNKSt8__detail21_Hash_node_value_baseISt4pairIKPKN4node14MemoryRetainerEPNS2_18MemoryRetainerNodeEEE9_M_valptrEv = comdat any

$_ZNK9__gnu_cxx16__aligned_bufferISt4pairIKPKN4node14MemoryRetainerEPNS2_18MemoryRetainerNodeEEE6_M_ptrEv = comdat any

$_ZNK9__gnu_cxx16__aligned_bufferISt4pairIKPKN4node14MemoryRetainerEPNS2_18MemoryRetainerNodeEEE7_M_addrEv = comdat any

$_ZNSt8__detail19_Node_iterator_baseISt4pairIKPKN4node14MemoryRetainerEPNS2_18MemoryRetainerNodeEELb0EE7_M_incrEv = comdat any

$_ZNKSt8__detail10_Hash_nodeISt4pairIKPKN4node14MemoryRetainerEPNS2_18MemoryRetainerNodeEELb0EE7_M_nextEv = comdat any

$_ZNKSt8__detail15_Hash_code_baseIPKN4node14MemoryRetainerESt4pairIKS4_PNS1_18MemoryRetainerNodeEENS_10_Select1stESt4hashIS4_ENS_18_Mod_range_hashingENS_20_Default_ranged_hashELb0EE7_M_hashEv = comdat any

$_ZNKSt4hashIPKN4node14MemoryRetainerEEclES3_ = comdat any

$_ZNKSt8__detail21_Hashtable_ebo_helperILi1ESt4hashIPKN4node14MemoryRetainerEELb1EE7_M_cgetEv = comdat any

$_ZNKSt8__detail15_Hash_code_baseIPKN4node14MemoryRetainerESt4pairIKS4_PNS1_18MemoryRetainerNodeEENS_10_Select1stESt4hashIS4_ENS_18_Mod_range_hashingENS_20_Default_ranged_hashELb0EE15_M_bucket_indexEmm = comdat any

$_ZNKSt8__detail18_Mod_range_hashingclEmm = comdat any

$_ZNKSt10_HashtableIPKN4node14MemoryRetainerESt4pairIKS3_PNS0_18MemoryRetainerNodeEESaIS8_ENSt8__detail10_Select1stESt8equal_toIS3_ESt4hashIS3_ENSA_18_Mod_range_hashingENSA_20_Default_ranged_hashENSA_20_Prime_rehash_policyENSA_17_Hashtable_traitsILb0ELb0ELb1EEEE19_M_find_before_nodeEmRS5_m = comdat any

$_ZNKSt8__detail15_Hashtable_baseIPKN4node14MemoryRetainerESt4pairIKS4_PNS1_18MemoryRetainerNodeEENS_10_Select1stESt8equal_toIS4_ESt4hashIS4_ENS_18_Mod_range_hashingENS_20_Default_ranged_hashENS_17_Hashtable_traitsILb0ELb0ELb1EEEE9_M_equalsERS6_mRKNS_16_Hash_node_valueIS9_Lb0EEE = comdat any

$_ZNKSt10_HashtableIPKN4node14MemoryRetainerESt4pairIKS3_PNS0_18MemoryRetainerNodeEESaIS8_ENSt8__detail10_Select1stESt8equal_toIS3_ESt4hashIS3_ENSA_18_Mod_range_hashingENSA_20_Default_ranged_hashENSA_20_Prime_rehash_policyENSA_17_Hashtable_traitsILb0ELb0ELb1EEEE15_M_bucket_indexERKNSA_16_Hash_node_valueIS8_Lb0EEE = comdat any

$_ZNSt8__detail15_Hashtable_baseIPKN4node14MemoryRetainerESt4pairIKS4_PNS1_18MemoryRetainerNodeEENS_10_Select1stESt8equal_toIS4_ESt4hashIS4_ENS_18_Mod_range_hashingENS_20_Default_ranged_hashENS_17_Hashtable_traitsILb0ELb0ELb1EEEE9_S_equalsEmRKNS_21_Hash_node_code_cacheILb0EEE = comdat any

$_ZNKSt8__detail15_Hash_code_baseIPKN4node14MemoryRetainerESt4pairIKS4_PNS1_18MemoryRetainerNodeEENS_10_Select1stESt4hashIS4_ENS_18_Mod_range_hashingENS_20_Default_ranged_hashELb0EE15_M_bucket_indexERKNS_16_Hash_node_valueIS9_Lb0EEEm = comdat any

$_ZNSt8__detail19_Node_iterator_baseISt4pairIKPKN4node14MemoryRetainerEPNS2_18MemoryRetainerNodeEELb0EEC2EPNS_10_Hash_nodeIS9_Lb0EEE = comdat any

$_ZNKSt5stackIPN4node18MemoryRetainerNodeESt5dequeIS2_SaIS2_EEE5emptyEv = comdat any

$_ZNKSt5stackIPN4node18MemoryRetainerNodeESt5dequeIS2_SaIS2_EEE3topEv = comdat any

$_ZNKSt5dequeIPN4node18MemoryRetainerNodeESaIS2_EE5emptyEv = comdat any

$_ZSteqRKSt15_Deque_iteratorIPN4node18MemoryRetainerNodeERS2_PS2_ES7_ = comdat any

$_ZNKSt5dequeIPN4node18MemoryRetainerNodeESaIS2_EE4backEv = comdat any

$_ZNKSt5dequeIPN4node18MemoryRetainerNodeESaIS2_EE3endEv = comdat any

$_ZNSt15_Deque_iteratorIPN4node18MemoryRetainerNodeERKS2_PS3_EmmEv = comdat any

$_ZNKSt15_Deque_iteratorIPN4node18MemoryRetainerNodeERKS2_PS3_EdeEv = comdat any

$_ZNSt15_Deque_iteratorIPN4node18MemoryRetainerNodeERKS2_PS3_EC2IS_IS2_RS2_PS2_EvEERKT_ = comdat any

$_ZNSt15_Deque_iteratorIPN4node18MemoryRetainerNodeERKS2_PS3_E11_M_set_nodeEPPS2_ = comdat any

$_ZNSt15_Deque_iteratorIPN4node18MemoryRetainerNodeERKS2_PS3_E14_S_buffer_sizeEv = comdat any

$_ZSt16__deque_buf_sizem = comdat any

$_ZNSt8__detail21_Hash_node_value_baseISt4pairIKPKN4node14MemoryRetainerEPNS2_18MemoryRetainerNodeEEE9_M_valptrEv = comdat any

$_ZN9__gnu_cxx16__aligned_bufferISt4pairIKPKN4node14MemoryRetainerEPNS2_18MemoryRetainerNodeEEE6_M_ptrEv = comdat any

$_ZN9__gnu_cxx16__aligned_bufferISt4pairIKPKN4node14MemoryRetainerEPNS2_18MemoryRetainerNodeEEE7_M_addrEv = comdat any

$_ZN4node13MemoryTracker8PushNodeEPKNS_14MemoryRetainerEPKc = comdat any

$_ZN4node13MemoryTracker7PopNodeEv = comdat any

$_ZN4node13MemoryTracker7AddNodeEPKNS_14MemoryRetainerEPKc = comdat any

$_ZNSt5stackIPN4node18MemoryRetainerNodeESt5dequeIS2_SaIS2_EEE4pushERKS2_ = comdat any

$_ZN4node18MemoryRetainerNodeC2EPNS_13MemoryTrackerEPKNS_14MemoryRetainerE = comdat any

$_ZNSt10unique_ptrIN2v813EmbedderGraph4NodeESt14default_deleteIS2_EEC2IS4_vEEPS2_ = comdat any

$_ZNSt10unique_ptrIN2v813EmbedderGraph4NodeESt14default_deleteIS2_EED2Ev = comdat any

$_ZNSt13unordered_mapIPKN4node14MemoryRetainerEPNS0_18MemoryRetainerNodeESt4hashIS3_ESt8equal_toIS3_ESaISt4pairIKS3_S5_EEEixERSB_ = comdat any

$_ZN4node18MemoryRetainerNode13JSWrapperNodeEv = comdat any

$_ZN2v813EmbedderGraph4NodeC2Ev = comdat any

$_ZN4node13MemoryTracker7isolateEv = comdat any

$_ZN4node13MemoryTracker5graphEv = comdat any

$_ZN4node18MemoryRetainerNodeD2Ev = comdat any

$_ZN4node18MemoryRetainerNodeD0Ev = comdat any

$_ZN4node18MemoryRetainerNode4NameEv = comdat any

$_ZN4node18MemoryRetainerNode11SizeInBytesEv = comdat any

$_ZN2v813EmbedderGraph4Node11WrapperNodeEv = comdat any

$_ZN4node18MemoryRetainerNode10IsRootNodeEv = comdat any

$_ZN2v813EmbedderGraph4Node14IsEmbedderNodeEv = comdat any

$_ZN4node18MemoryRetainerNode10NamePrefixEv = comdat any

$_ZN2v813EmbedderGraph4Node15GetNativeObjectEv = comdat any

$_ZN4node18MemoryRetainerNode15GetDetachednessEv = comdat any

$_ZN2v813EmbedderGraph4Node10GetAddressEv = comdat any

$_ZN2v813EmbedderGraph4NodeD2Ev = comdat any

$_ZN2v813EmbedderGraph4NodeD0Ev = comdat any

$_ZN2v813EmbedderGraph4Node10IsRootNodeEv = comdat any

$_ZN2v813EmbedderGraph4Node10NamePrefixEv = comdat any

$_ZN2v813EmbedderGraph4Node15GetDetachednessEv = comdat any

$_ZNSt15__uniq_ptr_dataIN2v813EmbedderGraph4NodeESt14default_deleteIS2_ELb1ELb1EECI2St15__uniq_ptr_implIS2_S4_EEPS2_ = comdat any

$_ZNSt15__uniq_ptr_implIN2v813EmbedderGraph4NodeESt14default_deleteIS2_EEC2EPS2_ = comdat any

$_ZNSt5tupleIJPN2v813EmbedderGraph4NodeESt14default_deleteIS2_EEEC2ILb1ETnNSt9enable_ifIXclsr17_TupleConstraintsIXT_ES3_S5_EE37__is_implicitly_default_constructibleEEbE4typeELb1EEEv = comdat any

$_ZNSt15__uniq_ptr_implIN2v813EmbedderGraph4NodeESt14default_deleteIS2_EE6_M_ptrEv = comdat any

$_ZNSt11_Tuple_implILm0EJPN2v813EmbedderGraph4NodeESt14default_deleteIS2_EEEC2Ev = comdat any

$_ZNSt11_Tuple_implILm1EJSt14default_deleteIN2v813EmbedderGraph4NodeEEEEC2Ev = comdat any

$_ZNSt10_Head_baseILm0EPN2v813EmbedderGraph4NodeELb0EEC2Ev = comdat any

$_ZNSt10_Head_baseILm1ESt14default_deleteIN2v813EmbedderGraph4NodeEELb1EEC2Ev = comdat any

$_ZSt3getILm0EJPN2v813EmbedderGraph4NodeESt14default_deleteIS2_EEERNSt13tuple_elementIXT_ESt5tupleIJDpT0_EEE4typeERSA_ = comdat any

$_ZSt12__get_helperILm0EPN2v813EmbedderGraph4NodeEJSt14default_deleteIS2_EEERT0_RSt11_Tuple_implIXT_EJS6_DpT1_EE = comdat any

$_ZNSt11_Tuple_implILm0EJPN2v813EmbedderGraph4NodeESt14default_deleteIS2_EEE7_M_headERS6_ = comdat any

$_ZNSt10_Head_baseILm0EPN2v813EmbedderGraph4NodeELb0EE7_M_headERS4_ = comdat any

$_ZNSt10unique_ptrIN2v813EmbedderGraph4NodeESt14default_deleteIS2_EE11get_deleterEv = comdat any

$_ZNKSt14default_deleteIN2v813EmbedderGraph4NodeEEclEPS2_ = comdat any

$_ZNSt15__uniq_ptr_implIN2v813EmbedderGraph4NodeESt14default_deleteIS2_EE10_M_deleterEv = comdat any

$_ZSt3getILm1EJPN2v813EmbedderGraph4NodeESt14default_deleteIS2_EEERNSt13tuple_elementIXT_ESt5tupleIJDpT0_EEE4typeERSA_ = comdat any

$_ZSt12__get_helperILm1ESt14default_deleteIN2v813EmbedderGraph4NodeEEJEERT0_RSt11_Tuple_implIXT_EJS5_DpT1_EE = comdat any

$_ZNSt11_Tuple_implILm1EJSt14default_deleteIN2v813EmbedderGraph4NodeEEEE7_M_headERS5_ = comdat any

$_ZNSt10_Head_baseILm1ESt14default_deleteIN2v813EmbedderGraph4NodeEELb1EE7_M_headERS5_ = comdat any

$_ZNSt8__detail9_Map_baseIPKN4node14MemoryRetainerESt4pairIKS4_PNS1_18MemoryRetainerNodeEESaIS9_ENS_10_Select1stESt8equal_toIS4_ESt4hashIS4_ENS_18_Mod_range_hashingENS_20_Default_ranged_hashENS_20_Prime_rehash_policyENS_17_Hashtable_traitsILb0ELb0ELb1EEELb1EEixERS6_ = comdat any

$_ZNSt8__detail21_Hash_node_value_baseISt4pairIKPKN4node14MemoryRetainerEPNS2_18MemoryRetainerNodeEEE4_M_vEv = comdat any

$_ZNSt5tupleIJRKPKN4node14MemoryRetainerEEEC2ILb1ETnNSt9enable_ifIXclsr4_TCCIXT_EEE29__is_implicitly_constructibleIS5_EEEbE4typeELb1EEES5_ = comdat any

$_ZNSt10_HashtableIPKN4node14MemoryRetainerESt4pairIKS3_PNS0_18MemoryRetainerNodeEESaIS8_ENSt8__detail10_Select1stESt8equal_toIS3_ESt4hashIS3_ENSA_18_Mod_range_hashingENSA_20_Default_ranged_hashENSA_20_Prime_rehash_policyENSA_17_Hashtable_traitsILb0ELb0ELb1EEEE12_Scoped_nodeC2IJRKSt21piecewise_construct_tSt5tupleIJRS5_EESR_IJEEEEEPNSA_16_Hashtable_allocISaINSA_10_Hash_nodeIS8_Lb0EEEEEEDpOT_ = comdat any

$_ZNSt10_HashtableIPKN4node14MemoryRetainerESt4pairIKS3_PNS0_18MemoryRetainerNodeEESaIS8_ENSt8__detail10_Select1stESt8equal_toIS3_ESt4hashIS3_ENSA_18_Mod_range_hashingENSA_20_Default_ranged_hashENSA_20_Prime_rehash_policyENSA_17_Hashtable_traitsILb0ELb0ELb1EEEE21_M_insert_unique_nodeEmmPNSA_10_Hash_nodeIS8_Lb0EEEm = comdat any

$_ZNSt10_HashtableIPKN4node14MemoryRetainerESt4pairIKS3_PNS0_18MemoryRetainerNodeEESaIS8_ENSt8__detail10_Select1stESt8equal_toIS3_ESt4hashIS3_ENSA_18_Mod_range_hashingENSA_20_Default_ranged_hashENSA_20_Prime_rehash_policyENSA_17_Hashtable_traitsILb0ELb0ELb1EEEE12_Scoped_nodeD2Ev = comdat any

$_ZNSt11_Tuple_implILm0EJRKPKN4node14MemoryRetainerEEEC2ES5_ = comdat any

$_ZNSt10_Head_baseILm0ERKPKN4node14MemoryRetainerELb0EEC2ES5_ = comdat any

$_ZNSt8__detail16_Hashtable_allocISaINS_10_Hash_nodeISt4pairIKPKN4node14MemoryRetainerEPNS3_18MemoryRetainerNodeEELb0EEEEE16_M_allocate_nodeIJRKSt21piecewise_construct_tSt5tupleIJRS7_EESI_IJEEEEEPSB_DpOT_ = comdat any

$_ZNSt16allocator_traitsISaINSt8__detail10_Hash_nodeISt4pairIKPKN4node14MemoryRetainerEPNS3_18MemoryRetainerNodeEELb0EEEEE8allocateERSC_m = comdat any

$_ZNSt8__detail16_Hashtable_allocISaINS_10_Hash_nodeISt4pairIKPKN4node14MemoryRetainerEPNS3_18MemoryRetainerNodeEELb0EEEEE17_M_node_allocatorEv = comdat any

$_ZSt12__to_addressINSt8__detail10_Hash_nodeISt4pairIKPKN4node14MemoryRetainerEPNS3_18MemoryRetainerNodeEELb0EEEEPT_SD_ = comdat any

$_ZNSt8__detail10_Hash_nodeISt4pairIKPKN4node14MemoryRetainerEPNS2_18MemoryRetainerNodeEELb0EEC2Ev = comdat any

$_ZNSt16allocator_traitsISaINSt8__detail10_Hash_nodeISt4pairIKPKN4node14MemoryRetainerEPNS3_18MemoryRetainerNodeEELb0EEEEE9constructISA_JRKSt21piecewise_construct_tSt5tupleIJRS7_EESI_IJEEEEEvRSC_PT_DpOT0_ = comdat any

$_ZNSt15__new_allocatorINSt8__detail10_Hash_nodeISt4pairIKPKN4node14MemoryRetainerEPNS3_18MemoryRetainerNodeEELb0EEEE8allocateEmPKv = comdat any

$_ZNKSt15__new_allocatorINSt8__detail10_Hash_nodeISt4pairIKPKN4node14MemoryRetainerEPNS3_18MemoryRetainerNodeEELb0EEEE11_M_max_sizeEv = comdat any

$_ZNSt8__detail21_Hashtable_ebo_helperILi0ESaINS_10_Hash_nodeISt4pairIKPKN4node14MemoryRetainerEPNS3_18MemoryRetainerNodeEELb0EEEELb1EE6_M_getEv = comdat any

$_ZNSt8__detail15_Hash_node_baseC2Ev = comdat any

$_ZNSt15__new_allocatorINSt8__detail10_Hash_nodeISt4pairIKPKN4node14MemoryRetainerEPNS3_18MemoryRetainerNodeEELb0EEEE9constructISA_JRKSt21piecewise_construct_tSt5tupleIJRS7_EESH_IJEEEEEvPT_DpOT0_ = comdat any

$_ZNSt5tupleIJRKPKN4node14MemoryRetainerEEEC2EOS6_ = comdat any

$_ZNSt4pairIKPKN4node14MemoryRetainerEPNS0_18MemoryRetainerNodeEEC2IJRS4_EJEEESt21piecewise_construct_tSt5tupleIJDpT_EESB_IJDpT0_EE = comdat any

$_ZNSt11_Tuple_implILm0EJRKPKN4node14MemoryRetainerEEEC2EOS6_ = comdat any

$_ZNSt4pairIKPKN4node14MemoryRetainerEPNS0_18MemoryRetainerNodeEEC2IJRS4_EJLm0EEJETpTnmJEEERSt5tupleIJDpT_EERSA_IJDpT1_EESt12_Index_tupleIJXspT0_EEESJ_IJXspT2_EEE = comdat any

$_ZSt3getILm0EJRKPKN4node14MemoryRetainerEEERNSt13tuple_elementIXT_ESt5tupleIJDpT0_EEE4typeERSA_ = comdat any

$_ZSt12__get_helperILm0ERKPKN4node14MemoryRetainerEJEERT0_RSt11_Tuple_implIXT_EJS6_DpT1_EE = comdat any

$_ZNSt11_Tuple_implILm0EJRKPKN4node14MemoryRetainerEEE7_M_headERS6_ = comdat any

$_ZNSt10_Head_baseILm0ERKPKN4node14MemoryRetainerELb0EE7_M_headERS6_ = comdat any

$_ZNKSt8__detail20_Prime_rehash_policy8_M_stateEv = comdat any

$_ZNSt10_HashtableIPKN4node14MemoryRetainerESt4pairIKS3_PNS0_18MemoryRetainerNodeEESaIS8_ENSt8__detail10_Select1stESt8equal_toIS3_ESt4hashIS3_ENSA_18_Mod_range_hashingENSA_20_Default_ranged_hashENSA_20_Prime_rehash_policyENSA_17_Hashtable_traitsILb0ELb0ELb1EEEE9_M_rehashEmRKm = comdat any

$_ZNKSt8__detail15_Hash_code_baseIPKN4node14MemoryRetainerESt4pairIKS4_PNS1_18MemoryRetainerNodeEENS_10_Select1stESt4hashIS4_ENS_18_Mod_range_hashingENS_20_Default_ranged_hashELb0EE13_M_store_codeERNS_21_Hash_node_code_cacheILb0EEEm = comdat any

$_ZNSt10_HashtableIPKN4node14MemoryRetainerESt4pairIKS3_PNS0_18MemoryRetainerNodeEESaIS8_ENSt8__detail10_Select1stESt8equal_toIS3_ESt4hashIS3_ENSA_18_Mod_range_hashingENSA_20_Default_ranged_hashENSA_20_Prime_rehash_policyENSA_17_Hashtable_traitsILb0ELb0ELb1EEEE22_M_insert_bucket_beginEmPNSA_10_Hash_nodeIS8_Lb0EEE = comdat any

$_ZNSt10_HashtableIPKN4node14MemoryRetainerESt4pairIKS3_PNS0_18MemoryRetainerNodeEESaIS8_ENSt8__detail10_Select1stESt8equal_toIS3_ESt4hashIS3_ENSA_18_Mod_range_hashingENSA_20_Default_ranged_hashENSA_20_Prime_rehash_policyENSA_17_Hashtable_traitsILb0ELb0ELb1EEEE13_M_rehash_auxEmSt17integral_constantIbLb1EE = comdat any

$_ZNSt10_HashtableIPKN4node14MemoryRetainerESt4pairIKS3_PNS0_18MemoryRetainerNodeEESaIS8_ENSt8__detail10_Select1stESt8equal_toIS3_ESt4hashIS3_ENSA_18_Mod_range_hashingENSA_20_Default_ranged_hashENSA_20_Prime_rehash_policyENSA_17_Hashtable_traitsILb0ELb0ELb1EEEE19_M_allocate_bucketsEm = comdat any

$_ZNSt10_HashtableIPKN4node14MemoryRetainerESt4pairIKS3_PNS0_18MemoryRetainerNodeEESaIS8_ENSt8__detail10_Select1stESt8equal_toIS3_ESt4hashIS3_ENSA_18_Mod_range_hashingENSA_20_Default_ranged_hashENSA_20_Prime_rehash_policyENSA_17_Hashtable_traitsILb0ELb0ELb1EEEE21_M_deallocate_bucketsEv = comdat any

$_ZNSt8__detail16_Hashtable_allocISaINS_10_Hash_nodeISt4pairIKPKN4node14MemoryRetainerEPNS3_18MemoryRetainerNodeEELb0EEEEE19_M_allocate_bucketsEm = comdat any

$_ZNSaIPNSt8__detail15_Hash_node_baseEEC2INS_10_Hash_nodeISt4pairIKPKN4node14MemoryRetainerEPNS6_18MemoryRetainerNodeEELb0EEEEERKSaIT_E = comdat any

$_ZNSt16allocator_traitsISaIPNSt8__detail15_Hash_node_baseEEE8allocateERS3_m = comdat any

$_ZSt12__to_addressIPNSt8__detail15_Hash_node_baseEEPT_S4_ = comdat any

$_ZNSaIPNSt8__detail15_Hash_node_baseEED2Ev = comdat any

$_ZNSt15__new_allocatorIPNSt8__detail15_Hash_node_baseEEC2Ev = comdat any

$_ZNSt15__new_allocatorIPNSt8__detail15_Hash_node_baseEE8allocateEmPKv = comdat any

$_ZNKSt15__new_allocatorIPNSt8__detail15_Hash_node_baseEE11_M_max_sizeEv = comdat any

$_ZNSt15__new_allocatorIPNSt8__detail15_Hash_node_baseEED2Ev = comdat any

$_ZNSt10_HashtableIPKN4node14MemoryRetainerESt4pairIKS3_PNS0_18MemoryRetainerNodeEESaIS8_ENSt8__detail10_Select1stESt8equal_toIS3_ESt4hashIS3_ENSA_18_Mod_range_hashingENSA_20_Default_ranged_hashENSA_20_Prime_rehash_policyENSA_17_Hashtable_traitsILb0ELb0ELb1EEEE21_M_deallocate_bucketsEPPNSA_15_Hash_node_baseEm = comdat any

$_ZNKSt10_HashtableIPKN4node14MemoryRetainerESt4pairIKS3_PNS0_18MemoryRetainerNodeEESaIS8_ENSt8__detail10_Select1stESt8equal_toIS3_ESt4hashIS3_ENSA_18_Mod_range_hashingENSA_20_Default_ranged_hashENSA_20_Prime_rehash_policyENSA_17_Hashtable_traitsILb0ELb0ELb1EEEE21_M_uses_single_bucketEPPNSA_15_Hash_node_baseE = comdat any

$_ZNSt8__detail16_Hashtable_allocISaINS_10_Hash_nodeISt4pairIKPKN4node14MemoryRetainerEPNS3_18MemoryRetainerNodeEELb0EEEEE21_M_deallocate_bucketsEPPNS_15_Hash_node_baseEm = comdat any

$_ZNSt19__ptr_traits_ptr_toIPPNSt8__detail15_Hash_node_baseES2_Lb0EE10pointer_toERS2_ = comdat any

$_ZNSt16allocator_traitsISaIPNSt8__detail15_Hash_node_baseEEE10deallocateERS3_PS2_m = comdat any

$_ZNSt15__new_allocatorIPNSt8__detail15_Hash_node_baseEE10deallocateEPS2_m = comdat any

$_ZNSt8__detail16_Hashtable_allocISaINS_10_Hash_nodeISt4pairIKPKN4node14MemoryRetainerEPNS3_18MemoryRetainerNodeEELb0EEEEE18_M_deallocate_nodeEPSB_ = comdat any

$_ZNSt16allocator_traitsISaINSt8__detail10_Hash_nodeISt4pairIKPKN4node14MemoryRetainerEPNS3_18MemoryRetainerNodeEELb0EEEEE7destroyISA_EEvRSC_PT_ = comdat any

$_ZNSt8__detail16_Hashtable_allocISaINS_10_Hash_nodeISt4pairIKPKN4node14MemoryRetainerEPNS3_18MemoryRetainerNodeEELb0EEEEE22_M_deallocate_node_ptrEPSB_ = comdat any

$_ZNSt15__new_allocatorINSt8__detail10_Hash_nodeISt4pairIKPKN4node14MemoryRetainerEPNS3_18MemoryRetainerNodeEELb0EEEE7destroyISA_EEvPT_ = comdat any

$_ZNSt19__ptr_traits_ptr_toIPNSt8__detail10_Hash_nodeISt4pairIKPKN4node14MemoryRetainerEPNS3_18MemoryRetainerNodeEELb0EEESB_Lb0EE10pointer_toERSB_ = comdat any

$_ZNSt16allocator_traitsISaINSt8__detail10_Hash_nodeISt4pairIKPKN4node14MemoryRetainerEPNS3_18MemoryRetainerNodeEELb0EEEEE10deallocateERSC_PSB_m = comdat any

$_ZNSt15__new_allocatorINSt8__detail10_Hash_nodeISt4pairIKPKN4node14MemoryRetainerEPNS3_18MemoryRetainerNodeEELb0EEEE10deallocateEPSB_m = comdat any

$_ZNSt5dequeIPN4node18MemoryRetainerNodeESaIS2_EE9push_backERKS2_ = comdat any

$_ZNSt16allocator_traitsISaIPN4node18MemoryRetainerNodeEEE9constructIS2_JRKS2_EEEvRS3_PT_DpOT0_ = comdat any

$_ZNSt5dequeIPN4node18MemoryRetainerNodeESaIS2_EE16_M_push_back_auxIJRKS2_EEEvDpOT_ = comdat any

$_ZNSt15__new_allocatorIPN4node18MemoryRetainerNodeEE9constructIS2_JRKS2_EEEvPT_DpOT0_ = comdat any

$_ZNKSt5dequeIPN4node18MemoryRetainerNodeESaIS2_EE4sizeEv = comdat any

$_ZNKSt5dequeIPN4node18MemoryRetainerNodeESaIS2_EE8max_sizeEv = comdat any

$_ZNSt5dequeIPN4node18MemoryRetainerNodeESaIS2_EE22_M_reserve_map_at_backEm = comdat any

$_ZNSt11_Deque_baseIPN4node18MemoryRetainerNodeESaIS2_EE16_M_allocate_nodeEv = comdat any

$_ZNSt15_Deque_iteratorIPN4node18MemoryRetainerNodeERS2_PS2_E11_M_set_nodeEPS4_ = comdat any

$_ZStmiRKSt15_Deque_iteratorIPN4node18MemoryRetainerNodeERS2_PS2_ES7_ = comdat any

$_ZNSt15_Deque_iteratorIPN4node18MemoryRetainerNodeERS2_PS2_E14_S_buffer_sizeEv = comdat any

$_ZNSt5dequeIPN4node18MemoryRetainerNodeESaIS2_EE11_S_max_sizeERKS3_ = comdat any

$_ZNKSt11_Deque_baseIPN4node18MemoryRetainerNodeESaIS2_EE19_M_get_Tp_allocatorEv = comdat any

$_ZNSt16allocator_traitsISaIPN4node18MemoryRetainerNodeEEE8max_sizeERKS3_ = comdat any

$_ZSt3minImERKT_S2_S2_ = comdat any

$_ZNKSt15__new_allocatorIPN4node18MemoryRetainerNodeEE8max_sizeEv = comdat any

$_ZNKSt15__new_allocatorIPN4node18MemoryRetainerNodeEE11_M_max_sizeEv = comdat any

$_ZNSt5dequeIPN4node18MemoryRetainerNodeESaIS2_EE17_M_reallocate_mapEmb = comdat any

$_ZSt4copyIPPPN4node18MemoryRetainerNodeES4_ET0_T_S6_S5_ = comdat any

$_ZSt13copy_backwardIPPPN4node18MemoryRetainerNodeES4_ET0_T_S6_S5_ = comdat any

$_ZSt3maxImERKT_S2_S2_ = comdat any

$_ZNSt11_Deque_baseIPN4node18MemoryRetainerNodeESaIS2_EE15_M_allocate_mapEm = comdat any

$_ZNSt11_Deque_baseIPN4node18MemoryRetainerNodeESaIS2_EE17_M_deallocate_mapEPPS2_m = comdat any

$_ZSt13__copy_move_aILb0EPPPN4node18MemoryRetainerNodeES4_ET1_T0_S6_S5_ = comdat any

$_ZSt12__miter_baseIPPPN4node18MemoryRetainerNodeEET_S5_ = comdat any

$_ZSt12__niter_wrapIPPPN4node18MemoryRetainerNodeEET_RKS5_S5_ = comdat any

$_ZSt14__copy_move_a1ILb0EPPPN4node18MemoryRetainerNodeES4_ET1_T0_S6_S5_ = comdat any

$_ZSt12__niter_baseIPPPN4node18MemoryRetainerNodeEET_S5_ = comdat any

$_ZSt14__copy_move_a2ILb0EPPPN4node18MemoryRetainerNodeES4_ET1_T0_S6_S5_ = comdat any

$_ZNSt11__copy_moveILb0ELb1ESt26random_access_iterator_tagE8__copy_mIPPN4node18MemoryRetainerNodeEEEPT_PKS7_SA_S8_ = comdat any

$_ZSt22__copy_move_backward_aILb0EPPPN4node18MemoryRetainerNodeES4_ET1_T0_S6_S5_ = comdat any

$_ZSt23__copy_move_backward_a1ILb0EPPPN4node18MemoryRetainerNodeES4_ET1_T0_S6_S5_ = comdat any

$_ZSt23__copy_move_backward_a2ILb0EPPPN4node18MemoryRetainerNodeES4_ET1_T0_S6_S5_ = comdat any

$_ZNSt20__copy_move_backwardILb0ELb1ESt26random_access_iterator_tagE13__copy_move_bIPPN4node18MemoryRetainerNodeEEEPT_PKS7_SA_S8_ = comdat any

$_ZNKSt11_Deque_baseIPN4node18MemoryRetainerNodeESaIS2_EE20_M_get_map_allocatorEv = comdat any

$_ZNSt16allocator_traitsISaIPPN4node18MemoryRetainerNodeEEE8allocateERS4_m = comdat any

$_ZNSaIPPN4node18MemoryRetainerNodeEED2Ev = comdat any

$_ZNSaIPPN4node18MemoryRetainerNodeEEC2IS1_EERKSaIT_E = comdat any

$_ZNSt15__new_allocatorIPPN4node18MemoryRetainerNodeEEC2Ev = comdat any

$_ZNSt15__new_allocatorIPPN4node18MemoryRetainerNodeEE8allocateEmPKv = comdat any

$_ZNKSt15__new_allocatorIPPN4node18MemoryRetainerNodeEE11_M_max_sizeEv = comdat any

$_ZNSt15__new_allocatorIPPN4node18MemoryRetainerNodeEED2Ev = comdat any

$_ZNSt16allocator_traitsISaIPPN4node18MemoryRetainerNodeEEE10deallocateERS4_PS3_m = comdat any

$_ZNSt15__new_allocatorIPPN4node18MemoryRetainerNodeEE10deallocateEPS3_m = comdat any

$_ZNSt16allocator_traitsISaIPN4node18MemoryRetainerNodeEEE8allocateERS3_m = comdat any

$_ZNSt15__new_allocatorIPN4node18MemoryRetainerNodeEE8allocateEmPKv = comdat any

$_ZNSt5stackIPN4node18MemoryRetainerNodeESt5dequeIS2_SaIS2_EEE3popEv = comdat any

$_ZNSt5dequeIPN4node18MemoryRetainerNodeESaIS2_EE8pop_backEv = comdat any

$_ZNSt16allocator_traitsISaIPN4node18MemoryRetainerNodeEEE7destroyIS2_EEvRS3_PT_ = comdat any

$_ZNSt11_Deque_baseIPN4node18MemoryRetainerNodeESaIS2_EE19_M_get_Tp_allocatorEv = comdat any

$_ZNSt5dequeIPN4node18MemoryRetainerNodeESaIS2_EE15_M_pop_back_auxEv = comdat any

$_ZNSt15__new_allocatorIPN4node18MemoryRetainerNodeEE7destroyIS2_EEvPT_ = comdat any

$_ZNSt11_Deque_baseIPN4node18MemoryRetainerNodeESaIS2_EE18_M_deallocate_nodeEPS2_ = comdat any

$_ZNSt16allocator_traitsISaIPN4node18MemoryRetainerNodeEEE10deallocateERS3_PS2_m = comdat any

$_ZNSt15__new_allocatorIPN4node18MemoryRetainerNodeEE10deallocateEPS2_m = comdat any

$_ZNKSt19_Optional_base_implIN4node13SocketAddressESt14_Optional_baseIS1_Lb0ELb0EEE6_M_getEv = comdat any

$_ZSt27__throw_bad_optional_accessv = comdat any

$_ZNKSt22_Optional_payload_baseIN4node13SocketAddressEE6_M_getEv = comdat any

$_ZN4node14MemoryRetainerC2ERKS0_ = comdat any

$_ZNSt11char_traitsIcE6lengthEPKc = comdat any

$_ZN4node14MemoryRetaineraSERKS0_ = comdat any

$_ZNSt10shared_ptrIN2v812BackingStoreEEC2Ev = comdat any

$_ZNSt12__shared_ptrIN2v812BackingStoreELN9__gnu_cxx12_Lock_policyE2EEC2Ev = comdat any

$_ZNSt14__shared_countILN9__gnu_cxx12_Lock_policyE2EEC2Ev = comdat any

$_ZNSt15__uniq_ptr_dataIN2v812BackingStoreESt14default_deleteIS1_ELb1ELb1EEC2EOS4_ = comdat any

$_ZNSt15__uniq_ptr_implIN2v812BackingStoreESt14default_deleteIS1_EEC2EOS4_ = comdat any

$_ZNSt5tupleIJPN2v812BackingStoreESt14default_deleteIS1_EEEC2EOS5_ = comdat any

$_ZNSt15__uniq_ptr_implIN2v812BackingStoreESt14default_deleteIS1_EE6_M_ptrEv = comdat any

$_ZNSt11_Tuple_implILm0EJPN2v812BackingStoreESt14default_deleteIS1_EEEC2EOS5_ = comdat any

$_ZNSt11_Tuple_implILm1EJSt14default_deleteIN2v812BackingStoreEEEEC2EOS4_ = comdat any

$_ZSt3getILm0EJPN2v812BackingStoreESt14default_deleteIS1_EEERNSt13tuple_elementIXT_ESt5tupleIJDpT0_EEE4typeERS9_ = comdat any

$_ZSt12__get_helperILm0EPN2v812BackingStoreEJSt14default_deleteIS1_EEERT0_RSt11_Tuple_implIXT_EJS5_DpT1_EE = comdat any

$_ZNSt11_Tuple_implILm0EJPN2v812BackingStoreESt14default_deleteIS1_EEE7_M_headERS5_ = comdat any

$_ZNSt10_Head_baseILm0EPN2v812BackingStoreELb0EE7_M_headERS3_ = comdat any

$_ZN4node13SocketAddress7GetPortEPK16sockaddr_storage = comdat any

$_ZN4node13SocketAddress7GetPortEPK8sockaddr = comdat any

$_ZNSt10unique_ptrIN2v812BackingStoreESt14default_deleteIS1_EE11get_deleterEv = comdat any

$_ZNKSt14default_deleteIN2v812BackingStoreEEclEPS1_ = comdat any

$_ZNSt15__uniq_ptr_implIN2v812BackingStoreESt14default_deleteIS1_EE10_M_deleterEv = comdat any

$_ZSt3getILm1EJPN2v812BackingStoreESt14default_deleteIS1_EEERNSt13tuple_elementIXT_ESt5tupleIJDpT0_EEE4typeERS9_ = comdat any

$_ZSt12__get_helperILm1ESt14default_deleteIN2v812BackingStoreEEJEERT0_RSt11_Tuple_implIXT_EJS4_DpT1_EE = comdat any

$_ZNSt11_Tuple_implILm1EJSt14default_deleteIN2v812BackingStoreEEEE7_M_headERS4_ = comdat any

$_ZNSt10_Head_baseILm1ESt14default_deleteIN2v812BackingStoreEELb1EE7_M_headERS4_ = comdat any

$_ZN2v812BackingStoredlEPv = comdat any

$_ZN2v85MaybeIKN4node4quic15TransportParams7OptionsEEC2Ev = comdat any

$_ZNK4node11Environment7contextEv = comdat any

$_ZN4node22THROW_ERR_OUT_OF_RANGEIJEEEvPNS_11EnvironmentEPKcDpOT_ = comdat any

$_ZStplIcSt11char_traitsIcESaIcEENSt7__cxx1112basic_stringIT_T0_T1_EEOS8_PKS5_ = comdat any

$_ZStplIcSt11char_traitsIcESaIcEENSt7__cxx1112basic_stringIT_T0_T1_EEPKS5_OS8_ = comdat any

$_ZNK4node9Utf8Value8ToStringB5cxx11Ev = comdat any

$_ZN4node9Utf8ValueD2Ev = comdat any

$_ZNK4node11Environment15principal_realmEv = comdat any

$_ZNKSt10unique_ptrIN4node14PrincipalRealmESt14default_deleteIS1_EE3getEv = comdat any

$_ZNKSt15__uniq_ptr_implIN4node14PrincipalRealmESt14default_deleteIS1_EE6_M_ptrEv = comdat any

$_ZSt3getILm0EJPN4node14PrincipalRealmESt14default_deleteIS1_EEERKNSt13tuple_elementIXT_ESt5tupleIJDpT0_EEE4typeERKS9_ = comdat any

$_ZSt12__get_helperILm0EPN4node14PrincipalRealmEJSt14default_deleteIS1_EEERKT0_RKSt11_Tuple_implIXT_EJS5_DpT1_EE = comdat any

$_ZNSt11_Tuple_implILm0EJPN4node14PrincipalRealmESt14default_deleteIS1_EEE7_M_headERKS5_ = comdat any

$_ZNSt10_Head_baseILm0EPN4node14PrincipalRealmELb0EE7_M_headERKS3_ = comdat any

$_ZN4node22THROW_ERR_OUT_OF_RANGEIJEEEvPN2v87IsolateEPKcDpOT_ = comdat any

$_ZN4node16ERR_OUT_OF_RANGEIJEEEN2v85LocalINS1_5ValueEEEPNS1_7IsolateEPKcDpOT_ = comdat any

$_ZN4node7SPrintFIJEEENSt7__cxx1112basic_stringIcSt11char_traitsIcESaIcEEEPKcDpOT_ = comdat any

$_ZN4node13OneByteStringEPN2v87IsolateEPKci = comdat any

$_ZN4node11SPrintFImplB5cxx11EPKc = comdat any

$_ZNSt7__cxx1112basic_stringIcSt11char_traitsIcESaIcEEC2IS3_EEPKcRKS3_ = comdat any

$_ZStplIcSt11char_traitsIcESaIcEENSt7__cxx1112basic_stringIT_T0_T1_EEOS8_S9_ = comdat any

$_ZNSt7__cxx1112basic_stringIcSt11char_traitsIcESaIcEEC2IPKcvEET_S8_RKS3_ = comdat any

$_ZNSt7__cxx1112basic_stringIcSt11char_traitsIcESaIcEE12_M_constructIPKcEEvT_S8_St20forward_iterator_tag = comdat any

$_ZSt8distanceIPKcENSt15iterator_traitsIT_E15difference_typeES3_S3_ = comdat any

$_ZZNSt7__cxx1112basic_stringIcSt11char_traitsIcESaIcEE12_M_constructIPKcEEvT_S8_St20forward_iterator_tagEN6_GuardC2EPS4_ = comdat any

$_ZZNSt7__cxx1112basic_stringIcSt11char_traitsIcESaIcEE12_M_constructIPKcEEvT_S8_St20forward_iterator_tagEN6_GuardD2Ev = comdat any

$_ZSt10__distanceIPKcENSt15iterator_traitsIT_E15difference_typeES3_S3_St26random_access_iterator_tag = comdat any

$_ZSt19__iterator_categoryIPKcENSt15iterator_traitsIT_E17iterator_categoryERKS3_ = comdat any

$_ZNK4node16MaybeStackBufferIcLm1024EE3outEv = comdat any

$_ZNK4node16MaybeStackBufferIcLm1024EE6lengthEv = comdat any

$_ZN4node16MaybeStackBufferIcLm1024EED2Ev = comdat any

$_ZNK4node16MaybeStackBufferIcLm1024EE11IsAllocatedEv = comdat any

$_ZNK4node16MaybeStackBufferIcLm1024EE13IsInvalidatedEv = comdat any

$_ZN2v85MaybeIKN4node4quic15TransportParams7OptionsEEC2ERS5_ = comdat any

$_ZN4node4quic15TransportParams7OptionsC2ERKS2_ = comdat any

$_ZNSt8optionalIN4node13SocketAddressEEC2ERKS2_ = comdat any

$_ZNSt14_Optional_baseIN4node13SocketAddressELb0ELb0EEC2ERKS2_ = comdat any

$_ZNSt17_Optional_payloadIN4node13SocketAddressELb0ELb0ELb0EECI2St22_Optional_payload_baseIS1_EEbRKS3_IS1_E = comdat any

$_ZNSt17_Optional_payloadIN4node13SocketAddressELb1ELb0ELb0EECI2St22_Optional_payload_baseIS1_EEbRKS3_IS1_E = comdat any

$_ZNSt22_Optional_payload_baseIN4node13SocketAddressEEC2EbRKS2_ = comdat any

$_ZNSt22_Optional_payload_baseIN4node13SocketAddressEE12_M_constructIJRKS1_EEEvDpOT_ = comdat any

$_ZSt10_ConstructIN4node13SocketAddressEJRKS1_EEvPT_DpOT0_ = comdat any

$_ZN4node13SocketAddressC2ERKS0_ = comdat any

$_ZNK4node13SocketAddress6lengthEv = comdat any

$_ZN4node13SocketAddressD0Ev = comdat any

$_ZNK4node13SocketAddress10MemoryInfoEPNS_13MemoryTrackerE = comdat any

$_ZNK4node13SocketAddress14MemoryInfoNameEv = comdat any

$_ZNK4node13SocketAddress8SelfSizeEv = comdat any

$_ZN4node13SocketAddress9GetLengthEPK16sockaddr_storage = comdat any

$_ZN4node13SocketAddress9GetLengthEPK8sockaddr = comdat any

$_ZNKSt10unique_ptrIN2v812BackingStoreESt14default_deleteIS1_EE3getEv = comdat any

$_ZNKSt15__uniq_ptr_implIN2v812BackingStoreESt14default_deleteIS1_EE6_M_ptrEv = comdat any

$_ZSt3getILm0EJPN2v812BackingStoreESt14default_deleteIS1_EEERKNSt13tuple_elementIXT_ESt5tupleIJDpT0_EEE4typeERKS9_ = comdat any

$_ZSt12__get_helperILm0EPN2v812BackingStoreEJSt14default_deleteIS1_EEERKT0_RKSt11_Tuple_implIXT_EJS5_DpT1_EE = comdat any

$_ZNSt11_Tuple_implILm0EJPN2v812BackingStoreESt14default_deleteIS1_EEE7_M_headERKS5_ = comdat any

$_ZNSt10_Head_baseILm0EPN2v812BackingStoreELb0EE7_M_headERKS3_ = comdat any

$_ZTVN4node14MemoryRetainerE = comdat any

$_ZZN4node13MemoryTracker5TrackEPKNS_14MemoryRetainerEPKcE4args = comdat any

$_ZZN4node13MemoryTracker5TrackEPKNS_14MemoryRetainerEPKcE4args_0 = comdat any

$_ZTVN4node18MemoryRetainerNodeE = comdat any

$_ZZN4node18MemoryRetainerNodeC1EPNS_13MemoryTrackerEPKNS_14MemoryRetainerEE4args = comdat any

$_ZTVN2v813EmbedderGraph4NodeE = comdat any

$_ZSt19piecewise_construct = comdat any

$_ZZN4node13SocketAddress7GetPortEPK8sockaddrE4args = comdat any

$_ZZN4node4quic9SetOptionINS0_15TransportParams7OptionsETnMT_mXadL_ZNS3_34initial_max_stream_data_bidi_localEEEEEbPNS_11EnvironmentEPS4_RKN2v85LocalINS9_6ObjectEEERKNSA_INS9_6StringEEEE4args = comdat any

$_ZZN4node11SPrintFImplB5cxx11EPKcE4args = comdat any

$_ZZN4node4quic9SetOptionINS0_15TransportParams7OptionsETnMT_mXadL_ZNS3_35initial_max_stream_data_bidi_remoteEEEEEbPNS_11EnvironmentEPS4_RKN2v85LocalINS9_6ObjectEEERKNSA_INS9_6StringEEEE4args = comdat any

$_ZZN4node4quic9SetOptionINS0_15TransportParams7OptionsETnMT_mXadL_ZNS3_27initial_max_stream_data_uniEEEEEbPNS_11EnvironmentEPS4_RKN2v85LocalINS9_6ObjectEEERKNSA_INS9_6StringEEEE4args = comdat any

$_ZZN4node4quic9SetOptionINS0_15TransportParams7OptionsETnMT_mXadL_ZNS3_16initial_max_dataEEEEEbPNS_11EnvironmentEPS4_RKN2v85LocalINS9_6ObjectEEERKNSA_INS9_6StringEEEE4args = comdat any

$_ZZN4node4quic9SetOptionINS0_15TransportParams7OptionsETnMT_mXadL_ZNS3_24initial_max_streams_bidiEEEEEbPNS_11EnvironmentEPS4_RKN2v85LocalINS9_6ObjectEEERKNSA_INS9_6StringEEEE4args = comdat any

$_ZZN4node4quic9SetOptionINS0_15TransportParams7OptionsETnMT_mXadL_ZNS3_23initial_max_streams_uniEEEEEbPNS_11EnvironmentEPS4_RKN2v85LocalINS9_6ObjectEEERKNSA_INS9_6StringEEEE4args = comdat any

$_ZZN4node4quic9SetOptionINS0_15TransportParams7OptionsETnMT_mXadL_ZNS3_16max_idle_timeoutEEEEEbPNS_11EnvironmentEPS4_RKN2v85LocalINS9_6ObjectEEERKNSA_INS9_6StringEEEE4args = comdat any

$_ZZN4node4quic9SetOptionINS0_15TransportParams7OptionsETnMT_mXadL_ZNS3_26active_connection_id_limitEEEEEbPNS_11EnvironmentEPS4_RKN2v85LocalINS9_6ObjectEEERKNSA_INS9_6StringEEEE4args = comdat any

$_ZZN4node4quic9SetOptionINS0_15TransportParams7OptionsETnMT_mXadL_ZNS3_18ack_delay_exponentEEEEEbPNS_11EnvironmentEPS4_RKN2v85LocalINS9_6ObjectEEERKNSA_INS9_6StringEEEE4args = comdat any

$_ZZN4node4quic9SetOptionINS0_15TransportParams7OptionsETnMT_mXadL_ZNS3_13max_ack_delayEEEEEbPNS_11EnvironmentEPS4_RKN2v85LocalINS9_6ObjectEEERKNSA_INS9_6StringEEEE4args = comdat any

$_ZZN4node4quic9SetOptionINS0_15TransportParams7OptionsETnMT_mXadL_ZNS3_23max_datagram_frame_sizeEEEEEbPNS_11EnvironmentEPS4_RKN2v85LocalINS9_6ObjectEEERKNSA_INS9_6StringEEEE4args = comdat any

$_ZZN4node4quic9SetOptionINS0_15TransportParams7OptionsETnMT_bXadL_ZNS3_24disable_active_migrationEEEEEbPNS_11EnvironmentEPS4_RKN2v85LocalINS9_6ObjectEEERKNSA_INS9_6StringEEEE4args = comdat any

$_ZTVN4node13SocketAddressE = comdat any

@_ZStL8__ioinit = internal global %"class.std::ios_base::Init" zeroinitializer, align 1
@__dso_handle = external hidden global i8
@_ZTVN4node4quic15TransportParams7OptionsE = dso_local unnamed_addr constant { [10 x ptr] } { [10 x ptr] [ptr null, ptr null, ptr @_ZN4node4quic15TransportParams7OptionsD2Ev, ptr @_ZN4node4quic15TransportParams7OptionsD0Ev, ptr @_ZNK4node4quic15TransportParams7Options10MemoryInfoEPNS_13MemoryTrackerE, ptr @_ZNK4node4quic15TransportParams7Options14MemoryInfoNameEv, ptr @_ZNK4node4quic15TransportParams7Options8SelfSizeEv, ptr @_ZNK4node14MemoryRetainer13WrappedObjectEv, ptr @_ZNK4node14MemoryRetainer10IsRootNodeEv, ptr @_ZNK4node14MemoryRetainer15GetDetachednessEv] }, align 8
@_ZN4node4quic15TransportParams7Options8kDefaultE = dso_local global { ptr, { { { %"struct.std::_Optional_payload_base<node::SocketAddress>::_Empty_byte", [135 x i8] }, i8, [7 x i8] } }, { { { %"struct.std::_Optional_payload_base<node::SocketAddress>::_Empty_byte", [135 x i8] }, i8, [7 x i8] } }, i64, i64, i64, i64, i64, i64, i64, i64, i64, i64, i64, i8 } { ptr getelementptr inbounds ({ [10 x ptr] }, ptr @_ZTVN4node4quic15TransportParams7OptionsE, i32 0, inrange i32 0, i32 2), { { { %"struct.std::_Optional_payload_base<node::SocketAddress>::_Empty_byte", [135 x i8] }, i8, [7 x i8] } } { { { %"struct.std::_Optional_payload_base<node::SocketAddress>::_Empty_byte", [135 x i8] }, i8, [7 x i8] } { { %"struct.std::_Optional_payload_base<node::SocketAddress>::_Empty_byte", [135 x i8] } undef, i8 0, [7 x i8] undef } }, { { { %"struct.std::_Optional_payload_base<node::SocketAddress>::_Empty_byte", [135 x i8] }, i8, [7 x i8] } } { { { %"struct.std::_Optional_payload_base<node::SocketAddress>::_Empty_byte", [135 x i8] }, i8, [7 x i8] } { { %"struct.std::_Optional_payload_base<node::SocketAddress>::_Empty_byte", [135 x i8] } undef, i8 0, [7 x i8] undef } }, i64 262144, i64 262144, i64 262144, i64 1048576, i64 100, i64 3, i64 10, i64 2, i64 3, i64 25000000, i64 1200, i8 0 }, align 8
@.str = private unnamed_addr constant [23 x i8] c"preferred_address_ipv4\00", align 1
@.str.2 = private unnamed_addr constant [23 x i8] c"preferred_address_ipv6\00", align 1
@_ZN4node4quic9QuicError18TRANSPORT_NO_ERRORE = external global %"class.node::quic::QuicError", align 8
@_ZZN4node4quic15TransportParamsC1ERKNS1_6ConfigERKNS1_7OptionsEE4args = internal constant %"struct.node::AssertionInfo" { ptr @.str.3, ptr @.str.4, ptr @.str.5 }, align 8
@.str.3 = private unnamed_addr constant [38 x i8] c"../../src/quic/transportparams.cc:102\00", align 1
@.str.4 = private unnamed_addr constant [12 x i8] c"config.ocid\00", align 1
@.str.5 = private unnamed_addr constant [78 x i8] c"node::quic::TransportParams::TransportParams(const Config &, const Options &)\00", align 1
@.str.6 = private unnamed_addr constant [1 x i8] zeroinitializer, align 1
@_ZZN4node4quic15TransportParams19SetPreferredAddressERKNS_13SocketAddressEE4args = internal constant %"struct.node::AssertionInfo" { ptr @.str.7, ptr @.str.8, ptr @.str.9 }, align 8
@.str.7 = private unnamed_addr constant [38 x i8] c"../../src/quic/transportparams.cc:184\00", align 1
@.str.8 = private unnamed_addr constant [27 x i8] c"\22Unreachable code reached\22\00", align 1
@.str.9 = private unnamed_addr constant [77 x i8] c"void node::quic::TransportParams::SetPreferredAddress(const SocketAddress &)\00", align 1
@.str.10 = private unnamed_addr constant [24 x i8] c"DEFAULT_MAX_STREAM_DATA\00", align 1
@.str.11 = private unnamed_addr constant [17 x i8] c"DEFAULT_MAX_DATA\00", align 1
@.str.12 = private unnamed_addr constant [25 x i8] c"DEFAULT_MAX_IDLE_TIMEOUT\00", align 1
@.str.13 = private unnamed_addr constant [25 x i8] c"DEFAULT_MAX_STREAMS_BIDI\00", align 1
@.str.14 = private unnamed_addr constant [24 x i8] c"DEFAULT_MAX_STREAMS_UNI\00", align 1
@.str.15 = private unnamed_addr constant [35 x i8] c"DEFAULT_ACTIVE_CONNECTION_ID_LIMIT\00", align 1
@_ZTVN4node14MemoryRetainerE = linkonce_odr dso_local unnamed_addr constant { [10 x ptr] } { [10 x ptr] [ptr null, ptr null, ptr @_ZN4node14MemoryRetainerD2Ev, ptr @_ZN4node14MemoryRetainerD0Ev, ptr @__cxa_pure_virtual, ptr @__cxa_pure_virtual, ptr @__cxa_pure_virtual, ptr @_ZNK4node14MemoryRetainer13WrappedObjectEv, ptr @_ZNK4node14MemoryRetainer10IsRootNodeEv, ptr @_ZNK4node14MemoryRetainer15GetDetachednessEv] }, comdat, align 8
@_ZZN4node13MemoryTracker5TrackEPKNS_14MemoryRetainerEPKcE4args = linkonce_odr dso_local constant %"struct.node::AssertionInfo" { ptr @.str.16, ptr @.str.17, ptr @.str.18 }, comdat, align 8
@.str.16 = private unnamed_addr constant [35 x i8] c"../../src/memory_tracker-inl.h:285\00", align 1
@.str.17 = private unnamed_addr constant [23 x i8] c"(CurrentNode()) == (n)\00", align 1
@.str.18 = private unnamed_addr constant [70 x i8] c"void node::MemoryTracker::Track(const MemoryRetainer *, const char *)\00", align 1
@_ZZN4node13MemoryTracker5TrackEPKNS_14MemoryRetainerEPKcE4args_0 = linkonce_odr dso_local constant %"struct.node::AssertionInfo" { ptr @.str.19, ptr @.str.20, ptr @.str.18 }, comdat, align 8
@.str.19 = private unnamed_addr constant [35 x i8] c"../../src/memory_tracker-inl.h:286\00", align 1
@.str.20 = private unnamed_addr constant [18 x i8] c"(n->size_) != (0)\00", align 1
@.str.21 = private unnamed_addr constant [21 x i8] c"native_to_javascript\00", align 1
@.str.22 = private unnamed_addr constant [21 x i8] c"javascript_to_native\00", align 1
@_ZTVN4node18MemoryRetainerNodeE = linkonce_odr dso_local unnamed_addr constant { [13 x ptr] } { [13 x ptr] [ptr null, ptr null, ptr @_ZN4node18MemoryRetainerNodeD2Ev, ptr @_ZN4node18MemoryRetainerNodeD0Ev, ptr @_ZN4node18MemoryRetainerNode4NameEv, ptr @_ZN4node18MemoryRetainerNode11SizeInBytesEv, ptr @_ZN2v813EmbedderGraph4Node11WrapperNodeEv, ptr @_ZN4node18MemoryRetainerNode10IsRootNodeEv, ptr @_ZN2v813EmbedderGraph4Node14IsEmbedderNodeEv, ptr @_ZN4node18MemoryRetainerNode10NamePrefixEv, ptr @_ZN2v813EmbedderGraph4Node15GetNativeObjectEv, ptr @_ZN4node18MemoryRetainerNode15GetDetachednessEv, ptr @_ZN2v813EmbedderGraph4Node10GetAddressEv] }, comdat, align 8
@_ZZN4node18MemoryRetainerNodeC1EPNS_13MemoryTrackerEPKNS_14MemoryRetainerEE4args = linkonce_odr dso_local constant %"struct.node::AssertionInfo" { ptr @.str.23, ptr @.str.24, ptr @.str.25 }, comdat, align 8
@.str.23 = private unnamed_addr constant [34 x i8] c"../../src/memory_tracker-inl.h:28\00", align 1
@.str.24 = private unnamed_addr constant [23 x i8] c"(retainer_) != nullptr\00", align 1
@.str.25 = private unnamed_addr constant [86 x i8] c"node::MemoryRetainerNode::MemoryRetainerNode(MemoryTracker *, const MemoryRetainer *)\00", align 1
@_ZTVN2v813EmbedderGraph4NodeE = linkonce_odr dso_local unnamed_addr constant { [13 x ptr] } { [13 x ptr] [ptr null, ptr null, ptr @_ZN2v813EmbedderGraph4NodeD2Ev, ptr @_ZN2v813EmbedderGraph4NodeD0Ev, ptr @__cxa_pure_virtual, ptr @__cxa_pure_virtual, ptr @_ZN2v813EmbedderGraph4Node11WrapperNodeEv, ptr @_ZN2v813EmbedderGraph4Node10IsRootNodeEv, ptr @_ZN2v813EmbedderGraph4Node14IsEmbedderNodeEv, ptr @_ZN2v813EmbedderGraph4Node10NamePrefixEv, ptr @_ZN2v813EmbedderGraph4Node15GetNativeObjectEv, ptr @_ZN2v813EmbedderGraph4Node15GetDetachednessEv, ptr @_ZN2v813EmbedderGraph4Node10GetAddressEv] }, comdat, align 8
@.str.26 = private unnamed_addr constant [7 x i8] c"Node /\00", align 1
@_ZSt19piecewise_construct = linkonce_odr dso_local constant %"struct.std::piecewise_construct_t" zeroinitializer, comdat, align 1
@.str.27 = private unnamed_addr constant [48 x i8] c"cannot create std::deque larger than max_size()\00", align 1
@_ZTVN4node4quic9QuicErrorE = external unnamed_addr constant { [10 x ptr] }, align 8
@_ZTVN4node4quic5StoreE = external unnamed_addr constant { [10 x ptr] }, align 8
@_ZZN4node13SocketAddress7GetPortEPK8sockaddrE4args = linkonce_odr dso_local constant %"struct.node::AssertionInfo" { ptr @.str.28, ptr @.str.29, ptr @.str.30 }, comdat, align 8
@.str.28 = private unnamed_addr constant [33 x i8] c"../../src/node_sockaddr-inl.h:38\00", align 1
@.str.29 = private unnamed_addr constant [46 x i8] c"addr->sa_family == 2 || addr->sa_family == 10\00", align 1
@.str.30 = private unnamed_addr constant [58 x i8] c"static int node::SocketAddress::GetPort(const sockaddr *)\00", align 1
@.str.31 = private unnamed_addr constant [25 x i8] c"TransportParams::Options\00", align 1
@_ZZN4node4quic9SetOptionINS0_15TransportParams7OptionsETnMT_mXadL_ZNS3_34initial_max_stream_data_bidi_localEEEEEbPNS_11EnvironmentEPS4_RKN2v85LocalINS9_6ObjectEEERKNSA_INS9_6StringEEEE4args = linkonce_odr dso_local constant %"struct.node::AssertionInfo" { ptr @.str.32, ptr @.str.33, ptr @.str.34 }, comdat, align 8
@.str.32 = private unnamed_addr constant [25 x i8] c"../../src/quic/defs.h:53\00", align 1
@.str.33 = private unnamed_addr constant [45 x i8] c"!(!value->IsBigInt()) || (value->IsNumber())\00", align 1
@.str.34 = private unnamed_addr constant [240 x i8] c"bool node::quic::SetOption(Environment *, Opt *, const v8::Local<v8::Object> &, const v8::Local<v8::String> &) [Opt = node::quic::TransportParams::Options, member = &node::quic::TransportParams::Options::initial_max_stream_data_bidi_local]\00", align 1
@.str.35 = private unnamed_addr constant [9 x i8] c"options.\00", align 1
@.str.36 = private unnamed_addr constant [17 x i8] c" is out of range\00", align 1
@.str.37 = private unnamed_addr constant [17 x i8] c"ERR_OUT_OF_RANGE\00", align 1
@.str.38 = private unnamed_addr constant [5 x i8] c"code\00", align 1
@_ZZN4node11SPrintFImplB5cxx11EPKcE4args = linkonce_odr dso_local constant %"struct.node::AssertionInfo" { ptr @.str.39, ptr @.str.40, ptr @.str.41 }, comdat, align 8
@.str.39 = private unnamed_addr constant [31 x i8] c"../../src/debug_utils-inl.h:70\00", align 1
@.str.40 = private unnamed_addr constant [16 x i8] c"(p[1]) == ('%')\00", align 1
@.str.41 = private unnamed_addr constant [44 x i8] c"std::string node::SPrintFImpl(const char *)\00", align 1
@.str.42 = private unnamed_addr constant [50 x i8] c"basic_string: construction from null is not valid\00", align 1
@_ZZN4node4quic9SetOptionINS0_15TransportParams7OptionsETnMT_mXadL_ZNS3_35initial_max_stream_data_bidi_remoteEEEEEbPNS_11EnvironmentEPS4_RKN2v85LocalINS9_6ObjectEEERKNSA_INS9_6StringEEEE4args = linkonce_odr dso_local constant %"struct.node::AssertionInfo" { ptr @.str.32, ptr @.str.33, ptr @.str.43 }, comdat, align 8
@.str.43 = private unnamed_addr constant [241 x i8] c"bool node::quic::SetOption(Environment *, Opt *, const v8::Local<v8::Object> &, const v8::Local<v8::String> &) [Opt = node::quic::TransportParams::Options, member = &node::quic::TransportParams::Options::initial_max_stream_data_bidi_remote]\00", align 1
@_ZZN4node4quic9SetOptionINS0_15TransportParams7OptionsETnMT_mXadL_ZNS3_27initial_max_stream_data_uniEEEEEbPNS_11EnvironmentEPS4_RKN2v85LocalINS9_6ObjectEEERKNSA_INS9_6StringEEEE4args = linkonce_odr dso_local constant %"struct.node::AssertionInfo" { ptr @.str.32, ptr @.str.33, ptr @.str.44 }, comdat, align 8
@.str.44 = private unnamed_addr constant [233 x i8] c"bool node::quic::SetOption(Environment *, Opt *, const v8::Local<v8::Object> &, const v8::Local<v8::String> &) [Opt = node::quic::TransportParams::Options, member = &node::quic::TransportParams::Options::initial_max_stream_data_uni]\00", align 1
@_ZZN4node4quic9SetOptionINS0_15TransportParams7OptionsETnMT_mXadL_ZNS3_16initial_max_dataEEEEEbPNS_11EnvironmentEPS4_RKN2v85LocalINS9_6ObjectEEERKNSA_INS9_6StringEEEE4args = linkonce_odr dso_local constant %"struct.node::AssertionInfo" { ptr @.str.32, ptr @.str.33, ptr @.str.45 }, comdat, align 8
@.str.45 = private unnamed_addr constant [222 x i8] c"bool node::quic::SetOption(Environment *, Opt *, const v8::Local<v8::Object> &, const v8::Local<v8::String> &) [Opt = node::quic::TransportParams::Options, member = &node::quic::TransportParams::Options::initial_max_data]\00", align 1
@_ZZN4node4quic9SetOptionINS0_15TransportParams7OptionsETnMT_mXadL_ZNS3_24initial_max_streams_bidiEEEEEbPNS_11EnvironmentEPS4_RKN2v85LocalINS9_6ObjectEEERKNSA_INS9_6StringEEEE4args = linkonce_odr dso_local constant %"struct.node::AssertionInfo" { ptr @.str.32, ptr @.str.33, ptr @.str.46 }, comdat, align 8
@.str.46 = private unnamed_addr constant [230 x i8] c"bool node::quic::SetOption(Environment *, Opt *, const v8::Local<v8::Object> &, const v8::Local<v8::String> &) [Opt = node::quic::TransportParams::Options, member = &node::quic::TransportParams::Options::initial_max_streams_bidi]\00", align 1
@_ZZN4node4quic9SetOptionINS0_15TransportParams7OptionsETnMT_mXadL_ZNS3_23initial_max_streams_uniEEEEEbPNS_11EnvironmentEPS4_RKN2v85LocalINS9_6ObjectEEERKNSA_INS9_6StringEEEE4args = linkonce_odr dso_local constant %"struct.node::AssertionInfo" { ptr @.str.32, ptr @.str.33, ptr @.str.47 }, comdat, align 8
@.str.47 = private unnamed_addr constant [229 x i8] c"bool node::quic::SetOption(Environment *, Opt *, const v8::Local<v8::Object> &, const v8::Local<v8::String> &) [Opt = node::quic::TransportParams::Options, member = &node::quic::TransportParams::Options::initial_max_streams_uni]\00", align 1
@_ZZN4node4quic9SetOptionINS0_15TransportParams7OptionsETnMT_mXadL_ZNS3_16max_idle_timeoutEEEEEbPNS_11EnvironmentEPS4_RKN2v85LocalINS9_6ObjectEEERKNSA_INS9_6StringEEEE4args = linkonce_odr dso_local constant %"struct.node::AssertionInfo" { ptr @.str.32, ptr @.str.33, ptr @.str.48 }, comdat, align 8
@.str.48 = private unnamed_addr constant [222 x i8] c"bool node::quic::SetOption(Environment *, Opt *, const v8::Local<v8::Object> &, const v8::Local<v8::String> &) [Opt = node::quic::TransportParams::Options, member = &node::quic::TransportParams::Options::max_idle_timeout]\00", align 1
@_ZZN4node4quic9SetOptionINS0_15TransportParams7OptionsETnMT_mXadL_ZNS3_26active_connection_id_limitEEEEEbPNS_11EnvironmentEPS4_RKN2v85LocalINS9_6ObjectEEERKNSA_INS9_6StringEEEE4args = linkonce_odr dso_local constant %"struct.node::AssertionInfo" { ptr @.str.32, ptr @.str.33, ptr @.str.49 }, comdat, align 8
@.str.49 = private unnamed_addr constant [232 x i8] c"bool node::quic::SetOption(Environment *, Opt *, const v8::Local<v8::Object> &, const v8::Local<v8::String> &) [Opt = node::quic::TransportParams::Options, member = &node::quic::TransportParams::Options::active_connection_id_limit]\00", align 1
@_ZZN4node4quic9SetOptionINS0_15TransportParams7OptionsETnMT_mXadL_ZNS3_18ack_delay_exponentEEEEEbPNS_11EnvironmentEPS4_RKN2v85LocalINS9_6ObjectEEERKNSA_INS9_6StringEEEE4args = linkonce_odr dso_local constant %"struct.node::AssertionInfo" { ptr @.str.32, ptr @.str.33, ptr @.str.50 }, comdat, align 8
@.str.50 = private unnamed_addr constant [224 x i8] c"bool node::quic::SetOption(Environment *, Opt *, const v8::Local<v8::Object> &, const v8::Local<v8::String> &) [Opt = node::quic::TransportParams::Options, member = &node::quic::TransportParams::Options::ack_delay_exponent]\00", align 1
@_ZZN4node4quic9SetOptionINS0_15TransportParams7OptionsETnMT_mXadL_ZNS3_13max_ack_delayEEEEEbPNS_11EnvironmentEPS4_RKN2v85LocalINS9_6ObjectEEERKNSA_INS9_6StringEEEE4args = linkonce_odr dso_local constant %"struct.node::AssertionInfo" { ptr @.str.32, ptr @.str.33, ptr @.str.51 }, comdat, align 8
@.str.51 = private unnamed_addr constant [219 x i8] c"bool node::quic::SetOption(Environment *, Opt *, const v8::Local<v8::Object> &, const v8::Local<v8::String> &) [Opt = node::quic::TransportParams::Options, member = &node::quic::TransportParams::Options::max_ack_delay]\00", align 1
@_ZZN4node4quic9SetOptionINS0_15TransportParams7OptionsETnMT_mXadL_ZNS3_23max_datagram_frame_sizeEEEEEbPNS_11EnvironmentEPS4_RKN2v85LocalINS9_6ObjectEEERKNSA_INS9_6StringEEEE4args = linkonce_odr dso_local constant %"struct.node::AssertionInfo" { ptr @.str.32, ptr @.str.33, ptr @.str.52 }, comdat, align 8
@.str.52 = private unnamed_addr constant [229 x i8] c"bool node::quic::SetOption(Environment *, Opt *, const v8::Local<v8::Object> &, const v8::Local<v8::String> &) [Opt = node::quic::TransportParams::Options, member = &node::quic::TransportParams::Options::max_datagram_frame_size]\00", align 1
@_ZZN4node4quic9SetOptionINS0_15TransportParams7OptionsETnMT_bXadL_ZNS3_24disable_active_migrationEEEEEbPNS_11EnvironmentEPS4_RKN2v85LocalINS9_6ObjectEEERKNSA_INS9_6StringEEEE4args = linkonce_odr dso_local constant %"struct.node::AssertionInfo" { ptr @.str.53, ptr @.str.54, ptr @.str.55 }, comdat, align 8
@.str.53 = private unnamed_addr constant [25 x i8] c"../../src/quic/defs.h:38\00", align 1
@.str.54 = private unnamed_addr constant [19 x i8] c"value->IsBoolean()\00", align 1
@.str.55 = private unnamed_addr constant [230 x i8] c"bool node::quic::SetOption(Environment *, Opt *, const v8::Local<v8::Object> &, const v8::Local<v8::String> &) [Opt = node::quic::TransportParams::Options, member = &node::quic::TransportParams::Options::disable_active_migration]\00", align 1
@_ZTVN4node13SocketAddressE = linkonce_odr dso_local unnamed_addr constant { [10 x ptr] } { [10 x ptr] [ptr null, ptr null, ptr @_ZN4node13SocketAddressD2Ev, ptr @_ZN4node13SocketAddressD0Ev, ptr @_ZNK4node13SocketAddress10MemoryInfoEPNS_13MemoryTrackerE, ptr @_ZNK4node13SocketAddress14MemoryInfoNameEv, ptr @_ZNK4node13SocketAddress8SelfSizeEv, ptr @_ZNK4node14MemoryRetainer13WrappedObjectEv, ptr @_ZNK4node14MemoryRetainer10IsRootNodeEv, ptr @_ZNK4node14MemoryRetainer15GetDetachednessEv] }, comdat, align 8
@.str.56 = private unnamed_addr constant [14 x i8] c"SocketAddress\00", align 1
@llvm.global_ctors = appending global [1 x { i32, ptr, ptr }] [{ i32, ptr, ptr } { i32 65535, ptr @_GLOBAL__sub_I_transportparams.cc, ptr null }]

@_ZN4node4quic15TransportParams6ConfigC1ENS0_4SideERKNS0_3CIDES6_ = dso_local unnamed_addr alias void (ptr, i32, ptr, ptr), ptr @_ZN4node4quic15TransportParams6ConfigC2ENS0_4SideERKNS0_3CIDES6_
@_ZN4node4quic15TransportParamsC1ENS1_4TypeE = dso_local unnamed_addr alias void (ptr, i32), ptr @_ZN4node4quic15TransportParamsC2ENS1_4TypeE
@_ZN4node4quic15TransportParamsC1ENS1_4TypeEPK23ngtcp2_transport_params = dso_local unnamed_addr alias void (ptr, i32, ptr), ptr @_ZN4node4quic15TransportParamsC2ENS1_4TypeEPK23ngtcp2_transport_params
@_ZN4node4quic15TransportParamsC1ERKNS1_6ConfigERKNS1_7OptionsE = dso_local unnamed_addr alias void (ptr, ptr, ptr), ptr @_ZN4node4quic15TransportParamsC2ERKNS1_6ConfigERKNS1_7OptionsE
@_ZN4node4quic15TransportParamsC1ENS1_4TypeERK10ngtcp2_vec = dso_local unnamed_addr alias void (ptr, i32, ptr), ptr @_ZN4node4quic15TransportParamsC2ENS1_4TypeERK10ngtcp2_vec

; Function Attrs: nounwind uwtable
define internal void @__cxx_global_var_init() #0 section ".text.startup" {
entry:
  call void @_ZNSt8ios_base4InitC1Ev(ptr noundef nonnull align 1 dereferenceable(1) @_ZStL8__ioinit)
  %0 = call i32 @__cxa_atexit(ptr @_ZNSt8ios_base4InitD1Ev, ptr @_ZStL8__ioinit, ptr @__dso_handle) #3
  ret void
}

declare void @_ZNSt8ios_base4InitC1Ev(ptr noundef nonnull align 1 dereferenceable(1)) unnamed_addr #1

; Function Attrs: nounwind
declare void @_ZNSt8ios_base4InitD1Ev(ptr noundef nonnull align 1 dereferenceable(1)) unnamed_addr #2

; Function Attrs: nounwind
declare i32 @__cxa_atexit(ptr, ptr, ptr) #3

; Function Attrs: nounwind uwtable
define internal void @__cxx_global_var_init.1() #0 section ".text.startup" {
entry:
  %0 = call i32 @__cxa_atexit(ptr @_ZN4node4quic15TransportParams7OptionsD2Ev, ptr @_ZN4node4quic15TransportParams7Options8kDefaultE, ptr @__dso_handle) #3
  ret void
}

; Function Attrs: mustprogress nounwind uwtable
define linkonce_odr dso_local void @_ZN4node4quic15TransportParams7OptionsD2Ev(ptr noundef nonnull align 8 dereferenceable(385) %this) unnamed_addr #4 comdat align 2 {
entry:
  %this.addr = alloca ptr, align 8
  store ptr %this, ptr %this.addr, align 8
  %this1 = load ptr, ptr %this.addr, align 8
  store ptr getelementptr inbounds ({ [10 x ptr] }, ptr @_ZTVN4node4quic15TransportParams7OptionsE, i32 0, inrange i32 0, i32 2), ptr %this1, align 8
  %preferred_address_ipv6 = getelementptr inbounds %"struct.node::quic::TransportParams::Options", ptr %this1, i32 0, i32 2
  call void @_ZNSt8optionalIN4node13SocketAddressEED2Ev(ptr noundef nonnull align 8 dereferenceable(144) %preferred_address_ipv6) #3
  %preferred_address_ipv4 = getelementptr inbounds %"struct.node::quic::TransportParams::Options", ptr %this1, i32 0, i32 1
  call void @_ZNSt8optionalIN4node13SocketAddressEED2Ev(ptr noundef nonnull align 8 dereferenceable(144) %preferred_address_ipv4) #3
  call void @_ZN4node14MemoryRetainerD2Ev(ptr noundef nonnull align 8 dereferenceable(8) %this1) #3
  ret void
}

; Function Attrs: mustprogress nounwind uwtable
define dso_local void @_ZN4node4quic15TransportParams6ConfigC2ENS0_4SideERKNS0_3CIDES6_(ptr noundef nonnull align 8 dereferenceable(24) %this, i32 noundef %side, ptr noundef nonnull align 8 dereferenceable(48) %ocid, ptr noundef nonnull align 8 dereferenceable(48) %retry_scid) unnamed_addr #4 align 2 {
entry:
  %this.addr = alloca ptr, align 8
  %side.addr = alloca i32, align 4
  %ocid.addr = alloca ptr, align 8
  %retry_scid.addr = alloca ptr, align 8
  store ptr %this, ptr %this.addr, align 8
  store i32 %side, ptr %side.addr, align 4
  store ptr %ocid, ptr %ocid.addr, align 8
  store ptr %retry_scid, ptr %retry_scid.addr, align 8
  %this1 = load ptr, ptr %this.addr, align 8
  %side2 = getelementptr inbounds %"struct.node::quic::TransportParams::Config", ptr %this1, i32 0, i32 0
  %0 = load i32, ptr %side.addr, align 4
  store i32 %0, ptr %side2, align 8
  %ocid3 = getelementptr inbounds %"struct.node::quic::TransportParams::Config", ptr %this1, i32 0, i32 1
  %1 = load ptr, ptr %ocid.addr, align 8
  store ptr %1, ptr %ocid3, align 8
  %retry_scid4 = getelementptr inbounds %"struct.node::quic::TransportParams::Config", ptr %this1, i32 0, i32 2
  %2 = load ptr, ptr %retry_scid.addr, align 8
  store ptr %2, ptr %retry_scid4, align 8
  ret void
}

; Function Attrs: mustprogress nounwind uwtable
define dso_local void @_ZN4node4quic15TransportParams7Options4FromEPNS_11EnvironmentEN2v85LocalINS5_5ValueEEE(ptr noalias sret(%"class.v8::Maybe") align 8 %agg.result, ptr noundef %env, ptr %value.coerce) #4 align 2 {
entry:
  %this.addr.i103 = alloca ptr, align 8
  %other.addr.i104 = alloca ptr, align 8
  %this.addr.i101 = alloca ptr, align 8
  %other.addr.i = alloca ptr, align 8
  %retval.i100 = alloca %"class.v8::Local.11", align 8
  %that.i = alloca %"class.v8::Local", align 8
  %ref.tmp.i = alloca %"class.v8::LocalBase.12", align 8
  %slot.addr.i = alloca ptr, align 8
  %this.addr.i.i = alloca ptr, align 8
  %this.addr.i98 = alloca ptr, align 8
  %retval.i = alloca %"class.v8::Local.11", align 8
  %this.addr.i95 = alloca ptr, align 8
  %agg.tmp.i = alloca %"class.v8::Local", align 8
  %this.addr.i93 = alloca ptr, align 8
  %this.addr.i = alloca ptr, align 8
  %result.ptr = alloca ptr, align 8
  %value = alloca %"class.v8::Local", align 8
  %env.addr = alloca ptr, align 8
  %state = alloca ptr, align 8
  %params = alloca %"class.v8::Local.11", align 8
  %options = alloca %"struct.node::quic::TransportParams::Options", align 8
  %ref.tmp = alloca %"class.v8::Local.13", align 8
  %ref.tmp16 = alloca %"class.v8::Local.13", align 8
  %ref.tmp23 = alloca %"class.v8::Local.13", align 8
  %ref.tmp30 = alloca %"class.v8::Local.13", align 8
  %ref.tmp37 = alloca %"class.v8::Local.13", align 8
  %ref.tmp44 = alloca %"class.v8::Local.13", align 8
  %ref.tmp51 = alloca %"class.v8::Local.13", align 8
  %ref.tmp58 = alloca %"class.v8::Local.13", align 8
  %ref.tmp65 = alloca %"class.v8::Local.13", align 8
  %ref.tmp72 = alloca %"class.v8::Local.13", align 8
  %ref.tmp79 = alloca %"class.v8::Local.13", align 8
  %ref.tmp85 = alloca %"class.v8::Local.13", align 8
  %cleanup.dest.slot = alloca i32, align 4
  store ptr %agg.result, ptr %result.ptr, align 8
  %coerce.dive = getelementptr inbounds %"class.v8::Local", ptr %value, i32 0, i32 0
  %coerce.dive1 = getelementptr inbounds %"class.v8::LocalBase", ptr %coerce.dive, i32 0, i32 0
  %coerce.dive2 = getelementptr inbounds %"class.v8::IndirectHandleBase", ptr %coerce.dive1, i32 0, i32 0
  store ptr %value.coerce, ptr %coerce.dive2, align 8
  store ptr %env, ptr %env.addr, align 8
  store ptr %value, ptr %this.addr.i, align 8
  %this1.i = load ptr, ptr %this.addr.i, align 8
  %0 = load ptr, ptr %this1.i, align 8
  %cmp.i = icmp eq ptr %0, null
  br i1 %cmp.i, label %if.then, label %lor.lhs.false

lor.lhs.false:                                    ; preds = %entry
  store ptr %value, ptr %this.addr.i93, align 8
  %this1.i94 = load ptr, ptr %this.addr.i93, align 8
  store ptr %this1.i94, ptr %this.addr.i98, align 8
  %this1.i99 = load ptr, ptr %this.addr.i98, align 8
  store ptr %this1.i99, ptr %this.addr.i.i, align 8
  %this1.i.i = load ptr, ptr %this.addr.i.i, align 8
  %1 = load ptr, ptr %this1.i.i, align 8
  store ptr %1, ptr %slot.addr.i, align 8
  %2 = load ptr, ptr %slot.addr.i, align 8
  %call4 = call noundef zeroext i1 @_ZNK2v85Value8IsObjectEv(ptr noundef nonnull align 1 dereferenceable(1) %2)
  br i1 %call4, label %if.end, label %if.then

if.then:                                          ; preds = %lor.lhs.false, %entry
  call void @_ZN2v87NothingIKN4node4quic15TransportParams7OptionsEEENS_5MaybeIT_EEv(ptr sret(%"class.v8::Maybe") align 8 %agg.result)
  br label %return

if.end:                                           ; preds = %lor.lhs.false
  %3 = load ptr, ptr %env.addr, align 8
  %call5 = call noundef nonnull align 8 dereferenceable(992) ptr @_ZN4node4quic11BindingData3GetEPNS_11EnvironmentE(ptr noundef %3)
  store ptr %call5, ptr %state, align 8
  store ptr %value, ptr %this.addr.i95, align 8
  %this1.i96 = load ptr, ptr %this.addr.i95, align 8
  call void @llvm.memcpy.p0.p0.i64(ptr align 8 %agg.tmp.i, ptr align 8 %this1.i96, i64 8, i1 false)
  %4 = load ptr, ptr %agg.tmp.i, align 8
  store ptr %4, ptr %that.i, align 8
  store ptr %ref.tmp.i, ptr %this.addr.i101, align 8
  store ptr %that.i, ptr %other.addr.i, align 8
  %this1.i102 = load ptr, ptr %this.addr.i101, align 8
  %5 = load ptr, ptr %other.addr.i, align 8
  call void @llvm.memcpy.p0.p0.i64(ptr align 8 %this1.i102, ptr align 8 %5, i64 8, i1 false)
  store ptr %retval.i100, ptr %this.addr.i103, align 8
  store ptr %ref.tmp.i, ptr %other.addr.i104, align 8
  %this1.i105 = load ptr, ptr %this.addr.i103, align 8
  %6 = load ptr, ptr %other.addr.i104, align 8
  call void @llvm.memcpy.p0.p0.i64(ptr align 8 %this1.i105, ptr align 8 %6, i64 8, i1 false)
  %7 = load ptr, ptr %retval.i100, align 8
  store ptr %7, ptr %retval.i, align 8
  %8 = load ptr, ptr %retval.i, align 8
  %coerce.dive7 = getelementptr inbounds %"class.v8::Local.11", ptr %params, i32 0, i32 0
  %coerce.dive8 = getelementptr inbounds %"class.v8::LocalBase.12", ptr %coerce.dive7, i32 0, i32 0
  %coerce.dive9 = getelementptr inbounds %"class.v8::IndirectHandleBase", ptr %coerce.dive8, i32 0, i32 0
  store ptr %8, ptr %coerce.dive9, align 8
  call void @_ZN4node4quic15TransportParams7OptionsC2Ev(ptr noundef nonnull align 8 dereferenceable(385) %options) #3
  %9 = load ptr, ptr %env.addr, align 8
  %10 = load ptr, ptr %state, align 8
  %call10 = call ptr @_ZNK4node4quic11BindingData41initial_max_stream_data_bidi_local_stringEv(ptr noundef nonnull align 8 dereferenceable(992) %10)
  %coerce.dive11 = getelementptr inbounds %"class.v8::Local.13", ptr %ref.tmp, i32 0, i32 0
  %coerce.dive12 = getelementptr inbounds %"class.v8::LocalBase.14", ptr %coerce.dive11, i32 0, i32 0
  %coerce.dive13 = getelementptr inbounds %"class.v8::IndirectHandleBase", ptr %coerce.dive12, i32 0, i32 0
  store ptr %call10, ptr %coerce.dive13, align 8
  %call14 = call noundef zeroext i1 @_ZN4node4quic9SetOptionINS0_15TransportParams7OptionsETnMT_mXadL_ZNS3_34initial_max_stream_data_bidi_localEEEEEbPNS_11EnvironmentEPS4_RKN2v85LocalINS9_6ObjectEEERKNSA_INS9_6StringEEE(ptr noundef %9, ptr noundef %options, ptr noundef nonnull align 8 dereferenceable(8) %params, ptr noundef nonnull align 8 dereferenceable(8) %ref.tmp)
  br i1 %call14, label %lor.lhs.false15, label %lor.end

lor.lhs.false15:                                  ; preds = %if.end
  %11 = load ptr, ptr %env.addr, align 8
  %12 = load ptr, ptr %state, align 8
  %call17 = call ptr @_ZNK4node4quic11BindingData42initial_max_stream_data_bidi_remote_stringEv(ptr noundef nonnull align 8 dereferenceable(992) %12)
  %coerce.dive18 = getelementptr inbounds %"class.v8::Local.13", ptr %ref.tmp16, i32 0, i32 0
  %coerce.dive19 = getelementptr inbounds %"class.v8::LocalBase.14", ptr %coerce.dive18, i32 0, i32 0
  %coerce.dive20 = getelementptr inbounds %"class.v8::IndirectHandleBase", ptr %coerce.dive19, i32 0, i32 0
  store ptr %call17, ptr %coerce.dive20, align 8
  %call21 = call noundef zeroext i1 @_ZN4node4quic9SetOptionINS0_15TransportParams7OptionsETnMT_mXadL_ZNS3_35initial_max_stream_data_bidi_remoteEEEEEbPNS_11EnvironmentEPS4_RKN2v85LocalINS9_6ObjectEEERKNSA_INS9_6StringEEE(ptr noundef %11, ptr noundef %options, ptr noundef nonnull align 8 dereferenceable(8) %params, ptr noundef nonnull align 8 dereferenceable(8) %ref.tmp16)
  br i1 %call21, label %lor.lhs.false22, label %lor.end

lor.lhs.false22:                                  ; preds = %lor.lhs.false15
  %13 = load ptr, ptr %env.addr, align 8
  %14 = load ptr, ptr %state, align 8
  %call24 = call ptr @_ZNK4node4quic11BindingData34initial_max_stream_data_uni_stringEv(ptr noundef nonnull align 8 dereferenceable(992) %14)
  %coerce.dive25 = getelementptr inbounds %"class.v8::Local.13", ptr %ref.tmp23, i32 0, i32 0
  %coerce.dive26 = getelementptr inbounds %"class.v8::LocalBase.14", ptr %coerce.dive25, i32 0, i32 0
  %coerce.dive27 = getelementptr inbounds %"class.v8::IndirectHandleBase", ptr %coerce.dive26, i32 0, i32 0
  store ptr %call24, ptr %coerce.dive27, align 8
  %call28 = call noundef zeroext i1 @_ZN4node4quic9SetOptionINS0_15TransportParams7OptionsETnMT_mXadL_ZNS3_27initial_max_stream_data_uniEEEEEbPNS_11EnvironmentEPS4_RKN2v85LocalINS9_6ObjectEEERKNSA_INS9_6StringEEE(ptr noundef %13, ptr noundef %options, ptr noundef nonnull align 8 dereferenceable(8) %params, ptr noundef nonnull align 8 dereferenceable(8) %ref.tmp23)
  br i1 %call28, label %lor.lhs.false29, label %lor.end

lor.lhs.false29:                                  ; preds = %lor.lhs.false22
  %15 = load ptr, ptr %env.addr, align 8
  %16 = load ptr, ptr %state, align 8
  %call31 = call ptr @_ZNK4node4quic11BindingData23initial_max_data_stringEv(ptr noundef nonnull align 8 dereferenceable(992) %16)
  %coerce.dive32 = getelementptr inbounds %"class.v8::Local.13", ptr %ref.tmp30, i32 0, i32 0
  %coerce.dive33 = getelementptr inbounds %"class.v8::LocalBase.14", ptr %coerce.dive32, i32 0, i32 0
  %coerce.dive34 = getelementptr inbounds %"class.v8::IndirectHandleBase", ptr %coerce.dive33, i32 0, i32 0
  store ptr %call31, ptr %coerce.dive34, align 8
  %call35 = call noundef zeroext i1 @_ZN4node4quic9SetOptionINS0_15TransportParams7OptionsETnMT_mXadL_ZNS3_16initial_max_dataEEEEEbPNS_11EnvironmentEPS4_RKN2v85LocalINS9_6ObjectEEERKNSA_INS9_6StringEEE(ptr noundef %15, ptr noundef %options, ptr noundef nonnull align 8 dereferenceable(8) %params, ptr noundef nonnull align 8 dereferenceable(8) %ref.tmp30)
  br i1 %call35, label %lor.lhs.false36, label %lor.end

lor.lhs.false36:                                  ; preds = %lor.lhs.false29
  %17 = load ptr, ptr %env.addr, align 8
  %18 = load ptr, ptr %state, align 8
  %call38 = call ptr @_ZNK4node4quic11BindingData31initial_max_streams_bidi_stringEv(ptr noundef nonnull align 8 dereferenceable(992) %18)
  %coerce.dive39 = getelementptr inbounds %"class.v8::Local.13", ptr %ref.tmp37, i32 0, i32 0
  %coerce.dive40 = getelementptr inbounds %"class.v8::LocalBase.14", ptr %coerce.dive39, i32 0, i32 0
  %coerce.dive41 = getelementptr inbounds %"class.v8::IndirectHandleBase", ptr %coerce.dive40, i32 0, i32 0
  store ptr %call38, ptr %coerce.dive41, align 8
  %call42 = call noundef zeroext i1 @_ZN4node4quic9SetOptionINS0_15TransportParams7OptionsETnMT_mXadL_ZNS3_24initial_max_streams_bidiEEEEEbPNS_11EnvironmentEPS4_RKN2v85LocalINS9_6ObjectEEERKNSA_INS9_6StringEEE(ptr noundef %17, ptr noundef %options, ptr noundef nonnull align 8 dereferenceable(8) %params, ptr noundef nonnull align 8 dereferenceable(8) %ref.tmp37)
  br i1 %call42, label %lor.lhs.false43, label %lor.end

lor.lhs.false43:                                  ; preds = %lor.lhs.false36
  %19 = load ptr, ptr %env.addr, align 8
  %20 = load ptr, ptr %state, align 8
  %call45 = call ptr @_ZNK4node4quic11BindingData30initial_max_streams_uni_stringEv(ptr noundef nonnull align 8 dereferenceable(992) %20)
  %coerce.dive46 = getelementptr inbounds %"class.v8::Local.13", ptr %ref.tmp44, i32 0, i32 0
  %coerce.dive47 = getelementptr inbounds %"class.v8::LocalBase.14", ptr %coerce.dive46, i32 0, i32 0
  %coerce.dive48 = getelementptr inbounds %"class.v8::IndirectHandleBase", ptr %coerce.dive47, i32 0, i32 0
  store ptr %call45, ptr %coerce.dive48, align 8
  %call49 = call noundef zeroext i1 @_ZN4node4quic9SetOptionINS0_15TransportParams7OptionsETnMT_mXadL_ZNS3_23initial_max_streams_uniEEEEEbPNS_11EnvironmentEPS4_RKN2v85LocalINS9_6ObjectEEERKNSA_INS9_6StringEEE(ptr noundef %19, ptr noundef %options, ptr noundef nonnull align 8 dereferenceable(8) %params, ptr noundef nonnull align 8 dereferenceable(8) %ref.tmp44)
  br i1 %call49, label %lor.lhs.false50, label %lor.end

lor.lhs.false50:                                  ; preds = %lor.lhs.false43
  %21 = load ptr, ptr %env.addr, align 8
  %22 = load ptr, ptr %state, align 8
  %call52 = call ptr @_ZNK4node4quic11BindingData23max_idle_timeout_stringEv(ptr noundef nonnull align 8 dereferenceable(992) %22)
  %coerce.dive53 = getelementptr inbounds %"class.v8::Local.13", ptr %ref.tmp51, i32 0, i32 0
  %coerce.dive54 = getelementptr inbounds %"class.v8::LocalBase.14", ptr %coerce.dive53, i32 0, i32 0
  %coerce.dive55 = getelementptr inbounds %"class.v8::IndirectHandleBase", ptr %coerce.dive54, i32 0, i32 0
  store ptr %call52, ptr %coerce.dive55, align 8
  %call56 = call noundef zeroext i1 @_ZN4node4quic9SetOptionINS0_15TransportParams7OptionsETnMT_mXadL_ZNS3_16max_idle_timeoutEEEEEbPNS_11EnvironmentEPS4_RKN2v85LocalINS9_6ObjectEEERKNSA_INS9_6StringEEE(ptr noundef %21, ptr noundef %options, ptr noundef nonnull align 8 dereferenceable(8) %params, ptr noundef nonnull align 8 dereferenceable(8) %ref.tmp51)
  br i1 %call56, label %lor.lhs.false57, label %lor.end

lor.lhs.false57:                                  ; preds = %lor.lhs.false50
  %23 = load ptr, ptr %env.addr, align 8
  %24 = load ptr, ptr %state, align 8
  %call59 = call ptr @_ZNK4node4quic11BindingData33active_connection_id_limit_stringEv(ptr noundef nonnull align 8 dereferenceable(992) %24)
  %coerce.dive60 = getelementptr inbounds %"class.v8::Local.13", ptr %ref.tmp58, i32 0, i32 0
  %coerce.dive61 = getelementptr inbounds %"class.v8::LocalBase.14", ptr %coerce.dive60, i32 0, i32 0
  %coerce.dive62 = getelementptr inbounds %"class.v8::IndirectHandleBase", ptr %coerce.dive61, i32 0, i32 0
  store ptr %call59, ptr %coerce.dive62, align 8
  %call63 = call noundef zeroext i1 @_ZN4node4quic9SetOptionINS0_15TransportParams7OptionsETnMT_mXadL_ZNS3_26active_connection_id_limitEEEEEbPNS_11EnvironmentEPS4_RKN2v85LocalINS9_6ObjectEEERKNSA_INS9_6StringEEE(ptr noundef %23, ptr noundef %options, ptr noundef nonnull align 8 dereferenceable(8) %params, ptr noundef nonnull align 8 dereferenceable(8) %ref.tmp58)
  br i1 %call63, label %lor.lhs.false64, label %lor.end

lor.lhs.false64:                                  ; preds = %lor.lhs.false57
  %25 = load ptr, ptr %env.addr, align 8
  %26 = load ptr, ptr %state, align 8
  %call66 = call ptr @_ZNK4node4quic11BindingData25ack_delay_exponent_stringEv(ptr noundef nonnull align 8 dereferenceable(992) %26)
  %coerce.dive67 = getelementptr inbounds %"class.v8::Local.13", ptr %ref.tmp65, i32 0, i32 0
  %coerce.dive68 = getelementptr inbounds %"class.v8::LocalBase.14", ptr %coerce.dive67, i32 0, i32 0
  %coerce.dive69 = getelementptr inbounds %"class.v8::IndirectHandleBase", ptr %coerce.dive68, i32 0, i32 0
  store ptr %call66, ptr %coerce.dive69, align 8
  %call70 = call noundef zeroext i1 @_ZN4node4quic9SetOptionINS0_15TransportParams7OptionsETnMT_mXadL_ZNS3_18ack_delay_exponentEEEEEbPNS_11EnvironmentEPS4_RKN2v85LocalINS9_6ObjectEEERKNSA_INS9_6StringEEE(ptr noundef %25, ptr noundef %options, ptr noundef nonnull align 8 dereferenceable(8) %params, ptr noundef nonnull align 8 dereferenceable(8) %ref.tmp65)
  br i1 %call70, label %lor.lhs.false71, label %lor.end

lor.lhs.false71:                                  ; preds = %lor.lhs.false64
  %27 = load ptr, ptr %env.addr, align 8
  %28 = load ptr, ptr %state, align 8
  %call73 = call ptr @_ZNK4node4quic11BindingData20max_ack_delay_stringEv(ptr noundef nonnull align 8 dereferenceable(992) %28)
  %coerce.dive74 = getelementptr inbounds %"class.v8::Local.13", ptr %ref.tmp72, i32 0, i32 0
  %coerce.dive75 = getelementptr inbounds %"class.v8::LocalBase.14", ptr %coerce.dive74, i32 0, i32 0
  %coerce.dive76 = getelementptr inbounds %"class.v8::IndirectHandleBase", ptr %coerce.dive75, i32 0, i32 0
  store ptr %call73, ptr %coerce.dive76, align 8
  %call77 = call noundef zeroext i1 @_ZN4node4quic9SetOptionINS0_15TransportParams7OptionsETnMT_mXadL_ZNS3_13max_ack_delayEEEEEbPNS_11EnvironmentEPS4_RKN2v85LocalINS9_6ObjectEEERKNSA_INS9_6StringEEE(ptr noundef %27, ptr noundef %options, ptr noundef nonnull align 8 dereferenceable(8) %params, ptr noundef nonnull align 8 dereferenceable(8) %ref.tmp72)
  br i1 %call77, label %lor.lhs.false78, label %lor.end

lor.lhs.false78:                                  ; preds = %lor.lhs.false71
  %29 = load ptr, ptr %env.addr, align 8
  %30 = load ptr, ptr %state, align 8
  %call80 = call ptr @_ZNK4node4quic11BindingData30max_datagram_frame_size_stringEv(ptr noundef nonnull align 8 dereferenceable(992) %30)
  %coerce.dive81 = getelementptr inbounds %"class.v8::Local.13", ptr %ref.tmp79, i32 0, i32 0
  %coerce.dive82 = getelementptr inbounds %"class.v8::LocalBase.14", ptr %coerce.dive81, i32 0, i32 0
  %coerce.dive83 = getelementptr inbounds %"class.v8::IndirectHandleBase", ptr %coerce.dive82, i32 0, i32 0
  store ptr %call80, ptr %coerce.dive83, align 8
  %call84 = call noundef zeroext i1 @_ZN4node4quic9SetOptionINS0_15TransportParams7OptionsETnMT_mXadL_ZNS3_23max_datagram_frame_sizeEEEEEbPNS_11EnvironmentEPS4_RKN2v85LocalINS9_6ObjectEEERKNSA_INS9_6StringEEE(ptr noundef %29, ptr noundef %options, ptr noundef nonnull align 8 dereferenceable(8) %params, ptr noundef nonnull align 8 dereferenceable(8) %ref.tmp79)
  br i1 %call84, label %lor.rhs, label %lor.end

lor.rhs:                                          ; preds = %lor.lhs.false78
  %31 = load ptr, ptr %env.addr, align 8
  %32 = load ptr, ptr %state, align 8
  %call86 = call ptr @_ZNK4node4quic11BindingData31disable_active_migration_stringEv(ptr noundef nonnull align 8 dereferenceable(992) %32)
  %coerce.dive87 = getelementptr inbounds %"class.v8::Local.13", ptr %ref.tmp85, i32 0, i32 0
  %coerce.dive88 = getelementptr inbounds %"class.v8::LocalBase.14", ptr %coerce.dive87, i32 0, i32 0
  %coerce.dive89 = getelementptr inbounds %"class.v8::IndirectHandleBase", ptr %coerce.dive88, i32 0, i32 0
  store ptr %call86, ptr %coerce.dive89, align 8
  %call90 = call noundef zeroext i1 @_ZN4node4quic9SetOptionINS0_15TransportParams7OptionsETnMT_bXadL_ZNS3_24disable_active_migrationEEEEEbPNS_11EnvironmentEPS4_RKN2v85LocalINS9_6ObjectEEERKNSA_INS9_6StringEEE(ptr noundef %31, ptr noundef %options, ptr noundef nonnull align 8 dereferenceable(8) %params, ptr noundef nonnull align 8 dereferenceable(8) %ref.tmp85)
  %lnot = xor i1 %call90, true
  br label %lor.end

lor.end:                                          ; preds = %lor.rhs, %lor.lhs.false78, %lor.lhs.false71, %lor.lhs.false64, %lor.lhs.false57, %lor.lhs.false50, %lor.lhs.false43, %lor.lhs.false36, %lor.lhs.false29, %lor.lhs.false22, %lor.lhs.false15, %if.end
  %33 = phi i1 [ true, %lor.lhs.false78 ], [ true, %lor.lhs.false71 ], [ true, %lor.lhs.false64 ], [ true, %lor.lhs.false57 ], [ true, %lor.lhs.false50 ], [ true, %lor.lhs.false43 ], [ true, %lor.lhs.false36 ], [ true, %lor.lhs.false29 ], [ true, %lor.lhs.false22 ], [ true, %lor.lhs.false15 ], [ true, %if.end ], [ %lnot, %lor.rhs ]
  br i1 %33, label %if.then91, label %if.end92

if.then91:                                        ; preds = %lor.end
  call void @_ZN2v87NothingIKN4node4quic15TransportParams7OptionsEEENS_5MaybeIT_EEv(ptr sret(%"class.v8::Maybe") align 8 %agg.result)
  store i32 1, ptr %cleanup.dest.slot, align 4
  br label %cleanup

if.end92:                                         ; preds = %lor.end
  call void @_ZN2v84JustIKN4node4quic15TransportParams7OptionsEEENS_5MaybeIT_EERKS7_(ptr sret(%"class.v8::Maybe") align 8 %agg.result, ptr noundef nonnull align 8 dereferenceable(385) %options)
  store i32 1, ptr %cleanup.dest.slot, align 4
  br label %cleanup

cleanup:                                          ; preds = %if.end92, %if.then91
  call void @_ZN4node4quic15TransportParams7OptionsD2Ev(ptr noundef nonnull align 8 dereferenceable(385) %options) #3
  br label %return

return:                                           ; preds = %cleanup, %if.then
  ret void
}

declare noundef zeroext i1 @_ZNK2v85Value8IsObjectEv(ptr noundef nonnull align 1 dereferenceable(1)) #1

; Function Attrs: mustprogress nounwind uwtable
define linkonce_odr dso_local void @_ZN2v87NothingIKN4node4quic15TransportParams7OptionsEEENS_5MaybeIT_EEv(ptr noalias sret(%"class.v8::Maybe") align 8 %agg.result) #4 comdat {
entry:
  %result.ptr = alloca ptr, align 8
  store ptr %agg.result, ptr %result.ptr, align 8
  call void @_ZN2v85MaybeIKN4node4quic15TransportParams7OptionsEEC2Ev(ptr noundef nonnull align 8 dereferenceable(400) %agg.result)
  ret void
}

declare noundef nonnull align 8 dereferenceable(992) ptr @_ZN4node4quic11BindingData3GetEPNS_11EnvironmentE(ptr noundef) #1

; Function Attrs: mustprogress nounwind uwtable
define linkonce_odr dso_local void @_ZN4node4quic15TransportParams7OptionsC2Ev(ptr noundef nonnull align 8 dereferenceable(385) %this) unnamed_addr #4 comdat align 2 {
entry:
  %this.addr = alloca ptr, align 8
  store ptr %this, ptr %this.addr, align 8
  %this1 = load ptr, ptr %this.addr, align 8
  call void @_ZN4node14MemoryRetainerC2Ev(ptr noundef nonnull align 8 dereferenceable(8) %this1) #3
  store ptr getelementptr inbounds ({ [10 x ptr] }, ptr @_ZTVN4node4quic15TransportParams7OptionsE, i32 0, inrange i32 0, i32 2), ptr %this1, align 8
  %preferred_address_ipv4 = getelementptr inbounds %"struct.node::quic::TransportParams::Options", ptr %this1, i32 0, i32 1
  call void @_ZNSt8optionalIN4node13SocketAddressEEC2Ev(ptr noundef nonnull align 8 dereferenceable(144) %preferred_address_ipv4) #3
  %preferred_address_ipv6 = getelementptr inbounds %"struct.node::quic::TransportParams::Options", ptr %this1, i32 0, i32 2
  call void @_ZNSt8optionalIN4node13SocketAddressEEC2Ev(ptr noundef nonnull align 8 dereferenceable(144) %preferred_address_ipv6) #3
  %initial_max_stream_data_bidi_local = getelementptr inbounds %"struct.node::quic::TransportParams::Options", ptr %this1, i32 0, i32 3
  store i64 262144, ptr %initial_max_stream_data_bidi_local, align 8
  %initial_max_stream_data_bidi_remote = getelementptr inbounds %"struct.node::quic::TransportParams::Options", ptr %this1, i32 0, i32 4
  store i64 262144, ptr %initial_max_stream_data_bidi_remote, align 8
  %initial_max_stream_data_uni = getelementptr inbounds %"struct.node::quic::TransportParams::Options", ptr %this1, i32 0, i32 5
  store i64 262144, ptr %initial_max_stream_data_uni, align 8
  %initial_max_data = getelementptr inbounds %"struct.node::quic::TransportParams::Options", ptr %this1, i32 0, i32 6
  store i64 1048576, ptr %initial_max_data, align 8
  %initial_max_streams_bidi = getelementptr inbounds %"struct.node::quic::TransportParams::Options", ptr %this1, i32 0, i32 7
  store i64 100, ptr %initial_max_streams_bidi, align 8
  %initial_max_streams_uni = getelementptr inbounds %"struct.node::quic::TransportParams::Options", ptr %this1, i32 0, i32 8
  store i64 3, ptr %initial_max_streams_uni, align 8
  %max_idle_timeout = getelementptr inbounds %"struct.node::quic::TransportParams::Options", ptr %this1, i32 0, i32 9
  store i64 10, ptr %max_idle_timeout, align 8
  %active_connection_id_limit = getelementptr inbounds %"struct.node::quic::TransportParams::Options", ptr %this1, i32 0, i32 10
  store i64 2, ptr %active_connection_id_limit, align 8
  %ack_delay_exponent = getelementptr inbounds %"struct.node::quic::TransportParams::Options", ptr %this1, i32 0, i32 11
  store i64 3, ptr %ack_delay_exponent, align 8
  %max_ack_delay = getelementptr inbounds %"struct.node::quic::TransportParams::Options", ptr %this1, i32 0, i32 12
  store i64 25000000, ptr %max_ack_delay, align 8
  %max_datagram_frame_size = getelementptr inbounds %"struct.node::quic::TransportParams::Options", ptr %this1, i32 0, i32 13
  store i64 1200, ptr %max_datagram_frame_size, align 8
  %disable_active_migration = getelementptr inbounds %"struct.node::quic::TransportParams::Options", ptr %this1, i32 0, i32 14
  store i8 0, ptr %disable_active_migration, align 8
  ret void
}

; Function Attrs: mustprogress nounwind uwtable
define linkonce_odr dso_local noundef zeroext i1 @_ZN4node4quic9SetOptionINS0_15TransportParams7OptionsETnMT_mXadL_ZNS3_34initial_max_stream_data_bidi_localEEEEEbPNS_11EnvironmentEPS4_RKN2v85LocalINS9_6ObjectEEERKNSA_INS9_6StringEEE(ptr noundef %env, ptr noundef %options, ptr noundef nonnull align 8 dereferenceable(8) %object, ptr noundef nonnull align 8 dereferenceable(8) %name) #4 comdat {
entry:
  %slot.addr.i194 = alloca ptr, align 8
  %this.addr.i.i190 = alloca ptr, align 8
  %this.addr.i191 = alloca ptr, align 8
  %this.addr.i187 = alloca ptr, align 8
  %other.addr.i188 = alloca ptr, align 8
  %this.addr.i184 = alloca ptr, align 8
  %other.addr.i185 = alloca ptr, align 8
  %retval.i181 = alloca %"class.v8::Local.494", align 8
  %that.i182 = alloca %"class.v8::Local", align 8
  %ref.tmp.i183 = alloca %"class.v8::LocalBase.495", align 8
  %slot.addr.i180 = alloca ptr, align 8
  %this.addr.i.i176 = alloca ptr, align 8
  %this.addr.i177 = alloca ptr, align 8
  %this.addr.i173 = alloca ptr, align 8
  %other.addr.i174 = alloca ptr, align 8
  %this.addr.i170 = alloca ptr, align 8
  %other.addr.i171 = alloca ptr, align 8
  %retval.i168 = alloca %"class.v8::Local.524", align 8
  %that.i169 = alloca %"class.v8::Local", align 8
  %ref.tmp.i = alloca %"class.v8::LocalBase.525", align 8
  %value.addr.i166 = alloca i64, align 8
  %shift_bits.i = alloca i32, align 4
  %heap_object_ptr.addr.i.i = alloca i64, align 8
  %offset.addr.i.i = alloca i32, align 4
  %addr.i.i = alloca i64, align 8
  %heap_object_ptr.addr.i164 = alloca i64, align 8
  %offset.addr.i165 = alloca i32, align 4
  %value.addr.i163 = alloca i64, align 8
  %heap_object_ptr.addr.i157 = alloca i64, align 8
  %offset.addr.i158 = alloca i32, align 4
  %addr.i159 = alloca i64, align 8
  %heap_object_ptr.addr.i154 = alloca i64, align 8
  %offset.addr.i155 = alloca i32, align 4
  %addr.i = alloca i64, align 8
  %heap_object_ptr.addr.i = alloca i64, align 8
  %offset.addr.i = alloca i32, align 4
  %obj.addr.i150 = alloca i64, align 8
  %obj.addr.i = alloca i64, align 8
  %map.i = alloca i64, align 8
  %value.addr.i148 = alloca i64, align 8
  %value.addr.i = alloca ptr, align 8
  %retval.i145 = alloca i1, align 1
  %this.addr.i146 = alloca ptr, align 8
  %obj.i = alloca i64, align 8
  %this.addr.i.i141 = alloca ptr, align 8
  %this.addr.i142 = alloca ptr, align 8
  %this.addr.i138 = alloca ptr, align 8
  %other.addr.i139 = alloca ptr, align 8
  %this.addr.i136 = alloca ptr, align 8
  %other.addr.i = alloca ptr, align 8
  %this.addr.i.i132 = alloca ptr, align 8
  %this.addr.i133 = alloca ptr, align 8
  %this.addr.i129 = alloca ptr, align 8
  %retval.i124 = alloca %"class.v8::Local.494", align 8
  %this.addr.i125 = alloca ptr, align 8
  %agg.tmp.i126 = alloca %"class.v8::Local", align 8
  %this.addr.i121 = alloca ptr, align 8
  %retval.i = alloca %"class.v8::Local.524", align 8
  %this.addr.i118 = alloca ptr, align 8
  %agg.tmp.i = alloca %"class.v8::Local", align 8
  %this.addr.i115 = alloca ptr, align 8
  %this.addr.i113 = alloca ptr, align 8
  %out.addr.i = alloca ptr, align 8
  %that.i110 = alloca %"class.v8::Local.13", align 8
  %this.addr.i111 = alloca ptr, align 8
  %that.i = alloca %"class.v8::Local.13", align 8
  %this.addr.i109 = alloca ptr, align 8
  %this.addr.i107 = alloca ptr, align 8
  %slot.addr.i106 = alloca ptr, align 8
  %slot.addr.i105 = alloca ptr, align 8
  %slot.addr.i104 = alloca ptr, align 8
  %slot.addr.i103 = alloca ptr, align 8
  %this.addr.i.i98 = alloca ptr, align 8
  %this.addr.i99 = alloca ptr, align 8
  %this.addr.i.i93 = alloca ptr, align 8
  %this.addr.i94 = alloca ptr, align 8
  %this.addr.i.i88 = alloca ptr, align 8
  %this.addr.i89 = alloca ptr, align 8
  %this.addr.i.i = alloca ptr, align 8
  %this.addr.i86 = alloca ptr, align 8
  %this.addr.i84 = alloca ptr, align 8
  %slot.addr.i = alloca ptr, align 8
  %this.addr.i81 = alloca ptr, align 8
  %this.addr.i78 = alloca ptr, align 8
  %this.addr.i75 = alloca ptr, align 8
  %this.addr.i72 = alloca ptr, align 8
  %this.addr.i69 = alloca ptr, align 8
  %this.addr.i = alloca ptr, align 8
  %retval = alloca i1, align 1
  %env.addr = alloca ptr, align 8
  %options.addr = alloca ptr, align 8
  %object.addr = alloca ptr, align 8
  %name.addr = alloca ptr, align 8
  %value = alloca %"class.v8::Local", align 8
  %ref.tmp = alloca %"class.v8::MaybeLocal.523", align 8
  %agg.tmp = alloca %"class.v8::Local.492", align 8
  %agg.tmp4 = alloca %"class.v8::Local", align 8
  %agg.tmp5 = alloca %"class.v8::Local.13", align 8
  %val = alloca i64, align 8
  %lossless = alloca i8, align 1
  %ref.tmp38 = alloca %"class.v8::Local.524", align 8
  %label = alloca %"class.node::Utf8Value", align 8
  %agg.tmp47 = alloca %"class.v8::Local", align 8
  %agg.tmp48 = alloca %"class.v8::Local.13", align 8
  %ref.tmp55 = alloca %"class.std::__cxx11::basic_string", align 8
  %ref.tmp56 = alloca %"class.std::__cxx11::basic_string", align 8
  %ref.tmp57 = alloca %"class.std::__cxx11::basic_string", align 8
  %ref.tmp60 = alloca %"class.v8::Local.494", align 8
  store ptr %env, ptr %env.addr, align 8
  store ptr %options, ptr %options.addr, align 8
  store ptr %object, ptr %object.addr, align 8
  store ptr %name, ptr %name.addr, align 8
  store ptr %value, ptr %this.addr.i107, align 8
  %this1.i108 = load ptr, ptr %this.addr.i107, align 8
  store ptr %this1.i108, ptr %this.addr.i133, align 8
  %this1.i134 = load ptr, ptr %this.addr.i133, align 8
  store ptr %this1.i134, ptr %this.addr.i.i132, align 8
  %this1.i.i135 = load ptr, ptr %this.addr.i.i132, align 8
  store ptr null, ptr %this1.i.i135, align 8
  %0 = load ptr, ptr %object.addr, align 8
  store ptr %0, ptr %this.addr.i78, align 8
  %this1.i79 = load ptr, ptr %this.addr.i78, align 8
  store ptr %this1.i79, ptr %this.addr.i81, align 8
  %this1.i82 = load ptr, ptr %this.addr.i81, align 8
  store ptr %this1.i82, ptr %this.addr.i84, align 8
  %this1.i85 = load ptr, ptr %this.addr.i84, align 8
  %1 = load ptr, ptr %this1.i85, align 8
  store ptr %1, ptr %slot.addr.i, align 8
  %2 = load ptr, ptr %slot.addr.i, align 8
  %3 = load ptr, ptr %env.addr, align 8
  %call1 = call ptr @_ZNK4node11Environment7contextEv(ptr noundef nonnull align 8 dereferenceable(2872) %3)
  %coerce.dive = getelementptr inbounds %"class.v8::Local.492", ptr %agg.tmp, i32 0, i32 0
  %coerce.dive2 = getelementptr inbounds %"class.v8::LocalBase.493", ptr %coerce.dive, i32 0, i32 0
  %coerce.dive3 = getelementptr inbounds %"class.v8::IndirectHandleBase", ptr %coerce.dive2, i32 0, i32 0
  store ptr %call1, ptr %coerce.dive3, align 8
  %4 = load ptr, ptr %name.addr, align 8
  call void @llvm.memcpy.p0.p0.i64(ptr align 8 %agg.tmp5, ptr align 8 %4, i64 8, i1 false)
  %coerce.dive6 = getelementptr inbounds %"class.v8::Local.13", ptr %agg.tmp5, i32 0, i32 0
  %coerce.dive7 = getelementptr inbounds %"class.v8::LocalBase.14", ptr %coerce.dive6, i32 0, i32 0
  %coerce.dive8 = getelementptr inbounds %"class.v8::IndirectHandleBase", ptr %coerce.dive7, i32 0, i32 0
  %5 = load ptr, ptr %coerce.dive8, align 8
  store ptr %5, ptr %that.i, align 8
  store ptr %agg.tmp4, ptr %this.addr.i109, align 8
  %this3.i = load ptr, ptr %this.addr.i109, align 8
  store ptr %this3.i, ptr %this.addr.i138, align 8
  store ptr %that.i, ptr %other.addr.i139, align 8
  %this1.i140 = load ptr, ptr %this.addr.i138, align 8
  %6 = load ptr, ptr %other.addr.i139, align 8
  call void @llvm.memcpy.p0.p0.i64(ptr align 8 %this1.i140, ptr align 8 %6, i64 8, i1 false)
  %coerce.dive9 = getelementptr inbounds %"class.v8::Local.492", ptr %agg.tmp, i32 0, i32 0
  %coerce.dive10 = getelementptr inbounds %"class.v8::LocalBase.493", ptr %coerce.dive9, i32 0, i32 0
  %coerce.dive11 = getelementptr inbounds %"class.v8::IndirectHandleBase", ptr %coerce.dive10, i32 0, i32 0
  %7 = load ptr, ptr %coerce.dive11, align 8
  %coerce.dive12 = getelementptr inbounds %"class.v8::Local", ptr %agg.tmp4, i32 0, i32 0
  %coerce.dive13 = getelementptr inbounds %"class.v8::LocalBase", ptr %coerce.dive12, i32 0, i32 0
  %coerce.dive14 = getelementptr inbounds %"class.v8::IndirectHandleBase", ptr %coerce.dive13, i32 0, i32 0
  %8 = load ptr, ptr %coerce.dive14, align 8
  %call15 = call ptr @_ZN2v86Object3GetENS_5LocalINS_7ContextEEENS1_INS_5ValueEEE(ptr noundef nonnull align 1 dereferenceable(1) %2, ptr %7, ptr %8)
  %coerce.dive16 = getelementptr inbounds %"class.v8::MaybeLocal.523", ptr %ref.tmp, i32 0, i32 0
  %coerce.dive17 = getelementptr inbounds %"class.v8::Local", ptr %coerce.dive16, i32 0, i32 0
  %coerce.dive18 = getelementptr inbounds %"class.v8::LocalBase", ptr %coerce.dive17, i32 0, i32 0
  %coerce.dive19 = getelementptr inbounds %"class.v8::IndirectHandleBase", ptr %coerce.dive18, i32 0, i32 0
  store ptr %call15, ptr %coerce.dive19, align 8
  store ptr %ref.tmp, ptr %this.addr.i113, align 8
  store ptr %value, ptr %out.addr.i, align 8
  %this1.i114 = load ptr, ptr %this.addr.i113, align 8
  %9 = load ptr, ptr %out.addr.i, align 8
  call void @llvm.memcpy.p0.p0.i64(ptr align 8 %9, ptr align 8 %this1.i114, i64 8, i1 false)
  store ptr %this1.i114, ptr %this.addr.i142, align 8
  %this1.i143 = load ptr, ptr %this.addr.i142, align 8
  store ptr %this1.i143, ptr %this.addr.i.i141, align 8
  %this1.i.i144 = load ptr, ptr %this.addr.i.i141, align 8
  %10 = load ptr, ptr %this1.i.i144, align 8
  %cmp.i.i = icmp eq ptr %10, null
  %lnot.i = xor i1 %cmp.i.i, true
  %lnot = xor i1 %lnot.i, true
  br i1 %lnot, label %if.then, label %if.end

if.then:                                          ; preds = %entry
  store i1 false, ptr %retval, align 1
  br label %return

if.end:                                           ; preds = %entry
  store ptr %value, ptr %this.addr.i75, align 8
  %this1.i76 = load ptr, ptr %this.addr.i75, align 8
  store ptr %this1.i76, ptr %this.addr.i86, align 8
  %this1.i87 = load ptr, ptr %this.addr.i86, align 8
  store ptr %this1.i87, ptr %this.addr.i.i, align 8
  %this1.i.i = load ptr, ptr %this.addr.i.i, align 8
  %11 = load ptr, ptr %this1.i.i, align 8
  store ptr %11, ptr %slot.addr.i106, align 8
  %12 = load ptr, ptr %slot.addr.i106, align 8
  store ptr %12, ptr %this.addr.i115, align 8
  %this1.i116 = load ptr, ptr %this.addr.i115, align 8
  store ptr %this1.i116, ptr %this.addr.i146, align 8
  %this1.i147 = load ptr, ptr %this.addr.i146, align 8
  store ptr %this1.i147, ptr %value.addr.i, align 8
  %13 = load ptr, ptr %value.addr.i, align 8
  %14 = load i64, ptr %13, align 8
  store i64 %14, ptr %obj.i, align 8
  %15 = load i64, ptr %obj.i, align 8
  store i64 %15, ptr %value.addr.i148, align 8
  %16 = load i64, ptr %value.addr.i148, align 8
  %and.i = and i64 %16, 3
  %cmp.i149 = icmp eq i64 %and.i, 1
  br i1 %cmp.i149, label %if.end.i, label %if.then.i

if.then.i:                                        ; preds = %if.end
  store i1 false, ptr %retval.i145, align 1
  br label %_ZNK2v85Value16QuickIsUndefinedEv.exit

if.end.i:                                         ; preds = %if.end
  %17 = load i64, ptr %obj.i, align 8
  store i64 %17, ptr %obj.addr.i, align 8
  %18 = load i64, ptr %obj.addr.i, align 8
  store i64 %18, ptr %heap_object_ptr.addr.i, align 8
  store i32 0, ptr %offset.addr.i, align 4
  %19 = load i64, ptr %heap_object_ptr.addr.i, align 8
  %20 = load i32, ptr %offset.addr.i, align 4
  store i64 %19, ptr %heap_object_ptr.addr.i157, align 8
  store i32 %20, ptr %offset.addr.i158, align 4
  %21 = load i64, ptr %heap_object_ptr.addr.i157, align 8
  %22 = load i32, ptr %offset.addr.i158, align 4
  %conv.i160 = sext i32 %22 to i64
  %add.i161 = add i64 %21, %conv.i160
  %sub.i162 = sub i64 %add.i161, 1
  store i64 %sub.i162, ptr %addr.i159, align 8
  %23 = load i64, ptr %addr.i159, align 8
  %24 = inttoptr i64 %23 to ptr
  %25 = load i64, ptr %24, align 8
  store i64 %25, ptr %map.i, align 8
  %26 = load i64, ptr %map.i, align 8
  store i64 %26, ptr %heap_object_ptr.addr.i154, align 8
  store i32 12, ptr %offset.addr.i155, align 4
  %27 = load i64, ptr %heap_object_ptr.addr.i154, align 8
  %28 = load i32, ptr %offset.addr.i155, align 4
  %conv.i156 = sext i32 %28 to i64
  %add.i = add i64 %27, %conv.i156
  %sub.i = sub i64 %add.i, 1
  store i64 %sub.i, ptr %addr.i, align 8
  %29 = load i64, ptr %addr.i, align 8
  %30 = inttoptr i64 %29 to ptr
  %31 = load i16, ptr %30, align 2
  %conv.i = zext i16 %31 to i32
  %cmp.i = icmp ne i32 %conv.i, 131
  br i1 %cmp.i, label %if.then4.i, label %if.end5.i

if.then4.i:                                       ; preds = %if.end.i
  store i1 false, ptr %retval.i145, align 1
  br label %_ZNK2v85Value16QuickIsUndefinedEv.exit

if.end5.i:                                        ; preds = %if.end.i
  %32 = load i64, ptr %obj.i, align 8
  store i64 %32, ptr %obj.addr.i150, align 8
  %33 = load i64, ptr %obj.addr.i150, align 8
  store i64 %33, ptr %heap_object_ptr.addr.i164, align 8
  store i32 40, ptr %offset.addr.i165, align 4
  %34 = load i64, ptr %heap_object_ptr.addr.i164, align 8
  %35 = load i32, ptr %offset.addr.i165, align 4
  store i64 %34, ptr %heap_object_ptr.addr.i.i, align 8
  store i32 %35, ptr %offset.addr.i.i, align 4
  %36 = load i64, ptr %heap_object_ptr.addr.i.i, align 8
  %37 = load i32, ptr %offset.addr.i.i, align 4
  %conv.i.i = sext i32 %37 to i64
  %add.i.i = add i64 %36, %conv.i.i
  %sub.i.i = sub i64 %add.i.i, 1
  store i64 %sub.i.i, ptr %addr.i.i, align 8
  %38 = load i64, ptr %addr.i.i, align 8
  %39 = inttoptr i64 %38 to ptr
  %40 = load i64, ptr %39, align 8
  store i64 %40, ptr %value.addr.i163, align 8
  %41 = load i64, ptr %value.addr.i163, align 8
  store i64 %41, ptr %value.addr.i166, align 8
  store i32 32, ptr %shift_bits.i, align 4
  %42 = load i64, ptr %value.addr.i166, align 8
  %43 = load i32, ptr %shift_bits.i, align 4
  %sh_prom.i = zext i32 %43 to i64
  %shr.i = ashr i64 %42, %sh_prom.i
  %conv.i167 = trunc i64 %shr.i to i32
  %cmp7.i = icmp eq i32 %conv.i167, 5
  store i1 %cmp7.i, ptr %retval.i145, align 1
  br label %_ZNK2v85Value16QuickIsUndefinedEv.exit

_ZNK2v85Value16QuickIsUndefinedEv.exit:           ; preds = %if.end5.i, %if.then4.i, %if.then.i
  %44 = load i1, ptr %retval.i145, align 1
  br i1 %44, label %if.end68, label %if.then23

if.then23:                                        ; preds = %_ZNK2v85Value16QuickIsUndefinedEv.exit
  br label %do.body

do.body:                                          ; preds = %if.then23
  store ptr %value, ptr %this.addr.i72, align 8
  %this1.i73 = load ptr, ptr %this.addr.i72, align 8
  store ptr %this1.i73, ptr %this.addr.i89, align 8
  %this1.i90 = load ptr, ptr %this.addr.i89, align 8
  store ptr %this1.i90, ptr %this.addr.i.i88, align 8
  %this1.i.i91 = load ptr, ptr %this.addr.i.i88, align 8
  %45 = load ptr, ptr %this1.i.i91, align 8
  store ptr %45, ptr %slot.addr.i105, align 8
  %46 = load ptr, ptr %slot.addr.i105, align 8
  %call25 = call noundef zeroext i1 @_ZNK2v85Value8IsBigIntEv(ptr noundef nonnull align 1 dereferenceable(1) %46)
  br i1 %call25, label %lor.end, label %lor.rhs

lor.rhs:                                          ; preds = %do.body
  store ptr %value, ptr %this.addr.i69, align 8
  %this1.i70 = load ptr, ptr %this.addr.i69, align 8
  store ptr %this1.i70, ptr %this.addr.i94, align 8
  %this1.i95 = load ptr, ptr %this.addr.i94, align 8
  store ptr %this1.i95, ptr %this.addr.i.i93, align 8
  %this1.i.i96 = load ptr, ptr %this.addr.i.i93, align 8
  %47 = load ptr, ptr %this1.i.i96, align 8
  store ptr %47, ptr %slot.addr.i104, align 8
  %48 = load ptr, ptr %slot.addr.i104, align 8
  %call27 = call noundef zeroext i1 @_ZNK2v85Value8IsNumberEv(ptr noundef nonnull align 1 dereferenceable(1) %48)
  br label %lor.end

lor.end:                                          ; preds = %lor.rhs, %do.body
  %49 = phi i1 [ true, %do.body ], [ %call27, %lor.rhs ]
  %lnot28 = xor i1 %49, true
  %lnot29 = xor i1 %lnot28, true
  %lnot30 = xor i1 %lnot29, true
  br i1 %lnot30, label %if.then31, label %if.end33

if.then31:                                        ; preds = %lor.end
  br label %do.body32

do.body32:                                        ; preds = %if.then31
  call void @_ZN4node6AssertERKNS_13AssertionInfoE(ptr noundef nonnull align 8 dereferenceable(24) @_ZZN4node4quic9SetOptionINS0_15TransportParams7OptionsETnMT_mXadL_ZNS3_34initial_max_stream_data_bidi_localEEEEEbPNS_11EnvironmentEPS4_RKN2v85LocalINS9_6ObjectEEERKNSA_INS9_6StringEEEE4args)
  call void @abort() #16
  unreachable

do.end:                                           ; No predecessors!
  br label %if.end33

if.end33:                                         ; preds = %do.end, %lor.end
  br label %do.end34

do.end34:                                         ; preds = %if.end33
  store i64 0, ptr %val, align 8
  store ptr %value, ptr %this.addr.i, align 8
  %this1.i = load ptr, ptr %this.addr.i, align 8
  store ptr %this1.i, ptr %this.addr.i99, align 8
  %this1.i100 = load ptr, ptr %this.addr.i99, align 8
  store ptr %this1.i100, ptr %this.addr.i.i98, align 8
  %this1.i.i101 = load ptr, ptr %this.addr.i.i98, align 8
  %50 = load ptr, ptr %this1.i.i101, align 8
  store ptr %50, ptr %slot.addr.i103, align 8
  %51 = load ptr, ptr %slot.addr.i103, align 8
  %call36 = call noundef zeroext i1 @_ZNK2v85Value8IsBigIntEv(ptr noundef nonnull align 1 dereferenceable(1) %51)
  br i1 %call36, label %if.then37, label %if.else

if.then37:                                        ; preds = %do.end34
  store i8 1, ptr %lossless, align 1
  store ptr %value, ptr %this.addr.i118, align 8
  %this1.i119 = load ptr, ptr %this.addr.i118, align 8
  call void @llvm.memcpy.p0.p0.i64(ptr align 8 %agg.tmp.i, ptr align 8 %this1.i119, i64 8, i1 false)
  %52 = load ptr, ptr %agg.tmp.i, align 8
  store ptr %52, ptr %that.i169, align 8
  store ptr %ref.tmp.i, ptr %this.addr.i170, align 8
  store ptr %that.i169, ptr %other.addr.i171, align 8
  %this1.i172 = load ptr, ptr %this.addr.i170, align 8
  %53 = load ptr, ptr %other.addr.i171, align 8
  call void @llvm.memcpy.p0.p0.i64(ptr align 8 %this1.i172, ptr align 8 %53, i64 8, i1 false)
  store ptr %retval.i168, ptr %this.addr.i173, align 8
  store ptr %ref.tmp.i, ptr %other.addr.i174, align 8
  %this1.i175 = load ptr, ptr %this.addr.i173, align 8
  %54 = load ptr, ptr %other.addr.i174, align 8
  call void @llvm.memcpy.p0.p0.i64(ptr align 8 %this1.i175, ptr align 8 %54, i64 8, i1 false)
  %55 = load ptr, ptr %retval.i168, align 8
  store ptr %55, ptr %retval.i, align 8
  %56 = load ptr, ptr %retval.i, align 8
  %coerce.dive40 = getelementptr inbounds %"class.v8::Local.524", ptr %ref.tmp38, i32 0, i32 0
  %coerce.dive41 = getelementptr inbounds %"class.v8::LocalBase.525", ptr %coerce.dive40, i32 0, i32 0
  %coerce.dive42 = getelementptr inbounds %"class.v8::IndirectHandleBase", ptr %coerce.dive41, i32 0, i32 0
  store ptr %56, ptr %coerce.dive42, align 8
  store ptr %ref.tmp38, ptr %this.addr.i121, align 8
  %this1.i122 = load ptr, ptr %this.addr.i121, align 8
  store ptr %this1.i122, ptr %this.addr.i177, align 8
  %this1.i178 = load ptr, ptr %this.addr.i177, align 8
  store ptr %this1.i178, ptr %this.addr.i.i176, align 8
  %this1.i.i179 = load ptr, ptr %this.addr.i.i176, align 8
  %57 = load ptr, ptr %this1.i.i179, align 8
  store ptr %57, ptr %slot.addr.i180, align 8
  %58 = load ptr, ptr %slot.addr.i180, align 8
  %call44 = call noundef i64 @_ZNK2v86BigInt11Uint64ValueEPb(ptr noundef nonnull align 1 dereferenceable(1) %58, ptr noundef %lossless)
  store i64 %call44, ptr %val, align 8
  %59 = load i8, ptr %lossless, align 1
  %tobool = trunc i8 %59 to i1
  br i1 %tobool, label %if.end59, label %if.then45

if.then45:                                        ; preds = %if.then37
  %60 = load ptr, ptr %env.addr, align 8
  %call46 = call noundef ptr @_ZNK4node11Environment7isolateEv(ptr noundef nonnull align 8 dereferenceable(2872) %60)
  %61 = load ptr, ptr %name.addr, align 8
  call void @llvm.memcpy.p0.p0.i64(ptr align 8 %agg.tmp48, ptr align 8 %61, i64 8, i1 false)
  %coerce.dive49 = getelementptr inbounds %"class.v8::Local.13", ptr %agg.tmp48, i32 0, i32 0
  %coerce.dive50 = getelementptr inbounds %"class.v8::LocalBase.14", ptr %coerce.dive49, i32 0, i32 0
  %coerce.dive51 = getelementptr inbounds %"class.v8::IndirectHandleBase", ptr %coerce.dive50, i32 0, i32 0
  %62 = load ptr, ptr %coerce.dive51, align 8
  store ptr %62, ptr %that.i110, align 8
  store ptr %agg.tmp47, ptr %this.addr.i111, align 8
  %this3.i112 = load ptr, ptr %this.addr.i111, align 8
  store ptr %this3.i112, ptr %this.addr.i136, align 8
  store ptr %that.i110, ptr %other.addr.i, align 8
  %this1.i137 = load ptr, ptr %this.addr.i136, align 8
  %63 = load ptr, ptr %other.addr.i, align 8
  call void @llvm.memcpy.p0.p0.i64(ptr align 8 %this1.i137, ptr align 8 %63, i64 8, i1 false)
  %coerce.dive52 = getelementptr inbounds %"class.v8::Local", ptr %agg.tmp47, i32 0, i32 0
  %coerce.dive53 = getelementptr inbounds %"class.v8::LocalBase", ptr %coerce.dive52, i32 0, i32 0
  %coerce.dive54 = getelementptr inbounds %"class.v8::IndirectHandleBase", ptr %coerce.dive53, i32 0, i32 0
  %64 = load ptr, ptr %coerce.dive54, align 8
  call void @_ZN4node9Utf8ValueC1EPN2v87IsolateENS1_5LocalINS1_5ValueEEE(ptr noundef nonnull align 8 dereferenceable(1048) %label, ptr noundef %call46, ptr %64)
  %65 = load ptr, ptr %env.addr, align 8
  call void @_ZNK4node9Utf8Value8ToStringB5cxx11Ev(ptr sret(%"class.std::__cxx11::basic_string") align 8 %ref.tmp57, ptr noundef nonnull align 8 dereferenceable(1048) %label)
  call void @_ZStplIcSt11char_traitsIcESaIcEENSt7__cxx1112basic_stringIT_T0_T1_EEPKS5_OS8_(ptr sret(%"class.std::__cxx11::basic_string") align 8 %ref.tmp56, ptr noundef @.str.35, ptr noundef nonnull align 8 dereferenceable(32) %ref.tmp57)
  call void @_ZStplIcSt11char_traitsIcESaIcEENSt7__cxx1112basic_stringIT_T0_T1_EEOS8_PKS5_(ptr sret(%"class.std::__cxx11::basic_string") align 8 %ref.tmp55, ptr noundef nonnull align 8 dereferenceable(32) %ref.tmp56, ptr noundef @.str.36)
  %call58 = call noundef ptr @_ZNKSt7__cxx1112basic_stringIcSt11char_traitsIcESaIcEE5c_strEv(ptr noundef nonnull align 8 dereferenceable(32) %ref.tmp55) #3
  call void @_ZN4node22THROW_ERR_OUT_OF_RANGEIJEEEvPNS_11EnvironmentEPKcDpOT_(ptr noundef %65, ptr noundef %call58)
  call void @_ZNSt7__cxx1112basic_stringIcSt11char_traitsIcESaIcEED1Ev(ptr noundef nonnull align 8 dereferenceable(32) %ref.tmp55) #3
  call void @_ZNSt7__cxx1112basic_stringIcSt11char_traitsIcESaIcEED1Ev(ptr noundef nonnull align 8 dereferenceable(32) %ref.tmp56) #3
  call void @_ZNSt7__cxx1112basic_stringIcSt11char_traitsIcESaIcEED1Ev(ptr noundef nonnull align 8 dereferenceable(32) %ref.tmp57) #3
  store i1 false, ptr %retval, align 1
  call void @_ZN4node9Utf8ValueD2Ev(ptr noundef nonnull align 8 dereferenceable(1048) %label) #3
  br label %return

if.end59:                                         ; preds = %if.then37
  br label %if.end67

if.else:                                          ; preds = %do.end34
  store ptr %value, ptr %this.addr.i125, align 8
  %this1.i127 = load ptr, ptr %this.addr.i125, align 8
  call void @llvm.memcpy.p0.p0.i64(ptr align 8 %agg.tmp.i126, ptr align 8 %this1.i127, i64 8, i1 false)
  %66 = load ptr, ptr %agg.tmp.i126, align 8
  store ptr %66, ptr %that.i182, align 8
  store ptr %ref.tmp.i183, ptr %this.addr.i184, align 8
  store ptr %that.i182, ptr %other.addr.i185, align 8
  %this1.i186 = load ptr, ptr %this.addr.i184, align 8
  %67 = load ptr, ptr %other.addr.i185, align 8
  call void @llvm.memcpy.p0.p0.i64(ptr align 8 %this1.i186, ptr align 8 %67, i64 8, i1 false)
  store ptr %retval.i181, ptr %this.addr.i187, align 8
  store ptr %ref.tmp.i183, ptr %other.addr.i188, align 8
  %this1.i189 = load ptr, ptr %this.addr.i187, align 8
  %68 = load ptr, ptr %other.addr.i188, align 8
  call void @llvm.memcpy.p0.p0.i64(ptr align 8 %this1.i189, ptr align 8 %68, i64 8, i1 false)
  %69 = load ptr, ptr %retval.i181, align 8
  store ptr %69, ptr %retval.i124, align 8
  %70 = load ptr, ptr %retval.i124, align 8
  %coerce.dive62 = getelementptr inbounds %"class.v8::Local.494", ptr %ref.tmp60, i32 0, i32 0
  %coerce.dive63 = getelementptr inbounds %"class.v8::LocalBase.495", ptr %coerce.dive62, i32 0, i32 0
  %coerce.dive64 = getelementptr inbounds %"class.v8::IndirectHandleBase", ptr %coerce.dive63, i32 0, i32 0
  store ptr %70, ptr %coerce.dive64, align 8
  store ptr %ref.tmp60, ptr %this.addr.i129, align 8
  %this1.i130 = load ptr, ptr %this.addr.i129, align 8
  store ptr %this1.i130, ptr %this.addr.i191, align 8
  %this1.i192 = load ptr, ptr %this.addr.i191, align 8
  store ptr %this1.i192, ptr %this.addr.i.i190, align 8
  %this1.i.i193 = load ptr, ptr %this.addr.i.i190, align 8
  %71 = load ptr, ptr %this1.i.i193, align 8
  store ptr %71, ptr %slot.addr.i194, align 8
  %72 = load ptr, ptr %slot.addr.i194, align 8
  %call66 = call noundef double @_ZNK2v86Number5ValueEv(ptr noundef nonnull align 1 dereferenceable(1) %72)
  %conv = fptosi double %call66 to i64
  store i64 %conv, ptr %val, align 8
  br label %if.end67

if.end67:                                         ; preds = %if.else, %if.end59
  %73 = load i64, ptr %val, align 8
  %74 = load ptr, ptr %options.addr, align 8
  %memptr.offset = getelementptr inbounds i8, ptr %74, i64 296
  store i64 %73, ptr %memptr.offset, align 8
  br label %if.end68

if.end68:                                         ; preds = %if.end67, %_ZNK2v85Value16QuickIsUndefinedEv.exit
  store i1 true, ptr %retval, align 1
  br label %return

return:                                           ; preds = %if.end68, %if.then45, %if.then
  %75 = load i1, ptr %retval, align 1
  ret i1 %75
}

declare ptr @_ZNK4node4quic11BindingData41initial_max_stream_data_bidi_local_stringEv(ptr noundef nonnull align 8 dereferenceable(992)) #1

; Function Attrs: mustprogress nounwind uwtable
define linkonce_odr dso_local noundef zeroext i1 @_ZN4node4quic9SetOptionINS0_15TransportParams7OptionsETnMT_mXadL_ZNS3_35initial_max_stream_data_bidi_remoteEEEEEbPNS_11EnvironmentEPS4_RKN2v85LocalINS9_6ObjectEEERKNSA_INS9_6StringEEE(ptr noundef %env, ptr noundef %options, ptr noundef nonnull align 8 dereferenceable(8) %object, ptr noundef nonnull align 8 dereferenceable(8) %name) #4 comdat {
entry:
  %slot.addr.i194 = alloca ptr, align 8
  %this.addr.i.i190 = alloca ptr, align 8
  %this.addr.i191 = alloca ptr, align 8
  %this.addr.i187 = alloca ptr, align 8
  %other.addr.i188 = alloca ptr, align 8
  %this.addr.i184 = alloca ptr, align 8
  %other.addr.i185 = alloca ptr, align 8
  %retval.i181 = alloca %"class.v8::Local.494", align 8
  %that.i182 = alloca %"class.v8::Local", align 8
  %ref.tmp.i183 = alloca %"class.v8::LocalBase.495", align 8
  %slot.addr.i180 = alloca ptr, align 8
  %this.addr.i.i176 = alloca ptr, align 8
  %this.addr.i177 = alloca ptr, align 8
  %this.addr.i173 = alloca ptr, align 8
  %other.addr.i174 = alloca ptr, align 8
  %this.addr.i170 = alloca ptr, align 8
  %other.addr.i171 = alloca ptr, align 8
  %retval.i168 = alloca %"class.v8::Local.524", align 8
  %that.i169 = alloca %"class.v8::Local", align 8
  %ref.tmp.i = alloca %"class.v8::LocalBase.525", align 8
  %value.addr.i166 = alloca i64, align 8
  %shift_bits.i = alloca i32, align 4
  %heap_object_ptr.addr.i.i = alloca i64, align 8
  %offset.addr.i.i = alloca i32, align 4
  %addr.i.i = alloca i64, align 8
  %heap_object_ptr.addr.i164 = alloca i64, align 8
  %offset.addr.i165 = alloca i32, align 4
  %value.addr.i163 = alloca i64, align 8
  %heap_object_ptr.addr.i157 = alloca i64, align 8
  %offset.addr.i158 = alloca i32, align 4
  %addr.i159 = alloca i64, align 8
  %heap_object_ptr.addr.i154 = alloca i64, align 8
  %offset.addr.i155 = alloca i32, align 4
  %addr.i = alloca i64, align 8
  %heap_object_ptr.addr.i = alloca i64, align 8
  %offset.addr.i = alloca i32, align 4
  %obj.addr.i150 = alloca i64, align 8
  %obj.addr.i = alloca i64, align 8
  %map.i = alloca i64, align 8
  %value.addr.i148 = alloca i64, align 8
  %value.addr.i = alloca ptr, align 8
  %retval.i145 = alloca i1, align 1
  %this.addr.i146 = alloca ptr, align 8
  %obj.i = alloca i64, align 8
  %this.addr.i.i141 = alloca ptr, align 8
  %this.addr.i142 = alloca ptr, align 8
  %this.addr.i138 = alloca ptr, align 8
  %other.addr.i139 = alloca ptr, align 8
  %this.addr.i136 = alloca ptr, align 8
  %other.addr.i = alloca ptr, align 8
  %this.addr.i.i132 = alloca ptr, align 8
  %this.addr.i133 = alloca ptr, align 8
  %this.addr.i129 = alloca ptr, align 8
  %retval.i124 = alloca %"class.v8::Local.494", align 8
  %this.addr.i125 = alloca ptr, align 8
  %agg.tmp.i126 = alloca %"class.v8::Local", align 8
  %this.addr.i121 = alloca ptr, align 8
  %retval.i = alloca %"class.v8::Local.524", align 8
  %this.addr.i118 = alloca ptr, align 8
  %agg.tmp.i = alloca %"class.v8::Local", align 8
  %this.addr.i115 = alloca ptr, align 8
  %this.addr.i113 = alloca ptr, align 8
  %out.addr.i = alloca ptr, align 8
  %that.i110 = alloca %"class.v8::Local.13", align 8
  %this.addr.i111 = alloca ptr, align 8
  %that.i = alloca %"class.v8::Local.13", align 8
  %this.addr.i109 = alloca ptr, align 8
  %this.addr.i107 = alloca ptr, align 8
  %slot.addr.i106 = alloca ptr, align 8
  %slot.addr.i105 = alloca ptr, align 8
  %slot.addr.i104 = alloca ptr, align 8
  %slot.addr.i103 = alloca ptr, align 8
  %this.addr.i.i98 = alloca ptr, align 8
  %this.addr.i99 = alloca ptr, align 8
  %this.addr.i.i93 = alloca ptr, align 8
  %this.addr.i94 = alloca ptr, align 8
  %this.addr.i.i88 = alloca ptr, align 8
  %this.addr.i89 = alloca ptr, align 8
  %this.addr.i.i = alloca ptr, align 8
  %this.addr.i86 = alloca ptr, align 8
  %this.addr.i84 = alloca ptr, align 8
  %slot.addr.i = alloca ptr, align 8
  %this.addr.i81 = alloca ptr, align 8
  %this.addr.i78 = alloca ptr, align 8
  %this.addr.i75 = alloca ptr, align 8
  %this.addr.i72 = alloca ptr, align 8
  %this.addr.i69 = alloca ptr, align 8
  %this.addr.i = alloca ptr, align 8
  %retval = alloca i1, align 1
  %env.addr = alloca ptr, align 8
  %options.addr = alloca ptr, align 8
  %object.addr = alloca ptr, align 8
  %name.addr = alloca ptr, align 8
  %value = alloca %"class.v8::Local", align 8
  %ref.tmp = alloca %"class.v8::MaybeLocal.523", align 8
  %agg.tmp = alloca %"class.v8::Local.492", align 8
  %agg.tmp4 = alloca %"class.v8::Local", align 8
  %agg.tmp5 = alloca %"class.v8::Local.13", align 8
  %val = alloca i64, align 8
  %lossless = alloca i8, align 1
  %ref.tmp38 = alloca %"class.v8::Local.524", align 8
  %label = alloca %"class.node::Utf8Value", align 8
  %agg.tmp47 = alloca %"class.v8::Local", align 8
  %agg.tmp48 = alloca %"class.v8::Local.13", align 8
  %ref.tmp55 = alloca %"class.std::__cxx11::basic_string", align 8
  %ref.tmp56 = alloca %"class.std::__cxx11::basic_string", align 8
  %ref.tmp57 = alloca %"class.std::__cxx11::basic_string", align 8
  %ref.tmp60 = alloca %"class.v8::Local.494", align 8
  store ptr %env, ptr %env.addr, align 8
  store ptr %options, ptr %options.addr, align 8
  store ptr %object, ptr %object.addr, align 8
  store ptr %name, ptr %name.addr, align 8
  store ptr %value, ptr %this.addr.i107, align 8
  %this1.i108 = load ptr, ptr %this.addr.i107, align 8
  store ptr %this1.i108, ptr %this.addr.i133, align 8
  %this1.i134 = load ptr, ptr %this.addr.i133, align 8
  store ptr %this1.i134, ptr %this.addr.i.i132, align 8
  %this1.i.i135 = load ptr, ptr %this.addr.i.i132, align 8
  store ptr null, ptr %this1.i.i135, align 8
  %0 = load ptr, ptr %object.addr, align 8
  store ptr %0, ptr %this.addr.i78, align 8
  %this1.i79 = load ptr, ptr %this.addr.i78, align 8
  store ptr %this1.i79, ptr %this.addr.i81, align 8
  %this1.i82 = load ptr, ptr %this.addr.i81, align 8
  store ptr %this1.i82, ptr %this.addr.i84, align 8
  %this1.i85 = load ptr, ptr %this.addr.i84, align 8
  %1 = load ptr, ptr %this1.i85, align 8
  store ptr %1, ptr %slot.addr.i, align 8
  %2 = load ptr, ptr %slot.addr.i, align 8
  %3 = load ptr, ptr %env.addr, align 8
  %call1 = call ptr @_ZNK4node11Environment7contextEv(ptr noundef nonnull align 8 dereferenceable(2872) %3)
  %coerce.dive = getelementptr inbounds %"class.v8::Local.492", ptr %agg.tmp, i32 0, i32 0
  %coerce.dive2 = getelementptr inbounds %"class.v8::LocalBase.493", ptr %coerce.dive, i32 0, i32 0
  %coerce.dive3 = getelementptr inbounds %"class.v8::IndirectHandleBase", ptr %coerce.dive2, i32 0, i32 0
  store ptr %call1, ptr %coerce.dive3, align 8
  %4 = load ptr, ptr %name.addr, align 8
  call void @llvm.memcpy.p0.p0.i64(ptr align 8 %agg.tmp5, ptr align 8 %4, i64 8, i1 false)
  %coerce.dive6 = getelementptr inbounds %"class.v8::Local.13", ptr %agg.tmp5, i32 0, i32 0
  %coerce.dive7 = getelementptr inbounds %"class.v8::LocalBase.14", ptr %coerce.dive6, i32 0, i32 0
  %coerce.dive8 = getelementptr inbounds %"class.v8::IndirectHandleBase", ptr %coerce.dive7, i32 0, i32 0
  %5 = load ptr, ptr %coerce.dive8, align 8
  store ptr %5, ptr %that.i, align 8
  store ptr %agg.tmp4, ptr %this.addr.i109, align 8
  %this3.i = load ptr, ptr %this.addr.i109, align 8
  store ptr %this3.i, ptr %this.addr.i138, align 8
  store ptr %that.i, ptr %other.addr.i139, align 8
  %this1.i140 = load ptr, ptr %this.addr.i138, align 8
  %6 = load ptr, ptr %other.addr.i139, align 8
  call void @llvm.memcpy.p0.p0.i64(ptr align 8 %this1.i140, ptr align 8 %6, i64 8, i1 false)
  %coerce.dive9 = getelementptr inbounds %"class.v8::Local.492", ptr %agg.tmp, i32 0, i32 0
  %coerce.dive10 = getelementptr inbounds %"class.v8::LocalBase.493", ptr %coerce.dive9, i32 0, i32 0
  %coerce.dive11 = getelementptr inbounds %"class.v8::IndirectHandleBase", ptr %coerce.dive10, i32 0, i32 0
  %7 = load ptr, ptr %coerce.dive11, align 8
  %coerce.dive12 = getelementptr inbounds %"class.v8::Local", ptr %agg.tmp4, i32 0, i32 0
  %coerce.dive13 = getelementptr inbounds %"class.v8::LocalBase", ptr %coerce.dive12, i32 0, i32 0
  %coerce.dive14 = getelementptr inbounds %"class.v8::IndirectHandleBase", ptr %coerce.dive13, i32 0, i32 0
  %8 = load ptr, ptr %coerce.dive14, align 8
  %call15 = call ptr @_ZN2v86Object3GetENS_5LocalINS_7ContextEEENS1_INS_5ValueEEE(ptr noundef nonnull align 1 dereferenceable(1) %2, ptr %7, ptr %8)
  %coerce.dive16 = getelementptr inbounds %"class.v8::MaybeLocal.523", ptr %ref.tmp, i32 0, i32 0
  %coerce.dive17 = getelementptr inbounds %"class.v8::Local", ptr %coerce.dive16, i32 0, i32 0
  %coerce.dive18 = getelementptr inbounds %"class.v8::LocalBase", ptr %coerce.dive17, i32 0, i32 0
  %coerce.dive19 = getelementptr inbounds %"class.v8::IndirectHandleBase", ptr %coerce.dive18, i32 0, i32 0
  store ptr %call15, ptr %coerce.dive19, align 8
  store ptr %ref.tmp, ptr %this.addr.i113, align 8
  store ptr %value, ptr %out.addr.i, align 8
  %this1.i114 = load ptr, ptr %this.addr.i113, align 8
  %9 = load ptr, ptr %out.addr.i, align 8
  call void @llvm.memcpy.p0.p0.i64(ptr align 8 %9, ptr align 8 %this1.i114, i64 8, i1 false)
  store ptr %this1.i114, ptr %this.addr.i142, align 8
  %this1.i143 = load ptr, ptr %this.addr.i142, align 8
  store ptr %this1.i143, ptr %this.addr.i.i141, align 8
  %this1.i.i144 = load ptr, ptr %this.addr.i.i141, align 8
  %10 = load ptr, ptr %this1.i.i144, align 8
  %cmp.i.i = icmp eq ptr %10, null
  %lnot.i = xor i1 %cmp.i.i, true
  %lnot = xor i1 %lnot.i, true
  br i1 %lnot, label %if.then, label %if.end

if.then:                                          ; preds = %entry
  store i1 false, ptr %retval, align 1
  br label %return

if.end:                                           ; preds = %entry
  store ptr %value, ptr %this.addr.i75, align 8
  %this1.i76 = load ptr, ptr %this.addr.i75, align 8
  store ptr %this1.i76, ptr %this.addr.i86, align 8
  %this1.i87 = load ptr, ptr %this.addr.i86, align 8
  store ptr %this1.i87, ptr %this.addr.i.i, align 8
  %this1.i.i = load ptr, ptr %this.addr.i.i, align 8
  %11 = load ptr, ptr %this1.i.i, align 8
  store ptr %11, ptr %slot.addr.i106, align 8
  %12 = load ptr, ptr %slot.addr.i106, align 8
  store ptr %12, ptr %this.addr.i115, align 8
  %this1.i116 = load ptr, ptr %this.addr.i115, align 8
  store ptr %this1.i116, ptr %this.addr.i146, align 8
  %this1.i147 = load ptr, ptr %this.addr.i146, align 8
  store ptr %this1.i147, ptr %value.addr.i, align 8
  %13 = load ptr, ptr %value.addr.i, align 8
  %14 = load i64, ptr %13, align 8
  store i64 %14, ptr %obj.i, align 8
  %15 = load i64, ptr %obj.i, align 8
  store i64 %15, ptr %value.addr.i148, align 8
  %16 = load i64, ptr %value.addr.i148, align 8
  %and.i = and i64 %16, 3
  %cmp.i149 = icmp eq i64 %and.i, 1
  br i1 %cmp.i149, label %if.end.i, label %if.then.i

if.then.i:                                        ; preds = %if.end
  store i1 false, ptr %retval.i145, align 1
  br label %_ZNK2v85Value16QuickIsUndefinedEv.exit

if.end.i:                                         ; preds = %if.end
  %17 = load i64, ptr %obj.i, align 8
  store i64 %17, ptr %obj.addr.i, align 8
  %18 = load i64, ptr %obj.addr.i, align 8
  store i64 %18, ptr %heap_object_ptr.addr.i, align 8
  store i32 0, ptr %offset.addr.i, align 4
  %19 = load i64, ptr %heap_object_ptr.addr.i, align 8
  %20 = load i32, ptr %offset.addr.i, align 4
  store i64 %19, ptr %heap_object_ptr.addr.i157, align 8
  store i32 %20, ptr %offset.addr.i158, align 4
  %21 = load i64, ptr %heap_object_ptr.addr.i157, align 8
  %22 = load i32, ptr %offset.addr.i158, align 4
  %conv.i160 = sext i32 %22 to i64
  %add.i161 = add i64 %21, %conv.i160
  %sub.i162 = sub i64 %add.i161, 1
  store i64 %sub.i162, ptr %addr.i159, align 8
  %23 = load i64, ptr %addr.i159, align 8
  %24 = inttoptr i64 %23 to ptr
  %25 = load i64, ptr %24, align 8
  store i64 %25, ptr %map.i, align 8
  %26 = load i64, ptr %map.i, align 8
  store i64 %26, ptr %heap_object_ptr.addr.i154, align 8
  store i32 12, ptr %offset.addr.i155, align 4
  %27 = load i64, ptr %heap_object_ptr.addr.i154, align 8
  %28 = load i32, ptr %offset.addr.i155, align 4
  %conv.i156 = sext i32 %28 to i64
  %add.i = add i64 %27, %conv.i156
  %sub.i = sub i64 %add.i, 1
  store i64 %sub.i, ptr %addr.i, align 8
  %29 = load i64, ptr %addr.i, align 8
  %30 = inttoptr i64 %29 to ptr
  %31 = load i16, ptr %30, align 2
  %conv.i = zext i16 %31 to i32
  %cmp.i = icmp ne i32 %conv.i, 131
  br i1 %cmp.i, label %if.then4.i, label %if.end5.i

if.then4.i:                                       ; preds = %if.end.i
  store i1 false, ptr %retval.i145, align 1
  br label %_ZNK2v85Value16QuickIsUndefinedEv.exit

if.end5.i:                                        ; preds = %if.end.i
  %32 = load i64, ptr %obj.i, align 8
  store i64 %32, ptr %obj.addr.i150, align 8
  %33 = load i64, ptr %obj.addr.i150, align 8
  store i64 %33, ptr %heap_object_ptr.addr.i164, align 8
  store i32 40, ptr %offset.addr.i165, align 4
  %34 = load i64, ptr %heap_object_ptr.addr.i164, align 8
  %35 = load i32, ptr %offset.addr.i165, align 4
  store i64 %34, ptr %heap_object_ptr.addr.i.i, align 8
  store i32 %35, ptr %offset.addr.i.i, align 4
  %36 = load i64, ptr %heap_object_ptr.addr.i.i, align 8
  %37 = load i32, ptr %offset.addr.i.i, align 4
  %conv.i.i = sext i32 %37 to i64
  %add.i.i = add i64 %36, %conv.i.i
  %sub.i.i = sub i64 %add.i.i, 1
  store i64 %sub.i.i, ptr %addr.i.i, align 8
  %38 = load i64, ptr %addr.i.i, align 8
  %39 = inttoptr i64 %38 to ptr
  %40 = load i64, ptr %39, align 8
  store i64 %40, ptr %value.addr.i163, align 8
  %41 = load i64, ptr %value.addr.i163, align 8
  store i64 %41, ptr %value.addr.i166, align 8
  store i32 32, ptr %shift_bits.i, align 4
  %42 = load i64, ptr %value.addr.i166, align 8
  %43 = load i32, ptr %shift_bits.i, align 4
  %sh_prom.i = zext i32 %43 to i64
  %shr.i = ashr i64 %42, %sh_prom.i
  %conv.i167 = trunc i64 %shr.i to i32
  %cmp7.i = icmp eq i32 %conv.i167, 5
  store i1 %cmp7.i, ptr %retval.i145, align 1
  br label %_ZNK2v85Value16QuickIsUndefinedEv.exit

_ZNK2v85Value16QuickIsUndefinedEv.exit:           ; preds = %if.end5.i, %if.then4.i, %if.then.i
  %44 = load i1, ptr %retval.i145, align 1
  br i1 %44, label %if.end68, label %if.then23

if.then23:                                        ; preds = %_ZNK2v85Value16QuickIsUndefinedEv.exit
  br label %do.body

do.body:                                          ; preds = %if.then23
  store ptr %value, ptr %this.addr.i72, align 8
  %this1.i73 = load ptr, ptr %this.addr.i72, align 8
  store ptr %this1.i73, ptr %this.addr.i89, align 8
  %this1.i90 = load ptr, ptr %this.addr.i89, align 8
  store ptr %this1.i90, ptr %this.addr.i.i88, align 8
  %this1.i.i91 = load ptr, ptr %this.addr.i.i88, align 8
  %45 = load ptr, ptr %this1.i.i91, align 8
  store ptr %45, ptr %slot.addr.i105, align 8
  %46 = load ptr, ptr %slot.addr.i105, align 8
  %call25 = call noundef zeroext i1 @_ZNK2v85Value8IsBigIntEv(ptr noundef nonnull align 1 dereferenceable(1) %46)
  br i1 %call25, label %lor.end, label %lor.rhs

lor.rhs:                                          ; preds = %do.body
  store ptr %value, ptr %this.addr.i69, align 8
  %this1.i70 = load ptr, ptr %this.addr.i69, align 8
  store ptr %this1.i70, ptr %this.addr.i94, align 8
  %this1.i95 = load ptr, ptr %this.addr.i94, align 8
  store ptr %this1.i95, ptr %this.addr.i.i93, align 8
  %this1.i.i96 = load ptr, ptr %this.addr.i.i93, align 8
  %47 = load ptr, ptr %this1.i.i96, align 8
  store ptr %47, ptr %slot.addr.i104, align 8
  %48 = load ptr, ptr %slot.addr.i104, align 8
  %call27 = call noundef zeroext i1 @_ZNK2v85Value8IsNumberEv(ptr noundef nonnull align 1 dereferenceable(1) %48)
  br label %lor.end

lor.end:                                          ; preds = %lor.rhs, %do.body
  %49 = phi i1 [ true, %do.body ], [ %call27, %lor.rhs ]
  %lnot28 = xor i1 %49, true
  %lnot29 = xor i1 %lnot28, true
  %lnot30 = xor i1 %lnot29, true
  br i1 %lnot30, label %if.then31, label %if.end33

if.then31:                                        ; preds = %lor.end
  br label %do.body32

do.body32:                                        ; preds = %if.then31
  call void @_ZN4node6AssertERKNS_13AssertionInfoE(ptr noundef nonnull align 8 dereferenceable(24) @_ZZN4node4quic9SetOptionINS0_15TransportParams7OptionsETnMT_mXadL_ZNS3_35initial_max_stream_data_bidi_remoteEEEEEbPNS_11EnvironmentEPS4_RKN2v85LocalINS9_6ObjectEEERKNSA_INS9_6StringEEEE4args)
  call void @abort() #16
  unreachable

do.end:                                           ; No predecessors!
  br label %if.end33

if.end33:                                         ; preds = %do.end, %lor.end
  br label %do.end34

do.end34:                                         ; preds = %if.end33
  store i64 0, ptr %val, align 8
  store ptr %value, ptr %this.addr.i, align 8
  %this1.i = load ptr, ptr %this.addr.i, align 8
  store ptr %this1.i, ptr %this.addr.i99, align 8
  %this1.i100 = load ptr, ptr %this.addr.i99, align 8
  store ptr %this1.i100, ptr %this.addr.i.i98, align 8
  %this1.i.i101 = load ptr, ptr %this.addr.i.i98, align 8
  %50 = load ptr, ptr %this1.i.i101, align 8
  store ptr %50, ptr %slot.addr.i103, align 8
  %51 = load ptr, ptr %slot.addr.i103, align 8
  %call36 = call noundef zeroext i1 @_ZNK2v85Value8IsBigIntEv(ptr noundef nonnull align 1 dereferenceable(1) %51)
  br i1 %call36, label %if.then37, label %if.else

if.then37:                                        ; preds = %do.end34
  store i8 1, ptr %lossless, align 1
  store ptr %value, ptr %this.addr.i118, align 8
  %this1.i119 = load ptr, ptr %this.addr.i118, align 8
  call void @llvm.memcpy.p0.p0.i64(ptr align 8 %agg.tmp.i, ptr align 8 %this1.i119, i64 8, i1 false)
  %52 = load ptr, ptr %agg.tmp.i, align 8
  store ptr %52, ptr %that.i169, align 8
  store ptr %ref.tmp.i, ptr %this.addr.i170, align 8
  store ptr %that.i169, ptr %other.addr.i171, align 8
  %this1.i172 = load ptr, ptr %this.addr.i170, align 8
  %53 = load ptr, ptr %other.addr.i171, align 8
  call void @llvm.memcpy.p0.p0.i64(ptr align 8 %this1.i172, ptr align 8 %53, i64 8, i1 false)
  store ptr %retval.i168, ptr %this.addr.i173, align 8
  store ptr %ref.tmp.i, ptr %other.addr.i174, align 8
  %this1.i175 = load ptr, ptr %this.addr.i173, align 8
  %54 = load ptr, ptr %other.addr.i174, align 8
  call void @llvm.memcpy.p0.p0.i64(ptr align 8 %this1.i175, ptr align 8 %54, i64 8, i1 false)
  %55 = load ptr, ptr %retval.i168, align 8
  store ptr %55, ptr %retval.i, align 8
  %56 = load ptr, ptr %retval.i, align 8
  %coerce.dive40 = getelementptr inbounds %"class.v8::Local.524", ptr %ref.tmp38, i32 0, i32 0
  %coerce.dive41 = getelementptr inbounds %"class.v8::LocalBase.525", ptr %coerce.dive40, i32 0, i32 0
  %coerce.dive42 = getelementptr inbounds %"class.v8::IndirectHandleBase", ptr %coerce.dive41, i32 0, i32 0
  store ptr %56, ptr %coerce.dive42, align 8
  store ptr %ref.tmp38, ptr %this.addr.i121, align 8
  %this1.i122 = load ptr, ptr %this.addr.i121, align 8
  store ptr %this1.i122, ptr %this.addr.i177, align 8
  %this1.i178 = load ptr, ptr %this.addr.i177, align 8
  store ptr %this1.i178, ptr %this.addr.i.i176, align 8
  %this1.i.i179 = load ptr, ptr %this.addr.i.i176, align 8
  %57 = load ptr, ptr %this1.i.i179, align 8
  store ptr %57, ptr %slot.addr.i180, align 8
  %58 = load ptr, ptr %slot.addr.i180, align 8
  %call44 = call noundef i64 @_ZNK2v86BigInt11Uint64ValueEPb(ptr noundef nonnull align 1 dereferenceable(1) %58, ptr noundef %lossless)
  store i64 %call44, ptr %val, align 8
  %59 = load i8, ptr %lossless, align 1
  %tobool = trunc i8 %59 to i1
  br i1 %tobool, label %if.end59, label %if.then45

if.then45:                                        ; preds = %if.then37
  %60 = load ptr, ptr %env.addr, align 8
  %call46 = call noundef ptr @_ZNK4node11Environment7isolateEv(ptr noundef nonnull align 8 dereferenceable(2872) %60)
  %61 = load ptr, ptr %name.addr, align 8
  call void @llvm.memcpy.p0.p0.i64(ptr align 8 %agg.tmp48, ptr align 8 %61, i64 8, i1 false)
  %coerce.dive49 = getelementptr inbounds %"class.v8::Local.13", ptr %agg.tmp48, i32 0, i32 0
  %coerce.dive50 = getelementptr inbounds %"class.v8::LocalBase.14", ptr %coerce.dive49, i32 0, i32 0
  %coerce.dive51 = getelementptr inbounds %"class.v8::IndirectHandleBase", ptr %coerce.dive50, i32 0, i32 0
  %62 = load ptr, ptr %coerce.dive51, align 8
  store ptr %62, ptr %that.i110, align 8
  store ptr %agg.tmp47, ptr %this.addr.i111, align 8
  %this3.i112 = load ptr, ptr %this.addr.i111, align 8
  store ptr %this3.i112, ptr %this.addr.i136, align 8
  store ptr %that.i110, ptr %other.addr.i, align 8
  %this1.i137 = load ptr, ptr %this.addr.i136, align 8
  %63 = load ptr, ptr %other.addr.i, align 8
  call void @llvm.memcpy.p0.p0.i64(ptr align 8 %this1.i137, ptr align 8 %63, i64 8, i1 false)
  %coerce.dive52 = getelementptr inbounds %"class.v8::Local", ptr %agg.tmp47, i32 0, i32 0
  %coerce.dive53 = getelementptr inbounds %"class.v8::LocalBase", ptr %coerce.dive52, i32 0, i32 0
  %coerce.dive54 = getelementptr inbounds %"class.v8::IndirectHandleBase", ptr %coerce.dive53, i32 0, i32 0
  %64 = load ptr, ptr %coerce.dive54, align 8
  call void @_ZN4node9Utf8ValueC1EPN2v87IsolateENS1_5LocalINS1_5ValueEEE(ptr noundef nonnull align 8 dereferenceable(1048) %label, ptr noundef %call46, ptr %64)
  %65 = load ptr, ptr %env.addr, align 8
  call void @_ZNK4node9Utf8Value8ToStringB5cxx11Ev(ptr sret(%"class.std::__cxx11::basic_string") align 8 %ref.tmp57, ptr noundef nonnull align 8 dereferenceable(1048) %label)
  call void @_ZStplIcSt11char_traitsIcESaIcEENSt7__cxx1112basic_stringIT_T0_T1_EEPKS5_OS8_(ptr sret(%"class.std::__cxx11::basic_string") align 8 %ref.tmp56, ptr noundef @.str.35, ptr noundef nonnull align 8 dereferenceable(32) %ref.tmp57)
  call void @_ZStplIcSt11char_traitsIcESaIcEENSt7__cxx1112basic_stringIT_T0_T1_EEOS8_PKS5_(ptr sret(%"class.std::__cxx11::basic_string") align 8 %ref.tmp55, ptr noundef nonnull align 8 dereferenceable(32) %ref.tmp56, ptr noundef @.str.36)
  %call58 = call noundef ptr @_ZNKSt7__cxx1112basic_stringIcSt11char_traitsIcESaIcEE5c_strEv(ptr noundef nonnull align 8 dereferenceable(32) %ref.tmp55) #3
  call void @_ZN4node22THROW_ERR_OUT_OF_RANGEIJEEEvPNS_11EnvironmentEPKcDpOT_(ptr noundef %65, ptr noundef %call58)
  call void @_ZNSt7__cxx1112basic_stringIcSt11char_traitsIcESaIcEED1Ev(ptr noundef nonnull align 8 dereferenceable(32) %ref.tmp55) #3
  call void @_ZNSt7__cxx1112basic_stringIcSt11char_traitsIcESaIcEED1Ev(ptr noundef nonnull align 8 dereferenceable(32) %ref.tmp56) #3
  call void @_ZNSt7__cxx1112basic_stringIcSt11char_traitsIcESaIcEED1Ev(ptr noundef nonnull align 8 dereferenceable(32) %ref.tmp57) #3
  store i1 false, ptr %retval, align 1
  call void @_ZN4node9Utf8ValueD2Ev(ptr noundef nonnull align 8 dereferenceable(1048) %label) #3
  br label %return

if.end59:                                         ; preds = %if.then37
  br label %if.end67

if.else:                                          ; preds = %do.end34
  store ptr %value, ptr %this.addr.i125, align 8
  %this1.i127 = load ptr, ptr %this.addr.i125, align 8
  call void @llvm.memcpy.p0.p0.i64(ptr align 8 %agg.tmp.i126, ptr align 8 %this1.i127, i64 8, i1 false)
  %66 = load ptr, ptr %agg.tmp.i126, align 8
  store ptr %66, ptr %that.i182, align 8
  store ptr %ref.tmp.i183, ptr %this.addr.i184, align 8
  store ptr %that.i182, ptr %other.addr.i185, align 8
  %this1.i186 = load ptr, ptr %this.addr.i184, align 8
  %67 = load ptr, ptr %other.addr.i185, align 8
  call void @llvm.memcpy.p0.p0.i64(ptr align 8 %this1.i186, ptr align 8 %67, i64 8, i1 false)
  store ptr %retval.i181, ptr %this.addr.i187, align 8
  store ptr %ref.tmp.i183, ptr %other.addr.i188, align 8
  %this1.i189 = load ptr, ptr %this.addr.i187, align 8
  %68 = load ptr, ptr %other.addr.i188, align 8
  call void @llvm.memcpy.p0.p0.i64(ptr align 8 %this1.i189, ptr align 8 %68, i64 8, i1 false)
  %69 = load ptr, ptr %retval.i181, align 8
  store ptr %69, ptr %retval.i124, align 8
  %70 = load ptr, ptr %retval.i124, align 8
  %coerce.dive62 = getelementptr inbounds %"class.v8::Local.494", ptr %ref.tmp60, i32 0, i32 0
  %coerce.dive63 = getelementptr inbounds %"class.v8::LocalBase.495", ptr %coerce.dive62, i32 0, i32 0
  %coerce.dive64 = getelementptr inbounds %"class.v8::IndirectHandleBase", ptr %coerce.dive63, i32 0, i32 0
  store ptr %70, ptr %coerce.dive64, align 8
  store ptr %ref.tmp60, ptr %this.addr.i129, align 8
  %this1.i130 = load ptr, ptr %this.addr.i129, align 8
  store ptr %this1.i130, ptr %this.addr.i191, align 8
  %this1.i192 = load ptr, ptr %this.addr.i191, align 8
  store ptr %this1.i192, ptr %this.addr.i.i190, align 8
  %this1.i.i193 = load ptr, ptr %this.addr.i.i190, align 8
  %71 = load ptr, ptr %this1.i.i193, align 8
  store ptr %71, ptr %slot.addr.i194, align 8
  %72 = load ptr, ptr %slot.addr.i194, align 8
  %call66 = call noundef double @_ZNK2v86Number5ValueEv(ptr noundef nonnull align 1 dereferenceable(1) %72)
  %conv = fptosi double %call66 to i64
  store i64 %conv, ptr %val, align 8
  br label %if.end67

if.end67:                                         ; preds = %if.else, %if.end59
  %73 = load i64, ptr %val, align 8
  %74 = load ptr, ptr %options.addr, align 8
  %memptr.offset = getelementptr inbounds i8, ptr %74, i64 304
  store i64 %73, ptr %memptr.offset, align 8
  br label %if.end68

if.end68:                                         ; preds = %if.end67, %_ZNK2v85Value16QuickIsUndefinedEv.exit
  store i1 true, ptr %retval, align 1
  br label %return

return:                                           ; preds = %if.end68, %if.then45, %if.then
  %75 = load i1, ptr %retval, align 1
  ret i1 %75
}

declare ptr @_ZNK4node4quic11BindingData42initial_max_stream_data_bidi_remote_stringEv(ptr noundef nonnull align 8 dereferenceable(992)) #1

; Function Attrs: mustprogress nounwind uwtable
define linkonce_odr dso_local noundef zeroext i1 @_ZN4node4quic9SetOptionINS0_15TransportParams7OptionsETnMT_mXadL_ZNS3_27initial_max_stream_data_uniEEEEEbPNS_11EnvironmentEPS4_RKN2v85LocalINS9_6ObjectEEERKNSA_INS9_6StringEEE(ptr noundef %env, ptr noundef %options, ptr noundef nonnull align 8 dereferenceable(8) %object, ptr noundef nonnull align 8 dereferenceable(8) %name) #4 comdat {
entry:
  %slot.addr.i194 = alloca ptr, align 8
  %this.addr.i.i190 = alloca ptr, align 8
  %this.addr.i191 = alloca ptr, align 8
  %this.addr.i187 = alloca ptr, align 8
  %other.addr.i188 = alloca ptr, align 8
  %this.addr.i184 = alloca ptr, align 8
  %other.addr.i185 = alloca ptr, align 8
  %retval.i181 = alloca %"class.v8::Local.494", align 8
  %that.i182 = alloca %"class.v8::Local", align 8
  %ref.tmp.i183 = alloca %"class.v8::LocalBase.495", align 8
  %slot.addr.i180 = alloca ptr, align 8
  %this.addr.i.i176 = alloca ptr, align 8
  %this.addr.i177 = alloca ptr, align 8
  %this.addr.i173 = alloca ptr, align 8
  %other.addr.i174 = alloca ptr, align 8
  %this.addr.i170 = alloca ptr, align 8
  %other.addr.i171 = alloca ptr, align 8
  %retval.i168 = alloca %"class.v8::Local.524", align 8
  %that.i169 = alloca %"class.v8::Local", align 8
  %ref.tmp.i = alloca %"class.v8::LocalBase.525", align 8
  %value.addr.i166 = alloca i64, align 8
  %shift_bits.i = alloca i32, align 4
  %heap_object_ptr.addr.i.i = alloca i64, align 8
  %offset.addr.i.i = alloca i32, align 4
  %addr.i.i = alloca i64, align 8
  %heap_object_ptr.addr.i164 = alloca i64, align 8
  %offset.addr.i165 = alloca i32, align 4
  %value.addr.i163 = alloca i64, align 8
  %heap_object_ptr.addr.i157 = alloca i64, align 8
  %offset.addr.i158 = alloca i32, align 4
  %addr.i159 = alloca i64, align 8
  %heap_object_ptr.addr.i154 = alloca i64, align 8
  %offset.addr.i155 = alloca i32, align 4
  %addr.i = alloca i64, align 8
  %heap_object_ptr.addr.i = alloca i64, align 8
  %offset.addr.i = alloca i32, align 4
  %obj.addr.i150 = alloca i64, align 8
  %obj.addr.i = alloca i64, align 8
  %map.i = alloca i64, align 8
  %value.addr.i148 = alloca i64, align 8
  %value.addr.i = alloca ptr, align 8
  %retval.i145 = alloca i1, align 1
  %this.addr.i146 = alloca ptr, align 8
  %obj.i = alloca i64, align 8
  %this.addr.i.i141 = alloca ptr, align 8
  %this.addr.i142 = alloca ptr, align 8
  %this.addr.i138 = alloca ptr, align 8
  %other.addr.i139 = alloca ptr, align 8
  %this.addr.i136 = alloca ptr, align 8
  %other.addr.i = alloca ptr, align 8
  %this.addr.i.i132 = alloca ptr, align 8
  %this.addr.i133 = alloca ptr, align 8
  %this.addr.i129 = alloca ptr, align 8
  %retval.i124 = alloca %"class.v8::Local.494", align 8
  %this.addr.i125 = alloca ptr, align 8
  %agg.tmp.i126 = alloca %"class.v8::Local", align 8
  %this.addr.i121 = alloca ptr, align 8
  %retval.i = alloca %"class.v8::Local.524", align 8
  %this.addr.i118 = alloca ptr, align 8
  %agg.tmp.i = alloca %"class.v8::Local", align 8
  %this.addr.i115 = alloca ptr, align 8
  %this.addr.i113 = alloca ptr, align 8
  %out.addr.i = alloca ptr, align 8
  %that.i110 = alloca %"class.v8::Local.13", align 8
  %this.addr.i111 = alloca ptr, align 8
  %that.i = alloca %"class.v8::Local.13", align 8
  %this.addr.i109 = alloca ptr, align 8
  %this.addr.i107 = alloca ptr, align 8
  %slot.addr.i106 = alloca ptr, align 8
  %slot.addr.i105 = alloca ptr, align 8
  %slot.addr.i104 = alloca ptr, align 8
  %slot.addr.i103 = alloca ptr, align 8
  %this.addr.i.i98 = alloca ptr, align 8
  %this.addr.i99 = alloca ptr, align 8
  %this.addr.i.i93 = alloca ptr, align 8
  %this.addr.i94 = alloca ptr, align 8
  %this.addr.i.i88 = alloca ptr, align 8
  %this.addr.i89 = alloca ptr, align 8
  %this.addr.i.i = alloca ptr, align 8
  %this.addr.i86 = alloca ptr, align 8
  %this.addr.i84 = alloca ptr, align 8
  %slot.addr.i = alloca ptr, align 8
  %this.addr.i81 = alloca ptr, align 8
  %this.addr.i78 = alloca ptr, align 8
  %this.addr.i75 = alloca ptr, align 8
  %this.addr.i72 = alloca ptr, align 8
  %this.addr.i69 = alloca ptr, align 8
  %this.addr.i = alloca ptr, align 8
  %retval = alloca i1, align 1
  %env.addr = alloca ptr, align 8
  %options.addr = alloca ptr, align 8
  %object.addr = alloca ptr, align 8
  %name.addr = alloca ptr, align 8
  %value = alloca %"class.v8::Local", align 8
  %ref.tmp = alloca %"class.v8::MaybeLocal.523", align 8
  %agg.tmp = alloca %"class.v8::Local.492", align 8
  %agg.tmp4 = alloca %"class.v8::Local", align 8
  %agg.tmp5 = alloca %"class.v8::Local.13", align 8
  %val = alloca i64, align 8
  %lossless = alloca i8, align 1
  %ref.tmp38 = alloca %"class.v8::Local.524", align 8
  %label = alloca %"class.node::Utf8Value", align 8
  %agg.tmp47 = alloca %"class.v8::Local", align 8
  %agg.tmp48 = alloca %"class.v8::Local.13", align 8
  %ref.tmp55 = alloca %"class.std::__cxx11::basic_string", align 8
  %ref.tmp56 = alloca %"class.std::__cxx11::basic_string", align 8
  %ref.tmp57 = alloca %"class.std::__cxx11::basic_string", align 8
  %ref.tmp60 = alloca %"class.v8::Local.494", align 8
  store ptr %env, ptr %env.addr, align 8
  store ptr %options, ptr %options.addr, align 8
  store ptr %object, ptr %object.addr, align 8
  store ptr %name, ptr %name.addr, align 8
  store ptr %value, ptr %this.addr.i107, align 8
  %this1.i108 = load ptr, ptr %this.addr.i107, align 8
  store ptr %this1.i108, ptr %this.addr.i133, align 8
  %this1.i134 = load ptr, ptr %this.addr.i133, align 8
  store ptr %this1.i134, ptr %this.addr.i.i132, align 8
  %this1.i.i135 = load ptr, ptr %this.addr.i.i132, align 8
  store ptr null, ptr %this1.i.i135, align 8
  %0 = load ptr, ptr %object.addr, align 8
  store ptr %0, ptr %this.addr.i78, align 8
  %this1.i79 = load ptr, ptr %this.addr.i78, align 8
  store ptr %this1.i79, ptr %this.addr.i81, align 8
  %this1.i82 = load ptr, ptr %this.addr.i81, align 8
  store ptr %this1.i82, ptr %this.addr.i84, align 8
  %this1.i85 = load ptr, ptr %this.addr.i84, align 8
  %1 = load ptr, ptr %this1.i85, align 8
  store ptr %1, ptr %slot.addr.i, align 8
  %2 = load ptr, ptr %slot.addr.i, align 8
  %3 = load ptr, ptr %env.addr, align 8
  %call1 = call ptr @_ZNK4node11Environment7contextEv(ptr noundef nonnull align 8 dereferenceable(2872) %3)
  %coerce.dive = getelementptr inbounds %"class.v8::Local.492", ptr %agg.tmp, i32 0, i32 0
  %coerce.dive2 = getelementptr inbounds %"class.v8::LocalBase.493", ptr %coerce.dive, i32 0, i32 0
  %coerce.dive3 = getelementptr inbounds %"class.v8::IndirectHandleBase", ptr %coerce.dive2, i32 0, i32 0
  store ptr %call1, ptr %coerce.dive3, align 8
  %4 = load ptr, ptr %name.addr, align 8
  call void @llvm.memcpy.p0.p0.i64(ptr align 8 %agg.tmp5, ptr align 8 %4, i64 8, i1 false)
  %coerce.dive6 = getelementptr inbounds %"class.v8::Local.13", ptr %agg.tmp5, i32 0, i32 0
  %coerce.dive7 = getelementptr inbounds %"class.v8::LocalBase.14", ptr %coerce.dive6, i32 0, i32 0
  %coerce.dive8 = getelementptr inbounds %"class.v8::IndirectHandleBase", ptr %coerce.dive7, i32 0, i32 0
  %5 = load ptr, ptr %coerce.dive8, align 8
  store ptr %5, ptr %that.i, align 8
  store ptr %agg.tmp4, ptr %this.addr.i109, align 8
  %this3.i = load ptr, ptr %this.addr.i109, align 8
  store ptr %this3.i, ptr %this.addr.i138, align 8
  store ptr %that.i, ptr %other.addr.i139, align 8
  %this1.i140 = load ptr, ptr %this.addr.i138, align 8
  %6 = load ptr, ptr %other.addr.i139, align 8
  call void @llvm.memcpy.p0.p0.i64(ptr align 8 %this1.i140, ptr align 8 %6, i64 8, i1 false)
  %coerce.dive9 = getelementptr inbounds %"class.v8::Local.492", ptr %agg.tmp, i32 0, i32 0
  %coerce.dive10 = getelementptr inbounds %"class.v8::LocalBase.493", ptr %coerce.dive9, i32 0, i32 0
  %coerce.dive11 = getelementptr inbounds %"class.v8::IndirectHandleBase", ptr %coerce.dive10, i32 0, i32 0
  %7 = load ptr, ptr %coerce.dive11, align 8
  %coerce.dive12 = getelementptr inbounds %"class.v8::Local", ptr %agg.tmp4, i32 0, i32 0
  %coerce.dive13 = getelementptr inbounds %"class.v8::LocalBase", ptr %coerce.dive12, i32 0, i32 0
  %coerce.dive14 = getelementptr inbounds %"class.v8::IndirectHandleBase", ptr %coerce.dive13, i32 0, i32 0
  %8 = load ptr, ptr %coerce.dive14, align 8
  %call15 = call ptr @_ZN2v86Object3GetENS_5LocalINS_7ContextEEENS1_INS_5ValueEEE(ptr noundef nonnull align 1 dereferenceable(1) %2, ptr %7, ptr %8)
  %coerce.dive16 = getelementptr inbounds %"class.v8::MaybeLocal.523", ptr %ref.tmp, i32 0, i32 0
  %coerce.dive17 = getelementptr inbounds %"class.v8::Local", ptr %coerce.dive16, i32 0, i32 0
  %coerce.dive18 = getelementptr inbounds %"class.v8::LocalBase", ptr %coerce.dive17, i32 0, i32 0
  %coerce.dive19 = getelementptr inbounds %"class.v8::IndirectHandleBase", ptr %coerce.dive18, i32 0, i32 0
  store ptr %call15, ptr %coerce.dive19, align 8
  store ptr %ref.tmp, ptr %this.addr.i113, align 8
  store ptr %value, ptr %out.addr.i, align 8
  %this1.i114 = load ptr, ptr %this.addr.i113, align 8
  %9 = load ptr, ptr %out.addr.i, align 8
  call void @llvm.memcpy.p0.p0.i64(ptr align 8 %9, ptr align 8 %this1.i114, i64 8, i1 false)
  store ptr %this1.i114, ptr %this.addr.i142, align 8
  %this1.i143 = load ptr, ptr %this.addr.i142, align 8
  store ptr %this1.i143, ptr %this.addr.i.i141, align 8
  %this1.i.i144 = load ptr, ptr %this.addr.i.i141, align 8
  %10 = load ptr, ptr %this1.i.i144, align 8
  %cmp.i.i = icmp eq ptr %10, null
  %lnot.i = xor i1 %cmp.i.i, true
  %lnot = xor i1 %lnot.i, true
  br i1 %lnot, label %if.then, label %if.end

if.then:                                          ; preds = %entry
  store i1 false, ptr %retval, align 1
  br label %return

if.end:                                           ; preds = %entry
  store ptr %value, ptr %this.addr.i75, align 8
  %this1.i76 = load ptr, ptr %this.addr.i75, align 8
  store ptr %this1.i76, ptr %this.addr.i86, align 8
  %this1.i87 = load ptr, ptr %this.addr.i86, align 8
  store ptr %this1.i87, ptr %this.addr.i.i, align 8
  %this1.i.i = load ptr, ptr %this.addr.i.i, align 8
  %11 = load ptr, ptr %this1.i.i, align 8
  store ptr %11, ptr %slot.addr.i106, align 8
  %12 = load ptr, ptr %slot.addr.i106, align 8
  store ptr %12, ptr %this.addr.i115, align 8
  %this1.i116 = load ptr, ptr %this.addr.i115, align 8
  store ptr %this1.i116, ptr %this.addr.i146, align 8
  %this1.i147 = load ptr, ptr %this.addr.i146, align 8
  store ptr %this1.i147, ptr %value.addr.i, align 8
  %13 = load ptr, ptr %value.addr.i, align 8
  %14 = load i64, ptr %13, align 8
  store i64 %14, ptr %obj.i, align 8
  %15 = load i64, ptr %obj.i, align 8
  store i64 %15, ptr %value.addr.i148, align 8
  %16 = load i64, ptr %value.addr.i148, align 8
  %and.i = and i64 %16, 3
  %cmp.i149 = icmp eq i64 %and.i, 1
  br i1 %cmp.i149, label %if.end.i, label %if.then.i

if.then.i:                                        ; preds = %if.end
  store i1 false, ptr %retval.i145, align 1
  br label %_ZNK2v85Value16QuickIsUndefinedEv.exit

if.end.i:                                         ; preds = %if.end
  %17 = load i64, ptr %obj.i, align 8
  store i64 %17, ptr %obj.addr.i, align 8
  %18 = load i64, ptr %obj.addr.i, align 8
  store i64 %18, ptr %heap_object_ptr.addr.i, align 8
  store i32 0, ptr %offset.addr.i, align 4
  %19 = load i64, ptr %heap_object_ptr.addr.i, align 8
  %20 = load i32, ptr %offset.addr.i, align 4
  store i64 %19, ptr %heap_object_ptr.addr.i157, align 8
  store i32 %20, ptr %offset.addr.i158, align 4
  %21 = load i64, ptr %heap_object_ptr.addr.i157, align 8
  %22 = load i32, ptr %offset.addr.i158, align 4
  %conv.i160 = sext i32 %22 to i64
  %add.i161 = add i64 %21, %conv.i160
  %sub.i162 = sub i64 %add.i161, 1
  store i64 %sub.i162, ptr %addr.i159, align 8
  %23 = load i64, ptr %addr.i159, align 8
  %24 = inttoptr i64 %23 to ptr
  %25 = load i64, ptr %24, align 8
  store i64 %25, ptr %map.i, align 8
  %26 = load i64, ptr %map.i, align 8
  store i64 %26, ptr %heap_object_ptr.addr.i154, align 8
  store i32 12, ptr %offset.addr.i155, align 4
  %27 = load i64, ptr %heap_object_ptr.addr.i154, align 8
  %28 = load i32, ptr %offset.addr.i155, align 4
  %conv.i156 = sext i32 %28 to i64
  %add.i = add i64 %27, %conv.i156
  %sub.i = sub i64 %add.i, 1
  store i64 %sub.i, ptr %addr.i, align 8
  %29 = load i64, ptr %addr.i, align 8
  %30 = inttoptr i64 %29 to ptr
  %31 = load i16, ptr %30, align 2
  %conv.i = zext i16 %31 to i32
  %cmp.i = icmp ne i32 %conv.i, 131
  br i1 %cmp.i, label %if.then4.i, label %if.end5.i

if.then4.i:                                       ; preds = %if.end.i
  store i1 false, ptr %retval.i145, align 1
  br label %_ZNK2v85Value16QuickIsUndefinedEv.exit

if.end5.i:                                        ; preds = %if.end.i
  %32 = load i64, ptr %obj.i, align 8
  store i64 %32, ptr %obj.addr.i150, align 8
  %33 = load i64, ptr %obj.addr.i150, align 8
  store i64 %33, ptr %heap_object_ptr.addr.i164, align 8
  store i32 40, ptr %offset.addr.i165, align 4
  %34 = load i64, ptr %heap_object_ptr.addr.i164, align 8
  %35 = load i32, ptr %offset.addr.i165, align 4
  store i64 %34, ptr %heap_object_ptr.addr.i.i, align 8
  store i32 %35, ptr %offset.addr.i.i, align 4
  %36 = load i64, ptr %heap_object_ptr.addr.i.i, align 8
  %37 = load i32, ptr %offset.addr.i.i, align 4
  %conv.i.i = sext i32 %37 to i64
  %add.i.i = add i64 %36, %conv.i.i
  %sub.i.i = sub i64 %add.i.i, 1
  store i64 %sub.i.i, ptr %addr.i.i, align 8
  %38 = load i64, ptr %addr.i.i, align 8
  %39 = inttoptr i64 %38 to ptr
  %40 = load i64, ptr %39, align 8
  store i64 %40, ptr %value.addr.i163, align 8
  %41 = load i64, ptr %value.addr.i163, align 8
  store i64 %41, ptr %value.addr.i166, align 8
  store i32 32, ptr %shift_bits.i, align 4
  %42 = load i64, ptr %value.addr.i166, align 8
  %43 = load i32, ptr %shift_bits.i, align 4
  %sh_prom.i = zext i32 %43 to i64
  %shr.i = ashr i64 %42, %sh_prom.i
  %conv.i167 = trunc i64 %shr.i to i32
  %cmp7.i = icmp eq i32 %conv.i167, 5
  store i1 %cmp7.i, ptr %retval.i145, align 1
  br label %_ZNK2v85Value16QuickIsUndefinedEv.exit

_ZNK2v85Value16QuickIsUndefinedEv.exit:           ; preds = %if.end5.i, %if.then4.i, %if.then.i
  %44 = load i1, ptr %retval.i145, align 1
  br i1 %44, label %if.end68, label %if.then23

if.then23:                                        ; preds = %_ZNK2v85Value16QuickIsUndefinedEv.exit
  br label %do.body

do.body:                                          ; preds = %if.then23
  store ptr %value, ptr %this.addr.i72, align 8
  %this1.i73 = load ptr, ptr %this.addr.i72, align 8
  store ptr %this1.i73, ptr %this.addr.i89, align 8
  %this1.i90 = load ptr, ptr %this.addr.i89, align 8
  store ptr %this1.i90, ptr %this.addr.i.i88, align 8
  %this1.i.i91 = load ptr, ptr %this.addr.i.i88, align 8
  %45 = load ptr, ptr %this1.i.i91, align 8
  store ptr %45, ptr %slot.addr.i105, align 8
  %46 = load ptr, ptr %slot.addr.i105, align 8
  %call25 = call noundef zeroext i1 @_ZNK2v85Value8IsBigIntEv(ptr noundef nonnull align 1 dereferenceable(1) %46)
  br i1 %call25, label %lor.end, label %lor.rhs

lor.rhs:                                          ; preds = %do.body
  store ptr %value, ptr %this.addr.i69, align 8
  %this1.i70 = load ptr, ptr %this.addr.i69, align 8
  store ptr %this1.i70, ptr %this.addr.i94, align 8
  %this1.i95 = load ptr, ptr %this.addr.i94, align 8
  store ptr %this1.i95, ptr %this.addr.i.i93, align 8
  %this1.i.i96 = load ptr, ptr %this.addr.i.i93, align 8
  %47 = load ptr, ptr %this1.i.i96, align 8
  store ptr %47, ptr %slot.addr.i104, align 8
  %48 = load ptr, ptr %slot.addr.i104, align 8
  %call27 = call noundef zeroext i1 @_ZNK2v85Value8IsNumberEv(ptr noundef nonnull align 1 dereferenceable(1) %48)
  br label %lor.end

lor.end:                                          ; preds = %lor.rhs, %do.body
  %49 = phi i1 [ true, %do.body ], [ %call27, %lor.rhs ]
  %lnot28 = xor i1 %49, true
  %lnot29 = xor i1 %lnot28, true
  %lnot30 = xor i1 %lnot29, true
  br i1 %lnot30, label %if.then31, label %if.end33

if.then31:                                        ; preds = %lor.end
  br label %do.body32

do.body32:                                        ; preds = %if.then31
  call void @_ZN4node6AssertERKNS_13AssertionInfoE(ptr noundef nonnull align 8 dereferenceable(24) @_ZZN4node4quic9SetOptionINS0_15TransportParams7OptionsETnMT_mXadL_ZNS3_27initial_max_stream_data_uniEEEEEbPNS_11EnvironmentEPS4_RKN2v85LocalINS9_6ObjectEEERKNSA_INS9_6StringEEEE4args)
  call void @abort() #16
  unreachable

do.end:                                           ; No predecessors!
  br label %if.end33

if.end33:                                         ; preds = %do.end, %lor.end
  br label %do.end34

do.end34:                                         ; preds = %if.end33
  store i64 0, ptr %val, align 8
  store ptr %value, ptr %this.addr.i, align 8
  %this1.i = load ptr, ptr %this.addr.i, align 8
  store ptr %this1.i, ptr %this.addr.i99, align 8
  %this1.i100 = load ptr, ptr %this.addr.i99, align 8
  store ptr %this1.i100, ptr %this.addr.i.i98, align 8
  %this1.i.i101 = load ptr, ptr %this.addr.i.i98, align 8
  %50 = load ptr, ptr %this1.i.i101, align 8
  store ptr %50, ptr %slot.addr.i103, align 8
  %51 = load ptr, ptr %slot.addr.i103, align 8
  %call36 = call noundef zeroext i1 @_ZNK2v85Value8IsBigIntEv(ptr noundef nonnull align 1 dereferenceable(1) %51)
  br i1 %call36, label %if.then37, label %if.else

if.then37:                                        ; preds = %do.end34
  store i8 1, ptr %lossless, align 1
  store ptr %value, ptr %this.addr.i118, align 8
  %this1.i119 = load ptr, ptr %this.addr.i118, align 8
  call void @llvm.memcpy.p0.p0.i64(ptr align 8 %agg.tmp.i, ptr align 8 %this1.i119, i64 8, i1 false)
  %52 = load ptr, ptr %agg.tmp.i, align 8
  store ptr %52, ptr %that.i169, align 8
  store ptr %ref.tmp.i, ptr %this.addr.i170, align 8
  store ptr %that.i169, ptr %other.addr.i171, align 8
  %this1.i172 = load ptr, ptr %this.addr.i170, align 8
  %53 = load ptr, ptr %other.addr.i171, align 8
  call void @llvm.memcpy.p0.p0.i64(ptr align 8 %this1.i172, ptr align 8 %53, i64 8, i1 false)
  store ptr %retval.i168, ptr %this.addr.i173, align 8
  store ptr %ref.tmp.i, ptr %other.addr.i174, align 8
  %this1.i175 = load ptr, ptr %this.addr.i173, align 8
  %54 = load ptr, ptr %other.addr.i174, align 8
  call void @llvm.memcpy.p0.p0.i64(ptr align 8 %this1.i175, ptr align 8 %54, i64 8, i1 false)
  %55 = load ptr, ptr %retval.i168, align 8
  store ptr %55, ptr %retval.i, align 8
  %56 = load ptr, ptr %retval.i, align 8
  %coerce.dive40 = getelementptr inbounds %"class.v8::Local.524", ptr %ref.tmp38, i32 0, i32 0
  %coerce.dive41 = getelementptr inbounds %"class.v8::LocalBase.525", ptr %coerce.dive40, i32 0, i32 0
  %coerce.dive42 = getelementptr inbounds %"class.v8::IndirectHandleBase", ptr %coerce.dive41, i32 0, i32 0
  store ptr %56, ptr %coerce.dive42, align 8
  store ptr %ref.tmp38, ptr %this.addr.i121, align 8
  %this1.i122 = load ptr, ptr %this.addr.i121, align 8
  store ptr %this1.i122, ptr %this.addr.i177, align 8
  %this1.i178 = load ptr, ptr %this.addr.i177, align 8
  store ptr %this1.i178, ptr %this.addr.i.i176, align 8
  %this1.i.i179 = load ptr, ptr %this.addr.i.i176, align 8
  %57 = load ptr, ptr %this1.i.i179, align 8
  store ptr %57, ptr %slot.addr.i180, align 8
  %58 = load ptr, ptr %slot.addr.i180, align 8
  %call44 = call noundef i64 @_ZNK2v86BigInt11Uint64ValueEPb(ptr noundef nonnull align 1 dereferenceable(1) %58, ptr noundef %lossless)
  store i64 %call44, ptr %val, align 8
  %59 = load i8, ptr %lossless, align 1
  %tobool = trunc i8 %59 to i1
  br i1 %tobool, label %if.end59, label %if.then45

if.then45:                                        ; preds = %if.then37
  %60 = load ptr, ptr %env.addr, align 8
  %call46 = call noundef ptr @_ZNK4node11Environment7isolateEv(ptr noundef nonnull align 8 dereferenceable(2872) %60)
  %61 = load ptr, ptr %name.addr, align 8
  call void @llvm.memcpy.p0.p0.i64(ptr align 8 %agg.tmp48, ptr align 8 %61, i64 8, i1 false)
  %coerce.dive49 = getelementptr inbounds %"class.v8::Local.13", ptr %agg.tmp48, i32 0, i32 0
  %coerce.dive50 = getelementptr inbounds %"class.v8::LocalBase.14", ptr %coerce.dive49, i32 0, i32 0
  %coerce.dive51 = getelementptr inbounds %"class.v8::IndirectHandleBase", ptr %coerce.dive50, i32 0, i32 0
  %62 = load ptr, ptr %coerce.dive51, align 8
  store ptr %62, ptr %that.i110, align 8
  store ptr %agg.tmp47, ptr %this.addr.i111, align 8
  %this3.i112 = load ptr, ptr %this.addr.i111, align 8
  store ptr %this3.i112, ptr %this.addr.i136, align 8
  store ptr %that.i110, ptr %other.addr.i, align 8
  %this1.i137 = load ptr, ptr %this.addr.i136, align 8
  %63 = load ptr, ptr %other.addr.i, align 8
  call void @llvm.memcpy.p0.p0.i64(ptr align 8 %this1.i137, ptr align 8 %63, i64 8, i1 false)
  %coerce.dive52 = getelementptr inbounds %"class.v8::Local", ptr %agg.tmp47, i32 0, i32 0
  %coerce.dive53 = getelementptr inbounds %"class.v8::LocalBase", ptr %coerce.dive52, i32 0, i32 0
  %coerce.dive54 = getelementptr inbounds %"class.v8::IndirectHandleBase", ptr %coerce.dive53, i32 0, i32 0
  %64 = load ptr, ptr %coerce.dive54, align 8
  call void @_ZN4node9Utf8ValueC1EPN2v87IsolateENS1_5LocalINS1_5ValueEEE(ptr noundef nonnull align 8 dereferenceable(1048) %label, ptr noundef %call46, ptr %64)
  %65 = load ptr, ptr %env.addr, align 8
  call void @_ZNK4node9Utf8Value8ToStringB5cxx11Ev(ptr sret(%"class.std::__cxx11::basic_string") align 8 %ref.tmp57, ptr noundef nonnull align 8 dereferenceable(1048) %label)
  call void @_ZStplIcSt11char_traitsIcESaIcEENSt7__cxx1112basic_stringIT_T0_T1_EEPKS5_OS8_(ptr sret(%"class.std::__cxx11::basic_string") align 8 %ref.tmp56, ptr noundef @.str.35, ptr noundef nonnull align 8 dereferenceable(32) %ref.tmp57)
  call void @_ZStplIcSt11char_traitsIcESaIcEENSt7__cxx1112basic_stringIT_T0_T1_EEOS8_PKS5_(ptr sret(%"class.std::__cxx11::basic_string") align 8 %ref.tmp55, ptr noundef nonnull align 8 dereferenceable(32) %ref.tmp56, ptr noundef @.str.36)
  %call58 = call noundef ptr @_ZNKSt7__cxx1112basic_stringIcSt11char_traitsIcESaIcEE5c_strEv(ptr noundef nonnull align 8 dereferenceable(32) %ref.tmp55) #3
  call void @_ZN4node22THROW_ERR_OUT_OF_RANGEIJEEEvPNS_11EnvironmentEPKcDpOT_(ptr noundef %65, ptr noundef %call58)
  call void @_ZNSt7__cxx1112basic_stringIcSt11char_traitsIcESaIcEED1Ev(ptr noundef nonnull align 8 dereferenceable(32) %ref.tmp55) #3
  call void @_ZNSt7__cxx1112basic_stringIcSt11char_traitsIcESaIcEED1Ev(ptr noundef nonnull align 8 dereferenceable(32) %ref.tmp56) #3
  call void @_ZNSt7__cxx1112basic_stringIcSt11char_traitsIcESaIcEED1Ev(ptr noundef nonnull align 8 dereferenceable(32) %ref.tmp57) #3
  store i1 false, ptr %retval, align 1
  call void @_ZN4node9Utf8ValueD2Ev(ptr noundef nonnull align 8 dereferenceable(1048) %label) #3
  br label %return

if.end59:                                         ; preds = %if.then37
  br label %if.end67

if.else:                                          ; preds = %do.end34
  store ptr %value, ptr %this.addr.i125, align 8
  %this1.i127 = load ptr, ptr %this.addr.i125, align 8
  call void @llvm.memcpy.p0.p0.i64(ptr align 8 %agg.tmp.i126, ptr align 8 %this1.i127, i64 8, i1 false)
  %66 = load ptr, ptr %agg.tmp.i126, align 8
  store ptr %66, ptr %that.i182, align 8
  store ptr %ref.tmp.i183, ptr %this.addr.i184, align 8
  store ptr %that.i182, ptr %other.addr.i185, align 8
  %this1.i186 = load ptr, ptr %this.addr.i184, align 8
  %67 = load ptr, ptr %other.addr.i185, align 8
  call void @llvm.memcpy.p0.p0.i64(ptr align 8 %this1.i186, ptr align 8 %67, i64 8, i1 false)
  store ptr %retval.i181, ptr %this.addr.i187, align 8
  store ptr %ref.tmp.i183, ptr %other.addr.i188, align 8
  %this1.i189 = load ptr, ptr %this.addr.i187, align 8
  %68 = load ptr, ptr %other.addr.i188, align 8
  call void @llvm.memcpy.p0.p0.i64(ptr align 8 %this1.i189, ptr align 8 %68, i64 8, i1 false)
  %69 = load ptr, ptr %retval.i181, align 8
  store ptr %69, ptr %retval.i124, align 8
  %70 = load ptr, ptr %retval.i124, align 8
  %coerce.dive62 = getelementptr inbounds %"class.v8::Local.494", ptr %ref.tmp60, i32 0, i32 0
  %coerce.dive63 = getelementptr inbounds %"class.v8::LocalBase.495", ptr %coerce.dive62, i32 0, i32 0
  %coerce.dive64 = getelementptr inbounds %"class.v8::IndirectHandleBase", ptr %coerce.dive63, i32 0, i32 0
  store ptr %70, ptr %coerce.dive64, align 8
  store ptr %ref.tmp60, ptr %this.addr.i129, align 8
  %this1.i130 = load ptr, ptr %this.addr.i129, align 8
  store ptr %this1.i130, ptr %this.addr.i191, align 8
  %this1.i192 = load ptr, ptr %this.addr.i191, align 8
  store ptr %this1.i192, ptr %this.addr.i.i190, align 8
  %this1.i.i193 = load ptr, ptr %this.addr.i.i190, align 8
  %71 = load ptr, ptr %this1.i.i193, align 8
  store ptr %71, ptr %slot.addr.i194, align 8
  %72 = load ptr, ptr %slot.addr.i194, align 8
  %call66 = call noundef double @_ZNK2v86Number5ValueEv(ptr noundef nonnull align 1 dereferenceable(1) %72)
  %conv = fptosi double %call66 to i64
  store i64 %conv, ptr %val, align 8
  br label %if.end67

if.end67:                                         ; preds = %if.else, %if.end59
  %73 = load i64, ptr %val, align 8
  %74 = load ptr, ptr %options.addr, align 8
  %memptr.offset = getelementptr inbounds i8, ptr %74, i64 312
  store i64 %73, ptr %memptr.offset, align 8
  br label %if.end68

if.end68:                                         ; preds = %if.end67, %_ZNK2v85Value16QuickIsUndefinedEv.exit
  store i1 true, ptr %retval, align 1
  br label %return

return:                                           ; preds = %if.end68, %if.then45, %if.then
  %75 = load i1, ptr %retval, align 1
  ret i1 %75
}

declare ptr @_ZNK4node4quic11BindingData34initial_max_stream_data_uni_stringEv(ptr noundef nonnull align 8 dereferenceable(992)) #1

; Function Attrs: mustprogress nounwind uwtable
define linkonce_odr dso_local noundef zeroext i1 @_ZN4node4quic9SetOptionINS0_15TransportParams7OptionsETnMT_mXadL_ZNS3_16initial_max_dataEEEEEbPNS_11EnvironmentEPS4_RKN2v85LocalINS9_6ObjectEEERKNSA_INS9_6StringEEE(ptr noundef %env, ptr noundef %options, ptr noundef nonnull align 8 dereferenceable(8) %object, ptr noundef nonnull align 8 dereferenceable(8) %name) #4 comdat {
entry:
  %slot.addr.i194 = alloca ptr, align 8
  %this.addr.i.i190 = alloca ptr, align 8
  %this.addr.i191 = alloca ptr, align 8
  %this.addr.i187 = alloca ptr, align 8
  %other.addr.i188 = alloca ptr, align 8
  %this.addr.i184 = alloca ptr, align 8
  %other.addr.i185 = alloca ptr, align 8
  %retval.i181 = alloca %"class.v8::Local.494", align 8
  %that.i182 = alloca %"class.v8::Local", align 8
  %ref.tmp.i183 = alloca %"class.v8::LocalBase.495", align 8
  %slot.addr.i180 = alloca ptr, align 8
  %this.addr.i.i176 = alloca ptr, align 8
  %this.addr.i177 = alloca ptr, align 8
  %this.addr.i173 = alloca ptr, align 8
  %other.addr.i174 = alloca ptr, align 8
  %this.addr.i170 = alloca ptr, align 8
  %other.addr.i171 = alloca ptr, align 8
  %retval.i168 = alloca %"class.v8::Local.524", align 8
  %that.i169 = alloca %"class.v8::Local", align 8
  %ref.tmp.i = alloca %"class.v8::LocalBase.525", align 8
  %value.addr.i166 = alloca i64, align 8
  %shift_bits.i = alloca i32, align 4
  %heap_object_ptr.addr.i.i = alloca i64, align 8
  %offset.addr.i.i = alloca i32, align 4
  %addr.i.i = alloca i64, align 8
  %heap_object_ptr.addr.i164 = alloca i64, align 8
  %offset.addr.i165 = alloca i32, align 4
  %value.addr.i163 = alloca i64, align 8
  %heap_object_ptr.addr.i157 = alloca i64, align 8
  %offset.addr.i158 = alloca i32, align 4
  %addr.i159 = alloca i64, align 8
  %heap_object_ptr.addr.i154 = alloca i64, align 8
  %offset.addr.i155 = alloca i32, align 4
  %addr.i = alloca i64, align 8
  %heap_object_ptr.addr.i = alloca i64, align 8
  %offset.addr.i = alloca i32, align 4
  %obj.addr.i150 = alloca i64, align 8
  %obj.addr.i = alloca i64, align 8
  %map.i = alloca i64, align 8
  %value.addr.i148 = alloca i64, align 8
  %value.addr.i = alloca ptr, align 8
  %retval.i145 = alloca i1, align 1
  %this.addr.i146 = alloca ptr, align 8
  %obj.i = alloca i64, align 8
  %this.addr.i.i141 = alloca ptr, align 8
  %this.addr.i142 = alloca ptr, align 8
  %this.addr.i138 = alloca ptr, align 8
  %other.addr.i139 = alloca ptr, align 8
  %this.addr.i136 = alloca ptr, align 8
  %other.addr.i = alloca ptr, align 8
  %this.addr.i.i132 = alloca ptr, align 8
  %this.addr.i133 = alloca ptr, align 8
  %this.addr.i129 = alloca ptr, align 8
  %retval.i124 = alloca %"class.v8::Local.494", align 8
  %this.addr.i125 = alloca ptr, align 8
  %agg.tmp.i126 = alloca %"class.v8::Local", align 8
  %this.addr.i121 = alloca ptr, align 8
  %retval.i = alloca %"class.v8::Local.524", align 8
  %this.addr.i118 = alloca ptr, align 8
  %agg.tmp.i = alloca %"class.v8::Local", align 8
  %this.addr.i115 = alloca ptr, align 8
  %this.addr.i113 = alloca ptr, align 8
  %out.addr.i = alloca ptr, align 8
  %that.i110 = alloca %"class.v8::Local.13", align 8
  %this.addr.i111 = alloca ptr, align 8
  %that.i = alloca %"class.v8::Local.13", align 8
  %this.addr.i109 = alloca ptr, align 8
  %this.addr.i107 = alloca ptr, align 8
  %slot.addr.i106 = alloca ptr, align 8
  %slot.addr.i105 = alloca ptr, align 8
  %slot.addr.i104 = alloca ptr, align 8
  %slot.addr.i103 = alloca ptr, align 8
  %this.addr.i.i98 = alloca ptr, align 8
  %this.addr.i99 = alloca ptr, align 8
  %this.addr.i.i93 = alloca ptr, align 8
  %this.addr.i94 = alloca ptr, align 8
  %this.addr.i.i88 = alloca ptr, align 8
  %this.addr.i89 = alloca ptr, align 8
  %this.addr.i.i = alloca ptr, align 8
  %this.addr.i86 = alloca ptr, align 8
  %this.addr.i84 = alloca ptr, align 8
  %slot.addr.i = alloca ptr, align 8
  %this.addr.i81 = alloca ptr, align 8
  %this.addr.i78 = alloca ptr, align 8
  %this.addr.i75 = alloca ptr, align 8
  %this.addr.i72 = alloca ptr, align 8
  %this.addr.i69 = alloca ptr, align 8
  %this.addr.i = alloca ptr, align 8
  %retval = alloca i1, align 1
  %env.addr = alloca ptr, align 8
  %options.addr = alloca ptr, align 8
  %object.addr = alloca ptr, align 8
  %name.addr = alloca ptr, align 8
  %value = alloca %"class.v8::Local", align 8
  %ref.tmp = alloca %"class.v8::MaybeLocal.523", align 8
  %agg.tmp = alloca %"class.v8::Local.492", align 8
  %agg.tmp4 = alloca %"class.v8::Local", align 8
  %agg.tmp5 = alloca %"class.v8::Local.13", align 8
  %val = alloca i64, align 8
  %lossless = alloca i8, align 1
  %ref.tmp38 = alloca %"class.v8::Local.524", align 8
  %label = alloca %"class.node::Utf8Value", align 8
  %agg.tmp47 = alloca %"class.v8::Local", align 8
  %agg.tmp48 = alloca %"class.v8::Local.13", align 8
  %ref.tmp55 = alloca %"class.std::__cxx11::basic_string", align 8
  %ref.tmp56 = alloca %"class.std::__cxx11::basic_string", align 8
  %ref.tmp57 = alloca %"class.std::__cxx11::basic_string", align 8
  %ref.tmp60 = alloca %"class.v8::Local.494", align 8
  store ptr %env, ptr %env.addr, align 8
  store ptr %options, ptr %options.addr, align 8
  store ptr %object, ptr %object.addr, align 8
  store ptr %name, ptr %name.addr, align 8
  store ptr %value, ptr %this.addr.i107, align 8
  %this1.i108 = load ptr, ptr %this.addr.i107, align 8
  store ptr %this1.i108, ptr %this.addr.i133, align 8
  %this1.i134 = load ptr, ptr %this.addr.i133, align 8
  store ptr %this1.i134, ptr %this.addr.i.i132, align 8
  %this1.i.i135 = load ptr, ptr %this.addr.i.i132, align 8
  store ptr null, ptr %this1.i.i135, align 8
  %0 = load ptr, ptr %object.addr, align 8
  store ptr %0, ptr %this.addr.i78, align 8
  %this1.i79 = load ptr, ptr %this.addr.i78, align 8
  store ptr %this1.i79, ptr %this.addr.i81, align 8
  %this1.i82 = load ptr, ptr %this.addr.i81, align 8
  store ptr %this1.i82, ptr %this.addr.i84, align 8
  %this1.i85 = load ptr, ptr %this.addr.i84, align 8
  %1 = load ptr, ptr %this1.i85, align 8
  store ptr %1, ptr %slot.addr.i, align 8
  %2 = load ptr, ptr %slot.addr.i, align 8
  %3 = load ptr, ptr %env.addr, align 8
  %call1 = call ptr @_ZNK4node11Environment7contextEv(ptr noundef nonnull align 8 dereferenceable(2872) %3)
  %coerce.dive = getelementptr inbounds %"class.v8::Local.492", ptr %agg.tmp, i32 0, i32 0
  %coerce.dive2 = getelementptr inbounds %"class.v8::LocalBase.493", ptr %coerce.dive, i32 0, i32 0
  %coerce.dive3 = getelementptr inbounds %"class.v8::IndirectHandleBase", ptr %coerce.dive2, i32 0, i32 0
  store ptr %call1, ptr %coerce.dive3, align 8
  %4 = load ptr, ptr %name.addr, align 8
  call void @llvm.memcpy.p0.p0.i64(ptr align 8 %agg.tmp5, ptr align 8 %4, i64 8, i1 false)
  %coerce.dive6 = getelementptr inbounds %"class.v8::Local.13", ptr %agg.tmp5, i32 0, i32 0
  %coerce.dive7 = getelementptr inbounds %"class.v8::LocalBase.14", ptr %coerce.dive6, i32 0, i32 0
  %coerce.dive8 = getelementptr inbounds %"class.v8::IndirectHandleBase", ptr %coerce.dive7, i32 0, i32 0
  %5 = load ptr, ptr %coerce.dive8, align 8
  store ptr %5, ptr %that.i, align 8
  store ptr %agg.tmp4, ptr %this.addr.i109, align 8
  %this3.i = load ptr, ptr %this.addr.i109, align 8
  store ptr %this3.i, ptr %this.addr.i138, align 8
  store ptr %that.i, ptr %other.addr.i139, align 8
  %this1.i140 = load ptr, ptr %this.addr.i138, align 8
  %6 = load ptr, ptr %other.addr.i139, align 8
  call void @llvm.memcpy.p0.p0.i64(ptr align 8 %this1.i140, ptr align 8 %6, i64 8, i1 false)
  %coerce.dive9 = getelementptr inbounds %"class.v8::Local.492", ptr %agg.tmp, i32 0, i32 0
  %coerce.dive10 = getelementptr inbounds %"class.v8::LocalBase.493", ptr %coerce.dive9, i32 0, i32 0
  %coerce.dive11 = getelementptr inbounds %"class.v8::IndirectHandleBase", ptr %coerce.dive10, i32 0, i32 0
  %7 = load ptr, ptr %coerce.dive11, align 8
  %coerce.dive12 = getelementptr inbounds %"class.v8::Local", ptr %agg.tmp4, i32 0, i32 0
  %coerce.dive13 = getelementptr inbounds %"class.v8::LocalBase", ptr %coerce.dive12, i32 0, i32 0
  %coerce.dive14 = getelementptr inbounds %"class.v8::IndirectHandleBase", ptr %coerce.dive13, i32 0, i32 0
  %8 = load ptr, ptr %coerce.dive14, align 8
  %call15 = call ptr @_ZN2v86Object3GetENS_5LocalINS_7ContextEEENS1_INS_5ValueEEE(ptr noundef nonnull align 1 dereferenceable(1) %2, ptr %7, ptr %8)
  %coerce.dive16 = getelementptr inbounds %"class.v8::MaybeLocal.523", ptr %ref.tmp, i32 0, i32 0
  %coerce.dive17 = getelementptr inbounds %"class.v8::Local", ptr %coerce.dive16, i32 0, i32 0
  %coerce.dive18 = getelementptr inbounds %"class.v8::LocalBase", ptr %coerce.dive17, i32 0, i32 0
  %coerce.dive19 = getelementptr inbounds %"class.v8::IndirectHandleBase", ptr %coerce.dive18, i32 0, i32 0
  store ptr %call15, ptr %coerce.dive19, align 8
  store ptr %ref.tmp, ptr %this.addr.i113, align 8
  store ptr %value, ptr %out.addr.i, align 8
  %this1.i114 = load ptr, ptr %this.addr.i113, align 8
  %9 = load ptr, ptr %out.addr.i, align 8
  call void @llvm.memcpy.p0.p0.i64(ptr align 8 %9, ptr align 8 %this1.i114, i64 8, i1 false)
  store ptr %this1.i114, ptr %this.addr.i142, align 8
  %this1.i143 = load ptr, ptr %this.addr.i142, align 8
  store ptr %this1.i143, ptr %this.addr.i.i141, align 8
  %this1.i.i144 = load ptr, ptr %this.addr.i.i141, align 8
  %10 = load ptr, ptr %this1.i.i144, align 8
  %cmp.i.i = icmp eq ptr %10, null
  %lnot.i = xor i1 %cmp.i.i, true
  %lnot = xor i1 %lnot.i, true
  br i1 %lnot, label %if.then, label %if.end

if.then:                                          ; preds = %entry
  store i1 false, ptr %retval, align 1
  br label %return

if.end:                                           ; preds = %entry
  store ptr %value, ptr %this.addr.i75, align 8
  %this1.i76 = load ptr, ptr %this.addr.i75, align 8
  store ptr %this1.i76, ptr %this.addr.i86, align 8
  %this1.i87 = load ptr, ptr %this.addr.i86, align 8
  store ptr %this1.i87, ptr %this.addr.i.i, align 8
  %this1.i.i = load ptr, ptr %this.addr.i.i, align 8
  %11 = load ptr, ptr %this1.i.i, align 8
  store ptr %11, ptr %slot.addr.i106, align 8
  %12 = load ptr, ptr %slot.addr.i106, align 8
  store ptr %12, ptr %this.addr.i115, align 8
  %this1.i116 = load ptr, ptr %this.addr.i115, align 8
  store ptr %this1.i116, ptr %this.addr.i146, align 8
  %this1.i147 = load ptr, ptr %this.addr.i146, align 8
  store ptr %this1.i147, ptr %value.addr.i, align 8
  %13 = load ptr, ptr %value.addr.i, align 8
  %14 = load i64, ptr %13, align 8
  store i64 %14, ptr %obj.i, align 8
  %15 = load i64, ptr %obj.i, align 8
  store i64 %15, ptr %value.addr.i148, align 8
  %16 = load i64, ptr %value.addr.i148, align 8
  %and.i = and i64 %16, 3
  %cmp.i149 = icmp eq i64 %and.i, 1
  br i1 %cmp.i149, label %if.end.i, label %if.then.i

if.then.i:                                        ; preds = %if.end
  store i1 false, ptr %retval.i145, align 1
  br label %_ZNK2v85Value16QuickIsUndefinedEv.exit

if.end.i:                                         ; preds = %if.end
  %17 = load i64, ptr %obj.i, align 8
  store i64 %17, ptr %obj.addr.i, align 8
  %18 = load i64, ptr %obj.addr.i, align 8
  store i64 %18, ptr %heap_object_ptr.addr.i, align 8
  store i32 0, ptr %offset.addr.i, align 4
  %19 = load i64, ptr %heap_object_ptr.addr.i, align 8
  %20 = load i32, ptr %offset.addr.i, align 4
  store i64 %19, ptr %heap_object_ptr.addr.i157, align 8
  store i32 %20, ptr %offset.addr.i158, align 4
  %21 = load i64, ptr %heap_object_ptr.addr.i157, align 8
  %22 = load i32, ptr %offset.addr.i158, align 4
  %conv.i160 = sext i32 %22 to i64
  %add.i161 = add i64 %21, %conv.i160
  %sub.i162 = sub i64 %add.i161, 1
  store i64 %sub.i162, ptr %addr.i159, align 8
  %23 = load i64, ptr %addr.i159, align 8
  %24 = inttoptr i64 %23 to ptr
  %25 = load i64, ptr %24, align 8
  store i64 %25, ptr %map.i, align 8
  %26 = load i64, ptr %map.i, align 8
  store i64 %26, ptr %heap_object_ptr.addr.i154, align 8
  store i32 12, ptr %offset.addr.i155, align 4
  %27 = load i64, ptr %heap_object_ptr.addr.i154, align 8
  %28 = load i32, ptr %offset.addr.i155, align 4
  %conv.i156 = sext i32 %28 to i64
  %add.i = add i64 %27, %conv.i156
  %sub.i = sub i64 %add.i, 1
  store i64 %sub.i, ptr %addr.i, align 8
  %29 = load i64, ptr %addr.i, align 8
  %30 = inttoptr i64 %29 to ptr
  %31 = load i16, ptr %30, align 2
  %conv.i = zext i16 %31 to i32
  %cmp.i = icmp ne i32 %conv.i, 131
  br i1 %cmp.i, label %if.then4.i, label %if.end5.i

if.then4.i:                                       ; preds = %if.end.i
  store i1 false, ptr %retval.i145, align 1
  br label %_ZNK2v85Value16QuickIsUndefinedEv.exit

if.end5.i:                                        ; preds = %if.end.i
  %32 = load i64, ptr %obj.i, align 8
  store i64 %32, ptr %obj.addr.i150, align 8
  %33 = load i64, ptr %obj.addr.i150, align 8
  store i64 %33, ptr %heap_object_ptr.addr.i164, align 8
  store i32 40, ptr %offset.addr.i165, align 4
  %34 = load i64, ptr %heap_object_ptr.addr.i164, align 8
  %35 = load i32, ptr %offset.addr.i165, align 4
  store i64 %34, ptr %heap_object_ptr.addr.i.i, align 8
  store i32 %35, ptr %offset.addr.i.i, align 4
  %36 = load i64, ptr %heap_object_ptr.addr.i.i, align 8
  %37 = load i32, ptr %offset.addr.i.i, align 4
  %conv.i.i = sext i32 %37 to i64
  %add.i.i = add i64 %36, %conv.i.i
  %sub.i.i = sub i64 %add.i.i, 1
  store i64 %sub.i.i, ptr %addr.i.i, align 8
  %38 = load i64, ptr %addr.i.i, align 8
  %39 = inttoptr i64 %38 to ptr
  %40 = load i64, ptr %39, align 8
  store i64 %40, ptr %value.addr.i163, align 8
  %41 = load i64, ptr %value.addr.i163, align 8
  store i64 %41, ptr %value.addr.i166, align 8
  store i32 32, ptr %shift_bits.i, align 4
  %42 = load i64, ptr %value.addr.i166, align 8
  %43 = load i32, ptr %shift_bits.i, align 4
  %sh_prom.i = zext i32 %43 to i64
  %shr.i = ashr i64 %42, %sh_prom.i
  %conv.i167 = trunc i64 %shr.i to i32
  %cmp7.i = icmp eq i32 %conv.i167, 5
  store i1 %cmp7.i, ptr %retval.i145, align 1
  br label %_ZNK2v85Value16QuickIsUndefinedEv.exit

_ZNK2v85Value16QuickIsUndefinedEv.exit:           ; preds = %if.end5.i, %if.then4.i, %if.then.i
  %44 = load i1, ptr %retval.i145, align 1
  br i1 %44, label %if.end68, label %if.then23

if.then23:                                        ; preds = %_ZNK2v85Value16QuickIsUndefinedEv.exit
  br label %do.body

do.body:                                          ; preds = %if.then23
  store ptr %value, ptr %this.addr.i72, align 8
  %this1.i73 = load ptr, ptr %this.addr.i72, align 8
  store ptr %this1.i73, ptr %this.addr.i89, align 8
  %this1.i90 = load ptr, ptr %this.addr.i89, align 8
  store ptr %this1.i90, ptr %this.addr.i.i88, align 8
  %this1.i.i91 = load ptr, ptr %this.addr.i.i88, align 8
  %45 = load ptr, ptr %this1.i.i91, align 8
  store ptr %45, ptr %slot.addr.i105, align 8
  %46 = load ptr, ptr %slot.addr.i105, align 8
  %call25 = call noundef zeroext i1 @_ZNK2v85Value8IsBigIntEv(ptr noundef nonnull align 1 dereferenceable(1) %46)
  br i1 %call25, label %lor.end, label %lor.rhs

lor.rhs:                                          ; preds = %do.body
  store ptr %value, ptr %this.addr.i69, align 8
  %this1.i70 = load ptr, ptr %this.addr.i69, align 8
  store ptr %this1.i70, ptr %this.addr.i94, align 8
  %this1.i95 = load ptr, ptr %this.addr.i94, align 8
  store ptr %this1.i95, ptr %this.addr.i.i93, align 8
  %this1.i.i96 = load ptr, ptr %this.addr.i.i93, align 8
  %47 = load ptr, ptr %this1.i.i96, align 8
  store ptr %47, ptr %slot.addr.i104, align 8
  %48 = load ptr, ptr %slot.addr.i104, align 8
  %call27 = call noundef zeroext i1 @_ZNK2v85Value8IsNumberEv(ptr noundef nonnull align 1 dereferenceable(1) %48)
  br label %lor.end

lor.end:                                          ; preds = %lor.rhs, %do.body
  %49 = phi i1 [ true, %do.body ], [ %call27, %lor.rhs ]
  %lnot28 = xor i1 %49, true
  %lnot29 = xor i1 %lnot28, true
  %lnot30 = xor i1 %lnot29, true
  br i1 %lnot30, label %if.then31, label %if.end33

if.then31:                                        ; preds = %lor.end
  br label %do.body32

do.body32:                                        ; preds = %if.then31
  call void @_ZN4node6AssertERKNS_13AssertionInfoE(ptr noundef nonnull align 8 dereferenceable(24) @_ZZN4node4quic9SetOptionINS0_15TransportParams7OptionsETnMT_mXadL_ZNS3_16initial_max_dataEEEEEbPNS_11EnvironmentEPS4_RKN2v85LocalINS9_6ObjectEEERKNSA_INS9_6StringEEEE4args)
  call void @abort() #16
  unreachable

do.end:                                           ; No predecessors!
  br label %if.end33

if.end33:                                         ; preds = %do.end, %lor.end
  br label %do.end34

do.end34:                                         ; preds = %if.end33
  store i64 0, ptr %val, align 8
  store ptr %value, ptr %this.addr.i, align 8
  %this1.i = load ptr, ptr %this.addr.i, align 8
  store ptr %this1.i, ptr %this.addr.i99, align 8
  %this1.i100 = load ptr, ptr %this.addr.i99, align 8
  store ptr %this1.i100, ptr %this.addr.i.i98, align 8
  %this1.i.i101 = load ptr, ptr %this.addr.i.i98, align 8
  %50 = load ptr, ptr %this1.i.i101, align 8
  store ptr %50, ptr %slot.addr.i103, align 8
  %51 = load ptr, ptr %slot.addr.i103, align 8
  %call36 = call noundef zeroext i1 @_ZNK2v85Value8IsBigIntEv(ptr noundef nonnull align 1 dereferenceable(1) %51)
  br i1 %call36, label %if.then37, label %if.else

if.then37:                                        ; preds = %do.end34
  store i8 1, ptr %lossless, align 1
  store ptr %value, ptr %this.addr.i118, align 8
  %this1.i119 = load ptr, ptr %this.addr.i118, align 8
  call void @llvm.memcpy.p0.p0.i64(ptr align 8 %agg.tmp.i, ptr align 8 %this1.i119, i64 8, i1 false)
  %52 = load ptr, ptr %agg.tmp.i, align 8
  store ptr %52, ptr %that.i169, align 8
  store ptr %ref.tmp.i, ptr %this.addr.i170, align 8
  store ptr %that.i169, ptr %other.addr.i171, align 8
  %this1.i172 = load ptr, ptr %this.addr.i170, align 8
  %53 = load ptr, ptr %other.addr.i171, align 8
  call void @llvm.memcpy.p0.p0.i64(ptr align 8 %this1.i172, ptr align 8 %53, i64 8, i1 false)
  store ptr %retval.i168, ptr %this.addr.i173, align 8
  store ptr %ref.tmp.i, ptr %other.addr.i174, align 8
  %this1.i175 = load ptr, ptr %this.addr.i173, align 8
  %54 = load ptr, ptr %other.addr.i174, align 8
  call void @llvm.memcpy.p0.p0.i64(ptr align 8 %this1.i175, ptr align 8 %54, i64 8, i1 false)
  %55 = load ptr, ptr %retval.i168, align 8
  store ptr %55, ptr %retval.i, align 8
  %56 = load ptr, ptr %retval.i, align 8
  %coerce.dive40 = getelementptr inbounds %"class.v8::Local.524", ptr %ref.tmp38, i32 0, i32 0
  %coerce.dive41 = getelementptr inbounds %"class.v8::LocalBase.525", ptr %coerce.dive40, i32 0, i32 0
  %coerce.dive42 = getelementptr inbounds %"class.v8::IndirectHandleBase", ptr %coerce.dive41, i32 0, i32 0
  store ptr %56, ptr %coerce.dive42, align 8
  store ptr %ref.tmp38, ptr %this.addr.i121, align 8
  %this1.i122 = load ptr, ptr %this.addr.i121, align 8
  store ptr %this1.i122, ptr %this.addr.i177, align 8
  %this1.i178 = load ptr, ptr %this.addr.i177, align 8
  store ptr %this1.i178, ptr %this.addr.i.i176, align 8
  %this1.i.i179 = load ptr, ptr %this.addr.i.i176, align 8
  %57 = load ptr, ptr %this1.i.i179, align 8
  store ptr %57, ptr %slot.addr.i180, align 8
  %58 = load ptr, ptr %slot.addr.i180, align 8
  %call44 = call noundef i64 @_ZNK2v86BigInt11Uint64ValueEPb(ptr noundef nonnull align 1 dereferenceable(1) %58, ptr noundef %lossless)
  store i64 %call44, ptr %val, align 8
  %59 = load i8, ptr %lossless, align 1
  %tobool = trunc i8 %59 to i1
  br i1 %tobool, label %if.end59, label %if.then45

if.then45:                                        ; preds = %if.then37
  %60 = load ptr, ptr %env.addr, align 8
  %call46 = call noundef ptr @_ZNK4node11Environment7isolateEv(ptr noundef nonnull align 8 dereferenceable(2872) %60)
  %61 = load ptr, ptr %name.addr, align 8
  call void @llvm.memcpy.p0.p0.i64(ptr align 8 %agg.tmp48, ptr align 8 %61, i64 8, i1 false)
  %coerce.dive49 = getelementptr inbounds %"class.v8::Local.13", ptr %agg.tmp48, i32 0, i32 0
  %coerce.dive50 = getelementptr inbounds %"class.v8::LocalBase.14", ptr %coerce.dive49, i32 0, i32 0
  %coerce.dive51 = getelementptr inbounds %"class.v8::IndirectHandleBase", ptr %coerce.dive50, i32 0, i32 0
  %62 = load ptr, ptr %coerce.dive51, align 8
  store ptr %62, ptr %that.i110, align 8
  store ptr %agg.tmp47, ptr %this.addr.i111, align 8
  %this3.i112 = load ptr, ptr %this.addr.i111, align 8
  store ptr %this3.i112, ptr %this.addr.i136, align 8
  store ptr %that.i110, ptr %other.addr.i, align 8
  %this1.i137 = load ptr, ptr %this.addr.i136, align 8
  %63 = load ptr, ptr %other.addr.i, align 8
  call void @llvm.memcpy.p0.p0.i64(ptr align 8 %this1.i137, ptr align 8 %63, i64 8, i1 false)
  %coerce.dive52 = getelementptr inbounds %"class.v8::Local", ptr %agg.tmp47, i32 0, i32 0
  %coerce.dive53 = getelementptr inbounds %"class.v8::LocalBase", ptr %coerce.dive52, i32 0, i32 0
  %coerce.dive54 = getelementptr inbounds %"class.v8::IndirectHandleBase", ptr %coerce.dive53, i32 0, i32 0
  %64 = load ptr, ptr %coerce.dive54, align 8
  call void @_ZN4node9Utf8ValueC1EPN2v87IsolateENS1_5LocalINS1_5ValueEEE(ptr noundef nonnull align 8 dereferenceable(1048) %label, ptr noundef %call46, ptr %64)
  %65 = load ptr, ptr %env.addr, align 8
  call void @_ZNK4node9Utf8Value8ToStringB5cxx11Ev(ptr sret(%"class.std::__cxx11::basic_string") align 8 %ref.tmp57, ptr noundef nonnull align 8 dereferenceable(1048) %label)
  call void @_ZStplIcSt11char_traitsIcESaIcEENSt7__cxx1112basic_stringIT_T0_T1_EEPKS5_OS8_(ptr sret(%"class.std::__cxx11::basic_string") align 8 %ref.tmp56, ptr noundef @.str.35, ptr noundef nonnull align 8 dereferenceable(32) %ref.tmp57)
  call void @_ZStplIcSt11char_traitsIcESaIcEENSt7__cxx1112basic_stringIT_T0_T1_EEOS8_PKS5_(ptr sret(%"class.std::__cxx11::basic_string") align 8 %ref.tmp55, ptr noundef nonnull align 8 dereferenceable(32) %ref.tmp56, ptr noundef @.str.36)
  %call58 = call noundef ptr @_ZNKSt7__cxx1112basic_stringIcSt11char_traitsIcESaIcEE5c_strEv(ptr noundef nonnull align 8 dereferenceable(32) %ref.tmp55) #3
  call void @_ZN4node22THROW_ERR_OUT_OF_RANGEIJEEEvPNS_11EnvironmentEPKcDpOT_(ptr noundef %65, ptr noundef %call58)
  call void @_ZNSt7__cxx1112basic_stringIcSt11char_traitsIcESaIcEED1Ev(ptr noundef nonnull align 8 dereferenceable(32) %ref.tmp55) #3
  call void @_ZNSt7__cxx1112basic_stringIcSt11char_traitsIcESaIcEED1Ev(ptr noundef nonnull align 8 dereferenceable(32) %ref.tmp56) #3
  call void @_ZNSt7__cxx1112basic_stringIcSt11char_traitsIcESaIcEED1Ev(ptr noundef nonnull align 8 dereferenceable(32) %ref.tmp57) #3
  store i1 false, ptr %retval, align 1
  call void @_ZN4node9Utf8ValueD2Ev(ptr noundef nonnull align 8 dereferenceable(1048) %label) #3
  br label %return

if.end59:                                         ; preds = %if.then37
  br label %if.end67

if.else:                                          ; preds = %do.end34
  store ptr %value, ptr %this.addr.i125, align 8
  %this1.i127 = load ptr, ptr %this.addr.i125, align 8
  call void @llvm.memcpy.p0.p0.i64(ptr align 8 %agg.tmp.i126, ptr align 8 %this1.i127, i64 8, i1 false)
  %66 = load ptr, ptr %agg.tmp.i126, align 8
  store ptr %66, ptr %that.i182, align 8
  store ptr %ref.tmp.i183, ptr %this.addr.i184, align 8
  store ptr %that.i182, ptr %other.addr.i185, align 8
  %this1.i186 = load ptr, ptr %this.addr.i184, align 8
  %67 = load ptr, ptr %other.addr.i185, align 8
  call void @llvm.memcpy.p0.p0.i64(ptr align 8 %this1.i186, ptr align 8 %67, i64 8, i1 false)
  store ptr %retval.i181, ptr %this.addr.i187, align 8
  store ptr %ref.tmp.i183, ptr %other.addr.i188, align 8
  %this1.i189 = load ptr, ptr %this.addr.i187, align 8
  %68 = load ptr, ptr %other.addr.i188, align 8
  call void @llvm.memcpy.p0.p0.i64(ptr align 8 %this1.i189, ptr align 8 %68, i64 8, i1 false)
  %69 = load ptr, ptr %retval.i181, align 8
  store ptr %69, ptr %retval.i124, align 8
  %70 = load ptr, ptr %retval.i124, align 8
  %coerce.dive62 = getelementptr inbounds %"class.v8::Local.494", ptr %ref.tmp60, i32 0, i32 0
  %coerce.dive63 = getelementptr inbounds %"class.v8::LocalBase.495", ptr %coerce.dive62, i32 0, i32 0
  %coerce.dive64 = getelementptr inbounds %"class.v8::IndirectHandleBase", ptr %coerce.dive63, i32 0, i32 0
  store ptr %70, ptr %coerce.dive64, align 8
  store ptr %ref.tmp60, ptr %this.addr.i129, align 8
  %this1.i130 = load ptr, ptr %this.addr.i129, align 8
  store ptr %this1.i130, ptr %this.addr.i191, align 8
  %this1.i192 = load ptr, ptr %this.addr.i191, align 8
  store ptr %this1.i192, ptr %this.addr.i.i190, align 8
  %this1.i.i193 = load ptr, ptr %this.addr.i.i190, align 8
  %71 = load ptr, ptr %this1.i.i193, align 8
  store ptr %71, ptr %slot.addr.i194, align 8
  %72 = load ptr, ptr %slot.addr.i194, align 8
  %call66 = call noundef double @_ZNK2v86Number5ValueEv(ptr noundef nonnull align 1 dereferenceable(1) %72)
  %conv = fptosi double %call66 to i64
  store i64 %conv, ptr %val, align 8
  br label %if.end67

if.end67:                                         ; preds = %if.else, %if.end59
  %73 = load i64, ptr %val, align 8
  %74 = load ptr, ptr %options.addr, align 8
  %memptr.offset = getelementptr inbounds i8, ptr %74, i64 320
  store i64 %73, ptr %memptr.offset, align 8
  br label %if.end68

if.end68:                                         ; preds = %if.end67, %_ZNK2v85Value16QuickIsUndefinedEv.exit
  store i1 true, ptr %retval, align 1
  br label %return

return:                                           ; preds = %if.end68, %if.then45, %if.then
  %75 = load i1, ptr %retval, align 1
  ret i1 %75
}

declare ptr @_ZNK4node4quic11BindingData23initial_max_data_stringEv(ptr noundef nonnull align 8 dereferenceable(992)) #1

; Function Attrs: mustprogress nounwind uwtable
define linkonce_odr dso_local noundef zeroext i1 @_ZN4node4quic9SetOptionINS0_15TransportParams7OptionsETnMT_mXadL_ZNS3_24initial_max_streams_bidiEEEEEbPNS_11EnvironmentEPS4_RKN2v85LocalINS9_6ObjectEEERKNSA_INS9_6StringEEE(ptr noundef %env, ptr noundef %options, ptr noundef nonnull align 8 dereferenceable(8) %object, ptr noundef nonnull align 8 dereferenceable(8) %name) #4 comdat {
entry:
  %slot.addr.i194 = alloca ptr, align 8
  %this.addr.i.i190 = alloca ptr, align 8
  %this.addr.i191 = alloca ptr, align 8
  %this.addr.i187 = alloca ptr, align 8
  %other.addr.i188 = alloca ptr, align 8
  %this.addr.i184 = alloca ptr, align 8
  %other.addr.i185 = alloca ptr, align 8
  %retval.i181 = alloca %"class.v8::Local.494", align 8
  %that.i182 = alloca %"class.v8::Local", align 8
  %ref.tmp.i183 = alloca %"class.v8::LocalBase.495", align 8
  %slot.addr.i180 = alloca ptr, align 8
  %this.addr.i.i176 = alloca ptr, align 8
  %this.addr.i177 = alloca ptr, align 8
  %this.addr.i173 = alloca ptr, align 8
  %other.addr.i174 = alloca ptr, align 8
  %this.addr.i170 = alloca ptr, align 8
  %other.addr.i171 = alloca ptr, align 8
  %retval.i168 = alloca %"class.v8::Local.524", align 8
  %that.i169 = alloca %"class.v8::Local", align 8
  %ref.tmp.i = alloca %"class.v8::LocalBase.525", align 8
  %value.addr.i166 = alloca i64, align 8
  %shift_bits.i = alloca i32, align 4
  %heap_object_ptr.addr.i.i = alloca i64, align 8
  %offset.addr.i.i = alloca i32, align 4
  %addr.i.i = alloca i64, align 8
  %heap_object_ptr.addr.i164 = alloca i64, align 8
  %offset.addr.i165 = alloca i32, align 4
  %value.addr.i163 = alloca i64, align 8
  %heap_object_ptr.addr.i157 = alloca i64, align 8
  %offset.addr.i158 = alloca i32, align 4
  %addr.i159 = alloca i64, align 8
  %heap_object_ptr.addr.i154 = alloca i64, align 8
  %offset.addr.i155 = alloca i32, align 4
  %addr.i = alloca i64, align 8
  %heap_object_ptr.addr.i = alloca i64, align 8
  %offset.addr.i = alloca i32, align 4
  %obj.addr.i150 = alloca i64, align 8
  %obj.addr.i = alloca i64, align 8
  %map.i = alloca i64, align 8
  %value.addr.i148 = alloca i64, align 8
  %value.addr.i = alloca ptr, align 8
  %retval.i145 = alloca i1, align 1
  %this.addr.i146 = alloca ptr, align 8
  %obj.i = alloca i64, align 8
  %this.addr.i.i141 = alloca ptr, align 8
  %this.addr.i142 = alloca ptr, align 8
  %this.addr.i138 = alloca ptr, align 8
  %other.addr.i139 = alloca ptr, align 8
  %this.addr.i136 = alloca ptr, align 8
  %other.addr.i = alloca ptr, align 8
  %this.addr.i.i132 = alloca ptr, align 8
  %this.addr.i133 = alloca ptr, align 8
  %this.addr.i129 = alloca ptr, align 8
  %retval.i124 = alloca %"class.v8::Local.494", align 8
  %this.addr.i125 = alloca ptr, align 8
  %agg.tmp.i126 = alloca %"class.v8::Local", align 8
  %this.addr.i121 = alloca ptr, align 8
  %retval.i = alloca %"class.v8::Local.524", align 8
  %this.addr.i118 = alloca ptr, align 8
  %agg.tmp.i = alloca %"class.v8::Local", align 8
  %this.addr.i115 = alloca ptr, align 8
  %this.addr.i113 = alloca ptr, align 8
  %out.addr.i = alloca ptr, align 8
  %that.i110 = alloca %"class.v8::Local.13", align 8
  %this.addr.i111 = alloca ptr, align 8
  %that.i = alloca %"class.v8::Local.13", align 8
  %this.addr.i109 = alloca ptr, align 8
  %this.addr.i107 = alloca ptr, align 8
  %slot.addr.i106 = alloca ptr, align 8
  %slot.addr.i105 = alloca ptr, align 8
  %slot.addr.i104 = alloca ptr, align 8
  %slot.addr.i103 = alloca ptr, align 8
  %this.addr.i.i98 = alloca ptr, align 8
  %this.addr.i99 = alloca ptr, align 8
  %this.addr.i.i93 = alloca ptr, align 8
  %this.addr.i94 = alloca ptr, align 8
  %this.addr.i.i88 = alloca ptr, align 8
  %this.addr.i89 = alloca ptr, align 8
  %this.addr.i.i = alloca ptr, align 8
  %this.addr.i86 = alloca ptr, align 8
  %this.addr.i84 = alloca ptr, align 8
  %slot.addr.i = alloca ptr, align 8
  %this.addr.i81 = alloca ptr, align 8
  %this.addr.i78 = alloca ptr, align 8
  %this.addr.i75 = alloca ptr, align 8
  %this.addr.i72 = alloca ptr, align 8
  %this.addr.i69 = alloca ptr, align 8
  %this.addr.i = alloca ptr, align 8
  %retval = alloca i1, align 1
  %env.addr = alloca ptr, align 8
  %options.addr = alloca ptr, align 8
  %object.addr = alloca ptr, align 8
  %name.addr = alloca ptr, align 8
  %value = alloca %"class.v8::Local", align 8
  %ref.tmp = alloca %"class.v8::MaybeLocal.523", align 8
  %agg.tmp = alloca %"class.v8::Local.492", align 8
  %agg.tmp4 = alloca %"class.v8::Local", align 8
  %agg.tmp5 = alloca %"class.v8::Local.13", align 8
  %val = alloca i64, align 8
  %lossless = alloca i8, align 1
  %ref.tmp38 = alloca %"class.v8::Local.524", align 8
  %label = alloca %"class.node::Utf8Value", align 8
  %agg.tmp47 = alloca %"class.v8::Local", align 8
  %agg.tmp48 = alloca %"class.v8::Local.13", align 8
  %ref.tmp55 = alloca %"class.std::__cxx11::basic_string", align 8
  %ref.tmp56 = alloca %"class.std::__cxx11::basic_string", align 8
  %ref.tmp57 = alloca %"class.std::__cxx11::basic_string", align 8
  %ref.tmp60 = alloca %"class.v8::Local.494", align 8
  store ptr %env, ptr %env.addr, align 8
  store ptr %options, ptr %options.addr, align 8
  store ptr %object, ptr %object.addr, align 8
  store ptr %name, ptr %name.addr, align 8
  store ptr %value, ptr %this.addr.i107, align 8
  %this1.i108 = load ptr, ptr %this.addr.i107, align 8
  store ptr %this1.i108, ptr %this.addr.i133, align 8
  %this1.i134 = load ptr, ptr %this.addr.i133, align 8
  store ptr %this1.i134, ptr %this.addr.i.i132, align 8
  %this1.i.i135 = load ptr, ptr %this.addr.i.i132, align 8
  store ptr null, ptr %this1.i.i135, align 8
  %0 = load ptr, ptr %object.addr, align 8
  store ptr %0, ptr %this.addr.i78, align 8
  %this1.i79 = load ptr, ptr %this.addr.i78, align 8
  store ptr %this1.i79, ptr %this.addr.i81, align 8
  %this1.i82 = load ptr, ptr %this.addr.i81, align 8
  store ptr %this1.i82, ptr %this.addr.i84, align 8
  %this1.i85 = load ptr, ptr %this.addr.i84, align 8
  %1 = load ptr, ptr %this1.i85, align 8
  store ptr %1, ptr %slot.addr.i, align 8
  %2 = load ptr, ptr %slot.addr.i, align 8
  %3 = load ptr, ptr %env.addr, align 8
  %call1 = call ptr @_ZNK4node11Environment7contextEv(ptr noundef nonnull align 8 dereferenceable(2872) %3)
  %coerce.dive = getelementptr inbounds %"class.v8::Local.492", ptr %agg.tmp, i32 0, i32 0
  %coerce.dive2 = getelementptr inbounds %"class.v8::LocalBase.493", ptr %coerce.dive, i32 0, i32 0
  %coerce.dive3 = getelementptr inbounds %"class.v8::IndirectHandleBase", ptr %coerce.dive2, i32 0, i32 0
  store ptr %call1, ptr %coerce.dive3, align 8
  %4 = load ptr, ptr %name.addr, align 8
  call void @llvm.memcpy.p0.p0.i64(ptr align 8 %agg.tmp5, ptr align 8 %4, i64 8, i1 false)
  %coerce.dive6 = getelementptr inbounds %"class.v8::Local.13", ptr %agg.tmp5, i32 0, i32 0
  %coerce.dive7 = getelementptr inbounds %"class.v8::LocalBase.14", ptr %coerce.dive6, i32 0, i32 0
  %coerce.dive8 = getelementptr inbounds %"class.v8::IndirectHandleBase", ptr %coerce.dive7, i32 0, i32 0
  %5 = load ptr, ptr %coerce.dive8, align 8
  store ptr %5, ptr %that.i, align 8
  store ptr %agg.tmp4, ptr %this.addr.i109, align 8
  %this3.i = load ptr, ptr %this.addr.i109, align 8
  store ptr %this3.i, ptr %this.addr.i138, align 8
  store ptr %that.i, ptr %other.addr.i139, align 8
  %this1.i140 = load ptr, ptr %this.addr.i138, align 8
  %6 = load ptr, ptr %other.addr.i139, align 8
  call void @llvm.memcpy.p0.p0.i64(ptr align 8 %this1.i140, ptr align 8 %6, i64 8, i1 false)
  %coerce.dive9 = getelementptr inbounds %"class.v8::Local.492", ptr %agg.tmp, i32 0, i32 0
  %coerce.dive10 = getelementptr inbounds %"class.v8::LocalBase.493", ptr %coerce.dive9, i32 0, i32 0
  %coerce.dive11 = getelementptr inbounds %"class.v8::IndirectHandleBase", ptr %coerce.dive10, i32 0, i32 0
  %7 = load ptr, ptr %coerce.dive11, align 8
  %coerce.dive12 = getelementptr inbounds %"class.v8::Local", ptr %agg.tmp4, i32 0, i32 0
  %coerce.dive13 = getelementptr inbounds %"class.v8::LocalBase", ptr %coerce.dive12, i32 0, i32 0
  %coerce.dive14 = getelementptr inbounds %"class.v8::IndirectHandleBase", ptr %coerce.dive13, i32 0, i32 0
  %8 = load ptr, ptr %coerce.dive14, align 8
  %call15 = call ptr @_ZN2v86Object3GetENS_5LocalINS_7ContextEEENS1_INS_5ValueEEE(ptr noundef nonnull align 1 dereferenceable(1) %2, ptr %7, ptr %8)
  %coerce.dive16 = getelementptr inbounds %"class.v8::MaybeLocal.523", ptr %ref.tmp, i32 0, i32 0
  %coerce.dive17 = getelementptr inbounds %"class.v8::Local", ptr %coerce.dive16, i32 0, i32 0
  %coerce.dive18 = getelementptr inbounds %"class.v8::LocalBase", ptr %coerce.dive17, i32 0, i32 0
  %coerce.dive19 = getelementptr inbounds %"class.v8::IndirectHandleBase", ptr %coerce.dive18, i32 0, i32 0
  store ptr %call15, ptr %coerce.dive19, align 8
  store ptr %ref.tmp, ptr %this.addr.i113, align 8
  store ptr %value, ptr %out.addr.i, align 8
  %this1.i114 = load ptr, ptr %this.addr.i113, align 8
  %9 = load ptr, ptr %out.addr.i, align 8
  call void @llvm.memcpy.p0.p0.i64(ptr align 8 %9, ptr align 8 %this1.i114, i64 8, i1 false)
  store ptr %this1.i114, ptr %this.addr.i142, align 8
  %this1.i143 = load ptr, ptr %this.addr.i142, align 8
  store ptr %this1.i143, ptr %this.addr.i.i141, align 8
  %this1.i.i144 = load ptr, ptr %this.addr.i.i141, align 8
  %10 = load ptr, ptr %this1.i.i144, align 8
  %cmp.i.i = icmp eq ptr %10, null
  %lnot.i = xor i1 %cmp.i.i, true
  %lnot = xor i1 %lnot.i, true
  br i1 %lnot, label %if.then, label %if.end

if.then:                                          ; preds = %entry
  store i1 false, ptr %retval, align 1
  br label %return

if.end:                                           ; preds = %entry
  store ptr %value, ptr %this.addr.i75, align 8
  %this1.i76 = load ptr, ptr %this.addr.i75, align 8
  store ptr %this1.i76, ptr %this.addr.i86, align 8
  %this1.i87 = load ptr, ptr %this.addr.i86, align 8
  store ptr %this1.i87, ptr %this.addr.i.i, align 8
  %this1.i.i = load ptr, ptr %this.addr.i.i, align 8
  %11 = load ptr, ptr %this1.i.i, align 8
  store ptr %11, ptr %slot.addr.i106, align 8
  %12 = load ptr, ptr %slot.addr.i106, align 8
  store ptr %12, ptr %this.addr.i115, align 8
  %this1.i116 = load ptr, ptr %this.addr.i115, align 8
  store ptr %this1.i116, ptr %this.addr.i146, align 8
  %this1.i147 = load ptr, ptr %this.addr.i146, align 8
  store ptr %this1.i147, ptr %value.addr.i, align 8
  %13 = load ptr, ptr %value.addr.i, align 8
  %14 = load i64, ptr %13, align 8
  store i64 %14, ptr %obj.i, align 8
  %15 = load i64, ptr %obj.i, align 8
  store i64 %15, ptr %value.addr.i148, align 8
  %16 = load i64, ptr %value.addr.i148, align 8
  %and.i = and i64 %16, 3
  %cmp.i149 = icmp eq i64 %and.i, 1
  br i1 %cmp.i149, label %if.end.i, label %if.then.i

if.then.i:                                        ; preds = %if.end
  store i1 false, ptr %retval.i145, align 1
  br label %_ZNK2v85Value16QuickIsUndefinedEv.exit

if.end.i:                                         ; preds = %if.end
  %17 = load i64, ptr %obj.i, align 8
  store i64 %17, ptr %obj.addr.i, align 8
  %18 = load i64, ptr %obj.addr.i, align 8
  store i64 %18, ptr %heap_object_ptr.addr.i, align 8
  store i32 0, ptr %offset.addr.i, align 4
  %19 = load i64, ptr %heap_object_ptr.addr.i, align 8
  %20 = load i32, ptr %offset.addr.i, align 4
  store i64 %19, ptr %heap_object_ptr.addr.i157, align 8
  store i32 %20, ptr %offset.addr.i158, align 4
  %21 = load i64, ptr %heap_object_ptr.addr.i157, align 8
  %22 = load i32, ptr %offset.addr.i158, align 4
  %conv.i160 = sext i32 %22 to i64
  %add.i161 = add i64 %21, %conv.i160
  %sub.i162 = sub i64 %add.i161, 1
  store i64 %sub.i162, ptr %addr.i159, align 8
  %23 = load i64, ptr %addr.i159, align 8
  %24 = inttoptr i64 %23 to ptr
  %25 = load i64, ptr %24, align 8
  store i64 %25, ptr %map.i, align 8
  %26 = load i64, ptr %map.i, align 8
  store i64 %26, ptr %heap_object_ptr.addr.i154, align 8
  store i32 12, ptr %offset.addr.i155, align 4
  %27 = load i64, ptr %heap_object_ptr.addr.i154, align 8
  %28 = load i32, ptr %offset.addr.i155, align 4
  %conv.i156 = sext i32 %28 to i64
  %add.i = add i64 %27, %conv.i156
  %sub.i = sub i64 %add.i, 1
  store i64 %sub.i, ptr %addr.i, align 8
  %29 = load i64, ptr %addr.i, align 8
  %30 = inttoptr i64 %29 to ptr
  %31 = load i16, ptr %30, align 2
  %conv.i = zext i16 %31 to i32
  %cmp.i = icmp ne i32 %conv.i, 131
  br i1 %cmp.i, label %if.then4.i, label %if.end5.i

if.then4.i:                                       ; preds = %if.end.i
  store i1 false, ptr %retval.i145, align 1
  br label %_ZNK2v85Value16QuickIsUndefinedEv.exit

if.end5.i:                                        ; preds = %if.end.i
  %32 = load i64, ptr %obj.i, align 8
  store i64 %32, ptr %obj.addr.i150, align 8
  %33 = load i64, ptr %obj.addr.i150, align 8
  store i64 %33, ptr %heap_object_ptr.addr.i164, align 8
  store i32 40, ptr %offset.addr.i165, align 4
  %34 = load i64, ptr %heap_object_ptr.addr.i164, align 8
  %35 = load i32, ptr %offset.addr.i165, align 4
  store i64 %34, ptr %heap_object_ptr.addr.i.i, align 8
  store i32 %35, ptr %offset.addr.i.i, align 4
  %36 = load i64, ptr %heap_object_ptr.addr.i.i, align 8
  %37 = load i32, ptr %offset.addr.i.i, align 4
  %conv.i.i = sext i32 %37 to i64
  %add.i.i = add i64 %36, %conv.i.i
  %sub.i.i = sub i64 %add.i.i, 1
  store i64 %sub.i.i, ptr %addr.i.i, align 8
  %38 = load i64, ptr %addr.i.i, align 8
  %39 = inttoptr i64 %38 to ptr
  %40 = load i64, ptr %39, align 8
  store i64 %40, ptr %value.addr.i163, align 8
  %41 = load i64, ptr %value.addr.i163, align 8
  store i64 %41, ptr %value.addr.i166, align 8
  store i32 32, ptr %shift_bits.i, align 4
  %42 = load i64, ptr %value.addr.i166, align 8
  %43 = load i32, ptr %shift_bits.i, align 4
  %sh_prom.i = zext i32 %43 to i64
  %shr.i = ashr i64 %42, %sh_prom.i
  %conv.i167 = trunc i64 %shr.i to i32
  %cmp7.i = icmp eq i32 %conv.i167, 5
  store i1 %cmp7.i, ptr %retval.i145, align 1
  br label %_ZNK2v85Value16QuickIsUndefinedEv.exit

_ZNK2v85Value16QuickIsUndefinedEv.exit:           ; preds = %if.end5.i, %if.then4.i, %if.then.i
  %44 = load i1, ptr %retval.i145, align 1
  br i1 %44, label %if.end68, label %if.then23

if.then23:                                        ; preds = %_ZNK2v85Value16QuickIsUndefinedEv.exit
  br label %do.body

do.body:                                          ; preds = %if.then23
  store ptr %value, ptr %this.addr.i72, align 8
  %this1.i73 = load ptr, ptr %this.addr.i72, align 8
  store ptr %this1.i73, ptr %this.addr.i89, align 8
  %this1.i90 = load ptr, ptr %this.addr.i89, align 8
  store ptr %this1.i90, ptr %this.addr.i.i88, align 8
  %this1.i.i91 = load ptr, ptr %this.addr.i.i88, align 8
  %45 = load ptr, ptr %this1.i.i91, align 8
  store ptr %45, ptr %slot.addr.i105, align 8
  %46 = load ptr, ptr %slot.addr.i105, align 8
  %call25 = call noundef zeroext i1 @_ZNK2v85Value8IsBigIntEv(ptr noundef nonnull align 1 dereferenceable(1) %46)
  br i1 %call25, label %lor.end, label %lor.rhs

lor.rhs:                                          ; preds = %do.body
  store ptr %value, ptr %this.addr.i69, align 8
  %this1.i70 = load ptr, ptr %this.addr.i69, align 8
  store ptr %this1.i70, ptr %this.addr.i94, align 8
  %this1.i95 = load ptr, ptr %this.addr.i94, align 8
  store ptr %this1.i95, ptr %this.addr.i.i93, align 8
  %this1.i.i96 = load ptr, ptr %this.addr.i.i93, align 8
  %47 = load ptr, ptr %this1.i.i96, align 8
  store ptr %47, ptr %slot.addr.i104, align 8
  %48 = load ptr, ptr %slot.addr.i104, align 8
  %call27 = call noundef zeroext i1 @_ZNK2v85Value8IsNumberEv(ptr noundef nonnull align 1 dereferenceable(1) %48)
  br label %lor.end

lor.end:                                          ; preds = %lor.rhs, %do.body
  %49 = phi i1 [ true, %do.body ], [ %call27, %lor.rhs ]
  %lnot28 = xor i1 %49, true
  %lnot29 = xor i1 %lnot28, true
  %lnot30 = xor i1 %lnot29, true
  br i1 %lnot30, label %if.then31, label %if.end33

if.then31:                                        ; preds = %lor.end
  br label %do.body32

do.body32:                                        ; preds = %if.then31
  call void @_ZN4node6AssertERKNS_13AssertionInfoE(ptr noundef nonnull align 8 dereferenceable(24) @_ZZN4node4quic9SetOptionINS0_15TransportParams7OptionsETnMT_mXadL_ZNS3_24initial_max_streams_bidiEEEEEbPNS_11EnvironmentEPS4_RKN2v85LocalINS9_6ObjectEEERKNSA_INS9_6StringEEEE4args)
  call void @abort() #16
  unreachable

do.end:                                           ; No predecessors!
  br label %if.end33

if.end33:                                         ; preds = %do.end, %lor.end
  br label %do.end34

do.end34:                                         ; preds = %if.end33
  store i64 0, ptr %val, align 8
  store ptr %value, ptr %this.addr.i, align 8
  %this1.i = load ptr, ptr %this.addr.i, align 8
  store ptr %this1.i, ptr %this.addr.i99, align 8
  %this1.i100 = load ptr, ptr %this.addr.i99, align 8
  store ptr %this1.i100, ptr %this.addr.i.i98, align 8
  %this1.i.i101 = load ptr, ptr %this.addr.i.i98, align 8
  %50 = load ptr, ptr %this1.i.i101, align 8
  store ptr %50, ptr %slot.addr.i103, align 8
  %51 = load ptr, ptr %slot.addr.i103, align 8
  %call36 = call noundef zeroext i1 @_ZNK2v85Value8IsBigIntEv(ptr noundef nonnull align 1 dereferenceable(1) %51)
  br i1 %call36, label %if.then37, label %if.else

if.then37:                                        ; preds = %do.end34
  store i8 1, ptr %lossless, align 1
  store ptr %value, ptr %this.addr.i118, align 8
  %this1.i119 = load ptr, ptr %this.addr.i118, align 8
  call void @llvm.memcpy.p0.p0.i64(ptr align 8 %agg.tmp.i, ptr align 8 %this1.i119, i64 8, i1 false)
  %52 = load ptr, ptr %agg.tmp.i, align 8
  store ptr %52, ptr %that.i169, align 8
  store ptr %ref.tmp.i, ptr %this.addr.i170, align 8
  store ptr %that.i169, ptr %other.addr.i171, align 8
  %this1.i172 = load ptr, ptr %this.addr.i170, align 8
  %53 = load ptr, ptr %other.addr.i171, align 8
  call void @llvm.memcpy.p0.p0.i64(ptr align 8 %this1.i172, ptr align 8 %53, i64 8, i1 false)
  store ptr %retval.i168, ptr %this.addr.i173, align 8
  store ptr %ref.tmp.i, ptr %other.addr.i174, align 8
  %this1.i175 = load ptr, ptr %this.addr.i173, align 8
  %54 = load ptr, ptr %other.addr.i174, align 8
  call void @llvm.memcpy.p0.p0.i64(ptr align 8 %this1.i175, ptr align 8 %54, i64 8, i1 false)
  %55 = load ptr, ptr %retval.i168, align 8
  store ptr %55, ptr %retval.i, align 8
  %56 = load ptr, ptr %retval.i, align 8
  %coerce.dive40 = getelementptr inbounds %"class.v8::Local.524", ptr %ref.tmp38, i32 0, i32 0
  %coerce.dive41 = getelementptr inbounds %"class.v8::LocalBase.525", ptr %coerce.dive40, i32 0, i32 0
  %coerce.dive42 = getelementptr inbounds %"class.v8::IndirectHandleBase", ptr %coerce.dive41, i32 0, i32 0
  store ptr %56, ptr %coerce.dive42, align 8
  store ptr %ref.tmp38, ptr %this.addr.i121, align 8
  %this1.i122 = load ptr, ptr %this.addr.i121, align 8
  store ptr %this1.i122, ptr %this.addr.i177, align 8
  %this1.i178 = load ptr, ptr %this.addr.i177, align 8
  store ptr %this1.i178, ptr %this.addr.i.i176, align 8
  %this1.i.i179 = load ptr, ptr %this.addr.i.i176, align 8
  %57 = load ptr, ptr %this1.i.i179, align 8
  store ptr %57, ptr %slot.addr.i180, align 8
  %58 = load ptr, ptr %slot.addr.i180, align 8
  %call44 = call noundef i64 @_ZNK2v86BigInt11Uint64ValueEPb(ptr noundef nonnull align 1 dereferenceable(1) %58, ptr noundef %lossless)
  store i64 %call44, ptr %val, align 8
  %59 = load i8, ptr %lossless, align 1
  %tobool = trunc i8 %59 to i1
  br i1 %tobool, label %if.end59, label %if.then45

if.then45:                                        ; preds = %if.then37
  %60 = load ptr, ptr %env.addr, align 8
  %call46 = call noundef ptr @_ZNK4node11Environment7isolateEv(ptr noundef nonnull align 8 dereferenceable(2872) %60)
  %61 = load ptr, ptr %name.addr, align 8
  call void @llvm.memcpy.p0.p0.i64(ptr align 8 %agg.tmp48, ptr align 8 %61, i64 8, i1 false)
  %coerce.dive49 = getelementptr inbounds %"class.v8::Local.13", ptr %agg.tmp48, i32 0, i32 0
  %coerce.dive50 = getelementptr inbounds %"class.v8::LocalBase.14", ptr %coerce.dive49, i32 0, i32 0
  %coerce.dive51 = getelementptr inbounds %"class.v8::IndirectHandleBase", ptr %coerce.dive50, i32 0, i32 0
  %62 = load ptr, ptr %coerce.dive51, align 8
  store ptr %62, ptr %that.i110, align 8
  store ptr %agg.tmp47, ptr %this.addr.i111, align 8
  %this3.i112 = load ptr, ptr %this.addr.i111, align 8
  store ptr %this3.i112, ptr %this.addr.i136, align 8
  store ptr %that.i110, ptr %other.addr.i, align 8
  %this1.i137 = load ptr, ptr %this.addr.i136, align 8
  %63 = load ptr, ptr %other.addr.i, align 8
  call void @llvm.memcpy.p0.p0.i64(ptr align 8 %this1.i137, ptr align 8 %63, i64 8, i1 false)
  %coerce.dive52 = getelementptr inbounds %"class.v8::Local", ptr %agg.tmp47, i32 0, i32 0
  %coerce.dive53 = getelementptr inbounds %"class.v8::LocalBase", ptr %coerce.dive52, i32 0, i32 0
  %coerce.dive54 = getelementptr inbounds %"class.v8::IndirectHandleBase", ptr %coerce.dive53, i32 0, i32 0
  %64 = load ptr, ptr %coerce.dive54, align 8
  call void @_ZN4node9Utf8ValueC1EPN2v87IsolateENS1_5LocalINS1_5ValueEEE(ptr noundef nonnull align 8 dereferenceable(1048) %label, ptr noundef %call46, ptr %64)
  %65 = load ptr, ptr %env.addr, align 8
  call void @_ZNK4node9Utf8Value8ToStringB5cxx11Ev(ptr sret(%"class.std::__cxx11::basic_string") align 8 %ref.tmp57, ptr noundef nonnull align 8 dereferenceable(1048) %label)
  call void @_ZStplIcSt11char_traitsIcESaIcEENSt7__cxx1112basic_stringIT_T0_T1_EEPKS5_OS8_(ptr sret(%"class.std::__cxx11::basic_string") align 8 %ref.tmp56, ptr noundef @.str.35, ptr noundef nonnull align 8 dereferenceable(32) %ref.tmp57)
  call void @_ZStplIcSt11char_traitsIcESaIcEENSt7__cxx1112basic_stringIT_T0_T1_EEOS8_PKS5_(ptr sret(%"class.std::__cxx11::basic_string") align 8 %ref.tmp55, ptr noundef nonnull align 8 dereferenceable(32) %ref.tmp56, ptr noundef @.str.36)
  %call58 = call noundef ptr @_ZNKSt7__cxx1112basic_stringIcSt11char_traitsIcESaIcEE5c_strEv(ptr noundef nonnull align 8 dereferenceable(32) %ref.tmp55) #3
  call void @_ZN4node22THROW_ERR_OUT_OF_RANGEIJEEEvPNS_11EnvironmentEPKcDpOT_(ptr noundef %65, ptr noundef %call58)
  call void @_ZNSt7__cxx1112basic_stringIcSt11char_traitsIcESaIcEED1Ev(ptr noundef nonnull align 8 dereferenceable(32) %ref.tmp55) #3
  call void @_ZNSt7__cxx1112basic_stringIcSt11char_traitsIcESaIcEED1Ev(ptr noundef nonnull align 8 dereferenceable(32) %ref.tmp56) #3
  call void @_ZNSt7__cxx1112basic_stringIcSt11char_traitsIcESaIcEED1Ev(ptr noundef nonnull align 8 dereferenceable(32) %ref.tmp57) #3
  store i1 false, ptr %retval, align 1
  call void @_ZN4node9Utf8ValueD2Ev(ptr noundef nonnull align 8 dereferenceable(1048) %label) #3
  br label %return

if.end59:                                         ; preds = %if.then37
  br label %if.end67

if.else:                                          ; preds = %do.end34
  store ptr %value, ptr %this.addr.i125, align 8
  %this1.i127 = load ptr, ptr %this.addr.i125, align 8
  call void @llvm.memcpy.p0.p0.i64(ptr align 8 %agg.tmp.i126, ptr align 8 %this1.i127, i64 8, i1 false)
  %66 = load ptr, ptr %agg.tmp.i126, align 8
  store ptr %66, ptr %that.i182, align 8
  store ptr %ref.tmp.i183, ptr %this.addr.i184, align 8
  store ptr %that.i182, ptr %other.addr.i185, align 8
  %this1.i186 = load ptr, ptr %this.addr.i184, align 8
  %67 = load ptr, ptr %other.addr.i185, align 8
  call void @llvm.memcpy.p0.p0.i64(ptr align 8 %this1.i186, ptr align 8 %67, i64 8, i1 false)
  store ptr %retval.i181, ptr %this.addr.i187, align 8
  store ptr %ref.tmp.i183, ptr %other.addr.i188, align 8
  %this1.i189 = load ptr, ptr %this.addr.i187, align 8
  %68 = load ptr, ptr %other.addr.i188, align 8
  call void @llvm.memcpy.p0.p0.i64(ptr align 8 %this1.i189, ptr align 8 %68, i64 8, i1 false)
  %69 = load ptr, ptr %retval.i181, align 8
  store ptr %69, ptr %retval.i124, align 8
  %70 = load ptr, ptr %retval.i124, align 8
  %coerce.dive62 = getelementptr inbounds %"class.v8::Local.494", ptr %ref.tmp60, i32 0, i32 0
  %coerce.dive63 = getelementptr inbounds %"class.v8::LocalBase.495", ptr %coerce.dive62, i32 0, i32 0
  %coerce.dive64 = getelementptr inbounds %"class.v8::IndirectHandleBase", ptr %coerce.dive63, i32 0, i32 0
  store ptr %70, ptr %coerce.dive64, align 8
  store ptr %ref.tmp60, ptr %this.addr.i129, align 8
  %this1.i130 = load ptr, ptr %this.addr.i129, align 8
  store ptr %this1.i130, ptr %this.addr.i191, align 8
  %this1.i192 = load ptr, ptr %this.addr.i191, align 8
  store ptr %this1.i192, ptr %this.addr.i.i190, align 8
  %this1.i.i193 = load ptr, ptr %this.addr.i.i190, align 8
  %71 = load ptr, ptr %this1.i.i193, align 8
  store ptr %71, ptr %slot.addr.i194, align 8
  %72 = load ptr, ptr %slot.addr.i194, align 8
  %call66 = call noundef double @_ZNK2v86Number5ValueEv(ptr noundef nonnull align 1 dereferenceable(1) %72)
  %conv = fptosi double %call66 to i64
  store i64 %conv, ptr %val, align 8
  br label %if.end67

if.end67:                                         ; preds = %if.else, %if.end59
  %73 = load i64, ptr %val, align 8
  %74 = load ptr, ptr %options.addr, align 8
  %memptr.offset = getelementptr inbounds i8, ptr %74, i64 328
  store i64 %73, ptr %memptr.offset, align 8
  br label %if.end68

if.end68:                                         ; preds = %if.end67, %_ZNK2v85Value16QuickIsUndefinedEv.exit
  store i1 true, ptr %retval, align 1
  br label %return

return:                                           ; preds = %if.end68, %if.then45, %if.then
  %75 = load i1, ptr %retval, align 1
  ret i1 %75
}

declare ptr @_ZNK4node4quic11BindingData31initial_max_streams_bidi_stringEv(ptr noundef nonnull align 8 dereferenceable(992)) #1

; Function Attrs: mustprogress nounwind uwtable
define linkonce_odr dso_local noundef zeroext i1 @_ZN4node4quic9SetOptionINS0_15TransportParams7OptionsETnMT_mXadL_ZNS3_23initial_max_streams_uniEEEEEbPNS_11EnvironmentEPS4_RKN2v85LocalINS9_6ObjectEEERKNSA_INS9_6StringEEE(ptr noundef %env, ptr noundef %options, ptr noundef nonnull align 8 dereferenceable(8) %object, ptr noundef nonnull align 8 dereferenceable(8) %name) #4 comdat {
entry:
  %slot.addr.i194 = alloca ptr, align 8
  %this.addr.i.i190 = alloca ptr, align 8
  %this.addr.i191 = alloca ptr, align 8
  %this.addr.i187 = alloca ptr, align 8
  %other.addr.i188 = alloca ptr, align 8
  %this.addr.i184 = alloca ptr, align 8
  %other.addr.i185 = alloca ptr, align 8
  %retval.i181 = alloca %"class.v8::Local.494", align 8
  %that.i182 = alloca %"class.v8::Local", align 8
  %ref.tmp.i183 = alloca %"class.v8::LocalBase.495", align 8
  %slot.addr.i180 = alloca ptr, align 8
  %this.addr.i.i176 = alloca ptr, align 8
  %this.addr.i177 = alloca ptr, align 8
  %this.addr.i173 = alloca ptr, align 8
  %other.addr.i174 = alloca ptr, align 8
  %this.addr.i170 = alloca ptr, align 8
  %other.addr.i171 = alloca ptr, align 8
