target datalayout = "e-m:e-p270:32:32-p271:32:32-p272:64:64-i64:64-i128:128-f80:128-n8:16:32:64-S128"
target triple = "x86_64-unknown-linux-gnu"

%"class.std::ios_base::Init" = type { i8 }
%"struct.node::AssertionInfo" = type { ptr, ptr, ptr }
%"struct.node::node_module" = type { i32, i32, ptr, ptr, ptr, ptr, ptr, ptr, ptr }
%"class.std::unique_ptr.298" = type { %"struct.std::__uniq_ptr_data.299" }
%"struct.std::__uniq_ptr_data.299" = type { %"class.std::__uniq_ptr_impl.300" }
%"class.std::__uniq_ptr_impl.300" = type { %"class.std::tuple.301" }
%"class.std::tuple.301" = type { %"struct.std::_Tuple_impl.302" }
%"struct.std::_Tuple_impl.302" = type { %"struct.std::_Head_base.305" }
%"struct.std::_Head_base.305" = type { ptr }
%"class.std::unique_ptr.306" = type { %"struct.std::__uniq_ptr_data.307" }
%"struct.std::__uniq_ptr_data.307" = type { %"class.std::__uniq_ptr_impl.308" }
%"class.std::__uniq_ptr_impl.308" = type { %"class.std::tuple.309" }
%"class.std::tuple.309" = type { %"struct.std::_Tuple_impl.310" }
%"struct.std::_Tuple_impl.310" = type { %"struct.std::_Head_base.313" }
%"struct.std::_Head_base.313" = type { ptr }
%"class.node::profiler::V8ProfilerConnection" = type { ptr, %"class.std::unique_ptr", i32, %"class.std::unordered_set", ptr }
%"class.std::unique_ptr" = type { %"struct.std::__uniq_ptr_data" }
%"struct.std::__uniq_ptr_data" = type { %"class.std::__uniq_ptr_impl" }
%"class.std::__uniq_ptr_impl" = type { %"class.std::tuple" }
%"class.std::tuple" = type { %"struct.std::_Tuple_impl" }
%"struct.std::_Tuple_impl" = type { %"struct.std::_Head_base.1" }
%"struct.std::_Head_base.1" = type { ptr }
%"class.std::unordered_set" = type { %"class.std::_Hashtable" }
%"class.std::_Hashtable" = type { ptr, i64, %"struct.std::__detail::_Hash_node_base", i64, %"struct.std::__detail::_Prime_rehash_policy", ptr }
%"struct.std::__detail::_Hash_node_base" = type { ptr }
%"struct.std::__detail::_Prime_rehash_policy" = type { float, i64 }
%"class.node::Environment" = type { %"class.node::MemoryRetainer", %"class.std::unordered_multimap", %"class.std::__cxx11::list", ptr, ptr, %struct.uv_timer_s, %struct.uv_check_s, %struct.uv_idle_s, %struct.uv_prepare_s, %struct.uv_check_s, %struct.uv_async_s, i64, %"struct.std::atomic", %"struct.std::atomic", %"class.node::AsyncHooks", %"class.node::ImmediateInfo", %"class.node::AliasedBufferBase.63", %"class.node::TickInfo", %"class.node::permission::Permission", i64, %"class.std::shared_ptr.88", i8, i8, i8, i8, i8, i8, i64, %"class.std::vector.91", %"class.std::unordered_set.96", %"class.std::unique_ptr.116", %"class.std::unique_ptr.124", %"class.std::__cxx11::basic_string", %"class.std::__cxx11::basic_string", %"class.std::__cxx11::basic_string", i64, %"class.std::unique_ptr.132", %"class.std::__cxx11::basic_string", %"class.std::__cxx11::basic_string", i64, %"class.std::shared_ptr.140", %"class.std::shared_ptr.23", %"class.std::vector.143", %"class.std::vector.143", %"class.std::__cxx11::basic_string", i8, i32, i32, i8, i32, i32, i32, i32, %"class.node::AliasedBufferBase.63", %"class.node::AliasedBufferBase.53", i32, %"class.std::unique_ptr.148", %"class.node::AliasedBufferBase.63", i64, double, i64, %"class.std::unique_ptr.156", i8, i64, i64, %"class.std::unordered_set.164", %"class.std::unique_ptr.184", i8, %"class.std::__cxx11::list.192", %"class.node::ListHead", %"class.node::ListHead.197", %"class.std::__cxx11::list.199", i32, i32, %"class.node::EnabledDebugList", %"class.std::vector.204", %"class.std::__cxx11::list.209", %"class.node::MutexBase", %"class.std::__cxx11::list.214", %"class.node::CallbackQueue", %"class.node::MutexBase", %"class.node::CallbackQueue", %"class.node::CallbackQueue", i8, %"struct.std::atomic.229", %"class.node::CleanupQueue", i8, %"class.std::unordered_set.247", %"class.std::function", %"class.std::unique_ptr.262", %"class.node::builtins::BuiltinLoader", %"class.std::function.276", %"class.std::unordered_map.278" }
%"class.node::MemoryRetainer" = type { ptr }
%"class.std::unordered_multimap" = type { %"class.std::_Hashtable.26" }
%"class.std::_Hashtable.26" = type { ptr, i64, %"struct.std::__detail::_Hash_node_base", i64, %"struct.std::__detail::_Prime_rehash_policy", ptr }
%"class.std::__cxx11::list" = type { %"class.std::__cxx11::_List_base" }
%"class.std::__cxx11::_List_base" = type { %"struct.std::__cxx11::_List_base<node::binding::DLib, std::allocator<node::binding::DLib>>::_List_impl" }
%"struct.std::__cxx11::_List_base<node::binding::DLib, std::allocator<node::binding::DLib>>::_List_impl" = type { %"struct.std::__detail::_List_node_header" }
%"struct.std::__detail::_List_node_header" = type { %"struct.std::__detail::_List_node_base", i64 }
%"struct.std::__detail::_List_node_base" = type { ptr, ptr }
%struct.uv_timer_s = type { ptr, ptr, i32, ptr, %struct.uv__queue, %union.anon.48, ptr, i32, ptr, [3 x ptr], i64, i64, i64 }
%struct.uv__queue = type { ptr, ptr }
%union.anon.48 = type { [4 x ptr] }
%struct.uv_idle_s = type { ptr, ptr, i32, ptr, %struct.uv__queue, %union.anon.50, ptr, i32, ptr, %struct.uv__queue }
%union.anon.50 = type { [4 x ptr] }
%struct.uv_prepare_s = type { ptr, ptr, i32, ptr, %struct.uv__queue, %union.anon.51, ptr, i32, ptr, %struct.uv__queue }
%union.anon.51 = type { [4 x ptr] }
%struct.uv_check_s = type { ptr, ptr, i32, ptr, %struct.uv__queue, %union.anon.49, ptr, i32, ptr, %struct.uv__queue }
%union.anon.49 = type { [4 x ptr] }
%struct.uv_async_s = type { ptr, ptr, i32, ptr, %struct.uv__queue, %union.anon.52, ptr, i32, ptr, %struct.uv__queue, i32 }
%union.anon.52 = type { [4 x ptr] }
%"struct.std::atomic" = type { %"struct.std::__atomic_base" }
%"struct.std::__atomic_base" = type { i8 }
%"class.node::AsyncHooks" = type { %"class.node::MemoryRetainer", %"class.node::AliasedBufferBase", %"class.node::AliasedBufferBase.53", %"class.node::AliasedBufferBase", %"class.v8::Global.56", %"class.std::vector", ptr, %"struct.std::array" }
%"class.node::AliasedBufferBase" = type { %"class.node::MemoryRetainer", ptr, i64, i64, ptr, %"class.v8::Global", ptr }
%"class.v8::Global" = type { %"class.v8::PersistentBase" }
%"class.v8::PersistentBase" = type { %"class.v8::IndirectHandleBase" }
%"class.v8::IndirectHandleBase" = type { ptr }
%"class.v8::Global.56" = type { %"class.v8::PersistentBase.57" }
%"class.v8::PersistentBase.57" = type { %"class.v8::IndirectHandleBase" }
%"class.std::vector" = type { %"struct.std::_Vector_base" }
%"struct.std::_Vector_base" = type { %"struct.std::_Vector_base<v8::Local<v8::Object>, std::allocator<v8::Local<v8::Object>>>::_Vector_impl" }
%"struct.std::_Vector_base<v8::Local<v8::Object>, std::allocator<v8::Local<v8::Object>>>::_Vector_impl" = type { %"struct.std::_Vector_base<v8::Local<v8::Object>, std::allocator<v8::Local<v8::Object>>>::_Vector_impl_data" }
%"struct.std::_Vector_base<v8::Local<v8::Object>, std::allocator<v8::Local<v8::Object>>>::_Vector_impl_data" = type { ptr, ptr, ptr }
%"struct.std::array" = type { [4 x %"class.v8::Global.61"] }
%"class.v8::Global.61" = type { %"class.v8::PersistentBase.62" }
%"class.v8::PersistentBase.62" = type { %"class.v8::IndirectHandleBase" }
%"class.node::ImmediateInfo" = type { %"class.node::MemoryRetainer", %"class.node::AliasedBufferBase.53" }
%"class.node::TickInfo" = type { %"class.node::MemoryRetainer", %"class.node::AliasedBufferBase.66" }
%"class.node::AliasedBufferBase.66" = type { %"class.node::MemoryRetainer", ptr, i64, i64, ptr, %"class.v8::Global.67", ptr }
%"class.v8::Global.67" = type { %"class.v8::PersistentBase.68" }
%"class.v8::PersistentBase.68" = type { %"class.v8::IndirectHandleBase" }
%"class.node::permission::Permission" = type <{ %"class.std::unordered_map", i8, [7 x i8] }>
%"class.std::unordered_map" = type { %"class.std::_Hashtable.69" }
%"class.std::_Hashtable.69" = type { ptr, i64, %"struct.std::__detail::_Hash_node_base", i64, %"struct.std::__detail::_Prime_rehash_policy", ptr }
%"class.std::shared_ptr.88" = type { %"class.std::__shared_ptr.89" }
%"class.std::__shared_ptr.89" = type { ptr, %"class.std::__shared_count" }
%"class.std::__shared_count" = type { ptr }
%"class.std::vector.91" = type { %"struct.std::_Vector_base.92" }
%"struct.std::_Vector_base.92" = type { %"struct.std::_Vector_base<double, std::allocator<double>>::_Vector_impl" }
%"struct.std::_Vector_base<double, std::allocator<double>>::_Vector_impl" = type { %"struct.std::_Vector_base<double, std::allocator<double>>::_Vector_impl_data" }
%"struct.std::_Vector_base<double, std::allocator<double>>::_Vector_impl_data" = type { ptr, ptr, ptr }
%"class.std::unordered_set.96" = type { %"class.std::_Hashtable.97" }
%"class.std::_Hashtable.97" = type { ptr, i64, %"struct.std::__detail::_Hash_node_base", i64, %"struct.std::__detail::_Prime_rehash_policy", ptr }
%"class.std::unique_ptr.116" = type { %"struct.std::__uniq_ptr_data.117" }
%"struct.std::__uniq_ptr_data.117" = type { %"class.std::__uniq_ptr_impl.118" }
%"class.std::__uniq_ptr_impl.118" = type { %"class.std::tuple.119" }
%"class.std::tuple.119" = type { %"struct.std::_Tuple_impl.120" }
%"struct.std::_Tuple_impl.120" = type { %"struct.std::_Head_base.123" }
%"struct.std::_Head_base.123" = type { ptr }
%"class.std::unique_ptr.124" = type { %"struct.std::__uniq_ptr_data.125" }
%"struct.std::__uniq_ptr_data.125" = type { %"class.std::__uniq_ptr_impl.126" }
%"class.std::__uniq_ptr_impl.126" = type { %"class.std::tuple.127" }
%"class.std::tuple.127" = type { %"struct.std::_Tuple_impl.128" }
%"struct.std::_Tuple_impl.128" = type { %"struct.std::_Head_base.131" }
%"struct.std::_Head_base.131" = type { ptr }
%"class.std::unique_ptr.132" = type { %"struct.std::__uniq_ptr_data.133" }
%"struct.std::__uniq_ptr_data.133" = type { %"class.std::__uniq_ptr_impl.134" }
%"class.std::__uniq_ptr_impl.134" = type { %"class.std::tuple.135" }
%"class.std::tuple.135" = type { %"struct.std::_Tuple_impl.136" }
%"struct.std::_Tuple_impl.136" = type { %"struct.std::_Head_base.139" }
%"struct.std::_Head_base.139" = type { ptr }
%"class.std::shared_ptr.140" = type { %"class.std::__shared_ptr.141" }
%"class.std::__shared_ptr.141" = type { ptr, %"class.std::__shared_count" }
%"class.std::shared_ptr.23" = type { %"class.std::__shared_ptr.24" }
%"class.std::__shared_ptr.24" = type { ptr, %"class.std::__shared_count" }
%"class.std::vector.143" = type { %"struct.std::_Vector_base.144" }
%"struct.std::_Vector_base.144" = type { %"struct.std::_Vector_base<std::__cxx11::basic_string<char>, std::allocator<std::__cxx11::basic_string<char>>>::_Vector_impl" }
%"struct.std::_Vector_base<std::__cxx11::basic_string<char>, std::allocator<std::__cxx11::basic_string<char>>>::_Vector_impl" = type { %"struct.std::_Vector_base<std::__cxx11::basic_string<char>, std::allocator<std::__cxx11::basic_string<char>>>::_Vector_impl_data" }
%"struct.std::_Vector_base<std::__cxx11::basic_string<char>, std::allocator<std::__cxx11::basic_string<char>>>::_Vector_impl_data" = type { ptr, ptr, ptr }
%"class.std::__cxx11::basic_string" = type { %"struct.std::__cxx11::basic_string<char>::_Alloc_hider", i64, %union.anon }
%"struct.std::__cxx11::basic_string<char>::_Alloc_hider" = type { ptr }
%union.anon = type { i64, [8 x i8] }
%"class.node::AliasedBufferBase.53" = type { %"class.node::MemoryRetainer", ptr, i64, i64, ptr, %"class.v8::Global.54", ptr }
%"class.v8::Global.54" = type { %"class.v8::PersistentBase.55" }
%"class.v8::PersistentBase.55" = type { %"class.v8::IndirectHandleBase" }
%"class.std::unique_ptr.148" = type { %"struct.std::__uniq_ptr_data.149" }
%"struct.std::__uniq_ptr_data.149" = type { %"class.std::__uniq_ptr_impl.150" }
%"class.std::__uniq_ptr_impl.150" = type { %"class.std::tuple.151" }
%"class.std::tuple.151" = type { %"struct.std::_Tuple_impl.152" }
%"struct.std::_Tuple_impl.152" = type { %"struct.std::_Head_base.155" }
%"struct.std::_Head_base.155" = type { ptr }
%"class.node::AliasedBufferBase.63" = type { %"class.node::MemoryRetainer", ptr, i64, i64, ptr, %"class.v8::Global.64", ptr }
%"class.v8::Global.64" = type { %"class.v8::PersistentBase.65" }
%"class.v8::PersistentBase.65" = type { %"class.v8::IndirectHandleBase" }
%"class.std::unique_ptr.156" = type { %"struct.std::__uniq_ptr_data.157" }
%"struct.std::__uniq_ptr_data.157" = type { %"class.std::__uniq_ptr_impl.158" }
%"class.std::__uniq_ptr_impl.158" = type { %"class.std::tuple.159" }
%"class.std::tuple.159" = type { %"struct.std::_Tuple_impl.160" }
%"struct.std::_Tuple_impl.160" = type { %"struct.std::_Head_base.163" }
%"struct.std::_Head_base.163" = type { ptr }
%"class.std::unordered_set.164" = type { %"class.std::_Hashtable.165" }
%"class.std::_Hashtable.165" = type { ptr, i64, %"struct.std::__detail::_Hash_node_base", i64, %"struct.std::__detail::_Prime_rehash_policy", ptr }
%"class.std::unique_ptr.184" = type { %"struct.std::__uniq_ptr_data.185" }
%"struct.std::__uniq_ptr_data.185" = type { %"class.std::__uniq_ptr_impl.186" }
%"class.std::__uniq_ptr_impl.186" = type { %"class.std::tuple.187" }
%"class.std::tuple.187" = type { %"struct.std::_Tuple_impl.188" }
%"struct.std::_Tuple_impl.188" = type { %"struct.std::_Head_base.191" }
%"struct.std::_Head_base.191" = type { ptr }
%"class.std::__cxx11::list.192" = type { %"class.std::__cxx11::_List_base.193" }
%"class.std::__cxx11::_List_base.193" = type { %"struct.std::__cxx11::_List_base<node::DeserializeRequest, std::allocator<node::DeserializeRequest>>::_List_impl" }
%"struct.std::__cxx11::_List_base<node::DeserializeRequest, std::allocator<node::DeserializeRequest>>::_List_impl" = type { %"struct.std::__detail::_List_node_header" }
%"class.node::ListHead" = type { %"class.node::ListNode" }
%"class.node::ListNode" = type { ptr, ptr }
%"class.node::ListHead.197" = type { %"class.node::ListNode.198" }
%"class.node::ListNode.198" = type { ptr, ptr }
%"class.std::__cxx11::list.199" = type { %"class.std::__cxx11::_List_base.200" }
%"class.std::__cxx11::_List_base.200" = type { %"struct.std::__cxx11::_List_base<node::Environment::HandleCleanup, std::allocator<node::Environment::HandleCleanup>>::_List_impl" }
%"struct.std::__cxx11::_List_base<node::Environment::HandleCleanup, std::allocator<node::Environment::HandleCleanup>>::_List_impl" = type { %"struct.std::__detail::_List_node_header" }
%"class.node::EnabledDebugList" = type { [75 x i8] }
%"class.std::vector.204" = type { %"struct.std::_Vector_base.205" }
%"struct.std::_Vector_base.205" = type { %"struct.std::_Vector_base<v8::Global<v8::Context>, std::allocator<v8::Global<v8::Context>>>::_Vector_impl" }
%"struct.std::_Vector_base<v8::Global<v8::Context>, std::allocator<v8::Global<v8::Context>>>::_Vector_impl" = type { %"struct.std::_Vector_base<v8::Global<v8::Context>, std::allocator<v8::Global<v8::Context>>>::_Vector_impl_data" }
%"struct.std::_Vector_base<v8::Global<v8::Context>, std::allocator<v8::Global<v8::Context>>>::_Vector_impl_data" = type { ptr, ptr, ptr }
%"class.std::__cxx11::list.209" = type { %"class.std::__cxx11::_List_base.210" }
%"class.std::__cxx11::_List_base.210" = type { %"struct.std::__cxx11::_List_base<node::node_module, std::allocator<node::node_module>>::_List_impl" }
%"struct.std::__cxx11::_List_base<node::node_module, std::allocator<node::node_module>>::_List_impl" = type { %"struct.std::__detail::_List_node_header" }
%"class.std::__cxx11::list.214" = type { %"class.std::__cxx11::_List_base.215" }
%"class.std::__cxx11::_List_base.215" = type { %"struct.std::__cxx11::_List_base<node::Environment::ExitCallback, std::allocator<node::Environment::ExitCallback>>::_List_impl" }
%"struct.std::__cxx11::_List_base<node::Environment::ExitCallback, std::allocator<node::Environment::ExitCallback>>::_List_impl" = type { %"struct.std::__detail::_List_node_header" }
%"class.node::MutexBase" = type { %union.pthread_mutex_t }
%union.pthread_mutex_t = type { %struct.__pthread_mutex_s }
%struct.__pthread_mutex_s = type { i32, i32, i32, i32, i32, i16, i16, %struct.__pthread_internal_list }
%struct.__pthread_internal_list = type { ptr, ptr }
%"class.node::CallbackQueue" = type { %"struct.std::atomic.219", %"class.std::unique_ptr.221", ptr }
%"struct.std::atomic.219" = type { %"struct.std::__atomic_base.220" }
%"struct.std::__atomic_base.220" = type { i64 }
%"class.std::unique_ptr.221" = type { %"struct.std::__uniq_ptr_data.222" }
%"struct.std::__uniq_ptr_data.222" = type { %"class.std::__uniq_ptr_impl.223" }
%"class.std::__uniq_ptr_impl.223" = type { %"class.std::tuple.224" }
%"class.std::tuple.224" = type { %"struct.std::_Tuple_impl.225" }
%"struct.std::_Tuple_impl.225" = type { %"struct.std::_Head_base.228" }
%"struct.std::_Head_base.228" = type { ptr }
%"struct.std::atomic.229" = type { %"struct.std::__atomic_base.230" }
%"struct.std::__atomic_base.230" = type { ptr }
%"class.node::CleanupQueue" = type { %"class.node::MemoryRetainer", %"class.std::unordered_set.231", i64 }
%"class.std::unordered_set.231" = type { %"class.std::_Hashtable.232" }
%"class.std::_Hashtable.232" = type { ptr, i64, %"struct.std::__detail::_Hash_node_base", i64, %"struct.std::__detail::_Prime_rehash_policy", ptr }
%"class.std::unordered_set.247" = type { %"class.std::_Hashtable.248" }
%"class.std::_Hashtable.248" = type { ptr, i64, %"struct.std::__detail::_Hash_node_base", i64, %"struct.std::__detail::_Prime_rehash_policy", ptr }
%"class.std::function" = type { %"class.std::_Function_base", ptr }
%"class.std::_Function_base" = type { %"union.std::_Any_data", ptr }
%"union.std::_Any_data" = type { %"union.std::_Nocopy_types" }
%"union.std::_Nocopy_types" = type { { i64, i64 } }
%"class.std::unique_ptr.262" = type { %"struct.std::__uniq_ptr_data.263" }
%"struct.std::__uniq_ptr_data.263" = type { %"class.std::__uniq_ptr_impl.264" }
%"class.std::__uniq_ptr_impl.264" = type { %"class.std::tuple.265" }
%"class.std::tuple.265" = type { %"struct.std::_Tuple_impl.266" }
%"struct.std::_Tuple_impl.266" = type { %"struct.std::_Head_base.269" }
%"struct.std::_Head_base.269" = type { ptr }
%"class.node::builtins::BuiltinLoader" = type { %"class.node::ThreadsafeCopyOnWrite", %"class.node::UnionBytes", %"class.std::shared_ptr.273" }
%"class.node::ThreadsafeCopyOnWrite" = type { %"class.node::CopyOnWrite" }
%"class.node::CopyOnWrite" = type { %"class.std::shared_ptr.270" }
%"class.std::shared_ptr.270" = type { %"class.std::__shared_ptr.271" }
%"class.std::__shared_ptr.271" = type { ptr, %"class.std::__shared_count" }
%"class.node::UnionBytes" = type { ptr, ptr }
%"class.std::shared_ptr.273" = type { %"class.std::__shared_ptr.274" }
%"class.std::__shared_ptr.274" = type { ptr, %"class.std::__shared_count" }
%"class.std::function.276" = type { %"class.std::_Function_base", ptr }
%"class.std::unordered_map.278" = type { %"class.std::_Hashtable.279" }
%"class.std::_Hashtable.279" = type { ptr, i64, %"struct.std::__detail::_Hash_node_base", i64, %"struct.std::__detail::_Prime_rehash_policy", ptr }
%"class.std::__cxx11::basic_stringstream" = type { %"class.std::basic_iostream.base", %"class.std::__cxx11::basic_stringbuf", %"class.std::basic_ios" }
%"class.std::basic_iostream.base" = type { %"class.std::basic_istream.base", %"class.std::basic_ostream.base" }
%"class.std::basic_istream.base" = type { ptr, i64 }
%"class.std::basic_ostream.base" = type { ptr }
%"class.std::__cxx11::basic_stringbuf" = type { %"class.std::basic_streambuf", i32, %"class.std::__cxx11::basic_string" }
%"class.std::basic_streambuf" = type { ptr, ptr, ptr, ptr, ptr, ptr, ptr, %"class.std::locale" }
%"class.std::locale" = type { ptr }
%"class.std::basic_ios" = type { %"class.std::ios_base", ptr, i8, i8, ptr, ptr, ptr, ptr }
%"class.std::ios_base" = type { ptr, i64, i64, i32, i32, i32, ptr, %"struct.std::ios_base::_Words", [8 x %"struct.std::ios_base::_Words"], i32, ptr, %"class.std::locale" }
%"struct.std::ios_base::_Words" = type { ptr, i64 }
%"struct.std::pair" = type <{ %"struct.std::__detail::_Node_iterator", i8, [7 x i8] }>
%"struct.std::__detail::_Node_iterator" = type { %"struct.std::__detail::_Node_iterator_base" }
%"struct.std::__detail::_Node_iterator_base" = type { ptr }
%"class.v8_inspector::StringView" = type { i8, i64, %union.anon.314 }
%union.anon.314 = type { ptr }
%"class.v8::Local.322" = type { %"class.v8::LocalBase.323" }
%"class.v8::LocalBase.323" = type { %"class.v8::IndirectHandleBase" }
%"class.v8::Local.317" = type { %"class.v8::LocalBase.318" }
%"class.v8::LocalBase.318" = type { %"class.v8::IndirectHandleBase" }
%"class.v8::Local.320" = type { %"class.v8::LocalBase.321" }
%"class.v8::LocalBase.321" = type { %"class.v8::IndirectHandleBase" }
%"class.v8::Local.315" = type { %"class.v8::LocalBase.316" }
%"class.v8::LocalBase.316" = type { %"class.v8::IndirectHandleBase" }
%"class.v8::Local" = type { %"class.v8::LocalBase" }
%"class.v8::LocalBase" = type { %"class.v8::IndirectHandleBase" }
%"class.v8::HandleScope" = type { ptr, ptr, ptr }
%"class.v8::Context::Scope" = type { %"class.v8::Local" }
%"class.v8::MaybeLocal" = type { %"class.v8::Local.315" }
%"class.v8::MaybeLocal.319" = type { %"class.v8::Local.317" }
%"class.node::Utf8Value" = type { %"class.node::MaybeStackBuffer" }
%"class.node::MaybeStackBuffer" = type { i64, i64, ptr, [1024 x i8] }
%"class.node::profiler::V8ProfilerConnection::V8ProfilerSessionDelegate" = type { %"class.node::inspector::InspectorSessionDelegate", ptr }
%"class.node::inspector::InspectorSessionDelegate" = type { ptr }
%"struct.std::__detail::_Node_const_iterator" = type { %"struct.std::__detail::_Node_iterator_base" }
%"class.v8::MaybeLocal.324" = type { %"class.v8::Local.320" }
%"class.node::fs::FSReqWrapSync" = type { %struct.uv_fs_s, ptr, ptr, ptr, %"class.std::unique_ptr.352" }
%struct.uv_fs_s = type { ptr, i32, [6 x ptr], i32, ptr, ptr, i64, ptr, ptr, %struct.uv_stat_t, ptr, i32, i32, i32, i32, ptr, i64, i32, i32, double, double, %struct.uv__work, [4 x %struct.uv_buf_t] }
%struct.uv_stat_t = type { i64, i64, i64, i64, i64, i64, i64, i64, i64, i64, i64, i64, %struct.uv_timespec_t, %struct.uv_timespec_t, %struct.uv_timespec_t, %struct.uv_timespec_t }
%struct.uv_timespec_t = type { i64, i64 }
%struct.uv__work = type { ptr, ptr, ptr, %struct.uv__queue }
%struct.uv_buf_t = type { ptr, i64 }
%"class.std::unique_ptr.352" = type { %"struct.std::__uniq_ptr_data.353" }
%"struct.std::__uniq_ptr_data.353" = type { %"class.std::__uniq_ptr_impl.354" }
%"class.std::__uniq_ptr_impl.354" = type { %"class.std::tuple.355" }
%"class.std::tuple.355" = type { %"struct.std::_Tuple_impl.356" }
%"struct.std::_Tuple_impl.356" = type { %"struct.std::_Head_base.359" }
%"struct.std::_Head_base.359" = type { ptr }
%"class.v8::LocalBase.328" = type { %"class.v8::IndirectHandleBase" }
%"class.v8::Local.327" = type { %"class.v8::LocalBase.328" }
%"class.v8::Local.325" = type { %"class.v8::LocalBase.326" }
%"class.v8::LocalBase.326" = type { %"class.v8::IndirectHandleBase" }
%"class.node::errors::TryCatchScope" = type <{ %"class.v8::TryCatch.base", [7 x i8], ptr, i32, [4 x i8] }>
%"class.v8::TryCatch.base" = type <{ ptr, ptr, ptr, ptr, i64, i8 }>
%"class.v8::Isolate::AllowJavascriptExecutionScope" = type <{ ptr, i8, i8, i8, [5 x i8] }>
%"class.v8::Maybe" = type { i8, i8 }
%"class.node::profiler::V8CoverageConnection" = type <{ %"class.node::profiler::V8ProfilerConnection", %"class.std::unique_ptr", i8, [7 x i8] }>
%"class.std::allocator.20" = type { i8 }
%"class.node::profiler::V8CpuProfilerConnection" = type <{ %"class.node::profiler::V8ProfilerConnection", %"class.std::unique_ptr", i8, [7 x i8] }>
%"class.node::profiler::V8HeapProfilerConnection" = type <{ %"class.node::profiler::V8ProfilerConnection", %"class.std::unique_ptr", i8, [7 x i8] }>
%class.anon = type { i8 }
%"class.node::DiagnosticFilename" = type { %"class.std::__cxx11::basic_string" }
%"class.node::EnvironmentOptions" = type { %"class.node::Options", i8, %"class.std::vector.143", i8, %"class.std::__cxx11::basic_string", i8, i8, i8, i8, i8, i8, i8, i8, i8, %"class.std::__cxx11::basic_string", %"class.std::__cxx11::basic_string", %"class.std::__cxx11::basic_string", %"class.std::__cxx11::basic_string", i8, i8, %"class.std::vector.143", %"class.std::vector.143", i8, i8, i8, i8, i8, i8, i8, i64, %"class.std::__cxx11::basic_string", i8, i64, i8, i8, i8, i8, i8, %"class.std::vector.143", i8, i8, i8, i8, i8, %"class.std::__cxx11::basic_string", i64, %"class.std::__cxx11::basic_string", i8, %"class.std::__cxx11::basic_string", %"class.std::__cxx11::basic_string", i64, i8, %"class.std::__cxx11::basic_string", %"class.std::__cxx11::basic_string", %"class.std::__cxx11::basic_string", i8, i8, i64, i64, i8, %"class.std::vector.143", %"class.std::vector.143", %"class.std::vector.143", i8, i8, %"class.std::__cxx11::basic_string", i8, i8, i8, i8, i8, i8, i8, i8, i8, i8, %"class.std::__cxx11::basic_string", %"class.std::vector.143", i8, i8, i8, i8, %"class.std::vector.143", i8, i8, %"class.std::__cxx11::basic_string", i8, i8, i8, i8, i8, i8, i8, i8, i8, %"class.std::__cxx11::basic_string", %"class.std::vector.143", %"class.std::vector.143", %"class.std::vector.143", %"class.node::DebugOptions" }
%"class.node::Options" = type { ptr }
%"class.node::DebugOptions" = type { %"class.node::Options", i8, i8, i8, i8, i8, %"class.std::__cxx11::basic_string", %"struct.node::InspectPublishUid", [6 x i8], %"class.node::HostPort" }
%"struct.node::InspectPublishUid" = type { i8, i8 }
%"class.node::HostPort" = type <{ %"class.std::__cxx11::basic_string", i16, [6 x i8] }>
%"class.v8::FunctionCallbackInfo" = type <{ ptr, ptr, i32, [4 x i8] }>
%"struct.std::__detail::_Identity" = type { i8 }
%"struct.std::__detail::_Hash_node_value_base" = type { %"struct.__gnu_cxx::__aligned_buffer" }
%"struct.__gnu_cxx::__aligned_buffer" = type { %"union.std::aligned_storage<4, 4>::type" }
%"union.std::aligned_storage<4, 4>::type" = type { [4 x i8] }
%"struct.std::__detail::_Mod_range_hashing" = type { i8 }
%struct._Guard = type { ptr }
%"class.std::_Sp_counted_base" = type { ptr, i32, i32 }
%"class.node::ExternalReferenceRegistry" = type { i8, %"class.std::vector.329" }
%"class.std::vector.329" = type { %"struct.std::_Vector_base.330" }
%"struct.std::_Vector_base.330" = type { %"struct.std::_Vector_base<long, std::allocator<long>>::_Vector_impl" }
%"struct.std::_Vector_base<long, std::allocator<long>>::_Vector_impl" = type { %"struct.std::_Vector_base<long, std::allocator<long>>::_Vector_impl_data" }
%"struct.std::_Vector_base<long, std::allocator<long>>::_Vector_impl_data" = type { ptr, ptr, ptr }
%"class.__gnu_cxx::__normal_iterator" = type { ptr }
%"class.std::basic_string_view" = type { i64, ptr }
%"class.std::allocator.366" = type { i8 }
%"struct.std::__detail::_AllocNode" = type { ptr }
%"struct.std::_Hashtable<unsigned int, unsigned int, std::allocator<unsigned int>, std::__detail::_Identity, std::equal_to<unsigned int>, std::hash<unsigned int>, std::__detail::_Mod_range_hashing, std::__detail::_Default_ranged_hash, std::__detail::_Prime_rehash_policy, std::__detail::_Hashtable_traits<false, true, true>>::_Scoped_node" = type { ptr, ptr }
%"struct.std::pair.375" = type { i8, i64 }

$_ZNK4node11Environment15inspector_agentEv = comdat any

$_ZSt11make_uniqueIN4node8profiler20V8ProfilerConnection25V8ProfilerSessionDelegateEJPS2_EENSt8__detail9_MakeUniqIT_E15__single_objectEDpOT0_ = comdat any

$_ZNSt10unique_ptrIN4node9inspector24InspectorSessionDelegateESt14default_deleteIS2_EEC2INS0_8profiler20V8ProfilerConnection25V8ProfilerSessionDelegateES3_IS9_EvEEOS_IT_T0_E = comdat any

$_ZNSt10unique_ptrIN4node9inspector24InspectorSessionDelegateESt14default_deleteIS2_EED2Ev = comdat any

$_ZNSt10unique_ptrIN4node8profiler20V8ProfilerConnection25V8ProfilerSessionDelegateESt14default_deleteIS3_EED2Ev = comdat any

$_ZNSt13unordered_setIjSt4hashIjESt8equal_toIjESaIjEEC2Ev = comdat any

$_ZN4node8profiler20V8ProfilerConnection7next_idEv = comdat any

$_ZNSt13unordered_setIjSt4hashIjESt8equal_toIjESaIjEE6insertERKj = comdat any

$_ZNK4node8profiler20V8ProfilerConnection3envEv = comdat any

$_ZNKSt10unique_ptrIN4node9inspector16InspectorSessionESt14default_deleteIS2_EEptEv = comdat any

$_ZN12v8_inspector10StringViewC2EPKhm = comdat any

$_ZNK4node11Environment7isolateEv = comdat any

$_ZNK4node11Environment7contextEv = comdat any

$_ZNK12v8_inspector10StringView12characters16Ev = comdat any

$_ZNK12v8_inspector10StringView6lengthEv = comdat any

$_ZN4node21FIXED_ONE_BYTE_STRINGILi3EEEN2v85LocalINS1_6StringEEEPNS1_7IsolateERAT__Kc = comdat any

$_ZN4node16MaybeStackBufferIcLm1024EEdeEv = comdat any

$_ZN4node9Utf8ValueD2Ev = comdat any

$_ZNK4node8profiler20V8ProfilerConnection12HasProfileIdEj = comdat any

$_ZN4node21FIXED_ONE_BYTE_STRINGILi7EEEN2v85LocalINS1_6StringEEEPNS1_7IsolateERAT__Kc = comdat any

$_ZN4node8profiler20V8ProfilerConnection15RemoveProfileIdEj = comdat any

$_ZN4node7SPrintFIJiRmmEEENSt7__cxx1112basic_stringIcSt11char_traitsIcESaIcEEEPKcDpOT_ = comdat any

$_ZNK4node11Environment9thread_idEv = comdat any

$_ZStplIcSt11char_traitsIcESaIcEENSt7__cxx1112basic_stringIT_T0_T1_EEOS8_RKS8_ = comdat any

$_ZStplIcSt11char_traitsIcESaIcEENSt7__cxx1112basic_stringIT_T0_T1_EERKS8_S5_ = comdat any

$_ZNK4node11Environment23source_map_cache_getterEv = comdat any

$_ZN4node6errors13TryCatchScopeC2EPNS_11EnvironmentENS1_9CatchModeE = comdat any

$_ZN4node21FIXED_ONE_BYTE_STRINGILi17EEEN2v85LocalINS1_6StringEEEPNS1_7IsolateERAT__Kc = comdat any

$_ZNK4node11Environment18coverage_directoryB5cxx11Ev = comdat any

$_ZNK4node11Environment12cpu_prof_dirB5cxx11Ev = comdat any

$_ZNK4node11Environment13cpu_prof_nameB5cxx11Ev = comdat any

$_ZN4node21FIXED_ONE_BYTE_STRINGILi8EEEN2v85LocalINS1_6StringEEEPNS1_7IsolateERAT__Kc = comdat any

$_ZNSt7__cxx1112basic_stringIcSt11char_traitsIcESaIcEEC2IS3_EEPKcRKS3_ = comdat any

$_ZNSt7__cxx119to_stringEm = comdat any

$_ZNK4node11Environment17cpu_prof_intervalEv = comdat any

$_ZNK4node11Environment13heap_prof_dirB5cxx11Ev = comdat any

$_ZNK4node11Environment14heap_prof_nameB5cxx11Ev = comdat any

$_ZNK4node11Environment18heap_prof_intervalEv = comdat any

$_ZN4node11Environment8env_varsEv = comdat any

$_ZNKSt19__shared_ptr_accessIN4node7KVStoreELN9__gnu_cxx12_Lock_policyE2ELb0ELb0EEptEv = comdat any

$_ZNSt10shared_ptrIN4node7KVStoreEED2Ev = comdat any

$_ZN4node11Environment7optionsEv = comdat any

$_ZNKSt19__shared_ptr_accessIN4node18EnvironmentOptionsELN9__gnu_cxx12_Lock_policyE2ELb0ELb0EEptEv = comdat any

$_ZNSt10shared_ptrIN4node18EnvironmentOptionsEED2Ev = comdat any

$_ZN4node11Environment19coverage_connectionEv = comdat any

$_ZN4node11Environment23set_coverage_connectionESt10unique_ptrINS_8profiler20V8CoverageConnectionESt14default_deleteIS3_EE = comdat any

$_ZSt11make_uniqueIN4node8profiler20V8CoverageConnectionEJRPNS0_11EnvironmentEEENSt8__detail9_MakeUniqIT_E15__single_objectEDpOT0_ = comdat any

$_ZNSt10unique_ptrIN4node8profiler20V8CoverageConnectionESt14default_deleteIS2_EED2Ev = comdat any

$_ZN4node11Environment21set_cpu_prof_intervalEm = comdat any

$_ZN4node11Environment16set_cpu_prof_dirERKNSt7__cxx1112basic_stringIcSt11char_traitsIcESaIcEEE = comdat any

$_ZNK4node11Environment9exec_pathB5cxx11Ev = comdat any

$_ZN4node18DiagnosticFilenameC2EPNS_11EnvironmentEPKcS4_ = comdat any

$_ZN4node11Environment17set_cpu_prof_nameERKNSt7__cxx1112basic_stringIcSt11char_traitsIcESaIcEEE = comdat any

$_ZNK4node18DiagnosticFilenamedeEv = comdat any

$_ZN4node18DiagnosticFilenameD2Ev = comdat any

$_ZN4node11Environment23cpu_profiler_connectionEv = comdat any

$_ZN4node11Environment27set_cpu_profiler_connectionESt10unique_ptrINS_8profiler23V8CpuProfilerConnectionESt14default_deleteIS3_EE = comdat any

$_ZSt11make_uniqueIN4node8profiler23V8CpuProfilerConnectionEJRPNS0_11EnvironmentEEENSt8__detail9_MakeUniqIT_E15__single_objectEDpOT0_ = comdat any

$_ZNSt10unique_ptrIN4node8profiler23V8CpuProfilerConnectionESt14default_deleteIS2_EED2Ev = comdat any

$_ZN4node11Environment22set_heap_prof_intervalEm = comdat any

$_ZN4node11Environment17set_heap_prof_dirERKNSt7__cxx1112basic_stringIcSt11char_traitsIcESaIcEEE = comdat any

$_ZN4node11Environment18set_heap_prof_nameERKNSt7__cxx1112basic_stringIcSt11char_traitsIcESaIcEEE = comdat any

$_ZN4node11Environment28set_heap_profiler_connectionESt10unique_ptrINS_8profiler24V8HeapProfilerConnectionESt14default_deleteIS3_EE = comdat any

$_ZSt11make_uniqueIN4node8profiler24V8HeapProfilerConnectionEJRPNS0_11EnvironmentEEENSt8__detail9_MakeUniqIT_E15__single_objectEDpOT0_ = comdat any

$_ZNSt10unique_ptrIN4node8profiler24V8HeapProfilerConnectionESt14default_deleteIS2_EED2Ev = comdat any

$_ZN4node11Environment24heap_profiler_connectionEv = comdat any

$_ZN4node25ExternalReferenceRegistry8RegisterEPFvRKN2v820FunctionCallbackInfoINS1_5ValueEEEE = comdat any

$_ZN4node8profiler20V8ProfilerConnection25V8ProfilerSessionDelegateD2Ev = comdat any

$_ZN4node8profiler20V8ProfilerConnection25V8ProfilerSessionDelegateD0Ev = comdat any

$_ZN4node8profiler20V8ProfilerConnectionD2Ev = comdat any

$_ZN4node8profiler20V8ProfilerConnectionD0Ev = comdat any

$_ZN4node8profiler20V8CoverageConnectionD2Ev = comdat any

$_ZN4node8profiler20V8CoverageConnectionD0Ev = comdat any

$_ZNK4node8profiler20V8CoverageConnection4typeEv = comdat any

$_ZNK4node8profiler20V8CoverageConnection6endingEv = comdat any

$_ZN4node8profiler23V8CpuProfilerConnectionD2Ev = comdat any

$_ZN4node8profiler23V8CpuProfilerConnectionD0Ev = comdat any

$_ZNK4node8profiler23V8CpuProfilerConnection4typeEv = comdat any

$_ZNK4node8profiler23V8CpuProfilerConnection6endingEv = comdat any

$_ZN4node8profiler24V8HeapProfilerConnectionD2Ev = comdat any

$_ZN4node8profiler24V8HeapProfilerConnectionD0Ev = comdat any

$_ZNK4node8profiler24V8HeapProfilerConnection4typeEv = comdat any

$_ZNK4node8profiler24V8HeapProfilerConnection6endingEv = comdat any

$_ZNKSt10unique_ptrIN4node9inspector5AgentESt14default_deleteIS2_EE3getEv = comdat any

$_ZNKSt15__uniq_ptr_implIN4node9inspector5AgentESt14default_deleteIS2_EE6_M_ptrEv = comdat any

$_ZSt3getILm0EJPN4node9inspector5AgentESt14default_deleteIS2_EEERKNSt13tuple_elementIXT_ESt5tupleIJDpT0_EEE4typeERKSA_ = comdat any

$_ZSt12__get_helperILm0EPN4node9inspector5AgentEJSt14default_deleteIS2_EEERKT0_RKSt11_Tuple_implIXT_EJS6_DpT1_EE = comdat any

$_ZNSt11_Tuple_implILm0EJPN4node9inspector5AgentESt14default_deleteIS2_EEE7_M_headERKS6_ = comdat any

$_ZNSt10_Head_baseILm0EPN4node9inspector5AgentELb0EE7_M_headERKS4_ = comdat any

$_ZNSt10_HashtableIjjSaIjENSt8__detail9_IdentityESt8equal_toIjESt4hashIjENS1_18_Mod_range_hashingENS1_20_Default_ranged_hashENS1_20_Prime_rehash_policyENS1_17_Hashtable_traitsILb0ELb1ELb1EEEEC2Ev = comdat any

$_ZNSt8__detail15_Hashtable_baseIjjNS_9_IdentityESt8equal_toIjESt4hashIjENS_18_Mod_range_hashingENS_20_Default_ranged_hashENS_17_Hashtable_traitsILb0ELb1ELb1EEEEC2Ev = comdat any

$_ZNSt8__detail16_Hashtable_allocISaINS_10_Hash_nodeIjLb0EEEEEC2Ev = comdat any

$_ZNSt8__detail15_Hash_node_baseC2Ev = comdat any

$_ZNSt8__detail20_Prime_rehash_policyC2Ef = comdat any

$_ZNSt8__detail15_Hash_code_baseIjjNS_9_IdentityESt4hashIjENS_18_Mod_range_hashingENS_20_Default_ranged_hashELb0EEC2Ev = comdat any

$_ZNSt8__detail21_Hashtable_ebo_helperILi0ESt8equal_toIjELb1EEC2Ev = comdat any

$_ZNSt8__detail21_Hashtable_ebo_helperILi1ESt4hashIjELb1EEC2Ev = comdat any

$_ZNSt8__detail21_Hashtable_ebo_helperILi0ESaINS_10_Hash_nodeIjLb0EEEELb1EEC2Ev = comdat any

$_ZNSaINSt8__detail10_Hash_nodeIjLb0EEEEC2Ev = comdat any

$_ZNSt15__new_allocatorINSt8__detail10_Hash_nodeIjLb0EEEEC2Ev = comdat any

$_ZNK4node11Environment15principal_realmEv = comdat any

$_ZNKSt10unique_ptrIN4node14PrincipalRealmESt14default_deleteIS1_EE3getEv = comdat any

$_ZNKSt15__uniq_ptr_implIN4node14PrincipalRealmESt14default_deleteIS1_EE6_M_ptrEv = comdat any

$_ZSt3getILm0EJPN4node14PrincipalRealmESt14default_deleteIS1_EEERKNSt13tuple_elementIXT_ESt5tupleIJDpT0_EEE4typeERKS9_ = comdat any

$_ZSt12__get_helperILm0EPN4node14PrincipalRealmEJSt14default_deleteIS1_EEERKT0_RKSt11_Tuple_implIXT_EJS5_DpT1_EE = comdat any

$_ZNSt11_Tuple_implILm0EJPN4node14PrincipalRealmESt14default_deleteIS1_EEE7_M_headERKS5_ = comdat any

$_ZNSt10_Head_baseILm0EPN4node14PrincipalRealmELb0EE7_M_headERKS3_ = comdat any

$_ZN4node16MaybeStackBufferIcLm1024EED2Ev = comdat any

$_ZNK4node16MaybeStackBufferIcLm1024EE11IsAllocatedEv = comdat any

$_ZNK4node16MaybeStackBufferIcLm1024EE13IsInvalidatedEv = comdat any

$_ZNSt8__detailneERKNS_19_Node_iterator_baseIjLb0EEES3_ = comdat any

$_ZNKSt13unordered_setIjSt4hashIjESt8equal_toIjESaIjEE4findERKj = comdat any

$_ZNKSt13unordered_setIjSt4hashIjESt8equal_toIjESaIjEE3endEv = comdat any

$_ZNKSt10_HashtableIjjSaIjENSt8__detail9_IdentityESt8equal_toIjESt4hashIjENS1_18_Mod_range_hashingENS1_20_Default_ranged_hashENS1_20_Prime_rehash_policyENS1_17_Hashtable_traitsILb0ELb1ELb1EEEE4findERKj = comdat any

$_ZNKSt10_HashtableIjjSaIjENSt8__detail9_IdentityESt8equal_toIjESt4hashIjENS1_18_Mod_range_hashingENS1_20_Default_ranged_hashENS1_20_Prime_rehash_policyENS1_17_Hashtable_traitsILb0ELb1ELb1EEEE4sizeEv = comdat any

$_ZNSt10_HashtableIjjSaIjENSt8__detail9_IdentityESt8equal_toIjESt4hashIjENS1_18_Mod_range_hashingENS1_20_Default_ranged_hashENS1_20_Prime_rehash_policyENS1_17_Hashtable_traitsILb0ELb1ELb1EEEE22__small_size_thresholdEv = comdat any

$_ZNKSt10_HashtableIjjSaIjENSt8__detail9_IdentityESt8equal_toIjESt4hashIjENS1_18_Mod_range_hashingENS1_20_Default_ranged_hashENS1_20_Prime_rehash_policyENS1_17_Hashtable_traitsILb0ELb1ELb1EEEE5beginEv = comdat any

$_ZNKSt10_HashtableIjjSaIjENSt8__detail9_IdentityESt8equal_toIjESt4hashIjENS1_18_Mod_range_hashingENS1_20_Default_ranged_hashENS1_20_Prime_rehash_policyENS1_17_Hashtable_traitsILb0ELb1ELb1EEEE3endEv = comdat any

$_ZNKSt8__detail15_Hashtable_baseIjjNS_9_IdentityESt8equal_toIjESt4hashIjENS_18_Mod_range_hashingENS_20_Default_ranged_hashENS_17_Hashtable_traitsILb0ELb1ELb1EEEE13_M_key_equalsERKjRKNS_16_Hash_node_valueIjLb0EEE = comdat any

$_ZNSt8__detail20_Node_const_iteratorIjLb1ELb0EEppEv = comdat any

$_ZNKSt8__detail15_Hash_code_baseIjjNS_9_IdentityESt4hashIjENS_18_Mod_range_hashingENS_20_Default_ranged_hashELb0EE12_M_hash_codeERKj = comdat any

$_ZNKSt10_HashtableIjjSaIjENSt8__detail9_IdentityESt8equal_toIjESt4hashIjENS1_18_Mod_range_hashingENS1_20_Default_ranged_hashENS1_20_Prime_rehash_policyENS1_17_Hashtable_traitsILb0ELb1ELb1EEEE15_M_bucket_indexEm = comdat any

$_ZNKSt10_HashtableIjjSaIjENSt8__detail9_IdentityESt8equal_toIjESt4hashIjENS1_18_Mod_range_hashingENS1_20_Default_ranged_hashENS1_20_Prime_rehash_policyENS1_17_Hashtable_traitsILb0ELb1ELb1EEEE12_M_find_nodeEmRKjm = comdat any

$_ZNSt8__detail20_Node_const_iteratorIjLb1ELb0EEC2EPNS_10_Hash_nodeIjLb0EEE = comdat any

$_ZNSt8__detail22_Hashtable_hash_traitsISt4hashIjEE22__small_size_thresholdEv = comdat any

$_ZNKSt10_HashtableIjjSaIjENSt8__detail9_IdentityESt8equal_toIjESt4hashIjENS1_18_Mod_range_hashingENS1_20_Default_ranged_hashENS1_20_Prime_rehash_policyENS1_17_Hashtable_traitsILb0ELb1ELb1EEEE8_M_beginEv = comdat any

$_ZNKSt8__detail15_Hashtable_baseIjjNS_9_IdentityESt8equal_toIjESt4hashIjENS_18_Mod_range_hashingENS_20_Default_ranged_hashENS_17_Hashtable_traitsILb0ELb1ELb1EEEE5_M_eqEv = comdat any

$_ZNKSt8equal_toIjEclERKjS2_ = comdat any

$_ZNKSt8__detail9_IdentityclIRKjEEOT_S5_ = comdat any

$_ZNKSt8__detail21_Hash_node_value_baseIjE4_M_vEv = comdat any

$_ZNKSt8__detail21_Hashtable_ebo_helperILi0ESt8equal_toIjELb1EE7_M_cgetEv = comdat any

$_ZNKSt8__detail21_Hash_node_value_baseIjE9_M_valptrEv = comdat any

$_ZNK9__gnu_cxx16__aligned_bufferIjE6_M_ptrEv = comdat any

$_ZNK9__gnu_cxx16__aligned_bufferIjE7_M_addrEv = comdat any

$_ZNSt8__detail19_Node_iterator_baseIjLb0EE7_M_incrEv = comdat any

$_ZNKSt8__detail10_Hash_nodeIjLb0EE7_M_nextEv = comdat any

$_ZNKSt8__detail15_Hash_code_baseIjjNS_9_IdentityESt4hashIjENS_18_Mod_range_hashingENS_20_Default_ranged_hashELb0EE7_M_hashEv = comdat any

$_ZNKSt4hashIjEclEj = comdat any

$_ZNKSt8__detail21_Hashtable_ebo_helperILi1ESt4hashIjELb1EE7_M_cgetEv = comdat any

$_ZNKSt8__detail15_Hash_code_baseIjjNS_9_IdentityESt4hashIjENS_18_Mod_range_hashingENS_20_Default_ranged_hashELb0EE15_M_bucket_indexEmm = comdat any

$_ZNKSt8__detail18_Mod_range_hashingclEmm = comdat any

$_ZNKSt10_HashtableIjjSaIjENSt8__detail9_IdentityESt8equal_toIjESt4hashIjENS1_18_Mod_range_hashingENS1_20_Default_ranged_hashENS1_20_Prime_rehash_policyENS1_17_Hashtable_traitsILb0ELb1ELb1EEEE19_M_find_before_nodeEmRKjm = comdat any

$_ZNKSt8__detail15_Hashtable_baseIjjNS_9_IdentityESt8equal_toIjESt4hashIjENS_18_Mod_range_hashingENS_20_Default_ranged_hashENS_17_Hashtable_traitsILb0ELb1ELb1EEEE9_M_equalsERKjmRKNS_16_Hash_node_valueIjLb0EEE = comdat any

$_ZNKSt10_HashtableIjjSaIjENSt8__detail9_IdentityESt8equal_toIjESt4hashIjENS1_18_Mod_range_hashingENS1_20_Default_ranged_hashENS1_20_Prime_rehash_policyENS1_17_Hashtable_traitsILb0ELb1ELb1EEEE15_M_bucket_indexERKNS1_16_Hash_node_valueIjLb0EEE = comdat any

$_ZNSt8__detail15_Hashtable_baseIjjNS_9_IdentityESt8equal_toIjESt4hashIjENS_18_Mod_range_hashingENS_20_Default_ranged_hashENS_17_Hashtable_traitsILb0ELb1ELb1EEEE9_S_equalsEmRKNS_21_Hash_node_code_cacheILb0EEE = comdat any

$_ZNKSt8__detail15_Hash_code_baseIjjNS_9_IdentityESt4hashIjENS_18_Mod_range_hashingENS_20_Default_ranged_hashELb0EE15_M_bucket_indexERKNS_16_Hash_node_valueIjLb0EEEm = comdat any

$_ZNSt8__detail19_Node_iterator_baseIjLb0EEC2EPNS_10_Hash_nodeIjLb0EEE = comdat any

$_ZNSt13unordered_setIjSt4hashIjESt8equal_toIjESaIjEE5eraseERKj = comdat any

$_ZNSt10_HashtableIjjSaIjENSt8__detail9_IdentityESt8equal_toIjESt4hashIjENS1_18_Mod_range_hashingENS1_20_Default_ranged_hashENS1_20_Prime_rehash_policyENS1_17_Hashtable_traitsILb0ELb1ELb1EEEE5eraseERKj = comdat any

$_ZNSt10_HashtableIjjSaIjENSt8__detail9_IdentityESt8equal_toIjESt4hashIjENS1_18_Mod_range_hashingENS1_20_Default_ranged_hashENS1_20_Prime_rehash_policyENS1_17_Hashtable_traitsILb0ELb1ELb1EEEE8_M_eraseESt17integral_constantIbLb1EERKj = comdat any

$_ZNSt10_HashtableIjjSaIjENSt8__detail9_IdentityESt8equal_toIjESt4hashIjENS1_18_Mod_range_hashingENS1_20_Default_ranged_hashENS1_20_Prime_rehash_policyENS1_17_Hashtable_traitsILb0ELb1ELb1EEEE19_M_find_before_nodeERKj = comdat any

$_ZNSt10_HashtableIjjSaIjENSt8__detail9_IdentityESt8equal_toIjESt4hashIjENS1_18_Mod_range_hashingENS1_20_Default_ranged_hashENS1_20_Prime_rehash_policyENS1_17_Hashtable_traitsILb0ELb1ELb1EEEE8_M_eraseEmPNS1_15_Hash_node_baseEPNS1_10_Hash_nodeIjLb0EEE = comdat any

$_ZNSt10_HashtableIjjSaIjENSt8__detail9_IdentityESt8equal_toIjESt4hashIjENS1_18_Mod_range_hashingENS1_20_Default_ranged_hashENS1_20_Prime_rehash_policyENS1_17_Hashtable_traitsILb0ELb1ELb1EEEE22_M_remove_bucket_beginEmPNS1_10_Hash_nodeIjLb0EEEm = comdat any

$_ZNSt8__detail14_Node_iteratorIjLb1ELb0EEC2EPNS_10_Hash_nodeIjLb0EEE = comdat any

$_ZNSt8__detail16_Hashtable_allocISaINS_10_Hash_nodeIjLb0EEEEE18_M_deallocate_nodeEPS2_ = comdat any

$_ZNSt16allocator_traitsISaINSt8__detail10_Hash_nodeIjLb0EEEEE7destroyIjEEvRS3_PT_ = comdat any

$_ZNSt8__detail16_Hashtable_allocISaINS_10_Hash_nodeIjLb0EEEEE17_M_node_allocatorEv = comdat any

$_ZNSt8__detail21_Hash_node_value_baseIjE9_M_valptrEv = comdat any

$_ZNSt8__detail16_Hashtable_allocISaINS_10_Hash_nodeIjLb0EEEEE22_M_deallocate_node_ptrEPS2_ = comdat any

$_ZNSt15__new_allocatorINSt8__detail10_Hash_nodeIjLb0EEEE7destroyIjEEvPT_ = comdat any

$_ZNSt8__detail21_Hashtable_ebo_helperILi0ESaINS_10_Hash_nodeIjLb0EEEELb1EE6_M_getEv = comdat any

$_ZN9__gnu_cxx16__aligned_bufferIjE6_M_ptrEv = comdat any

$_ZN9__gnu_cxx16__aligned_bufferIjE7_M_addrEv = comdat any

$_ZNSt19__ptr_traits_ptr_toIPNSt8__detail10_Hash_nodeIjLb0EEES2_Lb0EE10pointer_toERS2_ = comdat any

$_ZNSt16allocator_traitsISaINSt8__detail10_Hash_nodeIjLb0EEEEE10deallocateERS3_PS2_m = comdat any

$_ZNSt15__new_allocatorINSt8__detail10_Hash_nodeIjLb0EEEE10deallocateEPS2_m = comdat any

$_ZN4node2fs13FSReqWrapSyncC2EPKcS3_S3_ = comdat any

$_ZN4node2fs13FSReqWrapSyncD2Ev = comdat any

$_ZNSt10unique_ptrIN4node2fs18FSContinuationDataESt14default_deleteIS2_EEC2IS4_vEEv = comdat any

$_ZNSt15__uniq_ptr_dataIN4node2fs18FSContinuationDataESt14default_deleteIS2_ELb1ELb1EEC2Ev = comdat any

$_ZNSt15__uniq_ptr_implIN4node2fs18FSContinuationDataESt14default_deleteIS2_EEC2Ev = comdat any

$_ZNSt5tupleIJPN4node2fs18FSContinuationDataESt14default_deleteIS2_EEEC2ILb1ETnNSt9enable_ifIXclsr17_TupleConstraintsIXT_ES3_S5_EE37__is_implicitly_default_constructibleEEbE4typeELb1EEEv = comdat any

$_ZNSt11_Tuple_implILm0EJPN4node2fs18FSContinuationDataESt14default_deleteIS2_EEEC2Ev = comdat any

$_ZNSt11_Tuple_implILm1EJSt14default_deleteIN4node2fs18FSContinuationDataEEEEC2Ev = comdat any

$_ZNSt10_Head_baseILm0EPN4node2fs18FSContinuationDataELb0EEC2Ev = comdat any

$_ZNSt10_Head_baseILm1ESt14default_deleteIN4node2fs18FSContinuationDataEELb1EEC2Ev = comdat any

$_ZNSt10unique_ptrIN4node2fs18FSContinuationDataESt14default_deleteIS2_EED2Ev = comdat any

$_ZNSt15__uniq_ptr_implIN4node2fs18FSContinuationDataESt14default_deleteIS2_EE6_M_ptrEv = comdat any

$_ZNSt10unique_ptrIN4node2fs18FSContinuationDataESt14default_deleteIS2_EE11get_deleterEv = comdat any

$_ZNKSt14default_deleteIN4node2fs18FSContinuationDataEEclEPS2_ = comdat any

$_ZSt3getILm0EJPN4node2fs18FSContinuationDataESt14default_deleteIS2_EEERNSt13tuple_elementIXT_ESt5tupleIJDpT0_EEE4typeERSA_ = comdat any

$_ZSt12__get_helperILm0EPN4node2fs18FSContinuationDataEJSt14default_deleteIS2_EEERT0_RSt11_Tuple_implIXT_EJS6_DpT1_EE = comdat any

$_ZNSt11_Tuple_implILm0EJPN4node2fs18FSContinuationDataESt14default_deleteIS2_EEE7_M_headERS6_ = comdat any

$_ZNSt10_Head_baseILm0EPN4node2fs18FSContinuationDataELb0EE7_M_headERS4_ = comdat any

$_ZNSt15__uniq_ptr_implIN4node2fs18FSContinuationDataESt14default_deleteIS2_EE10_M_deleterEv = comdat any

$_ZSt3getILm1EJPN4node2fs18FSContinuationDataESt14default_deleteIS2_EEERNSt13tuple_elementIXT_ESt5tupleIJDpT0_EEE4typeERSA_ = comdat any

$_ZSt12__get_helperILm1ESt14default_deleteIN4node2fs18FSContinuationDataEEJEERT0_RSt11_Tuple_implIXT_EJS5_DpT1_EE = comdat any

$_ZNSt11_Tuple_implILm1EJSt14default_deleteIN4node2fs18FSContinuationDataEEEE7_M_headERS5_ = comdat any

$_ZNSt10_Head_baseILm1ESt14default_deleteIN4node2fs18FSContinuationDataEELb1EE7_M_headERS5_ = comdat any

$_ZNKSt10unique_ptrIN4node14PrincipalRealmESt14default_deleteIS1_EEptEv = comdat any

$_ZNSt8__detail14__to_chars_lenImEEjT_i = comdat any

$_ZNSt7__cxx1112basic_stringIcSt11char_traitsIcESaIcEEC2IS3_EEmcRKS3_ = comdat any

$_ZNSt8__detail18__to_chars_10_implImEEvPcjT_ = comdat any

$_ZN4node11Environment18enabled_debug_listEv = comdat any

$_ZN4node7FPrintFIJRPKcEEEvP8_IO_FILES2_DpOT_ = comdat any

$_ZN4node7SPrintFIJRPKcEEENSt7__cxx1112basic_stringIcSt11char_traitsIcESaIcEEES2_DpOT_ = comdat any

$_ZN4node11SPrintFImplIRPKcJEEENSt7__cxx1112basic_stringIcSt11char_traitsIcESaIcEEES2_OT_DpOT0_ = comdat any

$_ZNSt7__cxx1112basic_stringIcSt11char_traitsIcESaIcEEC2IPKcvEET_S8_RKS3_ = comdat any

$_ZStplIcSt11char_traitsIcESaIcEENSt7__cxx1112basic_stringIT_T0_T1_EEOS8_S9_ = comdat any

$_ZN4node8ToStringIPKcEENSt7__cxx1112basic_stringIcSt11char_traitsIcESaIcEEERKT_ = comdat any

$_ZN4node12ToBaseStringILj3EPKcEENSt7__cxx1112basic_stringIcSt11char_traitsIcESaIcEEERKT0_ = comdat any

$_ZN4node12ToBaseStringILj4EPKcEENSt7__cxx1112basic_stringIcSt11char_traitsIcESaIcEEERKT0_ = comdat any

$_ZN4node7ToUpperERKNSt7__cxx1112basic_stringIcSt11char_traitsIcESaIcEEE = comdat any

$_ZStplIcSt11char_traitsIcESaIcEENSt7__cxx1112basic_stringIT_T0_T1_EERKS8_OS8_ = comdat any

$_ZN4node11SPrintFImplB5cxx11EPKc = comdat any

$_ZNSt7__cxx1112basic_stringIcSt11char_traitsIcESaIcEE12_M_constructIPKcEEvT_S8_St20forward_iterator_tag = comdat any

$_ZSt19__iterator_categoryIPKcENSt15iterator_traitsIT_E17iterator_categoryERKS3_ = comdat any

$_ZSt8distanceIPKcENSt15iterator_traitsIT_E15difference_typeES3_S3_ = comdat any

$_ZZNSt7__cxx1112basic_stringIcSt11char_traitsIcESaIcEE12_M_constructIPKcEEvT_S8_St20forward_iterator_tagEN6_GuardC2EPS4_ = comdat any

$_ZZNSt7__cxx1112basic_stringIcSt11char_traitsIcESaIcEE12_M_constructIPKcEEvT_S8_St20forward_iterator_tagEN6_GuardD2Ev = comdat any

$_ZSt10__distanceIPKcENSt15iterator_traitsIT_E15difference_typeES3_S3_St26random_access_iterator_tag = comdat any

$_ZN4node14ToStringHelper7ConvertB5cxx11EPKc = comdat any

$_ZN4node14ToStringHelper11BaseConvertILj3EPKcvEENSt7__cxx1112basic_stringIcSt11char_traitsIcESaIcEEET0_ = comdat any

$_ZN4node14ToStringHelper11BaseConvertILj4EPKcvEENSt7__cxx1112basic_stringIcSt11char_traitsIcESaIcEEET0_ = comdat any

$_ZN4node7ToUpperEc = comdat any

$_ZSt7toupperIcET_S0_RKSt6locale = comdat any

$_ZNKSt5ctypeIcE7toupperEc = comdat any

$_ZNSt10shared_ptrIN4node7KVStoreEEC2ERKS2_ = comdat any

$_ZNSt12__shared_ptrIN4node7KVStoreELN9__gnu_cxx12_Lock_policyE2EEC2ERKS4_ = comdat any

$_ZNSt14__shared_countILN9__gnu_cxx12_Lock_policyE2EEC2ERKS2_ = comdat any

$_ZNSt16_Sp_counted_baseILN9__gnu_cxx12_Lock_policyE2EE15_M_add_ref_copyEv = comdat any

$_ZNSt12__shared_ptrIN4node7KVStoreELN9__gnu_cxx12_Lock_policyE2EED2Ev = comdat any

$_ZNSt14__shared_countILN9__gnu_cxx12_Lock_policyE2EED2Ev = comdat any

$_ZNSt16_Sp_counted_baseILN9__gnu_cxx12_Lock_policyE2EE10_M_releaseEv = comdat any

$_ZNSt16_Sp_counted_baseILN9__gnu_cxx12_Lock_policyE2EE24_M_release_last_use_coldEv = comdat any

$_ZNSt16_Sp_counted_baseILN9__gnu_cxx12_Lock_policyE2EE19_M_release_last_useEv = comdat any

$_ZNSt10shared_ptrIN4node18EnvironmentOptionsEEC2ERKS2_ = comdat any

$_ZNSt12__shared_ptrIN4node18EnvironmentOptionsELN9__gnu_cxx12_Lock_policyE2EEC2ERKS4_ = comdat any

$_ZNSt12__shared_ptrIN4node18EnvironmentOptionsELN9__gnu_cxx12_Lock_policyE2EED2Ev = comdat any

$_ZNKSt10unique_ptrIN4node8profiler20V8CoverageConnectionESt14default_deleteIS2_EE3getEv = comdat any

$_ZNKSt15__uniq_ptr_implIN4node8profiler20V8CoverageConnectionESt14default_deleteIS2_EE6_M_ptrEv = comdat any

$_ZSt3getILm0EJPN4node8profiler20V8CoverageConnectionESt14default_deleteIS2_EEERKNSt13tuple_elementIXT_ESt5tupleIJDpT0_EEE4typeERKSA_ = comdat any

$_ZSt12__get_helperILm0EPN4node8profiler20V8CoverageConnectionEJSt14default_deleteIS2_EEERKT0_RKSt11_Tuple_implIXT_EJS6_DpT1_EE = comdat any

$_ZNSt11_Tuple_implILm0EJPN4node8profiler20V8CoverageConnectionESt14default_deleteIS2_EEE7_M_headERKS6_ = comdat any

$_ZNSt10_Head_baseILm0EPN4node8profiler20V8CoverageConnectionELb0EE7_M_headERKS4_ = comdat any

$_ZSteqIN4node8profiler20V8CoverageConnectionESt14default_deleteIS2_EEbRKSt10unique_ptrIT_T0_EDn = comdat any

$_ZSt4swapIN4node8profiler20V8CoverageConnectionESt14default_deleteIS2_EENSt9enable_ifIXsr14__is_swappableIT0_EE5valueEvE4typeERSt10unique_ptrIT_S6_ESC_ = comdat any

$_ZNKSt10unique_ptrIN4node8profiler20V8CoverageConnectionESt14default_deleteIS2_EEcvbEv = comdat any

$_ZNSt10unique_ptrIN4node8profiler20V8CoverageConnectionESt14default_deleteIS2_EE4swapERS5_ = comdat any

$_ZNSt15__uniq_ptr_implIN4node8profiler20V8CoverageConnectionESt14default_deleteIS2_EE4swapERS5_ = comdat any

$_ZSt4swapIPN4node8profiler20V8CoverageConnectionEENSt9enable_ifIXsr6__and_ISt6__not_ISt15__is_tuple_likeIT_EESt21is_move_constructibleIS7_ESt18is_move_assignableIS7_EEE5valueEvE4typeERS7_SG_ = comdat any

$_ZNSt15__uniq_ptr_implIN4node8profiler20V8CoverageConnectionESt14default_deleteIS2_EE6_M_ptrEv = comdat any

$_ZSt4swapISt14default_deleteIN4node8profiler20V8CoverageConnectionEEENSt9enable_ifIXsr6__and_ISt6__not_ISt15__is_tuple_likeIT_EESt21is_move_constructibleIS8_ESt18is_move_assignableIS8_EEE5valueEvE4typeERS8_SH_ = comdat any

$_ZNSt15__uniq_ptr_implIN4node8profiler20V8CoverageConnectionESt14default_deleteIS2_EE10_M_deleterEv = comdat any

$_ZSt3getILm0EJPN4node8profiler20V8CoverageConnectionESt14default_deleteIS2_EEERNSt13tuple_elementIXT_ESt5tupleIJDpT0_EEE4typeERSA_ = comdat any

$_ZSt12__get_helperILm0EPN4node8profiler20V8CoverageConnectionEJSt14default_deleteIS2_EEERT0_RSt11_Tuple_implIXT_EJS6_DpT1_EE = comdat any

$_ZNSt11_Tuple_implILm0EJPN4node8profiler20V8CoverageConnectionESt14default_deleteIS2_EEE7_M_headERS6_ = comdat any

$_ZNSt10_Head_baseILm0EPN4node8profiler20V8CoverageConnectionELb0EE7_M_headERS4_ = comdat any

$_ZSt3getILm1EJPN4node8profiler20V8CoverageConnectionESt14default_deleteIS2_EEERNSt13tuple_elementIXT_ESt5tupleIJDpT0_EEE4typeERSA_ = comdat any

$_ZSt12__get_helperILm1ESt14default_deleteIN4node8profiler20V8CoverageConnectionEEJEERT0_RSt11_Tuple_implIXT_EJS5_DpT1_EE = comdat any

$_ZNSt11_Tuple_implILm1EJSt14default_deleteIN4node8profiler20V8CoverageConnectionEEEE7_M_headERS5_ = comdat any

$_ZNSt10_Head_baseILm1ESt14default_deleteIN4node8profiler20V8CoverageConnectionEELb1EE7_M_headERS5_ = comdat any

$_ZNKSt10unique_ptrIN4node8profiler23V8CpuProfilerConnectionESt14default_deleteIS2_EE3getEv = comdat any

$_ZNKSt15__uniq_ptr_implIN4node8profiler23V8CpuProfilerConnectionESt14default_deleteIS2_EE6_M_ptrEv = comdat any

$_ZSt3getILm0EJPN4node8profiler23V8CpuProfilerConnectionESt14default_deleteIS2_EEERKNSt13tuple_elementIXT_ESt5tupleIJDpT0_EEE4typeERKSA_ = comdat any

$_ZSt12__get_helperILm0EPN4node8profiler23V8CpuProfilerConnectionEJSt14default_deleteIS2_EEERKT0_RKSt11_Tuple_implIXT_EJS6_DpT1_EE = comdat any

$_ZNSt11_Tuple_implILm0EJPN4node8profiler23V8CpuProfilerConnectionESt14default_deleteIS2_EEE7_M_headERKS6_ = comdat any

$_ZNSt10_Head_baseILm0EPN4node8profiler23V8CpuProfilerConnectionELb0EE7_M_headERKS4_ = comdat any

$_ZSteqIN4node8profiler23V8CpuProfilerConnectionESt14default_deleteIS2_EEbRKSt10unique_ptrIT_T0_EDn = comdat any

$_ZSt4swapIN4node8profiler23V8CpuProfilerConnectionESt14default_deleteIS2_EENSt9enable_ifIXsr14__is_swappableIT0_EE5valueEvE4typeERSt10unique_ptrIT_S6_ESC_ = comdat any

$_ZNKSt10unique_ptrIN4node8profiler23V8CpuProfilerConnectionESt14default_deleteIS2_EEcvbEv = comdat any

$_ZNSt10unique_ptrIN4node8profiler23V8CpuProfilerConnectionESt14default_deleteIS2_EE4swapERS5_ = comdat any

$_ZNSt15__uniq_ptr_implIN4node8profiler23V8CpuProfilerConnectionESt14default_deleteIS2_EE4swapERS5_ = comdat any

$_ZSt4swapIPN4node8profiler23V8CpuProfilerConnectionEENSt9enable_ifIXsr6__and_ISt6__not_ISt15__is_tuple_likeIT_EESt21is_move_constructibleIS7_ESt18is_move_assignableIS7_EEE5valueEvE4typeERS7_SG_ = comdat any

$_ZNSt15__uniq_ptr_implIN4node8profiler23V8CpuProfilerConnectionESt14default_deleteIS2_EE6_M_ptrEv = comdat any

$_ZSt4swapISt14default_deleteIN4node8profiler23V8CpuProfilerConnectionEEENSt9enable_ifIXsr6__and_ISt6__not_ISt15__is_tuple_likeIT_EESt21is_move_constructibleIS8_ESt18is_move_assignableIS8_EEE5valueEvE4typeERS8_SH_ = comdat any

$_ZNSt15__uniq_ptr_implIN4node8profiler23V8CpuProfilerConnectionESt14default_deleteIS2_EE10_M_deleterEv = comdat any

$_ZSt3getILm0EJPN4node8profiler23V8CpuProfilerConnectionESt14default_deleteIS2_EEERNSt13tuple_elementIXT_ESt5tupleIJDpT0_EEE4typeERSA_ = comdat any

$_ZSt12__get_helperILm0EPN4node8profiler23V8CpuProfilerConnectionEJSt14default_deleteIS2_EEERT0_RSt11_Tuple_implIXT_EJS6_DpT1_EE = comdat any

$_ZNSt11_Tuple_implILm0EJPN4node8profiler23V8CpuProfilerConnectionESt14default_deleteIS2_EEE7_M_headERS6_ = comdat any

$_ZNSt10_Head_baseILm0EPN4node8profiler23V8CpuProfilerConnectionELb0EE7_M_headERS4_ = comdat any

$_ZSt3getILm1EJPN4node8profiler23V8CpuProfilerConnectionESt14default_deleteIS2_EEERNSt13tuple_elementIXT_ESt5tupleIJDpT0_EEE4typeERSA_ = comdat any

$_ZSt12__get_helperILm1ESt14default_deleteIN4node8profiler23V8CpuProfilerConnectionEEJEERT0_RSt11_Tuple_implIXT_EJS5_DpT1_EE = comdat any

$_ZNSt11_Tuple_implILm1EJSt14default_deleteIN4node8profiler23V8CpuProfilerConnectionEEEE7_M_headERS5_ = comdat any

$_ZNSt10_Head_baseILm1ESt14default_deleteIN4node8profiler23V8CpuProfilerConnectionEELb1EE7_M_headERS5_ = comdat any

$_ZSteqIN4node8profiler24V8HeapProfilerConnectionESt14default_deleteIS2_EEbRKSt10unique_ptrIT_T0_EDn = comdat any

$_ZSt4swapIN4node8profiler24V8HeapProfilerConnectionESt14default_deleteIS2_EENSt9enable_ifIXsr14__is_swappableIT0_EE5valueEvE4typeERSt10unique_ptrIT_S6_ESC_ = comdat any

$_ZNKSt10unique_ptrIN4node8profiler24V8HeapProfilerConnectionESt14default_deleteIS2_EEcvbEv = comdat any

$_ZNKSt10unique_ptrIN4node8profiler24V8HeapProfilerConnectionESt14default_deleteIS2_EE3getEv = comdat any

$_ZNKSt15__uniq_ptr_implIN4node8profiler24V8HeapProfilerConnectionESt14default_deleteIS2_EE6_M_ptrEv = comdat any

$_ZSt3getILm0EJPN4node8profiler24V8HeapProfilerConnectionESt14default_deleteIS2_EEERKNSt13tuple_elementIXT_ESt5tupleIJDpT0_EEE4typeERKSA_ = comdat any

$_ZSt12__get_helperILm0EPN4node8profiler24V8HeapProfilerConnectionEJSt14default_deleteIS2_EEERKT0_RKSt11_Tuple_implIXT_EJS6_DpT1_EE = comdat any

$_ZNSt11_Tuple_implILm0EJPN4node8profiler24V8HeapProfilerConnectionESt14default_deleteIS2_EEE7_M_headERKS6_ = comdat any

$_ZNSt10_Head_baseILm0EPN4node8profiler24V8HeapProfilerConnectionELb0EE7_M_headERKS4_ = comdat any

$_ZNSt10unique_ptrIN4node8profiler24V8HeapProfilerConnectionESt14default_deleteIS2_EE4swapERS5_ = comdat any

$_ZNSt15__uniq_ptr_implIN4node8profiler24V8HeapProfilerConnectionESt14default_deleteIS2_EE4swapERS5_ = comdat any

$_ZSt4swapIPN4node8profiler24V8HeapProfilerConnectionEENSt9enable_ifIXsr6__and_ISt6__not_ISt15__is_tuple_likeIT_EESt21is_move_constructibleIS7_ESt18is_move_assignableIS7_EEE5valueEvE4typeERS7_SG_ = comdat any

$_ZNSt15__uniq_ptr_implIN4node8profiler24V8HeapProfilerConnectionESt14default_deleteIS2_EE6_M_ptrEv = comdat any

$_ZSt4swapISt14default_deleteIN4node8profiler24V8HeapProfilerConnectionEEENSt9enable_ifIXsr6__and_ISt6__not_ISt15__is_tuple_likeIT_EESt21is_move_constructibleIS8_ESt18is_move_assignableIS8_EEE5valueEvE4typeERS8_SH_ = comdat any

$_ZNSt15__uniq_ptr_implIN4node8profiler24V8HeapProfilerConnectionESt14default_deleteIS2_EE10_M_deleterEv = comdat any

$_ZSt3getILm0EJPN4node8profiler24V8HeapProfilerConnectionESt14default_deleteIS2_EEERNSt13tuple_elementIXT_ESt5tupleIJDpT0_EEE4typeERSA_ = comdat any

$_ZSt12__get_helperILm0EPN4node8profiler24V8HeapProfilerConnectionEJSt14default_deleteIS2_EEERT0_RSt11_Tuple_implIXT_EJS6_DpT1_EE = comdat any

$_ZNSt11_Tuple_implILm0EJPN4node8profiler24V8HeapProfilerConnectionESt14default_deleteIS2_EEE7_M_headERS6_ = comdat any

$_ZNSt10_Head_baseILm0EPN4node8profiler24V8HeapProfilerConnectionELb0EE7_M_headERS4_ = comdat any

$_ZSt3getILm1EJPN4node8profiler24V8HeapProfilerConnectionESt14default_deleteIS2_EEERNSt13tuple_elementIXT_ESt5tupleIJDpT0_EEE4typeERSA_ = comdat any

$_ZSt12__get_helperILm1ESt14default_deleteIN4node8profiler24V8HeapProfilerConnectionEEJEERT0_RSt11_Tuple_implIXT_EJS5_DpT1_EE = comdat any

$_ZNSt11_Tuple_implILm1EJSt14default_deleteIN4node8profiler24V8HeapProfilerConnectionEEEE7_M_headERS5_ = comdat any

$_ZNSt10_Head_baseILm1ESt14default_deleteIN4node8profiler24V8HeapProfilerConnectionEELb1EE7_M_headERS5_ = comdat any

$_ZN4node25ExternalReferenceRegistry9RegisterTIFvRKN2v820FunctionCallbackInfoINS2_5ValueEEEEEEvPT_ = comdat any

$_ZNSt6vectorIlSaIlEE9push_backEOl = comdat any

$_ZNSt6vectorIlSaIlEE12emplace_backIJlEEERlDpOT_ = comdat any

$_ZNSt16allocator_traitsISaIlEE9constructIlJlEEEvRS0_PT_DpOT0_ = comdat any

$_ZNSt6vectorIlSaIlEE17_M_realloc_insertIJlEEEvN9__gnu_cxx17__normal_iteratorIPlS1_EEDpOT_ = comdat any

$_ZNSt6vectorIlSaIlEE3endEv = comdat any

$_ZNSt6vectorIlSaIlEE4backEv = comdat any

$_ZNSt15__new_allocatorIlE9constructIlJlEEEvPT_DpOT0_ = comdat any

$_ZNKSt6vectorIlSaIlEE12_M_check_lenEmPKc = comdat any

$_ZN9__gnu_cxxmiIPlSt6vectorIlSaIlEEEENS_17__normal_iteratorIT_T0_E15difference_typeERKS8_SB_ = comdat any

$_ZNSt6vectorIlSaIlEE5beginEv = comdat any

$_ZNSt12_Vector_baseIlSaIlEE11_M_allocateEm = comdat any

$_ZNSt6vectorIlSaIlEE11_S_relocateEPlS2_S2_RS0_ = comdat any

$_ZNK9__gnu_cxx17__normal_iteratorIPlSt6vectorIlSaIlEEE4baseEv = comdat any

$_ZNSt12_Vector_baseIlSaIlEE19_M_get_Tp_allocatorEv = comdat any

$_ZNSt12_Vector_baseIlSaIlEE13_M_deallocateEPlm = comdat any

$_ZNKSt6vectorIlSaIlEE8max_sizeEv = comdat any

$_ZNKSt6vectorIlSaIlEE4sizeEv = comdat any

$_ZSt3maxImERKT_S2_S2_ = comdat any

$_ZNSt6vectorIlSaIlEE11_S_max_sizeERKS0_ = comdat any

$_ZNKSt12_Vector_baseIlSaIlEE19_M_get_Tp_allocatorEv = comdat any

$_ZNSt16allocator_traitsISaIlEE8max_sizeERKS0_ = comdat any

$_ZSt3minImERKT_S2_S2_ = comdat any

$_ZNKSt15__new_allocatorIlE8max_sizeEv = comdat any

$_ZNKSt15__new_allocatorIlE11_M_max_sizeEv = comdat any

$_ZN9__gnu_cxx17__normal_iteratorIPlSt6vectorIlSaIlEEEC2ERKS1_ = comdat any

$_ZNSt16allocator_traitsISaIlEE8allocateERS0_m = comdat any

$_ZNSt15__new_allocatorIlE8allocateEmPKv = comdat any

$_ZSt12__relocate_aIPlS0_SaIlEET0_T_S3_S2_RT1_ = comdat any

$_ZSt14__relocate_a_1IllENSt9enable_ifIXsr3std24__is_bitwise_relocatableIT_EE5valueEPS1_E4typeES2_S2_S2_RSaIT0_E = comdat any

$_ZSt12__niter_baseIPlET_S1_ = comdat any

$_ZNSt16allocator_traitsISaIlEE10deallocateERS0_Plm = comdat any

$_ZNSt15__new_allocatorIlE10deallocateEPlm = comdat any

$_ZNK9__gnu_cxx17__normal_iteratorIPlSt6vectorIlSaIlEEEmiEl = comdat any

$_ZNK9__gnu_cxx17__normal_iteratorIPlSt6vectorIlSaIlEEEdeEv = comdat any

$_ZN4node11Environment10GetCurrentERKN2v820FunctionCallbackInfoINS1_5ValueEEE = comdat any

$_ZN4node11Environment22set_coverage_directoryEPKc = comdat any

$_ZN4node11Environment10GetCurrentEN2v85LocalINS1_7ContextEEE = comdat any

$_ZN4node18ContextEmbedderTag13IsNodeContextEN2v85LocalINS1_7ContextEEE = comdat any

$_ZN4node11Environment27set_source_map_cache_getterEN2v85LocalINS1_8FunctionEEE = comdat any

$_ZN4node7FPrintFIJRA3_KcEEEvP8_IO_FILEPS1_DpOT_ = comdat any

$_ZN4node7SPrintFIJRA3_KcEEENSt7__cxx1112basic_stringIcSt11char_traitsIcESaIcEEEPS1_DpOT_ = comdat any

$_ZN4node11SPrintFImplIRA3_KcJEEENSt7__cxx1112basic_stringIcSt11char_traitsIcESaIcEEEPS1_OT_DpOT0_ = comdat any

$_ZN4node8ToStringIA3_cEENSt7__cxx1112basic_stringIcSt11char_traitsIcESaIcEEERKT_ = comdat any

$_ZN4node12ToBaseStringILj3EA3_cEENSt7__cxx1112basic_stringIcSt11char_traitsIcESaIcEEERKT0_ = comdat any

$_ZN4node12ToBaseStringILj4EA3_cEENSt7__cxx1112basic_stringIcSt11char_traitsIcESaIcEEERKT0_ = comdat any

$_ZNSt17basic_string_viewIcSt11char_traitsIcEEC2EPKc = comdat any

$_ZNSt11char_traitsIcE6lengthEPKc = comdat any

$_ZNSt13unordered_setIjSt4hashIjESt8equal_toIjESaIjEED2Ev = comdat any

$_ZNSt10unique_ptrIN4node9inspector16InspectorSessionESt14default_deleteIS2_EED2Ev = comdat any

$_ZNSt10_HashtableIjjSaIjENSt8__detail9_IdentityESt8equal_toIjESt4hashIjENS1_18_Mod_range_hashingENS1_20_Default_ranged_hashENS1_20_Prime_rehash_policyENS1_17_Hashtable_traitsILb0ELb1ELb1EEEED2Ev = comdat any

$_ZNSt10_HashtableIjjSaIjENSt8__detail9_IdentityESt8equal_toIjESt4hashIjENS1_18_Mod_range_hashingENS1_20_Default_ranged_hashENS1_20_Prime_rehash_policyENS1_17_Hashtable_traitsILb0ELb1ELb1EEEE5clearEv = comdat any

$_ZNSt10_HashtableIjjSaIjENSt8__detail9_IdentityESt8equal_toIjESt4hashIjENS1_18_Mod_range_hashingENS1_20_Default_ranged_hashENS1_20_Prime_rehash_policyENS1_17_Hashtable_traitsILb0ELb1ELb1EEEE21_M_deallocate_bucketsEv = comdat any

$_ZNSt8__detail16_Hashtable_allocISaINS_10_Hash_nodeIjLb0EEEEED2Ev = comdat any

$_ZNSt8__detail16_Hashtable_allocISaINS_10_Hash_nodeIjLb0EEEEE19_M_deallocate_nodesEPS2_ = comdat any

$_ZNSt10_HashtableIjjSaIjENSt8__detail9_IdentityESt8equal_toIjESt4hashIjENS1_18_Mod_range_hashingENS1_20_Default_ranged_hashENS1_20_Prime_rehash_policyENS1_17_Hashtable_traitsILb0ELb1ELb1EEEE21_M_deallocate_bucketsEPPNS1_15_Hash_node_baseEm = comdat any

$_ZNKSt10_HashtableIjjSaIjENSt8__detail9_IdentityESt8equal_toIjESt4hashIjENS1_18_Mod_range_hashingENS1_20_Default_ranged_hashENS1_20_Prime_rehash_policyENS1_17_Hashtable_traitsILb0ELb1ELb1EEEE21_M_uses_single_bucketEPPNS1_15_Hash_node_baseE = comdat any

$_ZNSt8__detail16_Hashtable_allocISaINS_10_Hash_nodeIjLb0EEEEE21_M_deallocate_bucketsEPPNS_15_Hash_node_baseEm = comdat any

$_ZNSt19__ptr_traits_ptr_toIPPNSt8__detail15_Hash_node_baseES2_Lb0EE10pointer_toERS2_ = comdat any

$_ZNSaIPNSt8__detail15_Hash_node_baseEEC2INS_10_Hash_nodeIjLb0EEEEERKSaIT_E = comdat any

$_ZNSt16allocator_traitsISaIPNSt8__detail15_Hash_node_baseEEE10deallocateERS3_PS2_m = comdat any

$_ZNSaIPNSt8__detail15_Hash_node_baseEED2Ev = comdat any

$_ZNSt15__new_allocatorIPNSt8__detail15_Hash_node_baseEEC2Ev = comdat any

$_ZNSt15__new_allocatorIPNSt8__detail15_Hash_node_baseEE10deallocateEPS2_m = comdat any

$_ZNSt15__new_allocatorIPNSt8__detail15_Hash_node_baseEED2Ev = comdat any

$_ZNSt8__detail21_Hashtable_ebo_helperILi0ESaINS_10_Hash_nodeIjLb0EEEELb1EED2Ev = comdat any

$_ZNSaINSt8__detail10_Hash_nodeIjLb0EEEED2Ev = comdat any

$_ZNSt15__new_allocatorINSt8__detail10_Hash_nodeIjLb0EEEED2Ev = comdat any

$_ZNSt15__uniq_ptr_implIN4node9inspector16InspectorSessionESt14default_deleteIS2_EE6_M_ptrEv = comdat any

$_ZNSt10unique_ptrIN4node9inspector16InspectorSessionESt14default_deleteIS2_EE11get_deleterEv = comdat any

$_ZNKSt14default_deleteIN4node9inspector16InspectorSessionEEclEPS2_ = comdat any

$_ZSt3getILm0EJPN4node9inspector16InspectorSessionESt14default_deleteIS2_EEERNSt13tuple_elementIXT_ESt5tupleIJDpT0_EEE4typeERSA_ = comdat any

$_ZSt12__get_helperILm0EPN4node9inspector16InspectorSessionEJSt14default_deleteIS2_EEERT0_RSt11_Tuple_implIXT_EJS6_DpT1_EE = comdat any

$_ZNSt11_Tuple_implILm0EJPN4node9inspector16InspectorSessionESt14default_deleteIS2_EEE7_M_headERS6_ = comdat any

$_ZNSt10_Head_baseILm0EPN4node9inspector16InspectorSessionELb0EE7_M_headERS4_ = comdat any

$_ZNSt15__uniq_ptr_implIN4node9inspector16InspectorSessionESt14default_deleteIS2_EE10_M_deleterEv = comdat any

$_ZSt3getILm1EJPN4node9inspector16InspectorSessionESt14default_deleteIS2_EEERNSt13tuple_elementIXT_ESt5tupleIJDpT0_EEE4typeERSA_ = comdat any

$_ZSt12__get_helperILm1ESt14default_deleteIN4node9inspector16InspectorSessionEEJEERT0_RSt11_Tuple_implIXT_EJS5_DpT1_EE = comdat any

$_ZNSt11_Tuple_implILm1EJSt14default_deleteIN4node9inspector16InspectorSessionEEEE7_M_headERS5_ = comdat any

$_ZNSt10_Head_baseILm1ESt14default_deleteIN4node9inspector16InspectorSessionEELb1EE7_M_headERS5_ = comdat any

$_ZNKSt19__shared_ptr_accessIN4node18EnvironmentOptionsELN9__gnu_cxx12_Lock_policyE2ELb0ELb0EE6_M_getEv = comdat any

$_ZNKSt12__shared_ptrIN4node18EnvironmentOptionsELN9__gnu_cxx12_Lock_policyE2EE3getEv = comdat any

$_ZN4node8profiler20V8ProfilerConnection25V8ProfilerSessionDelegateC2EPS1_ = comdat any

$_ZNSt10unique_ptrIN4node8profiler20V8ProfilerConnection25V8ProfilerSessionDelegateESt14default_deleteIS3_EEC2IS5_vEEPS3_ = comdat any

$_ZN4node9inspector24InspectorSessionDelegateC2Ev = comdat any

$_ZN4node9inspector24InspectorSessionDelegateD2Ev = comdat any

$_ZN4node9inspector24InspectorSessionDelegateD0Ev = comdat any

$_ZNSt15__uniq_ptr_dataIN4node8profiler20V8ProfilerConnection25V8ProfilerSessionDelegateESt14default_deleteIS3_ELb1ELb1EECI2St15__uniq_ptr_implIS3_S5_EEPS3_ = comdat any

$_ZNSt15__uniq_ptr_implIN4node8profiler20V8ProfilerConnection25V8ProfilerSessionDelegateESt14default_deleteIS3_EEC2EPS3_ = comdat any

$_ZNSt5tupleIJPN4node8profiler20V8ProfilerConnection25V8ProfilerSessionDelegateESt14default_deleteIS3_EEEC2ILb1ETnNSt9enable_ifIXclsr17_TupleConstraintsIXT_ES4_S6_EE37__is_implicitly_default_constructibleEEbE4typeELb1EEEv = comdat any

$_ZNSt15__uniq_ptr_implIN4node8profiler20V8ProfilerConnection25V8ProfilerSessionDelegateESt14default_deleteIS3_EE6_M_ptrEv = comdat any

$_ZNSt11_Tuple_implILm0EJPN4node8profiler20V8ProfilerConnection25V8ProfilerSessionDelegateESt14default_deleteIS3_EEEC2Ev = comdat any

$_ZNSt11_Tuple_implILm1EJSt14default_deleteIN4node8profiler20V8ProfilerConnection25V8ProfilerSessionDelegateEEEEC2Ev = comdat any

$_ZNSt10_Head_baseILm0EPN4node8profiler20V8ProfilerConnection25V8ProfilerSessionDelegateELb0EEC2Ev = comdat any

$_ZNSt10_Head_baseILm1ESt14default_deleteIN4node8profiler20V8ProfilerConnection25V8ProfilerSessionDelegateEELb1EEC2Ev = comdat any

$_ZSt3getILm0EJPN4node8profiler20V8ProfilerConnection25V8ProfilerSessionDelegateESt14default_deleteIS3_EEERNSt13tuple_elementIXT_ESt5tupleIJDpT0_EEE4typeERSB_ = comdat any

$_ZSt12__get_helperILm0EPN4node8profiler20V8ProfilerConnection25V8ProfilerSessionDelegateEJSt14default_deleteIS3_EEERT0_RSt11_Tuple_implIXT_EJS7_DpT1_EE = comdat any

$_ZNSt11_Tuple_implILm0EJPN4node8profiler20V8ProfilerConnection25V8ProfilerSessionDelegateESt14default_deleteIS3_EEE7_M_headERS7_ = comdat any

$_ZNSt10_Head_baseILm0EPN4node8profiler20V8ProfilerConnection25V8ProfilerSessionDelegateELb0EE7_M_headERS5_ = comdat any

$_ZNSt10unique_ptrIN4node8profiler20V8ProfilerConnection25V8ProfilerSessionDelegateESt14default_deleteIS3_EE11get_deleterEv = comdat any

$_ZNKSt14default_deleteIN4node8profiler20V8ProfilerConnection25V8ProfilerSessionDelegateEEclEPS3_ = comdat any

$_ZNSt15__uniq_ptr_implIN4node8profiler20V8ProfilerConnection25V8ProfilerSessionDelegateESt14default_deleteIS3_EE10_M_deleterEv = comdat any

$_ZSt3getILm1EJPN4node8profiler20V8ProfilerConnection25V8ProfilerSessionDelegateESt14default_deleteIS3_EEERNSt13tuple_elementIXT_ESt5tupleIJDpT0_EEE4typeERSB_ = comdat any

$_ZSt12__get_helperILm1ESt14default_deleteIN4node8profiler20V8ProfilerConnection25V8ProfilerSessionDelegateEEJEERT0_RSt11_Tuple_implIXT_EJS6_DpT1_EE = comdat any

$_ZNSt11_Tuple_implILm1EJSt14default_deleteIN4node8profiler20V8ProfilerConnection25V8ProfilerSessionDelegateEEEE7_M_headERS6_ = comdat any

$_ZNSt10_Head_baseILm1ESt14default_deleteIN4node8profiler20V8ProfilerConnection25V8ProfilerSessionDelegateEELb1EE7_M_headERS6_ = comdat any

$_ZNSt10unique_ptrIN4node8profiler20V8ProfilerConnection25V8ProfilerSessionDelegateESt14default_deleteIS3_EE7releaseEv = comdat any

$_ZNSt15__uniq_ptr_dataIN4node9inspector24InspectorSessionDelegateESt14default_deleteIS2_ELb1ELb1EECI2St15__uniq_ptr_implIS2_S4_EIS3_INS0_8profiler20V8ProfilerConnection25V8ProfilerSessionDelegateEEEEPS2_OT_ = comdat any

$_ZNSt15__uniq_ptr_implIN4node8profiler20V8ProfilerConnection25V8ProfilerSessionDelegateESt14default_deleteIS3_EE7releaseEv = comdat any

$_ZNSt15__uniq_ptr_implIN4node9inspector24InspectorSessionDelegateESt14default_deleteIS2_EEC2IS3_INS0_8profiler20V8ProfilerConnection25V8ProfilerSessionDelegateEEEEPS2_OT_ = comdat any

$_ZNSt5tupleIJPN4node9inspector24InspectorSessionDelegateESt14default_deleteIS2_EEEC2IRS3_S4_INS0_8profiler20V8ProfilerConnection25V8ProfilerSessionDelegateEETnNSt9enable_ifIXclsr4_TCCIXntcl14__is_alloc_argIT_EEEEE29__is_implicitly_constructibleISE_T0_EEEbE4typeELb1EEEOSE_OSF_ = comdat any

$_ZNSt11_Tuple_implILm0EJPN4node9inspector24InspectorSessionDelegateESt14default_deleteIS2_EEEC2IRS3_JS4_INS0_8profiler20V8ProfilerConnection25V8ProfilerSessionDelegateEEEvEEOT_DpOT0_ = comdat any

$_ZNSt11_Tuple_implILm1EJSt14default_deleteIN4node9inspector24InspectorSessionDelegateEEEEC2IS0_INS1_8profiler20V8ProfilerConnection25V8ProfilerSessionDelegateEEEEOT_ = comdat any

$_ZNSt10_Head_baseILm0EPN4node9inspector24InspectorSessionDelegateELb0EEC2IRS3_EEOT_ = comdat any

$_ZNSt10_Head_baseILm1ESt14default_deleteIN4node9inspector24InspectorSessionDelegateEELb1EEC2IS0_INS1_8profiler20V8ProfilerConnection25V8ProfilerSessionDelegateEEEEOT_ = comdat any

$_ZNSt14default_deleteIN4node9inspector24InspectorSessionDelegateEEC2INS0_8profiler20V8ProfilerConnection25V8ProfilerSessionDelegateEvEERKS_IT_E = comdat any

$_ZNSt15__uniq_ptr_implIN4node9inspector24InspectorSessionDelegateESt14default_deleteIS2_EE6_M_ptrEv = comdat any

$_ZNSt10unique_ptrIN4node9inspector24InspectorSessionDelegateESt14default_deleteIS2_EE11get_deleterEv = comdat any

$_ZNKSt14default_deleteIN4node9inspector24InspectorSessionDelegateEEclEPS2_ = comdat any

$_ZSt3getILm0EJPN4node9inspector24InspectorSessionDelegateESt14default_deleteIS2_EEERNSt13tuple_elementIXT_ESt5tupleIJDpT0_EEE4typeERSA_ = comdat any

$_ZSt12__get_helperILm0EPN4node9inspector24InspectorSessionDelegateEJSt14default_deleteIS2_EEERT0_RSt11_Tuple_implIXT_EJS6_DpT1_EE = comdat any

$_ZNSt11_Tuple_implILm0EJPN4node9inspector24InspectorSessionDelegateESt14default_deleteIS2_EEE7_M_headERS6_ = comdat any

$_ZNSt10_Head_baseILm0EPN4node9inspector24InspectorSessionDelegateELb0EE7_M_headERS4_ = comdat any

$_ZNSt15__uniq_ptr_implIN4node9inspector24InspectorSessionDelegateESt14default_deleteIS2_EE10_M_deleterEv = comdat any

$_ZSt3getILm1EJPN4node9inspector24InspectorSessionDelegateESt14default_deleteIS2_EEERNSt13tuple_elementIXT_ESt5tupleIJDpT0_EEE4typeERSA_ = comdat any

$_ZSt12__get_helperILm1ESt14default_deleteIN4node9inspector24InspectorSessionDelegateEEJEERT0_RSt11_Tuple_implIXT_EJS5_DpT1_EE = comdat any

$_ZNSt11_Tuple_implILm1EJSt14default_deleteIN4node9inspector24InspectorSessionDelegateEEEE7_M_headERS5_ = comdat any

$_ZNSt10_Head_baseILm1ESt14default_deleteIN4node9inspector24InspectorSessionDelegateEELb1EE7_M_headERS5_ = comdat any

$_ZNSt8__detail12_Insert_baseIjjSaIjENS_9_IdentityESt8equal_toIjESt4hashIjENS_18_Mod_range_hashingENS_20_Default_ranged_hashENS_20_Prime_rehash_policyENS_17_Hashtable_traitsILb0ELb1ELb1EEEE6insertERKj = comdat any

$_ZNSt8__detail12_Insert_baseIjjSaIjENS_9_IdentityESt8equal_toIjESt4hashIjENS_18_Mod_range_hashingENS_20_Default_ranged_hashENS_20_Prime_rehash_policyENS_17_Hashtable_traitsILb0ELb1ELb1EEEE20_M_conjure_hashtableEv = comdat any

$_ZNSt8__detail10_AllocNodeISaINS_10_Hash_nodeIjLb0EEEEEC2ERNS_16_Hashtable_allocIS3_EE = comdat any

$_ZNSt10_HashtableIjjSaIjENSt8__detail9_IdentityESt8equal_toIjESt4hashIjENS1_18_Mod_range_hashingENS1_20_Default_ranged_hashENS1_20_Prime_rehash_policyENS1_17_Hashtable_traitsILb0ELb1ELb1EEEE9_M_insertIRKjNS1_10_AllocNodeISaINS1_10_Hash_nodeIjLb0EEEEEEEESt4pairINS1_14_Node_iteratorIjLb1ELb0EEEbEOT_RKT0_St17integral_constantIbLb1EE = comdat any

$_ZNSt10_HashtableIjjSaIjENSt8__detail9_IdentityESt8equal_toIjESt4hashIjENS1_18_Mod_range_hashingENS1_20_Default_ranged_hashENS1_20_Prime_rehash_policyENS1_17_Hashtable_traitsILb0ELb1ELb1EEEE16_M_insert_uniqueIRKjSF_NS1_10_AllocNodeISaINS1_10_Hash_nodeIjLb0EEEEEEEESt4pairINS1_14_Node_iteratorIjLb1ELb0EEEbEOT_OT0_RKT1_ = comdat any

$_ZNSt10_HashtableIjjSaIjENSt8__detail9_IdentityESt8equal_toIjESt4hashIjENS1_18_Mod_range_hashingENS1_20_Default_ranged_hashENS1_20_Prime_rehash_policyENS1_17_Hashtable_traitsILb0ELb1ELb1EEEE14_S_forward_keyERKj = comdat any

$_ZNSt10_HashtableIjjSaIjENSt8__detail9_IdentityESt8equal_toIjESt4hashIjENS1_18_Mod_range_hashingENS1_20_Default_ranged_hashENS1_20_Prime_rehash_policyENS1_17_Hashtable_traitsILb0ELb1ELb1EEEE5beginEv = comdat any

$_ZNSt10_HashtableIjjSaIjENSt8__detail9_IdentityESt8equal_toIjESt4hashIjENS1_18_Mod_range_hashingENS1_20_Default_ranged_hashENS1_20_Prime_rehash_policyENS1_17_Hashtable_traitsILb0ELb1ELb1EEEE3endEv = comdat any

$_ZNKSt8__detail15_Hashtable_baseIjjNS_9_IdentityESt8equal_toIjESt4hashIjENS_18_Mod_range_hashingENS_20_Default_ranged_hashENS_17_Hashtable_traitsILb0ELb1ELb1EEEE16_M_key_equals_trIjEEbRKT_RKNS_16_Hash_node_valueIjLb0EEE = comdat any

$_ZNSt4pairINSt8__detail14_Node_iteratorIjLb1ELb0EEEbEC2IRS2_bTnNSt9enable_ifIXaaclsr5_PCCPE22_MoveConstructiblePairIT_T0_EEclsr5_PCCPE30_ImplicitlyMoveConvertiblePairIS7_S8_EEEbE4typeELb1EEEOS7_OS8_ = comdat any

$_ZNSt8__detail14_Node_iteratorIjLb1ELb0EEppEv = comdat any

$_ZNKSt8__detail15_Hash_code_baseIjjNS_9_IdentityESt4hashIjENS_18_Mod_range_hashingENS_20_Default_ranged_hashELb0EE15_M_hash_code_trIjEEmRKT_ = comdat any

$_ZNKSt10_HashtableIjjSaIjENSt8__detail9_IdentityESt8equal_toIjESt4hashIjENS1_18_Mod_range_hashingENS1_20_Default_ranged_hashENS1_20_Prime_rehash_policyENS1_17_Hashtable_traitsILb0ELb1ELb1EEEE15_M_find_node_trIjEEPNS1_10_Hash_nodeIjLb0EEEmRKT_m = comdat any

$_ZNSt4pairINSt8__detail14_Node_iteratorIjLb1ELb0EEEbEC2IS2_bTnNSt9enable_ifIXaaclsr5_PCCPE22_MoveConstructiblePairIT_T0_EEclsr5_PCCPE30_ImplicitlyMoveConvertiblePairIS6_S7_EEEbE4typeELb1EEEOS6_OS7_ = comdat any

$_ZNSt8__detail12_NodeBuilderINS_9_IdentityEE8_S_buildIRKjS5_NS_10_AllocNodeISaINS_10_Hash_nodeIjLb0EEEEEEEEPNT1_11__node_typeEOT_OT0_RKSB_ = comdat any

$_ZNSt10_HashtableIjjSaIjENSt8__detail9_IdentityESt8equal_toIjESt4hashIjENS1_18_Mod_range_hashingENS1_20_Default_ranged_hashENS1_20_Prime_rehash_policyENS1_17_Hashtable_traitsILb0ELb1ELb1EEEE12_Scoped_nodeC2EPNS1_10_Hash_nodeIjLb0EEEPNS1_16_Hashtable_allocISaISF_EEE = comdat any

$_ZNSt10_HashtableIjjSaIjENSt8__detail9_IdentityESt8equal_toIjESt4hashIjENS1_18_Mod_range_hashingENS1_20_Default_ranged_hashENS1_20_Prime_rehash_policyENS1_17_Hashtable_traitsILb0ELb1ELb1EEEE21_M_insert_unique_nodeEmmPNS1_10_Hash_nodeIjLb0EEEm = comdat any

$_ZNSt10_HashtableIjjSaIjENSt8__detail9_IdentityESt8equal_toIjESt4hashIjENS1_18_Mod_range_hashingENS1_20_Default_ranged_hashENS1_20_Prime_rehash_policyENS1_17_Hashtable_traitsILb0ELb1ELb1EEEE12_Scoped_nodeD2Ev = comdat any

$_ZNKSt10_HashtableIjjSaIjENSt8__detail9_IdentityESt8equal_toIjESt4hashIjENS1_18_Mod_range_hashingENS1_20_Default_ranged_hashENS1_20_Prime_rehash_policyENS1_17_Hashtable_traitsILb0ELb1ELb1EEEE22_M_find_before_node_trIjEEPNS1_15_Hash_node_baseEmRKT_m = comdat any

$_ZNKSt8__detail15_Hashtable_baseIjjNS_9_IdentityESt8equal_toIjESt4hashIjENS_18_Mod_range_hashingENS_20_Default_ranged_hashENS_17_Hashtable_traitsILb0ELb1ELb1EEEE12_M_equals_trIjEEbRKT_mRKNS_16_Hash_node_valueIjLb0EEE = comdat any

$_ZNKSt8__detail10_AllocNodeISaINS_10_Hash_nodeIjLb0EEEEEclIJRKjEEEPS2_DpOT_ = comdat any

$_ZNSt8__detail16_Hashtable_allocISaINS_10_Hash_nodeIjLb0EEEEE16_M_allocate_nodeIJRKjEEEPS2_DpOT_ = comdat any

$_ZNSt16allocator_traitsISaINSt8__detail10_Hash_nodeIjLb0EEEEE8allocateERS3_m = comdat any

$_ZSt12__to_addressINSt8__detail10_Hash_nodeIjLb0EEEEPT_S4_ = comdat any

$_ZNSt8__detail10_Hash_nodeIjLb0EEC2Ev = comdat any

$_ZNSt16allocator_traitsISaINSt8__detail10_Hash_nodeIjLb0EEEEE9constructIjJRKjEEEvRS3_PT_DpOT0_ = comdat any

$_ZNSt15__new_allocatorINSt8__detail10_Hash_nodeIjLb0EEEE8allocateEmPKv = comdat any

$_ZNKSt15__new_allocatorINSt8__detail10_Hash_nodeIjLb0EEEE11_M_max_sizeEv = comdat any

$_ZNSt15__new_allocatorINSt8__detail10_Hash_nodeIjLb0EEEE9constructIjJRKjEEEvPT_DpOT0_ = comdat any

$_ZNKSt8__detail20_Prime_rehash_policy8_M_stateEv = comdat any

$_ZNSt10_HashtableIjjSaIjENSt8__detail9_IdentityESt8equal_toIjESt4hashIjENS1_18_Mod_range_hashingENS1_20_Default_ranged_hashENS1_20_Prime_rehash_policyENS1_17_Hashtable_traitsILb0ELb1ELb1EEEE9_M_rehashEmRKm = comdat any

$_ZNKSt8__detail15_Hash_code_baseIjjNS_9_IdentityESt4hashIjENS_18_Mod_range_hashingENS_20_Default_ranged_hashELb0EE13_M_store_codeERNS_21_Hash_node_code_cacheILb0EEEm = comdat any

$_ZNSt10_HashtableIjjSaIjENSt8__detail9_IdentityESt8equal_toIjESt4hashIjENS1_18_Mod_range_hashingENS1_20_Default_ranged_hashENS1_20_Prime_rehash_policyENS1_17_Hashtable_traitsILb0ELb1ELb1EEEE22_M_insert_bucket_beginEmPNS1_10_Hash_nodeIjLb0EEE = comdat any

$_ZNSt10_HashtableIjjSaIjENSt8__detail9_IdentityESt8equal_toIjESt4hashIjENS1_18_Mod_range_hashingENS1_20_Default_ranged_hashENS1_20_Prime_rehash_policyENS1_17_Hashtable_traitsILb0ELb1ELb1EEEE13_M_rehash_auxEmSt17integral_constantIbLb1EE = comdat any

$_ZNSt10_HashtableIjjSaIjENSt8__detail9_IdentityESt8equal_toIjESt4hashIjENS1_18_Mod_range_hashingENS1_20_Default_ranged_hashENS1_20_Prime_rehash_policyENS1_17_Hashtable_traitsILb0ELb1ELb1EEEE19_M_allocate_bucketsEm = comdat any

$_ZNSt8__detail16_Hashtable_allocISaINS_10_Hash_nodeIjLb0EEEEE19_M_allocate_bucketsEm = comdat any

$_ZNSt16allocator_traitsISaIPNSt8__detail15_Hash_node_baseEEE8allocateERS3_m = comdat any

$_ZSt12__to_addressIPNSt8__detail15_Hash_node_baseEEPT_S4_ = comdat any

$_ZNSt15__new_allocatorIPNSt8__detail15_Hash_node_baseEE8allocateEmPKv = comdat any

$_ZNKSt15__new_allocatorIPNSt8__detail15_Hash_node_baseEE11_M_max_sizeEv = comdat any

$_ZN4node7FPrintFIJPKcEEEvP8_IO_FILES2_DpOT_ = comdat any

$_ZN4node7SPrintFIJPKcEEENSt7__cxx1112basic_stringIcSt11char_traitsIcESaIcEEES2_DpOT_ = comdat any

$_ZN4node11SPrintFImplIPKcJEEENSt7__cxx1112basic_stringIcSt11char_traitsIcESaIcEEES2_OT_DpOT0_ = comdat any

$_ZNKSt10unique_ptrIN4node9inspector16InspectorSessionESt14default_deleteIS2_EE3getEv = comdat any

$_ZNKSt15__uniq_ptr_implIN4node9inspector16InspectorSessionESt14default_deleteIS2_EE6_M_ptrEv = comdat any

$_ZSt3getILm0EJPN4node9inspector16InspectorSessionESt14default_deleteIS2_EEERKNSt13tuple_elementIXT_ESt5tupleIJDpT0_EEE4typeERKSA_ = comdat any

$_ZSt12__get_helperILm0EPN4node9inspector16InspectorSessionEJSt14default_deleteIS2_EEERKT0_RKSt11_Tuple_implIXT_EJS6_DpT1_EE = comdat any

$_ZNSt11_Tuple_implILm0EJPN4node9inspector16InspectorSessionESt14default_deleteIS2_EEE7_M_headERKS6_ = comdat any

$_ZNSt10_Head_baseILm0EPN4node9inspector16InspectorSessionELb0EE7_M_headERKS4_ = comdat any

$_ZN4node13OneByteStringEPN2v87IsolateEPKci = comdat any

$_ZN4node7FPrintFIJPcEEEvP8_IO_FILEPKcDpOT_ = comdat any

$_ZN4node7SPrintFIJPcEEENSt7__cxx1112basic_stringIcSt11char_traitsIcESaIcEEEPKcDpOT_ = comdat any

$_ZN4node11SPrintFImplIPcJEEENSt7__cxx1112basic_stringIcSt11char_traitsIcESaIcEEEPKcOT_DpOT0_ = comdat any

$_ZN4node8ToStringIPcEENSt7__cxx1112basic_stringIcSt11char_traitsIcESaIcEEERKT_ = comdat any

$_ZN4node12ToBaseStringILj3EPcEENSt7__cxx1112basic_stringIcSt11char_traitsIcESaIcEEERKT0_ = comdat any

$_ZN4node12ToBaseStringILj4EPcEENSt7__cxx1112basic_stringIcSt11char_traitsIcESaIcEEERKT0_ = comdat any

$_ZN4node14ToStringHelper11BaseConvertILj3EPcvEENSt7__cxx1112basic_stringIcSt11char_traitsIcESaIcEEET0_ = comdat any

$_ZN4node14ToStringHelper11BaseConvertILj4EPcvEENSt7__cxx1112basic_stringIcSt11char_traitsIcESaIcEEET0_ = comdat any

$_ZN4node7FPrintFIJmEEEvP8_IO_FILEPKcDpOT_ = comdat any

$_ZN4node7SPrintFIJmEEENSt7__cxx1112basic_stringIcSt11char_traitsIcESaIcEEEPKcDpOT_ = comdat any

$_ZN4node11SPrintFImplImJEEENSt7__cxx1112basic_stringIcSt11char_traitsIcESaIcEEEPKcOT_DpOT0_ = comdat any

$_ZN4node8ToStringImEENSt7__cxx1112basic_stringIcSt11char_traitsIcESaIcEEERKT_ = comdat any

$_ZN4node12ToBaseStringILj3EmEENSt7__cxx1112basic_stringIcSt11char_traitsIcESaIcEEERKT0_ = comdat any

$_ZN4node12ToBaseStringILj4EmEENSt7__cxx1112basic_stringIcSt11char_traitsIcESaIcEEERKT0_ = comdat any

$_ZN4node14ToStringHelper7ConvertImbbEENSt7__cxx1112basic_stringIcSt11char_traitsIcESaIcEEERKT_ = comdat any

$_ZN4node14ToStringHelper11BaseConvertILj3EmvEENSt7__cxx1112basic_stringIcSt11char_traitsIcESaIcEEERKT0_ = comdat any

$_ZN4node14ToStringHelper11BaseConvertILj4EmvEENSt7__cxx1112basic_stringIcSt11char_traitsIcESaIcEEERKT0_ = comdat any

$_ZN4node11SPrintFImplIiJRmmEEENSt7__cxx1112basic_stringIcSt11char_traitsIcESaIcEEEPKcOT_DpOT0_ = comdat any

$_ZN4node8ToStringIiEENSt7__cxx1112basic_stringIcSt11char_traitsIcESaIcEEERKT_ = comdat any

$_ZN4node12ToBaseStringILj3EiEENSt7__cxx1112basic_stringIcSt11char_traitsIcESaIcEEERKT0_ = comdat any

$_ZN4node12ToBaseStringILj4EiEENSt7__cxx1112basic_stringIcSt11char_traitsIcESaIcEEERKT0_ = comdat any

$_ZN4node11SPrintFImplIRmJmEEENSt7__cxx1112basic_stringIcSt11char_traitsIcESaIcEEEPKcOT_DpOT0_ = comdat any

$_ZN4node14ToStringHelper7ConvertIibbEENSt7__cxx1112basic_stringIcSt11char_traitsIcESaIcEEERKT_ = comdat any

$_ZNSt7__cxx119to_stringEi = comdat any

$_ZNSt8__detail14__to_chars_lenIjEEjT_i = comdat any

$_ZNSt8__detail18__to_chars_10_implIjEEvPcjT_ = comdat any

$_ZN4node14ToStringHelper11BaseConvertILj3EivEENSt7__cxx1112basic_stringIcSt11char_traitsIcESaIcEEERKT0_ = comdat any

$_ZN4node14ToStringHelper11BaseConvertILj4EivEENSt7__cxx1112basic_stringIcSt11char_traitsIcESaIcEEERKT0_ = comdat any

$_ZN4node7FPrintFIJRbEEEvP8_IO_FILEPKcDpOT_ = comdat any

$_ZN4node7SPrintFIJRbEEENSt7__cxx1112basic_stringIcSt11char_traitsIcESaIcEEEPKcDpOT_ = comdat any

$_ZN4node11SPrintFImplIRbJEEENSt7__cxx1112basic_stringIcSt11char_traitsIcESaIcEEEPKcOT_DpOT0_ = comdat any

$_ZN4node8ToStringIbEENSt7__cxx1112basic_stringIcSt11char_traitsIcESaIcEEERKT_ = comdat any

$_ZN4node12ToBaseStringILj3EbEENSt7__cxx1112basic_stringIcSt11char_traitsIcESaIcEEERKT0_ = comdat any

$_ZN4node12ToBaseStringILj4EbEENSt7__cxx1112basic_stringIcSt11char_traitsIcESaIcEEERKT0_ = comdat any

$_ZN4node14ToStringHelper7ConvertB5cxx11Eb = comdat any

$_ZN4node14ToStringHelper11BaseConvertILj3EbvEENSt7__cxx1112basic_stringIcSt11char_traitsIcESaIcEEERKT0_ = comdat any

$_ZN4node14ToStringHelper11BaseConvertILj4EbvEENSt7__cxx1112basic_stringIcSt11char_traitsIcESaIcEEERKT0_ = comdat any

$_ZNKSt19__shared_ptr_accessIN4node7KVStoreELN9__gnu_cxx12_Lock_policyE2ELb0ELb0EE6_M_getEv = comdat any

$_ZNKSt12__shared_ptrIN4node7KVStoreELN9__gnu_cxx12_Lock_policyE2EE3getEv = comdat any

$_ZN4node8profiler20V8CoverageConnectionC2EPNS_11EnvironmentE = comdat any

$_ZNSt10unique_ptrIN4node8profiler20V8CoverageConnectionESt14default_deleteIS2_EEC2IS4_vEEPS2_ = comdat any

$_ZNSt10unique_ptrIN4node9inspector16InspectorSessionESt14default_deleteIS2_EEC2IS4_vEEv = comdat any

$_ZNSt15__uniq_ptr_dataIN4node9inspector16InspectorSessionESt14default_deleteIS2_ELb1ELb1EEC2Ev = comdat any

$_ZNSt15__uniq_ptr_implIN4node9inspector16InspectorSessionESt14default_deleteIS2_EEC2Ev = comdat any

$_ZNSt5tupleIJPN4node9inspector16InspectorSessionESt14default_deleteIS2_EEEC2ILb1ETnNSt9enable_ifIXclsr17_TupleConstraintsIXT_ES3_S5_EE37__is_implicitly_default_constructibleEEbE4typeELb1EEEv = comdat any

$_ZNSt11_Tuple_implILm0EJPN4node9inspector16InspectorSessionESt14default_deleteIS2_EEEC2Ev = comdat any

$_ZNSt11_Tuple_implILm1EJSt14default_deleteIN4node9inspector16InspectorSessionEEEEC2Ev = comdat any

$_ZNSt10_Head_baseILm0EPN4node9inspector16InspectorSessionELb0EEC2Ev = comdat any

$_ZNSt10_Head_baseILm1ESt14default_deleteIN4node9inspector16InspectorSessionEELb1EEC2Ev = comdat any

$_ZNSt15__uniq_ptr_dataIN4node8profiler20V8CoverageConnectionESt14default_deleteIS2_ELb1ELb1EECI2St15__uniq_ptr_implIS2_S4_EEPS2_ = comdat any

$_ZNSt15__uniq_ptr_implIN4node8profiler20V8CoverageConnectionESt14default_deleteIS2_EEC2EPS2_ = comdat any

$_ZNSt5tupleIJPN4node8profiler20V8CoverageConnectionESt14default_deleteIS2_EEEC2ILb1ETnNSt9enable_ifIXclsr17_TupleConstraintsIXT_ES3_S5_EE37__is_implicitly_default_constructibleEEbE4typeELb1EEEv = comdat any

$_ZNSt11_Tuple_implILm0EJPN4node8profiler20V8CoverageConnectionESt14default_deleteIS2_EEEC2Ev = comdat any

$_ZNSt11_Tuple_implILm1EJSt14default_deleteIN4node8profiler20V8CoverageConnectionEEEEC2Ev = comdat any

$_ZNSt10_Head_baseILm0EPN4node8profiler20V8CoverageConnectionELb0EEC2Ev = comdat any

$_ZNSt10_Head_baseILm1ESt14default_deleteIN4node8profiler20V8CoverageConnectionEELb1EEC2Ev = comdat any

$_ZNSt10unique_ptrIN4node8profiler20V8CoverageConnectionESt14default_deleteIS2_EE11get_deleterEv = comdat any

$_ZNKSt14default_deleteIN4node8profiler20V8CoverageConnectionEEclEPS2_ = comdat any

$_ZN4node8profiler23V8CpuProfilerConnectionC2EPNS_11EnvironmentE = comdat any

$_ZNSt10unique_ptrIN4node8profiler23V8CpuProfilerConnectionESt14default_deleteIS2_EEC2IS4_vEEPS2_ = comdat any

$_ZNSt15__uniq_ptr_dataIN4node8profiler23V8CpuProfilerConnectionESt14default_deleteIS2_ELb1ELb1EECI2St15__uniq_ptr_implIS2_S4_EEPS2_ = comdat any

$_ZNSt15__uniq_ptr_implIN4node8profiler23V8CpuProfilerConnectionESt14default_deleteIS2_EEC2EPS2_ = comdat any

$_ZNSt5tupleIJPN4node8profiler23V8CpuProfilerConnectionESt14default_deleteIS2_EEEC2ILb1ETnNSt9enable_ifIXclsr17_TupleConstraintsIXT_ES3_S5_EE37__is_implicitly_default_constructibleEEbE4typeELb1EEEv = comdat any

$_ZNSt11_Tuple_implILm0EJPN4node8profiler23V8CpuProfilerConnectionESt14default_deleteIS2_EEEC2Ev = comdat any

$_ZNSt11_Tuple_implILm1EJSt14default_deleteIN4node8profiler23V8CpuProfilerConnectionEEEEC2Ev = comdat any

$_ZNSt10_Head_baseILm0EPN4node8profiler23V8CpuProfilerConnectionELb0EEC2Ev = comdat any

$_ZNSt10_Head_baseILm1ESt14default_deleteIN4node8profiler23V8CpuProfilerConnectionEELb1EEC2Ev = comdat any

$_ZNSt10unique_ptrIN4node8profiler23V8CpuProfilerConnectionESt14default_deleteIS2_EE11get_deleterEv = comdat any

$_ZNKSt14default_deleteIN4node8profiler23V8CpuProfilerConnectionEEclEPS2_ = comdat any

$_ZN4node8profiler24V8HeapProfilerConnectionC2EPNS_11EnvironmentE = comdat any

$_ZNSt10unique_ptrIN4node8profiler24V8HeapProfilerConnectionESt14default_deleteIS2_EEC2IS4_vEEPS2_ = comdat any

$_ZNSt15__uniq_ptr_dataIN4node8profiler24V8HeapProfilerConnectionESt14default_deleteIS2_ELb1ELb1EECI2St15__uniq_ptr_implIS2_S4_EEPS2_ = comdat any

$_ZNSt15__uniq_ptr_implIN4node8profiler24V8HeapProfilerConnectionESt14default_deleteIS2_EEC2EPS2_ = comdat any

$_ZNSt5tupleIJPN4node8profiler24V8HeapProfilerConnectionESt14default_deleteIS2_EEEC2ILb1ETnNSt9enable_ifIXclsr17_TupleConstraintsIXT_ES3_S5_EE37__is_implicitly_default_constructibleEEbE4typeELb1EEEv = comdat any

$_ZNSt11_Tuple_implILm0EJPN4node8profiler24V8HeapProfilerConnectionESt14default_deleteIS2_EEEC2Ev = comdat any

$_ZNSt11_Tuple_implILm1EJSt14default_deleteIN4node8profiler24V8HeapProfilerConnectionEEEEC2Ev = comdat any

$_ZNSt10_Head_baseILm0EPN4node8profiler24V8HeapProfilerConnectionELb0EEC2Ev = comdat any

$_ZNSt10_Head_baseILm1ESt14default_deleteIN4node8profiler24V8HeapProfilerConnectionEELb1EEC2Ev = comdat any

$_ZNSt10unique_ptrIN4node8profiler24V8HeapProfilerConnectionESt14default_deleteIS2_EE11get_deleterEv = comdat any

$_ZNKSt14default_deleteIN4node8profiler24V8HeapProfilerConnectionEEclEPS2_ = comdat any

$_ZZNSt8__detail18__to_chars_10_implImEEvPcjT_E8__digits = comdat any

$_ZZN4node11SPrintFImplIRPKcJEEENSt7__cxx1112basic_stringIcSt11char_traitsIcESaIcEEES2_OT_DpOT0_E4args = comdat any

$_ZZN4node11SPrintFImplIRPKcJEEENSt7__cxx1112basic_stringIcSt11char_traitsIcESaIcEEES2_OT_DpOT0_E4args_1 = comdat any

$_ZZN4node11SPrintFImplB5cxx11EPKcE4args = comdat any

$_ZZN4node11Environment23set_coverage_connectionESt10unique_ptrINS_8profiler20V8CoverageConnectionESt14default_deleteIS3_EEE4args = comdat any

$_ZZN4node11Environment27set_cpu_profiler_connectionESt10unique_ptrINS_8profiler23V8CpuProfilerConnectionESt14default_deleteIS3_EEE4args = comdat any

$_ZZN4node11Environment28set_heap_profiler_connectionESt10unique_ptrINS_8profiler24V8HeapProfilerConnectionESt14default_deleteIS3_EEE4args = comdat any

$_ZZN4node11SPrintFImplIRA3_KcJEEENSt7__cxx1112basic_stringIcSt11char_traitsIcESaIcEEEPS1_OT_DpOT0_E4args = comdat any

$_ZZN4node11SPrintFImplIRA3_KcJEEENSt7__cxx1112basic_stringIcSt11char_traitsIcESaIcEEEPS1_OT_DpOT0_E4args_0 = comdat any

$_ZZN4node11SPrintFImplIRA3_KcJEEENSt7__cxx1112basic_stringIcSt11char_traitsIcESaIcEEEPS1_OT_DpOT0_E4args_1 = comdat any

$_ZTVN4node9inspector24InspectorSessionDelegateE = comdat any

$_ZZN4node11SPrintFImplIPKcJEEENSt7__cxx1112basic_stringIcSt11char_traitsIcESaIcEEES2_OT_DpOT0_E4args = comdat any

$_ZZN4node11SPrintFImplIPKcJEEENSt7__cxx1112basic_stringIcSt11char_traitsIcESaIcEEES2_OT_DpOT0_E4args_1 = comdat any

$_ZZN4node11SPrintFImplIPcJEEENSt7__cxx1112basic_stringIcSt11char_traitsIcESaIcEEEPKcOT_DpOT0_E4args = comdat any

$_ZZN4node11SPrintFImplIPcJEEENSt7__cxx1112basic_stringIcSt11char_traitsIcESaIcEEEPKcOT_DpOT0_E4args_1 = comdat any

$_ZZN4node11SPrintFImplImJEEENSt7__cxx1112basic_stringIcSt11char_traitsIcESaIcEEEPKcOT_DpOT0_E4args = comdat any

$_ZZN4node11SPrintFImplImJEEENSt7__cxx1112basic_stringIcSt11char_traitsIcESaIcEEEPKcOT_DpOT0_E4args_0 = comdat any

$_ZZN4node11SPrintFImplImJEEENSt7__cxx1112basic_stringIcSt11char_traitsIcESaIcEEEPKcOT_DpOT0_E4args_1 = comdat any

$_ZZN4node11SPrintFImplIiJRmmEEENSt7__cxx1112basic_stringIcSt11char_traitsIcESaIcEEEPKcOT_DpOT0_E4args = comdat any

$_ZZN4node11SPrintFImplIiJRmmEEENSt7__cxx1112basic_stringIcSt11char_traitsIcESaIcEEEPKcOT_DpOT0_E4args_0 = comdat any

$_ZZN4node11SPrintFImplIiJRmmEEENSt7__cxx1112basic_stringIcSt11char_traitsIcESaIcEEEPKcOT_DpOT0_E4args_1 = comdat any

$_ZZNSt8__detail18__to_chars_10_implIjEEvPcjT_E8__digits = comdat any

$_ZZN4node11SPrintFImplIRmJmEEENSt7__cxx1112basic_stringIcSt11char_traitsIcESaIcEEEPKcOT_DpOT0_E4args = comdat any

$_ZZN4node11SPrintFImplIRmJmEEENSt7__cxx1112basic_stringIcSt11char_traitsIcESaIcEEEPKcOT_DpOT0_E4args_0 = comdat any

$_ZZN4node11SPrintFImplIRmJmEEENSt7__cxx1112basic_stringIcSt11char_traitsIcESaIcEEEPKcOT_DpOT0_E4args_1 = comdat any

$_ZZN4node11SPrintFImplIRbJEEENSt7__cxx1112basic_stringIcSt11char_traitsIcESaIcEEEPKcOT_DpOT0_E4args = comdat any

$_ZZN4node11SPrintFImplIRbJEEENSt7__cxx1112basic_stringIcSt11char_traitsIcESaIcEEEPKcOT_DpOT0_E4args_0 = comdat any

$_ZZN4node11SPrintFImplIRbJEEENSt7__cxx1112basic_stringIcSt11char_traitsIcESaIcEEEPKcOT_DpOT0_E4args_1 = comdat any

@_ZStL8__ioinit = internal global %"class.std::ios_base::Init" zeroinitializer, align 1
@__dso_handle = external hidden global i8
@_ZTVN4node8profiler20V8ProfilerConnectionE = dso_local unnamed_addr constant { [12 x ptr] } { [12 x ptr] [ptr null, ptr null, ptr @_ZN4node8profiler20V8ProfilerConnectionD2Ev, ptr @_ZN4node8profiler20V8ProfilerConnectionD0Ev, ptr @__cxa_pure_virtual, ptr @__cxa_pure_virtual, ptr @__cxa_pure_virtual, ptr @__cxa_pure_virtual, ptr @__cxa_pure_virtual, ptr @__cxa_pure_virtual, ptr @__cxa_pure_virtual, ptr @_ZN4node8profiler20V8ProfilerConnection12WriteProfileEN2v85LocalINS2_6ObjectEEE] }, align 8
@.str = private unnamed_addr constant [9 x i8] c"{ \22id\22: \00", align 1
@.str.1 = private unnamed_addr constant [14 x i8] c", \22method\22: \22\00", align 1
@.str.2 = private unnamed_addr constant [13 x i8] c", \22params\22: \00", align 1
@.str.3 = private unnamed_addr constant [3 x i8] c" }\00", align 1
@.str.4 = private unnamed_addr constant [24 x i8] c"Dispatching message %s\0A\00", align 1
@stderr = external global ptr, align 8
@.str.5 = private unnamed_addr constant [51 x i8] c"Failed to convert %s profile message to V8 string\0A\00", align 1
@.str.6 = private unnamed_addr constant [28 x i8] c"Receive %s profile message\0A\00", align 1
@.str.7 = private unnamed_addr constant [50 x i8] c"Failed to parse %s profile result as JSON object\0A\00", align 1
@.str.8 = private unnamed_addr constant [3 x i8] c"id\00", align 1
@.str.9 = private unnamed_addr constant [50 x i8] c"Cannot retrieve id from the response message:\0A%s\0A\00", align 1
@.str.10 = private unnamed_addr constant [4 x i8] c"%s\0A\00", align 1
@.str.11 = private unnamed_addr constant [37 x i8] c"Writing profile response (id = %lu)\0A\00", align 1
@.str.12 = private unnamed_addr constant [7 x i8] c"result\00", align 1
@.str.13 = private unnamed_addr constant [49 x i8] c"Failed to get 'result' from %s profile response\0A\00", align 1
@.str.14 = private unnamed_addr constant [52 x i8] c"'result' from %s profile response is not an object\0A\00", align 1
@.str.15 = private unnamed_addr constant [23 x i8] c"coverage-%s-%s-%s.json\00", align 1
@.str.16 = private unnamed_addr constant [39 x i8] c"Failed to stringify %s profile result\0A\00", align 1
@.str.17 = private unnamed_addr constant [17 x i8] c"source-map-cache\00", align 1
@.str.18 = private unnamed_addr constant [16 x i8] c"Profiler.enable\00", align 1
@.str.19 = private unnamed_addr constant [30 x i8] c"Profiler.startPreciseCoverage\00", align 1
@.str.20 = private unnamed_addr constant [40 x i8] c"{ \22callCount\22: true, \22detailed\22: true }\00", align 1
@.str.21 = private unnamed_addr constant [29 x i8] c"Profiler.takePreciseCoverage\00", align 1
@.str.22 = private unnamed_addr constant [29 x i8] c"Profiler.stopPreciseCoverage\00", align 1
@.str.23 = private unnamed_addr constant [42 x i8] c"V8CoverageConnection::End(), ending = %d\0A\00", align 1
@.str.24 = private unnamed_addr constant [8 x i8] c"profile\00", align 1
@.str.25 = private unnamed_addr constant [48 x i8] c"'profile' from CPU profile result is undefined\0A\00", align 1
@.str.26 = private unnamed_addr constant [52 x i8] c"'profile' from CPU profile result is not an Object\0A\00", align 1
@.str.27 = private unnamed_addr constant [15 x i8] c"{ \22interval\22: \00", align 1
@.str.28 = private unnamed_addr constant [29 x i8] c"Profiler.setSamplingInterval\00", align 1
@.str.29 = private unnamed_addr constant [15 x i8] c"Profiler.start\00", align 1
@.str.30 = private unnamed_addr constant [45 x i8] c"V8CpuProfilerConnection::End(), ending = %d\0A\00", align 1
@.str.31 = private unnamed_addr constant [14 x i8] c"Profiler.stop\00", align 1
@.str.32 = private unnamed_addr constant [49 x i8] c"'profile' from heap profile result is undefined\0A\00", align 1
@.str.33 = private unnamed_addr constant [53 x i8] c"'profile' from heap profile result is not an Object\0A\00", align 1
@.str.34 = private unnamed_addr constant [20 x i8] c"HeapProfiler.enable\00", align 1
@.str.35 = private unnamed_addr constant [23 x i8] c"{ \22samplingInterval\22: \00", align 1
@.str.36 = private unnamed_addr constant [27 x i8] c"HeapProfiler.startSampling\00", align 1
@.str.37 = private unnamed_addr constant [46 x i8] c"V8HeapProfilerConnection::End(), ending = %d\0A\00", align 1
@.str.38 = private unnamed_addr constant [26 x i8] c"HeapProfiler.stopSampling\00", align 1
@.str.39 = private unnamed_addr constant [17 x i8] c"NODE_V8_COVERAGE\00", align 1
@_ZZN4node8profiler14StartProfilersEPNS_11EnvironmentEE4args = internal constant %"struct.node::AssertionInfo" { ptr @.str.40, ptr @.str.41, ptr @.str.42 }, align 8
@.str.40 = private unnamed_addr constant [36 x i8] c"../../src/inspector_profiler.cc:427\00", align 1
@.str.41 = private unnamed_addr constant [40 x i8] c"(env->coverage_connection()) == nullptr\00", align 1
@.str.42 = private unnamed_addr constant [51 x i8] c"void node::profiler::StartProfilers(Environment *)\00", align 1
@.str.43 = private unnamed_addr constant [4 x i8] c"CPU\00", align 1
@.str.44 = private unnamed_addr constant [11 x i8] c"cpuprofile\00", align 1
@_ZZN4node8profiler14StartProfilersEPNS_11EnvironmentEE4args_0 = internal constant %"struct.node::AssertionInfo" { ptr @.str.45, ptr @.str.46, ptr @.str.42 }, align 8
@.str.45 = private unnamed_addr constant [36 x i8] c"../../src/inspector_profiler.cc:442\00", align 1
@.str.46 = private unnamed_addr constant [44 x i8] c"(env->cpu_profiler_connection()) == nullptr\00", align 1
@.str.47 = private unnamed_addr constant [5 x i8] c"Heap\00", align 1
@.str.48 = private unnamed_addr constant [12 x i8] c"heapprofile\00", align 1
@_ZL7_module = internal global %"struct.node::node_module" { i32 120, i32 4, ptr null, ptr @.str.90, ptr null, ptr @_ZN4node8profilerL10InitializeEN2v85LocalINS1_6ObjectEEENS2_INS1_5ValueEEENS2_INS1_7ContextEEEPv, ptr @.str.91, ptr null, ptr null }, align 8
@_ZTVN4node8profiler20V8ProfilerConnection25V8ProfilerSessionDelegateE = dso_local unnamed_addr constant { [5 x ptr] } { [5 x ptr] [ptr null, ptr null, ptr @_ZN4node8profiler20V8ProfilerConnection25V8ProfilerSessionDelegateD2Ev, ptr @_ZN4node8profiler20V8ProfilerConnection25V8ProfilerSessionDelegateD0Ev, ptr @_ZN4node8profiler20V8ProfilerConnection25V8ProfilerSessionDelegate21SendMessageToFrontendERKN12v8_inspector10StringViewE] }, align 8
@_ZTVN4node8profiler20V8CoverageConnectionE = dso_local unnamed_addr constant { [12 x ptr] } { [12 x ptr] [ptr null, ptr null, ptr @_ZN4node8profiler20V8CoverageConnectionD2Ev, ptr @_ZN4node8profiler20V8CoverageConnectionD0Ev, ptr @_ZN4node8profiler20V8CoverageConnection5StartEv, ptr @_ZN4node8profiler20V8CoverageConnection3EndEv, ptr @_ZNK4node8profiler20V8CoverageConnection4typeEv, ptr @_ZNK4node8profiler20V8CoverageConnection6endingEv, ptr @_ZNK4node8profiler20V8CoverageConnection12GetDirectoryB5cxx11Ev, ptr @_ZNK4node8profiler20V8CoverageConnection11GetFilenameB5cxx11Ev, ptr @_ZN4node8profiler20V8CoverageConnection10GetProfileEN2v85LocalINS2_6ObjectEEE, ptr @_ZN4node8profiler20V8CoverageConnection12WriteProfileEN2v85LocalINS2_6ObjectEEE] }, align 8
@_ZTVN4node8profiler23V8CpuProfilerConnectionE = dso_local unnamed_addr constant { [12 x ptr] } { [12 x ptr] [ptr null, ptr null, ptr @_ZN4node8profiler23V8CpuProfilerConnectionD2Ev, ptr @_ZN4node8profiler23V8CpuProfilerConnectionD0Ev, ptr @_ZN4node8profiler23V8CpuProfilerConnection5StartEv, ptr @_ZN4node8profiler23V8CpuProfilerConnection3EndEv, ptr @_ZNK4node8profiler23V8CpuProfilerConnection4typeEv, ptr @_ZNK4node8profiler23V8CpuProfilerConnection6endingEv, ptr @_ZNK4node8profiler23V8CpuProfilerConnection12GetDirectoryB5cxx11Ev, ptr @_ZNK4node8profiler23V8CpuProfilerConnection11GetFilenameB5cxx11Ev, ptr @_ZN4node8profiler23V8CpuProfilerConnection10GetProfileEN2v85LocalINS2_6ObjectEEE, ptr @_ZN4node8profiler20V8ProfilerConnection12WriteProfileEN2v85LocalINS2_6ObjectEEE] }, align 8
@_ZTVN4node8profiler24V8HeapProfilerConnectionE = dso_local unnamed_addr constant { [12 x ptr] } { [12 x ptr] [ptr null, ptr null, ptr @_ZN4node8profiler24V8HeapProfilerConnectionD2Ev, ptr @_ZN4node8profiler24V8HeapProfilerConnectionD0Ev, ptr @_ZN4node8profiler24V8HeapProfilerConnection5StartEv, ptr @_ZN4node8profiler24V8HeapProfilerConnection3EndEv, ptr @_ZNK4node8profiler24V8HeapProfilerConnection4typeEv, ptr @_ZNK4node8profiler24V8HeapProfilerConnection6endingEv, ptr @_ZNK4node8profiler24V8HeapProfilerConnection12GetDirectoryB5cxx11Ev, ptr @_ZNK4node8profiler24V8HeapProfilerConnection11GetFilenameB5cxx11Ev, ptr @_ZN4node8profiler24V8HeapProfilerConnection10GetProfileEN2v85LocalINS2_6ObjectEEE, ptr @_ZN4node8profiler20V8ProfilerConnection12WriteProfileEN2v85LocalINS2_6ObjectEEE] }, align 8
@.str.49 = private unnamed_addr constant [46 x i8] c"%s: Failed to create %s profile directory %s\0A\00", align 1
@.str.50 = private unnamed_addr constant [29 x i8] c"%s: Failed to write file %s\0A\00", align 1
@.str.51 = private unnamed_addr constant [22 x i8] c"Written result to %s\0A\00", align 1
@_ZZNSt8__detail18__to_chars_10_implImEEvPcjT_E8__digits = linkonce_odr dso_local constant [201 x i8] c"00010203040506070809101112131415161718192021222324252627282930313233343536373839404142434445464748495051525354555657585960616263646566676869707172737475767778798081828384858687888990919293949596979899\00", comdat, align 16
@.str.52 = private unnamed_addr constant [21 x i8] c"EndStartedProfilers\0A\00", align 1
@.str.53 = private unnamed_addr constant [3 x i8] c"%s\00", align 1
@_ZZN4node11SPrintFImplIRPKcJEEENSt7__cxx1112basic_stringIcSt11char_traitsIcESaIcEEES2_OT_DpOT0_E4args = linkonce_odr dso_local constant %"struct.node::AssertionInfo" { ptr @.str.54, ptr @.str.55, ptr @.str.56 }, comdat, align 8
@.str.54 = private unnamed_addr constant [31 x i8] c"../../src/debug_utils-inl.h:79\00", align 1
@.str.55 = private unnamed_addr constant [15 x i8] c"(p) != nullptr\00", align 1
@.str.56 = private unnamed_addr constant [97 x i8] c"std::string node::SPrintFImpl(const char *, Arg &&, Args &&...) [Arg = const char *&, Args = <>]\00", align 1
@.str.57 = private unnamed_addr constant [3 x i8] c"lz\00", align 1
@.str.58 = private unnamed_addr constant [3 x i8] c"%p\00", align 1
@_ZZN4node11SPrintFImplIRPKcJEEENSt7__cxx1112basic_stringIcSt11char_traitsIcESaIcEEES2_OT_DpOT0_E4args_1 = linkonce_odr dso_local constant %"struct.node::AssertionInfo" { ptr @.str.59, ptr @.str.60, ptr @.str.56 }, comdat, align 8
@.str.59 = private unnamed_addr constant [32 x i8] c"../../src/debug_utils-inl.h:116\00", align 1
@.str.60 = private unnamed_addr constant [11 x i8] c"(n) >= (0)\00", align 1
@.str.61 = private unnamed_addr constant [7 x i8] c"(null)\00", align 1
@_ZZN4node11SPrintFImplB5cxx11EPKcE4args = linkonce_odr dso_local constant %"struct.node::AssertionInfo" { ptr @.str.62, ptr @.str.63, ptr @.str.64 }, comdat, align 8
@.str.62 = private unnamed_addr constant [31 x i8] c"../../src/debug_utils-inl.h:70\00", align 1
@.str.63 = private unnamed_addr constant [16 x i8] c"(p[1]) == ('%')\00", align 1
@.str.64 = private unnamed_addr constant [44 x i8] c"std::string node::SPrintFImpl(const char *)\00", align 1
@__libc_single_threaded = external global i8, align 1
@_ZZN4node11Environment23set_coverage_connectionESt10unique_ptrINS_8profiler20V8CoverageConnectionESt14default_deleteIS3_EEE4args = linkonce_odr dso_local constant %"struct.node::AssertionInfo" { ptr @.str.65, ptr @.str.66, ptr @.str.67 }, comdat, align 8
@.str.65 = private unnamed_addr constant [24 x i8] c"../../src/env-inl.h:486\00", align 1
@.str.66 = private unnamed_addr constant [34 x i8] c"(coverage_connection_) == nullptr\00", align 1
@.str.67 = private unnamed_addr constant [97 x i8] c"void node::Environment::set_coverage_connection(std::unique_ptr<profiler::V8CoverageConnection>)\00", align 1
@_ZZN4node11Environment27set_cpu_profiler_connectionESt10unique_ptrINS_8profiler23V8CpuProfilerConnectionESt14default_deleteIS3_EEE4args = linkonce_odr dso_local constant %"struct.node::AssertionInfo" { ptr @.str.68, ptr @.str.69, ptr @.str.70 }, comdat, align 8
@.str.68 = private unnamed_addr constant [24 x i8] c"../../src/env-inl.h:500\00", align 1
@.str.69 = private unnamed_addr constant [38 x i8] c"(cpu_profiler_connection_) == nullptr\00", align 1
@.str.70 = private unnamed_addr constant [104 x i8] c"void node::Environment::set_cpu_profiler_connection(std::unique_ptr<profiler::V8CpuProfilerConnection>)\00", align 1
@_ZZN4node11Environment28set_heap_profiler_connectionESt10unique_ptrINS_8profiler24V8HeapProfilerConnectionESt14default_deleteIS3_EEE4args = linkonce_odr dso_local constant %"struct.node::AssertionInfo" { ptr @.str.71, ptr @.str.72, ptr @.str.73 }, comdat, align 8
@.str.71 = private unnamed_addr constant [24 x i8] c"../../src/env-inl.h:535\00", align 1
@.str.72 = private unnamed_addr constant [39 x i8] c"(heap_profiler_connection_) == nullptr\00", align 1
@.str.73 = private unnamed_addr constant [106 x i8] c"void node::Environment::set_heap_profiler_connection(std::unique_ptr<profiler::V8HeapProfilerConnection>)\00", align 1
@.str.74 = private unnamed_addr constant [26 x i8] c"vector::_M_realloc_insert\00", align 1
@_ZZN4node8profilerL20SetCoverageDirectoryERKN2v820FunctionCallbackInfoINS1_5ValueEEEE4args = internal constant %"struct.node::AssertionInfo" { ptr @.str.75, ptr @.str.76, ptr @.str.77 }, align 8
@.str.75 = private unnamed_addr constant [36 x i8] c"../../src/inspector_profiler.cc:465\00", align 1
@.str.76 = private unnamed_addr constant [20 x i8] c"args[0]->IsString()\00", align 1
@.str.77 = private unnamed_addr constant [79 x i8] c"void node::profiler::SetCoverageDirectory(const FunctionCallbackInfo<Value> &)\00", align 1
@_ZN4node18ContextEmbedderTag18kNodeContextTagPtrE = external constant ptr, align 8
@_ZZN4node8profilerL23SetSourceMapCacheGetterERKN2v820FunctionCallbackInfoINS1_5ValueEEEE4args = internal constant %"struct.node::AssertionInfo" { ptr @.str.78, ptr @.str.79, ptr @.str.80 }, align 8
@.str.78 = private unnamed_addr constant [36 x i8] c"../../src/inspector_profiler.cc:473\00", align 1
@.str.79 = private unnamed_addr constant [22 x i8] c"args[0]->IsFunction()\00", align 1
@.str.80 = private unnamed_addr constant [82 x i8] c"void node::profiler::SetSourceMapCacheGetter(const FunctionCallbackInfo<Value> &)\00", align 1
@.str.81 = private unnamed_addr constant [37 x i8] c"TakeCoverage, connection %s nullptr\0A\00", align 1
@.str.82 = private unnamed_addr constant [3 x i8] c"==\00", align 1
@.str.83 = private unnamed_addr constant [3 x i8] c"!=\00", align 1
@.str.84 = private unnamed_addr constant [17 x i8] c"taking coverage\0A\00", align 1
@_ZZN4node11SPrintFImplIRA3_KcJEEENSt7__cxx1112basic_stringIcSt11char_traitsIcESaIcEEEPS1_OT_DpOT0_E4args = linkonce_odr dso_local constant %"struct.node::AssertionInfo" { ptr @.str.54, ptr @.str.55, ptr @.str.85 }, comdat, align 8
@.str.85 = private unnamed_addr constant [101 x i8] c"std::string node::SPrintFImpl(const char *, Arg &&, Args &&...) [Arg = const char (&)[3], Args = <>]\00", align 1
@_ZZN4node11SPrintFImplIRA3_KcJEEENSt7__cxx1112basic_stringIcSt11char_traitsIcESaIcEEEPS1_OT_DpOT0_E4args_0 = linkonce_odr dso_local constant %"struct.node::AssertionInfo" { ptr @.str.86, ptr @.str.87, ptr @.str.85 }, comdat, align 8
@.str.86 = private unnamed_addr constant [32 x i8] c"../../src/debug_utils-inl.h:110\00", align 1
@.str.87 = private unnamed_addr constant [66 x i8] c"std::is_pointer<typename std::remove_reference<Arg>::type>::value\00", align 1
@_ZZN4node11SPrintFImplIRA3_KcJEEENSt7__cxx1112basic_stringIcSt11char_traitsIcESaIcEEEPS1_OT_DpOT0_E4args_1 = linkonce_odr dso_local constant %"struct.node::AssertionInfo" { ptr @.str.59, ptr @.str.60, ptr @.str.85 }, comdat, align 8
@.str.88 = private unnamed_addr constant [37 x i8] c"StopCoverage, connection %s nullptr\0A\00", align 1
@.str.89 = private unnamed_addr constant [19 x i8] c"Stopping coverage\0A\00", align 1
@.str.90 = private unnamed_addr constant [32 x i8] c"../../src/inspector_profiler.cc\00", align 1
@.str.91 = private unnamed_addr constant [9 x i8] c"profiler\00", align 1
@.str.92 = private unnamed_addr constant [21 x i8] c"setCoverageDirectory\00", align 1
@.str.93 = private unnamed_addr constant [24 x i8] c"setSourceMapCacheGetter\00", align 1
@.str.94 = private unnamed_addr constant [13 x i8] c"takeCoverage\00", align 1
@.str.95 = private unnamed_addr constant [13 x i8] c"stopCoverage\00", align 1
@.str.96 = private unnamed_addr constant [9 x i8] c"coverage\00", align 1
@.str.97 = private unnamed_addr constant [5 x i8] c"heap\00", align 1
@.str.98 = private unnamed_addr constant [50 x i8] c"basic_string: construction from null is not valid\00", align 1
@_ZTVN4node9inspector24InspectorSessionDelegateE = linkonce_odr dso_local unnamed_addr constant { [5 x ptr] } { [5 x ptr] [ptr null, ptr null, ptr @_ZN4node9inspector24InspectorSessionDelegateD2Ev, ptr @_ZN4node9inspector24InspectorSessionDelegateD0Ev, ptr @__cxa_pure_virtual] }, comdat, align 8
@_ZZN4node11SPrintFImplIPKcJEEENSt7__cxx1112basic_stringIcSt11char_traitsIcESaIcEEES2_OT_DpOT0_E4args = linkonce_odr dso_local constant %"struct.node::AssertionInfo" { ptr @.str.54, ptr @.str.55, ptr @.str.99 }, comdat, align 8
@.str.99 = private unnamed_addr constant [96 x i8] c"std::string node::SPrintFImpl(const char *, Arg &&, Args &&...) [Arg = const char *, Args = <>]\00", align 1
@_ZZN4node11SPrintFImplIPKcJEEENSt7__cxx1112basic_stringIcSt11char_traitsIcESaIcEEES2_OT_DpOT0_E4args_1 = linkonce_odr dso_local constant %"struct.node::AssertionInfo" { ptr @.str.59, ptr @.str.60, ptr @.str.99 }, comdat, align 8
@_ZZN4node11SPrintFImplIPcJEEENSt7__cxx1112basic_stringIcSt11char_traitsIcESaIcEEEPKcOT_DpOT0_E4args = linkonce_odr dso_local constant %"struct.node::AssertionInfo" { ptr @.str.54, ptr @.str.55, ptr @.str.100 }, comdat, align 8
@.str.100 = private unnamed_addr constant [90 x i8] c"std::string node::SPrintFImpl(const char *, Arg &&, Args &&...) [Arg = char *, Args = <>]\00", align 1
@_ZZN4node11SPrintFImplIPcJEEENSt7__cxx1112basic_stringIcSt11char_traitsIcESaIcEEEPKcOT_DpOT0_E4args_1 = linkonce_odr dso_local constant %"struct.node::AssertionInfo" { ptr @.str.59, ptr @.str.60, ptr @.str.100 }, comdat, align 8
@_ZZN4node11SPrintFImplImJEEENSt7__cxx1112basic_stringIcSt11char_traitsIcESaIcEEEPKcOT_DpOT0_E4args = linkonce_odr dso_local constant %"struct.node::AssertionInfo" { ptr @.str.54, ptr @.str.55, ptr @.str.101 }, comdat, align 8
@.str.101 = private unnamed_addr constant [97 x i8] c"std::string node::SPrintFImpl(const char *, Arg &&, Args &&...) [Arg = unsigned long, Args = <>]\00", align 1
@_ZZN4node11SPrintFImplImJEEENSt7__cxx1112basic_stringIcSt11char_traitsIcESaIcEEEPKcOT_DpOT0_E4args_0 = linkonce_odr dso_local constant %"struct.node::AssertionInfo" { ptr @.str.86, ptr @.str.87, ptr @.str.101 }, comdat, align 8
@_ZZN4node11SPrintFImplImJEEENSt7__cxx1112basic_stringIcSt11char_traitsIcESaIcEEEPKcOT_DpOT0_E4args_1 = linkonce_odr dso_local constant %"struct.node::AssertionInfo" { ptr @.str.59, ptr @.str.60, ptr @.str.101 }, comdat, align 8
@.str.102 = private unnamed_addr constant [17 x i8] c"0123456789abcdef\00", align 1
@_ZZN4node11SPrintFImplIiJRmmEEENSt7__cxx1112basic_stringIcSt11char_traitsIcESaIcEEEPKcOT_DpOT0_E4args = linkonce_odr dso_local constant %"struct.node::AssertionInfo" { ptr @.str.54, ptr @.str.55, ptr @.str.103 }, comdat, align 8
@.str.103 = private unnamed_addr constant [117 x i8] c"std::string node::SPrintFImpl(const char *, Arg &&, Args &&...) [Arg = int, Args = <unsigned long &, unsigned long>]\00", align 1
@_ZZN4node11SPrintFImplIiJRmmEEENSt7__cxx1112basic_stringIcSt11char_traitsIcESaIcEEEPKcOT_DpOT0_E4args_0 = linkonce_odr dso_local constant %"struct.node::AssertionInfo" { ptr @.str.86, ptr @.str.87, ptr @.str.103 }, comdat, align 8
@_ZZN4node11SPrintFImplIiJRmmEEENSt7__cxx1112basic_stringIcSt11char_traitsIcESaIcEEEPKcOT_DpOT0_E4args_1 = linkonce_odr dso_local constant %"struct.node::AssertionInfo" { ptr @.str.59, ptr @.str.60, ptr @.str.103 }, comdat, align 8
@_ZZNSt8__detail18__to_chars_10_implIjEEvPcjT_E8__digits = linkonce_odr dso_local constant [201 x i8] c"00010203040506070809101112131415161718192021222324252627282930313233343536373839404142434445464748495051525354555657585960616263646566676869707172737475767778798081828384858687888990919293949596979899\00", comdat, align 16
@_ZZN4node11SPrintFImplIRmJmEEENSt7__cxx1112basic_stringIcSt11char_traitsIcESaIcEEEPKcOT_DpOT0_E4args = linkonce_odr dso_local constant %"struct.node::AssertionInfo" { ptr @.str.54, ptr @.str.55, ptr @.str.104 }, comdat, align 8
@.str.104 = private unnamed_addr constant [112 x i8] c"std::string node::SPrintFImpl(const char *, Arg &&, Args &&...) [Arg = unsigned long &, Args = <unsigned long>]\00", align 1
@_ZZN4node11SPrintFImplIRmJmEEENSt7__cxx1112basic_stringIcSt11char_traitsIcESaIcEEEPKcOT_DpOT0_E4args_0 = linkonce_odr dso_local constant %"struct.node::AssertionInfo" { ptr @.str.86, ptr @.str.87, ptr @.str.104 }, comdat, align 8
@_ZZN4node11SPrintFImplIRmJmEEENSt7__cxx1112basic_stringIcSt11char_traitsIcESaIcEEEPKcOT_DpOT0_E4args_1 = linkonce_odr dso_local constant %"struct.node::AssertionInfo" { ptr @.str.59, ptr @.str.60, ptr @.str.104 }, comdat, align 8
@_ZZN4node11SPrintFImplIRbJEEENSt7__cxx1112basic_stringIcSt11char_traitsIcESaIcEEEPKcOT_DpOT0_E4args = linkonce_odr dso_local constant %"struct.node::AssertionInfo" { ptr @.str.54, ptr @.str.55, ptr @.str.105 }, comdat, align 8
@.str.105 = private unnamed_addr constant [90 x i8] c"std::string node::SPrintFImpl(const char *, Arg &&, Args &&...) [Arg = bool &, Args = <>]\00", align 1
@_ZZN4node11SPrintFImplIRbJEEENSt7__cxx1112basic_stringIcSt11char_traitsIcESaIcEEEPKcOT_DpOT0_E4args_0 = linkonce_odr dso_local constant %"struct.node::AssertionInfo" { ptr @.str.86, ptr @.str.87, ptr @.str.105 }, comdat, align 8
@_ZZN4node11SPrintFImplIRbJEEENSt7__cxx1112basic_stringIcSt11char_traitsIcESaIcEEEPKcOT_DpOT0_E4args_1 = linkonce_odr dso_local constant %"struct.node::AssertionInfo" { ptr @.str.59, ptr @.str.60, ptr @.str.105 }, comdat, align 8
@.str.106 = private unnamed_addr constant [5 x i8] c"true\00", align 1
@.str.107 = private unnamed_addr constant [6 x i8] c"false\00", align 1
@llvm.global_ctors = appending global [1 x { i32, ptr, ptr }] [{ i32, ptr, ptr } { i32 65535, ptr @_GLOBAL__sub_I_inspector_profiler.cc, ptr null }]

; Function Attrs: nounwind uwtable
define internal void @__cxx_global_var_init() #0 section ".text.startup" {
entry:
  call void @_ZNSt8ios_base4InitC1Ev(ptr noundef nonnull align 1 dereferenceable(1) @_ZStL8__ioinit)
  %0 = call i32 @__cxa_atexit(ptr @_ZNSt8ios_base4InitD1Ev, ptr @_ZStL8__ioinit, ptr @__dso_handle) #3
  ret void
}

declare void @_ZNSt8ios_base4InitC1Ev(ptr noundef nonnull align 1 dereferenceable(1)) unnamed_addr #1

; Function Attrs: nounwind
declare void @_ZNSt8ios_base4InitD1Ev(ptr noundef nonnull align 1 dereferenceable(1)) unnamed_addr #2

; Function Attrs: nounwind
declare i32 @__cxa_atexit(ptr, ptr, ptr) #3

; Function Attrs: mustprogress nounwind uwtable
define dso_local void @_ZN4node8profiler20V8ProfilerConnectionC2EPNS_11EnvironmentE(ptr noundef nonnull align 8 dereferenceable(88) %this, ptr noundef %env) unnamed_addr #4 align 2 {
entry:
  %this.addr = alloca ptr, align 8
  %env.addr = alloca ptr, align 8
  %agg.tmp = alloca %"class.std::unique_ptr.298", align 8
  %ref.tmp = alloca %"class.std::unique_ptr.306", align 8
  %ref.tmp2 = alloca ptr, align 8
  store ptr %this, ptr %this.addr, align 8
  store ptr %env, ptr %env.addr, align 8
  %this1 = load ptr, ptr %this.addr, align 8
  store ptr getelementptr inbounds ({ [12 x ptr] }, ptr @_ZTVN4node8profiler20V8ProfilerConnectionE, i32 0, inrange i32 0, i32 2), ptr %this1, align 8
  %session_ = getelementptr inbounds %"class.node::profiler::V8ProfilerConnection", ptr %this1, i32 0, i32 1
  %0 = load ptr, ptr %env.addr, align 8
  %call = call noundef ptr @_ZNK4node11Environment15inspector_agentEv(ptr noundef nonnull align 8 dereferenceable(2872) %0)
  store ptr %this1, ptr %ref.tmp2, align 8
  call void @_ZSt11make_uniqueIN4node8profiler20V8ProfilerConnection25V8ProfilerSessionDelegateEJPS2_EENSt8__detail9_MakeUniqIT_E15__single_objectEDpOT0_(ptr sret(%"class.std::unique_ptr.306") align 8 %ref.tmp, ptr noundef nonnull align 8 dereferenceable(8) %ref.tmp2)
  call void @_ZNSt10unique_ptrIN4node9inspector24InspectorSessionDelegateESt14default_deleteIS2_EEC2INS0_8profiler20V8ProfilerConnection25V8ProfilerSessionDelegateES3_IS9_EvEEOS_IT_T0_E(ptr noundef nonnull align 8 dereferenceable(8) %agg.tmp, ptr noundef nonnull align 8 dereferenceable(8) %ref.tmp) #3
  call void @_ZN4node9inspector5Agent7ConnectESt10unique_ptrINS0_24InspectorSessionDelegateESt14default_deleteIS3_EEb(ptr sret(%"class.std::unique_ptr") align 8 %session_, ptr noundef nonnull align 8 dereferenceable(186) %call, ptr noundef %agg.tmp, i1 noundef zeroext false)
  call void @_ZNSt10unique_ptrIN4node9inspector24InspectorSessionDelegateESt14default_deleteIS2_EED2Ev(ptr noundef nonnull align 8 dereferenceable(8) %agg.tmp) #3
  call void @_ZNSt10unique_ptrIN4node8profiler20V8ProfilerConnection25V8ProfilerSessionDelegateESt14default_deleteIS3_EED2Ev(ptr noundef nonnull align 8 dereferenceable(8) %ref.tmp) #3
  %id_ = getelementptr inbounds %"class.node::profiler::V8ProfilerConnection", ptr %this1, i32 0, i32 2
  store i32 1, ptr %id_, align 8
  %profile_ids_ = getelementptr inbounds %"class.node::profiler::V8ProfilerConnection", ptr %this1, i32 0, i32 3
  call void @_ZNSt13unordered_setIjSt4hashIjESt8equal_toIjESaIjEEC2Ev(ptr noundef nonnull align 8 dereferenceable(56) %profile_ids_) #3
  %env_ = getelementptr inbounds %"class.node::profiler::V8ProfilerConnection", ptr %this1, i32 0, i32 4
  %1 = load ptr, ptr %env.addr, align 8
  store ptr %1, ptr %env_, align 8
  ret void
}

; Function Attrs: mustprogress nounwind uwtable
define linkonce_odr dso_local noundef ptr @_ZNK4node11Environment15inspector_agentEv(ptr noundef nonnull align 8 dereferenceable(2872) %this) #4 comdat align 2 {
entry:
  %this.addr = alloca ptr, align 8
  store ptr %this, ptr %this.addr, align 8
  %this1 = load ptr, ptr %this.addr, align 8
  %inspector_agent_ = getelementptr inbounds %"class.node::Environment", ptr %this1, i32 0, i32 66
  %call = call noundef ptr @_ZNKSt10unique_ptrIN4node9inspector5AgentESt14default_deleteIS2_EE3getEv(ptr noundef nonnull align 8 dereferenceable(8) %inspector_agent_) #3
  ret ptr %call
}

declare void @_ZN4node9inspector5Agent7ConnectESt10unique_ptrINS0_24InspectorSessionDelegateESt14default_deleteIS3_EEb(ptr sret(%"class.std::unique_ptr") align 8, ptr noundef nonnull align 8 dereferenceable(186), ptr noundef, i1 noundef zeroext) #1

; Function Attrs: mustprogress nounwind uwtable
define linkonce_odr dso_local void @_ZSt11make_uniqueIN4node8profiler20V8ProfilerConnection25V8ProfilerSessionDelegateEJPS2_EENSt8__detail9_MakeUniqIT_E15__single_objectEDpOT0_(ptr noalias sret(%"class.std::unique_ptr.306") align 8 %agg.result, ptr noundef nonnull align 8 dereferenceable(8) %__args) #4 comdat {
entry:
  %result.ptr = alloca ptr, align 8
  %__args.addr = alloca ptr, align 8
  store ptr %agg.result, ptr %result.ptr, align 8
  store ptr %__args, ptr %__args.addr, align 8
  %call = call noalias noundef nonnull ptr @_Znwm(i64 noundef 16) #14
  %0 = load ptr, ptr %__args.addr, align 8
  %1 = load ptr, ptr %0, align 8
  call void @_ZN4node8profiler20V8ProfilerConnection25V8ProfilerSessionDelegateC2EPS1_(ptr noundef nonnull align 8 dereferenceable(16) %call, ptr noundef %1)
  call void @_ZNSt10unique_ptrIN4node8profiler20V8ProfilerConnection25V8ProfilerSessionDelegateESt14default_deleteIS3_EEC2IS5_vEEPS3_(ptr noundef nonnull align 8 dereferenceable(8) %agg.result, ptr noundef %call) #3
  ret void
}

; Function Attrs: mustprogress nounwind uwtable
define linkonce_odr dso_local void @_ZNSt10unique_ptrIN4node9inspector24InspectorSessionDelegateESt14default_deleteIS2_EEC2INS0_8profiler20V8ProfilerConnection25V8ProfilerSessionDelegateES3_IS9_EvEEOS_IT_T0_E(ptr noundef nonnull align 8 dereferenceable(8) %this, ptr noundef nonnull align 8 dereferenceable(8) %__u) unnamed_addr #4 comdat align 2 {
entry:
  %this.addr = alloca ptr, align 8
  %__u.addr = alloca ptr, align 8
  store ptr %this, ptr %this.addr, align 8
  store ptr %__u, ptr %__u.addr, align 8
  %this1 = load ptr, ptr %this.addr, align 8
  %_M_t = getelementptr inbounds %"class.std::unique_ptr.298", ptr %this1, i32 0, i32 0
  %0 = load ptr, ptr %__u.addr, align 8
  %call = call noundef ptr @_ZNSt10unique_ptrIN4node8profiler20V8ProfilerConnection25V8ProfilerSessionDelegateESt14default_deleteIS3_EE7releaseEv(ptr noundef nonnull align 8 dereferenceable(8) %0) #3
  %1 = load ptr, ptr %__u.addr, align 8
  %call2 = call noundef nonnull align 1 dereferenceable(1) ptr @_ZNSt10unique_ptrIN4node8profiler20V8ProfilerConnection25V8ProfilerSessionDelegateESt14default_deleteIS3_EE11get_deleterEv(ptr noundef nonnull align 8 dereferenceable(8) %1) #3
  call void @_ZNSt15__uniq_ptr_dataIN4node9inspector24InspectorSessionDelegateESt14default_deleteIS2_ELb1ELb1EECI2St15__uniq_ptr_implIS2_S4_EIS3_INS0_8profiler20V8ProfilerConnection25V8ProfilerSessionDelegateEEEEPS2_OT_(ptr noundef nonnull align 8 dereferenceable(8) %_M_t, ptr noundef %call, ptr noundef nonnull align 1 dereferenceable(1) %call2)
  ret void
}

; Function Attrs: mustprogress nounwind uwtable
define linkonce_odr dso_local void @_ZNSt10unique_ptrIN4node9inspector24InspectorSessionDelegateESt14default_deleteIS2_EED2Ev(ptr noundef nonnull align 8 dereferenceable(8) %this) unnamed_addr #4 comdat align 2 {
entry:
  %this.addr = alloca ptr, align 8
  %__ptr = alloca ptr, align 8
  store ptr %this, ptr %this.addr, align 8
  %this1 = load ptr, ptr %this.addr, align 8
  %_M_t = getelementptr inbounds %"class.std::unique_ptr.298", ptr %this1, i32 0, i32 0
  %call = call noundef nonnull align 8 dereferenceable(8) ptr @_ZNSt15__uniq_ptr_implIN4node9inspector24InspectorSessionDelegateESt14default_deleteIS2_EE6_M_ptrEv(ptr noundef nonnull align 8 dereferenceable(8) %_M_t) #3
  store ptr %call, ptr %__ptr, align 8
  %0 = load ptr, ptr %__ptr, align 8
  %1 = load ptr, ptr %0, align 8
  %cmp = icmp ne ptr %1, null
  br i1 %cmp, label %if.then, label %if.end

if.then:                                          ; preds = %entry
  %call2 = call noundef nonnull align 1 dereferenceable(1) ptr @_ZNSt10unique_ptrIN4node9inspector24InspectorSessionDelegateESt14default_deleteIS2_EE11get_deleterEv(ptr noundef nonnull align 8 dereferenceable(8) %this1) #3
  %2 = load ptr, ptr %__ptr, align 8
  %3 = load ptr, ptr %2, align 8
  call void @_ZNKSt14default_deleteIN4node9inspector24InspectorSessionDelegateEEclEPS2_(ptr noundef nonnull align 1 dereferenceable(1) %call2, ptr noundef %3)
  br label %if.end

if.end:                                           ; preds = %if.then, %entry
  %4 = load ptr, ptr %__ptr, align 8
  store ptr null, ptr %4, align 8
  ret void
}

; Function Attrs: mustprogress nounwind uwtable
define linkonce_odr dso_local void @_ZNSt10unique_ptrIN4node8profiler20V8ProfilerConnection25V8ProfilerSessionDelegateESt14default_deleteIS3_EED2Ev(ptr noundef nonnull align 8 dereferenceable(8) %this) unnamed_addr #4 comdat align 2 {
entry:
  %this.addr = alloca ptr, align 8
  %__ptr = alloca ptr, align 8
  store ptr %this, ptr %this.addr, align 8
  %this1 = load ptr, ptr %this.addr, align 8
  %_M_t = getelementptr inbounds %"class.std::unique_ptr.306", ptr %this1, i32 0, i32 0
  %call = call noundef nonnull align 8 dereferenceable(8) ptr @_ZNSt15__uniq_ptr_implIN4node8profiler20V8ProfilerConnection25V8ProfilerSessionDelegateESt14default_deleteIS3_EE6_M_ptrEv(ptr noundef nonnull align 8 dereferenceable(8) %_M_t) #3
  store ptr %call, ptr %__ptr, align 8
  %0 = load ptr, ptr %__ptr, align 8
  %1 = load ptr, ptr %0, align 8
  %cmp = icmp ne ptr %1, null
  br i1 %cmp, label %if.then, label %if.end

if.then:                                          ; preds = %entry
  %call2 = call noundef nonnull align 1 dereferenceable(1) ptr @_ZNSt10unique_ptrIN4node8profiler20V8ProfilerConnection25V8ProfilerSessionDelegateESt14default_deleteIS3_EE11get_deleterEv(ptr noundef nonnull align 8 dereferenceable(8) %this1) #3
  %2 = load ptr, ptr %__ptr, align 8
  %3 = load ptr, ptr %2, align 8
  call void @_ZNKSt14default_deleteIN4node8profiler20V8ProfilerConnection25V8ProfilerSessionDelegateEEclEPS3_(ptr noundef nonnull align 1 dereferenceable(1) %call2, ptr noundef %3)
  br label %if.end

if.end:                                           ; preds = %if.then, %entry
  %4 = load ptr, ptr %__ptr, align 8
  store ptr null, ptr %4, align 8
  ret void
}

; Function Attrs: mustprogress nounwind uwtable
define linkonce_odr dso_local void @_ZNSt13unordered_setIjSt4hashIjESt8equal_toIjESaIjEEC2Ev(ptr noundef nonnull align 8 dereferenceable(56) %this) unnamed_addr #4 comdat align 2 {
entry:
  %this.addr = alloca ptr, align 8
  store ptr %this, ptr %this.addr, align 8
  %this1 = load ptr, ptr %this.addr, align 8
  %_M_h = getelementptr inbounds %"class.std::unordered_set", ptr %this1, i32 0, i32 0
  call void @_ZNSt10_HashtableIjjSaIjENSt8__detail9_IdentityESt8equal_toIjESt4hashIjENS1_18_Mod_range_hashingENS1_20_Default_ranged_hashENS1_20_Prime_rehash_policyENS1_17_Hashtable_traitsILb0ELb1ELb1EEEEC2Ev(ptr noundef nonnull align 8 dereferenceable(56) %_M_h) #3
  ret void
}

; Function Attrs: mustprogress nounwind uwtable
define dso_local noundef i32 @_ZN4node8profiler20V8ProfilerConnection15DispatchMessageEPKcS3_b(ptr noundef nonnull align 8 dereferenceable(88) %this, ptr noundef %method, ptr noundef %params, i1 noundef zeroext %is_profile_request) #4 align 2 {
entry:
  %this.addr.i.i = alloca ptr, align 8
  %category.addr.i.i = alloca i32, align 4
  %list.addr.i = alloca ptr, align 8
  %cat.addr.i22 = alloca i32, align 4
  %format.addr.i23 = alloca ptr, align 8
  %args.addr.i24 = alloca ptr, align 8
  %env.addr.i = alloca ptr, align 8
  %cat.addr.i = alloca i32, align 4
  %format.addr.i = alloca ptr, align 8
  %args.addr.i = alloca ptr, align 8
  %this.addr = alloca ptr, align 8
  %method.addr = alloca ptr, align 8
  %params.addr = alloca ptr, align 8
  %is_profile_request.addr = alloca i8, align 1
  %ss = alloca %"class.std::__cxx11::basic_stringstream", align 8
  %id = alloca i32, align 4
  %message = alloca %"class.std::__cxx11::basic_string", align 8
  %message_data = alloca ptr, align 8
  %coerce = alloca %"struct.std::pair", align 8
  %ref.tmp = alloca ptr, align 8
  %ref.tmp20 = alloca %"class.v8_inspector::StringView", align 8
  store ptr %this, ptr %this.addr, align 8
  store ptr %method, ptr %method.addr, align 8
  store ptr %params, ptr %params.addr, align 8
  %frombool = zext i1 %is_profile_request to i8
  store i8 %frombool, ptr %is_profile_request.addr, align 1
  %this1 = load ptr, ptr %this.addr, align 8
  call void @_ZNSt7__cxx1118basic_stringstreamIcSt11char_traitsIcESaIcEEC1Ev(ptr noundef nonnull align 8 dereferenceable(128) %ss)
  %call = call noundef i32 @_ZN4node8profiler20V8ProfilerConnection7next_idEv(ptr noundef nonnull align 8 dereferenceable(88) %this1)
  store i32 %call, ptr %id, align 4
  %add.ptr = getelementptr inbounds i8, ptr %ss, i64 16
  %call2 = call noundef nonnull align 8 dereferenceable(8) ptr @_ZStlsISt11char_traitsIcEERSt13basic_ostreamIcT_ES5_PKc(ptr noundef nonnull align 8 dereferenceable(8) %add.ptr, ptr noundef @.str)
  %0 = load i32, ptr %id, align 4
  %call3 = call noundef nonnull align 8 dereferenceable(8) ptr @_ZNSolsEj(ptr noundef nonnull align 8 dereferenceable(8) %call2, i32 noundef %0)
  %add.ptr4 = getelementptr inbounds i8, ptr %ss, i64 16
  %call5 = call noundef nonnull align 8 dereferenceable(8) ptr @_ZStlsISt11char_traitsIcEERSt13basic_ostreamIcT_ES5_PKc(ptr noundef nonnull align 8 dereferenceable(8) %add.ptr4, ptr noundef @.str.1)
  %1 = load ptr, ptr %method.addr, align 8
  %call6 = call noundef nonnull align 8 dereferenceable(8) ptr @_ZStlsISt11char_traitsIcEERSt13basic_ostreamIcT_ES5_PKc(ptr noundef nonnull align 8 dereferenceable(8) %call5, ptr noundef %1)
  %call7 = call noundef nonnull align 8 dereferenceable(8) ptr @_ZStlsISt11char_traitsIcEERSt13basic_ostreamIcT_ES5_c(ptr noundef nonnull align 8 dereferenceable(8) %call6, i8 noundef signext 34)
  %2 = load ptr, ptr %params.addr, align 8
  %cmp = icmp ne ptr %2, null
  br i1 %cmp, label %if.then, label %if.end

if.then:                                          ; preds = %entry
  %add.ptr8 = getelementptr inbounds i8, ptr %ss, i64 16
  %call9 = call noundef nonnull align 8 dereferenceable(8) ptr @_ZStlsISt11char_traitsIcEERSt13basic_ostreamIcT_ES5_PKc(ptr noundef nonnull align 8 dereferenceable(8) %add.ptr8, ptr noundef @.str.2)
  %3 = load ptr, ptr %params.addr, align 8
  %call10 = call noundef nonnull align 8 dereferenceable(8) ptr @_ZStlsISt11char_traitsIcEERSt13basic_ostreamIcT_ES5_PKc(ptr noundef nonnull align 8 dereferenceable(8) %call9, ptr noundef %3)
  br label %if.end

if.end:                                           ; preds = %if.then, %entry
  %add.ptr11 = getelementptr inbounds i8, ptr %ss, i64 16
  %call12 = call noundef nonnull align 8 dereferenceable(8) ptr @_ZStlsISt11char_traitsIcEERSt13basic_ostreamIcT_ES5_PKc(ptr noundef nonnull align 8 dereferenceable(8) %add.ptr11, ptr noundef @.str.3)
  call void @_ZNKSt7__cxx1118basic_stringstreamIcSt11char_traitsIcESaIcEE3strEv(ptr sret(%"class.std::__cxx11::basic_string") align 8 %message, ptr noundef nonnull align 8 dereferenceable(128) %ss)
  %call13 = call noundef ptr @_ZNKSt7__cxx1112basic_stringIcSt11char_traitsIcESaIcEE5c_strEv(ptr noundef nonnull align 8 dereferenceable(32) %message) #3
  store ptr %call13, ptr %message_data, align 8
  %4 = load i8, ptr %is_profile_request.addr, align 1
  %tobool = trunc i8 %4 to i1
  br i1 %tobool, label %if.then14, label %if.end16

if.then14:                                        ; preds = %if.end
  %profile_ids_ = getelementptr inbounds %"class.node::profiler::V8ProfilerConnection", ptr %this1, i32 0, i32 3
  %call15 = call { ptr, i8 } @_ZNSt13unordered_setIjSt4hashIjESt8equal_toIjESaIjEE6insertERKj(ptr noundef nonnull align 8 dereferenceable(56) %profile_ids_, ptr noundef nonnull align 4 dereferenceable(4) %id)
  %5 = getelementptr inbounds { ptr, i8 }, ptr %coerce, i32 0, i32 0
  %6 = extractvalue { ptr, i8 } %call15, 0
  store ptr %6, ptr %5, align 8
  %7 = getelementptr inbounds { ptr, i8 }, ptr %coerce, i32 0, i32 1
  %8 = extractvalue { ptr, i8 } %call15, 1
  store i8 %8, ptr %7, align 8
  br label %if.end16

if.end16:                                         ; preds = %if.then14, %if.end
  %call17 = call noundef ptr @_ZNK4node8profiler20V8ProfilerConnection3envEv(ptr noundef nonnull align 8 dereferenceable(88) %this1)
  %call18 = call noundef ptr @_ZNKSt7__cxx1112basic_stringIcSt11char_traitsIcESaIcEE5c_strEv(ptr noundef nonnull align 8 dereferenceable(32) %message) #3
  store ptr %call18, ptr %ref.tmp, align 8
  store ptr %call17, ptr %env.addr.i, align 8
  store i32 67, ptr %cat.addr.i, align 4
  store ptr @.str.4, ptr %format.addr.i, align 8
  store ptr %ref.tmp, ptr %args.addr.i, align 8
  %9 = load ptr, ptr %env.addr.i, align 8
  %call.i = call noundef ptr @_ZN4node11Environment18enabled_debug_listEv(ptr noundef nonnull align 8 dereferenceable(2872) %9)
  %10 = load i32, ptr %cat.addr.i, align 4
  %11 = load ptr, ptr %format.addr.i, align 8
  %12 = load ptr, ptr %args.addr.i, align 8
  store ptr %call.i, ptr %list.addr.i, align 8
  store i32 %10, ptr %cat.addr.i22, align 4
  store ptr %11, ptr %format.addr.i23, align 8
  store ptr %12, ptr %args.addr.i24, align 8
  %13 = load ptr, ptr %list.addr.i, align 8
  %14 = load i32, ptr %cat.addr.i22, align 4
  store ptr %13, ptr %this.addr.i.i, align 8
  store i32 %14, ptr %category.addr.i.i, align 4
  %this1.i.i = load ptr, ptr %this.addr.i.i, align 8
  %15 = load i32, ptr %category.addr.i.i, align 4
  %idxprom.i.i = zext i32 %15 to i64
  %arrayidx.i.i = getelementptr inbounds [75 x i8], ptr %this1.i.i, i64 0, i64 %idxprom.i.i
  %16 = load i8, ptr %arrayidx.i.i, align 1
  %tobool.i.i = trunc i8 %16 to i1
  br i1 %tobool.i.i, label %if.end.i, label %if.then.i

if.then.i:                                        ; preds = %if.end16
  br label %_ZN4node5DebugIJPKcEEEvPNS_16EnabledDebugListENS_13DebugCategoryES2_DpOT_.exit

if.end.i:                                         ; preds = %if.end16
  %17 = load ptr, ptr @stderr, align 8
  %18 = load ptr, ptr %format.addr.i23, align 8
  %19 = load ptr, ptr %args.addr.i24, align 8
  call void @_ZN4node7FPrintFIJPKcEEEvP8_IO_FILES2_DpOT_(ptr noundef %17, ptr noundef %18, ptr noundef nonnull align 8 dereferenceable(8) %19) #15
  br label %_ZN4node5DebugIJPKcEEEvPNS_16EnabledDebugListENS_13DebugCategoryES2_DpOT_.exit

_ZN4node5DebugIJPKcEEEvPNS_16EnabledDebugListENS_13DebugCategoryES2_DpOT_.exit: ; preds = %if.end.i, %if.then.i
  %session_ = getelementptr inbounds %"class.node::profiler::V8ProfilerConnection", ptr %this1, i32 0, i32 1
  %call19 = call noundef ptr @_ZNKSt10unique_ptrIN4node9inspector16InspectorSessionESt14default_deleteIS2_EEptEv(ptr noundef nonnull align 8 dereferenceable(8) %session_) #3
  %20 = load ptr, ptr %message_data, align 8
  %call21 = call noundef i64 @_ZNKSt7__cxx1112basic_stringIcSt11char_traitsIcESaIcEE6lengthEv(ptr noundef nonnull align 8 dereferenceable(32) %message) #3
  call void @_ZN12v8_inspector10StringViewC2EPKhm(ptr noundef nonnull align 8 dereferenceable(24) %ref.tmp20, ptr noundef %20, i64 noundef %call21)
  %vtable = load ptr, ptr %call19, align 8
  %vfn = getelementptr inbounds ptr, ptr %vtable, i64 2
  %21 = load ptr, ptr %vfn, align 8
  call void %21(ptr noundef nonnull align 8 dereferenceable(8) %call19, ptr noundef nonnull align 8 dereferenceable(24) %ref.tmp20)
  %22 = load i32, ptr %id, align 4
  call void @_ZNSt7__cxx1112basic_stringIcSt11char_traitsIcESaIcEED1Ev(ptr noundef nonnull align 8 dereferenceable(32) %message) #3
  call void @_ZNSt7__cxx1118basic_stringstreamIcSt11char_traitsIcESaIcEED1Ev(ptr noundef nonnull align 8 dereferenceable(128) %ss) #3
  ret i32 %22
}

declare void @_ZNSt7__cxx1118basic_stringstreamIcSt11char_traitsIcESaIcEEC1Ev(ptr noundef nonnull align 8 dereferenceable(128)) unnamed_addr #1

; Function Attrs: mustprogress nounwind uwtable
define linkonce_odr dso_local noundef i32 @_ZN4node8profiler20V8ProfilerConnection7next_idEv(ptr noundef nonnull align 8 dereferenceable(88) %this) #4 comdat align 2 {
entry:
  %this.addr = alloca ptr, align 8
  store ptr %this, ptr %this.addr, align 8
  %this1 = load ptr, ptr %this.addr, align 8
  %id_ = getelementptr inbounds %"class.node::profiler::V8ProfilerConnection", ptr %this1, i32 0, i32 2
  %0 = load i32, ptr %id_, align 8
  %inc = add i32 %0, 1
  store i32 %inc, ptr %id_, align 8
  ret i32 %0
}

declare noundef nonnull align 8 dereferenceable(8) ptr @_ZStlsISt11char_traitsIcEERSt13basic_ostreamIcT_ES5_PKc(ptr noundef nonnull align 8 dereferenceable(8), ptr noundef) #1

declare noundef nonnull align 8 dereferenceable(8) ptr @_ZNSolsEj(ptr noundef nonnull align 8 dereferenceable(8), i32 noundef) #1

declare noundef nonnull align 8 dereferenceable(8) ptr @_ZStlsISt11char_traitsIcEERSt13basic_ostreamIcT_ES5_c(ptr noundef nonnull align 8 dereferenceable(8), i8 noundef signext) #1

declare void @_ZNKSt7__cxx1118basic_stringstreamIcSt11char_traitsIcESaIcEE3strEv(ptr sret(%"class.std::__cxx11::basic_string") align 8, ptr noundef nonnull align 8 dereferenceable(128)) #1

; Function Attrs: nounwind
declare noundef ptr @_ZNKSt7__cxx1112basic_stringIcSt11char_traitsIcESaIcEE5c_strEv(ptr noundef nonnull align 8 dereferenceable(32)) #2

; Function Attrs: mustprogress nounwind uwtable
define linkonce_odr dso_local { ptr, i8 } @_ZNSt13unordered_setIjSt4hashIjESt8equal_toIjESaIjEE6insertERKj(ptr noundef nonnull align 8 dereferenceable(56) %this, ptr noundef nonnull align 4 dereferenceable(4) %__x) #4 comdat align 2 {
entry:
  %retval = alloca %"struct.std::pair", align 8
  %this.addr = alloca ptr, align 8
  %__x.addr = alloca ptr, align 8
  store ptr %this, ptr %this.addr, align 8
  store ptr %__x, ptr %__x.addr, align 8
  %this1 = load ptr, ptr %this.addr, align 8
  %_M_h = getelementptr inbounds %"class.std::unordered_set", ptr %this1, i32 0, i32 0
  %0 = load ptr, ptr %__x.addr, align 8
  %call = call { ptr, i8 } @_ZNSt8__detail12_Insert_baseIjjSaIjENS_9_IdentityESt8equal_toIjESt4hashIjENS_18_Mod_range_hashingENS_20_Default_ranged_hashENS_20_Prime_rehash_policyENS_17_Hashtable_traitsILb0ELb1ELb1EEEE6insertERKj(ptr noundef nonnull align 1 dereferenceable(1) %_M_h, ptr noundef nonnull align 4 dereferenceable(4) %0)
  %1 = getelementptr inbounds { ptr, i8 }, ptr %retval, i32 0, i32 0
  %2 = extractvalue { ptr, i8 } %call, 0
  store ptr %2, ptr %1, align 8
  %3 = getelementptr inbounds { ptr, i8 }, ptr %retval, i32 0, i32 1
  %4 = extractvalue { ptr, i8 } %call, 1
  store i8 %4, ptr %3, align 8
  %5 = load { ptr, i8 }, ptr %retval, align 8
  ret { ptr, i8 } %5
}

; Function Attrs: mustprogress nounwind uwtable
define linkonce_odr dso_local noundef ptr @_ZNK4node8profiler20V8ProfilerConnection3envEv(ptr noundef nonnull align 8 dereferenceable(88) %this) #4 comdat align 2 {
entry:
  %this.addr = alloca ptr, align 8
  store ptr %this, ptr %this.addr, align 8
  %this1 = load ptr, ptr %this.addr, align 8
  %env_ = getelementptr inbounds %"class.node::profiler::V8ProfilerConnection", ptr %this1, i32 0, i32 4
  %0 = load ptr, ptr %env_, align 8
  ret ptr %0
}

; Function Attrs: mustprogress nounwind uwtable
define linkonce_odr dso_local noundef ptr @_ZNKSt10unique_ptrIN4node9inspector16InspectorSessionESt14default_deleteIS2_EEptEv(ptr noundef nonnull align 8 dereferenceable(8) %this) #4 comdat align 2 {
entry:
  %this.addr = alloca ptr, align 8
  store ptr %this, ptr %this.addr, align 8
  %this1 = load ptr, ptr %this.addr, align 8
  %call = call noundef ptr @_ZNKSt10unique_ptrIN4node9inspector16InspectorSessionESt14default_deleteIS2_EE3getEv(ptr noundef nonnull align 8 dereferenceable(8) %this1) #3
  ret ptr %call
}

; Function Attrs: nounwind
declare noundef i64 @_ZNKSt7__cxx1112basic_stringIcSt11char_traitsIcESaIcEE6lengthEv(ptr noundef nonnull align 8 dereferenceable(32)) #2

; Function Attrs: mustprogress nounwind uwtable
define linkonce_odr dso_local void @_ZN12v8_inspector10StringViewC2EPKhm(ptr noundef nonnull align 8 dereferenceable(24) %this, ptr noundef %characters, i64 noundef %length) unnamed_addr #4 comdat align 2 {
entry:
  %this.addr = alloca ptr, align 8
  %characters.addr = alloca ptr, align 8
  %length.addr = alloca i64, align 8
  store ptr %this, ptr %this.addr, align 8
  store ptr %characters, ptr %characters.addr, align 8
  store i64 %length, ptr %length.addr, align 8
  %this1 = load ptr, ptr %this.addr, align 8
  %m_is8Bit = getelementptr inbounds %"class.v8_inspector::StringView", ptr %this1, i32 0, i32 0
  store i8 1, ptr %m_is8Bit, align 8
  %m_length = getelementptr inbounds %"class.v8_inspector::StringView", ptr %this1, i32 0, i32 1
  %0 = load i64, ptr %length.addr, align 8
  store i64 %0, ptr %m_length, align 8
  %1 = getelementptr inbounds %"class.v8_inspector::StringView", ptr %this1, i32 0, i32 2
  %2 = load ptr, ptr %characters.addr, align 8
  store ptr %2, ptr %1, align 8
  ret void
}

; Function Attrs: nounwind
declare void @_ZNSt7__cxx1112basic_stringIcSt11char_traitsIcESaIcEED1Ev(ptr noundef nonnull align 8 dereferenceable(32)) unnamed_addr #2

; Function Attrs: nounwind
declare void @_ZNSt7__cxx1118basic_stringstreamIcSt11char_traitsIcESaIcEED1Ev(ptr noundef nonnull align 8 dereferenceable(128)) unnamed_addr #2

; Function Attrs: mustprogress nounwind uwtable
define dso_local void @_ZN4node8profiler20V8ProfilerConnection25V8ProfilerSessionDelegate21SendMessageToFrontendERKN12v8_inspector10StringViewE(ptr noundef nonnull align 8 dereferenceable(16) %this, ptr noundef nonnull align 8 dereferenceable(24) %message) unnamed_addr #4 align 2 {
entry:
  %this.addr.i.i376 = alloca ptr, align 8
  %category.addr.i.i377 = alloca i32, align 4
  %list.addr.i378 = alloca ptr, align 8
  %cat.addr.i379 = alloca i32, align 4
  %format.addr.i380 = alloca ptr, align 8
  %args.addr.i381 = alloca ptr, align 8
  %this.addr.i.i363 = alloca ptr, align 8
  %category.addr.i.i364 = alloca i32, align 4
  %list.addr.i365 = alloca ptr, align 8
  %cat.addr.i366 = alloca i32, align 4
  %format.addr.i367 = alloca ptr, align 8
  %args.addr.i368 = alloca ptr, align 8
  %slot.addr.i362 = alloca ptr, align 8
  %this.addr.i.i358 = alloca ptr, align 8
  %this.addr.i359 = alloca ptr, align 8
  %this.addr.i355 = alloca ptr, align 8
  %other.addr.i356 = alloca ptr, align 8
  %this.addr.i352 = alloca ptr, align 8
  %other.addr.i353 = alloca ptr, align 8
  %retval.i349 = alloca %"class.v8::Local.322", align 8
  %that.i350 = alloca %"class.v8::Local.317", align 8
  %ref.tmp.i351 = alloca %"class.v8::LocalBase.323", align 8
  %this.addr.i.i344 = alloca ptr, align 8
  %this.addr.i345 = alloca ptr, align 8
  %this.addr.i.i339 = alloca ptr, align 8
  %this.addr.i340 = alloca ptr, align 8
  %this.addr.i.i334 = alloca ptr, align 8
  %this.addr.i335 = alloca ptr, align 8
  %this.addr.i.i328 = alloca ptr, align 8
  %category.addr.i.i = alloca i32, align 4
  %list.addr.i = alloca ptr, align 8
  %cat.addr.i329 = alloca i32, align 4
  %format.addr.i330 = alloca ptr, align 8
  %args.addr.i331 = alloca ptr, align 8
  %this.addr.i325 = alloca ptr, align 8
  %other.addr.i326 = alloca ptr, align 8
  %this.addr.i322 = alloca ptr, align 8
  %other.addr.i323 = alloca ptr, align 8
  %this.addr.i319 = alloca ptr, align 8
  %other.addr.i320 = alloca ptr, align 8
  %this.addr.i316 = alloca ptr, align 8
  %other.addr.i317 = alloca ptr, align 8
  %retval.i313 = alloca %"class.v8::Local.320", align 8
  %that.i314 = alloca %"class.v8::Local.317", align 8
  %ref.tmp.i315 = alloca %"class.v8::LocalBase.321", align 8
  %retval.i311 = alloca %"class.v8::Local.320", align 8
  %that.i312 = alloca %"class.v8::Local.317", align 8
  %ref.tmp.i = alloca %"class.v8::LocalBase.321", align 8
  %slot.addr.i310 = alloca ptr, align 8
  %slot.addr.i309 = alloca ptr, align 8
  %slot.addr.i308 = alloca ptr, align 8
  %this.addr.i.i303 = alloca ptr, align 8
  %this.addr.i304 = alloca ptr, align 8
  %this.addr.i.i298 = alloca ptr, align 8
  %this.addr.i299 = alloca ptr, align 8
  %this.addr.i.i294 = alloca ptr, align 8
  %this.addr.i295 = alloca ptr, align 8
  %this.addr.i.i290 = alloca ptr, align 8
  %this.addr.i291 = alloca ptr, align 8
  %this.addr.i287 = alloca ptr, align 8
  %other.addr.i288 = alloca ptr, align 8
  %this.addr.i284 = alloca ptr, align 8
  %other.addr.i285 = alloca ptr, align 8
  %this.addr.i281 = alloca ptr, align 8
  %other.addr.i282 = alloca ptr, align 8
  %this.addr.i279 = alloca ptr, align 8
  %other.addr.i = alloca ptr, align 8
  %slot.addr.i278 = alloca ptr, align 8
  %slot.addr.i277 = alloca ptr, align 8
  %this.addr.i.i272 = alloca ptr, align 8
  %this.addr.i273 = alloca ptr, align 8
  %this.addr.i.i268 = alloca ptr, align 8
  %this.addr.i269 = alloca ptr, align 8
  %this.addr.i.i264 = alloca ptr, align 8
  %this.addr.i265 = alloca ptr, align 8
  %this.addr.i.i260 = alloca ptr, align 8
  %this.addr.i261 = alloca ptr, align 8
  %this.addr.i.i = alloca ptr, align 8
  %this.addr.i258 = alloca ptr, align 8
  %this.addr.i256 = alloca ptr, align 8
  %this.addr.i254 = alloca ptr, align 8
  %this.addr.i252 = alloca ptr, align 8
  %this.addr.i250 = alloca ptr, align 8
  %slot.addr.i249 = alloca ptr, align 8
  %slot.addr.i = alloca ptr, align 8
  %this.addr.i245 = alloca ptr, align 8
  %this.addr.i243 = alloca ptr, align 8
  %this.addr.i240 = alloca ptr, align 8
  %this.addr.i237 = alloca ptr, align 8
  %this.addr.i234 = alloca ptr, align 8
  %env.addr.i229 = alloca ptr, align 8
  %cat.addr.i230 = alloca i32, align 4
  %format.addr.i231 = alloca ptr, align 8
  %args.addr.i232 = alloca ptr, align 8
  %env.addr.i224 = alloca ptr, align 8
  %cat.addr.i225 = alloca i32, align 4
  %format.addr.i226 = alloca ptr, align 8
  %args.addr.i227 = alloca ptr, align 8
  %this.addr.i221 = alloca ptr, align 8
  %retval.i216 = alloca %"class.v8::Local.322", align 8
  %this.addr.i217 = alloca ptr, align 8
  %agg.tmp.i218 = alloca %"class.v8::Local.317", align 8
  %that.i213 = alloca %"class.v8::Local.315", align 8
  %this.addr.i214 = alloca ptr, align 8
  %that.i210 = alloca %"class.v8::Local.315", align 8
  %this.addr.i211 = alloca ptr, align 8
  %that.i207 = alloca %"class.v8::Local.315", align 8
  %this.addr.i208 = alloca ptr, align 8
  %that.i = alloca %"class.v8::Local.315", align 8
  %this.addr.i205 = alloca ptr, align 8
  %this.addr.i202 = alloca ptr, align 8
  %this.addr.i199 = alloca ptr, align 8
  %retval.i194 = alloca %"class.v8::Local.320", align 8
  %this.addr.i195 = alloca ptr, align 8
  %agg.tmp.i196 = alloca %"class.v8::Local.317", align 8
  %retval.i = alloca %"class.v8::Local.320", align 8
  %this.addr.i191 = alloca ptr, align 8
  %agg.tmp.i = alloca %"class.v8::Local.317", align 8
  %this.addr.i188 = alloca ptr, align 8
  %this.addr.i185 = alloca ptr, align 8
  %this.addr.i182 = alloca ptr, align 8
  %this.addr.i177 = alloca ptr, align 8
  %out.addr.i178 = alloca ptr, align 8
  %this.addr.i172 = alloca ptr, align 8
  %out.addr.i173 = alloca ptr, align 8
  %this.addr.i167 = alloca ptr, align 8
  %out.addr.i168 = alloca ptr, align 8
  %this.addr.i165 = alloca ptr, align 8
  %this.addr.i163 = alloca ptr, align 8
  %this.addr.i161 = alloca ptr, align 8
  %env.addr.i = alloca ptr, align 8
  %cat.addr.i = alloca i32, align 4
  %format.addr.i = alloca ptr, align 8
  %args.addr.i = alloca ptr, align 8
  %this.addr.i157 = alloca ptr, align 8
  %out.addr.i = alloca ptr, align 8
  %this.addr.i156 = alloca ptr, align 8
  %context.i = alloca %"class.v8::Local", align 8
  %this.addr.i = alloca ptr, align 8
  %this.addr = alloca ptr, align 8
  %message.addr = alloca ptr, align 8
  %env = alloca ptr, align 8
  %isolate = alloca ptr, align 8
  %handle_scope = alloca %"class.v8::HandleScope", align 8
  %context = alloca %"class.v8::Local", align 8
  %context_scope = alloca %"class.v8::Context::Scope", align 8
  %agg.tmp = alloca %"class.v8::Local", align 8
  %type = alloca ptr, align 8
  %message_str = alloca %"class.v8::Local.315", align 8
  %ref.tmp = alloca %"class.v8::MaybeLocal", align 8
  %cleanup.dest.slot = alloca i32, align 4
  %parsed = alloca %"class.v8::Local.317", align 8
  %ref.tmp20 = alloca %"class.v8::MaybeLocal.319", align 8
  %agg.tmp21 = alloca %"class.v8::Local", align 8
  %agg.tmp22 = alloca %"class.v8::Local.315", align 8
  %response = alloca %"class.v8::Local.320", align 8
  %id_v = alloca %"class.v8::Local.317", align 8
  %ref.tmp45 = alloca %"class.v8::MaybeLocal.319", align 8
  %agg.tmp47 = alloca %"class.v8::Local", align 8
  %agg.tmp48 = alloca %"class.v8::Local.317", align 8
  %agg.tmp49 = alloca %"class.v8::Local.315", align 8
  %str = alloca %"class.node::Utf8Value", align 8
  %agg.tmp75 = alloca %"class.v8::Local.317", align 8
  %agg.tmp76 = alloca %"class.v8::Local.315", align 8
  %id = alloca i32, align 4
  %ref.tmp86 = alloca %"class.v8::Local.322", align 8
  %str96 = alloca %"class.node::Utf8Value", align 8
  %agg.tmp97 = alloca %"class.v8::Local.317", align 8
  %agg.tmp98 = alloca %"class.v8::Local.315", align 8
  %ref.tmp105 = alloca ptr, align 8
  %ref.tmp107 = alloca i64, align 8
  %result_v = alloca %"class.v8::Local.317", align 8
  %ref.tmp110 = alloca %"class.v8::MaybeLocal.319", align 8
  %agg.tmp112 = alloca %"class.v8::Local", align 8
  %agg.tmp113 = alloca %"class.v8::Local.317", align 8
  %agg.tmp114 = alloca %"class.v8::Local.315", align 8
  %agg.tmp144 = alloca %"class.v8::Local.320", align 8
  store ptr %this, ptr %this.addr, align 8
  store ptr %message, ptr %message.addr, align 8
  %this1 = load ptr, ptr %this.addr, align 8
  %connection_ = getelementptr inbounds %"class.node::profiler::V8ProfilerConnection::V8ProfilerSessionDelegate", ptr %this1, i32 0, i32 1
  %0 = load ptr, ptr %connection_, align 8
  %call = call noundef ptr @_ZNK4node8profiler20V8ProfilerConnection3envEv(ptr noundef nonnull align 8 dereferenceable(88) %0)
  store ptr %call, ptr %env, align 8
  %1 = load ptr, ptr %env, align 8
  %call2 = call noundef ptr @_ZNK4node11Environment7isolateEv(ptr noundef nonnull align 8 dereferenceable(2872) %1)
  store ptr %call2, ptr %isolate, align 8
  %2 = load ptr, ptr %isolate, align 8
  call void @_ZN2v811HandleScopeC1EPNS_7IsolateE(ptr noundef nonnull align 8 dereferenceable(24) %handle_scope, ptr noundef %2)
  %3 = load ptr, ptr %env, align 8
  %call3 = call ptr @_ZNK4node11Environment7contextEv(ptr noundef nonnull align 8 dereferenceable(2872) %3)
  %coerce.dive = getelementptr inbounds %"class.v8::Local", ptr %context, i32 0, i32 0
  %coerce.dive4 = getelementptr inbounds %"class.v8::LocalBase", ptr %coerce.dive, i32 0, i32 0
  %coerce.dive5 = getelementptr inbounds %"class.v8::IndirectHandleBase", ptr %coerce.dive4, i32 0, i32 0
  store ptr %call3, ptr %coerce.dive5, align 8
  call void @llvm.memcpy.p0.p0.i64(ptr align 8 %agg.tmp, ptr align 8 %context, i64 8, i1 false)
  %coerce.dive6 = getelementptr inbounds %"class.v8::Local", ptr %agg.tmp, i32 0, i32 0
  %coerce.dive7 = getelementptr inbounds %"class.v8::LocalBase", ptr %coerce.dive6, i32 0, i32 0
  %coerce.dive8 = getelementptr inbounds %"class.v8::IndirectHandleBase", ptr %coerce.dive7, i32 0, i32 0
  %4 = load ptr, ptr %coerce.dive8, align 8
  store ptr %4, ptr %context.i, align 8
  store ptr %context_scope, ptr %this.addr.i, align 8
  %this3.i = load ptr, ptr %this.addr.i, align 8
  call void @llvm.memcpy.p0.p0.i64(ptr align 8 %this3.i, ptr align 8 %context.i, i64 8, i1 false)
  store ptr %this3.i, ptr %this.addr.i240, align 8
  %this1.i241 = load ptr, ptr %this.addr.i240, align 8
  store ptr %this1.i241, ptr %this.addr.i243, align 8
  %this1.i244 = load ptr, ptr %this.addr.i243, align 8
  store ptr %this1.i244, ptr %this.addr.i252, align 8
  %this1.i253 = load ptr, ptr %this.addr.i252, align 8
  %5 = load ptr, ptr %this1.i253, align 8
  store ptr %5, ptr %slot.addr.i249, align 8
  %6 = load ptr, ptr %slot.addr.i249, align 8
  call void @_ZN2v87Context5EnterEv(ptr noundef nonnull align 1 dereferenceable(1) %6) #3
  %connection_9 = getelementptr inbounds %"class.node::profiler::V8ProfilerConnection::V8ProfilerSessionDelegate", ptr %this1, i32 0, i32 1
  %7 = load ptr, ptr %connection_9, align 8
  %vtable = load ptr, ptr %7, align 8
  %vfn = getelementptr inbounds ptr, ptr %vtable, i64 4
  %8 = load ptr, ptr %vfn, align 8
  %call10 = call noundef ptr %8(ptr noundef nonnull align 8 dereferenceable(88) %7)
  store ptr %call10, ptr %type, align 8
  store ptr %message_str, ptr %this.addr.i156, align 8
  %this1.i = load ptr, ptr %this.addr.i156, align 8
  store ptr %this1.i, ptr %this.addr.i254, align 8
  %this1.i255 = load ptr, ptr %this.addr.i254, align 8
  store ptr %this1.i255, ptr %this.addr.i256, align 8
  %this1.i257 = load ptr, ptr %this.addr.i256, align 8
  store ptr null, ptr %this1.i257, align 8
  %9 = load ptr, ptr %isolate, align 8
  %10 = load ptr, ptr %message.addr, align 8
  %call11 = call noundef ptr @_ZNK12v8_inspector10StringView12characters16Ev(ptr noundef nonnull align 8 dereferenceable(24) %10)
  %11 = load ptr, ptr %message.addr, align 8
  %call12 = call noundef i64 @_ZNK12v8_inspector10StringView6lengthEv(ptr noundef nonnull align 8 dereferenceable(24) %11)
  %conv = trunc i64 %call12 to i32
  %call13 = call ptr @_ZN2v86String14NewFromTwoByteEPNS_7IsolateEPKtNS_13NewStringTypeEi(ptr noundef %9, ptr noundef %call11, i32 noundef 0, i32 noundef %conv)
  %coerce.dive14 = getelementptr inbounds %"class.v8::MaybeLocal", ptr %ref.tmp, i32 0, i32 0
  %coerce.dive15 = getelementptr inbounds %"class.v8::Local.315", ptr %coerce.dive14, i32 0, i32 0
  %coerce.dive16 = getelementptr inbounds %"class.v8::LocalBase.316", ptr %coerce.dive15, i32 0, i32 0
  %coerce.dive17 = getelementptr inbounds %"class.v8::IndirectHandleBase", ptr %coerce.dive16, i32 0, i32 0
  store ptr %call13, ptr %coerce.dive17, align 8
  store ptr %ref.tmp, ptr %this.addr.i157, align 8
  store ptr %message_str, ptr %out.addr.i, align 8
  %this1.i158 = load ptr, ptr %this.addr.i157, align 8
  %12 = load ptr, ptr %out.addr.i, align 8
  call void @llvm.memcpy.p0.p0.i64(ptr align 8 %12, ptr align 8 %this1.i158, i64 8, i1 false)
  store ptr %this1.i158, ptr %this.addr.i291, align 8
  %this1.i292 = load ptr, ptr %this.addr.i291, align 8
  store ptr %this1.i292, ptr %this.addr.i.i290, align 8
  %this1.i.i293 = load ptr, ptr %this.addr.i.i290, align 8
  %13 = load ptr, ptr %this1.i.i293, align 8
  %cmp.i.i = icmp eq ptr %13, null
  %lnot.i = xor i1 %cmp.i.i, true
  %lnot = xor i1 %lnot.i, true
  br i1 %lnot, label %if.then, label %if.end

if.then:                                          ; preds = %entry
  %14 = load ptr, ptr @stderr, align 8
  %15 = load ptr, ptr %type, align 8
  %call19 = call i32 (ptr, ptr, ...) @fprintf(ptr noundef %14, ptr noundef @.str.5, ptr noundef %15)
  store i32 1, ptr %cleanup.dest.slot, align 4
  br label %cleanup

if.end:                                           ; preds = %entry
  %16 = load ptr, ptr %env, align 8
  store ptr %16, ptr %env.addr.i, align 8
  store i32 67, ptr %cat.addr.i, align 4
  store ptr @.str.6, ptr %format.addr.i, align 8
  store ptr %type, ptr %args.addr.i, align 8
  %17 = load ptr, ptr %env.addr.i, align 8
  %call.i160 = call noundef ptr @_ZN4node11Environment18enabled_debug_listEv(ptr noundef nonnull align 8 dereferenceable(2872) %17)
  %18 = load i32, ptr %cat.addr.i, align 4
  %19 = load ptr, ptr %format.addr.i, align 8
  %20 = load ptr, ptr %args.addr.i, align 8
  store ptr %call.i160, ptr %list.addr.i, align 8
  store i32 %18, ptr %cat.addr.i329, align 4
  store ptr %19, ptr %format.addr.i330, align 8
  store ptr %20, ptr %args.addr.i331, align 8
  %21 = load ptr, ptr %list.addr.i, align 8
  %22 = load i32, ptr %cat.addr.i329, align 4
  store ptr %21, ptr %this.addr.i.i328, align 8
  store i32 %22, ptr %category.addr.i.i, align 4
  %this1.i.i332 = load ptr, ptr %this.addr.i.i328, align 8
  %23 = load i32, ptr %category.addr.i.i, align 4
  %idxprom.i.i = zext i32 %23 to i64
  %arrayidx.i.i = getelementptr inbounds [75 x i8], ptr %this1.i.i332, i64 0, i64 %idxprom.i.i
  %24 = load i8, ptr %arrayidx.i.i, align 1
  %tobool.i.i = trunc i8 %24 to i1
  br i1 %tobool.i.i, label %if.end.i, label %if.then.i

if.then.i:                                        ; preds = %if.end
  br label %_ZN4node5DebugIJRPKcEEEvPNS_16EnabledDebugListENS_13DebugCategoryES2_DpOT_.exit

if.end.i:                                         ; preds = %if.end
  %25 = load ptr, ptr @stderr, align 8
  %26 = load ptr, ptr %format.addr.i330, align 8
  %27 = load ptr, ptr %args.addr.i331, align 8
  call void @_ZN4node7FPrintFIJRPKcEEEvP8_IO_FILES2_DpOT_(ptr noundef %25, ptr noundef %26, ptr noundef nonnull align 8 dereferenceable(8) %27) #15
  br label %_ZN4node5DebugIJRPKcEEEvPNS_16EnabledDebugListENS_13DebugCategoryES2_DpOT_.exit

_ZN4node5DebugIJRPKcEEEvPNS_16EnabledDebugListENS_13DebugCategoryES2_DpOT_.exit: ; preds = %if.end.i, %if.then.i
  store ptr %parsed, ptr %this.addr.i161, align 8
  %this1.i162 = load ptr, ptr %this.addr.i161, align 8
  store ptr %this1.i162, ptr %this.addr.i265, align 8
  %this1.i266 = load ptr, ptr %this.addr.i265, align 8
  store ptr %this1.i266, ptr %this.addr.i.i264, align 8
  %this1.i.i267 = load ptr, ptr %this.addr.i.i264, align 8
  store ptr null, ptr %this1.i.i267, align 8
  call void @llvm.memcpy.p0.p0.i64(ptr align 8 %agg.tmp21, ptr align 8 %context, i64 8, i1 false)
  call void @llvm.memcpy.p0.p0.i64(ptr align 8 %agg.tmp22, ptr align 8 %message_str, i64 8, i1 false)
  %coerce.dive23 = getelementptr inbounds %"class.v8::Local", ptr %agg.tmp21, i32 0, i32 0
  %coerce.dive24 = getelementptr inbounds %"class.v8::LocalBase", ptr %coerce.dive23, i32 0, i32 0
  %coerce.dive25 = getelementptr inbounds %"class.v8::IndirectHandleBase", ptr %coerce.dive24, i32 0, i32 0
  %28 = load ptr, ptr %coerce.dive25, align 8
  %coerce.dive26 = getelementptr inbounds %"class.v8::Local.315", ptr %agg.tmp22, i32 0, i32 0
  %coerce.dive27 = getelementptr inbounds %"class.v8::LocalBase.316", ptr %coerce.dive26, i32 0, i32 0
  %coerce.dive28 = getelementptr inbounds %"class.v8::IndirectHandleBase", ptr %coerce.dive27, i32 0, i32 0
  %29 = load ptr, ptr %coerce.dive28, align 8
  %call29 = call ptr @_ZN2v84JSON5ParseENS_5LocalINS_7ContextEEENS1_INS_6StringEEE(ptr %28, ptr %29)
  %coerce.dive30 = getelementptr inbounds %"class.v8::MaybeLocal.319", ptr %ref.tmp20, i32 0, i32 0
  %coerce.dive31 = getelementptr inbounds %"class.v8::Local.317", ptr %coerce.dive30, i32 0, i32 0
  %coerce.dive32 = getelementptr inbounds %"class.v8::LocalBase.318", ptr %coerce.dive31, i32 0, i32 0
  %coerce.dive33 = getelementptr inbounds %"class.v8::IndirectHandleBase", ptr %coerce.dive32, i32 0, i32 0
  store ptr %call29, ptr %coerce.dive33, align 8
  store ptr %ref.tmp20, ptr %this.addr.i177, align 8
  store ptr %parsed, ptr %out.addr.i178, align 8
  %this1.i179 = load ptr, ptr %this.addr.i177, align 8
  %30 = load ptr, ptr %out.addr.i178, align 8
  call void @llvm.memcpy.p0.p0.i64(ptr align 8 %30, ptr align 8 %this1.i179, i64 8, i1 false)
  store ptr %this1.i179, ptr %this.addr.i335, align 8
  %this1.i336 = load ptr, ptr %this.addr.i335, align 8
  store ptr %this1.i336, ptr %this.addr.i.i334, align 8
  %this1.i.i337 = load ptr, ptr %this.addr.i.i334, align 8
  %31 = load ptr, ptr %this1.i.i337, align 8
  %cmp.i.i338 = icmp eq ptr %31, null
  %lnot.i181 = xor i1 %cmp.i.i338, true
  br i1 %lnot.i181, label %lor.rhs, label %lor.end

lor.rhs:                                          ; preds = %_ZN4node5DebugIJRPKcEEEvPNS_16EnabledDebugListENS_13DebugCategoryES2_DpOT_.exit
  store ptr %parsed, ptr %this.addr.i188, align 8
  %this1.i189 = load ptr, ptr %this.addr.i188, align 8
  store ptr %this1.i189, ptr %this.addr.i295, align 8
  %this1.i296 = load ptr, ptr %this.addr.i295, align 8
  store ptr %this1.i296, ptr %this.addr.i.i294, align 8
  %this1.i.i297 = load ptr, ptr %this.addr.i.i294, align 8
  %32 = load ptr, ptr %this1.i.i297, align 8
  store ptr %32, ptr %slot.addr.i310, align 8
  %33 = load ptr, ptr %slot.addr.i310, align 8
  %call36 = call noundef zeroext i1 @_ZNK2v85Value8IsObjectEv(ptr noundef nonnull align 1 dereferenceable(1) %33)
  %lnot37 = xor i1 %call36, true
  br label %lor.end

lor.end:                                          ; preds = %lor.rhs, %_ZN4node5DebugIJRPKcEEEvPNS_16EnabledDebugListENS_13DebugCategoryES2_DpOT_.exit
  %34 = phi i1 [ true, %_ZN4node5DebugIJRPKcEEEvPNS_16EnabledDebugListENS_13DebugCategoryES2_DpOT_.exit ], [ %lnot37, %lor.rhs ]
  br i1 %34, label %if.then38, label %if.end40

if.then38:                                        ; preds = %lor.end
  %35 = load ptr, ptr @stderr, align 8
  %36 = load ptr, ptr %type, align 8
  %call39 = call i32 (ptr, ptr, ...) @fprintf(ptr noundef %35, ptr noundef @.str.7, ptr noundef %36)
  store i32 1, ptr %cleanup.dest.slot, align 4
  br label %cleanup

if.end40:                                         ; preds = %lor.end
  store ptr %parsed, ptr %this.addr.i195, align 8
  %this1.i197 = load ptr, ptr %this.addr.i195, align 8
  call void @llvm.memcpy.p0.p0.i64(ptr align 8 %agg.tmp.i196, ptr align 8 %this1.i197, i64 8, i1 false)
  %37 = load ptr, ptr %agg.tmp.i196, align 8
  store ptr %37, ptr %that.i312, align 8
  store ptr %ref.tmp.i, ptr %this.addr.i319, align 8
  store ptr %that.i312, ptr %other.addr.i320, align 8
  %this1.i321 = load ptr, ptr %this.addr.i319, align 8
  %38 = load ptr, ptr %other.addr.i320, align 8
  call void @llvm.memcpy.p0.p0.i64(ptr align 8 %this1.i321, ptr align 8 %38, i64 8, i1 false)
  store ptr %retval.i311, ptr %this.addr.i325, align 8
  store ptr %ref.tmp.i, ptr %other.addr.i326, align 8
  %this1.i327 = load ptr, ptr %this.addr.i325, align 8
  %39 = load ptr, ptr %other.addr.i326, align 8
  call void @llvm.memcpy.p0.p0.i64(ptr align 8 %this1.i327, ptr align 8 %39, i64 8, i1 false)
  %40 = load ptr, ptr %retval.i311, align 8
  store ptr %40, ptr %retval.i194, align 8
  %41 = load ptr, ptr %retval.i194, align 8
  %coerce.dive42 = getelementptr inbounds %"class.v8::Local.320", ptr %response, i32 0, i32 0
  %coerce.dive43 = getelementptr inbounds %"class.v8::LocalBase.321", ptr %coerce.dive42, i32 0, i32 0
  %coerce.dive44 = getelementptr inbounds %"class.v8::IndirectHandleBase", ptr %coerce.dive43, i32 0, i32 0
  store ptr %41, ptr %coerce.dive44, align 8
  store ptr %id_v, ptr %this.addr.i163, align 8
  %this1.i164 = load ptr, ptr %this.addr.i163, align 8
  store ptr %this1.i164, ptr %this.addr.i261, align 8
  %this1.i262 = load ptr, ptr %this.addr.i261, align 8
  store ptr %this1.i262, ptr %this.addr.i.i260, align 8
  %this1.i.i263 = load ptr, ptr %this.addr.i.i260, align 8
  store ptr null, ptr %this1.i.i263, align 8
  store ptr %response, ptr %this.addr.i202, align 8
  %this1.i203 = load ptr, ptr %this.addr.i202, align 8
  store ptr %this1.i203, ptr %this.addr.i269, align 8
  %this1.i270 = load ptr, ptr %this.addr.i269, align 8
  store ptr %this1.i270, ptr %this.addr.i.i268, align 8
  %this1.i.i271 = load ptr, ptr %this.addr.i.i268, align 8
  %42 = load ptr, ptr %this1.i.i271, align 8
  store ptr %42, ptr %slot.addr.i278, align 8
  %43 = load ptr, ptr %slot.addr.i278, align 8
  call void @llvm.memcpy.p0.p0.i64(ptr align 8 %agg.tmp47, ptr align 8 %context, i64 8, i1 false)
  %44 = load ptr, ptr %isolate, align 8
  %call50 = call ptr @_ZN4node21FIXED_ONE_BYTE_STRINGILi3EEEN2v85LocalINS1_6StringEEEPNS1_7IsolateERAT__Kc(ptr noundef %44, ptr noundef nonnull align 1 dereferenceable(3) @.str.8)
  %coerce.dive51 = getelementptr inbounds %"class.v8::Local.315", ptr %agg.tmp49, i32 0, i32 0
  %coerce.dive52 = getelementptr inbounds %"class.v8::LocalBase.316", ptr %coerce.dive51, i32 0, i32 0
  %coerce.dive53 = getelementptr inbounds %"class.v8::IndirectHandleBase", ptr %coerce.dive52, i32 0, i32 0
  store ptr %call50, ptr %coerce.dive53, align 8
  %coerce.dive54 = getelementptr inbounds %"class.v8::Local.315", ptr %agg.tmp49, i32 0, i32 0
  %coerce.dive55 = getelementptr inbounds %"class.v8::LocalBase.316", ptr %coerce.dive54, i32 0, i32 0
  %coerce.dive56 = getelementptr inbounds %"class.v8::IndirectHandleBase", ptr %coerce.dive55, i32 0, i32 0
  %45 = load ptr, ptr %coerce.dive56, align 8
  store ptr %45, ptr %that.i, align 8
  store ptr %agg.tmp48, ptr %this.addr.i205, align 8
  %this3.i206 = load ptr, ptr %this.addr.i205, align 8
  store ptr %this3.i206, ptr %this.addr.i287, align 8
  store ptr %that.i, ptr %other.addr.i288, align 8
  %this1.i289 = load ptr, ptr %this.addr.i287, align 8
  %46 = load ptr, ptr %other.addr.i288, align 8
  call void @llvm.memcpy.p0.p0.i64(ptr align 8 %this1.i289, ptr align 8 %46, i64 8, i1 false)
  %coerce.dive57 = getelementptr inbounds %"class.v8::Local", ptr %agg.tmp47, i32 0, i32 0
  %coerce.dive58 = getelementptr inbounds %"class.v8::LocalBase", ptr %coerce.dive57, i32 0, i32 0
  %coerce.dive59 = getelementptr inbounds %"class.v8::IndirectHandleBase", ptr %coerce.dive58, i32 0, i32 0
  %47 = load ptr, ptr %coerce.dive59, align 8
  %coerce.dive60 = getelementptr inbounds %"class.v8::Local.317", ptr %agg.tmp48, i32 0, i32 0
  %coerce.dive61 = getelementptr inbounds %"class.v8::LocalBase.318", ptr %coerce.dive60, i32 0, i32 0
  %coerce.dive62 = getelementptr inbounds %"class.v8::IndirectHandleBase", ptr %coerce.dive61, i32 0, i32 0
  %48 = load ptr, ptr %coerce.dive62, align 8
  %call63 = call ptr @_ZN2v86Object3GetENS_5LocalINS_7ContextEEENS1_INS_5ValueEEE(ptr noundef nonnull align 1 dereferenceable(1) %43, ptr %47, ptr %48)
  %coerce.dive64 = getelementptr inbounds %"class.v8::MaybeLocal.319", ptr %ref.tmp45, i32 0, i32 0
  %coerce.dive65 = getelementptr inbounds %"class.v8::Local.317", ptr %coerce.dive64, i32 0, i32 0
  %coerce.dive66 = getelementptr inbounds %"class.v8::LocalBase.318", ptr %coerce.dive65, i32 0, i32 0
  %coerce.dive67 = getelementptr inbounds %"class.v8::IndirectHandleBase", ptr %coerce.dive66, i32 0, i32 0
  store ptr %call63, ptr %coerce.dive67, align 8
  store ptr %ref.tmp45, ptr %this.addr.i172, align 8
  store ptr %id_v, ptr %out.addr.i173, align 8
  %this1.i174 = load ptr, ptr %this.addr.i172, align 8
  %49 = load ptr, ptr %out.addr.i173, align 8
  call void @llvm.memcpy.p0.p0.i64(ptr align 8 %49, ptr align 8 %this1.i174, i64 8, i1 false)
  store ptr %this1.i174, ptr %this.addr.i340, align 8
  %this1.i341 = load ptr, ptr %this.addr.i340, align 8
  store ptr %this1.i341, ptr %this.addr.i.i339, align 8
  %this1.i.i342 = load ptr, ptr %this.addr.i.i339, align 8
  %50 = load ptr, ptr %this1.i.i342, align 8
  %cmp.i.i343 = icmp eq ptr %50, null
  %lnot.i176 = xor i1 %cmp.i.i343, true
  br i1 %lnot.i176, label %lor.rhs69, label %lor.end73

lor.rhs69:                                        ; preds = %if.end40
  store ptr %id_v, ptr %this.addr.i185, align 8
  %this1.i186 = load ptr, ptr %this.addr.i185, align 8
  store ptr %this1.i186, ptr %this.addr.i299, align 8
  %this1.i300 = load ptr, ptr %this.addr.i299, align 8
  store ptr %this1.i300, ptr %this.addr.i.i298, align 8
  %this1.i.i301 = load ptr, ptr %this.addr.i.i298, align 8
  %51 = load ptr, ptr %this1.i.i301, align 8
  store ptr %51, ptr %slot.addr.i309, align 8
  %52 = load ptr, ptr %slot.addr.i309, align 8
  %call71 = call noundef zeroext i1 @_ZNK2v85Value8IsUint32Ev(ptr noundef nonnull align 1 dereferenceable(1) %52)
  %lnot72 = xor i1 %call71, true
  br label %lor.end73

lor.end73:                                        ; preds = %lor.rhs69, %if.end40
  %53 = phi i1 [ true, %if.end40 ], [ %lnot72, %lor.rhs69 ]
  br i1 %53, label %if.then74, label %if.end85

if.then74:                                        ; preds = %lor.end73
  %54 = load ptr, ptr %isolate, align 8
  call void @llvm.memcpy.p0.p0.i64(ptr align 8 %agg.tmp76, ptr align 8 %message_str, i64 8, i1 false)
  %coerce.dive77 = getelementptr inbounds %"class.v8::Local.315", ptr %agg.tmp76, i32 0, i32 0
  %coerce.dive78 = getelementptr inbounds %"class.v8::LocalBase.316", ptr %coerce.dive77, i32 0, i32 0
  %coerce.dive79 = getelementptr inbounds %"class.v8::IndirectHandleBase", ptr %coerce.dive78, i32 0, i32 0
  %55 = load ptr, ptr %coerce.dive79, align 8
  store ptr %55, ptr %that.i207, align 8
  store ptr %agg.tmp75, ptr %this.addr.i208, align 8
  %this3.i209 = load ptr, ptr %this.addr.i208, align 8
  store ptr %this3.i209, ptr %this.addr.i284, align 8
  store ptr %that.i207, ptr %other.addr.i285, align 8
  %this1.i286 = load ptr, ptr %this.addr.i284, align 8
  %56 = load ptr, ptr %other.addr.i285, align 8
  call void @llvm.memcpy.p0.p0.i64(ptr align 8 %this1.i286, ptr align 8 %56, i64 8, i1 false)
  %coerce.dive80 = getelementptr inbounds %"class.v8::Local.317", ptr %agg.tmp75, i32 0, i32 0
  %coerce.dive81 = getelementptr inbounds %"class.v8::LocalBase.318", ptr %coerce.dive80, i32 0, i32 0
  %coerce.dive82 = getelementptr inbounds %"class.v8::IndirectHandleBase", ptr %coerce.dive81, i32 0, i32 0
  %57 = load ptr, ptr %coerce.dive82, align 8
  call void @_ZN4node9Utf8ValueC1EPN2v87IsolateENS1_5LocalINS1_5ValueEEE(ptr noundef nonnull align 8 dereferenceable(1048) %str, ptr noundef %54, ptr %57)
  %58 = load ptr, ptr @stderr, align 8
  %call83 = call noundef ptr @_ZN4node16MaybeStackBufferIcLm1024EEdeEv(ptr noundef nonnull align 8 dereferenceable(1048) %str)
  %call84 = call i32 (ptr, ptr, ...) @fprintf(ptr noundef %58, ptr noundef @.str.9, ptr noundef %call83)
  store i32 1, ptr %cleanup.dest.slot, align 4
  call void @_ZN4node9Utf8ValueD2Ev(ptr noundef nonnull align 8 dereferenceable(1048) %str) #3
  br label %cleanup

if.end85:                                         ; preds = %lor.end73
  store ptr %id_v, ptr %this.addr.i217, align 8
  %this1.i219 = load ptr, ptr %this.addr.i217, align 8
  call void @llvm.memcpy.p0.p0.i64(ptr align 8 %agg.tmp.i218, ptr align 8 %this1.i219, i64 8, i1 false)
  %59 = load ptr, ptr %agg.tmp.i218, align 8
  store ptr %59, ptr %that.i350, align 8
  store ptr %ref.tmp.i351, ptr %this.addr.i352, align 8
  store ptr %that.i350, ptr %other.addr.i353, align 8
  %this1.i354 = load ptr, ptr %this.addr.i352, align 8
  %60 = load ptr, ptr %other.addr.i353, align 8
  call void @llvm.memcpy.p0.p0.i64(ptr align 8 %this1.i354, ptr align 8 %60, i64 8, i1 false)
  store ptr %retval.i349, ptr %this.addr.i355, align 8
  store ptr %ref.tmp.i351, ptr %other.addr.i356, align 8
  %this1.i357 = load ptr, ptr %this.addr.i355, align 8
  %61 = load ptr, ptr %other.addr.i356, align 8
  call void @llvm.memcpy.p0.p0.i64(ptr align 8 %this1.i357, ptr align 8 %61, i64 8, i1 false)
  %62 = load ptr, ptr %retval.i349, align 8
  store ptr %62, ptr %retval.i216, align 8
  %63 = load ptr, ptr %retval.i216, align 8
  %coerce.dive88 = getelementptr inbounds %"class.v8::Local.322", ptr %ref.tmp86, i32 0, i32 0
  %coerce.dive89 = getelementptr inbounds %"class.v8::LocalBase.323", ptr %coerce.dive88, i32 0, i32 0
  %coerce.dive90 = getelementptr inbounds %"class.v8::IndirectHandleBase", ptr %coerce.dive89, i32 0, i32 0
  store ptr %63, ptr %coerce.dive90, align 8
  store ptr %ref.tmp86, ptr %this.addr.i221, align 8
  %this1.i222 = load ptr, ptr %this.addr.i221, align 8
  store ptr %this1.i222, ptr %this.addr.i359, align 8
  %this1.i360 = load ptr, ptr %this.addr.i359, align 8
  store ptr %this1.i360, ptr %this.addr.i.i358, align 8
  %this1.i.i361 = load ptr, ptr %this.addr.i.i358, align 8
  %64 = load ptr, ptr %this1.i.i361, align 8
  store ptr %64, ptr %slot.addr.i362, align 8
  %65 = load ptr, ptr %slot.addr.i362, align 8
  %call92 = call noundef i32 @_ZNK2v86Uint325ValueEv(ptr noundef nonnull align 1 dereferenceable(1) %65)
  store i32 %call92, ptr %id, align 4
  %connection_93 = getelementptr inbounds %"class.node::profiler::V8ProfilerConnection::V8ProfilerSessionDelegate", ptr %this1, i32 0, i32 1
  %66 = load ptr, ptr %connection_93, align 8
  %67 = load i32, ptr %id, align 4
  %call94 = call noundef zeroext i1 @_ZNK4node8profiler20V8ProfilerConnection12HasProfileIdEj(ptr noundef nonnull align 8 dereferenceable(88) %66, i32 noundef %67)
  br i1 %call94, label %if.else, label %if.then95

if.then95:                                        ; preds = %if.end85
  %68 = load ptr, ptr %isolate, align 8
  call void @llvm.memcpy.p0.p0.i64(ptr align 8 %agg.tmp98, ptr align 8 %message_str, i64 8, i1 false)
  %coerce.dive99 = getelementptr inbounds %"class.v8::Local.315", ptr %agg.tmp98, i32 0, i32 0
  %coerce.dive100 = getelementptr inbounds %"class.v8::LocalBase.316", ptr %coerce.dive99, i32 0, i32 0
  %coerce.dive101 = getelementptr inbounds %"class.v8::IndirectHandleBase", ptr %coerce.dive100, i32 0, i32 0
  %69 = load ptr, ptr %coerce.dive101, align 8
  store ptr %69, ptr %that.i210, align 8
  store ptr %agg.tmp97, ptr %this.addr.i211, align 8
  %this3.i212 = load ptr, ptr %this.addr.i211, align 8
  store ptr %this3.i212, ptr %this.addr.i281, align 8
  store ptr %that.i210, ptr %other.addr.i282, align 8
  %this1.i283 = load ptr, ptr %this.addr.i281, align 8
  %70 = load ptr, ptr %other.addr.i282, align 8
  call void @llvm.memcpy.p0.p0.i64(ptr align 8 %this1.i283, ptr align 8 %70, i64 8, i1 false)
  %coerce.dive102 = getelementptr inbounds %"class.v8::Local.317", ptr %agg.tmp97, i32 0, i32 0
  %coerce.dive103 = getelementptr inbounds %"class.v8::LocalBase.318", ptr %coerce.dive102, i32 0, i32 0
  %coerce.dive104 = getelementptr inbounds %"class.v8::IndirectHandleBase", ptr %coerce.dive103, i32 0, i32 0
  %71 = load ptr, ptr %coerce.dive104, align 8
  call void @_ZN4node9Utf8ValueC1EPN2v87IsolateENS1_5LocalINS1_5ValueEEE(ptr noundef nonnull align 8 dereferenceable(1048) %str96, ptr noundef %68, ptr %71)
  %72 = load ptr, ptr %env, align 8
  %call106 = call noundef ptr @_ZN4node16MaybeStackBufferIcLm1024EEdeEv(ptr noundef nonnull align 8 dereferenceable(1048) %str96)
  store ptr %call106, ptr %ref.tmp105, align 8
  store ptr %72, ptr %env.addr.i224, align 8
  store i32 67, ptr %cat.addr.i225, align 4
  store ptr @.str.10, ptr %format.addr.i226, align 8
  store ptr %ref.tmp105, ptr %args.addr.i227, align 8
  %73 = load ptr, ptr %env.addr.i224, align 8
  %call.i228 = call noundef ptr @_ZN4node11Environment18enabled_debug_listEv(ptr noundef nonnull align 8 dereferenceable(2872) %73)
  %74 = load i32, ptr %cat.addr.i225, align 4
  %75 = load ptr, ptr %format.addr.i226, align 8
  %76 = load ptr, ptr %args.addr.i227, align 8
  store ptr %call.i228, ptr %list.addr.i365, align 8
  store i32 %74, ptr %cat.addr.i366, align 4
  store ptr %75, ptr %format.addr.i367, align 8
  store ptr %76, ptr %args.addr.i368, align 8
  %77 = load ptr, ptr %list.addr.i365, align 8
  %78 = load i32, ptr %cat.addr.i366, align 4
  store ptr %77, ptr %this.addr.i.i363, align 8
  store i32 %78, ptr %category.addr.i.i364, align 4
  %this1.i.i369 = load ptr, ptr %this.addr.i.i363, align 8
  %79 = load i32, ptr %category.addr.i.i364, align 4
  %idxprom.i.i370 = zext i32 %79 to i64
  %arrayidx.i.i371 = getelementptr inbounds [75 x i8], ptr %this1.i.i369, i64 0, i64 %idxprom.i.i370
  %80 = load i8, ptr %arrayidx.i.i371, align 1
  %tobool.i.i372 = trunc i8 %80 to i1
  br i1 %tobool.i.i372, label %if.end.i375, label %if.then.i374

if.then.i374:                                     ; preds = %if.then95
  br label %_ZN4node5DebugIJPcEEEvPNS_16EnabledDebugListENS_13DebugCategoryEPKcDpOT_.exit

if.end.i375:                                      ; preds = %if.then95
  %81 = load ptr, ptr @stderr, align 8
  %82 = load ptr, ptr %format.addr.i367, align 8
  %83 = load ptr, ptr %args.addr.i368, align 8
  call void @_ZN4node7FPrintFIJPcEEEvP8_IO_FILEPKcDpOT_(ptr noundef %81, ptr noundef %82, ptr noundef nonnull align 8 dereferenceable(8) %83) #15
  br label %_ZN4node5DebugIJPcEEEvPNS_16EnabledDebugListENS_13DebugCategoryEPKcDpOT_.exit

_ZN4node5DebugIJPcEEEvPNS_16EnabledDebugListENS_13DebugCategoryEPKcDpOT_.exit: ; preds = %if.end.i375, %if.then.i374
  store i32 1, ptr %cleanup.dest.slot, align 4
  call void @_ZN4node9Utf8ValueD2Ev(ptr noundef nonnull align 8 dereferenceable(1048) %str96) #3
  br label %cleanup

if.else:                                          ; preds = %if.end85
  %84 = load ptr, ptr %env, align 8
  %85 = load i32, ptr %id, align 4
  %conv108 = zext i32 %85 to i64
  store i64 %conv108, ptr %ref.tmp107, align 8
  store ptr %84, ptr %env.addr.i229, align 8
  store i32 67, ptr %cat.addr.i230, align 4
  store ptr @.str.11, ptr %format.addr.i231, align 8
  store ptr %ref.tmp107, ptr %args.addr.i232, align 8
  %86 = load ptr, ptr %env.addr.i229, align 8
  %call.i233 = call noundef ptr @_ZN4node11Environment18enabled_debug_listEv(ptr noundef nonnull align 8 dereferenceable(2872) %86)
  %87 = load i32, ptr %cat.addr.i230, align 4
  %88 = load ptr, ptr %format.addr.i231, align 8
  %89 = load ptr, ptr %args.addr.i232, align 8
  store ptr %call.i233, ptr %list.addr.i378, align 8
  store i32 %87, ptr %cat.addr.i379, align 4
  store ptr %88, ptr %format.addr.i380, align 8
  store ptr %89, ptr %args.addr.i381, align 8
  %90 = load ptr, ptr %list.addr.i378, align 8
  %91 = load i32, ptr %cat.addr.i379, align 4
  store ptr %90, ptr %this.addr.i.i376, align 8
  store i32 %91, ptr %category.addr.i.i377, align 4
  %this1.i.i382 = load ptr, ptr %this.addr.i.i376, align 8
  %92 = load i32, ptr %category.addr.i.i377, align 4
  %idxprom.i.i383 = zext i32 %92 to i64
  %arrayidx.i.i384 = getelementptr inbounds [75 x i8], ptr %this1.i.i382, i64 0, i64 %idxprom.i.i383
  %93 = load i8, ptr %arrayidx.i.i384, align 1
  %tobool.i.i385 = trunc i8 %93 to i1
  br i1 %tobool.i.i385, label %if.end.i388, label %if.then.i387

if.then.i387:                                     ; preds = %if.else
  br label %_ZN4node5DebugIJmEEEvPNS_16EnabledDebugListENS_13DebugCategoryEPKcDpOT_.exit

if.end.i388:                                      ; preds = %if.else
  %94 = load ptr, ptr @stderr, align 8
  %95 = load ptr, ptr %format.addr.i380, align 8
  %96 = load ptr, ptr %args.addr.i381, align 8
  call void @_ZN4node7FPrintFIJmEEEvP8_IO_FILEPKcDpOT_(ptr noundef %94, ptr noundef %95, ptr noundef nonnull align 8 dereferenceable(8) %96) #15
  br label %_ZN4node5DebugIJmEEEvPNS_16EnabledDebugListENS_13DebugCategoryEPKcDpOT_.exit

_ZN4node5DebugIJmEEEvPNS_16EnabledDebugListENS_13DebugCategoryEPKcDpOT_.exit: ; preds = %if.end.i388, %if.then.i387
  br label %if.end109

if.end109:                                        ; preds = %_ZN4node5DebugIJmEEEvPNS_16EnabledDebugListENS_13DebugCategoryEPKcDpOT_.exit
  store ptr %result_v, ptr %this.addr.i165, align 8
  %this1.i166 = load ptr, ptr %this.addr.i165, align 8
  store ptr %this1.i166, ptr %this.addr.i258, align 8
  %this1.i259 = load ptr, ptr %this.addr.i258, align 8
  store ptr %this1.i259, ptr %this.addr.i.i, align 8
  %this1.i.i = load ptr, ptr %this.addr.i.i, align 8
  store ptr null, ptr %this1.i.i, align 8
  store ptr %response, ptr %this.addr.i199, align 8
  %this1.i200 = load ptr, ptr %this.addr.i199, align 8
  store ptr %this1.i200, ptr %this.addr.i273, align 8
  %this1.i274 = load ptr, ptr %this.addr.i273, align 8
  store ptr %this1.i274, ptr %this.addr.i.i272, align 8
  %this1.i.i275 = load ptr, ptr %this.addr.i.i272, align 8
  %97 = load ptr, ptr %this1.i.i275, align 8
  store ptr %97, ptr %slot.addr.i277, align 8
  %98 = load ptr, ptr %slot.addr.i277, align 8
  call void @llvm.memcpy.p0.p0.i64(ptr align 8 %agg.tmp112, ptr align 8 %context, i64 8, i1 false)
  %99 = load ptr, ptr %isolate, align 8
  %call115 = call ptr @_ZN4node21FIXED_ONE_BYTE_STRINGILi7EEEN2v85LocalINS1_6StringEEEPNS1_7IsolateERAT__Kc(ptr noundef %99, ptr noundef nonnull align 1 dereferenceable(7) @.str.12)
  %coerce.dive116 = getelementptr inbounds %"class.v8::Local.315", ptr %agg.tmp114, i32 0, i32 0
  %coerce.dive117 = getelementptr inbounds %"class.v8::LocalBase.316", ptr %coerce.dive116, i32 0, i32 0
  %coerce.dive118 = getelementptr inbounds %"class.v8::IndirectHandleBase", ptr %coerce.dive117, i32 0, i32 0
  store ptr %call115, ptr %coerce.dive118, align 8
  %coerce.dive119 = getelementptr inbounds %"class.v8::Local.315", ptr %agg.tmp114, i32 0, i32 0
  %coerce.dive120 = getelementptr inbounds %"class.v8::LocalBase.316", ptr %coerce.dive119, i32 0, i32 0
  %coerce.dive121 = getelementptr inbounds %"class.v8::IndirectHandleBase", ptr %coerce.dive120, i32 0, i32 0
  %100 = load ptr, ptr %coerce.dive121, align 8
  store ptr %100, ptr %that.i213, align 8
  store ptr %agg.tmp113, ptr %this.addr.i214, align 8
  %this3.i215 = load ptr, ptr %this.addr.i214, align 8
  store ptr %this3.i215, ptr %this.addr.i279, align 8
  store ptr %that.i213, ptr %other.addr.i, align 8
  %this1.i280 = load ptr, ptr %this.addr.i279, align 8
  %101 = load ptr, ptr %other.addr.i, align 8
  call void @llvm.memcpy.p0.p0.i64(ptr align 8 %this1.i280, ptr align 8 %101, i64 8, i1 false)
  %coerce.dive122 = getelementptr inbounds %"class.v8::Local", ptr %agg.tmp112, i32 0, i32 0
  %coerce.dive123 = getelementptr inbounds %"class.v8::LocalBase", ptr %coerce.dive122, i32 0, i32 0
  %coerce.dive124 = getelementptr inbounds %"class.v8::IndirectHandleBase", ptr %coerce.dive123, i32 0, i32 0
  %102 = load ptr, ptr %coerce.dive124, align 8
  %coerce.dive125 = getelementptr inbounds %"class.v8::Local.317", ptr %agg.tmp113, i32 0, i32 0
  %coerce.dive126 = getelementptr inbounds %"class.v8::LocalBase.318", ptr %coerce.dive125, i32 0, i32 0
  %coerce.dive127 = getelementptr inbounds %"class.v8::IndirectHandleBase", ptr %coerce.dive126, i32 0, i32 0
  %103 = load ptr, ptr %coerce.dive127, align 8
  %call128 = call ptr @_ZN2v86Object3GetENS_5LocalINS_7ContextEEENS1_INS_5ValueEEE(ptr noundef nonnull align 1 dereferenceable(1) %98, ptr %102, ptr %103)
  %coerce.dive129 = getelementptr inbounds %"class.v8::MaybeLocal.319", ptr %ref.tmp110, i32 0, i32 0
  %coerce.dive130 = getelementptr inbounds %"class.v8::Local.317", ptr %coerce.dive129, i32 0, i32 0
  %coerce.dive131 = getelementptr inbounds %"class.v8::LocalBase.318", ptr %coerce.dive130, i32 0, i32 0
  %coerce.dive132 = getelementptr inbounds %"class.v8::IndirectHandleBase", ptr %coerce.dive131, i32 0, i32 0
  store ptr %call128, ptr %coerce.dive132, align 8
  store ptr %ref.tmp110, ptr %this.addr.i167, align 8
  store ptr %result_v, ptr %out.addr.i168, align 8
  %this1.i169 = load ptr, ptr %this.addr.i167, align 8
  %104 = load ptr, ptr %out.addr.i168, align 8
  call void @llvm.memcpy.p0.p0.i64(ptr align 8 %104, ptr align 8 %this1.i169, i64 8, i1 false)
  store ptr %this1.i169, ptr %this.addr.i345, align 8
  %this1.i346 = load ptr, ptr %this.addr.i345, align 8
  store ptr %this1.i346, ptr %this.addr.i.i344, align 8
  %this1.i.i347 = load ptr, ptr %this.addr.i.i344, align 8
  %105 = load ptr, ptr %this1.i.i347, align 8
  %cmp.i.i348 = icmp eq ptr %105, null
  %lnot.i171 = xor i1 %cmp.i.i348, true
  %lnot134 = xor i1 %lnot.i171, true
  br i1 %lnot134, label %if.then135, label %if.end137

if.then135:                                       ; preds = %if.end109
  %106 = load ptr, ptr @stderr, align 8
  %107 = load ptr, ptr %type, align 8
  %call136 = call i32 (ptr, ptr, ...) @fprintf(ptr noundef %106, ptr noundef @.str.13, ptr noundef %107)
  store i32 1, ptr %cleanup.dest.slot, align 4
  br label %cleanup

if.end137:                                        ; preds = %if.end109
  store ptr %result_v, ptr %this.addr.i182, align 8
  %this1.i183 = load ptr, ptr %this.addr.i182, align 8
  store ptr %this1.i183, ptr %this.addr.i304, align 8
  %this1.i305 = load ptr, ptr %this.addr.i304, align 8
  store ptr %this1.i305, ptr %this.addr.i.i303, align 8
  %this1.i.i306 = load ptr, ptr %this.addr.i.i303, align 8
  %108 = load ptr, ptr %this1.i.i306, align 8
  store ptr %108, ptr %slot.addr.i308, align 8
  %109 = load ptr, ptr %slot.addr.i308, align 8
  %call139 = call noundef zeroext i1 @_ZNK2v85Value8IsObjectEv(ptr noundef nonnull align 1 dereferenceable(1) %109)
  br i1 %call139, label %if.end142, label %if.then140

if.then140:                                       ; preds = %if.end137
  %110 = load ptr, ptr @stderr, align 8
  %111 = load ptr, ptr %type, align 8
  %call141 = call i32 (ptr, ptr, ...) @fprintf(ptr noundef %110, ptr noundef @.str.14, ptr noundef %111)
  store i32 1, ptr %cleanup.dest.slot, align 4
  br label %cleanup

if.end142:                                        ; preds = %if.end137
  %connection_143 = getelementptr inbounds %"class.node::profiler::V8ProfilerConnection::V8ProfilerSessionDelegate", ptr %this1, i32 0, i32 1
  %112 = load ptr, ptr %connection_143, align 8
  store ptr %result_v, ptr %this.addr.i191, align 8
  %this1.i192 = load ptr, ptr %this.addr.i191, align 8
  call void @llvm.memcpy.p0.p0.i64(ptr align 8 %agg.tmp.i, ptr align 8 %this1.i192, i64 8, i1 false)
  %113 = load ptr, ptr %agg.tmp.i, align 8
  store ptr %113, ptr %that.i314, align 8
  store ptr %ref.tmp.i315, ptr %this.addr.i316, align 8
  store ptr %that.i314, ptr %other.addr.i317, align 8
  %this1.i318 = load ptr, ptr %this.addr.i316, align 8
  %114 = load ptr, ptr %other.addr.i317, align 8
  call void @llvm.memcpy.p0.p0.i64(ptr align 8 %this1.i318, ptr align 8 %114, i64 8, i1 false)
  store ptr %retval.i313, ptr %this.addr.i322, align 8
  store ptr %ref.tmp.i315, ptr %other.addr.i323, align 8
  %this1.i324 = load ptr, ptr %this.addr.i322, align 8
  %115 = load ptr, ptr %other.addr.i323, align 8
  call void @llvm.memcpy.p0.p0.i64(ptr align 8 %this1.i324, ptr align 8 %115, i64 8, i1 false)
  %116 = load ptr, ptr %retval.i313, align 8
  store ptr %116, ptr %retval.i, align 8
  %117 = load ptr, ptr %retval.i, align 8
  %coerce.dive146 = getelementptr inbounds %"class.v8::Local.320", ptr %agg.tmp144, i32 0, i32 0
  %coerce.dive147 = getelementptr inbounds %"class.v8::LocalBase.321", ptr %coerce.dive146, i32 0, i32 0
  %coerce.dive148 = getelementptr inbounds %"class.v8::IndirectHandleBase", ptr %coerce.dive147, i32 0, i32 0
  store ptr %117, ptr %coerce.dive148, align 8
  %coerce.dive149 = getelementptr inbounds %"class.v8::Local.320", ptr %agg.tmp144, i32 0, i32 0
  %coerce.dive150 = getelementptr inbounds %"class.v8::LocalBase.321", ptr %coerce.dive149, i32 0, i32 0
  %coerce.dive151 = getelementptr inbounds %"class.v8::IndirectHandleBase", ptr %coerce.dive150, i32 0, i32 0
  %118 = load ptr, ptr %coerce.dive151, align 8
  %vtable152 = load ptr, ptr %112, align 8
  %vfn153 = getelementptr inbounds ptr, ptr %vtable152, i64 9
  %119 = load ptr, ptr %vfn153, align 8
  call void %119(ptr noundef nonnull align 8 dereferenceable(88) %112, ptr %118)
  %connection_154 = getelementptr inbounds %"class.node::profiler::V8ProfilerConnection::V8ProfilerSessionDelegate", ptr %this1, i32 0, i32 1
  %120 = load ptr, ptr %connection_154, align 8
  %121 = load i32, ptr %id, align 4
  call void @_ZN4node8profiler20V8ProfilerConnection15RemoveProfileIdEj(ptr noundef nonnull align 8 dereferenceable(88) %120, i32 noundef %121)
  store i32 0, ptr %cleanup.dest.slot, align 4
  br label %cleanup

cleanup:                                          ; preds = %if.end142, %if.then140, %if.then135, %_ZN4node5DebugIJPcEEEvPNS_16EnabledDebugListENS_13DebugCategoryEPKcDpOT_.exit, %if.then74, %if.then38, %if.then
  store ptr %context_scope, ptr %this.addr.i234, align 8
  %this1.i235 = load ptr, ptr %this.addr.i234, align 8
  store ptr %this1.i235, ptr %this.addr.i237, align 8
  %this1.i238 = load ptr, ptr %this.addr.i237, align 8
  store ptr %this1.i238, ptr %this.addr.i245, align 8
  %this1.i246 = load ptr, ptr %this.addr.i245, align 8
  store ptr %this1.i246, ptr %this.addr.i250, align 8
  %this1.i251 = load ptr, ptr %this.addr.i250, align 8
  %122 = load ptr, ptr %this1.i251, align 8
  store ptr %122, ptr %slot.addr.i, align 8
  %123 = load ptr, ptr %slot.addr.i, align 8
  call void @_ZN2v87Context4ExitEv(ptr noundef nonnull align 1 dereferenceable(1) %123) #3
  call void @_ZN2v811HandleScopeD1Ev(ptr noundef nonnull align 8 dereferenceable(24) %handle_scope) #3
  %cleanup.dest = load i32, ptr %cleanup.dest.slot, align 4
  switch i32 %cleanup.dest, label %unreachable [
    i32 0, label %cleanup.cont
    i32 1, label %cleanup.cont
  ]

cleanup.cont:                                     ; preds = %cleanup, %cleanup
  ret void

unreachable:                                      ; preds = %cleanup
  unreachable
}

; Function Attrs: mustprogress nounwind uwtable
define linkonce_odr dso_local noundef ptr @_ZNK4node11Environment7isolateEv(ptr noundef nonnull align 8 dereferenceable(2872) %this) #4 comdat align 2 {
entry:
  %this.addr = alloca ptr, align 8
  store ptr %this, ptr %this.addr, align 8
  %this1 = load ptr, ptr %this.addr, align 8
  %isolate_ = getelementptr inbounds %"class.node::Environment", ptr %this1, i32 0, i32 3
  %0 = load ptr, ptr %isolate_, align 8
  ret ptr %0
}

declare void @_ZN2v811HandleScopeC1EPNS_7IsolateE(ptr noundef nonnull align 8 dereferenceable(24), ptr noundef) unnamed_addr #1

; Function Attrs: mustprogress nounwind uwtable
define linkonce_odr dso_local ptr @_ZNK4node11Environment7contextEv(ptr noundef nonnull align 8 dereferenceable(2872) %this) #4 comdat align 2 {
entry:
  %retval = alloca %"class.v8::Local", align 8
  %this.addr = alloca ptr, align 8
  store ptr %this, ptr %this.addr, align 8
  %this1 = load ptr, ptr %this.addr, align 8
  %call = call noundef ptr @_ZNK4node11Environment15principal_realmEv(ptr noundef nonnull align 8 dereferenceable(2872) %this1)
  %vtable = load ptr, ptr %call, align 8
  %vfn = getelementptr inbounds ptr, ptr %vtable, i64 8
  %0 = load ptr, ptr %vfn, align 8
  %call2 = call ptr %0(ptr noundef nonnull align 8 dereferenceable(872) %call)
  %coerce.dive = getelementptr inbounds %"class.v8::Local", ptr %retval, i32 0, i32 0
  %coerce.dive3 = getelementptr inbounds %"class.v8::LocalBase", ptr %coerce.dive, i32 0, i32 0
  %coerce.dive4 = getelementptr inbounds %"class.v8::IndirectHandleBase", ptr %coerce.dive3, i32 0, i32 0
  store ptr %call2, ptr %coerce.dive4, align 8
  %coerce.dive5 = getelementptr inbounds %"class.v8::Local", ptr %retval, i32 0, i32 0
  %coerce.dive6 = getelementptr inbounds %"class.v8::LocalBase", ptr %coerce.dive5, i32 0, i32 0
  %coerce.dive7 = getelementptr inbounds %"class.v8::IndirectHandleBase", ptr %coerce.dive6, i32 0, i32 0
  %1 = load ptr, ptr %coerce.dive7, align 8
  ret ptr %1
}

; Function Attrs: nocallback nofree nounwind willreturn memory(argmem: readwrite)
declare void @llvm.memcpy.p0.p0.i64(ptr noalias nocapture writeonly, ptr noalias nocapture readonly, i64, i1 immarg) #5

declare ptr @_ZN2v86String14NewFromTwoByteEPNS_7IsolateEPKtNS_13NewStringTypeEi(ptr noundef, ptr noundef, i32 noundef, i32 noundef) #1

; Function Attrs: mustprogress nounwind uwtable
define linkonce_odr dso_local noundef ptr @_ZNK12v8_inspector10StringView12characters16Ev(ptr noundef nonnull align 8 dereferenceable(24) %this) #4 comdat align 2 {
entry:
  %this.addr = alloca ptr, align 8
  store ptr %this, ptr %this.addr, align 8
  %this1 = load ptr, ptr %this.addr, align 8
  %0 = getelementptr inbounds %"class.v8_inspector::StringView", ptr %this1, i32 0, i32 2
  %1 = load ptr, ptr %0, align 8
  ret ptr %1
}

; Function Attrs: mustprogress nounwind uwtable
define linkonce_odr dso_local noundef i64 @_ZNK12v8_inspector10StringView6lengthEv(ptr noundef nonnull align 8 dereferenceable(24) %this) #4 comdat align 2 {
entry:
  %this.addr = alloca ptr, align 8
  store ptr %this, ptr %this.addr, align 8
  %this1 = load ptr, ptr %this.addr, align 8
  %m_length = getelementptr inbounds %"class.v8_inspector::StringView", ptr %this1, i32 0, i32 1
  %0 = load i64, ptr %m_length, align 8
  ret i64 %0
}

declare i32 @fprintf(ptr noundef, ptr noundef, ...) #1

declare ptr @_ZN2v84JSON5ParseENS_5LocalINS_7ContextEEENS1_INS_6StringEEE(ptr, ptr) #1

declare noundef zeroext i1 @_ZNK2v85Value8IsObjectEv(ptr noundef nonnull align 1 dereferenceable(1)) #1

declare ptr @_ZN2v86Object3GetENS_5LocalINS_7ContextEEENS1_INS_5ValueEEE(ptr noundef nonnull align 1 dereferenceable(1), ptr, ptr) #1

; Function Attrs: mustprogress nounwind uwtable
define linkonce_odr dso_local ptr @_ZN4node21FIXED_ONE_BYTE_STRINGILi3EEEN2v85LocalINS1_6StringEEEPNS1_7IsolateERAT__Kc(ptr noundef %isolate, ptr noundef nonnull align 1 dereferenceable(3) %data) #4 comdat {
entry:
  %retval = alloca %"class.v8::Local.315", align 8
  %isolate.addr = alloca ptr, align 8
  %data.addr = alloca ptr, align 8
  store ptr %isolate, ptr %isolate.addr, align 8
  store ptr %data, ptr %data.addr, align 8
  %0 = load ptr, ptr %isolate.addr, align 8
  %1 = load ptr, ptr %data.addr, align 8
  %arraydecay = getelementptr inbounds [3 x i8], ptr %1, i64 0, i64 0
  %call = call ptr @_ZN4node13OneByteStringEPN2v87IsolateEPKci(ptr noundef %0, ptr noundef %arraydecay, i32 noundef 2)
  %coerce.dive = getelementptr inbounds %"class.v8::Local.315", ptr %retval, i32 0, i32 0
  %coerce.dive1 = getelementptr inbounds %"class.v8::LocalBase.316", ptr %coerce.dive, i32 0, i32 0
  %coerce.dive2 = getelementptr inbounds %"class.v8::IndirectHandleBase", ptr %coerce.dive1, i32 0, i32 0
  store ptr %call, ptr %coerce.dive2, align 8
  %coerce.dive3 = getelementptr inbounds %"class.v8::Local.315", ptr %retval, i32 0, i32 0
  %coerce.dive4 = getelementptr inbounds %"class.v8::LocalBase.316", ptr %coerce.dive3, i32 0, i32 0
  %coerce.dive5 = getelementptr inbounds %"class.v8::IndirectHandleBase", ptr %coerce.dive4, i32 0, i32 0
  %2 = load ptr, ptr %coerce.dive5, align 8
  ret ptr %2
}

declare noundef zeroext i1 @_ZNK2v85Value8IsUint32Ev(ptr noundef nonnull align 1 dereferenceable(1)) #1

declare void @_ZN4node9Utf8ValueC1EPN2v87IsolateENS1_5LocalINS1_5ValueEEE(ptr noundef nonnull align 8 dereferenceable(1048), ptr noundef, ptr) unnamed_addr #1

; Function Attrs: mustprogress nounwind uwtable
define linkonce_odr dso_local noundef ptr @_ZN4node16MaybeStackBufferIcLm1024EEdeEv(ptr noundef nonnull align 8 dereferenceable(1048) %this) #4 comdat align 2 {
entry:
  %this.addr = alloca ptr, align 8
  store ptr %this, ptr %this.addr, align 8
  %this1 = load ptr, ptr %this.addr, align 8
  %buf_ = getelementptr inbounds %"class.node::MaybeStackBuffer", ptr %this1, i32 0, i32 2
  %0 = load ptr, ptr %buf_, align 8
  ret ptr %0
}

; Function Attrs: mustprogress nounwind uwtable
define linkonce_odr dso_local void @_ZN4node9Utf8ValueD2Ev(ptr noundef nonnull align 8 dereferenceable(1048) %this) unnamed_addr #4 comdat align 2 {
entry:
  %this.addr = alloca ptr, align 8
  store ptr %this, ptr %this.addr, align 8
  %this1 = load ptr, ptr %this.addr, align 8
  call void @_ZN4node16MaybeStackBufferIcLm1024EED2Ev(ptr noundef nonnull align 8 dereferenceable(1048) %this1) #3
  ret void
}

declare noundef i32 @_ZNK2v86Uint325ValueEv(ptr noundef nonnull align 1 dereferenceable(1)) #1

; Function Attrs: mustprogress nounwind uwtable
define linkonce_odr dso_local noundef zeroext i1 @_ZNK4node8profiler20V8ProfilerConnection12HasProfileIdEj(ptr noundef nonnull align 8 dereferenceable(88) %this, i32 noundef %id) #4 comdat align 2 {
entry:
  %this.addr = alloca ptr, align 8
  %id.addr = alloca i32, align 4
  %ref.tmp = alloca %"struct.std::__detail::_Node_const_iterator", align 8
  %ref.tmp3 = alloca %"struct.std::__detail::_Node_const_iterator", align 8
  store ptr %this, ptr %this.addr, align 8
  store i32 %id, ptr %id.addr, align 4
  %this1 = load ptr, ptr %this.addr, align 8
  %profile_ids_ = getelementptr inbounds %"class.node::profiler::V8ProfilerConnection", ptr %this1, i32 0, i32 3
  %call = call ptr @_ZNKSt13unordered_setIjSt4hashIjESt8equal_toIjESaIjEE4findERKj(ptr noundef nonnull align 8 dereferenceable(56) %profile_ids_, ptr noundef nonnull align 4 dereferenceable(4) %id.addr)
  %coerce.dive = getelementptr inbounds %"struct.std::__detail::_Node_const_iterator", ptr %ref.tmp, i32 0, i32 0
  %coerce.dive2 = getelementptr inbounds %"struct.std::__detail::_Node_iterator_base", ptr %coerce.dive, i32 0, i32 0
  store ptr %call, ptr %coerce.dive2, align 8
  %profile_ids_4 = getelementptr inbounds %"class.node::profiler::V8ProfilerConnection", ptr %this1, i32 0, i32 3
  %call5 = call ptr @_ZNKSt13unordered_setIjSt4hashIjESt8equal_toIjESaIjEE3endEv(ptr noundef nonnull align 8 dereferenceable(56) %profile_ids_4) #3
  %coerce.dive6 = getelementptr inbounds %"struct.std::__detail::_Node_const_iterator", ptr %ref.tmp3, i32 0, i32 0
  %coerce.dive7 = getelementptr inbounds %"struct.std::__detail::_Node_iterator_base", ptr %coerce.dive6, i32 0, i32 0
  store ptr %call5, ptr %coerce.dive7, align 8
  %call8 = call noundef zeroext i1 @_ZNSt8__detailneERKNS_19_Node_iterator_baseIjLb0EEES3_(ptr noundef nonnull align 8 dereferenceable(8) %ref.tmp, ptr noundef nonnull align 8 dereferenceable(8) %ref.tmp3) #3
  ret i1 %call8
}

; Function Attrs: mustprogress nounwind uwtable
define linkonce_odr dso_local ptr @_ZN4node21FIXED_ONE_BYTE_STRINGILi7EEEN2v85LocalINS1_6StringEEEPNS1_7IsolateERAT__Kc(ptr noundef %isolate, ptr noundef nonnull align 1 dereferenceable(7) %data) #4 comdat {
entry:
  %retval = alloca %"class.v8::Local.315", align 8
  %isolate.addr = alloca ptr, align 8
  %data.addr = alloca ptr, align 8
  store ptr %isolate, ptr %isolate.addr, align 8
  store ptr %data, ptr %data.addr, align 8
  %0 = load ptr, ptr %isolate.addr, align 8
  %1 = load ptr, ptr %data.addr, align 8
  %arraydecay = getelementptr inbounds [7 x i8], ptr %1, i64 0, i64 0
  %call = call ptr @_ZN4node13OneByteStringEPN2v87IsolateEPKci(ptr noundef %0, ptr noundef %arraydecay, i32 noundef 6)
  %coerce.dive = getelementptr inbounds %"class.v8::Local.315", ptr %retval, i32 0, i32 0
  %coerce.dive1 = getelementptr inbounds %"class.v8::LocalBase.316", ptr %coerce.dive, i32 0, i32 0
  %coerce.dive2 = getelementptr inbounds %"class.v8::IndirectHandleBase", ptr %coerce.dive1, i32 0, i32 0
  store ptr %call, ptr %coerce.dive2, align 8
  %coerce.dive3 = getelementptr inbounds %"class.v8::Local.315", ptr %retval, i32 0, i32 0
  %coerce.dive4 = getelementptr inbounds %"class.v8::LocalBase.316", ptr %coerce.dive3, i32 0, i32 0
  %coerce.dive5 = getelementptr inbounds %"class.v8::IndirectHandleBase", ptr %coerce.dive4, i32 0, i32 0
  %2 = load ptr, ptr %coerce.dive5, align 8
  ret ptr %2
}

; Function Attrs: mustprogress nounwind uwtable
define linkonce_odr dso_local void @_ZN4node8profiler20V8ProfilerConnection15RemoveProfileIdEj(ptr noundef nonnull align 8 dereferenceable(88) %this, i32 noundef %id) #4 comdat align 2 {
entry:
  %this.addr = alloca ptr, align 8
  %id.addr = alloca i32, align 4
  store ptr %this, ptr %this.addr, align 8
  store i32 %id, ptr %id.addr, align 4
  %this1 = load ptr, ptr %this.addr, align 8
  %profile_ids_ = getelementptr inbounds %"class.node::profiler::V8ProfilerConnection", ptr %this1, i32 0, i32 3
  %call = call noundef i64 @_ZNSt13unordered_setIjSt4hashIjESt8equal_toIjESaIjEE5eraseERKj(ptr noundef nonnull align 8 dereferenceable(56) %profile_ids_, ptr noundef nonnull align 4 dereferenceable(4) %id.addr)
  ret void
}

; Function Attrs: nounwind
declare void @_ZN2v811HandleScopeD1Ev(ptr noundef nonnull align 8 dereferenceable(24)) unnamed_addr #2

; Function Attrs: mustprogress nounwind uwtable
define dso_local void @_ZNK4node8profiler20V8CoverageConnection11GetFilenameB5cxx11Ev(ptr noalias sret(%"class.std::__cxx11::basic_string") align 8 %agg.result, ptr noundef nonnull align 8 dereferenceable(97) %this) unnamed_addr #4 align 2 {
entry:
  %result.ptr = alloca ptr, align 8
  %this.addr = alloca ptr, align 8
  %timestamp = alloca i64, align 8
  %ref.tmp = alloca i32, align 4
  %ref.tmp3 = alloca i64, align 8
  store ptr %agg.result, ptr %result.ptr, align 8
  store ptr %this, ptr %this.addr, align 8
  %this1 = load ptr, ptr %this.addr, align 8
  %call = call noundef double @_ZN4node28GetCurrentTimeInMicrosecondsEv()
  %div = fdiv double %call, 1.000000e+03
  %conv = fptoui double %div to i64
  store i64 %conv, ptr %timestamp, align 8
  %call2 = call i32 @uv_os_getpid()
  store i32 %call2, ptr %ref.tmp, align 4
  %call4 = call noundef ptr @_ZNK4node8profiler20V8ProfilerConnection3envEv(ptr noundef nonnull align 8 dereferenceable(88) %this1)
  %call5 = call noundef i64 @_ZNK4node11Environment9thread_idEv(ptr noundef nonnull align 8 dereferenceable(2872) %call4)
  store i64 %call5, ptr %ref.tmp3, align 8
  call void @_ZN4node7SPrintFIJiRmmEEENSt7__cxx1112basic_stringIcSt11char_traitsIcESaIcEEEPKcDpOT_(ptr sret(%"class.std::__cxx11::basic_string") align 8 %agg.result, ptr noundef @.str.15, ptr noundef nonnull align 4 dereferenceable(4) %ref.tmp, ptr noundef nonnull align 8 dereferenceable(8) %timestamp, ptr noundef nonnull align 8 dereferenceable(8) %ref.tmp3) #15
  ret void
}

declare noundef double @_ZN4node28GetCurrentTimeInMicrosecondsEv() #1

; Function Attrs: cold mustprogress nounwind uwtable
define linkonce_odr dso_local void @_ZN4node7SPrintFIJiRmmEEENSt7__cxx1112basic_stringIcSt11char_traitsIcESaIcEEEPKcDpOT_(ptr noalias sret(%"class.std::__cxx11::basic_string") align 8 %agg.result, ptr noundef %format, ptr noundef nonnull align 4 dereferenceable(4) %args, ptr noundef nonnull align 8 dereferenceable(8) %args1, ptr noundef nonnull align 8 dereferenceable(8) %args3) #6 comdat {
entry:
  %result.ptr = alloca ptr, align 8
  %format.addr = alloca ptr, align 8
  %args.addr = alloca ptr, align 8
  %args.addr2 = alloca ptr, align 8
  %args.addr4 = alloca ptr, align 8
  store ptr %agg.result, ptr %result.ptr, align 8
  store ptr %format, ptr %format.addr, align 8
  store ptr %args, ptr %args.addr, align 8
  store ptr %args1, ptr %args.addr2, align 8
  store ptr %args3, ptr %args.addr4, align 8
  %0 = load ptr, ptr %format.addr, align 8
  %1 = load ptr, ptr %args.addr, align 8
  %2 = load ptr, ptr %args.addr2, align 8
  %3 = load ptr, ptr %args.addr4, align 8
  call void @_ZN4node11SPrintFImplIiJRmmEEENSt7__cxx1112basic_stringIcSt11char_traitsIcESaIcEEEPKcOT_DpOT0_(ptr sret(%"class.std::__cxx11::basic_string") align 8 %agg.result, ptr noundef %0, ptr noundef nonnull align 4 dereferenceable(4) %1, ptr noundef nonnull align 8 dereferenceable(8) %2, ptr noundef nonnull align 8 dereferenceable(8) %3) #15
  ret void
}

declare i32 @uv_os_getpid() #1

; Function Attrs: mustprogress nounwind uwtable
define linkonce_odr dso_local noundef i64 @_ZNK4node11Environment9thread_idEv(ptr noundef nonnull align 8 dereferenceable(2872) %this) #4 comdat align 2 {
entry:
  %this.addr = alloca ptr, align 8
  store ptr %this, ptr %this.addr, align 8
  %this1 = load ptr, ptr %this.addr, align 8
  %thread_id_ = getelementptr inbounds %"class.node::Environment", ptr %this1, i32 0, i32 64
  %0 = load i64, ptr %thread_id_, align 8
  ret i64 %0
}

; Function Attrs: mustprogress nounwind uwtable
define dso_local void @_ZN4node8profiler20V8ProfilerConnection12WriteProfileEN2v85LocalINS2_6ObjectEEE(ptr noundef nonnull align 8 dereferenceable(88) %this, ptr %result.coerce) unnamed_addr #4 align 2 {
entry:
  %this.addr.i.i91 = alloca ptr, align 8
  %this.addr.i92 = alloca ptr, align 8
  %this.addr.i89 = alloca ptr, align 8
  %other.addr.i = alloca ptr, align 8
  %this.addr.i.i85 = alloca ptr, align 8
  %this.addr.i86 = alloca ptr, align 8
  %this.addr.i.i = alloca ptr, align 8
  %this.addr.i83 = alloca ptr, align 8
  %this.addr.i81 = alloca ptr, align 8
  %this.addr.i79 = alloca ptr, align 8
  %this.addr.i77 = alloca ptr, align 8
  %this.addr.i75 = alloca ptr, align 8
  %that.i = alloca %"class.v8::Local.320", align 8
  %this.addr.i74 = alloca ptr, align 8
  %this.addr.i69 = alloca ptr, align 8
  %out.addr.i70 = alloca ptr, align 8
  %this.addr.i67 = alloca ptr, align 8
  %this.addr.i65 = alloca ptr, align 8
  %out.addr.i = alloca ptr, align 8
  %this.addr.i63 = alloca ptr, align 8
  %this.addr.i = alloca ptr, align 8
  %result = alloca %"class.v8::Local.320", align 8
  %this.addr = alloca ptr, align 8
  %context = alloca %"class.v8::Local", align 8
  %profile = alloca %"class.v8::Local.320", align 8
  %ref.tmp = alloca %"class.v8::MaybeLocal.324", align 8
  %agg.tmp = alloca %"class.v8::Local.320", align 8
  %result_s = alloca %"class.v8::Local.315", align 8
  %ref.tmp16 = alloca %"class.v8::MaybeLocal", align 8
  %agg.tmp17 = alloca %"class.v8::Local", align 8
  %agg.tmp18 = alloca %"class.v8::Local.317", align 8
  %agg.tmp19 = alloca %"class.v8::Local.320", align 8
  %agg.tmp23 = alloca %"class.v8::Local.315", align 8
  %directory = alloca %"class.std::__cxx11::basic_string", align 8
  %cleanup.dest.slot = alloca i32, align 4
  %filename = alloca %"class.std::__cxx11::basic_string", align 8
  %path = alloca %"class.std::__cxx11::basic_string", align 8
  %ref.tmp56 = alloca %"class.std::__cxx11::basic_string", align 8
  %agg.tmp59 = alloca %"class.v8::Local.315", align 8
  %coerce.dive = getelementptr inbounds %"class.v8::Local.320", ptr %result, i32 0, i32 0
  %coerce.dive1 = getelementptr inbounds %"class.v8::LocalBase.321", ptr %coerce.dive, i32 0, i32 0
  %coerce.dive2 = getelementptr inbounds %"class.v8::IndirectHandleBase", ptr %coerce.dive1, i32 0, i32 0
  store ptr %result.coerce, ptr %coerce.dive2, align 8
  store ptr %this, ptr %this.addr, align 8
  %this3 = load ptr, ptr %this.addr, align 8
  %env_ = getelementptr inbounds %"class.node::profiler::V8ProfilerConnection", ptr %this3, i32 0, i32 4
  %0 = load ptr, ptr %env_, align 8
  %call = call ptr @_ZNK4node11Environment7contextEv(ptr noundef nonnull align 8 dereferenceable(2872) %0)
  %coerce.dive4 = getelementptr inbounds %"class.v8::Local", ptr %context, i32 0, i32 0
  %coerce.dive5 = getelementptr inbounds %"class.v8::LocalBase", ptr %coerce.dive4, i32 0, i32 0
  %coerce.dive6 = getelementptr inbounds %"class.v8::IndirectHandleBase", ptr %coerce.dive5, i32 0, i32 0
  store ptr %call, ptr %coerce.dive6, align 8
  store ptr %profile, ptr %this.addr.i67, align 8
  %this1.i68 = load ptr, ptr %this.addr.i67, align 8
  store ptr %this1.i68, ptr %this.addr.i83, align 8
  %this1.i84 = load ptr, ptr %this.addr.i83, align 8
  store ptr %this1.i84, ptr %this.addr.i.i, align 8
  %this1.i.i = load ptr, ptr %this.addr.i.i, align 8
  store ptr null, ptr %this1.i.i, align 8
  call void @llvm.memcpy.p0.p0.i64(ptr align 8 %agg.tmp, ptr align 8 %result, i64 8, i1 false)
  %coerce.dive7 = getelementptr inbounds %"class.v8::Local.320", ptr %agg.tmp, i32 0, i32 0
  %coerce.dive8 = getelementptr inbounds %"class.v8::LocalBase.321", ptr %coerce.dive7, i32 0, i32 0
  %coerce.dive9 = getelementptr inbounds %"class.v8::IndirectHandleBase", ptr %coerce.dive8, i32 0, i32 0
  %1 = load ptr, ptr %coerce.dive9, align 8
  %vtable = load ptr, ptr %this3, align 8
  %vfn = getelementptr inbounds ptr, ptr %vtable, i64 8
  %2 = load ptr, ptr %vfn, align 8
  %call10 = call ptr %2(ptr noundef nonnull align 8 dereferenceable(88) %this3, ptr %1)
  %coerce.dive11 = getelementptr inbounds %"class.v8::MaybeLocal.324", ptr %ref.tmp, i32 0, i32 0
  %coerce.dive12 = getelementptr inbounds %"class.v8::Local.320", ptr %coerce.dive11, i32 0, i32 0
  %coerce.dive13 = getelementptr inbounds %"class.v8::LocalBase.321", ptr %coerce.dive12, i32 0, i32 0
  %coerce.dive14 = getelementptr inbounds %"class.v8::IndirectHandleBase", ptr %coerce.dive13, i32 0, i32 0
  store ptr %call10, ptr %coerce.dive14, align 8
  store ptr %ref.tmp, ptr %this.addr.i69, align 8
  store ptr %profile, ptr %out.addr.i70, align 8
  %this1.i71 = load ptr, ptr %this.addr.i69, align 8
  %3 = load ptr, ptr %out.addr.i70, align 8
  call void @llvm.memcpy.p0.p0.i64(ptr align 8 %3, ptr align 8 %this1.i71, i64 8, i1 false)
  store ptr %this1.i71, ptr %this.addr.i92, align 8
  %this1.i93 = load ptr, ptr %this.addr.i92, align 8
  store ptr %this1.i93, ptr %this.addr.i.i91, align 8
  %this1.i.i94 = load ptr, ptr %this.addr.i.i91, align 8
  %4 = load ptr, ptr %this1.i.i94, align 8
  %cmp.i.i95 = icmp eq ptr %4, null
  %lnot.i73 = xor i1 %cmp.i.i95, true
  %lnot = xor i1 %lnot.i73, true
  br i1 %lnot, label %if.then, label %if.end

if.then:                                          ; preds = %entry
  br label %cleanup.cont

if.end:                                           ; preds = %entry
  store ptr %result_s, ptr %this.addr.i, align 8
  %this1.i = load ptr, ptr %this.addr.i, align 8
  store ptr %this1.i, ptr %this.addr.i77, align 8
  %this1.i78 = load ptr, ptr %this.addr.i77, align 8
  store ptr %this1.i78, ptr %this.addr.i79, align 8
  %this1.i80 = load ptr, ptr %this.addr.i79, align 8
  store ptr null, ptr %this1.i80, align 8
  call void @llvm.memcpy.p0.p0.i64(ptr align 8 %agg.tmp17, ptr align 8 %context, i64 8, i1 false)
  call void @llvm.memcpy.p0.p0.i64(ptr align 8 %agg.tmp19, ptr align 8 %profile, i64 8, i1 false)
  %coerce.dive20 = getelementptr inbounds %"class.v8::Local.320", ptr %agg.tmp19, i32 0, i32 0
  %coerce.dive21 = getelementptr inbounds %"class.v8::LocalBase.321", ptr %coerce.dive20, i32 0, i32 0
  %coerce.dive22 = getelementptr inbounds %"class.v8::IndirectHandleBase", ptr %coerce.dive21, i32 0, i32 0
  %5 = load ptr, ptr %coerce.dive22, align 8
  store ptr %5, ptr %that.i, align 8
  store ptr %agg.tmp18, ptr %this.addr.i74, align 8
  %this3.i = load ptr, ptr %this.addr.i74, align 8
  store ptr %this3.i, ptr %this.addr.i89, align 8
  store ptr %that.i, ptr %other.addr.i, align 8
  %this1.i90 = load ptr, ptr %this.addr.i89, align 8
  %6 = load ptr, ptr %other.addr.i, align 8
  call void @llvm.memcpy.p0.p0.i64(ptr align 8 %this1.i90, ptr align 8 %6, i64 8, i1 false)
  call void @llvm.memset.p0.i64(ptr align 8 %agg.tmp23, i8 0, i64 8, i1 false)
  store ptr %agg.tmp23, ptr %this.addr.i63, align 8
  %this1.i64 = load ptr, ptr %this.addr.i63, align 8
  store ptr %this1.i64, ptr %this.addr.i75, align 8
  %this1.i76 = load ptr, ptr %this.addr.i75, align 8
  store ptr %this1.i76, ptr %this.addr.i81, align 8
  %this1.i82 = load ptr, ptr %this.addr.i81, align 8
  store ptr null, ptr %this1.i82, align 8
  %coerce.dive24 = getelementptr inbounds %"class.v8::Local", ptr %agg.tmp17, i32 0, i32 0
  %coerce.dive25 = getelementptr inbounds %"class.v8::LocalBase", ptr %coerce.dive24, i32 0, i32 0
  %coerce.dive26 = getelementptr inbounds %"class.v8::IndirectHandleBase", ptr %coerce.dive25, i32 0, i32 0
  %7 = load ptr, ptr %coerce.dive26, align 8
  %coerce.dive27 = getelementptr inbounds %"class.v8::Local.317", ptr %agg.tmp18, i32 0, i32 0
  %coerce.dive28 = getelementptr inbounds %"class.v8::LocalBase.318", ptr %coerce.dive27, i32 0, i32 0
  %coerce.dive29 = getelementptr inbounds %"class.v8::IndirectHandleBase", ptr %coerce.dive28, i32 0, i32 0
  %8 = load ptr, ptr %coerce.dive29, align 8
  %coerce.dive30 = getelementptr inbounds %"class.v8::Local.315", ptr %agg.tmp23, i32 0, i32 0
  %coerce.dive31 = getelementptr inbounds %"class.v8::LocalBase.316", ptr %coerce.dive30, i32 0, i32 0
  %coerce.dive32 = getelementptr inbounds %"class.v8::IndirectHandleBase", ptr %coerce.dive31, i32 0, i32 0
  %9 = load ptr, ptr %coerce.dive32, align 8
  %call33 = call ptr @_ZN2v84JSON9StringifyENS_5LocalINS_7ContextEEENS1_INS_5ValueEEENS1_INS_6StringEEE(ptr %7, ptr %8, ptr %9)
  %coerce.dive34 = getelementptr inbounds %"class.v8::MaybeLocal", ptr %ref.tmp16, i32 0, i32 0
  %coerce.dive35 = getelementptr inbounds %"class.v8::Local.315", ptr %coerce.dive34, i32 0, i32 0
  %coerce.dive36 = getelementptr inbounds %"class.v8::LocalBase.316", ptr %coerce.dive35, i32 0, i32 0
  %coerce.dive37 = getelementptr inbounds %"class.v8::IndirectHandleBase", ptr %coerce.dive36, i32 0, i32 0
  store ptr %call33, ptr %coerce.dive37, align 8
  store ptr %ref.tmp16, ptr %this.addr.i65, align 8
  store ptr %result_s, ptr %out.addr.i, align 8
  %this1.i66 = load ptr, ptr %this.addr.i65, align 8
  %10 = load ptr, ptr %out.addr.i, align 8
  call void @llvm.memcpy.p0.p0.i64(ptr align 8 %10, ptr align 8 %this1.i66, i64 8, i1 false)
  store ptr %this1.i66, ptr %this.addr.i86, align 8
  %this1.i87 = load ptr, ptr %this.addr.i86, align 8
  store ptr %this1.i87, ptr %this.addr.i.i85, align 8
  %this1.i.i88 = load ptr, ptr %this.addr.i.i85, align 8
  %11 = load ptr, ptr %this1.i.i88, align 8
  %cmp.i.i = icmp eq ptr %11, null
  %lnot.i = xor i1 %cmp.i.i, true
  %lnot39 = xor i1 %lnot.i, true
  br i1 %lnot39, label %if.then40, label %if.end45

if.then40:                                        ; preds = %if.end
  %12 = load ptr, ptr @stderr, align 8
  %vtable41 = load ptr, ptr %this3, align 8
  %vfn42 = getelementptr inbounds ptr, ptr %vtable41, i64 4
  %13 = load ptr, ptr %vfn42, align 8
  %call43 = call noundef ptr %13(ptr noundef nonnull align 8 dereferenceable(88) %this3)
  %call44 = call i32 (ptr, ptr, ...) @fprintf(ptr noundef %12, ptr noundef @.str.16, ptr noundef %call43)
  br label %cleanup.cont

if.end45:                                         ; preds = %if.end
  %vtable46 = load ptr, ptr %this3, align 8
  %vfn47 = getelementptr inbounds ptr, ptr %vtable46, i64 6
  %14 = load ptr, ptr %vfn47, align 8
  call void %14(ptr sret(%"class.std::__cxx11::basic_string") align 8 %directory, ptr noundef nonnull align 8 dereferenceable(88) %this3)
  %vtable48 = load ptr, ptr %this3, align 8
  %vfn49 = getelementptr inbounds ptr, ptr %vtable48, i64 4
  %15 = load ptr, ptr %vfn49, align 8
  %call50 = call noundef ptr %15(ptr noundef nonnull align 8 dereferenceable(88) %this3)
  %call51 = call noundef zeroext i1 @_ZN4node8profilerL15EnsureDirectoryERKNSt7__cxx1112basic_stringIcSt11char_traitsIcESaIcEEEPKc(ptr noundef nonnull align 8 dereferenceable(32) %directory, ptr noundef %call50)
  br i1 %call51, label %if.end53, label %if.then52

if.then52:                                        ; preds = %if.end45
  store i32 1, ptr %cleanup.dest.slot, align 4
  br label %cleanup

if.end53:                                         ; preds = %if.end45
  %vtable54 = load ptr, ptr %this3, align 8
  %vfn55 = getelementptr inbounds ptr, ptr %vtable54, i64 7
  %16 = load ptr, ptr %vfn55, align 8
  call void %16(ptr sret(%"class.std::__cxx11::basic_string") align 8 %filename, ptr noundef nonnull align 8 dereferenceable(88) %this3)
  call void @_ZStplIcSt11char_traitsIcESaIcEENSt7__cxx1112basic_stringIT_T0_T1_EERKS8_S5_(ptr sret(%"class.std::__cxx11::basic_string") align 8 %ref.tmp56, ptr noundef nonnull align 8 dereferenceable(32) %directory, i8 noundef signext 47)
  call void @_ZStplIcSt11char_traitsIcESaIcEENSt7__cxx1112basic_stringIT_T0_T1_EEOS8_RKS8_(ptr sret(%"class.std::__cxx11::basic_string") align 8 %path, ptr noundef nonnull align 8 dereferenceable(32) %ref.tmp56, ptr noundef nonnull align 8 dereferenceable(32) %filename)
  call void @_ZNSt7__cxx1112basic_stringIcSt11char_traitsIcESaIcEED1Ev(ptr noundef nonnull align 8 dereferenceable(32) %ref.tmp56) #3
  %env_57 = getelementptr inbounds %"class.node::profiler::V8ProfilerConnection", ptr %this3, i32 0, i32 4
  %17 = load ptr, ptr %env_57, align 8
  %call58 = call noundef ptr @_ZNKSt7__cxx1112basic_stringIcSt11char_traitsIcESaIcEE5c_strEv(ptr noundef nonnull align 8 dereferenceable(32) %path) #3
  call void @llvm.memcpy.p0.p0.i64(ptr align 8 %agg.tmp59, ptr align 8 %result_s, i64 8, i1 false)
  %coerce.dive60 = getelementptr inbounds %"class.v8::Local.315", ptr %agg.tmp59, i32 0, i32 0
  %coerce.dive61 = getelementptr inbounds %"class.v8::LocalBase.316", ptr %coerce.dive60, i32 0, i32 0
  %coerce.dive62 = getelementptr inbounds %"class.v8::IndirectHandleBase", ptr %coerce.dive61, i32 0, i32 0
  %18 = load ptr, ptr %coerce.dive62, align 8
  call void @_ZN4node8profilerL11WriteResultEPNS_11EnvironmentEPKcN2v85LocalINS5_6StringEEE(ptr noundef %17, ptr noundef %call58, ptr %18)
  call void @_ZNSt7__cxx1112basic_stringIcSt11char_traitsIcESaIcEED1Ev(ptr noundef nonnull align 8 dereferenceable(32) %path) #3
  call void @_ZNSt7__cxx1112basic_stringIcSt11char_traitsIcESaIcEED1Ev(ptr noundef nonnull align 8 dereferenceable(32) %filename) #3
  store i32 0, ptr %cleanup.dest.slot, align 4
  br label %cleanup

cleanup:                                          ; preds = %if.end53, %if.then52
  call void @_ZNSt7__cxx1112basic_stringIcSt11char_traitsIcESaIcEED1Ev(ptr noundef nonnull align 8 dereferenceable(32) %directory) #3
  %cleanup.dest = load i32, ptr %cleanup.dest.slot, align 4
  switch i32 %cleanup.dest, label %unreachable [
    i32 0, label %cleanup.cont
    i32 1, label %cleanup.cont
  ]

cleanup.cont:                                     ; preds = %cleanup, %cleanup, %if.then40, %if.then
  ret void

unreachable:                                      ; preds = %cleanup
  unreachable
}

declare ptr @_ZN2v84JSON9StringifyENS_5LocalINS_7ContextEEENS1_INS_5ValueEEENS1_INS_6StringEEE(ptr, ptr, ptr) #1

; Function Attrs: nocallback nofree nounwind willreturn memory(argmem: write)
declare void @llvm.memset.p0.i64(ptr nocapture writeonly, i8, i64, i1 immarg) #7

; Function Attrs: mustprogress nounwind uwtable
define internal noundef zeroext i1 @_ZN4node8profilerL15EnsureDirectoryERKNSt7__cxx1112basic_stringIcSt11char_traitsIcESaIcEEEPKc(ptr noundef nonnull align 8 dereferenceable(32) %directory, ptr noundef %type) #4 {
entry:
  %retval = alloca i1, align 1
  %directory.addr = alloca ptr, align 8
  %type.addr = alloca ptr, align 8
  %req_wrap_sync = alloca %"class.node::fs::FSReqWrapSync", align 8
  %ret = alloca i32, align 4
  %err_buf = alloca [128 x i8], align 16
  %cleanup.dest.slot = alloca i32, align 4
  store ptr %directory, ptr %directory.addr, align 8
  store ptr %type, ptr %type.addr, align 8
  call void @_ZN4node2fs13FSReqWrapSyncC2EPKcS3_S3_(ptr noundef nonnull align 8 dereferenceable(472) %req_wrap_sync, ptr noundef null, ptr noundef null, ptr noundef null)
  %req = getelementptr inbounds %"class.node::fs::FSReqWrapSync", ptr %req_wrap_sync, i32 0, i32 0
  %0 = load ptr, ptr %directory.addr, align 8
  %call = call noundef i32 @_ZN4node2fs10MKDirpSyncEP9uv_loop_sP7uv_fs_sRKNSt7__cxx1112basic_stringIcSt11char_traitsIcESaIcEEEiPFvS4_E(ptr noundef null, ptr noundef %req, ptr noundef nonnull align 8 dereferenceable(32) %0, i32 noundef 511, ptr noundef null)
  store i32 %call, ptr %ret, align 4
  %1 = load i32, ptr %ret, align 4
  %cmp = icmp slt i32 %1, 0
  br i1 %cmp, label %land.lhs.true, label %if.end

land.lhs.true:                                    ; preds = %entry
  %2 = load i32, ptr %ret, align 4
  %cmp1 = icmp ne i32 %2, -17
  br i1 %cmp1, label %if.then, label %if.end

if.then:                                          ; preds = %land.lhs.true
  %3 = load i32, ptr %ret, align 4
  %arraydecay = getelementptr inbounds [128 x i8], ptr %err_buf, i64 0, i64 0
  %call2 = call ptr @uv_err_name_r(i32 noundef %3, ptr noundef %arraydecay, i64 noundef 128)
  %4 = load ptr, ptr @stderr, align 8
  %arraydecay3 = getelementptr inbounds [128 x i8], ptr %err_buf, i64 0, i64 0
  %5 = load ptr, ptr %type.addr, align 8
  %6 = load ptr, ptr %directory.addr, align 8
  %call4 = call noundef ptr @_ZNKSt7__cxx1112basic_stringIcSt11char_traitsIcESaIcEE5c_strEv(ptr noundef nonnull align 8 dereferenceable(32) %6) #3
  %call5 = call i32 (ptr, ptr, ...) @fprintf(ptr noundef %4, ptr noundef @.str.49, ptr noundef %arraydecay3, ptr noundef %5, ptr noundef %call4)
  store i1 false, ptr %retval, align 1
  store i32 1, ptr %cleanup.dest.slot, align 4
  br label %cleanup

if.end:                                           ; preds = %land.lhs.true, %entry
  store i1 true, ptr %retval, align 1
  store i32 1, ptr %cleanup.dest.slot, align 4
  br label %cleanup

cleanup:                                          ; preds = %if.end, %if.then
  call void @_ZN4node2fs13FSReqWrapSyncD2Ev(ptr noundef nonnull align 8 dereferenceable(472) %req_wrap_sync) #3
  %7 = load i1, ptr %retval, align 1
  ret i1 %7
}

; Function Attrs: mustprogress nounwind uwtable
define linkonce_odr dso_local void @_ZStplIcSt11char_traitsIcESaIcEENSt7__cxx1112basic_stringIT_T0_T1_EEOS8_RKS8_(ptr noalias sret(%"class.std::__cxx11::basic_string") align 8 %agg.result, ptr noundef nonnull align 8 dereferenceable(32) %__lhs, ptr noundef nonnull align 8 dereferenceable(32) %__rhs) #4 comdat {
entry:
  %result.ptr = alloca ptr, align 8
  %__lhs.addr = alloca ptr, align 8
  %__rhs.addr = alloca ptr, align 8
  store ptr %agg.result, ptr %result.ptr, align 8
  store ptr %__lhs, ptr %__lhs.addr, align 8
  store ptr %__rhs, ptr %__rhs.addr, align 8
  %0 = load ptr, ptr %__lhs.addr, align 8
  %1 = load ptr, ptr %__rhs.addr, align 8
  %call = call noundef nonnull align 8 dereferenceable(32) ptr @_ZNSt7__cxx1112basic_stringIcSt11char_traitsIcESaIcEE6appendERKS4_(ptr noundef nonnull align 8 dereferenceable(32) %0, ptr noundef nonnull align 8 dereferenceable(32) %1)
  call void @_ZNSt7__cxx1112basic_stringIcSt11char_traitsIcESaIcEEC1EOS4_(ptr noundef nonnull align 8 dereferenceable(32) %agg.result, ptr noundef nonnull align 8 dereferenceable(32) %call) #3
  ret void
}

; Function Attrs: mustprogress nounwind uwtable
define linkonce_odr dso_local void @_ZStplIcSt11char_traitsIcESaIcEENSt7__cxx1112basic_stringIT_T0_T1_EERKS8_S5_(ptr noalias sret(%"class.std::__cxx11::basic_string") align 8 %agg.result, ptr noundef nonnull align 8 dereferenceable(32) %__lhs, i8 noundef signext %__rhs) #4 comdat {
entry:
  %result.ptr = alloca ptr, align 8
  %__lhs.addr = alloca ptr, align 8
  %__rhs.addr = alloca i8, align 1
  %nrvo = alloca i1, align 1
  store ptr %agg.result, ptr %result.ptr, align 8
  store ptr %__lhs, ptr %__lhs.addr, align 8
  store i8 %__rhs, ptr %__rhs.addr, align 1
  store i1 false, ptr %nrvo, align 1
  %0 = load ptr, ptr %__lhs.addr, align 8
  call void @_ZNSt7__cxx1112basic_stringIcSt11char_traitsIcESaIcEEC1ERKS4_(ptr noundef nonnull align 8 dereferenceable(32) %agg.result, ptr noundef nonnull align 8 dereferenceable(32) %0)
  %1 = load i8, ptr %__rhs.addr, align 1
  %call = call noundef nonnull align 8 dereferenceable(32) ptr @_ZNSt7__cxx1112basic_stringIcSt11char_traitsIcESaIcEE6appendEmc(ptr noundef nonnull align 8 dereferenceable(32) %agg.result, i64 noundef 1, i8 noundef signext %1)
  store i1 true, ptr %nrvo, align 1
  %nrvo.val = load i1, ptr %nrvo, align 1
  br i1 %nrvo.val, label %nrvo.skipdtor, label %nrvo.unused

nrvo.unused:                                      ; preds = %entry
  call void @_ZNSt7__cxx1112basic_stringIcSt11char_traitsIcESaIcEED1Ev(ptr noundef nonnull align 8 dereferenceable(32) %agg.result) #3
  br label %nrvo.skipdtor

nrvo.skipdtor:                                    ; preds = %nrvo.unused, %entry
  ret void
}

; Function Attrs: mustprogress nounwind uwtable
define internal void @_ZN4node8profilerL11WriteResultEPNS_11EnvironmentEPKcN2v85LocalINS5_6StringEEE(ptr noundef %env, ptr noundef %path, ptr %result.coerce) #4 {
entry:
  %this.addr.i.i = alloca ptr, align 8
  %category.addr.i.i = alloca i32, align 4
  %list.addr.i = alloca ptr, align 8
  %cat.addr.i10 = alloca i32, align 4
  %format.addr.i11 = alloca ptr, align 8
  %args.addr.i12 = alloca ptr, align 8
  %env.addr.i = alloca ptr, align 8
  %cat.addr.i = alloca i32, align 4
  %format.addr.i = alloca ptr, align 8
  %args.addr.i = alloca ptr, align 8
  %result = alloca %"class.v8::Local.315", align 8
  %env.addr = alloca ptr, align 8
  %path.addr = alloca ptr, align 8
  %ret = alloca i32, align 4
  %agg.tmp = alloca %"class.v8::Local.315", align 8
  %err_buf = alloca [128 x i8], align 16
  %coerce.dive = getelementptr inbounds %"class.v8::Local.315", ptr %result, i32 0, i32 0
  %coerce.dive1 = getelementptr inbounds %"class.v8::LocalBase.316", ptr %coerce.dive, i32 0, i32 0
  %coerce.dive2 = getelementptr inbounds %"class.v8::IndirectHandleBase", ptr %coerce.dive1, i32 0, i32 0
  store ptr %result.coerce, ptr %coerce.dive2, align 8
  store ptr %env, ptr %env.addr, align 8
  store ptr %path, ptr %path.addr, align 8
  %0 = load ptr, ptr %env.addr, align 8
  %call = call noundef ptr @_ZNK4node11Environment7isolateEv(ptr noundef nonnull align 8 dereferenceable(2872) %0)
  %1 = load ptr, ptr %path.addr, align 8
  call void @llvm.memcpy.p0.p0.i64(ptr align 8 %agg.tmp, ptr align 8 %result, i64 8, i1 false)
  %coerce.dive3 = getelementptr inbounds %"class.v8::Local.315", ptr %agg.tmp, i32 0, i32 0
  %coerce.dive4 = getelementptr inbounds %"class.v8::LocalBase.316", ptr %coerce.dive3, i32 0, i32 0
  %coerce.dive5 = getelementptr inbounds %"class.v8::IndirectHandleBase", ptr %coerce.dive4, i32 0, i32 0
  %2 = load ptr, ptr %coerce.dive5, align 8
  %call6 = call noundef i32 @_ZN4node13WriteFileSyncEPN2v87IsolateEPKcNS0_5LocalINS0_6StringEEE(ptr noundef %call, ptr noundef %1, ptr %2)
  store i32 %call6, ptr %ret, align 4
  %3 = load i32, ptr %ret, align 4
  %cmp = icmp ne i32 %3, 0
  br i1 %cmp, label %if.then, label %if.end

if.then:                                          ; preds = %entry
  %4 = load i32, ptr %ret, align 4
  %arraydecay = getelementptr inbounds [128 x i8], ptr %err_buf, i64 0, i64 0
  %call7 = call ptr @uv_err_name_r(i32 noundef %4, ptr noundef %arraydecay, i64 noundef 128)
  %5 = load ptr, ptr @stderr, align 8
  %arraydecay8 = getelementptr inbounds [128 x i8], ptr %err_buf, i64 0, i64 0
  %6 = load ptr, ptr %path.addr, align 8
  %call9 = call i32 (ptr, ptr, ...) @fprintf(ptr noundef %5, ptr noundef @.str.50, ptr noundef %arraydecay8, ptr noundef %6)
  br label %return

if.end:                                           ; preds = %entry
  %7 = load ptr, ptr %env.addr, align 8
  store ptr %7, ptr %env.addr.i, align 8
  store i32 67, ptr %cat.addr.i, align 4
  store ptr @.str.51, ptr %format.addr.i, align 8
  store ptr %path.addr, ptr %args.addr.i, align 8
  %8 = load ptr, ptr %env.addr.i, align 8
  %call.i = call noundef ptr @_ZN4node11Environment18enabled_debug_listEv(ptr noundef nonnull align 8 dereferenceable(2872) %8)
  %9 = load i32, ptr %cat.addr.i, align 4
  %10 = load ptr, ptr %format.addr.i, align 8
  %11 = load ptr, ptr %args.addr.i, align 8
  store ptr %call.i, ptr %list.addr.i, align 8
  store i32 %9, ptr %cat.addr.i10, align 4
  store ptr %10, ptr %format.addr.i11, align 8
  store ptr %11, ptr %args.addr.i12, align 8
  %12 = load ptr, ptr %list.addr.i, align 8
  %13 = load i32, ptr %cat.addr.i10, align 4
  store ptr %12, ptr %this.addr.i.i, align 8
  store i32 %13, ptr %category.addr.i.i, align 4
  %this1.i.i = load ptr, ptr %this.addr.i.i, align 8
  %14 = load i32, ptr %category.addr.i.i, align 4
  %idxprom.i.i = zext i32 %14 to i64
  %arrayidx.i.i = getelementptr inbounds [75 x i8], ptr %this1.i.i, i64 0, i64 %idxprom.i.i
  %15 = load i8, ptr %arrayidx.i.i, align 1
  %tobool.i.i = trunc i8 %15 to i1
  br i1 %tobool.i.i, label %if.end.i, label %if.then.i

if.then.i:                                        ; preds = %if.end
  br label %_ZN4node5DebugIJRPKcEEEvPNS_16EnabledDebugListENS_13DebugCategoryES2_DpOT_.exit

if.end.i:                                         ; preds = %if.end
  %16 = load ptr, ptr @stderr, align 8
  %17 = load ptr, ptr %format.addr.i11, align 8
  %18 = load ptr, ptr %args.addr.i12, align 8
  call void @_ZN4node7FPrintFIJRPKcEEEvP8_IO_FILES2_DpOT_(ptr noundef %16, ptr noundef %17, ptr noundef nonnull align 8 dereferenceable(8) %18) #15
  br label %_ZN4node5DebugIJRPKcEEEvPNS_16EnabledDebugListENS_13DebugCategoryES2_DpOT_.exit

_ZN4node5DebugIJRPKcEEEvPNS_16EnabledDebugListENS_13DebugCategoryES2_DpOT_.exit: ; preds = %if.end.i, %if.then.i
  br label %return

return:                                           ; preds = %_ZN4node5DebugIJRPKcEEEvPNS_16EnabledDebugListENS_13DebugCategoryES2_DpOT_.exit, %if.then
  ret void
}

; Function Attrs: mustprogress nounwind uwtable
define dso_local void @_ZN4node8profiler20V8CoverageConnection12WriteProfileEN2v85LocalINS2_6ObjectEEE(ptr noundef nonnull align 8 dereferenceable(97) %this, ptr %result.coerce) unnamed_addr #4 align 2 {
entry:
  %this.addr.i318 = alloca ptr, align 8
  %this.addr.i313 = alloca ptr, align 8
  %this.addr.i310 = alloca ptr, align 8
  %other.addr.i311 = alloca ptr, align 8
  %this.addr.i.i305 = alloca ptr, align 8
  %this.addr.i306 = alloca ptr, align 8
  %this.addr.i.i300 = alloca ptr, align 8
  %this.addr.i301 = alloca ptr, align 8
  %this.addr.i297 = alloca ptr, align 8
  %other.addr.i298 = alloca ptr, align 8
  %slot.addr.i296 = alloca ptr, align 8
  %this.addr.i.i292 = alloca ptr, align 8
  %this.addr.i293 = alloca ptr, align 8
  %this.addr.i.i288 = alloca ptr, align 8
  %this.addr.i289 = alloca ptr, align 8
  %this.addr.i285 = alloca ptr, align 8
  %other.addr.i286 = alloca ptr, align 8
  %slot.addr.i284 = alloca ptr, align 8
  %this.addr.i.i280 = alloca ptr, align 8
  %this.addr.i281 = alloca ptr, align 8
  %slot.addr.i279 = alloca ptr, align 8
  %this.addr.i.i275 = alloca ptr, align 8
  %this.addr.i276 = alloca ptr, align 8
  %value.addr.i273 = alloca i64, align 8
  %shift_bits.i = alloca i32, align 4
  %heap_object_ptr.addr.i.i = alloca i64, align 8
  %offset.addr.i.i = alloca i32, align 4
  %addr.i.i = alloca i64, align 8
  %heap_object_ptr.addr.i271 = alloca i64, align 8
  %offset.addr.i272 = alloca i32, align 4
  %value.addr.i270 = alloca i64, align 8
  %heap_object_ptr.addr.i264 = alloca i64, align 8
  %offset.addr.i265 = alloca i32, align 4
  %addr.i266 = alloca i64, align 8
  %heap_object_ptr.addr.i259 = alloca i64, align 8
  %offset.addr.i260 = alloca i32, align 4
  %addr.i261 = alloca i64, align 8
  %heap_object_ptr.addr.i = alloca i64, align 8
  %offset.addr.i = alloca i32, align 4
  %obj.addr.i255 = alloca i64, align 8
  %obj.addr.i = alloca i64, align 8
  %map.i = alloca i64, align 8
  %value.addr.i252 = alloca i64, align 8
  %value.addr.i = alloca ptr, align 8
  %retval.i248 = alloca i1, align 1
  %this.addr.i249 = alloca ptr, align 8
  %obj.i = alloca i64, align 8
  %this.addr.i245 = alloca ptr, align 8
  %location.addr.i246 = alloca ptr, align 8
  %this.addr.i243 = alloca ptr, align 8
  %location.addr.i = alloca ptr, align 8
  %this.addr.i241 = alloca ptr, align 8
  %other.addr.i = alloca ptr, align 8
  %retval.i239 = alloca %"class.v8::LocalBase.328", align 8
  %slot.addr.i240 = alloca ptr, align 8
  %retval.i237 = alloca %"class.v8::Local.327", align 8
  %slot.addr.i238 = alloca ptr, align 8
  %ref.tmp.i = alloca %"class.v8::LocalBase.328", align 8
  %isolate.addr.i236 = alloca ptr, align 8
  %index.addr.i = alloca i32, align 4
  %addr.i = alloca i64, align 8
  %isolate.addr.i235 = alloca ptr, align 8
  %this.addr.i.i231 = alloca ptr, align 8
  %this.addr.i232 = alloca ptr, align 8
  %this.addr.i.i = alloca ptr, align 8
  %this.addr.i229 = alloca ptr, align 8
  %this.addr.i227 = alloca ptr, align 8
  %this.addr.i225 = alloca ptr, align 8
  %this.addr.i223 = alloca ptr, align 8
  %this.addr.i221 = alloca ptr, align 8
  %this.addr.i219 = alloca ptr, align 8
  %this.addr.i217 = alloca ptr, align 8
  %slot.addr.i216 = alloca ptr, align 8
  %slot.addr.i = alloca ptr, align 8
  %this.addr.i212 = alloca ptr, align 8
  %this.addr.i210 = alloca ptr, align 8
  %this.addr.i207 = alloca ptr, align 8
  %this.addr.i204 = alloca ptr, align 8
  %this.addr.i201 = alloca ptr, align 8
  %this.addr.i198 = alloca ptr, align 8
  %that.i195 = alloca %"class.v8::Local.327", align 8
  %this.addr.i196 = alloca ptr, align 8
  %retval.i = alloca %"class.v8::Local.327", align 8
  %isolate.addr.i = alloca ptr, align 8
  %slot.i = alloca ptr, align 8
  %this.addr.i191 = alloca ptr, align 8
  %this.addr.i189 = alloca ptr, align 8
  %that.i186 = alloca %"class.v8::Local.320", align 8
  %this.addr.i187 = alloca ptr, align 8
  %this.addr.i181 = alloca ptr, align 8
  %out.addr.i182 = alloca ptr, align 8
  %this.addr.i179 = alloca ptr, align 8
  %this.addr.i176 = alloca ptr, align 8
  %that.i = alloca %"class.v8::Local.315", align 8
  %this.addr.i174 = alloca ptr, align 8
  %this.addr.i171 = alloca ptr, align 8
  %this.addr.i168 = alloca ptr, align 8
  %this.addr.i163 = alloca ptr, align 8
  %out.addr.i164 = alloca ptr, align 8
  %this.addr.i161 = alloca ptr, align 8
  %this.addr.i158 = alloca ptr, align 8
  %out.addr.i = alloca ptr, align 8
  %this.addr.i156 = alloca ptr, align 8
  %this.addr.i155 = alloca ptr, align 8
  %context.i = alloca %"class.v8::Local", align 8
  %this.addr.i = alloca ptr, align 8
  %result = alloca %"class.v8::Local.320", align 8
  %this.addr = alloca ptr, align 8
  %isolate = alloca ptr, align 8
  %context = alloca %"class.v8::Local", align 8
  %handle_scope = alloca %"class.v8::HandleScope", align 8
  %context_scope = alloca %"class.v8::Context::Scope", align 8
  %agg.tmp = alloca %"class.v8::Local", align 8
  %ref.tmp = alloca %"class.v8::Local.325", align 8
  %cleanup.dest.slot = alloca i32, align 4
  %profile = alloca %"class.v8::Local.320", align 8
  %ref.tmp18 = alloca %"class.v8::MaybeLocal.324", align 8
  %agg.tmp19 = alloca %"class.v8::Local.320", align 8
  %source_map_cache_v = alloca %"class.v8::Local.317", align 8
  %try_catch = alloca %"class.node::errors::TryCatchScope", align 8
  %allow_js_here = alloca %"class.v8::Isolate::AllowJavascriptExecutionScope", align 8
  %source_map_cache_getter = alloca %"class.v8::Local.325", align 8
  %ref.tmp37 = alloca %"class.v8::MaybeLocal.319", align 8
  %agg.tmp39 = alloca %"class.v8::Local", align 8
  %agg.tmp40 = alloca %"class.v8::Local.317", align 8
  %agg.tmp41 = alloca %"class.v8::Local.327", align 8
  %agg.tmp67 = alloca %"class.v8::Local", align 8
  %ref.tmp78 = alloca %"class.v8::Maybe", align 1
  %agg.tmp80 = alloca %"class.v8::Local", align 8
  %agg.tmp81 = alloca %"class.v8::Local.317", align 8
  %agg.tmp82 = alloca %"class.v8::Local.315", align 8
  %agg.tmp90 = alloca %"class.v8::Local.317", align 8
  %result_s = alloca %"class.v8::Local.315", align 8
  %ref.tmp103 = alloca %"class.v8::MaybeLocal", align 8
  %agg.tmp104 = alloca %"class.v8::Local", align 8
  %agg.tmp105 = alloca %"class.v8::Local.317", align 8
  %agg.tmp106 = alloca %"class.v8::Local.320", align 8
  %agg.tmp110 = alloca %"class.v8::Local.315", align 8
  %directory = alloca %"class.std::__cxx11::basic_string", align 8
  %filename = alloca %"class.std::__cxx11::basic_string", align 8
  %path = alloca %"class.std::__cxx11::basic_string", align 8
  %ref.tmp143 = alloca %"class.std::__cxx11::basic_string", align 8
  %agg.tmp146 = alloca %"class.v8::Local.315", align 8
  %coerce.dive = getelementptr inbounds %"class.v8::Local.320", ptr %result, i32 0, i32 0
  %coerce.dive1 = getelementptr inbounds %"class.v8::LocalBase.321", ptr %coerce.dive, i32 0, i32 0
  %coerce.dive2 = getelementptr inbounds %"class.v8::IndirectHandleBase", ptr %coerce.dive1, i32 0, i32 0
  store ptr %result.coerce, ptr %coerce.dive2, align 8
  store ptr %this, ptr %this.addr, align 8
  %this3 = load ptr, ptr %this.addr, align 8
  %env_ = getelementptr inbounds %"class.node::profiler::V8ProfilerConnection", ptr %this3, i32 0, i32 4
  %0 = load ptr, ptr %env_, align 8
  %call = call noundef ptr @_ZNK4node11Environment7isolateEv(ptr noundef nonnull align 8 dereferenceable(2872) %0)
  store ptr %call, ptr %isolate, align 8
  %env_4 = getelementptr inbounds %"class.node::profiler::V8ProfilerConnection", ptr %this3, i32 0, i32 4
  %1 = load ptr, ptr %env_4, align 8
  %call5 = call ptr @_ZNK4node11Environment7contextEv(ptr noundef nonnull align 8 dereferenceable(2872) %1)
  %coerce.dive6 = getelementptr inbounds %"class.v8::Local", ptr %context, i32 0, i32 0
  %coerce.dive7 = getelementptr inbounds %"class.v8::LocalBase", ptr %coerce.dive6, i32 0, i32 0
  %coerce.dive8 = getelementptr inbounds %"class.v8::IndirectHandleBase", ptr %coerce.dive7, i32 0, i32 0
  store ptr %call5, ptr %coerce.dive8, align 8
  %2 = load ptr, ptr %isolate, align 8
  call void @_ZN2v811HandleScopeC1EPNS_7IsolateE(ptr noundef nonnull align 8 dereferenceable(24) %handle_scope, ptr noundef %2)
  call void @llvm.memcpy.p0.p0.i64(ptr align 8 %agg.tmp, ptr align 8 %context, i64 8, i1 false)
  %coerce.dive9 = getelementptr inbounds %"class.v8::Local", ptr %agg.tmp, i32 0, i32 0
  %coerce.dive10 = getelementptr inbounds %"class.v8::LocalBase", ptr %coerce.dive9, i32 0, i32 0
  %coerce.dive11 = getelementptr inbounds %"class.v8::IndirectHandleBase", ptr %coerce.dive10, i32 0, i32 0
  %3 = load ptr, ptr %coerce.dive11, align 8
  store ptr %3, ptr %context.i, align 8
  store ptr %context_scope, ptr %this.addr.i, align 8
  %this3.i = load ptr, ptr %this.addr.i, align 8
  call void @llvm.memcpy.p0.p0.i64(ptr align 8 %this3.i, ptr align 8 %context.i, i64 8, i1 false)
  store ptr %this3.i, ptr %this.addr.i207, align 8
  %this1.i208 = load ptr, ptr %this.addr.i207, align 8
  store ptr %this1.i208, ptr %this.addr.i210, align 8
  %this1.i211 = load ptr, ptr %this.addr.i210, align 8
  store ptr %this1.i211, ptr %this.addr.i219, align 8
  %this1.i220 = load ptr, ptr %this.addr.i219, align 8
  %4 = load ptr, ptr %this1.i220, align 8
  store ptr %4, ptr %slot.addr.i216, align 8
  %5 = load ptr, ptr %slot.addr.i216, align 8
  call void @_ZN2v87Context5EnterEv(ptr noundef nonnull align 1 dereferenceable(1) %5) #3
  %env_12 = getelementptr inbounds %"class.node::profiler::V8ProfilerConnection", ptr %this3, i32 0, i32 4
  %6 = load ptr, ptr %env_12, align 8
  %call13 = call ptr @_ZNK4node11Environment23source_map_cache_getterEv(ptr noundef nonnull align 8 dereferenceable(2872) %6)
  %coerce.dive14 = getelementptr inbounds %"class.v8::Local.325", ptr %ref.tmp, i32 0, i32 0
  %coerce.dive15 = getelementptr inbounds %"class.v8::LocalBase.326", ptr %coerce.dive14, i32 0, i32 0
  %coerce.dive16 = getelementptr inbounds %"class.v8::IndirectHandleBase", ptr %coerce.dive15, i32 0, i32 0
  store ptr %call13, ptr %coerce.dive16, align 8
  store ptr %ref.tmp, ptr %this.addr.i189, align 8
  %this1.i190 = load ptr, ptr %this.addr.i189, align 8
  %7 = load ptr, ptr %this1.i190, align 8
  %cmp.i = icmp eq ptr %7, null
  br i1 %cmp.i, label %if.then, label %if.end

if.then:                                          ; preds = %entry
  store i32 1, ptr %cleanup.dest.slot, align 4
  br label %cleanup151

if.end:                                           ; preds = %entry
  store ptr %profile, ptr %this.addr.i179, align 8
  %this1.i180 = load ptr, ptr %this.addr.i179, align 8
  store ptr %this1.i180, ptr %this.addr.i232, align 8
  %this1.i233 = load ptr, ptr %this.addr.i232, align 8
  store ptr %this1.i233, ptr %this.addr.i.i231, align 8
  %this1.i.i234 = load ptr, ptr %this.addr.i.i231, align 8
  store ptr null, ptr %this1.i.i234, align 8
  call void @llvm.memcpy.p0.p0.i64(ptr align 8 %agg.tmp19, ptr align 8 %result, i64 8, i1 false)
  %coerce.dive20 = getelementptr inbounds %"class.v8::Local.320", ptr %agg.tmp19, i32 0, i32 0
  %coerce.dive21 = getelementptr inbounds %"class.v8::LocalBase.321", ptr %coerce.dive20, i32 0, i32 0
  %coerce.dive22 = getelementptr inbounds %"class.v8::IndirectHandleBase", ptr %coerce.dive21, i32 0, i32 0
  %8 = load ptr, ptr %coerce.dive22, align 8
  %vtable = load ptr, ptr %this3, align 8
  %vfn = getelementptr inbounds ptr, ptr %vtable, i64 8
  %9 = load ptr, ptr %vfn, align 8
  %call23 = call ptr %9(ptr noundef nonnull align 8 dereferenceable(97) %this3, ptr %8)
  %coerce.dive24 = getelementptr inbounds %"class.v8::MaybeLocal.324", ptr %ref.tmp18, i32 0, i32 0
  %coerce.dive25 = getelementptr inbounds %"class.v8::Local.320", ptr %coerce.dive24, i32 0, i32 0
  %coerce.dive26 = getelementptr inbounds %"class.v8::LocalBase.321", ptr %coerce.dive25, i32 0, i32 0
  %coerce.dive27 = getelementptr inbounds %"class.v8::IndirectHandleBase", ptr %coerce.dive26, i32 0, i32 0
  store ptr %call23, ptr %coerce.dive27, align 8
  store ptr %ref.tmp18, ptr %this.addr.i181, align 8
  store ptr %profile, ptr %out.addr.i182, align 8
  %this1.i183 = load ptr, ptr %this.addr.i181, align 8
  %10 = load ptr, ptr %out.addr.i182, align 8
  call void @llvm.memcpy.p0.p0.i64(ptr align 8 %10, ptr align 8 %this1.i183, i64 8, i1 false)
  store ptr %this1.i183, ptr %this.addr.i306, align 8
  %this1.i307 = load ptr, ptr %this.addr.i306, align 8
  store ptr %this1.i307, ptr %this.addr.i.i305, align 8
  %this1.i.i308 = load ptr, ptr %this.addr.i.i305, align 8
  %11 = load ptr, ptr %this1.i.i308, align 8
  %cmp.i.i309 = icmp eq ptr %11, null
  %lnot.i185 = xor i1 %cmp.i.i309, true
  %lnot = xor i1 %lnot.i185, true
  br i1 %lnot, label %if.then29, label %if.end30

if.then29:                                        ; preds = %if.end
  store i32 1, ptr %cleanup.dest.slot, align 4
  br label %cleanup151

if.end30:                                         ; preds = %if.end
  store ptr %source_map_cache_v, ptr %this.addr.i161, align 8
  %this1.i162 = load ptr, ptr %this.addr.i161, align 8
  store ptr %this1.i162, ptr %this.addr.i229, align 8
  %this1.i230 = load ptr, ptr %this.addr.i229, align 8
  store ptr %this1.i230, ptr %this.addr.i.i, align 8
  %this1.i.i = load ptr, ptr %this.addr.i.i, align 8
  store ptr null, ptr %this1.i.i, align 8
  %call31 = call noundef ptr @_ZNK4node8profiler20V8ProfilerConnection3envEv(ptr noundef nonnull align 8 dereferenceable(88) %this3)
  call void @_ZN4node6errors13TryCatchScopeC2EPNS_11EnvironmentENS1_9CatchModeE(ptr noundef nonnull align 8 dereferenceable(60) %try_catch, ptr noundef %call31, i32 noundef 0)
  %12 = load ptr, ptr %isolate, align 8
  call void @_ZN2v87Isolate29AllowJavascriptExecutionScopeC1EPS0_(ptr noundef nonnull align 8 dereferenceable(11) %allow_js_here, ptr noundef %12)
  %env_32 = getelementptr inbounds %"class.node::profiler::V8ProfilerConnection", ptr %this3, i32 0, i32 4
  %13 = load ptr, ptr %env_32, align 8
  %call33 = call ptr @_ZNK4node11Environment23source_map_cache_getterEv(ptr noundef nonnull align 8 dereferenceable(2872) %13)
  %coerce.dive34 = getelementptr inbounds %"class.v8::Local.325", ptr %source_map_cache_getter, i32 0, i32 0
  %coerce.dive35 = getelementptr inbounds %"class.v8::LocalBase.326", ptr %coerce.dive34, i32 0, i32 0
  %coerce.dive36 = getelementptr inbounds %"class.v8::IndirectHandleBase", ptr %coerce.dive35, i32 0, i32 0
  store ptr %call33, ptr %coerce.dive36, align 8
  store ptr %source_map_cache_getter, ptr %this.addr.i191, align 8
  %this1.i192 = load ptr, ptr %this.addr.i191, align 8
  store ptr %this1.i192, ptr %this.addr.i276, align 8
  %this1.i277 = load ptr, ptr %this.addr.i276, align 8
  store ptr %this1.i277, ptr %this.addr.i.i275, align 8
  %this1.i.i278 = load ptr, ptr %this.addr.i.i275, align 8
  %14 = load ptr, ptr %this1.i.i278, align 8
  store ptr %14, ptr %slot.addr.i279, align 8
  %15 = load ptr, ptr %slot.addr.i279, align 8
  call void @llvm.memcpy.p0.p0.i64(ptr align 8 %agg.tmp39, ptr align 8 %context, i64 8, i1 false)
  %16 = load ptr, ptr %isolate, align 8
  store ptr %16, ptr %isolate.addr.i, align 8
  %17 = load ptr, ptr %isolate.addr.i, align 8
  store ptr %17, ptr %isolate.addr.i235, align 8
  %18 = load ptr, ptr %isolate.addr.i, align 8
  store ptr %18, ptr %isolate.addr.i236, align 8
  store i32 4, ptr %index.addr.i, align 4
  %19 = load ptr, ptr %isolate.addr.i236, align 8
  %20 = ptrtoint ptr %19 to i64
  %add.i = add i64 %20, 576
  %21 = load i32, ptr %index.addr.i, align 4
  %mul.i = mul nsw i32 %21, 8
  %conv.i = sext i32 %mul.i to i64
  %add1.i = add i64 %add.i, %conv.i
  store i64 %add1.i, ptr %addr.i, align 8
  %22 = load i64, ptr %addr.i, align 8
  %23 = inttoptr i64 %22 to ptr
  store ptr %23, ptr %slot.i, align 8
  %24 = load ptr, ptr %slot.i, align 8
  store ptr %24, ptr %slot.addr.i238, align 8
  %25 = load ptr, ptr %slot.addr.i238, align 8
  store ptr %25, ptr %slot.addr.i240, align 8
  %26 = load ptr, ptr %slot.addr.i240, align 8
  store ptr %retval.i239, ptr %this.addr.i243, align 8
  store ptr %26, ptr %location.addr.i, align 8
  %this1.i244 = load ptr, ptr %this.addr.i243, align 8
  %27 = load ptr, ptr %location.addr.i, align 8
  store ptr %this1.i244, ptr %this.addr.i245, align 8
  store ptr %27, ptr %location.addr.i246, align 8
  %this1.i247 = load ptr, ptr %this.addr.i245, align 8
  %28 = load ptr, ptr %location.addr.i246, align 8
  store ptr %28, ptr %this1.i247, align 8
  %29 = load ptr, ptr %retval.i239, align 8
  store ptr %29, ptr %ref.tmp.i, align 8
  store ptr %retval.i237, ptr %this.addr.i241, align 8
  store ptr %ref.tmp.i, ptr %other.addr.i, align 8
  %this1.i242 = load ptr, ptr %this.addr.i241, align 8
  %30 = load ptr, ptr %other.addr.i, align 8
  call void @llvm.memcpy.p0.p0.i64(ptr align 8 %this1.i242, ptr align 8 %30, i64 8, i1 false)
  %31 = load ptr, ptr %retval.i237, align 8
  store ptr %31, ptr %retval.i, align 8
  %32 = load ptr, ptr %retval.i, align 8
  %coerce.dive43 = getelementptr inbounds %"class.v8::Local.327", ptr %agg.tmp41, i32 0, i32 0
  %coerce.dive44 = getelementptr inbounds %"class.v8::LocalBase.328", ptr %coerce.dive43, i32 0, i32 0
  %coerce.dive45 = getelementptr inbounds %"class.v8::IndirectHandleBase", ptr %coerce.dive44, i32 0, i32 0
  store ptr %32, ptr %coerce.dive45, align 8
  %coerce.dive46 = getelementptr inbounds %"class.v8::Local.327", ptr %agg.tmp41, i32 0, i32 0
  %coerce.dive47 = getelementptr inbounds %"class.v8::LocalBase.328", ptr %coerce.dive46, i32 0, i32 0
  %coerce.dive48 = getelementptr inbounds %"class.v8::IndirectHandleBase", ptr %coerce.dive47, i32 0, i32 0
  %33 = load ptr, ptr %coerce.dive48, align 8
  store ptr %33, ptr %that.i195, align 8
  store ptr %agg.tmp40, ptr %this.addr.i196, align 8
  %this3.i197 = load ptr, ptr %this.addr.i196, align 8
  store ptr %this3.i197, ptr %this.addr.i310, align 8
  store ptr %that.i195, ptr %other.addr.i311, align 8
  %this1.i312 = load ptr, ptr %this.addr.i310, align 8
  %34 = load ptr, ptr %other.addr.i311, align 8
  call void @llvm.memcpy.p0.p0.i64(ptr align 8 %this1.i312, ptr align 8 %34, i64 8, i1 false)
  %coerce.dive49 = getelementptr inbounds %"class.v8::Local", ptr %agg.tmp39, i32 0, i32 0
  %coerce.dive50 = getelementptr inbounds %"class.v8::LocalBase", ptr %coerce.dive49, i32 0, i32 0
  %coerce.dive51 = getelementptr inbounds %"class.v8::IndirectHandleBase", ptr %coerce.dive50, i32 0, i32 0
  %35 = load ptr, ptr %coerce.dive51, align 8
  %coerce.dive52 = getelementptr inbounds %"class.v8::Local.317", ptr %agg.tmp40, i32 0, i32 0
  %coerce.dive53 = getelementptr inbounds %"class.v8::LocalBase.318", ptr %coerce.dive52, i32 0, i32 0
  %coerce.dive54 = getelementptr inbounds %"class.v8::IndirectHandleBase", ptr %coerce.dive53, i32 0, i32 0
  %36 = load ptr, ptr %coerce.dive54, align 8
  %call55 = call ptr @_ZN2v88Function4CallENS_5LocalINS_7ContextEEENS1_INS_5ValueEEEiPS5_(ptr noundef nonnull align 1 dereferenceable(1) %15, ptr %35, ptr %36, i32 noundef 0, ptr noundef null)
  %coerce.dive56 = getelementptr inbounds %"class.v8::MaybeLocal.319", ptr %ref.tmp37, i32 0, i32 0
  %coerce.dive57 = getelementptr inbounds %"class.v8::Local.317", ptr %coerce.dive56, i32 0, i32 0
  %coerce.dive58 = getelementptr inbounds %"class.v8::LocalBase.318", ptr %coerce.dive57, i32 0, i32 0
  %coerce.dive59 = getelementptr inbounds %"class.v8::IndirectHandleBase", ptr %coerce.dive58, i32 0, i32 0
  store ptr %call55, ptr %coerce.dive59, align 8
  store ptr %ref.tmp37, ptr %this.addr.i163, align 8
  store ptr %source_map_cache_v, ptr %out.addr.i164, align 8
  %this1.i165 = load ptr, ptr %this.addr.i163, align 8
  %37 = load ptr, ptr %out.addr.i164, align 8
  call void @llvm.memcpy.p0.p0.i64(ptr align 8 %37, ptr align 8 %this1.i165, i64 8, i1 false)
  store ptr %this1.i165, ptr %this.addr.i301, align 8
  %this1.i302 = load ptr, ptr %this.addr.i301, align 8
  store ptr %this1.i302, ptr %this.addr.i.i300, align 8
  %this1.i.i303 = load ptr, ptr %this.addr.i.i300, align 8
  %38 = load ptr, ptr %this1.i.i303, align 8
  %cmp.i.i304 = icmp eq ptr %38, null
  %lnot.i167 = xor i1 %cmp.i.i304, true
  %lnot61 = xor i1 %lnot.i167, true
  br i1 %lnot61, label %if.then62, label %if.end63

if.then62:                                        ; preds = %if.end30
  store i32 1, ptr %cleanup.dest.slot, align 4
  br label %cleanup

if.end63:                                         ; preds = %if.end30
  store i32 0, ptr %cleanup.dest.slot, align 4
  br label %cleanup

cleanup:                                          ; preds = %if.end63, %if.then62
  call void @_ZN2v87Isolate29AllowJavascriptExecutionScopeD1Ev(ptr noundef nonnull align 8 dereferenceable(11) %allow_js_here) #3
  %cleanup.dest = load i32, ptr %cleanup.dest.slot, align 4
  switch i32 %cleanup.dest, label %cleanup72 [
    i32 0, label %cleanup.cont
  ]

cleanup.cont:                                     ; preds = %cleanup
  %call64 = call noundef zeroext i1 @_ZNK2v88TryCatch9HasCaughtEv(ptr noundef nonnull align 8 dereferenceable(41) %try_catch)
  br i1 %call64, label %land.lhs.true, label %if.end71

land.lhs.true:                                    ; preds = %cleanup.cont
  %call65 = call noundef zeroext i1 @_ZNK2v88TryCatch13HasTerminatedEv(ptr noundef nonnull align 8 dereferenceable(41) %try_catch)
  br i1 %call65, label %if.end71, label %if.then66

if.then66:                                        ; preds = %land.lhs.true
  %39 = load ptr, ptr %isolate, align 8
  call void @llvm.memcpy.p0.p0.i64(ptr align 8 %agg.tmp67, ptr align 8 %context, i64 8, i1 false)
  %coerce.dive68 = getelementptr inbounds %"class.v8::Local", ptr %agg.tmp67, i32 0, i32 0
  %coerce.dive69 = getelementptr inbounds %"class.v8::LocalBase", ptr %coerce.dive68, i32 0, i32 0
  %coerce.dive70 = getelementptr inbounds %"class.v8::IndirectHandleBase", ptr %coerce.dive69, i32 0, i32 0
  %40 = load ptr, ptr %coerce.dive70, align 8
  call void @_ZN4node20PrintCaughtExceptionEPN2v87IsolateENS0_5LocalINS0_7ContextEEERKNS0_8TryCatchE(ptr noundef %39, ptr %40, ptr noundef nonnull align 8 dereferenceable(41) %try_catch)
  br label %if.end71

if.end71:                                         ; preds = %if.then66, %land.lhs.true, %cleanup.cont
  store i32 0, ptr %cleanup.dest.slot, align 4
  br label %cleanup72

cleanup72:                                        ; preds = %if.end71, %cleanup
  call void @_ZN4node6errors13TryCatchScopeD1Ev(ptr noundef nonnull align 8 dereferenceable(60) %try_catch) #3
  %cleanup.dest73 = load i32, ptr %cleanup.dest.slot, align 4
  switch i32 %cleanup.dest73, label %cleanup151 [
    i32 0, label %cleanup.cont74
  ]

cleanup.cont74:                                   ; preds = %cleanup72
  store ptr %source_map_cache_v, ptr %this.addr.i168, align 8
  %this1.i169 = load ptr, ptr %this.addr.i168, align 8
  store ptr %this1.i169, ptr %this.addr.i293, align 8
  %this1.i294 = load ptr, ptr %this.addr.i293, align 8
  store ptr %this1.i294, ptr %this.addr.i.i292, align 8
  %this1.i.i295 = load ptr, ptr %this.addr.i.i292, align 8
  %41 = load ptr, ptr %this1.i.i295, align 8
  store ptr %41, ptr %slot.addr.i296, align 8
  %42 = load ptr, ptr %slot.addr.i296, align 8
  store ptr %42, ptr %this.addr.i198, align 8
  %this1.i199 = load ptr, ptr %this.addr.i198, align 8
  store ptr %this1.i199, ptr %this.addr.i249, align 8
  %this1.i250 = load ptr, ptr %this.addr.i249, align 8
  store ptr %this1.i250, ptr %value.addr.i, align 8
  %43 = load ptr, ptr %value.addr.i, align 8
  %44 = load i64, ptr %43, align 8
  store i64 %44, ptr %obj.i, align 8
  %45 = load i64, ptr %obj.i, align 8
  store i64 %45, ptr %value.addr.i252, align 8
  %46 = load i64, ptr %value.addr.i252, align 8
  %and.i = and i64 %46, 3
  %cmp.i253 = icmp eq i64 %and.i, 1
  br i1 %cmp.i253, label %if.end.i, label %if.then.i

if.then.i:                                        ; preds = %cleanup.cont74
  store i1 false, ptr %retval.i248, align 1
  br label %_ZNK2v85Value16QuickIsUndefinedEv.exit

if.end.i:                                         ; preds = %cleanup.cont74
  %47 = load i64, ptr %obj.i, align 8
  store i64 %47, ptr %obj.addr.i, align 8
  %48 = load i64, ptr %obj.addr.i, align 8
  store i64 %48, ptr %heap_object_ptr.addr.i, align 8
  store i32 0, ptr %offset.addr.i, align 4
  %49 = load i64, ptr %heap_object_ptr.addr.i, align 8
  %50 = load i32, ptr %offset.addr.i, align 4
  store i64 %49, ptr %heap_object_ptr.addr.i264, align 8
  store i32 %50, ptr %offset.addr.i265, align 4
  %51 = load i64, ptr %heap_object_ptr.addr.i264, align 8
  %52 = load i32, ptr %offset.addr.i265, align 4
  %conv.i267 = sext i32 %52 to i64
  %add.i268 = add i64 %51, %conv.i267
  %sub.i269 = sub i64 %add.i268, 1
  store i64 %sub.i269, ptr %addr.i266, align 8
  %53 = load i64, ptr %addr.i266, align 8
  %54 = inttoptr i64 %53 to ptr
  %55 = load i64, ptr %54, align 8
  store i64 %55, ptr %map.i, align 8
  %56 = load i64, ptr %map.i, align 8
  store i64 %56, ptr %heap_object_ptr.addr.i259, align 8
  store i32 12, ptr %offset.addr.i260, align 4
  %57 = load i64, ptr %heap_object_ptr.addr.i259, align 8
  %58 = load i32, ptr %offset.addr.i260, align 4
  %conv.i262 = sext i32 %58 to i64
  %add.i263 = add i64 %57, %conv.i262
  %sub.i = sub i64 %add.i263, 1
  store i64 %sub.i, ptr %addr.i261, align 8
  %59 = load i64, ptr %addr.i261, align 8
  %60 = inttoptr i64 %59 to ptr
  %61 = load i16, ptr %60, align 2
  %conv.i254 = zext i16 %61 to i32
  %cmp.i251 = icmp ne i32 %conv.i254, 131
  br i1 %cmp.i251, label %if.then4.i, label %if.end5.i

if.then4.i:                                       ; preds = %if.end.i
  store i1 false, ptr %retval.i248, align 1
  br label %_ZNK2v85Value16QuickIsUndefinedEv.exit

if.end5.i:                                        ; preds = %if.end.i
  %62 = load i64, ptr %obj.i, align 8
  store i64 %62, ptr %obj.addr.i255, align 8
  %63 = load i64, ptr %obj.addr.i255, align 8
  store i64 %63, ptr %heap_object_ptr.addr.i271, align 8
  store i32 40, ptr %offset.addr.i272, align 4
  %64 = load i64, ptr %heap_object_ptr.addr.i271, align 8
  %65 = load i32, ptr %offset.addr.i272, align 4
  store i64 %64, ptr %heap_object_ptr.addr.i.i, align 8
  store i32 %65, ptr %offset.addr.i.i, align 4
  %66 = load i64, ptr %heap_object_ptr.addr.i.i, align 8
  %67 = load i32, ptr %offset.addr.i.i, align 4
  %conv.i.i = sext i32 %67 to i64
  %add.i.i = add i64 %66, %conv.i.i
  %sub.i.i = sub i64 %add.i.i, 1
  store i64 %sub.i.i, ptr %addr.i.i, align 8
  %68 = load i64, ptr %addr.i.i, align 8
  %69 = inttoptr i64 %68 to ptr
  %70 = load i64, ptr %69, align 8
  store i64 %70, ptr %value.addr.i270, align 8
  %71 = load i64, ptr %value.addr.i270, align 8
  store i64 %71, ptr %value.addr.i273, align 8
  store i32 32, ptr %shift_bits.i, align 4
  %72 = load i64, ptr %value.addr.i273, align 8
  %73 = load i32, ptr %shift_bits.i, align 4
  %sh_prom.i = zext i32 %73 to i64
  %shr.i = ashr i64 %72, %sh_prom.i
  %conv.i274 = trunc i64 %shr.i to i32
  %cmp7.i = icmp eq i32 %conv.i274, 5
  store i1 %cmp7.i, ptr %retval.i248, align 1
  br label %_ZNK2v85Value16QuickIsUndefinedEv.exit

_ZNK2v85Value16QuickIsUndefinedEv.exit:           ; preds = %if.end5.i, %if.then4.i, %if.then.i
  %74 = load i1, ptr %retval.i248, align 1
  br i1 %74, label %if.end102, label %if.then77

if.then77:                                        ; preds = %_ZNK2v85Value16QuickIsUndefinedEv.exit
  store ptr %profile, ptr %this.addr.i171, align 8
  %this1.i172 = load ptr, ptr %this.addr.i171, align 8
  store ptr %this1.i172, ptr %this.addr.i281, align 8
  %this1.i282 = load ptr, ptr %this.addr.i281, align 8
  store ptr %this1.i282, ptr %this.addr.i.i280, align 8
  %this1.i.i283 = load ptr, ptr %this.addr.i.i280, align 8
  %75 = load ptr, ptr %this1.i.i283, align 8
  store ptr %75, ptr %slot.addr.i284, align 8
  %76 = load ptr, ptr %slot.addr.i284, align 8
  call void @llvm.memcpy.p0.p0.i64(ptr align 8 %agg.tmp80, ptr align 8 %context, i64 8, i1 false)
  %77 = load ptr, ptr %isolate, align 8
  %call83 = call ptr @_ZN4node21FIXED_ONE_BYTE_STRINGILi17EEEN2v85LocalINS1_6StringEEEPNS1_7IsolateERAT__Kc(ptr noundef %77, ptr noundef nonnull align 1 dereferenceable(17) @.str.17)
  %coerce.dive84 = getelementptr inbounds %"class.v8::Local.315", ptr %agg.tmp82, i32 0, i32 0
  %coerce.dive85 = getelementptr inbounds %"class.v8::LocalBase.316", ptr %coerce.dive84, i32 0, i32 0
  %coerce.dive86 = getelementptr inbounds %"class.v8::IndirectHandleBase", ptr %coerce.dive85, i32 0, i32 0
  store ptr %call83, ptr %coerce.dive86, align 8
  %coerce.dive87 = getelementptr inbounds %"class.v8::Local.315", ptr %agg.tmp82, i32 0, i32 0
  %coerce.dive88 = getelementptr inbounds %"class.v8::LocalBase.316", ptr %coerce.dive87, i32 0, i32 0
  %coerce.dive89 = getelementptr inbounds %"class.v8::IndirectHandleBase", ptr %coerce.dive88, i32 0, i32 0
  %78 = load ptr, ptr %coerce.dive89, align 8
  store ptr %78, ptr %that.i, align 8
  store ptr %agg.tmp81, ptr %this.addr.i174, align 8
  %this3.i175 = load ptr, ptr %this.addr.i174, align 8
  store ptr %this3.i175, ptr %this.addr.i285, align 8
  store ptr %that.i, ptr %other.addr.i286, align 8
  %this1.i287 = load ptr, ptr %this.addr.i285, align 8
  %79 = load ptr, ptr %other.addr.i286, align 8
  call void @llvm.memcpy.p0.p0.i64(ptr align 8 %this1.i287, ptr align 8 %79, i64 8, i1 false)
  call void @llvm.memcpy.p0.p0.i64(ptr align 8 %agg.tmp90, ptr align 8 %source_map_cache_v, i64 8, i1 false)
  %coerce.dive91 = getelementptr inbounds %"class.v8::Local", ptr %agg.tmp80, i32 0, i32 0
  %coerce.dive92 = getelementptr inbounds %"class.v8::LocalBase", ptr %coerce.dive91, i32 0, i32 0
  %coerce.dive93 = getelementptr inbounds %"class.v8::IndirectHandleBase", ptr %coerce.dive92, i32 0, i32 0
  %80 = load ptr, ptr %coerce.dive93, align 8
  %coerce.dive94 = getelementptr inbounds %"class.v8::Local.317", ptr %agg.tmp81, i32 0, i32 0
  %coerce.dive95 = getelementptr inbounds %"class.v8::LocalBase.318", ptr %coerce.dive94, i32 0, i32 0
  %coerce.dive96 = getelementptr inbounds %"class.v8::IndirectHandleBase", ptr %coerce.dive95, i32 0, i32 0
  %81 = load ptr, ptr %coerce.dive96, align 8
  %coerce.dive97 = getelementptr inbounds %"class.v8::Local.317", ptr %agg.tmp90, i32 0, i32 0
  %coerce.dive98 = getelementptr inbounds %"class.v8::LocalBase.318", ptr %coerce.dive97, i32 0, i32 0
  %coerce.dive99 = getelementptr inbounds %"class.v8::IndirectHandleBase", ptr %coerce.dive98, i32 0, i32 0
  %82 = load ptr, ptr %coerce.dive99, align 8
  %call100 = call i16 @_ZN2v86Object3SetENS_5LocalINS_7ContextEEENS1_INS_5ValueEEES5_(ptr noundef nonnull align 1 dereferenceable(1) %76, ptr %80, ptr %81, ptr %82)
  store i16 %call100, ptr %ref.tmp78, align 1
  store ptr %ref.tmp78, ptr %this.addr.i201, align 8
  %this1.i202 = load ptr, ptr %this.addr.i201, align 8
  store ptr %this1.i202, ptr %this.addr.i313, align 8
  %this1.i314 = load ptr, ptr %this.addr.i313, align 8
  store ptr %this1.i314, ptr %this.addr.i318, align 8
  %this1.i319 = load ptr, ptr %this.addr.i318, align 8
  %83 = load i8, ptr %this1.i319, align 1
  %tobool.i320 = trunc i8 %83 to i1
  %lnot3.i = xor i1 %tobool.i320, true
  br i1 %lnot3.i, label %if.then.i317, label %_ZNKR2v85MaybeIbE8FromJustEv.exit

if.then.i317:                                     ; preds = %if.then77
  call void @_ZN2v812api_internal17FromJustIsNothingEv() #3
  br label %_ZNKR2v85MaybeIbE8FromJustEv.exit

_ZNKR2v85MaybeIbE8FromJustEv.exit:                ; preds = %if.then.i317, %if.then77
  br label %if.end102

if.end102:                                        ; preds = %_ZNKR2v85MaybeIbE8FromJustEv.exit, %_ZNK2v85Value16QuickIsUndefinedEv.exit
  store ptr %result_s, ptr %this.addr.i155, align 8
  %this1.i = load ptr, ptr %this.addr.i155, align 8
  store ptr %this1.i, ptr %this.addr.i223, align 8
  %this1.i224 = load ptr, ptr %this.addr.i223, align 8
  store ptr %this1.i224, ptr %this.addr.i225, align 8
  %this1.i226 = load ptr, ptr %this.addr.i225, align 8
  store ptr null, ptr %this1.i226, align 8
  call void @llvm.memcpy.p0.p0.i64(ptr align 8 %agg.tmp104, ptr align 8 %context, i64 8, i1 false)
  call void @llvm.memcpy.p0.p0.i64(ptr align 8 %agg.tmp106, ptr align 8 %profile, i64 8, i1 false)
  %coerce.dive107 = getelementptr inbounds %"class.v8::Local.320", ptr %agg.tmp106, i32 0, i32 0
  %coerce.dive108 = getelementptr inbounds %"class.v8::LocalBase.321", ptr %coerce.dive107, i32 0, i32 0
  %coerce.dive109 = getelementptr inbounds %"class.v8::IndirectHandleBase", ptr %coerce.dive108, i32 0, i32 0
  %84 = load ptr, ptr %coerce.dive109, align 8
  store ptr %84, ptr %that.i186, align 8
  store ptr %agg.tmp105, ptr %this.addr.i187, align 8
  %this3.i188 = load ptr, ptr %this.addr.i187, align 8
  store ptr %this3.i188, ptr %this.addr.i297, align 8
  store ptr %that.i186, ptr %other.addr.i298, align 8
  %this1.i299 = load ptr, ptr %this.addr.i297, align 8
  %85 = load ptr, ptr %other.addr.i298, align 8
  call void @llvm.memcpy.p0.p0.i64(ptr align 8 %this1.i299, ptr align 8 %85, i64 8, i1 false)
  call void @llvm.memset.p0.i64(ptr align 8 %agg.tmp110, i8 0, i64 8, i1 false)
  store ptr %agg.tmp110, ptr %this.addr.i156, align 8
  %this1.i157 = load ptr, ptr %this.addr.i156, align 8
  store ptr %this1.i157, ptr %this.addr.i221, align 8
  %this1.i222 = load ptr, ptr %this.addr.i221, align 8
  store ptr %this1.i222, ptr %this.addr.i227, align 8
  %this1.i228 = load ptr, ptr %this.addr.i227, align 8
  store ptr null, ptr %this1.i228, align 8
  %coerce.dive111 = getelementptr inbounds %"class.v8::Local", ptr %agg.tmp104, i32 0, i32 0
  %coerce.dive112 = getelementptr inbounds %"class.v8::LocalBase", ptr %coerce.dive111, i32 0, i32 0
  %coerce.dive113 = getelementptr inbounds %"class.v8::IndirectHandleBase", ptr %coerce.dive112, i32 0, i32 0
  %86 = load ptr, ptr %coerce.dive113, align 8
  %coerce.dive114 = getelementptr inbounds %"class.v8::Local.317", ptr %agg.tmp105, i32 0, i32 0
  %coerce.dive115 = getelementptr inbounds %"class.v8::LocalBase.318", ptr %coerce.dive114, i32 0, i32 0
  %coerce.dive116 = getelementptr inbounds %"class.v8::IndirectHandleBase", ptr %coerce.dive115, i32 0, i32 0
  %87 = load ptr, ptr %coerce.dive116, align 8
  %coerce.dive117 = getelementptr inbounds %"class.v8::Local.315", ptr %agg.tmp110, i32 0, i32 0
  %coerce.dive118 = getelementptr inbounds %"class.v8::LocalBase.316", ptr %coerce.dive117, i32 0, i32 0
  %coerce.dive119 = getelementptr inbounds %"class.v8::IndirectHandleBase", ptr %coerce.dive118, i32 0, i32 0
  %88 = load ptr, ptr %coerce.dive119, align 8
  %call120 = call ptr @_ZN2v84JSON9StringifyENS_5LocalINS_7ContextEEENS1_INS_5ValueEEENS1_INS_6StringEEE(ptr %86, ptr %87, ptr %88)
  %coerce.dive121 = getelementptr inbounds %"class.v8::MaybeLocal", ptr %ref.tmp103, i32 0, i32 0
  %coerce.dive122 = getelementptr inbounds %"class.v8::Local.315", ptr %coerce.dive121, i32 0, i32 0
  %coerce.dive123 = getelementptr inbounds %"class.v8::LocalBase.316", ptr %coerce.dive122, i32 0, i32 0
  %coerce.dive124 = getelementptr inbounds %"class.v8::IndirectHandleBase", ptr %coerce.dive123, i32 0, i32 0
  store ptr %call120, ptr %coerce.dive124, align 8
  store ptr %ref.tmp103, ptr %this.addr.i158, align 8
  store ptr %result_s, ptr %out.addr.i, align 8
  %this1.i159 = load ptr, ptr %this.addr.i158, align 8
  %89 = load ptr, ptr %out.addr.i, align 8
  call void @llvm.memcpy.p0.p0.i64(ptr align 8 %89, ptr align 8 %this1.i159, i64 8, i1 false)
  store ptr %this1.i159, ptr %this.addr.i289, align 8
  %this1.i290 = load ptr, ptr %this.addr.i289, align 8
  store ptr %this1.i290, ptr %this.addr.i.i288, align 8
  %this1.i.i291 = load ptr, ptr %this.addr.i.i288, align 8
  %90 = load ptr, ptr %this1.i.i291, align 8
  %cmp.i.i = icmp eq ptr %90, null
  %lnot.i = xor i1 %cmp.i.i, true
  %lnot126 = xor i1 %lnot.i, true
  br i1 %lnot126, label %if.then127, label %if.end132

if.then127:                                       ; preds = %if.end102
  %91 = load ptr, ptr @stderr, align 8
  %vtable128 = load ptr, ptr %this3, align 8
  %vfn129 = getelementptr inbounds ptr, ptr %vtable128, i64 4
  %92 = load ptr, ptr %vfn129, align 8
  %call130 = call noundef ptr %92(ptr noundef nonnull align 8 dereferenceable(97) %this3)
  %call131 = call i32 (ptr, ptr, ...) @fprintf(ptr noundef %91, ptr noundef @.str.16, ptr noundef %call130)
  store i32 1, ptr %cleanup.dest.slot, align 4
  br label %cleanup151

if.end132:                                        ; preds = %if.end102
  %vtable133 = load ptr, ptr %this3, align 8
  %vfn134 = getelementptr inbounds ptr, ptr %vtable133, i64 6
  %93 = load ptr, ptr %vfn134, align 8
  call void %93(ptr sret(%"class.std::__cxx11::basic_string") align 8 %directory, ptr noundef nonnull align 8 dereferenceable(97) %this3)
  %vtable135 = load ptr, ptr %this3, align 8
  %vfn136 = getelementptr inbounds ptr, ptr %vtable135, i64 4
  %94 = load ptr, ptr %vfn136, align 8
  %call137 = call noundef ptr %94(ptr noundef nonnull align 8 dereferenceable(97) %this3)
  %call138 = call noundef zeroext i1 @_ZN4node8profilerL15EnsureDirectoryERKNSt7__cxx1112basic_stringIcSt11char_traitsIcESaIcEEEPKc(ptr noundef nonnull align 8 dereferenceable(32) %directory, ptr noundef %call137)
  br i1 %call138, label %if.end140, label %if.then139

if.then139:                                       ; preds = %if.end132
  store i32 1, ptr %cleanup.dest.slot, align 4
  br label %cleanup150

if.end140:                                        ; preds = %if.end132
  %vtable141 = load ptr, ptr %this3, align 8
  %vfn142 = getelementptr inbounds ptr, ptr %vtable141, i64 7
  %95 = load ptr, ptr %vfn142, align 8
  call void %95(ptr sret(%"class.std::__cxx11::basic_string") align 8 %filename, ptr noundef nonnull align 8 dereferenceable(97) %this3)
  call void @_ZStplIcSt11char_traitsIcESaIcEENSt7__cxx1112basic_stringIT_T0_T1_EERKS8_S5_(ptr sret(%"class.std::__cxx11::basic_string") align 8 %ref.tmp143, ptr noundef nonnull align 8 dereferenceable(32) %directory, i8 noundef signext 47)
  call void @_ZStplIcSt11char_traitsIcESaIcEENSt7__cxx1112basic_stringIT_T0_T1_EEOS8_RKS8_(ptr sret(%"class.std::__cxx11::basic_string") align 8 %path, ptr noundef nonnull align 8 dereferenceable(32) %ref.tmp143, ptr noundef nonnull align 8 dereferenceable(32) %filename)
  call void @_ZNSt7__cxx1112basic_stringIcSt11char_traitsIcESaIcEED1Ev(ptr noundef nonnull align 8 dereferenceable(32) %ref.tmp143) #3
  %env_144 = getelementptr inbounds %"class.node::profiler::V8ProfilerConnection", ptr %this3, i32 0, i32 4
  %96 = load ptr, ptr %env_144, align 8
  %call145 = call noundef ptr @_ZNKSt7__cxx1112basic_stringIcSt11char_traitsIcESaIcEE5c_strEv(ptr noundef nonnull align 8 dereferenceable(32) %path) #3
  call void @llvm.memcpy.p0.p0.i64(ptr align 8 %agg.tmp146, ptr align 8 %result_s, i64 8, i1 false)
  %coerce.dive147 = getelementptr inbounds %"class.v8::Local.315", ptr %agg.tmp146, i32 0, i32 0
  %coerce.dive148 = getelementptr inbounds %"class.v8::LocalBase.316", ptr %coerce.dive147, i32 0, i32 0
  %coerce.dive149 = getelementptr inbounds %"class.v8::IndirectHandleBase", ptr %coerce.dive148, i32 0, i32 0
  %97 = load ptr, ptr %coerce.dive149, align 8
  call void @_ZN4node8profilerL11WriteResultEPNS_11EnvironmentEPKcN2v85LocalINS5_6StringEEE(ptr noundef %96, ptr noundef %call145, ptr %97)
  call void @_ZNSt7__cxx1112basic_stringIcSt11char_traitsIcESaIcEED1Ev(ptr noundef nonnull align 8 dereferenceable(32) %path) #3
  call void @_ZNSt7__cxx1112basic_stringIcSt11char_traitsIcESaIcEED1Ev(ptr noundef nonnull align 8 dereferenceable(32) %filename) #3
  store i32 0, ptr %cleanup.dest.slot, align 4
  br label %cleanup150

cleanup150:                                       ; preds = %if.end140, %if.then139
  call void @_ZNSt7__cxx1112basic_stringIcSt11char_traitsIcESaIcEED1Ev(ptr noundef nonnull align 8 dereferenceable(32) %directory) #3
  br label %cleanup151

cleanup151:                                       ; preds = %cleanup150, %if.then127, %cleanup72, %if.then29, %if.then
  store ptr %context_scope, ptr %this.addr.i176, align 8
  %this1.i177 = load ptr, ptr %this.addr.i176, align 8
  store ptr %this1.i177, ptr %this.addr.i204, align 8
  %this1.i205 = load ptr, ptr %this.addr.i204, align 8
  store ptr %this1.i205, ptr %this.addr.i212, align 8
  %this1.i213 = load ptr, ptr %this.addr.i212, align 8
  store ptr %this1.i213, ptr %this.addr.i217, align 8
  %this1.i218 = load ptr, ptr %this.addr.i217, align 8
  %98 = load ptr, ptr %this1.i218, align 8
  store ptr %98, ptr %slot.addr.i, align 8
  %99 = load ptr, ptr %slot.addr.i, align 8
  call void @_ZN2v87Context4ExitEv(ptr noundef nonnull align 1 dereferenceable(1) %99) #3
  call void @_ZN2v811HandleScopeD1Ev(ptr noundef nonnull align 8 dereferenceable(24) %handle_scope) #3
  %cleanup.dest153 = load i32, ptr %cleanup.dest.slot, align 4
  switch i32 %cleanup.dest153, label %unreachable [
    i32 0, label %cleanup.cont154
    i32 1, label %cleanup.cont154
  ]

cleanup.cont154:                                  ; preds = %cleanup151, %cleanup151
  ret void

unreachable:                                      ; preds = %cleanup151
  unreachable
}

; Function Attrs: mustprogress nounwind uwtable
define linkonce_odr dso_local ptr @_ZNK4node11Environment23source_map_cache_getterEv(ptr noundef nonnull align 8 dereferenceable(2872) %this) #4 comdat align 2 {
entry:
  %retval = alloca %"class.v8::Local.325", align 8
  %this.addr = alloca ptr, align 8
  store ptr %this, ptr %this.addr, align 8
  %this1 = load ptr, ptr %this.addr, align 8
  %principal_realm_ = getelementptr inbounds %"class.node::Environment", ptr %this1, i32 0, i32 89
  %call = call noundef ptr @_ZNKSt10unique_ptrIN4node14PrincipalRealmESt14default_deleteIS1_EEptEv(ptr noundef nonnull align 8 dereferenceable(8) %principal_realm_) #3
  %vtable = load ptr, ptr %call, align 8
  %vfn = getelementptr inbounds ptr, ptr %vtable, i64 111
  %0 = load ptr, ptr %vfn, align 8
  %call2 = call ptr %0(ptr noundef nonnull align 8 dereferenceable(872) %call)
  %coerce.dive = getelementptr inbounds %"class.v8::Local.325", ptr %retval, i32 0, i32 0
  %coerce.dive3 = getelementptr inbounds %"class.v8::LocalBase.326", ptr %coerce.dive, i32 0, i32 0
  %coerce.dive4 = getelementptr inbounds %"class.v8::IndirectHandleBase", ptr %coerce.dive3, i32 0, i32 0
  store ptr %call2, ptr %coerce.dive4, align 8
  %coerce.dive5 = getelementptr inbounds %"class.v8::Local.325", ptr %retval, i32 0, i32 0
  %coerce.dive6 = getelementptr inbounds %"class.v8::LocalBase.326", ptr %coerce.dive5, i32 0, i32 0
  %coerce.dive7 = getelementptr inbounds %"class.v8::IndirectHandleBase", ptr %coerce.dive6, i32 0, i32 0
  %1 = load ptr, ptr %coerce.dive7, align 8
  ret ptr %1
}

; Function Attrs: mustprogress nounwind uwtable
define linkonce_odr dso_local void @_ZN4node6errors13TryCatchScopeC2EPNS_11EnvironmentENS1_9CatchModeE(ptr noundef nonnull align 8 dereferenceable(60) %this, ptr noundef %env, i32 noundef %mode) unnamed_addr #4 comdat align 2 {
entry:
  %this.addr = alloca ptr, align 8
  %env.addr = alloca ptr, align 8
  %mode.addr = alloca i32, align 4
  store ptr %this, ptr %this.addr, align 8
  store ptr %env, ptr %env.addr, align 8
  store i32 %mode, ptr %mode.addr, align 4
  %this1 = load ptr, ptr %this.addr, align 8
  %0 = load ptr, ptr %env.addr, align 8
  %call = call noundef ptr @_ZNK4node11Environment7isolateEv(ptr noundef nonnull align 8 dereferenceable(2872) %0)
  call void @_ZN2v88TryCatchC2EPNS_7IsolateE(ptr noundef nonnull align 8 dereferenceable(41) %this1, ptr noundef %call)
  %env_ = getelementptr inbounds %"class.node::errors::TryCatchScope", ptr %this1, i32 0, i32 2
  %1 = load ptr, ptr %env.addr, align 8
  store ptr %1, ptr %env_, align 8
  %mode_ = getelementptr inbounds %"class.node::errors::TryCatchScope", ptr %this1, i32 0, i32 3
  %2 = load i32, ptr %mode.addr, align 4
  store i32 %2, ptr %mode_, align 8
  ret void
}

declare void @_ZN2v87Isolate29AllowJavascriptExecutionScopeC1EPS0_(ptr noundef nonnull align 8 dereferenceable(11), ptr noundef) unnamed_addr #1

declare ptr @_ZN2v88Function4CallENS_5LocalINS_7ContextEEENS1_INS_5ValueEEEiPS5_(ptr noundef nonnull align 1 dereferenceable(1), ptr, ptr, i32 noundef, ptr noundef) #1

; Function Attrs: nounwind
declare void @_ZN2v87Isolate29AllowJavascriptExecutionScopeD1Ev(ptr noundef nonnull align 8 dereferenceable(11)) unnamed_addr #2

declare noundef zeroext i1 @_ZNK2v88TryCatch9HasCaughtEv(ptr noundef nonnull align 8 dereferenceable(41)) #1

declare noundef zeroext i1 @_ZNK2v88TryCatch13HasTerminatedEv(ptr noundef nonnull align 8 dereferenceable(41)) #1

declare void @_ZN4node20PrintCaughtExceptionEPN2v87IsolateENS0_5LocalINS0_7ContextEEERKNS0_8TryCatchE(ptr noundef, ptr, ptr noundef nonnull align 8 dereferenceable(41)) #1

; Function Attrs: nounwind
declare void @_ZN4node6errors13TryCatchScopeD1Ev(ptr noundef nonnull align 8 dereferenceable(60)) unnamed_addr #2

declare i16 @_ZN2v86Object3SetENS_5LocalINS_7ContextEEENS1_INS_5ValueEEES5_(ptr noundef nonnull align 1 dereferenceable(1), ptr, ptr, ptr) #1

; Function Attrs: mustprogress nounwind uwtable
define linkonce_odr dso_local ptr @_ZN4node21FIXED_ONE_BYTE_STRINGILi17EEEN2v85LocalINS1_6StringEEEPNS1_7IsolateERAT__Kc(ptr noundef %isolate, ptr noundef nonnull align 1 dereferenceable(17) %data) #4 comdat {
entry:
  %retval = alloca %"class.v8::Local.315", align 8
  %isolate.addr = alloca ptr, align 8
  %data.addr = alloca ptr, align 8
  store ptr %isolate, ptr %isolate.addr, align 8
  store ptr %data, ptr %data.addr, align 8
  %0 = load ptr, ptr %isolate.addr, align 8
  %1 = load ptr, ptr %data.addr, align 8
  %arraydecay = getelementptr inbounds [17 x i8], ptr %1, i64 0, i64 0
  %call = call ptr @_ZN4node13OneByteStringEPN2v87IsolateEPKci(ptr noundef %0, ptr noundef %arraydecay, i32 noundef 16)
  %coerce.dive = getelementptr inbounds %"class.v8::Local.315", ptr %retval, i32 0, i32 0
  %coerce.dive1 = getelementptr inbounds %"class.v8::LocalBase.316", ptr %coerce.dive, i32 0, i32 0
  %coerce.dive2 = getelementptr inbounds %"class.v8::IndirectHandleBase", ptr %coerce.dive1, i32 0, i32 0
  store ptr %call, ptr %coerce.dive2, align 8
  %coerce.dive3 = getelementptr inbounds %"class.v8::Local.315", ptr %retval, i32 0, i32 0
  %coerce.dive4 = getelementptr inbounds %"class.v8::LocalBase.316", ptr %coerce.dive3, i32 0, i32 0
  %coerce.dive5 = getelementptr inbounds %"class.v8::IndirectHandleBase", ptr %coerce.dive4, i32 0, i32 0
  %2 = load ptr, ptr %coerce.dive5, align 8
  ret ptr %2
}

; Function Attrs: mustprogress nounwind uwtable
define dso_local ptr @_ZN4node8profiler20V8CoverageConnection10GetProfileEN2v85LocalINS2_6ObjectEEE(ptr noundef nonnull align 8 dereferenceable(97) %this, ptr %result.coerce) unnamed_addr #4 align 2 {
entry:
  %that.i = alloca %"class.v8::Local.320", align 8
  %this.addr.i = alloca ptr, align 8
  %retval = alloca %"class.v8::MaybeLocal.324", align 8
  %result = alloca %"class.v8::Local.320", align 8
  %this.addr = alloca ptr, align 8
  %agg.tmp = alloca %"class.v8::Local.320", align 8
  %coerce.dive = getelementptr inbounds %"class.v8::Local.320", ptr %result, i32 0, i32 0
  %coerce.dive1 = getelementptr inbounds %"class.v8::LocalBase.321", ptr %coerce.dive, i32 0, i32 0
  %coerce.dive2 = getelementptr inbounds %"class.v8::IndirectHandleBase", ptr %coerce.dive1, i32 0, i32 0
  store ptr %result.coerce, ptr %coerce.dive2, align 8
  store ptr %this, ptr %this.addr, align 8
  call void @llvm.memcpy.p0.p0.i64(ptr align 8 %agg.tmp, ptr align 8 %result, i64 8, i1 false)
  %coerce.dive4 = getelementptr inbounds %"class.v8::Local.320", ptr %agg.tmp, i32 0, i32 0
  %coerce.dive5 = getelementptr inbounds %"class.v8::LocalBase.321", ptr %coerce.dive4, i32 0, i32 0
  %coerce.dive6 = getelementptr inbounds %"class.v8::IndirectHandleBase", ptr %coerce.dive5, i32 0, i32 0
  %0 = load ptr, ptr %coerce.dive6, align 8
  store ptr %0, ptr %that.i, align 8
  store ptr %retval, ptr %this.addr.i, align 8
  %this3.i = load ptr, ptr %this.addr.i, align 8
  call void @llvm.memcpy.p0.p0.i64(ptr align 8 %this3.i, ptr align 8 %that.i, i64 8, i1 false)
  %coerce.dive7 = getelementptr inbounds %"class.v8::MaybeLocal.324", ptr %retval, i32 0, i32 0
  %coerce.dive8 = getelementptr inbounds %"class.v8::Local.320", ptr %coerce.dive7, i32 0, i32 0
  %coerce.dive9 = getelementptr inbounds %"class.v8::LocalBase.321", ptr %coerce.dive8, i32 0, i32 0
  %coerce.dive10 = getelementptr inbounds %"class.v8::IndirectHandleBase", ptr %coerce.dive9, i32 0, i32 0
  %1 = load ptr, ptr %coerce.dive10, align 8
  ret ptr %1
}

; Function Attrs: mustprogress nounwind uwtable
define dso_local void @_ZNK4node8profiler20V8CoverageConnection12GetDirectoryB5cxx11Ev(ptr noalias sret(%"class.std::__cxx11::basic_string") align 8 %agg.result, ptr noundef nonnull align 8 dereferenceable(97) %this) unnamed_addr #4 align 2 {
entry:
  %result.ptr = alloca ptr, align 8
  %this.addr = alloca ptr, align 8
  store ptr %agg.result, ptr %result.ptr, align 8
  store ptr %this, ptr %this.addr, align 8
  %this1 = load ptr, ptr %this.addr, align 8
  %call = call noundef ptr @_ZNK4node8profiler20V8ProfilerConnection3envEv(ptr noundef nonnull align 8 dereferenceable(88) %this1)
  %call2 = call noundef nonnull align 8 dereferenceable(32) ptr @_ZNK4node11Environment18coverage_directoryB5cxx11Ev(ptr noundef nonnull align 8 dereferenceable(2872) %call)
  call void @_ZNSt7__cxx1112basic_stringIcSt11char_traitsIcESaIcEEC1ERKS4_(ptr noundef nonnull align 8 dereferenceable(32) %agg.result, ptr noundef nonnull align 8 dereferenceable(32) %call2)
  ret void
}

; Function Attrs: mustprogress nounwind uwtable
define linkonce_odr dso_local noundef nonnull align 8 dereferenceable(32) ptr @_ZNK4node11Environment18coverage_directoryB5cxx11Ev(ptr noundef nonnull align 8 dereferenceable(2872) %this) #4 comdat align 2 {
entry:
  %this.addr = alloca ptr, align 8
  store ptr %this, ptr %this.addr, align 8
  %this1 = load ptr, ptr %this.addr, align 8
  %coverage_directory_ = getelementptr inbounds %"class.node::Environment", ptr %this1, i32 0, i32 32
  ret ptr %coverage_directory_
}

declare void @_ZNSt7__cxx1112basic_stringIcSt11char_traitsIcESaIcEEC1ERKS4_(ptr noundef nonnull align 8 dereferenceable(32), ptr noundef nonnull align 8 dereferenceable(32)) unnamed_addr #1

; Function Attrs: mustprogress nounwind uwtable
define dso_local void @_ZN4node8profiler20V8CoverageConnection5StartEv(ptr noundef nonnull align 8 dereferenceable(97) %this) unnamed_addr #4 align 2 {
entry:
  %this.addr = alloca ptr, align 8
  store ptr %this, ptr %this.addr, align 8
  %this1 = load ptr, ptr %this.addr, align 8
  %call = call noundef i32 @_ZN4node8profiler20V8ProfilerConnection15DispatchMessageEPKcS3_b(ptr noundef nonnull align 8 dereferenceable(88) %this1, ptr noundef @.str.18, ptr noundef null, i1 noundef zeroext false)
  %call2 = call noundef i32 @_ZN4node8profiler20V8ProfilerConnection15DispatchMessageEPKcS3_b(ptr noundef nonnull align 8 dereferenceable(88) %this1, ptr noundef @.str.19, ptr noundef @.str.20, i1 noundef zeroext false)
  ret void
}

; Function Attrs: mustprogress nounwind uwtable
define dso_local void @_ZN4node8profiler20V8CoverageConnection12TakeCoverageEv(ptr noundef nonnull align 8 dereferenceable(97) %this) #4 align 2 {
entry:
  %this.addr = alloca ptr, align 8
  store ptr %this, ptr %this.addr, align 8
  %this1 = load ptr, ptr %this.addr, align 8
  %call = call noundef i32 @_ZN4node8profiler20V8ProfilerConnection15DispatchMessageEPKcS3_b(ptr noundef nonnull align 8 dereferenceable(88) %this1, ptr noundef @.str.21, ptr noundef null, i1 noundef zeroext true)
  ret void
}

; Function Attrs: mustprogress nounwind uwtable
define dso_local void @_ZN4node8profiler20V8CoverageConnection12StopCoverageEv(ptr noundef nonnull align 8 dereferenceable(97) %this) #4 align 2 {
entry:
  %this.addr = alloca ptr, align 8
  store ptr %this, ptr %this.addr, align 8
  %this1 = load ptr, ptr %this.addr, align 8
  %call = call noundef i32 @_ZN4node8profiler20V8ProfilerConnection15DispatchMessageEPKcS3_b(ptr noundef nonnull align 8 dereferenceable(88) %this1, ptr noundef @.str.22, ptr noundef null, i1 noundef zeroext false)
  ret void
}

; Function Attrs: mustprogress nounwind uwtable
define dso_local void @_ZN4node8profiler20V8CoverageConnection3EndEv(ptr noundef nonnull align 8 dereferenceable(97) %this) unnamed_addr #4 align 2 {
entry:
  %this.addr.i.i = alloca ptr, align 8
  %category.addr.i.i = alloca i32, align 4
  %list.addr.i = alloca ptr, align 8
  %cat.addr.i4 = alloca i32, align 4
  %format.addr.i5 = alloca ptr, align 8
  %args.addr.i6 = alloca ptr, align 8
  %env.addr.i = alloca ptr, align 8
  %cat.addr.i = alloca i32, align 4
  %format.addr.i = alloca ptr, align 8
  %args.addr.i = alloca ptr, align 8
  %this.addr = alloca ptr, align 8
  store ptr %this, ptr %this.addr, align 8
  %this1 = load ptr, ptr %this.addr, align 8
  %env_ = getelementptr inbounds %"class.node::profiler::V8ProfilerConnection", ptr %this1, i32 0, i32 4
  %0 = load ptr, ptr %env_, align 8
  %ending_ = getelementptr inbounds %"class.node::profiler::V8CoverageConnection", ptr %this1, i32 0, i32 2
  store ptr %0, ptr %env.addr.i, align 8
  store i32 67, ptr %cat.addr.i, align 4
  store ptr @.str.23, ptr %format.addr.i, align 8
  store ptr %ending_, ptr %args.addr.i, align 8
  %1 = load ptr, ptr %env.addr.i, align 8
  %call.i = call noundef ptr @_ZN4node11Environment18enabled_debug_listEv(ptr noundef nonnull align 8 dereferenceable(2872) %1)
  %2 = load i32, ptr %cat.addr.i, align 4
  %3 = load ptr, ptr %format.addr.i, align 8
  %4 = load ptr, ptr %args.addr.i, align 8
  store ptr %call.i, ptr %list.addr.i, align 8
  store i32 %2, ptr %cat.addr.i4, align 4
  store ptr %3, ptr %format.addr.i5, align 8
  store ptr %4, ptr %args.addr.i6, align 8
  %5 = load ptr, ptr %list.addr.i, align 8
  %6 = load i32, ptr %cat.addr.i4, align 4
  store ptr %5, ptr %this.addr.i.i, align 8
  store i32 %6, ptr %category.addr.i.i, align 4
  %this1.i.i = load ptr, ptr %this.addr.i.i, align 8
  %7 = load i32, ptr %category.addr.i.i, align 4
  %idxprom.i.i = zext i32 %7 to i64
  %arrayidx.i.i = getelementptr inbounds [75 x i8], ptr %this1.i.i, i64 0, i64 %idxprom.i.i
  %8 = load i8, ptr %arrayidx.i.i, align 1
  %tobool.i.i = trunc i8 %8 to i1
  br i1 %tobool.i.i, label %if.end.i, label %if.then.i

if.then.i:                                        ; preds = %entry
  br label %_ZN4node5DebugIJRbEEEvPNS_16EnabledDebugListENS_13DebugCategoryEPKcDpOT_.exit

if.end.i:                                         ; preds = %entry
  %9 = load ptr, ptr @stderr, align 8
  %10 = load ptr, ptr %format.addr.i5, align 8
  %11 = load ptr, ptr %args.addr.i6, align 8
  call void @_ZN4node7FPrintFIJRbEEEvP8_IO_FILEPKcDpOT_(ptr noundef %9, ptr noundef %10, ptr noundef nonnull align 1 dereferenceable(1) %11) #15
  br label %_ZN4node5DebugIJRbEEEvPNS_16EnabledDebugListENS_13DebugCategoryEPKcDpOT_.exit

_ZN4node5DebugIJRbEEEvPNS_16EnabledDebugListENS_13DebugCategoryEPKcDpOT_.exit: ; preds = %if.end.i, %if.then.i
  %ending_2 = getelementptr inbounds %"class.node::profiler::V8CoverageConnection", ptr %this1, i32 0, i32 2
  %12 = load i8, ptr %ending_2, align 8
  %tobool = trunc i8 %12 to i1
  br i1 %tobool, label %if.then, label %if.end

if.then:                                          ; preds = %_ZN4node5DebugIJRbEEEvPNS_16EnabledDebugListENS_13DebugCategoryEPKcDpOT_.exit
  br label %return

if.end:                                           ; preds = %_ZN4node5DebugIJRbEEEvPNS_16EnabledDebugListENS_13DebugCategoryEPKcDpOT_.exit
  %ending_3 = getelementptr inbounds %"class.node::profiler::V8CoverageConnection", ptr %this1, i32 0, i32 2
  store i8 1, ptr %ending_3, align 8
  call void @_ZN4node8profiler20V8CoverageConnection12TakeCoverageEv(ptr noundef nonnull align 8 dereferenceable(97) %this1)
  br label %return

return:                                           ; preds = %if.end, %if.then
  ret void
}

; Function Attrs: mustprogress nounwind uwtable
define dso_local void @_ZNK4node8profiler23V8CpuProfilerConnection12GetDirectoryB5cxx11Ev(ptr noalias sret(%"class.std::__cxx11::basic_string") align 8 %agg.result, ptr noundef nonnull align 8 dereferenceable(97) %this) unnamed_addr #4 align 2 {
entry:
  %result.ptr = alloca ptr, align 8
  %this.addr = alloca ptr, align 8
  store ptr %agg.result, ptr %result.ptr, align 8
  store ptr %this, ptr %this.addr, align 8
  %this1 = load ptr, ptr %this.addr, align 8
  %call = call noundef ptr @_ZNK4node8profiler20V8ProfilerConnection3envEv(ptr noundef nonnull align 8 dereferenceable(88) %this1)
  %call2 = call noundef nonnull align 8 dereferenceable(32) ptr @_ZNK4node11Environment12cpu_prof_dirB5cxx11Ev(ptr noundef nonnull align 8 dereferenceable(2872) %call)
  call void @_ZNSt7__cxx1112basic_stringIcSt11char_traitsIcESaIcEEC1ERKS4_(ptr noundef nonnull align 8 dereferenceable(32) %agg.result, ptr noundef nonnull align 8 dereferenceable(32) %call2)
  ret void
}

; Function Attrs: mustprogress nounwind uwtable
define linkonce_odr dso_local noundef nonnull align 8 dereferenceable(32) ptr @_ZNK4node11Environment12cpu_prof_dirB5cxx11Ev(ptr noundef nonnull align 8 dereferenceable(2872) %this) #4 comdat align 2 {
entry:
  %this.addr = alloca ptr, align 8
  store ptr %this, ptr %this.addr, align 8
  %this1 = load ptr, ptr %this.addr, align 8
  %cpu_prof_dir_ = getelementptr inbounds %"class.node::Environment", ptr %this1, i32 0, i32 33
  ret ptr %cpu_prof_dir_
}

; Function Attrs: mustprogress nounwind uwtable
define dso_local void @_ZNK4node8profiler23V8CpuProfilerConnection11GetFilenameB5cxx11Ev(ptr noalias sret(%"class.std::__cxx11::basic_string") align 8 %agg.result, ptr noundef nonnull align 8 dereferenceable(97) %this) unnamed_addr #4 align 2 {
entry:
  %result.ptr = alloca ptr, align 8
  %this.addr = alloca ptr, align 8
  store ptr %agg.result, ptr %result.ptr, align 8
  store ptr %this, ptr %this.addr, align 8
  %this1 = load ptr, ptr %this.addr, align 8
  %call = call noundef ptr @_ZNK4node8profiler20V8ProfilerConnection3envEv(ptr noundef nonnull align 8 dereferenceable(88) %this1)
  %call2 = call noundef nonnull align 8 dereferenceable(32) ptr @_ZNK4node11Environment13cpu_prof_nameB5cxx11Ev(ptr noundef nonnull align 8 dereferenceable(2872) %call)
  call void @_ZNSt7__cxx1112basic_stringIcSt11char_traitsIcESaIcEEC1ERKS4_(ptr noundef nonnull align 8 dereferenceable(32) %agg.result, ptr noundef nonnull align 8 dereferenceable(32) %call2)
  ret void
}

; Function Attrs: mustprogress nounwind uwtable
define linkonce_odr dso_local noundef nonnull align 8 dereferenceable(32) ptr @_ZNK4node11Environment13cpu_prof_nameB5cxx11Ev(ptr noundef nonnull align 8 dereferenceable(2872) %this) #4 comdat align 2 {
entry:
  %this.addr = alloca ptr, align 8
  store ptr %this, ptr %this.addr, align 8
  %this1 = load ptr, ptr %this.addr, align 8
  %cpu_prof_name_ = getelementptr inbounds %"class.node::Environment", ptr %this1, i32 0, i32 34
  ret ptr %cpu_prof_name_
}

; Function Attrs: mustprogress nounwind uwtable
define dso_local ptr @_ZN4node8profiler23V8CpuProfilerConnection10GetProfileEN2v85LocalINS2_6ObjectEEE(ptr noundef nonnull align 8 dereferenceable(97) %this, ptr %result.coerce) unnamed_addr #4 align 2 {
entry:
  %this.addr.i.i102 = alloca ptr, align 8
  %this.addr.i103 = alloca ptr, align 8
  %this.addr.i99 = alloca ptr, align 8
  %other.addr.i100 = alloca ptr, align 8
  %this.addr.i96 = alloca ptr, align 8
  %other.addr.i97 = alloca ptr, align 8
  %retval.i94 = alloca %"class.v8::Local.320", align 8
  %that.i95 = alloca %"class.v8::Local.317", align 8
  %ref.tmp.i = alloca %"class.v8::LocalBase.321", align 8
  %slot.addr.i93 = alloca ptr, align 8
  %this.addr.i.i89 = alloca ptr, align 8
  %this.addr.i90 = alloca ptr, align 8
  %this.addr.i87 = alloca ptr, align 8
  %other.addr.i = alloca ptr, align 8
  %slot.addr.i = alloca ptr, align 8
  %this.addr.i.i83 = alloca ptr, align 8
  %this.addr.i84 = alloca ptr, align 8
  %this.addr.i.i79 = alloca ptr, align 8
  %this.addr.i80 = alloca ptr, align 8
  %this.addr.i.i75 = alloca ptr, align 8
  %this.addr.i76 = alloca ptr, align 8
  %this.addr.i.i71 = alloca ptr, align 8
  %this.addr.i72 = alloca ptr, align 8
  %this.addr.i.i67 = alloca ptr, align 8
  %this.addr.i68 = alloca ptr, align 8
  %this.addr.i.i = alloca ptr, align 8
  %this.addr.i65 = alloca ptr, align 8
  %that.i62 = alloca %"class.v8::Local.320", align 8
  %this.addr.i63 = alloca ptr, align 8
  %that.i = alloca %"class.v8::Local.315", align 8
  %this.addr.i61 = alloca ptr, align 8
  %this.addr.i58 = alloca ptr, align 8
  %retval.i = alloca %"class.v8::Local.320", align 8
  %this.addr.i55 = alloca ptr, align 8
  %agg.tmp.i = alloca %"class.v8::Local.317", align 8
  %this.addr.i52 = alloca ptr, align 8
  %this.addr.i50 = alloca ptr, align 8
  %out.addr.i = alloca ptr, align 8
  %this.addr.i = alloca ptr, align 8
  %retval = alloca %"class.v8::MaybeLocal.324", align 8
  %result = alloca %"class.v8::Local.320", align 8
  %this.addr = alloca ptr, align 8
  %profile_v = alloca %"class.v8::Local.317", align 8
  %ref.tmp = alloca %"class.v8::MaybeLocal.319", align 8
  %agg.tmp = alloca %"class.v8::Local", align 8
  %agg.tmp9 = alloca %"class.v8::Local.317", align 8
  %agg.tmp10 = alloca %"class.v8::Local.315", align 8
  %agg.tmp38 = alloca %"class.v8::Local.320", align 8
  %coerce.dive = getelementptr inbounds %"class.v8::Local.320", ptr %result, i32 0, i32 0
  %coerce.dive1 = getelementptr inbounds %"class.v8::LocalBase.321", ptr %coerce.dive, i32 0, i32 0
  %coerce.dive2 = getelementptr inbounds %"class.v8::IndirectHandleBase", ptr %coerce.dive1, i32 0, i32 0
  store ptr %result.coerce, ptr %coerce.dive2, align 8
  store ptr %this, ptr %this.addr, align 8
  %this3 = load ptr, ptr %this.addr, align 8
  store ptr %profile_v, ptr %this.addr.i, align 8
  %this1.i = load ptr, ptr %this.addr.i, align 8
  store ptr %this1.i, ptr %this.addr.i72, align 8
  %this1.i73 = load ptr, ptr %this.addr.i72, align 8
  store ptr %this1.i73, ptr %this.addr.i.i71, align 8
  %this1.i.i74 = load ptr, ptr %this.addr.i.i71, align 8
  store ptr null, ptr %this1.i.i74, align 8
  store ptr %result, ptr %this.addr.i58, align 8
  %this1.i59 = load ptr, ptr %this.addr.i58, align 8
  store ptr %this1.i59, ptr %this.addr.i84, align 8
  %this1.i85 = load ptr, ptr %this.addr.i84, align 8
  store ptr %this1.i85, ptr %this.addr.i.i83, align 8
  %this1.i.i86 = load ptr, ptr %this.addr.i.i83, align 8
  %0 = load ptr, ptr %this1.i.i86, align 8
  store ptr %0, ptr %slot.addr.i, align 8
  %1 = load ptr, ptr %slot.addr.i, align 8
  %call4 = call noundef ptr @_ZNK4node8profiler20V8ProfilerConnection3envEv(ptr noundef nonnull align 8 dereferenceable(88) %this3)
  %call5 = call ptr @_ZNK4node11Environment7contextEv(ptr noundef nonnull align 8 dereferenceable(2872) %call4)
  %coerce.dive6 = getelementptr inbounds %"class.v8::Local", ptr %agg.tmp, i32 0, i32 0
  %coerce.dive7 = getelementptr inbounds %"class.v8::LocalBase", ptr %coerce.dive6, i32 0, i32 0
  %coerce.dive8 = getelementptr inbounds %"class.v8::IndirectHandleBase", ptr %coerce.dive7, i32 0, i32 0
  store ptr %call5, ptr %coerce.dive8, align 8
  %call11 = call noundef ptr @_ZNK4node8profiler20V8ProfilerConnection3envEv(ptr noundef nonnull align 8 dereferenceable(88) %this3)
  %call12 = call noundef ptr @_ZNK4node11Environment7isolateEv(ptr noundef nonnull align 8 dereferenceable(2872) %call11)
  %call13 = call ptr @_ZN4node21FIXED_ONE_BYTE_STRINGILi8EEEN2v85LocalINS1_6StringEEEPNS1_7IsolateERAT__Kc(ptr noundef %call12, ptr noundef nonnull align 1 dereferenceable(8) @.str.24)
  %coerce.dive14 = getelementptr inbounds %"class.v8::Local.315", ptr %agg.tmp10, i32 0, i32 0
  %coerce.dive15 = getelementptr inbounds %"class.v8::LocalBase.316", ptr %coerce.dive14, i32 0, i32 0
  %coerce.dive16 = getelementptr inbounds %"class.v8::IndirectHandleBase", ptr %coerce.dive15, i32 0, i32 0
  store ptr %call13, ptr %coerce.dive16, align 8
  %coerce.dive17 = getelementptr inbounds %"class.v8::Local.315", ptr %agg.tmp10, i32 0, i32 0
  %coerce.dive18 = getelementptr inbounds %"class.v8::LocalBase.316", ptr %coerce.dive17, i32 0, i32 0
  %coerce.dive19 = getelementptr inbounds %"class.v8::IndirectHandleBase", ptr %coerce.dive18, i32 0, i32 0
  %2 = load ptr, ptr %coerce.dive19, align 8
  store ptr %2, ptr %that.i, align 8
  store ptr %agg.tmp9, ptr %this.addr.i61, align 8
  %this3.i = load ptr, ptr %this.addr.i61, align 8
  store ptr %this3.i, ptr %this.addr.i87, align 8
  store ptr %that.i, ptr %other.addr.i, align 8
  %this1.i88 = load ptr, ptr %this.addr.i87, align 8
  %3 = load ptr, ptr %other.addr.i, align 8
  call void @llvm.memcpy.p0.p0.i64(ptr align 8 %this1.i88, ptr align 8 %3, i64 8, i1 false)
  %coerce.dive20 = getelementptr inbounds %"class.v8::Local", ptr %agg.tmp, i32 0, i32 0
  %coerce.dive21 = getelementptr inbounds %"class.v8::LocalBase", ptr %coerce.dive20, i32 0, i32 0
  %coerce.dive22 = getelementptr inbounds %"class.v8::IndirectHandleBase", ptr %coerce.dive21, i32 0, i32 0
  %4 = load ptr, ptr %coerce.dive22, align 8
  %coerce.dive23 = getelementptr inbounds %"class.v8::Local.317", ptr %agg.tmp9, i32 0, i32 0
  %coerce.dive24 = getelementptr inbounds %"class.v8::LocalBase.318", ptr %coerce.dive23, i32 0, i32 0
  %coerce.dive25 = getelementptr inbounds %"class.v8::IndirectHandleBase", ptr %coerce.dive24, i32 0, i32 0
  %5 = load ptr, ptr %coerce.dive25, align 8
  %call26 = call ptr @_ZN2v86Object3GetENS_5LocalINS_7ContextEEENS1_INS_5ValueEEE(ptr noundef nonnull align 1 dereferenceable(1) %1, ptr %4, ptr %5)
  %coerce.dive27 = getelementptr inbounds %"class.v8::MaybeLocal.319", ptr %ref.tmp, i32 0, i32 0
  %coerce.dive28 = getelementptr inbounds %"class.v8::Local.317", ptr %coerce.dive27, i32 0, i32 0
  %coerce.dive29 = getelementptr inbounds %"class.v8::LocalBase.318", ptr %coerce.dive28, i32 0, i32 0
  %coerce.dive30 = getelementptr inbounds %"class.v8::IndirectHandleBase", ptr %coerce.dive29, i32 0, i32 0
  store ptr %call26, ptr %coerce.dive30, align 8
  store ptr %ref.tmp, ptr %this.addr.i50, align 8
  store ptr %profile_v, ptr %out.addr.i, align 8
  %this1.i51 = load ptr, ptr %this.addr.i50, align 8
  %6 = load ptr, ptr %out.addr.i, align 8
  call void @llvm.memcpy.p0.p0.i64(ptr align 8 %6, ptr align 8 %this1.i51, i64 8, i1 false)
  store ptr %this1.i51, ptr %this.addr.i103, align 8
  %this1.i104 = load ptr, ptr %this.addr.i103, align 8
  store ptr %this1.i104, ptr %this.addr.i.i102, align 8
  %this1.i.i105 = load ptr, ptr %this.addr.i.i102, align 8
  %7 = load ptr, ptr %this1.i.i105, align 8
  %cmp.i.i = icmp eq ptr %7, null
  %lnot.i = xor i1 %cmp.i.i, true
  %lnot = xor i1 %lnot.i, true
  br i1 %lnot, label %if.then, label %if.end

if.then:                                          ; preds = %entry
  %8 = load ptr, ptr @stderr, align 8
  %call32 = call i32 (ptr, ptr, ...) @fprintf(ptr noundef %8, ptr noundef @.str.25)
  store ptr %retval, ptr %this.addr.i65, align 8
  %this1.i66 = load ptr, ptr %this.addr.i65, align 8
  call void @llvm.memset.p0.i64(ptr align 8 %this1.i66, i8 0, i64 8, i1 false)
  store ptr %this1.i66, ptr %this.addr.i.i, align 8
  %this1.i.i = load ptr, ptr %this.addr.i.i, align 8
  store ptr %this1.i.i, ptr %this.addr.i80, align 8
  %this1.i81 = load ptr, ptr %this.addr.i80, align 8
  store ptr %this1.i81, ptr %this.addr.i.i79, align 8
  %this1.i.i82 = load ptr, ptr %this.addr.i.i79, align 8
  store ptr null, ptr %this1.i.i82, align 8
  br label %return

if.end:                                           ; preds = %entry
  store ptr %profile_v, ptr %this.addr.i52, align 8
  %this1.i53 = load ptr, ptr %this.addr.i52, align 8
  store ptr %this1.i53, ptr %this.addr.i90, align 8
  %this1.i91 = load ptr, ptr %this.addr.i90, align 8
  store ptr %this1.i91, ptr %this.addr.i.i89, align 8
  %this1.i.i92 = load ptr, ptr %this.addr.i.i89, align 8
  %9 = load ptr, ptr %this1.i.i92, align 8
  store ptr %9, ptr %slot.addr.i93, align 8
  %10 = load ptr, ptr %slot.addr.i93, align 8
  %call34 = call noundef zeroext i1 @_ZNK2v85Value8IsObjectEv(ptr noundef nonnull align 1 dereferenceable(1) %10)
  br i1 %call34, label %if.end37, label %if.then35

if.then35:                                        ; preds = %if.end
  %11 = load ptr, ptr @stderr, align 8
  %call36 = call i32 (ptr, ptr, ...) @fprintf(ptr noundef %11, ptr noundef @.str.26)
  store ptr %retval, ptr %this.addr.i68, align 8
  %this1.i69 = load ptr, ptr %this.addr.i68, align 8
  call void @llvm.memset.p0.i64(ptr align 8 %this1.i69, i8 0, i64 8, i1 false)
  store ptr %this1.i69, ptr %this.addr.i.i67, align 8
  %this1.i.i70 = load ptr, ptr %this.addr.i.i67, align 8
  store ptr %this1.i.i70, ptr %this.addr.i76, align 8
  %this1.i77 = load ptr, ptr %this.addr.i76, align 8
  store ptr %this1.i77, ptr %this.addr.i.i75, align 8
  %this1.i.i78 = load ptr, ptr %this.addr.i.i75, align 8
  store ptr null, ptr %this1.i.i78, align 8
  br label %return

if.end37:                                         ; preds = %if.end
  store ptr %profile_v, ptr %this.addr.i55, align 8
  %this1.i56 = load ptr, ptr %this.addr.i55, align 8
  call void @llvm.memcpy.p0.p0.i64(ptr align 8 %agg.tmp.i, ptr align 8 %this1.i56, i64 8, i1 false)
  %12 = load ptr, ptr %agg.tmp.i, align 8
  store ptr %12, ptr %that.i95, align 8
  store ptr %ref.tmp.i, ptr %this.addr.i96, align 8
  store ptr %that.i95, ptr %other.addr.i97, align 8
  %this1.i98 = load ptr, ptr %this.addr.i96, align 8
  %13 = load ptr, ptr %other.addr.i97, align 8
  call void @llvm.memcpy.p0.p0.i64(ptr align 8 %this1.i98, ptr align 8 %13, i64 8, i1 false)
  store ptr %retval.i94, ptr %this.addr.i99, align 8
  store ptr %ref.tmp.i, ptr %other.addr.i100, align 8
  %this1.i101 = load ptr, ptr %this.addr.i99, align 8
  %14 = load ptr, ptr %other.addr.i100, align 8
  call void @llvm.memcpy.p0.p0.i64(ptr align 8 %this1.i101, ptr align 8 %14, i64 8, i1 false)
  %15 = load ptr, ptr %retval.i94, align 8
  store ptr %15, ptr %retval.i, align 8
  %16 = load ptr, ptr %retval.i, align 8
  %coerce.dive40 = getelementptr inbounds %"class.v8::Local.320", ptr %agg.tmp38, i32 0, i32 0
  %coerce.dive41 = getelementptr inbounds %"class.v8::LocalBase.321", ptr %coerce.dive40, i32 0, i32 0
  %coerce.dive42 = getelementptr inbounds %"class.v8::IndirectHandleBase", ptr %coerce.dive41, i32 0, i32 0
  store ptr %16, ptr %coerce.dive42, align 8
  %coerce.dive43 = getelementptr inbounds %"class.v8::Local.320", ptr %agg.tmp38, i32 0, i32 0
  %coerce.dive44 = getelementptr inbounds %"class.v8::LocalBase.321", ptr %coerce.dive43, i32 0, i32 0
  %coerce.dive45 = getelementptr inbounds %"class.v8::IndirectHandleBase", ptr %coerce.dive44, i32 0, i32 0
  %17 = load ptr, ptr %coerce.dive45, align 8
  store ptr %17, ptr %that.i62, align 8
  store ptr %retval, ptr %this.addr.i63, align 8
  %this3.i64 = load ptr, ptr %this.addr.i63, align 8
  call void @llvm.memcpy.p0.p0.i64(ptr align 8 %this3.i64, ptr align 8 %that.i62, i64 8, i1 false)
  br label %return

return:                                           ; preds = %if.end37, %if.then35, %if.then
  %coerce.dive46 = getelementptr inbounds %"class.v8::MaybeLocal.324", ptr %retval, i32 0, i32 0
  %coerce.dive47 = getelementptr inbounds %"class.v8::Local.320", ptr %coerce.dive46, i32 0, i32 0
  %coerce.dive48 = getelementptr inbounds %"class.v8::LocalBase.321", ptr %coerce.dive47, i32 0, i32 0
  %coerce.dive49 = getelementptr inbounds %"class.v8::IndirectHandleBase", ptr %coerce.dive48, i32 0, i32 0
  %18 = load ptr, ptr %coerce.dive49, align 8
  ret ptr %18
}

; Function Attrs: mustprogress nounwind uwtable
define linkonce_odr dso_local ptr @_ZN4node21FIXED_ONE_BYTE_STRINGILi8EEEN2v85LocalINS1_6StringEEEPNS1_7IsolateERAT__Kc(ptr noundef %isolate, ptr noundef nonnull align 1 dereferenceable(8) %data) #4 comdat {
entry:
  %retval = alloca %"class.v8::Local.315", align 8
  %isolate.addr = alloca ptr, align 8
  %data.addr = alloca ptr, align 8
  store ptr %isolate, ptr %isolate.addr, align 8
  store ptr %data, ptr %data.addr, align 8
  %0 = load ptr, ptr %isolate.addr, align 8
  %1 = load ptr, ptr %data.addr, align 8
  %arraydecay = getelementptr inbounds [8 x i8], ptr %1, i64 0, i64 0
  %call = call ptr @_ZN4node13OneByteStringEPN2v87IsolateEPKci(ptr noundef %0, ptr noundef %arraydecay, i32 noundef 7)
  %coerce.dive = getelementptr inbounds %"class.v8::Local.315", ptr %retval, i32 0, i32 0
  %coerce.dive1 = getelementptr inbounds %"class.v8::LocalBase.316", ptr %coerce.dive, i32 0, i32 0
  %coerce.dive2 = getelementptr inbounds %"class.v8::IndirectHandleBase", ptr %coerce.dive1, i32 0, i32 0
  store ptr %call, ptr %coerce.dive2, align 8
  %coerce.dive3 = getelementptr inbounds %"class.v8::Local.315", ptr %retval, i32 0, i32 0
  %coerce.dive4 = getelementptr inbounds %"class.v8::LocalBase.316", ptr %coerce.dive3, i32 0, i32 0
  %coerce.dive5 = getelementptr inbounds %"class.v8::IndirectHandleBase", ptr %coerce.dive4, i32 0, i32 0
  %2 = load ptr, ptr %coerce.dive5, align 8
  ret ptr %2
}

; Function Attrs: mustprogress nounwind uwtable
define dso_local void @_ZN4node8profiler23V8CpuProfilerConnection5StartEv(ptr noundef nonnull align 8 dereferenceable(97) %this) unnamed_addr #4 align 2 {
entry:
  %this.addr = alloca ptr, align 8
  %params = alloca %"class.std::__cxx11::basic_string", align 8
  %ref.tmp = alloca %"class.std::allocator.20", align 1
  %ref.tmp2 = alloca %"class.std::__cxx11::basic_string", align 8
  store ptr %this, ptr %this.addr, align 8
  %this1 = load ptr, ptr %this.addr, align 8
  %call = call noundef i32 @_ZN4node8profiler20V8ProfilerConnection15DispatchMessageEPKcS3_b(ptr noundef nonnull align 8 dereferenceable(88) %this1, ptr noundef @.str.18, ptr noundef null, i1 noundef zeroext false)
  call void @_ZNSaIcEC1Ev(ptr noundef nonnull align 1 dereferenceable(1) %ref.tmp) #3
  call void @_ZNSt7__cxx1112basic_stringIcSt11char_traitsIcESaIcEEC2IS3_EEPKcRKS3_(ptr noundef nonnull align 8 dereferenceable(32) %params, ptr noundef @.str.27, ptr noundef nonnull align 1 dereferenceable(1) %ref.tmp)
  call void @_ZNSaIcED1Ev(ptr noundef nonnull align 1 dereferenceable(1) %ref.tmp) #3
  %call3 = call noundef ptr @_ZNK4node8profiler20V8ProfilerConnection3envEv(ptr noundef nonnull align 8 dereferenceable(88) %this1)
  %call4 = call noundef i64 @_ZNK4node11Environment17cpu_prof_intervalEv(ptr noundef nonnull align 8 dereferenceable(2872) %call3)
  call void @_ZNSt7__cxx119to_stringEm(ptr sret(%"class.std::__cxx11::basic_string") align 8 %ref.tmp2, i64 noundef %call4)
  %call5 = call noundef nonnull align 8 dereferenceable(32) ptr @_ZNSt7__cxx1112basic_stringIcSt11char_traitsIcESaIcEEpLERKS4_(ptr noundef nonnull align 8 dereferenceable(32) %params, ptr noundef nonnull align 8 dereferenceable(32) %ref.tmp2)
  call void @_ZNSt7__cxx1112basic_stringIcSt11char_traitsIcESaIcEED1Ev(ptr noundef nonnull align 8 dereferenceable(32) %ref.tmp2) #3
  %call6 = call noundef nonnull align 8 dereferenceable(32) ptr @_ZNSt7__cxx1112basic_stringIcSt11char_traitsIcESaIcEEpLEPKc(ptr noundef nonnull align 8 dereferenceable(32) %params, ptr noundef @.str.3)
  %call7 = call noundef ptr @_ZNKSt7__cxx1112basic_stringIcSt11char_traitsIcESaIcEE5c_strEv(ptr noundef nonnull align 8 dereferenceable(32) %params) #3
  %call8 = call noundef i32 @_ZN4node8profiler20V8ProfilerConnection15DispatchMessageEPKcS3_b(ptr noundef nonnull align 8 dereferenceable(88) %this1, ptr noundef @.str.28, ptr noundef %call7, i1 noundef zeroext false)
  %call9 = call noundef i32 @_ZN4node8profiler20V8ProfilerConnection15DispatchMessageEPKcS3_b(ptr noundef nonnull align 8 dereferenceable(88) %this1, ptr noundef @.str.29, ptr noundef null, i1 noundef zeroext false)
  call void @_ZNSt7__cxx1112basic_stringIcSt11char_traitsIcESaIcEED1Ev(ptr noundef nonnull align 8 dereferenceable(32) %params) #3
  ret void
}

; Function Attrs: nounwind
declare void @_ZNSaIcEC1Ev(ptr noundef nonnull align 1 dereferenceable(1)) unnamed_addr #2

; Function Attrs: mustprogress nounwind uwtable
define linkonce_odr dso_local void @_ZNSt7__cxx1112basic_stringIcSt11char_traitsIcESaIcEEC2IS3_EEPKcRKS3_(ptr noundef nonnull align 8 dereferenceable(32) %this, ptr noundef %__s, ptr noundef nonnull align 1 dereferenceable(1) %__a) unnamed_addr #4 comdat align 2 {
entry:
  %this.addr = alloca ptr, align 8
  %__s.addr = alloca ptr, align 8
  %__a.addr = alloca ptr, align 8
  %__end = alloca ptr, align 8
  store ptr %this, ptr %this.addr, align 8
  store ptr %__s, ptr %__s.addr, align 8
  store ptr %__a, ptr %__a.addr, align 8
  %this1 = load ptr, ptr %this.addr, align 8
  %_M_dataplus = getelementptr inbounds %"class.std::__cxx11::basic_string", ptr %this1, i32 0, i32 0
  %call = call noundef ptr @_ZNSt7__cxx1112basic_stringIcSt11char_traitsIcESaIcEE13_M_local_dataEv(ptr noundef nonnull align 8 dereferenceable(32) %this1)
  %0 = load ptr, ptr %__a.addr, align 8
  call void @_ZNSt7__cxx1112basic_stringIcSt11char_traitsIcESaIcEE12_Alloc_hiderC1EPcRKS3_(ptr noundef nonnull align 8 dereferenceable(8) %_M_dataplus, ptr noundef %call, ptr noundef nonnull align 1 dereferenceable(1) %0)
  %1 = load ptr, ptr %__s.addr, align 8
  %cmp = icmp eq ptr %1, null
  br i1 %cmp, label %if.then, label %if.end

if.then:                                          ; preds = %entry
  call void @_ZSt19__throw_logic_errorPKc(ptr noundef @.str.98) #16
  unreachable

if.end:                                           ; preds = %entry
  %2 = load ptr, ptr %__s.addr, align 8
  %3 = load ptr, ptr %__s.addr, align 8
  %call2 = call noundef i64 @_ZNSt11char_traitsIcE6lengthEPKc(ptr noundef %3)
  %add.ptr = getelementptr inbounds i8, ptr %2, i64 %call2
  store ptr %add.ptr, ptr %__end, align 8
  %4 = load ptr, ptr %__s.addr, align 8
  %5 = load ptr, ptr %__end, align 8
  call void @_ZNSt7__cxx1112basic_stringIcSt11char_traitsIcESaIcEE12_M_constructIPKcEEvT_S8_St20forward_iterator_tag(ptr noundef nonnull align 8 dereferenceable(32) %this1, ptr noundef %4, ptr noundef %5)
  ret void
}

; Function Attrs: nounwind
declare void @_ZNSaIcED1Ev(ptr noundef nonnull align 1 dereferenceable(1)) unnamed_addr #2

; Function Attrs: mustprogress nounwind uwtable
define linkonce_odr dso_local void @_ZNSt7__cxx119to_stringEm(ptr noalias sret(%"class.std::__cxx11::basic_string") align 8 %agg.result, i64 noundef %__val) #4 comdat {
entry:
  %result.ptr = alloca ptr, align 8
  %__val.addr = alloca i64, align 8
  %nrvo = alloca i1, align 1
  %ref.tmp = alloca %"class.std::allocator.20", align 1
  store ptr %agg.result, ptr %result.ptr, align 8
  store i64 %__val, ptr %__val.addr, align 8
  store i1 false, ptr %nrvo, align 1
  %0 = load i64, ptr %__val.addr, align 8
  %call = call noundef i32 @_ZNSt8__detail14__to_chars_lenImEEjT_i(i64 noundef %0, i32 noundef 10) #3
  %conv = zext i32 %call to i64
  call void @_ZNSaIcEC1Ev(ptr noundef nonnull align 1 dereferenceable(1) %ref.tmp) #3
  call void @_ZNSt7__cxx1112basic_stringIcSt11char_traitsIcESaIcEEC2IS3_EEmcRKS3_(ptr noundef nonnull align 8 dereferenceable(32) %agg.result, i64 noundef %conv, i8 noundef signext 0, ptr noundef nonnull align 1 dereferenceable(1) %ref.tmp)
  call void @_ZNSaIcED1Ev(ptr noundef nonnull align 1 dereferenceable(1) %ref.tmp) #3
  %call1 = call noundef nonnull align 1 dereferenceable(1) ptr @_ZNSt7__cxx1112basic_stringIcSt11char_traitsIcESaIcEEixEm(ptr noundef nonnull align 8 dereferenceable(32) %agg.result, i64 noundef 0)
  %call2 = call noundef i64 @_ZNKSt7__cxx1112basic_stringIcSt11char_traitsIcESaIcEE4sizeEv(ptr noundef nonnull align 8 dereferenceable(32) %agg.result) #3
  %conv3 = trunc i64 %call2 to i32
  %1 = load i64, ptr %__val.addr, align 8
  call void @_ZNSt8__detail18__to_chars_10_implImEEvPcjT_(ptr noundef %call1, i32 noundef %conv3, i64 noundef %1) #3
  store i1 true, ptr %nrvo, align 1
  %nrvo.val = load i1, ptr %nrvo, align 1
  br i1 %nrvo.val, label %nrvo.skipdtor, label %nrvo.unused

nrvo.unused:                                      ; preds = %entry
  call void @_ZNSt7__cxx1112basic_stringIcSt11char_traitsIcESaIcEED1Ev(ptr noundef nonnull align 8 dereferenceable(32) %agg.result) #3
  br label %nrvo.skipdtor

nrvo.skipdtor:                                    ; preds = %nrvo.unused, %entry
  ret void
}

; Function Attrs: mustprogress nounwind uwtable
define linkonce_odr dso_local noundef i64 @_ZNK4node11Environment17cpu_prof_intervalEv(ptr noundef nonnull align 8 dereferenceable(2872) %this) #4 comdat align 2 {
entry:
  %this.addr = alloca ptr, align 8
  store ptr %this, ptr %this.addr, align 8
  %this1 = load ptr, ptr %this.addr, align 8
  %cpu_prof_interval_ = getelementptr inbounds %"class.node::Environment", ptr %this1, i32 0, i32 35
  %0 = load i64, ptr %cpu_prof_interval_, align 8
  ret i64 %0
}

declare noundef nonnull align 8 dereferenceable(32) ptr @_ZNSt7__cxx1112basic_stringIcSt11char_traitsIcESaIcEEpLERKS4_(ptr noundef nonnull align 8 dereferenceable(32), ptr noundef nonnull align 8 dereferenceable(32)) #1

declare noundef nonnull align 8 dereferenceable(32) ptr @_ZNSt7__cxx1112basic_stringIcSt11char_traitsIcESaIcEEpLEPKc(ptr noundef nonnull align 8 dereferenceable(32), ptr noundef) #1

; Function Attrs: mustprogress nounwind uwtable
define dso_local void @_ZN4node8profiler23V8CpuProfilerConnection3EndEv(ptr noundef nonnull align 8 dereferenceable(97) %this) unnamed_addr #4 align 2 {
entry:
  %this.addr.i.i = alloca ptr, align 8
  %category.addr.i.i = alloca i32, align 4
  %list.addr.i = alloca ptr, align 8
  %cat.addr.i4 = alloca i32, align 4
  %format.addr.i5 = alloca ptr, align 8
  %args.addr.i6 = alloca ptr, align 8
  %env.addr.i = alloca ptr, align 8
  %cat.addr.i = alloca i32, align 4
  %format.addr.i = alloca ptr, align 8
  %args.addr.i = alloca ptr, align 8
  %this.addr = alloca ptr, align 8
  store ptr %this, ptr %this.addr, align 8
  %this1 = load ptr, ptr %this.addr, align 8
  %env_ = getelementptr inbounds %"class.node::profiler::V8ProfilerConnection", ptr %this1, i32 0, i32 4
  %0 = load ptr, ptr %env_, align 8
  %ending_ = getelementptr inbounds %"class.node::profiler::V8CpuProfilerConnection", ptr %this1, i32 0, i32 2
  store ptr %0, ptr %env.addr.i, align 8
  store i32 67, ptr %cat.addr.i, align 4
  store ptr @.str.30, ptr %format.addr.i, align 8
  store ptr %ending_, ptr %args.addr.i, align 8
  %1 = load ptr, ptr %env.addr.i, align 8
  %call.i = call noundef ptr @_ZN4node11Environment18enabled_debug_listEv(ptr noundef nonnull align 8 dereferenceable(2872) %1)
  %2 = load i32, ptr %cat.addr.i, align 4
  %3 = load ptr, ptr %format.addr.i, align 8
  %4 = load ptr, ptr %args.addr.i, align 8
  store ptr %call.i, ptr %list.addr.i, align 8
  store i32 %2, ptr %cat.addr.i4, align 4
  store ptr %3, ptr %format.addr.i5, align 8
  store ptr %4, ptr %args.addr.i6, align 8
  %5 = load ptr, ptr %list.addr.i, align 8
  %6 = load i32, ptr %cat.addr.i4, align 4
  store ptr %5, ptr %this.addr.i.i, align 8
  store i32 %6, ptr %category.addr.i.i, align 4
  %this1.i.i = load ptr, ptr %this.addr.i.i, align 8
  %7 = load i32, ptr %category.addr.i.i, align 4
  %idxprom.i.i = zext i32 %7 to i64
  %arrayidx.i.i = getelementptr inbounds [75 x i8], ptr %this1.i.i, i64 0, i64 %idxprom.i.i
  %8 = load i8, ptr %arrayidx.i.i, align 1
  %tobool.i.i = trunc i8 %8 to i1
  br i1 %tobool.i.i, label %if.end.i, label %if.then.i

if.then.i:                                        ; preds = %entry
  br label %_ZN4node5DebugIJRbEEEvPNS_16EnabledDebugListENS_13DebugCategoryEPKcDpOT_.exit

if.end.i:                                         ; preds = %entry
  %9 = load ptr, ptr @stderr, align 8
  %10 = load ptr, ptr %format.addr.i5, align 8
  %11 = load ptr, ptr %args.addr.i6, align 8
  call void @_ZN4node7FPrintFIJRbEEEvP8_IO_FILEPKcDpOT_(ptr noundef %9, ptr noundef %10, ptr noundef nonnull align 1 dereferenceable(1) %11) #15
  br label %_ZN4node5DebugIJRbEEEvPNS_16EnabledDebugListENS_13DebugCategoryEPKcDpOT_.exit

_ZN4node5DebugIJRbEEEvPNS_16EnabledDebugListENS_13DebugCategoryEPKcDpOT_.exit: ; preds = %if.end.i, %if.then.i
  %ending_2 = getelementptr inbounds %"class.node::profiler::V8CpuProfilerConnection", ptr %this1, i32 0, i32 2
  %12 = load i8, ptr %ending_2, align 8
  %tobool = trunc i8 %12 to i1
  br i1 %tobool, label %if.then, label %if.end

if.then:                                          ; preds = %_ZN4node5DebugIJRbEEEvPNS_16EnabledDebugListENS_13DebugCategoryEPKcDpOT_.exit
  br label %return

if.end:                                           ; preds = %_ZN4node5DebugIJRbEEEvPNS_16EnabledDebugListENS_13DebugCategoryEPKcDpOT_.exit
  %ending_3 = getelementptr inbounds %"class.node::profiler::V8CpuProfilerConnection", ptr %this1, i32 0, i32 2
  store i8 1, ptr %ending_3, align 8
  %call = call noundef i32 @_ZN4node8profiler20V8ProfilerConnection15DispatchMessageEPKcS3_b(ptr noundef nonnull align 8 dereferenceable(88) %this1, ptr noundef @.str.31, ptr noundef null, i1 noundef zeroext true)
  br label %return

return:                                           ; preds = %if.end, %if.then
  ret void
}

; Function Attrs: mustprogress nounwind uwtable
define dso_local void @_ZNK4node8profiler24V8HeapProfilerConnection12GetDirectoryB5cxx11Ev(ptr noalias sret(%"class.std::__cxx11::basic_string") align 8 %agg.result, ptr noundef nonnull align 8 dereferenceable(97) %this) unnamed_addr #4 align 2 {
entry:
  %result.ptr = alloca ptr, align 8
  %this.addr = alloca ptr, align 8
  store ptr %agg.result, ptr %result.ptr, align 8
  store ptr %this, ptr %this.addr, align 8
  %this1 = load ptr, ptr %this.addr, align 8
  %call = call noundef ptr @_ZNK4node8profiler20V8ProfilerConnection3envEv(ptr noundef nonnull align 8 dereferenceable(88) %this1)
  %call2 = call noundef nonnull align 8 dereferenceable(32) ptr @_ZNK4node11Environment13heap_prof_dirB5cxx11Ev(ptr noundef nonnull align 8 dereferenceable(2872) %call)
  call void @_ZNSt7__cxx1112basic_stringIcSt11char_traitsIcESaIcEEC1ERKS4_(ptr noundef nonnull align 8 dereferenceable(32) %agg.result, ptr noundef nonnull align 8 dereferenceable(32) %call2)
  ret void
}

; Function Attrs: mustprogress nounwind uwtable
define linkonce_odr dso_local noundef nonnull align 8 dereferenceable(32) ptr @_ZNK4node11Environment13heap_prof_dirB5cxx11Ev(ptr noundef nonnull align 8 dereferenceable(2872) %this) #4 comdat align 2 {
entry:
  %this.addr = alloca ptr, align 8
  store ptr %this, ptr %this.addr, align 8
  %this1 = load ptr, ptr %this.addr, align 8
  %heap_prof_dir_ = getelementptr inbounds %"class.node::Environment", ptr %this1, i32 0, i32 37
  ret ptr %heap_prof_dir_
}

; Function Attrs: mustprogress nounwind uwtable
define dso_local void @_ZNK4node8profiler24V8HeapProfilerConnection11GetFilenameB5cxx11Ev(ptr noalias sret(%"class.std::__cxx11::basic_string") align 8 %agg.result, ptr noundef nonnull align 8 dereferenceable(97) %this) unnamed_addr #4 align 2 {
entry:
  %result.ptr = alloca ptr, align 8
  %this.addr = alloca ptr, align 8
  store ptr %agg.result, ptr %result.ptr, align 8
  store ptr %this, ptr %this.addr, align 8
  %this1 = load ptr, ptr %this.addr, align 8
  %call = call noundef ptr @_ZNK4node8profiler20V8ProfilerConnection3envEv(ptr noundef nonnull align 8 dereferenceable(88) %this1)
  %call2 = call noundef nonnull align 8 dereferenceable(32) ptr @_ZNK4node11Environment14heap_prof_nameB5cxx11Ev(ptr noundef nonnull align 8 dereferenceable(2872) %call)
  call void @_ZNSt7__cxx1112basic_stringIcSt11char_traitsIcESaIcEEC1ERKS4_(ptr noundef nonnull align 8 dereferenceable(32) %agg.result, ptr noundef nonnull align 8 dereferenceable(32) %call2)
  ret void
}

; Function Attrs: mustprogress nounwind uwtable
define linkonce_odr dso_local noundef nonnull align 8 dereferenceable(32) ptr @_ZNK4node11Environment14heap_prof_nameB5cxx11Ev(ptr noundef nonnull align 8 dereferenceable(2872) %this) #4 comdat align 2 {
entry:
  %this.addr = alloca ptr, align 8
  store ptr %this, ptr %this.addr, align 8
  %this1 = load ptr, ptr %this.addr, align 8
  %heap_prof_name_ = getelementptr inbounds %"class.node::Environment", ptr %this1, i32 0, i32 38
  ret ptr %heap_prof_name_
}

; Function Attrs: mustprogress nounwind uwtable
define dso_local ptr @_ZN4node8profiler24V8HeapProfilerConnection10GetProfileEN2v85LocalINS2_6ObjectEEE(ptr noundef nonnull align 8 dereferenceable(97) %this, ptr %result.coerce) unnamed_addr #4 align 2 {
entry:
  %this.addr.i.i102 = alloca ptr, align 8
  %this.addr.i103 = alloca ptr, align 8
  %this.addr.i99 = alloca ptr, align 8
  %other.addr.i100 = alloca ptr, align 8
  %this.addr.i96 = alloca ptr, align 8
  %other.addr.i97 = alloca ptr, align 8
  %retval.i94 = alloca %"class.v8::Local.320", align 8
  %that.i95 = alloca %"class.v8::Local.317", align 8
  %ref.tmp.i = alloca %"class.v8::LocalBase.321", align 8
  %slot.addr.i93 = alloca ptr, align 8
  %this.addr.i.i89 = alloca ptr, align 8
  %this.addr.i90 = alloca ptr, align 8
  %this.addr.i87 = alloca ptr, align 8
  %other.addr.i = alloca ptr, align 8
  %slot.addr.i = alloca ptr, align 8
  %this.addr.i.i83 = alloca ptr, align 8
  %this.addr.i84 = alloca ptr, align 8
  %this.addr.i.i79 = alloca ptr, align 8
  %this.addr.i80 = alloca ptr, align 8
  %this.addr.i.i75 = alloca ptr, align 8
  %this.addr.i76 = alloca ptr, align 8
  %this.addr.i.i71 = alloca ptr, align 8
  %this.addr.i72 = alloca ptr, align 8
  %this.addr.i.i67 = alloca ptr, align 8
  %this.addr.i68 = alloca ptr, align 8
  %this.addr.i.i = alloca ptr, align 8
  %this.addr.i65 = alloca ptr, align 8
  %that.i62 = alloca %"class.v8::Local.320", align 8
  %this.addr.i63 = alloca ptr, align 8
  %that.i = alloca %"class.v8::Local.315", align 8
  %this.addr.i61 = alloca ptr, align 8
  %this.addr.i58 = alloca ptr, align 8
  %retval.i = alloca %"class.v8::Local.320", align 8
  %this.addr.i55 = alloca ptr, align 8
  %agg.tmp.i = alloca %"class.v8::Local.317", align 8
  %this.addr.i52 = alloca ptr, align 8
  %this.addr.i50 = alloca ptr, align 8
  %out.addr.i = alloca ptr, align 8
  %this.addr.i = alloca ptr, align 8
  %retval = alloca %"class.v8::MaybeLocal.324", align 8
  %result = alloca %"class.v8::Local.320", align 8
  %this.addr = alloca ptr, align 8
  %profile_v = alloca %"class.v8::Local.317", align 8
  %ref.tmp = alloca %"class.v8::MaybeLocal.319", align 8
  %agg.tmp = alloca %"class.v8::Local", align 8
  %agg.tmp9 = alloca %"class.v8::Local.317", align 8
  %agg.tmp10 = alloca %"class.v8::Local.315", align 8
  %agg.tmp38 = alloca %"class.v8::Local.320", align 8
  %coerce.dive = getelementptr inbounds %"class.v8::Local.320", ptr %result, i32 0, i32 0
  %coerce.dive1 = getelementptr inbounds %"class.v8::LocalBase.321", ptr %coerce.dive, i32 0, i32 0
  %coerce.dive2 = getelementptr inbounds %"class.v8::IndirectHandleBase", ptr %coerce.dive1, i32 0, i32 0
  store ptr %result.coerce, ptr %coerce.dive2, align 8
  store ptr %this, ptr %this.addr, align 8
  %this3 = load ptr, ptr %this.addr, align 8
  store ptr %profile_v, ptr %this.addr.i, align 8
  %this1.i = load ptr, ptr %this.addr.i, align 8
  store ptr %this1.i, ptr %this.addr.i72, align 8
  %this1.i73 = load ptr, ptr %this.addr.i72, align 8
  store ptr %this1.i73, ptr %this.addr.i.i71, align 8
  %this1.i.i74 = load ptr, ptr %this.addr.i.i71, align 8
  store ptr null, ptr %this1.i.i74, align 8
  store ptr %result, ptr %this.addr.i58, align 8
  %this1.i59 = load ptr, ptr %this.addr.i58, align 8
  store ptr %this1.i59, ptr %this.addr.i84, align 8
  %this1.i85 = load ptr, ptr %this.addr.i84, align 8
  store ptr %this1.i85, ptr %this.addr.i.i83, align 8
  %this1.i.i86 = load ptr, ptr %this.addr.i.i83, align 8
  %0 = load ptr, ptr %this1.i.i86, align 8
  store ptr %0, ptr %slot.addr.i, align 8
  %1 = load ptr, ptr %slot.addr.i, align 8
  %call4 = call noundef ptr @_ZNK4node8profiler20V8ProfilerConnection3envEv(ptr noundef nonnull align 8 dereferenceable(88) %this3)
  %call5 = call ptr @_ZNK4node11Environment7contextEv(ptr noundef nonnull align 8 dereferenceable(2872) %call4)
  %coerce.dive6 = getelementptr inbounds %"class.v8::Local", ptr %agg.tmp, i32 0, i32 0
  %coerce.dive7 = getelementptr inbounds %"class.v8::LocalBase", ptr %coerce.dive6, i32 0, i32 0
  %coerce.dive8 = getelementptr inbounds %"class.v8::IndirectHandleBase", ptr %coerce.dive7, i32 0, i32 0
  store ptr %call5, ptr %coerce.dive8, align 8
  %call11 = call noundef ptr @_ZNK4node8profiler20V8ProfilerConnection3envEv(ptr noundef nonnull align 8 dereferenceable(88) %this3)
  %call12 = call noundef ptr @_ZNK4node11Environment7isolateEv(ptr noundef nonnull align 8 dereferenceable(2872) %call11)
  %call13 = call ptr @_ZN4node21FIXED_ONE_BYTE_STRINGILi8EEEN2v85LocalINS1_6StringEEEPNS1_7IsolateERAT__Kc(ptr noundef %call12, ptr noundef nonnull align 1 dereferenceable(8) @.str.24)
  %coerce.dive14 = getelementptr inbounds %"class.v8::Local.315", ptr %agg.tmp10, i32 0, i32 0
  %coerce.dive15 = getelementptr inbounds %"class.v8::LocalBase.316", ptr %coerce.dive14, i32 0, i32 0
  %coerce.dive16 = getelementptr inbounds %"class.v8::IndirectHandleBase", ptr %coerce.dive15, i32 0, i32 0
  store ptr %call13, ptr %coerce.dive16, align 8
  %coerce.dive17 = getelementptr inbounds %"class.v8::Local.315", ptr %agg.tmp10, i32 0, i32 0
  %coerce.dive18 = getelementptr inbounds %"class.v8::LocalBase.316", ptr %coerce.dive17, i32 0, i32 0
  %coerce.dive19 = getelementptr inbounds %"class.v8::IndirectHandleBase", ptr %coerce.dive18, i32 0, i32 0
  %2 = load ptr, ptr %coerce.dive19, align 8
  store ptr %2, ptr %that.i, align 8
  store ptr %agg.tmp9, ptr %this.addr.i61, align 8
  %this3.i = load ptr, ptr %this.addr.i61, align 8
  store ptr %this3.i, ptr %this.addr.i87, align 8
  store ptr %that.i, ptr %other.addr.i, align 8
  %this1.i88 = load ptr, ptr %this.addr.i87, align 8
  %3 = load ptr, ptr %other.addr.i, align 8
  call void @llvm.memcpy.p0.p0.i64(ptr align 8 %this1.i88, ptr align 8 %3, i64 8, i1 false)
  %coerce.dive20 = getelementptr inbounds %"class.v8::Local", ptr %agg.tmp, i32 0, i32 0
  %coerce.dive21 = getelementptr inbounds %"class.v8::LocalBase", ptr %coerce.dive20, i32 0, i32 0
  %coerce.dive22 = getelementptr inbounds %"class.v8::IndirectHandleBase", ptr %coerce.dive21, i32 0, i32 0
  %4 = load ptr, ptr %coerce.dive22, align 8
  %coerce.dive23 = getelementptr inbounds %"class.v8::Local.317", ptr %agg.tmp9, i32 0, i32 0
  %coerce.dive24 = getelementptr inbounds %"class.v8::LocalBase.318", ptr %coerce.dive23, i32 0, i32 0
  %coerce.dive25 = getelementptr inbounds %"class.v8::IndirectHandleBase", ptr %coerce.dive24, i32 0, i32 0
  %5 = load ptr, ptr %coerce.dive25, align 8
  %call26 = call ptr @_ZN2v86Object3GetENS_5LocalINS_7ContextEEENS1_INS_5ValueEEE(ptr noundef nonnull align 1 dereferenceable(1) %1, ptr %4, ptr %5)
  %coerce.dive27 = getelementptr inbounds %"class.v8::MaybeLocal.319", ptr %ref.tmp, i32 0, i32 0
  %coerce.dive28 = getelementptr inbounds %"class.v8::Local.317", ptr %coerce.dive27, i32 0, i32 0
  %coerce.dive29 = getelementptr inbounds %"class.v8::LocalBase.318", ptr %coerce.dive28, i32 0, i32 0
  %coerce.dive30 = getelementptr inbounds %"class.v8::IndirectHandleBase", ptr %coerce.dive29, i32 0, i32 0
  store ptr %call26, ptr %coerce.dive30, align 8
  store ptr %ref.tmp, ptr %this.addr.i50, align 8
  store ptr %profile_v, ptr %out.addr.i, align 8
  %this1.i51 = load ptr, ptr %this.addr.i50, align 8
  %6 = load ptr, ptr %out.addr.i, align 8
  call void @llvm.memcpy.p0.p0.i64(ptr align 8 %6, ptr align 8 %this1.i51, i64 8, i1 false)
  store ptr %this1.i51, ptr %this.addr.i103, align 8
  %this1.i104 = load ptr, ptr %this.addr.i103, align 8
  store ptr %this1.i104, ptr %this.addr.i.i102, align 8
  %this1.i.i105 = load ptr, ptr %this.addr.i.i102, align 8
  %7 = load ptr, ptr %this1.i.i105, align 8
  %cmp.i.i = icmp eq ptr %7, null
  %lnot.i = xor i1 %cmp.i.i, true
  %lnot = xor i1 %lnot.i, true
  br i1 %lnot, label %if.then, label %if.end

if.then:                                          ; preds = %entry
  %8 = load ptr, ptr @stderr, align 8
  %call32 = call i32 (ptr, ptr, ...) @fprintf(ptr noundef %8, ptr noundef @.str.32)
  store ptr %retval, ptr %this.addr.i65, align 8
  %this1.i66 = load ptr, ptr %this.addr.i65, align 8
  call void @llvm.memset.p0.i64(ptr align 8 %this1.i66, i8 0, i64 8, i1 false)
  store ptr %this1.i66, ptr %this.addr.i.i, align 8
  %this1.i.i = load ptr, ptr %this.addr.i.i, align 8
  store ptr %this1.i.i, ptr %this.addr.i80, align 8
  %this1.i81 = load ptr, ptr %this.addr.i80, align 8
  store ptr %this1.i81, ptr %this.addr.i.i79, align 8
  %this1.i.i82 = load ptr, ptr %this.addr.i.i79, align 8
  store ptr null, ptr %this1.i.i82, align 8
  br label %return

if.end:                                           ; preds = %entry
  store ptr %profile_v, ptr %this.addr.i52, align 8
  %this1.i53 = load ptr, ptr %this.addr.i52, align 8
  store ptr %this1.i53, ptr %this.addr.i90, align 8
  %this1.i91 = load ptr, ptr %this.addr.i90, align 8
  store ptr %this1.i91, ptr %this.addr.i.i89, align 8
  %this1.i.i92 = load ptr, ptr %this.addr.i.i89, align 8
  %9 = load ptr, ptr %this1.i.i92, align 8
  store ptr %9, ptr %slot.addr.i93, align 8
  %10 = load ptr, ptr %slot.addr.i93, align 8
  %call34 = call noundef zeroext i1 @_ZNK2v85Value8IsObjectEv(ptr noundef nonnull align 1 dereferenceable(1) %10)
  br i1 %call34, label %if.end37, label %if.then35

if.then35:                                        ; preds = %if.end
  %11 = load ptr, ptr @stderr, align 8
  %call36 = call i32 (ptr, ptr, ...) @fprintf(ptr noundef %11, ptr noundef @.str.33)
  store ptr %retval, ptr %this.addr.i68, align 8
  %this1.i69 = load ptr, ptr %this.addr.i68, align 8
  call void @llvm.memset.p0.i64(ptr align 8 %this1.i69, i8 0, i64 8, i1 false)
  store ptr %this1.i69, ptr %this.addr.i.i67, align 8
  %this1.i.i70 = load ptr, ptr %this.addr.i.i67, align 8
  store ptr %this1.i.i70, ptr %this.addr.i76, align 8
  %this1.i77 = load ptr, ptr %this.addr.i76, align 8
  store ptr %this1.i77, ptr %this.addr.i.i75, align 8
  %this1.i.i78 = load ptr, ptr %this.addr.i.i75, align 8
  store ptr null, ptr %this1.i.i78, align 8
  br label %return

if.end37:                                         ; preds = %if.end
  store ptr %profile_v, ptr %this.addr.i55, align 8
  %this1.i56 = load ptr, ptr %this.addr.i55, align 8
  call void @llvm.memcpy.p0.p0.i64(ptr align 8 %agg.tmp.i, ptr align 8 %this1.i56, i64 8, i1 false)
  %12 = load ptr, ptr %agg.tmp.i, align 8
  store ptr %12, ptr %that.i95, align 8
  store ptr %ref.tmp.i, ptr %this.addr.i96, align 8
  store ptr %that.i95, ptr %other.addr.i97, align 8
  %this1.i98 = load ptr, ptr %this.addr.i96, align 8
  %13 = load ptr, ptr %other.addr.i97, align 8
  call void @llvm.memcpy.p0.p0.i64(ptr align 8 %this1.i98, ptr align 8 %13, i64 8, i1 false)
  store ptr %retval.i94, ptr %this.addr.i99, align 8
  store ptr %ref.tmp.i, ptr %other.addr.i100, align 8
  %this1.i101 = load ptr, ptr %this.addr.i99, align 8
  %14 = load ptr, ptr %other.addr.i100, align 8
  call void @llvm.memcpy.p0.p0.i64(ptr align 8 %this1.i101, ptr align 8 %14, i64 8, i1 false)
  %15 = load ptr, ptr %retval.i94, align 8
  store ptr %15, ptr %retval.i, align 8
  %16 = load ptr, ptr %retval.i, align 8
  %coerce.dive40 = getelementptr inbounds %"class.v8::Local.320", ptr %agg.tmp38, i32 0, i32 0
  %coerce.dive41 = getelementptr inbounds %"class.v8::LocalBase.321", ptr %coerce.dive40, i32 0, i32 0
  %coerce.dive42 = getelementptr inbounds %"class.v8::IndirectHandleBase", ptr %coerce.dive41, i32 0, i32 0
  store ptr %16, ptr %coerce.dive42, align 8
  %coerce.dive43 = getelementptr inbounds %"class.v8::Local.320", ptr %agg.tmp38, i32 0, i32 0
  %coerce.dive44 = getelementptr inbounds %"class.v8::LocalBase.321", ptr %coerce.dive43, i32 0, i32 0
  %coerce.dive45 = getelementptr inbounds %"class.v8::IndirectHandleBase", ptr %coerce.dive44, i32 0, i32 0
  %17 = load ptr, ptr %coerce.dive45, align 8
  store ptr %17, ptr %that.i62, align 8
  store ptr %retval, ptr %this.addr.i63, align 8
  %this3.i64 = load ptr, ptr %this.addr.i63, align 8
  call void @llvm.memcpy.p0.p0.i64(ptr align 8 %this3.i64, ptr align 8 %that.i62, i64 8, i1 false)
  br label %return

return:                                           ; preds = %if.end37, %if.then35, %if.then
  %coerce.dive46 = getelementptr inbounds %"class.v8::MaybeLocal.324", ptr %retval, i32 0, i32 0
  %coerce.dive47 = getelementptr inbounds %"class.v8::Local.320", ptr %coerce.dive46, i32 0, i32 0
  %coerce.dive48 = getelementptr inbounds %"class.v8::LocalBase.321", ptr %coerce.dive47, i32 0, i32 0
  %coerce.dive49 = getelementptr inbounds %"class.v8::IndirectHandleBase", ptr %coerce.dive48, i32 0, i32 0
  %18 = load ptr, ptr %coerce.dive49, align 8
  ret ptr %18
}

; Function Attrs: mustprogress nounwind uwtable
define dso_local void @_ZN4node8profiler24V8HeapProfilerConnection5StartEv(ptr noundef nonnull align 8 dereferenceable(97) %this) unnamed_addr #4 align 2 {
entry:
  %this.addr = alloca ptr, align 8
  %params = alloca %"class.std::__cxx11::basic_string", align 8
  %ref.tmp = alloca %"class.std::allocator.20", align 1
  %ref.tmp2 = alloca %"class.std::__cxx11::basic_string", align 8
  store ptr %this, ptr %this.addr, align 8
  %this1 = load ptr, ptr %this.addr, align 8
  %call = call noundef i32 @_ZN4node8profiler20V8ProfilerConnection15DispatchMessageEPKcS3_b(ptr noundef nonnull align 8 dereferenceable(88) %this1, ptr noundef @.str.34, ptr noundef null, i1 noundef zeroext false)
  call void @_ZNSaIcEC1Ev(ptr noundef nonnull align 1 dereferenceable(1) %ref.tmp) #3
  call void @_ZNSt7__cxx1112basic_stringIcSt11char_traitsIcESaIcEEC2IS3_EEPKcRKS3_(ptr noundef nonnull align 8 dereferenceable(32) %params, ptr noundef @.str.35, ptr noundef nonnull align 1 dereferenceable(1) %ref.tmp)
  call void @_ZNSaIcED1Ev(ptr noundef nonnull align 1 dereferenceable(1) %ref.tmp) #3
  %call3 = call noundef ptr @_ZNK4node8profiler20V8ProfilerConnection3envEv(ptr noundef nonnull align 8 dereferenceable(88) %this1)
  %call4 = call noundef i64 @_ZNK4node11Environment18heap_prof_intervalEv(ptr noundef nonnull align 8 dereferenceable(2872) %call3)
  call void @_ZNSt7__cxx119to_stringEm(ptr sret(%"class.std::__cxx11::basic_string") align 8 %ref.tmp2, i64 noundef %call4)
  %call5 = call noundef nonnull align 8 dereferenceable(32) ptr @_ZNSt7__cxx1112basic_stringIcSt11char_traitsIcESaIcEEpLERKS4_(ptr noundef nonnull align 8 dereferenceable(32) %params, ptr noundef nonnull align 8 dereferenceable(32) %ref.tmp2)
  call void @_ZNSt7__cxx1112basic_stringIcSt11char_traitsIcESaIcEED1Ev(ptr noundef nonnull align 8 dereferenceable(32) %ref.tmp2) #3
  %call6 = call noundef nonnull align 8 dereferenceable(32) ptr @_ZNSt7__cxx1112basic_stringIcSt11char_traitsIcESaIcEEpLEPKc(ptr noundef nonnull align 8 dereferenceable(32) %params, ptr noundef @.str.3)
  %call7 = call noundef ptr @_ZNKSt7__cxx1112basic_stringIcSt11char_traitsIcESaIcEE5c_strEv(ptr noundef nonnull align 8 dereferenceable(32) %params) #3
  %call8 = call noundef i32 @_ZN4node8profiler20V8ProfilerConnection15DispatchMessageEPKcS3_b(ptr noundef nonnull align 8 dereferenceable(88) %this1, ptr noundef @.str.36, ptr noundef %call7, i1 noundef zeroext false)
  call void @_ZNSt7__cxx1112basic_stringIcSt11char_traitsIcESaIcEED1Ev(ptr noundef nonnull align 8 dereferenceable(32) %params) #3
  ret void
}

; Function Attrs: mustprogress nounwind uwtable
define linkonce_odr dso_local noundef i64 @_ZNK4node11Environment18heap_prof_intervalEv(ptr noundef nonnull align 8 dereferenceable(2872) %this) #4 comdat align 2 {
entry:
  %this.addr = alloca ptr, align 8
  store ptr %this, ptr %this.addr, align 8
  %this1 = load ptr, ptr %this.addr, align 8
  %heap_prof_interval_ = getelementptr inbounds %"class.node::Environment", ptr %this1, i32 0, i32 39
  %0 = load i64, ptr %heap_prof_interval_, align 8
  ret i64 %0
}

; Function Attrs: mustprogress nounwind uwtable
define dso_local void @_ZN4node8profiler24V8HeapProfilerConnection3EndEv(ptr noundef nonnull align 8 dereferenceable(97) %this) unnamed_addr #4 align 2 {
entry:
  %this.addr.i.i = alloca ptr, align 8
  %category.addr.i.i = alloca i32, align 4
  %list.addr.i = alloca ptr, align 8
  %cat.addr.i4 = alloca i32, align 4
  %format.addr.i5 = alloca ptr, align 8
  %args.addr.i6 = alloca ptr, align 8
  %env.addr.i = alloca ptr, align 8
  %cat.addr.i = alloca i32, align 4
  %format.addr.i = alloca ptr, align 8
  %args.addr.i = alloca ptr, align 8
  %this.addr = alloca ptr, align 8
  store ptr %this, ptr %this.addr, align 8
  %this1 = load ptr, ptr %this.addr, align 8
  %env_ = getelementptr inbounds %"class.node::profiler::V8ProfilerConnection", ptr %this1, i32 0, i32 4
  %0 = load ptr, ptr %env_, align 8
  %ending_ = getelementptr inbounds %"class.node::profiler::V8HeapProfilerConnection", ptr %this1, i32 0, i32 2
  store ptr %0, ptr %env.addr.i, align 8
  store i32 67, ptr %cat.addr.i, align 4
  store ptr @.str.37, ptr %format.addr.i, align 8
  store ptr %ending_, ptr %args.addr.i, align 8
  %1 = load ptr, ptr %env.addr.i, align 8
  %call.i = call noundef ptr @_ZN4node11Environment18enabled_debug_listEv(ptr noundef nonnull align 8 dereferenceable(2872) %1)
  %2 = load i32, ptr %cat.addr.i, align 4
  %3 = load ptr, ptr %format.addr.i, align 8
  %4 = load ptr, ptr %args.addr.i, align 8
  store ptr %call.i, ptr %list.addr.i, align 8
  store i32 %2, ptr %cat.addr.i4, align 4
  store ptr %3, ptr %format.addr.i5, align 8
  store ptr %4, ptr %args.addr.i6, align 8
  %5 = load ptr, ptr %list.addr.i, align 8
  %6 = load i32, ptr %cat.addr.i4, align 4
  store ptr %5, ptr %this.addr.i.i, align 8
  store i32 %6, ptr %category.addr.i.i, align 4
  %this1.i.i = load ptr, ptr %this.addr.i.i, align 8
  %7 = load i32, ptr %category.addr.i.i, align 4
  %idxprom.i.i = zext i32 %7 to i64
  %arrayidx.i.i = getelementptr inbounds [75 x i8], ptr %this1.i.i, i64 0, i64 %idxprom.i.i
  %8 = load i8, ptr %arrayidx.i.i, align 1
  %tobool.i.i = trunc i8 %8 to i1
  br i1 %tobool.i.i, label %if.end.i, label %if.then.i

if.then.i:                                        ; preds = %entry
  br label %_ZN4node5DebugIJRbEEEvPNS_16EnabledDebugListENS_13DebugCategoryEPKcDpOT_.exit

if.end.i:                                         ; preds = %entry
  %9 = load ptr, ptr @stderr, align 8
  %10 = load ptr, ptr %format.addr.i5, align 8
  %11 = load ptr, ptr %args.addr.i6, align 8
  call void @_ZN4node7FPrintFIJRbEEEvP8_IO_FILEPKcDpOT_(ptr noundef %9, ptr noundef %10, ptr noundef nonnull align 1 dereferenceable(1) %11) #15
  br label %_ZN4node5DebugIJRbEEEvPNS_16EnabledDebugListENS_13DebugCategoryEPKcDpOT_.exit

_ZN4node5DebugIJRbEEEvPNS_16EnabledDebugListENS_13DebugCategoryEPKcDpOT_.exit: ; preds = %if.end.i, %if.then.i
  %ending_2 = getelementptr inbounds %"class.node::profiler::V8HeapProfilerConnection", ptr %this1, i32 0, i32 2
  %12 = load i8, ptr %ending_2, align 8
  %tobool = trunc i8 %12 to i1
  br i1 %tobool, label %if.then, label %if.end

if.then:                                          ; preds = %_ZN4node5DebugIJRbEEEvPNS_16EnabledDebugListENS_13DebugCategoryEPKcDpOT_.exit
  br label %return

if.end:                                           ; preds = %_ZN4node5DebugIJRbEEEvPNS_16EnabledDebugListENS_13DebugCategoryEPKcDpOT_.exit
  %ending_3 = getelementptr inbounds %"class.node::profiler::V8HeapProfilerConnection", ptr %this1, i32 0, i32 2
  store i8 1, ptr %ending_3, align 8
  %call = call noundef i32 @_ZN4node8profiler20V8ProfilerConnection15DispatchMessageEPKcS3_b(ptr noundef nonnull align 8 dereferenceable(88) %this1, ptr noundef @.str.38, ptr noundef null, i1 noundef zeroext true)
  br label %return

return:                                           ; preds = %if.end, %if.then
  ret void
}

; Function Attrs: mustprogress nounwind uwtable
define dso_local void @_ZN4node8profiler14StartProfilersEPNS_11EnvironmentE(ptr noundef %env) #4 {
entry:
  %slot.addr.i = alloca ptr, align 8
  %this.addr.i.i124 = alloca ptr, align 8
  %this.addr.i125 = alloca ptr, align 8
  %this.addr.i.i = alloca ptr, align 8
  %this.addr.i122 = alloca ptr, align 8
  %this.addr.i120 = alloca ptr, align 8
  %this.addr.i118 = alloca ptr, align 8
  %this.addr.i115 = alloca ptr, align 8
  %retval.i = alloca %"class.v8::Local.315", align 8
  %default_value.i = alloca %"class.v8::Local.315", align 8
  %this.addr.i114 = alloca ptr, align 8
  %this.addr.i112 = alloca ptr, align 8
  %this.addr.i = alloca ptr, align 8
  %env.addr = alloca ptr, align 8
  %ref.tmp = alloca %class.anon, align 1
  %isolate = alloca ptr, align 8
  %coverage_str = alloca %"class.v8::Local.315", align 8
  %ref.tmp2 = alloca %"class.v8::MaybeLocal", align 8
  %ref.tmp3 = alloca %"class.std::shared_ptr.88", align 8
  %agg.tmp = alloca %"class.v8::Local.315", align 8
  %agg.tmp16 = alloca %"class.v8::Local.315", align 8
  %ref.tmp27 = alloca %"class.std::shared_ptr.140", align 8
  %cleanup.cond = alloca i1, align 1
  %agg.tmp36 = alloca %"class.std::unique_ptr.116", align 8
  %ref.tmp41 = alloca %"class.std::shared_ptr.140", align 8
  %dir = alloca ptr, align 8
  %ref.tmp45 = alloca %"class.std::shared_ptr.140", align 8
  %ref.tmp47 = alloca %"class.std::shared_ptr.140", align 8
  %ref.tmp49 = alloca %"class.std::__cxx11::basic_string", align 8
  %ref.tmp52 = alloca %"class.std::shared_ptr.140", align 8
  %filename = alloca %"class.node::DiagnosticFilename", align 8
  %ref.tmp56 = alloca %"class.std::__cxx11::basic_string", align 8
  %ref.tmp58 = alloca %"class.std::allocator.20", align 1
  %ref.tmp59 = alloca %"class.std::shared_ptr.140", align 8
  %agg.tmp74 = alloca %"class.std::unique_ptr.124", align 8
  %ref.tmp79 = alloca %"class.std::shared_ptr.140", align 8
  %dir83 = alloca ptr, align 8
  %ref.tmp84 = alloca %"class.std::shared_ptr.140", align 8
  %ref.tmp86 = alloca %"class.std::shared_ptr.140", align 8
  %ref.tmp88 = alloca %"class.std::__cxx11::basic_string", align 8
  %ref.tmp94 = alloca %"class.std::shared_ptr.140", align 8
  %filename98 = alloca %"class.node::DiagnosticFilename", align 8
  %ref.tmp99 = alloca %"class.std::__cxx11::basic_string", align 8
  %ref.tmp101 = alloca %"class.std::allocator.20", align 1
  %ref.tmp103 = alloca %"class.std::shared_ptr.140", align 8
  %agg.tmp107 = alloca %"class.std::unique_ptr.132", align 8
  store ptr %env, ptr %env.addr, align 8
  %0 = load ptr, ptr %env.addr, align 8
  %call = call noundef ptr @"_ZZN4node8profiler14StartProfilersEPNS_11EnvironmentEENK3$_0cvPFvPvEEv"(ptr noundef nonnull align 1 dereferenceable(1) %ref.tmp) #3
  %1 = load ptr, ptr %env.addr, align 8
  call void @_ZN4node6AtExitEPNS_11EnvironmentEPFvPvES2_(ptr noundef %0, ptr noundef %call, ptr noundef %1)
  %2 = load ptr, ptr %env.addr, align 8
  %call1 = call noundef ptr @_ZNK4node11Environment7isolateEv(ptr noundef nonnull align 8 dereferenceable(2872) %2)
  store ptr %call1, ptr %isolate, align 8
  %3 = load ptr, ptr %env.addr, align 8
  call void @_ZN4node11Environment8env_varsEv(ptr sret(%"class.std::shared_ptr.88") align 8 %ref.tmp3, ptr noundef nonnull align 8 dereferenceable(2872) %3)
  %call4 = call noundef ptr @_ZNKSt19__shared_ptr_accessIN4node7KVStoreELN9__gnu_cxx12_Lock_policyE2ELb0ELb0EEptEv(ptr noundef nonnull align 1 dereferenceable(1) %ref.tmp3) #3
  %4 = load ptr, ptr %isolate, align 8
  %5 = load ptr, ptr %isolate, align 8
  %call5 = call ptr @_ZN4node21FIXED_ONE_BYTE_STRINGILi17EEEN2v85LocalINS1_6StringEEEPNS1_7IsolateERAT__Kc(ptr noundef %5, ptr noundef nonnull align 1 dereferenceable(17) @.str.39)
  %coerce.dive = getelementptr inbounds %"class.v8::Local.315", ptr %agg.tmp, i32 0, i32 0
  %coerce.dive6 = getelementptr inbounds %"class.v8::LocalBase.316", ptr %coerce.dive, i32 0, i32 0
  %coerce.dive7 = getelementptr inbounds %"class.v8::IndirectHandleBase", ptr %coerce.dive6, i32 0, i32 0
  store ptr %call5, ptr %coerce.dive7, align 8
  %coerce.dive8 = getelementptr inbounds %"class.v8::Local.315", ptr %agg.tmp, i32 0, i32 0
  %coerce.dive9 = getelementptr inbounds %"class.v8::LocalBase.316", ptr %coerce.dive8, i32 0, i32 0
  %coerce.dive10 = getelementptr inbounds %"class.v8::IndirectHandleBase", ptr %coerce.dive9, i32 0, i32 0
  %6 = load ptr, ptr %coerce.dive10, align 8
  %vtable = load ptr, ptr %call4, align 8
  %vfn = getelementptr inbounds ptr, ptr %vtable, i64 2
  %7 = load ptr, ptr %vfn, align 8
  %call11 = call ptr %7(ptr noundef nonnull align 8 dereferenceable(8) %call4, ptr noundef %4, ptr %6)
  %coerce.dive12 = getelementptr inbounds %"class.v8::MaybeLocal", ptr %ref.tmp2, i32 0, i32 0
  %coerce.dive13 = getelementptr inbounds %"class.v8::Local.315", ptr %coerce.dive12, i32 0, i32 0
  %coerce.dive14 = getelementptr inbounds %"class.v8::LocalBase.316", ptr %coerce.dive13, i32 0, i32 0
  %coerce.dive15 = getelementptr inbounds %"class.v8::IndirectHandleBase", ptr %coerce.dive14, i32 0, i32 0
  store ptr %call11, ptr %coerce.dive15, align 8
  call void @llvm.memset.p0.i64(ptr align 8 %agg.tmp16, i8 0, i64 8, i1 false)
  store ptr %agg.tmp16, ptr %this.addr.i, align 8
  %this1.i = load ptr, ptr %this.addr.i, align 8
  store ptr %this1.i, ptr %this.addr.i118, align 8
  %this1.i119 = load ptr, ptr %this.addr.i118, align 8
  store ptr %this1.i119, ptr %this.addr.i120, align 8
  %this1.i121 = load ptr, ptr %this.addr.i120, align 8
  store ptr null, ptr %this1.i121, align 8
  %coerce.dive17 = getelementptr inbounds %"class.v8::Local.315", ptr %agg.tmp16, i32 0, i32 0
  %coerce.dive18 = getelementptr inbounds %"class.v8::LocalBase.316", ptr %coerce.dive17, i32 0, i32 0
  %coerce.dive19 = getelementptr inbounds %"class.v8::IndirectHandleBase", ptr %coerce.dive18, i32 0, i32 0
  %8 = load ptr, ptr %coerce.dive19, align 8
  store ptr %8, ptr %default_value.i, align 8
  store ptr %ref.tmp2, ptr %this.addr.i114, align 8
  %this3.i = load ptr, ptr %this.addr.i114, align 8
  store ptr %this3.i, ptr %this.addr.i122, align 8
  %this1.i123 = load ptr, ptr %this.addr.i122, align 8
  store ptr %this1.i123, ptr %this.addr.i.i, align 8
  %this1.i.i = load ptr, ptr %this.addr.i.i, align 8
  %9 = load ptr, ptr %this1.i.i, align 8
  %cmp.i.i = icmp eq ptr %9, null
  br i1 %cmp.i.i, label %cond.true.i, label %cond.false.i

cond.true.i:                                      ; preds = %entry
  call void @llvm.memcpy.p0.p0.i64(ptr align 8 %retval.i, ptr align 8 %default_value.i, i64 8, i1 false)
  br label %_ZNK2v810MaybeLocalINS_6StringEE9FromMaybeIS1_EENS_5LocalIT_EES6_.exit

cond.false.i:                                     ; preds = %entry
  call void @llvm.memcpy.p0.p0.i64(ptr align 8 %retval.i, ptr align 8 %this3.i, i64 8, i1 false)
  br label %_ZNK2v810MaybeLocalINS_6StringEE9FromMaybeIS1_EENS_5LocalIT_EES6_.exit

_ZNK2v810MaybeLocalINS_6StringEE9FromMaybeIS1_EENS_5LocalIT_EES6_.exit: ; preds = %cond.false.i, %cond.true.i
  %10 = load ptr, ptr %retval.i, align 8
  %coerce.dive21 = getelementptr inbounds %"class.v8::Local.315", ptr %coverage_str, i32 0, i32 0
  %coerce.dive22 = getelementptr inbounds %"class.v8::LocalBase.316", ptr %coerce.dive21, i32 0, i32 0
  %coerce.dive23 = getelementptr inbounds %"class.v8::IndirectHandleBase", ptr %coerce.dive22, i32 0, i32 0
  store ptr %10, ptr %coerce.dive23, align 8
  call void @_ZNSt10shared_ptrIN4node7KVStoreEED2Ev(ptr noundef nonnull align 8 dereferenceable(16) %ref.tmp3) #3
  store ptr %coverage_str, ptr %this.addr.i112, align 8
  %this1.i113 = load ptr, ptr %this.addr.i112, align 8
  %11 = load ptr, ptr %this1.i113, align 8
  %cmp.i = icmp eq ptr %11, null
  store i1 false, ptr %cleanup.cond, align 1
  br i1 %cmp.i, label %lor.rhs, label %land.lhs.true

land.lhs.true:                                    ; preds = %_ZNK2v810MaybeLocalINS_6StringEE9FromMaybeIS1_EENS_5LocalIT_EES6_.exit
  store ptr %coverage_str, ptr %this.addr.i115, align 8
  %this1.i116 = load ptr, ptr %this.addr.i115, align 8
  store ptr %this1.i116, ptr %this.addr.i125, align 8
  %this1.i126 = load ptr, ptr %this.addr.i125, align 8
  store ptr %this1.i126, ptr %this.addr.i.i124, align 8
  %this1.i.i127 = load ptr, ptr %this.addr.i.i124, align 8
  %12 = load ptr, ptr %this1.i.i127, align 8
  store ptr %12, ptr %slot.addr.i, align 8
  %13 = load ptr, ptr %slot.addr.i, align 8
  %call26 = call noundef i32 @_ZNK2v86String6LengthEv(ptr noundef nonnull align 1 dereferenceable(1) %13)
  %cmp = icmp sgt i32 %call26, 0
  br i1 %cmp, label %lor.end, label %lor.rhs

lor.rhs:                                          ; preds = %land.lhs.true, %_ZNK2v810MaybeLocalINS_6StringEE9FromMaybeIS1_EENS_5LocalIT_EES6_.exit
  %14 = load ptr, ptr %env.addr, align 8
  call void @_ZN4node11Environment7optionsEv(ptr sret(%"class.std::shared_ptr.140") align 8 %ref.tmp27, ptr noundef nonnull align 8 dereferenceable(2872) %14)
  store i1 true, ptr %cleanup.cond, align 1
  %call28 = call noundef ptr @_ZNKSt19__shared_ptr_accessIN4node18EnvironmentOptionsELN9__gnu_cxx12_Lock_policyE2ELb0ELb0EEptEv(ptr noundef nonnull align 1 dereferenceable(1) %ref.tmp27) #3
  %test_runner_coverage = getelementptr inbounds %"class.node::EnvironmentOptions", ptr %call28, i32 0, i32 59
  %15 = load i8, ptr %test_runner_coverage, align 8
  %tobool = trunc i8 %15 to i1
  br label %lor.end

lor.end:                                          ; preds = %lor.rhs, %land.lhs.true
  %16 = phi i1 [ true, %land.lhs.true ], [ %tobool, %lor.rhs ]
  %cleanup.is_active = load i1, ptr %cleanup.cond, align 1
  br i1 %cleanup.is_active, label %cleanup.action, label %cleanup.done

cleanup.action:                                   ; preds = %lor.end
  call void @_ZNSt10shared_ptrIN4node18EnvironmentOptionsEED2Ev(ptr noundef nonnull align 8 dereferenceable(16) %ref.tmp27) #3
  br label %cleanup.done

cleanup.done:                                     ; preds = %cleanup.action, %lor.end
  br i1 %16, label %if.then, label %if.end40

if.then:                                          ; preds = %cleanup.done
  br label %do.body

do.body:                                          ; preds = %if.then
  %17 = load ptr, ptr %env.addr, align 8
  %call29 = call noundef ptr @_ZN4node11Environment19coverage_connectionEv(ptr noundef nonnull align 8 dereferenceable(2872) %17)
  %cmp30 = icmp eq ptr %call29, null
  %lnot = xor i1 %cmp30, true
  %lnot31 = xor i1 %lnot, true
  %lnot32 = xor i1 %lnot31, true
  br i1 %lnot32, label %if.then33, label %if.end

if.then33:                                        ; preds = %do.body
  br label %do.body34

do.body34:                                        ; preds = %if.then33
  call void @_ZN4node6AssertERKNS_13AssertionInfoE(ptr noundef nonnull align 8 dereferenceable(24) @_ZZN4node8profiler14StartProfilersEPNS_11EnvironmentEE4args)
  call void @abort() #17
  unreachable

do.end:                                           ; No predecessors!
  br label %if.end

if.end:                                           ; preds = %do.end, %do.body
  br label %do.end35

do.end35:                                         ; preds = %if.end
  %18 = load ptr, ptr %env.addr, align 8
  call void @_ZSt11make_uniqueIN4node8profiler20V8CoverageConnectionEJRPNS0_11EnvironmentEEENSt8__detail9_MakeUniqIT_E15__single_objectEDpOT0_(ptr sret(%"class.std::unique_ptr.116") align 8 %agg.tmp36, ptr noundef nonnull align 8 dereferenceable(8) %env.addr)
  call void @_ZN4node11Environment23set_coverage_connectionESt10unique_ptrINS_8profiler20V8CoverageConnectionESt14default_deleteIS3_EE(ptr noundef nonnull align 8 dereferenceable(2872) %18, ptr noundef %agg.tmp36)
  call void @_ZNSt10unique_ptrIN4node8profiler20V8CoverageConnectionESt14default_deleteIS2_EED2Ev(ptr noundef nonnull align 8 dereferenceable(8) %agg.tmp36) #3
  %19 = load ptr, ptr %env.addr, align 8
  %call37 = call noundef ptr @_ZN4node11Environment19coverage_connectionEv(ptr noundef nonnull align 8 dereferenceable(2872) %19)
  %vtable38 = load ptr, ptr %call37, align 8
  %vfn39 = getelementptr inbounds ptr, ptr %vtable38, i64 2
  %20 = load ptr, ptr %vfn39, align 8
  call void %20(ptr noundef nonnull align 8 dereferenceable(97) %call37)
  br label %if.end40

if.end40:                                         ; preds = %do.end35, %cleanup.done
  %21 = load ptr, ptr %env.addr, align 8
  call void @_ZN4node11Environment7optionsEv(ptr sret(%"class.std::shared_ptr.140") align 8 %ref.tmp41, ptr noundef nonnull align 8 dereferenceable(2872) %21)
  %call42 = call noundef ptr @_ZNKSt19__shared_ptr_accessIN4node18EnvironmentOptionsELN9__gnu_cxx12_Lock_policyE2ELb0ELb0EEptEv(ptr noundef nonnull align 1 dereferenceable(1) %ref.tmp41) #3
  %cpu_prof = getelementptr inbounds %"class.node::EnvironmentOptions", ptr %call42, i32 0, i32 47
  %22 = load i8, ptr %cpu_prof, align 8
  %tobool43 = trunc i8 %22 to i1
  call void @_ZNSt10shared_ptrIN4node18EnvironmentOptionsEED2Ev(ptr noundef nonnull align 8 dereferenceable(16) %ref.tmp41) #3
  br i1 %tobool43, label %if.then44, label %if.end78

if.then44:                                        ; preds = %if.end40
  %23 = load ptr, ptr %env.addr, align 8
  call void @_ZN4node11Environment7optionsEv(ptr sret(%"class.std::shared_ptr.140") align 8 %ref.tmp45, ptr noundef nonnull align 8 dereferenceable(2872) %23)
  %call46 = call noundef ptr @_ZNKSt19__shared_ptr_accessIN4node18EnvironmentOptionsELN9__gnu_cxx12_Lock_policyE2ELb0ELb0EEptEv(ptr noundef nonnull align 1 dereferenceable(1) %ref.tmp45) #3
  %cpu_prof_dir = getelementptr inbounds %"class.node::EnvironmentOptions", ptr %call46, i32 0, i32 44
  call void @_ZNSt10shared_ptrIN4node18EnvironmentOptionsEED2Ev(ptr noundef nonnull align 8 dereferenceable(16) %ref.tmp45) #3
  store ptr %cpu_prof_dir, ptr %dir, align 8
  %24 = load ptr, ptr %env.addr, align 8
  %25 = load ptr, ptr %env.addr, align 8
  call void @_ZN4node11Environment7optionsEv(ptr sret(%"class.std::shared_ptr.140") align 8 %ref.tmp47, ptr noundef nonnull align 8 dereferenceable(2872) %25)
  %call48 = call noundef ptr @_ZNKSt19__shared_ptr_accessIN4node18EnvironmentOptionsELN9__gnu_cxx12_Lock_policyE2ELb0ELb0EEptEv(ptr noundef nonnull align 1 dereferenceable(1) %ref.tmp47) #3
  %cpu_prof_interval = getelementptr inbounds %"class.node::EnvironmentOptions", ptr %call48, i32 0, i32 45
  %26 = load i64, ptr %cpu_prof_interval, align 8
  call void @_ZN4node11Environment21set_cpu_prof_intervalEm(ptr noundef nonnull align 8 dereferenceable(2872) %24, i64 noundef %26)
  call void @_ZNSt10shared_ptrIN4node18EnvironmentOptionsEED2Ev(ptr noundef nonnull align 8 dereferenceable(16) %ref.tmp47) #3
  %27 = load ptr, ptr %env.addr, align 8
  %28 = load ptr, ptr %dir, align 8
  %call50 = call noundef zeroext i1 @_ZNKSt7__cxx1112basic_stringIcSt11char_traitsIcESaIcEE5emptyEv(ptr noundef nonnull align 8 dereferenceable(32) %28) #3
  br i1 %call50, label %cond.true, label %cond.false

cond.true:                                        ; preds = %if.then44
  %29 = load ptr, ptr %env.addr, align 8
  %call51 = call noundef nonnull align 8 dereferenceable(32) ptr @_ZNK4node11Environment9exec_pathB5cxx11Ev(ptr noundef nonnull align 8 dereferenceable(2872) %29)
  call void @_ZN4node11Environment6GetCwdERKNSt7__cxx1112basic_stringIcSt11char_traitsIcESaIcEEE(ptr sret(%"class.std::__cxx11::basic_string") align 8 %ref.tmp49, ptr noundef nonnull align 8 dereferenceable(32) %call51)
  br label %cond.end

cond.false:                                       ; preds = %if.then44
  %30 = load ptr, ptr %dir, align 8
  call void @_ZNSt7__cxx1112basic_stringIcSt11char_traitsIcESaIcEEC1ERKS4_(ptr noundef nonnull align 8 dereferenceable(32) %ref.tmp49, ptr noundef nonnull align 8 dereferenceable(32) %30)
  br label %cond.end

cond.end:                                         ; preds = %cond.false, %cond.true
  call void @_ZN4node11Environment16set_cpu_prof_dirERKNSt7__cxx1112basic_stringIcSt11char_traitsIcESaIcEEE(ptr noundef nonnull align 8 dereferenceable(2872) %27, ptr noundef nonnull align 8 dereferenceable(32) %ref.tmp49)
  call void @_ZNSt7__cxx1112basic_stringIcSt11char_traitsIcESaIcEED1Ev(ptr noundef nonnull align 8 dereferenceable(32) %ref.tmp49) #3
  %31 = load ptr, ptr %env.addr, align 8
  call void @_ZN4node11Environment7optionsEv(ptr sret(%"class.std::shared_ptr.140") align 8 %ref.tmp52, ptr noundef nonnull align 8 dereferenceable(2872) %31)
  %call53 = call noundef ptr @_ZNKSt19__shared_ptr_accessIN4node18EnvironmentOptionsELN9__gnu_cxx12_Lock_policyE2ELb0ELb0EEptEv(ptr noundef nonnull align 1 dereferenceable(1) %ref.tmp52) #3
  %cpu_prof_name = getelementptr inbounds %"class.node::EnvironmentOptions", ptr %call53, i32 0, i32 46
  %call54 = call noundef zeroext i1 @_ZNKSt7__cxx1112basic_stringIcSt11char_traitsIcESaIcEE5emptyEv(ptr noundef nonnull align 8 dereferenceable(32) %cpu_prof_name) #3
  call void @_ZNSt10shared_ptrIN4node18EnvironmentOptionsEED2Ev(ptr noundef nonnull align 8 dereferenceable(16) %ref.tmp52) #3
  br i1 %call54, label %if.then55, label %if.else

if.then55:                                        ; preds = %cond.end
  %32 = load ptr, ptr %env.addr, align 8
  call void @_ZN4node18DiagnosticFilenameC2EPNS_11EnvironmentEPKcS4_(ptr noundef nonnull align 8 dereferenceable(32) %filename, ptr noundef %32, ptr noundef @.str.43, ptr noundef @.str.44)
  %33 = load ptr, ptr %env.addr, align 8
  %call57 = call noundef ptr @_ZNK4node18DiagnosticFilenamedeEv(ptr noundef nonnull align 8 dereferenceable(32) %filename)
  call void @_ZNSaIcEC1Ev(ptr noundef nonnull align 1 dereferenceable(1) %ref.tmp58) #3
  call void @_ZNSt7__cxx1112basic_stringIcSt11char_traitsIcESaIcEEC2IS3_EEPKcRKS3_(ptr noundef nonnull align 8 dereferenceable(32) %ref.tmp56, ptr noundef %call57, ptr noundef nonnull align 1 dereferenceable(1) %ref.tmp58)
  call void @_ZN4node11Environment17set_cpu_prof_nameERKNSt7__cxx1112basic_stringIcSt11char_traitsIcESaIcEEE(ptr noundef nonnull align 8 dereferenceable(2872) %33, ptr noundef nonnull align 8 dereferenceable(32) %ref.tmp56)
  call void @_ZNSt7__cxx1112basic_stringIcSt11char_traitsIcESaIcEED1Ev(ptr noundef nonnull align 8 dereferenceable(32) %ref.tmp56) #3
  call void @_ZNSaIcED1Ev(ptr noundef nonnull align 1 dereferenceable(1) %ref.tmp58) #3
  call void @_ZN4node18DiagnosticFilenameD2Ev(ptr noundef nonnull align 8 dereferenceable(32) %filename) #3
  br label %if.end62

if.else:                                          ; preds = %cond.end
  %34 = load ptr, ptr %env.addr, align 8
  %35 = load ptr, ptr %env.addr, align 8
  call void @_ZN4node11Environment7optionsEv(ptr sret(%"class.std::shared_ptr.140") align 8 %ref.tmp59, ptr noundef nonnull align 8 dereferenceable(2872) %35)
  %call60 = call noundef ptr @_ZNKSt19__shared_ptr_accessIN4node18EnvironmentOptionsELN9__gnu_cxx12_Lock_policyE2ELb0ELb0EEptEv(ptr noundef nonnull align 1 dereferenceable(1) %ref.tmp59) #3
  %cpu_prof_name61 = getelementptr inbounds %"class.node::EnvironmentOptions", ptr %call60, i32 0, i32 46
  call void @_ZN4node11Environment17set_cpu_prof_nameERKNSt7__cxx1112basic_stringIcSt11char_traitsIcESaIcEEE(ptr noundef nonnull align 8 dereferenceable(2872) %34, ptr noundef nonnull align 8 dereferenceable(32) %cpu_prof_name61)
  call void @_ZNSt10shared_ptrIN4node18EnvironmentOptionsEED2Ev(ptr noundef nonnull align 8 dereferenceable(16) %ref.tmp59) #3
  br label %if.end62

if.end62:                                         ; preds = %if.else, %if.then55
  br label %do.body63

do.body63:                                        ; preds = %if.end62
  %36 = load ptr, ptr %env.addr, align 8
  %call64 = call noundef ptr @_ZN4node11Environment23cpu_profiler_connectionEv(ptr noundef nonnull align 8 dereferenceable(2872) %36)
  %cmp65 = icmp eq ptr %call64, null
  %lnot66 = xor i1 %cmp65, true
  %lnot67 = xor i1 %lnot66, true
  %lnot68 = xor i1 %lnot67, true
  br i1 %lnot68, label %if.then69, label %if.end72

if.then69:                                        ; preds = %do.body63
  br label %do.body70

do.body70:                                        ; preds = %if.then69
  call void @_ZN4node6AssertERKNS_13AssertionInfoE(ptr noundef nonnull align 8 dereferenceable(24) @_ZZN4node8profiler14StartProfilersEPNS_11EnvironmentEE4args_0)
  call void @abort() #17
  unreachable

do.end71:                                         ; No predecessors!
  br label %if.end72

if.end72:                                         ; preds = %do.end71, %do.body63
  br label %do.end73

do.end73:                                         ; preds = %if.end72
  %37 = load ptr, ptr %env.addr, align 8
  call void @_ZSt11make_uniqueIN4node8profiler23V8CpuProfilerConnectionEJRPNS0_11EnvironmentEEENSt8__detail9_MakeUniqIT_E15__single_objectEDpOT0_(ptr sret(%"class.std::unique_ptr.124") align 8 %agg.tmp74, ptr noundef nonnull align 8 dereferenceable(8) %env.addr)
  call void @_ZN4node11Environment27set_cpu_profiler_connectionESt10unique_ptrINS_8profiler23V8CpuProfilerConnectionESt14default_deleteIS3_EE(ptr noundef nonnull align 8 dereferenceable(2872) %37, ptr noundef %agg.tmp74)
  call void @_ZNSt10unique_ptrIN4node8profiler23V8CpuProfilerConnectionESt14default_deleteIS2_EED2Ev(ptr noundef nonnull align 8 dereferenceable(8) %agg.tmp74) #3
  %38 = load ptr, ptr %env.addr, align 8
  %call75 = call noundef ptr @_ZN4node11Environment23cpu_profiler_connectionEv(ptr noundef nonnull align 8 dereferenceable(2872) %38)
  %vtable76 = load ptr, ptr %call75, align 8
  %vfn77 = getelementptr inbounds ptr, ptr %vtable76, i64 2
  %39 = load ptr, ptr %vfn77, align 8
  call void %39(ptr noundef nonnull align 8 dereferenceable(97) %call75)
  br label %if.end78

if.end78:                                         ; preds = %do.end73, %if.end40
  %40 = load ptr, ptr %env.addr, align 8
  call void @_ZN4node11Environment7optionsEv(ptr sret(%"class.std::shared_ptr.140") align 8 %ref.tmp79, ptr noundef nonnull align 8 dereferenceable(2872) %40)
  %call80 = call noundef ptr @_ZNKSt19__shared_ptr_accessIN4node18EnvironmentOptionsELN9__gnu_cxx12_Lock_policyE2ELb0ELb0EEptEv(ptr noundef nonnull align 1 dereferenceable(1) %ref.tmp79) #3
  %heap_prof = getelementptr inbounds %"class.node::EnvironmentOptions", ptr %call80, i32 0, i32 51
  %41 = load i8, ptr %heap_prof, align 8
  %tobool81 = trunc i8 %41 to i1
  call void @_ZNSt10shared_ptrIN4node18EnvironmentOptionsEED2Ev(ptr noundef nonnull align 8 dereferenceable(16) %ref.tmp79) #3
  br i1 %tobool81, label %if.then82, label %if.end111

if.then82:                                        ; preds = %if.end78
  %42 = load ptr, ptr %env.addr, align 8
  call void @_ZN4node11Environment7optionsEv(ptr sret(%"class.std::shared_ptr.140") align 8 %ref.tmp84, ptr noundef nonnull align 8 dereferenceable(2872) %42)
  %call85 = call noundef ptr @_ZNKSt19__shared_ptr_accessIN4node18EnvironmentOptionsELN9__gnu_cxx12_Lock_policyE2ELb0ELb0EEptEv(ptr noundef nonnull align 1 dereferenceable(1) %ref.tmp84) #3
  %heap_prof_dir = getelementptr inbounds %"class.node::EnvironmentOptions", ptr %call85, i32 0, i32 48
  call void @_ZNSt10shared_ptrIN4node18EnvironmentOptionsEED2Ev(ptr noundef nonnull align 8 dereferenceable(16) %ref.tmp84) #3
  store ptr %heap_prof_dir, ptr %dir83, align 8
  %43 = load ptr, ptr %env.addr, align 8
  %44 = load ptr, ptr %env.addr, align 8
  call void @_ZN4node11Environment7optionsEv(ptr sret(%"class.std::shared_ptr.140") align 8 %ref.tmp86, ptr noundef nonnull align 8 dereferenceable(2872) %44)
  %call87 = call noundef ptr @_ZNKSt19__shared_ptr_accessIN4node18EnvironmentOptionsELN9__gnu_cxx12_Lock_policyE2ELb0ELb0EEptEv(ptr noundef nonnull align 1 dereferenceable(1) %ref.tmp86) #3
  %heap_prof_interval = getelementptr inbounds %"class.node::EnvironmentOptions", ptr %call87, i32 0, i32 50
  %45 = load i64, ptr %heap_prof_interval, align 8
  call void @_ZN4node11Environment22set_heap_prof_intervalEm(ptr noundef nonnull align 8 dereferenceable(2872) %43, i64 noundef %45)
  call void @_ZNSt10shared_ptrIN4node18EnvironmentOptionsEED2Ev(ptr noundef nonnull align 8 dereferenceable(16) %ref.tmp86) #3
  %46 = load ptr, ptr %env.addr, align 8
  %47 = load ptr, ptr %dir83, align 8
  %call89 = call noundef zeroext i1 @_ZNKSt7__cxx1112basic_stringIcSt11char_traitsIcESaIcEE5emptyEv(ptr noundef nonnull align 8 dereferenceable(32) %47) #3
  br i1 %call89, label %cond.true90, label %cond.false92

cond.true90:                                      ; preds = %if.then82
  %48 = load ptr, ptr %env.addr, align 8
  %call91 = call noundef nonnull align 8 dereferenceable(32) ptr @_ZNK4node11Environment9exec_pathB5cxx11Ev(ptr noundef nonnull align 8 dereferenceable(2872) %48)
  call void @_ZN4node11Environment6GetCwdERKNSt7__cxx1112basic_stringIcSt11char_traitsIcESaIcEEE(ptr sret(%"class.std::__cxx11::basic_string") align 8 %ref.tmp88, ptr noundef nonnull align 8 dereferenceable(32) %call91)
  br label %cond.end93

cond.false92:                                     ; preds = %if.then82
  %49 = load ptr, ptr %dir83, align 8
  call void @_ZNSt7__cxx1112basic_stringIcSt11char_traitsIcESaIcEEC1ERKS4_(ptr noundef nonnull align 8 dereferenceable(32) %ref.tmp88, ptr noundef nonnull align 8 dereferenceable(32) %49)
  br label %cond.end93

cond.end93:                                       ; preds = %cond.false92, %cond.true90
  call void @_ZN4node11Environment17set_heap_prof_dirERKNSt7__cxx1112basic_stringIcSt11char_traitsIcESaIcEEE(ptr noundef nonnull align 8 dereferenceable(2872) %46, ptr noundef nonnull align 8 dereferenceable(32) %ref.tmp88)
  call void @_ZNSt7__cxx1112basic_stringIcSt11char_traitsIcESaIcEED1Ev(ptr noundef nonnull align 8 dereferenceable(32) %ref.tmp88) #3
  %50 = load ptr, ptr %env.addr, align 8
  call void @_ZN4node11Environment7optionsEv(ptr sret(%"class.std::shared_ptr.140") align 8 %ref.tmp94, ptr noundef nonnull align 8 dereferenceable(2872) %50)
  %call95 = call noundef ptr @_ZNKSt19__shared_ptr_accessIN4node18EnvironmentOptionsELN9__gnu_cxx12_Lock_policyE2ELb0ELb0EEptEv(ptr noundef nonnull align 1 dereferenceable(1) %ref.tmp94) #3
  %heap_prof_name = getelementptr inbounds %"class.node::EnvironmentOptions", ptr %call95, i32 0, i32 49
  %call96 = call noundef zeroext i1 @_ZNKSt7__cxx1112basic_stringIcSt11char_traitsIcESaIcEE5emptyEv(ptr noundef nonnull align 8 dereferenceable(32) %heap_prof_name) #3
  call void @_ZNSt10shared_ptrIN4node18EnvironmentOptionsEED2Ev(ptr noundef nonnull align 8 dereferenceable(16) %ref.tmp94) #3
  br i1 %call96, label %if.then97, label %if.else102

if.then97:                                        ; preds = %cond.end93
  %51 = load ptr, ptr %env.addr, align 8
  call void @_ZN4node18DiagnosticFilenameC2EPNS_11EnvironmentEPKcS4_(ptr noundef nonnull align 8 dereferenceable(32) %filename98, ptr noundef %51, ptr noundef @.str.47, ptr noundef @.str.48)
  %52 = load ptr, ptr %env.addr, align 8
  %call100 = call noundef ptr @_ZNK4node18DiagnosticFilenamedeEv(ptr noundef nonnull align 8 dereferenceable(32) %filename98)
  call void @_ZNSaIcEC1Ev(ptr noundef nonnull align 1 dereferenceable(1) %ref.tmp101) #3
  call void @_ZNSt7__cxx1112basic_stringIcSt11char_traitsIcESaIcEEC2IS3_EEPKcRKS3_(ptr noundef nonnull align 8 dereferenceable(32) %ref.tmp99, ptr noundef %call100, ptr noundef nonnull align 1 dereferenceable(1) %ref.tmp101)
  call void @_ZN4node11Environment18set_heap_prof_nameERKNSt7__cxx1112basic_stringIcSt11char_traitsIcESaIcEEE(ptr noundef nonnull align 8 dereferenceable(2872) %52, ptr noundef nonnull align 8 dereferenceable(32) %ref.tmp99)
  call void @_ZNSt7__cxx1112basic_stringIcSt11char_traitsIcESaIcEED1Ev(ptr noundef nonnull align 8 dereferenceable(32) %ref.tmp99) #3
  call void @_ZNSaIcED1Ev(ptr noundef nonnull align 1 dereferenceable(1) %ref.tmp101) #3
  call void @_ZN4node18DiagnosticFilenameD2Ev(ptr noundef nonnull align 8 dereferenceable(32) %filename98) #3
  br label %if.end106

if.else102:                                       ; preds = %cond.end93
  %53 = load ptr, ptr %env.addr, align 8
  %54 = load ptr, ptr %env.addr, align 8
  call void @_ZN4node11Environment7optionsEv(ptr sret(%"class.std::shared_ptr.140") align 8 %ref.tmp103, ptr noundef nonnull align 8 dereferenceable(2872) %54)
  %call104 = call noundef ptr @_ZNKSt19__shared_ptr_accessIN4node18EnvironmentOptionsELN9__gnu_cxx12_Lock_policyE2ELb0ELb0EEptEv(ptr noundef nonnull align 1 dereferenceable(1) %ref.tmp103) #3
  %heap_prof_name105 = getelementptr inbounds %"class.node::EnvironmentOptions", ptr %call104, i32 0, i32 49
  call void @_ZN4node11Environment18set_heap_prof_nameERKNSt7__cxx1112basic_stringIcSt11char_traitsIcESaIcEEE(ptr noundef nonnull align 8 dereferenceable(2872) %53, ptr noundef nonnull align 8 dereferenceable(32) %heap_prof_name105)
  call void @_ZNSt10shared_ptrIN4node18EnvironmentOptionsEED2Ev(ptr noundef nonnull align 8 dereferenceable(16) %ref.tmp103) #3
  br label %if.end106

if.end106:                                        ; preds = %if.else102, %if.then97
  %55 = load ptr, ptr %env.addr, align 8
  call void @_ZSt11make_uniqueIN4node8profiler24V8HeapProfilerConnectionEJRPNS0_11EnvironmentEEENSt8__detail9_MakeUniqIT_E15__single_objectEDpOT0_(ptr sret(%"class.std::unique_ptr.132") align 8 %agg.tmp107, ptr noundef nonnull align 8 dereferenceable(8) %env.addr)
  call void @_ZN4node11Environment28set_heap_profiler_connectionESt10unique_ptrINS_8profiler24V8HeapProfilerConnectionESt14default_deleteIS3_EE(ptr noundef nonnull align 8 dereferenceable(2872) %55, ptr noundef %agg.tmp107)
  call void @_ZNSt10unique_ptrIN4node8profiler24V8HeapProfilerConnectionESt14default_deleteIS2_EED2Ev(ptr noundef nonnull align 8 dereferenceable(8) %agg.tmp107) #3
  %56 = load ptr, ptr %env.addr, align 8
  %call108 = call noundef ptr @_ZN4node11Environment24heap_profiler_connectionEv(ptr noundef nonnull align 8 dereferenceable(2872) %56)
  %vtable109 = load ptr, ptr %call108, align 8
  %vfn110 = getelementptr inbounds ptr, ptr %vtable109, i64 2
  %57 = load ptr, ptr %vfn110, align 8
  call void %57(ptr noundef nonnull align 8 dereferenceable(97) %call108)
  br label %if.end111

if.end111:                                        ; preds = %if.end106, %if.end78
  ret void
}

declare void @_ZN4node6AtExitEPNS_11EnvironmentEPFvPvES2_(ptr noundef, ptr noundef, ptr noundef) #1

; Function Attrs: mustprogress nounwind uwtable
define internal noundef ptr @"_ZZN4node8profiler14StartProfilersEPNS_11EnvironmentEENK3$_0cvPFvPvEEv"(ptr noundef nonnull align 1 dereferenceable(1) %this) #4 align 2 {
entry:
  %this.addr = alloca ptr, align 8
  store ptr %this, ptr %this.addr, align 8
  ret ptr @"_ZZN4node8profiler14StartProfilersEPNS_11EnvironmentEEN3$_08__invokeEPv"
}

; Function Attrs: mustprogress nounwind uwtable
define linkonce_odr dso_local void @_ZN4node11Environment8env_varsEv(ptr noalias sret(%"class.std::shared_ptr.88") align 8 %agg.result, ptr noundef nonnull align 8 dereferenceable(2872) %this) #4 comdat align 2 {
entry:
  %result.ptr = alloca ptr, align 8
  %this.addr = alloca ptr, align 8
  store ptr %agg.result, ptr %result.ptr, align 8
  store ptr %this, ptr %this.addr, align 8
  %this1 = load ptr, ptr %this.addr, align 8
  %env_vars_ = getelementptr inbounds %"class.node::Environment", ptr %this1, i32 0, i32 20
  call void @_ZNSt10shared_ptrIN4node7KVStoreEEC2ERKS2_(ptr noundef nonnull align 8 dereferenceable(16) %agg.result, ptr noundef nonnull align 8 dereferenceable(16) %env_vars_) #3
  ret void
}

; Function Attrs: mustprogress nounwind uwtable
define linkonce_odr dso_local noundef ptr @_ZNKSt19__shared_ptr_accessIN4node7KVStoreELN9__gnu_cxx12_Lock_policyE2ELb0ELb0EEptEv(ptr noundef nonnull align 1 dereferenceable(1) %this) #4 comdat align 2 {
entry:
  %this.addr = alloca ptr, align 8
  store ptr %this, ptr %this.addr, align 8
  %this1 = load ptr, ptr %this.addr, align 8
  %call = call noundef ptr @_ZNKSt19__shared_ptr_accessIN4node7KVStoreELN9__gnu_cxx12_Lock_policyE2ELb0ELb0EE6_M_getEv(ptr noundef nonnull align 1 dereferenceable(1) %this1) #3
  ret ptr %call
}

; Function Attrs: mustprogress nounwind uwtable
define linkonce_odr dso_local void @_ZNSt10shared_ptrIN4node7KVStoreEED2Ev(ptr noundef nonnull align 8 dereferenceable(16) %this) unnamed_addr #4 comdat align 2 {
entry:
  %this.addr = alloca ptr, align 8
  store ptr %this, ptr %this.addr, align 8
  %this1 = load ptr, ptr %this.addr, align 8
  call void @_ZNSt12__shared_ptrIN4node7KVStoreELN9__gnu_cxx12_Lock_policyE2EED2Ev(ptr noundef nonnull align 8 dereferenceable(16) %this1) #3
  ret void
}

declare noundef i32 @_ZNK2v86String6LengthEv(ptr noundef nonnull align 1 dereferenceable(1)) #1

; Function Attrs: mustprogress nounwind uwtable
define linkonce_odr dso_local void @_ZN4node11Environment7optionsEv(ptr noalias sret(%"class.std::shared_ptr.140") align 8 %agg.result, ptr noundef nonnull align 8 dereferenceable(2872) %this) #4 comdat align 2 {
entry:
  %result.ptr = alloca ptr, align 8
  %this.addr = alloca ptr, align 8
  store ptr %agg.result, ptr %result.ptr, align 8
  store ptr %this, ptr %this.addr, align 8
  %this1 = load ptr, ptr %this.addr, align 8
  %options_ = getelementptr inbounds %"class.node::Environment", ptr %this1, i32 0, i32 40
  call void @_ZNSt10shared_ptrIN4node18EnvironmentOptionsEEC2ERKS2_(ptr noundef nonnull align 8 dereferenceable(16) %agg.result, ptr noundef nonnull align 8 dereferenceable(16) %options_) #3
  ret void
}

; Function Attrs: mustprogress nounwind uwtable
define linkonce_odr dso_local noundef ptr @_ZNKSt19__shared_ptr_accessIN4node18EnvironmentOptionsELN9__gnu_cxx12_Lock_policyE2ELb0ELb0EEptEv(ptr noundef nonnull align 1 dereferenceable(1) %this) #4 comdat align 2 {
entry:
  %this.addr = alloca ptr, align 8
  store ptr %this, ptr %this.addr, align 8
  %this1 = load ptr, ptr %this.addr, align 8
  %call = call noundef ptr @_ZNKSt19__shared_ptr_accessIN4node18EnvironmentOptionsELN9__gnu_cxx12_Lock_policyE2ELb0ELb0EE6_M_getEv(ptr noundef nonnull align 1 dereferenceable(1) %this1) #3
  ret ptr %call
}

; Function Attrs: mustprogress nounwind uwtable
define linkonce_odr dso_local void @_ZNSt10shared_ptrIN4node18EnvironmentOptionsEED2Ev(ptr noundef nonnull align 8 dereferenceable(16) %this) unnamed_addr #4 comdat align 2 {
entry:
  %this.addr = alloca ptr, align 8
  store ptr %this, ptr %this.addr, align 8
  %this1 = load ptr, ptr %this.addr, align 8
  call void @_ZNSt12__shared_ptrIN4node18EnvironmentOptionsELN9__gnu_cxx12_Lock_policyE2EED2Ev(ptr noundef nonnull align 8 dereferenceable(16) %this1) #3
  ret void
}

; Function Attrs: mustprogress nounwind uwtable
define linkonce_odr dso_local noundef ptr @_ZN4node11Environment19coverage_connectionEv(ptr noundef nonnull align 8 dereferenceable(2872) %this) #4 comdat align 2 {
entry:
  %this.addr = alloca ptr, align 8
  store ptr %this, ptr %this.addr, align 8
  %this1 = load ptr, ptr %this.addr, align 8
  %coverage_connection_ = getelementptr inbounds %"class.node::Environment", ptr %this1, i32 0, i32 30
  %call = call noundef ptr @_ZNKSt10unique_ptrIN4node8profiler20V8CoverageConnectionESt14default_deleteIS2_EE3getEv(ptr noundef nonnull align 8 dereferenceable(8) %coverage_connection_) #3
  ret ptr %call
}

declare void @_ZN4node6AssertERKNS_13AssertionInfoE(ptr noundef nonnull align 8 dereferenceable(24)) #1

; Function Attrs: noreturn nounwind
declare void @abort() #8

; Function Attrs: mustprogress nounwind uwtable
define linkonce_odr dso_local void @_ZN4node11Environment23set_coverage_connectionESt10unique_ptrINS_8profiler20V8CoverageConnectionESt14default_deleteIS3_EE(ptr noundef nonnull align 8 dereferenceable(2872) %this, ptr noundef %connection) #4 comdat align 2 {
entry:
  %this.addr = alloca ptr, align 8
  %connection.indirect_addr = alloca ptr, align 8
  store ptr %this, ptr %this.addr, align 8
  store ptr %connection, ptr %connection.indirect_addr, align 8
  %this1 = load ptr, ptr %this.addr, align 8
  br label %do.body

do.body:                                          ; preds = %entry
  %coverage_connection_ = getelementptr inbounds %"class.node::Environment", ptr %this1, i32 0, i32 30
  %call = call noundef zeroext i1 @_ZSteqIN4node8profiler20V8CoverageConnectionESt14default_deleteIS2_EEbRKSt10unique_ptrIT_T0_EDn(ptr noundef nonnull align 8 dereferenceable(8) %coverage_connection_, ptr null) #3
  %lnot = xor i1 %call, true
  %lnot2 = xor i1 %lnot, true
  %lnot3 = xor i1 %lnot2, true
  br i1 %lnot3, label %if.then, label %if.end

if.then:                                          ; preds = %do.body
  br label %do.body4

do.body4:                                         ; preds = %if.then
  call void @_ZN4node6AssertERKNS_13AssertionInfoE(ptr noundef nonnull align 8 dereferenceable(24) @_ZZN4node11Environment23set_coverage_connectionESt10unique_ptrINS_8profiler20V8CoverageConnectionESt14default_deleteIS3_EEE4args)
  call void @abort() #17
  unreachable

do.end:                                           ; No predecessors!
  br label %if.end

if.end:                                           ; preds = %do.end, %do.body
  br label %do.end5

do.end5:                                          ; preds = %if.end
  %coverage_connection_6 = getelementptr inbounds %"class.node::Environment", ptr %this1, i32 0, i32 30
  call void @_ZSt4swapIN4node8profiler20V8CoverageConnectionESt14default_deleteIS2_EENSt9enable_ifIXsr14__is_swappableIT0_EE5valueEvE4typeERSt10unique_ptrIT_S6_ESC_(ptr noundef nonnull align 8 dereferenceable(8) %coverage_connection_6, ptr noundef nonnull align 8 dereferenceable(8) %connection) #3
  ret void
}

; Function Attrs: mustprogress nounwind uwtable
define linkonce_odr dso_local void @_ZSt11make_uniqueIN4node8profiler20V8CoverageConnectionEJRPNS0_11EnvironmentEEENSt8__detail9_MakeUniqIT_E15__single_objectEDpOT0_(ptr noalias sret(%"class.std::unique_ptr.116") align 8 %agg.result, ptr noundef nonnull align 8 dereferenceable(8) %__args) #4 comdat {
entry:
  %result.ptr = alloca ptr, align 8
  %__args.addr = alloca ptr, align 8
  store ptr %agg.result, ptr %result.ptr, align 8
  store ptr %__args, ptr %__args.addr, align 8
  %call = call noalias noundef nonnull ptr @_Znwm(i64 noundef 104) #14
  %0 = load ptr, ptr %__args.addr, align 8
  %1 = load ptr, ptr %0, align 8
  call void @_ZN4node8profiler20V8CoverageConnectionC2EPNS_11EnvironmentE(ptr noundef nonnull align 8 dereferenceable(97) %call, ptr noundef %1)
  call void @_ZNSt10unique_ptrIN4node8profiler20V8CoverageConnectionESt14default_deleteIS2_EEC2IS4_vEEPS2_(ptr noundef nonnull align 8 dereferenceable(8) %agg.result, ptr noundef %call) #3
  ret void
}

; Function Attrs: mustprogress nounwind uwtable
define linkonce_odr dso_local void @_ZNSt10unique_ptrIN4node8profiler20V8CoverageConnectionESt14default_deleteIS2_EED2Ev(ptr noundef nonnull align 8 dereferenceable(8) %this) unnamed_addr #4 comdat align 2 {
entry:
  %this.addr = alloca ptr, align 8
  %__ptr = alloca ptr, align 8
  store ptr %this, ptr %this.addr, align 8
  %this1 = load ptr, ptr %this.addr, align 8
  %_M_t = getelementptr inbounds %"class.std::unique_ptr.116", ptr %this1, i32 0, i32 0
  %call = call noundef nonnull align 8 dereferenceable(8) ptr @_ZNSt15__uniq_ptr_implIN4node8profiler20V8CoverageConnectionESt14default_deleteIS2_EE6_M_ptrEv(ptr noundef nonnull align 8 dereferenceable(8) %_M_t) #3
  store ptr %call, ptr %__ptr, align 8
  %0 = load ptr, ptr %__ptr, align 8
  %1 = load ptr, ptr %0, align 8
  %cmp = icmp ne ptr %1, null
  br i1 %cmp, label %if.then, label %if.end

if.then:                                          ; preds = %entry
  %call2 = call noundef nonnull align 1 dereferenceable(1) ptr @_ZNSt10unique_ptrIN4node8profiler20V8CoverageConnectionESt14default_deleteIS2_EE11get_deleterEv(ptr noundef nonnull align 8 dereferenceable(8) %this1) #3
  %2 = load ptr, ptr %__ptr, align 8
  %3 = load ptr, ptr %2, align 8
  call void @_ZNKSt14default_deleteIN4node8profiler20V8CoverageConnectionEEclEPS2_(ptr noundef nonnull align 1 dereferenceable(1) %call2, ptr noundef %3)
  br label %if.end

if.end:                                           ; preds = %if.then, %entry
  %4 = load ptr, ptr %__ptr, align 8
  store ptr null, ptr %4, align 8
  ret void
}

; Function Attrs: mustprogress nounwind uwtable
define linkonce_odr dso_local void @_ZN4node11Environment21set_cpu_prof_intervalEm(ptr noundef nonnull align 8 dereferenceable(2872) %this, i64 noundef %interval) #4 comdat align 2 {
entry:
  %this.addr = alloca ptr, align 8
  %interval.addr = alloca i64, align 8
  store ptr %this, ptr %this.addr, align 8
  store i64 %interval, ptr %interval.addr, align 8
  %this1 = load ptr, ptr %this.addr, align 8
  %0 = load i64, ptr %interval.addr, align 8
  %cpu_prof_interval_ = getelementptr inbounds %"class.node::Environment", ptr %this1, i32 0, i32 35
  store i64 %0, ptr %cpu_prof_interval_, align 8
  ret void
}

; Function Attrs: mustprogress nounwind uwtable
define linkonce_odr dso_local void @_ZN4node11Environment16set_cpu_prof_dirERKNSt7__cxx1112basic_stringIcSt11char_traitsIcESaIcEEE(ptr noundef nonnull align 8 dereferenceable(2872) %this, ptr noundef nonnull align 8 dereferenceable(32) %dir) #4 comdat align 2 {
entry:
  %this.addr = alloca ptr, align 8
  %dir.addr = alloca ptr, align 8
  store ptr %this, ptr %this.addr, align 8
  store ptr %dir, ptr %dir.addr, align 8
  %this1 = load ptr, ptr %this.addr, align 8
  %0 = load ptr, ptr %dir.addr, align 8
  %cpu_prof_dir_ = getelementptr inbounds %"class.node::Environment", ptr %this1, i32 0, i32 33
  %call = call noundef nonnull align 8 dereferenceable(32) ptr @_ZNSt7__cxx1112basic_stringIcSt11char_traitsIcESaIcEEaSERKS4_(ptr noundef nonnull align 8 dereferenceable(32) %cpu_prof_dir_, ptr noundef nonnull align 8 dereferenceable(32) %0)
  ret void
}

; Function Attrs: nounwind
declare noundef zeroext i1 @_ZNKSt7__cxx1112basic_stringIcSt11char_traitsIcESaIcEE5emptyEv(ptr noundef nonnull align 8 dereferenceable(32)) #2

declare void @_ZN4node11Environment6GetCwdERKNSt7__cxx1112basic_stringIcSt11char_traitsIcESaIcEEE(ptr sret(%"class.std::__cxx11::basic_string") align 8, ptr noundef nonnull align 8 dereferenceable(32)) #1

; Function Attrs: mustprogress nounwind uwtable
define linkonce_odr dso_local noundef nonnull align 8 dereferenceable(32) ptr @_ZNK4node11Environment9exec_pathB5cxx11Ev(ptr noundef nonnull align 8 dereferenceable(2872) %this) #4 comdat align 2 {
entry:
  %this.addr = alloca ptr, align 8
  store ptr %this, ptr %this.addr, align 8
  %this1 = load ptr, ptr %this.addr, align 8
  %exec_path_ = getelementptr inbounds %"class.node::Environment", ptr %this1, i32 0, i32 44
  ret ptr %exec_path_
}

; Function Attrs: mustprogress nounwind uwtable
define linkonce_odr dso_local void @_ZN4node18DiagnosticFilenameC2EPNS_11EnvironmentEPKcS4_(ptr noundef nonnull align 8 dereferenceable(32) %this, ptr noundef %env, ptr noundef %prefix, ptr noundef %ext) unnamed_addr #4 comdat align 2 {
entry:
  %this.addr = alloca ptr, align 8
  %env.addr = alloca ptr, align 8
  %prefix.addr = alloca ptr, align 8
  %ext.addr = alloca ptr, align 8
  store ptr %this, ptr %this.addr, align 8
  store ptr %env, ptr %env.addr, align 8
  store ptr %prefix, ptr %prefix.addr, align 8
  store ptr %ext, ptr %ext.addr, align 8
  %this1 = load ptr, ptr %this.addr, align 8
  %filename_ = getelementptr inbounds %"class.node::DiagnosticFilename", ptr %this1, i32 0, i32 0
  %0 = load ptr, ptr %env.addr, align 8
  %call = call noundef i64 @_ZNK4node11Environment9thread_idEv(ptr noundef nonnull align 8 dereferenceable(2872) %0)
  %1 = load ptr, ptr %prefix.addr, align 8
  %2 = load ptr, ptr %ext.addr, align 8
  call void @_ZN4node18DiagnosticFilename12MakeFilenameB5cxx11EmPKcS2_(ptr sret(%"class.std::__cxx11::basic_string") align 8 %filename_, i64 noundef %call, ptr noundef %1, ptr noundef %2)
  ret void
}

; Function Attrs: mustprogress nounwind uwtable
define linkonce_odr dso_local void @_ZN4node11Environment17set_cpu_prof_nameERKNSt7__cxx1112basic_stringIcSt11char_traitsIcESaIcEEE(ptr noundef nonnull align 8 dereferenceable(2872) %this, ptr noundef nonnull align 8 dereferenceable(32) %name) #4 comdat align 2 {
entry:
  %this.addr = alloca ptr, align 8
  %name.addr = alloca ptr, align 8
  store ptr %this, ptr %this.addr, align 8
  store ptr %name, ptr %name.addr, align 8
  %this1 = load ptr, ptr %this.addr, align 8
  %0 = load ptr, ptr %name.addr, align 8
  %cpu_prof_name_ = getelementptr inbounds %"class.node::Environment", ptr %this1, i32 0, i32 34
  %call = call noundef nonnull align 8 dereferenceable(32) ptr @_ZNSt7__cxx1112basic_stringIcSt11char_traitsIcESaIcEEaSERKS4_(ptr noundef nonnull align 8 dereferenceable(32) %cpu_prof_name_, ptr noundef nonnull align 8 dereferenceable(32) %0)
  ret void
}

; Function Attrs: mustprogress nounwind uwtable
define linkonce_odr dso_local noundef ptr @_ZNK4node18DiagnosticFilenamedeEv(ptr noundef nonnull align 8 dereferenceable(32) %this) #4 comdat align 2 {
entry:
  %this.addr = alloca ptr, align 8
  store ptr %this, ptr %this.addr, align 8
  %this1 = load ptr, ptr %this.addr, align 8
  %filename_ = getelementptr inbounds %"class.node::DiagnosticFilename", ptr %this1, i32 0, i32 0
  %call = call noundef ptr @_ZNKSt7__cxx1112basic_stringIcSt11char_traitsIcESaIcEE5c_strEv(ptr noundef nonnull align 8 dereferenceable(32) %filename_) #3
  ret ptr %call
}

; Function Attrs: mustprogress nounwind uwtable
define linkonce_odr dso_local void @_ZN4node18DiagnosticFilenameD2Ev(ptr noundef nonnull align 8 dereferenceable(32) %this) unnamed_addr #4 comdat align 2 {
entry:
  %this.addr = alloca ptr, align 8
  store ptr %this, ptr %this.addr, align 8
  %this1 = load ptr, ptr %this.addr, align 8
  %filename_ = getelementptr inbounds %"class.node::DiagnosticFilename", ptr %this1, i32 0, i32 0
  call void @_ZNSt7__cxx1112basic_stringIcSt11char_traitsIcESaIcEED1Ev(ptr noundef nonnull align 8 dereferenceable(32) %filename_) #3
  ret void
}

; Function Attrs: mustprogress nounwind uwtable
define linkonce_odr dso_local noundef ptr @_ZN4node11Environment23cpu_profiler_connectionEv(ptr noundef nonnull align 8 dereferenceable(2872) %this) #4 comdat align 2 {
entry:
  %this.addr = alloca ptr, align 8
  store ptr %this, ptr %this.addr, align 8
  %this1 = load ptr, ptr %this.addr, align 8
  %cpu_profiler_connection_ = getelementptr inbounds %"class.node::Environment", ptr %this1, i32 0, i32 31
  %call = call noundef ptr @_ZNKSt10unique_ptrIN4node8profiler23V8CpuProfilerConnectionESt14default_deleteIS2_EE3getEv(ptr noundef nonnull align 8 dereferenceable(8) %cpu_profiler_connection_) #3
  ret ptr %call
}

; Function Attrs: mustprogress nounwind uwtable
define linkonce_odr dso_local void @_ZN4node11Environment27set_cpu_profiler_connectionESt10unique_ptrINS_8profiler23V8CpuProfilerConnectionESt14default_deleteIS3_EE(ptr noundef nonnull align 8 dereferenceable(2872) %this, ptr noundef %connection) #4 comdat align 2 {
entry:
  %this.addr = alloca ptr, align 8
  %connection.indirect_addr = alloca ptr, align 8
  store ptr %this, ptr %this.addr, align 8
  store ptr %connection, ptr %connection.indirect_addr, align 8
  %this1 = load ptr, ptr %this.addr, align 8
  br label %do.body

do.body:                                          ; preds = %entry
  %cpu_profiler_connection_ = getelementptr inbounds %"class.node::Environment", ptr %this1, i32 0, i32 31
  %call = call noundef zeroext i1 @_ZSteqIN4node8profiler23V8CpuProfilerConnectionESt14default_deleteIS2_EEbRKSt10unique_ptrIT_T0_EDn(ptr noundef nonnull align 8 dereferenceable(8) %cpu_profiler_connection_, ptr null) #3
  %lnot = xor i1 %call, true
  %lnot2 = xor i1 %lnot, true
  %lnot3 = xor i1 %lnot2, true
  br i1 %lnot3, label %if.then, label %if.end

if.then:                                          ; preds = %do.body
  br label %do.body4

do.body4:                                         ; preds = %if.then
  call void @_ZN4node6AssertERKNS_13AssertionInfoE(ptr noundef nonnull align 8 dereferenceable(24) @_ZZN4node11Environment27set_cpu_profiler_connectionESt10unique_ptrINS_8profiler23V8CpuProfilerConnectionESt14default_deleteIS3_EEE4args)
  call void @abort() #17
  unreachable

do.end:                                           ; No predecessors!
  br label %if.end

if.end:                                           ; preds = %do.end, %do.body
  br label %do.end5

do.end5:                                          ; preds = %if.end
  %cpu_profiler_connection_6 = getelementptr inbounds %"class.node::Environment", ptr %this1, i32 0, i32 31
  call void @_ZSt4swapIN4node8profiler23V8CpuProfilerConnectionESt14default_deleteIS2_EENSt9enable_ifIXsr14__is_swappableIT0_EE5valueEvE4typeERSt10unique_ptrIT_S6_ESC_(ptr noundef nonnull align 8 dereferenceable(8) %cpu_profiler_connection_6, ptr noundef nonnull align 8 dereferenceable(8) %connection) #3
  ret void
}

; Function Attrs: mustprogress nounwind uwtable
define linkonce_odr dso_local void @_ZSt11make_uniqueIN4node8profiler23V8CpuProfilerConnectionEJRPNS0_11EnvironmentEEENSt8__detail9_MakeUniqIT_E15__single_objectEDpOT0_(ptr noalias sret(%"class.std::unique_ptr.124") align 8 %agg.result, ptr noundef nonnull align 8 dereferenceable(8) %__args) #4 comdat {
entry:
  %result.ptr = alloca ptr, align 8
  %__args.addr = alloca ptr, align 8
  store ptr %agg.result, ptr %result.ptr, align 8
  store ptr %__args, ptr %__args.addr, align 8
  %call = call noalias noundef nonnull ptr @_Znwm(i64 noundef 104) #14
  %0 = load ptr, ptr %__args.addr, align 8
  %1 = load ptr, ptr %0, align 8
  call void @_ZN4node8profiler23V8CpuProfilerConnectionC2EPNS_11EnvironmentE(ptr noundef nonnull align 8 dereferenceable(97) %call, ptr noundef %1)
  call void @_ZNSt10unique_ptrIN4node8profiler23V8CpuProfilerConnectionESt14default_deleteIS2_EEC2IS4_vEEPS2_(ptr noundef nonnull align 8 dereferenceable(8) %agg.result, ptr noundef %call) #3
  ret void
}

; Function Attrs: mustprogress nounwind uwtable
define linkonce_odr dso_local void @_ZNSt10unique_ptrIN4node8profiler23V8CpuProfilerConnectionESt14default_deleteIS2_EED2Ev(ptr noundef nonnull align 8 dereferenceable(8) %this) unnamed_addr #4 comdat align 2 {
entry:
  %this.addr = alloca ptr, align 8
  %__ptr = alloca ptr, align 8
  store ptr %this, ptr %this.addr, align 8
  %this1 = load ptr, ptr %this.addr, align 8
  %_M_t = getelementptr inbounds %"class.std::unique_ptr.124", ptr %this1, i32 0, i32 0
  %call = call noundef nonnull align 8 dereferenceable(8) ptr @_ZNSt15__uniq_ptr_implIN4node8profiler23V8CpuProfilerConnectionESt14default_deleteIS2_EE6_M_ptrEv(ptr noundef nonnull align 8 dereferenceable(8) %_M_t) #3
  store ptr %call, ptr %__ptr, align 8
  %0 = load ptr, ptr %__ptr, align 8
  %1 = load ptr, ptr %0, align 8
  %cmp = icmp ne ptr %1, null
  br i1 %cmp, label %if.then, label %if.end

if.then:                                          ; preds = %entry
  %call2 = call noundef nonnull align 1 dereferenceable(1) ptr @_ZNSt10unique_ptrIN4node8profiler23V8CpuProfilerConnectionESt14default_deleteIS2_EE11get_deleterEv(ptr noundef nonnull align 8 dereferenceable(8) %this1) #3
  %2 = load ptr, ptr %__ptr, align 8
  %3 = load ptr, ptr %2, align 8
  call void @_ZNKSt14default_deleteIN4node8profiler23V8CpuProfilerConnectionEEclEPS2_(ptr noundef nonnull align 1 dereferenceable(1) %call2, ptr noundef %3)
  br label %if.end

if.end:                                           ; preds = %if.then, %entry
  %4 = load ptr, ptr %__ptr, align 8
  store ptr null, ptr %4, align 8
  ret void
}

; Function Attrs: mustprogress nounwind uwtable
define linkonce_odr dso_local void @_ZN4node11Environment22set_heap_prof_intervalEm(ptr noundef nonnull align 8 dereferenceable(2872) %this, i64 noundef %interval) #4 comdat align 2 {
entry:
  %this.addr = alloca ptr, align 8
  %interval.addr = alloca i64, align 8
  store ptr %this, ptr %this.addr, align 8
  store i64 %interval, ptr %interval.addr, align 8
  %this1 = load ptr, ptr %this.addr, align 8
  %0 = load i64, ptr %interval.addr, align 8
  %heap_prof_interval_ = getelementptr inbounds %"class.node::Environment", ptr %this1, i32 0, i32 39
  store i64 %0, ptr %heap_prof_interval_, align 8
  ret void
}

; Function Attrs: mustprogress nounwind uwtable
define linkonce_odr dso_local void @_ZN4node11Environment17set_heap_prof_dirERKNSt7__cxx1112basic_stringIcSt11char_traitsIcESaIcEEE(ptr noundef nonnull align 8 dereferenceable(2872) %this, ptr noundef nonnull align 8 dereferenceable(32) %dir) #4 comdat align 2 {
entry:
  %this.addr = alloca ptr, align 8
  %dir.addr = alloca ptr, align 8
  store ptr %this, ptr %this.addr, align 8
  store ptr %dir, ptr %dir.addr, align 8
  %this1 = load ptr, ptr %this.addr, align 8
  %0 = load ptr, ptr %dir.addr, align 8
  %heap_prof_dir_ = getelementptr inbounds %"class.node::Environment", ptr %this1, i32 0, i32 37
  %call = call noundef nonnull align 8 dereferenceable(32) ptr @_ZNSt7__cxx1112basic_stringIcSt11char_traitsIcESaIcEEaSERKS4_(ptr noundef nonnull align 8 dereferenceable(32) %heap_prof_dir_, ptr noundef nonnull align 8 dereferenceable(32) %0)
  ret void
}

; Function Attrs: mustprogress nounwind uwtable
define linkonce_odr dso_local void @_ZN4node11Environment18set_heap_prof_nameERKNSt7__cxx1112basic_stringIcSt11char_traitsIcESaIcEEE(ptr noundef nonnull align 8 dereferenceable(2872) %this, ptr noundef nonnull align 8 dereferenceable(32) %name) #4 comdat align 2 {
entry:
  %this.addr = alloca ptr, align 8
  %name.addr = alloca ptr, align 8
  store ptr %this, ptr %this.addr, align 8
  store ptr %name, ptr %name.addr, align 8
  %this1 = load ptr, ptr %this.addr, align 8
  %0 = load ptr, ptr %name.addr, align 8
  %heap_prof_name_ = getelementptr inbounds %"class.node::Environment", ptr %this1, i32 0, i32 38
  %call = call noundef nonnull align 8 dereferenceable(32) ptr @_ZNSt7__cxx1112basic_stringIcSt11char_traitsIcESaIcEEaSERKS4_(ptr noundef nonnull align 8 dereferenceable(32) %heap_prof_name_, ptr noundef nonnull align 8 dereferenceable(32) %0)
  ret void
}

; Function Attrs: mustprogress nounwind uwtable
define linkonce_odr dso_local void @_ZN4node11Environment28set_heap_profiler_connectionESt10unique_ptrINS_8profiler24V8HeapProfilerConnectionESt14default_deleteIS3_EE(ptr noundef nonnull align 8 dereferenceable(2872) %this, ptr noundef %connection) #4 comdat align 2 {
entry:
  %this.addr = alloca ptr, align 8
  %connection.indirect_addr = alloca ptr, align 8
  store ptr %this, ptr %this.addr, align 8
  store ptr %connection, ptr %connection.indirect_addr, align 8
  %this1 = load ptr, ptr %this.addr, align 8
  br label %do.body

do.body:                                          ; preds = %entry
  %heap_profiler_connection_ = getelementptr inbounds %"class.node::Environment", ptr %this1, i32 0, i32 36
  %call = call noundef zeroext i1 @_ZSteqIN4node8profiler24V8HeapProfilerConnectionESt14default_deleteIS2_EEbRKSt10unique_ptrIT_T0_EDn(ptr noundef nonnull align 8 dereferenceable(8) %heap_profiler_connection_, ptr null) #3
  %lnot = xor i1 %call, true
  %lnot2 = xor i1 %lnot, true
  %lnot3 = xor i1 %lnot2, true
  br i1 %lnot3, label %if.then, label %if.end

if.then:                                          ; preds = %do.body
  br label %do.body4

do.body4:                                         ; preds = %if.then
  call void @_ZN4node6AssertERKNS_13AssertionInfoE(ptr noundef nonnull align 8 dereferenceable(24) @_ZZN4node11Environment28set_heap_profiler_connectionESt10unique_ptrINS_8profiler24V8HeapProfilerConnectionESt14default_deleteIS3_EEE4args)
  call void @abort() #17
  unreachable

do.end:                                           ; No predecessors!
  br label %if.end

if.end:                                           ; preds = %do.end, %do.body
  br label %do.end5

do.end5:                                          ; preds = %if.end
  %heap_profiler_connection_6 = getelementptr inbounds %"class.node::Environment", ptr %this1, i32 0, i32 36
  call void @_ZSt4swapIN4node8profiler24V8HeapProfilerConnectionESt14default_deleteIS2_EENSt9enable_ifIXsr14__is_swappableIT0_EE5valueEvE4typeERSt10unique_ptrIT_S6_ESC_(ptr noundef nonnull align 8 dereferenceable(8) %heap_profiler_connection_6, ptr noundef nonnull align 8 dereferenceable(8) %connection) #3
  ret void
}

; Function Attrs: mustprogress nounwind uwtable
define linkonce_odr dso_local void @_ZSt11make_uniqueIN4node8profiler24V8HeapProfilerConnectionEJRPNS0_11EnvironmentEEENSt8__detail9_MakeUniqIT_E15__single_objectEDpOT0_(ptr noalias sret(%"class.std::unique_ptr.132") align 8 %agg.result, ptr noundef nonnull align 8 dereferenceable(8) %__args) #4 comdat {
entry:
  %result.ptr = alloca ptr, align 8
  %__args.addr = alloca ptr, align 8
  store ptr %agg.result, ptr %result.ptr, align 8
  store ptr %__args, ptr %__args.addr, align 8
  %call = call noalias noundef nonnull ptr @_Znwm(i64 noundef 104) #14
  %0 = load ptr, ptr %__args.addr, align 8
  %1 = load ptr, ptr %0, align 8
  call void @_ZN4node8profiler24V8HeapProfilerConnectionC2EPNS_11EnvironmentE(ptr noundef nonnull align 8 dereferenceable(97) %call, ptr noundef %1)
  call void @_ZNSt10unique_ptrIN4node8profiler24V8HeapProfilerConnectionESt14default_deleteIS2_EEC2IS4_vEEPS2_(ptr noundef nonnull align 8 dereferenceable(8) %agg.result, ptr noundef %call) #3
  ret void
}

; Function Attrs: mustprogress nounwind uwtable
define linkonce_odr dso_local void @_ZNSt10unique_ptrIN4node8profiler24V8HeapProfilerConnectionESt14default_deleteIS2_EED2Ev(ptr noundef nonnull align 8 dereferenceable(8) %this) unnamed_addr #4 comdat align 2 {
entry:
  %this.addr = alloca ptr, align 8
  %__ptr = alloca ptr, align 8
  store ptr %this, ptr %this.addr, align 8
  %this1 = load ptr, ptr %this.addr, align 8
  %_M_t = getelementptr inbounds %"class.std::unique_ptr.132", ptr %this1, i32 0, i32 0
  %call = call noundef nonnull align 8 dereferenceable(8) ptr @_ZNSt15__uniq_ptr_implIN4node8profiler24V8HeapProfilerConnectionESt14default_deleteIS2_EE6_M_ptrEv(ptr noundef nonnull align 8 dereferenceable(8) %_M_t) #3
  store ptr %call, ptr %__ptr, align 8
  %0 = load ptr, ptr %__ptr, align 8
  %1 = load ptr, ptr %0, align 8
  %cmp = icmp ne ptr %1, null
  br i1 %cmp, label %if.then, label %if.end

if.then:                                          ; preds = %entry
  %call2 = call noundef nonnull align 1 dereferenceable(1) ptr @_ZNSt10unique_ptrIN4node8profiler24V8HeapProfilerConnectionESt14default_deleteIS2_EE11get_deleterEv(ptr noundef nonnull align 8 dereferenceable(8) %this1) #3
  %2 = load ptr, ptr %__ptr, align 8
  %3 = load ptr, ptr %2, align 8
  call void @_ZNKSt14default_deleteIN4node8profiler24V8HeapProfilerConnectionEEclEPS2_(ptr noundef nonnull align 1 dereferenceable(1) %call2, ptr noundef %3)
  br label %if.end

if.end:                                           ; preds = %if.then, %entry
  %4 = load ptr, ptr %__ptr, align 8
  store ptr null, ptr %4, align 8
  ret void
}

; Function Attrs: mustprogress nounwind uwtable
define linkonce_odr dso_local noundef ptr @_ZN4node11Environment24heap_profiler_connectionEv(ptr noundef nonnull align 8 dereferenceable(2872) %this) #4 comdat align 2 {
entry:
  %this.addr = alloca ptr, align 8
  store ptr %this, ptr %this.addr, align 8
  %this1 = load ptr, ptr %this.addr, align 8
  %heap_profiler_connection_ = getelementptr inbounds %"class.node::Environment", ptr %this1, i32 0, i32 36
  %call = call noundef ptr @_ZNKSt10unique_ptrIN4node8profiler24V8HeapProfilerConnectionESt14default_deleteIS2_EE3getEv(ptr noundef nonnull align 8 dereferenceable(8) %heap_profiler_connection_) #3
  ret ptr %call
}

; Function Attrs: mustprogress nounwind uwtable
define dso_local void @_ZN4node8profiler26RegisterExternalReferencesEPNS_25ExternalReferenceRegistryE(ptr noundef %registry) #4 {
entry:
  %registry.addr = alloca ptr, align 8
  store ptr %registry, ptr %registry.addr, align 8
  %0 = load ptr, ptr %registry.addr, align 8
  call void @_ZN4node25ExternalReferenceRegistry8RegisterEPFvRKN2v820FunctionCallbackInfoINS1_5ValueEEEE(ptr noundef nonnull align 8 dereferenceable(32) %0, ptr noundef @_ZN4node8profilerL20SetCoverageDirectoryERKN2v820FunctionCallbackInfoINS1_5ValueEEE)
  %1 = load ptr, ptr %registry.addr, align 8
  call void @_ZN4node25ExternalReferenceRegistry8RegisterEPFvRKN2v820FunctionCallbackInfoINS1_5ValueEEEE(ptr noundef nonnull align 8 dereferenceable(32) %1, ptr noundef @_ZN4node8profilerL23SetSourceMapCacheGetterERKN2v820FunctionCallbackInfoINS1_5ValueEEE)
  %2 = load ptr, ptr %registry.addr, align 8
  call void @_ZN4node25ExternalReferenceRegistry8RegisterEPFvRKN2v820FunctionCallbackInfoINS1_5ValueEEEE(ptr noundef nonnull align 8 dereferenceable(32) %2, ptr noundef @_ZN4node8profilerL12TakeCoverageERKN2v820FunctionCallbackInfoINS1_5ValueEEE)
  %3 = load ptr, ptr %registry.addr, align 8
  call void @_ZN4node25ExternalReferenceRegistry8RegisterEPFvRKN2v820FunctionCallbackInfoINS1_5ValueEEEE(ptr noundef nonnull align 8 dereferenceable(32) %3, ptr noundef @_ZN4node8profilerL12StopCoverageERKN2v820FunctionCallbackInfoINS1_5ValueEEE)
  ret void
}

; Function Attrs: mustprogress nounwind uwtable
define linkonce_odr dso_local void @_ZN4node25ExternalReferenceRegistry8RegisterEPFvRKN2v820FunctionCallbackInfoINS1_5ValueEEEE(ptr noundef nonnull align 8 dereferenceable(32) %this, ptr noundef %addr) #4 comdat align 2 {
entry:
  %this.addr = alloca ptr, align 8
  %addr.addr = alloca ptr, align 8
  store ptr %this, ptr %this.addr, align 8
  store ptr %addr, ptr %addr.addr, align 8
  %this1 = load ptr, ptr %this.addr, align 8
  %0 = load ptr, ptr %addr.addr, align 8
  call void @_ZN4node25ExternalReferenceRegistry9RegisterTIFvRKN2v820FunctionCallbackInfoINS2_5ValueEEEEEEvPT_(ptr noundef nonnull align 8 dereferenceable(32) %this1, ptr noundef %0)
  ret void
}

; Function Attrs: mustprogress nounwind uwtable
define internal void @_ZN4node8profilerL20SetCoverageDirectoryERKN2v820FunctionCallbackInfoINS1_5ValueEEE(ptr noundef nonnull align 8 dereferenceable(20) %args) #4 {
entry:
  %this.addr.i145 = alloca ptr, align 8
  %other.addr.i146 = alloca ptr, align 8
  %this.addr.i142 = alloca ptr, align 8
  %other.addr.i143 = alloca ptr, align 8
  %slot.addr.i141 = alloca ptr, align 8
  %this.addr.i.i137 = alloca ptr, align 8
  %this.addr.i138 = alloca ptr, align 8
  %this.addr.i134 = alloca ptr, align 8
  %other.addr.i135 = alloca ptr, align 8
  %this.addr.i131 = alloca ptr, align 8
  %other.addr.i132 = alloca ptr, align 8
  %this.addr.i128 = alloca ptr, align 8
  %other.addr.i129 = alloca ptr, align 8
  %retval.i125 = alloca %"class.v8::Local.315", align 8
  %that.i126 = alloca %"class.v8::Local.317", align 8
  %ref.tmp.i127 = alloca %"class.v8::LocalBase.316", align 8
  %heap_object_ptr.addr.i9.i = alloca i64, align 8
  %offset.addr.i10.i = alloca i32, align 4
  %addr.i11.i = alloca i64, align 8
  %heap_object_ptr.addr.i6.i = alloca i64, align 8
  %offset.addr.i7.i = alloca i32, align 4
  %addr.i.i116 = alloca i64, align 8
  %heap_object_ptr.addr.i.i = alloca i64, align 8
  %offset.addr.i.i = alloca i32, align 4
  %obj.addr.i.i = alloca i64, align 8
  %map.i.i = alloca i64, align 8
  %value.addr.i4.i = alloca i64, align 8
  %value.addr.i.i = alloca ptr, align 8
  %retval.i117 = alloca i1, align 1
  %this.addr.i118 = alloca ptr, align 8
  %obj.i = alloca i64, align 8
  %this.addr.i.i110 = alloca ptr, align 8
  %location.addr.i.i111 = alloca ptr, align 8
  %this.addr.i112 = alloca ptr, align 8
  %location.addr.i113 = alloca ptr, align 8
  %this.addr.i.i105 = alloca ptr, align 8
  %location.addr.i.i106 = alloca ptr, align 8
  %this.addr.i107 = alloca ptr, align 8
  %location.addr.i = alloca ptr, align 8
  %this.addr.i102 = alloca ptr, align 8
  %other.addr.i103 = alloca ptr, align 8
  %this.addr.i100 = alloca ptr, align 8
  %other.addr.i = alloca ptr, align 8
  %retval.i98 = alloca %"class.v8::LocalBase.318", align 8
  %slot.addr.i99 = alloca ptr, align 8
  %retval.i96 = alloca %"class.v8::LocalBase.318", align 8
  %slot.addr.i97 = alloca ptr, align 8
  %retval.i92 = alloca %"class.v8::Local.317", align 8
  %slot.addr.i93 = alloca ptr, align 8
  %ref.tmp.i94 = alloca %"class.v8::LocalBase.318", align 8
  %retval.i90 = alloca %"class.v8::Local.317", align 8
  %slot.addr.i = alloca ptr, align 8
  %ref.tmp.i = alloca %"class.v8::LocalBase.318", align 8
  %this.addr.i87 = alloca ptr, align 8
  %this.addr.i85 = alloca ptr, align 8
  %retval.i80 = alloca %"class.v8::Local.315", align 8
  %this.addr.i81 = alloca ptr, align 8
  %agg.tmp.i82 = alloca %"class.v8::Local.317", align 8
  %this.addr.i77 = alloca ptr, align 8
  %this.addr.i24.i32 = alloca ptr, align 8
  %location.addr.i25.i33 = alloca ptr, align 8
  %this.addr.i22.i34 = alloca ptr, align 8
  %location.addr.i.i35 = alloca ptr, align 8
  %this.addr.i21.i36 = alloca ptr, align 8
  %other.addr.i.i37 = alloca ptr, align 8
  %retval.i19.i38 = alloca %"class.v8::LocalBase.328", align 8
  %slot.addr.i20.i39 = alloca ptr, align 8
  %retval.i18.i40 = alloca %"class.v8::Local.327", align 8
  %slot.addr.i.i41 = alloca ptr, align 8
  %ref.tmp.i.i42 = alloca %"class.v8::LocalBase.328", align 8
  %isolate.addr.i17.i43 = alloca ptr, align 8
  %index.addr.i.i44 = alloca i32, align 4
  %addr.i.i45 = alloca i64, align 8
  %isolate.addr.i16.i46 = alloca ptr, align 8
  %that.i.i47 = alloca %"class.v8::Local.327", align 8
  %this.addr.i.i48 = alloca ptr, align 8
  %retval.i.i49 = alloca %"class.v8::Local.327", align 8
  %isolate.addr.i.i50 = alloca ptr, align 8
  %slot.i.i51 = alloca ptr, align 8
  %retval.i52 = alloca %"class.v8::Local.317", align 8
  %this.addr.i53 = alloca ptr, align 8
  %i.addr.i54 = alloca i32, align 4
  %agg.tmp.i55 = alloca %"class.v8::Local.327", align 8
  %this.addr.i24.i = alloca ptr, align 8
  %location.addr.i25.i = alloca ptr, align 8
  %this.addr.i22.i = alloca ptr, align 8
  %location.addr.i.i = alloca ptr, align 8
  %this.addr.i21.i = alloca ptr, align 8
  %other.addr.i.i = alloca ptr, align 8
  %retval.i19.i = alloca %"class.v8::LocalBase.328", align 8
  %slot.addr.i20.i = alloca ptr, align 8
  %retval.i18.i = alloca %"class.v8::Local.327", align 8
  %slot.addr.i.i = alloca ptr, align 8
  %ref.tmp.i.i = alloca %"class.v8::LocalBase.328", align 8
  %isolate.addr.i17.i = alloca ptr, align 8
  %index.addr.i.i = alloca i32, align 4
  %addr.i.i = alloca i64, align 8
  %isolate.addr.i16.i = alloca ptr, align 8
  %that.i.i = alloca %"class.v8::Local.327", align 8
  %this.addr.i.i = alloca ptr, align 8
  %retval.i.i = alloca %"class.v8::Local.327", align 8
  %isolate.addr.i.i = alloca ptr, align 8
  %slot.i.i = alloca ptr, align 8
  %retval.i = alloca %"class.v8::Local.317", align 8
  %this.addr.i29 = alloca ptr, align 8
  %i.addr.i = alloca i32, align 4
  %agg.tmp.i = alloca %"class.v8::Local.327", align 8
  %that.i = alloca %"class.v8::Local.315", align 8
  %this.addr.i28 = alloca ptr, align 8
  %this.addr.i = alloca ptr, align 8
  %args.addr = alloca ptr, align 8
  %ref.tmp = alloca %"class.v8::Local.317", align 8
  %env = alloca ptr, align 8
  %directory = alloca %"class.node::Utf8Value", align 8
  %agg.tmp = alloca %"class.v8::Local.317", align 8
  %agg.tmp11 = alloca %"class.v8::Local.315", align 8
  %ref.tmp12 = alloca %"class.v8::Local.317", align 8
  store ptr %args, ptr %args.addr, align 8
  br label %do.body

do.body:                                          ; preds = %entry
  %0 = load ptr, ptr %args.addr, align 8
  store ptr %0, ptr %this.addr.i53, align 8
  store i32 0, ptr %i.addr.i54, align 4
  %this1.i56 = load ptr, ptr %this.addr.i53, align 8
  %1 = load i32, ptr %i.addr.i54, align 4
  %cmp.i57 = icmp slt i32 %1, 0
  br i1 %cmp.i57, label %if.then.i66, label %lor.lhs.false.i58

lor.lhs.false.i58:                                ; preds = %do.body
  %length_.i59 = getelementptr inbounds %"class.v8::FunctionCallbackInfo", ptr %this1.i56, i32 0, i32 2
  %2 = load i32, ptr %length_.i59, align 8
  %3 = load i32, ptr %i.addr.i54, align 4
  %cmp2.i60 = icmp sle i32 %2, %3
  br i1 %cmp2.i60, label %if.then.i66, label %if.end.i61

if.then.i66:                                      ; preds = %lor.lhs.false.i58, %do.body
  store ptr %this1.i56, ptr %this.addr.i85, align 8
  %this1.i86 = load ptr, ptr %this.addr.i85, align 8
  %4 = load ptr, ptr %this1.i86, align 8
  %arrayidx.i = getelementptr inbounds i64, ptr %4, i64 1
  %5 = load ptr, ptr %arrayidx.i, align 8
  store ptr %5, ptr %isolate.addr.i.i50, align 8
  %6 = load ptr, ptr %isolate.addr.i.i50, align 8
  store ptr %6, ptr %isolate.addr.i16.i46, align 8
  %7 = load ptr, ptr %isolate.addr.i.i50, align 8
  store ptr %7, ptr %isolate.addr.i17.i43, align 8
  store i32 4, ptr %index.addr.i.i44, align 4
  %8 = load ptr, ptr %isolate.addr.i17.i43, align 8
  %9 = ptrtoint ptr %8 to i64
  %add.i.i68 = add i64 %9, 576
  %10 = load i32, ptr %index.addr.i.i44, align 4
  %mul.i.i69 = mul nsw i32 %10, 8
  %conv.i.i70 = sext i32 %mul.i.i69 to i64
  %add1.i.i71 = add i64 %add.i.i68, %conv.i.i70
  store i64 %add1.i.i71, ptr %addr.i.i45, align 8
  %11 = load i64, ptr %addr.i.i45, align 8
  %12 = inttoptr i64 %11 to ptr
  store ptr %12, ptr %slot.i.i51, align 8
  %13 = load ptr, ptr %slot.i.i51, align 8
  store ptr %13, ptr %slot.addr.i.i41, align 8
  %14 = load ptr, ptr %slot.addr.i.i41, align 8
  store ptr %14, ptr %slot.addr.i20.i39, align 8
  %15 = load ptr, ptr %slot.addr.i20.i39, align 8
  store ptr %retval.i19.i38, ptr %this.addr.i22.i34, align 8
  store ptr %15, ptr %location.addr.i.i35, align 8
  %this1.i23.i72 = load ptr, ptr %this.addr.i22.i34, align 8
  %16 = load ptr, ptr %location.addr.i.i35, align 8
  store ptr %this1.i23.i72, ptr %this.addr.i24.i32, align 8
  store ptr %16, ptr %location.addr.i25.i33, align 8
  %this1.i26.i73 = load ptr, ptr %this.addr.i24.i32, align 8
  %17 = load ptr, ptr %location.addr.i25.i33, align 8
  store ptr %17, ptr %this1.i26.i73, align 8
  %18 = load ptr, ptr %retval.i19.i38, align 8
  store ptr %18, ptr %ref.tmp.i.i42, align 8
  store ptr %retval.i18.i40, ptr %this.addr.i21.i36, align 8
  store ptr %ref.tmp.i.i42, ptr %other.addr.i.i37, align 8
  %this1.i.i74 = load ptr, ptr %this.addr.i21.i36, align 8
  %19 = load ptr, ptr %other.addr.i.i37, align 8
  call void @llvm.memcpy.p0.p0.i64(ptr align 8 %this1.i.i74, ptr align 8 %19, i64 8, i1 false)
  %20 = load ptr, ptr %retval.i18.i40, align 8
  store ptr %20, ptr %retval.i.i49, align 8
  %21 = load ptr, ptr %retval.i.i49, align 8
  store ptr %21, ptr %agg.tmp.i55, align 8
  %22 = load ptr, ptr %agg.tmp.i55, align 8
  store ptr %22, ptr %that.i.i47, align 8
  store ptr %retval.i52, ptr %this.addr.i.i48, align 8
  %this3.i.i75 = load ptr, ptr %this.addr.i.i48, align 8
  store ptr %this3.i.i75, ptr %this.addr.i142, align 8
  store ptr %that.i.i47, ptr %other.addr.i143, align 8
  %this1.i144 = load ptr, ptr %this.addr.i142, align 8
  %23 = load ptr, ptr %other.addr.i143, align 8
  call void @llvm.memcpy.p0.p0.i64(ptr align 8 %this1.i144, ptr align 8 %23, i64 8, i1 false)
  br label %_ZNK2v820FunctionCallbackInfoINS_5ValueEEixEi.exit76

if.end.i61:                                       ; preds = %lor.lhs.false.i58
  %values_.i62 = getelementptr inbounds %"class.v8::FunctionCallbackInfo", ptr %this1.i56, i32 0, i32 1
  %24 = load ptr, ptr %values_.i62, align 8
  %25 = load i32, ptr %i.addr.i54, align 4
  %idx.ext.i63 = sext i32 %25 to i64
  %add.ptr.i64 = getelementptr inbounds i64, ptr %24, i64 %idx.ext.i63
  store ptr %add.ptr.i64, ptr %slot.addr.i, align 8
  %26 = load ptr, ptr %slot.addr.i, align 8
  store ptr %26, ptr %slot.addr.i99, align 8
  %27 = load ptr, ptr %slot.addr.i99, align 8
  store ptr %retval.i98, ptr %this.addr.i107, align 8
  store ptr %27, ptr %location.addr.i, align 8
  %this1.i108 = load ptr, ptr %this.addr.i107, align 8
  %28 = load ptr, ptr %location.addr.i, align 8
  store ptr %this1.i108, ptr %this.addr.i.i105, align 8
  store ptr %28, ptr %location.addr.i.i106, align 8
  %this1.i.i109 = load ptr, ptr %this.addr.i.i105, align 8
  %29 = load ptr, ptr %location.addr.i.i106, align 8
  store ptr %29, ptr %this1.i.i109, align 8
  %30 = load ptr, ptr %retval.i98, align 8
  store ptr %30, ptr %ref.tmp.i, align 8
  store ptr %retval.i90, ptr %this.addr.i102, align 8
  store ptr %ref.tmp.i, ptr %other.addr.i103, align 8
  %this1.i104 = load ptr, ptr %this.addr.i102, align 8
  %31 = load ptr, ptr %other.addr.i103, align 8
  call void @llvm.memcpy.p0.p0.i64(ptr align 8 %this1.i104, ptr align 8 %31, i64 8, i1 false)
  %32 = load ptr, ptr %retval.i90, align 8
  store ptr %32, ptr %retval.i52, align 8
  br label %_ZNK2v820FunctionCallbackInfoINS_5ValueEEixEi.exit76

_ZNK2v820FunctionCallbackInfoINS_5ValueEEixEi.exit76: ; preds = %if.end.i61, %if.then.i66
  %33 = load ptr, ptr %retval.i52, align 8
  %coerce.dive = getelementptr inbounds %"class.v8::Local.317", ptr %ref.tmp, i32 0, i32 0
  %coerce.dive1 = getelementptr inbounds %"class.v8::LocalBase.318", ptr %coerce.dive, i32 0, i32 0
  %coerce.dive2 = getelementptr inbounds %"class.v8::IndirectHandleBase", ptr %coerce.dive1, i32 0, i32 0
  store ptr %33, ptr %coerce.dive2, align 8
  store ptr %ref.tmp, ptr %this.addr.i, align 8
  %this1.i = load ptr, ptr %this.addr.i, align 8
  store ptr %this1.i, ptr %this.addr.i138, align 8
  %this1.i139 = load ptr, ptr %this.addr.i138, align 8
  store ptr %this1.i139, ptr %this.addr.i.i137, align 8
  %this1.i.i140 = load ptr, ptr %this.addr.i.i137, align 8
  %34 = load ptr, ptr %this1.i.i140, align 8
  store ptr %34, ptr %slot.addr.i141, align 8
  %35 = load ptr, ptr %slot.addr.i141, align 8
  store ptr %35, ptr %this.addr.i77, align 8
  %this1.i78 = load ptr, ptr %this.addr.i77, align 8
  store ptr %this1.i78, ptr %this.addr.i118, align 8
  %this1.i119 = load ptr, ptr %this.addr.i118, align 8
  store ptr %this1.i119, ptr %value.addr.i.i, align 8
  %36 = load ptr, ptr %value.addr.i.i, align 8
  %37 = load i64, ptr %36, align 8
  store i64 %37, ptr %obj.i, align 8
  %38 = load i64, ptr %obj.i, align 8
  store i64 %38, ptr %value.addr.i4.i, align 8
  %39 = load i64, ptr %value.addr.i4.i, align 8
  %and.i.i = and i64 %39, 3
  %cmp.i.i = icmp eq i64 %and.i.i, 1
  br i1 %cmp.i.i, label %if.end.i121, label %if.then.i120

if.then.i120:                                     ; preds = %_ZNK2v820FunctionCallbackInfoINS_5ValueEEixEi.exit76
  store i1 false, ptr %retval.i117, align 1
  br label %_ZNK2v85Value13QuickIsStringEv.exit

if.end.i121:                                      ; preds = %_ZNK2v820FunctionCallbackInfoINS_5ValueEEixEi.exit76
  %40 = load i64, ptr %obj.i, align 8
  store i64 %40, ptr %obj.addr.i.i, align 8
  %41 = load i64, ptr %obj.addr.i.i, align 8
  store i64 %41, ptr %heap_object_ptr.addr.i.i, align 8
  store i32 0, ptr %offset.addr.i.i, align 4
  %42 = load i64, ptr %heap_object_ptr.addr.i.i, align 8
  %43 = load i32, ptr %offset.addr.i.i, align 4
  store i64 %42, ptr %heap_object_ptr.addr.i9.i, align 8
  store i32 %43, ptr %offset.addr.i10.i, align 4
  %44 = load i64, ptr %heap_object_ptr.addr.i9.i, align 8
  %45 = load i32, ptr %offset.addr.i10.i, align 4
  %conv.i12.i = sext i32 %45 to i64
  %add.i13.i = add i64 %44, %conv.i12.i
  %sub.i14.i = sub i64 %add.i13.i, 1
  store i64 %sub.i14.i, ptr %addr.i11.i, align 8
  %46 = load i64, ptr %addr.i11.i, align 8
  %47 = inttoptr i64 %46 to ptr
  %48 = load i64, ptr %47, align 8
  store i64 %48, ptr %map.i.i, align 8
  %49 = load i64, ptr %map.i.i, align 8
  store i64 %49, ptr %heap_object_ptr.addr.i6.i, align 8
  store i32 12, ptr %offset.addr.i7.i, align 4
  %50 = load i64, ptr %heap_object_ptr.addr.i6.i, align 8
  %51 = load i32, ptr %offset.addr.i7.i, align 4
  %conv.i8.i = sext i32 %51 to i64
  %add.i.i122 = add i64 %50, %conv.i8.i
  %sub.i.i = sub i64 %add.i.i122, 1
  store i64 %sub.i.i, ptr %addr.i.i116, align 8
  %52 = load i64, ptr %addr.i.i116, align 8
  %53 = inttoptr i64 %52 to ptr
  %54 = load i16, ptr %53, align 2
  %conv.i.i123 = zext i16 %54 to i32
  %cmp.i124 = icmp slt i32 %conv.i.i123, 128
  store i1 %cmp.i124, ptr %retval.i117, align 1
  br label %_ZNK2v85Value13QuickIsStringEv.exit

_ZNK2v85Value13QuickIsStringEv.exit:              ; preds = %if.end.i121, %if.then.i120
  %55 = load i1, ptr %retval.i117, align 1
  %lnot = xor i1 %55, true
  %lnot5 = xor i1 %lnot, true
  %lnot6 = xor i1 %lnot5, true
  br i1 %lnot6, label %if.then, label %if.end

if.then:                                          ; preds = %_ZNK2v85Value13QuickIsStringEv.exit
  br label %do.body7

do.body7:                                         ; preds = %if.then
  call void @_ZN4node6AssertERKNS_13AssertionInfoE(ptr noundef nonnull align 8 dereferenceable(24) @_ZZN4node8profilerL20SetCoverageDirectoryERKN2v820FunctionCallbackInfoINS1_5ValueEEEE4args)
  call void @abort() #17
  unreachable

do.end:                                           ; No predecessors!
  br label %if.end

if.end:                                           ; preds = %do.end, %_ZNK2v85Value13QuickIsStringEv.exit
  br label %do.end8

do.end8:                                          ; preds = %if.end
  %56 = load ptr, ptr %args.addr, align 8
  %call9 = call noundef ptr @_ZN4node11Environment10GetCurrentERKN2v820FunctionCallbackInfoINS1_5ValueEEE(ptr noundef nonnull align 8 dereferenceable(20) %56)
  store ptr %call9, ptr %env, align 8
  %57 = load ptr, ptr %env, align 8
  %call10 = call noundef ptr @_ZNK4node11Environment7isolateEv(ptr noundef nonnull align 8 dereferenceable(2872) %57)
  %58 = load ptr, ptr %args.addr, align 8
  store ptr %58, ptr %this.addr.i29, align 8
  store i32 0, ptr %i.addr.i, align 4
  %this1.i30 = load ptr, ptr %this.addr.i29, align 8
  %59 = load i32, ptr %i.addr.i, align 4
  %cmp.i = icmp slt i32 %59, 0
  br i1 %cmp.i, label %if.then.i, label %lor.lhs.false.i

lor.lhs.false.i:                                  ; preds = %do.end8
  %length_.i = getelementptr inbounds %"class.v8::FunctionCallbackInfo", ptr %this1.i30, i32 0, i32 2
  %60 = load i32, ptr %length_.i, align 8
  %61 = load i32, ptr %i.addr.i, align 4
  %cmp2.i = icmp sle i32 %60, %61
  br i1 %cmp2.i, label %if.then.i, label %if.end.i

if.then.i:                                        ; preds = %lor.lhs.false.i, %do.end8
  store ptr %this1.i30, ptr %this.addr.i87, align 8
  %this1.i88 = load ptr, ptr %this.addr.i87, align 8
  %62 = load ptr, ptr %this1.i88, align 8
  %arrayidx.i89 = getelementptr inbounds i64, ptr %62, i64 1
  %63 = load ptr, ptr %arrayidx.i89, align 8
  store ptr %63, ptr %isolate.addr.i.i, align 8
  %64 = load ptr, ptr %isolate.addr.i.i, align 8
  store ptr %64, ptr %isolate.addr.i16.i, align 8
  %65 = load ptr, ptr %isolate.addr.i.i, align 8
  store ptr %65, ptr %isolate.addr.i17.i, align 8
  store i32 4, ptr %index.addr.i.i, align 4
  %66 = load ptr, ptr %isolate.addr.i17.i, align 8
  %67 = ptrtoint ptr %66 to i64
  %add.i.i = add i64 %67, 576
  %68 = load i32, ptr %index.addr.i.i, align 4
  %mul.i.i = mul nsw i32 %68, 8
  %conv.i.i = sext i32 %mul.i.i to i64
  %add1.i.i = add i64 %add.i.i, %conv.i.i
  store i64 %add1.i.i, ptr %addr.i.i, align 8
  %69 = load i64, ptr %addr.i.i, align 8
  %70 = inttoptr i64 %69 to ptr
  store ptr %70, ptr %slot.i.i, align 8
  %71 = load ptr, ptr %slot.i.i, align 8
  store ptr %71, ptr %slot.addr.i.i, align 8
  %72 = load ptr, ptr %slot.addr.i.i, align 8
  store ptr %72, ptr %slot.addr.i20.i, align 8
  %73 = load ptr, ptr %slot.addr.i20.i, align 8
  store ptr %retval.i19.i, ptr %this.addr.i22.i, align 8
  store ptr %73, ptr %location.addr.i.i, align 8
  %this1.i23.i = load ptr, ptr %this.addr.i22.i, align 8
  %74 = load ptr, ptr %location.addr.i.i, align 8
  store ptr %this1.i23.i, ptr %this.addr.i24.i, align 8
  store ptr %74, ptr %location.addr.i25.i, align 8
  %this1.i26.i = load ptr, ptr %this.addr.i24.i, align 8
  %75 = load ptr, ptr %location.addr.i25.i, align 8
  store ptr %75, ptr %this1.i26.i, align 8
  %76 = load ptr, ptr %retval.i19.i, align 8
  store ptr %76, ptr %ref.tmp.i.i, align 8
  store ptr %retval.i18.i, ptr %this.addr.i21.i, align 8
  store ptr %ref.tmp.i.i, ptr %other.addr.i.i, align 8
  %this1.i.i = load ptr, ptr %this.addr.i21.i, align 8
  %77 = load ptr, ptr %other.addr.i.i, align 8
  call void @llvm.memcpy.p0.p0.i64(ptr align 8 %this1.i.i, ptr align 8 %77, i64 8, i1 false)
  %78 = load ptr, ptr %retval.i18.i, align 8
  store ptr %78, ptr %retval.i.i, align 8
  %79 = load ptr, ptr %retval.i.i, align 8
  store ptr %79, ptr %agg.tmp.i, align 8
  %80 = load ptr, ptr %agg.tmp.i, align 8
  store ptr %80, ptr %that.i.i, align 8
  store ptr %retval.i, ptr %this.addr.i.i, align 8
  %this3.i.i = load ptr, ptr %this.addr.i.i, align 8
  store ptr %this3.i.i, ptr %this.addr.i145, align 8
  store ptr %that.i.i, ptr %other.addr.i146, align 8
  %this1.i147 = load ptr, ptr %this.addr.i145, align 8
  %81 = load ptr, ptr %other.addr.i146, align 8
  call void @llvm.memcpy.p0.p0.i64(ptr align 8 %this1.i147, ptr align 8 %81, i64 8, i1 false)
  br label %_ZNK2v820FunctionCallbackInfoINS_5ValueEEixEi.exit

if.end.i:                                         ; preds = %lor.lhs.false.i
  %values_.i = getelementptr inbounds %"class.v8::FunctionCallbackInfo", ptr %this1.i30, i32 0, i32 1
  %82 = load ptr, ptr %values_.i, align 8
  %83 = load i32, ptr %i.addr.i, align 4
  %idx.ext.i = sext i32 %83 to i64
  %add.ptr.i = getelementptr inbounds i64, ptr %82, i64 %idx.ext.i
  store ptr %add.ptr.i, ptr %slot.addr.i93, align 8
  %84 = load ptr, ptr %slot.addr.i93, align 8
  store ptr %84, ptr %slot.addr.i97, align 8
  %85 = load ptr, ptr %slot.addr.i97, align 8
  store ptr %retval.i96, ptr %this.addr.i112, align 8
  store ptr %85, ptr %location.addr.i113, align 8
  %this1.i114 = load ptr, ptr %this.addr.i112, align 8
  %86 = load ptr, ptr %location.addr.i113, align 8
  store ptr %this1.i114, ptr %this.addr.i.i110, align 8
  store ptr %86, ptr %location.addr.i.i111, align 8
  %this1.i.i115 = load ptr, ptr %this.addr.i.i110, align 8
  %87 = load ptr, ptr %location.addr.i.i111, align 8
  store ptr %87, ptr %this1.i.i115, align 8
  %88 = load ptr, ptr %retval.i96, align 8
  store ptr %88, ptr %ref.tmp.i94, align 8
  store ptr %retval.i92, ptr %this.addr.i100, align 8
  store ptr %ref.tmp.i94, ptr %other.addr.i, align 8
  %this1.i101 = load ptr, ptr %this.addr.i100, align 8
  %89 = load ptr, ptr %other.addr.i, align 8
  call void @llvm.memcpy.p0.p0.i64(ptr align 8 %this1.i101, ptr align 8 %89, i64 8, i1 false)
  %90 = load ptr, ptr %retval.i92, align 8
  store ptr %90, ptr %retval.i, align 8
  br label %_ZNK2v820FunctionCallbackInfoINS_5ValueEEixEi.exit

_ZNK2v820FunctionCallbackInfoINS_5ValueEEixEi.exit: ; preds = %if.end.i, %if.then.i
  %91 = load ptr, ptr %retval.i, align 8
  %coerce.dive14 = getelementptr inbounds %"class.v8::Local.317", ptr %ref.tmp12, i32 0, i32 0
  %coerce.dive15 = getelementptr inbounds %"class.v8::LocalBase.318", ptr %coerce.dive14, i32 0, i32 0
  %coerce.dive16 = getelementptr inbounds %"class.v8::IndirectHandleBase", ptr %coerce.dive15, i32 0, i32 0
  store ptr %91, ptr %coerce.dive16, align 8
  store ptr %ref.tmp12, ptr %this.addr.i81, align 8
  %this1.i83 = load ptr, ptr %this.addr.i81, align 8
  call void @llvm.memcpy.p0.p0.i64(ptr align 8 %agg.tmp.i82, ptr align 8 %this1.i83, i64 8, i1 false)
  %92 = load ptr, ptr %agg.tmp.i82, align 8
  store ptr %92, ptr %that.i126, align 8
  store ptr %ref.tmp.i127, ptr %this.addr.i128, align 8
  store ptr %that.i126, ptr %other.addr.i129, align 8
  %this1.i130 = load ptr, ptr %this.addr.i128, align 8
  %93 = load ptr, ptr %other.addr.i129, align 8
  call void @llvm.memcpy.p0.p0.i64(ptr align 8 %this1.i130, ptr align 8 %93, i64 8, i1 false)
  store ptr %retval.i125, ptr %this.addr.i131, align 8
  store ptr %ref.tmp.i127, ptr %other.addr.i132, align 8
  %this1.i133 = load ptr, ptr %this.addr.i131, align 8
  %94 = load ptr, ptr %other.addr.i132, align 8
  call void @llvm.memcpy.p0.p0.i64(ptr align 8 %this1.i133, ptr align 8 %94, i64 8, i1 false)
  %95 = load ptr, ptr %retval.i125, align 8
  store ptr %95, ptr %retval.i80, align 8
  %96 = load ptr, ptr %retval.i80, align 8
  %coerce.dive18 = getelementptr inbounds %"class.v8::Local.315", ptr %agg.tmp11, i32 0, i32 0
  %coerce.dive19 = getelementptr inbounds %"class.v8::LocalBase.316", ptr %coerce.dive18, i32 0, i32 0
  %coerce.dive20 = getelementptr inbounds %"class.v8::IndirectHandleBase", ptr %coerce.dive19, i32 0, i32 0
  store ptr %96, ptr %coerce.dive20, align 8
  %coerce.dive21 = getelementptr inbounds %"class.v8::Local.315", ptr %agg.tmp11, i32 0, i32 0
  %coerce.dive22 = getelementptr inbounds %"class.v8::LocalBase.316", ptr %coerce.dive21, i32 0, i32 0
  %coerce.dive23 = getelementptr inbounds %"class.v8::IndirectHandleBase", ptr %coerce.dive22, i32 0, i32 0
  %97 = load ptr, ptr %coerce.dive23, align 8
  store ptr %97, ptr %that.i, align 8
  store ptr %agg.tmp, ptr %this.addr.i28, align 8
  %this3.i = load ptr, ptr %this.addr.i28, align 8
  store ptr %this3.i, ptr %this.addr.i134, align 8
  store ptr %that.i, ptr %other.addr.i135, align 8
  %this1.i136 = load ptr, ptr %this.addr.i134, align 8
  %98 = load ptr, ptr %other.addr.i135, align 8
  call void @llvm.memcpy.p0.p0.i64(ptr align 8 %this1.i136, ptr align 8 %98, i64 8, i1 false)
  %coerce.dive24 = getelementptr inbounds %"class.v8::Local.317", ptr %agg.tmp, i32 0, i32 0
  %coerce.dive25 = getelementptr inbounds %"class.v8::LocalBase.318", ptr %coerce.dive24, i32 0, i32 0
  %coerce.dive26 = getelementptr inbounds %"class.v8::IndirectHandleBase", ptr %coerce.dive25, i32 0, i32 0
  %99 = load ptr, ptr %coerce.dive26, align 8
  call void @_ZN4node9Utf8ValueC1EPN2v87IsolateENS1_5LocalINS1_5ValueEEE(ptr noundef nonnull align 8 dereferenceable(1048) %directory, ptr noundef %call10, ptr %99)
  %100 = load ptr, ptr %env, align 8
  %call27 = call noundef ptr @_ZN4node16MaybeStackBufferIcLm1024EEdeEv(ptr noundef nonnull align 8 dereferenceable(1048) %directory)
  call void @_ZN4node11Environment22set_coverage_directoryEPKc(ptr noundef nonnull align 8 dereferenceable(2872) %100, ptr noundef %call27)
  call void @_ZN4node9Utf8ValueD2Ev(ptr noundef nonnull align 8 dereferenceable(1048) %directory) #3
  ret void
}

; Function Attrs: mustprogress nounwind uwtable
define internal void @_ZN4node8profilerL23SetSourceMapCacheGetterERKN2v820FunctionCallbackInfoINS1_5ValueEEE(ptr noundef nonnull align 8 dereferenceable(20) %args) #4 {
entry:
  %this.addr.i122 = alloca ptr, align 8
  %other.addr.i123 = alloca ptr, align 8
  %this.addr.i119 = alloca ptr, align 8
  %other.addr.i120 = alloca ptr, align 8
  %slot.addr.i118 = alloca ptr, align 8
  %this.addr.i.i114 = alloca ptr, align 8
  %this.addr.i115 = alloca ptr, align 8
  %this.addr.i111 = alloca ptr, align 8
  %other.addr.i112 = alloca ptr, align 8
  %this.addr.i108 = alloca ptr, align 8
  %other.addr.i109 = alloca ptr, align 8
  %retval.i106 = alloca %"class.v8::Local.325", align 8
  %that.i = alloca %"class.v8::Local.317", align 8
  %ref.tmp.i107 = alloca %"class.v8::LocalBase.326", align 8
  %retval.i101 = alloca %"class.v8::Local.325", align 8
  %this.addr.i102 = alloca ptr, align 8
  %agg.tmp.i103 = alloca %"class.v8::Local.317", align 8
  %this.addr.i.i95 = alloca ptr, align 8
  %location.addr.i.i96 = alloca ptr, align 8
  %this.addr.i97 = alloca ptr, align 8
  %location.addr.i98 = alloca ptr, align 8
  %this.addr.i.i90 = alloca ptr, align 8
  %location.addr.i.i91 = alloca ptr, align 8
  %this.addr.i92 = alloca ptr, align 8
  %location.addr.i = alloca ptr, align 8
  %this.addr.i87 = alloca ptr, align 8
  %other.addr.i88 = alloca ptr, align 8
  %this.addr.i85 = alloca ptr, align 8
  %other.addr.i = alloca ptr, align 8
  %retval.i83 = alloca %"class.v8::LocalBase.318", align 8
  %slot.addr.i84 = alloca ptr, align 8
  %retval.i81 = alloca %"class.v8::LocalBase.318", align 8
  %slot.addr.i82 = alloca ptr, align 8
  %retval.i77 = alloca %"class.v8::Local.317", align 8
  %slot.addr.i78 = alloca ptr, align 8
  %ref.tmp.i79 = alloca %"class.v8::LocalBase.318", align 8
  %retval.i75 = alloca %"class.v8::Local.317", align 8
  %slot.addr.i = alloca ptr, align 8
  %ref.tmp.i = alloca %"class.v8::LocalBase.318", align 8
  %this.addr.i72 = alloca ptr, align 8
  %this.addr.i70 = alloca ptr, align 8
  %this.addr.i24.i25 = alloca ptr, align 8
  %location.addr.i25.i26 = alloca ptr, align 8
  %this.addr.i22.i27 = alloca ptr, align 8
  %location.addr.i.i28 = alloca ptr, align 8
  %this.addr.i21.i29 = alloca ptr, align 8
  %other.addr.i.i30 = alloca ptr, align 8
  %retval.i19.i31 = alloca %"class.v8::LocalBase.328", align 8
  %slot.addr.i20.i32 = alloca ptr, align 8
  %retval.i18.i33 = alloca %"class.v8::Local.327", align 8
  %slot.addr.i.i34 = alloca ptr, align 8
  %ref.tmp.i.i35 = alloca %"class.v8::LocalBase.328", align 8
  %isolate.addr.i17.i36 = alloca ptr, align 8
  %index.addr.i.i37 = alloca i32, align 4
  %addr.i.i38 = alloca i64, align 8
  %isolate.addr.i16.i39 = alloca ptr, align 8
  %that.i.i40 = alloca %"class.v8::Local.327", align 8
  %this.addr.i.i41 = alloca ptr, align 8
  %retval.i.i42 = alloca %"class.v8::Local.327", align 8
  %isolate.addr.i.i43 = alloca ptr, align 8
  %slot.i.i44 = alloca ptr, align 8
  %retval.i45 = alloca %"class.v8::Local.317", align 8
  %this.addr.i46 = alloca ptr, align 8
  %i.addr.i47 = alloca i32, align 4
  %agg.tmp.i48 = alloca %"class.v8::Local.327", align 8
  %this.addr.i24.i = alloca ptr, align 8
  %location.addr.i25.i = alloca ptr, align 8
  %this.addr.i22.i = alloca ptr, align 8
  %location.addr.i.i = alloca ptr, align 8
  %this.addr.i21.i = alloca ptr, align 8
  %other.addr.i.i = alloca ptr, align 8
  %retval.i19.i = alloca %"class.v8::LocalBase.328", align 8
  %slot.addr.i20.i = alloca ptr, align 8
  %retval.i18.i = alloca %"class.v8::Local.327", align 8
  %slot.addr.i.i = alloca ptr, align 8
  %ref.tmp.i.i = alloca %"class.v8::LocalBase.328", align 8
  %isolate.addr.i17.i = alloca ptr, align 8
  %index.addr.i.i = alloca i32, align 4
  %addr.i.i = alloca i64, align 8
  %isolate.addr.i16.i = alloca ptr, align 8
  %that.i.i = alloca %"class.v8::Local.327", align 8
  %this.addr.i.i = alloca ptr, align 8
  %retval.i.i = alloca %"class.v8::Local.327", align 8
  %isolate.addr.i.i = alloca ptr, align 8
  %slot.i.i = alloca ptr, align 8
  %retval.i = alloca %"class.v8::Local.317", align 8
  %this.addr.i22 = alloca ptr, align 8
  %i.addr.i = alloca i32, align 4
  %agg.tmp.i = alloca %"class.v8::Local.327", align 8
  %this.addr.i = alloca ptr, align 8
  %args.addr = alloca ptr, align 8
  %ref.tmp = alloca %"class.v8::Local.317", align 8
  %env = alloca ptr, align 8
  %agg.tmp = alloca %"class.v8::Local.325", align 8
  %ref.tmp10 = alloca %"class.v8::Local.317", align 8
  store ptr %args, ptr %args.addr, align 8
  br label %do.body

do.body:                                          ; preds = %entry
  %0 = load ptr, ptr %args.addr, align 8
  store ptr %0, ptr %this.addr.i46, align 8
  store i32 0, ptr %i.addr.i47, align 4
  %this1.i49 = load ptr, ptr %this.addr.i46, align 8
  %1 = load i32, ptr %i.addr.i47, align 4
  %cmp.i50 = icmp slt i32 %1, 0
  br i1 %cmp.i50, label %if.then.i59, label %lor.lhs.false.i51

lor.lhs.false.i51:                                ; preds = %do.body
  %length_.i52 = getelementptr inbounds %"class.v8::FunctionCallbackInfo", ptr %this1.i49, i32 0, i32 2
  %2 = load i32, ptr %length_.i52, align 8
  %3 = load i32, ptr %i.addr.i47, align 4
  %cmp2.i53 = icmp sle i32 %2, %3
  br i1 %cmp2.i53, label %if.then.i59, label %if.end.i54

if.then.i59:                                      ; preds = %lor.lhs.false.i51, %do.body
  store ptr %this1.i49, ptr %this.addr.i70, align 8
  %this1.i71 = load ptr, ptr %this.addr.i70, align 8
  %4 = load ptr, ptr %this1.i71, align 8
  %arrayidx.i = getelementptr inbounds i64, ptr %4, i64 1
  %5 = load ptr, ptr %arrayidx.i, align 8
  store ptr %5, ptr %isolate.addr.i.i43, align 8
  %6 = load ptr, ptr %isolate.addr.i.i43, align 8
  store ptr %6, ptr %isolate.addr.i16.i39, align 8
  %7 = load ptr, ptr %isolate.addr.i.i43, align 8
  store ptr %7, ptr %isolate.addr.i17.i36, align 8
  store i32 4, ptr %index.addr.i.i37, align 4
  %8 = load ptr, ptr %isolate.addr.i17.i36, align 8
  %9 = ptrtoint ptr %8 to i64
  %add.i.i61 = add i64 %9, 576
  %10 = load i32, ptr %index.addr.i.i37, align 4
  %mul.i.i62 = mul nsw i32 %10, 8
  %conv.i.i63 = sext i32 %mul.i.i62 to i64
  %add1.i.i64 = add i64 %add.i.i61, %conv.i.i63
  store i64 %add1.i.i64, ptr %addr.i.i38, align 8
  %11 = load i64, ptr %addr.i.i38, align 8
  %12 = inttoptr i64 %11 to ptr
  store ptr %12, ptr %slot.i.i44, align 8
  %13 = load ptr, ptr %slot.i.i44, align 8
  store ptr %13, ptr %slot.addr.i.i34, align 8
  %14 = load ptr, ptr %slot.addr.i.i34, align 8
  store ptr %14, ptr %slot.addr.i20.i32, align 8
  %15 = load ptr, ptr %slot.addr.i20.i32, align 8
  store ptr %retval.i19.i31, ptr %this.addr.i22.i27, align 8
  store ptr %15, ptr %location.addr.i.i28, align 8
  %this1.i23.i65 = load ptr, ptr %this.addr.i22.i27, align 8
  %16 = load ptr, ptr %location.addr.i.i28, align 8
  store ptr %this1.i23.i65, ptr %this.addr.i24.i25, align 8
  store ptr %16, ptr %location.addr.i25.i26, align 8
  %this1.i26.i66 = load ptr, ptr %this.addr.i24.i25, align 8
  %17 = load ptr, ptr %location.addr.i25.i26, align 8
  store ptr %17, ptr %this1.i26.i66, align 8
  %18 = load ptr, ptr %retval.i19.i31, align 8
  store ptr %18, ptr %ref.tmp.i.i35, align 8
  store ptr %retval.i18.i33, ptr %this.addr.i21.i29, align 8
  store ptr %ref.tmp.i.i35, ptr %other.addr.i.i30, align 8
  %this1.i.i67 = load ptr, ptr %this.addr.i21.i29, align 8
  %19 = load ptr, ptr %other.addr.i.i30, align 8
  call void @llvm.memcpy.p0.p0.i64(ptr align 8 %this1.i.i67, ptr align 8 %19, i64 8, i1 false)
  %20 = load ptr, ptr %retval.i18.i33, align 8
  store ptr %20, ptr %retval.i.i42, align 8
  %21 = load ptr, ptr %retval.i.i42, align 8
  store ptr %21, ptr %agg.tmp.i48, align 8
  %22 = load ptr, ptr %agg.tmp.i48, align 8
  store ptr %22, ptr %that.i.i40, align 8
  store ptr %retval.i45, ptr %this.addr.i.i41, align 8
  %this3.i.i68 = load ptr, ptr %this.addr.i.i41, align 8
  store ptr %this3.i.i68, ptr %this.addr.i119, align 8
  store ptr %that.i.i40, ptr %other.addr.i120, align 8
  %this1.i121 = load ptr, ptr %this.addr.i119, align 8
  %23 = load ptr, ptr %other.addr.i120, align 8
  call void @llvm.memcpy.p0.p0.i64(ptr align 8 %this1.i121, ptr align 8 %23, i64 8, i1 false)
  br label %_ZNK2v820FunctionCallbackInfoINS_5ValueEEixEi.exit69

if.end.i54:                                       ; preds = %lor.lhs.false.i51
  %values_.i55 = getelementptr inbounds %"class.v8::FunctionCallbackInfo", ptr %this1.i49, i32 0, i32 1
  %24 = load ptr, ptr %values_.i55, align 8
  %25 = load i32, ptr %i.addr.i47, align 4
  %idx.ext.i56 = sext i32 %25 to i64
  %add.ptr.i57 = getelementptr inbounds i64, ptr %24, i64 %idx.ext.i56
  store ptr %add.ptr.i57, ptr %slot.addr.i, align 8
  %26 = load ptr, ptr %slot.addr.i, align 8
  store ptr %26, ptr %slot.addr.i84, align 8
  %27 = load ptr, ptr %slot.addr.i84, align 8
  store ptr %retval.i83, ptr %this.addr.i92, align 8
  store ptr %27, ptr %location.addr.i, align 8
  %this1.i93 = load ptr, ptr %this.addr.i92, align 8
  %28 = load ptr, ptr %location.addr.i, align 8
  store ptr %this1.i93, ptr %this.addr.i.i90, align 8
  store ptr %28, ptr %location.addr.i.i91, align 8
  %this1.i.i94 = load ptr, ptr %this.addr.i.i90, align 8
  %29 = load ptr, ptr %location.addr.i.i91, align 8
  store ptr %29, ptr %this1.i.i94, align 8
  %30 = load ptr, ptr %retval.i83, align 8
  store ptr %30, ptr %ref.tmp.i, align 8
  store ptr %retval.i75, ptr %this.addr.i87, align 8
  store ptr %ref.tmp.i, ptr %other.addr.i88, align 8
  %this1.i89 = load ptr, ptr %this.addr.i87, align 8
  %31 = load ptr, ptr %other.addr.i88, align 8
  call void @llvm.memcpy.p0.p0.i64(ptr align 8 %this1.i89, ptr align 8 %31, i64 8, i1 false)
  %32 = load ptr, ptr %retval.i75, align 8
  store ptr %32, ptr %retval.i45, align 8
  br label %_ZNK2v820FunctionCallbackInfoINS_5ValueEEixEi.exit69

_ZNK2v820FunctionCallbackInfoINS_5ValueEEixEi.exit69: ; preds = %if.end.i54, %if.then.i59
  %33 = load ptr, ptr %retval.i45, align 8
  %coerce.dive = getelementptr inbounds %"class.v8::Local.317", ptr %ref.tmp, i32 0, i32 0
  %coerce.dive1 = getelementptr inbounds %"class.v8::LocalBase.318", ptr %coerce.dive, i32 0, i32 0
  %coerce.dive2 = getelementptr inbounds %"class.v8::IndirectHandleBase", ptr %coerce.dive1, i32 0, i32 0
  store ptr %33, ptr %coerce.dive2, align 8
  store ptr %ref.tmp, ptr %this.addr.i, align 8
  %this1.i = load ptr, ptr %this.addr.i, align 8
  store ptr %this1.i, ptr %this.addr.i115, align 8
  %this1.i116 = load ptr, ptr %this.addr.i115, align 8
  store ptr %this1.i116, ptr %this.addr.i.i114, align 8
  %this1.i.i117 = load ptr, ptr %this.addr.i.i114, align 8
  %34 = load ptr, ptr %this1.i.i117, align 8
  store ptr %34, ptr %slot.addr.i118, align 8
  %35 = load ptr, ptr %slot.addr.i118, align 8
  %call4 = call noundef zeroext i1 @_ZNK2v85Value10IsFunctionEv(ptr noundef nonnull align 1 dereferenceable(1) %35)
  %lnot = xor i1 %call4, true
  %lnot5 = xor i1 %lnot, true
  %lnot6 = xor i1 %lnot5, true
  br i1 %lnot6, label %if.then, label %if.end

if.then:                                          ; preds = %_ZNK2v820FunctionCallbackInfoINS_5ValueEEixEi.exit69
  br label %do.body7

do.body7:                                         ; preds = %if.then
  call void @_ZN4node6AssertERKNS_13AssertionInfoE(ptr noundef nonnull align 8 dereferenceable(24) @_ZZN4node8profilerL23SetSourceMapCacheGetterERKN2v820FunctionCallbackInfoINS1_5ValueEEEE4args)
  call void @abort() #17
  unreachable

do.end:                                           ; No predecessors!
  br label %if.end

if.end:                                           ; preds = %do.end, %_ZNK2v820FunctionCallbackInfoINS_5ValueEEixEi.exit69
  br label %do.end8

do.end8:                                          ; preds = %if.end
  %36 = load ptr, ptr %args.addr, align 8
  %call9 = call noundef ptr @_ZN4node11Environment10GetCurrentERKN2v820FunctionCallbackInfoINS1_5ValueEEE(ptr noundef nonnull align 8 dereferenceable(20) %36)
  store ptr %call9, ptr %env, align 8
  %37 = load ptr, ptr %env, align 8
  %38 = load ptr, ptr %args.addr, align 8
  store ptr %38, ptr %this.addr.i22, align 8
  store i32 0, ptr %i.addr.i, align 4
  %this1.i23 = load ptr, ptr %this.addr.i22, align 8
  %39 = load i32, ptr %i.addr.i, align 4
  %cmp.i = icmp slt i32 %39, 0
  br i1 %cmp.i, label %if.then.i, label %lor.lhs.false.i

lor.lhs.false.i:                                  ; preds = %do.end8
  %length_.i = getelementptr inbounds %"class.v8::FunctionCallbackInfo", ptr %this1.i23, i32 0, i32 2
  %40 = load i32, ptr %length_.i, align 8
  %41 = load i32, ptr %i.addr.i, align 4
  %cmp2.i = icmp sle i32 %40, %41
  br i1 %cmp2.i, label %if.then.i, label %if.end.i

if.then.i:                                        ; preds = %lor.lhs.false.i, %do.end8
  store ptr %this1.i23, ptr %this.addr.i72, align 8
  %this1.i73 = load ptr, ptr %this.addr.i72, align 8
  %42 = load ptr, ptr %this1.i73, align 8
  %arrayidx.i74 = getelementptr inbounds i64, ptr %42, i64 1
  %43 = load ptr, ptr %arrayidx.i74, align 8
  store ptr %43, ptr %isolate.addr.i.i, align 8
  %44 = load ptr, ptr %isolate.addr.i.i, align 8
  store ptr %44, ptr %isolate.addr.i16.i, align 8
  %45 = load ptr, ptr %isolate.addr.i.i, align 8
  store ptr %45, ptr %isolate.addr.i17.i, align 8
  store i32 4, ptr %index.addr.i.i, align 4
  %46 = load ptr, ptr %isolate.addr.i17.i, align 8
  %47 = ptrtoint ptr %46 to i64
  %add.i.i = add i64 %47, 576
  %48 = load i32, ptr %index.addr.i.i, align 4
  %mul.i.i = mul nsw i32 %48, 8
  %conv.i.i = sext i32 %mul.i.i to i64
  %add1.i.i = add i64 %add.i.i, %conv.i.i
  store i64 %add1.i.i, ptr %addr.i.i, align 8
  %49 = load i64, ptr %addr.i.i, align 8
  %50 = inttoptr i64 %49 to ptr
  store ptr %50, ptr %slot.i.i, align 8
  %51 = load ptr, ptr %slot.i.i, align 8
  store ptr %51, ptr %slot.addr.i.i, align 8
  %52 = load ptr, ptr %slot.addr.i.i, align 8
  store ptr %52, ptr %slot.addr.i20.i, align 8
  %53 = load ptr, ptr %slot.addr.i20.i, align 8
  store ptr %retval.i19.i, ptr %this.addr.i22.i, align 8
  store ptr %53, ptr %location.addr.i.i, align 8
  %this1.i23.i = load ptr, ptr %this.addr.i22.i, align 8
  %54 = load ptr, ptr %location.addr.i.i, align 8
  store ptr %this1.i23.i, ptr %this.addr.i24.i, align 8
  store ptr %54, ptr %location.addr.i25.i, align 8
  %this1.i26.i = load ptr, ptr %this.addr.i24.i, align 8
  %55 = load ptr, ptr %location.addr.i25.i, align 8
  store ptr %55, ptr %this1.i26.i, align 8
  %56 = load ptr, ptr %retval.i19.i, align 8
  store ptr %56, ptr %ref.tmp.i.i, align 8
  store ptr %retval.i18.i, ptr %this.addr.i21.i, align 8
  store ptr %ref.tmp.i.i, ptr %other.addr.i.i, align 8
  %this1.i.i = load ptr, ptr %this.addr.i21.i, align 8
  %57 = load ptr, ptr %other.addr.i.i, align 8
  call void @llvm.memcpy.p0.p0.i64(ptr align 8 %this1.i.i, ptr align 8 %57, i64 8, i1 false)
  %58 = load ptr, ptr %retval.i18.i, align 8
  store ptr %58, ptr %retval.i.i, align 8
  %59 = load ptr, ptr %retval.i.i, align 8
  store ptr %59, ptr %agg.tmp.i, align 8
  %60 = load ptr, ptr %agg.tmp.i, align 8
  store ptr %60, ptr %that.i.i, align 8
  store ptr %retval.i, ptr %this.addr.i.i, align 8
  %this3.i.i = load ptr, ptr %this.addr.i.i, align 8
  store ptr %this3.i.i, ptr %this.addr.i122, align 8
  store ptr %that.i.i, ptr %other.addr.i123, align 8
  %this1.i124 = load ptr, ptr %this.addr.i122, align 8
  %61 = load ptr, ptr %other.addr.i123, align 8
  call void @llvm.memcpy.p0.p0.i64(ptr align 8 %this1.i124, ptr align 8 %61, i64 8, i1 false)
  br label %_ZNK2v820FunctionCallbackInfoINS_5ValueEEixEi.exit

if.end.i:                                         ; preds = %lor.lhs.false.i
  %values_.i = getelementptr inbounds %"class.v8::FunctionCallbackInfo", ptr %this1.i23, i32 0, i32 1
  %62 = load ptr, ptr %values_.i, align 8
  %63 = load i32, ptr %i.addr.i, align 4
  %idx.ext.i = sext i32 %63 to i64
  %add.ptr.i = getelementptr inbounds i64, ptr %62, i64 %idx.ext.i
  store ptr %add.ptr.i, ptr %slot.addr.i78, align 8
  %64 = load ptr, ptr %slot.addr.i78, align 8
  store ptr %64, ptr %slot.addr.i82, align 8
  %65 = load ptr, ptr %slot.addr.i82, align 8
  store ptr %retval.i81, ptr %this.addr.i97, align 8
  store ptr %65, ptr %location.addr.i98, align 8
  %this1.i99 = load ptr, ptr %this.addr.i97, align 8
  %66 = load ptr, ptr %location.addr.i98, align 8
  store ptr %this1.i99, ptr %this.addr.i.i95, align 8
  store ptr %66, ptr %location.addr.i.i96, align 8
  %this1.i.i100 = load ptr, ptr %this.addr.i.i95, align 8
  %67 = load ptr, ptr %location.addr.i.i96, align 8
  store ptr %67, ptr %this1.i.i100, align 8
  %68 = load ptr, ptr %retval.i81, align 8
  store ptr %68, ptr %ref.tmp.i79, align 8
  store ptr %retval.i77, ptr %this.addr.i85, align 8
  store ptr %ref.tmp.i79, ptr %other.addr.i, align 8
  %this1.i86 = load ptr, ptr %this.addr.i85, align 8
  %69 = load ptr, ptr %other.addr.i, align 8
  call void @llvm.memcpy.p0.p0.i64(ptr align 8 %this1.i86, ptr align 8 %69, i64 8, i1 false)
  %70 = load ptr, ptr %retval.i77, align 8
  store ptr %70, ptr %retval.i, align 8
  br label %_ZNK2v820FunctionCallbackInfoINS_5ValueEEixEi.exit

_ZNK2v820FunctionCallbackInfoINS_5ValueEEixEi.exit: ; preds = %if.end.i, %if.then.i
  %71 = load ptr, ptr %retval.i, align 8
  %coerce.dive12 = getelementptr inbounds %"class.v8::Local.317", ptr %ref.tmp10, i32 0, i32 0
  %coerce.dive13 = getelementptr inbounds %"class.v8::LocalBase.318", ptr %coerce.dive12, i32 0, i32 0
  %coerce.dive14 = getelementptr inbounds %"class.v8::IndirectHandleBase", ptr %coerce.dive13, i32 0, i32 0
  store ptr %71, ptr %coerce.dive14, align 8
  store ptr %ref.tmp10, ptr %this.addr.i102, align 8
  %this1.i104 = load ptr, ptr %this.addr.i102, align 8
  call void @llvm.memcpy.p0.p0.i64(ptr align 8 %agg.tmp.i103, ptr align 8 %this1.i104, i64 8, i1 false)
  %72 = load ptr, ptr %agg.tmp.i103, align 8
  store ptr %72, ptr %that.i, align 8
  store ptr %ref.tmp.i107, ptr %this.addr.i108, align 8
  store ptr %that.i, ptr %other.addr.i109, align 8
  %this1.i110 = load ptr, ptr %this.addr.i108, align 8
  %73 = load ptr, ptr %other.addr.i109, align 8
  call void @llvm.memcpy.p0.p0.i64(ptr align 8 %this1.i110, ptr align 8 %73, i64 8, i1 false)
  store ptr %retval.i106, ptr %this.addr.i111, align 8
  store ptr %ref.tmp.i107, ptr %other.addr.i112, align 8
  %this1.i113 = load ptr, ptr %this.addr.i111, align 8
  %74 = load ptr, ptr %other.addr.i112, align 8
  call void @llvm.memcpy.p0.p0.i64(ptr align 8 %this1.i113, ptr align 8 %74, i64 8, i1 false)
  %75 = load ptr, ptr %retval.i106, align 8
  store ptr %75, ptr %retval.i101, align 8
  %76 = load ptr, ptr %retval.i101, align 8
  %coerce.dive16 = getelementptr inbounds %"class.v8::Local.325", ptr %agg.tmp, i32 0, i32 0
  %coerce.dive17 = getelementptr inbounds %"class.v8::LocalBase.326", ptr %coerce.dive16, i32 0, i32 0
  %coerce.dive18 = getelementptr inbounds %"class.v8::IndirectHandleBase", ptr %coerce.dive17, i32 0, i32 0
  store ptr %76, ptr %coerce.dive18, align 8
  %coerce.dive19 = getelementptr inbounds %"class.v8::Local.325", ptr %agg.tmp, i32 0, i32 0
  %coerce.dive20 = getelementptr inbounds %"class.v8::LocalBase.326", ptr %coerce.dive19, i32 0, i32 0
  %coerce.dive21 = getelementptr inbounds %"class.v8::IndirectHandleBase", ptr %coerce.dive20, i32 0, i32 0
  %77 = load ptr, ptr %coerce.dive21, align 8
  call void @_ZN4node11Environment27set_source_map_cache_getterEN2v85LocalINS1_8FunctionEEE(ptr noundef nonnull align 8 dereferenceable(2872) %37, ptr %77)
  ret void
}

; Function Attrs: mustprogress nounwind uwtable
define internal void @_ZN4node8profilerL12TakeCoverageERKN2v820FunctionCallbackInfoINS1_5ValueEEE(ptr noundef nonnull align 8 dereferenceable(20) %args) #4 {
entry:
  %this.addr.i.i = alloca ptr, align 8
  %category.addr.i.i = alloca i32, align 4
  %list.addr.i9 = alloca ptr, align 8
  %cat.addr.i10 = alloca i32, align 4
  %format.addr.i11 = alloca ptr, align 8
  %args.addr.i12 = alloca ptr, align 8
  %env.addr.i6 = alloca ptr, align 8
  %cat.addr.i7 = alloca i32, align 4
  %format.addr.i = alloca ptr, align 8
  %args.addr.i = alloca ptr, align 8
  %this.addr.i = alloca ptr, align 8
  %category.addr.i = alloca i32, align 4
  %list.addr.i = alloca ptr, align 8
  %cat.addr.i3 = alloca i32, align 4
  %message.addr.i4 = alloca ptr, align 8
  %env.addr.i = alloca ptr, align 8
  %cat.addr.i = alloca i32, align 4
  %message.addr.i = alloca ptr, align 8
  %args.addr = alloca ptr, align 8
  %env = alloca ptr, align 8
  %connection = alloca ptr, align 8
  store ptr %args, ptr %args.addr, align 8
  %0 = load ptr, ptr %args.addr, align 8
  %call = call noundef ptr @_ZN4node11Environment10GetCurrentERKN2v820FunctionCallbackInfoINS1_5ValueEEE(ptr noundef nonnull align 8 dereferenceable(20) %0)
  store ptr %call, ptr %env, align 8
  %1 = load ptr, ptr %env, align 8
  %call1 = call noundef ptr @_ZN4node11Environment19coverage_connectionEv(ptr noundef nonnull align 8 dereferenceable(2872) %1)
  store ptr %call1, ptr %connection, align 8
  %2 = load ptr, ptr %env, align 8
  %3 = load ptr, ptr %connection, align 8
  %cmp = icmp eq ptr %3, null
  br i1 %cmp, label %cond.true, label %cond.false

cond.true:                                        ; preds = %entry
  br label %cond.end

cond.false:                                       ; preds = %entry
  br label %cond.end

cond.end:                                         ; preds = %cond.false, %cond.true
  %cond-lvalue = phi ptr [ @.str.82, %cond.true ], [ @.str.83, %cond.false ]
  store ptr %2, ptr %env.addr.i6, align 8
  store i32 67, ptr %cat.addr.i7, align 4
  store ptr @.str.81, ptr %format.addr.i, align 8
  store ptr %cond-lvalue, ptr %args.addr.i, align 8
  %4 = load ptr, ptr %env.addr.i6, align 8
  %call.i8 = call noundef ptr @_ZN4node11Environment18enabled_debug_listEv(ptr noundef nonnull align 8 dereferenceable(2872) %4)
  %5 = load i32, ptr %cat.addr.i7, align 4
  %6 = load ptr, ptr %format.addr.i, align 8
  %7 = load ptr, ptr %args.addr.i, align 8
  store ptr %call.i8, ptr %list.addr.i9, align 8
  store i32 %5, ptr %cat.addr.i10, align 4
  store ptr %6, ptr %format.addr.i11, align 8
  store ptr %7, ptr %args.addr.i12, align 8
  %8 = load ptr, ptr %list.addr.i9, align 8
  %9 = load i32, ptr %cat.addr.i10, align 4
  store ptr %8, ptr %this.addr.i.i, align 8
  store i32 %9, ptr %category.addr.i.i, align 4
  %this1.i.i = load ptr, ptr %this.addr.i.i, align 8
  %10 = load i32, ptr %category.addr.i.i, align 4
  %idxprom.i.i = zext i32 %10 to i64
  %arrayidx.i.i = getelementptr inbounds [75 x i8], ptr %this1.i.i, i64 0, i64 %idxprom.i.i
  %11 = load i8, ptr %arrayidx.i.i, align 1
  %tobool.i.i = trunc i8 %11 to i1
  br i1 %tobool.i.i, label %if.end.i15, label %if.then.i14

if.then.i14:                                      ; preds = %cond.end
  br label %_ZN4node5DebugIJRA3_KcEEEvPNS_16EnabledDebugListENS_13DebugCategoryEPS1_DpOT_.exit

if.end.i15:                                       ; preds = %cond.end
  %12 = load ptr, ptr @stderr, align 8
  %13 = load ptr, ptr %format.addr.i11, align 8
  %14 = load ptr, ptr %args.addr.i12, align 8
  call void @_ZN4node7FPrintFIJRA3_KcEEEvP8_IO_FILEPS1_DpOT_(ptr noundef %12, ptr noundef %13, ptr noundef nonnull align 1 dereferenceable(3) %14) #15
  br label %_ZN4node5DebugIJRA3_KcEEEvPNS_16EnabledDebugListENS_13DebugCategoryEPS1_DpOT_.exit

_ZN4node5DebugIJRA3_KcEEEvPNS_16EnabledDebugListENS_13DebugCategoryEPS1_DpOT_.exit: ; preds = %if.end.i15, %if.then.i14
  %15 = load ptr, ptr %connection, align 8
  %cmp2 = icmp ne ptr %15, null
  br i1 %cmp2, label %if.then, label %if.end

if.then:                                          ; preds = %_ZN4node5DebugIJRA3_KcEEEvPNS_16EnabledDebugListENS_13DebugCategoryEPS1_DpOT_.exit
  %16 = load ptr, ptr %env, align 8
  store ptr %16, ptr %env.addr.i, align 8
  store i32 67, ptr %cat.addr.i, align 4
  store ptr @.str.84, ptr %message.addr.i, align 8
  %17 = load ptr, ptr %env.addr.i, align 8
  %call.i = call noundef ptr @_ZN4node11Environment18enabled_debug_listEv(ptr noundef nonnull align 8 dereferenceable(2872) %17)
  %18 = load i32, ptr %cat.addr.i, align 4
  %19 = load ptr, ptr %message.addr.i, align 8
  store ptr %call.i, ptr %list.addr.i, align 8
  store i32 %18, ptr %cat.addr.i3, align 4
  store ptr %19, ptr %message.addr.i4, align 8
  %20 = load ptr, ptr %list.addr.i, align 8
  %21 = load i32, ptr %cat.addr.i3, align 4
  store ptr %20, ptr %this.addr.i, align 8
  store i32 %21, ptr %category.addr.i, align 4
  %this1.i = load ptr, ptr %this.addr.i, align 8
  %22 = load i32, ptr %category.addr.i, align 4
  %idxprom.i = zext i32 %22 to i64
  %arrayidx.i = getelementptr inbounds [75 x i8], ptr %this1.i, i64 0, i64 %idxprom.i
  %23 = load i8, ptr %arrayidx.i, align 1
  %tobool.i = trunc i8 %23 to i1
  br i1 %tobool.i, label %if.end.i, label %if.then.i

if.then.i:                                        ; preds = %if.then
  br label %_ZN4node5DebugEPNS_16EnabledDebugListENS_13DebugCategoryEPKc.exit

if.end.i:                                         ; preds = %if.then
  %24 = load ptr, ptr @stderr, align 8
  call void @_ZN4node7FPrintFIJRPKcEEEvP8_IO_FILES2_DpOT_(ptr noundef %24, ptr noundef @.str.53, ptr noundef nonnull align 8 dereferenceable(8) %message.addr.i4) #15
  br label %_ZN4node5DebugEPNS_16EnabledDebugListENS_13DebugCategoryEPKc.exit

_ZN4node5DebugEPNS_16EnabledDebugListENS_13DebugCategoryEPKc.exit: ; preds = %if.end.i, %if.then.i
  %25 = load ptr, ptr %connection, align 8
  call void @_ZN4node8profiler20V8CoverageConnection12TakeCoverageEv(ptr noundef nonnull align 8 dereferenceable(97) %25)
  br label %if.end

if.end:                                           ; preds = %_ZN4node5DebugEPNS_16EnabledDebugListENS_13DebugCategoryEPKc.exit, %_ZN4node5DebugIJRA3_KcEEEvPNS_16EnabledDebugListENS_13DebugCategoryEPS1_DpOT_.exit
  ret void
}

; Function Attrs: mustprogress nounwind uwtable
define internal void @_ZN4node8profilerL12StopCoverageERKN2v820FunctionCallbackInfoINS1_5ValueEEE(ptr noundef nonnull align 8 dereferenceable(20) %args) #4 {
entry:
  %this.addr.i.i = alloca ptr, align 8
  %category.addr.i.i = alloca i32, align 4
  %list.addr.i9 = alloca ptr, align 8
  %cat.addr.i10 = alloca i32, align 4
  %format.addr.i11 = alloca ptr, align 8
  %args.addr.i12 = alloca ptr, align 8
  %env.addr.i6 = alloca ptr, align 8
  %cat.addr.i7 = alloca i32, align 4
  %format.addr.i = alloca ptr, align 8
  %args.addr.i = alloca ptr, align 8
  %this.addr.i = alloca ptr, align 8
  %category.addr.i = alloca i32, align 4
  %list.addr.i = alloca ptr, align 8
  %cat.addr.i3 = alloca i32, align 4
  %message.addr.i4 = alloca ptr, align 8
  %env.addr.i = alloca ptr, align 8
  %cat.addr.i = alloca i32, align 4
  %message.addr.i = alloca ptr, align 8
  %args.addr = alloca ptr, align 8
  %env = alloca ptr, align 8
  %connection = alloca ptr, align 8
  store ptr %args, ptr %args.addr, align 8
  %0 = load ptr, ptr %args.addr, align 8
  %call = call noundef ptr @_ZN4node11Environment10GetCurrentERKN2v820FunctionCallbackInfoINS1_5ValueEEE(ptr noundef nonnull align 8 dereferenceable(20) %0)
  store ptr %call, ptr %env, align 8
  %1 = load ptr, ptr %env, align 8
  %call1 = call noundef ptr @_ZN4node11Environment19coverage_connectionEv(ptr noundef nonnull align 8 dereferenceable(2872) %1)
  store ptr %call1, ptr %connection, align 8
  %2 = load ptr, ptr %env, align 8
  %3 = load ptr, ptr %connection, align 8
  %cmp = icmp eq ptr %3, null
  br i1 %cmp, label %cond.true, label %cond.false

cond.true:                                        ; preds = %entry
  br label %cond.end

cond.false:                                       ; preds = %entry
  br label %cond.end

cond.end:                                         ; preds = %cond.false, %cond.true
  %cond-lvalue = phi ptr [ @.str.82, %cond.true ], [ @.str.83, %cond.false ]
  store ptr %2, ptr %env.addr.i6, align 8
  store i32 67, ptr %cat.addr.i7, align 4
  store ptr @.str.88, ptr %format.addr.i, align 8
  store ptr %cond-lvalue, ptr %args.addr.i, align 8
  %4 = load ptr, ptr %env.addr.i6, align 8
  %call.i8 = call noundef ptr @_ZN4node11Environment18enabled_debug_listEv(ptr noundef nonnull align 8 dereferenceable(2872) %4)
  %5 = load i32, ptr %cat.addr.i7, align 4
  %6 = load ptr, ptr %format.addr.i, align 8
  %7 = load ptr, ptr %args.addr.i, align 8
  store ptr %call.i8, ptr %list.addr.i9, align 8
  store i32 %5, ptr %cat.addr.i10, align 4
  store ptr %6, ptr %format.addr.i11, align 8
  store ptr %7, ptr %args.addr.i12, align 8
  %8 = load ptr, ptr %list.addr.i9, align 8
  %9 = load i32, ptr %cat.addr.i10, align 4
  store ptr %8, ptr %this.addr.i.i, align 8
  store i32 %9, ptr %category.addr.i.i, align 4
  %this1.i.i = load ptr, ptr %this.addr.i.i, align 8
  %10 = load i32, ptr %category.addr.i.i, align 4
  %idxprom.i.i = zext i32 %10 to i64
  %arrayidx.i.i = getelementptr inbounds [75 x i8], ptr %this1.i.i, i64 0, i64 %idxprom.i.i
  %11 = load i8, ptr %arrayidx.i.i, align 1
  %tobool.i.i = trunc i8 %11 to i1
  br i1 %tobool.i.i, label %if.end.i15, label %if.then.i14

if.then.i14:                                      ; preds = %cond.end
  br label %_ZN4node5DebugIJRA3_KcEEEvPNS_16EnabledDebugListENS_13DebugCategoryEPS1_DpOT_.exit

if.end.i15:                                       ; preds = %cond.end
  %12 = load ptr, ptr @stderr, align 8
  %13 = load ptr, ptr %format.addr.i11, align 8
  %14 = load ptr, ptr %args.addr.i12, align 8
  call void @_ZN4node7FPrintFIJRA3_KcEEEvP8_IO_FILEPS1_DpOT_(ptr noundef %12, ptr noundef %13, ptr noundef nonnull align 1 dereferenceable(3) %14) #15
  br label %_ZN4node5DebugIJRA3_KcEEEvPNS_16EnabledDebugListENS_13DebugCategoryEPS1_DpOT_.exit

_ZN4node5DebugIJRA3_KcEEEvPNS_16EnabledDebugListENS_13DebugCategoryEPS1_DpOT_.exit: ; preds = %if.end.i15, %if.then.i14
  %15 = load ptr, ptr %connection, align 8
  %cmp2 = icmp ne ptr %15, null
  br i1 %cmp2, label %if.then, label %if.end

if.then:                                          ; preds = %_ZN4node5DebugIJRA3_KcEEEvPNS_16EnabledDebugListENS_13DebugCategoryEPS1_DpOT_.exit
  %16 = load ptr, ptr %env, align 8
  store ptr %16, ptr %env.addr.i, align 8
  store i32 67, ptr %cat.addr.i, align 4
  store ptr @.str.89, ptr %message.addr.i, align 8
  %17 = load ptr, ptr %env.addr.i, align 8
  %call.i = call noundef ptr @_ZN4node11Environment18enabled_debug_listEv(ptr noundef nonnull align 8 dereferenceable(2872) %17)
  %18 = load i32, ptr %cat.addr.i, align 4
  %19 = load ptr, ptr %message.addr.i, align 8
  store ptr %call.i, ptr %list.addr.i, align 8
  store i32 %18, ptr %cat.addr.i3, align 4
  store ptr %19, ptr %message.addr.i4, align 8
  %20 = load ptr, ptr %list.addr.i, align 8
  %21 = load i32, ptr %cat.addr.i3, align 4
  store ptr %20, ptr %this.addr.i, align 8
  store i32 %21, ptr %category.addr.i, align 4
  %this1.i = load ptr, ptr %this.addr.i, align 8
  %22 = load i32, ptr %category.addr.i, align 4
  %idxprom.i = zext i32 %22 to i64
  %arrayidx.i = getelementptr inbounds [75 x i8], ptr %this1.i, i64 0, i64 %idxprom.i
  %23 = load i8, ptr %arrayidx.i, align 1
  %tobool.i = trunc i8 %23 to i1
  br i1 %tobool.i, label %if.end.i, label %if.then.i

if.then.i:                                        ; preds = %if.then
  br label %_ZN4node5DebugEPNS_16EnabledDebugListENS_13DebugCategoryEPKc.exit

if.end.i:                                         ; preds = %if.then
  %24 = load ptr, ptr @stderr, align 8
  call void @_ZN4node7FPrintFIJRPKcEEEvP8_IO_FILES2_DpOT_(ptr noundef %24, ptr noundef @.str.53, ptr noundef nonnull align 8 dereferenceable(8) %message.addr.i4) #15
  br label %_ZN4node5DebugEPNS_16EnabledDebugListENS_13DebugCategoryEPKc.exit

_ZN4node5DebugEPNS_16EnabledDebugListENS_13DebugCategoryEPKc.exit: ; preds = %if.end.i, %if.then.i
  %25 = load ptr, ptr %connection, align 8
  call void @_ZN4node8profiler20V8CoverageConnection12StopCoverageEv(ptr noundef nonnull align 8 dereferenceable(97) %25)
  br label %if.end

if.end:                                           ; preds = %_ZN4node5DebugEPNS_16EnabledDebugListENS_13DebugCategoryEPKc.exit, %_ZN4node5DebugIJRA3_KcEEEvPNS_16EnabledDebugListENS_13DebugCategoryEPS1_DpOT_.exit
  ret void
}

; Function Attrs: mustprogress nounwind uwtable
define dso_local void @_Z18_register_profilerv() #4 {
entry:
  call void @node_module_register(ptr noundef @_ZL7_module)
  ret void
}

declare void @node_module_register(ptr noundef) #1

; Function Attrs: mustprogress nounwind uwtable
define dso_local void @_Z37_register_external_reference_profilerPN4node25ExternalReferenceRegistryE(ptr noundef %registry) #4 {
entry:
  %registry.addr = alloca ptr, align 8
  store ptr %registry, ptr %registry.addr, align 8
  %0 = load ptr, ptr %registry.addr, align 8
  call void @_ZN4node8profiler26RegisterExternalReferencesEPNS_25ExternalReferenceRegistryE(ptr noundef %0)
  ret void
}

; Function Attrs: mustprogress nounwind uwtable
define linkonce_odr dso_local void @_ZN4node8profiler20V8ProfilerConnection25V8ProfilerSessionDelegateD2Ev(ptr noundef nonnull align 8 dereferenceable(16) %this) unnamed_addr #4 comdat align 2 {
entry:
  %this.addr = alloca ptr, align 8
  store ptr %this, ptr %this.addr, align 8
  %this1 = load ptr, ptr %this.addr, align 8
  call void @_ZN4node9inspector24InspectorSessionDelegateD2Ev(ptr noundef nonnull align 8 dereferenceable(8) %this1) #3
  ret void
}

; Function Attrs: mustprogress nounwind uwtable
define linkonce_odr dso_local void @_ZN4node8profiler20V8ProfilerConnection25V8ProfilerSessionDelegateD0Ev(ptr noundef nonnull align 8 dereferenceable(16) %this) unnamed_addr #4 comdat align 2 {
entry:
  %this.addr = alloca ptr, align 8
  store ptr %this, ptr %this.addr, align 8
  %this1 = load ptr, ptr %this.addr, align 8
  call void @_ZN4node8profiler20V8ProfilerConnection25V8ProfilerSessionDelegateD2Ev(ptr noundef nonnull align 8 dereferenceable(16) %this1) #3
  call void @_ZdlPv(ptr noundef %this1) #18
  ret void
}

; Function Attrs: mustprogress nounwind uwtable
define linkonce_odr dso_local void @_ZN4node8profiler20V8ProfilerConnectionD2Ev(ptr noundef nonnull align 8 dereferenceable(88) %this) unnamed_addr #4 comdat align 2 {
entry:
  %this.addr = alloca ptr, align 8
  store ptr %this, ptr %this.addr, align 8
  %this1 = load ptr, ptr %this.addr, align 8
  store ptr getelementptr inbounds ({ [12 x ptr] }, ptr @_ZTVN4node8profiler20V8ProfilerConnectionE, i32 0, inrange i32 0, i32 2), ptr %this1, align 8
  %profile_ids_ = getelementptr inbounds %"class.node::profiler::V8ProfilerConnection", ptr %this1, i32 0, i32 3
  call void @_ZNSt13unordered_setIjSt4hashIjESt8equal_toIjESaIjEED2Ev(ptr noundef nonnull align 8 dereferenceable(56) %profile_ids_) #3
  %session_ = getelementptr inbounds %"class.node::profiler::V8ProfilerConnection", ptr %this1, i32 0, i32 1
  call void @_ZNSt10unique_ptrIN4node9inspector16InspectorSessionESt14default_deleteIS2_EED2Ev(ptr noundef nonnull align 8 dereferenceable(8) %session_) #3
  ret void
}

; Function Attrs: mustprogress nounwind uwtable
define linkonce_odr dso_local void @_ZN4node8profiler20V8ProfilerConnectionD0Ev(ptr noundef nonnull align 8 dereferenceable(88) %this) unnamed_addr #4 comdat align 2 {
entry:
  %this.addr = alloca ptr, align 8
  store ptr %this, ptr %this.addr, align 8
  call void @llvm.trap() #17
  unreachable
}

declare void @__cxa_pure_virtual() unnamed_addr

; Function Attrs: mustprogress nounwind uwtable
define linkonce_odr dso_local void @_ZN4node8profiler20V8CoverageConnectionD2Ev(ptr noundef nonnull align 8 dereferenceable(97) %this) unnamed_addr #4 comdat align 2 {
entry:
  %this.addr = alloca ptr, align 8
  store ptr %this, ptr %this.addr, align 8
  %this1 = load ptr, ptr %this.addr, align 8
  store ptr getelementptr inbounds ({ [12 x ptr] }, ptr @_ZTVN4node8profiler20V8CoverageConnectionE, i32 0, inrange i32 0, i32 2), ptr %this1, align 8
  %session_ = getelementptr inbounds %"class.node::profiler::V8CoverageConnection", ptr %this1, i32 0, i32 1
  call void @_ZNSt10unique_ptrIN4node9inspector16InspectorSessionESt14default_deleteIS2_EED2Ev(ptr noundef nonnull align 8 dereferenceable(8) %session_) #3
  call void @_ZN4node8profiler20V8ProfilerConnectionD2Ev(ptr noundef nonnull align 8 dereferenceable(88) %this1) #3
  ret void
}

; Function Attrs: mustprogress nounwind uwtable
define linkonce_odr dso_local void @_ZN4node8profiler20V8CoverageConnectionD0Ev(ptr noundef nonnull align 8 dereferenceable(97) %this) unnamed_addr #4 comdat align 2 {
entry:
  %this.addr = alloca ptr, align 8
  store ptr %this, ptr %this.addr, align 8
  %this1 = load ptr, ptr %this.addr, align 8
  call void @_ZN4node8profiler20V8CoverageConnectionD2Ev(ptr noundef nonnull align 8 dereferenceable(97) %this1) #3
  call void @_ZdlPv(ptr noundef %this1) #18
  ret void
}

; Function Attrs: mustprogress nounwind uwtable
define linkonce_odr dso_local noundef ptr @_ZNK4node8profiler20V8CoverageConnection4typeEv(ptr noundef nonnull align 8 dereferenceable(97) %this) unnamed_addr #4 comdat align 2 {
entry:
  %this.addr = alloca ptr, align 8
  store ptr %this, ptr %this.addr, align 8
  ret ptr @.str.96
}

; Function Attrs: mustprogress nounwind uwtable
define linkonce_odr dso_local noundef zeroext i1 @_ZNK4node8profiler20V8CoverageConnection6endingEv(ptr noundef nonnull align 8 dereferenceable(97) %this) unnamed_addr #4 comdat align 2 {
entry:
  %this.addr = alloca ptr, align 8
  store ptr %this, ptr %this.addr, align 8
  %this1 = load ptr, ptr %this.addr, align 8
  %ending_ = getelementptr inbounds %"class.node::profiler::V8CoverageConnection", ptr %this1, i32 0, i32 2
  %0 = load i8, ptr %ending_, align 8
  %tobool = trunc i8 %0 to i1
  ret i1 %tobool
}

; Function Attrs: mustprogress nounwind uwtable
define linkonce_odr dso_local void @_ZN4node8profiler23V8CpuProfilerConnectionD2Ev(ptr noundef nonnull align 8 dereferenceable(97) %this) unnamed_addr #4 comdat align 2 {
entry:
  %this.addr = alloca ptr, align 8
  store ptr %this, ptr %this.addr, align 8
  %this1 = load ptr, ptr %this.addr, align 8
  store ptr getelementptr inbounds ({ [12 x ptr] }, ptr @_ZTVN4node8profiler23V8CpuProfilerConnectionE, i32 0, inrange i32 0, i32 2), ptr %this1, align 8
  %session_ = getelementptr inbounds %"class.node::profiler::V8CpuProfilerConnection", ptr %this1, i32 0, i32 1
  call void @_ZNSt10unique_ptrIN4node9inspector16InspectorSessionESt14default_deleteIS2_EED2Ev(ptr noundef nonnull align 8 dereferenceable(8) %session_) #3
  call void @_ZN4node8profiler20V8ProfilerConnectionD2Ev(ptr noundef nonnull align 8 dereferenceable(88) %this1) #3
  ret void
}

; Function Attrs: mustprogress nounwind uwtable
define linkonce_odr dso_local void @_ZN4node8profiler23V8CpuProfilerConnectionD0Ev(ptr noundef nonnull align 8 dereferenceable(97) %this) unnamed_addr #4 comdat align 2 {
entry:
  %this.addr = alloca ptr, align 8
  store ptr %this, ptr %this.addr, align 8
  %this1 = load ptr, ptr %this.addr, align 8
  call void @_ZN4node8profiler23V8CpuProfilerConnectionD2Ev(ptr noundef nonnull align 8 dereferenceable(97) %this1) #3
  call void @_ZdlPv(ptr noundef %this1) #18
  ret void
}

; Function Attrs: mustprogress nounwind uwtable
define linkonce_odr dso_local noundef ptr @_ZNK4node8profiler23V8CpuProfilerConnection4typeEv(ptr noundef nonnull align 8 dereferenceable(97) %this) unnamed_addr #4 comdat align 2 {
entry:
  %this.addr = alloca ptr, align 8
  store ptr %this, ptr %this.addr, align 8
  ret ptr @.str.43
}

; Function Attrs: mustprogress nounwind uwtable
define linkonce_odr dso_local noundef zeroext i1 @_ZNK4node8profiler23V8CpuProfilerConnection6endingEv(ptr noundef nonnull align 8 dereferenceable(97) %this) unnamed_addr #4 comdat align 2 {
entry:
  %this.addr = alloca ptr, align 8
  store ptr %this, ptr %this.addr, align 8
  %this1 = load ptr, ptr %this.addr, align 8
  %ending_ = getelementptr inbounds %"class.node::profiler::V8CpuProfilerConnection", ptr %this1, i32 0, i32 2
  %0 = load i8, ptr %ending_, align 8
  %tobool = trunc i8 %0 to i1
  ret i1 %tobool
}

; Function Attrs: mustprogress nounwind uwtable
define linkonce_odr dso_local void @_ZN4node8profiler24V8HeapProfilerConnectionD2Ev(ptr noundef nonnull align 8 dereferenceable(97) %this) unnamed_addr #4 comdat align 2 {
entry:
  %this.addr = alloca ptr, align 8
  store ptr %this, ptr %this.addr, align 8
  %this1 = load ptr, ptr %this.addr, align 8
  store ptr getelementptr inbounds ({ [12 x ptr] }, ptr @_ZTVN4node8profiler24V8HeapProfilerConnectionE, i32 0, inrange i32 0, i32 2), ptr %this1, align 8
  %session_ = getelementptr inbounds %"class.node::profiler::V8HeapProfilerConnection", ptr %this1, i32 0, i32 1
  call void @_ZNSt10unique_ptrIN4node9inspector16InspectorSessionESt14default_deleteIS2_EED2Ev(ptr noundef nonnull align 8 dereferenceable(8) %session_) #3
  call void @_ZN4node8profiler20V8ProfilerConnectionD2Ev(ptr noundef nonnull align 8 dereferenceable(88) %this1) #3
  ret void
}

; Function Attrs: mustprogress nounwind uwtable
define linkonce_odr dso_local void @_ZN4node8profiler24V8HeapProfilerConnectionD0Ev(ptr noundef nonnull align 8 dereferenceable(97) %this) unnamed_addr #4 comdat align 2 {
entry:
  %this.addr = alloca ptr, align 8
  store ptr %this, ptr %this.addr, align 8
  %this1 = load ptr, ptr %this.addr, align 8
  call void @_ZN4node8profiler24V8HeapProfilerConnectionD2Ev(ptr noundef nonnull align 8 dereferenceable(97) %this1) #3
  call void @_ZdlPv(ptr noundef %this1) #18
  ret void
}

; Function Attrs: mustprogress nounwind uwtable
define linkonce_odr dso_local noundef ptr @_ZNK4node8profiler24V8HeapProfilerConnection4typeEv(ptr noundef nonnull align 8 dereferenceable(97) %this) unnamed_addr #4 comdat align 2 {
entry:
  %this.addr = alloca ptr, align 8
  store ptr %this, ptr %this.addr, align 8
  ret ptr @.str.97
}

; Function Attrs: mustprogress nounwind uwtable
define linkonce_odr dso_local noundef zeroext i1 @_ZNK4node8profiler24V8HeapProfilerConnection6endingEv(ptr noundef nonnull align 8 dereferenceable(97) %this) unnamed_addr #4 comdat align 2 {
entry:
  %this.addr = alloca ptr, align 8
  store ptr %this, ptr %this.addr, align 8
  %this1 = load ptr, ptr %this.addr, align 8
  %ending_ = getelementptr inbounds %"class.node::profiler::V8HeapProfilerConnection", ptr %this1, i32 0, i32 2
  %0 = load i8, ptr %ending_, align 8
  %tobool = trunc i8 %0 to i1
  ret i1 %tobool
}

; Function Attrs: mustprogress nounwind uwtable
define linkonce_odr dso_local noundef ptr @_ZNKSt10unique_ptrIN4node9inspector5AgentESt14default_deleteIS2_EE3getEv(ptr noundef nonnull align 8 dereferenceable(8) %this) #4 comdat align 2 {
entry:
  %this.addr = alloca ptr, align 8
  store ptr %this, ptr %this.addr, align 8
  %this1 = load ptr, ptr %this.addr, align 8
  %_M_t = getelementptr inbounds %"class.std::unique_ptr.184", ptr %this1, i32 0, i32 0
  %call = call noundef ptr @_ZNKSt15__uniq_ptr_implIN4node9inspector5AgentESt14default_deleteIS2_EE6_M_ptrEv(ptr noundef nonnull align 8 dereferenceable(8) %_M_t) #3
  ret ptr %call
}

; Function Attrs: mustprogress nounwind uwtable
define linkonce_odr dso_local noundef ptr @_ZNKSt15__uniq_ptr_implIN4node9inspector5AgentESt14default_deleteIS2_EE6_M_ptrEv(ptr noundef nonnull align 8 dereferenceable(8) %this) #4 comdat align 2 {
entry:
  %this.addr = alloca ptr, align 8
  store ptr %this, ptr %this.addr, align 8
  %this1 = load ptr, ptr %this.addr, align 8
  %_M_t = getelementptr inbounds %"class.std::__uniq_ptr_impl.186", ptr %this1, i32 0, i32 0
  %call = call noundef nonnull align 8 dereferenceable(8) ptr @_ZSt3getILm0EJPN4node9inspector5AgentESt14default_deleteIS2_EEERKNSt13tuple_elementIXT_ESt5tupleIJDpT0_EEE4typeERKSA_(ptr noundef nonnull align 8 dereferenceable(8) %_M_t) #3
  %0 = load ptr, ptr %call, align 8
  ret ptr %0
}

; Function Attrs: mustprogress nounwind uwtable
define linkonce_odr dso_local noundef nonnull align 8 dereferenceable(8) ptr @_ZSt3getILm0EJPN4node9inspector5AgentESt14default_deleteIS2_EEERKNSt13tuple_elementIXT_ESt5tupleIJDpT0_EEE4typeERKSA_(ptr noundef nonnull align 8 dereferenceable(8) %__t) #4 comdat {
entry:
  %__t.addr = alloca ptr, align 8
  store ptr %__t, ptr %__t.addr, align 8
  %0 = load ptr, ptr %__t.addr, align 8
  %call = call noundef nonnull align 8 dereferenceable(8) ptr @_ZSt12__get_helperILm0EPN4node9inspector5AgentEJSt14default_deleteIS2_EEERKT0_RKSt11_Tuple_implIXT_EJS6_DpT1_EE(ptr noundef nonnull align 8 dereferenceable(8) %0) #3
  ret ptr %call
}

; Function Attrs: mustprogress nounwind uwtable
define linkonce_odr dso_local noundef nonnull align 8 dereferenceable(8) ptr @_ZSt12__get_helperILm0EPN4node9inspector5AgentEJSt14default_deleteIS2_EEERKT0_RKSt11_Tuple_implIXT_EJS6_DpT1_EE(ptr noundef nonnull align 8 dereferenceable(8) %__t) #4 comdat {
entry:
  %__t.addr = alloca ptr, align 8
  store ptr %__t, ptr %__t.addr, align 8
  %0 = load ptr, ptr %__t.addr, align 8
  %call = call noundef nonnull align 8 dereferenceable(8) ptr @_ZNSt11_Tuple_implILm0EJPN4node9inspector5AgentESt14default_deleteIS2_EEE7_M_headERKS6_(ptr noundef nonnull align 8 dereferenceable(8) %0) #3
  ret ptr %call
}

; Function Attrs: mustprogress nounwind uwtable
define linkonce_odr dso_local noundef nonnull align 8 dereferenceable(8) ptr @_ZNSt11_Tuple_implILm0EJPN4node9inspector5AgentESt14default_deleteIS2_EEE7_M_headERKS6_(ptr noundef nonnull align 8 dereferenceable(8) %__t) #4 comdat align 2 {
entry:
  %__t.addr = alloca ptr, align 8
  store ptr %__t, ptr %__t.addr, align 8
  %0 = load ptr, ptr %__t.addr, align 8
  %call = call noundef nonnull align 8 dereferenceable(8) ptr @_ZNSt10_Head_baseILm0EPN4node9inspector5AgentELb0EE7_M_headERKS4_(ptr noundef nonnull align 8 dereferenceable(8) %0) #3
  ret ptr %call
}

; Function Attrs: mustprogress nounwind uwtable
define linkonce_odr dso_local noundef nonnull align 8 dereferenceable(8) ptr @_ZNSt10_Head_baseILm0EPN4node9inspector5AgentELb0EE7_M_headERKS4_(ptr noundef nonnull align 8 dereferenceable(8) %__b) #4 comdat align 2 {
entry:
  %__b.addr = alloca ptr, align 8
  store ptr %__b, ptr %__b.addr, align 8
  %0 = load ptr, ptr %__b.addr, align 8
  %_M_head_impl = getelementptr inbounds %"struct.std::_Head_base.191", ptr %0, i32 0, i32 0
  ret ptr %_M_head_impl
}

; Function Attrs: mustprogress nounwind uwtable
define linkonce_odr dso_local void @_ZNSt10_HashtableIjjSaIjENSt8__detail9_IdentityESt8equal_toIjESt4hashIjENS1_18_Mod_range_hashingENS1_20_Default_ranged_hashENS1_20_Prime_rehash_policyENS1_17_Hashtable_traitsILb0ELb1ELb1EEEEC2Ev(ptr noundef nonnull align 8 dereferenceable(56) %this) unnamed_addr #4 comdat align 2 {
entry:
  %this.addr = alloca ptr, align 8
  store ptr %this, ptr %this.addr, align 8
  %this1 = load ptr, ptr %this.addr, align 8
  call void @_ZNSt8__detail15_Hashtable_baseIjjNS_9_IdentityESt8equal_toIjESt4hashIjENS_18_Mod_range_hashingENS_20_Default_ranged_hashENS_17_Hashtable_traitsILb0ELb1ELb1EEEEC2Ev(ptr noundef nonnull align 1 dereferenceable(1) %this1) #3
  call void @_ZNSt8__detail16_Hashtable_allocISaINS_10_Hash_nodeIjLb0EEEEEC2Ev(ptr noundef nonnull align 1 dereferenceable(1) %this1) #3
  %_M_buckets = getelementptr inbounds %"class.std::_Hashtable", ptr %this1, i32 0, i32 0
  %_M_single_bucket = getelementptr inbounds %"class.std::_Hashtable", ptr %this1, i32 0, i32 5
  store ptr %_M_single_bucket, ptr %_M_buckets, align 8
  %_M_bucket_count = getelementptr inbounds %"class.std::_Hashtable", ptr %this1, i32 0, i32 1
  store i64 1, ptr %_M_bucket_count, align 8
  %_M_before_begin = getelementptr inbounds %"class.std::_Hashtable", ptr %this1, i32 0, i32 2
  call void @_ZNSt8__detail15_Hash_node_baseC2Ev(ptr noundef nonnull align 8 dereferenceable(8) %_M_before_begin) #3
  %_M_element_count = getelementptr inbounds %"class.std::_Hashtable", ptr %this1, i32 0, i32 3
  store i64 0, ptr %_M_element_count, align 8
  %_M_rehash_policy = getelementptr inbounds %"class.std::_Hashtable", ptr %this1, i32 0, i32 4
  call void @_ZNSt8__detail20_Prime_rehash_policyC2Ef(ptr noundef nonnull align 8 dereferenceable(16) %_M_rehash_policy, float noundef 1.000000e+00) #3
  %_M_single_bucket2 = getelementptr inbounds %"class.std::_Hashtable", ptr %this1, i32 0, i32 5
  store ptr null, ptr %_M_single_bucket2, align 8
  ret void
}

; Function Attrs: mustprogress nounwind uwtable
define linkonce_odr dso_local void @_ZNSt8__detail15_Hashtable_baseIjjNS_9_IdentityESt8equal_toIjESt4hashIjENS_18_Mod_range_hashingENS_20_Default_ranged_hashENS_17_Hashtable_traitsILb0ELb1ELb1EEEEC2Ev(ptr noundef nonnull align 1 dereferenceable(1) %this) unnamed_addr #4 comdat align 2 {
entry:
  %this.addr = alloca ptr, align 8
  store ptr %this, ptr %this.addr, align 8
  %this1 = load ptr, ptr %this.addr, align 8
  call void @_ZNSt8__detail15_Hash_code_baseIjjNS_9_IdentityESt4hashIjENS_18_Mod_range_hashingENS_20_Default_ranged_hashELb0EEC2Ev(ptr noundef nonnull align 1 dereferenceable(1) %this1) #3
  call void @_ZNSt8__detail21_Hashtable_ebo_helperILi0ESt8equal_toIjELb1EEC2Ev(ptr noundef nonnull align 1 dereferenceable(1) %this1) #3
  ret void
}

; Function Attrs: mustprogress nounwind uwtable
define linkonce_odr dso_local void @_ZNSt8__detail16_Hashtable_allocISaINS_10_Hash_nodeIjLb0EEEEEC2Ev(ptr noundef nonnull align 1 dereferenceable(1) %this) unnamed_addr #4 comdat align 2 {
entry:
  %this.addr = alloca ptr, align 8
  store ptr %this, ptr %this.addr, align 8
  %this1 = load ptr, ptr %this.addr, align 8
  call void @_ZNSt8__detail21_Hashtable_ebo_helperILi0ESaINS_10_Hash_nodeIjLb0EEEELb1EEC2Ev(ptr noundef nonnull align 1 dereferenceable(1) %this1) #3
  ret void
}

; Function Attrs: mustprogress nounwind uwtable
define linkonce_odr dso_local void @_ZNSt8__detail15_Hash_node_baseC2Ev(ptr noundef nonnull align 8 dereferenceable(8) %this) unnamed_addr #4 comdat align 2 {
entry:
  %this.addr = alloca ptr, align 8
  store ptr %this, ptr %this.addr, align 8
  %this1 = load ptr, ptr %this.addr, align 8
  %_M_nxt = getelementptr inbounds %"struct.std::__detail::_Hash_node_base", ptr %this1, i32 0, i32 0
  store ptr null, ptr %_M_nxt, align 8
  ret void
}

; Function Attrs: mustprogress nounwind uwtable
define linkonce_odr dso_local void @_ZNSt8__detail20_Prime_rehash_policyC2Ef(ptr noundef nonnull align 8 dereferenceable(16) %this, float noundef %__z) unnamed_addr #4 comdat align 2 {
entry:
  %this.addr = alloca ptr, align 8
  %__z.addr = alloca float, align 4
  store ptr %this, ptr %this.addr, align 8
  store float %__z, ptr %__z.addr, align 4
  %this1 = load ptr, ptr %this.addr, align 8
  %_M_max_load_factor = getelementptr inbounds %"struct.std::__detail::_Prime_rehash_policy", ptr %this1, i32 0, i32 0
  %0 = load float, ptr %__z.addr, align 4
  store float %0, ptr %_M_max_load_factor, align 8
  %_M_next_resize = getelementptr inbounds %"struct.std::__detail::_Prime_rehash_policy", ptr %this1, i32 0, i32 1
  store i64 0, ptr %_M_next_resize, align 8
  ret void
}

; Function Attrs: mustprogress nounwind uwtable
define linkonce_odr dso_local void @_ZNSt8__detail15_Hash_code_baseIjjNS_9_IdentityESt4hashIjENS_18_Mod_range_hashingENS_20_Default_ranged_hashELb0EEC2Ev(ptr noundef nonnull align 1 dereferenceable(1) %this) unnamed_addr #4 comdat align 2 {
entry:
  %this.addr = alloca ptr, align 8
  store ptr %this, ptr %this.addr, align 8
  %this1 = load ptr, ptr %this.addr, align 8
  call void @_ZNSt8__detail21_Hashtable_ebo_helperILi1ESt4hashIjELb1EEC2Ev(ptr noundef nonnull align 1 dereferenceable(1) %this1) #3
  ret void
}

; Function Attrs: mustprogress nounwind uwtable
define linkonce_odr dso_local void @_ZNSt8__detail21_Hashtable_ebo_helperILi0ESt8equal_toIjELb1EEC2Ev(ptr noundef nonnull align 1 dereferenceable(1) %this) unnamed_addr #4 comdat align 2 {
entry:
  %this.addr = alloca ptr, align 8
  store ptr %this, ptr %this.addr, align 8
  ret void
}

; Function Attrs: mustprogress nounwind uwtable
define linkonce_odr dso_local void @_ZNSt8__detail21_Hashtable_ebo_helperILi1ESt4hashIjELb1EEC2Ev(ptr noundef nonnull align 1 dereferenceable(1) %this) unnamed_addr #4 comdat align 2 {
entry:
  %this.addr = alloca ptr, align 8
  store ptr %this, ptr %this.addr, align 8
  ret void
}

; Function Attrs: mustprogress nounwind uwtable
define linkonce_odr dso_local void @_ZNSt8__detail21_Hashtable_ebo_helperILi0ESaINS_10_Hash_nodeIjLb0EEEELb1EEC2Ev(ptr noundef nonnull align 1 dereferenceable(1) %this) unnamed_addr #4 comdat align 2 {
entry:
  %this.addr = alloca ptr, align 8
  store ptr %this, ptr %this.addr, align 8
  %this1 = load ptr, ptr %this.addr, align 8
  call void @_ZNSaINSt8__detail10_Hash_nodeIjLb0EEEEC2Ev(ptr noundef nonnull align 1 dereferenceable(1) %this1) #3
  ret void
}

; Function Attrs: mustprogress nounwind uwtable
define linkonce_odr dso_local void @_ZNSaINSt8__detail10_Hash_nodeIjLb0EEEEC2Ev(ptr noundef nonnull align 1 dereferenceable(1) %this) unnamed_addr #4 comdat align 2 {
entry:
  %this.addr = alloca ptr, align 8
  store ptr %this, ptr %this.addr, align 8
  %this1 = load ptr, ptr %this.addr, align 8
  call void @_ZNSt15__new_allocatorINSt8__detail10_Hash_nodeIjLb0EEEEC2Ev(ptr noundef nonnull align 1 dereferenceable(1) %this1) #3
  ret void
}

; Function Attrs: mustprogress nounwind uwtable
define linkonce_odr dso_local void @_ZNSt15__new_allocatorINSt8__detail10_Hash_nodeIjLb0EEEEC2Ev(ptr noundef nonnull align 1 dereferenceable(1) %this) unnamed_addr #4 comdat align 2 {
entry:
  %this.addr = alloca ptr, align 8
  store ptr %this, ptr %this.addr, align 8
  ret void
}

; Function Attrs: mustprogress nounwind uwtable
define linkonce_odr dso_local noundef ptr @_ZNK4node11Environment15principal_realmEv(ptr noundef nonnull align 8 dereferenceable(2872) %this) #4 comdat align 2 {
entry:
  %this.addr = alloca ptr, align 8
  store ptr %this, ptr %this.addr, align 8
  %this1 = load ptr, ptr %this.addr, align 8
  %principal_realm_ = getelementptr inbounds %"class.node::Environment", ptr %this1, i32 0, i32 89
  %call = call noundef ptr @_ZNKSt10unique_ptrIN4node14PrincipalRealmESt14default_deleteIS1_EE3getEv(ptr noundef nonnull align 8 dereferenceable(8) %principal_realm_) #3
  ret ptr %call
}

; Function Attrs: mustprogress nounwind uwtable
define linkonce_odr dso_local noundef ptr @_ZNKSt10unique_ptrIN4node14PrincipalRealmESt14default_deleteIS1_EE3getEv(ptr noundef nonnull align 8 dereferenceable(8) %this) #4 comdat align 2 {
entry:
  %this.addr = alloca ptr, align 8
  store ptr %this, ptr %this.addr, align 8
  %this1 = load ptr, ptr %this.addr, align 8
  %_M_t = getelementptr inbounds %"class.std::unique_ptr.262", ptr %this1, i32 0, i32 0
  %call = call noundef ptr @_ZNKSt15__uniq_ptr_implIN4node14PrincipalRealmESt14default_deleteIS1_EE6_M_ptrEv(ptr noundef nonnull align 8 dereferenceable(8) %_M_t) #3
  ret ptr %call
}

; Function Attrs: mustprogress nounwind uwtable
define linkonce_odr dso_local noundef ptr @_ZNKSt15__uniq_ptr_implIN4node14PrincipalRealmESt14default_deleteIS1_EE6_M_ptrEv(ptr noundef nonnull align 8 dereferenceable(8) %this) #4 comdat align 2 {
entry:
  %this.addr = alloca ptr, align 8
  store ptr %this, ptr %this.addr, align 8
  %this1 = load ptr, ptr %this.addr, align 8
  %_M_t = getelementptr inbounds %"class.std::__uniq_ptr_impl.264", ptr %this1, i32 0, i32 0
  %call = call noundef nonnull align 8 dereferenceable(8) ptr @_ZSt3getILm0EJPN4node14PrincipalRealmESt14default_deleteIS1_EEERKNSt13tuple_elementIXT_ESt5tupleIJDpT0_EEE4typeERKS9_(ptr noundef nonnull align 8 dereferenceable(8) %_M_t) #3
  %0 = load ptr, ptr %call, align 8
  ret ptr %0
}

; Function Attrs: mustprogress nounwind uwtable
define linkonce_odr dso_local noundef nonnull align 8 dereferenceable(8) ptr @_ZSt3getILm0EJPN4node14PrincipalRealmESt14default_deleteIS1_EEERKNSt13tuple_elementIXT_ESt5tupleIJDpT0_EEE4typeERKS9_(ptr noundef nonnull align 8 dereferenceable(8) %__t) #4 comdat {
entry:
  %__t.addr = alloca ptr, align 8
  store ptr %__t, ptr %__t.addr, align 8
  %0 = load ptr, ptr %__t.addr, align 8
  %call = call noundef nonnull align 8 dereferenceable(8) ptr @_ZSt12__get_helperILm0EPN4node14PrincipalRealmEJSt14default_deleteIS1_EEERKT0_RKSt11_Tuple_implIXT_EJS5_DpT1_EE(ptr noundef nonnull align 8 dereferenceable(8) %0) #3
  ret ptr %call
}

; Function Attrs: mustprogress nounwind uwtable
define linkonce_odr dso_local noundef nonnull align 8 dereferenceable(8) ptr @_ZSt12__get_helperILm0EPN4node14PrincipalRealmEJSt14default_deleteIS1_EEERKT0_RKSt11_Tuple_implIXT_EJS5_DpT1_EE(ptr noundef nonnull align 8 dereferenceable(8) %__t) #4 comdat {
entry:
  %__t.addr = alloca ptr, align 8
  store ptr %__t, ptr %__t.addr, align 8
  %0 = load ptr, ptr %__t.addr, align 8
  %call = call noundef nonnull align 8 dereferenceable(8) ptr @_ZNSt11_Tuple_implILm0EJPN4node14PrincipalRealmESt14default_deleteIS1_EEE7_M_headERKS5_(ptr noundef nonnull align 8 dereferenceable(8) %0) #3
  ret ptr %call
}

; Function Attrs: mustprogress nounwind uwtable
define linkonce_odr dso_local noundef nonnull align 8 dereferenceable(8) ptr @_ZNSt11_Tuple_implILm0EJPN4node14PrincipalRealmESt14default_deleteIS1_EEE7_M_headERKS5_(ptr noundef nonnull align 8 dereferenceable(8) %__t) #4 comdat align 2 {
entry:
  %__t.addr = alloca ptr, align 8
  store ptr %__t, ptr %__t.addr, align 8
  %0 = load ptr, ptr %__t.addr, align 8
  %call = call noundef nonnull align 8 dereferenceable(8) ptr @_ZNSt10_Head_baseILm0EPN4node14PrincipalRealmELb0EE7_M_headERKS3_(ptr noundef nonnull align 8 dereferenceable(8) %0) #3
  ret ptr %call
}

; Function Attrs: mustprogress nounwind uwtable
define linkonce_odr dso_local noundef nonnull align 8 dereferenceable(8) ptr @_ZNSt10_Head_baseILm0EPN4node14PrincipalRealmELb0EE7_M_headERKS3_(ptr noundef nonnull align 8 dereferenceable(8) %__b) #4 comdat align 2 {
entry:
  %__b.addr = alloca ptr, align 8
  store ptr %__b, ptr %__b.addr, align 8
  %0 = load ptr, ptr %__b.addr, align 8
  %_M_head_impl = getelementptr inbounds %"struct.std::_Head_base.269", ptr %0, i32 0, i32 0
  ret ptr %_M_head_impl
}

declare void @_ZN2v87Context5EnterEv(ptr noundef nonnull align 1 dereferenceable(1)) #1

; Function Attrs: mustprogress nounwind uwtable
define linkonce_odr dso_local void @_ZN4node16MaybeStackBufferIcLm1024EED2Ev(ptr noundef nonnull align 8 dereferenceable(1048) %this) unnamed_addr #4 comdat align 2 {
entry:
  %this.addr = alloca ptr, align 8
  store ptr %this, ptr %this.addr, align 8
  %this1 = load ptr, ptr %this.addr, align 8
  %call = call noundef zeroext i1 @_ZNK4node16MaybeStackBufferIcLm1024EE11IsAllocatedEv(ptr noundef nonnull align 8 dereferenceable(1048) %this1)
  br i1 %call, label %if.then, label %if.end

if.then:                                          ; preds = %entry
  %buf_ = getelementptr inbounds %"class.node::MaybeStackBuffer", ptr %this1, i32 0, i32 2
  %0 = load ptr, ptr %buf_, align 8
  call void @free(ptr noundef %0) #3
  br label %if.end

if.end:                                           ; preds = %if.then, %entry
  ret void
}

; Function Attrs: mustprogress nounwind uwtable
define linkonce_odr dso_local noundef zeroext i1 @_ZNK4node16MaybeStackBufferIcLm1024EE11IsAllocatedEv(ptr noundef nonnull align 8 dereferenceable(1048) %this) #4 comdat align 2 {
entry:
  %this.addr = alloca ptr, align 8
  store ptr %this, ptr %this.addr, align 8
  %this1 = load ptr, ptr %this.addr, align 8
  %call = call noundef zeroext i1 @_ZNK4node16MaybeStackBufferIcLm1024EE13IsInvalidatedEv(ptr noundef nonnull align 8 dereferenceable(1048) %this1)
  br i1 %call, label %land.end, label %land.rhs

land.rhs:                                         ; preds = %entry
  %buf_ = getelementptr inbounds %"class.node::MaybeStackBuffer", ptr %this1, i32 0, i32 2
  %0 = load ptr, ptr %buf_, align 8
  %buf_st_ = getelementptr inbounds %"class.node::MaybeStackBuffer", ptr %this1, i32 0, i32 3
  %arraydecay = getelementptr inbounds [1024 x i8], ptr %buf_st_, i64 0, i64 0
  %cmp = icmp ne ptr %0, %arraydecay
  br label %land.end

land.end:                                         ; preds = %land.rhs, %entry
  %1 = phi i1 [ false, %entry ], [ %cmp, %land.rhs ]
  ret i1 %1
}

; Function Attrs: nounwind
declare void @free(ptr noundef) #2

; Function Attrs: mustprogress nounwind uwtable
define linkonce_odr dso_local noundef zeroext i1 @_ZNK4node16MaybeStackBufferIcLm1024EE13IsInvalidatedEv(ptr noundef nonnull align 8 dereferenceable(1048) %this) #4 comdat align 2 {
entry:
  %this.addr = alloca ptr, align 8
  store ptr %this, ptr %this.addr, align 8
  %this1 = load ptr, ptr %this.addr, align 8
  %buf_ = getelementptr inbounds %"class.node::MaybeStackBuffer", ptr %this1, i32 0, i32 2
  %0 = load ptr, ptr %buf_, align 8
  %cmp = icmp eq ptr %0, null
  ret i1 %cmp
}

; Function Attrs: mustprogress nounwind uwtable
define linkonce_odr dso_local noundef zeroext i1 @_ZNSt8__detailneERKNS_19_Node_iterator_baseIjLb0EEES3_(ptr noundef nonnull align 8 dereferenceable(8) %__x, ptr noundef nonnull align 8 dereferenceable(8) %__y) #4 comdat {
entry:
  %__x.addr = alloca ptr, align 8
  %__y.addr = alloca ptr, align 8
  store ptr %__x, ptr %__x.addr, align 8
  store ptr %__y, ptr %__y.addr, align 8
  %0 = load ptr, ptr %__x.addr, align 8
  %_M_cur = getelementptr inbounds %"struct.std::__detail::_Node_iterator_base", ptr %0, i32 0, i32 0
  %1 = load ptr, ptr %_M_cur, align 8
  %2 = load ptr, ptr %__y.addr, align 8
  %_M_cur1 = getelementptr inbounds %"struct.std::__detail::_Node_iterator_base", ptr %2, i32 0, i32 0
  %3 = load ptr, ptr %_M_cur1, align 8
  %cmp = icmp ne ptr %1, %3
  ret i1 %cmp
}

; Function Attrs: mustprogress nounwind uwtable
define linkonce_odr dso_local ptr @_ZNKSt13unordered_setIjSt4hashIjESt8equal_toIjESaIjEE4findERKj(ptr noundef nonnull align 8 dereferenceable(56) %this, ptr noundef nonnull align 4 dereferenceable(4) %__x) #4 comdat align 2 {
entry:
  %retval = alloca %"struct.std::__detail::_Node_const_iterator", align 8
  %this.addr = alloca ptr, align 8
  %__x.addr = alloca ptr, align 8
  store ptr %this, ptr %this.addr, align 8
  store ptr %__x, ptr %__x.addr, align 8
  %this1 = load ptr, ptr %this.addr, align 8
  %_M_h = getelementptr inbounds %"class.std::unordered_set", ptr %this1, i32 0, i32 0
  %0 = load ptr, ptr %__x.addr, align 8
  %call = call ptr @_ZNKSt10_HashtableIjjSaIjENSt8__detail9_IdentityESt8equal_toIjESt4hashIjENS1_18_Mod_range_hashingENS1_20_Default_ranged_hashENS1_20_Prime_rehash_policyENS1_17_Hashtable_traitsILb0ELb1ELb1EEEE4findERKj(ptr noundef nonnull align 8 dereferenceable(56) %_M_h, ptr noundef nonnull align 4 dereferenceable(4) %0)
  %coerce.dive = getelementptr inbounds %"struct.std::__detail::_Node_const_iterator", ptr %retval, i32 0, i32 0
  %coerce.dive2 = getelementptr inbounds %"struct.std::__detail::_Node_iterator_base", ptr %coerce.dive, i32 0, i32 0
  store ptr %call, ptr %coerce.dive2, align 8
  %coerce.dive3 = getelementptr inbounds %"struct.std::__detail::_Node_const_iterator", ptr %retval, i32 0, i32 0
  %coerce.dive4 = getelementptr inbounds %"struct.std::__detail::_Node_iterator_base", ptr %coerce.dive3, i32 0, i32 0
  %1 = load ptr, ptr %coerce.dive4, align 8
  ret ptr %1
}

; Function Attrs: mustprogress nounwind uwtable
define linkonce_odr dso_local ptr @_ZNKSt13unordered_setIjSt4hashIjESt8equal_toIjESaIjEE3endEv(ptr noundef nonnull align 8 dereferenceable(56) %this) #4 comdat align 2 {
entry:
  %retval = alloca %"struct.std::__detail::_Node_const_iterator", align 8
  %this.addr = alloca ptr, align 8
  store ptr %this, ptr %this.addr, align 8
  %this1 = load ptr, ptr %this.addr, align 8
  %_M_h = getelementptr inbounds %"class.std::unordered_set", ptr %this1, i32 0, i32 0
  %call = call ptr @_ZNKSt10_HashtableIjjSaIjENSt8__detail9_IdentityESt8equal_toIjESt4hashIjENS1_18_Mod_range_hashingENS1_20_Default_ranged_hashENS1_20_Prime_rehash_policyENS1_17_Hashtable_traitsILb0ELb1ELb1EEEE3endEv(ptr noundef nonnull align 8 dereferenceable(56) %_M_h) #3
  %coerce.dive = getelementptr inbounds %"struct.std::__detail::_Node_const_iterator", ptr %retval, i32 0, i32 0
  %coerce.dive2 = getelementptr inbounds %"struct.std::__detail::_Node_iterator_base", ptr %coerce.dive, i32 0, i32 0
  store ptr %call, ptr %coerce.dive2, align 8
  %coerce.dive3 = getelementptr inbounds %"struct.std::__detail::_Node_const_iterator", ptr %retval, i32 0, i32 0
  %coerce.dive4 = getelementptr inbounds %"struct.std::__detail::_Node_iterator_base", ptr %coerce.dive3, i32 0, i32 0
  %0 = load ptr, ptr %coerce.dive4, align 8
  ret ptr %0
}

; Function Attrs: mustprogress nounwind uwtable
define linkonce_odr dso_local ptr @_ZNKSt10_HashtableIjjSaIjENSt8__detail9_IdentityESt8equal_toIjESt4hashIjENS1_18_Mod_range_hashingENS1_20_Default_ranged_hashENS1_20_Prime_rehash_policyENS1_17_Hashtable_traitsILb0ELb1ELb1EEEE4findERKj(ptr noundef nonnull align 8 dereferenceable(56) %this, ptr noundef nonnull align 4 dereferenceable(4) %__k) #4 comdat align 2 {
entry:
  %retval = alloca %"struct.std::__detail::_Node_const_iterator", align 8
  %this.addr = alloca ptr, align 8
  %__k.addr = alloca ptr, align 8
  %ref.tmp = alloca %"struct.std::__detail::_Node_const_iterator", align 8
  %__code = alloca i64, align 8
  %__bkt = alloca i64, align 8
  store ptr %this, ptr %this.addr, align 8
  store ptr %__k, ptr %__k.addr, align 8
  %this1 = load ptr, ptr %this.addr, align 8
  %call = call noundef i64 @_ZNKSt10_HashtableIjjSaIjENSt8__detail9_IdentityESt8equal_toIjESt4hashIjENS1_18_Mod_range_hashingENS1_20_Default_ranged_hashENS1_20_Prime_rehash_policyENS1_17_Hashtable_traitsILb0ELb1ELb1EEEE4sizeEv(ptr noundef nonnull align 8 dereferenceable(56) %this1) #3
  %call2 = call noundef i64 @_ZNSt10_HashtableIjjSaIjENSt8__detail9_IdentityESt8equal_toIjESt4hashIjENS1_18_Mod_range_hashingENS1_20_Default_ranged_hashENS1_20_Prime_rehash_policyENS1_17_Hashtable_traitsILb0ELb1ELb1EEEE22__small_size_thresholdEv() #3
  %cmp = icmp ule i64 %call, %call2
  br i1 %cmp, label %if.then, label %if.end15

if.then:                                          ; preds = %entry
  %call3 = call ptr @_ZNKSt10_HashtableIjjSaIjENSt8__detail9_IdentityESt8equal_toIjESt4hashIjENS1_18_Mod_range_hashingENS1_20_Default_ranged_hashENS1_20_Prime_rehash_policyENS1_17_Hashtable_traitsILb0ELb1ELb1EEEE5beginEv(ptr noundef nonnull align 8 dereferenceable(56) %this1) #3
  %coerce.dive = getelementptr inbounds %"struct.std::__detail::_Node_const_iterator", ptr %retval, i32 0, i32 0
  %coerce.dive4 = getelementptr inbounds %"struct.std::__detail::_Node_iterator_base", ptr %coerce.dive, i32 0, i32 0
  store ptr %call3, ptr %coerce.dive4, align 8
  br label %for.cond

for.cond:                                         ; preds = %for.inc, %if.then
  %call5 = call ptr @_ZNKSt10_HashtableIjjSaIjENSt8__detail9_IdentityESt8equal_toIjESt4hashIjENS1_18_Mod_range_hashingENS1_20_Default_ranged_hashENS1_20_Prime_rehash_policyENS1_17_Hashtable_traitsILb0ELb1ELb1EEEE3endEv(ptr noundef nonnull align 8 dereferenceable(56) %this1) #3
  %coerce.dive6 = getelementptr inbounds %"struct.std::__detail::_Node_const_iterator", ptr %ref.tmp, i32 0, i32 0
  %coerce.dive7 = getelementptr inbounds %"struct.std::__detail::_Node_iterator_base", ptr %coerce.dive6, i32 0, i32 0
  store ptr %call5, ptr %coerce.dive7, align 8
  %call8 = call noundef zeroext i1 @_ZNSt8__detailneERKNS_19_Node_iterator_baseIjLb0EEES3_(ptr noundef nonnull align 8 dereferenceable(8) %retval, ptr noundef nonnull align 8 dereferenceable(8) %ref.tmp) #3
  br i1 %call8, label %for.body, label %for.end

for.body:                                         ; preds = %for.cond
  %0 = load ptr, ptr %__k.addr, align 8
  %_M_cur = getelementptr inbounds %"struct.std::__detail::_Node_iterator_base", ptr %retval, i32 0, i32 0
  %1 = load ptr, ptr %_M_cur, align 8
  %add.ptr = getelementptr inbounds i8, ptr %1, i64 8
  %call9 = call noundef zeroext i1 @_ZNKSt8__detail15_Hashtable_baseIjjNS_9_IdentityESt8equal_toIjESt4hashIjENS_18_Mod_range_hashingENS_20_Default_ranged_hashENS_17_Hashtable_traitsILb0ELb1ELb1EEEE13_M_key_equalsERKjRKNS_16_Hash_node_valueIjLb0EEE(ptr noundef nonnull align 1 dereferenceable(1) %this1, ptr noundef nonnull align 4 dereferenceable(4) %0, ptr noundef nonnull align 4 dereferenceable(4) %add.ptr)
  br i1 %call9, label %if.then10, label %if.end

if.then10:                                        ; preds = %for.body
  br label %return

if.end:                                           ; preds = %for.body
  br label %for.inc

for.inc:                                          ; preds = %if.end
  %call11 = call noundef nonnull align 8 dereferenceable(8) ptr @_ZNSt8__detail20_Node_const_iteratorIjLb1ELb0EEppEv(ptr noundef nonnull align 8 dereferenceable(8) %retval) #3
  br label %for.cond, !llvm.loop !5

for.end:                                          ; preds = %for.cond
  %call12 = call ptr @_ZNKSt10_HashtableIjjSaIjENSt8__detail9_IdentityESt8equal_toIjESt4hashIjENS1_18_Mod_range_hashingENS1_20_Default_ranged_hashENS1_20_Prime_rehash_policyENS1_17_Hashtable_traitsILb0ELb1ELb1EEEE3endEv(ptr noundef nonnull align 8 dereferenceable(56) %this1) #3
  %coerce.dive13 = getelementptr inbounds %"struct.std::__detail::_Node_const_iterator", ptr %retval, i32 0, i32 0
  %coerce.dive14 = getelementptr inbounds %"struct.std::__detail::_Node_iterator_base", ptr %coerce.dive13, i32 0, i32 0
  store ptr %call12, ptr %coerce.dive14, align 8
  br label %return

if.end15:                                         ; preds = %entry
  %2 = load ptr, ptr %__k.addr, align 8
  %call16 = call noundef i64 @_ZNKSt8__detail15_Hash_code_baseIjjNS_9_IdentityESt4hashIjENS_18_Mod_range_hashingENS_20_Default_ranged_hashELb0EE12_M_hash_codeERKj(ptr noundef nonnull align 1 dereferenceable(1) %this1, ptr noundef nonnull align 4 dereferenceable(4) %2)
  store i64 %call16, ptr %__code, align 8
  %3 = load i64, ptr %__code, align 8
  %call17 = call noundef i64 @_ZNKSt10_HashtableIjjSaIjENSt8__detail9_IdentityESt8equal_toIjESt4hashIjENS1_18_Mod_range_hashingENS1_20_Default_ranged_hashENS1_20_Prime_rehash_policyENS1_17_Hashtable_traitsILb0ELb1ELb1EEEE15_M_bucket_indexEm(ptr noundef nonnull align 8 dereferenceable(56) %this1, i64 noundef %3)
  store i64 %call17, ptr %__bkt, align 8
  %4 = load i64, ptr %__bkt, align 8
  %5 = load ptr, ptr %__k.addr, align 8
  %6 = load i64, ptr %__code, align 8
  %call18 = call noundef ptr @_ZNKSt10_HashtableIjjSaIjENSt8__detail9_IdentityESt8equal_toIjESt4hashIjENS1_18_Mod_range_hashingENS1_20_Default_ranged_hashENS1_20_Prime_rehash_policyENS1_17_Hashtable_traitsILb0ELb1ELb1EEEE12_M_find_nodeEmRKjm(ptr noundef nonnull align 8 dereferenceable(56) %this1, i64 noundef %4, ptr noundef nonnull align 4 dereferenceable(4) %5, i64 noundef %6)
  call void @_ZNSt8__detail20_Node_const_iteratorIjLb1ELb0EEC2EPNS_10_Hash_nodeIjLb0EEE(ptr noundef nonnull align 8 dereferenceable(8) %retval, ptr noundef %call18) #3
  br label %return

return:                                           ; preds = %if.end15, %for.end, %if.then10
  %coerce.dive19 = getelementptr inbounds %"struct.std::__detail::_Node_const_iterator", ptr %retval, i32 0, i32 0
  %coerce.dive20 = getelementptr inbounds %"struct.std::__detail::_Node_iterator_base", ptr %coerce.dive19, i32 0, i32 0
  %7 = load ptr, ptr %coerce.dive20, align 8
  ret ptr %7
}

; Function Attrs: mustprogress nounwind uwtable
define linkonce_odr dso_local noundef i64 @_ZNKSt10_HashtableIjjSaIjENSt8__detail9_IdentityESt8equal_toIjESt4hashIjENS1_18_Mod_range_hashingENS1_20_Default_ranged_hashENS1_20_Prime_rehash_policyENS1_17_Hashtable_traitsILb0ELb1ELb1EEEE4sizeEv(ptr noundef nonnull align 8 dereferenceable(56) %this) #4 comdat align 2 {
entry:
  %this.addr = alloca ptr, align 8
  store ptr %this, ptr %this.addr, align 8
  %this1 = load ptr, ptr %this.addr, align 8
  %_M_element_count = getelementptr inbounds %"class.std::_Hashtable", ptr %this1, i32 0, i32 3
  %0 = load i64, ptr %_M_element_count, align 8
  ret i64 %0
}

; Function Attrs: mustprogress nounwind uwtable
define linkonce_odr dso_local noundef i64 @_ZNSt10_HashtableIjjSaIjENSt8__detail9_IdentityESt8equal_toIjESt4hashIjENS1_18_Mod_range_hashingENS1_20_Default_ranged_hashENS1_20_Prime_rehash_policyENS1_17_Hashtable_traitsILb0ELb1ELb1EEEE22__small_size_thresholdEv() #4 comdat align 2 {
entry:
  %call = call noundef i64 @_ZNSt8__detail22_Hashtable_hash_traitsISt4hashIjEE22__small_size_thresholdEv() #3
  ret i64 %call
}

; Function Attrs: mustprogress nounwind uwtable
define linkonce_odr dso_local ptr @_ZNKSt10_HashtableIjjSaIjENSt8__detail9_IdentityESt8equal_toIjESt4hashIjENS1_18_Mod_range_hashingENS1_20_Default_ranged_hashENS1_20_Prime_rehash_policyENS1_17_Hashtable_traitsILb0ELb1ELb1EEEE5beginEv(ptr noundef nonnull align 8 dereferenceable(56) %this) #4 comdat align 2 {
entry:
  %retval = alloca %"struct.std::__detail::_Node_const_iterator", align 8
  %this.addr = alloca ptr, align 8
  store ptr %this, ptr %this.addr, align 8
  %this1 = load ptr, ptr %this.addr, align 8
  %call = call noundef ptr @_ZNKSt10_HashtableIjjSaIjENSt8__detail9_IdentityESt8equal_toIjESt4hashIjENS1_18_Mod_range_hashingENS1_20_Default_ranged_hashENS1_20_Prime_rehash_policyENS1_17_Hashtable_traitsILb0ELb1ELb1EEEE8_M_beginEv(ptr noundef nonnull align 8 dereferenceable(56) %this1)
  call void @_ZNSt8__detail20_Node_const_iteratorIjLb1ELb0EEC2EPNS_10_Hash_nodeIjLb0EEE(ptr noundef nonnull align 8 dereferenceable(8) %retval, ptr noundef %call) #3
  %coerce.dive = getelementptr inbounds %"struct.std::__detail::_Node_const_iterator", ptr %retval, i32 0, i32 0
  %coerce.dive2 = getelementptr inbounds %"struct.std::__detail::_Node_iterator_base", ptr %coerce.dive, i32 0, i32 0
  %0 = load ptr, ptr %coerce.dive2, align 8
  ret ptr %0
}

; Function Attrs: mustprogress nounwind uwtable
define linkonce_odr dso_local ptr @_ZNKSt10_HashtableIjjSaIjENSt8__detail9_IdentityESt8equal_toIjESt4hashIjENS1_18_Mod_range_hashingENS1_20_Default_ranged_hashENS1_20_Prime_rehash_policyENS1_17_Hashtable_traitsILb0ELb1ELb1EEEE3endEv(ptr noundef nonnull align 8 dereferenceable(56) %this) #4 comdat align 2 {
entry:
  %retval = alloca %"struct.std::__detail::_Node_const_iterator", align 8
  %this.addr = alloca ptr, align 8
  store ptr %this, ptr %this.addr, align 8
  call void @_ZNSt8__detail20_Node_const_iteratorIjLb1ELb0EEC2EPNS_10_Hash_nodeIjLb0EEE(ptr noundef nonnull align 8 dereferenceable(8) %retval, ptr noundef null) #3
  %coerce.dive = getelementptr inbounds %"struct.std::__detail::_Node_const_iterator", ptr %retval, i32 0, i32 0
  %coerce.dive2 = getelementptr inbounds %"struct.std::__detail::_Node_iterator_base", ptr %coerce.dive, i32 0, i32 0
  %0 = load ptr, ptr %coerce.dive2, align 8
  ret ptr %0
}

; Function Attrs: mustprogress nounwind uwtable
define linkonce_odr dso_local noundef zeroext i1 @_ZNKSt8__detail15_Hashtable_baseIjjNS_9_IdentityESt8equal_toIjESt4hashIjENS_18_Mod_range_hashingENS_20_Default_ranged_hashENS_17_Hashtable_traitsILb0ELb1ELb1EEEE13_M_key_equalsERKjRKNS_16_Hash_node_valueIjLb0EEE(ptr noundef nonnull align 1 dereferenceable(1) %this, ptr noundef nonnull align 4 dereferenceable(4) %__k, ptr noundef nonnull align 4 dereferenceable(4) %__n) #4 comdat align 2 {
entry:
  %this.addr = alloca ptr, align 8
  %__k.addr = alloca ptr, align 8
  %__n.addr = alloca ptr, align 8
  %ref.tmp = alloca %"struct.std::__detail::_Identity", align 1
  store ptr %this, ptr %this.addr, align 8
  store ptr %__k, ptr %__k.addr, align 8
  store ptr %__n, ptr %__n.addr, align 8
  %this1 = load ptr, ptr %this.addr, align 8
  %call = call noundef nonnull align 1 dereferenceable(1) ptr @_ZNKSt8__detail15_Hashtable_baseIjjNS_9_IdentityESt8equal_toIjESt4hashIjENS_18_Mod_range_hashingENS_20_Default_ranged_hashENS_17_Hashtable_traitsILb0ELb1ELb1EEEE5_M_eqEv(ptr noundef nonnull align 1 dereferenceable(1) %this1)
  %0 = load ptr, ptr %__k.addr, align 8
  %1 = load ptr, ptr %__n.addr, align 8
  %call2 = call noundef nonnull align 4 dereferenceable(4) ptr @_ZNKSt8__detail21_Hash_node_value_baseIjE4_M_vEv(ptr noundef nonnull align 4 dereferenceable(4) %1) #3
  %call3 = call noundef nonnull align 4 dereferenceable(4) ptr @_ZNKSt8__detail9_IdentityclIRKjEEOT_S5_(ptr noundef nonnull align 1 dereferenceable(1) %ref.tmp, ptr noundef nonnull align 4 dereferenceable(4) %call2) #3
  %call4 = call noundef zeroext i1 @_ZNKSt8equal_toIjEclERKjS2_(ptr noundef nonnull align 1 dereferenceable(1) %call, ptr noundef nonnull align 4 dereferenceable(4) %0, ptr noundef nonnull align 4 dereferenceable(4) %call3)
  ret i1 %call4
}

; Function Attrs: mustprogress nounwind uwtable
define linkonce_odr dso_local noundef nonnull align 8 dereferenceable(8) ptr @_ZNSt8__detail20_Node_const_iteratorIjLb1ELb0EEppEv(ptr noundef nonnull align 8 dereferenceable(8) %this) #4 comdat align 2 {
entry:
  %this.addr = alloca ptr, align 8
  store ptr %this, ptr %this.addr, align 8
  %this1 = load ptr, ptr %this.addr, align 8
  call void @_ZNSt8__detail19_Node_iterator_baseIjLb0EE7_M_incrEv(ptr noundef nonnull align 8 dereferenceable(8) %this1) #3
  ret ptr %this1
}

; Function Attrs: mustprogress nounwind uwtable
define linkonce_odr dso_local noundef i64 @_ZNKSt8__detail15_Hash_code_baseIjjNS_9_IdentityESt4hashIjENS_18_Mod_range_hashingENS_20_Default_ranged_hashELb0EE12_M_hash_codeERKj(ptr noundef nonnull align 1 dereferenceable(1) %this, ptr noundef nonnull align 4 dereferenceable(4) %__k) #4 comdat align 2 {
entry:
  %this.addr = alloca ptr, align 8
  %__k.addr = alloca ptr, align 8
  store ptr %this, ptr %this.addr, align 8
  store ptr %__k, ptr %__k.addr, align 8
  %this1 = load ptr, ptr %this.addr, align 8
  %call = call noundef nonnull align 1 dereferenceable(1) ptr @_ZNKSt8__detail15_Hash_code_baseIjjNS_9_IdentityESt4hashIjENS_18_Mod_range_hashingENS_20_Default_ranged_hashELb0EE7_M_hashEv(ptr noundef nonnull align 1 dereferenceable(1) %this1)
  %0 = load ptr, ptr %__k.addr, align 8
  %1 = load i32, ptr %0, align 4
  %call2 = call noundef i64 @_ZNKSt4hashIjEclEj(ptr noundef nonnull align 1 dereferenceable(1) %call, i32 noundef %1) #3
  ret i64 %call2
}

; Function Attrs: mustprogress nounwind uwtable
define linkonce_odr dso_local noundef i64 @_ZNKSt10_HashtableIjjSaIjENSt8__detail9_IdentityESt8equal_toIjESt4hashIjENS1_18_Mod_range_hashingENS1_20_Default_ranged_hashENS1_20_Prime_rehash_policyENS1_17_Hashtable_traitsILb0ELb1ELb1EEEE15_M_bucket_indexEm(ptr noundef nonnull align 8 dereferenceable(56) %this, i64 noundef %__c) #4 comdat align 2 {
entry:
  %this.addr = alloca ptr, align 8
  %__c.addr = alloca i64, align 8
  store ptr %this, ptr %this.addr, align 8
  store i64 %__c, ptr %__c.addr, align 8
  %this1 = load ptr, ptr %this.addr, align 8
  %0 = load i64, ptr %__c.addr, align 8
  %_M_bucket_count = getelementptr inbounds %"class.std::_Hashtable", ptr %this1, i32 0, i32 1
  %1 = load i64, ptr %_M_bucket_count, align 8
  %call = call noundef i64 @_ZNKSt8__detail15_Hash_code_baseIjjNS_9_IdentityESt4hashIjENS_18_Mod_range_hashingENS_20_Default_ranged_hashELb0EE15_M_bucket_indexEmm(ptr noundef nonnull align 1 dereferenceable(1) %this1, i64 noundef %0, i64 noundef %1)
  ret i64 %call
}

; Function Attrs: mustprogress nounwind uwtable
define linkonce_odr dso_local noundef ptr @_ZNKSt10_HashtableIjjSaIjENSt8__detail9_IdentityESt8equal_toIjESt4hashIjENS1_18_Mod_range_hashingENS1_20_Default_ranged_hashENS1_20_Prime_rehash_policyENS1_17_Hashtable_traitsILb0ELb1ELb1EEEE12_M_find_nodeEmRKjm(ptr noundef nonnull align 8 dereferenceable(56) %this, i64 noundef %__bkt, ptr noundef nonnull align 4 dereferenceable(4) %__key, i64 noundef %__c) #4 comdat align 2 {
entry:
  %retval = alloca ptr, align 8
  %this.addr = alloca ptr, align 8
  %__bkt.addr = alloca i64, align 8
  %__key.addr = alloca ptr, align 8
  %__c.addr = alloca i64, align 8
  %__before_n = alloca ptr, align 8
  store ptr %this, ptr %this.addr, align 8
  store i64 %__bkt, ptr %__bkt.addr, align 8
  store ptr %__key, ptr %__key.addr, align 8
  store i64 %__c, ptr %__c.addr, align 8
  %this1 = load ptr, ptr %this.addr, align 8
  %0 = load i64, ptr %__bkt.addr, align 8
  %1 = load ptr, ptr %__key.addr, align 8
  %2 = load i64, ptr %__c.addr, align 8
  %call = call noundef ptr @_ZNKSt10_HashtableIjjSaIjENSt8__detail9_IdentityESt8equal_toIjESt4hashIjENS1_18_Mod_range_hashingENS1_20_Default_ranged_hashENS1_20_Prime_rehash_policyENS1_17_Hashtable_traitsILb0ELb1ELb1EEEE19_M_find_before_nodeEmRKjm(ptr noundef nonnull align 8 dereferenceable(56) %this1, i64 noundef %0, ptr noundef nonnull align 4 dereferenceable(4) %1, i64 noundef %2)
  store ptr %call, ptr %__before_n, align 8
  %3 = load ptr, ptr %__before_n, align 8
  %tobool = icmp ne ptr %3, null
  br i1 %tobool, label %if.then, label %if.end

if.then:                                          ; preds = %entry
  %4 = load ptr, ptr %__before_n, align 8
  %_M_nxt = getelementptr inbounds %"struct.std::__detail::_Hash_node_base", ptr %4, i32 0, i32 0
  %5 = load ptr, ptr %_M_nxt, align 8
  store ptr %5, ptr %retval, align 8
  br label %return

if.end:                                           ; preds = %entry
  store ptr null, ptr %retval, align 8
  br label %return

