target datalayout = "e-m:e-p270:32:32-p271:32:32-p272:64:64-i64:64-i128:128-f80:128-n8:16:32:64-S128"
target triple = "x86_64-unknown-linux-gnu"

%"class.std::ios_base::Init" = type { i8 }
%"struct.node::AssertionInfo" = type { ptr, ptr, ptr }
%"struct.std::nullopt_t" = type { i8 }
%"struct.std::piecewise_construct_t" = type { i8 }
%"struct.std::in_place_t" = type { i8 }
%"class.node::crypto::SignBase" = type { %"class.node::BaseObject", %"class.std::unique_ptr" }
%"class.node::BaseObject" = type { %"class.node::MemoryRetainer", %"class.v8::Global", ptr, ptr }
%"class.node::MemoryRetainer" = type { ptr }
%"class.v8::Global" = type { %"class.v8::PersistentBase" }
%"class.v8::PersistentBase" = type { %"class.v8::IndirectHandleBase" }
%"class.v8::IndirectHandleBase" = type { ptr }
%"class.std::unique_ptr" = type { %"struct.std::__uniq_ptr_data" }
%"struct.std::__uniq_ptr_data" = type { %"class.std::__uniq_ptr_impl" }
%"class.std::__uniq_ptr_impl" = type { %"class.std::tuple" }
%"class.std::tuple" = type { %"struct.std::_Tuple_impl" }
%"struct.std::_Tuple_impl" = type { %"struct.std::_Head_base.1" }
%"struct.std::_Head_base.1" = type { ptr }
%"class.v8::Local" = type { %"class.v8::LocalBase" }
%"class.v8::LocalBase" = type { %"class.v8::IndirectHandleBase" }
%"class.v8::Local.294" = type { %"class.v8::LocalBase.295" }
%"class.v8::LocalBase.295" = type { %"class.v8::IndirectHandleBase" }
%"class.v8::Local.292" = type { %"class.v8::LocalBase.293" }
%"class.v8::LocalBase.293" = type { %"class.v8::IndirectHandleBase" }
%"class.v8::Local.284" = type { %"class.v8::LocalBase.285" }
%"class.v8::LocalBase.285" = type { %"class.v8::IndirectHandleBase" }
%"class.v8::Local.286" = type { %"class.v8::LocalBase.287" }
%"class.v8::LocalBase.287" = type { %"class.v8::IndirectHandleBase" }
%"class.v8::Local.288" = type { %"class.v8::LocalBase.289" }
%"class.v8::LocalBase.289" = type { %"class.v8::IndirectHandleBase" }
%"class.std::basic_string_view" = type { i64, ptr }
%"class.v8::Local.290" = type { %"class.v8::LocalBase.291" }
%"class.v8::LocalBase.291" = type { %"class.v8::IndirectHandleBase" }
%"class.v8::MaybeLocal" = type { %"class.v8::Local.292" }
%"class.v8::Maybe" = type { i8, i8 }
%"class.v8::Local.296" = type { %"class.v8::LocalBase.297" }
%"class.v8::LocalBase.297" = type { %"class.v8::IndirectHandleBase" }
%"class.v8::Local.298" = type { %"class.v8::LocalBase.299" }
%"class.v8::LocalBase.299" = type { %"class.v8::IndirectHandleBase" }
%"class.node::Environment" = type { %"class.node::MemoryRetainer", %"class.std::unordered_multimap", %"class.std::__cxx11::list", ptr, ptr, %struct.uv_timer_s, %struct.uv_check_s, %struct.uv_idle_s, %struct.uv_prepare_s, %struct.uv_check_s, %struct.uv_async_s, i64, %"struct.std::atomic", %"struct.std::atomic", %"class.node::AsyncHooks", %"class.node::ImmediateInfo", %"class.node::AliasedBufferBase.45", %"class.node::TickInfo", %"class.node::permission::Permission", i64, %"class.std::shared_ptr", i8, i8, i8, i8, i8, i8, i64, %"class.std::vector.71", %"class.std::unordered_set", %"class.std::unique_ptr.95", %"class.std::unique_ptr.103", %"class.std::__cxx11::basic_string", %"class.std::__cxx11::basic_string", %"class.std::__cxx11::basic_string", i64, %"class.std::unique_ptr.115", %"class.std::__cxx11::basic_string", %"class.std::__cxx11::basic_string", i64, %"class.std::shared_ptr.123", %"class.std::shared_ptr.126", %"class.std::vector.129", %"class.std::vector.129", %"class.std::__cxx11::basic_string", i8, i32, i32, i8, i32, i32, i32, i32, %"class.node::AliasedBufferBase.45", %"class.node::AliasedBufferBase.35", i32, %"class.std::unique_ptr.134", %"class.node::AliasedBufferBase.45", i64, double, i64, %"class.std::unique_ptr.142", i8, i64, i64, %"class.std::unordered_set.150", %"class.std::unique_ptr.170", i8, %"class.std::__cxx11::list.178", %"class.node::ListHead", %"class.node::ListHead.183", %"class.std::__cxx11::list.185", i32, i32, %"class.node::EnabledDebugList", %"class.std::vector.190", %"class.std::__cxx11::list.195", %"class.node::MutexBase", %"class.std::__cxx11::list.200", %"class.node::CallbackQueue", %"class.node::MutexBase", %"class.node::CallbackQueue", %"class.node::CallbackQueue", i8, %"struct.std::atomic.215", %"class.node::CleanupQueue", i8, %"class.std::unordered_set.233", %"class.std::function", %"class.std::unique_ptr.248", %"class.node::builtins::BuiltinLoader", %"class.std::function.262", %"class.std::unordered_map.264" }
%"class.std::unordered_multimap" = type { %"class.std::_Hashtable.7" }
%"class.std::_Hashtable.7" = type { ptr, i64, %"struct.std::__detail::_Hash_node_base", i64, %"struct.std::__detail::_Prime_rehash_policy", ptr }
%"struct.std::__detail::_Hash_node_base" = type { ptr }
%"struct.std::__detail::_Prime_rehash_policy" = type { float, i64 }
%"class.std::__cxx11::list" = type { %"class.std::__cxx11::_List_base" }
%"class.std::__cxx11::_List_base" = type { %"struct.std::__cxx11::_List_base<node::binding::DLib, std::allocator<node::binding::DLib>>::_List_impl" }
%"struct.std::__cxx11::_List_base<node::binding::DLib, std::allocator<node::binding::DLib>>::_List_impl" = type { %"struct.std::__detail::_List_node_header" }
%"struct.std::__detail::_List_node_header" = type { %"struct.std::__detail::_List_node_base", i64 }
%"struct.std::__detail::_List_node_base" = type { ptr, ptr }
%struct.uv_timer_s = type { ptr, ptr, i32, ptr, %struct.uv__queue, %union.anon, ptr, i32, ptr, [3 x ptr], i64, i64, i64 }
%struct.uv__queue = type { ptr, ptr }
%union.anon = type { [4 x ptr] }
%struct.uv_idle_s = type { ptr, ptr, i32, ptr, %struct.uv__queue, %union.anon.30, ptr, i32, ptr, %struct.uv__queue }
%union.anon.30 = type { [4 x ptr] }
%struct.uv_prepare_s = type { ptr, ptr, i32, ptr, %struct.uv__queue, %union.anon.31, ptr, i32, ptr, %struct.uv__queue }
%union.anon.31 = type { [4 x ptr] }
%struct.uv_check_s = type { ptr, ptr, i32, ptr, %struct.uv__queue, %union.anon.29, ptr, i32, ptr, %struct.uv__queue }
%union.anon.29 = type { [4 x ptr] }
%struct.uv_async_s = type { ptr, ptr, i32, ptr, %struct.uv__queue, %union.anon.32, ptr, i32, ptr, %struct.uv__queue, i32 }
%union.anon.32 = type { [4 x ptr] }
%"struct.std::atomic" = type { %"struct.std::__atomic_base" }
%"struct.std::__atomic_base" = type { i8 }
%"class.node::AsyncHooks" = type { %"class.node::MemoryRetainer", %"class.node::AliasedBufferBase", %"class.node::AliasedBufferBase.35", %"class.node::AliasedBufferBase", %"class.v8::Global.38", %"class.std::vector", ptr, %"struct.std::array" }
%"class.node::AliasedBufferBase" = type { %"class.node::MemoryRetainer", ptr, i64, i64, ptr, %"class.v8::Global.33", ptr }
%"class.v8::Global.33" = type { %"class.v8::PersistentBase.34" }
%"class.v8::PersistentBase.34" = type { %"class.v8::IndirectHandleBase" }
%"class.v8::Global.38" = type { %"class.v8::PersistentBase.39" }
%"class.v8::PersistentBase.39" = type { %"class.v8::IndirectHandleBase" }
%"class.std::vector" = type { %"struct.std::_Vector_base" }
%"struct.std::_Vector_base" = type { %"struct.std::_Vector_base<v8::Local<v8::Object>, std::allocator<v8::Local<v8::Object>>>::_Vector_impl" }
%"struct.std::_Vector_base<v8::Local<v8::Object>, std::allocator<v8::Local<v8::Object>>>::_Vector_impl" = type { %"struct.std::_Vector_base<v8::Local<v8::Object>, std::allocator<v8::Local<v8::Object>>>::_Vector_impl_data" }
%"struct.std::_Vector_base<v8::Local<v8::Object>, std::allocator<v8::Local<v8::Object>>>::_Vector_impl_data" = type { ptr, ptr, ptr }
%"struct.std::array" = type { [4 x %"class.v8::Global.43"] }
%"class.v8::Global.43" = type { %"class.v8::PersistentBase.44" }
%"class.v8::PersistentBase.44" = type { %"class.v8::IndirectHandleBase" }
%"class.node::ImmediateInfo" = type { %"class.node::MemoryRetainer", %"class.node::AliasedBufferBase.35" }
%"class.node::TickInfo" = type { %"class.node::MemoryRetainer", %"class.node::AliasedBufferBase.48" }
%"class.node::AliasedBufferBase.48" = type { %"class.node::MemoryRetainer", ptr, i64, i64, ptr, %"class.v8::Global.49", ptr }
%"class.v8::Global.49" = type { %"class.v8::PersistentBase.50" }
%"class.v8::PersistentBase.50" = type { %"class.v8::IndirectHandleBase" }
%"class.node::permission::Permission" = type <{ %"class.std::unordered_map.51", i8, [7 x i8] }>
%"class.std::unordered_map.51" = type { %"class.std::_Hashtable.52" }
%"class.std::_Hashtable.52" = type { ptr, i64, %"struct.std::__detail::_Hash_node_base", i64, %"struct.std::__detail::_Prime_rehash_policy", ptr }
%"class.std::shared_ptr" = type { %"class.std::__shared_ptr" }
%"class.std::__shared_ptr" = type { ptr, %"class.std::__shared_count" }
%"class.std::__shared_count" = type { ptr }
%"class.std::vector.71" = type { %"struct.std::_Vector_base.72" }
%"struct.std::_Vector_base.72" = type { %"struct.std::_Vector_base<double, std::allocator<double>>::_Vector_impl" }
%"struct.std::_Vector_base<double, std::allocator<double>>::_Vector_impl" = type { %"struct.std::_Vector_base<double, std::allocator<double>>::_Vector_impl_data" }
%"struct.std::_Vector_base<double, std::allocator<double>>::_Vector_impl_data" = type { ptr, ptr, ptr }
%"class.std::unordered_set" = type { %"class.std::_Hashtable.76" }
%"class.std::_Hashtable.76" = type { ptr, i64, %"struct.std::__detail::_Hash_node_base", i64, %"struct.std::__detail::_Prime_rehash_policy", ptr }
%"class.std::unique_ptr.95" = type { %"struct.std::__uniq_ptr_data.96" }
%"struct.std::__uniq_ptr_data.96" = type { %"class.std::__uniq_ptr_impl.97" }
%"class.std::__uniq_ptr_impl.97" = type { %"class.std::tuple.98" }
%"class.std::tuple.98" = type { %"struct.std::_Tuple_impl.99" }
%"struct.std::_Tuple_impl.99" = type { %"struct.std::_Head_base.102" }
%"struct.std::_Head_base.102" = type { ptr }
%"class.std::unique_ptr.103" = type { %"struct.std::__uniq_ptr_data.104" }
%"struct.std::__uniq_ptr_data.104" = type { %"class.std::__uniq_ptr_impl.105" }
%"class.std::__uniq_ptr_impl.105" = type { %"class.std::tuple.106" }
%"class.std::tuple.106" = type { %"struct.std::_Tuple_impl.107" }
%"struct.std::_Tuple_impl.107" = type { %"struct.std::_Head_base.110" }
%"struct.std::_Head_base.110" = type { ptr }
%"class.std::unique_ptr.115" = type { %"struct.std::__uniq_ptr_data.116" }
%"struct.std::__uniq_ptr_data.116" = type { %"class.std::__uniq_ptr_impl.117" }
%"class.std::__uniq_ptr_impl.117" = type { %"class.std::tuple.118" }
%"class.std::tuple.118" = type { %"struct.std::_Tuple_impl.119" }
%"struct.std::_Tuple_impl.119" = type { %"struct.std::_Head_base.122" }
%"struct.std::_Head_base.122" = type { ptr }
%"class.std::shared_ptr.123" = type { %"class.std::__shared_ptr.124" }
%"class.std::__shared_ptr.124" = type { ptr, %"class.std::__shared_count" }
%"class.std::shared_ptr.126" = type { %"class.std::__shared_ptr.127" }
%"class.std::__shared_ptr.127" = type { ptr, %"class.std::__shared_count" }
%"class.std::vector.129" = type { %"struct.std::_Vector_base.130" }
%"struct.std::_Vector_base.130" = type { %"struct.std::_Vector_base<std::__cxx11::basic_string<char>, std::allocator<std::__cxx11::basic_string<char>>>::_Vector_impl" }
%"struct.std::_Vector_base<std::__cxx11::basic_string<char>, std::allocator<std::__cxx11::basic_string<char>>>::_Vector_impl" = type { %"struct.std::_Vector_base<std::__cxx11::basic_string<char>, std::allocator<std::__cxx11::basic_string<char>>>::_Vector_impl_data" }
%"struct.std::_Vector_base<std::__cxx11::basic_string<char>, std::allocator<std::__cxx11::basic_string<char>>>::_Vector_impl_data" = type { ptr, ptr, ptr }
%"class.std::__cxx11::basic_string" = type { %"struct.std::__cxx11::basic_string<char>::_Alloc_hider", i64, %union.anon.114 }
%"struct.std::__cxx11::basic_string<char>::_Alloc_hider" = type { ptr }
%union.anon.114 = type { i64, [8 x i8] }
%"class.node::AliasedBufferBase.35" = type { %"class.node::MemoryRetainer", ptr, i64, i64, ptr, %"class.v8::Global.36", ptr }
%"class.v8::Global.36" = type { %"class.v8::PersistentBase.37" }
%"class.v8::PersistentBase.37" = type { %"class.v8::IndirectHandleBase" }
%"class.std::unique_ptr.134" = type { %"struct.std::__uniq_ptr_data.135" }
%"struct.std::__uniq_ptr_data.135" = type { %"class.std::__uniq_ptr_impl.136" }
%"class.std::__uniq_ptr_impl.136" = type { %"class.std::tuple.137" }
%"class.std::tuple.137" = type { %"struct.std::_Tuple_impl.138" }
%"struct.std::_Tuple_impl.138" = type { %"struct.std::_Head_base.141" }
%"struct.std::_Head_base.141" = type { ptr }
%"class.node::AliasedBufferBase.45" = type { %"class.node::MemoryRetainer", ptr, i64, i64, ptr, %"class.v8::Global.46", ptr }
%"class.v8::Global.46" = type { %"class.v8::PersistentBase.47" }
%"class.v8::PersistentBase.47" = type { %"class.v8::IndirectHandleBase" }
%"class.std::unique_ptr.142" = type { %"struct.std::__uniq_ptr_data.143" }
%"struct.std::__uniq_ptr_data.143" = type { %"class.std::__uniq_ptr_impl.144" }
%"class.std::__uniq_ptr_impl.144" = type { %"class.std::tuple.145" }
%"class.std::tuple.145" = type { %"struct.std::_Tuple_impl.146" }
%"struct.std::_Tuple_impl.146" = type { %"struct.std::_Head_base.149" }
%"struct.std::_Head_base.149" = type { ptr }
%"class.std::unordered_set.150" = type { %"class.std::_Hashtable.151" }
%"class.std::_Hashtable.151" = type { ptr, i64, %"struct.std::__detail::_Hash_node_base", i64, %"struct.std::__detail::_Prime_rehash_policy", ptr }
%"class.std::unique_ptr.170" = type { %"struct.std::__uniq_ptr_data.171" }
%"struct.std::__uniq_ptr_data.171" = type { %"class.std::__uniq_ptr_impl.172" }
%"class.std::__uniq_ptr_impl.172" = type { %"class.std::tuple.173" }
%"class.std::tuple.173" = type { %"struct.std::_Tuple_impl.174" }
%"struct.std::_Tuple_impl.174" = type { %"struct.std::_Head_base.177" }
%"struct.std::_Head_base.177" = type { ptr }
%"class.std::__cxx11::list.178" = type { %"class.std::__cxx11::_List_base.179" }
%"class.std::__cxx11::_List_base.179" = type { %"struct.std::__cxx11::_List_base<node::DeserializeRequest, std::allocator<node::DeserializeRequest>>::_List_impl" }
%"struct.std::__cxx11::_List_base<node::DeserializeRequest, std::allocator<node::DeserializeRequest>>::_List_impl" = type { %"struct.std::__detail::_List_node_header" }
%"class.node::ListHead" = type { %"class.node::ListNode" }
%"class.node::ListNode" = type { ptr, ptr }
%"class.node::ListHead.183" = type { %"class.node::ListNode.184" }
%"class.node::ListNode.184" = type { ptr, ptr }
%"class.std::__cxx11::list.185" = type { %"class.std::__cxx11::_List_base.186" }
%"class.std::__cxx11::_List_base.186" = type { %"struct.std::__cxx11::_List_base<node::Environment::HandleCleanup, std::allocator<node::Environment::HandleCleanup>>::_List_impl" }
%"struct.std::__cxx11::_List_base<node::Environment::HandleCleanup, std::allocator<node::Environment::HandleCleanup>>::_List_impl" = type { %"struct.std::__detail::_List_node_header" }
%"class.node::EnabledDebugList" = type { [75 x i8] }
%"class.std::vector.190" = type { %"struct.std::_Vector_base.191" }
%"struct.std::_Vector_base.191" = type { %"struct.std::_Vector_base<v8::Global<v8::Context>, std::allocator<v8::Global<v8::Context>>>::_Vector_impl" }
%"struct.std::_Vector_base<v8::Global<v8::Context>, std::allocator<v8::Global<v8::Context>>>::_Vector_impl" = type { %"struct.std::_Vector_base<v8::Global<v8::Context>, std::allocator<v8::Global<v8::Context>>>::_Vector_impl_data" }
%"struct.std::_Vector_base<v8::Global<v8::Context>, std::allocator<v8::Global<v8::Context>>>::_Vector_impl_data" = type { ptr, ptr, ptr }
%"class.std::__cxx11::list.195" = type { %"class.std::__cxx11::_List_base.196" }
%"class.std::__cxx11::_List_base.196" = type { %"struct.std::__cxx11::_List_base<node::node_module, std::allocator<node::node_module>>::_List_impl" }
%"struct.std::__cxx11::_List_base<node::node_module, std::allocator<node::node_module>>::_List_impl" = type { %"struct.std::__detail::_List_node_header" }
%"class.std::__cxx11::list.200" = type { %"class.std::__cxx11::_List_base.201" }
%"class.std::__cxx11::_List_base.201" = type { %"struct.std::__cxx11::_List_base<node::Environment::ExitCallback, std::allocator<node::Environment::ExitCallback>>::_List_impl" }
%"struct.std::__cxx11::_List_base<node::Environment::ExitCallback, std::allocator<node::Environment::ExitCallback>>::_List_impl" = type { %"struct.std::__detail::_List_node_header" }
%"class.node::MutexBase" = type { %union.pthread_mutex_t }
%union.pthread_mutex_t = type { %struct.__pthread_mutex_s }
%struct.__pthread_mutex_s = type { i32, i32, i32, i32, i32, i16, i16, %struct.__pthread_internal_list }
%struct.__pthread_internal_list = type { ptr, ptr }
%"class.node::CallbackQueue" = type { %"struct.std::atomic.205", %"class.std::unique_ptr.207", ptr }
%"struct.std::atomic.205" = type { %"struct.std::__atomic_base.206" }
%"struct.std::__atomic_base.206" = type { i64 }
%"class.std::unique_ptr.207" = type { %"struct.std::__uniq_ptr_data.208" }
%"struct.std::__uniq_ptr_data.208" = type { %"class.std::__uniq_ptr_impl.209" }
%"class.std::__uniq_ptr_impl.209" = type { %"class.std::tuple.210" }
%"class.std::tuple.210" = type { %"struct.std::_Tuple_impl.211" }
%"struct.std::_Tuple_impl.211" = type { %"struct.std::_Head_base.214" }
%"struct.std::_Head_base.214" = type { ptr }
%"struct.std::atomic.215" = type { %"struct.std::__atomic_base.216" }
%"struct.std::__atomic_base.216" = type { ptr }
%"class.node::CleanupQueue" = type { %"class.node::MemoryRetainer", %"class.std::unordered_set.217", i64 }
%"class.std::unordered_set.217" = type { %"class.std::_Hashtable.218" }
%"class.std::_Hashtable.218" = type { ptr, i64, %"struct.std::__detail::_Hash_node_base", i64, %"struct.std::__detail::_Prime_rehash_policy", ptr }
%"class.std::unordered_set.233" = type { %"class.std::_Hashtable.234" }
%"class.std::_Hashtable.234" = type { ptr, i64, %"struct.std::__detail::_Hash_node_base", i64, %"struct.std::__detail::_Prime_rehash_policy", ptr }
%"class.std::function" = type { %"class.std::_Function_base", ptr }
%"class.std::_Function_base" = type { %"union.std::_Any_data", ptr }
%"union.std::_Any_data" = type { %"union.std::_Nocopy_types" }
%"union.std::_Nocopy_types" = type { { i64, i64 } }
%"class.std::unique_ptr.248" = type { %"struct.std::__uniq_ptr_data.249" }
%"struct.std::__uniq_ptr_data.249" = type { %"class.std::__uniq_ptr_impl.250" }
%"class.std::__uniq_ptr_impl.250" = type { %"class.std::tuple.251" }
%"class.std::tuple.251" = type { %"struct.std::_Tuple_impl.252" }
%"struct.std::_Tuple_impl.252" = type { %"struct.std::_Head_base.255" }
%"struct.std::_Head_base.255" = type { ptr }
%"class.node::builtins::BuiltinLoader" = type { %"class.node::ThreadsafeCopyOnWrite", %"class.node::UnionBytes", %"class.std::shared_ptr.259" }
%"class.node::ThreadsafeCopyOnWrite" = type { %"class.node::CopyOnWrite" }
%"class.node::CopyOnWrite" = type { %"class.std::shared_ptr.256" }
%"class.std::shared_ptr.256" = type { %"class.std::__shared_ptr.257" }
%"class.std::__shared_ptr.257" = type { ptr, %"class.std::__shared_count" }
%"class.node::UnionBytes" = type { ptr, ptr }
%"class.std::shared_ptr.259" = type { %"class.std::__shared_ptr.260" }
%"class.std::__shared_ptr.260" = type { ptr, %"class.std::__shared_count" }
%"class.std::function.262" = type { %"class.std::_Function_base", ptr }
%"class.std::unordered_map.264" = type { %"class.std::_Hashtable.265" }
%"class.std::_Hashtable.265" = type { ptr, i64, %"struct.std::__detail::_Hash_node_base", i64, %"struct.std::__detail::_Prime_rehash_policy", ptr }
%"class.v8::FunctionCallbackInfo" = type <{ ptr, ptr, i32, [4 x i8] }>
%"class.v8::LocalBase.472" = type { %"class.v8::IndirectHandleBase" }
%"class.v8::Local.471" = type { %"class.v8::LocalBase.472" }
%"class.node::Utf8Value" = type { %"class.node::MaybeStackBuffer" }
%"class.node::MaybeStackBuffer" = type { i64, i64, ptr, [1024 x i8] }
%class.anon = type { i8 }
%"class.v8::Local.333" = type { %"class.v8::LocalBase.334" }
%"class.v8::LocalBase.334" = type { %"class.v8::IndirectHandleBase" }
%"class.v8::Local.325" = type { %"class.v8::LocalBase.326" }
%"class.v8::LocalBase.326" = type { %"class.v8::IndirectHandleBase" }
%"class.v8::ReturnValue" = type { ptr }
%"struct.node::crypto::ClearErrorOnReturn" = type { i8 }
%"class.node::crypto::ManagedEVPPKey" = type { %"class.node::MemoryRetainer", %"class.std::unique_ptr.313", %"class.std::shared_ptr.321" }
%"class.std::unique_ptr.313" = type { %"struct.std::__uniq_ptr_data.314" }
%"struct.std::__uniq_ptr_data.314" = type { %"class.std::__uniq_ptr_impl.315" }
%"class.std::__uniq_ptr_impl.315" = type { %"class.std::tuple.316" }
%"class.std::tuple.316" = type { %"struct.std::_Tuple_impl.317" }
%"struct.std::_Tuple_impl.317" = type { %"struct.std::_Head_base.320" }
%"struct.std::_Head_base.320" = type { ptr }
%"class.std::shared_ptr.321" = type { %"class.std::__shared_ptr.322" }
%"class.std::__shared_ptr.322" = type { ptr, %"class.std::__shared_count" }
%"class.v8::Maybe.324" = type { i8, i32 }
%"struct.node::crypto::Sign::SignResult" = type { i32, %"class.std::unique_ptr.305" }
%"class.std::unique_ptr.305" = type { %"struct.std::__uniq_ptr_data.306" }
%"struct.std::__uniq_ptr_data.306" = type { %"class.std::__uniq_ptr_impl.307" }
%"class.std::__uniq_ptr_impl.307" = type { %"class.std::tuple.308" }
%"class.std::tuple.308" = type { %"struct.std::_Tuple_impl.309" }
%"struct.std::_Tuple_impl.309" = type { %"struct.std::_Head_base.312" }
%"struct.std::_Head_base.312" = type { ptr }
%"class.v8::Local.327" = type { %"class.v8::LocalBase.328" }
%"class.v8::LocalBase.328" = type { %"class.v8::IndirectHandleBase" }
%"class.std::shared_ptr.329" = type { %"class.std::__shared_ptr.330" }
%"class.std::__shared_ptr.330" = type { ptr, %"class.std::__shared_count" }
%"class.v8::MaybeLocal.332" = type { %"class.v8::Local.333" }
%"class.v8::HandleScope" = type { ptr, ptr, ptr }
%"class.node::StringBytes::InlineDecoder" = type { %"class.node::MaybeStackBuffer" }
%"class.node::ArrayBufferViewContents" = type <{ [64 x i8], ptr, i64, i8, [7 x i8] }>
%"class.node::NoArrayBufferZeroFillScope" = type { ptr }
%"class.std::unique_ptr.337" = type { %"struct.std::__uniq_ptr_data.338" }
%"struct.std::__uniq_ptr_data.338" = type { %"class.std::__uniq_ptr_impl.339" }
%"class.std::__uniq_ptr_impl.339" = type { %"class.std::tuple.340" }
%"class.std::tuple.340" = type { %"struct.std::_Tuple_impl.341" }
%"struct.std::_Tuple_impl.341" = type { %"struct.std::_Head_base.344" }
%"struct.std::_Head_base.344" = type { ptr }
%class.anon.335 = type { i8 }
%"class.node::crypto::ArrayBufferOrViewContents" = type { i8, i64, i64, ptr }
%"class.node::crypto::ByteSource" = type { ptr, ptr, i64 }
%"class.v8::Local.509" = type { %"class.v8::LocalBase.510" }
%"class.v8::LocalBase.510" = type { %"class.v8::IndirectHandleBase" }
%"class.v8::Local.507" = type { %"class.v8::LocalBase.508" }
%"class.v8::LocalBase.508" = type { %"class.v8::IndirectHandleBase" }
%"class.std::unique_ptr.441" = type { %"struct.std::__uniq_ptr_data.442" }
%"struct.std::__uniq_ptr_data.442" = type { %"class.std::__uniq_ptr_impl.443" }
%"class.std::__uniq_ptr_impl.443" = type { %"class.std::tuple.444" }
%"class.std::tuple.444" = type { %"struct.std::_Tuple_impl.445" }
%"struct.std::_Tuple_impl.445" = type { %"struct.std::_Head_base.448" }
%"struct.std::_Head_base.448" = type { ptr }
%"struct.node::crypto::SignConfiguration" = type { %"class.node::MemoryRetainer", i32, i32, %"class.node::crypto::ManagedEVPPKey", %"class.node::crypto::ByteSource", %"class.node::crypto::ByteSource", ptr, i32, i32, i32, i32 }
%"class.v8::Local.345" = type { %"class.v8::LocalBase.346" }
%"class.v8::LocalBase.346" = type { %"class.v8::IndirectHandleBase" }
%"class.node::MutexBase<node::LibuvMutexTraits>::ScopedLock" = type { ptr }
%"class.node::crypto::ByteSource::Builder" = type { ptr, i64 }
%"class.std::optional" = type { %"struct.std::_Optional_base" }
%"struct.std::_Optional_base" = type { %"struct.std::_Optional_payload" }
%"struct.std::_Optional_payload" = type { %"struct.std::_Optional_payload_base.base", [7 x i8] }
%"struct.std::_Optional_payload_base.base" = type <{ %"union.std::_Optional_payload_base<unsigned long>::_Storage", i8 }>
%"union.std::_Optional_payload_base<unsigned long>::_Storage" = type { i64 }
%"class.v8::LocalBase.348" = type { %"class.v8::IndirectHandleBase" }
%"class.v8::Local.347" = type { %"class.v8::LocalBase.348" }
%"class.std::unique_ptr.365" = type { %"struct.std::__uniq_ptr_data.366" }
%"struct.std::__uniq_ptr_data.366" = type { %"class.std::__uniq_ptr_impl.367" }
%"class.std::__uniq_ptr_impl.367" = type { %"class.std::tuple.368" }
%"class.std::tuple.368" = type { %"struct.std::_Tuple_impl.369" }
%"struct.std::_Tuple_impl.369" = type { %"struct.std::_Head_base.372" }
%"struct.std::_Head_base.372" = type { ptr }
%"class.node::MemoryTracker" = type { ptr, ptr, %"class.std::stack", %"class.std::unordered_map" }
%"class.std::stack" = type { %"class.std::deque" }
%"class.std::deque" = type { %"class.std::_Deque_base" }
%"class.std::_Deque_base" = type { %"struct.std::_Deque_base<node::MemoryRetainerNode *, std::allocator<node::MemoryRetainerNode *>>::_Deque_impl" }
%"struct.std::_Deque_base<node::MemoryRetainerNode *, std::allocator<node::MemoryRetainerNode *>>::_Deque_impl" = type { %"struct.std::_Deque_base<node::MemoryRetainerNode *, std::allocator<node::MemoryRetainerNode *>>::_Deque_impl_data" }
%"struct.std::_Deque_base<node::MemoryRetainerNode *, std::allocator<node::MemoryRetainerNode *>>::_Deque_impl_data" = type { ptr, i64, %"struct.std::_Deque_iterator", %"struct.std::_Deque_iterator" }
%"struct.std::_Deque_iterator" = type { ptr, ptr, ptr, ptr }
%"class.std::unordered_map" = type { %"class.std::_Hashtable" }
%"class.std::_Hashtable" = type { ptr, i64, %"struct.std::__detail::_Hash_node_base", i64, %"struct.std::__detail::_Prime_rehash_policy", ptr }
%"class.node::MemoryRetainerNode" = type <{ %"class.v8::EmbedderGraph::Node", ptr, ptr, i8, [7 x i8], ptr, i64, i8, [7 x i8] }>
%"class.v8::EmbedderGraph::Node" = type { ptr }
%"struct.std::_Deque_iterator.373" = type { ptr, ptr, ptr, ptr }
%"class.node::ExternalReferenceRegistry" = type { i8, %"class.std::vector.300" }
%"class.std::vector.300" = type { %"struct.std::_Vector_base.301" }
%"struct.std::_Vector_base.301" = type { %"struct.std::_Vector_base<long, std::allocator<long>>::_Vector_impl" }
%"struct.std::_Vector_base<long, std::allocator<long>>::_Vector_impl" = type { %"struct.std::_Vector_base<long, std::allocator<long>>::_Vector_impl_data" }
%"struct.std::_Vector_base<long, std::allocator<long>>::_Vector_impl_data" = type { ptr, ptr, ptr }
%"class.__gnu_cxx::__normal_iterator" = type { ptr }
%"class.v8::MaybeLocal.374" = type { %"class.v8::Local" }
%"class.std::allocator.111" = type { i8 }
%struct._Guard = type { ptr }
%"class.node::IsolateData" = type { %"class.node::MemoryRetainer", i64, %"class.std::unordered_map.377", %"class.v8::Eternal", %"class.v8::Eternal", %"class.v8::Eternal", %"class.v8::Eternal", %"class.v8::Eternal", %"class.v8::Eternal", %"class.v8::Eternal", %"class.v8::Eternal", %"class.v8::Eternal", %"class.v8::Eternal", %"class.v8::Eternal", %"class.v8::Eternal", %"class.v8::Eternal.397", %"class.v8::Eternal.397", %"class.v8::Eternal.397", %"class.v8::Eternal.397", %"class.v8::Eternal.397", %"class.v8::Eternal.397", %"class.v8::Eternal.397", %"class.v8::Eternal.397", %"class.v8::Eternal.397", %"class.v8::Eternal.397", %"class.v8::Eternal.397", %"class.v8::Eternal.397", %"class.v8::Eternal.397", %"class.v8::Eternal.397", %"class.v8::Eternal.397", %"class.v8::Eternal.398", %"class.v8::Eternal.398", %"class.v8::Eternal.398", %"class.v8::Eternal.398", %"class.v8::Eternal.398", %"class.v8::Eternal.398", %"class.v8::Eternal.398", %"class.v8::Eternal.398", %"class.v8::Eternal.398", %"class.v8::Eternal.398", %"class.v8::Eternal.398", %"class.v8::Eternal.398", %"class.v8::Eternal.398", %"class.v8::Eternal.398", %"class.v8::Eternal.398", %"class.v8::Eternal.398", %"class.v8::Eternal.398", %"class.v8::Eternal.398", %"class.v8::Eternal.398", %"class.v8::Eternal.398", %"class.v8::Eternal.398", %"class.v8::Eternal.398", %"class.v8::Eternal.398", %"class.v8::Eternal.398", %"class.v8::Eternal.398", %"class.v8::Eternal.398", %"class.v8::Eternal.398", %"class.v8::Eternal.398", %"class.v8::Eternal.398", %"class.v8::Eternal.398", %"class.v8::Eternal.398", %"class.v8::Eternal.398", %"class.v8::Eternal.398", %"class.v8::Eternal.398", %"class.v8::Eternal.398", %"class.v8::Eternal.398", %"class.v8::Eternal.398", %"class.v8::Eternal.398", %"class.v8::Eternal.398", %"class.v8::Eternal.398", %"class.v8::Eternal.398", %"class.v8::Eternal.398", %"class.v8::Eternal.398", %"class.v8::Eternal.398", %"class.v8::Eternal.398", %"class.v8::Eternal.398", %"class.v8::Eternal.398", %"class.v8::Eternal.398", %"class.v8::Eternal.398", %"class.v8::Eternal.398", %"class.v8::Eternal.398", %"class.v8::Eternal.398", %"class.v8::Eternal.398", %"class.v8::Eternal.398", %"class.v8::Eternal.398", %"class.v8::Eternal.398", %"class.v8::Eternal.398", %"class.v8::Eternal.398", %"class.v8::Eternal.398", %"class.v8::Eternal.398", %"class.v8::Eternal.398", %"class.v8::Eternal.398", %"class.v8::Eternal.398", %"class.v8::Eternal.398", %"class.v8::Eternal.398", %"class.v8::Eternal.398", %"class.v8::Eternal.398", %"class.v8::Eternal.398", %"class.v8::Eternal.398", %"class.v8::Eternal.398", %"class.v8::Eternal.398", %"class.v8::Eternal.398", %"class.v8::Eternal.398", %"class.v8::Eternal.398", %"class.v8::Eternal.398", %"class.v8::Eternal.398", %"class.v8::Eternal.398", %"class.v8::Eternal.398", %"class.v8::Eternal.398", %"class.v8::Eternal.398", %"class.v8::Eternal.398", %"class.v8::Eternal.398", %"class.v8::Eternal.398", %"class.v8::Eternal.398", %"class.v8::Eternal.398", %"class.v8::Eternal.398", %"class.v8::Eternal.398", %"class.v8::Eternal.398", %"class.v8::Eternal.398", %"class.v8::Eternal.398", %"class.v8::Eternal.398", %"class.v8::Eternal.398", %"class.v8::Eternal.398", %"class.v8::Eternal.398", %"class.v8::Eternal.398", %"class.v8::Eternal.398", %"class.v8::Eternal.398", %"class.v8::Eternal.398", %"class.v8::Eternal.398", %"class.v8::Eternal.398", %"class.v8::Eternal.398", %"class.v8::Eternal.398", %"class.v8::Eternal.398", %"class.v8::Eternal.398", %"class.v8::Eternal.398", %"class.v8::Eternal.398", %"class.v8::Eternal.398", %"class.v8::Eternal.398", %"class.v8::Eternal.398", %"class.v8::Eternal.398", %"class.v8::Eternal.398", %"class.v8::Eternal.398", %"class.v8::Eternal.398", %"class.v8::Eternal.398", %"class.v8::Eternal.398", %"class.v8::Eternal.398", %"class.v8::Eternal.398", %"class.v8::Eternal.398", %"class.v8::Eternal.398", %"class.v8::Eternal.398", %"class.v8::Eternal.398", %"class.v8::Eternal.398", %"class.v8::Eternal.398", %"class.v8::Eternal.398", %"class.v8::Eternal.398", %"class.v8::Eternal.398", %"class.v8::Eternal.398", %"class.v8::Eternal.398", %"class.v8::Eternal.398", %"class.v8::Eternal.398", %"class.v8::Eternal.398", %"class.v8::Eternal.398", %"class.v8::Eternal.398", %"class.v8::Eternal.398", %"class.v8::Eternal.398", %"class.v8::Eternal.398", %"class.v8::Eternal.398", %"class.v8::Eternal.398", %"class.v8::Eternal.398", %"class.v8::Eternal.398", %"class.v8::Eternal.398", %"class.v8::Eternal.398", %"class.v8::Eternal.398", %"class.v8::Eternal.398", %"class.v8::Eternal.398", %"class.v8::Eternal.398", %"class.v8::Eternal.398", %"class.v8::Eternal.398", %"class.v8::Eternal.398", %"class.v8::Eternal.398", %"class.v8::Eternal.398", %"class.v8::Eternal.398", %"class.v8::Eternal.398", %"class.v8::Eternal.398", %"class.v8::Eternal.398", %"class.v8::Eternal.398", %"class.v8::Eternal.398", %"class.v8::Eternal.398", %"class.v8::Eternal.398", %"class.v8::Eternal.398", %"class.v8::Eternal.398", %"class.v8::Eternal.398", %"class.v8::Eternal.398", %"class.v8::Eternal.398", %"class.v8::Eternal.398", %"class.v8::Eternal.398", %"class.v8::Eternal.398", %"class.v8::Eternal.398", %"class.v8::Eternal.398", %"class.v8::Eternal.398", %"class.v8::Eternal.398", %"class.v8::Eternal.398", %"class.v8::Eternal.398", %"class.v8::Eternal.398", %"class.v8::Eternal.398", %"class.v8::Eternal.398", %"class.v8::Eternal.398", %"class.v8::Eternal.398", %"class.v8::Eternal.398", %"class.v8::Eternal.398", %"class.v8::Eternal.398", %"class.v8::Eternal.398", %"class.v8::Eternal.398", %"class.v8::Eternal.398", %"class.v8::Eternal.398", %"class.v8::Eternal.398", %"class.v8::Eternal.398", %"class.v8::Eternal.398", %"class.v8::Eternal.398", %"class.v8::Eternal.398", %"class.v8::Eternal.398", %"class.v8::Eternal.398", %"class.v8::Eternal.398", %"class.v8::Eternal.398", %"class.v8::Eternal.398", %"class.v8::Eternal.398", %"class.v8::Eternal.398", %"class.v8::Eternal.398", %"class.v8::Eternal.398", %"class.v8::Eternal.398", %"class.v8::Eternal.398", %"class.v8::Eternal.398", %"class.v8::Eternal.398", %"class.v8::Eternal.398", %"class.v8::Eternal.398", %"class.v8::Eternal.398", %"class.v8::Eternal.398", %"class.v8::Eternal.398", %"class.v8::Eternal.398", %"class.v8::Eternal.398", %"class.v8::Eternal.398", %"class.v8::Eternal.398", %"class.v8::Eternal.398", %"class.v8::Eternal.398", %"class.v8::Eternal.398", %"class.v8::Eternal.398", %"class.v8::Eternal.398", %"class.v8::Eternal.398", %"class.v8::Eternal.398", %"class.v8::Eternal.398", %"class.v8::Eternal.398", %"class.v8::Eternal.398", %"class.v8::Eternal.398", %"class.v8::Eternal.398", %"class.v8::Eternal.398", %"class.v8::Eternal.398", %"class.v8::Eternal.398", %"class.v8::Eternal.398", %"class.v8::Eternal.398", %"class.v8::Eternal.398", %"class.v8::Eternal.398", %"class.v8::Eternal.398", %"class.v8::Eternal.398", %"class.v8::Eternal.398", %"class.v8::Eternal.398", %"class.v8::Eternal.398", %"class.v8::Eternal.398", %"class.v8::Eternal.398", %"class.v8::Eternal.398", %"class.v8::Eternal.398", %"class.v8::Eternal.398", %"class.v8::Eternal.398", %"class.v8::Eternal.398", %"class.v8::Eternal.398", %"class.v8::Eternal.398", %"class.v8::Eternal.398", %"class.v8::Eternal.398", %"class.v8::Eternal.398", %"class.v8::Eternal.398", %"class.v8::Eternal.398", %"class.v8::Eternal.398", %"class.v8::Eternal.398", %"class.v8::Eternal.398", %"class.v8::Eternal.398", %"class.v8::Eternal.398", %"class.v8::Eternal.398", %"class.v8::Eternal.398", %"class.v8::Eternal.398", %"class.v8::Eternal.398", %"class.v8::Eternal.398", %"class.v8::Eternal.398", %"class.v8::Eternal.398", %"class.v8::Eternal.398", %"class.v8::Eternal.398", %"class.v8::Eternal.398", %"class.v8::Eternal.398", %"class.v8::Eternal.398", %"class.v8::Eternal.398", %"class.v8::Eternal.398", %"class.v8::Eternal.398", %"class.v8::Eternal.398", %"class.v8::Eternal.398", %"class.v8::Eternal.398", %"class.v8::Eternal.398", %"class.v8::Eternal.398", %"class.v8::Eternal.398", %"class.v8::Eternal.398", %"class.v8::Eternal.398", %"class.v8::Eternal.398", %"class.v8::Eternal.398", %"class.v8::Eternal.398", %"class.v8::Eternal.398", %"class.v8::Eternal.398", %"class.v8::Eternal.398", %"class.v8::Eternal.398", %"class.v8::Eternal.399", %"class.v8::Eternal.399", %"class.v8::Eternal.400", %"class.v8::Eternal.399", %"class.v8::Eternal.399", %"class.v8::Eternal.399", %"class.v8::Eternal.400", %"class.v8::Eternal.400", %"class.v8::Eternal.399", %"class.v8::Eternal.400", %"class.v8::Eternal.399", %"class.v8::Eternal.400", %"class.v8::Eternal.400", %"class.v8::Eternal.400", %"class.v8::Eternal.399", %"class.v8::Eternal.400", %"class.v8::Eternal.400", %"class.v8::Eternal.399", %"class.v8::Eternal.399", %"class.v8::Eternal.400", %"class.v8::Eternal.400", %"class.v8::Eternal.400", %"class.v8::Eternal.400", %"class.v8::Eternal.399", %"class.v8::Eternal.399", %"class.v8::Eternal.399", %"class.v8::Eternal.399", %"class.v8::Eternal.399", %"class.v8::Eternal.399", %"class.v8::Eternal.400", %"class.v8::Eternal.399", %"class.v8::Eternal.399", %"class.v8::Eternal.399", %"class.v8::Eternal.400", %"class.v8::Eternal.399", %"class.v8::Eternal.399", %"class.v8::Eternal.400", %"class.v8::Eternal.399", %"class.v8::Eternal.399", %"class.v8::Eternal.400", %"class.v8::Eternal.399", %"class.v8::Eternal.399", %"class.v8::Eternal.400", %"class.v8::Eternal.400", %"class.v8::Eternal.399", %"class.v8::Eternal", %"class.v8::Eternal", %"class.v8::Eternal", %"class.v8::Eternal", %"class.v8::Eternal", %"class.v8::Eternal", %"class.v8::Eternal", %"class.v8::Eternal", %"class.v8::Eternal", %"class.v8::Eternal", %"class.v8::Eternal", %"class.v8::Eternal", %"class.v8::Eternal", %"class.v8::Eternal", %"class.v8::Eternal", %"class.v8::Eternal", %"class.v8::Eternal", %"class.v8::Eternal", %"class.v8::Eternal", %"class.v8::Eternal", %"class.v8::Eternal", %"class.v8::Eternal", %"class.v8::Eternal", %"class.v8::Eternal", %"class.v8::Eternal", %"class.v8::Eternal", %"class.v8::Eternal", %"class.v8::Eternal", %"class.v8::Eternal", %"class.v8::Eternal", %"class.v8::Eternal", %"class.v8::Eternal", %"class.v8::Eternal", %"class.v8::Eternal", %"class.v8::Eternal", %"class.v8::Eternal", %"class.v8::Eternal", %"class.v8::Eternal", %"class.v8::Eternal", %"class.v8::Eternal", %"class.v8::Eternal", %"class.v8::Eternal", %"class.v8::Eternal", %"class.v8::Eternal", %"class.v8::Eternal", %"class.v8::Eternal", %"class.v8::Eternal", %"class.v8::Eternal", %"class.v8::Eternal", %"class.v8::Eternal", %"class.v8::Eternal", %"class.v8::Eternal", %"class.v8::Eternal", %"class.v8::Eternal", %"class.v8::Eternal", %"class.v8::Eternal", %"class.v8::Eternal", %"class.v8::Eternal", %"class.v8::Eternal", %"class.v8::Eternal", %"class.v8::Eternal.400", %"class.v8::Eternal.400", %"class.v8::Eternal.400", %"class.v8::Eternal.400", %"class.v8::Eternal.400", %"class.v8::Eternal.400", %"class.v8::Eternal.400", %"class.v8::Eternal.400", %"class.v8::Eternal.400", %"class.v8::Eternal.400", %"class.v8::Eternal.400", %"class.v8::Eternal.400", %"class.v8::Eternal.400", %"class.v8::Eternal.400", %"class.v8::Eternal.400", %"class.v8::Eternal.400", %"class.v8::Eternal.400", %"struct.std::array.401", ptr, ptr, ptr, ptr, ptr, %"class.std::optional.402", %"class.std::unique_ptr.422", %"class.std::shared_ptr.430", ptr, ptr }
%"class.std::unordered_map.377" = type { %"class.std::_Hashtable.378" }
%"class.std::_Hashtable.378" = type { ptr, i64, %"struct.std::__detail::_Hash_node_base", i64, %"struct.std::__detail::_Prime_rehash_policy", ptr }
%"class.v8::Eternal.397" = type { %"class.v8::IndirectHandleBase" }
%"class.v8::Eternal.398" = type { %"class.v8::IndirectHandleBase" }
%"class.v8::Eternal.399" = type { %"class.v8::IndirectHandleBase" }
%"class.v8::Eternal" = type { %"class.v8::IndirectHandleBase" }
%"class.v8::Eternal.400" = type { %"class.v8::IndirectHandleBase" }
%"struct.std::array.401" = type { [64 x %"class.v8::Eternal.398"] }
%"class.std::optional.402" = type { %"struct.std::_Optional_base.403" }
%"struct.std::_Optional_base.403" = type { %"struct.std::_Optional_payload.405" }
%"struct.std::_Optional_payload.405" = type { %"struct.std::_Optional_payload.base.419", [7 x i8] }
%"struct.std::_Optional_payload.base.419" = type { %"struct.std::_Optional_payload_base.base.418" }
%"struct.std::_Optional_payload_base.base.418" = type <{ %"union.std::_Optional_payload_base<node::SnapshotConfig>::_Storage", i8 }>
%"union.std::_Optional_payload_base<node::SnapshotConfig>::_Storage" = type { %"struct.node::SnapshotConfig" }
%"struct.node::SnapshotConfig" = type { i32, [4 x i8], %"class.std::optional.408" }
%"class.std::optional.408" = type { %"struct.std::_Optional_base.409" }
%"struct.std::_Optional_base.409" = type { %"struct.std::_Optional_payload.411" }
%"struct.std::_Optional_payload.411" = type { %"struct.std::_Optional_payload.base.415", [7 x i8] }
%"struct.std::_Optional_payload.base.415" = type { %"struct.std::_Optional_payload_base.base.414" }
%"struct.std::_Optional_payload_base.base.414" = type <{ %"union.std::_Optional_payload_base<std::__cxx11::basic_string<char>>::_Storage", i8 }>
%"union.std::_Optional_payload_base<std::__cxx11::basic_string<char>>::_Storage" = type { %"class.std::__cxx11::basic_string" }
%"class.std::unique_ptr.422" = type { %"struct.std::__uniq_ptr_data.423" }
%"struct.std::__uniq_ptr_data.423" = type { %"class.std::__uniq_ptr_impl.424" }
%"class.std::__uniq_ptr_impl.424" = type { %"class.std::tuple.425" }
%"class.std::tuple.425" = type { %"struct.std::_Tuple_impl.426" }
%"struct.std::_Tuple_impl.426" = type { %"struct.std::_Head_base.429" }
%"struct.std::_Head_base.429" = type { ptr }
%"class.std::shared_ptr.430" = type { %"class.std::__shared_ptr.431" }
%"class.std::__shared_ptr.431" = type { ptr, %"class.std::__shared_count" }
%"class.node::NodeArrayBufferAllocator" = type { %"class.node::ArrayBufferAllocator", i32, %"struct.std::atomic.205", %"class.std::unique_ptr.433" }
%"class.node::ArrayBufferAllocator" = type { %"class.v8::ArrayBuffer::Allocator" }
%"class.v8::ArrayBuffer::Allocator" = type { ptr }
%"class.std::unique_ptr.433" = type { %"struct.std::__uniq_ptr_data.434" }
%"struct.std::__uniq_ptr_data.434" = type { %"class.std::__uniq_ptr_impl.435" }
%"class.std::__uniq_ptr_impl.435" = type { %"class.std::tuple.436" }
%"class.std::tuple.436" = type { %"struct.std::_Tuple_impl.437" }
%"struct.std::_Tuple_impl.437" = type { %"struct.std::_Head_base.440" }
%"struct.std::_Head_base.440" = type { ptr }
%"class.node::Realm" = type { %"class.node::MemoryRetainer", %"class.std::set", %"class.std::set.353", %"class.std::set.353", %"class.std::vector.129", ptr, ptr, %"class.v8::Global.361", %"class.v8::Global.43", %"class.v8::Global.43", %"class.v8::Global.43", %"class.v8::Global", %"class.v8::Global.43", %"class.v8::Global.43", %"class.v8::Global.43", %"class.v8::Global", %"class.v8::Global.43", %"class.v8::Global.43", %"class.v8::Global.43", %"class.v8::Global.43", %"class.v8::Global.43", %"class.v8::Global.43", %"class.v8::Global.43", %"class.v8::Global.43", %"class.v8::Global.43", %"class.v8::Global.43", %"class.v8::Global.43", %"class.v8::Global.43", %"class.v8::Global.43", %"class.v8::Global.43", %"class.v8::Global.43", %"class.v8::Global.43", %"class.v8::Global.43", %"class.v8::Global.43", %"class.v8::Global.43", %"class.v8::Global.43", %"class.v8::Global.43", %"class.v8::Global.43", %"class.v8::Global.43", %"class.v8::Global.43", %"class.v8::Global.43", %"class.v8::Global.43", %"class.v8::Global.43", %"class.v8::Global.43", %"class.v8::Global", %"class.v8::Global.43", %"class.v8::Global.43", %"class.v8::Global.43", %"class.v8::Global", %"class.v8::Global", %"class.v8::Global", %"class.v8::Global", %"class.v8::Global", %"class.v8::Global", %"class.v8::Global.43", %"class.v8::Global.43", %"class.v8::Global.43", %"class.v8::Global.43", %"class.v8::Global.43", %"class.v8::Global.43", %"class.v8::Global.43", %"class.v8::Global.43", %"class.v8::Global.43", %"class.v8::Global.43", %"class.v8::Global.43", %"class.v8::Global.43", %"class.v8::Global.43", %"class.v8::Global.43", i32, i8, i64, i64, %"struct.std::array.363", %"class.node::CleanupQueue" }
%"class.std::set" = type { %"class.std::_Rb_tree" }
%"class.std::_Rb_tree" = type { %"struct.std::_Rb_tree<node::node_module *, node::node_module *, std::_Identity<node::node_module *>, std::less<node::node_module *>>::_Rb_tree_impl" }
%"struct.std::_Rb_tree<node::node_module *, node::node_module *, std::_Identity<node::node_module *>, std::less<node::node_module *>>::_Rb_tree_impl" = type { %"struct.std::_Rb_tree_key_compare", %"struct.std::_Rb_tree_header" }
%"struct.std::_Rb_tree_key_compare" = type { %"struct.std::less" }
%"struct.std::less" = type { i8 }
%"struct.std::_Rb_tree_header" = type { %"struct.std::_Rb_tree_node_base", i64 }
%"struct.std::_Rb_tree_node_base" = type { i32, ptr, ptr, ptr }
%"class.std::set.353" = type { %"class.std::_Rb_tree.354" }
%"class.std::_Rb_tree.354" = type { %"struct.std::_Rb_tree<std::__cxx11::basic_string<char>, std::__cxx11::basic_string<char>, std::_Identity<std::__cxx11::basic_string<char>>, std::less<std::__cxx11::basic_string<char>>>::_Rb_tree_impl" }
%"struct.std::_Rb_tree<std::__cxx11::basic_string<char>, std::__cxx11::basic_string<char>, std::_Identity<std::__cxx11::basic_string<char>>, std::less<std::__cxx11::basic_string<char>>>::_Rb_tree_impl" = type { %"struct.std::_Rb_tree_key_compare.358", %"struct.std::_Rb_tree_header" }
%"struct.std::_Rb_tree_key_compare.358" = type { %"struct.std::less.359" }
%"struct.std::less.359" = type { i8 }
%"class.v8::Global.361" = type { %"class.v8::PersistentBase.362" }
%"class.v8::PersistentBase.362" = type { %"class.v8::IndirectHandleBase" }
%"struct.std::array.363" = type { [12 x %"class.node::BaseObjectPtrImpl"] }
%"class.node::BaseObjectPtrImpl" = type { %union.anon.364 }
%union.anon.364 = type { ptr }
%"class.std::_Sp_counted_base" = type { ptr, i32, i32 }
%"struct.std::__detail::_Node_iterator" = type { %"struct.std::__detail::_Node_iterator_base" }
%"struct.std::__detail::_Node_iterator_base" = type { ptr }
%"struct.std::pair" = type { ptr, ptr }
%"struct.std::__detail::_Select1st" = type { i8 }
%"struct.std::__detail::_Hash_node_value_base" = type { %"struct.__gnu_cxx::__aligned_buffer" }
%"struct.__gnu_cxx::__aligned_buffer" = type { %"union.std::aligned_storage<16, 8>::type" }
%"union.std::aligned_storage<16, 8>::type" = type { [16 x i8] }
%"struct.std::__detail::_Mod_range_hashing" = type { i8 }
%"struct.std::_Hashtable<const node::MemoryRetainer *, std::pair<const node::MemoryRetainer *const, node::MemoryRetainerNode *>, std::allocator<std::pair<const node::MemoryRetainer *const, node::MemoryRetainerNode *>>, std::__detail::_Select1st, std::equal_to<const node::MemoryRetainer *>, std::hash<const node::MemoryRetainer *>, std::__detail::_Mod_range_hashing, std::__detail::_Default_ranged_hash, std::__detail::_Prime_rehash_policy, std::__detail::_Hashtable_traits<false, false, true>>::_Scoped_node" = type { ptr, ptr }
%"class.std::tuple.451" = type { %"struct.std::_Tuple_impl.452" }
%"struct.std::_Tuple_impl.452" = type { %"struct.std::_Head_base.453" }
%"struct.std::_Head_base.453" = type { ptr }
%"class.std::tuple.454" = type { i8 }
%"struct.std::pair.456" = type { i8, i64 }
%"class.std::allocator.458" = type { i8 }
%"class.std::allocator.461" = type { i8 }
%"class.std::allocator.464" = type { i8 }
%"struct.std::_Sp_alloc_shared_tag" = type { ptr }
%"class.std::allocator.465" = type { i8 }
%"struct.std::__allocated_ptr" = type { ptr, ptr }
%"class.std::_Sp_counted_ptr_inplace" = type { %"class.std::_Sp_counted_base", %"class.std::_Sp_counted_ptr_inplace<node::MutexBase<node::LibuvMutexTraits>, std::allocator<void>, __gnu_cxx::_S_atomic>::_Impl" }
%"class.std::_Sp_counted_ptr_inplace<node::MutexBase<node::LibuvMutexTraits>, std::allocator<void>, __gnu_cxx::_S_atomic>::_Impl" = type { %"struct.__gnu_cxx::__aligned_buffer.468" }
%"struct.__gnu_cxx::__aligned_buffer.468" = type { %"union.std::aligned_storage<40, 8>::type" }
%"union.std::aligned_storage<40, 8>::type" = type { [40 x i8] }
%"struct.std::_Optional_payload_base" = type <{ %"union.std::_Optional_payload_base<unsigned long>::_Storage", i8, [7 x i8] }>
%"struct.node::BaseObject::PointerData" = type { i32, i32, i8, i8, ptr }
%"class.v8::Local.474" = type { %"class.v8::LocalBase.475" }
%"class.v8::LocalBase.475" = type { %"class.v8::IndirectHandleBase" }
%"class.node::crypto::CryptoJob" = type { %"class.node::AsyncWrap", %"class.node::ThreadPoolWork", i32, %"struct.node::crypto::CryptoErrorStore", %"struct.node::crypto::SignConfiguration" }
%"class.node::AsyncWrap" = type { %"class.node::BaseObject", i32, i8, double, double }
%"class.node::ThreadPoolWork" = type { ptr, ptr, %struct.uv_work_s, ptr }
%struct.uv_work_s = type { ptr, i32, [6 x ptr], ptr, ptr, ptr, %struct.uv__work }
%struct.uv__work = type { ptr, ptr, ptr, %struct.uv__queue }
%"struct.node::crypto::CryptoErrorStore" = type { %"class.node::MemoryRetainer", %"class.std::vector.129" }
%"class.node::tracing::TraceID" = type { ptr, i64 }
%class.anon.478 = type { i8 }
%class.anon.480 = type { i8 }
%"class.std::unique_ptr.482" = type { %"struct.std::__uniq_ptr_data.483" }
%"struct.std::__uniq_ptr_data.483" = type { %"class.std::__uniq_ptr_impl.484" }
%"class.std::__uniq_ptr_impl.484" = type { %"class.std::tuple.485" }
%"class.std::tuple.485" = type { %"struct.std::_Tuple_impl.486" }
%"struct.std::_Tuple_impl.486" = type { %"struct.std::_Head_base.489" }
%"struct.std::_Head_base.489" = type { ptr }
%"class.node::ContainerOfHelper" = type { ptr }
%"class.node::crypto::DeriveBitsJob" = type <{ %"class.node::crypto::CryptoJob", %"class.node::crypto::ByteSource", i8, [7 x i8] }>
%"class.std::unique_ptr.492" = type { %"struct.std::__uniq_ptr_data.493" }
%"struct.std::__uniq_ptr_data.493" = type { %"class.std::__uniq_ptr_impl.494" }
%"class.std::__uniq_ptr_impl.494" = type { %"class.std::tuple.495" }
%"class.std::tuple.495" = type { %"struct.std::_Tuple_impl.496" }
%"struct.std::_Tuple_impl.496" = type { %"struct.std::_Head_base.499" }
%"struct.std::_Head_base.499" = type { ptr }
%"class.v8::Context::Scope" = type { %"class.v8::Local.290" }
%"class.node::errors::TryCatchScope" = type <{ %"class.v8::TryCatch.base", [7 x i8], ptr, i32, [4 x i8] }>
%"class.v8::TryCatch.base" = type <{ ptr, ptr, ptr, ptr, i64, i8 }>
%"class.v8::MaybeLocal.500" = type { %"class.v8::Local.298" }
%"class.v8::Local.503" = type { %"class.v8::LocalBase.504" }
%"class.v8::LocalBase.504" = type { %"class.v8::IndirectHandleBase" }
%"class.__gnu_cxx::__normal_iterator.505" = type { ptr }
%"class.v8::Maybe.506" = type { i8, i64 }
%"class.std::allocator.511" = type { i8 }
%"class.std::_Sp_counted_deleter" = type { %"class.std::_Sp_counted_base", %"class.std::_Sp_counted_deleter<v8::BackingStore *, std::default_delete<v8::BackingStore>, std::allocator<void>, __gnu_cxx::_S_atomic>::_Impl" }
%"class.std::_Sp_counted_deleter<v8::BackingStore *, std::default_delete<v8::BackingStore>, std::allocator<void>, __gnu_cxx::_S_atomic>::_Impl" = type { ptr }
%"struct.std::default_delete.375" = type { i8 }
%"struct.std::__allocated_ptr.516" = type { ptr, ptr }

$_ZSteqI13evp_md_ctx_stN4node15FunctionDeleterIS0_XadL_Z15EVP_MD_CTX_freeEEEEEbRKSt10unique_ptrIT_T0_EDn = comdat any

$_ZNSt10unique_ptrI13evp_md_ctx_stN4node15FunctionDeleterIS0_XadL_Z15EVP_MD_CTX_freeEEEEE5resetEPS0_ = comdat any

$_ZNKSt10unique_ptrI13evp_md_ctx_stN4node15FunctionDeleterIS0_XadL_Z15EVP_MD_CTX_freeEEEEEcvbEv = comdat any

$_ZNKSt10unique_ptrI13evp_md_ctx_stN4node15FunctionDeleterIS0_XadL_Z15EVP_MD_CTX_freeEEEEE3getEv = comdat any

$_ZN4node10BaseObjectC2EPNS_11EnvironmentEN2v85LocalINS3_6ObjectEEE = comdat any

$_ZNSt10unique_ptrI13evp_md_ctx_stN4node15FunctionDeleterIS0_XadL_Z15EVP_MD_CTX_freeEEEEEC2IS3_vEEv = comdat any

$_ZN4node13MemoryTracker18TrackFieldWithSizeEPKcmS2_ = comdat any

$_ZNK4node11Environment7isolateEv = comdat any

$_ZNSt17basic_string_viewIcSt11char_traitsIcEEC2EPKc = comdat any

$_ZNK4node11Environment7contextEv = comdat any

$_ZN4node6crypto13DeriveBitsJobINS0_10SignTraitsEE10InitializeEPNS_11EnvironmentEN2v85LocalINS6_6ObjectEEE = comdat any

$_ZN4node25ExternalReferenceRegistry8RegisterEPFvRKN2v820FunctionCallbackInfoINS1_5ValueEEEE = comdat any

$_ZN4node6crypto13DeriveBitsJobINS0_10SignTraitsEE26RegisterExternalReferencesEPNS_25ExternalReferenceRegistryE = comdat any

$_ZN4node11Environment10GetCurrentERKN2v820FunctionCallbackInfoINS1_5ValueEEE = comdat any

$_ZN4node10BaseObject12FromJSObjectEN2v85LocalINS1_5ValueEEE = comdat any

$_ZNK4node16MaybeStackBufferIcLm1024EEdeEv = comdat any

$_ZN4node9Utf8ValueD2Ev = comdat any

$_ZN4node6crypto6DecodeINS0_4SignEEEvRKN2v820FunctionCallbackInfoINS3_5ValueEEEPFvPT_S8_PKcmE = comdat any

$_ZNSt10unique_ptrIN2v812BackingStoreESt14default_deleteIS1_EEC2IS3_vEEDn = comdat any

$_ZN4node6crypto4Sign10SignResultC2ENS0_8SignBase5ErrorEOSt10unique_ptrIN2v812BackingStoreESt14default_deleteIS7_EE = comdat any

$_ZNSt10unique_ptrIN2v812BackingStoreESt14default_deleteIS1_EED2Ev = comdat any

$_ZNSt10unique_ptrI13evp_md_ctx_stN4node15FunctionDeleterIS0_XadL_Z15EVP_MD_CTX_freeEEEEEC2EOS4_ = comdat any

$_ZNK4node10BaseObject3envEv = comdat any

$_ZNKSt10unique_ptrIN2v812BackingStoreESt14default_deleteIS1_EEcvbEv = comdat any

$_ZNSt10unique_ptrIN2v812BackingStoreESt14default_deleteIS1_EEaSEOS4_ = comdat any

$_ZNKSt10unique_ptrIN2v812BackingStoreESt14default_deleteIS1_EEptEv = comdat any

$_ZNSt10unique_ptrI13evp_md_ctx_stN4node15FunctionDeleterIS0_XadL_Z15EVP_MD_CTX_freeEEEEED2Ev = comdat any

$_ZN2v87NothingIiEENS_5MaybeIT_EEv = comdat any

$_ZN2v84JustIiTnPNSt9enable_ifIXntsr3stdE21is_lvalue_reference_vIT_EEvE4typeELPv0EEENS_5MaybeIS2_EEOS2_ = comdat any

$_ZNSt10shared_ptrIN2v812BackingStoreEEC2IS1_St14default_deleteIS1_EvEEOSt10unique_ptrIT_T0_E = comdat any

$_ZNSt10shared_ptrIN2v812BackingStoreEED2Ev = comdat any

$_ZN4node6crypto4Sign10SignResultD2Ev = comdat any

$_ZN4node6crypto14ManagedEVPPKeyD2Ev = comdat any

$_ZN4node6crypto18ClearErrorOnReturnD2Ev = comdat any

$_ZN4node6crypto6DecodeINS0_6VerifyEEEvRKN2v820FunctionCallbackInfoINS3_5ValueEEEPFvPT_S8_PKcmE = comdat any

$_ZNSt10unique_ptrI15evp_pkey_ctx_stN4node15FunctionDeleterIS0_XadL_Z17EVP_PKEY_CTX_freeEEEEEC2IS3_vEEPS0_ = comdat any

$_ZNKSt10unique_ptrI15evp_pkey_ctx_stN4node15FunctionDeleterIS0_XadL_Z17EVP_PKEY_CTX_freeEEEEEcvbEv = comdat any

$_ZNKSt10unique_ptrI15evp_pkey_ctx_stN4node15FunctionDeleterIS0_XadL_Z17EVP_PKEY_CTX_freeEEEEE3getEv = comdat any

$_ZNK4node6crypto10ByteSource4dataIhEEPKT_v = comdat any

$_ZNK4node6crypto10ByteSource4sizeEv = comdat any

$_ZNSt10unique_ptrI15evp_pkey_ctx_stN4node15FunctionDeleterIS0_XadL_Z17EVP_PKEY_CTX_freeEEEEED2Ev = comdat any

$_ZN4node6crypto25ArrayBufferOrViewContentsIcEC2EN2v85LocalINS3_5ValueEEE = comdat any

$_ZN4node6crypto25ArrayBufferOrViewContentsIcE14CheckSizeInt32Ev = comdat any

$_ZN4node22THROW_ERR_OUT_OF_RANGEIJEEEvPNS_11EnvironmentEPKcDpOT_ = comdat any

$_ZNK4node6crypto25ArrayBufferOrViewContentsIcE12ToByteSourceEv = comdat any

$_ZNK4node6crypto10ByteSource4dataIvEEPKT_v = comdat any

$_ZN4node14MemoryRetainerC2Ev = comdat any

$_ZN4node6crypto17SignConfigurationD2Ev = comdat any

$_ZN4node13MemoryTracker10TrackFieldEPKcRKNS_14MemoryRetainerES2_ = comdat any

$_ZN4node6crypto14ManagedEVPPKeyC2Ev = comdat any

$_ZN2v87NothingIbEENS_5MaybeIT_EEv = comdat any

$_ZNK4node6crypto25ArrayBufferOrViewContentsIcE6ToCopyEv = comdat any

$_ZN4node16MaybeStackBufferIcLm1024EEdeEv = comdat any

$_ZN4node31THROW_ERR_CRYPTO_INVALID_DIGESTIJPcEEEvPNS_11EnvironmentEPKcDpOT_ = comdat any

$_ZN4node9MutexBaseINS_16LibuvMutexTraitsEE10ScopedLockC2ERKS2_ = comdat any

$_ZN4node9MutexBaseINS_16LibuvMutexTraitsEE10ScopedLockD2Ev = comdat any

$_ZN2v84JustIbTnPNSt9enable_ifIXntsr3stdE21is_lvalue_reference_vIT_EEvE4typeELPv0EEENS_5MaybeIS2_EEOS2_ = comdat any

$_ZNSt10unique_ptrI13evp_md_ctx_stN4node15FunctionDeleterIS0_XadL_Z15EVP_MD_CTX_freeEEEEEC2IS3_vEEPS0_ = comdat any

$_ZN2v84JustIiEENS_5MaybeIT_EERKS2_ = comdat any

$_ZN4node6crypto10ByteSource7BuilderC2Em = comdat any

$_ZN4node6crypto10ByteSource7Builder4dataIhEEPT_v = comdat any

$_ZNO4node6crypto10ByteSource7Builder7releaseESt8optionalImE = comdat any

$_ZNSt8optionalImEC2IRmTnNSt9enable_ifIX7__and_vISt6__not_ISt7is_sameIS0_NSt9remove_cvINSt16remove_referenceIT_E4typeEE4typeEEES4_IS5_ISt10in_place_tSC_EESt16is_constructibleImJS8_EESt14is_convertibleIS8_mEEEbE4typeELb1EEEOS8_ = comdat any

$_ZN4node6crypto10ByteSource7BuilderD2Ev = comdat any

$_ZNSt8optionalImEC2ESt9nullopt_t = comdat any

$_ZN4node6crypto10ByteSource7Builder4dataIcEEPT_v = comdat any

$_ZNK4node6crypto10ByteSource4dataIcEEPKT_v = comdat any

$_ZN4node6crypto8SignBaseD2Ev = comdat any

$_ZN4node6crypto8SignBaseD0Ev = comdat any

$_ZNK4node6crypto8SignBase14MemoryInfoNameEv = comdat any

$_ZNK4node6crypto8SignBase8SelfSizeEv = comdat any

$_ZNK4node10BaseObject15GetDetachednessEv = comdat any

$_ZN4node10BaseObject11OnGCCollectEv = comdat any

$_ZNK4node10BaseObject15is_snapshotableEv = comdat any

$_ZN4node6crypto17SignConfigurationD0Ev = comdat any

$_ZNK4node6crypto17SignConfiguration14MemoryInfoNameEv = comdat any

$_ZNK4node6crypto17SignConfiguration8SelfSizeEv = comdat any

$_ZNK4node14MemoryRetainer13WrappedObjectEv = comdat any

$_ZNK4node14MemoryRetainer10IsRootNodeEv = comdat any

$_ZNK4node14MemoryRetainer15GetDetachednessEv = comdat any

$_ZN4node6crypto4SignD2Ev = comdat any

$_ZN4node6crypto4SignD0Ev = comdat any

$_ZN4node6crypto6VerifyD2Ev = comdat any

$_ZN4node6crypto6VerifyD0Ev = comdat any

$_ZNK4node11Environment15principal_realmEv = comdat any

$_ZNKSt10unique_ptrIN4node14PrincipalRealmESt14default_deleteIS1_EE3getEv = comdat any

$_ZNKSt15__uniq_ptr_implIN4node14PrincipalRealmESt14default_deleteIS1_EE6_M_ptrEv = comdat any

$_ZSt3getILm0EJPN4node14PrincipalRealmESt14default_deleteIS1_EEERKNSt13tuple_elementIXT_ESt5tupleIJDpT0_EEE4typeERKS9_ = comdat any

$_ZSt12__get_helperILm0EPN4node14PrincipalRealmEJSt14default_deleteIS1_EEERKT0_RKSt11_Tuple_implIXT_EJS5_DpT1_EE = comdat any

$_ZNSt11_Tuple_implILm0EJPN4node14PrincipalRealmESt14default_deleteIS1_EEE7_M_headERKS5_ = comdat any

$_ZNSt10_Head_baseILm0EPN4node14PrincipalRealmELb0EE7_M_headERKS3_ = comdat any

$_ZNSt15__uniq_ptr_dataI13evp_md_ctx_stN4node15FunctionDeleterIS0_XadL_Z15EVP_MD_CTX_freeEEEELb1ELb1EEC2Ev = comdat any

$_ZNSt15__uniq_ptr_implI13evp_md_ctx_stN4node15FunctionDeleterIS0_XadL_Z15EVP_MD_CTX_freeEEEEEC2Ev = comdat any

$_ZNSt5tupleIJP13evp_md_ctx_stN4node15FunctionDeleterIS0_XadL_Z15EVP_MD_CTX_freeEEEEEEC2ILb1ETnNSt9enable_ifIXclsr17_TupleConstraintsIXT_ES1_S4_EE37__is_implicitly_default_constructibleEEbE4typeELb1EEEv = comdat any

$_ZNSt11_Tuple_implILm0EJP13evp_md_ctx_stN4node15FunctionDeleterIS0_XadL_Z15EVP_MD_CTX_freeEEEEEEC2Ev = comdat any

$_ZNSt11_Tuple_implILm1EJN4node15FunctionDeleterI13evp_md_ctx_stXadL_Z15EVP_MD_CTX_freeEEEEEEC2Ev = comdat any

$_ZNSt10_Head_baseILm0EP13evp_md_ctx_stLb0EEC2Ev = comdat any

$_ZNSt10_Head_baseILm1EN4node15FunctionDeleterI13evp_md_ctx_stXadL_Z15EVP_MD_CTX_freeEEEELb1EEC2Ev = comdat any

$_ZN4node13MemoryTracker7AddNodeEPKcmS2_ = comdat any

$_ZN4node11GetNodeNameEPKcS1_ = comdat any

$_ZN4node18MemoryRetainerNodeC2EPNS_13MemoryTrackerEPKcmb = comdat any

$_ZNSt10unique_ptrIN2v813EmbedderGraph4NodeESt14default_deleteIS2_EEC2IS4_vEEPS2_ = comdat any

$_ZNSt10unique_ptrIN2v813EmbedderGraph4NodeESt14default_deleteIS2_EED2Ev = comdat any

$_ZNK4node13MemoryTracker11CurrentNodeEv = comdat any

$_ZN2v813EmbedderGraph4NodeC2Ev = comdat any

$_ZN4node18MemoryRetainerNodeD2Ev = comdat any

$_ZN4node18MemoryRetainerNodeD0Ev = comdat any

$_ZN4node18MemoryRetainerNode4NameEv = comdat any

$_ZN4node18MemoryRetainerNode11SizeInBytesEv = comdat any

$_ZN2v813EmbedderGraph4Node11WrapperNodeEv = comdat any

$_ZN4node18MemoryRetainerNode10IsRootNodeEv = comdat any

$_ZN2v813EmbedderGraph4Node14IsEmbedderNodeEv = comdat any

$_ZN4node18MemoryRetainerNode10NamePrefixEv = comdat any

$_ZN2v813EmbedderGraph4Node15GetNativeObjectEv = comdat any

$_ZN4node18MemoryRetainerNode15GetDetachednessEv = comdat any

$_ZN2v813EmbedderGraph4Node10GetAddressEv = comdat any

$_ZN2v813EmbedderGraph4NodeD2Ev = comdat any

$_ZN2v813EmbedderGraph4NodeD0Ev = comdat any

$_ZN2v813EmbedderGraph4Node10IsRootNodeEv = comdat any

$_ZN2v813EmbedderGraph4Node10NamePrefixEv = comdat any

$_ZN2v813EmbedderGraph4Node15GetDetachednessEv = comdat any

$_ZNSt15__uniq_ptr_dataIN2v813EmbedderGraph4NodeESt14default_deleteIS2_ELb1ELb1EECI2St15__uniq_ptr_implIS2_S4_EEPS2_ = comdat any

$_ZNSt15__uniq_ptr_implIN2v813EmbedderGraph4NodeESt14default_deleteIS2_EEC2EPS2_ = comdat any

$_ZNSt5tupleIJPN2v813EmbedderGraph4NodeESt14default_deleteIS2_EEEC2ILb1ETnNSt9enable_ifIXclsr17_TupleConstraintsIXT_ES3_S5_EE37__is_implicitly_default_constructibleEEbE4typeELb1EEEv = comdat any

$_ZNSt15__uniq_ptr_implIN2v813EmbedderGraph4NodeESt14default_deleteIS2_EE6_M_ptrEv = comdat any

$_ZNSt11_Tuple_implILm0EJPN2v813EmbedderGraph4NodeESt14default_deleteIS2_EEEC2Ev = comdat any

$_ZNSt11_Tuple_implILm1EJSt14default_deleteIN2v813EmbedderGraph4NodeEEEEC2Ev = comdat any

$_ZNSt10_Head_baseILm0EPN2v813EmbedderGraph4NodeELb0EEC2Ev = comdat any

$_ZNSt10_Head_baseILm1ESt14default_deleteIN2v813EmbedderGraph4NodeEELb1EEC2Ev = comdat any

$_ZSt3getILm0EJPN2v813EmbedderGraph4NodeESt14default_deleteIS2_EEERNSt13tuple_elementIXT_ESt5tupleIJDpT0_EEE4typeERSA_ = comdat any

$_ZSt12__get_helperILm0EPN2v813EmbedderGraph4NodeEJSt14default_deleteIS2_EEERT0_RSt11_Tuple_implIXT_EJS6_DpT1_EE = comdat any

$_ZNSt11_Tuple_implILm0EJPN2v813EmbedderGraph4NodeESt14default_deleteIS2_EEE7_M_headERS6_ = comdat any

$_ZNSt10_Head_baseILm0EPN2v813EmbedderGraph4NodeELb0EE7_M_headERS4_ = comdat any

$_ZNSt10unique_ptrIN2v813EmbedderGraph4NodeESt14default_deleteIS2_EE11get_deleterEv = comdat any

$_ZNKSt14default_deleteIN2v813EmbedderGraph4NodeEEclEPS2_ = comdat any

$_ZNSt15__uniq_ptr_implIN2v813EmbedderGraph4NodeESt14default_deleteIS2_EE10_M_deleterEv = comdat any

$_ZSt3getILm1EJPN2v813EmbedderGraph4NodeESt14default_deleteIS2_EEERNSt13tuple_elementIXT_ESt5tupleIJDpT0_EEE4typeERSA_ = comdat any

$_ZSt12__get_helperILm1ESt14default_deleteIN2v813EmbedderGraph4NodeEEJEERT0_RSt11_Tuple_implIXT_EJS5_DpT1_EE = comdat any

$_ZNSt11_Tuple_implILm1EJSt14default_deleteIN2v813EmbedderGraph4NodeEEEE7_M_headERS5_ = comdat any

$_ZNSt10_Head_baseILm1ESt14default_deleteIN2v813EmbedderGraph4NodeEELb1EE7_M_headERS5_ = comdat any

$_ZNKSt5stackIPN4node18MemoryRetainerNodeESt5dequeIS2_SaIS2_EEE5emptyEv = comdat any

$_ZNKSt5stackIPN4node18MemoryRetainerNodeESt5dequeIS2_SaIS2_EEE3topEv = comdat any

$_ZNKSt5dequeIPN4node18MemoryRetainerNodeESaIS2_EE5emptyEv = comdat any

$_ZSteqRKSt15_Deque_iteratorIPN4node18MemoryRetainerNodeERS2_PS2_ES7_ = comdat any

$_ZNKSt5dequeIPN4node18MemoryRetainerNodeESaIS2_EE4backEv = comdat any

$_ZNKSt5dequeIPN4node18MemoryRetainerNodeESaIS2_EE3endEv = comdat any

$_ZNSt15_Deque_iteratorIPN4node18MemoryRetainerNodeERKS2_PS3_EmmEv = comdat any

$_ZNKSt15_Deque_iteratorIPN4node18MemoryRetainerNodeERKS2_PS3_EdeEv = comdat any

$_ZNSt15_Deque_iteratorIPN4node18MemoryRetainerNodeERKS2_PS3_EC2IS_IS2_RS2_PS2_EvEERKT_ = comdat any

$_ZNSt15_Deque_iteratorIPN4node18MemoryRetainerNodeERKS2_PS3_E11_M_set_nodeEPPS2_ = comdat any

$_ZNSt15_Deque_iteratorIPN4node18MemoryRetainerNodeERKS2_PS3_E14_S_buffer_sizeEv = comdat any

$_ZSt16__deque_buf_sizem = comdat any

$_ZNSt11char_traitsIcE6lengthEPKc = comdat any

$_ZN4node25ExternalReferenceRegistry9RegisterTIFvRKN2v820FunctionCallbackInfoINS2_5ValueEEEEEEvPT_ = comdat any

$_ZNSt6vectorIlSaIlEE9push_backEOl = comdat any

$_ZNSt6vectorIlSaIlEE12emplace_backIJlEEERlDpOT_ = comdat any

$_ZNSt16allocator_traitsISaIlEE9constructIlJlEEEvRS0_PT_DpOT0_ = comdat any

$_ZNSt6vectorIlSaIlEE17_M_realloc_insertIJlEEEvN9__gnu_cxx17__normal_iteratorIPlS1_EEDpOT_ = comdat any

$_ZNSt6vectorIlSaIlEE3endEv = comdat any

$_ZNSt6vectorIlSaIlEE4backEv = comdat any

$_ZNSt15__new_allocatorIlE9constructIlJlEEEvPT_DpOT0_ = comdat any

$_ZNKSt6vectorIlSaIlEE12_M_check_lenEmPKc = comdat any

$_ZN9__gnu_cxxmiIPlSt6vectorIlSaIlEEEENS_17__normal_iteratorIT_T0_E15difference_typeERKS8_SB_ = comdat any

$_ZNSt6vectorIlSaIlEE5beginEv = comdat any

$_ZNSt12_Vector_baseIlSaIlEE11_M_allocateEm = comdat any

$_ZNSt6vectorIlSaIlEE11_S_relocateEPlS2_S2_RS0_ = comdat any

$_ZNK9__gnu_cxx17__normal_iteratorIPlSt6vectorIlSaIlEEE4baseEv = comdat any

$_ZNSt12_Vector_baseIlSaIlEE19_M_get_Tp_allocatorEv = comdat any

$_ZNSt12_Vector_baseIlSaIlEE13_M_deallocateEPlm = comdat any

$_ZNKSt6vectorIlSaIlEE8max_sizeEv = comdat any

$_ZNKSt6vectorIlSaIlEE4sizeEv = comdat any

$_ZSt3maxImERKT_S2_S2_ = comdat any

$_ZNSt6vectorIlSaIlEE11_S_max_sizeERKS0_ = comdat any

$_ZNKSt12_Vector_baseIlSaIlEE19_M_get_Tp_allocatorEv = comdat any

$_ZNSt16allocator_traitsISaIlEE8max_sizeERKS0_ = comdat any

$_ZSt3minImERKT_S2_S2_ = comdat any

$_ZNKSt15__new_allocatorIlE8max_sizeEv = comdat any

$_ZNKSt15__new_allocatorIlE11_M_max_sizeEv = comdat any

$_ZN9__gnu_cxx17__normal_iteratorIPlSt6vectorIlSaIlEEEC2ERKS1_ = comdat any

$_ZNSt16allocator_traitsISaIlEE8allocateERS0_m = comdat any

$_ZNSt15__new_allocatorIlE8allocateEmPKv = comdat any

$_ZSt12__relocate_aIPlS0_SaIlEET0_T_S3_S2_RT1_ = comdat any

$_ZSt14__relocate_a_1IllENSt9enable_ifIXsr3std24__is_bitwise_relocatableIT_EE5valueEPS1_E4typeES2_S2_S2_RSaIT0_E = comdat any

$_ZSt12__niter_baseIPlET_S1_ = comdat any

$_ZNSt16allocator_traitsISaIlEE10deallocateERS0_Plm = comdat any

$_ZNSt15__new_allocatorIlE10deallocateEPlm = comdat any

$_ZNK9__gnu_cxx17__normal_iteratorIPlSt6vectorIlSaIlEEEmiEl = comdat any

$_ZNK9__gnu_cxx17__normal_iteratorIPlSt6vectorIlSaIlEEEdeEv = comdat any

$_ZN4node11Environment10GetCurrentEN2v85LocalINS1_7ContextEEE = comdat any

$_ZN4node18ContextEmbedderTag13IsNodeContextEN2v85LocalINS1_7ContextEEE = comdat any

$_ZN4node31THROW_ERR_CRYPTO_INVALID_DIGESTEPNS_11EnvironmentE = comdat any

$_ZN4node30THROW_ERR_CRYPTO_INVALID_STATEIJEEEvPNS_11EnvironmentEPKcDpOT_ = comdat any

$_ZN4node33THROW_ERR_CRYPTO_OPERATION_FAILEDIJEEEvPNS_11EnvironmentEPKcDpOT_ = comdat any

$_ZN4node31THROW_ERR_CRYPTO_INVALID_DIGESTEPN2v87IsolateE = comdat any

$_ZN4node25ERR_CRYPTO_INVALID_DIGESTIJEEEN2v85LocalINS1_5ValueEEEPNS1_7IsolateEPKcDpOT_ = comdat any

$_ZN4node7SPrintFIJEEENSt7__cxx1112basic_stringIcSt11char_traitsIcESaIcEEEPKcDpOT_ = comdat any

$_ZN4node13OneByteStringEPN2v87IsolateEPKci = comdat any

$_ZN4node11SPrintFImplB5cxx11EPKc = comdat any

$_ZNSt7__cxx1112basic_stringIcSt11char_traitsIcESaIcEEC2IS3_EEPKcRKS3_ = comdat any

$_ZStplIcSt11char_traitsIcESaIcEENSt7__cxx1112basic_stringIT_T0_T1_EEOS8_S9_ = comdat any

$_ZNSt7__cxx1112basic_stringIcSt11char_traitsIcESaIcEEC2IPKcvEET_S8_RKS3_ = comdat any

$_ZNSt7__cxx1112basic_stringIcSt11char_traitsIcESaIcEE12_M_constructIPKcEEvT_S8_St20forward_iterator_tag = comdat any

$_ZSt8distanceIPKcENSt15iterator_traitsIT_E15difference_typeES3_S3_ = comdat any

$_ZZNSt7__cxx1112basic_stringIcSt11char_traitsIcESaIcEE12_M_constructIPKcEEvT_S8_St20forward_iterator_tagEN6_GuardC2EPS4_ = comdat any

$_ZZNSt7__cxx1112basic_stringIcSt11char_traitsIcESaIcEE12_M_constructIPKcEEvT_S8_St20forward_iterator_tagEN6_GuardD2Ev = comdat any

$_ZSt10__distanceIPKcENSt15iterator_traitsIT_E15difference_typeES3_S3_St26random_access_iterator_tag = comdat any

$_ZSt19__iterator_categoryIPKcENSt15iterator_traitsIT_E17iterator_categoryERKS3_ = comdat any

$_ZN4node30THROW_ERR_CRYPTO_INVALID_STATEIJEEEvPN2v87IsolateEPKcDpOT_ = comdat any

$_ZN4node24ERR_CRYPTO_INVALID_STATEIJEEEN2v85LocalINS1_5ValueEEEPNS1_7IsolateEPKcDpOT_ = comdat any

$_ZN4node33THROW_ERR_CRYPTO_OPERATION_FAILEDIJEEEvPN2v87IsolateEPKcDpOT_ = comdat any

$_ZN4node27ERR_CRYPTO_OPERATION_FAILEDIJEEEN2v85LocalINS1_5ValueEEEPNS1_7IsolateEPKcDpOT_ = comdat any

$_ZN4node16MaybeStackBufferIcLm1024EED2Ev = comdat any

$_ZNK4node16MaybeStackBufferIcLm1024EE11IsAllocatedEv = comdat any

$_ZNK4node16MaybeStackBufferIcLm1024EE13IsInvalidatedEv = comdat any

$_ZNSt15__uniq_ptr_dataIN2v812BackingStoreESt14default_deleteIS1_ELb1ELb1EEC2Ev = comdat any

$_ZNSt15__uniq_ptr_implIN2v812BackingStoreESt14default_deleteIS1_EEC2Ev = comdat any

$_ZNSt5tupleIJPN2v812BackingStoreESt14default_deleteIS1_EEEC2ILb1ETnNSt9enable_ifIXclsr17_TupleConstraintsIXT_ES2_S4_EE37__is_implicitly_default_constructibleEEbE4typeELb1EEEv = comdat any

$_ZNSt11_Tuple_implILm0EJPN2v812BackingStoreESt14default_deleteIS1_EEEC2Ev = comdat any

$_ZNSt11_Tuple_implILm1EJSt14default_deleteIN2v812BackingStoreEEEEC2Ev = comdat any

$_ZNSt10_Head_baseILm0EPN2v812BackingStoreELb0EEC2Ev = comdat any

$_ZNSt10_Head_baseILm1ESt14default_deleteIN2v812BackingStoreEELb1EEC2Ev = comdat any

$_ZNSt10unique_ptrIN2v812BackingStoreESt14default_deleteIS1_EEC2EOS4_ = comdat any

$_ZNSt15__uniq_ptr_dataIN2v812BackingStoreESt14default_deleteIS1_ELb1ELb1EEC2EOS4_ = comdat any

$_ZNSt15__uniq_ptr_implIN2v812BackingStoreESt14default_deleteIS1_EEC2EOS4_ = comdat any

$_ZNSt5tupleIJPN2v812BackingStoreESt14default_deleteIS1_EEEC2EOS5_ = comdat any

$_ZNSt15__uniq_ptr_implIN2v812BackingStoreESt14default_deleteIS1_EE6_M_ptrEv = comdat any

$_ZNSt11_Tuple_implILm0EJPN2v812BackingStoreESt14default_deleteIS1_EEEC2EOS5_ = comdat any

$_ZNSt11_Tuple_implILm1EJSt14default_deleteIN2v812BackingStoreEEEEC2EOS4_ = comdat any

$_ZSt3getILm0EJPN2v812BackingStoreESt14default_deleteIS1_EEERNSt13tuple_elementIXT_ESt5tupleIJDpT0_EEE4typeERS9_ = comdat any

$_ZSt12__get_helperILm0EPN2v812BackingStoreEJSt14default_deleteIS1_EEERT0_RSt11_Tuple_implIXT_EJS5_DpT1_EE = comdat any

$_ZNSt11_Tuple_implILm0EJPN2v812BackingStoreESt14default_deleteIS1_EEE7_M_headERS5_ = comdat any

$_ZNSt10_Head_baseILm0EPN2v812BackingStoreELb0EE7_M_headERS3_ = comdat any

$_ZNSt15__uniq_ptr_dataI13evp_md_ctx_stN4node15FunctionDeleterIS0_XadL_Z15EVP_MD_CTX_freeEEEELb1ELb1EEC2EOS4_ = comdat any

$_ZNSt15__uniq_ptr_implI13evp_md_ctx_stN4node15FunctionDeleterIS0_XadL_Z15EVP_MD_CTX_freeEEEEEC2EOS4_ = comdat any

$_ZNSt5tupleIJP13evp_md_ctx_stN4node15FunctionDeleterIS0_XadL_Z15EVP_MD_CTX_freeEEEEEEC2EOS5_ = comdat any

$_ZNSt15__uniq_ptr_implI13evp_md_ctx_stN4node15FunctionDeleterIS0_XadL_Z15EVP_MD_CTX_freeEEEEE6_M_ptrEv = comdat any

$_ZNSt11_Tuple_implILm0EJP13evp_md_ctx_stN4node15FunctionDeleterIS0_XadL_Z15EVP_MD_CTX_freeEEEEEEC2EOS5_ = comdat any

$_ZNSt11_Tuple_implILm1EJN4node15FunctionDeleterI13evp_md_ctx_stXadL_Z15EVP_MD_CTX_freeEEEEEEC2EOS4_ = comdat any

$_ZSt3getILm0EJP13evp_md_ctx_stN4node15FunctionDeleterIS0_XadL_Z15EVP_MD_CTX_freeEEEEEERNSt13tuple_elementIXT_ESt5tupleIJDpT0_EEE4typeERS9_ = comdat any

$_ZSt12__get_helperILm0EP13evp_md_ctx_stJN4node15FunctionDeleterIS0_XadL_Z15EVP_MD_CTX_freeEEEEEERT0_RSt11_Tuple_implIXT_EJS5_DpT1_EE = comdat any

$_ZNSt11_Tuple_implILm0EJP13evp_md_ctx_stN4node15FunctionDeleterIS0_XadL_Z15EVP_MD_CTX_freeEEEEEE7_M_headERS5_ = comdat any

$_ZNSt10_Head_baseILm0EP13evp_md_ctx_stLb0EE7_M_headERS2_ = comdat any

$_ZNSt10unique_ptrIN2v812BackingStoreESt14default_deleteIS1_EEC2IS3_vEEv = comdat any

$_ZNK4node11Environment12isolate_dataEv = comdat any

$_ZN4node26NoArrayBufferZeroFillScopeC2EPNS_11IsolateDataE = comdat any

$_ZN4node26NoArrayBufferZeroFillScopeD2Ev = comdat any

$_ZNK4node11IsolateData14node_allocatorEv = comdat any

$_ZN4node24NodeArrayBufferAllocator15zero_fill_fieldEv = comdat any

$_ZNK4node5Realm3envEv = comdat any

$_ZNSt10unique_ptrI12ECDSA_SIG_stN4node15FunctionDeleterIS0_XadL_Z14ECDSA_SIG_freeEEEEEC2IS3_vEEPS0_ = comdat any

$_ZNKSt10unique_ptrI12ECDSA_SIG_stN4node15FunctionDeleterIS0_XadL_Z14ECDSA_SIG_freeEEEEEcvbEv = comdat any

$_ZNKSt10unique_ptrI12ECDSA_SIG_stN4node15FunctionDeleterIS0_XadL_Z14ECDSA_SIG_freeEEEEE3getEv = comdat any

$_ZNSt10unique_ptrI12ECDSA_SIG_stN4node15FunctionDeleterIS0_XadL_Z14ECDSA_SIG_freeEEEEED2Ev = comdat any

$_ZNSt15__uniq_ptr_dataI12ECDSA_SIG_stN4node15FunctionDeleterIS0_XadL_Z14ECDSA_SIG_freeEEEELb1ELb1EECI2St15__uniq_ptr_implIS0_S3_EEPS0_ = comdat any

$_ZNSt15__uniq_ptr_implI12ECDSA_SIG_stN4node15FunctionDeleterIS0_XadL_Z14ECDSA_SIG_freeEEEEEC2EPS0_ = comdat any

$_ZNSt5tupleIJP12ECDSA_SIG_stN4node15FunctionDeleterIS0_XadL_Z14ECDSA_SIG_freeEEEEEEC2ILb1ETnNSt9enable_ifIXclsr17_TupleConstraintsIXT_ES1_S4_EE37__is_implicitly_default_constructibleEEbE4typeELb1EEEv = comdat any

$_ZNSt15__uniq_ptr_implI12ECDSA_SIG_stN4node15FunctionDeleterIS0_XadL_Z14ECDSA_SIG_freeEEEEE6_M_ptrEv = comdat any

$_ZNSt11_Tuple_implILm0EJP12ECDSA_SIG_stN4node15FunctionDeleterIS0_XadL_Z14ECDSA_SIG_freeEEEEEEC2Ev = comdat any

$_ZNSt11_Tuple_implILm1EJN4node15FunctionDeleterI12ECDSA_SIG_stXadL_Z14ECDSA_SIG_freeEEEEEEC2Ev = comdat any

$_ZNSt10_Head_baseILm0EP12ECDSA_SIG_stLb0EEC2Ev = comdat any

$_ZNSt10_Head_baseILm1EN4node15FunctionDeleterI12ECDSA_SIG_stXadL_Z14ECDSA_SIG_freeEEEELb1EEC2Ev = comdat any

$_ZSt3getILm0EJP12ECDSA_SIG_stN4node15FunctionDeleterIS0_XadL_Z14ECDSA_SIG_freeEEEEEERNSt13tuple_elementIXT_ESt5tupleIJDpT0_EEE4typeERS9_ = comdat any

$_ZSt12__get_helperILm0EP12ECDSA_SIG_stJN4node15FunctionDeleterIS0_XadL_Z14ECDSA_SIG_freeEEEEEERT0_RSt11_Tuple_implIXT_EJS5_DpT1_EE = comdat any

$_ZNSt11_Tuple_implILm0EJP12ECDSA_SIG_stN4node15FunctionDeleterIS0_XadL_Z14ECDSA_SIG_freeEEEEEE7_M_headERS5_ = comdat any

$_ZNSt10_Head_baseILm0EP12ECDSA_SIG_stLb0EE7_M_headERS2_ = comdat any

$_ZNKSt15__uniq_ptr_implI12ECDSA_SIG_stN4node15FunctionDeleterIS0_XadL_Z14ECDSA_SIG_freeEEEEE6_M_ptrEv = comdat any

$_ZSt3getILm0EJP12ECDSA_SIG_stN4node15FunctionDeleterIS0_XadL_Z14ECDSA_SIG_freeEEEEEERKNSt13tuple_elementIXT_ESt5tupleIJDpT0_EEE4typeERKS9_ = comdat any

$_ZSt12__get_helperILm0EP12ECDSA_SIG_stJN4node15FunctionDeleterIS0_XadL_Z14ECDSA_SIG_freeEEEEEERKT0_RKSt11_Tuple_implIXT_EJS5_DpT1_EE = comdat any

$_ZNSt11_Tuple_implILm0EJP12ECDSA_SIG_stN4node15FunctionDeleterIS0_XadL_Z14ECDSA_SIG_freeEEEEEE7_M_headERKS5_ = comdat any

$_ZNSt10_Head_baseILm0EP12ECDSA_SIG_stLb0EE7_M_headERKS2_ = comdat any

$_ZNSt10unique_ptrI12ECDSA_SIG_stN4node15FunctionDeleterIS0_XadL_Z14ECDSA_SIG_freeEEEEE11get_deleterEv = comdat any

$_ZNK4node15FunctionDeleterI12ECDSA_SIG_stXadL_Z14ECDSA_SIG_freeEEEclEPS1_ = comdat any

$_ZNSt15__uniq_ptr_implI12ECDSA_SIG_stN4node15FunctionDeleterIS0_XadL_Z14ECDSA_SIG_freeEEEEE10_M_deleterEv = comdat any

$_ZSt3getILm1EJP12ECDSA_SIG_stN4node15FunctionDeleterIS0_XadL_Z14ECDSA_SIG_freeEEEEEERNSt13tuple_elementIXT_ESt5tupleIJDpT0_EEE4typeERS9_ = comdat any

$_ZSt12__get_helperILm1EN4node15FunctionDeleterI12ECDSA_SIG_stXadL_Z14ECDSA_SIG_freeEEEEJEERT0_RSt11_Tuple_implIXT_EJS4_DpT1_EE = comdat any

$_ZNSt11_Tuple_implILm1EJN4node15FunctionDeleterI12ECDSA_SIG_stXadL_Z14ECDSA_SIG_freeEEEEEE7_M_headERS4_ = comdat any

$_ZNSt10_Head_baseILm1EN4node15FunctionDeleterI12ECDSA_SIG_stXadL_Z14ECDSA_SIG_freeEEEELb1EE7_M_headERS4_ = comdat any

$_ZNSt15__uniq_ptr_dataIN2v812BackingStoreESt14default_deleteIS1_ELb1ELb1EEaSEOS4_ = comdat any

$_ZNSt15__uniq_ptr_implIN2v812BackingStoreESt14default_deleteIS1_EEaSEOS4_ = comdat any

$_ZNSt15__uniq_ptr_implIN2v812BackingStoreESt14default_deleteIS1_EE5resetEPS1_ = comdat any

$_ZNSt15__uniq_ptr_implIN2v812BackingStoreESt14default_deleteIS1_EE7releaseEv = comdat any

$_ZNSt15__uniq_ptr_implIN2v812BackingStoreESt14default_deleteIS1_EE10_M_deleterEv = comdat any

$_ZNKSt14default_deleteIN2v812BackingStoreEEclEPS1_ = comdat any

$_ZN2v812BackingStoredlEPv = comdat any

$_ZSt3getILm1EJPN2v812BackingStoreESt14default_deleteIS1_EEERNSt13tuple_elementIXT_ESt5tupleIJDpT0_EEE4typeERS9_ = comdat any

$_ZSt12__get_helperILm1ESt14default_deleteIN2v812BackingStoreEEJEERT0_RSt11_Tuple_implIXT_EJS4_DpT1_EE = comdat any

$_ZNSt11_Tuple_implILm1EJSt14default_deleteIN2v812BackingStoreEEEE7_M_headERS4_ = comdat any

$_ZNSt10_Head_baseILm1ESt14default_deleteIN2v812BackingStoreEELb1EE7_M_headERS4_ = comdat any

$_ZNSt12__shared_ptrIN2v812BackingStoreELN9__gnu_cxx12_Lock_policyE2EED2Ev = comdat any

$_ZNSt14__shared_countILN9__gnu_cxx12_Lock_policyE2EED2Ev = comdat any

$_ZNSt16_Sp_counted_baseILN9__gnu_cxx12_Lock_policyE2EE10_M_releaseEv = comdat any

$_ZNSt16_Sp_counted_baseILN9__gnu_cxx12_Lock_policyE2EE24_M_release_last_use_coldEv = comdat any

$_ZNSt16_Sp_counted_baseILN9__gnu_cxx12_Lock_policyE2EE19_M_release_last_useEv = comdat any

$_ZNSt10shared_ptrIN4node9MutexBaseINS0_16LibuvMutexTraitsEEEED2Ev = comdat any

$_ZNSt10unique_ptrI11evp_pkey_stN4node15FunctionDeleterIS0_XadL_Z13EVP_PKEY_freeEEEEED2Ev = comdat any

$_ZNSt12__shared_ptrIN4node9MutexBaseINS0_16LibuvMutexTraitsEEELN9__gnu_cxx12_Lock_policyE2EED2Ev = comdat any

$_ZNSt15__uniq_ptr_implI11evp_pkey_stN4node15FunctionDeleterIS0_XadL_Z13EVP_PKEY_freeEEEEE6_M_ptrEv = comdat any

$_ZNSt10unique_ptrI11evp_pkey_stN4node15FunctionDeleterIS0_XadL_Z13EVP_PKEY_freeEEEEE11get_deleterEv = comdat any

$_ZNK4node15FunctionDeleterI11evp_pkey_stXadL_Z13EVP_PKEY_freeEEEclEPS1_ = comdat any

$_ZSt3getILm0EJP11evp_pkey_stN4node15FunctionDeleterIS0_XadL_Z13EVP_PKEY_freeEEEEEERNSt13tuple_elementIXT_ESt5tupleIJDpT0_EEE4typeERS9_ = comdat any

$_ZSt12__get_helperILm0EP11evp_pkey_stJN4node15FunctionDeleterIS0_XadL_Z13EVP_PKEY_freeEEEEEERT0_RSt11_Tuple_implIXT_EJS5_DpT1_EE = comdat any

$_ZNSt11_Tuple_implILm0EJP11evp_pkey_stN4node15FunctionDeleterIS0_XadL_Z13EVP_PKEY_freeEEEEEE7_M_headERS5_ = comdat any

$_ZNSt10_Head_baseILm0EP11evp_pkey_stLb0EE7_M_headERS2_ = comdat any

$_ZNSt15__uniq_ptr_implI11evp_pkey_stN4node15FunctionDeleterIS0_XadL_Z13EVP_PKEY_freeEEEEE10_M_deleterEv = comdat any

$_ZSt3getILm1EJP11evp_pkey_stN4node15FunctionDeleterIS0_XadL_Z13EVP_PKEY_freeEEEEEERNSt13tuple_elementIXT_ESt5tupleIJDpT0_EEE4typeERS9_ = comdat any

$_ZSt12__get_helperILm1EN4node15FunctionDeleterI11evp_pkey_stXadL_Z13EVP_PKEY_freeEEEEJEERT0_RSt11_Tuple_implIXT_EJS4_DpT1_EE = comdat any

$_ZNSt11_Tuple_implILm1EJN4node15FunctionDeleterI11evp_pkey_stXadL_Z13EVP_PKEY_freeEEEEEE7_M_headERS4_ = comdat any

$_ZNSt10_Head_baseILm1EN4node15FunctionDeleterI11evp_pkey_stXadL_Z13EVP_PKEY_freeEEEELb1EE7_M_headERS4_ = comdat any

$_ZN4node6crypto10ByteSourceC2Ev = comdat any

$_ZN4node14MemoryRetainerD2Ev = comdat any

$_ZN4node14MemoryRetainerD0Ev = comdat any

$_ZN4node13MemoryTracker10TrackFieldEPKcPKNS_14MemoryRetainerES2_ = comdat any

$_ZNSt13unordered_mapIPKN4node14MemoryRetainerEPNS0_18MemoryRetainerNodeESt4hashIS3_ESt8equal_toIS3_ESaISt4pairIKS3_S5_EEE4findERSB_ = comdat any

$_ZNSt8__detailneERKNS_19_Node_iterator_baseISt4pairIKPKN4node14MemoryRetainerEPNS2_18MemoryRetainerNodeEELb0EEESC_ = comdat any

$_ZNSt13unordered_mapIPKN4node14MemoryRetainerEPNS0_18MemoryRetainerNodeESt4hashIS3_ESt8equal_toIS3_ESaISt4pairIKS3_S5_EEE3endEv = comdat any

$_ZNKSt8__detail14_Node_iteratorISt4pairIKPKN4node14MemoryRetainerEPNS2_18MemoryRetainerNodeEELb0ELb0EEptEv = comdat any

$_ZN4node13MemoryTracker5TrackEPKNS_14MemoryRetainerEPKc = comdat any

$_ZNSt10_HashtableIPKN4node14MemoryRetainerESt4pairIKS3_PNS0_18MemoryRetainerNodeEESaIS8_ENSt8__detail10_Select1stESt8equal_toIS3_ESt4hashIS3_ENSA_18_Mod_range_hashingENSA_20_Default_ranged_hashENSA_20_Prime_rehash_policyENSA_17_Hashtable_traitsILb0ELb0ELb1EEEE4findERS5_ = comdat any

$_ZNKSt10_HashtableIPKN4node14MemoryRetainerESt4pairIKS3_PNS0_18MemoryRetainerNodeEESaIS8_ENSt8__detail10_Select1stESt8equal_toIS3_ESt4hashIS3_ENSA_18_Mod_range_hashingENSA_20_Default_ranged_hashENSA_20_Prime_rehash_policyENSA_17_Hashtable_traitsILb0ELb0ELb1EEEE4sizeEv = comdat any

$_ZNSt10_HashtableIPKN4node14MemoryRetainerESt4pairIKS3_PNS0_18MemoryRetainerNodeEESaIS8_ENSt8__detail10_Select1stESt8equal_toIS3_ESt4hashIS3_ENSA_18_Mod_range_hashingENSA_20_Default_ranged_hashENSA_20_Prime_rehash_policyENSA_17_Hashtable_traitsILb0ELb0ELb1EEEE22__small_size_thresholdEv = comdat any

$_ZNSt10_HashtableIPKN4node14MemoryRetainerESt4pairIKS3_PNS0_18MemoryRetainerNodeEESaIS8_ENSt8__detail10_Select1stESt8equal_toIS3_ESt4hashIS3_ENSA_18_Mod_range_hashingENSA_20_Default_ranged_hashENSA_20_Prime_rehash_policyENSA_17_Hashtable_traitsILb0ELb0ELb1EEEE5beginEv = comdat any

$_ZNSt10_HashtableIPKN4node14MemoryRetainerESt4pairIKS3_PNS0_18MemoryRetainerNodeEESaIS8_ENSt8__detail10_Select1stESt8equal_toIS3_ESt4hashIS3_ENSA_18_Mod_range_hashingENSA_20_Default_ranged_hashENSA_20_Prime_rehash_policyENSA_17_Hashtable_traitsILb0ELb0ELb1EEEE3endEv = comdat any

$_ZNKSt8__detail15_Hashtable_baseIPKN4node14MemoryRetainerESt4pairIKS4_PNS1_18MemoryRetainerNodeEENS_10_Select1stESt8equal_toIS4_ESt4hashIS4_ENS_18_Mod_range_hashingENS_20_Default_ranged_hashENS_17_Hashtable_traitsILb0ELb0ELb1EEEE13_M_key_equalsERS6_RKNS_16_Hash_node_valueIS9_Lb0EEE = comdat any

$_ZNSt8__detail14_Node_iteratorISt4pairIKPKN4node14MemoryRetainerEPNS2_18MemoryRetainerNodeEELb0ELb0EEppEv = comdat any

$_ZNKSt8__detail15_Hash_code_baseIPKN4node14MemoryRetainerESt4pairIKS4_PNS1_18MemoryRetainerNodeEENS_10_Select1stESt4hashIS4_ENS_18_Mod_range_hashingENS_20_Default_ranged_hashELb0EE12_M_hash_codeERS6_ = comdat any

$_ZNKSt10_HashtableIPKN4node14MemoryRetainerESt4pairIKS3_PNS0_18MemoryRetainerNodeEESaIS8_ENSt8__detail10_Select1stESt8equal_toIS3_ESt4hashIS3_ENSA_18_Mod_range_hashingENSA_20_Default_ranged_hashENSA_20_Prime_rehash_policyENSA_17_Hashtable_traitsILb0ELb0ELb1EEEE15_M_bucket_indexEm = comdat any

$_ZNKSt10_HashtableIPKN4node14MemoryRetainerESt4pairIKS3_PNS0_18MemoryRetainerNodeEESaIS8_ENSt8__detail10_Select1stESt8equal_toIS3_ESt4hashIS3_ENSA_18_Mod_range_hashingENSA_20_Default_ranged_hashENSA_20_Prime_rehash_policyENSA_17_Hashtable_traitsILb0ELb0ELb1EEEE12_M_find_nodeEmRS5_m = comdat any

$_ZNSt8__detail14_Node_iteratorISt4pairIKPKN4node14MemoryRetainerEPNS2_18MemoryRetainerNodeEELb0ELb0EEC2EPNS_10_Hash_nodeIS9_Lb0EEE = comdat any

$_ZNSt8__detail22_Hashtable_hash_traitsISt4hashIPKN4node14MemoryRetainerEEE22__small_size_thresholdEv = comdat any

$_ZNKSt10_HashtableIPKN4node14MemoryRetainerESt4pairIKS3_PNS0_18MemoryRetainerNodeEESaIS8_ENSt8__detail10_Select1stESt8equal_toIS3_ESt4hashIS3_ENSA_18_Mod_range_hashingENSA_20_Default_ranged_hashENSA_20_Prime_rehash_policyENSA_17_Hashtable_traitsILb0ELb0ELb1EEEE8_M_beginEv = comdat any

$_ZNKSt8__detail15_Hashtable_baseIPKN4node14MemoryRetainerESt4pairIKS4_PNS1_18MemoryRetainerNodeEENS_10_Select1stESt8equal_toIS4_ESt4hashIS4_ENS_18_Mod_range_hashingENS_20_Default_ranged_hashENS_17_Hashtable_traitsILb0ELb0ELb1EEEE5_M_eqEv = comdat any

$_ZNKSt8equal_toIPKN4node14MemoryRetainerEEclERKS3_S6_ = comdat any

$_ZNKSt8__detail10_Select1stclIRKSt4pairIKPKN4node14MemoryRetainerEPNS3_18MemoryRetainerNodeEEEEONS0_10__1st_typeIT_E4typeEOSE_ = comdat any

$_ZNKSt8__detail21_Hash_node_value_baseISt4pairIKPKN4node14MemoryRetainerEPNS2_18MemoryRetainerNodeEEE4_M_vEv = comdat any

$_ZNKSt8__detail21_Hashtable_ebo_helperILi0ESt8equal_toIPKN4node14MemoryRetainerEELb1EE7_M_cgetEv = comdat any

$_ZNKSt8__detail21_Hash_node_value_baseISt4pairIKPKN4node14MemoryRetainerEPNS2_18MemoryRetainerNodeEEE9_M_valptrEv = comdat any

$_ZNK9__gnu_cxx16__aligned_bufferISt4pairIKPKN4node14MemoryRetainerEPNS2_18MemoryRetainerNodeEEE6_M_ptrEv = comdat any

$_ZNK9__gnu_cxx16__aligned_bufferISt4pairIKPKN4node14MemoryRetainerEPNS2_18MemoryRetainerNodeEEE7_M_addrEv = comdat any

$_ZNSt8__detail19_Node_iterator_baseISt4pairIKPKN4node14MemoryRetainerEPNS2_18MemoryRetainerNodeEELb0EE7_M_incrEv = comdat any

$_ZNKSt8__detail10_Hash_nodeISt4pairIKPKN4node14MemoryRetainerEPNS2_18MemoryRetainerNodeEELb0EE7_M_nextEv = comdat any

$_ZNKSt8__detail15_Hash_code_baseIPKN4node14MemoryRetainerESt4pairIKS4_PNS1_18MemoryRetainerNodeEENS_10_Select1stESt4hashIS4_ENS_18_Mod_range_hashingENS_20_Default_ranged_hashELb0EE7_M_hashEv = comdat any

$_ZNKSt4hashIPKN4node14MemoryRetainerEEclES3_ = comdat any

$_ZNKSt8__detail21_Hashtable_ebo_helperILi1ESt4hashIPKN4node14MemoryRetainerEELb1EE7_M_cgetEv = comdat any

$_ZNKSt8__detail15_Hash_code_baseIPKN4node14MemoryRetainerESt4pairIKS4_PNS1_18MemoryRetainerNodeEENS_10_Select1stESt4hashIS4_ENS_18_Mod_range_hashingENS_20_Default_ranged_hashELb0EE15_M_bucket_indexEmm = comdat any

$_ZNKSt8__detail18_Mod_range_hashingclEmm = comdat any

$_ZNKSt10_HashtableIPKN4node14MemoryRetainerESt4pairIKS3_PNS0_18MemoryRetainerNodeEESaIS8_ENSt8__detail10_Select1stESt8equal_toIS3_ESt4hashIS3_ENSA_18_Mod_range_hashingENSA_20_Default_ranged_hashENSA_20_Prime_rehash_policyENSA_17_Hashtable_traitsILb0ELb0ELb1EEEE19_M_find_before_nodeEmRS5_m = comdat any

$_ZNKSt8__detail15_Hashtable_baseIPKN4node14MemoryRetainerESt4pairIKS4_PNS1_18MemoryRetainerNodeEENS_10_Select1stESt8equal_toIS4_ESt4hashIS4_ENS_18_Mod_range_hashingENS_20_Default_ranged_hashENS_17_Hashtable_traitsILb0ELb0ELb1EEEE9_M_equalsERS6_mRKNS_16_Hash_node_valueIS9_Lb0EEE = comdat any

$_ZNKSt10_HashtableIPKN4node14MemoryRetainerESt4pairIKS3_PNS0_18MemoryRetainerNodeEESaIS8_ENSt8__detail10_Select1stESt8equal_toIS3_ESt4hashIS3_ENSA_18_Mod_range_hashingENSA_20_Default_ranged_hashENSA_20_Prime_rehash_policyENSA_17_Hashtable_traitsILb0ELb0ELb1EEEE15_M_bucket_indexERKNSA_16_Hash_node_valueIS8_Lb0EEE = comdat any

$_ZNSt8__detail15_Hashtable_baseIPKN4node14MemoryRetainerESt4pairIKS4_PNS1_18MemoryRetainerNodeEENS_10_Select1stESt8equal_toIS4_ESt4hashIS4_ENS_18_Mod_range_hashingENS_20_Default_ranged_hashENS_17_Hashtable_traitsILb0ELb0ELb1EEEE9_S_equalsEmRKNS_21_Hash_node_code_cacheILb0EEE = comdat any

$_ZNKSt8__detail15_Hash_code_baseIPKN4node14MemoryRetainerESt4pairIKS4_PNS1_18MemoryRetainerNodeEENS_10_Select1stESt4hashIS4_ENS_18_Mod_range_hashingENS_20_Default_ranged_hashELb0EE15_M_bucket_indexERKNS_16_Hash_node_valueIS9_Lb0EEEm = comdat any

$_ZNSt8__detail19_Node_iterator_baseISt4pairIKPKN4node14MemoryRetainerEPNS2_18MemoryRetainerNodeEELb0EEC2EPNS_10_Hash_nodeIS9_Lb0EEE = comdat any

$_ZNSt8__detail21_Hash_node_value_baseISt4pairIKPKN4node14MemoryRetainerEPNS2_18MemoryRetainerNodeEEE9_M_valptrEv = comdat any

$_ZN9__gnu_cxx16__aligned_bufferISt4pairIKPKN4node14MemoryRetainerEPNS2_18MemoryRetainerNodeEEE6_M_ptrEv = comdat any

$_ZN9__gnu_cxx16__aligned_bufferISt4pairIKPKN4node14MemoryRetainerEPNS2_18MemoryRetainerNodeEEE7_M_addrEv = comdat any

$_ZN4node13MemoryTracker8PushNodeEPKNS_14MemoryRetainerEPKc = comdat any

$_ZN4node13MemoryTracker7PopNodeEv = comdat any

$_ZN4node13MemoryTracker7AddNodeEPKNS_14MemoryRetainerEPKc = comdat any

$_ZNSt5stackIPN4node18MemoryRetainerNodeESt5dequeIS2_SaIS2_EEE4pushERKS2_ = comdat any

$_ZN4node18MemoryRetainerNodeC2EPNS_13MemoryTrackerEPKNS_14MemoryRetainerE = comdat any

$_ZNSt13unordered_mapIPKN4node14MemoryRetainerEPNS0_18MemoryRetainerNodeESt4hashIS3_ESt8equal_toIS3_ESaISt4pairIKS3_S5_EEEixERSB_ = comdat any

$_ZN4node18MemoryRetainerNode13JSWrapperNodeEv = comdat any

$_ZN4node13MemoryTracker7isolateEv = comdat any

$_ZN4node13MemoryTracker5graphEv = comdat any

$_ZNSt8__detail9_Map_baseIPKN4node14MemoryRetainerESt4pairIKS4_PNS1_18MemoryRetainerNodeEESaIS9_ENS_10_Select1stESt8equal_toIS4_ESt4hashIS4_ENS_18_Mod_range_hashingENS_20_Default_ranged_hashENS_20_Prime_rehash_policyENS_17_Hashtable_traitsILb0ELb0ELb1EEELb1EEixERS6_ = comdat any

$_ZNSt8__detail21_Hash_node_value_baseISt4pairIKPKN4node14MemoryRetainerEPNS2_18MemoryRetainerNodeEEE4_M_vEv = comdat any

$_ZNSt5tupleIJRKPKN4node14MemoryRetainerEEEC2ILb1ETnNSt9enable_ifIXclsr4_TCCIXT_EEE29__is_implicitly_constructibleIS5_EEEbE4typeELb1EEES5_ = comdat any

$_ZNSt10_HashtableIPKN4node14MemoryRetainerESt4pairIKS3_PNS0_18MemoryRetainerNodeEESaIS8_ENSt8__detail10_Select1stESt8equal_toIS3_ESt4hashIS3_ENSA_18_Mod_range_hashingENSA_20_Default_ranged_hashENSA_20_Prime_rehash_policyENSA_17_Hashtable_traitsILb0ELb0ELb1EEEE12_Scoped_nodeC2IJRKSt21piecewise_construct_tSt5tupleIJRS5_EESR_IJEEEEEPNSA_16_Hashtable_allocISaINSA_10_Hash_nodeIS8_Lb0EEEEEEDpOT_ = comdat any

$_ZNSt10_HashtableIPKN4node14MemoryRetainerESt4pairIKS3_PNS0_18MemoryRetainerNodeEESaIS8_ENSt8__detail10_Select1stESt8equal_toIS3_ESt4hashIS3_ENSA_18_Mod_range_hashingENSA_20_Default_ranged_hashENSA_20_Prime_rehash_policyENSA_17_Hashtable_traitsILb0ELb0ELb1EEEE21_M_insert_unique_nodeEmmPNSA_10_Hash_nodeIS8_Lb0EEEm = comdat any

$_ZNSt10_HashtableIPKN4node14MemoryRetainerESt4pairIKS3_PNS0_18MemoryRetainerNodeEESaIS8_ENSt8__detail10_Select1stESt8equal_toIS3_ESt4hashIS3_ENSA_18_Mod_range_hashingENSA_20_Default_ranged_hashENSA_20_Prime_rehash_policyENSA_17_Hashtable_traitsILb0ELb0ELb1EEEE12_Scoped_nodeD2Ev = comdat any

$_ZNSt11_Tuple_implILm0EJRKPKN4node14MemoryRetainerEEEC2ES5_ = comdat any

$_ZNSt10_Head_baseILm0ERKPKN4node14MemoryRetainerELb0EEC2ES5_ = comdat any

$_ZNSt8__detail16_Hashtable_allocISaINS_10_Hash_nodeISt4pairIKPKN4node14MemoryRetainerEPNS3_18MemoryRetainerNodeEELb0EEEEE16_M_allocate_nodeIJRKSt21piecewise_construct_tSt5tupleIJRS7_EESI_IJEEEEEPSB_DpOT_ = comdat any

$_ZNSt16allocator_traitsISaINSt8__detail10_Hash_nodeISt4pairIKPKN4node14MemoryRetainerEPNS3_18MemoryRetainerNodeEELb0EEEEE8allocateERSC_m = comdat any

$_ZNSt8__detail16_Hashtable_allocISaINS_10_Hash_nodeISt4pairIKPKN4node14MemoryRetainerEPNS3_18MemoryRetainerNodeEELb0EEEEE17_M_node_allocatorEv = comdat any

$_ZSt12__to_addressINSt8__detail10_Hash_nodeISt4pairIKPKN4node14MemoryRetainerEPNS3_18MemoryRetainerNodeEELb0EEEEPT_SD_ = comdat any

$_ZNSt8__detail10_Hash_nodeISt4pairIKPKN4node14MemoryRetainerEPNS2_18MemoryRetainerNodeEELb0EEC2Ev = comdat any

$_ZNSt16allocator_traitsISaINSt8__detail10_Hash_nodeISt4pairIKPKN4node14MemoryRetainerEPNS3_18MemoryRetainerNodeEELb0EEEEE9constructISA_JRKSt21piecewise_construct_tSt5tupleIJRS7_EESI_IJEEEEEvRSC_PT_DpOT0_ = comdat any

$_ZNSt15__new_allocatorINSt8__detail10_Hash_nodeISt4pairIKPKN4node14MemoryRetainerEPNS3_18MemoryRetainerNodeEELb0EEEE8allocateEmPKv = comdat any

$_ZNKSt15__new_allocatorINSt8__detail10_Hash_nodeISt4pairIKPKN4node14MemoryRetainerEPNS3_18MemoryRetainerNodeEELb0EEEE11_M_max_sizeEv = comdat any

$_ZNSt8__detail21_Hashtable_ebo_helperILi0ESaINS_10_Hash_nodeISt4pairIKPKN4node14MemoryRetainerEPNS3_18MemoryRetainerNodeEELb0EEEELb1EE6_M_getEv = comdat any

$_ZNSt8__detail15_Hash_node_baseC2Ev = comdat any

$_ZNSt15__new_allocatorINSt8__detail10_Hash_nodeISt4pairIKPKN4node14MemoryRetainerEPNS3_18MemoryRetainerNodeEELb0EEEE9constructISA_JRKSt21piecewise_construct_tSt5tupleIJRS7_EESH_IJEEEEEvPT_DpOT0_ = comdat any

$_ZNSt5tupleIJRKPKN4node14MemoryRetainerEEEC2EOS6_ = comdat any

$_ZNSt4pairIKPKN4node14MemoryRetainerEPNS0_18MemoryRetainerNodeEEC2IJRS4_EJEEESt21piecewise_construct_tSt5tupleIJDpT_EESB_IJDpT0_EE = comdat any

$_ZNSt11_Tuple_implILm0EJRKPKN4node14MemoryRetainerEEEC2EOS6_ = comdat any

$_ZNSt4pairIKPKN4node14MemoryRetainerEPNS0_18MemoryRetainerNodeEEC2IJRS4_EJLm0EEJETpTnmJEEERSt5tupleIJDpT_EERSA_IJDpT1_EESt12_Index_tupleIJXspT0_EEESJ_IJXspT2_EEE = comdat any

$_ZSt3getILm0EJRKPKN4node14MemoryRetainerEEERNSt13tuple_elementIXT_ESt5tupleIJDpT0_EEE4typeERSA_ = comdat any

$_ZSt12__get_helperILm0ERKPKN4node14MemoryRetainerEJEERT0_RSt11_Tuple_implIXT_EJS6_DpT1_EE = comdat any

$_ZNSt11_Tuple_implILm0EJRKPKN4node14MemoryRetainerEEE7_M_headERS6_ = comdat any

$_ZNSt10_Head_baseILm0ERKPKN4node14MemoryRetainerELb0EE7_M_headERS6_ = comdat any

$_ZNKSt8__detail20_Prime_rehash_policy8_M_stateEv = comdat any

$_ZNSt10_HashtableIPKN4node14MemoryRetainerESt4pairIKS3_PNS0_18MemoryRetainerNodeEESaIS8_ENSt8__detail10_Select1stESt8equal_toIS3_ESt4hashIS3_ENSA_18_Mod_range_hashingENSA_20_Default_ranged_hashENSA_20_Prime_rehash_policyENSA_17_Hashtable_traitsILb0ELb0ELb1EEEE9_M_rehashEmRKm = comdat any

$_ZNKSt8__detail15_Hash_code_baseIPKN4node14MemoryRetainerESt4pairIKS4_PNS1_18MemoryRetainerNodeEENS_10_Select1stESt4hashIS4_ENS_18_Mod_range_hashingENS_20_Default_ranged_hashELb0EE13_M_store_codeERNS_21_Hash_node_code_cacheILb0EEEm = comdat any

$_ZNSt10_HashtableIPKN4node14MemoryRetainerESt4pairIKS3_PNS0_18MemoryRetainerNodeEESaIS8_ENSt8__detail10_Select1stESt8equal_toIS3_ESt4hashIS3_ENSA_18_Mod_range_hashingENSA_20_Default_ranged_hashENSA_20_Prime_rehash_policyENSA_17_Hashtable_traitsILb0ELb0ELb1EEEE22_M_insert_bucket_beginEmPNSA_10_Hash_nodeIS8_Lb0EEE = comdat any

$_ZNSt10_HashtableIPKN4node14MemoryRetainerESt4pairIKS3_PNS0_18MemoryRetainerNodeEESaIS8_ENSt8__detail10_Select1stESt8equal_toIS3_ESt4hashIS3_ENSA_18_Mod_range_hashingENSA_20_Default_ranged_hashENSA_20_Prime_rehash_policyENSA_17_Hashtable_traitsILb0ELb0ELb1EEEE13_M_rehash_auxEmSt17integral_constantIbLb1EE = comdat any

$_ZNSt10_HashtableIPKN4node14MemoryRetainerESt4pairIKS3_PNS0_18MemoryRetainerNodeEESaIS8_ENSt8__detail10_Select1stESt8equal_toIS3_ESt4hashIS3_ENSA_18_Mod_range_hashingENSA_20_Default_ranged_hashENSA_20_Prime_rehash_policyENSA_17_Hashtable_traitsILb0ELb0ELb1EEEE19_M_allocate_bucketsEm = comdat any

$_ZNSt10_HashtableIPKN4node14MemoryRetainerESt4pairIKS3_PNS0_18MemoryRetainerNodeEESaIS8_ENSt8__detail10_Select1stESt8equal_toIS3_ESt4hashIS3_ENSA_18_Mod_range_hashingENSA_20_Default_ranged_hashENSA_20_Prime_rehash_policyENSA_17_Hashtable_traitsILb0ELb0ELb1EEEE21_M_deallocate_bucketsEv = comdat any

$_ZNSt8__detail16_Hashtable_allocISaINS_10_Hash_nodeISt4pairIKPKN4node14MemoryRetainerEPNS3_18MemoryRetainerNodeEELb0EEEEE19_M_allocate_bucketsEm = comdat any

$_ZNSaIPNSt8__detail15_Hash_node_baseEEC2INS_10_Hash_nodeISt4pairIKPKN4node14MemoryRetainerEPNS6_18MemoryRetainerNodeEELb0EEEEERKSaIT_E = comdat any

$_ZNSt16allocator_traitsISaIPNSt8__detail15_Hash_node_baseEEE8allocateERS3_m = comdat any

$_ZSt12__to_addressIPNSt8__detail15_Hash_node_baseEEPT_S4_ = comdat any

$_ZNSaIPNSt8__detail15_Hash_node_baseEED2Ev = comdat any

$_ZNSt15__new_allocatorIPNSt8__detail15_Hash_node_baseEEC2Ev = comdat any

$_ZNSt15__new_allocatorIPNSt8__detail15_Hash_node_baseEE8allocateEmPKv = comdat any

$_ZNKSt15__new_allocatorIPNSt8__detail15_Hash_node_baseEE11_M_max_sizeEv = comdat any

$_ZNSt15__new_allocatorIPNSt8__detail15_Hash_node_baseEED2Ev = comdat any

$_ZNSt10_HashtableIPKN4node14MemoryRetainerESt4pairIKS3_PNS0_18MemoryRetainerNodeEESaIS8_ENSt8__detail10_Select1stESt8equal_toIS3_ESt4hashIS3_ENSA_18_Mod_range_hashingENSA_20_Default_ranged_hashENSA_20_Prime_rehash_policyENSA_17_Hashtable_traitsILb0ELb0ELb1EEEE21_M_deallocate_bucketsEPPNSA_15_Hash_node_baseEm = comdat any

$_ZNKSt10_HashtableIPKN4node14MemoryRetainerESt4pairIKS3_PNS0_18MemoryRetainerNodeEESaIS8_ENSt8__detail10_Select1stESt8equal_toIS3_ESt4hashIS3_ENSA_18_Mod_range_hashingENSA_20_Default_ranged_hashENSA_20_Prime_rehash_policyENSA_17_Hashtable_traitsILb0ELb0ELb1EEEE21_M_uses_single_bucketEPPNSA_15_Hash_node_baseE = comdat any

$_ZNSt8__detail16_Hashtable_allocISaINS_10_Hash_nodeISt4pairIKPKN4node14MemoryRetainerEPNS3_18MemoryRetainerNodeEELb0EEEEE21_M_deallocate_bucketsEPPNS_15_Hash_node_baseEm = comdat any

$_ZNSt19__ptr_traits_ptr_toIPPNSt8__detail15_Hash_node_baseES2_Lb0EE10pointer_toERS2_ = comdat any

$_ZNSt16allocator_traitsISaIPNSt8__detail15_Hash_node_baseEEE10deallocateERS3_PS2_m = comdat any

$_ZNSt15__new_allocatorIPNSt8__detail15_Hash_node_baseEE10deallocateEPS2_m = comdat any

$_ZNSt8__detail16_Hashtable_allocISaINS_10_Hash_nodeISt4pairIKPKN4node14MemoryRetainerEPNS3_18MemoryRetainerNodeEELb0EEEEE18_M_deallocate_nodeEPSB_ = comdat any

$_ZNSt16allocator_traitsISaINSt8__detail10_Hash_nodeISt4pairIKPKN4node14MemoryRetainerEPNS3_18MemoryRetainerNodeEELb0EEEEE7destroyISA_EEvRSC_PT_ = comdat any

$_ZNSt8__detail16_Hashtable_allocISaINS_10_Hash_nodeISt4pairIKPKN4node14MemoryRetainerEPNS3_18MemoryRetainerNodeEELb0EEEEE22_M_deallocate_node_ptrEPSB_ = comdat any

$_ZNSt15__new_allocatorINSt8__detail10_Hash_nodeISt4pairIKPKN4node14MemoryRetainerEPNS3_18MemoryRetainerNodeEELb0EEEE7destroyISA_EEvPT_ = comdat any

$_ZNSt19__ptr_traits_ptr_toIPNSt8__detail10_Hash_nodeISt4pairIKPKN4node14MemoryRetainerEPNS3_18MemoryRetainerNodeEELb0EEESB_Lb0EE10pointer_toERSB_ = comdat any

$_ZNSt16allocator_traitsISaINSt8__detail10_Hash_nodeISt4pairIKPKN4node14MemoryRetainerEPNS3_18MemoryRetainerNodeEELb0EEEEE10deallocateERSC_PSB_m = comdat any

$_ZNSt15__new_allocatorINSt8__detail10_Hash_nodeISt4pairIKPKN4node14MemoryRetainerEPNS3_18MemoryRetainerNodeEELb0EEEE10deallocateEPSB_m = comdat any

$_ZNSt5dequeIPN4node18MemoryRetainerNodeESaIS2_EE9push_backERKS2_ = comdat any

$_ZNSt16allocator_traitsISaIPN4node18MemoryRetainerNodeEEE9constructIS2_JRKS2_EEEvRS3_PT_DpOT0_ = comdat any

$_ZNSt5dequeIPN4node18MemoryRetainerNodeESaIS2_EE16_M_push_back_auxIJRKS2_EEEvDpOT_ = comdat any

$_ZNSt15__new_allocatorIPN4node18MemoryRetainerNodeEE9constructIS2_JRKS2_EEEvPT_DpOT0_ = comdat any

$_ZNKSt5dequeIPN4node18MemoryRetainerNodeESaIS2_EE4sizeEv = comdat any

$_ZNKSt5dequeIPN4node18MemoryRetainerNodeESaIS2_EE8max_sizeEv = comdat any

$_ZNSt5dequeIPN4node18MemoryRetainerNodeESaIS2_EE22_M_reserve_map_at_backEm = comdat any

$_ZNSt11_Deque_baseIPN4node18MemoryRetainerNodeESaIS2_EE16_M_allocate_nodeEv = comdat any

$_ZNSt15_Deque_iteratorIPN4node18MemoryRetainerNodeERS2_PS2_E11_M_set_nodeEPS4_ = comdat any

$_ZStmiRKSt15_Deque_iteratorIPN4node18MemoryRetainerNodeERS2_PS2_ES7_ = comdat any

$_ZNSt15_Deque_iteratorIPN4node18MemoryRetainerNodeERS2_PS2_E14_S_buffer_sizeEv = comdat any

$_ZNSt5dequeIPN4node18MemoryRetainerNodeESaIS2_EE11_S_max_sizeERKS3_ = comdat any

$_ZNKSt11_Deque_baseIPN4node18MemoryRetainerNodeESaIS2_EE19_M_get_Tp_allocatorEv = comdat any

$_ZNSt16allocator_traitsISaIPN4node18MemoryRetainerNodeEEE8max_sizeERKS3_ = comdat any

$_ZNKSt15__new_allocatorIPN4node18MemoryRetainerNodeEE8max_sizeEv = comdat any

$_ZNKSt15__new_allocatorIPN4node18MemoryRetainerNodeEE11_M_max_sizeEv = comdat any

$_ZNSt5dequeIPN4node18MemoryRetainerNodeESaIS2_EE17_M_reallocate_mapEmb = comdat any

$_ZSt4copyIPPPN4node18MemoryRetainerNodeES4_ET0_T_S6_S5_ = comdat any

$_ZSt13copy_backwardIPPPN4node18MemoryRetainerNodeES4_ET0_T_S6_S5_ = comdat any

$_ZNSt11_Deque_baseIPN4node18MemoryRetainerNodeESaIS2_EE15_M_allocate_mapEm = comdat any

$_ZNSt11_Deque_baseIPN4node18MemoryRetainerNodeESaIS2_EE17_M_deallocate_mapEPPS2_m = comdat any

$_ZSt13__copy_move_aILb0EPPPN4node18MemoryRetainerNodeES4_ET1_T0_S6_S5_ = comdat any

$_ZSt12__miter_baseIPPPN4node18MemoryRetainerNodeEET_S5_ = comdat any

$_ZSt12__niter_wrapIPPPN4node18MemoryRetainerNodeEET_RKS5_S5_ = comdat any

$_ZSt14__copy_move_a1ILb0EPPPN4node18MemoryRetainerNodeES4_ET1_T0_S6_S5_ = comdat any

$_ZSt12__niter_baseIPPPN4node18MemoryRetainerNodeEET_S5_ = comdat any

$_ZSt14__copy_move_a2ILb0EPPPN4node18MemoryRetainerNodeES4_ET1_T0_S6_S5_ = comdat any

$_ZNSt11__copy_moveILb0ELb1ESt26random_access_iterator_tagE8__copy_mIPPN4node18MemoryRetainerNodeEEEPT_PKS7_SA_S8_ = comdat any

$_ZSt22__copy_move_backward_aILb0EPPPN4node18MemoryRetainerNodeES4_ET1_T0_S6_S5_ = comdat any

$_ZSt23__copy_move_backward_a1ILb0EPPPN4node18MemoryRetainerNodeES4_ET1_T0_S6_S5_ = comdat any

$_ZSt23__copy_move_backward_a2ILb0EPPPN4node18MemoryRetainerNodeES4_ET1_T0_S6_S5_ = comdat any

$_ZNSt20__copy_move_backwardILb0ELb1ESt26random_access_iterator_tagE13__copy_move_bIPPN4node18MemoryRetainerNodeEEEPT_PKS7_SA_S8_ = comdat any

$_ZNKSt11_Deque_baseIPN4node18MemoryRetainerNodeESaIS2_EE20_M_get_map_allocatorEv = comdat any

$_ZNSt16allocator_traitsISaIPPN4node18MemoryRetainerNodeEEE8allocateERS4_m = comdat any

$_ZNSaIPPN4node18MemoryRetainerNodeEED2Ev = comdat any

$_ZNSaIPPN4node18MemoryRetainerNodeEEC2IS1_EERKSaIT_E = comdat any

$_ZNSt15__new_allocatorIPPN4node18MemoryRetainerNodeEEC2Ev = comdat any

$_ZNSt15__new_allocatorIPPN4node18MemoryRetainerNodeEE8allocateEmPKv = comdat any

$_ZNKSt15__new_allocatorIPPN4node18MemoryRetainerNodeEE11_M_max_sizeEv = comdat any

$_ZNSt15__new_allocatorIPPN4node18MemoryRetainerNodeEED2Ev = comdat any

$_ZNSt16allocator_traitsISaIPPN4node18MemoryRetainerNodeEEE10deallocateERS4_PS3_m = comdat any

$_ZNSt15__new_allocatorIPPN4node18MemoryRetainerNodeEE10deallocateEPS3_m = comdat any

$_ZNSt16allocator_traitsISaIPN4node18MemoryRetainerNodeEEE8allocateERS3_m = comdat any

$_ZNSt15__new_allocatorIPN4node18MemoryRetainerNodeEE8allocateEmPKv = comdat any

$_ZNSt5stackIPN4node18MemoryRetainerNodeESt5dequeIS2_SaIS2_EEE3popEv = comdat any

$_ZNSt5dequeIPN4node18MemoryRetainerNodeESaIS2_EE8pop_backEv = comdat any

$_ZNSt16allocator_traitsISaIPN4node18MemoryRetainerNodeEEE7destroyIS2_EEvRS3_PT_ = comdat any

$_ZNSt11_Deque_baseIPN4node18MemoryRetainerNodeESaIS2_EE19_M_get_Tp_allocatorEv = comdat any

$_ZNSt5dequeIPN4node18MemoryRetainerNodeESaIS2_EE15_M_pop_back_auxEv = comdat any

$_ZNSt15__new_allocatorIPN4node18MemoryRetainerNodeEE7destroyIS2_EEvPT_ = comdat any

$_ZNSt11_Deque_baseIPN4node18MemoryRetainerNodeESaIS2_EE18_M_deallocate_nodeEPS2_ = comdat any

$_ZNSt16allocator_traitsISaIPN4node18MemoryRetainerNodeEEE10deallocateERS3_PS2_m = comdat any

$_ZNSt15__new_allocatorIPN4node18MemoryRetainerNodeEE10deallocateEPS2_m = comdat any

$_ZNSt10unique_ptrI11evp_pkey_stN4node15FunctionDeleterIS0_XadL_Z13EVP_PKEY_freeEEEEEC2IS3_vEEv = comdat any

$_ZSt11make_sharedIN4node9MutexBaseINS0_16LibuvMutexTraitsEEEJEESt10shared_ptrINSt9enable_ifIXntsr8is_arrayIT_EE5valueES6_E4typeEEDpOT0_ = comdat any

$_ZNSt15__uniq_ptr_dataI11evp_pkey_stN4node15FunctionDeleterIS0_XadL_Z13EVP_PKEY_freeEEEELb1ELb1EEC2Ev = comdat any

$_ZNSt15__uniq_ptr_implI11evp_pkey_stN4node15FunctionDeleterIS0_XadL_Z13EVP_PKEY_freeEEEEEC2Ev = comdat any

$_ZNSt5tupleIJP11evp_pkey_stN4node15FunctionDeleterIS0_XadL_Z13EVP_PKEY_freeEEEEEEC2ILb1ETnNSt9enable_ifIXclsr17_TupleConstraintsIXT_ES1_S4_EE37__is_implicitly_default_constructibleEEbE4typeELb1EEEv = comdat any

$_ZNSt11_Tuple_implILm0EJP11evp_pkey_stN4node15FunctionDeleterIS0_XadL_Z13EVP_PKEY_freeEEEEEEC2Ev = comdat any

$_ZNSt11_Tuple_implILm1EJN4node15FunctionDeleterI11evp_pkey_stXadL_Z13EVP_PKEY_freeEEEEEEC2Ev = comdat any

$_ZNSt10_Head_baseILm0EP11evp_pkey_stLb0EEC2Ev = comdat any

$_ZNSt10_Head_baseILm1EN4node15FunctionDeleterI11evp_pkey_stXadL_Z13EVP_PKEY_freeEEEELb1EEC2Ev = comdat any

$_ZNSt10shared_ptrIN4node9MutexBaseINS0_16LibuvMutexTraitsEEEEC2ISaIvEJEEESt20_Sp_alloc_shared_tagIT_EDpOT0_ = comdat any

$_ZNSt12__shared_ptrIN4node9MutexBaseINS0_16LibuvMutexTraitsEEELN9__gnu_cxx12_Lock_policyE2EEC2ISaIvEJEEESt20_Sp_alloc_shared_tagIT_EDpOT0_ = comdat any

$_ZNSt14__shared_countILN9__gnu_cxx12_Lock_policyE2EEC2IN4node9MutexBaseINS4_16LibuvMutexTraitsEEESaIvEJEEERPT_St20_Sp_alloc_shared_tagIT0_EDpOT1_ = comdat any

$_ZNSt12__shared_ptrIN4node9MutexBaseINS0_16LibuvMutexTraitsEEELN9__gnu_cxx12_Lock_policyE2EE31_M_enable_shared_from_this_withIS3_S3_EENSt9enable_ifIXntsr15__has_esft_baseIT0_EE5valueEvE4typeEPT_ = comdat any

$_ZNSaISt23_Sp_counted_ptr_inplaceIN4node9MutexBaseINS0_16LibuvMutexTraitsEEESaIvELN9__gnu_cxx12_Lock_policyE2EEEC2IvEERKSaIT_E = comdat any

$_ZSt18__allocate_guardedISaISt23_Sp_counted_ptr_inplaceIN4node9MutexBaseINS1_16LibuvMutexTraitsEEESaIvELN9__gnu_cxx12_Lock_policyE2EEEESt15__allocated_ptrIT_ERSB_ = comdat any

$_ZNSt15__allocated_ptrISaISt23_Sp_counted_ptr_inplaceIN4node9MutexBaseINS1_16LibuvMutexTraitsEEESaIvELN9__gnu_cxx12_Lock_policyE2EEEE3getEv = comdat any

$_ZNSt23_Sp_counted_ptr_inplaceIN4node9MutexBaseINS0_16LibuvMutexTraitsEEESaIvELN9__gnu_cxx12_Lock_policyE2EEC2IJEEES4_DpOT_ = comdat any

$_ZNSt15__allocated_ptrISaISt23_Sp_counted_ptr_inplaceIN4node9MutexBaseINS1_16LibuvMutexTraitsEEESaIvELN9__gnu_cxx12_Lock_policyE2EEEEaSEDn = comdat any

$_ZNSt23_Sp_counted_ptr_inplaceIN4node9MutexBaseINS0_16LibuvMutexTraitsEEESaIvELN9__gnu_cxx12_Lock_policyE2EE6_M_ptrEv = comdat any

$_ZNSt15__allocated_ptrISaISt23_Sp_counted_ptr_inplaceIN4node9MutexBaseINS1_16LibuvMutexTraitsEEESaIvELN9__gnu_cxx12_Lock_policyE2EEEED2Ev = comdat any

$_ZNSaISt23_Sp_counted_ptr_inplaceIN4node9MutexBaseINS0_16LibuvMutexTraitsEEESaIvELN9__gnu_cxx12_Lock_policyE2EEED2Ev = comdat any

$_ZNSt15__new_allocatorISt23_Sp_counted_ptr_inplaceIN4node9MutexBaseINS1_16LibuvMutexTraitsEEESaIvELN9__gnu_cxx12_Lock_policyE2EEEC2Ev = comdat any

$_ZNSt16allocator_traitsISaISt23_Sp_counted_ptr_inplaceIN4node9MutexBaseINS1_16LibuvMutexTraitsEEESaIvELN9__gnu_cxx12_Lock_policyE2EEEE8allocateERS9_m = comdat any

$_ZNSt15__allocated_ptrISaISt23_Sp_counted_ptr_inplaceIN4node9MutexBaseINS1_16LibuvMutexTraitsEEESaIvELN9__gnu_cxx12_Lock_policyE2EEEEC2ERS9_PS8_ = comdat any

$_ZNSt15__new_allocatorISt23_Sp_counted_ptr_inplaceIN4node9MutexBaseINS1_16LibuvMutexTraitsEEESaIvELN9__gnu_cxx12_Lock_policyE2EEE8allocateEmPKv = comdat any

$_ZNKSt15__new_allocatorISt23_Sp_counted_ptr_inplaceIN4node9MutexBaseINS1_16LibuvMutexTraitsEEESaIvELN9__gnu_cxx12_Lock_policyE2EEE11_M_max_sizeEv = comdat any

$_ZSt12__to_addressISt23_Sp_counted_ptr_inplaceIN4node9MutexBaseINS1_16LibuvMutexTraitsEEESaIvELN9__gnu_cxx12_Lock_policyE2EEEPT_SA_ = comdat any

$_ZNSt16_Sp_counted_baseILN9__gnu_cxx12_Lock_policyE2EEC2Ev = comdat any

$_ZNSt23_Sp_counted_ptr_inplaceIN4node9MutexBaseINS0_16LibuvMutexTraitsEEESaIvELN9__gnu_cxx12_Lock_policyE2EE5_ImplC2ES4_ = comdat any

$_ZNSt16allocator_traitsISaIvEE9constructIN4node9MutexBaseINS3_16LibuvMutexTraitsEEEJEEEvRS0_PT_DpOT0_ = comdat any

$_ZNSt23_Sp_counted_ptr_inplaceIN4node9MutexBaseINS0_16LibuvMutexTraitsEEESaIvELN9__gnu_cxx12_Lock_policyE2EED2Ev = comdat any

$_ZNSt23_Sp_counted_ptr_inplaceIN4node9MutexBaseINS0_16LibuvMutexTraitsEEESaIvELN9__gnu_cxx12_Lock_policyE2EED0Ev = comdat any

$_ZNSt23_Sp_counted_ptr_inplaceIN4node9MutexBaseINS0_16LibuvMutexTraitsEEESaIvELN9__gnu_cxx12_Lock_policyE2EE10_M_disposeEv = comdat any

$_ZNSt23_Sp_counted_ptr_inplaceIN4node9MutexBaseINS0_16LibuvMutexTraitsEEESaIvELN9__gnu_cxx12_Lock_policyE2EE10_M_destroyEv = comdat any

$_ZNSt23_Sp_counted_ptr_inplaceIN4node9MutexBaseINS0_16LibuvMutexTraitsEEESaIvELN9__gnu_cxx12_Lock_policyE2EE14_M_get_deleterERKSt9type_info = comdat any

$_ZNSt16_Sp_counted_baseILN9__gnu_cxx12_Lock_policyE2EED2Ev = comdat any

$_ZNSt16_Sp_counted_baseILN9__gnu_cxx12_Lock_policyE2EED0Ev = comdat any

$_ZNSt16_Sp_counted_baseILN9__gnu_cxx12_Lock_policyE2EE10_M_destroyEv = comdat any

$_ZNSt14_Sp_ebo_helperILi0ESaIvELb1EEC2ERKS0_ = comdat any

$_ZSt10_ConstructIN4node9MutexBaseINS0_16LibuvMutexTraitsEEEJEEvPT_DpOT0_ = comdat any

$_ZN4node9MutexBaseINS_16LibuvMutexTraitsEEC2Ev = comdat any

$_ZN4node16LibuvMutexTraits10mutex_initEP15pthread_mutex_t = comdat any

$_ZNSt16allocator_traitsISaIvEE7destroyIN4node9MutexBaseINS3_16LibuvMutexTraitsEEEEEvRS0_PT_ = comdat any

$_ZNSt23_Sp_counted_ptr_inplaceIN4node9MutexBaseINS0_16LibuvMutexTraitsEEESaIvELN9__gnu_cxx12_Lock_policyE2EE5_Impl8_M_allocEv = comdat any

$_ZSt8_DestroyIN4node9MutexBaseINS0_16LibuvMutexTraitsEEEEvPT_ = comdat any

$_ZN4node9MutexBaseINS_16LibuvMutexTraitsEED2Ev = comdat any

$_ZN4node16LibuvMutexTraits13mutex_destroyEP15pthread_mutex_t = comdat any

$_ZNSt14_Sp_ebo_helperILi0ESaIvELb1EE6_S_getERS1_ = comdat any

$_ZNSt19_Sp_make_shared_tag5_S_tiEv = comdat any

$_ZN9__gnu_cxx16__aligned_bufferIN4node9MutexBaseINS1_16LibuvMutexTraitsEEEE6_M_ptrEv = comdat any

$_ZN9__gnu_cxx16__aligned_bufferIN4node9MutexBaseINS1_16LibuvMutexTraitsEEEE7_M_addrEv = comdat any

$_ZNSt16allocator_traitsISaISt23_Sp_counted_ptr_inplaceIN4node9MutexBaseINS1_16LibuvMutexTraitsEEESaIvELN9__gnu_cxx12_Lock_policyE2EEEE10deallocateERS9_PS8_m = comdat any

$_ZNSt15__new_allocatorISt23_Sp_counted_ptr_inplaceIN4node9MutexBaseINS1_16LibuvMutexTraitsEEESaIvELN9__gnu_cxx12_Lock_policyE2EEE10deallocateEPS8_m = comdat any

$_ZNSt15__new_allocatorISt23_Sp_counted_ptr_inplaceIN4node9MutexBaseINS1_16LibuvMutexTraitsEEESaIvELN9__gnu_cxx12_Lock_policyE2EEED2Ev = comdat any

$_ZN4node6crypto13MallocOpenSSLIcEEPT_m = comdat any

$_ZN4node25MultiplyWithOverflowCheckImEET_S1_S1_ = comdat any

$_ZNKSt8optionalImEcvbEv = comdat any

$_ZNRSt8optionalImEdeEv = comdat any

$_ZNKSt19_Optional_base_implImSt14_Optional_baseImLb1ELb1EEE13_M_is_engagedEv = comdat any

$_ZNSt19_Optional_base_implImSt14_Optional_baseImLb1ELb1EEE6_M_getEv = comdat any

$_ZNSt22_Optional_payload_baseImE6_M_getEv = comdat any

$_ZNSt14_Optional_baseImLb1ELb1EEC2IJRmETnNSt9enable_ifIX18is_constructible_vImDpT_EEbE4typeELb0EEESt10in_place_tDpOS4_ = comdat any

$_ZNSt17_Optional_payloadImLb1ELb1ELb1EECI2St22_Optional_payload_baseImEIJRmEEESt10in_place_tDpOT_ = comdat any

$_ZNSt22_Optional_payload_baseImEC2IJRmEEESt10in_place_tDpOT_ = comdat any

$_ZNSt22_Optional_payload_baseImE8_StorageImLb1EEC2IJRmEEESt10in_place_tDpOT_ = comdat any

$_ZN4node6crypto10ByteSource7Builder4dataIvEEPT_v = comdat any

$_ZNSt14_Optional_baseImLb1ELb1EEC2Ev = comdat any

$_ZNSt17_Optional_payloadImLb1ELb1ELb1EEC2Ev = comdat any

$_ZNSt22_Optional_payload_baseImEC2Ev = comdat any

$_ZNSt22_Optional_payload_baseImE8_StorageImLb1EEC2Ev = comdat any

$_ZNK4node10BaseObject16IsWeakOrDetachedEv = comdat any

$_ZNK4node10BaseObject16has_pointer_dataEv = comdat any

$_ZN4node16LibuvMutexTraits10mutex_lockEP15pthread_mutex_t = comdat any

$_ZN4node16LibuvMutexTraits12mutex_unlockEP15pthread_mutex_t = comdat any

$_ZN2v85MaybeIbEC2Ev = comdat any

$_ZN2v85MaybeIbEC2EOb = comdat any

$_ZNSt10unique_ptrIN2v812BackingStoreESt14default_deleteIS1_EE11get_deleterEv = comdat any

$_ZNKSt15__uniq_ptr_implI13evp_md_ctx_stN4node15FunctionDeleterIS0_XadL_Z15EVP_MD_CTX_freeEEEEE6_M_ptrEv = comdat any

$_ZSt3getILm0EJP13evp_md_ctx_stN4node15FunctionDeleterIS0_XadL_Z15EVP_MD_CTX_freeEEEEEERKNSt13tuple_elementIXT_ESt5tupleIJDpT0_EEE4typeERKS9_ = comdat any

$_ZSt12__get_helperILm0EP13evp_md_ctx_stJN4node15FunctionDeleterIS0_XadL_Z15EVP_MD_CTX_freeEEEEEERKT0_RKSt11_Tuple_implIXT_EJS5_DpT1_EE = comdat any

$_ZNSt11_Tuple_implILm0EJP13evp_md_ctx_stN4node15FunctionDeleterIS0_XadL_Z15EVP_MD_CTX_freeEEEEEE7_M_headERKS5_ = comdat any

$_ZNSt10_Head_baseILm0EP13evp_md_ctx_stLb0EE7_M_headERKS2_ = comdat any

$_ZNSt15__uniq_ptr_dataI15evp_pkey_ctx_stN4node15FunctionDeleterIS0_XadL_Z17EVP_PKEY_CTX_freeEEEELb1ELb1EECI2St15__uniq_ptr_implIS0_S3_EEPS0_ = comdat any

$_ZNSt15__uniq_ptr_implI15evp_pkey_ctx_stN4node15FunctionDeleterIS0_XadL_Z17EVP_PKEY_CTX_freeEEEEEC2EPS0_ = comdat any

$_ZNSt5tupleIJP15evp_pkey_ctx_stN4node15FunctionDeleterIS0_XadL_Z17EVP_PKEY_CTX_freeEEEEEEC2ILb1ETnNSt9enable_ifIXclsr17_TupleConstraintsIXT_ES1_S4_EE37__is_implicitly_default_constructibleEEbE4typeELb1EEEv = comdat any

$_ZNSt15__uniq_ptr_implI15evp_pkey_ctx_stN4node15FunctionDeleterIS0_XadL_Z17EVP_PKEY_CTX_freeEEEEE6_M_ptrEv = comdat any

$_ZNSt11_Tuple_implILm0EJP15evp_pkey_ctx_stN4node15FunctionDeleterIS0_XadL_Z17EVP_PKEY_CTX_freeEEEEEEC2Ev = comdat any

$_ZNSt11_Tuple_implILm1EJN4node15FunctionDeleterI15evp_pkey_ctx_stXadL_Z17EVP_PKEY_CTX_freeEEEEEEC2Ev = comdat any

$_ZNSt10_Head_baseILm0EP15evp_pkey_ctx_stLb0EEC2Ev = comdat any

$_ZNSt10_Head_baseILm1EN4node15FunctionDeleterI15evp_pkey_ctx_stXadL_Z17EVP_PKEY_CTX_freeEEEELb1EEC2Ev = comdat any

$_ZSt3getILm0EJP15evp_pkey_ctx_stN4node15FunctionDeleterIS0_XadL_Z17EVP_PKEY_CTX_freeEEEEEERNSt13tuple_elementIXT_ESt5tupleIJDpT0_EEE4typeERS9_ = comdat any

$_ZSt12__get_helperILm0EP15evp_pkey_ctx_stJN4node15FunctionDeleterIS0_XadL_Z17EVP_PKEY_CTX_freeEEEEEERT0_RSt11_Tuple_implIXT_EJS5_DpT1_EE = comdat any

$_ZNSt11_Tuple_implILm0EJP15evp_pkey_ctx_stN4node15FunctionDeleterIS0_XadL_Z17EVP_PKEY_CTX_freeEEEEEE7_M_headERS5_ = comdat any

$_ZNSt10_Head_baseILm0EP15evp_pkey_ctx_stLb0EE7_M_headERS2_ = comdat any

$_ZNSt10unique_ptrI15evp_pkey_ctx_stN4node15FunctionDeleterIS0_XadL_Z17EVP_PKEY_CTX_freeEEEEE11get_deleterEv = comdat any

$_ZNK4node15FunctionDeleterI15evp_pkey_ctx_stXadL_Z17EVP_PKEY_CTX_freeEEEclEPS1_ = comdat any

$_ZNSt15__uniq_ptr_implI15evp_pkey_ctx_stN4node15FunctionDeleterIS0_XadL_Z17EVP_PKEY_CTX_freeEEEEE10_M_deleterEv = comdat any

$_ZSt3getILm1EJP15evp_pkey_ctx_stN4node15FunctionDeleterIS0_XadL_Z17EVP_PKEY_CTX_freeEEEEEERNSt13tuple_elementIXT_ESt5tupleIJDpT0_EEE4typeERS9_ = comdat any

$_ZSt12__get_helperILm1EN4node15FunctionDeleterI15evp_pkey_ctx_stXadL_Z17EVP_PKEY_CTX_freeEEEEJEERT0_RSt11_Tuple_implIXT_EJS4_DpT1_EE = comdat any

$_ZNSt11_Tuple_implILm1EJN4node15FunctionDeleterI15evp_pkey_ctx_stXadL_Z17EVP_PKEY_CTX_freeEEEEEE7_M_headERS4_ = comdat any

$_ZNSt10_Head_baseILm1EN4node15FunctionDeleterI15evp_pkey_ctx_stXadL_Z17EVP_PKEY_CTX_freeEEEELb1EE7_M_headERS4_ = comdat any

$_ZNKSt15__uniq_ptr_implI15evp_pkey_ctx_stN4node15FunctionDeleterIS0_XadL_Z17EVP_PKEY_CTX_freeEEEEE6_M_ptrEv = comdat any

$_ZSt3getILm0EJP15evp_pkey_ctx_stN4node15FunctionDeleterIS0_XadL_Z17EVP_PKEY_CTX_freeEEEEEERKNSt13tuple_elementIXT_ESt5tupleIJDpT0_EEE4typeERKS9_ = comdat any

$_ZSt12__get_helperILm0EP15evp_pkey_ctx_stJN4node15FunctionDeleterIS0_XadL_Z17EVP_PKEY_CTX_freeEEEEEERKT0_RKSt11_Tuple_implIXT_EJS5_DpT1_EE = comdat any

$_ZNSt11_Tuple_implILm0EJP15evp_pkey_ctx_stN4node15FunctionDeleterIS0_XadL_Z17EVP_PKEY_CTX_freeEEEEEE7_M_headERKS5_ = comdat any

$_ZNSt10_Head_baseILm0EP15evp_pkey_ctx_stLb0EE7_M_headERKS2_ = comdat any

$_ZNKSt10unique_ptrIN2v812BackingStoreESt14default_deleteIS1_EE3getEv = comdat any

$_ZNKSt15__uniq_ptr_implIN2v812BackingStoreESt14default_deleteIS1_EE6_M_ptrEv = comdat any

$_ZSt3getILm0EJPN2v812BackingStoreESt14default_deleteIS1_EEERKNSt13tuple_elementIXT_ESt5tupleIJDpT0_EEE4typeERKS9_ = comdat any

$_ZSt12__get_helperILm0EPN2v812BackingStoreEJSt14default_deleteIS1_EEERKT0_RKSt11_Tuple_implIXT_EJS5_DpT1_EE = comdat any

$_ZNSt11_Tuple_implILm0EJPN2v812BackingStoreESt14default_deleteIS1_EEE7_M_headERKS5_ = comdat any

$_ZNSt10_Head_baseILm0EPN2v812BackingStoreELb0EE7_M_headERKS3_ = comdat any

$_ZNSt15__uniq_ptr_implI13evp_md_ctx_stN4node15FunctionDeleterIS0_XadL_Z15EVP_MD_CTX_freeEEEEE5resetEPS0_ = comdat any

$_ZNSt15__uniq_ptr_implI13evp_md_ctx_stN4node15FunctionDeleterIS0_XadL_Z15EVP_MD_CTX_freeEEEEE10_M_deleterEv = comdat any

$_ZNK4node15FunctionDeleterI13evp_md_ctx_stXadL_Z15EVP_MD_CTX_freeEEEclEPS1_ = comdat any

$_ZSt3getILm1EJP13evp_md_ctx_stN4node15FunctionDeleterIS0_XadL_Z15EVP_MD_CTX_freeEEEEEERNSt13tuple_elementIXT_ESt5tupleIJDpT0_EEE4typeERS9_ = comdat any

$_ZSt12__get_helperILm1EN4node15FunctionDeleterI13evp_md_ctx_stXadL_Z15EVP_MD_CTX_freeEEEEJEERT0_RSt11_Tuple_implIXT_EJS4_DpT1_EE = comdat any

$_ZNSt11_Tuple_implILm1EJN4node15FunctionDeleterI13evp_md_ctx_stXadL_Z15EVP_MD_CTX_freeEEEEEE7_M_headERS4_ = comdat any

$_ZNSt10_Head_baseILm1EN4node15FunctionDeleterI13evp_md_ctx_stXadL_Z15EVP_MD_CTX_freeEEEELb1EE7_M_headERS4_ = comdat any

$_ZNSt10unique_ptrI13evp_md_ctx_stN4node15FunctionDeleterIS0_XadL_Z15EVP_MD_CTX_freeEEEEE11get_deleterEv = comdat any

$_ZN4node6crypto9CryptoJobINS0_10SignTraitsEE10InitializeEPFvRKN2v820FunctionCallbackInfoINS4_5ValueEEEEPNS_11EnvironmentENS4_5LocalINS4_6ObjectEEE = comdat any

$_ZN4node6crypto13DeriveBitsJobINS0_10SignTraitsEE3NewERKN2v820FunctionCallbackInfoINS4_5ValueEEE = comdat any

$_ZN4node9AsyncWrap22GetConstructorTemplateEPNS_11EnvironmentE = comdat any

$_ZN4node6crypto9CryptoJobINS0_10SignTraitsEE3RunERKN2v820FunctionCallbackInfoINS4_5ValueEEE = comdat any

$_ZNK4node6crypto9CryptoJobINS0_10SignTraitsEE4modeEv = comdat any

$_ZN4node14ThreadPoolWork12ScheduleWorkEv = comdat any

$_ZN4node9arraysizeIN2v85LocalINS1_5ValueEEELm2EEEmRAT0__KT_ = comdat any

$_ZN4node11Environment29IncreaseWaitingRequestCounterEv = comdat any

$_ZN4node7tracing16TraceEventHelper23GetCategoryGroupEnabledEPKc = comdat any

$_ZN4node7tracing7TraceIDC2EPKvPj = comdat any

$_ZNK4node7tracing7TraceID5scopeEv = comdat any

$_ZNK4node7tracing7TraceID6raw_idEv = comdat any

$_ZNK4node11Environment10event_loopEv = comdat any

$_ZZN4node14ThreadPoolWork12ScheduleWorkEvENKUlP9uv_work_sE_cvPFvS2_EEv = comdat any

$_ZZN4node14ThreadPoolWork12ScheduleWorkEvENKUlP9uv_work_siE_cvPFvS2_iEEv = comdat any

$_ZStanSt12memory_orderSt23__memory_order_modifier = comdat any

$_ZNSt10unique_ptrIN2v824ConvertableToTraceFormatESt14default_deleteIS1_EEC2IS3_vEEv = comdat any

$_ZNSt10unique_ptrIN2v824ConvertableToTraceFormatESt14default_deleteIS1_EE5resetEPS1_ = comdat any

$_ZNSt10unique_ptrIN2v824ConvertableToTraceFormatESt14default_deleteIS1_EED2Ev = comdat any

$_ZNSt15__uniq_ptr_dataIN2v824ConvertableToTraceFormatESt14default_deleteIS1_ELb1ELb1EEC2Ev = comdat any

$_ZNSt15__uniq_ptr_implIN2v824ConvertableToTraceFormatESt14default_deleteIS1_EEC2Ev = comdat any

$_ZNSt5tupleIJPN2v824ConvertableToTraceFormatESt14default_deleteIS1_EEEC2ILb1ETnNSt9enable_ifIXclsr17_TupleConstraintsIXT_ES2_S4_EE37__is_implicitly_default_constructibleEEbE4typeELb1EEEv = comdat any

$_ZNSt11_Tuple_implILm0EJPN2v824ConvertableToTraceFormatESt14default_deleteIS1_EEEC2Ev = comdat any

$_ZNSt11_Tuple_implILm1EJSt14default_deleteIN2v824ConvertableToTraceFormatEEEEC2Ev = comdat any

$_ZNSt10_Head_baseILm0EPN2v824ConvertableToTraceFormatELb0EEC2Ev = comdat any

$_ZNSt10_Head_baseILm1ESt14default_deleteIN2v824ConvertableToTraceFormatEELb1EEC2Ev = comdat any

$_ZNSt15__uniq_ptr_implIN2v824ConvertableToTraceFormatESt14default_deleteIS1_EE5resetEPS1_ = comdat any

$_ZNSt15__uniq_ptr_implIN2v824ConvertableToTraceFormatESt14default_deleteIS1_EE6_M_ptrEv = comdat any

$_ZNSt15__uniq_ptr_implIN2v824ConvertableToTraceFormatESt14default_deleteIS1_EE10_M_deleterEv = comdat any

$_ZNKSt14default_deleteIN2v824ConvertableToTraceFormatEEclEPS1_ = comdat any

$_ZSt3getILm0EJPN2v824ConvertableToTraceFormatESt14default_deleteIS1_EEERNSt13tuple_elementIXT_ESt5tupleIJDpT0_EEE4typeERS9_ = comdat any

$_ZSt12__get_helperILm0EPN2v824ConvertableToTraceFormatEJSt14default_deleteIS1_EEERT0_RSt11_Tuple_implIXT_EJS5_DpT1_EE = comdat any

$_ZNSt11_Tuple_implILm0EJPN2v824ConvertableToTraceFormatESt14default_deleteIS1_EEE7_M_headERS5_ = comdat any

$_ZNSt10_Head_baseILm0EPN2v824ConvertableToTraceFormatELb0EE7_M_headERS3_ = comdat any

$_ZSt3getILm1EJPN2v824ConvertableToTraceFormatESt14default_deleteIS1_EEERNSt13tuple_elementIXT_ESt5tupleIJDpT0_EEE4typeERS9_ = comdat any

$_ZSt12__get_helperILm1ESt14default_deleteIN2v824ConvertableToTraceFormatEEJEERT0_RSt11_Tuple_implIXT_EJS4_DpT1_EE = comdat any

$_ZNSt11_Tuple_implILm1EJSt14default_deleteIN2v824ConvertableToTraceFormatEEEE7_M_headERS4_ = comdat any

$_ZNSt10_Head_baseILm1ESt14default_deleteIN2v824ConvertableToTraceFormatEELb1EE7_M_headERS4_ = comdat any

$_ZNSt10unique_ptrIN2v824ConvertableToTraceFormatESt14default_deleteIS1_EE11get_deleterEv = comdat any

$_ZNK4node11IsolateData10event_loopEv = comdat any

$_ZZN4node14ThreadPoolWork12ScheduleWorkEvENUlP9uv_work_sE_8__invokeES2_ = comdat any

$_ZZN4node14ThreadPoolWork12ScheduleWorkEvENKUlP9uv_work_sE_clES2_ = comdat any

$_ZN4node11ContainerOfI9uv_work_sNS_14ThreadPoolWorkEEENS_17ContainerOfHelperIT_T0_EEMS5_S4_PS4_ = comdat any

$_ZNK4node17ContainerOfHelperI9uv_work_sNS_14ThreadPoolWorkEEcvPT_IS2_EEv = comdat any

$_ZN4node17ContainerOfHelperI9uv_work_sNS_14ThreadPoolWorkEEC2EMS2_S1_PS1_ = comdat any

$_ZN4node8OffsetOfI9uv_work_sNS_14ThreadPoolWorkEEEmMT0_T_ = comdat any

$_ZZN4node14ThreadPoolWork12ScheduleWorkEvENUlP9uv_work_siE_8__invokeES2_i = comdat any

$_ZZN4node14ThreadPoolWork12ScheduleWorkEvENKUlP9uv_work_siE_clES2_i = comdat any

$_ZN4node11Environment29DecreaseWaitingRequestCounterEv = comdat any

$_ZN4node6crypto17SignConfigurationC2Ev = comdat any

$_ZN4node6crypto13DeriveBitsJobINS0_10SignTraitsEEC2EPNS_11EnvironmentEN2v85LocalINS6_6ObjectEEENS0_13CryptoJobModeEONS0_17SignConfigurationE = comdat any

$_ZN4node6crypto9CryptoJobINS0_10SignTraitsEEC2EPNS_11EnvironmentEN2v85LocalINS6_6ObjectEEENS_9AsyncWrap12ProviderTypeENS0_13CryptoJobModeEONS0_17SignConfigurationE = comdat any

$_ZN4node6crypto13DeriveBitsJobINS0_10SignTraitsEED2Ev = comdat any

$_ZN4node6crypto13DeriveBitsJobINS0_10SignTraitsEED0Ev = comdat any

$_ZNK4node6crypto13DeriveBitsJobINS0_10SignTraitsEE10MemoryInfoEPNS_13MemoryTrackerE = comdat any

$_ZNK4node6crypto9CryptoJobINS0_10SignTraitsEE14MemoryInfoNameEv = comdat any

$_ZNK4node6crypto13DeriveBitsJobINS0_10SignTraitsEE8SelfSizeEv = comdat any

$_ZNK4node6crypto9CryptoJobINS0_10SignTraitsEE33IsNotIndicativeOfMemoryLeakAtExitEv = comdat any

$_ZN4node6crypto9CryptoJobINS0_10SignTraitsEE19AfterThreadPoolWorkEi = comdat any

$_ZN4node6crypto13DeriveBitsJobINS0_10SignTraitsEE8ToResultEPN2v85LocalINS4_5ValueEEES8_ = comdat any

$_ZN4node6crypto13DeriveBitsJobINS0_10SignTraitsEE16DoThreadPoolWorkEv = comdat any

$_ZThn56_N4node6crypto13DeriveBitsJobINS0_10SignTraitsEED1Ev = comdat any

$_ZThn56_N4node6crypto13DeriveBitsJobINS0_10SignTraitsEED0Ev = comdat any

$_ZThn56_N4node6crypto13DeriveBitsJobINS0_10SignTraitsEE16DoThreadPoolWorkEv = comdat any

$_ZThn56_N4node6crypto9CryptoJobINS0_10SignTraitsEE19AfterThreadPoolWorkEi = comdat any

$_ZN4node14ThreadPoolWorkC2EPNS_11EnvironmentEPKc = comdat any

$_ZN4node6crypto16CryptoErrorStoreC2Ev = comdat any

$_ZN4node6crypto9CryptoJobINS0_10SignTraitsEED2Ev = comdat any

$_ZN4node6crypto9CryptoJobINS0_10SignTraitsEED0Ev = comdat any

$_ZNK4node6crypto9CryptoJobINS0_10SignTraitsEE10MemoryInfoEPNS_13MemoryTrackerE = comdat any

$_ZThn56_N4node6crypto9CryptoJobINS0_10SignTraitsEED1Ev = comdat any

$_ZThn56_N4node6crypto9CryptoJobINS0_10SignTraitsEED0Ev = comdat any

$_ZN4node14ThreadPoolWorkD2Ev = comdat any

$_ZN4node14ThreadPoolWorkD0Ev = comdat any

$_ZNSt6vectorINSt7__cxx1112basic_stringIcSt11char_traitsIcESaIcEEESaIS5_EEC2Ev = comdat any

$_ZN4node6crypto16CryptoErrorStoreD2Ev = comdat any

$_ZN4node6crypto16CryptoErrorStoreD0Ev = comdat any

$_ZNK4node6crypto16CryptoErrorStore10MemoryInfoEPNS_13MemoryTrackerE = comdat any

$_ZNK4node6crypto16CryptoErrorStore14MemoryInfoNameEv = comdat any

$_ZNK4node6crypto16CryptoErrorStore8SelfSizeEv = comdat any

$_ZNSt12_Vector_baseINSt7__cxx1112basic_stringIcSt11char_traitsIcESaIcEEESaIS5_EEC2Ev = comdat any

$_ZNSt12_Vector_baseINSt7__cxx1112basic_stringIcSt11char_traitsIcESaIcEEESaIS5_EE12_Vector_implC2Ev = comdat any

$_ZNSaINSt7__cxx1112basic_stringIcSt11char_traitsIcESaIcEEEEC2Ev = comdat any

$_ZNSt12_Vector_baseINSt7__cxx1112basic_stringIcSt11char_traitsIcESaIcEEESaIS5_EE17_Vector_impl_dataC2Ev = comdat any

$_ZNSt15__new_allocatorINSt7__cxx1112basic_stringIcSt11char_traitsIcESaIcEEEEC2Ev = comdat any

$_ZNSt6vectorINSt7__cxx1112basic_stringIcSt11char_traitsIcESaIcEEESaIS5_EED2Ev = comdat any

$_ZSt8_DestroyIPNSt7__cxx1112basic_stringIcSt11char_traitsIcESaIcEEES5_EvT_S7_RSaIT0_E = comdat any

$_ZNSt12_Vector_baseINSt7__cxx1112basic_stringIcSt11char_traitsIcESaIcEEESaIS5_EE19_M_get_Tp_allocatorEv = comdat any

$_ZNSt12_Vector_baseINSt7__cxx1112basic_stringIcSt11char_traitsIcESaIcEEESaIS5_EED2Ev = comdat any

$_ZSt8_DestroyIPNSt7__cxx1112basic_stringIcSt11char_traitsIcESaIcEEEEvT_S7_ = comdat any

$_ZNSt12_Destroy_auxILb0EE9__destroyIPNSt7__cxx1112basic_stringIcSt11char_traitsIcESaIcEEEEEvT_S9_ = comdat any

$_ZSt8_DestroyINSt7__cxx1112basic_stringIcSt11char_traitsIcESaIcEEEEvPT_ = comdat any

$_ZNSt12_Vector_baseINSt7__cxx1112basic_stringIcSt11char_traitsIcESaIcEEESaIS5_EE13_M_deallocateEPS5_m = comdat any

$_ZNSt12_Vector_baseINSt7__cxx1112basic_stringIcSt11char_traitsIcESaIcEEESaIS5_EE12_Vector_implD2Ev = comdat any

$_ZNSt16allocator_traitsISaINSt7__cxx1112basic_stringIcSt11char_traitsIcESaIcEEEEE10deallocateERS6_PS5_m = comdat any

$_ZNSt15__new_allocatorINSt7__cxx1112basic_stringIcSt11char_traitsIcESaIcEEEE10deallocateEPS5_m = comdat any

$_ZNSaINSt7__cxx1112basic_stringIcSt11char_traitsIcESaIcEEEED2Ev = comdat any

$_ZNSt15__new_allocatorINSt7__cxx1112basic_stringIcSt11char_traitsIcESaIcEEEED2Ev = comdat any

$_ZNSt10unique_ptrIN4node6crypto9CryptoJobINS1_10SignTraitsEEESt14default_deleteIS4_EEC2IS6_vEEPS4_ = comdat any

$_ZN4node6errors13TryCatchScopeC2EPNS_11EnvironmentENS1_9CatchModeE = comdat any

$_ZNKSt10unique_ptrIN4node6crypto9CryptoJobINS1_10SignTraitsEEESt14default_deleteIS4_EEptEv = comdat any

$_ZN4node9AsyncWrap12MakeCallbackEN2v85LocalINS1_6StringEEEiPNS2_INS1_5ValueEEE = comdat any

$_ZNK4node11Environment13ondone_stringEv = comdat any

$_ZNSt10unique_ptrIN4node6crypto9CryptoJobINS1_10SignTraitsEEESt14default_deleteIS4_EED2Ev = comdat any

$_ZNSt15__uniq_ptr_dataIN4node6crypto9CryptoJobINS1_10SignTraitsEEESt14default_deleteIS4_ELb1ELb1EECI2St15__uniq_ptr_implIS4_S6_EEPS4_ = comdat any

$_ZNSt15__uniq_ptr_implIN4node6crypto9CryptoJobINS1_10SignTraitsEEESt14default_deleteIS4_EEC2EPS4_ = comdat any

$_ZNSt5tupleIJPN4node6crypto9CryptoJobINS1_10SignTraitsEEESt14default_deleteIS4_EEEC2ILb1ETnNSt9enable_ifIXclsr17_TupleConstraintsIXT_ES5_S7_EE37__is_implicitly_default_constructibleEEbE4typeELb1EEEv = comdat any

$_ZNSt15__uniq_ptr_implIN4node6crypto9CryptoJobINS1_10SignTraitsEEESt14default_deleteIS4_EE6_M_ptrEv = comdat any

$_ZNSt11_Tuple_implILm0EJPN4node6crypto9CryptoJobINS1_10SignTraitsEEESt14default_deleteIS4_EEEC2Ev = comdat any

$_ZNSt11_Tuple_implILm1EJSt14default_deleteIN4node6crypto9CryptoJobINS2_10SignTraitsEEEEEEC2Ev = comdat any

$_ZNSt10_Head_baseILm0EPN4node6crypto9CryptoJobINS1_10SignTraitsEEELb0EEC2Ev = comdat any

$_ZNSt10_Head_baseILm1ESt14default_deleteIN4node6crypto9CryptoJobINS2_10SignTraitsEEEELb1EEC2Ev = comdat any

$_ZSt3getILm0EJPN4node6crypto9CryptoJobINS1_10SignTraitsEEESt14default_deleteIS4_EEERNSt13tuple_elementIXT_ESt5tupleIJDpT0_EEE4typeERSC_ = comdat any

$_ZSt12__get_helperILm0EPN4node6crypto9CryptoJobINS1_10SignTraitsEEEJSt14default_deleteIS4_EEERT0_RSt11_Tuple_implIXT_EJS8_DpT1_EE = comdat any

$_ZNSt11_Tuple_implILm0EJPN4node6crypto9CryptoJobINS1_10SignTraitsEEESt14default_deleteIS4_EEE7_M_headERS8_ = comdat any

$_ZNSt10_Head_baseILm0EPN4node6crypto9CryptoJobINS1_10SignTraitsEEELb0EE7_M_headERS6_ = comdat any

$_ZNKSt10unique_ptrIN4node6crypto9CryptoJobINS1_10SignTraitsEEESt14default_deleteIS4_EE3getEv = comdat any

$_ZNKSt15__uniq_ptr_implIN4node6crypto9CryptoJobINS1_10SignTraitsEEESt14default_deleteIS4_EE6_M_ptrEv = comdat any

$_ZSt3getILm0EJPN4node6crypto9CryptoJobINS1_10SignTraitsEEESt14default_deleteIS4_EEERKNSt13tuple_elementIXT_ESt5tupleIJDpT0_EEE4typeERKSC_ = comdat any

$_ZSt12__get_helperILm0EPN4node6crypto9CryptoJobINS1_10SignTraitsEEEJSt14default_deleteIS4_EEERKT0_RKSt11_Tuple_implIXT_EJS8_DpT1_EE = comdat any

$_ZNSt11_Tuple_implILm0EJPN4node6crypto9CryptoJobINS1_10SignTraitsEEESt14default_deleteIS4_EEE7_M_headERKS8_ = comdat any

$_ZNSt10_Head_baseILm0EPN4node6crypto9CryptoJobINS1_10SignTraitsEEELb0EE7_M_headERKS6_ = comdat any

$_ZN4node9AsyncWrap12MakeCallbackEN2v85LocalINS1_4NameEEEiPNS2_INS1_5ValueEEE = comdat any

$_ZNK4node10BaseObject6objectEv = comdat any

$_ZN4node17PersistentToLocal7DefaultIN2v86ObjectEEENS2_5LocalIT_EEPNS2_7IsolateERKNS2_14PersistentBaseIS5_EE = comdat any

$_ZN4node17PersistentToLocal4WeakIN2v86ObjectEEENS2_5LocalIT_EEPNS2_7IsolateERKNS2_14PersistentBaseIS5_EE = comdat any

$_ZN4node17PersistentToLocal6StrongIN2v86ObjectEEENS2_5LocalIT_EERKNS2_14PersistentBaseIS5_EE = comdat any

$_ZNK4node11IsolateData13ondone_stringEv = comdat any

$_ZNSt10unique_ptrIN4node6crypto9CryptoJobINS1_10SignTraitsEEESt14default_deleteIS4_EE11get_deleterEv = comdat any

$_ZNKSt14default_deleteIN4node6crypto9CryptoJobINS1_10SignTraitsEEEEclEPS4_ = comdat any

$_ZNSt15__uniq_ptr_implIN4node6crypto9CryptoJobINS1_10SignTraitsEEESt14default_deleteIS4_EE10_M_deleterEv = comdat any

$_ZSt3getILm1EJPN4node6crypto9CryptoJobINS1_10SignTraitsEEESt14default_deleteIS4_EEERNSt13tuple_elementIXT_ESt5tupleIJDpT0_EEE4typeERSC_ = comdat any

$_ZSt12__get_helperILm1ESt14default_deleteIN4node6crypto9CryptoJobINS2_10SignTraitsEEEEJEERT0_RSt11_Tuple_implIXT_EJS7_DpT1_EE = comdat any

$_ZNSt11_Tuple_implILm1EJSt14default_deleteIN4node6crypto9CryptoJobINS2_10SignTraitsEEEEEE7_M_headERS7_ = comdat any

$_ZNSt10_Head_baseILm1ESt14default_deleteIN4node6crypto9CryptoJobINS2_10SignTraitsEEEELb1EE7_M_headERS7_ = comdat any

$_ZN4node6crypto9CryptoJobINS0_10SignTraitsEE6errorsEv = comdat any

$_ZN4node6crypto9CryptoJobINS0_10SignTraitsEE6paramsEv = comdat any

$_ZN4node6crypto16CryptoErrorStore6InsertIJEEEvNS0_15NodeCryptoErrorEDpOT_ = comdat any

$_ZNSt6vectorINSt7__cxx1112basic_stringIcSt11char_traitsIcESaIcEEESaIS5_EE12emplace_backIJS5_EEERS5_DpOT_ = comdat any

$_ZNSt16allocator_traitsISaINSt7__cxx1112basic_stringIcSt11char_traitsIcESaIcEEEEE9constructIS5_JS5_EEEvRS6_PT_DpOT0_ = comdat any

$_ZNSt6vectorINSt7__cxx1112basic_stringIcSt11char_traitsIcESaIcEEESaIS5_EE17_M_realloc_insertIJS5_EEEvN9__gnu_cxx17__normal_iteratorIPS5_S7_EEDpOT_ = comdat any

$_ZNSt6vectorINSt7__cxx1112basic_stringIcSt11char_traitsIcESaIcEEESaIS5_EE3endEv = comdat any

$_ZNSt6vectorINSt7__cxx1112basic_stringIcSt11char_traitsIcESaIcEEESaIS5_EE4backEv = comdat any

$_ZNSt15__new_allocatorINSt7__cxx1112basic_stringIcSt11char_traitsIcESaIcEEEE9constructIS5_JS5_EEEvPT_DpOT0_ = comdat any

$_ZNKSt6vectorINSt7__cxx1112basic_stringIcSt11char_traitsIcESaIcEEESaIS5_EE12_M_check_lenEmPKc = comdat any

$_ZN9__gnu_cxxmiIPNSt7__cxx1112basic_stringIcSt11char_traitsIcESaIcEEESt6vectorIS6_SaIS6_EEEENS_17__normal_iteratorIT_T0_E15difference_typeERKSE_SH_ = comdat any

$_ZNSt6vectorINSt7__cxx1112basic_stringIcSt11char_traitsIcESaIcEEESaIS5_EE5beginEv = comdat any

$_ZNSt12_Vector_baseINSt7__cxx1112basic_stringIcSt11char_traitsIcESaIcEEESaIS5_EE11_M_allocateEm = comdat any

$_ZNSt6vectorINSt7__cxx1112basic_stringIcSt11char_traitsIcESaIcEEESaIS5_EE11_S_relocateEPS5_S8_S8_RS6_ = comdat any

$_ZNK9__gnu_cxx17__normal_iteratorIPNSt7__cxx1112basic_stringIcSt11char_traitsIcESaIcEEESt6vectorIS6_SaIS6_EEE4baseEv = comdat any

$_ZNKSt6vectorINSt7__cxx1112basic_stringIcSt11char_traitsIcESaIcEEESaIS5_EE8max_sizeEv = comdat any

$_ZNKSt6vectorINSt7__cxx1112basic_stringIcSt11char_traitsIcESaIcEEESaIS5_EE4sizeEv = comdat any

$_ZNSt6vectorINSt7__cxx1112basic_stringIcSt11char_traitsIcESaIcEEESaIS5_EE11_S_max_sizeERKS6_ = comdat any

$_ZNKSt12_Vector_baseINSt7__cxx1112basic_stringIcSt11char_traitsIcESaIcEEESaIS5_EE19_M_get_Tp_allocatorEv = comdat any

$_ZNSt16allocator_traitsISaINSt7__cxx1112basic_stringIcSt11char_traitsIcESaIcEEEEE8max_sizeERKS6_ = comdat any

$_ZNKSt15__new_allocatorINSt7__cxx1112basic_stringIcSt11char_traitsIcESaIcEEEE8max_sizeEv = comdat any

$_ZNKSt15__new_allocatorINSt7__cxx1112basic_stringIcSt11char_traitsIcESaIcEEEE11_M_max_sizeEv = comdat any

$_ZN9__gnu_cxx17__normal_iteratorIPNSt7__cxx1112basic_stringIcSt11char_traitsIcESaIcEEESt6vectorIS6_SaIS6_EEEC2ERKS7_ = comdat any

$_ZNSt16allocator_traitsISaINSt7__cxx1112basic_stringIcSt11char_traitsIcESaIcEEEEE8allocateERS6_m = comdat any

$_ZNSt15__new_allocatorINSt7__cxx1112basic_stringIcSt11char_traitsIcESaIcEEEE8allocateEmPKv = comdat any

$_ZSt12__relocate_aIPNSt7__cxx1112basic_stringIcSt11char_traitsIcESaIcEEES6_SaIS5_EET0_T_S9_S8_RT1_ = comdat any

$_ZSt14__relocate_a_1IPNSt7__cxx1112basic_stringIcSt11char_traitsIcESaIcEEES6_SaIS5_EET0_T_S9_S8_RT1_ = comdat any

$_ZSt12__niter_baseIPNSt7__cxx1112basic_stringIcSt11char_traitsIcESaIcEEEET_S7_ = comdat any

$_ZSt19__relocate_object_aINSt7__cxx1112basic_stringIcSt11char_traitsIcESaIcEEES5_SaIS5_EEvPT_PT0_RT1_ = comdat any

$_ZNSt16allocator_traitsISaINSt7__cxx1112basic_stringIcSt11char_traitsIcESaIcEEEEE7destroyIS5_EEvRS6_PT_ = comdat any

$_ZNSt15__new_allocatorINSt7__cxx1112basic_stringIcSt11char_traitsIcESaIcEEEE7destroyIS5_EEvPT_ = comdat any

$_ZNK9__gnu_cxx17__normal_iteratorIPNSt7__cxx1112basic_stringIcSt11char_traitsIcESaIcEEESt6vectorIS6_SaIS6_EEEmiEl = comdat any

$_ZNK9__gnu_cxx17__normal_iteratorIPNSt7__cxx1112basic_stringIcSt11char_traitsIcESaIcEEESt6vectorIS6_SaIS6_EEEdeEv = comdat any

$_ZN4node6crypto9CryptoJobINS0_10SignTraitsEE26RegisterExternalReferencesEPFvRKN2v820FunctionCallbackInfoINS4_5ValueEEEEPNS_25ExternalReferenceRegistryE = comdat any

$_ZN4node22THROW_ERR_OUT_OF_RANGEIJEEEvPN2v87IsolateEPKcDpOT_ = comdat any

$_ZN4node16ERR_OUT_OF_RANGEIJEEEN2v85LocalINS1_5ValueEEEPNS1_7IsolateEPKcDpOT_ = comdat any

$_ZN4node11StringBytes13InlineDecoderC2Ev = comdat any

$_ZN4node11StringBytes13InlineDecoder6DecodeEPNS_11EnvironmentEN2v85LocalINS4_6StringEEENS_8encodingE = comdat any

$_ZN4node16MaybeStackBufferIcLm1024EE3outEv = comdat any

$_ZNK4node11StringBytes13InlineDecoder4sizeEv = comdat any

$_ZN4node11StringBytes13InlineDecoderD2Ev = comdat any

$_ZN4node23ArrayBufferViewContentsIcLm64EEC2EN2v85LocalINS2_5ValueEEE = comdat any

$_ZNK4node23ArrayBufferViewContentsIcLm64EE4dataEv = comdat any

$_ZNK4node23ArrayBufferViewContentsIcLm64EE6lengthEv = comdat any

$_ZN4node16MaybeStackBufferIcLm1024EEC2Ev = comdat any

$_ZN4node9arraysizeIcLm1024EEEmRAT0__KT_ = comdat any

$_ZN4node16MaybeStackBufferIcLm1024EE25AllocateSufficientStorageEm = comdat any

$_ZN4node16MaybeStackBufferIcLm1024EE9SetLengthEm = comdat any

$_ZNK4node16MaybeStackBufferIcLm1024EE8capacityEv = comdat any

$_ZN4node7ReallocIcEEPT_S2_m = comdat any

$_ZN4node16UncheckedReallocIcEEPT_S2_m = comdat any

$_ZNK4node16MaybeStackBufferIcLm1024EE6lengthEv = comdat any

$_ZN4node23ArrayBufferViewContentsIcLm64EE9ReadValueEN2v85LocalINS2_5ValueEEE = comdat any

$_ZN4node23ArrayBufferViewContentsIcLm64EE4ReadEN2v85LocalINS2_15ArrayBufferViewEEE = comdat any

$_ZN2v85MaybeIiEC2Ev = comdat any

$_ZN2v85MaybeIiEC2EOi = comdat any

$_ZNSt12__shared_ptrIN2v812BackingStoreELN9__gnu_cxx12_Lock_policyE2EEC2IS1_St14default_deleteIS1_EvEEOSt10unique_ptrIT_T0_E = comdat any

$_ZNSt14__shared_countILN9__gnu_cxx12_Lock_policyE2EEC2Ev = comdat any

$_ZSt12__to_addressIN2v812BackingStoreEEPT_S3_ = comdat any

$_ZNSt14__shared_countILN9__gnu_cxx12_Lock_policyE2EEC2IN2v812BackingStoreESt14default_deleteIS5_EEEOSt10unique_ptrIT_T0_E = comdat any

$_ZNSt14__shared_countILN9__gnu_cxx12_Lock_policyE2EEaSERKS2_ = comdat any

$_ZNSt12__shared_ptrIN2v812BackingStoreELN9__gnu_cxx12_Lock_policyE2EE31_M_enable_shared_from_this_withIS1_S1_EENSt9enable_ifIXntsr15__has_esft_baseIT0_EE5valueEvE4typeEPT_ = comdat any

$_ZNSaISt19_Sp_counted_deleterIPN2v812BackingStoreESt14default_deleteIS1_ESaIvELN9__gnu_cxx12_Lock_policyE2EEEC2Ev = comdat any

$_ZNSt16allocator_traitsISaISt19_Sp_counted_deleterIPN2v812BackingStoreESt14default_deleteIS2_ESaIvELN9__gnu_cxx12_Lock_policyE2EEEE8allocateERSA_m = comdat any

$_ZNSt16allocator_traitsISaISt19_Sp_counted_deleterIPN2v812BackingStoreESt14default_deleteIS2_ESaIvELN9__gnu_cxx12_Lock_policyE2EEEE9constructIS9_JS3_S5_EEEvRSA_PT_DpOT0_ = comdat any

$_ZNSt10unique_ptrIN2v812BackingStoreESt14default_deleteIS1_EE7releaseEv = comdat any

$_ZNSaISt19_Sp_counted_deleterIPN2v812BackingStoreESt14default_deleteIS1_ESaIvELN9__gnu_cxx12_Lock_policyE2EEED2Ev = comdat any

$_ZNSt15__new_allocatorISt19_Sp_counted_deleterIPN2v812BackingStoreESt14default_deleteIS2_ESaIvELN9__gnu_cxx12_Lock_policyE2EEEC2Ev = comdat any

$_ZNSt15__new_allocatorISt19_Sp_counted_deleterIPN2v812BackingStoreESt14default_deleteIS2_ESaIvELN9__gnu_cxx12_Lock_policyE2EEE8allocateEmPKv = comdat any

$_ZNKSt15__new_allocatorISt19_Sp_counted_deleterIPN2v812BackingStoreESt14default_deleteIS2_ESaIvELN9__gnu_cxx12_Lock_policyE2EEE11_M_max_sizeEv = comdat any

$_ZNSt15__new_allocatorISt19_Sp_counted_deleterIPN2v812BackingStoreESt14default_deleteIS2_ESaIvELN9__gnu_cxx12_Lock_policyE2EEE9constructIS9_JS3_S5_EEEvPT_DpOT0_ = comdat any

$_ZNSt19_Sp_counted_deleterIPN2v812BackingStoreESt14default_deleteIS1_ESaIvELN9__gnu_cxx12_Lock_policyE2EEC2ES2_S4_ = comdat any

$_ZNSt19_Sp_counted_deleterIPN2v812BackingStoreESt14default_deleteIS1_ESaIvELN9__gnu_cxx12_Lock_policyE2EE5_ImplC2ES2_S4_RKS5_ = comdat any

$_ZNSt19_Sp_counted_deleterIPN2v812BackingStoreESt14default_deleteIS1_ESaIvELN9__gnu_cxx12_Lock_policyE2EED2Ev = comdat any

$_ZNSt19_Sp_counted_deleterIPN2v812BackingStoreESt14default_deleteIS1_ESaIvELN9__gnu_cxx12_Lock_policyE2EED0Ev = comdat any

$_ZNSt19_Sp_counted_deleterIPN2v812BackingStoreESt14default_deleteIS1_ESaIvELN9__gnu_cxx12_Lock_policyE2EE10_M_disposeEv = comdat any

$_ZNSt19_Sp_counted_deleterIPN2v812BackingStoreESt14default_deleteIS1_ESaIvELN9__gnu_cxx12_Lock_policyE2EE10_M_destroyEv = comdat any

$_ZNSt19_Sp_counted_deleterIPN2v812BackingStoreESt14default_deleteIS1_ESaIvELN9__gnu_cxx12_Lock_policyE2EE14_M_get_deleterERKSt9type_info = comdat any

$_ZNSt14_Sp_ebo_helperILi0ESt14default_deleteIN2v812BackingStoreEELb1EEC2EOS3_ = comdat any

$_ZNSt14_Sp_ebo_helperILi1ESaIvELb1EEC2ERKS0_ = comdat any

$_ZNSt19_Sp_counted_deleterIPN2v812BackingStoreESt14default_deleteIS1_ESaIvELN9__gnu_cxx12_Lock_policyE2EE5_Impl6_M_delEv = comdat any

$_ZNSt14_Sp_ebo_helperILi0ESt14default_deleteIN2v812BackingStoreEELb1EE6_S_getERS4_ = comdat any

$_ZNSt19_Sp_counted_deleterIPN2v812BackingStoreESt14default_deleteIS1_ESaIvELN9__gnu_cxx12_Lock_policyE2EE5_Impl8_M_allocEv = comdat any

$_ZNSaISt19_Sp_counted_deleterIPN2v812BackingStoreESt14default_deleteIS1_ESaIvELN9__gnu_cxx12_Lock_policyE2EEEC2IvEERKSaIT_E = comdat any

$_ZNSt15__allocated_ptrISaISt19_Sp_counted_deleterIPN2v812BackingStoreESt14default_deleteIS2_ESaIvELN9__gnu_cxx12_Lock_policyE2EEEEC2ERSA_PS9_ = comdat any

$_ZNSt15__allocated_ptrISaISt19_Sp_counted_deleterIPN2v812BackingStoreESt14default_deleteIS2_ESaIvELN9__gnu_cxx12_Lock_policyE2EEEED2Ev = comdat any

$_ZNSt14_Sp_ebo_helperILi1ESaIvELb1EE6_S_getERS1_ = comdat any

$_ZNSt16allocator_traitsISaISt19_Sp_counted_deleterIPN2v812BackingStoreESt14default_deleteIS2_ESaIvELN9__gnu_cxx12_Lock_policyE2EEEE10deallocateERSA_PS9_m = comdat any

$_ZNSt15__new_allocatorISt19_Sp_counted_deleterIPN2v812BackingStoreESt14default_deleteIS2_ESaIvELN9__gnu_cxx12_Lock_policyE2EEE10deallocateEPS9_m = comdat any

$_ZNSt15__new_allocatorISt19_Sp_counted_deleterIPN2v812BackingStoreESt14default_deleteIS2_ESaIvELN9__gnu_cxx12_Lock_policyE2EEED2Ev = comdat any

$_ZNSt16_Sp_counted_baseILN9__gnu_cxx12_Lock_policyE2EE15_M_add_ref_copyEv = comdat any

$_ZN4node6crypto17IsAnyBufferSourceEN2v85LocalINS1_5ValueEEE = comdat any

$_ZNK4node6crypto25ArrayBufferOrViewContentsIcE4sizeEv = comdat any

$_ZNK4node6crypto25ArrayBufferOrViewContentsIcE4dataEv = comdat any

$_ZN4node31THROW_ERR_CRYPTO_INVALID_DIGESTIJPcEEEvPN2v87IsolateEPKcDpOT_ = comdat any

$_ZN4node25ERR_CRYPTO_INVALID_DIGESTIJPcEEEN2v85LocalINS2_5ValueEEEPNS2_7IsolateEPKcDpOT_ = comdat any

$_ZN4node7SPrintFIJPcEEENSt7__cxx1112basic_stringIcSt11char_traitsIcESaIcEEEPKcDpOT_ = comdat any

$_ZN4node11SPrintFImplIPcJEEENSt7__cxx1112basic_stringIcSt11char_traitsIcESaIcEEEPKcOT_DpOT0_ = comdat any

$_ZStplIcSt11char_traitsIcESaIcEENSt7__cxx1112basic_stringIT_T0_T1_EERKS8_S5_ = comdat any

$_ZN4node8ToStringIPcEENSt7__cxx1112basic_stringIcSt11char_traitsIcESaIcEEERKT_ = comdat any

$_ZN4node12ToBaseStringILj3EPcEENSt7__cxx1112basic_stringIcSt11char_traitsIcESaIcEEERKT0_ = comdat any

$_ZN4node12ToBaseStringILj4EPcEENSt7__cxx1112basic_stringIcSt11char_traitsIcESaIcEEERKT0_ = comdat any

$_ZN4node7ToUpperERKNSt7__cxx1112basic_stringIcSt11char_traitsIcESaIcEEE = comdat any

$_ZStplIcSt11char_traitsIcESaIcEENSt7__cxx1112basic_stringIT_T0_T1_EERKS8_OS8_ = comdat any

$_ZN4node14ToStringHelper7ConvertB5cxx11EPKc = comdat any

$_ZN4node14ToStringHelper11BaseConvertILj3EPcvEENSt7__cxx1112basic_stringIcSt11char_traitsIcESaIcEEET0_ = comdat any

$_ZN4node14ToStringHelper11BaseConvertILj4EPcvEENSt7__cxx1112basic_stringIcSt11char_traitsIcESaIcEEET0_ = comdat any

$_ZNSt7__cxx1112basic_stringIcSt11char_traitsIcESaIcEEC2IS3_EEmcRKS3_ = comdat any

$_ZN4node7ToUpperEc = comdat any

$_ZSt7toupperIcET_S0_RKSt6locale = comdat any

$_ZNKSt5ctypeIcE7toupperEc = comdat any

$_ZNSt15__uniq_ptr_dataI13evp_md_ctx_stN4node15FunctionDeleterIS0_XadL_Z15EVP_MD_CTX_freeEEEELb1ELb1EECI2St15__uniq_ptr_implIS0_S3_EEPS0_ = comdat any

$_ZNSt15__uniq_ptr_implI13evp_md_ctx_stN4node15FunctionDeleterIS0_XadL_Z15EVP_MD_CTX_freeEEEEEC2EPS0_ = comdat any

$_ZN2v85MaybeIiEC2ERKi = comdat any

$_ZTVN4node6crypto4SignE = comdat any

$_ZTVN4node6crypto6VerifyE = comdat any

$_ZSt7nullopt = comdat any

$_ZTVN4node18MemoryRetainerNodeE = comdat any

$_ZTVN2v813EmbedderGraph4NodeE = comdat any

$_ZZN4node11SPrintFImplB5cxx11EPKcE4args = comdat any

$_ZTVN4node14MemoryRetainerE = comdat any

$_ZZN4node13MemoryTracker5TrackEPKNS_14MemoryRetainerEPKcE4args = comdat any

$_ZZN4node13MemoryTracker5TrackEPKNS_14MemoryRetainerEPKcE4args_0 = comdat any

$_ZZN4node18MemoryRetainerNodeC1EPNS_13MemoryTrackerEPKNS_14MemoryRetainerEE4args = comdat any

$_ZSt19piecewise_construct = comdat any

$_ZTVSt23_Sp_counted_ptr_inplaceIN4node9MutexBaseINS0_16LibuvMutexTraitsEEESaIvELN9__gnu_cxx12_Lock_policyE2EE = comdat any

$_ZTVSt16_Sp_counted_baseILN9__gnu_cxx12_Lock_policyE2EE = comdat any

$_ZZN4node9MutexBaseINS_16LibuvMutexTraitsEEC1EvE4args = comdat any

$_ZZNSt19_Sp_make_shared_tag5_S_tiEvE5__tag = comdat any

$_ZZN4node6crypto13MallocOpenSSLIcEEPT_mE4args = comdat any

$_ZZN4node25MultiplyWithOverflowCheckImEET_S1_S1_E4args = comdat any

$_ZZNO4node6crypto10ByteSource7Builder7releaseESt8optionalImEE4args = comdat any

$_ZSt8in_place = comdat any

$_ZZN4node14ThreadPoolWork12ScheduleWorkEvE27trace_event_unique_atomic36 = comdat any

$_ZZN4node14ThreadPoolWork12ScheduleWorkEvE4args = comdat any

$_ZZN4node7tracing16TraceEventHelper23GetCategoryGroupEnabledEPKcE8disabled = comdat any

$_ZZZN4node14ThreadPoolWork12ScheduleWorkEvENKUlP9uv_work_sE_clES2_E27trace_event_unique_atomic43 = comdat any

$_ZZZN4node14ThreadPoolWork12ScheduleWorkEvENKUlP9uv_work_sE_clES2_E27trace_event_unique_atomic46 = comdat any

$_ZZZN4node14ThreadPoolWork12ScheduleWorkEvENKUlP9uv_work_siE_clES2_iE27trace_event_unique_atomic56 = comdat any

$_ZZN4node11Environment29DecreaseWaitingRequestCounterEvE4args = comdat any

$_ZTVN4node6crypto13DeriveBitsJobINS0_10SignTraitsEEE = comdat any

$_ZTVN4node6crypto9CryptoJobINS0_10SignTraitsEEE = comdat any

$_ZTVN4node14ThreadPoolWorkE = comdat any

$_ZZN4node14ThreadPoolWorkC1EPNS_11EnvironmentEPKcE4args = comdat any

$_ZTVN4node6crypto16CryptoErrorStoreE = comdat any

$_ZZN4node6crypto9CryptoJobINS0_10SignTraitsEE19AfterThreadPoolWorkEiE4args = comdat any

$_ZZN4node6crypto9CryptoJobINS0_10SignTraitsEE19AfterThreadPoolWorkEiE4args_0 = comdat any

$_ZZN4node6crypto9CryptoJobINS0_10SignTraitsEE19AfterThreadPoolWorkEiE4args_1 = comdat any

$_ZZN4node6crypto13DeriveBitsJobINS0_10SignTraitsEE8ToResultEPN2v85LocalINS4_5ValueEEES8_E4args = comdat any

$_ZZN4node6crypto13DeriveBitsJobINS0_10SignTraitsEE8ToResultEPN2v85LocalINS4_5ValueEEES8_E4args_0 = comdat any

$_ZZN4node16MaybeStackBufferIcLm1024EE25AllocateSufficientStorageEmE4args = comdat any

$_ZZN4node7ReallocIcEEPT_S2_mE4args = comdat any

$_ZZN4node16MaybeStackBufferIcLm1024EE9SetLengthEmE4args = comdat any

$_ZZN4node23ArrayBufferViewContentsIcLm64EE9ReadValueEN2v85LocalINS2_5ValueEEEE4args = comdat any

$_ZTVSt19_Sp_counted_deleterIPN2v812BackingStoreESt14default_deleteIS1_ESaIvELN9__gnu_cxx12_Lock_policyE2EE = comdat any

$_ZZN4node6crypto25ArrayBufferOrViewContentsIcEC1EN2v85LocalINS3_5ValueEEEE4args = comdat any

$_ZZN4node11SPrintFImplIPcJEEENSt7__cxx1112basic_stringIcSt11char_traitsIcESaIcEEEPKcOT_DpOT0_E4args = comdat any

$_ZZN4node11SPrintFImplIPcJEEENSt7__cxx1112basic_stringIcSt11char_traitsIcESaIcEEEPKcOT_DpOT0_E4args_1 = comdat any

@_ZStL8__ioinit = internal global %"class.std::ios_base::Init" zeroinitializer, align 1
@__dso_handle = external hidden global i8
@_ZZN4node6crypto8SignBase4InitEPKcE4args = internal constant %"struct.node::AssertionInfo" { ptr @.str, ptr @.str.1, ptr @.str.2 }, align 8
@.str = private unnamed_addr constant [35 x i8] c"../../src/crypto/crypto_sig.cc:290\00", align 1
@.str.1 = private unnamed_addr constant [20 x i8] c"(mdctx_) == nullptr\00", align 1
@.str.2 = private unnamed_addr constant [59 x i8] c"SignBase::Error node::crypto::SignBase::Init(const char *)\00", align 1
@.str.3 = private unnamed_addr constant [5 x i8] c"dss1\00", align 1
@.str.4 = private unnamed_addr constant [5 x i8] c"DSS1\00", align 1
@.str.5 = private unnamed_addr constant [5 x i8] c"SHA1\00", align 1
@_ZTVN4node6crypto8SignBaseE = dso_local unnamed_addr constant { [19 x ptr] } { [19 x ptr] [ptr null, ptr null, ptr @_ZN4node6crypto8SignBaseD2Ev, ptr @_ZN4node6crypto8SignBaseD0Ev, ptr @_ZNK4node6crypto8SignBase10MemoryInfoEPNS_13MemoryTrackerE, ptr @_ZNK4node6crypto8SignBase14MemoryInfoNameEv, ptr @_ZNK4node6crypto8SignBase8SelfSizeEv, ptr @_ZNK4node10BaseObject13WrappedObjectEv, ptr @_ZNK4node10BaseObject10IsRootNodeEv, ptr @_ZNK4node10BaseObject15GetDetachednessEv, ptr @_ZNK4node10BaseObject18IsDoneInitializingEv, ptr @_ZNK4node10BaseObject15GetTransferModeEv, ptr @_ZN4node10BaseObject20TransferForMessagingEv, ptr @_ZNK4node10BaseObject17CloneForMessagingEv, ptr @_ZNK4node10BaseObject19NestedTransferablesEv, ptr @_ZN4node10BaseObject20FinalizeTransferReadEN2v85LocalINS1_7ContextEEEPNS1_17ValueDeserializerE, ptr @_ZNK4node10BaseObject33IsNotIndicativeOfMemoryLeakAtExitEv, ptr @_ZN4node10BaseObject11OnGCCollectEv, ptr @_ZNK4node10BaseObject15is_snapshotableEv] }, align 8
@.str.6 = private unnamed_addr constant [6 x i8] c"mdctx\00", align 1
@_ZTVN4node6crypto4SignE = linkonce_odr dso_local unnamed_addr constant { [19 x ptr] } { [19 x ptr] [ptr null, ptr null, ptr @_ZN4node6crypto4SignD2Ev, ptr @_ZN4node6crypto4SignD0Ev, ptr @_ZNK4node6crypto8SignBase10MemoryInfoEPNS_13MemoryTrackerE, ptr @_ZNK4node6crypto8SignBase14MemoryInfoNameEv, ptr @_ZNK4node6crypto8SignBase8SelfSizeEv, ptr @_ZNK4node10BaseObject13WrappedObjectEv, ptr @_ZNK4node10BaseObject10IsRootNodeEv, ptr @_ZNK4node10BaseObject15GetDetachednessEv, ptr @_ZNK4node10BaseObject18IsDoneInitializingEv, ptr @_ZNK4node10BaseObject15GetTransferModeEv, ptr @_ZN4node10BaseObject20TransferForMessagingEv, ptr @_ZNK4node10BaseObject17CloneForMessagingEv, ptr @_ZNK4node10BaseObject19NestedTransferablesEv, ptr @_ZN4node10BaseObject20FinalizeTransferReadEN2v85LocalINS1_7ContextEEEPNS1_17ValueDeserializerE, ptr @_ZNK4node10BaseObject33IsNotIndicativeOfMemoryLeakAtExitEv, ptr @_ZN4node10BaseObject11OnGCCollectEv, ptr @_ZNK4node10BaseObject15is_snapshotableEv] }, comdat, align 8
@.str.7 = private unnamed_addr constant [5 x i8] c"init\00", align 1
@.str.8 = private unnamed_addr constant [7 x i8] c"update\00", align 1
@.str.9 = private unnamed_addr constant [5 x i8] c"sign\00", align 1
@.str.10 = private unnamed_addr constant [5 x i8] c"Sign\00", align 1
@.str.11 = private unnamed_addr constant [17 x i8] c"kSignJobModeSign\00", align 1
@.str.12 = private unnamed_addr constant [19 x i8] c"kSignJobModeVerify\00", align 1
@.str.13 = private unnamed_addr constant [11 x i8] c"kSigEncDER\00", align 1
@.str.14 = private unnamed_addr constant [13 x i8] c"kSigEncP1363\00", align 1
@.str.15 = private unnamed_addr constant [22 x i8] c"RSA_PKCS1_PSS_PADDING\00", align 1
@_ZZN4node6crypto4Sign9SignFinalERKNS0_14ManagedEVPPKeyEiRKN2v85MaybeIiEENS0_9DSASigEncEE4args = internal constant %"struct.node::AssertionInfo" { ptr @.str.16, ptr @.str.17, ptr @.str.18 }, align 8
@.str.16 = private unnamed_addr constant [35 x i8] c"../../src/crypto/crypto_sig.cc:404\00", align 1
@.str.17 = private unnamed_addr constant [28 x i8] c"(buffer->Data()) != nullptr\00", align 1
@.str.18 = private unnamed_addr constant [107 x i8] c"Sign::SignResult node::crypto::Sign::SignFinal(const ManagedEVPPKey &, int, const Maybe<int> &, DSASigEnc)\00", align 1
@_ZZN4node6crypto4Sign9SignFinalERKN2v820FunctionCallbackInfoINS2_5ValueEEEE4args = internal constant %"struct.node::AssertionInfo" { ptr @.str.19, ptr @.str.20, ptr @.str.21 }, align 8
@.str.19 = private unnamed_addr constant [35 x i8] c"../../src/crypto/crypto_sig.cc:423\00", align 1
@.str.20 = private unnamed_addr constant [24 x i8] c"args[offset]->IsInt32()\00", align 1
@.str.21 = private unnamed_addr constant [79 x i8] c"static void node::crypto::Sign::SignFinal(const FunctionCallbackInfo<Value> &)\00", align 1
@_ZZN4node6crypto4Sign9SignFinalERKN2v820FunctionCallbackInfoINS2_5ValueEEEE4args_0 = internal constant %"struct.node::AssertionInfo" { ptr @.str.22, ptr @.str.23, ptr @.str.21 }, align 8
@.str.22 = private unnamed_addr constant [35 x i8] c"../../src/crypto/crypto_sig.cc:429\00", align 1
@.str.23 = private unnamed_addr constant [28 x i8] c"args[offset + 1]->IsInt32()\00", align 1
@_ZZN4node6crypto4Sign9SignFinalERKN2v820FunctionCallbackInfoINS2_5ValueEEEE4args_1 = internal constant %"struct.node::AssertionInfo" { ptr @.str.24, ptr @.str.25, ptr @.str.21 }, align 8
@.str.24 = private unnamed_addr constant [35 x i8] c"../../src/crypto/crypto_sig.cc:433\00", align 1
@.str.25 = private unnamed_addr constant [28 x i8] c"args[offset + 2]->IsInt32()\00", align 1
@_ZTVN4node6crypto6VerifyE = linkonce_odr dso_local unnamed_addr constant { [19 x ptr] } { [19 x ptr] [ptr null, ptr null, ptr @_ZN4node6crypto6VerifyD2Ev, ptr @_ZN4node6crypto6VerifyD0Ev, ptr @_ZNK4node6crypto8SignBase10MemoryInfoEPNS_13MemoryTrackerE, ptr @_ZNK4node6crypto8SignBase14MemoryInfoNameEv, ptr @_ZNK4node6crypto8SignBase8SelfSizeEv, ptr @_ZNK4node10BaseObject13WrappedObjectEv, ptr @_ZNK4node10BaseObject10IsRootNodeEv, ptr @_ZNK4node10BaseObject15GetDetachednessEv, ptr @_ZNK4node10BaseObject18IsDoneInitializingEv, ptr @_ZNK4node10BaseObject15GetTransferModeEv, ptr @_ZN4node10BaseObject20TransferForMessagingEv, ptr @_ZNK4node10BaseObject17CloneForMessagingEv, ptr @_ZNK4node10BaseObject19NestedTransferablesEv, ptr @_ZN4node10BaseObject20FinalizeTransferReadEN2v85LocalINS1_7ContextEEEPNS1_17ValueDeserializerE, ptr @_ZNK4node10BaseObject33IsNotIndicativeOfMemoryLeakAtExitEv, ptr @_ZN4node10BaseObject11OnGCCollectEv, ptr @_ZNK4node10BaseObject15is_snapshotableEv] }, comdat, align 8
@.str.26 = private unnamed_addr constant [7 x i8] c"verify\00", align 1
@.str.27 = private unnamed_addr constant [7 x i8] c"Verify\00", align 1
@.str.28 = private unnamed_addr constant [18 x i8] c"buffer is too big\00", align 1
@_ZZN4node6crypto6Verify11VerifyFinalERKN2v820FunctionCallbackInfoINS2_5ValueEEEE4args = internal constant %"struct.node::AssertionInfo" { ptr @.str.29, ptr @.str.23, ptr @.str.30 }, align 8
@.str.29 = private unnamed_addr constant [35 x i8] c"../../src/crypto/crypto_sig.cc:552\00", align 1
@.str.30 = private unnamed_addr constant [83 x i8] c"static void node::crypto::Verify::VerifyFinal(const FunctionCallbackInfo<Value> &)\00", align 1
@_ZZN4node6crypto6Verify11VerifyFinalERKN2v820FunctionCallbackInfoINS2_5ValueEEEE4args_0 = internal constant %"struct.node::AssertionInfo" { ptr @.str.31, ptr @.str.25, ptr @.str.30 }, align 8
@.str.31 = private unnamed_addr constant [35 x i8] c"../../src/crypto/crypto_sig.cc:558\00", align 1
@_ZZN4node6crypto6Verify11VerifyFinalERKN2v820FunctionCallbackInfoINS2_5ValueEEEE4args_1 = internal constant %"struct.node::AssertionInfo" { ptr @.str.32, ptr @.str.33, ptr @.str.30 }, align 8
@.str.32 = private unnamed_addr constant [35 x i8] c"../../src/crypto/crypto_sig.cc:562\00", align 1
@.str.33 = private unnamed_addr constant [28 x i8] c"args[offset + 3]->IsInt32()\00", align 1
@_ZTVN4node6crypto17SignConfigurationE = dso_local unnamed_addr constant { [10 x ptr] } { [10 x ptr] [ptr null, ptr null, ptr @_ZN4node6crypto17SignConfigurationD2Ev, ptr @_ZN4node6crypto17SignConfigurationD0Ev, ptr @_ZNK4node6crypto17SignConfiguration10MemoryInfoEPNS_13MemoryTrackerE, ptr @_ZNK4node6crypto17SignConfiguration14MemoryInfoNameEv, ptr @_ZNK4node6crypto17SignConfiguration8SelfSizeEv, ptr @_ZNK4node14MemoryRetainer13WrappedObjectEv, ptr @_ZNK4node14MemoryRetainer10IsRootNodeEv, ptr @_ZNK4node14MemoryRetainer15GetDetachednessEv] }, align 8
@.str.34 = private unnamed_addr constant [4 x i8] c"key\00", align 1
@.str.35 = private unnamed_addr constant [5 x i8] c"data\00", align 1
@.str.36 = private unnamed_addr constant [10 x i8] c"signature\00", align 1
@_ZZN4node6crypto10SignTraits16AdditionalConfigENS0_13CryptoJobModeERKN2v820FunctionCallbackInfoINS3_5ValueEEEjPNS0_17SignConfigurationEE4args = internal constant %"struct.node::AssertionInfo" { ptr @.str.37, ptr @.str.38, ptr @.str.39 }, align 8
@.str.37 = private unnamed_addr constant [35 x i8] c"../../src/crypto/crypto_sig.cc:618\00", align 1
@.str.38 = private unnamed_addr constant [25 x i8] c"args[offset]->IsUint32()\00", align 1
@.str.39 = private unnamed_addr constant [149 x i8] c"static Maybe<bool> node::crypto::SignTraits::AdditionalConfig(CryptoJobMode, const FunctionCallbackInfo<Value> &, unsigned int, SignConfiguration *)\00", align 1
@.str.40 = private unnamed_addr constant [16 x i8] c"data is too big\00", align 1
@.str.41 = private unnamed_addr constant [19 x i8] c"Invalid digest: %s\00", align 1
@.str.42 = private unnamed_addr constant [27 x i8] c"invalid signature encoding\00", align 1
@.str.43 = private unnamed_addr constant [21 x i8] c"signature is too big\00", align 1
@_ZSt7nullopt = linkonce_odr dso_local constant %"struct.std::nullopt_t" undef, comdat, align 1
@_ZZN4node6crypto10SignTraits12EncodeOutputEPNS_11EnvironmentERKNS0_17SignConfigurationEPNS0_10ByteSourceEPN2v85LocalINS9_5ValueEEEE4args = internal constant %"struct.node::AssertionInfo" { ptr @.str.44, ptr @.str.45, ptr @.str.46 }, align 8
@.str.44 = private unnamed_addr constant [35 x i8] c"../../src/crypto/crypto_sig.cc:823\00", align 1
@.str.45 = private unnamed_addr constant [27 x i8] c"\22Unreachable code reached\22\00", align 1
@.str.46 = private unnamed_addr constant [130 x i8] c"static Maybe<bool> node::crypto::SignTraits::EncodeOutput(Environment *, const SignConfiguration &, ByteSource *, Local<Value> *)\00", align 1
@_ZTVN4node18MemoryRetainerNodeE = linkonce_odr dso_local unnamed_addr constant { [13 x ptr] } { [13 x ptr] [ptr null, ptr null, ptr @_ZN4node18MemoryRetainerNodeD2Ev, ptr @_ZN4node18MemoryRetainerNodeD0Ev, ptr @_ZN4node18MemoryRetainerNode4NameEv, ptr @_ZN4node18MemoryRetainerNode11SizeInBytesEv, ptr @_ZN2v813EmbedderGraph4Node11WrapperNodeEv, ptr @_ZN4node18MemoryRetainerNode10IsRootNodeEv, ptr @_ZN2v813EmbedderGraph4Node14IsEmbedderNodeEv, ptr @_ZN4node18MemoryRetainerNode10NamePrefixEv, ptr @_ZN2v813EmbedderGraph4Node15GetNativeObjectEv, ptr @_ZN4node18MemoryRetainerNode15GetDetachednessEv, ptr @_ZN2v813EmbedderGraph4Node10GetAddressEv] }, comdat, align 8
@_ZTVN2v813EmbedderGraph4NodeE = linkonce_odr dso_local unnamed_addr constant { [13 x ptr] } { [13 x ptr] [ptr null, ptr null, ptr @_ZN2v813EmbedderGraph4NodeD2Ev, ptr @_ZN2v813EmbedderGraph4NodeD0Ev, ptr @__cxa_pure_virtual, ptr @__cxa_pure_virtual, ptr @_ZN2v813EmbedderGraph4Node11WrapperNodeEv, ptr @_ZN2v813EmbedderGraph4Node10IsRootNodeEv, ptr @_ZN2v813EmbedderGraph4Node14IsEmbedderNodeEv, ptr @_ZN2v813EmbedderGraph4Node10NamePrefixEv, ptr @_ZN2v813EmbedderGraph4Node15GetNativeObjectEv, ptr @_ZN2v813EmbedderGraph4Node15GetDetachednessEv, ptr @_ZN2v813EmbedderGraph4Node10GetAddressEv] }, comdat, align 8
@.str.47 = private unnamed_addr constant [7 x i8] c"Node /\00", align 1
@.str.48 = private unnamed_addr constant [1 x i8] zeroinitializer, align 1
@.str.49 = private unnamed_addr constant [26 x i8] c"vector::_M_realloc_insert\00", align 1
@_ZN4node18ContextEmbedderTag18kNodeContextTagPtrE = external constant ptr, align 8
@.str.50 = private unnamed_addr constant [16 x i8] c"Not initialised\00", align 1
@.str.51 = private unnamed_addr constant [20 x i8] c"Malformed signature\00", align 1
@.str.52 = private unnamed_addr constant [23 x i8] c"EVP_SignInit_ex failed\00", align 1
@.str.53 = private unnamed_addr constant [22 x i8] c"EVP_SignUpdate failed\00", align 1
@.str.54 = private unnamed_addr constant [31 x i8] c"PEM_read_bio_PrivateKey failed\00", align 1
@.str.55 = private unnamed_addr constant [27 x i8] c"PEM_read_bio_PUBKEY failed\00", align 1
@stderr = external global ptr, align 8
@.str.56 = private unnamed_addr constant [15 x i8] c"Invalid digest\00", align 1
@.str.57 = private unnamed_addr constant [26 x i8] c"ERR_CRYPTO_INVALID_DIGEST\00", align 1
@.str.58 = private unnamed_addr constant [5 x i8] c"code\00", align 1
@_ZZN4node11SPrintFImplB5cxx11EPKcE4args = linkonce_odr dso_local constant %"struct.node::AssertionInfo" { ptr @.str.59, ptr @.str.60, ptr @.str.61 }, comdat, align 8
@.str.59 = private unnamed_addr constant [31 x i8] c"../../src/debug_utils-inl.h:70\00", align 1
@.str.60 = private unnamed_addr constant [16 x i8] c"(p[1]) == ('%')\00", align 1
@.str.61 = private unnamed_addr constant [44 x i8] c"std::string node::SPrintFImpl(const char *)\00", align 1
@.str.62 = private unnamed_addr constant [50 x i8] c"basic_string: construction from null is not valid\00", align 1
@.str.63 = private unnamed_addr constant [25 x i8] c"ERR_CRYPTO_INVALID_STATE\00", align 1
@.str.64 = private unnamed_addr constant [28 x i8] c"ERR_CRYPTO_OPERATION_FAILED\00", align 1
@.str.65 = private unnamed_addr constant [17 x i8] c"data is too long\00", align 1
@_ZZN4node6crypto12_GLOBAL__N_114Node_SignFinalEPNS_11EnvironmentEOSt10unique_ptrI13evp_md_ctx_stNS_15FunctionDeleterIS5_XadL_Z15EVP_MD_CTX_freeEEEEERKNS0_14ManagedEVPPKeyEiN2v85MaybeIiEEE4args = internal constant %"struct.node::AssertionInfo" { ptr @.str.66, ptr @.str.67, ptr @.str.68 }, align 8
@.str.66 = private unnamed_addr constant [34 x i8] c"../../src/crypto/crypto_sig.cc:87\00", align 1
@.str.67 = private unnamed_addr constant [24 x i8] c"(signed_sig_len) >= (0)\00", align 1
@.str.68 = private unnamed_addr constant [155 x i8] c"std::unique_ptr<BackingStore> node::crypto::(anonymous namespace)::Node_SignFinal(Environment *, EVPMDPointer &&, const ManagedEVPPKey &, int, Maybe<int>)\00", align 1
@_ZZN4node6crypto12_GLOBAL__N_114Node_SignFinalEPNS_11EnvironmentEOSt10unique_ptrI13evp_md_ctx_stNS_15FunctionDeleterIS5_XadL_Z15EVP_MD_CTX_freeEEEEERKNS0_14ManagedEVPPKeyEiN2v85MaybeIiEEE4args_0 = internal constant %"struct.node::AssertionInfo" { ptr @.str.69, ptr @.str.70, ptr @.str.68 }, align 8
@.str.69 = private unnamed_addr constant [35 x i8] c"../../src/crypto/crypto_sig.cc:101\00", align 1
@.str.70 = private unnamed_addr constant [33 x i8] c"(sig_len) <= (sig->ByteLength())\00", align 1
@__libc_single_threaded = external global i8, align 1
@_ZTVN4node6crypto14ManagedEVPPKeyE = external unnamed_addr constant { [10 x ptr] }, align 8
@_ZZN4node6crypto12_GLOBAL__N_121ConvertSignatureToDERERKNS0_14ManagedEVPPKeyEONS0_10ByteSourceEE4args = internal constant %"struct.node::AssertionInfo" { ptr @.str.71, ptr @.str.72, ptr @.str.73 }, align 8
@.str.71 = private unnamed_addr constant [35 x i8] c"../../src/crypto/crypto_sig.cc:203\00", align 1
@.str.72 = private unnamed_addr constant [9 x i8] c"asn1_sig\00", align 1
@.str.73 = private unnamed_addr constant [109 x i8] c"ByteSource node::crypto::(anonymous namespace)::ConvertSignatureToDER(const ManagedEVPPKey &, ByteSource &&)\00", align 1
@_ZZN4node6crypto12_GLOBAL__N_121ConvertSignatureToDERERKNS0_14ManagedEVPPKeyEONS0_10ByteSourceEE4args_0 = internal constant %"struct.node::AssertionInfo" { ptr @.str.74, ptr @.str.75, ptr @.str.73 }, align 8
@.str.74 = private unnamed_addr constant [35 x i8] c"../../src/crypto/crypto_sig.cc:205\00", align 1
@.str.75 = private unnamed_addr constant [15 x i8] c"(r) != nullptr\00", align 1
@_ZZN4node6crypto12_GLOBAL__N_121ConvertSignatureToDERERKNS0_14ManagedEVPPKeyEONS0_10ByteSourceEE4args_1 = internal constant %"struct.node::AssertionInfo" { ptr @.str.76, ptr @.str.77, ptr @.str.73 }, align 8
@.str.76 = private unnamed_addr constant [35 x i8] c"../../src/crypto/crypto_sig.cc:207\00", align 1
@.str.77 = private unnamed_addr constant [15 x i8] c"(s) != nullptr\00", align 1
@_ZZN4node6crypto12_GLOBAL__N_121ConvertSignatureToDERERKNS0_14ManagedEVPPKeyEONS0_10ByteSourceEE4args_2 = internal constant %"struct.node::AssertionInfo" { ptr @.str.78, ptr @.str.79, ptr @.str.73 }, align 8
@.str.78 = private unnamed_addr constant [35 x i8] c"../../src/crypto/crypto_sig.cc:208\00", align 1
@.str.79 = private unnamed_addr constant [35 x i8] c"(r) == (BN_bin2bn(sig_data, n, r))\00", align 1
@_ZZN4node6crypto12_GLOBAL__N_121ConvertSignatureToDERERKNS0_14ManagedEVPPKeyEONS0_10ByteSourceEE4args_3 = internal constant %"struct.node::AssertionInfo" { ptr @.str.80, ptr @.str.81, ptr @.str.73 }, align 8
@.str.80 = private unnamed_addr constant [35 x i8] c"../../src/crypto/crypto_sig.cc:209\00", align 1
@.str.81 = private unnamed_addr constant [39 x i8] c"(s) == (BN_bin2bn(sig_data + n, n, s))\00", align 1
@_ZZN4node6crypto12_GLOBAL__N_121ConvertSignatureToDERERKNS0_14ManagedEVPPKeyEONS0_10ByteSourceEE4args_4 = internal constant %"struct.node::AssertionInfo" { ptr @.str.82, ptr @.str.83, ptr @.str.73 }, align 8
@.str.82 = private unnamed_addr constant [35 x i8] c"../../src/crypto/crypto_sig.cc:210\00", align 1
@.str.83 = private unnamed_addr constant [46 x i8] c"(1) == (ECDSA_SIG_set0(asn1_sig.get(), r, s))\00", align 1
@_ZZN4node6crypto12_GLOBAL__N_121ConvertSignatureToDERERKNS0_14ManagedEVPPKeyEONS0_10ByteSourceEE4args_5 = internal constant %"struct.node::AssertionInfo" { ptr @.str.84, ptr @.str.85, ptr @.str.73 }, align 8
@.str.84 = private unnamed_addr constant [35 x i8] c"../../src/crypto/crypto_sig.cc:218\00", align 1
@.str.85 = private unnamed_addr constant [18 x i8] c"(data) != nullptr\00", align 1
@_ZTVN4node14MemoryRetainerE = linkonce_odr dso_local unnamed_addr constant { [10 x ptr] } { [10 x ptr] [ptr null, ptr null, ptr @_ZN4node14MemoryRetainerD2Ev, ptr @_ZN4node14MemoryRetainerD0Ev, ptr @__cxa_pure_virtual, ptr @__cxa_pure_virtual, ptr @__cxa_pure_virtual, ptr @_ZNK4node14MemoryRetainer13WrappedObjectEv, ptr @_ZNK4node14MemoryRetainer10IsRootNodeEv, ptr @_ZNK4node14MemoryRetainer15GetDetachednessEv] }, comdat, align 8
@_ZZN4node13MemoryTracker5TrackEPKNS_14MemoryRetainerEPKcE4args = linkonce_odr dso_local constant %"struct.node::AssertionInfo" { ptr @.str.86, ptr @.str.87, ptr @.str.88 }, comdat, align 8
@.str.86 = private unnamed_addr constant [35 x i8] c"../../src/memory_tracker-inl.h:285\00", align 1
@.str.87 = private unnamed_addr constant [23 x i8] c"(CurrentNode()) == (n)\00", align 1
@.str.88 = private unnamed_addr constant [70 x i8] c"void node::MemoryTracker::Track(const MemoryRetainer *, const char *)\00", align 1
@_ZZN4node13MemoryTracker5TrackEPKNS_14MemoryRetainerEPKcE4args_0 = linkonce_odr dso_local constant %"struct.node::AssertionInfo" { ptr @.str.89, ptr @.str.90, ptr @.str.88 }, comdat, align 8
@.str.89 = private unnamed_addr constant [35 x i8] c"../../src/memory_tracker-inl.h:286\00", align 1
@.str.90 = private unnamed_addr constant [18 x i8] c"(n->size_) != (0)\00", align 1
@.str.91 = private unnamed_addr constant [21 x i8] c"native_to_javascript\00", align 1
@.str.92 = private unnamed_addr constant [21 x i8] c"javascript_to_native\00", align 1
@_ZZN4node18MemoryRetainerNodeC1EPNS_13MemoryTrackerEPKNS_14MemoryRetainerEE4args = linkonce_odr dso_local constant %"struct.node::AssertionInfo" { ptr @.str.93, ptr @.str.94, ptr @.str.95 }, comdat, align 8
@.str.93 = private unnamed_addr constant [34 x i8] c"../../src/memory_tracker-inl.h:28\00", align 1
@.str.94 = private unnamed_addr constant [23 x i8] c"(retainer_) != nullptr\00", align 1
@.str.95 = private unnamed_addr constant [86 x i8] c"node::MemoryRetainerNode::MemoryRetainerNode(MemoryTracker *, const MemoryRetainer *)\00", align 1
@_ZSt19piecewise_construct = linkonce_odr dso_local constant %"struct.std::piecewise_construct_t" zeroinitializer, comdat, align 1
@.str.96 = private unnamed_addr constant [48 x i8] c"cannot create std::deque larger than max_size()\00", align 1
@_ZTVSt23_Sp_counted_ptr_inplaceIN4node9MutexBaseINS0_16LibuvMutexTraitsEEESaIvELN9__gnu_cxx12_Lock_policyE2EE = linkonce_odr dso_local unnamed_addr constant { [7 x ptr] } { [7 x ptr] [ptr null, ptr null, ptr @_ZNSt23_Sp_counted_ptr_inplaceIN4node9MutexBaseINS0_16LibuvMutexTraitsEEESaIvELN9__gnu_cxx12_Lock_policyE2EED2Ev, ptr @_ZNSt23_Sp_counted_ptr_inplaceIN4node9MutexBaseINS0_16LibuvMutexTraitsEEESaIvELN9__gnu_cxx12_Lock_policyE2EED0Ev, ptr @_ZNSt23_Sp_counted_ptr_inplaceIN4node9MutexBaseINS0_16LibuvMutexTraitsEEESaIvELN9__gnu_cxx12_Lock_policyE2EE10_M_disposeEv, ptr @_ZNSt23_Sp_counted_ptr_inplaceIN4node9MutexBaseINS0_16LibuvMutexTraitsEEESaIvELN9__gnu_cxx12_Lock_policyE2EE10_M_destroyEv, ptr @_ZNSt23_Sp_counted_ptr_inplaceIN4node9MutexBaseINS0_16LibuvMutexTraitsEEESaIvELN9__gnu_cxx12_Lock_policyE2EE14_M_get_deleterERKSt9type_info] }, comdat, align 8
@_ZTVSt16_Sp_counted_baseILN9__gnu_cxx12_Lock_policyE2EE = linkonce_odr dso_local unnamed_addr constant { [7 x ptr] } { [7 x ptr] [ptr null, ptr null, ptr @_ZNSt16_Sp_counted_baseILN9__gnu_cxx12_Lock_policyE2EED2Ev, ptr @_ZNSt16_Sp_counted_baseILN9__gnu_cxx12_Lock_policyE2EED0Ev, ptr @__cxa_pure_virtual, ptr @_ZNSt16_Sp_counted_baseILN9__gnu_cxx12_Lock_policyE2EE10_M_destroyEv, ptr @__cxa_pure_virtual] }, comdat, align 8
@_ZZN4node9MutexBaseINS_16LibuvMutexTraitsEEC1EvE4args = linkonce_odr dso_local constant %"struct.node::AssertionInfo" { ptr @.str.97, ptr @.str.98, ptr @.str.99 }, comdat, align 8
@.str.97 = private unnamed_addr constant [27 x i8] c"../../src/node_mutex.h:254\00", align 1
@.str.98 = private unnamed_addr constant [37 x i8] c"(0) == (Traits::mutex_init(&mutex_))\00", align 1
@.str.99 = private unnamed_addr constant [87 x i8] c"node::MutexBase<node::LibuvMutexTraits>::MutexBase() [Traits = node::LibuvMutexTraits]\00", align 1
@_ZZNSt19_Sp_make_shared_tag5_S_tiEvE5__tag = linkonce_odr dso_local constant [16 x i8] zeroinitializer, comdat, align 8
@.str.100 = private unnamed_addr constant [31 x i8] c"../../src/crypto/crypto_util.h\00", align 1
@_ZZN4node6crypto13MallocOpenSSLIcEEPT_mE4args = linkonce_odr dso_local constant %"struct.node::AssertionInfo" { ptr @.str.101, ptr @.str.102, ptr @.str.103 }, comdat, align 8
@.str.101 = private unnamed_addr constant [35 x i8] c"../../src/crypto/crypto_util.h:206\00", align 1
@.str.102 = private unnamed_addr constant [34 x i8] c"!(mem == nullptr) || (count == 0)\00", align 1
@.str.103 = private unnamed_addr constant [50 x i8] c"T *node::crypto::MallocOpenSSL(size_t) [T = char]\00", align 1
@_ZZN4node25MultiplyWithOverflowCheckImEET_S1_S1_E4args = linkonce_odr dso_local constant %"struct.node::AssertionInfo" { ptr @.str.104, ptr @.str.105, ptr @.str.106 }, comdat, align 8
@.str.104 = private unnamed_addr constant [25 x i8] c"../../src/util-inl.h:329\00", align 1
@.str.105 = private unnamed_addr constant [17 x i8] c"(b) == (ret / a)\00", align 1
@.str.106 = private unnamed_addr constant [60 x i8] c"T node::MultiplyWithOverflowCheck(T, T) [T = unsigned long]\00", align 1
@_ZZNO4node6crypto10ByteSource7Builder7releaseESt8optionalImEE4args = linkonce_odr dso_local constant %"struct.node::AssertionInfo" { ptr @.str.107, ptr @.str.108, ptr @.str.109 }, comdat, align 8
@.str.107 = private unnamed_addr constant [35 x i8] c"../../src/crypto/crypto_util.h:240\00", align 1
@.str.108 = private unnamed_addr constant [21 x i8] c"(*resize) <= (size_)\00", align 1
@.str.109 = private unnamed_addr constant [80 x i8] c"ByteSource node::crypto::ByteSource::Builder::release(std::optional<size_t>) &&\00", align 1
@_ZSt8in_place = linkonce_odr dso_local constant %"struct.std::in_place_t" zeroinitializer, comdat, align 1
@.str.110 = private unnamed_addr constant [9 x i8] c"SignBase\00", align 1
@.str.111 = private unnamed_addr constant [18 x i8] c"SignConfiguration\00", align 1
@.str.112 = private unnamed_addr constant [4 x i8] c"run\00", align 1
@.str.113 = private unnamed_addr constant [8 x i8] c"SignJob\00", align 1
@_ZZN4node14ThreadPoolWork12ScheduleWorkEvE27trace_event_unique_atomic36 = linkonce_odr dso_local global { i64 } zeroinitializer, comdat, align 8
@.str.114 = private unnamed_addr constant [51 x i8] c"node,node.threadpoolwork,node.threadpoolwork.async\00", align 1
@_ZZN4node14ThreadPoolWork12ScheduleWorkEvE4args = linkonce_odr dso_local constant %"struct.node::AssertionInfo" { ptr @.str.115, ptr @.str.116, ptr @.str.117 }, comdat, align 8
@.str.115 = private unnamed_addr constant [34 x i8] c"../../src/threadpoolwork-inl.h:59\00", align 1
@.str.116 = private unnamed_addr constant [16 x i8] c"(status) == (0)\00", align 1
@.str.117 = private unnamed_addr constant [42 x i8] c"void node::ThreadPoolWork::ScheduleWork()\00", align 1
@_ZZN4node7tracing16TraceEventHelper23GetCategoryGroupEnabledEPKcE8disabled = linkonce_odr dso_local constant i8 0, comdat, align 1
@_ZZZN4node14ThreadPoolWork12ScheduleWorkEvENKUlP9uv_work_sE_clES2_E27trace_event_unique_atomic43 = linkonce_odr dso_local global { i64 } zeroinitializer, comdat, align 8
@.str.118 = private unnamed_addr constant [50 x i8] c"node,node.threadpoolwork,node.threadpoolwork.sync\00", align 1
@_ZN4node7tracingL12kGlobalScopeE = internal constant ptr null, align 8
@_ZZZN4node14ThreadPoolWork12ScheduleWorkEvENKUlP9uv_work_sE_clES2_E27trace_event_unique_atomic46 = linkonce_odr dso_local global { i64 } zeroinitializer, comdat, align 8
@_ZZZN4node14ThreadPoolWork12ScheduleWorkEvENKUlP9uv_work_siE_clES2_iE27trace_event_unique_atomic56 = linkonce_odr dso_local global { i64 } zeroinitializer, comdat, align 8
@.str.119 = private unnamed_addr constant [7 x i8] c"result\00", align 1
@_ZZN4node11Environment29DecreaseWaitingRequestCounterEvE4args = linkonce_odr dso_local constant %"struct.node::AssertionInfo" { ptr @.str.120, ptr @.str.121, ptr @.str.122 }, comdat, align 8
@.str.120 = private unnamed_addr constant [24 x i8] c"../../src/env-inl.h:297\00", align 1
@.str.121 = private unnamed_addr constant [26 x i8] c"(request_waiting_) >= (0)\00", align 1
@.str.122 = private unnamed_addr constant [56 x i8] c"void node::Environment::DecreaseWaitingRequestCounter()\00", align 1
@_ZTVN4node6crypto13DeriveBitsJobINS0_10SignTraitsEEE = linkonce_odr dso_local unnamed_addr constant { [23 x ptr], [6 x ptr] } { [23 x ptr] [ptr null, ptr null, ptr @_ZN4node6crypto13DeriveBitsJobINS0_10SignTraitsEED2Ev, ptr @_ZN4node6crypto13DeriveBitsJobINS0_10SignTraitsEED0Ev, ptr @_ZNK4node6crypto13DeriveBitsJobINS0_10SignTraitsEE10MemoryInfoEPNS_13MemoryTrackerE, ptr @_ZNK4node6crypto9CryptoJobINS0_10SignTraitsEE14MemoryInfoNameEv, ptr @_ZNK4node6crypto13DeriveBitsJobINS0_10SignTraitsEE8SelfSizeEv, ptr @_ZNK4node10BaseObject13WrappedObjectEv, ptr @_ZNK4node10BaseObject10IsRootNodeEv, ptr @_ZNK4node10BaseObject15GetDetachednessEv, ptr @_ZNK4node9AsyncWrap18IsDoneInitializingEv, ptr @_ZNK4node10BaseObject15GetTransferModeEv, ptr @_ZN4node10BaseObject20TransferForMessagingEv, ptr @_ZNK4node10BaseObject17CloneForMessagingEv, ptr @_ZNK4node10BaseObject19NestedTransferablesEv, ptr @_ZN4node10BaseObject20FinalizeTransferReadEN2v85LocalINS1_7ContextEEEPNS1_17ValueDeserializerE, ptr @_ZNK4node6crypto9CryptoJobINS0_10SignTraitsEE33IsNotIndicativeOfMemoryLeakAtExitEv, ptr @_ZN4node10BaseObject11OnGCCollectEv, ptr @_ZNK4node10BaseObject15is_snapshotableEv, ptr @_ZNK4node9AsyncWrap15diagnostic_nameB5cxx11Ev, ptr @_ZN4node6crypto9CryptoJobINS0_10SignTraitsEE19AfterThreadPoolWorkEi, ptr @_ZN4node6crypto13DeriveBitsJobINS0_10SignTraitsEE8ToResultEPN2v85LocalINS4_5ValueEEES8_, ptr @_ZN4node6crypto13DeriveBitsJobINS0_10SignTraitsEE16DoThreadPoolWorkEv], [6 x ptr] [ptr inttoptr (i64 -56 to ptr), ptr null, ptr @_ZThn56_N4node6crypto13DeriveBitsJobINS0_10SignTraitsEED1Ev, ptr @_ZThn56_N4node6crypto13DeriveBitsJobINS0_10SignTraitsEED0Ev, ptr @_ZThn56_N4node6crypto13DeriveBitsJobINS0_10SignTraitsEE16DoThreadPoolWorkEv, ptr @_ZThn56_N4node6crypto9CryptoJobINS0_10SignTraitsEE19AfterThreadPoolWorkEi] }, comdat, align 8
@.str.123 = private unnamed_addr constant [7 x i8] c"crypto\00", align 1
@_ZTVN4node6crypto9CryptoJobINS0_10SignTraitsEEE = linkonce_odr dso_local unnamed_addr constant { [22 x ptr], [6 x ptr] } { [22 x ptr] [ptr null, ptr null, ptr @_ZN4node6crypto9CryptoJobINS0_10SignTraitsEED2Ev, ptr @_ZN4node6crypto9CryptoJobINS0_10SignTraitsEED0Ev, ptr @_ZNK4node6crypto9CryptoJobINS0_10SignTraitsEE10MemoryInfoEPNS_13MemoryTrackerE, ptr @_ZNK4node6crypto9CryptoJobINS0_10SignTraitsEE14MemoryInfoNameEv, ptr @__cxa_pure_virtual, ptr @_ZNK4node10BaseObject13WrappedObjectEv, ptr @_ZNK4node10BaseObject10IsRootNodeEv, ptr @_ZNK4node10BaseObject15GetDetachednessEv, ptr @_ZNK4node9AsyncWrap18IsDoneInitializingEv, ptr @_ZNK4node10BaseObject15GetTransferModeEv, ptr @_ZN4node10BaseObject20TransferForMessagingEv, ptr @_ZNK4node10BaseObject17CloneForMessagingEv, ptr @_ZNK4node10BaseObject19NestedTransferablesEv, ptr @_ZN4node10BaseObject20FinalizeTransferReadEN2v85LocalINS1_7ContextEEEPNS1_17ValueDeserializerE, ptr @_ZNK4node6crypto9CryptoJobINS0_10SignTraitsEE33IsNotIndicativeOfMemoryLeakAtExitEv, ptr @_ZN4node10BaseObject11OnGCCollectEv, ptr @_ZNK4node10BaseObject15is_snapshotableEv, ptr @_ZNK4node9AsyncWrap15diagnostic_nameB5cxx11Ev, ptr @_ZN4node6crypto9CryptoJobINS0_10SignTraitsEE19AfterThreadPoolWorkEi, ptr @__cxa_pure_virtual], [6 x ptr] [ptr inttoptr (i64 -56 to ptr), ptr null, ptr @_ZThn56_N4node6crypto9CryptoJobINS0_10SignTraitsEED1Ev, ptr @_ZThn56_N4node6crypto9CryptoJobINS0_10SignTraitsEED0Ev, ptr @__cxa_pure_virtual, ptr @_ZThn56_N4node6crypto9CryptoJobINS0_10SignTraitsEE19AfterThreadPoolWorkEi] }, comdat, align 8
@_ZTVN4node14ThreadPoolWorkE = linkonce_odr dso_local unnamed_addr constant { [6 x ptr] } { [6 x ptr] [ptr null, ptr null, ptr @_ZN4node14ThreadPoolWorkD2Ev, ptr @_ZN4node14ThreadPoolWorkD0Ev, ptr @__cxa_pure_virtual, ptr @__cxa_pure_virtual] }, comdat, align 8
@_ZZN4node14ThreadPoolWorkC1EPNS_11EnvironmentEPKcE4args = linkonce_odr dso_local constant %"struct.node::AssertionInfo" { ptr @.str.124, ptr @.str.125, ptr @.str.126 }, comdat, align 8
@.str.124 = private unnamed_addr constant [31 x i8] c"../../src/node_internals.h:275\00", align 1
@.str.125 = private unnamed_addr constant [17 x i8] c"(env) != nullptr\00", align 1
@.str.126 = private unnamed_addr constant [66 x i8] c"node::ThreadPoolWork::ThreadPoolWork(Environment *, const char *)\00", align 1
@_ZTVN4node6crypto16CryptoErrorStoreE = linkonce_odr dso_local unnamed_addr constant { [10 x ptr] } { [10 x ptr] [ptr null, ptr null, ptr @_ZN4node6crypto16CryptoErrorStoreD2Ev, ptr @_ZN4node6crypto16CryptoErrorStoreD0Ev, ptr @_ZNK4node6crypto16CryptoErrorStore10MemoryInfoEPNS_13MemoryTrackerE, ptr @_ZNK4node6crypto16CryptoErrorStore14MemoryInfoNameEv, ptr @_ZNK4node6crypto16CryptoErrorStore8SelfSizeEv, ptr @_ZNK4node14MemoryRetainer13WrappedObjectEv, ptr @_ZNK4node14MemoryRetainer10IsRootNodeEv, ptr @_ZNK4node14MemoryRetainer15GetDetachednessEv] }, comdat, align 8
@.str.127 = private unnamed_addr constant [17 x i8] c"CryptoErrorStore\00", align 1
@.str.128 = private unnamed_addr constant [7 x i8] c"params\00", align 1
@.str.129 = private unnamed_addr constant [7 x i8] c"errors\00", align 1
@.str.130 = private unnamed_addr constant [4 x i8] c"out\00", align 1
@_ZZN4node6crypto9CryptoJobINS0_10SignTraitsEE19AfterThreadPoolWorkEiE4args = linkonce_odr dso_local constant %"struct.node::AssertionInfo" { ptr @.str.131, ptr @.str.132, ptr @.str.133 }, comdat, align 8
@.str.131 = private unnamed_addr constant [35 x i8] c"../../src/crypto/crypto_util.h:359\00", align 1
@.str.132 = private unnamed_addr constant [29 x i8] c"(mode_) == (kCryptoJobAsync)\00", align 1
@.str.133 = private unnamed_addr constant [134 x i8] c"virtual void node::crypto::CryptoJob<node::crypto::SignTraits>::AfterThreadPoolWork(int) [CryptoJobTraits = node::crypto::SignTraits]\00", align 1
@_ZZN4node6crypto9CryptoJobINS0_10SignTraitsEE19AfterThreadPoolWorkEiE4args_0 = linkonce_odr dso_local constant %"struct.node::AssertionInfo" { ptr @.str.134, ptr @.str.135, ptr @.str.133 }, comdat, align 8
@.str.134 = private unnamed_addr constant [35 x i8] c"../../src/crypto/crypto_util.h:360\00", align 1
@.str.135 = private unnamed_addr constant [38 x i8] c"status == 0 || status == UV_ECANCELED\00", align 1
@_ZZN4node6crypto9CryptoJobINS0_10SignTraitsEE19AfterThreadPoolWorkEiE4args_1 = linkonce_odr dso_local constant %"struct.node::AssertionInfo" { ptr @.str.136, ptr @.str.137, ptr @.str.133 }, comdat, align 8
@.str.136 = private unnamed_addr constant [35 x i8] c"../../src/crypto/crypto_util.h:378\00", align 1
@.str.137 = private unnamed_addr constant [22 x i8] c"try_catch.HasCaught()\00", align 1
@_ZZN4node6crypto13DeriveBitsJobINS0_10SignTraitsEE8ToResultEPN2v85LocalINS4_5ValueEEES8_E4args = linkonce_odr dso_local constant %"struct.node::AssertionInfo" { ptr @.str.138, ptr @.str.139, ptr @.str.140 }, comdat, align 8
@.str.138 = private unnamed_addr constant [35 x i8] c"../../src/crypto/crypto_util.h:519\00", align 1
@.str.139 = private unnamed_addr constant [16 x i8] c"errors->Empty()\00", align 1
@.str.140 = private unnamed_addr constant [182 x i8] c"virtual v8::Maybe<bool> node::crypto::DeriveBitsJob<node::crypto::SignTraits>::ToResult(v8::Local<v8::Value> *, v8::Local<v8::Value> *) [DeriveBitsTraits = node::crypto::SignTraits]\00", align 1
@_ZZN4node6crypto13DeriveBitsJobINS0_10SignTraitsEE8ToResultEPN2v85LocalINS4_5ValueEEES8_E4args_0 = linkonce_odr dso_local constant %"struct.node::AssertionInfo" { ptr @.str.141, ptr @.str.142, ptr @.str.140 }, comdat, align 8
@.str.141 = private unnamed_addr constant [35 x i8] c"../../src/crypto/crypto_util.h:530\00", align 1
@.str.142 = private unnamed_addr constant [17 x i8] c"!errors->Empty()\00", align 1
@.str.143 = private unnamed_addr constant [18 x i8] c"Cipher job failed\00", align 1
@.str.144 = private unnamed_addr constant [21 x i8] c"Deriving bits failed\00", align 1
@.str.145 = private unnamed_addr constant [26 x i8] c"Engine \22%s\22 was not found\00", align 1
@.str.146 = private unnamed_addr constant [17 x i8] c"Invalid key type\00", align 1
@.str.147 = private unnamed_addr constant [26 x i8] c"Key generation job failed\00", align 1
@.str.148 = private unnamed_addr constant [3 x i8] c"Ok\00", align 1
@.str.149 = private unnamed_addr constant [17 x i8] c"ERR_OUT_OF_RANGE\00", align 1
@_ZZN4node16MaybeStackBufferIcLm1024EE25AllocateSufficientStorageEmE4args = linkonce_odr dso_local constant %"struct.node::AssertionInfo" { ptr @.str.150, ptr @.str.151, ptr @.str.152 }, comdat, align 8
@.str.150 = private unnamed_addr constant [25 x i8] c"../../src/util-inl.h:516\00", align 1
@.str.151 = private unnamed_addr constant [17 x i8] c"!IsInvalidated()\00", align 1
@.str.152 = private unnamed_addr constant [106 x i8] c"void node::MaybeStackBuffer<char>::AllocateSufficientStorage(size_t) [T = char, kStackStorageSize = 1024]\00", align 1
@_ZZN4node7ReallocIcEEPT_S2_mE4args = linkonce_odr dso_local constant %"struct.node::AssertionInfo" { ptr @.str.153, ptr @.str.154, ptr @.str.155 }, comdat, align 8
@.str.153 = private unnamed_addr constant [25 x i8] c"../../src/util-inl.h:376\00", align 1
@.str.154 = private unnamed_addr constant [29 x i8] c"!(n > 0) || (ret != nullptr)\00", align 1
@.str.155 = private unnamed_addr constant [41 x i8] c"T *node::Realloc(T *, size_t) [T = char]\00", align 1
@_ZZN4node16MaybeStackBufferIcLm1024EE9SetLengthEmE4args = linkonce_odr dso_local constant %"struct.node::AssertionInfo" { ptr @.str.156, ptr @.str.157, ptr @.str.158 }, comdat, align 8
@.str.156 = private unnamed_addr constant [21 x i8] c"../../src/util.h:437\00", align 1
@.str.157 = private unnamed_addr constant [25 x i8] c"(length) <= (capacity())\00", align 1
@.str.158 = private unnamed_addr constant [90 x i8] c"void node::MaybeStackBuffer<char>::SetLength(size_t) [T = char, kStackStorageSize = 1024]\00", align 1
@_ZZN4node23ArrayBufferViewContentsIcLm64EE9ReadValueEN2v85LocalINS2_5ValueEEEE4args = linkonce_odr dso_local constant %"struct.node::AssertionInfo" { ptr @.str.159, ptr @.str.160, ptr @.str.161 }, comdat, align 8
@.str.159 = private unnamed_addr constant [25 x i8] c"../../src/util-inl.h:576\00", align 1
@.str.160 = private unnamed_addr constant [27 x i8] c"buf->IsSharedArrayBuffer()\00", align 1
@.str.161 = private unnamed_addr constant [109 x i8] c"void node::ArrayBufferViewContents<char>::ReadValue(v8::Local<v8::Value>) [T = char, kStackStorageSize = 64]\00", align 1
@_ZTVSt19_Sp_counted_deleterIPN2v812BackingStoreESt14default_deleteIS1_ESaIvELN9__gnu_cxx12_Lock_policyE2EE = linkonce_odr dso_local unnamed_addr constant { [7 x ptr] } { [7 x ptr] [ptr null, ptr null, ptr @_ZNSt19_Sp_counted_deleterIPN2v812BackingStoreESt14default_deleteIS1_ESaIvELN9__gnu_cxx12_Lock_policyE2EED2Ev, ptr @_ZNSt19_Sp_counted_deleterIPN2v812BackingStoreESt14default_deleteIS1_ESaIvELN9__gnu_cxx12_Lock_policyE2EED0Ev, ptr @_ZNSt19_Sp_counted_deleterIPN2v812BackingStoreESt14default_deleteIS1_ESaIvELN9__gnu_cxx12_Lock_policyE2EE10_M_disposeEv, ptr @_ZNSt19_Sp_counted_deleterIPN2v812BackingStoreESt14default_deleteIS1_ESaIvELN9__gnu_cxx12_Lock_policyE2EE10_M_destroyEv, ptr @_ZNSt19_Sp_counted_deleterIPN2v812BackingStoreESt14default_deleteIS1_ESaIvELN9__gnu_cxx12_Lock_policyE2EE14_M_get_deleterERKSt9type_info] }, comdat, align 8
@_ZZN4node6crypto25ArrayBufferOrViewContentsIcEC1EN2v85LocalINS3_5ValueEEEE4args = linkonce_odr dso_local constant %"struct.node::AssertionInfo" { ptr @.str.162, ptr @.str.163, ptr @.str.164 }, comdat, align 8
@.str.162 = private unnamed_addr constant [35 x i8] c"../../src/crypto/crypto_util.h:698\00", align 1
@.str.163 = private unnamed_addr constant [23 x i8] c"IsAnyBufferSource(buf)\00", align 1
@.str.164 = private unnamed_addr constant [106 x i8] c"node::crypto::ArrayBufferOrViewContents<char>::ArrayBufferOrViewContents(v8::Local<v8::Value>) [T = char]\00", align 1
@_ZZN4node11SPrintFImplIPcJEEENSt7__cxx1112basic_stringIcSt11char_traitsIcESaIcEEEPKcOT_DpOT0_E4args = linkonce_odr dso_local constant %"struct.node::AssertionInfo" { ptr @.str.165, ptr @.str.166, ptr @.str.167 }, comdat, align 8
@.str.165 = private unnamed_addr constant [31 x i8] c"../../src/debug_utils-inl.h:79\00", align 1
@.str.166 = private unnamed_addr constant [15 x i8] c"(p) != nullptr\00", align 1
@.str.167 = private unnamed_addr constant [90 x i8] c"std::string node::SPrintFImpl(const char *, Arg &&, Args &&...) [Arg = char *, Args = <>]\00", align 1
@.str.168 = private unnamed_addr constant [3 x i8] c"lz\00", align 1
@.str.169 = private unnamed_addr constant [3 x i8] c"%p\00", align 1
@_ZZN4node11SPrintFImplIPcJEEENSt7__cxx1112basic_stringIcSt11char_traitsIcESaIcEEEPKcOT_DpOT0_E4args_1 = linkonce_odr dso_local constant %"struct.node::AssertionInfo" { ptr @.str.170, ptr @.str.171, ptr @.str.167 }, comdat, align 8
@.str.170 = private unnamed_addr constant [32 x i8] c"../../src/debug_utils-inl.h:116\00", align 1
@.str.171 = private unnamed_addr constant [11 x i8] c"(n) >= (0)\00", align 1
@.str.172 = private unnamed_addr constant [7 x i8] c"(null)\00", align 1
@llvm.global_ctors = appending global [1 x { i32, ptr, ptr }] [{ i32, ptr, ptr } { i32 65535, ptr @_GLOBAL__sub_I_crypto_sig.cc, ptr null }]

@_ZN4node6crypto8SignBaseC1EPNS_11EnvironmentEN2v85LocalINS4_6ObjectEEE = dso_local unnamed_addr alias void (ptr, ptr, ptr), ptr @_ZN4node6crypto8SignBaseC2EPNS_11EnvironmentEN2v85LocalINS4_6ObjectEEE
@_ZN4node6crypto4SignC1EPNS_11EnvironmentEN2v85LocalINS4_6ObjectEEE = dso_local unnamed_addr alias void (ptr, ptr, ptr), ptr @_ZN4node6crypto4SignC2EPNS_11EnvironmentEN2v85LocalINS4_6ObjectEEE
@_ZN4node6crypto6VerifyC1EPNS_11EnvironmentEN2v85LocalINS4_6ObjectEEE = dso_local unnamed_addr alias void (ptr, ptr, ptr), ptr @_ZN4node6crypto6VerifyC2EPNS_11EnvironmentEN2v85LocalINS4_6ObjectEEE
@_ZN4node6crypto17SignConfigurationC1EOS1_ = dso_local unnamed_addr alias void (ptr, ptr), ptr @_ZN4node6crypto17SignConfigurationC2EOS1_

; Function Attrs: nounwind uwtable
define internal void @__cxx_global_var_init() #0 section ".text.startup" {
entry:
  call void @_ZNSt8ios_base4InitC1Ev(ptr noundef nonnull align 1 dereferenceable(1) @_ZStL8__ioinit)
  %0 = call i32 @__cxa_atexit(ptr @_ZNSt8ios_base4InitD1Ev, ptr @_ZStL8__ioinit, ptr @__dso_handle) #3
  ret void
}

declare void @_ZNSt8ios_base4InitC1Ev(ptr noundef nonnull align 1 dereferenceable(1)) unnamed_addr #1

; Function Attrs: nounwind
declare void @_ZNSt8ios_base4InitD1Ev(ptr noundef nonnull align 1 dereferenceable(1)) unnamed_addr #2

; Function Attrs: nounwind
declare i32 @__cxa_atexit(ptr, ptr, ptr) #3

; Function Attrs: mustprogress nounwind uwtable
define dso_local noundef i32 @_ZN4node6crypto8SignBase4InitEPKc(ptr noundef nonnull align 8 dereferenceable(40) %this, ptr noundef %sign_type) #4 align 2 {
entry:
  %retval = alloca i32, align 4
  %this.addr = alloca ptr, align 8
  %sign_type.addr = alloca ptr, align 8
  %md = alloca ptr, align 8
  store ptr %this, ptr %this.addr, align 8
  store ptr %sign_type, ptr %sign_type.addr, align 8
  %this1 = load ptr, ptr %this.addr, align 8
  br label %do.body

do.body:                                          ; preds = %entry
  %mdctx_ = getelementptr inbounds %"class.node::crypto::SignBase", ptr %this1, i32 0, i32 1
  %call = call noundef zeroext i1 @_ZSteqI13evp_md_ctx_stN4node15FunctionDeleterIS0_XadL_Z15EVP_MD_CTX_freeEEEEEbRKSt10unique_ptrIT_T0_EDn(ptr noundef nonnull align 8 dereferenceable(8) %mdctx_, ptr null) #3
  %lnot = xor i1 %call, true
  %lnot2 = xor i1 %lnot, true
  %lnot3 = xor i1 %lnot2, true
  br i1 %lnot3, label %if.then, label %if.end

if.then:                                          ; preds = %do.body
  br label %do.body4

do.body4:                                         ; preds = %if.then
  call void @_ZN4node6AssertERKNS_13AssertionInfoE(ptr noundef nonnull align 8 dereferenceable(24) @_ZZN4node6crypto8SignBase4InitEPKcE4args)
  call void @abort() #15
  unreachable

do.end:                                           ; No predecessors!
  br label %if.end

if.end:                                           ; preds = %do.end, %do.body
  br label %do.end5

do.end5:                                          ; preds = %if.end
  %0 = load ptr, ptr %sign_type.addr, align 8
  %call6 = call i32 @strcmp(ptr noundef %0, ptr noundef @.str.3) #16
  %cmp = icmp eq i32 %call6, 0
  br i1 %cmp, label %if.then9, label %lor.lhs.false

lor.lhs.false:                                    ; preds = %do.end5
  %1 = load ptr, ptr %sign_type.addr, align 8
  %call7 = call i32 @strcmp(ptr noundef %1, ptr noundef @.str.4) #16
  %cmp8 = icmp eq i32 %call7, 0
  br i1 %cmp8, label %if.then9, label %if.end10

if.then9:                                         ; preds = %lor.lhs.false, %do.end5
  store ptr @.str.5, ptr %sign_type.addr, align 8
  br label %if.end10

if.end10:                                         ; preds = %if.then9, %lor.lhs.false
  %2 = load ptr, ptr %sign_type.addr, align 8
  %call11 = call ptr @EVP_get_digestbyname(ptr noundef %2)
  store ptr %call11, ptr %md, align 8
  %3 = load ptr, ptr %md, align 8
  %cmp12 = icmp eq ptr %3, null
  br i1 %cmp12, label %if.then13, label %if.end14

if.then13:                                        ; preds = %if.end10
  store i32 1, ptr %retval, align 4
  br label %return

if.end14:                                         ; preds = %if.end10
  %mdctx_15 = getelementptr inbounds %"class.node::crypto::SignBase", ptr %this1, i32 0, i32 1
  %call16 = call ptr @EVP_MD_CTX_new()
  call void @_ZNSt10unique_ptrI13evp_md_ctx_stN4node15FunctionDeleterIS0_XadL_Z15EVP_MD_CTX_freeEEEEE5resetEPS0_(ptr noundef nonnull align 8 dereferenceable(8) %mdctx_15, ptr noundef %call16) #3
  %mdctx_17 = getelementptr inbounds %"class.node::crypto::SignBase", ptr %this1, i32 0, i32 1
  %call18 = call noundef zeroext i1 @_ZNKSt10unique_ptrI13evp_md_ctx_stN4node15FunctionDeleterIS0_XadL_Z15EVP_MD_CTX_freeEEEEEcvbEv(ptr noundef nonnull align 8 dereferenceable(8) %mdctx_17) #3
  br i1 %call18, label %lor.lhs.false19, label %if.then23

lor.lhs.false19:                                  ; preds = %if.end14
  %mdctx_20 = getelementptr inbounds %"class.node::crypto::SignBase", ptr %this1, i32 0, i32 1
  %call21 = call noundef ptr @_ZNKSt10unique_ptrI13evp_md_ctx_stN4node15FunctionDeleterIS0_XadL_Z15EVP_MD_CTX_freeEEEEE3getEv(ptr noundef nonnull align 8 dereferenceable(8) %mdctx_20) #3
  %4 = load ptr, ptr %md, align 8
  %call22 = call i32 @EVP_DigestInit_ex(ptr noundef %call21, ptr noundef %4, ptr noundef null)
  %tobool = icmp ne i32 %call22, 0
  br i1 %tobool, label %if.end25, label %if.then23

if.then23:                                        ; preds = %lor.lhs.false19, %if.end14
  %mdctx_24 = getelementptr inbounds %"class.node::crypto::SignBase", ptr %this1, i32 0, i32 1
  call void @_ZNSt10unique_ptrI13evp_md_ctx_stN4node15FunctionDeleterIS0_XadL_Z15EVP_MD_CTX_freeEEEEE5resetEPS0_(ptr noundef nonnull align 8 dereferenceable(8) %mdctx_24, ptr noundef null) #3
  store i32 2, ptr %retval, align 4
  br label %return

if.end25:                                         ; preds = %lor.lhs.false19
  store i32 0, ptr %retval, align 4
  br label %return

return:                                           ; preds = %if.end25, %if.then23, %if.then13
  %5 = load i32, ptr %retval, align 4
  ret i32 %5
}

; Function Attrs: mustprogress nounwind uwtable
define linkonce_odr dso_local noundef zeroext i1 @_ZSteqI13evp_md_ctx_stN4node15FunctionDeleterIS0_XadL_Z15EVP_MD_CTX_freeEEEEEbRKSt10unique_ptrIT_T0_EDn(ptr noundef nonnull align 8 dereferenceable(8) %__x, ptr %0) #4 comdat {
entry:
  %__x.addr = alloca ptr, align 8
  %.addr = alloca ptr, align 8
  store ptr %__x, ptr %__x.addr, align 8
  store ptr %0, ptr %.addr, align 8
  %1 = load ptr, ptr %__x.addr, align 8
  %call = call noundef zeroext i1 @_ZNKSt10unique_ptrI13evp_md_ctx_stN4node15FunctionDeleterIS0_XadL_Z15EVP_MD_CTX_freeEEEEEcvbEv(ptr noundef nonnull align 8 dereferenceable(8) %1) #3
  %lnot = xor i1 %call, true
  ret i1 %lnot
}

declare void @_ZN4node6AssertERKNS_13AssertionInfoE(ptr noundef nonnull align 8 dereferenceable(24)) #1

; Function Attrs: noreturn nounwind
declare void @abort() #5

; Function Attrs: nounwind willreturn memory(read)
declare i32 @strcmp(ptr noundef, ptr noundef) #6

declare ptr @EVP_get_digestbyname(ptr noundef) #1

; Function Attrs: mustprogress nounwind uwtable
define linkonce_odr dso_local void @_ZNSt10unique_ptrI13evp_md_ctx_stN4node15FunctionDeleterIS0_XadL_Z15EVP_MD_CTX_freeEEEEE5resetEPS0_(ptr noundef nonnull align 8 dereferenceable(8) %this, ptr noundef %__p) #4 comdat align 2 {
entry:
  %this.addr = alloca ptr, align 8
  %__p.addr = alloca ptr, align 8
  store ptr %this, ptr %this.addr, align 8
  store ptr %__p, ptr %__p.addr, align 8
  %this1 = load ptr, ptr %this.addr, align 8
  %_M_t = getelementptr inbounds %"class.std::unique_ptr", ptr %this1, i32 0, i32 0
  %0 = load ptr, ptr %__p.addr, align 8
  call void @_ZNSt15__uniq_ptr_implI13evp_md_ctx_stN4node15FunctionDeleterIS0_XadL_Z15EVP_MD_CTX_freeEEEEE5resetEPS0_(ptr noundef nonnull align 8 dereferenceable(8) %_M_t, ptr noundef %0) #3
  ret void
}

declare ptr @EVP_MD_CTX_new() #1

; Function Attrs: mustprogress nounwind uwtable
define linkonce_odr dso_local noundef zeroext i1 @_ZNKSt10unique_ptrI13evp_md_ctx_stN4node15FunctionDeleterIS0_XadL_Z15EVP_MD_CTX_freeEEEEEcvbEv(ptr noundef nonnull align 8 dereferenceable(8) %this) #4 comdat align 2 {
entry:
  %this.addr = alloca ptr, align 8
  store ptr %this, ptr %this.addr, align 8
  %this1 = load ptr, ptr %this.addr, align 8
  %call = call noundef ptr @_ZNKSt10unique_ptrI13evp_md_ctx_stN4node15FunctionDeleterIS0_XadL_Z15EVP_MD_CTX_freeEEEEE3getEv(ptr noundef nonnull align 8 dereferenceable(8) %this1) #3
  %cmp = icmp eq ptr %call, null
  %cond = select i1 %cmp, i1 false, i1 true
  ret i1 %cond
}

declare i32 @EVP_DigestInit_ex(ptr noundef, ptr noundef, ptr noundef) #1

; Function Attrs: mustprogress nounwind uwtable
define linkonce_odr dso_local noundef ptr @_ZNKSt10unique_ptrI13evp_md_ctx_stN4node15FunctionDeleterIS0_XadL_Z15EVP_MD_CTX_freeEEEEE3getEv(ptr noundef nonnull align 8 dereferenceable(8) %this) #4 comdat align 2 {
entry:
  %this.addr = alloca ptr, align 8
  store ptr %this, ptr %this.addr, align 8
  %this1 = load ptr, ptr %this.addr, align 8
  %_M_t = getelementptr inbounds %"class.std::unique_ptr", ptr %this1, i32 0, i32 0
  %call = call noundef ptr @_ZNKSt15__uniq_ptr_implI13evp_md_ctx_stN4node15FunctionDeleterIS0_XadL_Z15EVP_MD_CTX_freeEEEEE6_M_ptrEv(ptr noundef nonnull align 8 dereferenceable(8) %_M_t) #3
  ret ptr %call
}

; Function Attrs: mustprogress nounwind uwtable
define dso_local noundef i32 @_ZN4node6crypto8SignBase6UpdateEPKcm(ptr noundef nonnull align 8 dereferenceable(40) %this, ptr noundef %data, i64 noundef %len) #4 align 2 {
entry:
  %retval = alloca i32, align 4
  %this.addr = alloca ptr, align 8
  %data.addr = alloca ptr, align 8
  %len.addr = alloca i64, align 8
  store ptr %this, ptr %this.addr, align 8
  store ptr %data, ptr %data.addr, align 8
  store i64 %len, ptr %len.addr, align 8
  %this1 = load ptr, ptr %this.addr, align 8
  %mdctx_ = getelementptr inbounds %"class.node::crypto::SignBase", ptr %this1, i32 0, i32 1
  %call = call noundef zeroext i1 @_ZSteqI13evp_md_ctx_stN4node15FunctionDeleterIS0_XadL_Z15EVP_MD_CTX_freeEEEEEbRKSt10unique_ptrIT_T0_EDn(ptr noundef nonnull align 8 dereferenceable(8) %mdctx_, ptr null) #3
  br i1 %call, label %if.then, label %if.end

if.then:                                          ; preds = %entry
  store i32 3, ptr %retval, align 4
  br label %return

if.end:                                           ; preds = %entry
  %mdctx_2 = getelementptr inbounds %"class.node::crypto::SignBase", ptr %this1, i32 0, i32 1
  %call3 = call noundef ptr @_ZNKSt10unique_ptrI13evp_md_ctx_stN4node15FunctionDeleterIS0_XadL_Z15EVP_MD_CTX_freeEEEEE3getEv(ptr noundef nonnull align 8 dereferenceable(8) %mdctx_2) #3
  %0 = load ptr, ptr %data.addr, align 8
  %1 = load i64, ptr %len.addr, align 8
  %call4 = call i32 @EVP_DigestUpdate(ptr noundef %call3, ptr noundef %0, i64 noundef %1)
  %tobool = icmp ne i32 %call4, 0
  br i1 %tobool, label %if.end6, label %if.then5

if.then5:                                         ; preds = %if.end
  store i32 4, ptr %retval, align 4
  br label %return

if.end6:                                          ; preds = %if.end
  store i32 0, ptr %retval, align 4
  br label %return

return:                                           ; preds = %if.end6, %if.then5, %if.then
  %2 = load i32, ptr %retval, align 4
  ret i32 %2
}

declare i32 @EVP_DigestUpdate(ptr noundef, ptr noundef, i64 noundef) #1

; Function Attrs: mustprogress nounwind uwtable
define dso_local void @_ZN4node6crypto8SignBaseC2EPNS_11EnvironmentEN2v85LocalINS4_6ObjectEEE(ptr noundef nonnull align 8 dereferenceable(40) %this, ptr noundef %env, ptr %wrap.coerce) unnamed_addr #4 align 2 {
entry:
  %wrap = alloca %"class.v8::Local", align 8
  %this.addr = alloca ptr, align 8
  %env.addr = alloca ptr, align 8
  %agg.tmp = alloca %"class.v8::Local", align 8
  %coerce.dive = getelementptr inbounds %"class.v8::Local", ptr %wrap, i32 0, i32 0
  %coerce.dive1 = getelementptr inbounds %"class.v8::LocalBase", ptr %coerce.dive, i32 0, i32 0
  %coerce.dive2 = getelementptr inbounds %"class.v8::IndirectHandleBase", ptr %coerce.dive1, i32 0, i32 0
  store ptr %wrap.coerce, ptr %coerce.dive2, align 8
  store ptr %this, ptr %this.addr, align 8
  store ptr %env, ptr %env.addr, align 8
  %this3 = load ptr, ptr %this.addr, align 8
  %0 = load ptr, ptr %env.addr, align 8
  call void @llvm.memcpy.p0.p0.i64(ptr align 8 %agg.tmp, ptr align 8 %wrap, i64 8, i1 false)
  %coerce.dive4 = getelementptr inbounds %"class.v8::Local", ptr %agg.tmp, i32 0, i32 0
  %coerce.dive5 = getelementptr inbounds %"class.v8::LocalBase", ptr %coerce.dive4, i32 0, i32 0
  %coerce.dive6 = getelementptr inbounds %"class.v8::IndirectHandleBase", ptr %coerce.dive5, i32 0, i32 0
  %1 = load ptr, ptr %coerce.dive6, align 8
  call void @_ZN4node10BaseObjectC2EPNS_11EnvironmentEN2v85LocalINS3_6ObjectEEE(ptr noundef nonnull align 8 dereferenceable(32) %this3, ptr noundef %0, ptr %1)
  store ptr getelementptr inbounds ({ [19 x ptr] }, ptr @_ZTVN4node6crypto8SignBaseE, i32 0, inrange i32 0, i32 2), ptr %this3, align 8
  %mdctx_ = getelementptr inbounds %"class.node::crypto::SignBase", ptr %this3, i32 0, i32 1
  call void @_ZNSt10unique_ptrI13evp_md_ctx_stN4node15FunctionDeleterIS0_XadL_Z15EVP_MD_CTX_freeEEEEEC2IS3_vEEv(ptr noundef nonnull align 8 dereferenceable(8) %mdctx_) #3
  ret void
}

; Function Attrs: nocallback nofree nounwind willreturn memory(argmem: readwrite)
declare void @llvm.memcpy.p0.p0.i64(ptr noalias nocapture writeonly, ptr noalias nocapture readonly, i64, i1 immarg) #7

; Function Attrs: mustprogress nounwind uwtable
define linkonce_odr dso_local void @_ZN4node10BaseObjectC2EPNS_11EnvironmentEN2v85LocalINS3_6ObjectEEE(ptr noundef nonnull align 8 dereferenceable(32) %this, ptr noundef %env, ptr %object.coerce) unnamed_addr #4 comdat align 2 {
entry:
  %object = alloca %"class.v8::Local", align 8
  %this.addr = alloca ptr, align 8
  %env.addr = alloca ptr, align 8
  %agg.tmp = alloca %"class.v8::Local", align 8
  %coerce.dive = getelementptr inbounds %"class.v8::Local", ptr %object, i32 0, i32 0
  %coerce.dive1 = getelementptr inbounds %"class.v8::LocalBase", ptr %coerce.dive, i32 0, i32 0
  %coerce.dive2 = getelementptr inbounds %"class.v8::IndirectHandleBase", ptr %coerce.dive1, i32 0, i32 0
  store ptr %object.coerce, ptr %coerce.dive2, align 8
  store ptr %this, ptr %this.addr, align 8
  store ptr %env, ptr %env.addr, align 8
  %this3 = load ptr, ptr %this.addr, align 8
  %0 = load ptr, ptr %env.addr, align 8
  %call = call noundef ptr @_ZNK4node11Environment15principal_realmEv(ptr noundef nonnull align 8 dereferenceable(2872) %0)
  call void @llvm.memcpy.p0.p0.i64(ptr align 8 %agg.tmp, ptr align 8 %object, i64 8, i1 false)
  %coerce.dive4 = getelementptr inbounds %"class.v8::Local", ptr %agg.tmp, i32 0, i32 0
  %coerce.dive5 = getelementptr inbounds %"class.v8::LocalBase", ptr %coerce.dive4, i32 0, i32 0
  %coerce.dive6 = getelementptr inbounds %"class.v8::IndirectHandleBase", ptr %coerce.dive5, i32 0, i32 0
  %1 = load ptr, ptr %coerce.dive6, align 8
  call void @_ZN4node10BaseObjectC2EPNS_5RealmEN2v85LocalINS3_6ObjectEEE(ptr noundef nonnull align 8 dereferenceable(32) %this3, ptr noundef %call, ptr %1)
  ret void
}

; Function Attrs: mustprogress nounwind uwtable
define linkonce_odr dso_local void @_ZNSt10unique_ptrI13evp_md_ctx_stN4node15FunctionDeleterIS0_XadL_Z15EVP_MD_CTX_freeEEEEEC2IS3_vEEv(ptr noundef nonnull align 8 dereferenceable(8) %this) unnamed_addr #4 comdat align 2 {
entry:
  %this.addr = alloca ptr, align 8
  store ptr %this, ptr %this.addr, align 8
  %this1 = load ptr, ptr %this.addr, align 8
  %_M_t = getelementptr inbounds %"class.std::unique_ptr", ptr %this1, i32 0, i32 0
  call void @llvm.memset.p0.i64(ptr align 8 %_M_t, i8 0, i64 8, i1 false)
  call void @_ZNSt15__uniq_ptr_dataI13evp_md_ctx_stN4node15FunctionDeleterIS0_XadL_Z15EVP_MD_CTX_freeEEEELb1ELb1EEC2Ev(ptr noundef nonnull align 8 dereferenceable(8) %_M_t) #3
  ret void
}

; Function Attrs: mustprogress nounwind uwtable
define dso_local void @_ZNK4node6crypto8SignBase10MemoryInfoEPNS_13MemoryTrackerE(ptr noundef nonnull align 8 dereferenceable(40) %this, ptr noundef %tracker) unnamed_addr #4 align 2 {
entry:
  %this.addr = alloca ptr, align 8
  %tracker.addr = alloca ptr, align 8
  store ptr %this, ptr %this.addr, align 8
  store ptr %tracker, ptr %tracker.addr, align 8
  %this1 = load ptr, ptr %this.addr, align 8
  %0 = load ptr, ptr %tracker.addr, align 8
  %mdctx_ = getelementptr inbounds %"class.node::crypto::SignBase", ptr %this1, i32 0, i32 1
  %call = call noundef zeroext i1 @_ZNKSt10unique_ptrI13evp_md_ctx_stN4node15FunctionDeleterIS0_XadL_Z15EVP_MD_CTX_freeEEEEEcvbEv(ptr noundef nonnull align 8 dereferenceable(8) %mdctx_) #3
  %cond = select i1 %call, i64 48, i64 0
  call void @_ZN4node13MemoryTracker18TrackFieldWithSizeEPKcmS2_(ptr noundef nonnull align 8 dereferenceable(152) %0, ptr noundef @.str.6, i64 noundef %cond, ptr noundef null)
  ret void
}

; Function Attrs: mustprogress nounwind uwtable
define linkonce_odr dso_local void @_ZN4node13MemoryTracker18TrackFieldWithSizeEPKcmS2_(ptr noundef nonnull align 8 dereferenceable(152) %this, ptr noundef %edge_name, i64 noundef %size, ptr noundef %node_name) #4 comdat align 2 {
entry:
  %this.addr = alloca ptr, align 8
  %edge_name.addr = alloca ptr, align 8
  %size.addr = alloca i64, align 8
  %node_name.addr = alloca ptr, align 8
  store ptr %this, ptr %this.addr, align 8
  store ptr %edge_name, ptr %edge_name.addr, align 8
  store i64 %size, ptr %size.addr, align 8
  store ptr %node_name, ptr %node_name.addr, align 8
  %this1 = load ptr, ptr %this.addr, align 8
  %0 = load i64, ptr %size.addr, align 8
  %cmp = icmp ugt i64 %0, 0
  br i1 %cmp, label %if.then, label %if.end

if.then:                                          ; preds = %entry
  %1 = load ptr, ptr %node_name.addr, align 8
  %2 = load ptr, ptr %edge_name.addr, align 8
  %call = call noundef ptr @_ZN4node11GetNodeNameEPKcS1_(ptr noundef %1, ptr noundef %2)
  %3 = load i64, ptr %size.addr, align 8
  %4 = load ptr, ptr %edge_name.addr, align 8
  %call2 = call noundef ptr @_ZN4node13MemoryTracker7AddNodeEPKcmS2_(ptr noundef nonnull align 8 dereferenceable(152) %this1, ptr noundef %call, i64 noundef %3, ptr noundef %4)
  br label %if.end

if.end:                                           ; preds = %if.then, %entry
  ret void
}

; Function Attrs: mustprogress nounwind uwtable
define dso_local void @_ZN4node6crypto4SignC2EPNS_11EnvironmentEN2v85LocalINS4_6ObjectEEE(ptr noundef nonnull align 8 dereferenceable(40) %this, ptr noundef %env, ptr %wrap.coerce) unnamed_addr #4 align 2 {
entry:
  %wrap = alloca %"class.v8::Local", align 8
  %this.addr = alloca ptr, align 8
  %env.addr = alloca ptr, align 8
  %agg.tmp = alloca %"class.v8::Local", align 8
  %coerce.dive = getelementptr inbounds %"class.v8::Local", ptr %wrap, i32 0, i32 0
  %coerce.dive1 = getelementptr inbounds %"class.v8::LocalBase", ptr %coerce.dive, i32 0, i32 0
  %coerce.dive2 = getelementptr inbounds %"class.v8::IndirectHandleBase", ptr %coerce.dive1, i32 0, i32 0
  store ptr %wrap.coerce, ptr %coerce.dive2, align 8
  store ptr %this, ptr %this.addr, align 8
  store ptr %env, ptr %env.addr, align 8
  %this3 = load ptr, ptr %this.addr, align 8
  %0 = load ptr, ptr %env.addr, align 8
  call void @llvm.memcpy.p0.p0.i64(ptr align 8 %agg.tmp, ptr align 8 %wrap, i64 8, i1 false)
  %coerce.dive4 = getelementptr inbounds %"class.v8::Local", ptr %agg.tmp, i32 0, i32 0
  %coerce.dive5 = getelementptr inbounds %"class.v8::LocalBase", ptr %coerce.dive4, i32 0, i32 0
  %coerce.dive6 = getelementptr inbounds %"class.v8::IndirectHandleBase", ptr %coerce.dive5, i32 0, i32 0
  %1 = load ptr, ptr %coerce.dive6, align 8
  call void @_ZN4node6crypto8SignBaseC2EPNS_11EnvironmentEN2v85LocalINS4_6ObjectEEE(ptr noundef nonnull align 8 dereferenceable(40) %this3, ptr noundef %0, ptr %1)
  store ptr getelementptr inbounds ({ [19 x ptr] }, ptr @_ZTVN4node6crypto4SignE, i32 0, inrange i32 0, i32 2), ptr %this3, align 8
  call void @_ZN4node10BaseObject8MakeWeakEv(ptr noundef nonnull align 8 dereferenceable(32) %this3)
  ret void
}

declare void @_ZN4node10BaseObject8MakeWeakEv(ptr noundef nonnull align 8 dereferenceable(32)) #1

; Function Attrs: mustprogress nounwind uwtable
define dso_local void @_ZN4node6crypto4Sign10InitializeEPNS_11EnvironmentEN2v85LocalINS4_6ObjectEEE(ptr noundef %env, ptr %target.coerce) #4 align 2 {
entry:
  %this.addr.i556 = alloca ptr, align 8
  %other.addr.i557 = alloca ptr, align 8
  %this.addr.i553 = alloca ptr, align 8
  %other.addr.i554 = alloca ptr, align 8
  %this.addr.i550 = alloca ptr, align 8
  %other.addr.i551 = alloca ptr, align 8
  %this.addr.i547 = alloca ptr, align 8
  %other.addr.i548 = alloca ptr, align 8
  %this.addr.i544 = alloca ptr, align 8
  %other.addr.i545 = alloca ptr, align 8
  %this.addr.i541 = alloca ptr, align 8
  %other.addr.i542 = alloca ptr, align 8
  %this.addr.i538 = alloca ptr, align 8
  %other.addr.i539 = alloca ptr, align 8
  %this.addr.i535 = alloca ptr, align 8
  %other.addr.i536 = alloca ptr, align 8
  %this.addr.i532 = alloca ptr, align 8
  %other.addr.i533 = alloca ptr, align 8
  %this.addr.i530 = alloca ptr, align 8
  %other.addr.i = alloca ptr, align 8
  %slot.addr.i529 = alloca ptr, align 8
  %this.addr.i.i525 = alloca ptr, align 8
  %this.addr.i526 = alloca ptr, align 8
  %this.addr.i522 = alloca ptr, align 8
  %this.addr.i519 = alloca ptr, align 8
  %this.addr.i516 = alloca ptr, align 8
  %this.addr.i513 = alloca ptr, align 8
  %this.addr.i511 = alloca ptr, align 8
  %slot.addr.i510 = alloca ptr, align 8
  %slot.addr.i509 = alloca ptr, align 8
  %slot.addr.i508 = alloca ptr, align 8
  %slot.addr.i507 = alloca ptr, align 8
  %slot.addr.i506 = alloca ptr, align 8
  %slot.addr.i505 = alloca ptr, align 8
  %slot.addr.i504 = alloca ptr, align 8
  %slot.addr.i503 = alloca ptr, align 8
  %slot.addr.i502 = alloca ptr, align 8
  %slot.addr.i501 = alloca ptr, align 8
  %this.addr.i.i496 = alloca ptr, align 8
  %this.addr.i497 = alloca ptr, align 8
  %this.addr.i.i491 = alloca ptr, align 8
  %this.addr.i492 = alloca ptr, align 8
  %this.addr.i.i486 = alloca ptr, align 8
  %this.addr.i487 = alloca ptr, align 8
  %this.addr.i.i481 = alloca ptr, align 8
  %this.addr.i482 = alloca ptr, align 8
  %this.addr.i.i476 = alloca ptr, align 8
  %this.addr.i477 = alloca ptr, align 8
  %this.addr.i.i471 = alloca ptr, align 8
  %this.addr.i472 = alloca ptr, align 8
  %this.addr.i.i466 = alloca ptr, align 8
  %this.addr.i467 = alloca ptr, align 8
  %this.addr.i.i461 = alloca ptr, align 8
  %this.addr.i462 = alloca ptr, align 8
  %this.addr.i.i456 = alloca ptr, align 8
  %this.addr.i457 = alloca ptr, align 8
  %this.addr.i.i452 = alloca ptr, align 8
  %this.addr.i453 = alloca ptr, align 8
  %slot.addr.i = alloca ptr, align 8
  %this.addr.i.i448 = alloca ptr, align 8
  %this.addr.i449 = alloca ptr, align 8
  %this.addr.i.i443 = alloca ptr, align 8
  %this.addr.i444 = alloca ptr, align 8
  %this.addr.i.i438 = alloca ptr, align 8
  %this.addr.i439 = alloca ptr, align 8
  %this.addr.i.i433 = alloca ptr, align 8
  %this.addr.i434 = alloca ptr, align 8
  %this.addr.i.i428 = alloca ptr, align 8
  %this.addr.i429 = alloca ptr, align 8
  %this.addr.i.i = alloca ptr, align 8
  %this.addr.i426 = alloca ptr, align 8
  %this.addr.i424 = alloca ptr, align 8
  %this.addr.i422 = alloca ptr, align 8
  %this.addr.i415 = alloca ptr, align 8
  %this.addr.i408 = alloca ptr, align 8
  %this.addr.i401 = alloca ptr, align 8
  %this.addr.i394 = alloca ptr, align 8
  %this.addr.i389 = alloca ptr, align 8
  %that.i386 = alloca %"class.v8::Local.294", align 8
  %this.addr.i387 = alloca ptr, align 8
  %that.i383 = alloca %"class.v8::Local.294", align 8
  %this.addr.i384 = alloca ptr, align 8
  %that.i380 = alloca %"class.v8::Local.294", align 8
  %this.addr.i381 = alloca ptr, align 8
  %that.i377 = alloca %"class.v8::Local.294", align 8
  %this.addr.i378 = alloca ptr, align 8
  %that.i374 = alloca %"class.v8::Local.294", align 8
  %this.addr.i375 = alloca ptr, align 8
  %that.i371 = alloca %"class.v8::Local.292", align 8
  %this.addr.i372 = alloca ptr, align 8
  %that.i368 = alloca %"class.v8::Local.292", align 8
  %this.addr.i369 = alloca ptr, align 8
  %that.i365 = alloca %"class.v8::Local.292", align 8
  %this.addr.i366 = alloca ptr, align 8
  %that.i362 = alloca %"class.v8::Local.292", align 8
  %this.addr.i363 = alloca ptr, align 8
  %that.i = alloca %"class.v8::Local.292", align 8
  %this.addr.i361 = alloca ptr, align 8
  %retval.i354 = alloca %"class.v8::Local.292", align 8
  %this.addr.i355 = alloca ptr, align 8
  %retval.i347 = alloca %"class.v8::Local.292", align 8
  %this.addr.i348 = alloca ptr, align 8
  %retval.i340 = alloca %"class.v8::Local.292", align 8
  %this.addr.i341 = alloca ptr, align 8
  %retval.i333 = alloca %"class.v8::Local.292", align 8
  %this.addr.i334 = alloca ptr, align 8
  %retval.i = alloca %"class.v8::Local.292", align 8
  %this.addr.i330 = alloca ptr, align 8
  %this.addr.i327 = alloca ptr, align 8
  %this.addr.i324 = alloca ptr, align 8
  %this.addr.i321 = alloca ptr, align 8
  %this.addr.i318 = alloca ptr, align 8
  %this.addr.i315 = alloca ptr, align 8
  %this.addr.i312 = alloca ptr, align 8
  %this.addr.i309 = alloca ptr, align 8
  %this.addr.i306 = alloca ptr, align 8
  %this.addr.i303 = alloca ptr, align 8
  %this.addr.i300 = alloca ptr, align 8
  %this.addr.i297 = alloca ptr, align 8
  %this.addr.i295 = alloca ptr, align 8
  %this.addr.i = alloca ptr, align 8
  %target = alloca %"class.v8::Local", align 8
  %env.addr = alloca ptr, align 8
  %isolate = alloca ptr, align 8
  %t = alloca %"class.v8::Local.284", align 8
  %agg.tmp = alloca %"class.v8::Local.286", align 8
  %ref.tmp = alloca %"class.v8::Local.288", align 8
  %agg.tmp16 = alloca %"class.v8::Local.284", align 8
  %agg.tmp17 = alloca %"class.std::basic_string_view", align 8
  %agg.tmp21 = alloca %"class.v8::Local.284", align 8
  %agg.tmp22 = alloca %"class.std::basic_string_view", align 8
  %agg.tmp26 = alloca %"class.v8::Local.284", align 8
  %agg.tmp27 = alloca %"class.std::basic_string_view", align 8
  %agg.tmp31 = alloca %"class.v8::Local.290", align 8
  %agg.tmp36 = alloca %"class.v8::Local", align 8
  %agg.tmp37 = alloca %"class.v8::Local.284", align 8
  %agg.tmp47 = alloca %"class.v8::Local", align 8
  %kSignJobModeSign = alloca i32, align 4
  %kSignJobModeVerify = alloca i32, align 4
  %isolate51 = alloca ptr, align 8
  %context = alloca %"class.v8::Local.290", align 8
  %constant_name = alloca %"class.v8::Local.292", align 8
  %ref.tmp58 = alloca %"class.v8::MaybeLocal", align 8
  %constant_value = alloca %"class.v8::Local.294", align 8
  %constant_attributes = alloca i32, align 4
  %ref.tmp72 = alloca %"class.v8::Maybe", align 1
  %agg.tmp74 = alloca %"class.v8::Local.290", align 8
  %agg.tmp75 = alloca %"class.v8::Local.296", align 8
  %agg.tmp76 = alloca %"class.v8::Local.292", align 8
  %agg.tmp80 = alloca %"class.v8::Local.298", align 8
  %agg.tmp81 = alloca %"class.v8::Local.294", align 8
  %isolate96 = alloca ptr, align 8
  %context99 = alloca %"class.v8::Local.290", align 8
  %constant_name104 = alloca %"class.v8::Local.292", align 8
  %ref.tmp105 = alloca %"class.v8::MaybeLocal", align 8
  %constant_value115 = alloca %"class.v8::Local.294", align 8
  %constant_attributes120 = alloca i32, align 4
  %ref.tmp121 = alloca %"class.v8::Maybe", align 1
  %agg.tmp123 = alloca %"class.v8::Local.290", align 8
  %agg.tmp124 = alloca %"class.v8::Local.296", align 8
  %agg.tmp125 = alloca %"class.v8::Local.292", align 8
  %agg.tmp129 = alloca %"class.v8::Local.298", align 8
  %agg.tmp130 = alloca %"class.v8::Local.294", align 8
  %isolate146 = alloca ptr, align 8
  %context149 = alloca %"class.v8::Local.290", align 8
  %constant_name154 = alloca %"class.v8::Local.292", align 8
  %ref.tmp155 = alloca %"class.v8::MaybeLocal", align 8
  %constant_value165 = alloca %"class.v8::Local.294", align 8
  %constant_attributes170 = alloca i32, align 4
  %ref.tmp171 = alloca %"class.v8::Maybe", align 1
  %agg.tmp173 = alloca %"class.v8::Local.290", align 8
  %agg.tmp174 = alloca %"class.v8::Local.296", align 8
  %agg.tmp175 = alloca %"class.v8::Local.292", align 8
  %agg.tmp179 = alloca %"class.v8::Local.298", align 8
  %agg.tmp180 = alloca %"class.v8::Local.294", align 8
  %isolate196 = alloca ptr, align 8
  %context199 = alloca %"class.v8::Local.290", align 8
  %constant_name204 = alloca %"class.v8::Local.292", align 8
  %ref.tmp205 = alloca %"class.v8::MaybeLocal", align 8
  %constant_value215 = alloca %"class.v8::Local.294", align 8
  %constant_attributes220 = alloca i32, align 4
  %ref.tmp221 = alloca %"class.v8::Maybe", align 1
  %agg.tmp223 = alloca %"class.v8::Local.290", align 8
  %agg.tmp224 = alloca %"class.v8::Local.296", align 8
  %agg.tmp225 = alloca %"class.v8::Local.292", align 8
  %agg.tmp229 = alloca %"class.v8::Local.298", align 8
  %agg.tmp230 = alloca %"class.v8::Local.294", align 8
  %isolate246 = alloca ptr, align 8
  %context249 = alloca %"class.v8::Local.290", align 8
  %constant_name254 = alloca %"class.v8::Local.292", align 8
  %ref.tmp255 = alloca %"class.v8::MaybeLocal", align 8
  %constant_value265 = alloca %"class.v8::Local.294", align 8
  %constant_attributes270 = alloca i32, align 4
  %ref.tmp271 = alloca %"class.v8::Maybe", align 1
  %agg.tmp273 = alloca %"class.v8::Local.290", align 8
  %agg.tmp274 = alloca %"class.v8::Local.296", align 8
  %agg.tmp275 = alloca %"class.v8::Local.292", align 8
  %agg.tmp279 = alloca %"class.v8::Local.298", align 8
  %agg.tmp280 = alloca %"class.v8::Local.294", align 8
  %coerce.dive = getelementptr inbounds %"class.v8::Local", ptr %target, i32 0, i32 0
  %coerce.dive1 = getelementptr inbounds %"class.v8::LocalBase", ptr %coerce.dive, i32 0, i32 0
  %coerce.dive2 = getelementptr inbounds %"class.v8::IndirectHandleBase", ptr %coerce.dive1, i32 0, i32 0
  store ptr %target.coerce, ptr %coerce.dive2, align 8
  store ptr %env, ptr %env.addr, align 8
  %0 = load ptr, ptr %env.addr, align 8
  %call = call noundef ptr @_ZNK4node11Environment7isolateEv(ptr noundef nonnull align 8 dereferenceable(2872) %0)
  store ptr %call, ptr %isolate, align 8
  %1 = load ptr, ptr %isolate, align 8
  call void @llvm.memset.p0.i64(ptr align 8 %agg.tmp, i8 0, i64 8, i1 false)
  store ptr %agg.tmp, ptr %this.addr.i, align 8
  %this1.i = load ptr, ptr %this.addr.i, align 8
  store ptr %this1.i, ptr %this.addr.i422, align 8
  %this1.i423 = load ptr, ptr %this.addr.i422, align 8
  store ptr %this1.i423, ptr %this.addr.i424, align 8
  %this1.i425 = load ptr, ptr %this.addr.i424, align 8
  store ptr null, ptr %this1.i425, align 8
  %coerce.dive3 = getelementptr inbounds %"class.v8::Local.286", ptr %agg.tmp, i32 0, i32 0
  %coerce.dive4 = getelementptr inbounds %"class.v8::LocalBase.287", ptr %coerce.dive3, i32 0, i32 0
  %coerce.dive5 = getelementptr inbounds %"class.v8::IndirectHandleBase", ptr %coerce.dive4, i32 0, i32 0
  %2 = load ptr, ptr %coerce.dive5, align 8
  %call6 = call ptr @_ZN4node19NewFunctionTemplateEPN2v87IsolateEPFvRKNS0_20FunctionCallbackInfoINS0_5ValueEEEENS0_5LocalINS0_9SignatureEEENS0_19ConstructorBehaviorENS0_14SideEffectTypeEPKNS0_9CFunctionE(ptr noundef %1, ptr noundef @_ZN4node6crypto4Sign3NewERKN2v820FunctionCallbackInfoINS2_5ValueEEE, ptr %2, i32 noundef 1, i32 noundef 0, ptr noundef null)
  %coerce.dive7 = getelementptr inbounds %"class.v8::Local.284", ptr %t, i32 0, i32 0
  %coerce.dive8 = getelementptr inbounds %"class.v8::LocalBase.285", ptr %coerce.dive7, i32 0, i32 0
  %coerce.dive9 = getelementptr inbounds %"class.v8::IndirectHandleBase", ptr %coerce.dive8, i32 0, i32 0
  store ptr %call6, ptr %coerce.dive9, align 8
  store ptr %t, ptr %this.addr.i295, align 8
  %this1.i296 = load ptr, ptr %this.addr.i295, align 8
  store ptr %this1.i296, ptr %this.addr.i449, align 8
  %this1.i450 = load ptr, ptr %this.addr.i449, align 8
  store ptr %this1.i450, ptr %this.addr.i.i448, align 8
  %this1.i.i451 = load ptr, ptr %this.addr.i.i448, align 8
  %3 = load ptr, ptr %this1.i.i451, align 8
  store ptr %3, ptr %slot.addr.i, align 8
  %4 = load ptr, ptr %slot.addr.i, align 8
  %call11 = call ptr @_ZN2v816FunctionTemplate16InstanceTemplateEv(ptr noundef nonnull align 1 dereferenceable(1) %4)
  %coerce.dive12 = getelementptr inbounds %"class.v8::Local.288", ptr %ref.tmp, i32 0, i32 0
  %coerce.dive13 = getelementptr inbounds %"class.v8::LocalBase.289", ptr %coerce.dive12, i32 0, i32 0
  %coerce.dive14 = getelementptr inbounds %"class.v8::IndirectHandleBase", ptr %coerce.dive13, i32 0, i32 0
  store ptr %call11, ptr %coerce.dive14, align 8
  store ptr %ref.tmp, ptr %this.addr.i297, align 8
  %this1.i298 = load ptr, ptr %this.addr.i297, align 8
  store ptr %this1.i298, ptr %this.addr.i526, align 8
  %this1.i527 = load ptr, ptr %this.addr.i526, align 8
  store ptr %this1.i527, ptr %this.addr.i.i525, align 8
  %this1.i.i528 = load ptr, ptr %this.addr.i.i525, align 8
  %5 = load ptr, ptr %this1.i.i528, align 8
  store ptr %5, ptr %slot.addr.i529, align 8
  %6 = load ptr, ptr %slot.addr.i529, align 8
  call void @_ZN2v814ObjectTemplate21SetInternalFieldCountEi(ptr noundef nonnull align 1 dereferenceable(1) %6, i32 noundef 2)
  %7 = load ptr, ptr %isolate, align 8
  call void @llvm.memcpy.p0.p0.i64(ptr align 8 %agg.tmp16, ptr align 8 %t, i64 8, i1 false)
  call void @_ZNSt17basic_string_viewIcSt11char_traitsIcEEC2EPKc(ptr noundef nonnull align 8 dereferenceable(16) %agg.tmp17, ptr noundef @.str.7) #3
  %coerce.dive18 = getelementptr inbounds %"class.v8::Local.284", ptr %agg.tmp16, i32 0, i32 0
  %coerce.dive19 = getelementptr inbounds %"class.v8::LocalBase.285", ptr %coerce.dive18, i32 0, i32 0
  %coerce.dive20 = getelementptr inbounds %"class.v8::IndirectHandleBase", ptr %coerce.dive19, i32 0, i32 0
  %8 = load ptr, ptr %coerce.dive20, align 8
  %9 = getelementptr inbounds { i64, ptr }, ptr %agg.tmp17, i32 0, i32 0
  %10 = load i64, ptr %9, align 8
  %11 = getelementptr inbounds { i64, ptr }, ptr %agg.tmp17, i32 0, i32 1
  %12 = load ptr, ptr %11, align 8
  call void @_ZN4node14SetProtoMethodEPN2v87IsolateENS0_5LocalINS0_16FunctionTemplateEEESt17basic_string_viewIcSt11char_traitsIcEEPFvRKNS0_20FunctionCallbackInfoINS0_5ValueEEEE(ptr noundef %7, ptr %8, i64 %10, ptr %12, ptr noundef @_ZN4node6crypto4Sign8SignInitERKN2v820FunctionCallbackInfoINS2_5ValueEEE)
  %13 = load ptr, ptr %isolate, align 8
  call void @llvm.memcpy.p0.p0.i64(ptr align 8 %agg.tmp21, ptr align 8 %t, i64 8, i1 false)
  call void @_ZNSt17basic_string_viewIcSt11char_traitsIcEEC2EPKc(ptr noundef nonnull align 8 dereferenceable(16) %agg.tmp22, ptr noundef @.str.8) #3
  %coerce.dive23 = getelementptr inbounds %"class.v8::Local.284", ptr %agg.tmp21, i32 0, i32 0
  %coerce.dive24 = getelementptr inbounds %"class.v8::LocalBase.285", ptr %coerce.dive23, i32 0, i32 0
  %coerce.dive25 = getelementptr inbounds %"class.v8::IndirectHandleBase", ptr %coerce.dive24, i32 0, i32 0
  %14 = load ptr, ptr %coerce.dive25, align 8
  %15 = getelementptr inbounds { i64, ptr }, ptr %agg.tmp22, i32 0, i32 0
  %16 = load i64, ptr %15, align 8
  %17 = getelementptr inbounds { i64, ptr }, ptr %agg.tmp22, i32 0, i32 1
  %18 = load ptr, ptr %17, align 8
  call void @_ZN4node14SetProtoMethodEPN2v87IsolateENS0_5LocalINS0_16FunctionTemplateEEESt17basic_string_viewIcSt11char_traitsIcEEPFvRKNS0_20FunctionCallbackInfoINS0_5ValueEEEE(ptr noundef %13, ptr %14, i64 %16, ptr %18, ptr noundef @_ZN4node6crypto4Sign10SignUpdateERKN2v820FunctionCallbackInfoINS2_5ValueEEE)
  %19 = load ptr, ptr %isolate, align 8
  call void @llvm.memcpy.p0.p0.i64(ptr align 8 %agg.tmp26, ptr align 8 %t, i64 8, i1 false)
  call void @_ZNSt17basic_string_viewIcSt11char_traitsIcEEC2EPKc(ptr noundef nonnull align 8 dereferenceable(16) %agg.tmp27, ptr noundef @.str.9) #3
  %coerce.dive28 = getelementptr inbounds %"class.v8::Local.284", ptr %agg.tmp26, i32 0, i32 0
  %coerce.dive29 = getelementptr inbounds %"class.v8::LocalBase.285", ptr %coerce.dive28, i32 0, i32 0
  %coerce.dive30 = getelementptr inbounds %"class.v8::IndirectHandleBase", ptr %coerce.dive29, i32 0, i32 0
  %20 = load ptr, ptr %coerce.dive30, align 8
  %21 = getelementptr inbounds { i64, ptr }, ptr %agg.tmp27, i32 0, i32 0
  %22 = load i64, ptr %21, align 8
  %23 = getelementptr inbounds { i64, ptr }, ptr %agg.tmp27, i32 0, i32 1
  %24 = load ptr, ptr %23, align 8
  call void @_ZN4node14SetProtoMethodEPN2v87IsolateENS0_5LocalINS0_16FunctionTemplateEEESt17basic_string_viewIcSt11char_traitsIcEEPFvRKNS0_20FunctionCallbackInfoINS0_5ValueEEEE(ptr noundef %19, ptr %20, i64 %22, ptr %24, ptr noundef @_ZN4node6crypto4Sign9SignFinalERKN2v820FunctionCallbackInfoINS2_5ValueEEE)
  %25 = load ptr, ptr %env.addr, align 8
  %call32 = call ptr @_ZNK4node11Environment7contextEv(ptr noundef nonnull align 8 dereferenceable(2872) %25)
  %coerce.dive33 = getelementptr inbounds %"class.v8::Local.290", ptr %agg.tmp31, i32 0, i32 0
  %coerce.dive34 = getelementptr inbounds %"class.v8::LocalBase.291", ptr %coerce.dive33, i32 0, i32 0
  %coerce.dive35 = getelementptr inbounds %"class.v8::IndirectHandleBase", ptr %coerce.dive34, i32 0, i32 0
  store ptr %call32, ptr %coerce.dive35, align 8
  call void @llvm.memcpy.p0.p0.i64(ptr align 8 %agg.tmp36, ptr align 8 %target, i64 8, i1 false)
  call void @llvm.memcpy.p0.p0.i64(ptr align 8 %agg.tmp37, ptr align 8 %t, i64 8, i1 false)
  %coerce.dive38 = getelementptr inbounds %"class.v8::Local.290", ptr %agg.tmp31, i32 0, i32 0
  %coerce.dive39 = getelementptr inbounds %"class.v8::LocalBase.291", ptr %coerce.dive38, i32 0, i32 0
  %coerce.dive40 = getelementptr inbounds %"class.v8::IndirectHandleBase", ptr %coerce.dive39, i32 0, i32 0
  %26 = load ptr, ptr %coerce.dive40, align 8
  %coerce.dive41 = getelementptr inbounds %"class.v8::Local", ptr %agg.tmp36, i32 0, i32 0
  %coerce.dive42 = getelementptr inbounds %"class.v8::LocalBase", ptr %coerce.dive41, i32 0, i32 0
  %coerce.dive43 = getelementptr inbounds %"class.v8::IndirectHandleBase", ptr %coerce.dive42, i32 0, i32 0
  %27 = load ptr, ptr %coerce.dive43, align 8
  %coerce.dive44 = getelementptr inbounds %"class.v8::Local.284", ptr %agg.tmp37, i32 0, i32 0
  %coerce.dive45 = getelementptr inbounds %"class.v8::LocalBase.285", ptr %coerce.dive44, i32 0, i32 0
  %coerce.dive46 = getelementptr inbounds %"class.v8::IndirectHandleBase", ptr %coerce.dive45, i32 0, i32 0
  %28 = load ptr, ptr %coerce.dive46, align 8
  call void @_ZN4node22SetConstructorFunctionEN2v85LocalINS0_7ContextEEENS1_INS0_6ObjectEEEPKcNS1_INS0_16FunctionTemplateEEENS_26SetConstructorFunctionFlagE(ptr %26, ptr %27, ptr noundef @.str.10, ptr %28, i32 noundef 1)
  %29 = load ptr, ptr %env.addr, align 8
  call void @llvm.memcpy.p0.p0.i64(ptr align 8 %agg.tmp47, ptr align 8 %target, i64 8, i1 false)
  %coerce.dive48 = getelementptr inbounds %"class.v8::Local", ptr %agg.tmp47, i32 0, i32 0
  %coerce.dive49 = getelementptr inbounds %"class.v8::LocalBase", ptr %coerce.dive48, i32 0, i32 0
  %coerce.dive50 = getelementptr inbounds %"class.v8::IndirectHandleBase", ptr %coerce.dive49, i32 0, i32 0
  %30 = load ptr, ptr %coerce.dive50, align 8
  call void @_ZN4node6crypto13DeriveBitsJobINS0_10SignTraitsEE10InitializeEPNS_11EnvironmentEN2v85LocalINS6_6ObjectEEE(ptr noundef %29, ptr %30)
  store i32 0, ptr %kSignJobModeSign, align 4
  store i32 1, ptr %kSignJobModeVerify, align 4
  br label %do.body

do.body:                                          ; preds = %entry
  store ptr %target, ptr %this.addr.i327, align 8
  %this1.i328 = load ptr, ptr %this.addr.i327, align 8
  store ptr %this1.i328, ptr %this.addr.i453, align 8
  %this1.i454 = load ptr, ptr %this.addr.i453, align 8
  store ptr %this1.i454, ptr %this.addr.i.i452, align 8
  %this1.i.i455 = load ptr, ptr %this.addr.i.i452, align 8
  %31 = load ptr, ptr %this1.i.i455, align 8
  store ptr %31, ptr %slot.addr.i510, align 8
  %32 = load ptr, ptr %slot.addr.i510, align 8
  %call53 = call noundef ptr @_ZN2v86Object10GetIsolateEv(ptr noundef nonnull align 1 dereferenceable(1) %32)
  store ptr %call53, ptr %isolate51, align 8
  %33 = load ptr, ptr %isolate51, align 8
  %call54 = call ptr @_ZN2v87Isolate17GetCurrentContextEv(ptr noundef nonnull align 1 dereferenceable(1) %33)
  %coerce.dive55 = getelementptr inbounds %"class.v8::Local.290", ptr %context, i32 0, i32 0
  %coerce.dive56 = getelementptr inbounds %"class.v8::LocalBase.291", ptr %coerce.dive55, i32 0, i32 0
  %coerce.dive57 = getelementptr inbounds %"class.v8::IndirectHandleBase", ptr %coerce.dive56, i32 0, i32 0
  store ptr %call54, ptr %coerce.dive57, align 8
  %34 = load ptr, ptr %isolate51, align 8
  %call59 = call ptr @_ZN2v86String11NewFromUtf8EPNS_7IsolateEPKcNS_13NewStringTypeEi(ptr noundef %34, ptr noundef @.str.11, i32 noundef 1, i32 noundef -1)
  %coerce.dive60 = getelementptr inbounds %"class.v8::MaybeLocal", ptr %ref.tmp58, i32 0, i32 0
  %coerce.dive61 = getelementptr inbounds %"class.v8::Local.292", ptr %coerce.dive60, i32 0, i32 0
  %coerce.dive62 = getelementptr inbounds %"class.v8::LocalBase.293", ptr %coerce.dive61, i32 0, i32 0
  %coerce.dive63 = getelementptr inbounds %"class.v8::IndirectHandleBase", ptr %coerce.dive62, i32 0, i32 0
  store ptr %call59, ptr %coerce.dive63, align 8
  store ptr %ref.tmp58, ptr %this.addr.i355, align 8
  %this1.i356 = load ptr, ptr %this.addr.i355, align 8
  store ptr %this1.i356, ptr %this.addr.i426, align 8
  %this1.i427 = load ptr, ptr %this.addr.i426, align 8
  store ptr %this1.i427, ptr %this.addr.i.i, align 8
  %this1.i.i = load ptr, ptr %this.addr.i.i, align 8
  %35 = load ptr, ptr %this1.i.i, align 8
  %cmp.i.i = icmp eq ptr %35, null
  br i1 %cmp.i.i, label %if.then.i359, label %_ZN2v810MaybeLocalINS_6StringEE14ToLocalCheckedEv.exit360

if.then.i359:                                     ; preds = %do.body
  call void @_ZN2v812api_internal12ToLocalEmptyEv() #3
  br label %_ZN2v810MaybeLocalINS_6StringEE14ToLocalCheckedEv.exit360

_ZN2v810MaybeLocalINS_6StringEE14ToLocalCheckedEv.exit360: ; preds = %if.then.i359, %do.body
  call void @llvm.memcpy.p0.p0.i64(ptr align 8 %retval.i354, ptr align 8 %this1.i356, i64 8, i1 false)
  %36 = load ptr, ptr %retval.i354, align 8
  %coerce.dive65 = getelementptr inbounds %"class.v8::Local.292", ptr %constant_name, i32 0, i32 0
  %coerce.dive66 = getelementptr inbounds %"class.v8::LocalBase.293", ptr %coerce.dive65, i32 0, i32 0
  %coerce.dive67 = getelementptr inbounds %"class.v8::IndirectHandleBase", ptr %coerce.dive66, i32 0, i32 0
  store ptr %36, ptr %coerce.dive67, align 8
  %37 = load ptr, ptr %isolate51, align 8
  %call68 = call ptr @_ZN2v86Number3NewEPNS_7IsolateEd(ptr noundef %37, double noundef 0.000000e+00)
  %coerce.dive69 = getelementptr inbounds %"class.v8::Local.294", ptr %constant_value, i32 0, i32 0
  %coerce.dive70 = getelementptr inbounds %"class.v8::LocalBase.295", ptr %coerce.dive69, i32 0, i32 0
  %coerce.dive71 = getelementptr inbounds %"class.v8::IndirectHandleBase", ptr %coerce.dive70, i32 0, i32 0
  store ptr %call68, ptr %coerce.dive71, align 8
  store i32 5, ptr %constant_attributes, align 4
  store ptr %target, ptr %this.addr.i324, align 8
  %this1.i325 = load ptr, ptr %this.addr.i324, align 8
  store ptr %this1.i325, ptr %this.addr.i457, align 8
  %this1.i458 = load ptr, ptr %this.addr.i457, align 8
  store ptr %this1.i458, ptr %this.addr.i.i456, align 8
  %this1.i.i459 = load ptr, ptr %this.addr.i.i456, align 8
  %38 = load ptr, ptr %this1.i.i459, align 8
  store ptr %38, ptr %slot.addr.i509, align 8
  %39 = load ptr, ptr %slot.addr.i509, align 8
  call void @llvm.memcpy.p0.p0.i64(ptr align 8 %agg.tmp74, ptr align 8 %context, i64 8, i1 false)
  call void @llvm.memcpy.p0.p0.i64(ptr align 8 %agg.tmp76, ptr align 8 %constant_name, i64 8, i1 false)
  %coerce.dive77 = getelementptr inbounds %"class.v8::Local.292", ptr %agg.tmp76, i32 0, i32 0
  %coerce.dive78 = getelementptr inbounds %"class.v8::LocalBase.293", ptr %coerce.dive77, i32 0, i32 0
  %coerce.dive79 = getelementptr inbounds %"class.v8::IndirectHandleBase", ptr %coerce.dive78, i32 0, i32 0
  %40 = load ptr, ptr %coerce.dive79, align 8
  store ptr %40, ptr %that.i, align 8
  store ptr %agg.tmp75, ptr %this.addr.i361, align 8
  %this3.i = load ptr, ptr %this.addr.i361, align 8
  store ptr %this3.i, ptr %this.addr.i541, align 8
  store ptr %that.i, ptr %other.addr.i542, align 8
  %this1.i543 = load ptr, ptr %this.addr.i541, align 8
  %41 = load ptr, ptr %other.addr.i542, align 8
  call void @llvm.memcpy.p0.p0.i64(ptr align 8 %this1.i543, ptr align 8 %41, i64 8, i1 false)
  call void @llvm.memcpy.p0.p0.i64(ptr align 8 %agg.tmp81, ptr align 8 %constant_value, i64 8, i1 false)
  %coerce.dive82 = getelementptr inbounds %"class.v8::Local.294", ptr %agg.tmp81, i32 0, i32 0
  %coerce.dive83 = getelementptr inbounds %"class.v8::LocalBase.295", ptr %coerce.dive82, i32 0, i32 0
  %coerce.dive84 = getelementptr inbounds %"class.v8::IndirectHandleBase", ptr %coerce.dive83, i32 0, i32 0
  %42 = load ptr, ptr %coerce.dive84, align 8
  store ptr %42, ptr %that.i374, align 8
  store ptr %agg.tmp80, ptr %this.addr.i375, align 8
  %this3.i376 = load ptr, ptr %this.addr.i375, align 8
  store ptr %this3.i376, ptr %this.addr.i556, align 8
  store ptr %that.i374, ptr %other.addr.i557, align 8
  %this1.i558 = load ptr, ptr %this.addr.i556, align 8
  %43 = load ptr, ptr %other.addr.i557, align 8
  call void @llvm.memcpy.p0.p0.i64(ptr align 8 %this1.i558, ptr align 8 %43, i64 8, i1 false)
  %44 = load i32, ptr %constant_attributes, align 4
  %coerce.dive85 = getelementptr inbounds %"class.v8::Local.290", ptr %agg.tmp74, i32 0, i32 0
  %coerce.dive86 = getelementptr inbounds %"class.v8::LocalBase.291", ptr %coerce.dive85, i32 0, i32 0
  %coerce.dive87 = getelementptr inbounds %"class.v8::IndirectHandleBase", ptr %coerce.dive86, i32 0, i32 0
  %45 = load ptr, ptr %coerce.dive87, align 8
  %coerce.dive88 = getelementptr inbounds %"class.v8::Local.296", ptr %agg.tmp75, i32 0, i32 0
  %coerce.dive89 = getelementptr inbounds %"class.v8::LocalBase.297", ptr %coerce.dive88, i32 0, i32 0
  %coerce.dive90 = getelementptr inbounds %"class.v8::IndirectHandleBase", ptr %coerce.dive89, i32 0, i32 0
  %46 = load ptr, ptr %coerce.dive90, align 8
  %coerce.dive91 = getelementptr inbounds %"class.v8::Local.298", ptr %agg.tmp80, i32 0, i32 0
  %coerce.dive92 = getelementptr inbounds %"class.v8::LocalBase.299", ptr %coerce.dive91, i32 0, i32 0
  %coerce.dive93 = getelementptr inbounds %"class.v8::IndirectHandleBase", ptr %coerce.dive92, i32 0, i32 0
  %47 = load ptr, ptr %coerce.dive93, align 8
  %call94 = call i16 @_ZN2v86Object17DefineOwnPropertyENS_5LocalINS_7ContextEEENS1_INS_4NameEEENS1_INS_5ValueEEENS_17PropertyAttributeE(ptr noundef nonnull align 1 dereferenceable(1) %39, ptr %45, ptr %46, ptr %47, i32 noundef %44)
  store i16 %call94, ptr %ref.tmp72, align 1
  store ptr %ref.tmp72, ptr %this.addr.i415, align 8
  %this1.i416 = load ptr, ptr %this.addr.i415, align 8
  store ptr %this1.i416, ptr %this.addr.i511, align 8
  %this1.i512 = load ptr, ptr %this.addr.i511, align 8
  %48 = load i8, ptr %this1.i512, align 1
  %tobool.i = trunc i8 %48 to i1
  %lnot3.i419 = xor i1 %tobool.i, true
  br i1 %lnot3.i419, label %if.then.i420, label %_ZNK2v85MaybeIbE5CheckEv.exit421

if.then.i420:                                     ; preds = %_ZN2v810MaybeLocalINS_6StringEE14ToLocalCheckedEv.exit360
  call void @_ZN2v812api_internal17FromJustIsNothingEv() #3
  br label %_ZNK2v85MaybeIbE5CheckEv.exit421

_ZNK2v85MaybeIbE5CheckEv.exit421:                 ; preds = %if.then.i420, %_ZN2v810MaybeLocalINS_6StringEE14ToLocalCheckedEv.exit360
  br label %do.end

do.end:                                           ; preds = %_ZNK2v85MaybeIbE5CheckEv.exit421
  br label %do.body95

do.body95:                                        ; preds = %do.end
  store ptr %target, ptr %this.addr.i321, align 8
  %this1.i322 = load ptr, ptr %this.addr.i321, align 8
  store ptr %this1.i322, ptr %this.addr.i462, align 8
  %this1.i463 = load ptr, ptr %this.addr.i462, align 8
  store ptr %this1.i463, ptr %this.addr.i.i461, align 8
  %this1.i.i464 = load ptr, ptr %this.addr.i.i461, align 8
  %49 = load ptr, ptr %this1.i.i464, align 8
  store ptr %49, ptr %slot.addr.i508, align 8
  %50 = load ptr, ptr %slot.addr.i508, align 8
  %call98 = call noundef ptr @_ZN2v86Object10GetIsolateEv(ptr noundef nonnull align 1 dereferenceable(1) %50)
  store ptr %call98, ptr %isolate96, align 8
  %51 = load ptr, ptr %isolate96, align 8
  %call100 = call ptr @_ZN2v87Isolate17GetCurrentContextEv(ptr noundef nonnull align 1 dereferenceable(1) %51)
  %coerce.dive101 = getelementptr inbounds %"class.v8::Local.290", ptr %context99, i32 0, i32 0
  %coerce.dive102 = getelementptr inbounds %"class.v8::LocalBase.291", ptr %coerce.dive101, i32 0, i32 0
  %coerce.dive103 = getelementptr inbounds %"class.v8::IndirectHandleBase", ptr %coerce.dive102, i32 0, i32 0
  store ptr %call100, ptr %coerce.dive103, align 8
  %52 = load ptr, ptr %isolate96, align 8
  %call106 = call ptr @_ZN2v86String11NewFromUtf8EPNS_7IsolateEPKcNS_13NewStringTypeEi(ptr noundef %52, ptr noundef @.str.12, i32 noundef 1, i32 noundef -1)
  %coerce.dive107 = getelementptr inbounds %"class.v8::MaybeLocal", ptr %ref.tmp105, i32 0, i32 0
  %coerce.dive108 = getelementptr inbounds %"class.v8::Local.292", ptr %coerce.dive107, i32 0, i32 0
  %coerce.dive109 = getelementptr inbounds %"class.v8::LocalBase.293", ptr %coerce.dive108, i32 0, i32 0
  %coerce.dive110 = getelementptr inbounds %"class.v8::IndirectHandleBase", ptr %coerce.dive109, i32 0, i32 0
  store ptr %call106, ptr %coerce.dive110, align 8
  store ptr %ref.tmp105, ptr %this.addr.i348, align 8
  %this1.i349 = load ptr, ptr %this.addr.i348, align 8
  store ptr %this1.i349, ptr %this.addr.i429, align 8
  %this1.i430 = load ptr, ptr %this.addr.i429, align 8
  store ptr %this1.i430, ptr %this.addr.i.i428, align 8
  %this1.i.i431 = load ptr, ptr %this.addr.i.i428, align 8
  %53 = load ptr, ptr %this1.i.i431, align 8
  %cmp.i.i432 = icmp eq ptr %53, null
  br i1 %cmp.i.i432, label %if.then.i352, label %_ZN2v810MaybeLocalINS_6StringEE14ToLocalCheckedEv.exit353

if.then.i352:                                     ; preds = %do.body95
  call void @_ZN2v812api_internal12ToLocalEmptyEv() #3
  br label %_ZN2v810MaybeLocalINS_6StringEE14ToLocalCheckedEv.exit353

_ZN2v810MaybeLocalINS_6StringEE14ToLocalCheckedEv.exit353: ; preds = %if.then.i352, %do.body95
  call void @llvm.memcpy.p0.p0.i64(ptr align 8 %retval.i347, ptr align 8 %this1.i349, i64 8, i1 false)
  %54 = load ptr, ptr %retval.i347, align 8
  %coerce.dive112 = getelementptr inbounds %"class.v8::Local.292", ptr %constant_name104, i32 0, i32 0
  %coerce.dive113 = getelementptr inbounds %"class.v8::LocalBase.293", ptr %coerce.dive112, i32 0, i32 0
  %coerce.dive114 = getelementptr inbounds %"class.v8::IndirectHandleBase", ptr %coerce.dive113, i32 0, i32 0
  store ptr %54, ptr %coerce.dive114, align 8
  %55 = load ptr, ptr %isolate96, align 8
  %call116 = call ptr @_ZN2v86Number3NewEPNS_7IsolateEd(ptr noundef %55, double noundef 1.000000e+00)
  %coerce.dive117 = getelementptr inbounds %"class.v8::Local.294", ptr %constant_value115, i32 0, i32 0
  %coerce.dive118 = getelementptr inbounds %"class.v8::LocalBase.295", ptr %coerce.dive117, i32 0, i32 0
  %coerce.dive119 = getelementptr inbounds %"class.v8::IndirectHandleBase", ptr %coerce.dive118, i32 0, i32 0
  store ptr %call116, ptr %coerce.dive119, align 8
  store i32 5, ptr %constant_attributes120, align 4
  store ptr %target, ptr %this.addr.i318, align 8
  %this1.i319 = load ptr, ptr %this.addr.i318, align 8
  store ptr %this1.i319, ptr %this.addr.i467, align 8
  %this1.i468 = load ptr, ptr %this.addr.i467, align 8
  store ptr %this1.i468, ptr %this.addr.i.i466, align 8
  %this1.i.i469 = load ptr, ptr %this.addr.i.i466, align 8
  %56 = load ptr, ptr %this1.i.i469, align 8
  store ptr %56, ptr %slot.addr.i507, align 8
  %57 = load ptr, ptr %slot.addr.i507, align 8
  call void @llvm.memcpy.p0.p0.i64(ptr align 8 %agg.tmp123, ptr align 8 %context99, i64 8, i1 false)
  call void @llvm.memcpy.p0.p0.i64(ptr align 8 %agg.tmp125, ptr align 8 %constant_name104, i64 8, i1 false)
  %coerce.dive126 = getelementptr inbounds %"class.v8::Local.292", ptr %agg.tmp125, i32 0, i32 0
  %coerce.dive127 = getelementptr inbounds %"class.v8::LocalBase.293", ptr %coerce.dive126, i32 0, i32 0
  %coerce.dive128 = getelementptr inbounds %"class.v8::IndirectHandleBase", ptr %coerce.dive127, i32 0, i32 0
  %58 = load ptr, ptr %coerce.dive128, align 8
  store ptr %58, ptr %that.i362, align 8
  store ptr %agg.tmp124, ptr %this.addr.i363, align 8
  %this3.i364 = load ptr, ptr %this.addr.i363, align 8
  store ptr %this3.i364, ptr %this.addr.i538, align 8
  store ptr %that.i362, ptr %other.addr.i539, align 8
  %this1.i540 = load ptr, ptr %this.addr.i538, align 8
  %59 = load ptr, ptr %other.addr.i539, align 8
  call void @llvm.memcpy.p0.p0.i64(ptr align 8 %this1.i540, ptr align 8 %59, i64 8, i1 false)
  call void @llvm.memcpy.p0.p0.i64(ptr align 8 %agg.tmp130, ptr align 8 %constant_value115, i64 8, i1 false)
  %coerce.dive131 = getelementptr inbounds %"class.v8::Local.294", ptr %agg.tmp130, i32 0, i32 0
  %coerce.dive132 = getelementptr inbounds %"class.v8::LocalBase.295", ptr %coerce.dive131, i32 0, i32 0
  %coerce.dive133 = getelementptr inbounds %"class.v8::IndirectHandleBase", ptr %coerce.dive132, i32 0, i32 0
  %60 = load ptr, ptr %coerce.dive133, align 8
  store ptr %60, ptr %that.i377, align 8
  store ptr %agg.tmp129, ptr %this.addr.i378, align 8
  %this3.i379 = load ptr, ptr %this.addr.i378, align 8
  store ptr %this3.i379, ptr %this.addr.i553, align 8
  store ptr %that.i377, ptr %other.addr.i554, align 8
  %this1.i555 = load ptr, ptr %this.addr.i553, align 8
  %61 = load ptr, ptr %other.addr.i554, align 8
  call void @llvm.memcpy.p0.p0.i64(ptr align 8 %this1.i555, ptr align 8 %61, i64 8, i1 false)
  %62 = load i32, ptr %constant_attributes120, align 4
  %coerce.dive134 = getelementptr inbounds %"class.v8::Local.290", ptr %agg.tmp123, i32 0, i32 0
  %coerce.dive135 = getelementptr inbounds %"class.v8::LocalBase.291", ptr %coerce.dive134, i32 0, i32 0
  %coerce.dive136 = getelementptr inbounds %"class.v8::IndirectHandleBase", ptr %coerce.dive135, i32 0, i32 0
  %63 = load ptr, ptr %coerce.dive136, align 8
  %coerce.dive137 = getelementptr inbounds %"class.v8::Local.296", ptr %agg.tmp124, i32 0, i32 0
  %coerce.dive138 = getelementptr inbounds %"class.v8::LocalBase.297", ptr %coerce.dive137, i32 0, i32 0
  %coerce.dive139 = getelementptr inbounds %"class.v8::IndirectHandleBase", ptr %coerce.dive138, i32 0, i32 0
  %64 = load ptr, ptr %coerce.dive139, align 8
  %coerce.dive140 = getelementptr inbounds %"class.v8::Local.298", ptr %agg.tmp129, i32 0, i32 0
  %coerce.dive141 = getelementptr inbounds %"class.v8::LocalBase.299", ptr %coerce.dive140, i32 0, i32 0
  %coerce.dive142 = getelementptr inbounds %"class.v8::IndirectHandleBase", ptr %coerce.dive141, i32 0, i32 0
  %65 = load ptr, ptr %coerce.dive142, align 8
  %call143 = call i16 @_ZN2v86Object17DefineOwnPropertyENS_5LocalINS_7ContextEEENS1_INS_4NameEEENS1_INS_5ValueEEENS_17PropertyAttributeE(ptr noundef nonnull align 1 dereferenceable(1) %57, ptr %63, ptr %64, ptr %65, i32 noundef %62)
  store i16 %call143, ptr %ref.tmp121, align 1
  store ptr %ref.tmp121, ptr %this.addr.i408, align 8
  %this1.i409 = load ptr, ptr %this.addr.i408, align 8
  store ptr %this1.i409, ptr %this.addr.i513, align 8
  %this1.i514 = load ptr, ptr %this.addr.i513, align 8
  %66 = load i8, ptr %this1.i514, align 1
  %tobool.i515 = trunc i8 %66 to i1
  %lnot3.i412 = xor i1 %tobool.i515, true
  br i1 %lnot3.i412, label %if.then.i413, label %_ZNK2v85MaybeIbE5CheckEv.exit414

if.then.i413:                                     ; preds = %_ZN2v810MaybeLocalINS_6StringEE14ToLocalCheckedEv.exit353
  call void @_ZN2v812api_internal17FromJustIsNothingEv() #3
  br label %_ZNK2v85MaybeIbE5CheckEv.exit414

_ZNK2v85MaybeIbE5CheckEv.exit414:                 ; preds = %if.then.i413, %_ZN2v810MaybeLocalINS_6StringEE14ToLocalCheckedEv.exit353
  br label %do.end144

do.end144:                                        ; preds = %_ZNK2v85MaybeIbE5CheckEv.exit414
  br label %do.body145

do.body145:                                       ; preds = %do.end144
  store ptr %target, ptr %this.addr.i315, align 8
  %this1.i316 = load ptr, ptr %this.addr.i315, align 8
  store ptr %this1.i316, ptr %this.addr.i472, align 8
  %this1.i473 = load ptr, ptr %this.addr.i472, align 8
  store ptr %this1.i473, ptr %this.addr.i.i471, align 8
  %this1.i.i474 = load ptr, ptr %this.addr.i.i471, align 8
  %67 = load ptr, ptr %this1.i.i474, align 8
  store ptr %67, ptr %slot.addr.i506, align 8
  %68 = load ptr, ptr %slot.addr.i506, align 8
  %call148 = call noundef ptr @_ZN2v86Object10GetIsolateEv(ptr noundef nonnull align 1 dereferenceable(1) %68)
  store ptr %call148, ptr %isolate146, align 8
  %69 = load ptr, ptr %isolate146, align 8
  %call150 = call ptr @_ZN2v87Isolate17GetCurrentContextEv(ptr noundef nonnull align 1 dereferenceable(1) %69)
  %coerce.dive151 = getelementptr inbounds %"class.v8::Local.290", ptr %context149, i32 0, i32 0
  %coerce.dive152 = getelementptr inbounds %"class.v8::LocalBase.291", ptr %coerce.dive151, i32 0, i32 0
  %coerce.dive153 = getelementptr inbounds %"class.v8::IndirectHandleBase", ptr %coerce.dive152, i32 0, i32 0
  store ptr %call150, ptr %coerce.dive153, align 8
  %70 = load ptr, ptr %isolate146, align 8
  %call156 = call ptr @_ZN2v86String11NewFromUtf8EPNS_7IsolateEPKcNS_13NewStringTypeEi(ptr noundef %70, ptr noundef @.str.13, i32 noundef 1, i32 noundef -1)
  %coerce.dive157 = getelementptr inbounds %"class.v8::MaybeLocal", ptr %ref.tmp155, i32 0, i32 0
  %coerce.dive158 = getelementptr inbounds %"class.v8::Local.292", ptr %coerce.dive157, i32 0, i32 0
  %coerce.dive159 = getelementptr inbounds %"class.v8::LocalBase.293", ptr %coerce.dive158, i32 0, i32 0
  %coerce.dive160 = getelementptr inbounds %"class.v8::IndirectHandleBase", ptr %coerce.dive159, i32 0, i32 0
  store ptr %call156, ptr %coerce.dive160, align 8
  store ptr %ref.tmp155, ptr %this.addr.i341, align 8
  %this1.i342 = load ptr, ptr %this.addr.i341, align 8
  store ptr %this1.i342, ptr %this.addr.i434, align 8
  %this1.i435 = load ptr, ptr %this.addr.i434, align 8
  store ptr %this1.i435, ptr %this.addr.i.i433, align 8
  %this1.i.i436 = load ptr, ptr %this.addr.i.i433, align 8
  %71 = load ptr, ptr %this1.i.i436, align 8
  %cmp.i.i437 = icmp eq ptr %71, null
  br i1 %cmp.i.i437, label %if.then.i345, label %_ZN2v810MaybeLocalINS_6StringEE14ToLocalCheckedEv.exit346

if.then.i345:                                     ; preds = %do.body145
  call void @_ZN2v812api_internal12ToLocalEmptyEv() #3
  br label %_ZN2v810MaybeLocalINS_6StringEE14ToLocalCheckedEv.exit346

_ZN2v810MaybeLocalINS_6StringEE14ToLocalCheckedEv.exit346: ; preds = %if.then.i345, %do.body145
  call void @llvm.memcpy.p0.p0.i64(ptr align 8 %retval.i340, ptr align 8 %this1.i342, i64 8, i1 false)
  %72 = load ptr, ptr %retval.i340, align 8
  %coerce.dive162 = getelementptr inbounds %"class.v8::Local.292", ptr %constant_name154, i32 0, i32 0
  %coerce.dive163 = getelementptr inbounds %"class.v8::LocalBase.293", ptr %coerce.dive162, i32 0, i32 0
  %coerce.dive164 = getelementptr inbounds %"class.v8::IndirectHandleBase", ptr %coerce.dive163, i32 0, i32 0
  store ptr %72, ptr %coerce.dive164, align 8
  %73 = load ptr, ptr %isolate146, align 8
  %call166 = call ptr @_ZN2v86Number3NewEPNS_7IsolateEd(ptr noundef %73, double noundef 0.000000e+00)
  %coerce.dive167 = getelementptr inbounds %"class.v8::Local.294", ptr %constant_value165, i32 0, i32 0
  %coerce.dive168 = getelementptr inbounds %"class.v8::LocalBase.295", ptr %coerce.dive167, i32 0, i32 0
  %coerce.dive169 = getelementptr inbounds %"class.v8::IndirectHandleBase", ptr %coerce.dive168, i32 0, i32 0
  store ptr %call166, ptr %coerce.dive169, align 8
  store i32 5, ptr %constant_attributes170, align 4
  store ptr %target, ptr %this.addr.i312, align 8
  %this1.i313 = load ptr, ptr %this.addr.i312, align 8
  store ptr %this1.i313, ptr %this.addr.i477, align 8
  %this1.i478 = load ptr, ptr %this.addr.i477, align 8
  store ptr %this1.i478, ptr %this.addr.i.i476, align 8
  %this1.i.i479 = load ptr, ptr %this.addr.i.i476, align 8
  %74 = load ptr, ptr %this1.i.i479, align 8
  store ptr %74, ptr %slot.addr.i505, align 8
  %75 = load ptr, ptr %slot.addr.i505, align 8
  call void @llvm.memcpy.p0.p0.i64(ptr align 8 %agg.tmp173, ptr align 8 %context149, i64 8, i1 false)
  call void @llvm.memcpy.p0.p0.i64(ptr align 8 %agg.tmp175, ptr align 8 %constant_name154, i64 8, i1 false)
  %coerce.dive176 = getelementptr inbounds %"class.v8::Local.292", ptr %agg.tmp175, i32 0, i32 0
  %coerce.dive177 = getelementptr inbounds %"class.v8::LocalBase.293", ptr %coerce.dive176, i32 0, i32 0
  %coerce.dive178 = getelementptr inbounds %"class.v8::IndirectHandleBase", ptr %coerce.dive177, i32 0, i32 0
  %76 = load ptr, ptr %coerce.dive178, align 8
  store ptr %76, ptr %that.i365, align 8
  store ptr %agg.tmp174, ptr %this.addr.i366, align 8
  %this3.i367 = load ptr, ptr %this.addr.i366, align 8
  store ptr %this3.i367, ptr %this.addr.i535, align 8
  store ptr %that.i365, ptr %other.addr.i536, align 8
  %this1.i537 = load ptr, ptr %this.addr.i535, align 8
  %77 = load ptr, ptr %other.addr.i536, align 8
  call void @llvm.memcpy.p0.p0.i64(ptr align 8 %this1.i537, ptr align 8 %77, i64 8, i1 false)
  call void @llvm.memcpy.p0.p0.i64(ptr align 8 %agg.tmp180, ptr align 8 %constant_value165, i64 8, i1 false)
  %coerce.dive181 = getelementptr inbounds %"class.v8::Local.294", ptr %agg.tmp180, i32 0, i32 0
  %coerce.dive182 = getelementptr inbounds %"class.v8::LocalBase.295", ptr %coerce.dive181, i32 0, i32 0
  %coerce.dive183 = getelementptr inbounds %"class.v8::IndirectHandleBase", ptr %coerce.dive182, i32 0, i32 0
  %78 = load ptr, ptr %coerce.dive183, align 8
  store ptr %78, ptr %that.i380, align 8
  store ptr %agg.tmp179, ptr %this.addr.i381, align 8
  %this3.i382 = load ptr, ptr %this.addr.i381, align 8
  store ptr %this3.i382, ptr %this.addr.i550, align 8
  store ptr %that.i380, ptr %other.addr.i551, align 8
  %this1.i552 = load ptr, ptr %this.addr.i550, align 8
  %79 = load ptr, ptr %other.addr.i551, align 8
  call void @llvm.memcpy.p0.p0.i64(ptr align 8 %this1.i552, ptr align 8 %79, i64 8, i1 false)
  %80 = load i32, ptr %constant_attributes170, align 4
  %coerce.dive184 = getelementptr inbounds %"class.v8::Local.290", ptr %agg.tmp173, i32 0, i32 0
  %coerce.dive185 = getelementptr inbounds %"class.v8::LocalBase.291", ptr %coerce.dive184, i32 0, i32 0
  %coerce.dive186 = getelementptr inbounds %"class.v8::IndirectHandleBase", ptr %coerce.dive185, i32 0, i32 0
  %81 = load ptr, ptr %coerce.dive186, align 8
  %coerce.dive187 = getelementptr inbounds %"class.v8::Local.296", ptr %agg.tmp174, i32 0, i32 0
  %coerce.dive188 = getelementptr inbounds %"class.v8::LocalBase.297", ptr %coerce.dive187, i32 0, i32 0
  %coerce.dive189 = getelementptr inbounds %"class.v8::IndirectHandleBase", ptr %coerce.dive188, i32 0, i32 0
  %82 = load ptr, ptr %coerce.dive189, align 8
  %coerce.dive190 = getelementptr inbounds %"class.v8::Local.298", ptr %agg.tmp179, i32 0, i32 0
  %coerce.dive191 = getelementptr inbounds %"class.v8::LocalBase.299", ptr %coerce.dive190, i32 0, i32 0
  %coerce.dive192 = getelementptr inbounds %"class.v8::IndirectHandleBase", ptr %coerce.dive191, i32 0, i32 0
  %83 = load ptr, ptr %coerce.dive192, align 8
  %call193 = call i16 @_ZN2v86Object17DefineOwnPropertyENS_5LocalINS_7ContextEEENS1_INS_4NameEEENS1_INS_5ValueEEENS_17PropertyAttributeE(ptr noundef nonnull align 1 dereferenceable(1) %75, ptr %81, ptr %82, ptr %83, i32 noundef %80)
  store i16 %call193, ptr %ref.tmp171, align 1
  store ptr %ref.tmp171, ptr %this.addr.i401, align 8
  %this1.i402 = load ptr, ptr %this.addr.i401, align 8
  store ptr %this1.i402, ptr %this.addr.i516, align 8
  %this1.i517 = load ptr, ptr %this.addr.i516, align 8
  %84 = load i8, ptr %this1.i517, align 1
  %tobool.i518 = trunc i8 %84 to i1
  %lnot3.i405 = xor i1 %tobool.i518, true
  br i1 %lnot3.i405, label %if.then.i406, label %_ZNK2v85MaybeIbE5CheckEv.exit407

if.then.i406:                                     ; preds = %_ZN2v810MaybeLocalINS_6StringEE14ToLocalCheckedEv.exit346
  call void @_ZN2v812api_internal17FromJustIsNothingEv() #3
  br label %_ZNK2v85MaybeIbE5CheckEv.exit407

_ZNK2v85MaybeIbE5CheckEv.exit407:                 ; preds = %if.then.i406, %_ZN2v810MaybeLocalINS_6StringEE14ToLocalCheckedEv.exit346
  br label %do.end194

do.end194:                                        ; preds = %_ZNK2v85MaybeIbE5CheckEv.exit407
  br label %do.body195

do.body195:                                       ; preds = %do.end194
  store ptr %target, ptr %this.addr.i309, align 8
  %this1.i310 = load ptr, ptr %this.addr.i309, align 8
  store ptr %this1.i310, ptr %this.addr.i482, align 8
  %this1.i483 = load ptr, ptr %this.addr.i482, align 8
  store ptr %this1.i483, ptr %this.addr.i.i481, align 8
  %this1.i.i484 = load ptr, ptr %this.addr.i.i481, align 8
  %85 = load ptr, ptr %this1.i.i484, align 8
  store ptr %85, ptr %slot.addr.i504, align 8
  %86 = load ptr, ptr %slot.addr.i504, align 8
  %call198 = call noundef ptr @_ZN2v86Object10GetIsolateEv(ptr noundef nonnull align 1 dereferenceable(1) %86)
  store ptr %call198, ptr %isolate196, align 8
  %87 = load ptr, ptr %isolate196, align 8
  %call200 = call ptr @_ZN2v87Isolate17GetCurrentContextEv(ptr noundef nonnull align 1 dereferenceable(1) %87)
  %coerce.dive201 = getelementptr inbounds %"class.v8::Local.290", ptr %context199, i32 0, i32 0
  %coerce.dive202 = getelementptr inbounds %"class.v8::LocalBase.291", ptr %coerce.dive201, i32 0, i32 0
  %coerce.dive203 = getelementptr inbounds %"class.v8::IndirectHandleBase", ptr %coerce.dive202, i32 0, i32 0
  store ptr %call200, ptr %coerce.dive203, align 8
  %88 = load ptr, ptr %isolate196, align 8
  %call206 = call ptr @_ZN2v86String11NewFromUtf8EPNS_7IsolateEPKcNS_13NewStringTypeEi(ptr noundef %88, ptr noundef @.str.14, i32 noundef 1, i32 noundef -1)
  %coerce.dive207 = getelementptr inbounds %"class.v8::MaybeLocal", ptr %ref.tmp205, i32 0, i32 0
  %coerce.dive208 = getelementptr inbounds %"class.v8::Local.292", ptr %coerce.dive207, i32 0, i32 0
  %coerce.dive209 = getelementptr inbounds %"class.v8::LocalBase.293", ptr %coerce.dive208, i32 0, i32 0
  %coerce.dive210 = getelementptr inbounds %"class.v8::IndirectHandleBase", ptr %coerce.dive209, i32 0, i32 0
  store ptr %call206, ptr %coerce.dive210, align 8
  store ptr %ref.tmp205, ptr %this.addr.i334, align 8
  %this1.i335 = load ptr, ptr %this.addr.i334, align 8
  store ptr %this1.i335, ptr %this.addr.i439, align 8
  %this1.i440 = load ptr, ptr %this.addr.i439, align 8
  store ptr %this1.i440, ptr %this.addr.i.i438, align 8
  %this1.i.i441 = load ptr, ptr %this.addr.i.i438, align 8
  %89 = load ptr, ptr %this1.i.i441, align 8
  %cmp.i.i442 = icmp eq ptr %89, null
  br i1 %cmp.i.i442, label %if.then.i338, label %_ZN2v810MaybeLocalINS_6StringEE14ToLocalCheckedEv.exit339

if.then.i338:                                     ; preds = %do.body195
  call void @_ZN2v812api_internal12ToLocalEmptyEv() #3
  br label %_ZN2v810MaybeLocalINS_6StringEE14ToLocalCheckedEv.exit339

_ZN2v810MaybeLocalINS_6StringEE14ToLocalCheckedEv.exit339: ; preds = %if.then.i338, %do.body195
  call void @llvm.memcpy.p0.p0.i64(ptr align 8 %retval.i333, ptr align 8 %this1.i335, i64 8, i1 false)
  %90 = load ptr, ptr %retval.i333, align 8
  %coerce.dive212 = getelementptr inbounds %"class.v8::Local.292", ptr %constant_name204, i32 0, i32 0
  %coerce.dive213 = getelementptr inbounds %"class.v8::LocalBase.293", ptr %coerce.dive212, i32 0, i32 0
  %coerce.dive214 = getelementptr inbounds %"class.v8::IndirectHandleBase", ptr %coerce.dive213, i32 0, i32 0
  store ptr %90, ptr %coerce.dive214, align 8
  %91 = load ptr, ptr %isolate196, align 8
  %call216 = call ptr @_ZN2v86Number3NewEPNS_7IsolateEd(ptr noundef %91, double noundef 1.000000e+00)
  %coerce.dive217 = getelementptr inbounds %"class.v8::Local.294", ptr %constant_value215, i32 0, i32 0
  %coerce.dive218 = getelementptr inbounds %"class.v8::LocalBase.295", ptr %coerce.dive217, i32 0, i32 0
  %coerce.dive219 = getelementptr inbounds %"class.v8::IndirectHandleBase", ptr %coerce.dive218, i32 0, i32 0
  store ptr %call216, ptr %coerce.dive219, align 8
  store i32 5, ptr %constant_attributes220, align 4
  store ptr %target, ptr %this.addr.i306, align 8
  %this1.i307 = load ptr, ptr %this.addr.i306, align 8
  store ptr %this1.i307, ptr %this.addr.i487, align 8
  %this1.i488 = load ptr, ptr %this.addr.i487, align 8
  store ptr %this1.i488, ptr %this.addr.i.i486, align 8
  %this1.i.i489 = load ptr, ptr %this.addr.i.i486, align 8
  %92 = load ptr, ptr %this1.i.i489, align 8
  store ptr %92, ptr %slot.addr.i503, align 8
  %93 = load ptr, ptr %slot.addr.i503, align 8
  call void @llvm.memcpy.p0.p0.i64(ptr align 8 %agg.tmp223, ptr align 8 %context199, i64 8, i1 false)
  call void @llvm.memcpy.p0.p0.i64(ptr align 8 %agg.tmp225, ptr align 8 %constant_name204, i64 8, i1 false)
  %coerce.dive226 = getelementptr inbounds %"class.v8::Local.292", ptr %agg.tmp225, i32 0, i32 0
  %coerce.dive227 = getelementptr inbounds %"class.v8::LocalBase.293", ptr %coerce.dive226, i32 0, i32 0
  %coerce.dive228 = getelementptr inbounds %"class.v8::IndirectHandleBase", ptr %coerce.dive227, i32 0, i32 0
  %94 = load ptr, ptr %coerce.dive228, align 8
  store ptr %94, ptr %that.i368, align 8
  store ptr %agg.tmp224, ptr %this.addr.i369, align 8
  %this3.i370 = load ptr, ptr %this.addr.i369, align 8
  store ptr %this3.i370, ptr %this.addr.i532, align 8
  store ptr %that.i368, ptr %other.addr.i533, align 8
  %this1.i534 = load ptr, ptr %this.addr.i532, align 8
  %95 = load ptr, ptr %other.addr.i533, align 8
  call void @llvm.memcpy.p0.p0.i64(ptr align 8 %this1.i534, ptr align 8 %95, i64 8, i1 false)
  call void @llvm.memcpy.p0.p0.i64(ptr align 8 %agg.tmp230, ptr align 8 %constant_value215, i64 8, i1 false)
  %coerce.dive231 = getelementptr inbounds %"class.v8::Local.294", ptr %agg.tmp230, i32 0, i32 0
  %coerce.dive232 = getelementptr inbounds %"class.v8::LocalBase.295", ptr %coerce.dive231, i32 0, i32 0
  %coerce.dive233 = getelementptr inbounds %"class.v8::IndirectHandleBase", ptr %coerce.dive232, i32 0, i32 0
  %96 = load ptr, ptr %coerce.dive233, align 8
  store ptr %96, ptr %that.i383, align 8
  store ptr %agg.tmp229, ptr %this.addr.i384, align 8
  %this3.i385 = load ptr, ptr %this.addr.i384, align 8
  store ptr %this3.i385, ptr %this.addr.i547, align 8
  store ptr %that.i383, ptr %other.addr.i548, align 8
  %this1.i549 = load ptr, ptr %this.addr.i547, align 8
  %97 = load ptr, ptr %other.addr.i548, align 8
  call void @llvm.memcpy.p0.p0.i64(ptr align 8 %this1.i549, ptr align 8 %97, i64 8, i1 false)
  %98 = load i32, ptr %constant_attributes220, align 4
  %coerce.dive234 = getelementptr inbounds %"class.v8::Local.290", ptr %agg.tmp223, i32 0, i32 0
  %coerce.dive235 = getelementptr inbounds %"class.v8::LocalBase.291", ptr %coerce.dive234, i32 0, i32 0
  %coerce.dive236 = getelementptr inbounds %"class.v8::IndirectHandleBase", ptr %coerce.dive235, i32 0, i32 0
  %99 = load ptr, ptr %coerce.dive236, align 8
  %coerce.dive237 = getelementptr inbounds %"class.v8::Local.296", ptr %agg.tmp224, i32 0, i32 0
  %coerce.dive238 = getelementptr inbounds %"class.v8::LocalBase.297", ptr %coerce.dive237, i32 0, i32 0
  %coerce.dive239 = getelementptr inbounds %"class.v8::IndirectHandleBase", ptr %coerce.dive238, i32 0, i32 0
  %100 = load ptr, ptr %coerce.dive239, align 8
  %coerce.dive240 = getelementptr inbounds %"class.v8::Local.298", ptr %agg.tmp229, i32 0, i32 0
  %coerce.dive241 = getelementptr inbounds %"class.v8::LocalBase.299", ptr %coerce.dive240, i32 0, i32 0
  %coerce.dive242 = getelementptr inbounds %"class.v8::IndirectHandleBase", ptr %coerce.dive241, i32 0, i32 0
  %101 = load ptr, ptr %coerce.dive242, align 8
  %call243 = call i16 @_ZN2v86Object17DefineOwnPropertyENS_5LocalINS_7ContextEEENS1_INS_4NameEEENS1_INS_5ValueEEENS_17PropertyAttributeE(ptr noundef nonnull align 1 dereferenceable(1) %93, ptr %99, ptr %100, ptr %101, i32 noundef %98)
  store i16 %call243, ptr %ref.tmp221, align 1
  store ptr %ref.tmp221, ptr %this.addr.i394, align 8
  %this1.i395 = load ptr, ptr %this.addr.i394, align 8
  store ptr %this1.i395, ptr %this.addr.i519, align 8
  %this1.i520 = load ptr, ptr %this.addr.i519, align 8
  %102 = load i8, ptr %this1.i520, align 1
  %tobool.i521 = trunc i8 %102 to i1
  %lnot3.i398 = xor i1 %tobool.i521, true
  br i1 %lnot3.i398, label %if.then.i399, label %_ZNK2v85MaybeIbE5CheckEv.exit400

if.then.i399:                                     ; preds = %_ZN2v810MaybeLocalINS_6StringEE14ToLocalCheckedEv.exit339
  call void @_ZN2v812api_internal17FromJustIsNothingEv() #3
  br label %_ZNK2v85MaybeIbE5CheckEv.exit400

_ZNK2v85MaybeIbE5CheckEv.exit400:                 ; preds = %if.then.i399, %_ZN2v810MaybeLocalINS_6StringEE14ToLocalCheckedEv.exit339
  br label %do.end244

do.end244:                                        ; preds = %_ZNK2v85MaybeIbE5CheckEv.exit400
  br label %do.body245

do.body245:                                       ; preds = %do.end244
  store ptr %target, ptr %this.addr.i303, align 8
  %this1.i304 = load ptr, ptr %this.addr.i303, align 8
  store ptr %this1.i304, ptr %this.addr.i492, align 8
  %this1.i493 = load ptr, ptr %this.addr.i492, align 8
  store ptr %this1.i493, ptr %this.addr.i.i491, align 8
  %this1.i.i494 = load ptr, ptr %this.addr.i.i491, align 8
  %103 = load ptr, ptr %this1.i.i494, align 8
  store ptr %103, ptr %slot.addr.i502, align 8
  %104 = load ptr, ptr %slot.addr.i502, align 8
  %call248 = call noundef ptr @_ZN2v86Object10GetIsolateEv(ptr noundef nonnull align 1 dereferenceable(1) %104)
  store ptr %call248, ptr %isolate246, align 8
  %105 = load ptr, ptr %isolate246, align 8
  %call250 = call ptr @_ZN2v87Isolate17GetCurrentContextEv(ptr noundef nonnull align 1 dereferenceable(1) %105)
  %coerce.dive251 = getelementptr inbounds %"class.v8::Local.290", ptr %context249, i32 0, i32 0
  %coerce.dive252 = getelementptr inbounds %"class.v8::LocalBase.291", ptr %coerce.dive251, i32 0, i32 0
  %coerce.dive253 = getelementptr inbounds %"class.v8::IndirectHandleBase", ptr %coerce.dive252, i32 0, i32 0
  store ptr %call250, ptr %coerce.dive253, align 8
  %106 = load ptr, ptr %isolate246, align 8
  %call256 = call ptr @_ZN2v86String11NewFromUtf8EPNS_7IsolateEPKcNS_13NewStringTypeEi(ptr noundef %106, ptr noundef @.str.15, i32 noundef 1, i32 noundef -1)
  %coerce.dive257 = getelementptr inbounds %"class.v8::MaybeLocal", ptr %ref.tmp255, i32 0, i32 0
  %coerce.dive258 = getelementptr inbounds %"class.v8::Local.292", ptr %coerce.dive257, i32 0, i32 0
  %coerce.dive259 = getelementptr inbounds %"class.v8::LocalBase.293", ptr %coerce.dive258, i32 0, i32 0
  %coerce.dive260 = getelementptr inbounds %"class.v8::IndirectHandleBase", ptr %coerce.dive259, i32 0, i32 0
  store ptr %call256, ptr %coerce.dive260, align 8
  store ptr %ref.tmp255, ptr %this.addr.i330, align 8
  %this1.i331 = load ptr, ptr %this.addr.i330, align 8
  store ptr %this1.i331, ptr %this.addr.i444, align 8
  %this1.i445 = load ptr, ptr %this.addr.i444, align 8
  store ptr %this1.i445, ptr %this.addr.i.i443, align 8
  %this1.i.i446 = load ptr, ptr %this.addr.i.i443, align 8
  %107 = load ptr, ptr %this1.i.i446, align 8
  %cmp.i.i447 = icmp eq ptr %107, null
  br i1 %cmp.i.i447, label %if.then.i, label %_ZN2v810MaybeLocalINS_6StringEE14ToLocalCheckedEv.exit

if.then.i:                                        ; preds = %do.body245
  call void @_ZN2v812api_internal12ToLocalEmptyEv() #3
  br label %_ZN2v810MaybeLocalINS_6StringEE14ToLocalCheckedEv.exit

_ZN2v810MaybeLocalINS_6StringEE14ToLocalCheckedEv.exit: ; preds = %if.then.i, %do.body245
  call void @llvm.memcpy.p0.p0.i64(ptr align 8 %retval.i, ptr align 8 %this1.i331, i64 8, i1 false)
  %108 = load ptr, ptr %retval.i, align 8
  %coerce.dive262 = getelementptr inbounds %"class.v8::Local.292", ptr %constant_name254, i32 0, i32 0
  %coerce.dive263 = getelementptr inbounds %"class.v8::LocalBase.293", ptr %coerce.dive262, i32 0, i32 0
  %coerce.dive264 = getelementptr inbounds %"class.v8::IndirectHandleBase", ptr %coerce.dive263, i32 0, i32 0
  store ptr %108, ptr %coerce.dive264, align 8
  %109 = load ptr, ptr %isolate246, align 8
  %call266 = call ptr @_ZN2v86Number3NewEPNS_7IsolateEd(ptr noundef %109, double noundef 6.000000e+00)
  %coerce.dive267 = getelementptr inbounds %"class.v8::Local.294", ptr %constant_value265, i32 0, i32 0
  %coerce.dive268 = getelementptr inbounds %"class.v8::LocalBase.295", ptr %coerce.dive267, i32 0, i32 0
  %coerce.dive269 = getelementptr inbounds %"class.v8::IndirectHandleBase", ptr %coerce.dive268, i32 0, i32 0
  store ptr %call266, ptr %coerce.dive269, align 8
  store i32 5, ptr %constant_attributes270, align 4
  store ptr %target, ptr %this.addr.i300, align 8
  %this1.i301 = load ptr, ptr %this.addr.i300, align 8
  store ptr %this1.i301, ptr %this.addr.i497, align 8
  %this1.i498 = load ptr, ptr %this.addr.i497, align 8
  store ptr %this1.i498, ptr %this.addr.i.i496, align 8
  %this1.i.i499 = load ptr, ptr %this.addr.i.i496, align 8
  %110 = load ptr, ptr %this1.i.i499, align 8
  store ptr %110, ptr %slot.addr.i501, align 8
  %111 = load ptr, ptr %slot.addr.i501, align 8
  call void @llvm.memcpy.p0.p0.i64(ptr align 8 %agg.tmp273, ptr align 8 %context249, i64 8, i1 false)
  call void @llvm.memcpy.p0.p0.i64(ptr align 8 %agg.tmp275, ptr align 8 %constant_name254, i64 8, i1 false)
  %coerce.dive276 = getelementptr inbounds %"class.v8::Local.292", ptr %agg.tmp275, i32 0, i32 0
  %coerce.dive277 = getelementptr inbounds %"class.v8::LocalBase.293", ptr %coerce.dive276, i32 0, i32 0
  %coerce.dive278 = getelementptr inbounds %"class.v8::IndirectHandleBase", ptr %coerce.dive277, i32 0, i32 0
  %112 = load ptr, ptr %coerce.dive278, align 8
  store ptr %112, ptr %that.i371, align 8
  store ptr %agg.tmp274, ptr %this.addr.i372, align 8
  %this3.i373 = load ptr, ptr %this.addr.i372, align 8
  store ptr %this3.i373, ptr %this.addr.i530, align 8
  store ptr %that.i371, ptr %other.addr.i, align 8
  %this1.i531 = load ptr, ptr %this.addr.i530, align 8
  %113 = load ptr, ptr %other.addr.i, align 8
  call void @llvm.memcpy.p0.p0.i64(ptr align 8 %this1.i531, ptr align 8 %113, i64 8, i1 false)
  call void @llvm.memcpy.p0.p0.i64(ptr align 8 %agg.tmp280, ptr align 8 %constant_value265, i64 8, i1 false)
  %coerce.dive281 = getelementptr inbounds %"class.v8::Local.294", ptr %agg.tmp280, i32 0, i32 0
  %coerce.dive282 = getelementptr inbounds %"class.v8::LocalBase.295", ptr %coerce.dive281, i32 0, i32 0
  %coerce.dive283 = getelementptr inbounds %"class.v8::IndirectHandleBase", ptr %coerce.dive282, i32 0, i32 0
  %114 = load ptr, ptr %coerce.dive283, align 8
  store ptr %114, ptr %that.i386, align 8
  store ptr %agg.tmp279, ptr %this.addr.i387, align 8
  %this3.i388 = load ptr, ptr %this.addr.i387, align 8
  store ptr %this3.i388, ptr %this.addr.i544, align 8
  store ptr %that.i386, ptr %other.addr.i545, align 8
  %this1.i546 = load ptr, ptr %this.addr.i544, align 8
  %115 = load ptr, ptr %other.addr.i545, align 8
  call void @llvm.memcpy.p0.p0.i64(ptr align 8 %this1.i546, ptr align 8 %115, i64 8, i1 false)
  %116 = load i32, ptr %constant_attributes270, align 4
  %coerce.dive284 = getelementptr inbounds %"class.v8::Local.290", ptr %agg.tmp273, i32 0, i32 0
  %coerce.dive285 = getelementptr inbounds %"class.v8::LocalBase.291", ptr %coerce.dive284, i32 0, i32 0
  %coerce.dive286 = getelementptr inbounds %"class.v8::IndirectHandleBase", ptr %coerce.dive285, i32 0, i32 0
  %117 = load ptr, ptr %coerce.dive286, align 8
  %coerce.dive287 = getelementptr inbounds %"class.v8::Local.296", ptr %agg.tmp274, i32 0, i32 0
  %coerce.dive288 = getelementptr inbounds %"class.v8::LocalBase.297", ptr %coerce.dive287, i32 0, i32 0
  %coerce.dive289 = getelementptr inbounds %"class.v8::IndirectHandleBase", ptr %coerce.dive288, i32 0, i32 0
  %118 = load ptr, ptr %coerce.dive289, align 8
  %coerce.dive290 = getelementptr inbounds %"class.v8::Local.298", ptr %agg.tmp279, i32 0, i32 0
  %coerce.dive291 = getelementptr inbounds %"class.v8::LocalBase.299", ptr %coerce.dive290, i32 0, i32 0
  %coerce.dive292 = getelementptr inbounds %"class.v8::IndirectHandleBase", ptr %coerce.dive291, i32 0, i32 0
  %119 = load ptr, ptr %coerce.dive292, align 8
  %call293 = call i16 @_ZN2v86Object17DefineOwnPropertyENS_5LocalINS_7ContextEEENS1_INS_4NameEEENS1_INS_5ValueEEENS_17PropertyAttributeE(ptr noundef nonnull align 1 dereferenceable(1) %111, ptr %117, ptr %118, ptr %119, i32 noundef %116)
  store i16 %call293, ptr %ref.tmp271, align 1
  store ptr %ref.tmp271, ptr %this.addr.i389, align 8
  %this1.i390 = load ptr, ptr %this.addr.i389, align 8
  store ptr %this1.i390, ptr %this.addr.i522, align 8
  %this1.i523 = load ptr, ptr %this.addr.i522, align 8
  %120 = load i8, ptr %this1.i523, align 1
  %tobool.i524 = trunc i8 %120 to i1
  %lnot3.i = xor i1 %tobool.i524, true
  br i1 %lnot3.i, label %if.then.i393, label %_ZNK2v85MaybeIbE5CheckEv.exit

if.then.i393:                                     ; preds = %_ZN2v810MaybeLocalINS_6StringEE14ToLocalCheckedEv.exit
  call void @_ZN2v812api_internal17FromJustIsNothingEv() #3
  br label %_ZNK2v85MaybeIbE5CheckEv.exit

_ZNK2v85MaybeIbE5CheckEv.exit:                    ; preds = %if.then.i393, %_ZN2v810MaybeLocalINS_6StringEE14ToLocalCheckedEv.exit
  br label %do.end294

do.end294:                                        ; preds = %_ZNK2v85MaybeIbE5CheckEv.exit
  ret void
}

; Function Attrs: mustprogress nounwind uwtable
define linkonce_odr dso_local noundef ptr @_ZNK4node11Environment7isolateEv(ptr noundef nonnull align 8 dereferenceable(2872) %this) #4 comdat align 2 {
entry:
  %this.addr = alloca ptr, align 8
  store ptr %this, ptr %this.addr, align 8
  %this1 = load ptr, ptr %this.addr, align 8
  %isolate_ = getelementptr inbounds %"class.node::Environment", ptr %this1, i32 0, i32 3
  %0 = load ptr, ptr %isolate_, align 8
  ret ptr %0
}

declare ptr @_ZN4node19NewFunctionTemplateEPN2v87IsolateEPFvRKNS0_20FunctionCallbackInfoINS0_5ValueEEEENS0_5LocalINS0_9SignatureEEENS0_19ConstructorBehaviorENS0_14SideEffectTypeEPKNS0_9CFunctionE(ptr noundef, ptr noundef, ptr, i32 noundef, i32 noundef, ptr noundef) #1

; Function Attrs: mustprogress nounwind uwtable
define dso_local void @_ZN4node6crypto4Sign3NewERKN2v820FunctionCallbackInfoINS2_5ValueEEE(ptr noundef nonnull align 8 dereferenceable(20) %args) #4 align 2 {
entry:
  %this.addr.i.i.i = alloca ptr, align 8
  %location.addr.i.i.i = alloca ptr, align 8
  %this.addr.i.i10 = alloca ptr, align 8
  %location.addr.i.i = alloca ptr, align 8
  %retval.i11 = alloca %"class.v8::LocalBase", align 8
  %slot.addr.i12 = alloca ptr, align 8
  %this.addr.i.i = alloca ptr, align 8
  %other.addr.i.i = alloca ptr, align 8
  %retval.i8 = alloca %"class.v8::Local", align 8
  %slot.addr.i = alloca ptr, align 8
  %ref.tmp.i = alloca %"class.v8::LocalBase", align 8
  %retval.i = alloca %"class.v8::Local", align 8
  %this.addr.i = alloca ptr, align 8
  %args.addr = alloca ptr, align 8
  %env = alloca ptr, align 8
  %agg.tmp = alloca %"class.v8::Local", align 8
  store ptr %args, ptr %args.addr, align 8
  %0 = load ptr, ptr %args.addr, align 8
  %call = call noundef ptr @_ZN4node11Environment10GetCurrentERKN2v820FunctionCallbackInfoINS1_5ValueEEE(ptr noundef nonnull align 8 dereferenceable(20) %0)
  store ptr %call, ptr %env, align 8
  %call1 = call noalias noundef nonnull ptr @_Znwm(i64 noundef 40) #17
  %1 = load ptr, ptr %env, align 8
  %2 = load ptr, ptr %args.addr, align 8
  store ptr %2, ptr %this.addr.i, align 8
  %this1.i = load ptr, ptr %this.addr.i, align 8
  %values_.i = getelementptr inbounds %"class.v8::FunctionCallbackInfo", ptr %this1.i, i32 0, i32 1
  %3 = load ptr, ptr %values_.i, align 8
  %add.ptr.i = getelementptr inbounds i64, ptr %3, i64 -1
  store ptr %add.ptr.i, ptr %slot.addr.i, align 8
  %4 = load ptr, ptr %slot.addr.i, align 8
  store ptr %4, ptr %slot.addr.i12, align 8
  %5 = load ptr, ptr %slot.addr.i12, align 8
  store ptr %retval.i11, ptr %this.addr.i.i10, align 8
  store ptr %5, ptr %location.addr.i.i, align 8
  %this1.i.i13 = load ptr, ptr %this.addr.i.i10, align 8
  %6 = load ptr, ptr %location.addr.i.i, align 8
  store ptr %this1.i.i13, ptr %this.addr.i.i.i, align 8
  store ptr %6, ptr %location.addr.i.i.i, align 8
  %this1.i.i.i = load ptr, ptr %this.addr.i.i.i, align 8
  %7 = load ptr, ptr %location.addr.i.i.i, align 8
  store ptr %7, ptr %this1.i.i.i, align 8
  %8 = load ptr, ptr %retval.i11, align 8
  store ptr %8, ptr %ref.tmp.i, align 8
  store ptr %retval.i8, ptr %this.addr.i.i, align 8
  store ptr %ref.tmp.i, ptr %other.addr.i.i, align 8
  %this1.i.i = load ptr, ptr %this.addr.i.i, align 8
  %9 = load ptr, ptr %other.addr.i.i, align 8
  call void @llvm.memcpy.p0.p0.i64(ptr align 8 %this1.i.i, ptr align 8 %9, i64 8, i1 false)
  %10 = load ptr, ptr %retval.i8, align 8
  store ptr %10, ptr %retval.i, align 8
  %11 = load ptr, ptr %retval.i, align 8
  %coerce.dive = getelementptr inbounds %"class.v8::Local", ptr %agg.tmp, i32 0, i32 0
  %coerce.dive3 = getelementptr inbounds %"class.v8::LocalBase", ptr %coerce.dive, i32 0, i32 0
  %coerce.dive4 = getelementptr inbounds %"class.v8::IndirectHandleBase", ptr %coerce.dive3, i32 0, i32 0
  store ptr %11, ptr %coerce.dive4, align 8
  %coerce.dive5 = getelementptr inbounds %"class.v8::Local", ptr %agg.tmp, i32 0, i32 0
  %coerce.dive6 = getelementptr inbounds %"class.v8::LocalBase", ptr %coerce.dive5, i32 0, i32 0
  %coerce.dive7 = getelementptr inbounds %"class.v8::IndirectHandleBase", ptr %coerce.dive6, i32 0, i32 0
  %12 = load ptr, ptr %coerce.dive7, align 8
  call void @_ZN4node6crypto4SignC1EPNS_11EnvironmentEN2v85LocalINS4_6ObjectEEE(ptr noundef nonnull align 8 dereferenceable(40) %call1, ptr noundef %1, ptr %12)
  ret void
}

; Function Attrs: nocallback nofree nounwind willreturn memory(argmem: write)
declare void @llvm.memset.p0.i64(ptr nocapture writeonly, i8, i64, i1 immarg) #8

declare ptr @_ZN2v816FunctionTemplate16InstanceTemplateEv(ptr noundef nonnull align 1 dereferenceable(1)) #1

declare void @_ZN2v814ObjectTemplate21SetInternalFieldCountEi(ptr noundef nonnull align 1 dereferenceable(1), i32 noundef) #1

declare void @_ZN4node14SetProtoMethodEPN2v87IsolateENS0_5LocalINS0_16FunctionTemplateEEESt17basic_string_viewIcSt11char_traitsIcEEPFvRKNS0_20FunctionCallbackInfoINS0_5ValueEEEE(ptr noundef, ptr, i64, ptr, ptr noundef) #1

; Function Attrs: mustprogress nounwind uwtable
define linkonce_odr dso_local void @_ZNSt17basic_string_viewIcSt11char_traitsIcEEC2EPKc(ptr noundef nonnull align 8 dereferenceable(16) %this, ptr noundef nonnull %__str) unnamed_addr #4 comdat align 2 {
entry:
  %this.addr = alloca ptr, align 8
  %__str.addr = alloca ptr, align 8
  store ptr %this, ptr %this.addr, align 8
  store ptr %__str, ptr %__str.addr, align 8
  %this1 = load ptr, ptr %this.addr, align 8
  %_M_len = getelementptr inbounds %"class.std::basic_string_view", ptr %this1, i32 0, i32 0
  %0 = load ptr, ptr %__str.addr, align 8
  %call = call noundef i64 @_ZNSt11char_traitsIcE6lengthEPKc(ptr noundef %0)
  store i64 %call, ptr %_M_len, align 8
  %_M_str = getelementptr inbounds %"class.std::basic_string_view", ptr %this1, i32 0, i32 1
  %1 = load ptr, ptr %__str.addr, align 8
  store ptr %1, ptr %_M_str, align 8
  ret void
}

; Function Attrs: mustprogress nounwind uwtable
define dso_local void @_ZN4node6crypto4Sign8SignInitERKN2v820FunctionCallbackInfoINS2_5ValueEEE(ptr noundef nonnull align 8 dereferenceable(20) %args) #4 align 2 {
entry:
  %this.addr.i.i.i = alloca ptr, align 8
  %location.addr.i.i.i = alloca ptr, align 8
  %this.addr.i.i70 = alloca ptr, align 8
  %location.addr.i.i71 = alloca ptr, align 8
  %retval.i72 = alloca %"class.v8::LocalBase", align 8
  %slot.addr.i73 = alloca ptr, align 8
  %this.addr.i.i64 = alloca ptr, align 8
  %other.addr.i.i = alloca ptr, align 8
  %retval.i65 = alloca %"class.v8::Local", align 8
  %slot.addr.i66 = alloca ptr, align 8
  %ref.tmp.i67 = alloca %"class.v8::LocalBase", align 8
  %this.addr.i61 = alloca ptr, align 8
  %other.addr.i62 = alloca ptr, align 8
  %this.addr.i.i55 = alloca ptr, align 8
  %location.addr.i.i56 = alloca ptr, align 8
  %this.addr.i57 = alloca ptr, align 8
  %location.addr.i58 = alloca ptr, align 8
  %this.addr.i52 = alloca ptr, align 8
  %other.addr.i53 = alloca ptr, align 8
  %retval.i50 = alloca %"class.v8::LocalBase.299", align 8
  %slot.addr.i51 = alloca ptr, align 8
  %this.addr.i47 = alloca ptr, align 8
  %other.addr.i48 = alloca ptr, align 8
  %this.addr.i.i43 = alloca ptr, align 8
  %location.addr.i.i = alloca ptr, align 8
  %this.addr.i44 = alloca ptr, align 8
  %location.addr.i = alloca ptr, align 8
  %this.addr.i41 = alloca ptr, align 8
  %other.addr.i = alloca ptr, align 8
  %retval.i39 = alloca %"class.v8::LocalBase.472", align 8
  %slot.addr.i40 = alloca ptr, align 8
  %retval.i35 = alloca %"class.v8::Local.471", align 8
  %slot.addr.i36 = alloca ptr, align 8
  %ref.tmp.i37 = alloca %"class.v8::LocalBase.472", align 8
  %retval.i33 = alloca %"class.v8::Local.298", align 8
  %slot.addr.i = alloca ptr, align 8
  %ref.tmp.i = alloca %"class.v8::LocalBase.299", align 8
  %that.i30 = alloca %"class.v8::Local.471", align 8
  %this.addr.i31 = alloca ptr, align 8
  %isolate.addr.i7.i = alloca ptr, align 8
  %index.addr.i.i = alloca i32, align 4
  %addr.i.i = alloca i64, align 8
  %isolate.addr.i.i = alloca ptr, align 8
  %retval.i29 = alloca %"class.v8::Local.471", align 8
  %isolate.addr.i = alloca ptr, align 8
  %slot.i = alloca ptr, align 8
  %this.addr.i.i = alloca ptr, align 8
  %retval.i26 = alloca %"class.v8::Local.298", align 8
  %this.addr.i27 = alloca ptr, align 8
  %i.addr.i = alloca i32, align 4
  %agg.tmp.i = alloca %"class.v8::Local.471", align 8
  %this.addr.i24 = alloca ptr, align 8
  %that.i = alloca %"class.v8::Local", align 8
  %this.addr.i23 = alloca ptr, align 8
  %retval.i = alloca %"class.v8::Local", align 8
  %this.addr.i = alloca ptr, align 8
  %args.addr = alloca ptr, align 8
  %env = alloca ptr, align 8
  %sign = alloca ptr, align 8
  %agg.tmp = alloca %"class.v8::Local.298", align 8
  %agg.tmp1 = alloca %"class.v8::Local", align 8
  %sign_type = alloca %"class.node::Utf8Value", align 8
  %agg.tmp13 = alloca %"class.v8::Local.298", align 8
  store ptr %args, ptr %args.addr, align 8
  %0 = load ptr, ptr %args.addr, align 8
  %call = call noundef ptr @_ZN4node11Environment10GetCurrentERKN2v820FunctionCallbackInfoINS1_5ValueEEE(ptr noundef nonnull align 8 dereferenceable(20) %0)
  store ptr %call, ptr %env, align 8
  br label %do.body

do.body:                                          ; preds = %entry
  %1 = load ptr, ptr %args.addr, align 8
  store ptr %1, ptr %this.addr.i, align 8
  %this1.i = load ptr, ptr %this.addr.i, align 8
  %2 = load ptr, ptr %this1.i, align 8
  store ptr %2, ptr %slot.addr.i66, align 8
  %3 = load ptr, ptr %slot.addr.i66, align 8
  store ptr %3, ptr %slot.addr.i73, align 8
  %4 = load ptr, ptr %slot.addr.i73, align 8
  store ptr %retval.i72, ptr %this.addr.i.i70, align 8
  store ptr %4, ptr %location.addr.i.i71, align 8
  %this1.i.i74 = load ptr, ptr %this.addr.i.i70, align 8
  %5 = load ptr, ptr %location.addr.i.i71, align 8
  store ptr %this1.i.i74, ptr %this.addr.i.i.i, align 8
  store ptr %5, ptr %location.addr.i.i.i, align 8
  %this1.i.i.i = load ptr, ptr %this.addr.i.i.i, align 8
  %6 = load ptr, ptr %location.addr.i.i.i, align 8
  store ptr %6, ptr %this1.i.i.i, align 8
  %7 = load ptr, ptr %retval.i72, align 8
  store ptr %7, ptr %ref.tmp.i67, align 8
  store ptr %retval.i65, ptr %this.addr.i.i64, align 8
  store ptr %ref.tmp.i67, ptr %other.addr.i.i, align 8
  %this1.i.i69 = load ptr, ptr %this.addr.i.i64, align 8
  %8 = load ptr, ptr %other.addr.i.i, align 8
  call void @llvm.memcpy.p0.p0.i64(ptr align 8 %this1.i.i69, ptr align 8 %8, i64 8, i1 false)
  %9 = load ptr, ptr %retval.i65, align 8
  store ptr %9, ptr %retval.i, align 8
  %10 = load ptr, ptr %retval.i, align 8
  %coerce.dive = getelementptr inbounds %"class.v8::Local", ptr %agg.tmp1, i32 0, i32 0
  %coerce.dive3 = getelementptr inbounds %"class.v8::LocalBase", ptr %coerce.dive, i32 0, i32 0
  %coerce.dive4 = getelementptr inbounds %"class.v8::IndirectHandleBase", ptr %coerce.dive3, i32 0, i32 0
  store ptr %10, ptr %coerce.dive4, align 8
  %coerce.dive5 = getelementptr inbounds %"class.v8::Local", ptr %agg.tmp1, i32 0, i32 0
  %coerce.dive6 = getelementptr inbounds %"class.v8::LocalBase", ptr %coerce.dive5, i32 0, i32 0
  %coerce.dive7 = getelementptr inbounds %"class.v8::IndirectHandleBase", ptr %coerce.dive6, i32 0, i32 0
  %11 = load ptr, ptr %coerce.dive7, align 8
  store ptr %11, ptr %that.i, align 8
  store ptr %agg.tmp, ptr %this.addr.i23, align 8
  %this3.i = load ptr, ptr %this.addr.i23, align 8
  store ptr %this3.i, ptr %this.addr.i61, align 8
  store ptr %that.i, ptr %other.addr.i62, align 8
  %this1.i63 = load ptr, ptr %this.addr.i61, align 8
  %12 = load ptr, ptr %other.addr.i62, align 8
  call void @llvm.memcpy.p0.p0.i64(ptr align 8 %this1.i63, ptr align 8 %12, i64 8, i1 false)
  %coerce.dive8 = getelementptr inbounds %"class.v8::Local.298", ptr %agg.tmp, i32 0, i32 0
  %coerce.dive9 = getelementptr inbounds %"class.v8::LocalBase.299", ptr %coerce.dive8, i32 0, i32 0
  %coerce.dive10 = getelementptr inbounds %"class.v8::IndirectHandleBase", ptr %coerce.dive9, i32 0, i32 0
  %13 = load ptr, ptr %coerce.dive10, align 8
  %call11 = call noundef ptr @_ZN4node10BaseObject12FromJSObjectEN2v85LocalINS1_5ValueEEE(ptr %13)
  store ptr %call11, ptr %sign, align 8
  %14 = load ptr, ptr %sign, align 8
  %cmp = icmp eq ptr %14, null
  br i1 %cmp, label %if.then, label %if.end

if.then:                                          ; preds = %do.body
  br label %return

if.end:                                           ; preds = %do.body
  br label %do.end

do.end:                                           ; preds = %if.end
  %15 = load ptr, ptr %args.addr, align 8
  store ptr %15, ptr %this.addr.i24, align 8
  %this1.i25 = load ptr, ptr %this.addr.i24, align 8
  %16 = load ptr, ptr %this1.i25, align 8
  %arrayidx.i = getelementptr inbounds i64, ptr %16, i64 1
  %17 = load ptr, ptr %arrayidx.i, align 8
  %18 = load ptr, ptr %args.addr, align 8
  store ptr %18, ptr %this.addr.i27, align 8
  store i32 0, ptr %i.addr.i, align 4
  %this1.i28 = load ptr, ptr %this.addr.i27, align 8
  %19 = load i32, ptr %i.addr.i, align 4
  %cmp.i = icmp slt i32 %19, 0
  br i1 %cmp.i, label %if.then.i, label %lor.lhs.false.i

lor.lhs.false.i:                                  ; preds = %do.end
  %length_.i = getelementptr inbounds %"class.v8::FunctionCallbackInfo", ptr %this1.i28, i32 0, i32 2
  %20 = load i32, ptr %length_.i, align 8
  %21 = load i32, ptr %i.addr.i, align 4
  %cmp2.i = icmp sle i32 %20, %21
  br i1 %cmp2.i, label %if.then.i, label %if.end.i

if.then.i:                                        ; preds = %lor.lhs.false.i, %do.end
  store ptr %this1.i28, ptr %this.addr.i.i, align 8
  %this1.i.i = load ptr, ptr %this.addr.i.i, align 8
  %22 = load ptr, ptr %this1.i.i, align 8
  %arrayidx.i.i = getelementptr inbounds i64, ptr %22, i64 1
  %23 = load ptr, ptr %arrayidx.i.i, align 8
  store ptr %23, ptr %isolate.addr.i, align 8
  %24 = load ptr, ptr %isolate.addr.i, align 8
  store ptr %24, ptr %isolate.addr.i.i, align 8
  %25 = load ptr, ptr %isolate.addr.i, align 8
  store ptr %25, ptr %isolate.addr.i7.i, align 8
  store i32 4, ptr %index.addr.i.i, align 4
  %26 = load ptr, ptr %isolate.addr.i7.i, align 8
  %27 = ptrtoint ptr %26 to i64
  %add.i.i = add i64 %27, 576
  %28 = load i32, ptr %index.addr.i.i, align 4
  %mul.i.i = mul nsw i32 %28, 8
  %conv.i.i = sext i32 %mul.i.i to i64
  %add1.i.i = add i64 %add.i.i, %conv.i.i
  store i64 %add1.i.i, ptr %addr.i.i, align 8
  %29 = load i64, ptr %addr.i.i, align 8
  %30 = inttoptr i64 %29 to ptr
  store ptr %30, ptr %slot.i, align 8
  %31 = load ptr, ptr %slot.i, align 8
  store ptr %31, ptr %slot.addr.i36, align 8
  %32 = load ptr, ptr %slot.addr.i36, align 8
  store ptr %32, ptr %slot.addr.i40, align 8
  %33 = load ptr, ptr %slot.addr.i40, align 8
  store ptr %retval.i39, ptr %this.addr.i44, align 8
  store ptr %33, ptr %location.addr.i, align 8
  %this1.i45 = load ptr, ptr %this.addr.i44, align 8
  %34 = load ptr, ptr %location.addr.i, align 8
  store ptr %this1.i45, ptr %this.addr.i.i43, align 8
  store ptr %34, ptr %location.addr.i.i, align 8
  %this1.i.i46 = load ptr, ptr %this.addr.i.i43, align 8
  %35 = load ptr, ptr %location.addr.i.i, align 8
  store ptr %35, ptr %this1.i.i46, align 8
  %36 = load ptr, ptr %retval.i39, align 8
  store ptr %36, ptr %ref.tmp.i37, align 8
  store ptr %retval.i35, ptr %this.addr.i41, align 8
  store ptr %ref.tmp.i37, ptr %other.addr.i, align 8
  %this1.i42 = load ptr, ptr %this.addr.i41, align 8
  %37 = load ptr, ptr %other.addr.i, align 8
  call void @llvm.memcpy.p0.p0.i64(ptr align 8 %this1.i42, ptr align 8 %37, i64 8, i1 false)
  %38 = load ptr, ptr %retval.i35, align 8
  store ptr %38, ptr %retval.i29, align 8
  %39 = load ptr, ptr %retval.i29, align 8
  store ptr %39, ptr %agg.tmp.i, align 8
  %40 = load ptr, ptr %agg.tmp.i, align 8
  store ptr %40, ptr %that.i30, align 8
  store ptr %retval.i26, ptr %this.addr.i31, align 8
  %this3.i32 = load ptr, ptr %this.addr.i31, align 8
  store ptr %this3.i32, ptr %this.addr.i47, align 8
  store ptr %that.i30, ptr %other.addr.i48, align 8
  %this1.i49 = load ptr, ptr %this.addr.i47, align 8
  %41 = load ptr, ptr %other.addr.i48, align 8
  call void @llvm.memcpy.p0.p0.i64(ptr align 8 %this1.i49, ptr align 8 %41, i64 8, i1 false)
  br label %_ZNK2v820FunctionCallbackInfoINS_5ValueEEixEi.exit

if.end.i:                                         ; preds = %lor.lhs.false.i
  %values_.i = getelementptr inbounds %"class.v8::FunctionCallbackInfo", ptr %this1.i28, i32 0, i32 1
  %42 = load ptr, ptr %values_.i, align 8
  %43 = load i32, ptr %i.addr.i, align 4
  %idx.ext.i = sext i32 %43 to i64
  %add.ptr.i = getelementptr inbounds i64, ptr %42, i64 %idx.ext.i
  store ptr %add.ptr.i, ptr %slot.addr.i, align 8
  %44 = load ptr, ptr %slot.addr.i, align 8
  store ptr %44, ptr %slot.addr.i51, align 8
  %45 = load ptr, ptr %slot.addr.i51, align 8
  store ptr %retval.i50, ptr %this.addr.i57, align 8
  store ptr %45, ptr %location.addr.i58, align 8
  %this1.i59 = load ptr, ptr %this.addr.i57, align 8
  %46 = load ptr, ptr %location.addr.i58, align 8
  store ptr %this1.i59, ptr %this.addr.i.i55, align 8
  store ptr %46, ptr %location.addr.i.i56, align 8
  %this1.i.i60 = load ptr, ptr %this.addr.i.i55, align 8
  %47 = load ptr, ptr %location.addr.i.i56, align 8
  store ptr %47, ptr %this1.i.i60, align 8
  %48 = load ptr, ptr %retval.i50, align 8
  store ptr %48, ptr %ref.tmp.i, align 8
  store ptr %retval.i33, ptr %this.addr.i52, align 8
  store ptr %ref.tmp.i, ptr %other.addr.i53, align 8
  %this1.i54 = load ptr, ptr %this.addr.i52, align 8
  %49 = load ptr, ptr %other.addr.i53, align 8
  call void @llvm.memcpy.p0.p0.i64(ptr align 8 %this1.i54, ptr align 8 %49, i64 8, i1 false)
  %50 = load ptr, ptr %retval.i33, align 8
  store ptr %50, ptr %retval.i26, align 8
  br label %_ZNK2v820FunctionCallbackInfoINS_5ValueEEixEi.exit

_ZNK2v820FunctionCallbackInfoINS_5ValueEEixEi.exit: ; preds = %if.end.i, %if.then.i
  %51 = load ptr, ptr %retval.i26, align 8
  %coerce.dive15 = getelementptr inbounds %"class.v8::Local.298", ptr %agg.tmp13, i32 0, i32 0
  %coerce.dive16 = getelementptr inbounds %"class.v8::LocalBase.299", ptr %coerce.dive15, i32 0, i32 0
  %coerce.dive17 = getelementptr inbounds %"class.v8::IndirectHandleBase", ptr %coerce.dive16, i32 0, i32 0
  store ptr %51, ptr %coerce.dive17, align 8
  %coerce.dive18 = getelementptr inbounds %"class.v8::Local.298", ptr %agg.tmp13, i32 0, i32 0
  %coerce.dive19 = getelementptr inbounds %"class.v8::LocalBase.299", ptr %coerce.dive18, i32 0, i32 0
  %coerce.dive20 = getelementptr inbounds %"class.v8::IndirectHandleBase", ptr %coerce.dive19, i32 0, i32 0
  %52 = load ptr, ptr %coerce.dive20, align 8
  call void @_ZN4node9Utf8ValueC1EPN2v87IsolateENS1_5LocalINS1_5ValueEEE(ptr noundef nonnull align 8 dereferenceable(1048) %sign_type, ptr noundef %17, ptr %52)
  %53 = load ptr, ptr %env, align 8
  %54 = load ptr, ptr %sign, align 8
  %call21 = call noundef ptr @_ZNK4node16MaybeStackBufferIcLm1024EEdeEv(ptr noundef nonnull align 8 dereferenceable(1048) %sign_type)
  %call22 = call noundef i32 @_ZN4node6crypto8SignBase4InitEPKc(ptr noundef nonnull align 8 dereferenceable(40) %54, ptr noundef %call21)
  call void @_ZN4node6crypto12_GLOBAL__N_110CheckThrowEPNS_11EnvironmentENS0_8SignBase5ErrorE(ptr noundef %53, i32 noundef %call22)
  call void @_ZN4node9Utf8ValueD2Ev(ptr noundef nonnull align 8 dereferenceable(1048) %sign_type) #3
  br label %return

return:                                           ; preds = %_ZNK2v820FunctionCallbackInfoINS_5ValueEEixEi.exit, %if.then
  ret void
}

; Function Attrs: mustprogress nounwind uwtable
define dso_local void @_ZN4node6crypto4Sign10SignUpdateERKN2v820FunctionCallbackInfoINS2_5ValueEEE(ptr noundef nonnull align 8 dereferenceable(20) %args) #4 align 2 {
entry:
  %args.addr = alloca ptr, align 8
  %ref.tmp = alloca %class.anon, align 1
  store ptr %args, ptr %args.addr, align 8
  %0 = load ptr, ptr %args.addr, align 8
  %call = call noundef ptr @"_ZZN4node6crypto4Sign10SignUpdateERKN2v820FunctionCallbackInfoINS2_5ValueEEEENK3$_0cvPFvPS1_S7_PKcmEEv"(ptr noundef nonnull align 1 dereferenceable(1) %ref.tmp) #3
  call void @_ZN4node6crypto6DecodeINS0_4SignEEEvRKN2v820FunctionCallbackInfoINS3_5ValueEEEPFvPT_S8_PKcmE(ptr noundef nonnull align 8 dereferenceable(20) %0, ptr noundef %call)
  ret void
}

; Function Attrs: mustprogress nounwind uwtable
define dso_local void @_ZN4node6crypto4Sign9SignFinalERKN2v820FunctionCallbackInfoINS2_5ValueEEE(ptr noundef nonnull align 8 dereferenceable(20) %args) #4 align 2 {
entry:
  %this.addr.i946 = alloca ptr, align 8
  %other.addr.i947 = alloca ptr, align 8
  %that.i943 = alloca %"class.v8::Local.333", align 8
  %this.addr.i944 = alloca ptr, align 8
  %this.addr.i.i939 = alloca ptr, align 8
  %this.addr.i940 = alloca ptr, align 8
  %slot.addr.i938 = alloca ptr, align 8
  %this.addr.i.i934 = alloca ptr, align 8
  %this.addr.i935 = alloca ptr, align 8
  %this.addr.i931 = alloca ptr, align 8
  %slot.addr.i932 = alloca ptr, align 8
  %slot.addr.i930 = alloca ptr, align 8
  %slot.addr.i929 = alloca ptr, align 8
  %slot.addr.i928 = alloca ptr, align 8
  %this.addr.i.i923 = alloca ptr, align 8
  %this.addr.i924 = alloca ptr, align 8
  %this.addr.i.i918 = alloca ptr, align 8
  %this.addr.i919 = alloca ptr, align 8
  %this.addr.i.i914 = alloca ptr, align 8
  %this.addr.i915 = alloca ptr, align 8
  %this.addr.i911 = alloca ptr, align 8
  %other.addr.i912 = alloca ptr, align 8
  %this.addr.i908 = alloca ptr, align 8
  %other.addr.i909 = alloca ptr, align 8
  %this.addr.i905 = alloca ptr, align 8
  %other.addr.i906 = alloca ptr, align 8
  %this.addr.i902 = alloca ptr, align 8
  %other.addr.i903 = alloca ptr, align 8
  %this.addr.i899 = alloca ptr, align 8
  %other.addr.i900 = alloca ptr, align 8
  %this.addr.i896 = alloca ptr, align 8
  %other.addr.i897 = alloca ptr, align 8
  %retval.i893 = alloca %"class.v8::Local.325", align 8
  %that.i894 = alloca %"class.v8::Local.298", align 8
  %ref.tmp.i895 = alloca %"class.v8::LocalBase.326", align 8
  %retval.i890 = alloca %"class.v8::Local.325", align 8
  %that.i891 = alloca %"class.v8::Local.298", align 8
  %ref.tmp.i892 = alloca %"class.v8::LocalBase.326", align 8
  %retval.i887 = alloca %"class.v8::Local.325", align 8
  %that.i888 = alloca %"class.v8::Local.298", align 8
  %ref.tmp.i889 = alloca %"class.v8::LocalBase.326", align 8
  %this.addr.i.i.i = alloca ptr, align 8
  %location.addr.i.i.i = alloca ptr, align 8
  %this.addr.i.i882 = alloca ptr, align 8
  %location.addr.i.i883 = alloca ptr, align 8
  %retval.i884 = alloca %"class.v8::LocalBase", align 8
  %slot.addr.i885 = alloca ptr, align 8
  %this.addr.i.i876 = alloca ptr, align 8
  %other.addr.i.i = alloca ptr, align 8
  %retval.i877 = alloca %"class.v8::Local", align 8
  %slot.addr.i878 = alloca ptr, align 8
  %ref.tmp.i879 = alloca %"class.v8::LocalBase", align 8
  %this.addr.i873 = alloca ptr, align 8
  %isolate.addr.i.i865 = alloca ptr, align 8
  %index.addr.i.i866 = alloca i32, align 4
  %addr.i.i867 = alloca i64, align 8
  %isolate.addr.i868 = alloca ptr, align 8
  %index.addr.i = alloca i32, align 4
  %this.addr.i863 = alloca ptr, align 8
  %this.addr.i860 = alloca ptr, align 8
  %this.addr.i857 = alloca ptr, align 8
  %other.addr.i858 = alloca ptr, align 8
  %slot.addr.i856 = alloca ptr, align 8
  %slot.addr.i855 = alloca ptr, align 8
  %slot.addr.i854 = alloca ptr, align 8
  %slot.addr.i853 = alloca ptr, align 8
  %slot.addr.i852 = alloca ptr, align 8
  %this.addr.i.i847 = alloca ptr, align 8
  %this.addr.i848 = alloca ptr, align 8
  %this.addr.i.i842 = alloca ptr, align 8
  %this.addr.i843 = alloca ptr, align 8
  %this.addr.i.i837 = alloca ptr, align 8
  %this.addr.i838 = alloca ptr, align 8
  %this.addr.i.i832 = alloca ptr, align 8
  %this.addr.i833 = alloca ptr, align 8
  %this.addr.i.i828 = alloca ptr, align 8
  %this.addr.i829 = alloca ptr, align 8
  %this.addr.i.i822 = alloca ptr, align 8
  %location.addr.i.i823 = alloca ptr, align 8
  %this.addr.i824 = alloca ptr, align 8
  %location.addr.i825 = alloca ptr, align 8
  %this.addr.i.i816 = alloca ptr, align 8
  %location.addr.i.i817 = alloca ptr, align 8
  %this.addr.i818 = alloca ptr, align 8
  %location.addr.i819 = alloca ptr, align 8
  %this.addr.i.i810 = alloca ptr, align 8
  %location.addr.i.i811 = alloca ptr, align 8
  %this.addr.i812 = alloca ptr, align 8
  %location.addr.i813 = alloca ptr, align 8
  %this.addr.i.i804 = alloca ptr, align 8
  %location.addr.i.i805 = alloca ptr, align 8
  %this.addr.i806 = alloca ptr, align 8
  %location.addr.i807 = alloca ptr, align 8
  %this.addr.i.i798 = alloca ptr, align 8
  %location.addr.i.i799 = alloca ptr, align 8
  %this.addr.i800 = alloca ptr, align 8
  %location.addr.i801 = alloca ptr, align 8
  %this.addr.i.i792 = alloca ptr, align 8
  %location.addr.i.i793 = alloca ptr, align 8
  %this.addr.i794 = alloca ptr, align 8
  %location.addr.i795 = alloca ptr, align 8
  %this.addr.i.i786 = alloca ptr, align 8
  %location.addr.i.i787 = alloca ptr, align 8
  %this.addr.i788 = alloca ptr, align 8
  %location.addr.i789 = alloca ptr, align 8
  %this.addr.i.i780 = alloca ptr, align 8
  %location.addr.i.i781 = alloca ptr, align 8
  %this.addr.i782 = alloca ptr, align 8
  %location.addr.i783 = alloca ptr, align 8
  %this.addr.i777 = alloca ptr, align 8
  %other.addr.i778 = alloca ptr, align 8
  %this.addr.i774 = alloca ptr, align 8
  %other.addr.i775 = alloca ptr, align 8
  %this.addr.i771 = alloca ptr, align 8
  %other.addr.i772 = alloca ptr, align 8
  %this.addr.i768 = alloca ptr, align 8
  %other.addr.i769 = alloca ptr, align 8
  %this.addr.i765 = alloca ptr, align 8
  %other.addr.i766 = alloca ptr, align 8
  %this.addr.i762 = alloca ptr, align 8
  %other.addr.i763 = alloca ptr, align 8
  %this.addr.i759 = alloca ptr, align 8
  %other.addr.i760 = alloca ptr, align 8
  %this.addr.i756 = alloca ptr, align 8
  %other.addr.i757 = alloca ptr, align 8
  %retval.i754 = alloca %"class.v8::LocalBase.299", align 8
  %slot.addr.i755 = alloca ptr, align 8
  %retval.i752 = alloca %"class.v8::LocalBase.299", align 8
  %slot.addr.i753 = alloca ptr, align 8
  %retval.i750 = alloca %"class.v8::LocalBase.299", align 8
  %slot.addr.i751 = alloca ptr, align 8
  %retval.i748 = alloca %"class.v8::LocalBase.299", align 8
  %slot.addr.i749 = alloca ptr, align 8
  %retval.i746 = alloca %"class.v8::LocalBase.299", align 8
  %slot.addr.i747 = alloca ptr, align 8
  %retval.i744 = alloca %"class.v8::LocalBase.299", align 8
  %slot.addr.i745 = alloca ptr, align 8
  %retval.i742 = alloca %"class.v8::LocalBase.299", align 8
  %slot.addr.i743 = alloca ptr, align 8
  %retval.i740 = alloca %"class.v8::LocalBase.299", align 8
  %slot.addr.i741 = alloca ptr, align 8
  %this.addr.i737 = alloca ptr, align 8
  %other.addr.i738 = alloca ptr, align 8
  %this.addr.i734 = alloca ptr, align 8
  %other.addr.i735 = alloca ptr, align 8
  %this.addr.i731 = alloca ptr, align 8
  %other.addr.i732 = alloca ptr, align 8
  %this.addr.i728 = alloca ptr, align 8
  %other.addr.i729 = alloca ptr, align 8
  %this.addr.i725 = alloca ptr, align 8
  %other.addr.i726 = alloca ptr, align 8
  %this.addr.i722 = alloca ptr, align 8
  %other.addr.i723 = alloca ptr, align 8
  %this.addr.i719 = alloca ptr, align 8
  %other.addr.i720 = alloca ptr, align 8
  %this.addr.i716 = alloca ptr, align 8
  %other.addr.i717 = alloca ptr, align 8
  %this.addr.i.i710 = alloca ptr, align 8
  %location.addr.i.i711 = alloca ptr, align 8
  %this.addr.i712 = alloca ptr, align 8
  %location.addr.i713 = alloca ptr, align 8
  %this.addr.i.i704 = alloca ptr, align 8
  %location.addr.i.i705 = alloca ptr, align 8
  %this.addr.i706 = alloca ptr, align 8
  %location.addr.i707 = alloca ptr, align 8
  %this.addr.i.i698 = alloca ptr, align 8
  %location.addr.i.i699 = alloca ptr, align 8
  %this.addr.i700 = alloca ptr, align 8
  %location.addr.i701 = alloca ptr, align 8
  %this.addr.i.i692 = alloca ptr, align 8
  %location.addr.i.i693 = alloca ptr, align 8
  %this.addr.i694 = alloca ptr, align 8
  %location.addr.i695 = alloca ptr, align 8
  %this.addr.i.i686 = alloca ptr, align 8
  %location.addr.i.i687 = alloca ptr, align 8
  %this.addr.i688 = alloca ptr, align 8
  %location.addr.i689 = alloca ptr, align 8
  %this.addr.i.i680 = alloca ptr, align 8
  %location.addr.i.i681 = alloca ptr, align 8
  %this.addr.i682 = alloca ptr, align 8
  %location.addr.i683 = alloca ptr, align 8
  %this.addr.i.i674 = alloca ptr, align 8
  %location.addr.i.i675 = alloca ptr, align 8
  %this.addr.i676 = alloca ptr, align 8
  %location.addr.i677 = alloca ptr, align 8
  %this.addr.i.i670 = alloca ptr, align 8
  %location.addr.i.i = alloca ptr, align 8
  %this.addr.i671 = alloca ptr, align 8
  %location.addr.i = alloca ptr, align 8
  %this.addr.i667 = alloca ptr, align 8
  %other.addr.i668 = alloca ptr, align 8
  %this.addr.i664 = alloca ptr, align 8
  %other.addr.i665 = alloca ptr, align 8
  %this.addr.i661 = alloca ptr, align 8
  %other.addr.i662 = alloca ptr, align 8
  %this.addr.i658 = alloca ptr, align 8
  %other.addr.i659 = alloca ptr, align 8
  %this.addr.i655 = alloca ptr, align 8
  %other.addr.i656 = alloca ptr, align 8
  %this.addr.i652 = alloca ptr, align 8
  %other.addr.i653 = alloca ptr, align 8
  %this.addr.i649 = alloca ptr, align 8
  %other.addr.i650 = alloca ptr, align 8
  %this.addr.i647 = alloca ptr, align 8
  %other.addr.i = alloca ptr, align 8
  %retval.i645 = alloca %"class.v8::LocalBase.472", align 8
  %slot.addr.i646 = alloca ptr, align 8
  %retval.i643 = alloca %"class.v8::LocalBase.472", align 8
  %slot.addr.i644 = alloca ptr, align 8
  %retval.i641 = alloca %"class.v8::LocalBase.472", align 8
  %slot.addr.i642 = alloca ptr, align 8
  %retval.i639 = alloca %"class.v8::LocalBase.472", align 8
  %slot.addr.i640 = alloca ptr, align 8
  %retval.i637 = alloca %"class.v8::LocalBase.472", align 8
  %slot.addr.i638 = alloca ptr, align 8
  %retval.i635 = alloca %"class.v8::LocalBase.472", align 8
  %slot.addr.i636 = alloca ptr, align 8
  %retval.i633 = alloca %"class.v8::LocalBase.472", align 8
  %slot.addr.i634 = alloca ptr, align 8
  %retval.i631 = alloca %"class.v8::LocalBase.472", align 8
  %slot.addr.i632 = alloca ptr, align 8
  %retval.i627 = alloca %"class.v8::Local.471", align 8
  %slot.addr.i628 = alloca ptr, align 8
  %ref.tmp.i629 = alloca %"class.v8::LocalBase.472", align 8
  %retval.i623 = alloca %"class.v8::Local.471", align 8
  %slot.addr.i624 = alloca ptr, align 8
  %ref.tmp.i625 = alloca %"class.v8::LocalBase.472", align 8
  %retval.i619 = alloca %"class.v8::Local.471", align 8
  %slot.addr.i620 = alloca ptr, align 8
  %ref.tmp.i621 = alloca %"class.v8::LocalBase.472", align 8
  %retval.i615 = alloca %"class.v8::Local.471", align 8
  %slot.addr.i616 = alloca ptr, align 8
  %ref.tmp.i617 = alloca %"class.v8::LocalBase.472", align 8
  %retval.i611 = alloca %"class.v8::Local.471", align 8
  %slot.addr.i612 = alloca ptr, align 8
  %ref.tmp.i613 = alloca %"class.v8::LocalBase.472", align 8
  %retval.i607 = alloca %"class.v8::Local.471", align 8
  %slot.addr.i608 = alloca ptr, align 8
  %ref.tmp.i609 = alloca %"class.v8::LocalBase.472", align 8
  %retval.i603 = alloca %"class.v8::Local.471", align 8
  %slot.addr.i604 = alloca ptr, align 8
  %ref.tmp.i605 = alloca %"class.v8::LocalBase.472", align 8
  %retval.i599 = alloca %"class.v8::Local.471", align 8
  %slot.addr.i600 = alloca ptr, align 8
  %ref.tmp.i601 = alloca %"class.v8::LocalBase.472", align 8
  %retval.i595 = alloca %"class.v8::Local.298", align 8
  %slot.addr.i596 = alloca ptr, align 8
  %ref.tmp.i597 = alloca %"class.v8::LocalBase.299", align 8
  %retval.i591 = alloca %"class.v8::Local.298", align 8
  %slot.addr.i592 = alloca ptr, align 8
  %ref.tmp.i593 = alloca %"class.v8::LocalBase.299", align 8
  %retval.i587 = alloca %"class.v8::Local.298", align 8
  %slot.addr.i588 = alloca ptr, align 8
  %ref.tmp.i589 = alloca %"class.v8::LocalBase.299", align 8
  %retval.i583 = alloca %"class.v8::Local.298", align 8
  %slot.addr.i584 = alloca ptr, align 8
  %ref.tmp.i585 = alloca %"class.v8::LocalBase.299", align 8
  %retval.i579 = alloca %"class.v8::Local.298", align 8
  %slot.addr.i580 = alloca ptr, align 8
  %ref.tmp.i581 = alloca %"class.v8::LocalBase.299", align 8
  %retval.i575 = alloca %"class.v8::Local.298", align 8
  %slot.addr.i576 = alloca ptr, align 8
  %ref.tmp.i577 = alloca %"class.v8::LocalBase.299", align 8
  %retval.i571 = alloca %"class.v8::Local.298", align 8
  %slot.addr.i572 = alloca ptr, align 8
  %ref.tmp.i573 = alloca %"class.v8::LocalBase.299", align 8
  %retval.i569 = alloca %"class.v8::Local.298", align 8
  %slot.addr.i = alloca ptr, align 8
  %ref.tmp.i = alloca %"class.v8::LocalBase.299", align 8
  %that.i566 = alloca %"class.v8::Local.471", align 8
  %this.addr.i567 = alloca ptr, align 8
  %that.i563 = alloca %"class.v8::Local.471", align 8
  %this.addr.i564 = alloca ptr, align 8
  %that.i560 = alloca %"class.v8::Local.471", align 8
  %this.addr.i561 = alloca ptr, align 8
  %that.i557 = alloca %"class.v8::Local.471", align 8
  %this.addr.i558 = alloca ptr, align 8
  %that.i554 = alloca %"class.v8::Local.471", align 8
  %this.addr.i555 = alloca ptr, align 8
  %that.i551 = alloca %"class.v8::Local.471", align 8
  %this.addr.i552 = alloca ptr, align 8
  %that.i548 = alloca %"class.v8::Local.471", align 8
  %this.addr.i549 = alloca ptr, align 8
  %that.i545 = alloca %"class.v8::Local.471", align 8
  %this.addr.i546 = alloca ptr, align 8
  %isolate.addr.i7.i533 = alloca ptr, align 8
  %index.addr.i.i534 = alloca i32, align 4
  %addr.i.i535 = alloca i64, align 8
  %isolate.addr.i.i536 = alloca ptr, align 8
  %retval.i537 = alloca %"class.v8::Local.471", align 8
  %isolate.addr.i538 = alloca ptr, align 8
  %slot.i539 = alloca ptr, align 8
  %isolate.addr.i7.i521 = alloca ptr, align 8
  %index.addr.i.i522 = alloca i32, align 4
  %addr.i.i523 = alloca i64, align 8
  %isolate.addr.i.i524 = alloca ptr, align 8
  %retval.i525 = alloca %"class.v8::Local.471", align 8
  %isolate.addr.i526 = alloca ptr, align 8
  %slot.i527 = alloca ptr, align 8
  %isolate.addr.i7.i509 = alloca ptr, align 8
  %index.addr.i.i510 = alloca i32, align 4
  %addr.i.i511 = alloca i64, align 8
  %isolate.addr.i.i512 = alloca ptr, align 8
  %retval.i513 = alloca %"class.v8::Local.471", align 8
  %isolate.addr.i514 = alloca ptr, align 8
  %slot.i515 = alloca ptr, align 8
  %isolate.addr.i7.i497 = alloca ptr, align 8
  %index.addr.i.i498 = alloca i32, align 4
  %addr.i.i499 = alloca i64, align 8
  %isolate.addr.i.i500 = alloca ptr, align 8
  %retval.i501 = alloca %"class.v8::Local.471", align 8
  %isolate.addr.i502 = alloca ptr, align 8
  %slot.i503 = alloca ptr, align 8
  %isolate.addr.i7.i485 = alloca ptr, align 8
  %index.addr.i.i486 = alloca i32, align 4
  %addr.i.i487 = alloca i64, align 8
  %isolate.addr.i.i488 = alloca ptr, align 8
  %retval.i489 = alloca %"class.v8::Local.471", align 8
  %isolate.addr.i490 = alloca ptr, align 8
  %slot.i491 = alloca ptr, align 8
  %isolate.addr.i7.i473 = alloca ptr, align 8
  %index.addr.i.i474 = alloca i32, align 4
  %addr.i.i475 = alloca i64, align 8
  %isolate.addr.i.i476 = alloca ptr, align 8
  %retval.i477 = alloca %"class.v8::Local.471", align 8
  %isolate.addr.i478 = alloca ptr, align 8
  %slot.i479 = alloca ptr, align 8
  %isolate.addr.i7.i461 = alloca ptr, align 8
  %index.addr.i.i462 = alloca i32, align 4
  %addr.i.i463 = alloca i64, align 8
  %isolate.addr.i.i464 = alloca ptr, align 8
  %retval.i465 = alloca %"class.v8::Local.471", align 8
  %isolate.addr.i466 = alloca ptr, align 8
  %slot.i467 = alloca ptr, align 8
  %isolate.addr.i7.i = alloca ptr, align 8
  %index.addr.i.i = alloca i32, align 4
  %addr.i.i457 = alloca i64, align 8
  %isolate.addr.i.i = alloca ptr, align 8
  %retval.i458 = alloca %"class.v8::Local.471", align 8
  %isolate.addr.i = alloca ptr, align 8
  %slot.i = alloca ptr, align 8
  %this.addr.i.i453 = alloca ptr, align 8
  %this.addr.i454 = alloca ptr, align 8
  %value.addr.i448 = alloca i64, align 8
  %shift_bits.i449 = alloca i32, align 4
  %value.addr.i447 = alloca i64, align 8
  %shift_bits.i = alloca i32, align 4
  %heap_object_ptr.addr.i.i439 = alloca i64, align 8
  %offset.addr.i.i440 = alloca i32, align 4
  %addr.i.i441 = alloca i64, align 8
  %heap_object_ptr.addr.i442 = alloca i64, align 8
  %offset.addr.i443 = alloca i32, align 4
  %heap_object_ptr.addr.i.i433 = alloca i64, align 8
  %offset.addr.i.i434 = alloca i32, align 4
  %addr.i.i435 = alloca i64, align 8
  %heap_object_ptr.addr.i = alloca i64, align 8
  %offset.addr.i = alloca i32, align 4
  %value.addr.i431 = alloca i64, align 8
  %value.addr.i429 = alloca i64, align 8
  %obj.addr.i426 = alloca i64, align 8
  %obj.addr.i = alloca i64, align 8
  %value.addr.i422 = alloca i64, align 8
  %value.addr.i420 = alloca i64, align 8
  %value.addr.i419 = alloca ptr, align 8
  %value.addr.i = alloca ptr, align 8
  %heap_object_ptr.addr.i.i388 = alloca i64, align 8
  %offset.addr.i.i389 = alloca i32, align 4
  %addr.i.i390 = alloca i64, align 8
  %heap_object_ptr.addr.i2.i.i391 = alloca i64, align 8
  %offset.addr.i3.i.i392 = alloca i32, align 4
  %addr.i.i.i393 = alloca i64, align 8
  %heap_object_ptr.addr.i.i.i394 = alloca i64, align 8
  %offset.addr.i.i.i395 = alloca i32, align 4
  %obj.addr.i.i396 = alloca i64, align 8
  %map.i.i397 = alloca i64, align 8
  %retval.i398 = alloca i1, align 1
  %this.addr.i399 = alloca ptr, align 8
  %obj.i400 = alloca i64, align 8
  %heap_object_ptr.addr.i.i = alloca i64, align 8
  %offset.addr.i.i = alloca i32, align 4
  %addr.i.i = alloca i64, align 8
  %heap_object_ptr.addr.i2.i.i = alloca i64, align 8
  %offset.addr.i3.i.i = alloca i32, align 4
  %addr.i.i.i = alloca i64, align 8
  %heap_object_ptr.addr.i.i.i = alloca i64, align 8
  %offset.addr.i.i.i = alloca i32, align 4
  %obj.addr.i.i = alloca i64, align 8
  %map.i.i = alloca i64, align 8
  %retval.i380 = alloca i1, align 1
  %this.addr.i381 = alloca ptr, align 8
  %obj.i = alloca i64, align 8
  %this.addr.i377 = alloca ptr, align 8
  %this.addr.i375 = alloca ptr, align 8
  %retval.i370 = alloca %"class.v8::Local.298", align 8
  %default_value.i = alloca %"class.v8::Local.298", align 8
  %this.addr.i371 = alloca ptr, align 8
  %agg.tmp.i372 = alloca %"class.v8::Local.333", align 8
  %this.addr.i367 = alloca ptr, align 8
  %handle.i = alloca %"class.v8::Local.298", align 8
  %this.addr.i362 = alloca ptr, align 8
  %retval.i359 = alloca %"class.v8::ReturnValue", align 8
  %this.addr.i360 = alloca ptr, align 8
  %this.addr.i356 = alloca ptr, align 8
  %this.addr.i353 = alloca ptr, align 8
  %this.addr.i350 = alloca ptr, align 8
  %retval.i345 = alloca %"class.v8::Local.325", align 8
  %this.addr.i346 = alloca ptr, align 8
  %agg.tmp.i347 = alloca %"class.v8::Local.298", align 8
  %retval.i340 = alloca %"class.v8::Local.325", align 8
  %this.addr.i341 = alloca ptr, align 8
  %agg.tmp.i342 = alloca %"class.v8::Local.298", align 8
  %retval.i335 = alloca %"class.v8::Local.325", align 8
  %this.addr.i336 = alloca ptr, align 8
  %agg.tmp.i337 = alloca %"class.v8::Local.298", align 8
  %this.addr.i332 = alloca ptr, align 8
  %this.addr.i329 = alloca ptr, align 8
  %this.addr.i326 = alloca ptr, align 8
  %this.addr.i323 = alloca ptr, align 8
  %this.addr.i320 = alloca ptr, align 8
  %this.addr.i317 = alloca ptr, align 8
  %this.addr.i314 = alloca ptr, align 8
  %this.addr.i.i294 = alloca ptr, align 8
  %retval.i295 = alloca %"class.v8::Local.298", align 8
  %this.addr.i296 = alloca ptr, align 8
  %i.addr.i297 = alloca i32, align 4
  %agg.tmp.i298 = alloca %"class.v8::Local.471", align 8
  %this.addr.i.i274 = alloca ptr, align 8
  %retval.i275 = alloca %"class.v8::Local.298", align 8
  %this.addr.i276 = alloca ptr, align 8
  %i.addr.i277 = alloca i32, align 4
  %agg.tmp.i278 = alloca %"class.v8::Local.471", align 8
  %this.addr.i.i254 = alloca ptr, align 8
  %retval.i255 = alloca %"class.v8::Local.298", align 8
  %this.addr.i256 = alloca ptr, align 8
  %i.addr.i257 = alloca i32, align 4
  %agg.tmp.i258 = alloca %"class.v8::Local.471", align 8
  %this.addr.i.i234 = alloca ptr, align 8
  %retval.i235 = alloca %"class.v8::Local.298", align 8
  %this.addr.i236 = alloca ptr, align 8
  %i.addr.i237 = alloca i32, align 4
  %agg.tmp.i238 = alloca %"class.v8::Local.471", align 8
  %this.addr.i.i214 = alloca ptr, align 8
  %retval.i215 = alloca %"class.v8::Local.298", align 8
  %this.addr.i216 = alloca ptr, align 8
  %i.addr.i217 = alloca i32, align 4
  %agg.tmp.i218 = alloca %"class.v8::Local.471", align 8
  %this.addr.i.i194 = alloca ptr, align 8
  %retval.i195 = alloca %"class.v8::Local.298", align 8
  %this.addr.i196 = alloca ptr, align 8
  %i.addr.i197 = alloca i32, align 4
  %agg.tmp.i198 = alloca %"class.v8::Local.471", align 8
  %this.addr.i.i174 = alloca ptr, align 8
  %retval.i175 = alloca %"class.v8::Local.298", align 8
  %this.addr.i176 = alloca ptr, align 8
  %i.addr.i177 = alloca i32, align 4
  %agg.tmp.i178 = alloca %"class.v8::Local.471", align 8
  %this.addr.i.i = alloca ptr, align 8
  %retval.i171 = alloca %"class.v8::Local.298", align 8
  %this.addr.i172 = alloca ptr, align 8
  %i.addr.i = alloca i32, align 4
  %agg.tmp.i = alloca %"class.v8::Local.471", align 8
  %that.i = alloca %"class.v8::Local", align 8
  %this.addr.i170 = alloca ptr, align 8
  %retval.i = alloca %"class.v8::Local", align 8
  %this.addr.i = alloca ptr, align 8
  %args.addr = alloca ptr, align 8
  %env = alloca ptr, align 8
  %sign = alloca ptr, align 8
  %agg.tmp = alloca %"class.v8::Local.298", align 8
  %agg.tmp1 = alloca %"class.v8::Local", align 8
  %clear_error_on_return = alloca %"struct.node::crypto::ClearErrorOnReturn", align 1
  %offset = alloca i32, align 4
  %key = alloca %"class.node::crypto::ManagedEVPPKey", align 8
  %cleanup.dest.slot = alloca i32, align 4
  %padding = alloca i32, align 4
  %ref.tmp = alloca %"class.v8::Local.298", align 8
  %ref.tmp24 = alloca %"class.v8::Local.298", align 8
  %ref.tmp40 = alloca %"class.v8::Local.325", align 8
  %ref.tmp41 = alloca %"class.v8::Local.298", align 8
  %salt_len = alloca %"class.v8::Maybe.324", align 4
  %ref.tmp54 = alloca %"class.v8::Local.298", align 8
  %ref.tmp64 = alloca %"class.v8::Local.298", align 8
  %ref.tmp82 = alloca %"class.v8::Maybe.324", align 4
  %ref.tmp83 = alloca i32, align 4
  %ref.tmp84 = alloca %"class.v8::Local.325", align 8
  %ref.tmp85 = alloca %"class.v8::Local.298", align 8
  %ref.tmp100 = alloca %"class.v8::Local.298", align 8
  %dsa_sig_enc = alloca i32, align 4
  %ref.tmp118 = alloca %"class.v8::Local.325", align 8
  %ref.tmp119 = alloca %"class.v8::Local.298", align 8
  %ret = alloca %"struct.node::crypto::Sign::SignResult", align 8
  %ab = alloca %"class.v8::Local.327", align 8
  %agg.tmp136 = alloca %"class.std::shared_ptr.329", align 8
  %ref.tmp141 = alloca %"class.v8::ReturnValue", align 8
  %agg.tmp144 = alloca %"class.v8::Local.298", align 8
  %ref.tmp145 = alloca %"class.v8::MaybeLocal.332", align 8
  %agg.tmp146 = alloca %"class.v8::Local.327", align 8
  %agg.tmp157 = alloca %"class.v8::Local.298", align 8
  store ptr %args, ptr %args.addr, align 8
  %0 = load ptr, ptr %args.addr, align 8
  %call = call noundef ptr @_ZN4node11Environment10GetCurrentERKN2v820FunctionCallbackInfoINS1_5ValueEEE(ptr noundef nonnull align 8 dereferenceable(20) %0)
  store ptr %call, ptr %env, align 8
  br label %do.body

do.body:                                          ; preds = %entry
  %1 = load ptr, ptr %args.addr, align 8
  store ptr %1, ptr %this.addr.i, align 8
  %this1.i = load ptr, ptr %this.addr.i, align 8
  %2 = load ptr, ptr %this1.i, align 8
  store ptr %2, ptr %slot.addr.i878, align 8
  %3 = load ptr, ptr %slot.addr.i878, align 8
  store ptr %3, ptr %slot.addr.i885, align 8
  %4 = load ptr, ptr %slot.addr.i885, align 8
  store ptr %retval.i884, ptr %this.addr.i.i882, align 8
  store ptr %4, ptr %location.addr.i.i883, align 8
  %this1.i.i886 = load ptr, ptr %this.addr.i.i882, align 8
  %5 = load ptr, ptr %location.addr.i.i883, align 8
  store ptr %this1.i.i886, ptr %this.addr.i.i.i, align 8
  store ptr %5, ptr %location.addr.i.i.i, align 8
  %this1.i.i.i = load ptr, ptr %this.addr.i.i.i, align 8
  %6 = load ptr, ptr %location.addr.i.i.i, align 8
  store ptr %6, ptr %this1.i.i.i, align 8
  %7 = load ptr, ptr %retval.i884, align 8
  store ptr %7, ptr %ref.tmp.i879, align 8
  store ptr %retval.i877, ptr %this.addr.i.i876, align 8
  store ptr %ref.tmp.i879, ptr %other.addr.i.i, align 8
  %this1.i.i881 = load ptr, ptr %this.addr.i.i876, align 8
  %8 = load ptr, ptr %other.addr.i.i, align 8
  call void @llvm.memcpy.p0.p0.i64(ptr align 8 %this1.i.i881, ptr align 8 %8, i64 8, i1 false)
  %9 = load ptr, ptr %retval.i877, align 8
  store ptr %9, ptr %retval.i, align 8
  %10 = load ptr, ptr %retval.i, align 8
  %coerce.dive = getelementptr inbounds %"class.v8::Local", ptr %agg.tmp1, i32 0, i32 0
  %coerce.dive3 = getelementptr inbounds %"class.v8::LocalBase", ptr %coerce.dive, i32 0, i32 0
  %coerce.dive4 = getelementptr inbounds %"class.v8::IndirectHandleBase", ptr %coerce.dive3, i32 0, i32 0
  store ptr %10, ptr %coerce.dive4, align 8
  %coerce.dive5 = getelementptr inbounds %"class.v8::Local", ptr %agg.tmp1, i32 0, i32 0
  %coerce.dive6 = getelementptr inbounds %"class.v8::LocalBase", ptr %coerce.dive5, i32 0, i32 0
  %coerce.dive7 = getelementptr inbounds %"class.v8::IndirectHandleBase", ptr %coerce.dive6, i32 0, i32 0
  %11 = load ptr, ptr %coerce.dive7, align 8
  store ptr %11, ptr %that.i, align 8
  store ptr %agg.tmp, ptr %this.addr.i170, align 8
  %this3.i = load ptr, ptr %this.addr.i170, align 8
  store ptr %this3.i, ptr %this.addr.i857, align 8
  store ptr %that.i, ptr %other.addr.i858, align 8
  %this1.i859 = load ptr, ptr %this.addr.i857, align 8
  %12 = load ptr, ptr %other.addr.i858, align 8
  call void @llvm.memcpy.p0.p0.i64(ptr align 8 %this1.i859, ptr align 8 %12, i64 8, i1 false)
  %coerce.dive8 = getelementptr inbounds %"class.v8::Local.298", ptr %agg.tmp, i32 0, i32 0
  %coerce.dive9 = getelementptr inbounds %"class.v8::LocalBase.299", ptr %coerce.dive8, i32 0, i32 0
  %coerce.dive10 = getelementptr inbounds %"class.v8::IndirectHandleBase", ptr %coerce.dive9, i32 0, i32 0
  %13 = load ptr, ptr %coerce.dive10, align 8
  %call11 = call noundef ptr @_ZN4node10BaseObject12FromJSObjectEN2v85LocalINS1_5ValueEEE(ptr %13)
  store ptr %call11, ptr %sign, align 8
  %14 = load ptr, ptr %sign, align 8
  %cmp = icmp eq ptr %14, null
  br i1 %cmp, label %if.then, label %if.end

if.then:                                          ; preds = %do.body
  br label %cleanup.cont

if.end:                                           ; preds = %do.body
  br label %do.end

do.end:                                           ; preds = %if.end
  store i32 0, ptr %offset, align 4
  %15 = load ptr, ptr %args.addr, align 8
  call void @_ZN4node6crypto14ManagedEVPPKey19GetPrivateKeyFromJsERKN2v820FunctionCallbackInfoINS2_5ValueEEEPjb(ptr sret(%"class.node::crypto::ManagedEVPPKey") align 8 %key, ptr noundef nonnull align 8 dereferenceable(20) %15, ptr noundef %offset, i1 noundef zeroext true)
  %call12 = call noundef zeroext i1 @_ZNK4node6crypto14ManagedEVPPKeycvbEv(ptr noundef nonnull align 8 dereferenceable(32) %key)
  br i1 %call12, label %if.end14, label %if.then13

if.then13:                                        ; preds = %do.end
  store i32 1, ptr %cleanup.dest.slot, align 4
  br label %cleanup168

if.end14:                                         ; preds = %do.end
  %call15 = call noundef i32 @_ZN4node6crypto12_GLOBAL__N_121GetDefaultSignPaddingERKNS0_14ManagedEVPPKeyE(ptr noundef nonnull align 8 dereferenceable(32) %key)
  store i32 %call15, ptr %padding, align 4
  %16 = load ptr, ptr %args.addr, align 8
  %17 = load i32, ptr %offset, align 4
  store ptr %16, ptr %this.addr.i296, align 8
  store i32 %17, ptr %i.addr.i297, align 4
  %this1.i299 = load ptr, ptr %this.addr.i296, align 8
  %18 = load i32, ptr %i.addr.i297, align 4
  %cmp.i300 = icmp slt i32 %18, 0
  br i1 %cmp.i300, label %if.then.i309, label %lor.lhs.false.i301

lor.lhs.false.i301:                               ; preds = %if.end14
  %length_.i302 = getelementptr inbounds %"class.v8::FunctionCallbackInfo", ptr %this1.i299, i32 0, i32 2
  %19 = load i32, ptr %length_.i302, align 8
  %20 = load i32, ptr %i.addr.i297, align 4
  %cmp2.i303 = icmp sle i32 %19, %20
  br i1 %cmp2.i303, label %if.then.i309, label %if.end.i304

if.then.i309:                                     ; preds = %lor.lhs.false.i301, %if.end14
  store ptr %this1.i299, ptr %this.addr.i.i294, align 8
  %this1.i.i310 = load ptr, ptr %this.addr.i.i294, align 8
  %21 = load ptr, ptr %this1.i.i310, align 8
  %arrayidx.i.i311 = getelementptr inbounds i64, ptr %21, i64 1
  %22 = load ptr, ptr %arrayidx.i.i311, align 8
  store ptr %22, ptr %isolate.addr.i, align 8
  %23 = load ptr, ptr %isolate.addr.i, align 8
  store ptr %23, ptr %isolate.addr.i.i, align 8
  %24 = load ptr, ptr %isolate.addr.i, align 8
  store ptr %24, ptr %isolate.addr.i7.i, align 8
  store i32 4, ptr %index.addr.i.i, align 4
  %25 = load ptr, ptr %isolate.addr.i7.i, align 8
  %26 = ptrtoint ptr %25 to i64
  %add.i.i459 = add i64 %26, 576
  %27 = load i32, ptr %index.addr.i.i, align 4
  %mul.i.i = mul nsw i32 %27, 8
  %conv.i.i460 = sext i32 %mul.i.i to i64
  %add1.i.i = add i64 %add.i.i459, %conv.i.i460
  store i64 %add1.i.i, ptr %addr.i.i457, align 8
  %28 = load i64, ptr %addr.i.i457, align 8
  %29 = inttoptr i64 %28 to ptr
  store ptr %29, ptr %slot.i, align 8
  %30 = load ptr, ptr %slot.i, align 8
  store ptr %30, ptr %slot.addr.i628, align 8
  %31 = load ptr, ptr %slot.addr.i628, align 8
  store ptr %31, ptr %slot.addr.i632, align 8
  %32 = load ptr, ptr %slot.addr.i632, align 8
  store ptr %retval.i631, ptr %this.addr.i712, align 8
  store ptr %32, ptr %location.addr.i713, align 8
  %this1.i714 = load ptr, ptr %this.addr.i712, align 8
  %33 = load ptr, ptr %location.addr.i713, align 8
  store ptr %this1.i714, ptr %this.addr.i.i710, align 8
  store ptr %33, ptr %location.addr.i.i711, align 8
  %this1.i.i715 = load ptr, ptr %this.addr.i.i710, align 8
  %34 = load ptr, ptr %location.addr.i.i711, align 8
  store ptr %34, ptr %this1.i.i715, align 8
  %35 = load ptr, ptr %retval.i631, align 8
  store ptr %35, ptr %ref.tmp.i629, align 8
  store ptr %retval.i627, ptr %this.addr.i647, align 8
  store ptr %ref.tmp.i629, ptr %other.addr.i, align 8
  %this1.i648 = load ptr, ptr %this.addr.i647, align 8
  %36 = load ptr, ptr %other.addr.i, align 8
  call void @llvm.memcpy.p0.p0.i64(ptr align 8 %this1.i648, ptr align 8 %36, i64 8, i1 false)
  %37 = load ptr, ptr %retval.i627, align 8
  store ptr %37, ptr %retval.i458, align 8
  %38 = load ptr, ptr %retval.i458, align 8
  store ptr %38, ptr %agg.tmp.i298, align 8
  %39 = load ptr, ptr %agg.tmp.i298, align 8
  store ptr %39, ptr %that.i545, align 8
  store ptr %retval.i295, ptr %this.addr.i546, align 8
  %this3.i547 = load ptr, ptr %this.addr.i546, align 8
  store ptr %this3.i547, ptr %this.addr.i737, align 8
  store ptr %that.i545, ptr %other.addr.i738, align 8
  %this1.i739 = load ptr, ptr %this.addr.i737, align 8
  %40 = load ptr, ptr %other.addr.i738, align 8
  call void @llvm.memcpy.p0.p0.i64(ptr align 8 %this1.i739, ptr align 8 %40, i64 8, i1 false)
  br label %_ZNK2v820FunctionCallbackInfoINS_5ValueEEixEi.exit313

if.end.i304:                                      ; preds = %lor.lhs.false.i301
  %values_.i305 = getelementptr inbounds %"class.v8::FunctionCallbackInfo", ptr %this1.i299, i32 0, i32 1
  %41 = load ptr, ptr %values_.i305, align 8
  %42 = load i32, ptr %i.addr.i297, align 4
  %idx.ext.i306 = sext i32 %42 to i64
  %add.ptr.i307 = getelementptr inbounds i64, ptr %41, i64 %idx.ext.i306
  store ptr %add.ptr.i307, ptr %slot.addr.i, align 8
  %43 = load ptr, ptr %slot.addr.i, align 8
  store ptr %43, ptr %slot.addr.i755, align 8
  %44 = load ptr, ptr %slot.addr.i755, align 8
  store ptr %retval.i754, ptr %this.addr.i782, align 8
  store ptr %44, ptr %location.addr.i783, align 8
  %this1.i784 = load ptr, ptr %this.addr.i782, align 8
  %45 = load ptr, ptr %location.addr.i783, align 8
  store ptr %this1.i784, ptr %this.addr.i.i780, align 8
  store ptr %45, ptr %location.addr.i.i781, align 8
  %this1.i.i785 = load ptr, ptr %this.addr.i.i780, align 8
  %46 = load ptr, ptr %location.addr.i.i781, align 8
  store ptr %46, ptr %this1.i.i785, align 8
  %47 = load ptr, ptr %retval.i754, align 8
  store ptr %47, ptr %ref.tmp.i, align 8
  store ptr %retval.i569, ptr %this.addr.i777, align 8
  store ptr %ref.tmp.i, ptr %other.addr.i778, align 8
  %this1.i779 = load ptr, ptr %this.addr.i777, align 8
  %48 = load ptr, ptr %other.addr.i778, align 8
  call void @llvm.memcpy.p0.p0.i64(ptr align 8 %this1.i779, ptr align 8 %48, i64 8, i1 false)
  %49 = load ptr, ptr %retval.i569, align 8
  store ptr %49, ptr %retval.i295, align 8
  br label %_ZNK2v820FunctionCallbackInfoINS_5ValueEEixEi.exit313

_ZNK2v820FunctionCallbackInfoINS_5ValueEEixEi.exit313: ; preds = %if.end.i304, %if.then.i309
  %50 = load ptr, ptr %retval.i295, align 8
  %coerce.dive17 = getelementptr inbounds %"class.v8::Local.298", ptr %ref.tmp, i32 0, i32 0
  %coerce.dive18 = getelementptr inbounds %"class.v8::LocalBase.299", ptr %coerce.dive17, i32 0, i32 0
  %coerce.dive19 = getelementptr inbounds %"class.v8::IndirectHandleBase", ptr %coerce.dive18, i32 0, i32 0
  store ptr %50, ptr %coerce.dive19, align 8
  store ptr %ref.tmp, ptr %this.addr.i326, align 8
  %this1.i327 = load ptr, ptr %this.addr.i326, align 8
  store ptr %this1.i327, ptr %this.addr.i829, align 8
  %this1.i830 = load ptr, ptr %this.addr.i829, align 8
  store ptr %this1.i830, ptr %this.addr.i.i828, align 8
  %this1.i.i831 = load ptr, ptr %this.addr.i.i828, align 8
  %51 = load ptr, ptr %this1.i.i831, align 8
  store ptr %51, ptr %slot.addr.i856, align 8
  %52 = load ptr, ptr %slot.addr.i856, align 8
  store ptr %52, ptr %this.addr.i332, align 8
  %this1.i333 = load ptr, ptr %this.addr.i332, align 8
  store ptr %this1.i333, ptr %this.addr.i381, align 8
  %this1.i382 = load ptr, ptr %this.addr.i381, align 8
  store ptr %this1.i382, ptr %value.addr.i419, align 8
  %53 = load ptr, ptr %value.addr.i419, align 8
  %54 = load i64, ptr %53, align 8
  store i64 %54, ptr %obj.i, align 8
  %55 = load i64, ptr %obj.i, align 8
  store i64 %55, ptr %value.addr.i422, align 8
  %56 = load i64, ptr %value.addr.i422, align 8
  %and.i423 = and i64 %56, 3
  %cmp.i424 = icmp eq i64 %and.i423, 1
  br i1 %cmp.i424, label %if.end.i385, label %if.then.i384

if.then.i384:                                     ; preds = %_ZNK2v820FunctionCallbackInfoINS_5ValueEEixEi.exit313
  store i1 false, ptr %retval.i380, align 1
  br label %_ZNK2v85Value16QuickIsUndefinedEv.exit

if.end.i385:                                      ; preds = %_ZNK2v820FunctionCallbackInfoINS_5ValueEEixEi.exit313
  %57 = load i64, ptr %obj.i, align 8
  store i64 %57, ptr %obj.addr.i.i, align 8
  %58 = load i64, ptr %obj.addr.i.i, align 8
  store i64 %58, ptr %heap_object_ptr.addr.i.i.i, align 8
  store i32 0, ptr %offset.addr.i.i.i, align 4
  %59 = load i64, ptr %heap_object_ptr.addr.i.i.i, align 8
  %60 = load i32, ptr %offset.addr.i.i.i, align 4
  store i64 %59, ptr %heap_object_ptr.addr.i2.i.i, align 8
  store i32 %60, ptr %offset.addr.i3.i.i, align 4
  %61 = load i64, ptr %heap_object_ptr.addr.i2.i.i, align 8
  %62 = load i32, ptr %offset.addr.i3.i.i, align 4
  %conv.i.i.i = sext i32 %62 to i64
  %add.i.i.i = add i64 %61, %conv.i.i.i
  %sub.i.i.i = sub i64 %add.i.i.i, 1
  store i64 %sub.i.i.i, ptr %addr.i.i.i, align 8
  %63 = load i64, ptr %addr.i.i.i, align 8
  %64 = inttoptr i64 %63 to ptr
  %65 = load i64, ptr %64, align 8
  store i64 %65, ptr %map.i.i, align 8
  %66 = load i64, ptr %map.i.i, align 8
  store i64 %66, ptr %heap_object_ptr.addr.i.i, align 8
  store i32 12, ptr %offset.addr.i.i, align 4
  %67 = load i64, ptr %heap_object_ptr.addr.i.i, align 8
  %68 = load i32, ptr %offset.addr.i.i, align 4
  %conv.i8.i = sext i32 %68 to i64
  %add.i.i = add i64 %67, %conv.i8.i
  %sub.i.i = sub i64 %add.i.i, 1
  store i64 %sub.i.i, ptr %addr.i.i, align 8
  %69 = load i64, ptr %addr.i.i, align 8
  %70 = inttoptr i64 %69 to ptr
  %71 = load i16, ptr %70, align 2
  %conv.i.i = zext i16 %71 to i32
  %cmp.i386 = icmp ne i32 %conv.i.i, 131
  br i1 %cmp.i386, label %if.then4.i, label %if.end5.i

if.then4.i:                                       ; preds = %if.end.i385
  store i1 false, ptr %retval.i380, align 1
  br label %_ZNK2v85Value16QuickIsUndefinedEv.exit

if.end5.i:                                        ; preds = %if.end.i385
  %72 = load i64, ptr %obj.i, align 8
  store i64 %72, ptr %obj.addr.i426, align 8
  %73 = load i64, ptr %obj.addr.i426, align 8
  store i64 %73, ptr %heap_object_ptr.addr.i, align 8
  store i32 40, ptr %offset.addr.i, align 4
  %74 = load i64, ptr %heap_object_ptr.addr.i, align 8
  %75 = load i32, ptr %offset.addr.i, align 4
  store i64 %74, ptr %heap_object_ptr.addr.i.i433, align 8
  store i32 %75, ptr %offset.addr.i.i434, align 4
  %76 = load i64, ptr %heap_object_ptr.addr.i.i433, align 8
  %77 = load i32, ptr %offset.addr.i.i434, align 4
  %conv.i.i436 = sext i32 %77 to i64
  %add.i.i437 = add i64 %76, %conv.i.i436
  %sub.i.i438 = sub i64 %add.i.i437, 1
  store i64 %sub.i.i438, ptr %addr.i.i435, align 8
  %78 = load i64, ptr %addr.i.i435, align 8
  %79 = inttoptr i64 %78 to ptr
  %80 = load i64, ptr %79, align 8
  store i64 %80, ptr %value.addr.i429, align 8
  %81 = load i64, ptr %value.addr.i429, align 8
  store i64 %81, ptr %value.addr.i448, align 8
  store i32 32, ptr %shift_bits.i449, align 4
  %82 = load i64, ptr %value.addr.i448, align 8
  %83 = load i32, ptr %shift_bits.i449, align 4
  %sh_prom.i450 = zext i32 %83 to i64
  %shr.i451 = ashr i64 %82, %sh_prom.i450
  %conv.i452 = trunc i64 %shr.i451 to i32
  %cmp7.i = icmp eq i32 %conv.i452, 5
  store i1 %cmp7.i, ptr %retval.i380, align 1
  br label %_ZNK2v85Value16QuickIsUndefinedEv.exit

_ZNK2v85Value16QuickIsUndefinedEv.exit:           ; preds = %if.end5.i, %if.then4.i, %if.then.i384
  %84 = load i1, ptr %retval.i380, align 1
  %lnot = xor i1 %84, true
  br i1 %lnot, label %if.then22, label %if.end52

if.then22:                                        ; preds = %_ZNK2v85Value16QuickIsUndefinedEv.exit
  br label %do.body23

do.body23:                                        ; preds = %if.then22
  %85 = load ptr, ptr %args.addr, align 8
  %86 = load i32, ptr %offset, align 4
  store ptr %85, ptr %this.addr.i276, align 8
  store i32 %86, ptr %i.addr.i277, align 4
  %this1.i279 = load ptr, ptr %this.addr.i276, align 8
  %87 = load i32, ptr %i.addr.i277, align 4
  %cmp.i280 = icmp slt i32 %87, 0
  br i1 %cmp.i280, label %if.then.i289, label %lor.lhs.false.i281

lor.lhs.false.i281:                               ; preds = %do.body23
  %length_.i282 = getelementptr inbounds %"class.v8::FunctionCallbackInfo", ptr %this1.i279, i32 0, i32 2
  %88 = load i32, ptr %length_.i282, align 8
  %89 = load i32, ptr %i.addr.i277, align 4
  %cmp2.i283 = icmp sle i32 %88, %89
  br i1 %cmp2.i283, label %if.then.i289, label %if.end.i284

if.then.i289:                                     ; preds = %lor.lhs.false.i281, %do.body23
  store ptr %this1.i279, ptr %this.addr.i.i274, align 8
  %this1.i.i290 = load ptr, ptr %this.addr.i.i274, align 8
  %90 = load ptr, ptr %this1.i.i290, align 8
  %arrayidx.i.i291 = getelementptr inbounds i64, ptr %90, i64 1
  %91 = load ptr, ptr %arrayidx.i.i291, align 8
  store ptr %91, ptr %isolate.addr.i466, align 8
  %92 = load ptr, ptr %isolate.addr.i466, align 8
  store ptr %92, ptr %isolate.addr.i.i464, align 8
  %93 = load ptr, ptr %isolate.addr.i466, align 8
  store ptr %93, ptr %isolate.addr.i7.i461, align 8
  store i32 4, ptr %index.addr.i.i462, align 4
  %94 = load ptr, ptr %isolate.addr.i7.i461, align 8
  %95 = ptrtoint ptr %94 to i64
  %add.i.i468 = add i64 %95, 576
  %96 = load i32, ptr %index.addr.i.i462, align 4
  %mul.i.i469 = mul nsw i32 %96, 8
  %conv.i.i470 = sext i32 %mul.i.i469 to i64
  %add1.i.i471 = add i64 %add.i.i468, %conv.i.i470
  store i64 %add1.i.i471, ptr %addr.i.i463, align 8
  %97 = load i64, ptr %addr.i.i463, align 8
  %98 = inttoptr i64 %97 to ptr
  store ptr %98, ptr %slot.i467, align 8
  %99 = load ptr, ptr %slot.i467, align 8
  store ptr %99, ptr %slot.addr.i624, align 8
  %100 = load ptr, ptr %slot.addr.i624, align 8
  store ptr %100, ptr %slot.addr.i634, align 8
  %101 = load ptr, ptr %slot.addr.i634, align 8
  store ptr %retval.i633, ptr %this.addr.i706, align 8
  store ptr %101, ptr %location.addr.i707, align 8
  %this1.i708 = load ptr, ptr %this.addr.i706, align 8
  %102 = load ptr, ptr %location.addr.i707, align 8
  store ptr %this1.i708, ptr %this.addr.i.i704, align 8
  store ptr %102, ptr %location.addr.i.i705, align 8
  %this1.i.i709 = load ptr, ptr %this.addr.i.i704, align 8
  %103 = load ptr, ptr %location.addr.i.i705, align 8
  store ptr %103, ptr %this1.i.i709, align 8
  %104 = load ptr, ptr %retval.i633, align 8
  store ptr %104, ptr %ref.tmp.i625, align 8
  store ptr %retval.i623, ptr %this.addr.i649, align 8
  store ptr %ref.tmp.i625, ptr %other.addr.i650, align 8
  %this1.i651 = load ptr, ptr %this.addr.i649, align 8
  %105 = load ptr, ptr %other.addr.i650, align 8
  call void @llvm.memcpy.p0.p0.i64(ptr align 8 %this1.i651, ptr align 8 %105, i64 8, i1 false)
  %106 = load ptr, ptr %retval.i623, align 8
  store ptr %106, ptr %retval.i465, align 8
  %107 = load ptr, ptr %retval.i465, align 8
  store ptr %107, ptr %agg.tmp.i278, align 8
  %108 = load ptr, ptr %agg.tmp.i278, align 8
  store ptr %108, ptr %that.i548, align 8
  store ptr %retval.i275, ptr %this.addr.i549, align 8
  %this3.i550 = load ptr, ptr %this.addr.i549, align 8
  store ptr %this3.i550, ptr %this.addr.i734, align 8
  store ptr %that.i548, ptr %other.addr.i735, align 8
  %this1.i736 = load ptr, ptr %this.addr.i734, align 8
  %109 = load ptr, ptr %other.addr.i735, align 8
  call void @llvm.memcpy.p0.p0.i64(ptr align 8 %this1.i736, ptr align 8 %109, i64 8, i1 false)
  br label %_ZNK2v820FunctionCallbackInfoINS_5ValueEEixEi.exit293

if.end.i284:                                      ; preds = %lor.lhs.false.i281
  %values_.i285 = getelementptr inbounds %"class.v8::FunctionCallbackInfo", ptr %this1.i279, i32 0, i32 1
  %110 = load ptr, ptr %values_.i285, align 8
  %111 = load i32, ptr %i.addr.i277, align 4
  %idx.ext.i286 = sext i32 %111 to i64
  %add.ptr.i287 = getelementptr inbounds i64, ptr %110, i64 %idx.ext.i286
  store ptr %add.ptr.i287, ptr %slot.addr.i572, align 8
  %112 = load ptr, ptr %slot.addr.i572, align 8
  store ptr %112, ptr %slot.addr.i753, align 8
  %113 = load ptr, ptr %slot.addr.i753, align 8
  store ptr %retval.i752, ptr %this.addr.i788, align 8
  store ptr %113, ptr %location.addr.i789, align 8
  %this1.i790 = load ptr, ptr %this.addr.i788, align 8
  %114 = load ptr, ptr %location.addr.i789, align 8
  store ptr %this1.i790, ptr %this.addr.i.i786, align 8
  store ptr %114, ptr %location.addr.i.i787, align 8
  %this1.i.i791 = load ptr, ptr %this.addr.i.i786, align 8
  %115 = load ptr, ptr %location.addr.i.i787, align 8
  store ptr %115, ptr %this1.i.i791, align 8
  %116 = load ptr, ptr %retval.i752, align 8
  store ptr %116, ptr %ref.tmp.i573, align 8
  store ptr %retval.i571, ptr %this.addr.i774, align 8
  store ptr %ref.tmp.i573, ptr %other.addr.i775, align 8
  %this1.i776 = load ptr, ptr %this.addr.i774, align 8
  %117 = load ptr, ptr %other.addr.i775, align 8
  call void @llvm.memcpy.p0.p0.i64(ptr align 8 %this1.i776, ptr align 8 %117, i64 8, i1 false)
  %118 = load ptr, ptr %retval.i571, align 8
  store ptr %118, ptr %retval.i275, align 8
  br label %_ZNK2v820FunctionCallbackInfoINS_5ValueEEixEi.exit293

_ZNK2v820FunctionCallbackInfoINS_5ValueEEixEi.exit293: ; preds = %if.end.i284, %if.then.i289
  %119 = load ptr, ptr %retval.i275, align 8
  %coerce.dive26 = getelementptr inbounds %"class.v8::Local.298", ptr %ref.tmp24, i32 0, i32 0
  %coerce.dive27 = getelementptr inbounds %"class.v8::LocalBase.299", ptr %coerce.dive26, i32 0, i32 0
  %coerce.dive28 = getelementptr inbounds %"class.v8::IndirectHandleBase", ptr %coerce.dive27, i32 0, i32 0
  store ptr %119, ptr %coerce.dive28, align 8
  store ptr %ref.tmp24, ptr %this.addr.i323, align 8
  %this1.i324 = load ptr, ptr %this.addr.i323, align 8
  store ptr %this1.i324, ptr %this.addr.i833, align 8
  %this1.i834 = load ptr, ptr %this.addr.i833, align 8
  store ptr %this1.i834, ptr %this.addr.i.i832, align 8
  %this1.i.i835 = load ptr, ptr %this.addr.i.i832, align 8
  %120 = load ptr, ptr %this1.i.i835, align 8
  store ptr %120, ptr %slot.addr.i855, align 8
  %121 = load ptr, ptr %slot.addr.i855, align 8
  %call30 = call noundef zeroext i1 @_ZNK2v85Value7IsInt32Ev(ptr noundef nonnull align 1 dereferenceable(1) %121)
  %lnot31 = xor i1 %call30, true
  %lnot32 = xor i1 %lnot31, true
  %lnot33 = xor i1 %lnot32, true
  br i1 %lnot33, label %if.then34, label %if.end37

if.then34:                                        ; preds = %_ZNK2v820FunctionCallbackInfoINS_5ValueEEixEi.exit293
  br label %do.body35

do.body35:                                        ; preds = %if.then34
  call void @_ZN4node6AssertERKNS_13AssertionInfoE(ptr noundef nonnull align 8 dereferenceable(24) @_ZZN4node6crypto4Sign9SignFinalERKN2v820FunctionCallbackInfoINS2_5ValueEEEE4args)
  call void @abort() #15
  unreachable

do.cond:                                          ; No predecessors!
  br label %do.end36

do.end36:                                         ; preds = %do.cond
  br label %if.end37

if.end37:                                         ; preds = %do.end36, %_ZNK2v820FunctionCallbackInfoINS_5ValueEEixEi.exit293
  br label %do.cond38

do.cond38:                                        ; preds = %if.end37
  br label %do.end39

do.end39:                                         ; preds = %do.cond38
  %122 = load ptr, ptr %args.addr, align 8
  %123 = load i32, ptr %offset, align 4
  store ptr %122, ptr %this.addr.i256, align 8
  store i32 %123, ptr %i.addr.i257, align 4
  %this1.i259 = load ptr, ptr %this.addr.i256, align 8
  %124 = load i32, ptr %i.addr.i257, align 4
  %cmp.i260 = icmp slt i32 %124, 0
  br i1 %cmp.i260, label %if.then.i269, label %lor.lhs.false.i261

lor.lhs.false.i261:                               ; preds = %do.end39
  %length_.i262 = getelementptr inbounds %"class.v8::FunctionCallbackInfo", ptr %this1.i259, i32 0, i32 2
  %125 = load i32, ptr %length_.i262, align 8
  %126 = load i32, ptr %i.addr.i257, align 4
  %cmp2.i263 = icmp sle i32 %125, %126
  br i1 %cmp2.i263, label %if.then.i269, label %if.end.i264

if.then.i269:                                     ; preds = %lor.lhs.false.i261, %do.end39
  store ptr %this1.i259, ptr %this.addr.i.i254, align 8
  %this1.i.i270 = load ptr, ptr %this.addr.i.i254, align 8
  %127 = load ptr, ptr %this1.i.i270, align 8
  %arrayidx.i.i271 = getelementptr inbounds i64, ptr %127, i64 1
  %128 = load ptr, ptr %arrayidx.i.i271, align 8
  store ptr %128, ptr %isolate.addr.i478, align 8
  %129 = load ptr, ptr %isolate.addr.i478, align 8
  store ptr %129, ptr %isolate.addr.i.i476, align 8
  %130 = load ptr, ptr %isolate.addr.i478, align 8
  store ptr %130, ptr %isolate.addr.i7.i473, align 8
  store i32 4, ptr %index.addr.i.i474, align 4
  %131 = load ptr, ptr %isolate.addr.i7.i473, align 8
  %132 = ptrtoint ptr %131 to i64
  %add.i.i480 = add i64 %132, 576
  %133 = load i32, ptr %index.addr.i.i474, align 4
  %mul.i.i481 = mul nsw i32 %133, 8
  %conv.i.i482 = sext i32 %mul.i.i481 to i64
  %add1.i.i483 = add i64 %add.i.i480, %conv.i.i482
  store i64 %add1.i.i483, ptr %addr.i.i475, align 8
  %134 = load i64, ptr %addr.i.i475, align 8
  %135 = inttoptr i64 %134 to ptr
  store ptr %135, ptr %slot.i479, align 8
  %136 = load ptr, ptr %slot.i479, align 8
  store ptr %136, ptr %slot.addr.i620, align 8
  %137 = load ptr, ptr %slot.addr.i620, align 8
  store ptr %137, ptr %slot.addr.i636, align 8
  %138 = load ptr, ptr %slot.addr.i636, align 8
  store ptr %retval.i635, ptr %this.addr.i700, align 8
  store ptr %138, ptr %location.addr.i701, align 8
  %this1.i702 = load ptr, ptr %this.addr.i700, align 8
  %139 = load ptr, ptr %location.addr.i701, align 8
  store ptr %this1.i702, ptr %this.addr.i.i698, align 8
  store ptr %139, ptr %location.addr.i.i699, align 8
  %this1.i.i703 = load ptr, ptr %this.addr.i.i698, align 8
  %140 = load ptr, ptr %location.addr.i.i699, align 8
  store ptr %140, ptr %this1.i.i703, align 8
  %141 = load ptr, ptr %retval.i635, align 8
  store ptr %141, ptr %ref.tmp.i621, align 8
  store ptr %retval.i619, ptr %this.addr.i652, align 8
  store ptr %ref.tmp.i621, ptr %other.addr.i653, align 8
  %this1.i654 = load ptr, ptr %this.addr.i652, align 8
  %142 = load ptr, ptr %other.addr.i653, align 8
  call void @llvm.memcpy.p0.p0.i64(ptr align 8 %this1.i654, ptr align 8 %142, i64 8, i1 false)
  %143 = load ptr, ptr %retval.i619, align 8
  store ptr %143, ptr %retval.i477, align 8
  %144 = load ptr, ptr %retval.i477, align 8
  store ptr %144, ptr %agg.tmp.i258, align 8
  %145 = load ptr, ptr %agg.tmp.i258, align 8
  store ptr %145, ptr %that.i551, align 8
  store ptr %retval.i255, ptr %this.addr.i552, align 8
  %this3.i553 = load ptr, ptr %this.addr.i552, align 8
  store ptr %this3.i553, ptr %this.addr.i731, align 8
  store ptr %that.i551, ptr %other.addr.i732, align 8
  %this1.i733 = load ptr, ptr %this.addr.i731, align 8
  %146 = load ptr, ptr %other.addr.i732, align 8
  call void @llvm.memcpy.p0.p0.i64(ptr align 8 %this1.i733, ptr align 8 %146, i64 8, i1 false)
  br label %_ZNK2v820FunctionCallbackInfoINS_5ValueEEixEi.exit273

if.end.i264:                                      ; preds = %lor.lhs.false.i261
  %values_.i265 = getelementptr inbounds %"class.v8::FunctionCallbackInfo", ptr %this1.i259, i32 0, i32 1
  %147 = load ptr, ptr %values_.i265, align 8
  %148 = load i32, ptr %i.addr.i257, align 4
  %idx.ext.i266 = sext i32 %148 to i64
  %add.ptr.i267 = getelementptr inbounds i64, ptr %147, i64 %idx.ext.i266
  store ptr %add.ptr.i267, ptr %slot.addr.i576, align 8
  %149 = load ptr, ptr %slot.addr.i576, align 8
  store ptr %149, ptr %slot.addr.i751, align 8
  %150 = load ptr, ptr %slot.addr.i751, align 8
  store ptr %retval.i750, ptr %this.addr.i794, align 8
  store ptr %150, ptr %location.addr.i795, align 8
  %this1.i796 = load ptr, ptr %this.addr.i794, align 8
  %151 = load ptr, ptr %location.addr.i795, align 8
  store ptr %this1.i796, ptr %this.addr.i.i792, align 8
  store ptr %151, ptr %location.addr.i.i793, align 8
  %this1.i.i797 = load ptr, ptr %this.addr.i.i792, align 8
  %152 = load ptr, ptr %location.addr.i.i793, align 8
  store ptr %152, ptr %this1.i.i797, align 8
  %153 = load ptr, ptr %retval.i750, align 8
  store ptr %153, ptr %ref.tmp.i577, align 8
  store ptr %retval.i575, ptr %this.addr.i771, align 8
  store ptr %ref.tmp.i577, ptr %other.addr.i772, align 8
  %this1.i773 = load ptr, ptr %this.addr.i771, align 8
  %154 = load ptr, ptr %other.addr.i772, align 8
  call void @llvm.memcpy.p0.p0.i64(ptr align 8 %this1.i773, ptr align 8 %154, i64 8, i1 false)
  %155 = load ptr, ptr %retval.i575, align 8
  store ptr %155, ptr %retval.i255, align 8
  br label %_ZNK2v820FunctionCallbackInfoINS_5ValueEEixEi.exit273

_ZNK2v820FunctionCallbackInfoINS_5ValueEEixEi.exit273: ; preds = %if.end.i264, %if.then.i269
  %156 = load ptr, ptr %retval.i255, align 8
  %coerce.dive43 = getelementptr inbounds %"class.v8::Local.298", ptr %ref.tmp41, i32 0, i32 0
  %coerce.dive44 = getelementptr inbounds %"class.v8::LocalBase.299", ptr %coerce.dive43, i32 0, i32 0
  %coerce.dive45 = getelementptr inbounds %"class.v8::IndirectHandleBase", ptr %coerce.dive44, i32 0, i32 0
  store ptr %156, ptr %coerce.dive45, align 8
  store ptr %ref.tmp41, ptr %this.addr.i346, align 8
  %this1.i348 = load ptr, ptr %this.addr.i346, align 8
  call void @llvm.memcpy.p0.p0.i64(ptr align 8 %agg.tmp.i347, ptr align 8 %this1.i348, i64 8, i1 false)
  %157 = load ptr, ptr %agg.tmp.i347, align 8
  store ptr %157, ptr %that.i888, align 8
  store ptr %ref.tmp.i889, ptr %this.addr.i902, align 8
  store ptr %that.i888, ptr %other.addr.i903, align 8
  %this1.i904 = load ptr, ptr %this.addr.i902, align 8
  %158 = load ptr, ptr %other.addr.i903, align 8
  call void @llvm.memcpy.p0.p0.i64(ptr align 8 %this1.i904, ptr align 8 %158, i64 8, i1 false)
  store ptr %retval.i887, ptr %this.addr.i911, align 8
  store ptr %ref.tmp.i889, ptr %other.addr.i912, align 8
  %this1.i913 = load ptr, ptr %this.addr.i911, align 8
  %159 = load ptr, ptr %other.addr.i912, align 8
  call void @llvm.memcpy.p0.p0.i64(ptr align 8 %this1.i913, ptr align 8 %159, i64 8, i1 false)
  %160 = load ptr, ptr %retval.i887, align 8
  store ptr %160, ptr %retval.i345, align 8
  %161 = load ptr, ptr %retval.i345, align 8
  %coerce.dive47 = getelementptr inbounds %"class.v8::Local.325", ptr %ref.tmp40, i32 0, i32 0
  %coerce.dive48 = getelementptr inbounds %"class.v8::LocalBase.326", ptr %coerce.dive47, i32 0, i32 0
  %coerce.dive49 = getelementptr inbounds %"class.v8::IndirectHandleBase", ptr %coerce.dive48, i32 0, i32 0
  store ptr %161, ptr %coerce.dive49, align 8
  store ptr %ref.tmp40, ptr %this.addr.i356, align 8
  %this1.i357 = load ptr, ptr %this.addr.i356, align 8
  store ptr %this1.i357, ptr %this.addr.i915, align 8
  %this1.i916 = load ptr, ptr %this.addr.i915, align 8
  store ptr %this1.i916, ptr %this.addr.i.i914, align 8
  %this1.i.i917 = load ptr, ptr %this.addr.i.i914, align 8
  %162 = load ptr, ptr %this1.i.i917, align 8
  store ptr %162, ptr %slot.addr.i930, align 8
  %163 = load ptr, ptr %slot.addr.i930, align 8
  %call51 = call noundef i32 @_ZNK2v85Int325ValueEv(ptr noundef nonnull align 1 dereferenceable(1) %163)
  store i32 %call51, ptr %padding, align 4
  br label %if.end52

if.end52:                                         ; preds = %_ZNK2v820FunctionCallbackInfoINS_5ValueEEixEi.exit273, %_ZNK2v85Value16QuickIsUndefinedEv.exit
  %call53 = call i64 @_ZN2v87NothingIiEENS_5MaybeIT_EEv()
  store i64 %call53, ptr %salt_len, align 4
  %164 = load ptr, ptr %args.addr, align 8
  %165 = load i32, ptr %offset, align 4
  %add = add i32 %165, 1
  store ptr %164, ptr %this.addr.i236, align 8
  store i32 %add, ptr %i.addr.i237, align 4
  %this1.i239 = load ptr, ptr %this.addr.i236, align 8
  %166 = load i32, ptr %i.addr.i237, align 4
  %cmp.i240 = icmp slt i32 %166, 0
  br i1 %cmp.i240, label %if.then.i249, label %lor.lhs.false.i241

lor.lhs.false.i241:                               ; preds = %if.end52
  %length_.i242 = getelementptr inbounds %"class.v8::FunctionCallbackInfo", ptr %this1.i239, i32 0, i32 2
  %167 = load i32, ptr %length_.i242, align 8
  %168 = load i32, ptr %i.addr.i237, align 4
  %cmp2.i243 = icmp sle i32 %167, %168
  br i1 %cmp2.i243, label %if.then.i249, label %if.end.i244

if.then.i249:                                     ; preds = %lor.lhs.false.i241, %if.end52
  store ptr %this1.i239, ptr %this.addr.i.i234, align 8
  %this1.i.i250 = load ptr, ptr %this.addr.i.i234, align 8
  %169 = load ptr, ptr %this1.i.i250, align 8
  %arrayidx.i.i251 = getelementptr inbounds i64, ptr %169, i64 1
  %170 = load ptr, ptr %arrayidx.i.i251, align 8
  store ptr %170, ptr %isolate.addr.i490, align 8
  %171 = load ptr, ptr %isolate.addr.i490, align 8
  store ptr %171, ptr %isolate.addr.i.i488, align 8
  %172 = load ptr, ptr %isolate.addr.i490, align 8
  store ptr %172, ptr %isolate.addr.i7.i485, align 8
  store i32 4, ptr %index.addr.i.i486, align 4
  %173 = load ptr, ptr %isolate.addr.i7.i485, align 8
  %174 = ptrtoint ptr %173 to i64
  %add.i.i492 = add i64 %174, 576
  %175 = load i32, ptr %index.addr.i.i486, align 4
  %mul.i.i493 = mul nsw i32 %175, 8
  %conv.i.i494 = sext i32 %mul.i.i493 to i64
  %add1.i.i495 = add i64 %add.i.i492, %conv.i.i494
  store i64 %add1.i.i495, ptr %addr.i.i487, align 8
  %176 = load i64, ptr %addr.i.i487, align 8
  %177 = inttoptr i64 %176 to ptr
  store ptr %177, ptr %slot.i491, align 8
  %178 = load ptr, ptr %slot.i491, align 8
  store ptr %178, ptr %slot.addr.i616, align 8
  %179 = load ptr, ptr %slot.addr.i616, align 8
  store ptr %179, ptr %slot.addr.i638, align 8
  %180 = load ptr, ptr %slot.addr.i638, align 8
  store ptr %retval.i637, ptr %this.addr.i694, align 8
  store ptr %180, ptr %location.addr.i695, align 8
  %this1.i696 = load ptr, ptr %this.addr.i694, align 8
  %181 = load ptr, ptr %location.addr.i695, align 8
  store ptr %this1.i696, ptr %this.addr.i.i692, align 8
  store ptr %181, ptr %location.addr.i.i693, align 8
  %this1.i.i697 = load ptr, ptr %this.addr.i.i692, align 8
  %182 = load ptr, ptr %location.addr.i.i693, align 8
  store ptr %182, ptr %this1.i.i697, align 8
  %183 = load ptr, ptr %retval.i637, align 8
  store ptr %183, ptr %ref.tmp.i617, align 8
  store ptr %retval.i615, ptr %this.addr.i655, align 8
  store ptr %ref.tmp.i617, ptr %other.addr.i656, align 8
  %this1.i657 = load ptr, ptr %this.addr.i655, align 8
  %184 = load ptr, ptr %other.addr.i656, align 8
  call void @llvm.memcpy.p0.p0.i64(ptr align 8 %this1.i657, ptr align 8 %184, i64 8, i1 false)
  %185 = load ptr, ptr %retval.i615, align 8
  store ptr %185, ptr %retval.i489, align 8
  %186 = load ptr, ptr %retval.i489, align 8
  store ptr %186, ptr %agg.tmp.i238, align 8
  %187 = load ptr, ptr %agg.tmp.i238, align 8
  store ptr %187, ptr %that.i554, align 8
  store ptr %retval.i235, ptr %this.addr.i555, align 8
  %this3.i556 = load ptr, ptr %this.addr.i555, align 8
  store ptr %this3.i556, ptr %this.addr.i728, align 8
  store ptr %that.i554, ptr %other.addr.i729, align 8
  %this1.i730 = load ptr, ptr %this.addr.i728, align 8
  %188 = load ptr, ptr %other.addr.i729, align 8
  call void @llvm.memcpy.p0.p0.i64(ptr align 8 %this1.i730, ptr align 8 %188, i64 8, i1 false)
  br label %_ZNK2v820FunctionCallbackInfoINS_5ValueEEixEi.exit253

if.end.i244:                                      ; preds = %lor.lhs.false.i241
  %values_.i245 = getelementptr inbounds %"class.v8::FunctionCallbackInfo", ptr %this1.i239, i32 0, i32 1
  %189 = load ptr, ptr %values_.i245, align 8
  %190 = load i32, ptr %i.addr.i237, align 4
  %idx.ext.i246 = sext i32 %190 to i64
  %add.ptr.i247 = getelementptr inbounds i64, ptr %189, i64 %idx.ext.i246
  store ptr %add.ptr.i247, ptr %slot.addr.i580, align 8
  %191 = load ptr, ptr %slot.addr.i580, align 8
  store ptr %191, ptr %slot.addr.i749, align 8
  %192 = load ptr, ptr %slot.addr.i749, align 8
  store ptr %retval.i748, ptr %this.addr.i800, align 8
  store ptr %192, ptr %location.addr.i801, align 8
  %this1.i802 = load ptr, ptr %this.addr.i800, align 8
  %193 = load ptr, ptr %location.addr.i801, align 8
  store ptr %this1.i802, ptr %this.addr.i.i798, align 8
  store ptr %193, ptr %location.addr.i.i799, align 8
  %this1.i.i803 = load ptr, ptr %this.addr.i.i798, align 8
  %194 = load ptr, ptr %location.addr.i.i799, align 8
  store ptr %194, ptr %this1.i.i803, align 8
  %195 = load ptr, ptr %retval.i748, align 8
  store ptr %195, ptr %ref.tmp.i581, align 8
  store ptr %retval.i579, ptr %this.addr.i768, align 8
  store ptr %ref.tmp.i581, ptr %other.addr.i769, align 8
  %this1.i770 = load ptr, ptr %this.addr.i768, align 8
  %196 = load ptr, ptr %other.addr.i769, align 8
  call void @llvm.memcpy.p0.p0.i64(ptr align 8 %this1.i770, ptr align 8 %196, i64 8, i1 false)
  %197 = load ptr, ptr %retval.i579, align 8
  store ptr %197, ptr %retval.i235, align 8
  br label %_ZNK2v820FunctionCallbackInfoINS_5ValueEEixEi.exit253

_ZNK2v820FunctionCallbackInfoINS_5ValueEEixEi.exit253: ; preds = %if.end.i244, %if.then.i249
  %198 = load ptr, ptr %retval.i235, align 8
  %coerce.dive56 = getelementptr inbounds %"class.v8::Local.298", ptr %ref.tmp54, i32 0, i32 0
  %coerce.dive57 = getelementptr inbounds %"class.v8::LocalBase.299", ptr %coerce.dive56, i32 0, i32 0
  %coerce.dive58 = getelementptr inbounds %"class.v8::IndirectHandleBase", ptr %coerce.dive57, i32 0, i32 0
  store ptr %198, ptr %coerce.dive58, align 8
  store ptr %ref.tmp54, ptr %this.addr.i320, align 8
  %this1.i321 = load ptr, ptr %this.addr.i320, align 8
  store ptr %this1.i321, ptr %this.addr.i838, align 8
  %this1.i839 = load ptr, ptr %this.addr.i838, align 8
  store ptr %this1.i839, ptr %this.addr.i.i837, align 8
  %this1.i.i840 = load ptr, ptr %this.addr.i.i837, align 8
  %199 = load ptr, ptr %this1.i.i840, align 8
  store ptr %199, ptr %slot.addr.i854, align 8
  %200 = load ptr, ptr %slot.addr.i854, align 8
  store ptr %200, ptr %this.addr.i329, align 8
  %this1.i330 = load ptr, ptr %this.addr.i329, align 8
  store ptr %this1.i330, ptr %this.addr.i399, align 8
  %this1.i401 = load ptr, ptr %this.addr.i399, align 8
  store ptr %this1.i401, ptr %value.addr.i, align 8
  %201 = load ptr, ptr %value.addr.i, align 8
  %202 = load i64, ptr %201, align 8
  store i64 %202, ptr %obj.i400, align 8
  %203 = load i64, ptr %obj.i400, align 8
  store i64 %203, ptr %value.addr.i420, align 8
  %204 = load i64, ptr %value.addr.i420, align 8
  %and.i = and i64 %204, 3
  %cmp.i421 = icmp eq i64 %and.i, 1
  br i1 %cmp.i421, label %if.end.i405, label %if.then.i404

if.then.i404:                                     ; preds = %_ZNK2v820FunctionCallbackInfoINS_5ValueEEixEi.exit253
  store i1 false, ptr %retval.i398, align 1
  br label %_ZNK2v85Value16QuickIsUndefinedEv.exit418

if.end.i405:                                      ; preds = %_ZNK2v820FunctionCallbackInfoINS_5ValueEEixEi.exit253
  %205 = load i64, ptr %obj.i400, align 8
  store i64 %205, ptr %obj.addr.i.i396, align 8
  %206 = load i64, ptr %obj.addr.i.i396, align 8
  store i64 %206, ptr %heap_object_ptr.addr.i.i.i394, align 8
  store i32 0, ptr %offset.addr.i.i.i395, align 4
  %207 = load i64, ptr %heap_object_ptr.addr.i.i.i394, align 8
  %208 = load i32, ptr %offset.addr.i.i.i395, align 4
  store i64 %207, ptr %heap_object_ptr.addr.i2.i.i391, align 8
  store i32 %208, ptr %offset.addr.i3.i.i392, align 4
  %209 = load i64, ptr %heap_object_ptr.addr.i2.i.i391, align 8
  %210 = load i32, ptr %offset.addr.i3.i.i392, align 4
  %conv.i.i.i406 = sext i32 %210 to i64
  %add.i.i.i407 = add i64 %209, %conv.i.i.i406
  %sub.i.i.i408 = sub i64 %add.i.i.i407, 1
  store i64 %sub.i.i.i408, ptr %addr.i.i.i393, align 8
  %211 = load i64, ptr %addr.i.i.i393, align 8
  %212 = inttoptr i64 %211 to ptr
  %213 = load i64, ptr %212, align 8
  store i64 %213, ptr %map.i.i397, align 8
  %214 = load i64, ptr %map.i.i397, align 8
  store i64 %214, ptr %heap_object_ptr.addr.i.i388, align 8
  store i32 12, ptr %offset.addr.i.i389, align 4
  %215 = load i64, ptr %heap_object_ptr.addr.i.i388, align 8
  %216 = load i32, ptr %offset.addr.i.i389, align 4
  %conv.i8.i409 = sext i32 %216 to i64
  %add.i.i410 = add i64 %215, %conv.i8.i409
  %sub.i.i411 = sub i64 %add.i.i410, 1
  store i64 %sub.i.i411, ptr %addr.i.i390, align 8
  %217 = load i64, ptr %addr.i.i390, align 8
  %218 = inttoptr i64 %217 to ptr
  %219 = load i16, ptr %218, align 2
  %conv.i.i412 = zext i16 %219 to i32
  %cmp.i413 = icmp ne i32 %conv.i.i412, 131
  br i1 %cmp.i413, label %if.then4.i417, label %if.end5.i414

if.then4.i417:                                    ; preds = %if.end.i405
  store i1 false, ptr %retval.i398, align 1
  br label %_ZNK2v85Value16QuickIsUndefinedEv.exit418

if.end5.i414:                                     ; preds = %if.end.i405
  %220 = load i64, ptr %obj.i400, align 8
  store i64 %220, ptr %obj.addr.i, align 8
  %221 = load i64, ptr %obj.addr.i, align 8
  store i64 %221, ptr %heap_object_ptr.addr.i442, align 8
  store i32 40, ptr %offset.addr.i443, align 4
  %222 = load i64, ptr %heap_object_ptr.addr.i442, align 8
  %223 = load i32, ptr %offset.addr.i443, align 4
  store i64 %222, ptr %heap_object_ptr.addr.i.i439, align 8
  store i32 %223, ptr %offset.addr.i.i440, align 4
  %224 = load i64, ptr %heap_object_ptr.addr.i.i439, align 8
  %225 = load i32, ptr %offset.addr.i.i440, align 4
  %conv.i.i444 = sext i32 %225 to i64
  %add.i.i445 = add i64 %224, %conv.i.i444
  %sub.i.i446 = sub i64 %add.i.i445, 1
  store i64 %sub.i.i446, ptr %addr.i.i441, align 8
  %226 = load i64, ptr %addr.i.i441, align 8
  %227 = inttoptr i64 %226 to ptr
  %228 = load i64, ptr %227, align 8
  store i64 %228, ptr %value.addr.i431, align 8
  %229 = load i64, ptr %value.addr.i431, align 8
  store i64 %229, ptr %value.addr.i447, align 8
  store i32 32, ptr %shift_bits.i, align 4
  %230 = load i64, ptr %value.addr.i447, align 8
  %231 = load i32, ptr %shift_bits.i, align 4
  %sh_prom.i = zext i32 %231 to i64
  %shr.i = ashr i64 %230, %sh_prom.i
  %conv.i = trunc i64 %shr.i to i32
  %cmp7.i416 = icmp eq i32 %conv.i, 5
  store i1 %cmp7.i416, ptr %retval.i398, align 1
  br label %_ZNK2v85Value16QuickIsUndefinedEv.exit418

_ZNK2v85Value16QuickIsUndefinedEv.exit418:        ; preds = %if.end5.i414, %if.then4.i417, %if.then.i404
  %232 = load i1, ptr %retval.i398, align 1
  %lnot61 = xor i1 %232, true
  br i1 %lnot61, label %if.then62, label %if.end98

if.then62:                                        ; preds = %_ZNK2v85Value16QuickIsUndefinedEv.exit418
  br label %do.body63

do.body63:                                        ; preds = %if.then62
  %233 = load ptr, ptr %args.addr, align 8
  %234 = load i32, ptr %offset, align 4
  %add65 = add i32 %234, 1
  store ptr %233, ptr %this.addr.i216, align 8
  store i32 %add65, ptr %i.addr.i217, align 4
  %this1.i219 = load ptr, ptr %this.addr.i216, align 8
  %235 = load i32, ptr %i.addr.i217, align 4
  %cmp.i220 = icmp slt i32 %235, 0
  br i1 %cmp.i220, label %if.then.i229, label %lor.lhs.false.i221

lor.lhs.false.i221:                               ; preds = %do.body63
  %length_.i222 = getelementptr inbounds %"class.v8::FunctionCallbackInfo", ptr %this1.i219, i32 0, i32 2
  %236 = load i32, ptr %length_.i222, align 8
  %237 = load i32, ptr %i.addr.i217, align 4
  %cmp2.i223 = icmp sle i32 %236, %237
  br i1 %cmp2.i223, label %if.then.i229, label %if.end.i224

if.then.i229:                                     ; preds = %lor.lhs.false.i221, %do.body63
  store ptr %this1.i219, ptr %this.addr.i.i214, align 8
  %this1.i.i230 = load ptr, ptr %this.addr.i.i214, align 8
  %238 = load ptr, ptr %this1.i.i230, align 8
  %arrayidx.i.i231 = getelementptr inbounds i64, ptr %238, i64 1
  %239 = load ptr, ptr %arrayidx.i.i231, align 8
  store ptr %239, ptr %isolate.addr.i502, align 8
  %240 = load ptr, ptr %isolate.addr.i502, align 8
  store ptr %240, ptr %isolate.addr.i.i500, align 8
  %241 = load ptr, ptr %isolate.addr.i502, align 8
  store ptr %241, ptr %isolate.addr.i7.i497, align 8
  store i32 4, ptr %index.addr.i.i498, align 4
  %242 = load ptr, ptr %isolate.addr.i7.i497, align 8
  %243 = ptrtoint ptr %242 to i64
  %add.i.i504 = add i64 %243, 576
  %244 = load i32, ptr %index.addr.i.i498, align 4
  %mul.i.i505 = mul nsw i32 %244, 8
  %conv.i.i506 = sext i32 %mul.i.i505 to i64
  %add1.i.i507 = add i64 %add.i.i504, %conv.i.i506
  store i64 %add1.i.i507, ptr %addr.i.i499, align 8
  %245 = load i64, ptr %addr.i.i499, align 8
  %246 = inttoptr i64 %245 to ptr
  store ptr %246, ptr %slot.i503, align 8
  %247 = load ptr, ptr %slot.i503, align 8
  store ptr %247, ptr %slot.addr.i612, align 8
  %248 = load ptr, ptr %slot.addr.i612, align 8
  store ptr %248, ptr %slot.addr.i640, align 8
  %249 = load ptr, ptr %slot.addr.i640, align 8
  store ptr %retval.i639, ptr %this.addr.i688, align 8
  store ptr %249, ptr %location.addr.i689, align 8
  %this1.i690 = load ptr, ptr %this.addr.i688, align 8
  %250 = load ptr, ptr %location.addr.i689, align 8
  store ptr %this1.i690, ptr %this.addr.i.i686, align 8
  store ptr %250, ptr %location.addr.i.i687, align 8
  %this1.i.i691 = load ptr, ptr %this.addr.i.i686, align 8
  %251 = load ptr, ptr %location.addr.i.i687, align 8
  store ptr %251, ptr %this1.i.i691, align 8
  %252 = load ptr, ptr %retval.i639, align 8
  store ptr %252, ptr %ref.tmp.i613, align 8
  store ptr %retval.i611, ptr %this.addr.i658, align 8
  store ptr %ref.tmp.i613, ptr %other.addr.i659, align 8
  %this1.i660 = load ptr, ptr %this.addr.i658, align 8
  %253 = load ptr, ptr %other.addr.i659, align 8
  call void @llvm.memcpy.p0.p0.i64(ptr align 8 %this1.i660, ptr align 8 %253, i64 8, i1 false)
  %254 = load ptr, ptr %retval.i611, align 8
  store ptr %254, ptr %retval.i501, align 8
  %255 = load ptr, ptr %retval.i501, align 8
  store ptr %255, ptr %agg.tmp.i218, align 8
  %256 = load ptr, ptr %agg.tmp.i218, align 8
  store ptr %256, ptr %that.i557, align 8
  store ptr %retval.i215, ptr %this.addr.i558, align 8
  %this3.i559 = load ptr, ptr %this.addr.i558, align 8
  store ptr %this3.i559, ptr %this.addr.i725, align 8
  store ptr %that.i557, ptr %other.addr.i726, align 8
  %this1.i727 = load ptr, ptr %this.addr.i725, align 8
  %257 = load ptr, ptr %other.addr.i726, align 8
  call void @llvm.memcpy.p0.p0.i64(ptr align 8 %this1.i727, ptr align 8 %257, i64 8, i1 false)
  br label %_ZNK2v820FunctionCallbackInfoINS_5ValueEEixEi.exit233

if.end.i224:                                      ; preds = %lor.lhs.false.i221
  %values_.i225 = getelementptr inbounds %"class.v8::FunctionCallbackInfo", ptr %this1.i219, i32 0, i32 1
  %258 = load ptr, ptr %values_.i225, align 8
  %259 = load i32, ptr %i.addr.i217, align 4
  %idx.ext.i226 = sext i32 %259 to i64
  %add.ptr.i227 = getelementptr inbounds i64, ptr %258, i64 %idx.ext.i226
  store ptr %add.ptr.i227, ptr %slot.addr.i584, align 8
  %260 = load ptr, ptr %slot.addr.i584, align 8
  store ptr %260, ptr %slot.addr.i747, align 8
  %261 = load ptr, ptr %slot.addr.i747, align 8
  store ptr %retval.i746, ptr %this.addr.i806, align 8
  store ptr %261, ptr %location.addr.i807, align 8
  %this1.i808 = load ptr, ptr %this.addr.i806, align 8
  %262 = load ptr, ptr %location.addr.i807, align 8
  store ptr %this1.i808, ptr %this.addr.i.i804, align 8
  store ptr %262, ptr %location.addr.i.i805, align 8
  %this1.i.i809 = load ptr, ptr %this.addr.i.i804, align 8
  %263 = load ptr, ptr %location.addr.i.i805, align 8
  store ptr %263, ptr %this1.i.i809, align 8
  %264 = load ptr, ptr %retval.i746, align 8
  store ptr %264, ptr %ref.tmp.i585, align 8
  store ptr %retval.i583, ptr %this.addr.i765, align 8
  store ptr %ref.tmp.i585, ptr %other.addr.i766, align 8
  %this1.i767 = load ptr, ptr %this.addr.i765, align 8
  %265 = load ptr, ptr %other.addr.i766, align 8
  call void @llvm.memcpy.p0.p0.i64(ptr align 8 %this1.i767, ptr align 8 %265, i64 8, i1 false)
  %266 = load ptr, ptr %retval.i583, align 8
  store ptr %266, ptr %retval.i215, align 8
  br label %_ZNK2v820FunctionCallbackInfoINS_5ValueEEixEi.exit233

_ZNK2v820FunctionCallbackInfoINS_5ValueEEixEi.exit233: ; preds = %if.end.i224, %if.then.i229
  %267 = load ptr, ptr %retval.i215, align 8
  %coerce.dive67 = getelementptr inbounds %"class.v8::Local.298", ptr %ref.tmp64, i32 0, i32 0
  %coerce.dive68 = getelementptr inbounds %"class.v8::LocalBase.299", ptr %coerce.dive67, i32 0, i32 0
  %coerce.dive69 = getelementptr inbounds %"class.v8::IndirectHandleBase", ptr %coerce.dive68, i32 0, i32 0
  store ptr %267, ptr %coerce.dive69, align 8
  store ptr %ref.tmp64, ptr %this.addr.i317, align 8
  %this1.i318 = load ptr, ptr %this.addr.i317, align 8
  store ptr %this1.i318, ptr %this.addr.i843, align 8
  %this1.i844 = load ptr, ptr %this.addr.i843, align 8
  store ptr %this1.i844, ptr %this.addr.i.i842, align 8
  %this1.i.i845 = load ptr, ptr %this.addr.i.i842, align 8
  %268 = load ptr, ptr %this1.i.i845, align 8
  store ptr %268, ptr %slot.addr.i853, align 8
  %269 = load ptr, ptr %slot.addr.i853, align 8
  %call71 = call noundef zeroext i1 @_ZNK2v85Value7IsInt32Ev(ptr noundef nonnull align 1 dereferenceable(1) %269)
  %lnot72 = xor i1 %call71, true
  %lnot73 = xor i1 %lnot72, true
  %lnot74 = xor i1 %lnot73, true
  br i1 %lnot74, label %if.then75, label %if.end79

if.then75:                                        ; preds = %_ZNK2v820FunctionCallbackInfoINS_5ValueEEixEi.exit233
  br label %do.body76

do.body76:                                        ; preds = %if.then75
  call void @_ZN4node6AssertERKNS_13AssertionInfoE(ptr noundef nonnull align 8 dereferenceable(24) @_ZZN4node6crypto4Sign9SignFinalERKN2v820FunctionCallbackInfoINS2_5ValueEEEE4args_0)
  call void @abort() #15
  unreachable

do.cond77:                                        ; No predecessors!
  br label %do.end78

do.end78:                                         ; preds = %do.cond77
  br label %if.end79

if.end79:                                         ; preds = %do.end78, %_ZNK2v820FunctionCallbackInfoINS_5ValueEEixEi.exit233
  br label %do.cond80

do.cond80:                                        ; preds = %if.end79
  br label %do.end81

do.end81:                                         ; preds = %do.cond80
  %270 = load ptr, ptr %args.addr, align 8
  %271 = load i32, ptr %offset, align 4
  %add86 = add i32 %271, 1
  store ptr %270, ptr %this.addr.i196, align 8
  store i32 %add86, ptr %i.addr.i197, align 4
  %this1.i199 = load ptr, ptr %this.addr.i196, align 8
  %272 = load i32, ptr %i.addr.i197, align 4
  %cmp.i200 = icmp slt i32 %272, 0
  br i1 %cmp.i200, label %if.then.i209, label %lor.lhs.false.i201

lor.lhs.false.i201:                               ; preds = %do.end81
  %length_.i202 = getelementptr inbounds %"class.v8::FunctionCallbackInfo", ptr %this1.i199, i32 0, i32 2
  %273 = load i32, ptr %length_.i202, align 8
  %274 = load i32, ptr %i.addr.i197, align 4
  %cmp2.i203 = icmp sle i32 %273, %274
  br i1 %cmp2.i203, label %if.then.i209, label %if.end.i204

if.then.i209:                                     ; preds = %lor.lhs.false.i201, %do.end81
  store ptr %this1.i199, ptr %this.addr.i.i194, align 8
  %this1.i.i210 = load ptr, ptr %this.addr.i.i194, align 8
  %275 = load ptr, ptr %this1.i.i210, align 8
  %arrayidx.i.i211 = getelementptr inbounds i64, ptr %275, i64 1
  %276 = load ptr, ptr %arrayidx.i.i211, align 8
  store ptr %276, ptr %isolate.addr.i514, align 8
  %277 = load ptr, ptr %isolate.addr.i514, align 8
  store ptr %277, ptr %isolate.addr.i.i512, align 8
  %278 = load ptr, ptr %isolate.addr.i514, align 8
  store ptr %278, ptr %isolate.addr.i7.i509, align 8
  store i32 4, ptr %index.addr.i.i510, align 4
  %279 = load ptr, ptr %isolate.addr.i7.i509, align 8
  %280 = ptrtoint ptr %279 to i64
  %add.i.i516 = add i64 %280, 576
  %281 = load i32, ptr %index.addr.i.i510, align 4
  %mul.i.i517 = mul nsw i32 %281, 8
  %conv.i.i518 = sext i32 %mul.i.i517 to i64
  %add1.i.i519 = add i64 %add.i.i516, %conv.i.i518
  store i64 %add1.i.i519, ptr %addr.i.i511, align 8
  %282 = load i64, ptr %addr.i.i511, align 8
  %283 = inttoptr i64 %282 to ptr
  store ptr %283, ptr %slot.i515, align 8
  %284 = load ptr, ptr %slot.i515, align 8
  store ptr %284, ptr %slot.addr.i608, align 8
  %285 = load ptr, ptr %slot.addr.i608, align 8
  store ptr %285, ptr %slot.addr.i642, align 8
  %286 = load ptr, ptr %slot.addr.i642, align 8
  store ptr %retval.i641, ptr %this.addr.i682, align 8
  store ptr %286, ptr %location.addr.i683, align 8
  %this1.i684 = load ptr, ptr %this.addr.i682, align 8
  %287 = load ptr, ptr %location.addr.i683, align 8
  store ptr %this1.i684, ptr %this.addr.i.i680, align 8
  store ptr %287, ptr %location.addr.i.i681, align 8
  %this1.i.i685 = load ptr, ptr %this.addr.i.i680, align 8
  %288 = load ptr, ptr %location.addr.i.i681, align 8
  store ptr %288, ptr %this1.i.i685, align 8
  %289 = load ptr, ptr %retval.i641, align 8
  store ptr %289, ptr %ref.tmp.i609, align 8
  store ptr %retval.i607, ptr %this.addr.i661, align 8
  store ptr %ref.tmp.i609, ptr %other.addr.i662, align 8
  %this1.i663 = load ptr, ptr %this.addr.i661, align 8
  %290 = load ptr, ptr %other.addr.i662, align 8
  call void @llvm.memcpy.p0.p0.i64(ptr align 8 %this1.i663, ptr align 8 %290, i64 8, i1 false)
  %291 = load ptr, ptr %retval.i607, align 8
  store ptr %291, ptr %retval.i513, align 8
  %292 = load ptr, ptr %retval.i513, align 8
  store ptr %292, ptr %agg.tmp.i198, align 8
  %293 = load ptr, ptr %agg.tmp.i198, align 8
  store ptr %293, ptr %that.i560, align 8
  store ptr %retval.i195, ptr %this.addr.i561, align 8
  %this3.i562 = load ptr, ptr %this.addr.i561, align 8
  store ptr %this3.i562, ptr %this.addr.i722, align 8
  store ptr %that.i560, ptr %other.addr.i723, align 8
  %this1.i724 = load ptr, ptr %this.addr.i722, align 8
  %294 = load ptr, ptr %other.addr.i723, align 8
  call void @llvm.memcpy.p0.p0.i64(ptr align 8 %this1.i724, ptr align 8 %294, i64 8, i1 false)
  br label %_ZNK2v820FunctionCallbackInfoINS_5ValueEEixEi.exit213

if.end.i204:                                      ; preds = %lor.lhs.false.i201
  %values_.i205 = getelementptr inbounds %"class.v8::FunctionCallbackInfo", ptr %this1.i199, i32 0, i32 1
  %295 = load ptr, ptr %values_.i205, align 8
  %296 = load i32, ptr %i.addr.i197, align 4
  %idx.ext.i206 = sext i32 %296 to i64
  %add.ptr.i207 = getelementptr inbounds i64, ptr %295, i64 %idx.ext.i206
  store ptr %add.ptr.i207, ptr %slot.addr.i588, align 8
  %297 = load ptr, ptr %slot.addr.i588, align 8
  store ptr %297, ptr %slot.addr.i745, align 8
  %298 = load ptr, ptr %slot.addr.i745, align 8
  store ptr %retval.i744, ptr %this.addr.i812, align 8
  store ptr %298, ptr %location.addr.i813, align 8
  %this1.i814 = load ptr, ptr %this.addr.i812, align 8
  %299 = load ptr, ptr %location.addr.i813, align 8
  store ptr %this1.i814, ptr %this.addr.i.i810, align 8
  store ptr %299, ptr %location.addr.i.i811, align 8
  %this1.i.i815 = load ptr, ptr %this.addr.i.i810, align 8
  %300 = load ptr, ptr %location.addr.i.i811, align 8
  store ptr %300, ptr %this1.i.i815, align 8
  %301 = load ptr, ptr %retval.i744, align 8
  store ptr %301, ptr %ref.tmp.i589, align 8
  store ptr %retval.i587, ptr %this.addr.i762, align 8
  store ptr %ref.tmp.i589, ptr %other.addr.i763, align 8
  %this1.i764 = load ptr, ptr %this.addr.i762, align 8
  %302 = load ptr, ptr %other.addr.i763, align 8
  call void @llvm.memcpy.p0.p0.i64(ptr align 8 %this1.i764, ptr align 8 %302, i64 8, i1 false)
  %303 = load ptr, ptr %retval.i587, align 8
  store ptr %303, ptr %retval.i195, align 8
  br label %_ZNK2v820FunctionCallbackInfoINS_5ValueEEixEi.exit213

_ZNK2v820FunctionCallbackInfoINS_5ValueEEixEi.exit213: ; preds = %if.end.i204, %if.then.i209
  %304 = load ptr, ptr %retval.i195, align 8
  %coerce.dive88 = getelementptr inbounds %"class.v8::Local.298", ptr %ref.tmp85, i32 0, i32 0
  %coerce.dive89 = getelementptr inbounds %"class.v8::LocalBase.299", ptr %coerce.dive88, i32 0, i32 0
  %coerce.dive90 = getelementptr inbounds %"class.v8::IndirectHandleBase", ptr %coerce.dive89, i32 0, i32 0
  store ptr %304, ptr %coerce.dive90, align 8
  store ptr %ref.tmp85, ptr %this.addr.i341, align 8
  %this1.i343 = load ptr, ptr %this.addr.i341, align 8
  call void @llvm.memcpy.p0.p0.i64(ptr align 8 %agg.tmp.i342, ptr align 8 %this1.i343, i64 8, i1 false)
  %305 = load ptr, ptr %agg.tmp.i342, align 8
  store ptr %305, ptr %that.i891, align 8
  store ptr %ref.tmp.i892, ptr %this.addr.i899, align 8
  store ptr %that.i891, ptr %other.addr.i900, align 8
  %this1.i901 = load ptr, ptr %this.addr.i899, align 8
  %306 = load ptr, ptr %other.addr.i900, align 8
  call void @llvm.memcpy.p0.p0.i64(ptr align 8 %this1.i901, ptr align 8 %306, i64 8, i1 false)
  store ptr %retval.i890, ptr %this.addr.i908, align 8
  store ptr %ref.tmp.i892, ptr %other.addr.i909, align 8
  %this1.i910 = load ptr, ptr %this.addr.i908, align 8
  %307 = load ptr, ptr %other.addr.i909, align 8
  call void @llvm.memcpy.p0.p0.i64(ptr align 8 %this1.i910, ptr align 8 %307, i64 8, i1 false)
  %308 = load ptr, ptr %retval.i890, align 8
  store ptr %308, ptr %retval.i340, align 8
  %309 = load ptr, ptr %retval.i340, align 8
  %coerce.dive92 = getelementptr inbounds %"class.v8::Local.325", ptr %ref.tmp84, i32 0, i32 0
  %coerce.dive93 = getelementptr inbounds %"class.v8::LocalBase.326", ptr %coerce.dive92, i32 0, i32 0
  %coerce.dive94 = getelementptr inbounds %"class.v8::IndirectHandleBase", ptr %coerce.dive93, i32 0, i32 0
  store ptr %309, ptr %coerce.dive94, align 8
  store ptr %ref.tmp84, ptr %this.addr.i353, align 8
  %this1.i354 = load ptr, ptr %this.addr.i353, align 8
  store ptr %this1.i354, ptr %this.addr.i919, align 8
  %this1.i920 = load ptr, ptr %this.addr.i919, align 8
  store ptr %this1.i920, ptr %this.addr.i.i918, align 8
  %this1.i.i921 = load ptr, ptr %this.addr.i.i918, align 8
  %310 = load ptr, ptr %this1.i.i921, align 8
  store ptr %310, ptr %slot.addr.i929, align 8
  %311 = load ptr, ptr %slot.addr.i929, align 8
  %call96 = call noundef i32 @_ZNK2v85Int325ValueEv(ptr noundef nonnull align 1 dereferenceable(1) %311)
  store i32 %call96, ptr %ref.tmp83, align 4
  %call97 = call i64 @_ZN2v84JustIiTnPNSt9enable_ifIXntsr3stdE21is_lvalue_reference_vIT_EEvE4typeELPv0EEENS_5MaybeIS2_EEOS2_(ptr noundef nonnull align 4 dereferenceable(4) %ref.tmp83)
  store i64 %call97, ptr %ref.tmp82, align 4
  call void @llvm.memcpy.p0.p0.i64(ptr align 4 %salt_len, ptr align 4 %ref.tmp82, i64 8, i1 false)
  br label %if.end98

if.end98:                                         ; preds = %_ZNK2v820FunctionCallbackInfoINS_5ValueEEixEi.exit213, %_ZNK2v85Value16QuickIsUndefinedEv.exit418
  br label %do.body99

do.body99:                                        ; preds = %if.end98
  %312 = load ptr, ptr %args.addr, align 8
  %313 = load i32, ptr %offset, align 4
  %add101 = add i32 %313, 2
  store ptr %312, ptr %this.addr.i176, align 8
  store i32 %add101, ptr %i.addr.i177, align 4
  %this1.i179 = load ptr, ptr %this.addr.i176, align 8
  %314 = load i32, ptr %i.addr.i177, align 4
  %cmp.i180 = icmp slt i32 %314, 0
  br i1 %cmp.i180, label %if.then.i189, label %lor.lhs.false.i181

lor.lhs.false.i181:                               ; preds = %do.body99
  %length_.i182 = getelementptr inbounds %"class.v8::FunctionCallbackInfo", ptr %this1.i179, i32 0, i32 2
  %315 = load i32, ptr %length_.i182, align 8
  %316 = load i32, ptr %i.addr.i177, align 4
  %cmp2.i183 = icmp sle i32 %315, %316
  br i1 %cmp2.i183, label %if.then.i189, label %if.end.i184

if.then.i189:                                     ; preds = %lor.lhs.false.i181, %do.body99
  store ptr %this1.i179, ptr %this.addr.i.i174, align 8
  %this1.i.i190 = load ptr, ptr %this.addr.i.i174, align 8
  %317 = load ptr, ptr %this1.i.i190, align 8
  %arrayidx.i.i191 = getelementptr inbounds i64, ptr %317, i64 1
  %318 = load ptr, ptr %arrayidx.i.i191, align 8
  store ptr %318, ptr %isolate.addr.i526, align 8
  %319 = load ptr, ptr %isolate.addr.i526, align 8
  store ptr %319, ptr %isolate.addr.i.i524, align 8
  %320 = load ptr, ptr %isolate.addr.i526, align 8
  store ptr %320, ptr %isolate.addr.i7.i521, align 8
  store i32 4, ptr %index.addr.i.i522, align 4
  %321 = load ptr, ptr %isolate.addr.i7.i521, align 8
  %322 = ptrtoint ptr %321 to i64
  %add.i.i528 = add i64 %322, 576
  %323 = load i32, ptr %index.addr.i.i522, align 4
  %mul.i.i529 = mul nsw i32 %323, 8
  %conv.i.i530 = sext i32 %mul.i.i529 to i64
  %add1.i.i531 = add i64 %add.i.i528, %conv.i.i530
  store i64 %add1.i.i531, ptr %addr.i.i523, align 8
  %324 = load i64, ptr %addr.i.i523, align 8
  %325 = inttoptr i64 %324 to ptr
  store ptr %325, ptr %slot.i527, align 8
  %326 = load ptr, ptr %slot.i527, align 8
  store ptr %326, ptr %slot.addr.i604, align 8
  %327 = load ptr, ptr %slot.addr.i604, align 8
  store ptr %327, ptr %slot.addr.i644, align 8
  %328 = load ptr, ptr %slot.addr.i644, align 8
  store ptr %retval.i643, ptr %this.addr.i676, align 8
  store ptr %328, ptr %location.addr.i677, align 8
  %this1.i678 = load ptr, ptr %this.addr.i676, align 8
  %329 = load ptr, ptr %location.addr.i677, align 8
  store ptr %this1.i678, ptr %this.addr.i.i674, align 8
  store ptr %329, ptr %location.addr.i.i675, align 8
  %this1.i.i679 = load ptr, ptr %this.addr.i.i674, align 8
  %330 = load ptr, ptr %location.addr.i.i675, align 8
  store ptr %330, ptr %this1.i.i679, align 8
  %331 = load ptr, ptr %retval.i643, align 8
  store ptr %331, ptr %ref.tmp.i605, align 8
  store ptr %retval.i603, ptr %this.addr.i664, align 8
  store ptr %ref.tmp.i605, ptr %other.addr.i665, align 8
  %this1.i666 = load ptr, ptr %this.addr.i664, align 8
  %332 = load ptr, ptr %other.addr.i665, align 8
  call void @llvm.memcpy.p0.p0.i64(ptr align 8 %this1.i666, ptr align 8 %332, i64 8, i1 false)
  %333 = load ptr, ptr %retval.i603, align 8
  store ptr %333, ptr %retval.i525, align 8
  %334 = load ptr, ptr %retval.i525, align 8
  store ptr %334, ptr %agg.tmp.i178, align 8
  %335 = load ptr, ptr %agg.tmp.i178, align 8
  store ptr %335, ptr %that.i563, align 8
  store ptr %retval.i175, ptr %this.addr.i564, align 8
  %this3.i565 = load ptr, ptr %this.addr.i564, align 8
  store ptr %this3.i565, ptr %this.addr.i719, align 8
  store ptr %that.i563, ptr %other.addr.i720, align 8
  %this1.i721 = load ptr, ptr %this.addr.i719, align 8
  %336 = load ptr, ptr %other.addr.i720, align 8
  call void @llvm.memcpy.p0.p0.i64(ptr align 8 %this1.i721, ptr align 8 %336, i64 8, i1 false)
  br label %_ZNK2v820FunctionCallbackInfoINS_5ValueEEixEi.exit193

if.end.i184:                                      ; preds = %lor.lhs.false.i181
  %values_.i185 = getelementptr inbounds %"class.v8::FunctionCallbackInfo", ptr %this1.i179, i32 0, i32 1
  %337 = load ptr, ptr %values_.i185, align 8
  %338 = load i32, ptr %i.addr.i177, align 4
  %idx.ext.i186 = sext i32 %338 to i64
  %add.ptr.i187 = getelementptr inbounds i64, ptr %337, i64 %idx.ext.i186
  store ptr %add.ptr.i187, ptr %slot.addr.i592, align 8
  %339 = load ptr, ptr %slot.addr.i592, align 8
  store ptr %339, ptr %slot.addr.i743, align 8
  %340 = load ptr, ptr %slot.addr.i743, align 8
  store ptr %retval.i742, ptr %this.addr.i818, align 8
  store ptr %340, ptr %location.addr.i819, align 8
  %this1.i820 = load ptr, ptr %this.addr.i818, align 8
  %341 = load ptr, ptr %location.addr.i819, align 8
  store ptr %this1.i820, ptr %this.addr.i.i816, align 8
  store ptr %341, ptr %location.addr.i.i817, align 8
  %this1.i.i821 = load ptr, ptr %this.addr.i.i816, align 8
  %342 = load ptr, ptr %location.addr.i.i817, align 8
  store ptr %342, ptr %this1.i.i821, align 8
  %343 = load ptr, ptr %retval.i742, align 8
  store ptr %343, ptr %ref.tmp.i593, align 8
  store ptr %retval.i591, ptr %this.addr.i759, align 8
  store ptr %ref.tmp.i593, ptr %other.addr.i760, align 8
  %this1.i761 = load ptr, ptr %this.addr.i759, align 8
  %344 = load ptr, ptr %other.addr.i760, align 8
  call void @llvm.memcpy.p0.p0.i64(ptr align 8 %this1.i761, ptr align 8 %344, i64 8, i1 false)
  %345 = load ptr, ptr %retval.i591, align 8
  store ptr %345, ptr %retval.i175, align 8
  br label %_ZNK2v820FunctionCallbackInfoINS_5ValueEEixEi.exit193

_ZNK2v820FunctionCallbackInfoINS_5ValueEEixEi.exit193: ; preds = %if.end.i184, %if.then.i189
  %346 = load ptr, ptr %retval.i175, align 8
  %coerce.dive103 = getelementptr inbounds %"class.v8::Local.298", ptr %ref.tmp100, i32 0, i32 0
  %coerce.dive104 = getelementptr inbounds %"class.v8::LocalBase.299", ptr %coerce.dive103, i32 0, i32 0
  %coerce.dive105 = getelementptr inbounds %"class.v8::IndirectHandleBase", ptr %coerce.dive104, i32 0, i32 0
  store ptr %346, ptr %coerce.dive105, align 8
  store ptr %ref.tmp100, ptr %this.addr.i314, align 8
  %this1.i315 = load ptr, ptr %this.addr.i314, align 8
  store ptr %this1.i315, ptr %this.addr.i848, align 8
  %this1.i849 = load ptr, ptr %this.addr.i848, align 8
  store ptr %this1.i849, ptr %this.addr.i.i847, align 8
  %this1.i.i850 = load ptr, ptr %this.addr.i.i847, align 8
  %347 = load ptr, ptr %this1.i.i850, align 8
  store ptr %347, ptr %slot.addr.i852, align 8
  %348 = load ptr, ptr %slot.addr.i852, align 8
  %call107 = call noundef zeroext i1 @_ZNK2v85Value7IsInt32Ev(ptr noundef nonnull align 1 dereferenceable(1) %348)
  %lnot108 = xor i1 %call107, true
  %lnot109 = xor i1 %lnot108, true
  %lnot110 = xor i1 %lnot109, true
  br i1 %lnot110, label %if.then111, label %if.end115

if.then111:                                       ; preds = %_ZNK2v820FunctionCallbackInfoINS_5ValueEEixEi.exit193
  br label %do.body112

do.body112:                                       ; preds = %if.then111
  call void @_ZN4node6AssertERKNS_13AssertionInfoE(ptr noundef nonnull align 8 dereferenceable(24) @_ZZN4node6crypto4Sign9SignFinalERKN2v820FunctionCallbackInfoINS2_5ValueEEEE4args_1)
  call void @abort() #15
  unreachable

do.cond113:                                       ; No predecessors!
  br label %do.end114

do.end114:                                        ; preds = %do.cond113
  br label %if.end115

if.end115:                                        ; preds = %do.end114, %_ZNK2v820FunctionCallbackInfoINS_5ValueEEixEi.exit193
  br label %do.cond116

do.cond116:                                       ; preds = %if.end115
  br label %do.end117

do.end117:                                        ; preds = %do.cond116
  %349 = load ptr, ptr %args.addr, align 8
  %350 = load i32, ptr %offset, align 4
  %add120 = add i32 %350, 2
  store ptr %349, ptr %this.addr.i172, align 8
  store i32 %add120, ptr %i.addr.i, align 4
  %this1.i173 = load ptr, ptr %this.addr.i172, align 8
  %351 = load i32, ptr %i.addr.i, align 4
  %cmp.i = icmp slt i32 %351, 0
  br i1 %cmp.i, label %if.then.i, label %lor.lhs.false.i

lor.lhs.false.i:                                  ; preds = %do.end117
  %length_.i = getelementptr inbounds %"class.v8::FunctionCallbackInfo", ptr %this1.i173, i32 0, i32 2
  %352 = load i32, ptr %length_.i, align 8
  %353 = load i32, ptr %i.addr.i, align 4
  %cmp2.i = icmp sle i32 %352, %353
  br i1 %cmp2.i, label %if.then.i, label %if.end.i

if.then.i:                                        ; preds = %lor.lhs.false.i, %do.end117
  store ptr %this1.i173, ptr %this.addr.i.i, align 8
  %this1.i.i = load ptr, ptr %this.addr.i.i, align 8
  %354 = load ptr, ptr %this1.i.i, align 8
  %arrayidx.i.i = getelementptr inbounds i64, ptr %354, i64 1
  %355 = load ptr, ptr %arrayidx.i.i, align 8
  store ptr %355, ptr %isolate.addr.i538, align 8
  %356 = load ptr, ptr %isolate.addr.i538, align 8
  store ptr %356, ptr %isolate.addr.i.i536, align 8
  %357 = load ptr, ptr %isolate.addr.i538, align 8
  store ptr %357, ptr %isolate.addr.i7.i533, align 8
  store i32 4, ptr %index.addr.i.i534, align 4
  %358 = load ptr, ptr %isolate.addr.i7.i533, align 8
  %359 = ptrtoint ptr %358 to i64
  %add.i.i540 = add i64 %359, 576
  %360 = load i32, ptr %index.addr.i.i534, align 4
  %mul.i.i541 = mul nsw i32 %360, 8
  %conv.i.i542 = sext i32 %mul.i.i541 to i64
  %add1.i.i543 = add i64 %add.i.i540, %conv.i.i542
  store i64 %add1.i.i543, ptr %addr.i.i535, align 8
  %361 = load i64, ptr %addr.i.i535, align 8
  %362 = inttoptr i64 %361 to ptr
  store ptr %362, ptr %slot.i539, align 8
  %363 = load ptr, ptr %slot.i539, align 8
  store ptr %363, ptr %slot.addr.i600, align 8
  %364 = load ptr, ptr %slot.addr.i600, align 8
  store ptr %364, ptr %slot.addr.i646, align 8
  %365 = load ptr, ptr %slot.addr.i646, align 8
  store ptr %retval.i645, ptr %this.addr.i671, align 8
  store ptr %365, ptr %location.addr.i, align 8
  %this1.i672 = load ptr, ptr %this.addr.i671, align 8
  %366 = load ptr, ptr %location.addr.i, align 8
  store ptr %this1.i672, ptr %this.addr.i.i670, align 8
  store ptr %366, ptr %location.addr.i.i, align 8
  %this1.i.i673 = load ptr, ptr %this.addr.i.i670, align 8
  %367 = load ptr, ptr %location.addr.i.i, align 8
  store ptr %367, ptr %this1.i.i673, align 8
  %368 = load ptr, ptr %retval.i645, align 8
  store ptr %368, ptr %ref.tmp.i601, align 8
  store ptr %retval.i599, ptr %this.addr.i667, align 8
  store ptr %ref.tmp.i601, ptr %other.addr.i668, align 8
  %this1.i669 = load ptr, ptr %this.addr.i667, align 8
  %369 = load ptr, ptr %other.addr.i668, align 8
  call void @llvm.memcpy.p0.p0.i64(ptr align 8 %this1.i669, ptr align 8 %369, i64 8, i1 false)
  %370 = load ptr, ptr %retval.i599, align 8
  store ptr %370, ptr %retval.i537, align 8
  %371 = load ptr, ptr %retval.i537, align 8
  store ptr %371, ptr %agg.tmp.i, align 8
  %372 = load ptr, ptr %agg.tmp.i, align 8
  store ptr %372, ptr %that.i566, align 8
  store ptr %retval.i171, ptr %this.addr.i567, align 8
  %this3.i568 = load ptr, ptr %this.addr.i567, align 8
  store ptr %this3.i568, ptr %this.addr.i716, align 8
  store ptr %that.i566, ptr %other.addr.i717, align 8
  %this1.i718 = load ptr, ptr %this.addr.i716, align 8
  %373 = load ptr, ptr %other.addr.i717, align 8
  call void @llvm.memcpy.p0.p0.i64(ptr align 8 %this1.i718, ptr align 8 %373, i64 8, i1 false)
  br label %_ZNK2v820FunctionCallbackInfoINS_5ValueEEixEi.exit

if.end.i:                                         ; preds = %lor.lhs.false.i
  %values_.i = getelementptr inbounds %"class.v8::FunctionCallbackInfo", ptr %this1.i173, i32 0, i32 1
  %374 = load ptr, ptr %values_.i, align 8
  %375 = load i32, ptr %i.addr.i, align 4
  %idx.ext.i = sext i32 %375 to i64
  %add.ptr.i = getelementptr inbounds i64, ptr %374, i64 %idx.ext.i
  store ptr %add.ptr.i, ptr %slot.addr.i596, align 8
  %376 = load ptr, ptr %slot.addr.i596, align 8
  store ptr %376, ptr %slot.addr.i741, align 8
  %377 = load ptr, ptr %slot.addr.i741, align 8
  store ptr %retval.i740, ptr %this.addr.i824, align 8
  store ptr %377, ptr %location.addr.i825, align 8
  %this1.i826 = load ptr, ptr %this.addr.i824, align 8
  %378 = load ptr, ptr %location.addr.i825, align 8
  store ptr %this1.i826, ptr %this.addr.i.i822, align 8
  store ptr %378, ptr %location.addr.i.i823, align 8
  %this1.i.i827 = load ptr, ptr %this.addr.i.i822, align 8
  %379 = load ptr, ptr %location.addr.i.i823, align 8
  store ptr %379, ptr %this1.i.i827, align 8
  %380 = load ptr, ptr %retval.i740, align 8
  store ptr %380, ptr %ref.tmp.i597, align 8
  store ptr %retval.i595, ptr %this.addr.i756, align 8
  store ptr %ref.tmp.i597, ptr %other.addr.i757, align 8
  %this1.i758 = load ptr, ptr %this.addr.i756, align 8
  %381 = load ptr, ptr %other.addr.i757, align 8
  call void @llvm.memcpy.p0.p0.i64(ptr align 8 %this1.i758, ptr align 8 %381, i64 8, i1 false)
  %382 = load ptr, ptr %retval.i595, align 8
  store ptr %382, ptr %retval.i171, align 8
  br label %_ZNK2v820FunctionCallbackInfoINS_5ValueEEixEi.exit

_ZNK2v820FunctionCallbackInfoINS_5ValueEEixEi.exit: ; preds = %if.end.i, %if.then.i
  %383 = load ptr, ptr %retval.i171, align 8
  %coerce.dive122 = getelementptr inbounds %"class.v8::Local.298", ptr %ref.tmp119, i32 0, i32 0
  %coerce.dive123 = getelementptr inbounds %"class.v8::LocalBase.299", ptr %coerce.dive122, i32 0, i32 0
  %coerce.dive124 = getelementptr inbounds %"class.v8::IndirectHandleBase", ptr %coerce.dive123, i32 0, i32 0
  store ptr %383, ptr %coerce.dive124, align 8
  store ptr %ref.tmp119, ptr %this.addr.i336, align 8
  %this1.i338 = load ptr, ptr %this.addr.i336, align 8
  call void @llvm.memcpy.p0.p0.i64(ptr align 8 %agg.tmp.i337, ptr align 8 %this1.i338, i64 8, i1 false)
  %384 = load ptr, ptr %agg.tmp.i337, align 8
  store ptr %384, ptr %that.i894, align 8
  store ptr %ref.tmp.i895, ptr %this.addr.i896, align 8
  store ptr %that.i894, ptr %other.addr.i897, align 8
  %this1.i898 = load ptr, ptr %this.addr.i896, align 8
  %385 = load ptr, ptr %other.addr.i897, align 8
  call void @llvm.memcpy.p0.p0.i64(ptr align 8 %this1.i898, ptr align 8 %385, i64 8, i1 false)
  store ptr %retval.i893, ptr %this.addr.i905, align 8
  store ptr %ref.tmp.i895, ptr %other.addr.i906, align 8
  %this1.i907 = load ptr, ptr %this.addr.i905, align 8
  %386 = load ptr, ptr %other.addr.i906, align 8
  call void @llvm.memcpy.p0.p0.i64(ptr align 8 %this1.i907, ptr align 8 %386, i64 8, i1 false)
  %387 = load ptr, ptr %retval.i893, align 8
  store ptr %387, ptr %retval.i335, align 8
  %388 = load ptr, ptr %retval.i335, align 8
  %coerce.dive126 = getelementptr inbounds %"class.v8::Local.325", ptr %ref.tmp118, i32 0, i32 0
  %coerce.dive127 = getelementptr inbounds %"class.v8::LocalBase.326", ptr %coerce.dive126, i32 0, i32 0
  %coerce.dive128 = getelementptr inbounds %"class.v8::IndirectHandleBase", ptr %coerce.dive127, i32 0, i32 0
  store ptr %388, ptr %coerce.dive128, align 8
  store ptr %ref.tmp118, ptr %this.addr.i350, align 8
  %this1.i351 = load ptr, ptr %this.addr.i350, align 8
  store ptr %this1.i351, ptr %this.addr.i924, align 8
  %this1.i925 = load ptr, ptr %this.addr.i924, align 8
  store ptr %this1.i925, ptr %this.addr.i.i923, align 8
  %this1.i.i926 = load ptr, ptr %this.addr.i.i923, align 8
  %389 = load ptr, ptr %this1.i.i926, align 8
  store ptr %389, ptr %slot.addr.i928, align 8
  %390 = load ptr, ptr %slot.addr.i928, align 8
  %call130 = call noundef i32 @_ZNK2v85Int325ValueEv(ptr noundef nonnull align 1 dereferenceable(1) %390)
  store i32 %call130, ptr %dsa_sig_enc, align 4
  %391 = load ptr, ptr %sign, align 8
  %392 = load i32, ptr %padding, align 4
  %393 = load i32, ptr %dsa_sig_enc, align 4
  call void @_ZN4node6crypto4Sign9SignFinalERKNS0_14ManagedEVPPKeyEiRKN2v85MaybeIiEENS0_9DSASigEncE(ptr sret(%"struct.node::crypto::Sign::SignResult") align 8 %ret, ptr noundef nonnull align 8 dereferenceable(40) %391, ptr noundef nonnull align 8 dereferenceable(32) %key, i32 noundef %392, ptr noundef nonnull align 4 dereferenceable(8) %salt_len, i32 noundef %393)
  %error = getelementptr inbounds %"struct.node::crypto::Sign::SignResult", ptr %ret, i32 0, i32 0
  %394 = load i32, ptr %error, align 8
  %cmp131 = icmp ne i32 %394, 0
  br i1 %cmp131, label %if.then132, label %if.end134

if.then132:                                       ; preds = %_ZNK2v820FunctionCallbackInfoINS_5ValueEEixEi.exit
  %395 = load ptr, ptr %env, align 8
  %error133 = getelementptr inbounds %"struct.node::crypto::Sign::SignResult", ptr %ret, i32 0, i32 0
  %396 = load i32, ptr %error133, align 8
  call void @_ZN4node6crypto12_GLOBAL__N_110CheckThrowEPNS_11EnvironmentENS0_8SignBase5ErrorE(ptr noundef %395, i32 noundef %396)
  store i32 1, ptr %cleanup.dest.slot, align 4
  br label %cleanup

if.end134:                                        ; preds = %_ZNK2v820FunctionCallbackInfoINS_5ValueEEixEi.exit
  %397 = load ptr, ptr %env, align 8
  %call135 = call noundef ptr @_ZNK4node11Environment7isolateEv(ptr noundef nonnull align 8 dereferenceable(2872) %397)
  %signature = getelementptr inbounds %"struct.node::crypto::Sign::SignResult", ptr %ret, i32 0, i32 1
  call void @_ZNSt10shared_ptrIN2v812BackingStoreEEC2IS1_St14default_deleteIS1_EvEEOSt10unique_ptrIT_T0_E(ptr noundef nonnull align 8 dereferenceable(16) %agg.tmp136, ptr noundef nonnull align 8 dereferenceable(8) %signature)
  %call137 = call ptr @_ZN2v811ArrayBuffer3NewEPNS_7IsolateESt10shared_ptrINS_12BackingStoreEE(ptr noundef %call135, ptr noundef %agg.tmp136)
  %coerce.dive138 = getelementptr inbounds %"class.v8::Local.327", ptr %ab, i32 0, i32 0
  %coerce.dive139 = getelementptr inbounds %"class.v8::LocalBase.328", ptr %coerce.dive138, i32 0, i32 0
  %coerce.dive140 = getelementptr inbounds %"class.v8::IndirectHandleBase", ptr %coerce.dive139, i32 0, i32 0
  store ptr %call137, ptr %coerce.dive140, align 8
  call void @_ZNSt10shared_ptrIN2v812BackingStoreEED2Ev(ptr noundef nonnull align 8 dereferenceable(16) %agg.tmp136) #3
  %398 = load ptr, ptr %args.addr, align 8
  store ptr %398, ptr %this.addr.i360, align 8
  %this1.i361 = load ptr, ptr %this.addr.i360, align 8
  %399 = load ptr, ptr %this1.i361, align 8
  %arrayidx.i = getelementptr inbounds i64, ptr %399, i64 3
  store ptr %retval.i359, ptr %this.addr.i931, align 8
  store ptr %arrayidx.i, ptr %slot.addr.i932, align 8
  %this1.i933 = load ptr, ptr %this.addr.i931, align 8
  %400 = load ptr, ptr %slot.addr.i932, align 8
  store ptr %400, ptr %this1.i933, align 8
  %401 = load ptr, ptr %retval.i359, align 8
  %coerce.dive143 = getelementptr inbounds %"class.v8::ReturnValue", ptr %ref.tmp141, i32 0, i32 0
  store ptr %401, ptr %coerce.dive143, align 8
  %402 = load ptr, ptr %env, align 8
  call void @llvm.memcpy.p0.p0.i64(ptr align 8 %agg.tmp146, ptr align 8 %ab, i64 8, i1 false)
  store ptr %ab, ptr %this.addr.i367, align 8
  %this1.i368 = load ptr, ptr %this.addr.i367, align 8
  store ptr %this1.i368, ptr %this.addr.i935, align 8
  %this1.i936 = load ptr, ptr %this.addr.i935, align 8
  store ptr %this1.i936, ptr %this.addr.i.i934, align 8
  %this1.i.i937 = load ptr, ptr %this.addr.i.i934, align 8
  %403 = load ptr, ptr %this1.i.i937, align 8
  store ptr %403, ptr %slot.addr.i938, align 8
  %404 = load ptr, ptr %slot.addr.i938, align 8
  %call148 = call noundef i64 @_ZNK2v811ArrayBuffer10ByteLengthEv(ptr noundef nonnull align 1 dereferenceable(1) %404)
  %coerce.dive149 = getelementptr inbounds %"class.v8::Local.327", ptr %agg.tmp146, i32 0, i32 0
  %coerce.dive150 = getelementptr inbounds %"class.v8::LocalBase.328", ptr %coerce.dive149, i32 0, i32 0
  %coerce.dive151 = getelementptr inbounds %"class.v8::IndirectHandleBase", ptr %coerce.dive150, i32 0, i32 0
  %405 = load ptr, ptr %coerce.dive151, align 8
  %call152 = call ptr @_ZN4node6Buffer3NewEPNS_11EnvironmentEN2v85LocalINS3_11ArrayBufferEEEmm(ptr noundef %402, ptr %405, i64 noundef 0, i64 noundef %call148)
  %coerce.dive153 = getelementptr inbounds %"class.v8::MaybeLocal.332", ptr %ref.tmp145, i32 0, i32 0
  %coerce.dive154 = getelementptr inbounds %"class.v8::Local.333", ptr %coerce.dive153, i32 0, i32 0
  %coerce.dive155 = getelementptr inbounds %"class.v8::LocalBase.334", ptr %coerce.dive154, i32 0, i32 0
  %coerce.dive156 = getelementptr inbounds %"class.v8::IndirectHandleBase", ptr %coerce.dive155, i32 0, i32 0
  store ptr %call152, ptr %coerce.dive156, align 8
  call void @llvm.memset.p0.i64(ptr align 8 %agg.tmp157, i8 0, i64 8, i1 false)
  store ptr %agg.tmp157, ptr %this.addr.i375, align 8
  %this1.i376 = load ptr, ptr %this.addr.i375, align 8
  store ptr %this1.i376, ptr %this.addr.i454, align 8
  %this1.i455 = load ptr, ptr %this.addr.i454, align 8
  store ptr %this1.i455, ptr %this.addr.i.i453, align 8
  %this1.i.i456 = load ptr, ptr %this.addr.i.i453, align 8
  store ptr null, ptr %this1.i.i456, align 8
  %coerce.dive158 = getelementptr inbounds %"class.v8::Local.298", ptr %agg.tmp157, i32 0, i32 0
  %coerce.dive159 = getelementptr inbounds %"class.v8::LocalBase.299", ptr %coerce.dive158, i32 0, i32 0
  %coerce.dive160 = getelementptr inbounds %"class.v8::IndirectHandleBase", ptr %coerce.dive159, i32 0, i32 0
  %406 = load ptr, ptr %coerce.dive160, align 8
  store ptr %406, ptr %default_value.i, align 8
  store ptr %ref.tmp145, ptr %this.addr.i371, align 8
  %this3.i373 = load ptr, ptr %this.addr.i371, align 8
  store ptr %this3.i373, ptr %this.addr.i940, align 8
  %this1.i941 = load ptr, ptr %this.addr.i940, align 8
  store ptr %this1.i941, ptr %this.addr.i.i939, align 8
  %this1.i.i942 = load ptr, ptr %this.addr.i.i939, align 8
  %407 = load ptr, ptr %this1.i.i942, align 8
  %cmp.i.i = icmp eq ptr %407, null
  br i1 %cmp.i.i, label %cond.true.i, label %cond.false.i

cond.true.i:                                      ; preds = %if.end134
  call void @llvm.memcpy.p0.p0.i64(ptr align 8 %retval.i370, ptr align 8 %default_value.i, i64 8, i1 false)
  br label %_ZNK2v810MaybeLocalINS_10Uint8ArrayEE9FromMaybeINS_5ValueEEENS_5LocalIT_EES7_.exit

cond.false.i:                                     ; preds = %if.end134
  call void @llvm.memcpy.p0.p0.i64(ptr align 8 %agg.tmp.i372, ptr align 8 %this3.i373, i64 8, i1 false)
  %408 = load ptr, ptr %agg.tmp.i372, align 8
  store ptr %408, ptr %that.i943, align 8
  store ptr %retval.i370, ptr %this.addr.i944, align 8
  %this3.i945 = load ptr, ptr %this.addr.i944, align 8
  store ptr %this3.i945, ptr %this.addr.i946, align 8
  store ptr %that.i943, ptr %other.addr.i947, align 8
  %this1.i948 = load ptr, ptr %this.addr.i946, align 8
  %409 = load ptr, ptr %other.addr.i947, align 8
  call void @llvm.memcpy.p0.p0.i64(ptr align 8 %this1.i948, ptr align 8 %409, i64 8, i1 false)
  br label %_ZNK2v810MaybeLocalINS_10Uint8ArrayEE9FromMaybeINS_5ValueEEENS_5LocalIT_EES7_.exit

_ZNK2v810MaybeLocalINS_10Uint8ArrayEE9FromMaybeINS_5ValueEEENS_5LocalIT_EES7_.exit: ; preds = %cond.false.i, %cond.true.i
  %410 = load ptr, ptr %retval.i370, align 8
  %coerce.dive162 = getelementptr inbounds %"class.v8::Local.298", ptr %agg.tmp144, i32 0, i32 0
  %coerce.dive163 = getelementptr inbounds %"class.v8::LocalBase.299", ptr %coerce.dive162, i32 0, i32 0
  %coerce.dive164 = getelementptr inbounds %"class.v8::IndirectHandleBase", ptr %coerce.dive163, i32 0, i32 0
  store ptr %410, ptr %coerce.dive164, align 8
  %coerce.dive165 = getelementptr inbounds %"class.v8::Local.298", ptr %agg.tmp144, i32 0, i32 0
  %coerce.dive166 = getelementptr inbounds %"class.v8::LocalBase.299", ptr %coerce.dive165, i32 0, i32 0
  %coerce.dive167 = getelementptr inbounds %"class.v8::IndirectHandleBase", ptr %coerce.dive166, i32 0, i32 0
  %411 = load ptr, ptr %coerce.dive167, align 8
  store ptr %411, ptr %handle.i, align 8
  store ptr %ref.tmp141, ptr %this.addr.i362, align 8
  %this3.i363 = load ptr, ptr %this.addr.i362, align 8
  store ptr %handle.i, ptr %this.addr.i377, align 8
  %this1.i378 = load ptr, ptr %this.addr.i377, align 8
  %412 = load ptr, ptr %this1.i378, align 8
  %cmp.i379 = icmp eq ptr %412, null
  br i1 %cmp.i379, label %if.then.i366, label %if.else.i

if.then.i366:                                     ; preds = %_ZNK2v810MaybeLocalINS_10Uint8ArrayEE9FromMaybeINS_5ValueEEENS_5LocalIT_EES7_.exit
  store ptr %this3.i363, ptr %this.addr.i860, align 8
  %this1.i861 = load ptr, ptr %this.addr.i860, align 8
  store ptr %this1.i861, ptr %this.addr.i873, align 8
  %this1.i874 = load ptr, ptr %this.addr.i873, align 8
  %413 = load ptr, ptr %this1.i874, align 8
  %arrayidx.i875 = getelementptr inbounds i64, ptr %413, i64 -2
  %414 = load ptr, ptr %arrayidx.i875, align 8
  store ptr %414, ptr %isolate.addr.i868, align 8
  store i32 5, ptr %index.addr.i, align 4
  %415 = load ptr, ptr %isolate.addr.i868, align 8
  %416 = load i32, ptr %index.addr.i, align 4
  store ptr %415, ptr %isolate.addr.i.i865, align 8
  store i32 %416, ptr %index.addr.i.i866, align 4
  %417 = load ptr, ptr %isolate.addr.i.i865, align 8
  %418 = ptrtoint ptr %417 to i64
  %add.i.i869 = add i64 %418, 576
  %419 = load i32, ptr %index.addr.i.i866, align 4
  %mul.i.i870 = mul nsw i32 %419, 8
  %conv.i.i871 = sext i32 %mul.i.i870 to i64
  %add1.i.i872 = add i64 %add.i.i869, %conv.i.i871
  store i64 %add1.i.i872, ptr %addr.i.i867, align 8
  %420 = load i64, ptr %addr.i.i867, align 8
  %421 = inttoptr i64 %420 to ptr
  %422 = load i64, ptr %421, align 8
  %423 = load ptr, ptr %this3.i363, align 8
  store i64 %422, ptr %423, align 8
  br label %_ZN2v811ReturnValueINS_5ValueEE3SetIS1_EEvNS_5LocalIT_EE.exit

if.else.i:                                        ; preds = %_ZNK2v810MaybeLocalINS_10Uint8ArrayEE9FromMaybeINS_5ValueEEENS_5LocalIT_EES7_.exit
  store ptr %handle.i, ptr %this.addr.i863, align 8
  %this1.i864 = load ptr, ptr %this.addr.i863, align 8
  %424 = load ptr, ptr %this1.i864, align 8
  %425 = load i64, ptr %424, align 8
  %426 = load ptr, ptr %this3.i363, align 8
  store i64 %425, ptr %426, align 8
  br label %_ZN2v811ReturnValueINS_5ValueEE3SetIS1_EEvNS_5LocalIT_EE.exit

_ZN2v811ReturnValueINS_5ValueEE3SetIS1_EEvNS_5LocalIT_EE.exit: ; preds = %if.else.i, %if.then.i366
  store i32 0, ptr %cleanup.dest.slot, align 4
  br label %cleanup

cleanup:                                          ; preds = %_ZN2v811ReturnValueINS_5ValueEE3SetIS1_EEvNS_5LocalIT_EE.exit, %if.then132
  call void @_ZN4node6crypto4Sign10SignResultD2Ev(ptr noundef nonnull align 8 dereferenceable(16) %ret) #3
  br label %cleanup168

cleanup168:                                       ; preds = %cleanup, %if.then13
  call void @_ZN4node6crypto14ManagedEVPPKeyD2Ev(ptr noundef nonnull align 8 dereferenceable(32) %key) #3
  call void @_ZN4node6crypto18ClearErrorOnReturnD2Ev(ptr noundef nonnull align 1 dereferenceable(1) %clear_error_on_return) #3
  %cleanup.dest = load i32, ptr %cleanup.dest.slot, align 4
  switch i32 %cleanup.dest, label %unreachable [
    i32 0, label %cleanup.cont
    i32 1, label %cleanup.cont
  ]

cleanup.cont:                                     ; preds = %cleanup168, %cleanup168, %if.then
  ret void

unreachable:                                      ; preds = %cleanup168
  unreachable
}

declare void @_ZN4node22SetConstructorFunctionEN2v85LocalINS0_7ContextEEENS1_INS0_6ObjectEEEPKcNS1_INS0_16FunctionTemplateEEENS_26SetConstructorFunctionFlagE(ptr, ptr, ptr noundef, ptr, i32 noundef) #1

; Function Attrs: mustprogress nounwind uwtable
define linkonce_odr dso_local ptr @_ZNK4node11Environment7contextEv(ptr noundef nonnull align 8 dereferenceable(2872) %this) #4 comdat align 2 {
entry:
  %retval = alloca %"class.v8::Local.290", align 8
  %this.addr = alloca ptr, align 8
  store ptr %this, ptr %this.addr, align 8
  %this1 = load ptr, ptr %this.addr, align 8
  %call = call noundef ptr @_ZNK4node11Environment15principal_realmEv(ptr noundef nonnull align 8 dereferenceable(2872) %this1)
  %vtable = load ptr, ptr %call, align 8
  %vfn = getelementptr inbounds ptr, ptr %vtable, i64 8
  %0 = load ptr, ptr %vfn, align 8
  %call2 = call ptr %0(ptr noundef nonnull align 8 dereferenceable(872) %call)
  %coerce.dive = getelementptr inbounds %"class.v8::Local.290", ptr %retval, i32 0, i32 0
  %coerce.dive3 = getelementptr inbounds %"class.v8::LocalBase.291", ptr %coerce.dive, i32 0, i32 0
  %coerce.dive4 = getelementptr inbounds %"class.v8::IndirectHandleBase", ptr %coerce.dive3, i32 0, i32 0
  store ptr %call2, ptr %coerce.dive4, align 8
  %coerce.dive5 = getelementptr inbounds %"class.v8::Local.290", ptr %retval, i32 0, i32 0
  %coerce.dive6 = getelementptr inbounds %"class.v8::LocalBase.291", ptr %coerce.dive5, i32 0, i32 0
  %coerce.dive7 = getelementptr inbounds %"class.v8::IndirectHandleBase", ptr %coerce.dive6, i32 0, i32 0
  %1 = load ptr, ptr %coerce.dive7, align 8
  ret ptr %1
}

; Function Attrs: mustprogress nounwind uwtable
define linkonce_odr dso_local void @_ZN4node6crypto13DeriveBitsJobINS0_10SignTraitsEE10InitializeEPNS_11EnvironmentEN2v85LocalINS6_6ObjectEEE(ptr noundef %env, ptr %target.coerce) #4 comdat align 2 {
entry:
  %target = alloca %"class.v8::Local", align 8
  %env.addr = alloca ptr, align 8
  %agg.tmp = alloca %"class.v8::Local", align 8
  %coerce.dive = getelementptr inbounds %"class.v8::Local", ptr %target, i32 0, i32 0
  %coerce.dive1 = getelementptr inbounds %"class.v8::LocalBase", ptr %coerce.dive, i32 0, i32 0
  %coerce.dive2 = getelementptr inbounds %"class.v8::IndirectHandleBase", ptr %coerce.dive1, i32 0, i32 0
  store ptr %target.coerce, ptr %coerce.dive2, align 8
  store ptr %env, ptr %env.addr, align 8
  %0 = load ptr, ptr %env.addr, align 8
  call void @llvm.memcpy.p0.p0.i64(ptr align 8 %agg.tmp, ptr align 8 %target, i64 8, i1 false)
  %coerce.dive3 = getelementptr inbounds %"class.v8::Local", ptr %agg.tmp, i32 0, i32 0
  %coerce.dive4 = getelementptr inbounds %"class.v8::LocalBase", ptr %coerce.dive3, i32 0, i32 0
  %coerce.dive5 = getelementptr inbounds %"class.v8::IndirectHandleBase", ptr %coerce.dive4, i32 0, i32 0
  %1 = load ptr, ptr %coerce.dive5, align 8
  call void @_ZN4node6crypto9CryptoJobINS0_10SignTraitsEE10InitializeEPFvRKN2v820FunctionCallbackInfoINS4_5ValueEEEEPNS_11EnvironmentENS4_5LocalINS4_6ObjectEEE(ptr noundef @_ZN4node6crypto13DeriveBitsJobINS0_10SignTraitsEE3NewERKN2v820FunctionCallbackInfoINS4_5ValueEEE, ptr noundef %0, ptr %1)
  ret void
}

declare noundef ptr @_ZN2v86Object10GetIsolateEv(ptr noundef nonnull align 1 dereferenceable(1)) #1

declare ptr @_ZN2v87Isolate17GetCurrentContextEv(ptr noundef nonnull align 1 dereferenceable(1)) #1

declare ptr @_ZN2v86String11NewFromUtf8EPNS_7IsolateEPKcNS_13NewStringTypeEi(ptr noundef, ptr noundef, i32 noundef, i32 noundef) #1

declare ptr @_ZN2v86Number3NewEPNS_7IsolateEd(ptr noundef, double noundef) #1

declare i16 @_ZN2v86Object17DefineOwnPropertyENS_5LocalINS_7ContextEEENS1_INS_4NameEEENS1_INS_5ValueEEENS_17PropertyAttributeE(ptr noundef nonnull align 1 dereferenceable(1), ptr, ptr, ptr, i32 noundef) #1

; Function Attrs: mustprogress nounwind uwtable
define dso_local void @_ZN4node6crypto4Sign26RegisterExternalReferencesEPNS_25ExternalReferenceRegistryE(ptr noundef %registry) #4 align 2 {
entry:
  %registry.addr = alloca ptr, align 8
  store ptr %registry, ptr %registry.addr, align 8
  %0 = load ptr, ptr %registry.addr, align 8
  call void @_ZN4node25ExternalReferenceRegistry8RegisterEPFvRKN2v820FunctionCallbackInfoINS1_5ValueEEEE(ptr noundef nonnull align 8 dereferenceable(32) %0, ptr noundef @_ZN4node6crypto4Sign3NewERKN2v820FunctionCallbackInfoINS2_5ValueEEE)
  %1 = load ptr, ptr %registry.addr, align 8
  call void @_ZN4node25ExternalReferenceRegistry8RegisterEPFvRKN2v820FunctionCallbackInfoINS1_5ValueEEEE(ptr noundef nonnull align 8 dereferenceable(32) %1, ptr noundef @_ZN4node6crypto4Sign8SignInitERKN2v820FunctionCallbackInfoINS2_5ValueEEE)
  %2 = load ptr, ptr %registry.addr, align 8
  call void @_ZN4node25ExternalReferenceRegistry8RegisterEPFvRKN2v820FunctionCallbackInfoINS1_5ValueEEEE(ptr noundef nonnull align 8 dereferenceable(32) %2, ptr noundef @_ZN4node6crypto4Sign10SignUpdateERKN2v820FunctionCallbackInfoINS2_5ValueEEE)
  %3 = load ptr, ptr %registry.addr, align 8
  call void @_ZN4node25ExternalReferenceRegistry8RegisterEPFvRKN2v820FunctionCallbackInfoINS1_5ValueEEEE(ptr noundef nonnull align 8 dereferenceable(32) %3, ptr noundef @_ZN4node6crypto4Sign9SignFinalERKN2v820FunctionCallbackInfoINS2_5ValueEEE)
  %4 = load ptr, ptr %registry.addr, align 8
  call void @_ZN4node6crypto13DeriveBitsJobINS0_10SignTraitsEE26RegisterExternalReferencesEPNS_25ExternalReferenceRegistryE(ptr noundef %4)
  ret void
}

; Function Attrs: mustprogress nounwind uwtable
define linkonce_odr dso_local void @_ZN4node25ExternalReferenceRegistry8RegisterEPFvRKN2v820FunctionCallbackInfoINS1_5ValueEEEE(ptr noundef nonnull align 8 dereferenceable(32) %this, ptr noundef %addr) #4 comdat align 2 {
entry:
  %this.addr = alloca ptr, align 8
  %addr.addr = alloca ptr, align 8
  store ptr %this, ptr %this.addr, align 8
  store ptr %addr, ptr %addr.addr, align 8
  %this1 = load ptr, ptr %this.addr, align 8
  %0 = load ptr, ptr %addr.addr, align 8
  call void @_ZN4node25ExternalReferenceRegistry9RegisterTIFvRKN2v820FunctionCallbackInfoINS2_5ValueEEEEEEvPT_(ptr noundef nonnull align 8 dereferenceable(32) %this1, ptr noundef %0)
  ret void
}

; Function Attrs: mustprogress nounwind uwtable
define linkonce_odr dso_local void @_ZN4node6crypto13DeriveBitsJobINS0_10SignTraitsEE26RegisterExternalReferencesEPNS_25ExternalReferenceRegistryE(ptr noundef %registry) #4 comdat align 2 {
entry:
  %registry.addr = alloca ptr, align 8
  store ptr %registry, ptr %registry.addr, align 8
  %0 = load ptr, ptr %registry.addr, align 8
  call void @_ZN4node6crypto9CryptoJobINS0_10SignTraitsEE26RegisterExternalReferencesEPFvRKN2v820FunctionCallbackInfoINS4_5ValueEEEEPNS_25ExternalReferenceRegistryE(ptr noundef @_ZN4node6crypto13DeriveBitsJobINS0_10SignTraitsEE3NewERKN2v820FunctionCallbackInfoINS4_5ValueEEE, ptr noundef %0)
  ret void
}

; Function Attrs: mustprogress nounwind uwtable
define linkonce_odr dso_local noundef ptr @_ZN4node11Environment10GetCurrentERKN2v820FunctionCallbackInfoINS1_5ValueEEE(ptr noundef nonnull align 8 dereferenceable(20) %info) #4 comdat align 2 {
entry:
  %this.addr.i = alloca ptr, align 8
  %info.addr = alloca ptr, align 8
  %agg.tmp = alloca %"class.v8::Local.290", align 8
  store ptr %info, ptr %info.addr, align 8
  %0 = load ptr, ptr %info.addr, align 8
  store ptr %0, ptr %this.addr.i, align 8
  %this1.i = load ptr, ptr %this.addr.i, align 8
  %1 = load ptr, ptr %this1.i, align 8
  %arrayidx.i = getelementptr inbounds i64, ptr %1, i64 1
  %2 = load ptr, ptr %arrayidx.i, align 8
  %call1 = call ptr @_ZN2v87Isolate17GetCurrentContextEv(ptr noundef nonnull align 1 dereferenceable(1) %2)
  %coerce.dive = getelementptr inbounds %"class.v8::Local.290", ptr %agg.tmp, i32 0, i32 0
  %coerce.dive2 = getelementptr inbounds %"class.v8::LocalBase.291", ptr %coerce.dive, i32 0, i32 0
  %coerce.dive3 = getelementptr inbounds %"class.v8::IndirectHandleBase", ptr %coerce.dive2, i32 0, i32 0
  store ptr %call1, ptr %coerce.dive3, align 8
  %coerce.dive4 = getelementptr inbounds %"class.v8::Local.290", ptr %agg.tmp, i32 0, i32 0
  %coerce.dive5 = getelementptr inbounds %"class.v8::LocalBase.291", ptr %coerce.dive4, i32 0, i32 0
  %coerce.dive6 = getelementptr inbounds %"class.v8::IndirectHandleBase", ptr %coerce.dive5, i32 0, i32 0
  %3 = load ptr, ptr %coerce.dive6, align 8
  %call7 = call noundef ptr @_ZN4node11Environment10GetCurrentEN2v85LocalINS1_7ContextEEE(ptr %3)
  ret ptr %call7
}

; Function Attrs: nobuiltin allocsize(0)
declare noundef nonnull ptr @_Znwm(i64 noundef) #9

; Function Attrs: mustprogress nounwind uwtable
define linkonce_odr dso_local noundef ptr @_ZN4node10BaseObject12FromJSObjectEN2v85LocalINS1_5ValueEEE(ptr %value.coerce) #4 comdat align 2 {
entry:
  %slot.addr.i = alloca ptr, align 8
  %this.addr.i.i = alloca ptr, align 8
  %this.addr.i30 = alloca ptr, align 8
  %heap_object_ptr.addr.i = alloca i64, align 8
  %offset.addr.i = alloca i32, align 4
  %addr.i = alloca i64, align 8
  %instance_type.addr.i = alloca i32, align 4
  %heap_object_ptr.addr.i2.i = alloca i64, align 8
  %offset.addr.i3.i = alloca i32, align 4
  %addr.i.i21 = alloca i64, align 8
  %heap_object_ptr.addr.i.i22 = alloca i64, align 8
  %offset.addr.i.i23 = alloca i32, align 4
  %obj.addr.i = alloca i64, align 8
  %map.i = alloca i64, align 8
  %value.addr.i = alloca ptr, align 8
  %this.addr.i18 = alloca ptr, align 8
  %other.addr.i19 = alloca ptr, align 8
  %this.addr.i16 = alloca ptr, align 8
  %other.addr.i = alloca ptr, align 8
  %retval.i15 = alloca %"class.v8::Local", align 8
  %that.i = alloca %"class.v8::Local.298", align 8
  %ref.tmp.i = alloca %"class.v8::LocalBase", align 8
  %heap_object_ptr.addr.i8.i = alloca i64, align 8
  %offset.addr.i9.i = alloca i32, align 4
  %addr.i.i = alloca i64, align 8
  %isolate.addr.i.i = alloca ptr, align 8
  %heap_object_ptr.addr.i.i = alloca i64, align 8
  %offset.addr.i.i = alloca i32, align 4
  %obj.addr.i.i = alloca i64, align 8
  %retval.i11 = alloca ptr, align 8
  %this.addr.i12 = alloca ptr, align 8
  %index.addr.i = alloca i32, align 4
  %obj.i = alloca i64, align 8
  %instance_type.i = alloca i32, align 4
  %offset.i = alloca i32, align 4
  %isolate.i = alloca ptr, align 8
  %value.i = alloca i64, align 8
  %retval.i = alloca %"class.v8::Local", align 8
  %this.addr.i8 = alloca ptr, align 8
  %agg.tmp.i = alloca %"class.v8::Local.298", align 8
  %this.addr.i = alloca ptr, align 8
  %value = alloca %"class.v8::Local.298", align 8
  %obj = alloca %"class.v8::Local", align 8
  %coerce.dive = getelementptr inbounds %"class.v8::Local.298", ptr %value, i32 0, i32 0
  %coerce.dive1 = getelementptr inbounds %"class.v8::LocalBase.299", ptr %coerce.dive, i32 0, i32 0
  %coerce.dive2 = getelementptr inbounds %"class.v8::IndirectHandleBase", ptr %coerce.dive1, i32 0, i32 0
  store ptr %value.coerce, ptr %coerce.dive2, align 8
  store ptr %value, ptr %this.addr.i8, align 8
  %this1.i9 = load ptr, ptr %this.addr.i8, align 8
  call void @llvm.memcpy.p0.p0.i64(ptr align 8 %agg.tmp.i, ptr align 8 %this1.i9, i64 8, i1 false)
  %0 = load ptr, ptr %agg.tmp.i, align 8
  store ptr %0, ptr %that.i, align 8
  store ptr %ref.tmp.i, ptr %this.addr.i16, align 8
  store ptr %that.i, ptr %other.addr.i, align 8
  %this1.i17 = load ptr, ptr %this.addr.i16, align 8
  %1 = load ptr, ptr %other.addr.i, align 8
  call void @llvm.memcpy.p0.p0.i64(ptr align 8 %this1.i17, ptr align 8 %1, i64 8, i1 false)
  store ptr %retval.i15, ptr %this.addr.i18, align 8
  store ptr %ref.tmp.i, ptr %other.addr.i19, align 8
  %this1.i20 = load ptr, ptr %this.addr.i18, align 8
  %2 = load ptr, ptr %other.addr.i19, align 8
  call void @llvm.memcpy.p0.p0.i64(ptr align 8 %this1.i20, ptr align 8 %2, i64 8, i1 false)
  %3 = load ptr, ptr %retval.i15, align 8
  store ptr %3, ptr %retval.i, align 8
  %4 = load ptr, ptr %retval.i, align 8
  %coerce.dive3 = getelementptr inbounds %"class.v8::Local", ptr %obj, i32 0, i32 0
  %coerce.dive4 = getelementptr inbounds %"class.v8::LocalBase", ptr %coerce.dive3, i32 0, i32 0
  %coerce.dive5 = getelementptr inbounds %"class.v8::IndirectHandleBase", ptr %coerce.dive4, i32 0, i32 0
  store ptr %4, ptr %coerce.dive5, align 8
  store ptr %obj, ptr %this.addr.i, align 8
  %this1.i = load ptr, ptr %this.addr.i, align 8
  store ptr %this1.i, ptr %this.addr.i30, align 8
  %this1.i31 = load ptr, ptr %this.addr.i30, align 8
  store ptr %this1.i31, ptr %this.addr.i.i, align 8
  %this1.i.i = load ptr, ptr %this.addr.i.i, align 8
  %5 = load ptr, ptr %this1.i.i, align 8
  store ptr %5, ptr %slot.addr.i, align 8
  %6 = load ptr, ptr %slot.addr.i, align 8
  store ptr %6, ptr %this.addr.i12, align 8
  store i32 1, ptr %index.addr.i, align 4
  %this1.i13 = load ptr, ptr %this.addr.i12, align 8
  store ptr %this1.i13, ptr %value.addr.i, align 8
  %7 = load ptr, ptr %value.addr.i, align 8
  %8 = load i64, ptr %7, align 8
  store i64 %8, ptr %obj.i, align 8
  %9 = load i64, ptr %obj.i, align 8
  store i64 %9, ptr %obj.addr.i, align 8
  %10 = load i64, ptr %obj.addr.i, align 8
  store i64 %10, ptr %heap_object_ptr.addr.i.i22, align 8
  store i32 0, ptr %offset.addr.i.i23, align 4
  %11 = load i64, ptr %heap_object_ptr.addr.i.i22, align 8
  %12 = load i32, ptr %offset.addr.i.i23, align 4
  store i64 %11, ptr %heap_object_ptr.addr.i2.i, align 8
  store i32 %12, ptr %offset.addr.i3.i, align 4
  %13 = load i64, ptr %heap_object_ptr.addr.i2.i, align 8
  %14 = load i32, ptr %offset.addr.i3.i, align 4
  %conv.i.i24 = sext i32 %14 to i64
  %add.i.i25 = add i64 %13, %conv.i.i24
  %sub.i.i26 = sub i64 %add.i.i25, 1
  store i64 %sub.i.i26, ptr %addr.i.i21, align 8
  %15 = load i64, ptr %addr.i.i21, align 8
  %16 = inttoptr i64 %15 to ptr
  %17 = load i64, ptr %16, align 8
  store i64 %17, ptr %map.i, align 8
  %18 = load i64, ptr %map.i, align 8
  store i64 %18, ptr %heap_object_ptr.addr.i, align 8
  store i32 12, ptr %offset.addr.i, align 4
  %19 = load i64, ptr %heap_object_ptr.addr.i, align 8
  %20 = load i32, ptr %offset.addr.i, align 4
  %conv.i27 = sext i32 %20 to i64
  %add.i28 = add i64 %19, %conv.i27
  %sub.i29 = sub i64 %add.i28, 1
  store i64 %sub.i29, ptr %addr.i, align 8
  %21 = load i64, ptr %addr.i, align 8
  %22 = inttoptr i64 %21 to ptr
  %23 = load i16, ptr %22, align 2
  %conv.i = zext i16 %23 to i32
  store i32 %conv.i, ptr %instance_type.i, align 4
  %24 = load i32, ptr %instance_type.i, align 4
  store i32 %24, ptr %instance_type.addr.i, align 4
  %25 = load i32, ptr %instance_type.addr.i, align 4
  %cmp.i = icmp eq i32 %25, 1040
  br i1 %cmp.i, label %_ZN2v88internal9Internals20CanHaveInternalFieldEi.exit, label %lor.rhs.i

lor.rhs.i:                                        ; preds = %entry
  %26 = load i32, ptr %instance_type.addr.i, align 4
  %sub.i = sub i32 %26, 1057
  %cmp1.i = icmp ule i32 %sub.i, 1001
  br label %_ZN2v88internal9Internals20CanHaveInternalFieldEi.exit

_ZN2v88internal9Internals20CanHaveInternalFieldEi.exit: ; preds = %lor.rhs.i, %entry
  %27 = phi i1 [ true, %entry ], [ %cmp1.i, %lor.rhs.i ]
  br i1 %27, label %if.then.i, label %if.end.i

if.then.i:                                        ; preds = %_ZN2v88internal9Internals20CanHaveInternalFieldEi.exit
  %28 = load i32, ptr %index.addr.i, align 4
  %mul.i = mul nsw i32 8, %28
  %add.i = add nsw i32 24, %mul.i
  store i32 %add.i, ptr %offset.i, align 4
  %29 = load i64, ptr %obj.i, align 8
  store i64 %29, ptr %obj.addr.i.i, align 8
  store ptr null, ptr %isolate.i, align 8
  %30 = load ptr, ptr %isolate.i, align 8
  %31 = load i64, ptr %obj.i, align 8
  %32 = load i32, ptr %offset.i, align 4
  store ptr %30, ptr %isolate.addr.i.i, align 8
  store i64 %31, ptr %heap_object_ptr.addr.i.i, align 8
  store i32 %32, ptr %offset.addr.i.i, align 4
  %33 = load i64, ptr %heap_object_ptr.addr.i.i, align 8
  %34 = load i32, ptr %offset.addr.i.i, align 4
  store i64 %33, ptr %heap_object_ptr.addr.i8.i, align 8
  store i32 %34, ptr %offset.addr.i9.i, align 4
  %35 = load i64, ptr %heap_object_ptr.addr.i8.i, align 8
  %36 = load i32, ptr %offset.addr.i9.i, align 4
  %conv.i.i = sext i32 %36 to i64
  %add.i.i = add i64 %35, %conv.i.i
  %sub.i.i = sub i64 %add.i.i, 1
  store i64 %sub.i.i, ptr %addr.i.i, align 8
  %37 = load i64, ptr %addr.i.i, align 8
  %38 = inttoptr i64 %37 to ptr
  %39 = load i64, ptr %38, align 8
  store i64 %39, ptr %value.i, align 8
  %40 = load i64, ptr %value.i, align 8
  %41 = inttoptr i64 %40 to ptr
  store ptr %41, ptr %retval.i11, align 8
  br label %_ZN2v86Object34GetAlignedPointerFromInternalFieldEi.exit

if.end.i:                                         ; preds = %_ZN2v88internal9Internals20CanHaveInternalFieldEi.exit
  %42 = load i32, ptr %index.addr.i, align 4
  %call7.i = call noundef ptr @_ZN2v86Object38SlowGetAlignedPointerFromInternalFieldEi(ptr noundef nonnull align 1 dereferenceable(1) %this1.i13, i32 noundef %42) #3
  store ptr %call7.i, ptr %retval.i11, align 8
  br label %_ZN2v86Object34GetAlignedPointerFromInternalFieldEi.exit

_ZN2v86Object34GetAlignedPointerFromInternalFieldEi.exit: ; preds = %if.end.i, %if.then.i
  %43 = load ptr, ptr %retval.i11, align 8
  ret ptr %43
}

declare void @_ZN4node9Utf8ValueC1EPN2v87IsolateENS1_5LocalINS1_5ValueEEE(ptr noundef nonnull align 8 dereferenceable(1048), ptr noundef, ptr) unnamed_addr #1

; Function Attrs: mustprogress nounwind uwtable
define internal void @_ZN4node6crypto12_GLOBAL__N_110CheckThrowEPNS_11EnvironmentENS0_8SignBase5ErrorE(ptr noundef %env, i32 noundef %error) #4 {
entry:
  %env.addr = alloca ptr, align 8
  %error.addr = alloca i32, align 4
  %scope = alloca %"class.v8::HandleScope", align 8
  %cleanup.dest.slot = alloca i32, align 4
  %err = alloca i64, align 8
  store ptr %env, ptr %env.addr, align 8
  store i32 %error, ptr %error.addr, align 4
  %0 = load ptr, ptr %env.addr, align 8
  %call = call noundef ptr @_ZNK4node11Environment7isolateEv(ptr noundef nonnull align 8 dereferenceable(2872) %0)
  call void @_ZN2v811HandleScopeC1EPNS_7IsolateE(ptr noundef nonnull align 8 dereferenceable(24) %scope, ptr noundef %call)
  %1 = load i32, ptr %error.addr, align 4
  switch i32 %1, label %sw.epilog11 [
    i32 1, label %sw.bb
    i32 3, label %sw.bb1
    i32 7, label %sw.bb2
    i32 2, label %sw.bb3
    i32 4, label %sw.bb3
    i32 5, label %sw.bb3
    i32 6, label %sw.bb3
    i32 0, label %sw.bb10
  ]

sw.bb:                                            ; preds = %entry
  %2 = load ptr, ptr %env.addr, align 8
  call void @_ZN4node31THROW_ERR_CRYPTO_INVALID_DIGESTEPNS_11EnvironmentE(ptr noundef %2)
  store i32 1, ptr %cleanup.dest.slot, align 4
  br label %cleanup

sw.bb1:                                           ; preds = %entry
  %3 = load ptr, ptr %env.addr, align 8
  call void @_ZN4node30THROW_ERR_CRYPTO_INVALID_STATEIJEEEvPNS_11EnvironmentEPKcDpOT_(ptr noundef %3, ptr noundef @.str.50)
  store i32 1, ptr %cleanup.dest.slot, align 4
  br label %cleanup

sw.bb2:                                           ; preds = %entry
  %4 = load ptr, ptr %env.addr, align 8
  call void @_ZN4node33THROW_ERR_CRYPTO_OPERATION_FAILEDIJEEEvPNS_11EnvironmentEPKcDpOT_(ptr noundef %4, ptr noundef @.str.51)
  store i32 1, ptr %cleanup.dest.slot, align 4
  br label %cleanup

sw.bb3:                                           ; preds = %entry, %entry, %entry, %entry
  %call4 = call i64 @ERR_get_error()
  store i64 %call4, ptr %err, align 8
  %5 = load i64, ptr %err, align 8
  %tobool = icmp ne i64 %5, 0
  br i1 %tobool, label %if.then, label %if.end

if.then:                                          ; preds = %sw.bb3
  %6 = load ptr, ptr %env.addr, align 8
  %7 = load i64, ptr %err, align 8
  call void @_ZN4node6crypto16ThrowCryptoErrorEPNS_11EnvironmentEmPKc(ptr noundef %6, i64 noundef %7, ptr noundef null)
  store i32 1, ptr %cleanup.dest.slot, align 4
  br label %cleanup

if.end:                                           ; preds = %sw.bb3
  %8 = load i32, ptr %error.addr, align 4
  switch i32 %8, label %sw.default [
    i32 2, label %sw.bb5
    i32 4, label %sw.bb6
    i32 5, label %sw.bb7
    i32 6, label %sw.bb8
  ]

sw.bb5:                                           ; preds = %if.end
  %9 = load ptr, ptr %env.addr, align 8
  call void @_ZN4node33THROW_ERR_CRYPTO_OPERATION_FAILEDIJEEEvPNS_11EnvironmentEPKcDpOT_(ptr noundef %9, ptr noundef @.str.52)
  store i32 1, ptr %cleanup.dest.slot, align 4
  br label %cleanup

sw.bb6:                                           ; preds = %if.end
  %10 = load ptr, ptr %env.addr, align 8
  call void @_ZN4node33THROW_ERR_CRYPTO_OPERATION_FAILEDIJEEEvPNS_11EnvironmentEPKcDpOT_(ptr noundef %10, ptr noundef @.str.53)
  store i32 1, ptr %cleanup.dest.slot, align 4
  br label %cleanup

sw.bb7:                                           ; preds = %if.end
  %11 = load ptr, ptr %env.addr, align 8
  call void @_ZN4node33THROW_ERR_CRYPTO_OPERATION_FAILEDIJEEEvPNS_11EnvironmentEPKcDpOT_(ptr noundef %11, ptr noundef @.str.54)
  store i32 1, ptr %cleanup.dest.slot, align 4
  br label %cleanup

sw.bb8:                                           ; preds = %if.end
  %12 = load ptr, ptr %env.addr, align 8
  call void @_ZN4node33THROW_ERR_CRYPTO_OPERATION_FAILEDIJEEEvPNS_11EnvironmentEPKcDpOT_(ptr noundef %12, ptr noundef @.str.55)
  store i32 1, ptr %cleanup.dest.slot, align 4
  br label %cleanup

sw.default:                                       ; preds = %if.end
  br label %do.body

do.body:                                          ; preds = %sw.default
  %13 = load ptr, ptr @stderr, align 8
  call void @_ZN4node19DumpNativeBacktraceEP8_IO_FILE(ptr noundef %13)
  %14 = load ptr, ptr @stderr, align 8
  call void @_ZN4node23DumpJavaScriptBacktraceEP8_IO_FILE(ptr noundef %14)
  %15 = load ptr, ptr @stderr, align 8
  %call9 = call i32 @fflush(ptr noundef %15)
  call void @abort() #15
  unreachable

do.cond:                                          ; No predecessors!
  br label %do.end

do.end:                                           ; preds = %do.cond
  br label %sw.epilog

sw.epilog:                                        ; preds = %do.end
  br label %sw.bb10

sw.bb10:                                          ; preds = %sw.epilog, %entry
  store i32 1, ptr %cleanup.dest.slot, align 4
  br label %cleanup

sw.epilog11:                                      ; preds = %entry
  store i32 0, ptr %cleanup.dest.slot, align 4
  br label %cleanup

cleanup:                                          ; preds = %sw.epilog11, %sw.bb10, %sw.bb8, %sw.bb7, %sw.bb6, %sw.bb5, %if.then, %sw.bb2, %sw.bb1, %sw.bb
  call void @_ZN2v811HandleScopeD1Ev(ptr noundef nonnull align 8 dereferenceable(24) %scope) #3
  %cleanup.dest = load i32, ptr %cleanup.dest.slot, align 4
  switch i32 %cleanup.dest, label %unreachable [
    i32 0, label %cleanup.cont
    i32 1, label %cleanup.cont
  ]

cleanup.cont:                                     ; preds = %cleanup, %cleanup
  ret void

unreachable:                                      ; preds = %cleanup
  unreachable
}

; Function Attrs: mustprogress nounwind uwtable
define linkonce_odr dso_local noundef ptr @_ZNK4node16MaybeStackBufferIcLm1024EEdeEv(ptr noundef nonnull align 8 dereferenceable(1048) %this) #4 comdat align 2 {
entry:
  %this.addr = alloca ptr, align 8
  store ptr %this, ptr %this.addr, align 8
  %this1 = load ptr, ptr %this.addr, align 8
  %buf_ = getelementptr inbounds %"class.node::MaybeStackBuffer", ptr %this1, i32 0, i32 2
  %0 = load ptr, ptr %buf_, align 8
  ret ptr %0
}

; Function Attrs: mustprogress nounwind uwtable
define linkonce_odr dso_local void @_ZN4node9Utf8ValueD2Ev(ptr noundef nonnull align 8 dereferenceable(1048) %this) unnamed_addr #4 comdat align 2 {
entry:
  %this.addr = alloca ptr, align 8
  store ptr %this, ptr %this.addr, align 8
  %this1 = load ptr, ptr %this.addr, align 8
  call void @_ZN4node16MaybeStackBufferIcLm1024EED2Ev(ptr noundef nonnull align 8 dereferenceable(1048) %this1) #3
  ret void
}

; Function Attrs: mustprogress nounwind uwtable
define linkonce_odr dso_local void @_ZN4node6crypto6DecodeINS0_4SignEEEvRKN2v820FunctionCallbackInfoINS3_5ValueEEEPFvPT_S8_PKcmE(ptr noundef nonnull align 8 dereferenceable(20) %args, ptr noundef %callback) #4 comdat {
entry:
  %this.addr.i346 = alloca ptr, align 8
  %other.addr.i347 = alloca ptr, align 8
  %this.addr.i.i340 = alloca ptr, align 8
  %other.addr.i.i341 = alloca ptr, align 8
  %retval.i342 = alloca %"class.v8::Local.292", align 8
  %that.i343 = alloca %"class.v8::Local.298", align 8
  %ref.tmp.i344 = alloca %"class.v8::LocalBase.293", align 8
  %retval.i336 = alloca %"class.v8::Local.292", align 8
  %this.addr.i337 = alloca ptr, align 8
  %agg.tmp.i338 = alloca %"class.v8::Local.298", align 8
  %this.addr.i.i.i = alloca ptr, align 8
  %location.addr.i.i.i = alloca ptr, align 8
  %this.addr.i.i331 = alloca ptr, align 8
  %location.addr.i.i332 = alloca ptr, align 8
  %retval.i333 = alloca %"class.v8::LocalBase", align 8
  %slot.addr.i334 = alloca ptr, align 8
  %this.addr.i.i325 = alloca ptr, align 8
  %other.addr.i.i = alloca ptr, align 8
  %retval.i326 = alloca %"class.v8::Local", align 8
  %slot.addr.i327 = alloca ptr, align 8
  %ref.tmp.i328 = alloca %"class.v8::LocalBase", align 8
  %this.addr.i323 = alloca ptr, align 8
  %this.addr.i320 = alloca ptr, align 8
  %other.addr.i321 = alloca ptr, align 8
  %slot.addr.i319 = alloca ptr, align 8
  %this.addr.i.i315 = alloca ptr, align 8
  %this.addr.i316 = alloca ptr, align 8
  %this.addr.i.i309 = alloca ptr, align 8
  %location.addr.i.i310 = alloca ptr, align 8
  %this.addr.i311 = alloca ptr, align 8
  %location.addr.i312 = alloca ptr, align 8
  %this.addr.i.i303 = alloca ptr, align 8
  %location.addr.i.i304 = alloca ptr, align 8
  %this.addr.i305 = alloca ptr, align 8
  %location.addr.i306 = alloca ptr, align 8
  %this.addr.i.i297 = alloca ptr, align 8
  %location.addr.i.i298 = alloca ptr, align 8
  %this.addr.i299 = alloca ptr, align 8
  %location.addr.i300 = alloca ptr, align 8
  %this.addr.i.i291 = alloca ptr, align 8
  %location.addr.i.i292 = alloca ptr, align 8
  %this.addr.i293 = alloca ptr, align 8
  %location.addr.i294 = alloca ptr, align 8
  %this.addr.i288 = alloca ptr, align 8
  %other.addr.i289 = alloca ptr, align 8
  %this.addr.i285 = alloca ptr, align 8
  %other.addr.i286 = alloca ptr, align 8
  %this.addr.i282 = alloca ptr, align 8
  %other.addr.i283 = alloca ptr, align 8
  %this.addr.i279 = alloca ptr, align 8
  %other.addr.i280 = alloca ptr, align 8
  %retval.i277 = alloca %"class.v8::LocalBase.299", align 8
  %slot.addr.i278 = alloca ptr, align 8
  %retval.i275 = alloca %"class.v8::LocalBase.299", align 8
  %slot.addr.i276 = alloca ptr, align 8
  %retval.i273 = alloca %"class.v8::LocalBase.299", align 8
  %slot.addr.i274 = alloca ptr, align 8
  %retval.i271 = alloca %"class.v8::LocalBase.299", align 8
  %slot.addr.i272 = alloca ptr, align 8
  %this.addr.i268 = alloca ptr, align 8
  %other.addr.i269 = alloca ptr, align 8
  %this.addr.i265 = alloca ptr, align 8
  %other.addr.i266 = alloca ptr, align 8
  %this.addr.i262 = alloca ptr, align 8
  %other.addr.i263 = alloca ptr, align 8
  %this.addr.i259 = alloca ptr, align 8
  %other.addr.i260 = alloca ptr, align 8
  %this.addr.i.i253 = alloca ptr, align 8
  %location.addr.i.i254 = alloca ptr, align 8
  %this.addr.i255 = alloca ptr, align 8
  %location.addr.i256 = alloca ptr, align 8
  %this.addr.i.i247 = alloca ptr, align 8
  %location.addr.i.i248 = alloca ptr, align 8
  %this.addr.i249 = alloca ptr, align 8
  %location.addr.i250 = alloca ptr, align 8
  %this.addr.i.i241 = alloca ptr, align 8
  %location.addr.i.i242 = alloca ptr, align 8
  %this.addr.i243 = alloca ptr, align 8
  %location.addr.i244 = alloca ptr, align 8
  %this.addr.i.i237 = alloca ptr, align 8
  %location.addr.i.i = alloca ptr, align 8
  %this.addr.i238 = alloca ptr, align 8
  %location.addr.i = alloca ptr, align 8
  %this.addr.i234 = alloca ptr, align 8
  %other.addr.i235 = alloca ptr, align 8
  %this.addr.i231 = alloca ptr, align 8
  %other.addr.i232 = alloca ptr, align 8
  %this.addr.i228 = alloca ptr, align 8
  %other.addr.i229 = alloca ptr, align 8
  %this.addr.i226 = alloca ptr, align 8
  %other.addr.i = alloca ptr, align 8
  %retval.i224 = alloca %"class.v8::LocalBase.472", align 8
  %slot.addr.i225 = alloca ptr, align 8
  %retval.i222 = alloca %"class.v8::LocalBase.472", align 8
  %slot.addr.i223 = alloca ptr, align 8
  %retval.i220 = alloca %"class.v8::LocalBase.472", align 8
  %slot.addr.i221 = alloca ptr, align 8
  %retval.i218 = alloca %"class.v8::LocalBase.472", align 8
  %slot.addr.i219 = alloca ptr, align 8
  %retval.i214 = alloca %"class.v8::Local.471", align 8
  %slot.addr.i215 = alloca ptr, align 8
  %ref.tmp.i216 = alloca %"class.v8::LocalBase.472", align 8
  %retval.i210 = alloca %"class.v8::Local.471", align 8
  %slot.addr.i211 = alloca ptr, align 8
  %ref.tmp.i212 = alloca %"class.v8::LocalBase.472", align 8
  %retval.i206 = alloca %"class.v8::Local.471", align 8
  %slot.addr.i207 = alloca ptr, align 8
  %ref.tmp.i208 = alloca %"class.v8::LocalBase.472", align 8
  %retval.i202 = alloca %"class.v8::Local.471", align 8
  %slot.addr.i203 = alloca ptr, align 8
  %ref.tmp.i204 = alloca %"class.v8::LocalBase.472", align 8
  %retval.i198 = alloca %"class.v8::Local.298", align 8
  %slot.addr.i199 = alloca ptr, align 8
  %ref.tmp.i200 = alloca %"class.v8::LocalBase.299", align 8
  %retval.i194 = alloca %"class.v8::Local.298", align 8
  %slot.addr.i195 = alloca ptr, align 8
  %ref.tmp.i196 = alloca %"class.v8::LocalBase.299", align 8
  %retval.i190 = alloca %"class.v8::Local.298", align 8
  %slot.addr.i191 = alloca ptr, align 8
  %ref.tmp.i192 = alloca %"class.v8::LocalBase.299", align 8
  %retval.i188 = alloca %"class.v8::Local.298", align 8
  %slot.addr.i = alloca ptr, align 8
  %ref.tmp.i = alloca %"class.v8::LocalBase.299", align 8
  %that.i185 = alloca %"class.v8::Local.471", align 8
  %this.addr.i186 = alloca ptr, align 8
  %that.i182 = alloca %"class.v8::Local.471", align 8
  %this.addr.i183 = alloca ptr, align 8
  %that.i179 = alloca %"class.v8::Local.471", align 8
  %this.addr.i180 = alloca ptr, align 8
  %that.i176 = alloca %"class.v8::Local.471", align 8
  %this.addr.i177 = alloca ptr, align 8
  %isolate.addr.i7.i164 = alloca ptr, align 8
  %index.addr.i.i165 = alloca i32, align 4
  %addr.i.i166 = alloca i64, align 8
  %isolate.addr.i.i167 = alloca ptr, align 8
  %retval.i168 = alloca %"class.v8::Local.471", align 8
  %isolate.addr.i169 = alloca ptr, align 8
  %slot.i170 = alloca ptr, align 8
  %isolate.addr.i7.i152 = alloca ptr, align 8
  %index.addr.i.i153 = alloca i32, align 4
  %addr.i.i154 = alloca i64, align 8
  %isolate.addr.i.i155 = alloca ptr, align 8
  %retval.i156 = alloca %"class.v8::Local.471", align 8
  %isolate.addr.i157 = alloca ptr, align 8
  %slot.i158 = alloca ptr, align 8
  %isolate.addr.i7.i140 = alloca ptr, align 8
  %index.addr.i.i141 = alloca i32, align 4
  %addr.i.i142 = alloca i64, align 8
  %isolate.addr.i.i143 = alloca ptr, align 8
  %retval.i144 = alloca %"class.v8::Local.471", align 8
  %isolate.addr.i145 = alloca ptr, align 8
  %slot.i146 = alloca ptr, align 8
  %isolate.addr.i7.i = alloca ptr, align 8
  %index.addr.i.i = alloca i32, align 4
  %addr.i.i136 = alloca i64, align 8
  %isolate.addr.i.i = alloca ptr, align 8
  %retval.i137 = alloca %"class.v8::Local.471", align 8
  %isolate.addr.i = alloca ptr, align 8
  %slot.i = alloca ptr, align 8
  %value.addr.i5.i = alloca i64, align 8
  %value.addr.i.i = alloca ptr, align 8
  %heap_object_ptr.addr.i.i = alloca i64, align 8
  %offset.addr.i.i = alloca i32, align 4
  %addr.i.i = alloca i64, align 8
  %heap_object_ptr.addr.i2.i.i = alloca i64, align 8
  %offset.addr.i3.i.i = alloca i32, align 4
  %addr.i.i.i = alloca i64, align 8
  %heap_object_ptr.addr.i.i.i = alloca i64, align 8
  %offset.addr.i.i.i = alloca i32, align 4
  %obj.addr.i.i = alloca i64, align 8
  %map.i.i = alloca i64, align 8
  %retval.i130 = alloca i1, align 1
  %this.addr.i131 = alloca ptr, align 8
  %obj.i = alloca i64, align 8
  %this.addr.i127 = alloca ptr, align 8
  %this.addr.i124 = alloca ptr, align 8
  %this.addr.i.i104 = alloca ptr, align 8
  %retval.i105 = alloca %"class.v8::Local.298", align 8
  %this.addr.i106 = alloca ptr, align 8
  %i.addr.i107 = alloca i32, align 4
  %agg.tmp.i108 = alloca %"class.v8::Local.471", align 8
  %this.addr.i.i84 = alloca ptr, align 8
  %retval.i85 = alloca %"class.v8::Local.298", align 8
  %this.addr.i86 = alloca ptr, align 8
  %i.addr.i87 = alloca i32, align 4
  %agg.tmp.i88 = alloca %"class.v8::Local.471", align 8
  %this.addr.i.i64 = alloca ptr, align 8
  %retval.i65 = alloca %"class.v8::Local.298", align 8
  %this.addr.i66 = alloca ptr, align 8
  %i.addr.i67 = alloca i32, align 4
  %agg.tmp.i68 = alloca %"class.v8::Local.471", align 8
  %this.addr.i.i = alloca ptr, align 8
  %retval.i61 = alloca %"class.v8::Local.298", align 8
  %this.addr.i62 = alloca ptr, align 8
  %i.addr.i = alloca i32, align 4
  %agg.tmp.i = alloca %"class.v8::Local.471", align 8
  %that.i = alloca %"class.v8::Local", align 8
  %this.addr.i60 = alloca ptr, align 8
  %retval.i = alloca %"class.v8::Local", align 8
  %this.addr.i = alloca ptr, align 8
  %args.addr = alloca ptr, align 8
  %callback.addr = alloca ptr, align 8
  %ctx = alloca ptr, align 8
  %agg.tmp = alloca %"class.v8::Local.298", align 8
  %agg.tmp1 = alloca %"class.v8::Local", align 8
  %ref.tmp = alloca %"class.v8::Local.298", align 8
  %decoder = alloca %"class.node::StringBytes::InlineDecoder", align 8
  %env = alloca ptr, align 8
  %enc = alloca i32, align 4
  %agg.tmp20 = alloca %"class.v8::Local.298", align 8
  %ref.tmp29 = alloca %"class.v8::Maybe", align 1
  %agg.tmp30 = alloca %"class.v8::Local.292", align 8
  %ref.tmp31 = alloca %"class.v8::Local.298", align 8
  %cleanup.dest.slot = alloca i32, align 4
  %buf = alloca %"class.node::ArrayBufferViewContents", align 8
  %agg.tmp49 = alloca %"class.v8::Local.298", align 8
  store ptr %args, ptr %args.addr, align 8
  store ptr %callback, ptr %callback.addr, align 8
  br label %do.body

do.body:                                          ; preds = %entry
  %0 = load ptr, ptr %args.addr, align 8
  store ptr %0, ptr %this.addr.i, align 8
  %this1.i = load ptr, ptr %this.addr.i, align 8
  %1 = load ptr, ptr %this1.i, align 8
  store ptr %1, ptr %slot.addr.i327, align 8
  %2 = load ptr, ptr %slot.addr.i327, align 8
  store ptr %2, ptr %slot.addr.i334, align 8
  %3 = load ptr, ptr %slot.addr.i334, align 8
  store ptr %retval.i333, ptr %this.addr.i.i331, align 8
  store ptr %3, ptr %location.addr.i.i332, align 8
  %this1.i.i335 = load ptr, ptr %this.addr.i.i331, align 8
  %4 = load ptr, ptr %location.addr.i.i332, align 8
  store ptr %this1.i.i335, ptr %this.addr.i.i.i, align 8
  store ptr %4, ptr %location.addr.i.i.i, align 8
  %this1.i.i.i = load ptr, ptr %this.addr.i.i.i, align 8
  %5 = load ptr, ptr %location.addr.i.i.i, align 8
  store ptr %5, ptr %this1.i.i.i, align 8
  %6 = load ptr, ptr %retval.i333, align 8
  store ptr %6, ptr %ref.tmp.i328, align 8
  store ptr %retval.i326, ptr %this.addr.i.i325, align 8
  store ptr %ref.tmp.i328, ptr %other.addr.i.i, align 8
  %this1.i.i330 = load ptr, ptr %this.addr.i.i325, align 8
  %7 = load ptr, ptr %other.addr.i.i, align 8
  call void @llvm.memcpy.p0.p0.i64(ptr align 8 %this1.i.i330, ptr align 8 %7, i64 8, i1 false)
  %8 = load ptr, ptr %retval.i326, align 8
  store ptr %8, ptr %retval.i, align 8
  %9 = load ptr, ptr %retval.i, align 8
  %coerce.dive = getelementptr inbounds %"class.v8::Local", ptr %agg.tmp1, i32 0, i32 0
  %coerce.dive2 = getelementptr inbounds %"class.v8::LocalBase", ptr %coerce.dive, i32 0, i32 0
  %coerce.dive3 = getelementptr inbounds %"class.v8::IndirectHandleBase", ptr %coerce.dive2, i32 0, i32 0
  store ptr %9, ptr %coerce.dive3, align 8
  %coerce.dive4 = getelementptr inbounds %"class.v8::Local", ptr %agg.tmp1, i32 0, i32 0
  %coerce.dive5 = getelementptr inbounds %"class.v8::LocalBase", ptr %coerce.dive4, i32 0, i32 0
  %coerce.dive6 = getelementptr inbounds %"class.v8::IndirectHandleBase", ptr %coerce.dive5, i32 0, i32 0
  %10 = load ptr, ptr %coerce.dive6, align 8
  store ptr %10, ptr %that.i, align 8
  store ptr %agg.tmp, ptr %this.addr.i60, align 8
  %this3.i = load ptr, ptr %this.addr.i60, align 8
  store ptr %this3.i, ptr %this.addr.i320, align 8
  store ptr %that.i, ptr %other.addr.i321, align 8
  %this1.i322 = load ptr, ptr %this.addr.i320, align 8
  %11 = load ptr, ptr %other.addr.i321, align 8
  call void @llvm.memcpy.p0.p0.i64(ptr align 8 %this1.i322, ptr align 8 %11, i64 8, i1 false)
  %coerce.dive7 = getelementptr inbounds %"class.v8::Local.298", ptr %agg.tmp, i32 0, i32 0
  %coerce.dive8 = getelementptr inbounds %"class.v8::LocalBase.299", ptr %coerce.dive7, i32 0, i32 0
  %coerce.dive9 = getelementptr inbounds %"class.v8::IndirectHandleBase", ptr %coerce.dive8, i32 0, i32 0
  %12 = load ptr, ptr %coerce.dive9, align 8
  %call10 = call noundef ptr @_ZN4node10BaseObject12FromJSObjectEN2v85LocalINS1_5ValueEEE(ptr %12)
  store ptr %call10, ptr %ctx, align 8
  %13 = load ptr, ptr %ctx, align 8
  %cmp = icmp eq ptr %13, null
  br i1 %cmp, label %if.then, label %if.end

if.then:                                          ; preds = %do.body
  br label %if.end59

if.end:                                           ; preds = %do.body
  br label %do.end

do.end:                                           ; preds = %if.end
  %14 = load ptr, ptr %args.addr, align 8
  store ptr %14, ptr %this.addr.i106, align 8
  store i32 0, ptr %i.addr.i107, align 4
  %this1.i109 = load ptr, ptr %this.addr.i106, align 8
  %15 = load i32, ptr %i.addr.i107, align 4
  %cmp.i110 = icmp slt i32 %15, 0
  br i1 %cmp.i110, label %if.then.i119, label %lor.lhs.false.i111

lor.lhs.false.i111:                               ; preds = %do.end
  %length_.i112 = getelementptr inbounds %"class.v8::FunctionCallbackInfo", ptr %this1.i109, i32 0, i32 2
  %16 = load i32, ptr %length_.i112, align 8
  %17 = load i32, ptr %i.addr.i107, align 4
  %cmp2.i113 = icmp sle i32 %16, %17
  br i1 %cmp2.i113, label %if.then.i119, label %if.end.i114

if.then.i119:                                     ; preds = %lor.lhs.false.i111, %do.end
  store ptr %this1.i109, ptr %this.addr.i.i104, align 8
  %this1.i.i120 = load ptr, ptr %this.addr.i.i104, align 8
  %18 = load ptr, ptr %this1.i.i120, align 8
  %arrayidx.i.i121 = getelementptr inbounds i64, ptr %18, i64 1
  %19 = load ptr, ptr %arrayidx.i.i121, align 8
  store ptr %19, ptr %isolate.addr.i, align 8
  %20 = load ptr, ptr %isolate.addr.i, align 8
  store ptr %20, ptr %isolate.addr.i.i, align 8
  %21 = load ptr, ptr %isolate.addr.i, align 8
  store ptr %21, ptr %isolate.addr.i7.i, align 8
  store i32 4, ptr %index.addr.i.i, align 4
  %22 = load ptr, ptr %isolate.addr.i7.i, align 8
  %23 = ptrtoint ptr %22 to i64
  %add.i.i138 = add i64 %23, 576
  %24 = load i32, ptr %index.addr.i.i, align 4
  %mul.i.i = mul nsw i32 %24, 8
  %conv.i.i139 = sext i32 %mul.i.i to i64
  %add1.i.i = add i64 %add.i.i138, %conv.i.i139
  store i64 %add1.i.i, ptr %addr.i.i136, align 8
  %25 = load i64, ptr %addr.i.i136, align 8
  %26 = inttoptr i64 %25 to ptr
  store ptr %26, ptr %slot.i, align 8
  %27 = load ptr, ptr %slot.i, align 8
  store ptr %27, ptr %slot.addr.i215, align 8
  %28 = load ptr, ptr %slot.addr.i215, align 8
  store ptr %28, ptr %slot.addr.i219, align 8
  %29 = load ptr, ptr %slot.addr.i219, align 8
  store ptr %retval.i218, ptr %this.addr.i255, align 8
  store ptr %29, ptr %location.addr.i256, align 8
  %this1.i257 = load ptr, ptr %this.addr.i255, align 8
  %30 = load ptr, ptr %location.addr.i256, align 8
  store ptr %this1.i257, ptr %this.addr.i.i253, align 8
  store ptr %30, ptr %location.addr.i.i254, align 8
  %this1.i.i258 = load ptr, ptr %this.addr.i.i253, align 8
  %31 = load ptr, ptr %location.addr.i.i254, align 8
  store ptr %31, ptr %this1.i.i258, align 8
  %32 = load ptr, ptr %retval.i218, align 8
  store ptr %32, ptr %ref.tmp.i216, align 8
  store ptr %retval.i214, ptr %this.addr.i226, align 8
  store ptr %ref.tmp.i216, ptr %other.addr.i, align 8
  %this1.i227 = load ptr, ptr %this.addr.i226, align 8
  %33 = load ptr, ptr %other.addr.i, align 8
  call void @llvm.memcpy.p0.p0.i64(ptr align 8 %this1.i227, ptr align 8 %33, i64 8, i1 false)
  %34 = load ptr, ptr %retval.i214, align 8
  store ptr %34, ptr %retval.i137, align 8
  %35 = load ptr, ptr %retval.i137, align 8
  store ptr %35, ptr %agg.tmp.i108, align 8
  %36 = load ptr, ptr %agg.tmp.i108, align 8
  store ptr %36, ptr %that.i176, align 8
  store ptr %retval.i105, ptr %this.addr.i177, align 8
  %this3.i178 = load ptr, ptr %this.addr.i177, align 8
  store ptr %this3.i178, ptr %this.addr.i268, align 8
  store ptr %that.i176, ptr %other.addr.i269, align 8
  %this1.i270 = load ptr, ptr %this.addr.i268, align 8
  %37 = load ptr, ptr %other.addr.i269, align 8
  call void @llvm.memcpy.p0.p0.i64(ptr align 8 %this1.i270, ptr align 8 %37, i64 8, i1 false)
  br label %_ZNK2v820FunctionCallbackInfoINS_5ValueEEixEi.exit123

if.end.i114:                                      ; preds = %lor.lhs.false.i111
  %values_.i115 = getelementptr inbounds %"class.v8::FunctionCallbackInfo", ptr %this1.i109, i32 0, i32 1
  %38 = load ptr, ptr %values_.i115, align 8
  %39 = load i32, ptr %i.addr.i107, align 4
  %idx.ext.i116 = sext i32 %39 to i64
  %add.ptr.i117 = getelementptr inbounds i64, ptr %38, i64 %idx.ext.i116
  store ptr %add.ptr.i117, ptr %slot.addr.i, align 8
  %40 = load ptr, ptr %slot.addr.i, align 8
  store ptr %40, ptr %slot.addr.i278, align 8
  %41 = load ptr, ptr %slot.addr.i278, align 8
  store ptr %retval.i277, ptr %this.addr.i293, align 8
  store ptr %41, ptr %location.addr.i294, align 8
  %this1.i295 = load ptr, ptr %this.addr.i293, align 8
  %42 = load ptr, ptr %location.addr.i294, align 8
  store ptr %this1.i295, ptr %this.addr.i.i291, align 8
  store ptr %42, ptr %location.addr.i.i292, align 8
  %this1.i.i296 = load ptr, ptr %this.addr.i.i291, align 8
  %43 = load ptr, ptr %location.addr.i.i292, align 8
  store ptr %43, ptr %this1.i.i296, align 8
  %44 = load ptr, ptr %retval.i277, align 8
  store ptr %44, ptr %ref.tmp.i, align 8
  store ptr %retval.i188, ptr %this.addr.i288, align 8
  store ptr %ref.tmp.i, ptr %other.addr.i289, align 8
  %this1.i290 = load ptr, ptr %this.addr.i288, align 8
  %45 = load ptr, ptr %other.addr.i289, align 8
  call void @llvm.memcpy.p0.p0.i64(ptr align 8 %this1.i290, ptr align 8 %45, i64 8, i1 false)
  %46 = load ptr, ptr %retval.i188, align 8
  store ptr %46, ptr %retval.i105, align 8
  br label %_ZNK2v820FunctionCallbackInfoINS_5ValueEEixEi.exit123

_ZNK2v820FunctionCallbackInfoINS_5ValueEEixEi.exit123: ; preds = %if.end.i114, %if.then.i119
  %47 = load ptr, ptr %retval.i105, align 8
  %coerce.dive12 = getelementptr inbounds %"class.v8::Local.298", ptr %ref.tmp, i32 0, i32 0
  %coerce.dive13 = getelementptr inbounds %"class.v8::LocalBase.299", ptr %coerce.dive12, i32 0, i32 0
  %coerce.dive14 = getelementptr inbounds %"class.v8::IndirectHandleBase", ptr %coerce.dive13, i32 0, i32 0
  store ptr %47, ptr %coerce.dive14, align 8
  store ptr %ref.tmp, ptr %this.addr.i124, align 8
  %this1.i125 = load ptr, ptr %this.addr.i124, align 8
  store ptr %this1.i125, ptr %this.addr.i316, align 8
  %this1.i317 = load ptr, ptr %this.addr.i316, align 8
  store ptr %this1.i317, ptr %this.addr.i.i315, align 8
  %this1.i.i318 = load ptr, ptr %this.addr.i.i315, align 8
  %48 = load ptr, ptr %this1.i.i318, align 8
  store ptr %48, ptr %slot.addr.i319, align 8
  %49 = load ptr, ptr %slot.addr.i319, align 8
  store ptr %49, ptr %this.addr.i127, align 8
  %this1.i128 = load ptr, ptr %this.addr.i127, align 8
  store ptr %this1.i128, ptr %this.addr.i131, align 8
  %this1.i132 = load ptr, ptr %this.addr.i131, align 8
  store ptr %this1.i132, ptr %value.addr.i.i, align 8
  %50 = load ptr, ptr %value.addr.i.i, align 8
  %51 = load i64, ptr %50, align 8
  store i64 %51, ptr %obj.i, align 8
  %52 = load i64, ptr %obj.i, align 8
  store i64 %52, ptr %value.addr.i5.i, align 8
  %53 = load i64, ptr %value.addr.i5.i, align 8
  %and.i.i = and i64 %53, 3
  %cmp.i.i = icmp eq i64 %and.i.i, 1
  br i1 %cmp.i.i, label %if.end.i134, label %if.then.i133

if.then.i133:                                     ; preds = %_ZNK2v820FunctionCallbackInfoINS_5ValueEEixEi.exit123
  store i1 false, ptr %retval.i130, align 1
  br label %_ZNK2v85Value13QuickIsStringEv.exit

if.end.i134:                                      ; preds = %_ZNK2v820FunctionCallbackInfoINS_5ValueEEixEi.exit123
  %54 = load i64, ptr %obj.i, align 8
  store i64 %54, ptr %obj.addr.i.i, align 8
  %55 = load i64, ptr %obj.addr.i.i, align 8
  store i64 %55, ptr %heap_object_ptr.addr.i.i.i, align 8
  store i32 0, ptr %offset.addr.i.i.i, align 4
  %56 = load i64, ptr %heap_object_ptr.addr.i.i.i, align 8
  %57 = load i32, ptr %offset.addr.i.i.i, align 4
  store i64 %56, ptr %heap_object_ptr.addr.i2.i.i, align 8
  store i32 %57, ptr %offset.addr.i3.i.i, align 4
  %58 = load i64, ptr %heap_object_ptr.addr.i2.i.i, align 8
  %59 = load i32, ptr %offset.addr.i3.i.i, align 4
  %conv.i.i.i = sext i32 %59 to i64
  %add.i.i.i = add i64 %58, %conv.i.i.i
  %sub.i.i.i = sub i64 %add.i.i.i, 1
  store i64 %sub.i.i.i, ptr %addr.i.i.i, align 8
  %60 = load i64, ptr %addr.i.i.i, align 8
  %61 = inttoptr i64 %60 to ptr
  %62 = load i64, ptr %61, align 8
  store i64 %62, ptr %map.i.i, align 8
  %63 = load i64, ptr %map.i.i, align 8
  store i64 %63, ptr %heap_object_ptr.addr.i.i, align 8
  store i32 12, ptr %offset.addr.i.i, align 4
  %64 = load i64, ptr %heap_object_ptr.addr.i.i, align 8
  %65 = load i32, ptr %offset.addr.i.i, align 4
  %conv.i4.i = sext i32 %65 to i64
  %add.i.i = add i64 %64, %conv.i4.i
  %sub.i.i = sub i64 %add.i.i, 1
  store i64 %sub.i.i, ptr %addr.i.i, align 8
  %66 = load i64, ptr %addr.i.i, align 8
  %67 = inttoptr i64 %66 to ptr
  %68 = load i16, ptr %67, align 2
  %conv.i.i = zext i16 %68 to i32
  %cmp.i135 = icmp slt i32 %conv.i.i, 128
  store i1 %cmp.i135, ptr %retval.i130, align 1
  br label %_ZNK2v85Value13QuickIsStringEv.exit

_ZNK2v85Value13QuickIsStringEv.exit:              ; preds = %if.end.i134, %if.then.i133
  %69 = load i1, ptr %retval.i130, align 1
  br i1 %69, label %if.then17, label %if.else

if.then17:                                        ; preds = %_ZNK2v85Value13QuickIsStringEv.exit
  call void @_ZN4node11StringBytes13InlineDecoderC2Ev(ptr noundef nonnull align 8 dereferenceable(1048) %decoder)
  %70 = load ptr, ptr %args.addr, align 8
  %call18 = call noundef ptr @_ZN4node11Environment10GetCurrentERKN2v820FunctionCallbackInfoINS1_5ValueEEE(ptr noundef nonnull align 8 dereferenceable(20) %70)
  store ptr %call18, ptr %env, align 8
  %71 = load ptr, ptr %env, align 8
  %call19 = call noundef ptr @_ZNK4node11Environment7isolateEv(ptr noundef nonnull align 8 dereferenceable(2872) %71)
  %72 = load ptr, ptr %args.addr, align 8
  store ptr %72, ptr %this.addr.i86, align 8
  store i32 1, ptr %i.addr.i87, align 4
  %this1.i89 = load ptr, ptr %this.addr.i86, align 8
  %73 = load i32, ptr %i.addr.i87, align 4
  %cmp.i90 = icmp slt i32 %73, 0
  br i1 %cmp.i90, label %if.then.i99, label %lor.lhs.false.i91

lor.lhs.false.i91:                                ; preds = %if.then17
  %length_.i92 = getelementptr inbounds %"class.v8::FunctionCallbackInfo", ptr %this1.i89, i32 0, i32 2
  %74 = load i32, ptr %length_.i92, align 8
  %75 = load i32, ptr %i.addr.i87, align 4
  %cmp2.i93 = icmp sle i32 %74, %75
  br i1 %cmp2.i93, label %if.then.i99, label %if.end.i94

if.then.i99:                                      ; preds = %lor.lhs.false.i91, %if.then17
  store ptr %this1.i89, ptr %this.addr.i.i84, align 8
  %this1.i.i100 = load ptr, ptr %this.addr.i.i84, align 8
  %76 = load ptr, ptr %this1.i.i100, align 8
  %arrayidx.i.i101 = getelementptr inbounds i64, ptr %76, i64 1
  %77 = load ptr, ptr %arrayidx.i.i101, align 8
  store ptr %77, ptr %isolate.addr.i145, align 8
  %78 = load ptr, ptr %isolate.addr.i145, align 8
  store ptr %78, ptr %isolate.addr.i.i143, align 8
  %79 = load ptr, ptr %isolate.addr.i145, align 8
  store ptr %79, ptr %isolate.addr.i7.i140, align 8
  store i32 4, ptr %index.addr.i.i141, align 4
  %80 = load ptr, ptr %isolate.addr.i7.i140, align 8
  %81 = ptrtoint ptr %80 to i64
  %add.i.i147 = add i64 %81, 576
  %82 = load i32, ptr %index.addr.i.i141, align 4
  %mul.i.i148 = mul nsw i32 %82, 8
  %conv.i.i149 = sext i32 %mul.i.i148 to i64
  %add1.i.i150 = add i64 %add.i.i147, %conv.i.i149
  store i64 %add1.i.i150, ptr %addr.i.i142, align 8
  %83 = load i64, ptr %addr.i.i142, align 8
  %84 = inttoptr i64 %83 to ptr
  store ptr %84, ptr %slot.i146, align 8
  %85 = load ptr, ptr %slot.i146, align 8
  store ptr %85, ptr %slot.addr.i211, align 8
  %86 = load ptr, ptr %slot.addr.i211, align 8
  store ptr %86, ptr %slot.addr.i221, align 8
  %87 = load ptr, ptr %slot.addr.i221, align 8
  store ptr %retval.i220, ptr %this.addr.i249, align 8
  store ptr %87, ptr %location.addr.i250, align 8
  %this1.i251 = load ptr, ptr %this.addr.i249, align 8
  %88 = load ptr, ptr %location.addr.i250, align 8
  store ptr %this1.i251, ptr %this.addr.i.i247, align 8
  store ptr %88, ptr %location.addr.i.i248, align 8
  %this1.i.i252 = load ptr, ptr %this.addr.i.i247, align 8
  %89 = load ptr, ptr %location.addr.i.i248, align 8
  store ptr %89, ptr %this1.i.i252, align 8
  %90 = load ptr, ptr %retval.i220, align 8
  store ptr %90, ptr %ref.tmp.i212, align 8
  store ptr %retval.i210, ptr %this.addr.i228, align 8
  store ptr %ref.tmp.i212, ptr %other.addr.i229, align 8
  %this1.i230 = load ptr, ptr %this.addr.i228, align 8
  %91 = load ptr, ptr %other.addr.i229, align 8
  call void @llvm.memcpy.p0.p0.i64(ptr align 8 %this1.i230, ptr align 8 %91, i64 8, i1 false)
  %92 = load ptr, ptr %retval.i210, align 8
  store ptr %92, ptr %retval.i144, align 8
  %93 = load ptr, ptr %retval.i144, align 8
  store ptr %93, ptr %agg.tmp.i88, align 8
  %94 = load ptr, ptr %agg.tmp.i88, align 8
  store ptr %94, ptr %that.i179, align 8
  store ptr %retval.i85, ptr %this.addr.i180, align 8
  %this3.i181 = load ptr, ptr %this.addr.i180, align 8
  store ptr %this3.i181, ptr %this.addr.i265, align 8
  store ptr %that.i179, ptr %other.addr.i266, align 8
  %this1.i267 = load ptr, ptr %this.addr.i265, align 8
  %95 = load ptr, ptr %other.addr.i266, align 8
  call void @llvm.memcpy.p0.p0.i64(ptr align 8 %this1.i267, ptr align 8 %95, i64 8, i1 false)
  br label %_ZNK2v820FunctionCallbackInfoINS_5ValueEEixEi.exit103

if.end.i94:                                       ; preds = %lor.lhs.false.i91
  %values_.i95 = getelementptr inbounds %"class.v8::FunctionCallbackInfo", ptr %this1.i89, i32 0, i32 1
  %96 = load ptr, ptr %values_.i95, align 8
  %97 = load i32, ptr %i.addr.i87, align 4
  %idx.ext.i96 = sext i32 %97 to i64
  %add.ptr.i97 = getelementptr inbounds i64, ptr %96, i64 %idx.ext.i96
  store ptr %add.ptr.i97, ptr %slot.addr.i191, align 8
  %98 = load ptr, ptr %slot.addr.i191, align 8
  store ptr %98, ptr %slot.addr.i276, align 8
  %99 = load ptr, ptr %slot.addr.i276, align 8
  store ptr %retval.i275, ptr %this.addr.i299, align 8
  store ptr %99, ptr %location.addr.i300, align 8
  %this1.i301 = load ptr, ptr %this.addr.i299, align 8
  %100 = load ptr, ptr %location.addr.i300, align 8
  store ptr %this1.i301, ptr %this.addr.i.i297, align 8
  store ptr %100, ptr %location.addr.i.i298, align 8
  %this1.i.i302 = load ptr, ptr %this.addr.i.i297, align 8
  %101 = load ptr, ptr %location.addr.i.i298, align 8
  store ptr %101, ptr %this1.i.i302, align 8
  %102 = load ptr, ptr %retval.i275, align 8
  store ptr %102, ptr %ref.tmp.i192, align 8
  store ptr %retval.i190, ptr %this.addr.i285, align 8
  store ptr %ref.tmp.i192, ptr %other.addr.i286, align 8
  %this1.i287 = load ptr, ptr %this.addr.i285, align 8
  %103 = load ptr, ptr %other.addr.i286, align 8
  call void @llvm.memcpy.p0.p0.i64(ptr align 8 %this1.i287, ptr align 8 %103, i64 8, i1 false)
  %104 = load ptr, ptr %retval.i190, align 8
  store ptr %104, ptr %retval.i85, align 8
  br label %_ZNK2v820FunctionCallbackInfoINS_5ValueEEixEi.exit103

_ZNK2v820FunctionCallbackInfoINS_5ValueEEixEi.exit103: ; preds = %if.end.i94, %if.then.i99
  %105 = load ptr, ptr %retval.i85, align 8
  %coerce.dive22 = getelementptr inbounds %"class.v8::Local.298", ptr %agg.tmp20, i32 0, i32 0
  %coerce.dive23 = getelementptr inbounds %"class.v8::LocalBase.299", ptr %coerce.dive22, i32 0, i32 0
  %coerce.dive24 = getelementptr inbounds %"class.v8::IndirectHandleBase", ptr %coerce.dive23, i32 0, i32 0
  store ptr %105, ptr %coerce.dive24, align 8
  %coerce.dive25 = getelementptr inbounds %"class.v8::Local.298", ptr %agg.tmp20, i32 0, i32 0
  %coerce.dive26 = getelementptr inbounds %"class.v8::LocalBase.299", ptr %coerce.dive25, i32 0, i32 0
  %coerce.dive27 = getelementptr inbounds %"class.v8::IndirectHandleBase", ptr %coerce.dive26, i32 0, i32 0
  %106 = load ptr, ptr %coerce.dive27, align 8
  %call28 = call noundef i32 @_ZN4node13ParseEncodingEPN2v87IsolateENS0_5LocalINS0_5ValueEEENS_8encodingE(ptr noundef %call19, ptr %106, i32 noundef 1)
  store i32 %call28, ptr %enc, align 4
  %107 = load ptr, ptr %env, align 8
  %108 = load ptr, ptr %args.addr, align 8
  store ptr %108, ptr %this.addr.i66, align 8
  store i32 0, ptr %i.addr.i67, align 4
  %this1.i69 = load ptr, ptr %this.addr.i66, align 8
  %109 = load i32, ptr %i.addr.i67, align 4
  %cmp.i70 = icmp slt i32 %109, 0
  br i1 %cmp.i70, label %if.then.i79, label %lor.lhs.false.i71

lor.lhs.false.i71:                                ; preds = %_ZNK2v820FunctionCallbackInfoINS_5ValueEEixEi.exit103
  %length_.i72 = getelementptr inbounds %"class.v8::FunctionCallbackInfo", ptr %this1.i69, i32 0, i32 2
  %110 = load i32, ptr %length_.i72, align 8
  %111 = load i32, ptr %i.addr.i67, align 4
  %cmp2.i73 = icmp sle i32 %110, %111
  br i1 %cmp2.i73, label %if.then.i79, label %if.end.i74

if.then.i79:                                      ; preds = %lor.lhs.false.i71, %_ZNK2v820FunctionCallbackInfoINS_5ValueEEixEi.exit103
  store ptr %this1.i69, ptr %this.addr.i.i64, align 8
  %this1.i.i80 = load ptr, ptr %this.addr.i.i64, align 8
  %112 = load ptr, ptr %this1.i.i80, align 8
  %arrayidx.i.i81 = getelementptr inbounds i64, ptr %112, i64 1
  %113 = load ptr, ptr %arrayidx.i.i81, align 8
  store ptr %113, ptr %isolate.addr.i157, align 8
  %114 = load ptr, ptr %isolate.addr.i157, align 8
  store ptr %114, ptr %isolate.addr.i.i155, align 8
  %115 = load ptr, ptr %isolate.addr.i157, align 8
  store ptr %115, ptr %isolate.addr.i7.i152, align 8
  store i32 4, ptr %index.addr.i.i153, align 4
  %116 = load ptr, ptr %isolate.addr.i7.i152, align 8
  %117 = ptrtoint ptr %116 to i64
  %add.i.i159 = add i64 %117, 576
  %118 = load i32, ptr %index.addr.i.i153, align 4
  %mul.i.i160 = mul nsw i32 %118, 8
  %conv.i.i161 = sext i32 %mul.i.i160 to i64
  %add1.i.i162 = add i64 %add.i.i159, %conv.i.i161
  store i64 %add1.i.i162, ptr %addr.i.i154, align 8
  %119 = load i64, ptr %addr.i.i154, align 8
  %120 = inttoptr i64 %119 to ptr
  store ptr %120, ptr %slot.i158, align 8
  %121 = load ptr, ptr %slot.i158, align 8
  store ptr %121, ptr %slot.addr.i207, align 8
  %122 = load ptr, ptr %slot.addr.i207, align 8
  store ptr %122, ptr %slot.addr.i223, align 8
  %123 = load ptr, ptr %slot.addr.i223, align 8
  store ptr %retval.i222, ptr %this.addr.i243, align 8
  store ptr %123, ptr %location.addr.i244, align 8
  %this1.i245 = load ptr, ptr %this.addr.i243, align 8
  %124 = load ptr, ptr %location.addr.i244, align 8
  store ptr %this1.i245, ptr %this.addr.i.i241, align 8
  store ptr %124, ptr %location.addr.i.i242, align 8
  %this1.i.i246 = load ptr, ptr %this.addr.i.i241, align 8
  %125 = load ptr, ptr %location.addr.i.i242, align 8
  store ptr %125, ptr %this1.i.i246, align 8
  %126 = load ptr, ptr %retval.i222, align 8
  store ptr %126, ptr %ref.tmp.i208, align 8
  store ptr %retval.i206, ptr %this.addr.i231, align 8
  store ptr %ref.tmp.i208, ptr %other.addr.i232, align 8
  %this1.i233 = load ptr, ptr %this.addr.i231, align 8
  %127 = load ptr, ptr %other.addr.i232, align 8
  call void @llvm.memcpy.p0.p0.i64(ptr align 8 %this1.i233, ptr align 8 %127, i64 8, i1 false)
  %128 = load ptr, ptr %retval.i206, align 8
  store ptr %128, ptr %retval.i156, align 8
  %129 = load ptr, ptr %retval.i156, align 8
  store ptr %129, ptr %agg.tmp.i68, align 8
  %130 = load ptr, ptr %agg.tmp.i68, align 8
  store ptr %130, ptr %that.i182, align 8
  store ptr %retval.i65, ptr %this.addr.i183, align 8
  %this3.i184 = load ptr, ptr %this.addr.i183, align 8
  store ptr %this3.i184, ptr %this.addr.i262, align 8
  store ptr %that.i182, ptr %other.addr.i263, align 8
  %this1.i264 = load ptr, ptr %this.addr.i262, align 8
  %131 = load ptr, ptr %other.addr.i263, align 8
  call void @llvm.memcpy.p0.p0.i64(ptr align 8 %this1.i264, ptr align 8 %131, i64 8, i1 false)
  br label %_ZNK2v820FunctionCallbackInfoINS_5ValueEEixEi.exit83

if.end.i74:                                       ; preds = %lor.lhs.false.i71
  %values_.i75 = getelementptr inbounds %"class.v8::FunctionCallbackInfo", ptr %this1.i69, i32 0, i32 1
  %132 = load ptr, ptr %values_.i75, align 8
  %133 = load i32, ptr %i.addr.i67, align 4
  %idx.ext.i76 = sext i32 %133 to i64
  %add.ptr.i77 = getelementptr inbounds i64, ptr %132, i64 %idx.ext.i76
  store ptr %add.ptr.i77, ptr %slot.addr.i195, align 8
  %134 = load ptr, ptr %slot.addr.i195, align 8
  store ptr %134, ptr %slot.addr.i274, align 8
  %135 = load ptr, ptr %slot.addr.i274, align 8
  store ptr %retval.i273, ptr %this.addr.i305, align 8
  store ptr %135, ptr %location.addr.i306, align 8
  %this1.i307 = load ptr, ptr %this.addr.i305, align 8
  %136 = load ptr, ptr %location.addr.i306, align 8
  store ptr %this1.i307, ptr %this.addr.i.i303, align 8
  store ptr %136, ptr %location.addr.i.i304, align 8
  %this1.i.i308 = load ptr, ptr %this.addr.i.i303, align 8
  %137 = load ptr, ptr %location.addr.i.i304, align 8
  store ptr %137, ptr %this1.i.i308, align 8
  %138 = load ptr, ptr %retval.i273, align 8
  store ptr %138, ptr %ref.tmp.i196, align 8
  store ptr %retval.i194, ptr %this.addr.i282, align 8
  store ptr %ref.tmp.i196, ptr %other.addr.i283, align 8
  %this1.i284 = load ptr, ptr %this.addr.i282, align 8
  %139 = load ptr, ptr %other.addr.i283, align 8
  call void @llvm.memcpy.p0.p0.i64(ptr align 8 %this1.i284, ptr align 8 %139, i64 8, i1 false)
  %140 = load ptr, ptr %retval.i194, align 8
  store ptr %140, ptr %retval.i65, align 8
  br label %_ZNK2v820FunctionCallbackInfoINS_5ValueEEixEi.exit83

_ZNK2v820FunctionCallbackInfoINS_5ValueEEixEi.exit83: ; preds = %if.end.i74, %if.then.i79
  %141 = load ptr, ptr %retval.i65, align 8
  %coerce.dive33 = getelementptr inbounds %"class.v8::Local.298", ptr %ref.tmp31, i32 0, i32 0
  %coerce.dive34 = getelementptr inbounds %"class.v8::LocalBase.299", ptr %coerce.dive33, i32 0, i32 0
  %coerce.dive35 = getelementptr inbounds %"class.v8::IndirectHandleBase", ptr %coerce.dive34, i32 0, i32 0
  store ptr %141, ptr %coerce.dive35, align 8
  store ptr %ref.tmp31, ptr %this.addr.i337, align 8
  %this1.i339 = load ptr, ptr %this.addr.i337, align 8
  call void @llvm.memcpy.p0.p0.i64(ptr align 8 %agg.tmp.i338, ptr align 8 %this1.i339, i64 8, i1 false)
  %142 = load ptr, ptr %agg.tmp.i338, align 8
  store ptr %142, ptr %that.i343, align 8
  store ptr %ref.tmp.i344, ptr %this.addr.i346, align 8
  store ptr %that.i343, ptr %other.addr.i347, align 8
  %this1.i348 = load ptr, ptr %this.addr.i346, align 8
  %143 = load ptr, ptr %other.addr.i347, align 8
  call void @llvm.memcpy.p0.p0.i64(ptr align 8 %this1.i348, ptr align 8 %143, i64 8, i1 false)
  store ptr %retval.i342, ptr %this.addr.i.i340, align 8
  store ptr %ref.tmp.i344, ptr %other.addr.i.i341, align 8
  %this1.i.i345 = load ptr, ptr %this.addr.i.i340, align 8
  %144 = load ptr, ptr %other.addr.i.i341, align 8
  call void @llvm.memcpy.p0.p0.i64(ptr align 8 %this1.i.i345, ptr align 8 %144, i64 8, i1 false)
  %145 = load ptr, ptr %retval.i342, align 8
  store ptr %145, ptr %retval.i336, align 8
  %146 = load ptr, ptr %retval.i336, align 8
  %coerce.dive37 = getelementptr inbounds %"class.v8::Local.292", ptr %agg.tmp30, i32 0, i32 0
  %coerce.dive38 = getelementptr inbounds %"class.v8::LocalBase.293", ptr %coerce.dive37, i32 0, i32 0
  %coerce.dive39 = getelementptr inbounds %"class.v8::IndirectHandleBase", ptr %coerce.dive38, i32 0, i32 0
  store ptr %146, ptr %coerce.dive39, align 8
  %147 = load i32, ptr %enc, align 4
  %coerce.dive40 = getelementptr inbounds %"class.v8::Local.292", ptr %agg.tmp30, i32 0, i32 0
  %coerce.dive41 = getelementptr inbounds %"class.v8::LocalBase.293", ptr %coerce.dive40, i32 0, i32 0
  %coerce.dive42 = getelementptr inbounds %"class.v8::IndirectHandleBase", ptr %coerce.dive41, i32 0, i32 0
  %148 = load ptr, ptr %coerce.dive42, align 8
  %call43 = call i16 @_ZN4node11StringBytes13InlineDecoder6DecodeEPNS_11EnvironmentEN2v85LocalINS4_6StringEEENS_8encodingE(ptr noundef nonnull align 8 dereferenceable(1048) %decoder, ptr noundef %107, ptr %148, i32 noundef %147)
  store i16 %call43, ptr %ref.tmp29, align 1
  store ptr %ref.tmp29, ptr %this.addr.i323, align 8
  %this1.i324 = load ptr, ptr %this.addr.i323, align 8
  %149 = load i8, ptr %this1.i324, align 1
  %tobool.i = trunc i8 %149 to i1
  %lnot.i = xor i1 %tobool.i, true
  br i1 %lnot.i, label %if.then45, label %if.end46

if.then45:                                        ; preds = %_ZNK2v820FunctionCallbackInfoINS_5ValueEEixEi.exit83
  store i32 1, ptr %cleanup.dest.slot, align 4
  br label %cleanup

if.end46:                                         ; preds = %_ZNK2v820FunctionCallbackInfoINS_5ValueEEixEi.exit83
  %150 = load ptr, ptr %callback.addr, align 8
  %151 = load ptr, ptr %ctx, align 8
  %152 = load ptr, ptr %args.addr, align 8
  %call47 = call noundef ptr @_ZN4node16MaybeStackBufferIcLm1024EE3outEv(ptr noundef nonnull align 8 dereferenceable(1048) %decoder)
  %call48 = call noundef i64 @_ZNK4node11StringBytes13InlineDecoder4sizeEv(ptr noundef nonnull align 8 dereferenceable(1048) %decoder)
  call void %150(ptr noundef %151, ptr noundef nonnull align 8 dereferenceable(20) %152, ptr noundef %call47, i64 noundef %call48)
  store i32 0, ptr %cleanup.dest.slot, align 4
  br label %cleanup

cleanup:                                          ; preds = %if.end46, %if.then45
  call void @_ZN4node11StringBytes13InlineDecoderD2Ev(ptr noundef nonnull align 8 dereferenceable(1048) %decoder) #3
  %cleanup.dest = load i32, ptr %cleanup.dest.slot, align 4
  switch i32 %cleanup.dest, label %unreachable [
    i32 0, label %cleanup.cont
    i32 1, label %if.end59
  ]

cleanup.cont:                                     ; preds = %cleanup
  br label %if.end59

if.else:                                          ; preds = %_ZNK2v85Value13QuickIsStringEv.exit
  %153 = load ptr, ptr %args.addr, align 8
  store ptr %153, ptr %this.addr.i62, align 8
  store i32 0, ptr %i.addr.i, align 4
  %this1.i63 = load ptr, ptr %this.addr.i62, align 8
  %154 = load i32, ptr %i.addr.i, align 4
  %cmp.i = icmp slt i32 %154, 0
  br i1 %cmp.i, label %if.then.i, label %lor.lhs.false.i

lor.lhs.false.i:                                  ; preds = %if.else
  %length_.i = getelementptr inbounds %"class.v8::FunctionCallbackInfo", ptr %this1.i63, i32 0, i32 2
  %155 = load i32, ptr %length_.i, align 8
  %156 = load i32, ptr %i.addr.i, align 4
  %cmp2.i = icmp sle i32 %155, %156
  br i1 %cmp2.i, label %if.then.i, label %if.end.i

if.then.i:                                        ; preds = %lor.lhs.false.i, %if.else
  store ptr %this1.i63, ptr %this.addr.i.i, align 8
  %this1.i.i = load ptr, ptr %this.addr.i.i, align 8
  %157 = load ptr, ptr %this1.i.i, align 8
  %arrayidx.i.i = getelementptr inbounds i64, ptr %157, i64 1
  %158 = load ptr, ptr %arrayidx.i.i, align 8
  store ptr %158, ptr %isolate.addr.i169, align 8
  %159 = load ptr, ptr %isolate.addr.i169, align 8
  store ptr %159, ptr %isolate.addr.i.i167, align 8
  %160 = load ptr, ptr %isolate.addr.i169, align 8
  store ptr %160, ptr %isolate.addr.i7.i164, align 8
  store i32 4, ptr %index.addr.i.i165, align 4
  %161 = load ptr, ptr %isolate.addr.i7.i164, align 8
  %162 = ptrtoint ptr %161 to i64
  %add.i.i171 = add i64 %162, 576
  %163 = load i32, ptr %index.addr.i.i165, align 4
  %mul.i.i172 = mul nsw i32 %163, 8
  %conv.i.i173 = sext i32 %mul.i.i172 to i64
  %add1.i.i174 = add i64 %add.i.i171, %conv.i.i173
  store i64 %add1.i.i174, ptr %addr.i.i166, align 8
  %164 = load i64, ptr %addr.i.i166, align 8
  %165 = inttoptr i64 %164 to ptr
  store ptr %165, ptr %slot.i170, align 8
  %166 = load ptr, ptr %slot.i170, align 8
  store ptr %166, ptr %slot.addr.i203, align 8
  %167 = load ptr, ptr %slot.addr.i203, align 8
  store ptr %167, ptr %slot.addr.i225, align 8
  %168 = load ptr, ptr %slot.addr.i225, align 8
  store ptr %retval.i224, ptr %this.addr.i238, align 8
  store ptr %168, ptr %location.addr.i, align 8
  %this1.i239 = load ptr, ptr %this.addr.i238, align 8
  %169 = load ptr, ptr %location.addr.i, align 8
  store ptr %this1.i239, ptr %this.addr.i.i237, align 8
  store ptr %169, ptr %location.addr.i.i, align 8
  %this1.i.i240 = load ptr, ptr %this.addr.i.i237, align 8
  %170 = load ptr, ptr %location.addr.i.i, align 8
  store ptr %170, ptr %this1.i.i240, align 8
  %171 = load ptr, ptr %retval.i224, align 8
  store ptr %171, ptr %ref.tmp.i204, align 8
  store ptr %retval.i202, ptr %this.addr.i234, align 8
  store ptr %ref.tmp.i204, ptr %other.addr.i235, align 8
  %this1.i236 = load ptr, ptr %this.addr.i234, align 8
  %172 = load ptr, ptr %other.addr.i235, align 8
  call void @llvm.memcpy.p0.p0.i64(ptr align 8 %this1.i236, ptr align 8 %172, i64 8, i1 false)
  %173 = load ptr, ptr %retval.i202, align 8
  store ptr %173, ptr %retval.i168, align 8
  %174 = load ptr, ptr %retval.i168, align 8
  store ptr %174, ptr %agg.tmp.i, align 8
  %175 = load ptr, ptr %agg.tmp.i, align 8
  store ptr %175, ptr %that.i185, align 8
  store ptr %retval.i61, ptr %this.addr.i186, align 8
  %this3.i187 = load ptr, ptr %this.addr.i186, align 8
  store ptr %this3.i187, ptr %this.addr.i259, align 8
  store ptr %that.i185, ptr %other.addr.i260, align 8
  %this1.i261 = load ptr, ptr %this.addr.i259, align 8
  %176 = load ptr, ptr %other.addr.i260, align 8
  call void @llvm.memcpy.p0.p0.i64(ptr align 8 %this1.i261, ptr align 8 %176, i64 8, i1 false)
  br label %_ZNK2v820FunctionCallbackInfoINS_5ValueEEixEi.exit

if.end.i:                                         ; preds = %lor.lhs.false.i
  %values_.i = getelementptr inbounds %"class.v8::FunctionCallbackInfo", ptr %this1.i63, i32 0, i32 1
  %177 = load ptr, ptr %values_.i, align 8
  %178 = load i32, ptr %i.addr.i, align 4
  %idx.ext.i = sext i32 %178 to i64
  %add.ptr.i = getelementptr inbounds i64, ptr %177, i64 %idx.ext.i
  store ptr %add.ptr.i, ptr %slot.addr.i199, align 8
  %179 = load ptr, ptr %slot.addr.i199, align 8
  store ptr %179, ptr %slot.addr.i272, align 8
  %180 = load ptr, ptr %slot.addr.i272, align 8
  store ptr %retval.i271, ptr %this.addr.i311, align 8
  store ptr %180, ptr %location.addr.i312, align 8
  %this1.i313 = load ptr, ptr %this.addr.i311, align 8
  %181 = load ptr, ptr %location.addr.i312, align 8
  store ptr %this1.i313, ptr %this.addr.i.i309, align 8
  store ptr %181, ptr %location.addr.i.i310, align 8
  %this1.i.i314 = load ptr, ptr %this.addr.i.i309, align 8
  %182 = load ptr, ptr %location.addr.i.i310, align 8
  store ptr %182, ptr %this1.i.i314, align 8
  %183 = load ptr, ptr %retval.i271, align 8
  store ptr %183, ptr %ref.tmp.i200, align 8
  store ptr %retval.i198, ptr %this.addr.i279, align 8
  store ptr %ref.tmp.i200, ptr %other.addr.i280, align 8
  %this1.i281 = load ptr, ptr %this.addr.i279, align 8
  %184 = load ptr, ptr %other.addr.i280, align 8
  call void @llvm.memcpy.p0.p0.i64(ptr align 8 %this1.i281, ptr align 8 %184, i64 8, i1 false)
  %185 = load ptr, ptr %retval.i198, align 8
  store ptr %185, ptr %retval.i61, align 8
  br label %_ZNK2v820FunctionCallbackInfoINS_5ValueEEixEi.exit

_ZNK2v820FunctionCallbackInfoINS_5ValueEEixEi.exit: ; preds = %if.end.i, %if.then.i
  %186 = load ptr, ptr %retval.i61, align 8
  %coerce.dive51 = getelementptr inbounds %"class.v8::Local.298", ptr %agg.tmp49, i32 0, i32 0
  %coerce.dive52 = getelementptr inbounds %"class.v8::LocalBase.299", ptr %coerce.dive51, i32 0, i32 0
  %coerce.dive53 = getelementptr inbounds %"class.v8::IndirectHandleBase", ptr %coerce.dive52, i32 0, i32 0
  store ptr %186, ptr %coerce.dive53, align 8
  %coerce.dive54 = getelementptr inbounds %"class.v8::Local.298", ptr %agg.tmp49, i32 0, i32 0
  %coerce.dive55 = getelementptr inbounds %"class.v8::LocalBase.299", ptr %coerce.dive54, i32 0, i32 0
  %coerce.dive56 = getelementptr inbounds %"class.v8::IndirectHandleBase", ptr %coerce.dive55, i32 0, i32 0
  %187 = load ptr, ptr %coerce.dive56, align 8
  call void @_ZN4node23ArrayBufferViewContentsIcLm64EEC2EN2v85LocalINS2_5ValueEEE(ptr noundef nonnull align 8 dereferenceable(81) %buf, ptr %187)
  %188 = load ptr, ptr %callback.addr, align 8
  %189 = load ptr, ptr %ctx, align 8
  %190 = load ptr, ptr %args.addr, align 8
  %call57 = call noundef ptr @_ZNK4node23ArrayBufferViewContentsIcLm64EE4dataEv(ptr noundef nonnull align 8 dereferenceable(81) %buf)
  %call58 = call noundef i64 @_ZNK4node23ArrayBufferViewContentsIcLm64EE6lengthEv(ptr noundef nonnull align 8 dereferenceable(81) %buf)
  call void %188(ptr noundef %189, ptr noundef nonnull align 8 dereferenceable(20) %190, ptr noundef %call57, i64 noundef %call58)
  br label %if.end59

if.end59:                                         ; preds = %_ZNK2v820FunctionCallbackInfoINS_5ValueEEixEi.exit, %cleanup.cont, %cleanup, %if.then
  ret void

unreachable:                                      ; preds = %cleanup
  unreachable
}

; Function Attrs: mustprogress nounwind uwtable
define internal noundef ptr @"_ZZN4node6crypto4Sign10SignUpdateERKN2v820FunctionCallbackInfoINS2_5ValueEEEENK3$_0cvPFvPS1_S7_PKcmEEv"(ptr noundef nonnull align 1 dereferenceable(1) %this) #4 align 2 {
entry:
  %this.addr = alloca ptr, align 8
  store ptr %this, ptr %this.addr, align 8
  ret ptr @"_ZZN4node6crypto4Sign10SignUpdateERKN2v820FunctionCallbackInfoINS2_5ValueEEEEN3$_08__invokeEPS1_S7_PKcm"
}

; Function Attrs: mustprogress nounwind uwtable
define dso_local void @_ZN4node6crypto4Sign9SignFinalERKNS0_14ManagedEVPPKeyEiRKN2v85MaybeIiEENS0_9DSASigEncE(ptr noalias sret(%"struct.node::crypto::Sign::SignResult") align 8 %agg.result, ptr noundef nonnull align 8 dereferenceable(40) %this, ptr noundef nonnull align 8 dereferenceable(32) %pkey, i32 noundef %padding, ptr noundef nonnull align 4 dereferenceable(8) %salt_len, i32 noundef %dsa_sig_enc) #4 align 2 {
entry:
  %result.ptr = alloca ptr, align 8
  %this.addr = alloca ptr, align 8
  %pkey.addr = alloca ptr, align 8
  %padding.addr = alloca i32, align 4
  %salt_len.addr = alloca ptr, align 8
  %dsa_sig_enc.addr = alloca i32, align 4
  %ref.tmp = alloca %"class.std::unique_ptr.305", align 8
  %mdctx = alloca %"class.std::unique_ptr", align 8
  %ref.tmp6 = alloca %"class.std::unique_ptr.305", align 8
  %cleanup.dest.slot = alloca i32, align 4
  %buffer = alloca %"class.std::unique_ptr.305", align 8
  %agg.tmp = alloca %"class.v8::Maybe.324", align 4
  %error = alloca i32, align 4
  %ref.tmp12 = alloca %"class.std::unique_ptr.305", align 8
  store ptr %agg.result, ptr %result.ptr, align 8
  store ptr %this, ptr %this.addr, align 8
  store ptr %pkey, ptr %pkey.addr, align 8
  store i32 %padding, ptr %padding.addr, align 4
  store ptr %salt_len, ptr %salt_len.addr, align 8
  store i32 %dsa_sig_enc, ptr %dsa_sig_enc.addr, align 4
  %this1 = load ptr, ptr %this.addr, align 8
  %mdctx_ = getelementptr inbounds %"class.node::crypto::SignBase", ptr %this1, i32 0, i32 1
  %call = call noundef zeroext i1 @_ZNKSt10unique_ptrI13evp_md_ctx_stN4node15FunctionDeleterIS0_XadL_Z15EVP_MD_CTX_freeEEEEEcvbEv(ptr noundef nonnull align 8 dereferenceable(8) %mdctx_) #3
  br i1 %call, label %if.end, label %if.then

if.then:                                          ; preds = %entry
  call void @_ZNSt10unique_ptrIN2v812BackingStoreESt14default_deleteIS1_EEC2IS3_vEEDn(ptr noundef nonnull align 8 dereferenceable(8) %ref.tmp, ptr null) #3
  call void @_ZN4node6crypto4Sign10SignResultC2ENS0_8SignBase5ErrorEOSt10unique_ptrIN2v812BackingStoreESt14default_deleteIS7_EE(ptr noundef nonnull align 8 dereferenceable(16) %agg.result, i32 noundef 3, ptr noundef nonnull align 8 dereferenceable(8) %ref.tmp)
  call void @_ZNSt10unique_ptrIN2v812BackingStoreESt14default_deleteIS1_EED2Ev(ptr noundef nonnull align 8 dereferenceable(8) %ref.tmp) #3
  br label %return

if.end:                                           ; preds = %entry
  %mdctx_2 = getelementptr inbounds %"class.node::crypto::SignBase", ptr %this1, i32 0, i32 1
  call void @_ZNSt10unique_ptrI13evp_md_ctx_stN4node15FunctionDeleterIS0_XadL_Z15EVP_MD_CTX_freeEEEEEC2EOS4_(ptr noundef nonnull align 8 dereferenceable(8) %mdctx, ptr noundef nonnull align 8 dereferenceable(8) %mdctx_2) #3
  %0 = load ptr, ptr %pkey.addr, align 8
  %call3 = call noundef ptr @_ZNK4node6crypto14ManagedEVPPKey3getEv(ptr noundef nonnull align 8 dereferenceable(32) %0)
  %call4 = call noundef zeroext i1 @_ZN4node6crypto12_GLOBAL__N_121ValidateDSAParametersEP11evp_pkey_st(ptr noundef %call3)
  br i1 %call4, label %if.end7, label %if.then5

if.then5:                                         ; preds = %if.end
  call void @_ZNSt10unique_ptrIN2v812BackingStoreESt14default_deleteIS1_EEC2IS3_vEEDn(ptr noundef nonnull align 8 dereferenceable(8) %ref.tmp6, ptr null) #3
  call void @_ZN4node6crypto4Sign10SignResultC2ENS0_8SignBase5ErrorEOSt10unique_ptrIN2v812BackingStoreESt14default_deleteIS7_EE(ptr noundef nonnull align 8 dereferenceable(16) %agg.result, i32 noundef 5, ptr noundef nonnull align 8 dereferenceable(8) %ref.tmp6)
  call void @_ZNSt10unique_ptrIN2v812BackingStoreESt14default_deleteIS1_EED2Ev(ptr noundef nonnull align 8 dereferenceable(8) %ref.tmp6) #3
  store i32 1, ptr %cleanup.dest.slot, align 4
  br label %cleanup

if.end7:                                          ; preds = %if.end
  %call8 = call noundef ptr @_ZNK4node10BaseObject3envEv(ptr noundef nonnull align 8 dereferenceable(32) %this1)
  %1 = load ptr, ptr %pkey.addr, align 8
  %2 = load i32, ptr %padding.addr, align 4
  %3 = load ptr, ptr %salt_len.addr, align 8
  call void @llvm.memcpy.p0.p0.i64(ptr align 4 %agg.tmp, ptr align 4 %3, i64 8, i1 false)
  %4 = load i64, ptr %agg.tmp, align 4
  call void @_ZN4node6crypto12_GLOBAL__N_114Node_SignFinalEPNS_11EnvironmentEOSt10unique_ptrI13evp_md_ctx_stNS_15FunctionDeleterIS5_XadL_Z15EVP_MD_CTX_freeEEEEERKNS0_14ManagedEVPPKeyEiN2v85MaybeIiEE(ptr sret(%"class.std::unique_ptr.305") align 8 %buffer, ptr noundef %call8, ptr noundef nonnull align 8 dereferenceable(8) %mdctx, ptr noundef nonnull align 8 dereferenceable(32) %1, i32 noundef %2, i64 %4)
  %call9 = call noundef zeroext i1 @_ZNKSt10unique_ptrIN2v812BackingStoreESt14default_deleteIS1_EEcvbEv(ptr noundef nonnull align 8 dereferenceable(8) %buffer) #3
  %cond = select i1 %call9, i32 0, i32 5
  store i32 %cond, ptr %error, align 4
  %5 = load i32, ptr %error, align 4
  %cmp = icmp eq i32 %5, 0
  br i1 %cmp, label %land.lhs.true, label %if.end25

land.lhs.true:                                    ; preds = %if.end7
  %6 = load i32, ptr %dsa_sig_enc.addr, align 4
  %cmp10 = icmp eq i32 %6, 1
  br i1 %cmp10, label %if.then11, label %if.end25

if.then11:                                        ; preds = %land.lhs.true
  %call13 = call noundef ptr @_ZNK4node10BaseObject3envEv(ptr noundef nonnull align 8 dereferenceable(32) %this1)
  %7 = load ptr, ptr %pkey.addr, align 8
  call void @_ZN4node6crypto12_GLOBAL__N_123ConvertSignatureToP1363EPNS_11EnvironmentERKNS0_14ManagedEVPPKeyEOSt10unique_ptrIN2v812BackingStoreESt14default_deleteIS9_EE(ptr sret(%"class.std::unique_ptr.305") align 8 %ref.tmp12, ptr noundef %call13, ptr noundef nonnull align 8 dereferenceable(32) %7, ptr noundef nonnull align 8 dereferenceable(8) %buffer)
  %call14 = call noundef nonnull align 8 dereferenceable(8) ptr @_ZNSt10unique_ptrIN2v812BackingStoreESt14default_deleteIS1_EEaSEOS4_(ptr noundef nonnull align 8 dereferenceable(8) %buffer, ptr noundef nonnull align 8 dereferenceable(8) %ref.tmp12) #3
  call void @_ZNSt10unique_ptrIN2v812BackingStoreESt14default_deleteIS1_EED2Ev(ptr noundef nonnull align 8 dereferenceable(8) %ref.tmp12) #3
  br label %do.body

do.body:                                          ; preds = %if.then11
  %call15 = call noundef ptr @_ZNKSt10unique_ptrIN2v812BackingStoreESt14default_deleteIS1_EEptEv(ptr noundef nonnull align 8 dereferenceable(8) %buffer) #3
  %call16 = call noundef ptr @_ZNK2v812BackingStore4DataEv(ptr noundef nonnull align 1 dereferenceable(1) %call15)
  %cmp17 = icmp ne ptr %call16, null
  %lnot = xor i1 %cmp17, true
  %lnot18 = xor i1 %lnot, true
  %lnot19 = xor i1 %lnot18, true
  br i1 %lnot19, label %if.then20, label %if.end22

if.then20:                                        ; preds = %do.body
  br label %do.body21

do.body21:                                        ; preds = %if.then20
  call void @_ZN4node6AssertERKNS_13AssertionInfoE(ptr noundef nonnull align 8 dereferenceable(24) @_ZZN4node6crypto4Sign9SignFinalERKNS0_14ManagedEVPPKeyEiRKN2v85MaybeIiEENS0_9DSASigEncEE4args)
  call void @abort() #15
  unreachable

do.cond:                                          ; No predecessors!
  br label %do.end

do.end:                                           ; preds = %do.cond
  br label %if.end22

if.end22:                                         ; preds = %do.end, %do.body
  br label %do.cond23

do.cond23:                                        ; preds = %if.end22
  br label %do.end24

do.end24:                                         ; preds = %do.cond23
  br label %if.end25

if.end25:                                         ; preds = %do.end24, %land.lhs.true, %if.end7
  %8 = load i32, ptr %error, align 4
  call void @_ZN4node6crypto4Sign10SignResultC2ENS0_8SignBase5ErrorEOSt10unique_ptrIN2v812BackingStoreESt14default_deleteIS7_EE(ptr noundef nonnull align 8 dereferenceable(16) %agg.result, i32 noundef %8, ptr noundef nonnull align 8 dereferenceable(8) %buffer)
  store i32 1, ptr %cleanup.dest.slot, align 4
  call void @_ZNSt10unique_ptrIN2v812BackingStoreESt14default_deleteIS1_EED2Ev(ptr noundef nonnull align 8 dereferenceable(8) %buffer) #3
  br label %cleanup

cleanup:                                          ; preds = %if.end25, %if.then5
  call void @_ZNSt10unique_ptrI13evp_md_ctx_stN4node15FunctionDeleterIS0_XadL_Z15EVP_MD_CTX_freeEEEEED2Ev(ptr noundef nonnull align 8 dereferenceable(8) %mdctx) #3
  br label %return

return:                                           ; preds = %cleanup, %if.then
  ret void
}

; Function Attrs: mustprogress nounwind uwtable
define linkonce_odr dso_local void @_ZNSt10unique_ptrIN2v812BackingStoreESt14default_deleteIS1_EEC2IS3_vEEDn(ptr noundef nonnull align 8 dereferenceable(8) %this, ptr %0) unnamed_addr #4 comdat align 2 {
entry:
  %this.addr = alloca ptr, align 8
  %.addr = alloca ptr, align 8
  store ptr %this, ptr %this.addr, align 8
  store ptr %0, ptr %.addr, align 8
  %this1 = load ptr, ptr %this.addr, align 8
  %_M_t = getelementptr inbounds %"class.std::unique_ptr.305", ptr %this1, i32 0, i32 0
  call void @llvm.memset.p0.i64(ptr align 8 %_M_t, i8 0, i64 8, i1 false)
  call void @_ZNSt15__uniq_ptr_dataIN2v812BackingStoreESt14default_deleteIS1_ELb1ELb1EEC2Ev(ptr noundef nonnull align 8 dereferenceable(8) %_M_t) #3
  ret void
}

; Function Attrs: mustprogress nounwind uwtable
define linkonce_odr dso_local void @_ZN4node6crypto4Sign10SignResultC2ENS0_8SignBase5ErrorEOSt10unique_ptrIN2v812BackingStoreESt14default_deleteIS7_EE(ptr noundef nonnull align 8 dereferenceable(16) %this, i32 noundef %err, ptr noundef nonnull align 8 dereferenceable(8) %sig) unnamed_addr #4 comdat align 2 {
entry:
  %this.addr = alloca ptr, align 8
  %err.addr = alloca i32, align 4
  %sig.addr = alloca ptr, align 8
  store ptr %this, ptr %this.addr, align 8
  store i32 %err, ptr %err.addr, align 4
  store ptr %sig, ptr %sig.addr, align 8
  %this1 = load ptr, ptr %this.addr, align 8
  %error = getelementptr inbounds %"struct.node::crypto::Sign::SignResult", ptr %this1, i32 0, i32 0
  %0 = load i32, ptr %err.addr, align 4
  store i32 %0, ptr %error, align 8
  %signature = getelementptr inbounds %"struct.node::crypto::Sign::SignResult", ptr %this1, i32 0, i32 1
  %1 = load ptr, ptr %sig.addr, align 8
  call void @_ZNSt10unique_ptrIN2v812BackingStoreESt14default_deleteIS1_EEC2EOS4_(ptr noundef nonnull align 8 dereferenceable(8) %signature, ptr noundef nonnull align 8 dereferenceable(8) %1) #3
  ret void
}

; Function Attrs: mustprogress nounwind uwtable
define linkonce_odr dso_local void @_ZNSt10unique_ptrIN2v812BackingStoreESt14default_deleteIS1_EED2Ev(ptr noundef nonnull align 8 dereferenceable(8) %this) unnamed_addr #4 comdat align 2 {
entry:
  %this.addr = alloca ptr, align 8
  %__ptr = alloca ptr, align 8
  store ptr %this, ptr %this.addr, align 8
  %this1 = load ptr, ptr %this.addr, align 8
  %_M_t = getelementptr inbounds %"class.std::unique_ptr.305", ptr %this1, i32 0, i32 0
  %call = call noundef nonnull align 8 dereferenceable(8) ptr @_ZNSt15__uniq_ptr_implIN2v812BackingStoreESt14default_deleteIS1_EE6_M_ptrEv(ptr noundef nonnull align 8 dereferenceable(8) %_M_t) #3
  store ptr %call, ptr %__ptr, align 8
  %0 = load ptr, ptr %__ptr, align 8
  %1 = load ptr, ptr %0, align 8
  %cmp = icmp ne ptr %1, null
  br i1 %cmp, label %if.then, label %if.end

if.then:                                          ; preds = %entry
  %call2 = call noundef nonnull align 1 dereferenceable(1) ptr @_ZNSt10unique_ptrIN2v812BackingStoreESt14default_deleteIS1_EE11get_deleterEv(ptr noundef nonnull align 8 dereferenceable(8) %this1) #3
  %2 = load ptr, ptr %__ptr, align 8
  %3 = load ptr, ptr %2, align 8
  call void @_ZNKSt14default_deleteIN2v812BackingStoreEEclEPS1_(ptr noundef nonnull align 1 dereferenceable(1) %call2, ptr noundef %3)
  br label %if.end

if.end:                                           ; preds = %if.then, %entry
  %4 = load ptr, ptr %__ptr, align 8
  store ptr null, ptr %4, align 8
  ret void
}

; Function Attrs: mustprogress nounwind uwtable
define linkonce_odr dso_local void @_ZNSt10unique_ptrI13evp_md_ctx_stN4node15FunctionDeleterIS0_XadL_Z15EVP_MD_CTX_freeEEEEEC2EOS4_(ptr noundef nonnull align 8 dereferenceable(8) %this, ptr noundef nonnull align 8 dereferenceable(8) %0) unnamed_addr #4 comdat align 2 {
entry:
  %this.addr = alloca ptr, align 8
  %.addr = alloca ptr, align 8
  store ptr %this, ptr %this.addr, align 8
  store ptr %0, ptr %.addr, align 8
  %this1 = load ptr, ptr %this.addr, align 8
  %_M_t = getelementptr inbounds %"class.std::unique_ptr", ptr %this1, i32 0, i32 0
  %1 = load ptr, ptr %.addr, align 8
  %_M_t2 = getelementptr inbounds %"class.std::unique_ptr", ptr %1, i32 0, i32 0
  call void @_ZNSt15__uniq_ptr_dataI13evp_md_ctx_stN4node15FunctionDeleterIS0_XadL_Z15EVP_MD_CTX_freeEEEELb1ELb1EEC2EOS4_(ptr noundef nonnull align 8 dereferenceable(8) %_M_t, ptr noundef nonnull align 8 dereferenceable(8) %_M_t2) #3
  ret void
}

; Function Attrs: mustprogress nounwind uwtable
define internal noundef zeroext i1 @_ZN4node6crypto12_GLOBAL__N_121ValidateDSAParametersEP11evp_pkey_st(ptr noundef %key) #4 {
entry:
  %retval = alloca i1, align 1
  %key.addr = alloca ptr, align 8
  %dsa = alloca ptr, align 8
  %p = alloca ptr, align 8
  %L = alloca i64, align 8
  %q = alloca ptr, align 8
  %N = alloca i64, align 8
  store ptr %key, ptr %key.addr, align 8
  %call = call i32 @EVP_default_properties_is_fips_enabled(ptr noundef null)
  %tobool = icmp ne i32 %call, 0
  br i1 %tobool, label %land.lhs.true, label %if.end

land.lhs.true:                                    ; preds = %entry
  %0 = load ptr, ptr %key.addr, align 8
  %call1 = call i32 @EVP_PKEY_get_base_id(ptr noundef %0)
  %cmp = icmp eq i32 116, %call1
  br i1 %cmp, label %if.then, label %if.end

if.then:                                          ; preds = %land.lhs.true
  %1 = load ptr, ptr %key.addr, align 8
  %call2 = call ptr @EVP_PKEY_get0_DSA(ptr noundef %1)
  store ptr %call2, ptr %dsa, align 8
  %2 = load ptr, ptr %dsa, align 8
  call void @DSA_get0_pqg(ptr noundef %2, ptr noundef %p, ptr noundef null, ptr noundef null)
  %3 = load ptr, ptr %p, align 8
  %call3 = call i32 @BN_num_bits(ptr noundef %3)
  %conv = sext i32 %call3 to i64
  store i64 %conv, ptr %L, align 8
  %4 = load ptr, ptr %dsa, align 8
  call void @DSA_get0_pqg(ptr noundef %4, ptr noundef null, ptr noundef %q, ptr noundef null)
  %5 = load ptr, ptr %q, align 8
  %call4 = call i32 @BN_num_bits(ptr noundef %5)
  %conv5 = sext i32 %call4 to i64
  store i64 %conv5, ptr %N, align 8
  %6 = load i64, ptr %L, align 8
  %cmp6 = icmp eq i64 %6, 1024
  br i1 %cmp6, label %land.lhs.true7, label %lor.lhs.false

land.lhs.true7:                                   ; preds = %if.then
  %7 = load i64, ptr %N, align 8
  %cmp8 = icmp eq i64 %7, 160
  br i1 %cmp8, label %lor.end, label %lor.lhs.false

lor.lhs.false:                                    ; preds = %land.lhs.true7, %if.then
  %8 = load i64, ptr %L, align 8
  %cmp9 = icmp eq i64 %8, 2048
  br i1 %cmp9, label %land.lhs.true10, label %lor.lhs.false12

land.lhs.true10:                                  ; preds = %lor.lhs.false
  %9 = load i64, ptr %N, align 8
  %cmp11 = icmp eq i64 %9, 224
  br i1 %cmp11, label %lor.end, label %lor.lhs.false12

lor.lhs.false12:                                  ; preds = %land.lhs.true10, %lor.lhs.false
  %10 = load i64, ptr %L, align 8
  %cmp13 = icmp eq i64 %10, 2048
  br i1 %cmp13, label %land.lhs.true14, label %lor.rhs

land.lhs.true14:                                  ; preds = %lor.lhs.false12
  %11 = load i64, ptr %N, align 8
  %cmp15 = icmp eq i64 %11, 256
  br i1 %cmp15, label %lor.end, label %lor.rhs

lor.rhs:                                          ; preds = %land.lhs.true14, %lor.lhs.false12
  %12 = load i64, ptr %L, align 8
  %cmp16 = icmp eq i64 %12, 3072
  br i1 %cmp16, label %land.rhs, label %land.end

land.rhs:                                         ; preds = %lor.rhs
  %13 = load i64, ptr %N, align 8
  %cmp17 = icmp eq i64 %13, 256
  br label %land.end

land.end:                                         ; preds = %land.rhs, %lor.rhs
  %14 = phi i1 [ false, %lor.rhs ], [ %cmp17, %land.rhs ]
  br label %lor.end

lor.end:                                          ; preds = %land.end, %land.lhs.true14, %land.lhs.true10, %land.lhs.true7
  %15 = phi i1 [ true, %land.lhs.true14 ], [ true, %land.lhs.true10 ], [ true, %land.lhs.true7 ], [ %14, %land.end ]
  store i1 %15, ptr %retval, align 1
  br label %return

if.end:                                           ; preds = %land.lhs.true, %entry
  store i1 true, ptr %retval, align 1
  br label %return

return:                                           ; preds = %if.end, %lor.end
  %16 = load i1, ptr %retval, align 1
  ret i1 %16
}

declare noundef ptr @_ZNK4node6crypto14ManagedEVPPKey3getEv(ptr noundef nonnull align 8 dereferenceable(32)) #1

; Function Attrs: mustprogress nounwind uwtable
define internal void @_ZN4node6crypto12_GLOBAL__N_114Node_SignFinalEPNS_11EnvironmentEOSt10unique_ptrI13evp_md_ctx_stNS_15FunctionDeleterIS5_XadL_Z15EVP_MD_CTX_freeEEEEERKNS0_14ManagedEVPPKeyEiN2v85MaybeIiEE(ptr noalias sret(%"class.std::unique_ptr.305") align 8 %agg.result, ptr noundef %env, ptr noundef nonnull align 8 dereferenceable(8) %mdctx, ptr noundef nonnull align 8 dereferenceable(32) %pkey, i32 noundef %padding, i64 %pss_salt_len.coerce) #4 {
entry:
  %result.ptr = alloca ptr, align 8
  %pss_salt_len = alloca %"class.v8::Maybe.324", align 4
  %env.addr = alloca ptr, align 8
  %mdctx.addr = alloca ptr, align 8
  %pkey.addr = alloca ptr, align 8
  %padding.addr = alloca i32, align 4
  %m = alloca [64 x i8], align 16
  %m_len = alloca i32, align 4
  %signed_sig_len = alloca i32, align 4
  %sig_len = alloca i64, align 8
  %sig = alloca %"class.std::unique_ptr.305", align 8
  %no_zero_fill_scope = alloca %"class.node::NoArrayBufferZeroFillScope", align 8
  %ref.tmp = alloca %"class.std::unique_ptr.305", align 8
  %pkctx = alloca %"class.std::unique_ptr.337", align 8
  %ref.tmp53 = alloca %"class.std::unique_ptr.305", align 8
  %ref.tmp56 = alloca %"class.std::unique_ptr.305", align 8
  %agg.tmp = alloca %"class.std::unique_ptr.305", align 8
  %cleanup.dest.slot = alloca i32, align 4
  store ptr %agg.result, ptr %result.ptr, align 8
  store i64 %pss_salt_len.coerce, ptr %pss_salt_len, align 4
  store ptr %env, ptr %env.addr, align 8
  store ptr %mdctx, ptr %mdctx.addr, align 8
  store ptr %pkey, ptr %pkey.addr, align 8
  store i32 %padding, ptr %padding.addr, align 4
  %0 = load ptr, ptr %mdctx.addr, align 8
  %call = call noundef ptr @_ZNKSt10unique_ptrI13evp_md_ctx_stN4node15FunctionDeleterIS0_XadL_Z15EVP_MD_CTX_freeEEEEE3getEv(ptr noundef nonnull align 8 dereferenceable(8) %0) #3
  %arraydecay = getelementptr inbounds [64 x i8], ptr %m, i64 0, i64 0
  %call1 = call i32 @EVP_DigestFinal_ex(ptr noundef %call, ptr noundef %arraydecay, ptr noundef %m_len)
  %tobool = icmp ne i32 %call1, 0
  br i1 %tobool, label %if.end, label %if.then

if.then:                                          ; preds = %entry
  call void @_ZNSt10unique_ptrIN2v812BackingStoreESt14default_deleteIS1_EEC2IS3_vEEDn(ptr noundef nonnull align 8 dereferenceable(8) %agg.result, ptr null) #3
  br label %return

if.end:                                           ; preds = %entry
  %1 = load ptr, ptr %pkey.addr, align 8
  %call2 = call noundef ptr @_ZNK4node6crypto14ManagedEVPPKey3getEv(ptr noundef nonnull align 8 dereferenceable(32) %1)
  %call3 = call i32 @EVP_PKEY_get_size(ptr noundef %call2)
  store i32 %call3, ptr %signed_sig_len, align 4
  br label %do.body

do.body:                                          ; preds = %if.end
  %2 = load i32, ptr %signed_sig_len, align 4
  %cmp = icmp sge i32 %2, 0
  %lnot = xor i1 %cmp, true
  %lnot4 = xor i1 %lnot, true
  %lnot5 = xor i1 %lnot4, true
  br i1 %lnot5, label %if.then6, label %if.end8

if.then6:                                         ; preds = %do.body
  br label %do.body7

do.body7:                                         ; preds = %if.then6
  call void @_ZN4node6AssertERKNS_13AssertionInfoE(ptr noundef nonnull align 8 dereferenceable(24) @_ZZN4node6crypto12_GLOBAL__N_114Node_SignFinalEPNS_11EnvironmentEOSt10unique_ptrI13evp_md_ctx_stNS_15FunctionDeleterIS5_XadL_Z15EVP_MD_CTX_freeEEEEERKNS0_14ManagedEVPPKeyEiN2v85MaybeIiEEE4args)
  call void @abort() #15
  unreachable

do.end:                                           ; No predecessors!
  br label %if.end8

if.end8:                                          ; preds = %do.end, %do.body
  br label %do.end9

do.end9:                                          ; preds = %if.end8
  %3 = load i32, ptr %signed_sig_len, align 4
  %conv = sext i32 %3 to i64
  store i64 %conv, ptr %sig_len, align 8
  call void @_ZNSt10unique_ptrIN2v812BackingStoreESt14default_deleteIS1_EEC2IS3_vEEv(ptr noundef nonnull align 8 dereferenceable(8) %sig) #3
  %4 = load ptr, ptr %env.addr, align 8
  %call10 = call noundef ptr @_ZNK4node11Environment12isolate_dataEv(ptr noundef nonnull align 8 dereferenceable(2872) %4)
  call void @_ZN4node26NoArrayBufferZeroFillScopeC2EPNS_11IsolateDataE(ptr noundef nonnull align 8 dereferenceable(8) %no_zero_fill_scope, ptr noundef %call10)
  %5 = load ptr, ptr %env.addr, align 8
  %call11 = call noundef ptr @_ZNK4node11Environment7isolateEv(ptr noundef nonnull align 8 dereferenceable(2872) %5)
  %6 = load i64, ptr %sig_len, align 8
  call void @_ZN2v811ArrayBuffer15NewBackingStoreEPNS_7IsolateEm(ptr sret(%"class.std::unique_ptr.305") align 8 %ref.tmp, ptr noundef %call11, i64 noundef %6)
  %call12 = call noundef nonnull align 8 dereferenceable(8) ptr @_ZNSt10unique_ptrIN2v812BackingStoreESt14default_deleteIS1_EEaSEOS4_(ptr noundef nonnull align 8 dereferenceable(8) %sig, ptr noundef nonnull align 8 dereferenceable(8) %ref.tmp) #3
  call void @_ZNSt10unique_ptrIN2v812BackingStoreESt14default_deleteIS1_EED2Ev(ptr noundef nonnull align 8 dereferenceable(8) %ref.tmp) #3
  call void @_ZN4node26NoArrayBufferZeroFillScopeD2Ev(ptr noundef nonnull align 8 dereferenceable(8) %no_zero_fill_scope) #3
  %7 = load ptr, ptr %pkey.addr, align 8
  %call13 = call noundef ptr @_ZNK4node6crypto14ManagedEVPPKey3getEv(ptr noundef nonnull align 8 dereferenceable(32) %7)
  %call14 = call ptr @EVP_PKEY_CTX_new(ptr noundef %call13, ptr noundef null)
  call void @_ZNSt10unique_ptrI15evp_pkey_ctx_stN4node15FunctionDeleterIS0_XadL_Z17EVP_PKEY_CTX_freeEEEEEC2IS3_vEEPS0_(ptr noundef nonnull align 8 dereferenceable(8) %pkctx, ptr noundef %call14) #3
  %call15 = call noundef zeroext i1 @_ZNKSt10unique_ptrI15evp_pkey_ctx_stN4node15FunctionDeleterIS0_XadL_Z17EVP_PKEY_CTX_freeEEEEEcvbEv(ptr noundef nonnull align 8 dereferenceable(8) %pkctx) #3
  br i1 %call15, label %land.lhs.true, label %if.end60

land.lhs.true:                                    ; preds = %do.end9
  %call16 = call noundef ptr @_ZNKSt10unique_ptrI15evp_pkey_ctx_stN4node15FunctionDeleterIS0_XadL_Z17EVP_PKEY_CTX_freeEEEEE3getEv(ptr noundef nonnull align 8 dereferenceable(8) %pkctx) #3
  %call17 = call i32 @EVP_PKEY_sign_init(ptr noundef %call16)
  %tobool18 = icmp ne i32 %call17, 0
  br i1 %tobool18, label %land.lhs.true19, label %if.end60

land.lhs.true19:                                  ; preds = %land.lhs.true
  %8 = load ptr, ptr %pkey.addr, align 8
  %call20 = call noundef ptr @_ZNKSt10unique_ptrI15evp_pkey_ctx_stN4node15FunctionDeleterIS0_XadL_Z17EVP_PKEY_CTX_freeEEEEE3getEv(ptr noundef nonnull align 8 dereferenceable(8) %pkctx) #3
  %9 = load i32, ptr %padding.addr, align 4
  %call21 = call noundef zeroext i1 @_ZN4node6crypto12_GLOBAL__N_115ApplyRSAOptionsERKNS0_14ManagedEVPPKeyEP15evp_pkey_ctx_stiRKN2v85MaybeIiEE(ptr noundef nonnull align 8 dereferenceable(32) %8, ptr noundef %call20, i32 noundef %9, ptr noundef nonnull align 4 dereferenceable(8) %pss_salt_len)
  br i1 %call21, label %land.lhs.true22, label %if.end60

land.lhs.true22:                                  ; preds = %land.lhs.true19
  %call23 = call noundef ptr @_ZNKSt10unique_ptrI15evp_pkey_ctx_stN4node15FunctionDeleterIS0_XadL_Z17EVP_PKEY_CTX_freeEEEEE3getEv(ptr noundef nonnull align 8 dereferenceable(8) %pkctx) #3
  %10 = load ptr, ptr %mdctx.addr, align 8
  %call24 = call noundef ptr @_ZNKSt10unique_ptrI13evp_md_ctx_stN4node15FunctionDeleterIS0_XadL_Z15EVP_MD_CTX_freeEEEEE3getEv(ptr noundef nonnull align 8 dereferenceable(8) %10) #3
  %call25 = call ptr @EVP_MD_CTX_md(ptr noundef %call24)
  %call26 = call i32 @EVP_PKEY_CTX_set_signature_md(ptr noundef %call23, ptr noundef %call25)
  %tobool27 = icmp ne i32 %call26, 0
  br i1 %tobool27, label %land.lhs.true28, label %if.end60

land.lhs.true28:                                  ; preds = %land.lhs.true22
  %call29 = call noundef ptr @_ZNKSt10unique_ptrI15evp_pkey_ctx_stN4node15FunctionDeleterIS0_XadL_Z17EVP_PKEY_CTX_freeEEEEE3getEv(ptr noundef nonnull align 8 dereferenceable(8) %pkctx) #3
  %call30 = call noundef ptr @_ZNKSt10unique_ptrIN2v812BackingStoreESt14default_deleteIS1_EEptEv(ptr noundef nonnull align 8 dereferenceable(8) %sig) #3
  %call31 = call noundef ptr @_ZNK2v812BackingStore4DataEv(ptr noundef nonnull align 1 dereferenceable(1) %call30)
  %arraydecay32 = getelementptr inbounds [64 x i8], ptr %m, i64 0, i64 0
  %11 = load i32, ptr %m_len, align 4
  %conv33 = zext i32 %11 to i64
  %call34 = call i32 @EVP_PKEY_sign(ptr noundef %call29, ptr noundef %call31, ptr noundef %sig_len, ptr noundef %arraydecay32, i64 noundef %conv33)
  %tobool35 = icmp ne i32 %call34, 0
  br i1 %tobool35, label %if.then36, label %if.end60

if.then36:                                        ; preds = %land.lhs.true28
  br label %do.body37

do.body37:                                        ; preds = %if.then36
  %12 = load i64, ptr %sig_len, align 8
  %call38 = call noundef ptr @_ZNKSt10unique_ptrIN2v812BackingStoreESt14default_deleteIS1_EEptEv(ptr noundef nonnull align 8 dereferenceable(8) %sig) #3
  %call39 = call noundef i64 @_ZNK2v812BackingStore10ByteLengthEv(ptr noundef nonnull align 1 dereferenceable(1) %call38)
  %cmp40 = icmp ule i64 %12, %call39
  %lnot41 = xor i1 %cmp40, true
  %lnot42 = xor i1 %lnot41, true
  %lnot43 = xor i1 %lnot42, true
  br i1 %lnot43, label %if.then45, label %if.end48

if.then45:                                        ; preds = %do.body37
  br label %do.body46

do.body46:                                        ; preds = %if.then45
  call void @_ZN4node6AssertERKNS_13AssertionInfoE(ptr noundef nonnull align 8 dereferenceable(24) @_ZZN4node6crypto12_GLOBAL__N_114Node_SignFinalEPNS_11EnvironmentEOSt10unique_ptrI13evp_md_ctx_stNS_15FunctionDeleterIS5_XadL_Z15EVP_MD_CTX_freeEEEEERKNS0_14ManagedEVPPKeyEiN2v85MaybeIiEEE4args_0)
  call void @abort() #15
  unreachable

do.cond:                                          ; No predecessors!
  br label %do.end47

do.end47:                                         ; preds = %do.cond
  br label %if.end48

if.end48:                                         ; preds = %do.end47, %do.body37
  br label %do.cond49

do.cond49:                                        ; preds = %if.end48
  br label %do.end50

do.end50:                                         ; preds = %do.cond49
  %13 = load i64, ptr %sig_len, align 8
  %cmp51 = icmp eq i64 %13, 0
  br i1 %cmp51, label %if.then52, label %if.else

if.then52:                                        ; preds = %do.end50
  %14 = load ptr, ptr %env.addr, align 8
  %call54 = call noundef ptr @_ZNK4node11Environment7isolateEv(ptr noundef nonnull align 8 dereferenceable(2872) %14)
  call void @_ZN2v811ArrayBuffer15NewBackingStoreEPNS_7IsolateEm(ptr sret(%"class.std::unique_ptr.305") align 8 %ref.tmp53, ptr noundef %call54, i64 noundef 0)
  %call55 = call noundef nonnull align 8 dereferenceable(8) ptr @_ZNSt10unique_ptrIN2v812BackingStoreESt14default_deleteIS1_EEaSEOS4_(ptr noundef nonnull align 8 dereferenceable(8) %sig, ptr noundef nonnull align 8 dereferenceable(8) %ref.tmp53) #3
  call void @_ZNSt10unique_ptrIN2v812BackingStoreESt14default_deleteIS1_EED2Ev(ptr noundef nonnull align 8 dereferenceable(8) %ref.tmp53) #3
  br label %if.end59

if.else:                                          ; preds = %do.end50
  %15 = load ptr, ptr %env.addr, align 8
  %call57 = call noundef ptr @_ZNK4node11Environment7isolateEv(ptr noundef nonnull align 8 dereferenceable(2872) %15)
  call void @_ZNSt10unique_ptrIN2v812BackingStoreESt14default_deleteIS1_EEC2EOS4_(ptr noundef nonnull align 8 dereferenceable(8) %agg.tmp, ptr noundef nonnull align 8 dereferenceable(8) %sig) #3
  %16 = load i64, ptr %sig_len, align 8
  call void @_ZN2v812BackingStore10ReallocateEPNS_7IsolateESt10unique_ptrIS0_St14default_deleteIS0_EEm(ptr sret(%"class.std::unique_ptr.305") align 8 %ref.tmp56, ptr noundef %call57, ptr noundef %agg.tmp, i64 noundef %16)
  %call58 = call noundef nonnull align 8 dereferenceable(8) ptr @_ZNSt10unique_ptrIN2v812BackingStoreESt14default_deleteIS1_EEaSEOS4_(ptr noundef nonnull align 8 dereferenceable(8) %sig, ptr noundef nonnull align 8 dereferenceable(8) %ref.tmp56) #3
  call void @_ZNSt10unique_ptrIN2v812BackingStoreESt14default_deleteIS1_EED2Ev(ptr noundef nonnull align 8 dereferenceable(8) %ref.tmp56) #3
  call void @_ZNSt10unique_ptrIN2v812BackingStoreESt14default_deleteIS1_EED2Ev(ptr noundef nonnull align 8 dereferenceable(8) %agg.tmp) #3
  br label %if.end59

if.end59:                                         ; preds = %if.else, %if.then52
  call void @_ZNSt10unique_ptrIN2v812BackingStoreESt14default_deleteIS1_EEC2EOS4_(ptr noundef nonnull align 8 dereferenceable(8) %agg.result, ptr noundef nonnull align 8 dereferenceable(8) %sig) #3
  store i32 1, ptr %cleanup.dest.slot, align 4
  br label %cleanup

if.end60:                                         ; preds = %land.lhs.true28, %land.lhs.true22, %land.lhs.true19, %land.lhs.true, %do.end9
  call void @_ZNSt10unique_ptrIN2v812BackingStoreESt14default_deleteIS1_EEC2IS3_vEEDn(ptr noundef nonnull align 8 dereferenceable(8) %agg.result, ptr null) #3
  store i32 1, ptr %cleanup.dest.slot, align 4
  br label %cleanup

cleanup:                                          ; preds = %if.end60, %if.end59
  call void @_ZNSt10unique_ptrI15evp_pkey_ctx_stN4node15FunctionDeleterIS0_XadL_Z17EVP_PKEY_CTX_freeEEEEED2Ev(ptr noundef nonnull align 8 dereferenceable(8) %pkctx) #3
  call void @_ZNSt10unique_ptrIN2v812BackingStoreESt14default_deleteIS1_EED2Ev(ptr noundef nonnull align 8 dereferenceable(8) %sig) #3
  br label %return

return:                                           ; preds = %cleanup, %if.then
  ret void
}

; Function Attrs: mustprogress nounwind uwtable
define linkonce_odr dso_local noundef ptr @_ZNK4node10BaseObject3envEv(ptr noundef nonnull align 8 dereferenceable(32) %this) #4 comdat align 2 {
entry:
  %this.addr = alloca ptr, align 8
  store ptr %this, ptr %this.addr, align 8
  %this1 = load ptr, ptr %this.addr, align 8
  %realm_ = getelementptr inbounds %"class.node::BaseObject", ptr %this1, i32 0, i32 2
  %0 = load ptr, ptr %realm_, align 8
  %call = call noundef ptr @_ZNK4node5Realm3envEv(ptr noundef nonnull align 8 dereferenceable(872) %0)
  ret ptr %call
}

; Function Attrs: mustprogress nounwind uwtable
define linkonce_odr dso_local noundef zeroext i1 @_ZNKSt10unique_ptrIN2v812BackingStoreESt14default_deleteIS1_EEcvbEv(ptr noundef nonnull align 8 dereferenceable(8) %this) #4 comdat align 2 {
entry:
  %this.addr = alloca ptr, align 8
  store ptr %this, ptr %this.addr, align 8
  %this1 = load ptr, ptr %this.addr, align 8
  %call = call noundef ptr @_ZNKSt10unique_ptrIN2v812BackingStoreESt14default_deleteIS1_EE3getEv(ptr noundef nonnull align 8 dereferenceable(8) %this1) #3
  %cmp = icmp eq ptr %call, null
  %cond = select i1 %cmp, i1 false, i1 true
  ret i1 %cond
}

; Function Attrs: mustprogress nounwind uwtable
define internal void @_ZN4node6crypto12_GLOBAL__N_123ConvertSignatureToP1363EPNS_11EnvironmentERKNS0_14ManagedEVPPKeyEOSt10unique_ptrIN2v812BackingStoreESt14default_deleteIS9_EE(ptr noalias sret(%"class.std::unique_ptr.305") align 8 %agg.result, ptr noundef %env, ptr noundef nonnull align 8 dereferenceable(32) %pkey, ptr noundef nonnull align 8 dereferenceable(8) %signature) #4 {
entry:
  %result.ptr = alloca ptr, align 8
  %env.addr = alloca ptr, align 8
  %pkey.addr = alloca ptr, align 8
  %signature.addr = alloca ptr, align 8
  %n = alloca i32, align 4
  %buf = alloca %"class.std::unique_ptr.305", align 8
  %no_zero_fill_scope = alloca %"class.node::NoArrayBufferZeroFillScope", align 8
  %ref.tmp = alloca %"class.std::unique_ptr.305", align 8
  %cleanup.dest.slot = alloca i32, align 4
  store ptr %agg.result, ptr %result.ptr, align 8
  store ptr %env, ptr %env.addr, align 8
  store ptr %pkey, ptr %pkey.addr, align 8
  store ptr %signature, ptr %signature.addr, align 8
  %0 = load ptr, ptr %pkey.addr, align 8
  %call = call noundef i32 @_ZN4node6crypto12_GLOBAL__N_112GetBytesOfRSERKNS0_14ManagedEVPPKeyE(ptr noundef nonnull align 8 dereferenceable(32) %0)
  store i32 %call, ptr %n, align 4
  %1 = load i32, ptr %n, align 4
  %cmp = icmp eq i32 %1, -1
  br i1 %cmp, label %if.then, label %if.end

if.then:                                          ; preds = %entry
  %2 = load ptr, ptr %signature.addr, align 8
  call void @_ZNSt10unique_ptrIN2v812BackingStoreESt14default_deleteIS1_EEC2EOS4_(ptr noundef nonnull align 8 dereferenceable(8) %agg.result, ptr noundef nonnull align 8 dereferenceable(8) %2) #3
  br label %return

if.end:                                           ; preds = %entry
  call void @_ZNSt10unique_ptrIN2v812BackingStoreESt14default_deleteIS1_EEC2IS3_vEEv(ptr noundef nonnull align 8 dereferenceable(8) %buf) #3
  %3 = load ptr, ptr %env.addr, align 8
  %call1 = call noundef ptr @_ZNK4node11Environment12isolate_dataEv(ptr noundef nonnull align 8 dereferenceable(2872) %3)
  call void @_ZN4node26NoArrayBufferZeroFillScopeC2EPNS_11IsolateDataE(ptr noundef nonnull align 8 dereferenceable(8) %no_zero_fill_scope, ptr noundef %call1)
  %4 = load ptr, ptr %env.addr, align 8
  %call2 = call noundef ptr @_ZNK4node11Environment7isolateEv(ptr noundef nonnull align 8 dereferenceable(2872) %4)
  %5 = load i32, ptr %n, align 4
  %mul = mul i32 2, %5
  %conv = zext i32 %mul to i64
  call void @_ZN2v811ArrayBuffer15NewBackingStoreEPNS_7IsolateEm(ptr sret(%"class.std::unique_ptr.305") align 8 %ref.tmp, ptr noundef %call2, i64 noundef %conv)
  %call3 = call noundef nonnull align 8 dereferenceable(8) ptr @_ZNSt10unique_ptrIN2v812BackingStoreESt14default_deleteIS1_EEaSEOS4_(ptr noundef nonnull align 8 dereferenceable(8) %buf, ptr noundef nonnull align 8 dereferenceable(8) %ref.tmp) #3
  call void @_ZNSt10unique_ptrIN2v812BackingStoreESt14default_deleteIS1_EED2Ev(ptr noundef nonnull align 8 dereferenceable(8) %ref.tmp) #3
  call void @_ZN4node26NoArrayBufferZeroFillScopeD2Ev(ptr noundef nonnull align 8 dereferenceable(8) %no_zero_fill_scope) #3
  %6 = load ptr, ptr %signature.addr, align 8
  %call4 = call noundef ptr @_ZNKSt10unique_ptrIN2v812BackingStoreESt14default_deleteIS1_EEptEv(ptr noundef nonnull align 8 dereferenceable(8) %6) #3
  %call5 = call noundef ptr @_ZNK2v812BackingStore4DataEv(ptr noundef nonnull align 1 dereferenceable(1) %call4)
  %call6 = call noundef ptr @_ZNKSt10unique_ptrIN2v812BackingStoreESt14default_deleteIS1_EEptEv(ptr noundef nonnull align 8 dereferenceable(8) %buf) #3
  %call7 = call noundef ptr @_ZNK2v812BackingStore4DataEv(ptr noundef nonnull align 1 dereferenceable(1) %call6)
  %7 = load ptr, ptr %signature.addr, align 8
  %call8 = call noundef ptr @_ZNKSt10unique_ptrIN2v812BackingStoreESt14default_deleteIS1_EEptEv(ptr noundef nonnull align 8 dereferenceable(8) %7) #3
  %call9 = call noundef i64 @_ZNK2v812BackingStore10ByteLengthEv(ptr noundef nonnull align 1 dereferenceable(1) %call8)
  %8 = load i32, ptr %n, align 4
  %conv10 = zext i32 %8 to i64
  %call11 = call noundef zeroext i1 @_ZN4node6crypto12_GLOBAL__N_112ExtractP1363EPKhPhmm(ptr noundef %call5, ptr noundef %call7, i64 noundef %call9, i64 noundef %conv10)
  br i1 %call11, label %if.end13, label %if.then12

if.then12:                                        ; preds = %if.end
  %9 = load ptr, ptr %signature.addr, align 8
  call void @_ZNSt10unique_ptrIN2v812BackingStoreESt14default_deleteIS1_EEC2EOS4_(ptr noundef nonnull align 8 dereferenceable(8) %agg.result, ptr noundef nonnull align 8 dereferenceable(8) %9) #3
  store i32 1, ptr %cleanup.dest.slot, align 4
  br label %cleanup

if.end13:                                         ; preds = %if.end
  call void @_ZNSt10unique_ptrIN2v812BackingStoreESt14default_deleteIS1_EEC2EOS4_(ptr noundef nonnull align 8 dereferenceable(8) %agg.result, ptr noundef nonnull align 8 dereferenceable(8) %buf) #3
  store i32 1, ptr %cleanup.dest.slot, align 4
  br label %cleanup

cleanup:                                          ; preds = %if.end13, %if.then12
  call void @_ZNSt10unique_ptrIN2v812BackingStoreESt14default_deleteIS1_EED2Ev(ptr noundef nonnull align 8 dereferenceable(8) %buf) #3
  br label %return

return:                                           ; preds = %cleanup, %if.then
  ret void
}

; Function Attrs: mustprogress nounwind uwtable
define linkonce_odr dso_local noundef nonnull align 8 dereferenceable(8) ptr @_ZNSt10unique_ptrIN2v812BackingStoreESt14default_deleteIS1_EEaSEOS4_(ptr noundef nonnull align 8 dereferenceable(8) %this, ptr noundef nonnull align 8 dereferenceable(8) %0) #4 comdat align 2 {
entry:
  %this.addr = alloca ptr, align 8
  %.addr = alloca ptr, align 8
  store ptr %this, ptr %this.addr, align 8
  store ptr %0, ptr %.addr, align 8
  %this1 = load ptr, ptr %this.addr, align 8
  %_M_t = getelementptr inbounds %"class.std::unique_ptr.305", ptr %this1, i32 0, i32 0
  %1 = load ptr, ptr %.addr, align 8
  %_M_t2 = getelementptr inbounds %"class.std::unique_ptr.305", ptr %1, i32 0, i32 0
  %call = call noundef nonnull align 8 dereferenceable(8) ptr @_ZNSt15__uniq_ptr_dataIN2v812BackingStoreESt14default_deleteIS1_ELb1ELb1EEaSEOS4_(ptr noundef nonnull align 8 dereferenceable(8) %_M_t, ptr noundef nonnull align 8 dereferenceable(8) %_M_t2) #3
  ret ptr %this1
}

; Function Attrs: mustprogress nounwind uwtable
define linkonce_odr dso_local noundef ptr @_ZNKSt10unique_ptrIN2v812BackingStoreESt14default_deleteIS1_EEptEv(ptr noundef nonnull align 8 dereferenceable(8) %this) #4 comdat align 2 {
entry:
  %this.addr = alloca ptr, align 8
  store ptr %this, ptr %this.addr, align 8
  %this1 = load ptr, ptr %this.addr, align 8
  %call = call noundef ptr @_ZNKSt10unique_ptrIN2v812BackingStoreESt14default_deleteIS1_EE3getEv(ptr noundef nonnull align 8 dereferenceable(8) %this1) #3
  ret ptr %call
}

declare noundef ptr @_ZNK2v812BackingStore4DataEv(ptr noundef nonnull align 1 dereferenceable(1)) #1

; Function Attrs: mustprogress nounwind uwtable
define linkonce_odr dso_local void @_ZNSt10unique_ptrI13evp_md_ctx_stN4node15FunctionDeleterIS0_XadL_Z15EVP_MD_CTX_freeEEEEED2Ev(ptr noundef nonnull align 8 dereferenceable(8) %this) unnamed_addr #4 comdat align 2 {
entry:
  %this.addr = alloca ptr, align 8
  %__ptr = alloca ptr, align 8
  store ptr %this, ptr %this.addr, align 8
  %this1 = load ptr, ptr %this.addr, align 8
