target datalayout = "e-m:e-p270:32:32-p271:32:32-p272:64:64-i64:64-i128:128-f80:128-n8:16:32:64-S128"
target triple = "x86_64-unknown-linux-gnu"

%"class.std::ios_base::Init" = type { i8 }
%"struct.node::AssertionInfo" = type { ptr, ptr, ptr }
%"struct.std::piecewise_construct_t" = type { i8 }
%"class.std::basic_ostream" = type { ptr, %"class.std::basic_ios" }
%"class.std::basic_ios" = type { %"class.std::ios_base", ptr, i8, i8, ptr, ptr, ptr, ptr }
%"class.std::ios_base" = type { ptr, i64, i64, i32, i32, i32, ptr, %"struct.std::ios_base::_Words", [8 x %"struct.std::ios_base::_Words"], i32, ptr, %"class.std::locale" }
%"struct.std::ios_base::_Words" = type { ptr, i64 }
%"class.std::locale" = type { ptr }
%"class.v8::Local" = type { %"class.v8::LocalBase" }
%"class.v8::LocalBase" = type { %"class.v8::IndirectHandleBase" }
%"class.v8::IndirectHandleBase" = type { ptr }
%"struct.node::ContextInfo" = type <{ %"class.std::__cxx11::basic_string", %"class.std::__cxx11::basic_string", i8, [7 x i8] }>
%"class.std::__cxx11::basic_string" = type { %"struct.std::__cxx11::basic_string<char>::_Alloc_hider", i64, %union.anon.120 }
%"struct.std::__cxx11::basic_string<char>::_Alloc_hider" = type { ptr }
%union.anon.120 = type { i64, [8 x i8] }
%"class.std::allocator.117" = type { i8 }
%"class.node::Realm" = type { %"class.node::MemoryRetainer", %"class.std::set", %"class.std::set.0", %"class.std::set.0", %"class.std::vector", ptr, ptr, %"class.v8::Global", %"class.v8::Global.11", %"class.v8::Global.11", %"class.v8::Global.11", %"class.v8::Global.13", %"class.v8::Global.11", %"class.v8::Global.11", %"class.v8::Global.11", %"class.v8::Global.13", %"class.v8::Global.11", %"class.v8::Global.11", %"class.v8::Global.11", %"class.v8::Global.11", %"class.v8::Global.11", %"class.v8::Global.11", %"class.v8::Global.11", %"class.v8::Global.11", %"class.v8::Global.11", %"class.v8::Global.11", %"class.v8::Global.11", %"class.v8::Global.11", %"class.v8::Global.11", %"class.v8::Global.11", %"class.v8::Global.11", %"class.v8::Global.11", %"class.v8::Global.11", %"class.v8::Global.11", %"class.v8::Global.11", %"class.v8::Global.11", %"class.v8::Global.11", %"class.v8::Global.11", %"class.v8::Global.11", %"class.v8::Global.11", %"class.v8::Global.11", %"class.v8::Global.11", %"class.v8::Global.11", %"class.v8::Global.11", %"class.v8::Global.13", %"class.v8::Global.11", %"class.v8::Global.11", %"class.v8::Global.11", %"class.v8::Global.13", %"class.v8::Global.13", %"class.v8::Global.13", %"class.v8::Global.13", %"class.v8::Global.13", %"class.v8::Global.13", %"class.v8::Global.11", %"class.v8::Global.11", %"class.v8::Global.11", %"class.v8::Global.11", %"class.v8::Global.11", %"class.v8::Global.11", %"class.v8::Global.11", %"class.v8::Global.11", %"class.v8::Global.11", %"class.v8::Global.11", %"class.v8::Global.11", %"class.v8::Global.11", %"class.v8::Global.11", %"class.v8::Global.11", i32, i8, i64, i64, %"struct.std::array", %"class.node::CleanupQueue" }
%"class.node::MemoryRetainer" = type { ptr }
%"class.std::set" = type { %"class.std::_Rb_tree" }
%"class.std::_Rb_tree" = type { %"struct.std::_Rb_tree<node::node_module *, node::node_module *, std::_Identity<node::node_module *>, std::less<node::node_module *>>::_Rb_tree_impl" }
%"struct.std::_Rb_tree<node::node_module *, node::node_module *, std::_Identity<node::node_module *>, std::less<node::node_module *>>::_Rb_tree_impl" = type { %"struct.std::_Rb_tree_key_compare", %"struct.std::_Rb_tree_header" }
%"struct.std::_Rb_tree_key_compare" = type { %"struct.std::less" }
%"struct.std::less" = type { i8 }
%"struct.std::_Rb_tree_header" = type { %"struct.std::_Rb_tree_node_base", i64 }
%"struct.std::_Rb_tree_node_base" = type { i32, ptr, ptr, ptr }
%"class.std::set.0" = type { %"class.std::_Rb_tree.1" }
%"class.std::_Rb_tree.1" = type { %"struct.std::_Rb_tree<std::__cxx11::basic_string<char>, std::__cxx11::basic_string<char>, std::_Identity<std::__cxx11::basic_string<char>>, std::less<std::__cxx11::basic_string<char>>>::_Rb_tree_impl" }
%"struct.std::_Rb_tree<std::__cxx11::basic_string<char>, std::__cxx11::basic_string<char>, std::_Identity<std::__cxx11::basic_string<char>>, std::less<std::__cxx11::basic_string<char>>>::_Rb_tree_impl" = type { %"struct.std::_Rb_tree_key_compare.5", %"struct.std::_Rb_tree_header" }
%"struct.std::_Rb_tree_key_compare.5" = type { %"struct.std::less.6" }
%"struct.std::less.6" = type { i8 }
%"class.std::vector" = type { %"struct.std::_Vector_base" }
%"struct.std::_Vector_base" = type { %"struct.std::_Vector_base<std::__cxx11::basic_string<char>, std::allocator<std::__cxx11::basic_string<char>>>::_Vector_impl" }
%"struct.std::_Vector_base<std::__cxx11::basic_string<char>, std::allocator<std::__cxx11::basic_string<char>>>::_Vector_impl" = type { %"struct.std::_Vector_base<std::__cxx11::basic_string<char>, std::allocator<std::__cxx11::basic_string<char>>>::_Vector_impl_data" }
%"struct.std::_Vector_base<std::__cxx11::basic_string<char>, std::allocator<std::__cxx11::basic_string<char>>>::_Vector_impl_data" = type { ptr, ptr, ptr }
%"class.v8::Global" = type { %"class.v8::PersistentBase" }
%"class.v8::PersistentBase" = type { %"class.v8::IndirectHandleBase" }
%"class.v8::Global.13" = type { %"class.v8::PersistentBase.14" }
%"class.v8::PersistentBase.14" = type { %"class.v8::IndirectHandleBase" }
%"class.v8::Global.11" = type { %"class.v8::PersistentBase.12" }
%"class.v8::PersistentBase.12" = type { %"class.v8::IndirectHandleBase" }
%"struct.std::array" = type { [12 x %"class.node::BaseObjectPtrImpl"] }
%"class.node::BaseObjectPtrImpl" = type { %union.anon }
%union.anon = type { ptr }
%"class.node::CleanupQueue" = type { %"class.node::MemoryRetainer", %"class.std::unordered_set", i64 }
%"class.std::unordered_set" = type { %"class.std::_Hashtable" }
%"class.std::_Hashtable" = type { ptr, i64, %"struct.std::__detail::_Hash_node_base", i64, %"struct.std::__detail::_Prime_rehash_policy", ptr }
%"struct.std::__detail::_Hash_node_base" = type { ptr }
%"struct.std::__detail::_Prime_rehash_policy" = type { float, i64 }
%"class.v8::Local.292" = type { %"class.v8::LocalBase.293" }
%"class.v8::LocalBase.293" = type { %"class.v8::IndirectHandleBase" }
%"class.v8::Local.294" = type { %"class.v8::LocalBase.295" }
%"class.v8::LocalBase.295" = type { %"class.v8::IndirectHandleBase" }
%"class.v8::Local.296" = type { %"class.v8::LocalBase.297" }
%"class.v8::LocalBase.297" = type { %"class.v8::IndirectHandleBase" }
%"class.node::MemoryTracker" = type { ptr, ptr, %"class.std::stack", %"class.std::unordered_map.272" }
%"class.std::stack" = type { %"class.std::deque" }
%"class.std::deque" = type { %"class.std::_Deque_base" }
%"class.std::_Deque_base" = type { %"struct.std::_Deque_base<node::MemoryRetainerNode *, std::allocator<node::MemoryRetainerNode *>>::_Deque_impl" }
%"struct.std::_Deque_base<node::MemoryRetainerNode *, std::allocator<node::MemoryRetainerNode *>>::_Deque_impl" = type { %"struct.std::_Deque_base<node::MemoryRetainerNode *, std::allocator<node::MemoryRetainerNode *>>::_Deque_impl_data" }
%"struct.std::_Deque_base<node::MemoryRetainerNode *, std::allocator<node::MemoryRetainerNode *>>::_Deque_impl_data" = type { ptr, i64, %"struct.std::_Deque_iterator", %"struct.std::_Deque_iterator" }
%"struct.std::_Deque_iterator" = type { ptr, ptr, ptr, ptr }
%"class.std::unordered_map.272" = type { %"class.std::_Hashtable.273" }
%"class.std::_Hashtable.273" = type { ptr, i64, %"struct.std::__detail::_Hash_node_base", i64, %"struct.std::__detail::_Prime_rehash_policy", ptr }
%"struct.std::_Rb_tree_const_iterator" = type { ptr }
%"class.node::MemoryRetainerNode" = type <{ %"class.v8::EmbedderGraph::Node", ptr, ptr, i8, [7 x i8], ptr, i64, i8, [7 x i8] }>
%"class.v8::EmbedderGraph::Node" = type { ptr }
%"class.v8::Local.299" = type { %"class.v8::LocalBase.300" }
%"class.v8::LocalBase.300" = type { %"class.v8::IndirectHandleBase" }
%"class.v8::HandleScope" = type { ptr, ptr, ptr }
%"class.v8::MaybeLocal" = type { %"class.v8::Local.294" }
%"class.v8::MaybeLocal.298" = type { %"class.v8::Local.296" }
%"struct.node::RealmSerializeInfo" = type { %"class.std::vector", %"class.std::vector.301", %"class.std::vector.301", i64 }
%"class.std::vector.301" = type { %"struct.std::_Vector_base.302" }
%"struct.std::_Vector_base.302" = type { %"struct.std::_Vector_base<node::PropInfo, std::allocator<node::PropInfo>>::_Vector_impl" }
%"struct.std::_Vector_base<node::PropInfo, std::allocator<node::PropInfo>>::_Vector_impl" = type { %"struct.std::_Vector_base<node::PropInfo, std::allocator<node::PropInfo>>::_Vector_impl_data" }
%"struct.std::_Vector_base<node::PropInfo, std::allocator<node::PropInfo>>::_Vector_impl_data" = type { ptr, ptr, ptr }
%"class.std::allocator.8" = type { i8 }
%"struct.node::PropInfo" = type { %"class.std::__cxx11::basic_string", i32, i64 }
%"class.v8::MaybeLocal.307" = type { %"class.v8::Local" }
%"class.v8::MaybeLocal.306" = type { %"class.v8::Local.292" }
%"class.__gnu_cxx::__normal_iterator.413" = type { ptr }
%"class.__gnu_cxx::__normal_iterator.414" = type { ptr }
%"class.v8::EscapableHandleScope" = type { %"class.v8::HandleScope", ptr }
%"class.node::Environment" = type { %"class.node::MemoryRetainer", %"class.std::unordered_multimap", %"class.std::__cxx11::list", ptr, ptr, %struct.uv_timer_s, %struct.uv_check_s, %struct.uv_idle_s, %struct.uv_prepare_s, %struct.uv_check_s, %struct.uv_async_s, i64, %"struct.std::atomic", %"struct.std::atomic", %"class.node::AsyncHooks", %"class.node::ImmediateInfo", %"class.node::AliasedBufferBase.57", %"class.node::TickInfo", %"class.node::permission::Permission", i64, %"class.std::shared_ptr", i8, i8, i8, i8, i8, i8, i64, %"class.std::vector.82", %"class.std::unordered_set.87", %"class.std::unique_ptr", %"class.std::unique_ptr.109", %"class.std::__cxx11::basic_string", %"class.std::__cxx11::basic_string", %"class.std::__cxx11::basic_string", i64, %"class.std::unique_ptr.121", %"class.std::__cxx11::basic_string", %"class.std::__cxx11::basic_string", i64, %"class.std::shared_ptr.129", %"class.std::shared_ptr.132", %"class.std::vector", %"class.std::vector", %"class.std::__cxx11::basic_string", i8, i32, i32, i8, i32, i32, i32, i32, %"class.node::AliasedBufferBase.57", %"class.node::AliasedBufferBase.46", i32, %"class.std::unique_ptr.135", %"class.node::AliasedBufferBase.57", i64, double, i64, %"class.std::unique_ptr.143", i8, i64, i64, %"class.std::unordered_set.151", %"class.std::unique_ptr.171", i8, %"class.std::__cxx11::list.179", %"class.node::ListHead", %"class.node::ListHead.184", %"class.std::__cxx11::list.186", i32, i32, %"class.node::EnabledDebugList", %"class.std::vector.191", %"class.std::__cxx11::list.196", %"class.node::MutexBase", %"class.std::__cxx11::list.201", %"class.node::CallbackQueue", %"class.node::MutexBase", %"class.node::CallbackQueue", %"class.node::CallbackQueue", i8, %"struct.std::atomic.216", %"class.node::CleanupQueue", i8, %"class.std::unordered_set.218", %"class.std::function", %"class.std::unique_ptr.233", %"class.node::builtins::BuiltinLoader", %"class.std::function.247", %"class.std::unordered_map.249" }
%"class.std::unordered_multimap" = type { %"class.std::_Hashtable.20" }
%"class.std::_Hashtable.20" = type { ptr, i64, %"struct.std::__detail::_Hash_node_base", i64, %"struct.std::__detail::_Prime_rehash_policy", ptr }
%"class.std::__cxx11::list" = type { %"class.std::__cxx11::_List_base" }
%"class.std::__cxx11::_List_base" = type { %"struct.std::__cxx11::_List_base<node::binding::DLib, std::allocator<node::binding::DLib>>::_List_impl" }
%"struct.std::__cxx11::_List_base<node::binding::DLib, std::allocator<node::binding::DLib>>::_List_impl" = type { %"struct.std::__detail::_List_node_header" }
%"struct.std::__detail::_List_node_header" = type { %"struct.std::__detail::_List_node_base", i64 }
%"struct.std::__detail::_List_node_base" = type { ptr, ptr }
%struct.uv_timer_s = type { ptr, ptr, i32, ptr, %struct.uv__queue, %union.anon.39, ptr, i32, ptr, [3 x ptr], i64, i64, i64 }
%struct.uv__queue = type { ptr, ptr }
%union.anon.39 = type { [4 x ptr] }
%struct.uv_idle_s = type { ptr, ptr, i32, ptr, %struct.uv__queue, %union.anon.41, ptr, i32, ptr, %struct.uv__queue }
%union.anon.41 = type { [4 x ptr] }
%struct.uv_prepare_s = type { ptr, ptr, i32, ptr, %struct.uv__queue, %union.anon.42, ptr, i32, ptr, %struct.uv__queue }
%union.anon.42 = type { [4 x ptr] }
%struct.uv_check_s = type { ptr, ptr, i32, ptr, %struct.uv__queue, %union.anon.40, ptr, i32, ptr, %struct.uv__queue }
%union.anon.40 = type { [4 x ptr] }
%struct.uv_async_s = type { ptr, ptr, i32, ptr, %struct.uv__queue, %union.anon.43, ptr, i32, ptr, %struct.uv__queue, i32 }
%union.anon.43 = type { [4 x ptr] }
%"struct.std::atomic" = type { %"struct.std::__atomic_base" }
%"struct.std::__atomic_base" = type { i8 }
%"class.node::AsyncHooks" = type { %"class.node::MemoryRetainer", %"class.node::AliasedBufferBase", %"class.node::AliasedBufferBase.46", %"class.node::AliasedBufferBase", %"class.v8::Global.49", %"class.std::vector.51", ptr, %"struct.std::array.56" }
%"class.node::AliasedBufferBase" = type { %"class.node::MemoryRetainer", ptr, i64, i64, ptr, %"class.v8::Global.44", ptr }
%"class.v8::Global.44" = type { %"class.v8::PersistentBase.45" }
%"class.v8::PersistentBase.45" = type { %"class.v8::IndirectHandleBase" }
%"class.v8::Global.49" = type { %"class.v8::PersistentBase.50" }
%"class.v8::PersistentBase.50" = type { %"class.v8::IndirectHandleBase" }
%"class.std::vector.51" = type { %"struct.std::_Vector_base.52" }
%"struct.std::_Vector_base.52" = type { %"struct.std::_Vector_base<v8::Local<v8::Object>, std::allocator<v8::Local<v8::Object>>>::_Vector_impl" }
%"struct.std::_Vector_base<v8::Local<v8::Object>, std::allocator<v8::Local<v8::Object>>>::_Vector_impl" = type { %"struct.std::_Vector_base<v8::Local<v8::Object>, std::allocator<v8::Local<v8::Object>>>::_Vector_impl_data" }
%"struct.std::_Vector_base<v8::Local<v8::Object>, std::allocator<v8::Local<v8::Object>>>::_Vector_impl_data" = type { ptr, ptr, ptr }
%"struct.std::array.56" = type { [4 x %"class.v8::Global.11"] }
%"class.node::ImmediateInfo" = type { %"class.node::MemoryRetainer", %"class.node::AliasedBufferBase.46" }
%"class.node::TickInfo" = type { %"class.node::MemoryRetainer", %"class.node::AliasedBufferBase.60" }
%"class.node::AliasedBufferBase.60" = type { %"class.node::MemoryRetainer", ptr, i64, i64, ptr, %"class.v8::Global.61", ptr }
%"class.v8::Global.61" = type { %"class.v8::PersistentBase.62" }
%"class.v8::PersistentBase.62" = type { %"class.v8::IndirectHandleBase" }
%"class.node::permission::Permission" = type <{ %"class.std::unordered_map", i8, [7 x i8] }>
%"class.std::unordered_map" = type { %"class.std::_Hashtable.63" }
%"class.std::_Hashtable.63" = type { ptr, i64, %"struct.std::__detail::_Hash_node_base", i64, %"struct.std::__detail::_Prime_rehash_policy", ptr }
%"class.std::shared_ptr" = type { %"class.std::__shared_ptr" }
%"class.std::__shared_ptr" = type { ptr, %"class.std::__shared_count" }
%"class.std::__shared_count" = type { ptr }
%"class.std::vector.82" = type { %"struct.std::_Vector_base.83" }
%"struct.std::_Vector_base.83" = type { %"struct.std::_Vector_base<double, std::allocator<double>>::_Vector_impl" }
%"struct.std::_Vector_base<double, std::allocator<double>>::_Vector_impl" = type { %"struct.std::_Vector_base<double, std::allocator<double>>::_Vector_impl_data" }
%"struct.std::_Vector_base<double, std::allocator<double>>::_Vector_impl_data" = type { ptr, ptr, ptr }
%"class.std::unordered_set.87" = type { %"class.std::_Hashtable.88" }
%"class.std::_Hashtable.88" = type { ptr, i64, %"struct.std::__detail::_Hash_node_base", i64, %"struct.std::__detail::_Prime_rehash_policy", ptr }
%"class.std::unique_ptr" = type { %"struct.std::__uniq_ptr_data" }
%"struct.std::__uniq_ptr_data" = type { %"class.std::__uniq_ptr_impl" }
%"class.std::__uniq_ptr_impl" = type { %"class.std::tuple" }
%"class.std::tuple" = type { %"struct.std::_Tuple_impl" }
%"struct.std::_Tuple_impl" = type { %"struct.std::_Head_base.108" }
%"struct.std::_Head_base.108" = type { ptr }
%"class.std::unique_ptr.109" = type { %"struct.std::__uniq_ptr_data.110" }
%"struct.std::__uniq_ptr_data.110" = type { %"class.std::__uniq_ptr_impl.111" }
%"class.std::__uniq_ptr_impl.111" = type { %"class.std::tuple.112" }
%"class.std::tuple.112" = type { %"struct.std::_Tuple_impl.113" }
%"struct.std::_Tuple_impl.113" = type { %"struct.std::_Head_base.116" }
%"struct.std::_Head_base.116" = type { ptr }
%"class.std::unique_ptr.121" = type { %"struct.std::__uniq_ptr_data.122" }
%"struct.std::__uniq_ptr_data.122" = type { %"class.std::__uniq_ptr_impl.123" }
%"class.std::__uniq_ptr_impl.123" = type { %"class.std::tuple.124" }
%"class.std::tuple.124" = type { %"struct.std::_Tuple_impl.125" }
%"struct.std::_Tuple_impl.125" = type { %"struct.std::_Head_base.128" }
%"struct.std::_Head_base.128" = type { ptr }
%"class.std::shared_ptr.129" = type { %"class.std::__shared_ptr.130" }
%"class.std::__shared_ptr.130" = type { ptr, %"class.std::__shared_count" }
%"class.std::shared_ptr.132" = type { %"class.std::__shared_ptr.133" }
%"class.std::__shared_ptr.133" = type { ptr, %"class.std::__shared_count" }
%"class.node::AliasedBufferBase.46" = type { %"class.node::MemoryRetainer", ptr, i64, i64, ptr, %"class.v8::Global.47", ptr }
%"class.v8::Global.47" = type { %"class.v8::PersistentBase.48" }
%"class.v8::PersistentBase.48" = type { %"class.v8::IndirectHandleBase" }
%"class.std::unique_ptr.135" = type { %"struct.std::__uniq_ptr_data.136" }
%"struct.std::__uniq_ptr_data.136" = type { %"class.std::__uniq_ptr_impl.137" }
%"class.std::__uniq_ptr_impl.137" = type { %"class.std::tuple.138" }
%"class.std::tuple.138" = type { %"struct.std::_Tuple_impl.139" }
%"struct.std::_Tuple_impl.139" = type { %"struct.std::_Head_base.142" }
%"struct.std::_Head_base.142" = type { ptr }
%"class.node::AliasedBufferBase.57" = type { %"class.node::MemoryRetainer", ptr, i64, i64, ptr, %"class.v8::Global.58", ptr }
%"class.v8::Global.58" = type { %"class.v8::PersistentBase.59" }
%"class.v8::PersistentBase.59" = type { %"class.v8::IndirectHandleBase" }
%"class.std::unique_ptr.143" = type { %"struct.std::__uniq_ptr_data.144" }
%"struct.std::__uniq_ptr_data.144" = type { %"class.std::__uniq_ptr_impl.145" }
%"class.std::__uniq_ptr_impl.145" = type { %"class.std::tuple.146" }
%"class.std::tuple.146" = type { %"struct.std::_Tuple_impl.147" }
%"struct.std::_Tuple_impl.147" = type { %"struct.std::_Head_base.150" }
%"struct.std::_Head_base.150" = type { ptr }
%"class.std::unordered_set.151" = type { %"class.std::_Hashtable.152" }
%"class.std::_Hashtable.152" = type { ptr, i64, %"struct.std::__detail::_Hash_node_base", i64, %"struct.std::__detail::_Prime_rehash_policy", ptr }
%"class.std::unique_ptr.171" = type { %"struct.std::__uniq_ptr_data.172" }
%"struct.std::__uniq_ptr_data.172" = type { %"class.std::__uniq_ptr_impl.173" }
%"class.std::__uniq_ptr_impl.173" = type { %"class.std::tuple.174" }
%"class.std::tuple.174" = type { %"struct.std::_Tuple_impl.175" }
%"struct.std::_Tuple_impl.175" = type { %"struct.std::_Head_base.178" }
%"struct.std::_Head_base.178" = type { ptr }
%"class.std::__cxx11::list.179" = type { %"class.std::__cxx11::_List_base.180" }
%"class.std::__cxx11::_List_base.180" = type { %"struct.std::__cxx11::_List_base<node::DeserializeRequest, std::allocator<node::DeserializeRequest>>::_List_impl" }
%"struct.std::__cxx11::_List_base<node::DeserializeRequest, std::allocator<node::DeserializeRequest>>::_List_impl" = type { %"struct.std::__detail::_List_node_header" }
%"class.node::ListHead" = type { %"class.node::ListNode" }
%"class.node::ListNode" = type { ptr, ptr }
%"class.node::ListHead.184" = type { %"class.node::ListNode.185" }
%"class.node::ListNode.185" = type { ptr, ptr }
%"class.std::__cxx11::list.186" = type { %"class.std::__cxx11::_List_base.187" }
%"class.std::__cxx11::_List_base.187" = type { %"struct.std::__cxx11::_List_base<node::Environment::HandleCleanup, std::allocator<node::Environment::HandleCleanup>>::_List_impl" }
%"struct.std::__cxx11::_List_base<node::Environment::HandleCleanup, std::allocator<node::Environment::HandleCleanup>>::_List_impl" = type { %"struct.std::__detail::_List_node_header" }
%"class.node::EnabledDebugList" = type { [75 x i8] }
%"class.std::vector.191" = type { %"struct.std::_Vector_base.192" }
%"struct.std::_Vector_base.192" = type { %"struct.std::_Vector_base<v8::Global<v8::Context>, std::allocator<v8::Global<v8::Context>>>::_Vector_impl" }
%"struct.std::_Vector_base<v8::Global<v8::Context>, std::allocator<v8::Global<v8::Context>>>::_Vector_impl" = type { %"struct.std::_Vector_base<v8::Global<v8::Context>, std::allocator<v8::Global<v8::Context>>>::_Vector_impl_data" }
%"struct.std::_Vector_base<v8::Global<v8::Context>, std::allocator<v8::Global<v8::Context>>>::_Vector_impl_data" = type { ptr, ptr, ptr }
%"class.std::__cxx11::list.196" = type { %"class.std::__cxx11::_List_base.197" }
%"class.std::__cxx11::_List_base.197" = type { %"struct.std::__cxx11::_List_base<node::node_module, std::allocator<node::node_module>>::_List_impl" }
%"struct.std::__cxx11::_List_base<node::node_module, std::allocator<node::node_module>>::_List_impl" = type { %"struct.std::__detail::_List_node_header" }
%"class.std::__cxx11::list.201" = type { %"class.std::__cxx11::_List_base.202" }
%"class.std::__cxx11::_List_base.202" = type { %"struct.std::__cxx11::_List_base<node::Environment::ExitCallback, std::allocator<node::Environment::ExitCallback>>::_List_impl" }
%"struct.std::__cxx11::_List_base<node::Environment::ExitCallback, std::allocator<node::Environment::ExitCallback>>::_List_impl" = type { %"struct.std::__detail::_List_node_header" }
%"class.node::MutexBase" = type { %union.pthread_mutex_t }
%union.pthread_mutex_t = type { %struct.__pthread_mutex_s }
%struct.__pthread_mutex_s = type { i32, i32, i32, i32, i32, i16, i16, %struct.__pthread_internal_list }
%struct.__pthread_internal_list = type { ptr, ptr }
%"class.node::CallbackQueue" = type { %"struct.std::atomic.206", %"class.std::unique_ptr.208", ptr }
%"struct.std::atomic.206" = type { %"struct.std::__atomic_base.207" }
%"struct.std::__atomic_base.207" = type { i64 }
%"class.std::unique_ptr.208" = type { %"struct.std::__uniq_ptr_data.209" }
%"struct.std::__uniq_ptr_data.209" = type { %"class.std::__uniq_ptr_impl.210" }
%"class.std::__uniq_ptr_impl.210" = type { %"class.std::tuple.211" }
%"class.std::tuple.211" = type { %"struct.std::_Tuple_impl.212" }
%"struct.std::_Tuple_impl.212" = type { %"struct.std::_Head_base.215" }
%"struct.std::_Head_base.215" = type { ptr }
%"struct.std::atomic.216" = type { %"struct.std::__atomic_base.217" }
%"struct.std::__atomic_base.217" = type { ptr }
%"class.std::unordered_set.218" = type { %"class.std::_Hashtable.219" }
%"class.std::_Hashtable.219" = type { ptr, i64, %"struct.std::__detail::_Hash_node_base", i64, %"struct.std::__detail::_Prime_rehash_policy", ptr }
%"class.std::function" = type { %"class.std::_Function_base", ptr }
%"class.std::_Function_base" = type { %"union.std::_Any_data", ptr }
%"union.std::_Any_data" = type { %"union.std::_Nocopy_types" }
%"union.std::_Nocopy_types" = type { { i64, i64 } }
%"class.std::unique_ptr.233" = type { %"struct.std::__uniq_ptr_data.234" }
%"struct.std::__uniq_ptr_data.234" = type { %"class.std::__uniq_ptr_impl.235" }
%"class.std::__uniq_ptr_impl.235" = type { %"class.std::tuple.236" }
%"class.std::tuple.236" = type { %"struct.std::_Tuple_impl.237" }
%"struct.std::_Tuple_impl.237" = type { %"struct.std::_Head_base.240" }
%"struct.std::_Head_base.240" = type { ptr }
%"class.node::builtins::BuiltinLoader" = type { %"class.node::ThreadsafeCopyOnWrite", %"class.node::UnionBytes", %"class.std::shared_ptr.244" }
%"class.node::ThreadsafeCopyOnWrite" = type { %"class.node::CopyOnWrite" }
%"class.node::CopyOnWrite" = type { %"class.std::shared_ptr.241" }
%"class.std::shared_ptr.241" = type { %"class.std::__shared_ptr.242" }
%"class.std::__shared_ptr.242" = type { ptr, %"class.std::__shared_count" }
%"class.node::UnionBytes" = type { ptr, ptr }
%"class.std::shared_ptr.244" = type { %"class.std::__shared_ptr.245" }
%"class.std::__shared_ptr.245" = type { ptr, %"class.std::__shared_count" }
%"class.std::function.247" = type { %"class.std::_Function_base", ptr }
%"class.std::unordered_map.249" = type { %"class.std::_Hashtable.250" }
%"class.std::_Hashtable.250" = type { ptr, i64, %"struct.std::__detail::_Hash_node_base", i64, %"struct.std::__detail::_Prime_rehash_policy", ptr }
%"class.node::tracing::ScopedTracer" = type { ptr, %"struct.node::tracing::ScopedTracer::Data" }
%"struct.node::tracing::ScopedTracer::Data" = type { ptr, ptr, i64 }
%class.anon = type { ptr }
%"struct.std::_Rb_tree_const_iterator.310" = type { ptr }
%"struct.node::node_module" = type { i32, i32, ptr, ptr, ptr, ptr, ptr, ptr, ptr }
%class.anon.311 = type { i8 }
%"class.node::EnvironmentOptions" = type { %"class.node::Options", i8, %"class.std::vector", i8, %"class.std::__cxx11::basic_string", i8, i8, i8, i8, i8, i8, i8, i8, i8, %"class.std::__cxx11::basic_string", %"class.std::__cxx11::basic_string", %"class.std::__cxx11::basic_string", %"class.std::__cxx11::basic_string", i8, i8, %"class.std::vector", %"class.std::vector", i8, i8, i8, i8, i8, i8, i8, i64, %"class.std::__cxx11::basic_string", i8, i64, i8, i8, i8, i8, i8, %"class.std::vector", i8, i8, i8, i8, i8, %"class.std::__cxx11::basic_string", i64, %"class.std::__cxx11::basic_string", i8, %"class.std::__cxx11::basic_string", %"class.std::__cxx11::basic_string", i64, i8, %"class.std::__cxx11::basic_string", %"class.std::__cxx11::basic_string", %"class.std::__cxx11::basic_string", i8, i8, i64, i64, i8, %"class.std::vector", %"class.std::vector", %"class.std::vector", i8, i8, %"class.std::__cxx11::basic_string", i8, i8, i8, i8, i8, i8, i8, i8, i8, i8, %"class.std::__cxx11::basic_string", %"class.std::vector", i8, i8, i8, i8, %"class.std::vector", i8, i8, %"class.std::__cxx11::basic_string", i8, i8, i8, i8, i8, i8, i8, i8, i8, %"class.std::__cxx11::basic_string", %"class.std::vector", %"class.std::vector", %"class.std::vector", %"class.node::DebugOptions" }
%"class.node::Options" = type { ptr }
%"class.node::DebugOptions" = type { %"class.node::Options", i8, i8, i8, i8, i8, %"class.std::__cxx11::basic_string", %"struct.node::InspectPublishUid", [6 x i8], %"class.node::HostPort" }
%"struct.node::InspectPublishUid" = type { i8, i8 }
%"class.node::HostPort" = type <{ %"class.std::__cxx11::basic_string", i16, [6 x i8] }>
%"class.v8::Local.362" = type { %"class.v8::LocalBase.363" }
%"class.v8::LocalBase.363" = type { %"class.v8::IndirectHandleBase" }
%"class.v8::Local.312" = type { %"class.v8::LocalBase.313" }
%"class.v8::LocalBase.313" = type { %"class.v8::IndirectHandleBase" }
%"class.v8::Maybe" = type { i8, i8 }
%"class.node::IsolateData" = type { %"class.node::MemoryRetainer", i64, %"class.std::unordered_map.314", %"class.v8::Eternal", %"class.v8::Eternal", %"class.v8::Eternal", %"class.v8::Eternal", %"class.v8::Eternal", %"class.v8::Eternal", %"class.v8::Eternal", %"class.v8::Eternal", %"class.v8::Eternal", %"class.v8::Eternal", %"class.v8::Eternal", %"class.v8::Eternal", %"class.v8::Eternal.334", %"class.v8::Eternal.334", %"class.v8::Eternal.334", %"class.v8::Eternal.334", %"class.v8::Eternal.334", %"class.v8::Eternal.334", %"class.v8::Eternal.334", %"class.v8::Eternal.334", %"class.v8::Eternal.334", %"class.v8::Eternal.334", %"class.v8::Eternal.334", %"class.v8::Eternal.334", %"class.v8::Eternal.334", %"class.v8::Eternal.334", %"class.v8::Eternal.334", %"class.v8::Eternal.335", %"class.v8::Eternal.335", %"class.v8::Eternal.335", %"class.v8::Eternal.335", %"class.v8::Eternal.335", %"class.v8::Eternal.335", %"class.v8::Eternal.335", %"class.v8::Eternal.335", %"class.v8::Eternal.335", %"class.v8::Eternal.335", %"class.v8::Eternal.335", %"class.v8::Eternal.335", %"class.v8::Eternal.335", %"class.v8::Eternal.335", %"class.v8::Eternal.335", %"class.v8::Eternal.335", %"class.v8::Eternal.335", %"class.v8::Eternal.335", %"class.v8::Eternal.335", %"class.v8::Eternal.335", %"class.v8::Eternal.335", %"class.v8::Eternal.335", %"class.v8::Eternal.335", %"class.v8::Eternal.335", %"class.v8::Eternal.335", %"class.v8::Eternal.335", %"class.v8::Eternal.335", %"class.v8::Eternal.335", %"class.v8::Eternal.335", %"class.v8::Eternal.335", %"class.v8::Eternal.335", %"class.v8::Eternal.335", %"class.v8::Eternal.335", %"class.v8::Eternal.335", %"class.v8::Eternal.335", %"class.v8::Eternal.335", %"class.v8::Eternal.335", %"class.v8::Eternal.335", %"class.v8::Eternal.335", %"class.v8::Eternal.335", %"class.v8::Eternal.335", %"class.v8::Eternal.335", %"class.v8::Eternal.335", %"class.v8::Eternal.335", %"class.v8::Eternal.335", %"class.v8::Eternal.335", %"class.v8::Eternal.335", %"class.v8::Eternal.335", %"class.v8::Eternal.335", %"class.v8::Eternal.335", %"class.v8::Eternal.335", %"class.v8::Eternal.335", %"class.v8::Eternal.335", %"class.v8::Eternal.335", %"class.v8::Eternal.335", %"class.v8::Eternal.335", %"class.v8::Eternal.335", %"class.v8::Eternal.335", %"class.v8::Eternal.335", %"class.v8::Eternal.335", %"class.v8::Eternal.335", %"class.v8::Eternal.335", %"class.v8::Eternal.335", %"class.v8::Eternal.335", %"class.v8::Eternal.335", %"class.v8::Eternal.335", %"class.v8::Eternal.335", %"class.v8::Eternal.335", %"class.v8::Eternal.335", %"class.v8::Eternal.335", %"class.v8::Eternal.335", %"class.v8::Eternal.335", %"class.v8::Eternal.335", %"class.v8::Eternal.335", %"class.v8::Eternal.335", %"class.v8::Eternal.335", %"class.v8::Eternal.335", %"class.v8::Eternal.335", %"class.v8::Eternal.335", %"class.v8::Eternal.335", %"class.v8::Eternal.335", %"class.v8::Eternal.335", %"class.v8::Eternal.335", %"class.v8::Eternal.335", %"class.v8::Eternal.335", %"class.v8::Eternal.335", %"class.v8::Eternal.335", %"class.v8::Eternal.335", %"class.v8::Eternal.335", %"class.v8::Eternal.335", %"class.v8::Eternal.335", %"class.v8::Eternal.335", %"class.v8::Eternal.335", %"class.v8::Eternal.335", %"class.v8::Eternal.335", %"class.v8::Eternal.335", %"class.v8::Eternal.335", %"class.v8::Eternal.335", %"class.v8::Eternal.335", %"class.v8::Eternal.335", %"class.v8::Eternal.335", %"class.v8::Eternal.335", %"class.v8::Eternal.335", %"class.v8::Eternal.335", %"class.v8::Eternal.335", %"class.v8::Eternal.335", %"class.v8::Eternal.335", %"class.v8::Eternal.335", %"class.v8::Eternal.335", %"class.v8::Eternal.335", %"class.v8::Eternal.335", %"class.v8::Eternal.335", %"class.v8::Eternal.335", %"class.v8::Eternal.335", %"class.v8::Eternal.335", %"class.v8::Eternal.335", %"class.v8::Eternal.335", %"class.v8::Eternal.335", %"class.v8::Eternal.335", %"class.v8::Eternal.335", %"class.v8::Eternal.335", %"class.v8::Eternal.335", %"class.v8::Eternal.335", %"class.v8::Eternal.335", %"class.v8::Eternal.335", %"class.v8::Eternal.335", %"class.v8::Eternal.335", %"class.v8::Eternal.335", %"class.v8::Eternal.335", %"class.v8::Eternal.335", %"class.v8::Eternal.335", %"class.v8::Eternal.335", %"class.v8::Eternal.335", %"class.v8::Eternal.335", %"class.v8::Eternal.335", %"class.v8::Eternal.335", %"class.v8::Eternal.335", %"class.v8::Eternal.335", %"class.v8::Eternal.335", %"class.v8::Eternal.335", %"class.v8::Eternal.335", %"class.v8::Eternal.335", %"class.v8::Eternal.335", %"class.v8::Eternal.335", %"class.v8::Eternal.335", %"class.v8::Eternal.335", %"class.v8::Eternal.335", %"class.v8::Eternal.335", %"class.v8::Eternal.335", %"class.v8::Eternal.335", %"class.v8::Eternal.335", %"class.v8::Eternal.335", %"class.v8::Eternal.335", %"class.v8::Eternal.335", %"class.v8::Eternal.335", %"class.v8::Eternal.335", %"class.v8::Eternal.335", %"class.v8::Eternal.335", %"class.v8::Eternal.335", %"class.v8::Eternal.335", %"class.v8::Eternal.335", %"class.v8::Eternal.335", %"class.v8::Eternal.335", %"class.v8::Eternal.335", %"class.v8::Eternal.335", %"class.v8::Eternal.335", %"class.v8::Eternal.335", %"class.v8::Eternal.335", %"class.v8::Eternal.335", %"class.v8::Eternal.335", %"class.v8::Eternal.335", %"class.v8::Eternal.335", %"class.v8::Eternal.335", %"class.v8::Eternal.335", %"class.v8::Eternal.335", %"class.v8::Eternal.335", %"class.v8::Eternal.335", %"class.v8::Eternal.335", %"class.v8::Eternal.335", %"class.v8::Eternal.335", %"class.v8::Eternal.335", %"class.v8::Eternal.335", %"class.v8::Eternal.335", %"class.v8::Eternal.335", %"class.v8::Eternal.335", %"class.v8::Eternal.335", %"class.v8::Eternal.335", %"class.v8::Eternal.335", %"class.v8::Eternal.335", %"class.v8::Eternal.335", %"class.v8::Eternal.335", %"class.v8::Eternal.335", %"class.v8::Eternal.335", %"class.v8::Eternal.335", %"class.v8::Eternal.335", %"class.v8::Eternal.335", %"class.v8::Eternal.335", %"class.v8::Eternal.335", %"class.v8::Eternal.335", %"class.v8::Eternal.335", %"class.v8::Eternal.335", %"class.v8::Eternal.335", %"class.v8::Eternal.335", %"class.v8::Eternal.335", %"class.v8::Eternal.335", %"class.v8::Eternal.335", %"class.v8::Eternal.335", %"class.v8::Eternal.335", %"class.v8::Eternal.335", %"class.v8::Eternal.335", %"class.v8::Eternal.335", %"class.v8::Eternal.335", %"class.v8::Eternal.335", %"class.v8::Eternal.335", %"class.v8::Eternal.335", %"class.v8::Eternal.335", %"class.v8::Eternal.335", %"class.v8::Eternal.335", %"class.v8::Eternal.335", %"class.v8::Eternal.335", %"class.v8::Eternal.335", %"class.v8::Eternal.335", %"class.v8::Eternal.335", %"class.v8::Eternal.335", %"class.v8::Eternal.335", %"class.v8::Eternal.335", %"class.v8::Eternal.335", %"class.v8::Eternal.335", %"class.v8::Eternal.335", %"class.v8::Eternal.335", %"class.v8::Eternal.335", %"class.v8::Eternal.335", %"class.v8::Eternal.335", %"class.v8::Eternal.335", %"class.v8::Eternal.335", %"class.v8::Eternal.335", %"class.v8::Eternal.335", %"class.v8::Eternal.335", %"class.v8::Eternal.335", %"class.v8::Eternal.335", %"class.v8::Eternal.335", %"class.v8::Eternal.335", %"class.v8::Eternal.335", %"class.v8::Eternal.335", %"class.v8::Eternal.335", %"class.v8::Eternal.335", %"class.v8::Eternal.335", %"class.v8::Eternal.335", %"class.v8::Eternal.335", %"class.v8::Eternal.335", %"class.v8::Eternal.335", %"class.v8::Eternal.335", %"class.v8::Eternal.335", %"class.v8::Eternal.335", %"class.v8::Eternal.335", %"class.v8::Eternal.335", %"class.v8::Eternal.335", %"class.v8::Eternal.335", %"class.v8::Eternal.335", %"class.v8::Eternal.335", %"class.v8::Eternal.335", %"class.v8::Eternal.335", %"class.v8::Eternal.335", %"class.v8::Eternal.335", %"class.v8::Eternal.335", %"class.v8::Eternal.335", %"class.v8::Eternal.335", %"class.v8::Eternal.335", %"class.v8::Eternal.335", %"class.v8::Eternal.335", %"class.v8::Eternal.335", %"class.v8::Eternal.335", %"class.v8::Eternal.335", %"class.v8::Eternal.335", %"class.v8::Eternal.335", %"class.v8::Eternal.335", %"class.v8::Eternal.335", %"class.v8::Eternal.335", %"class.v8::Eternal.335", %"class.v8::Eternal.335", %"class.v8::Eternal.335", %"class.v8::Eternal.335", %"class.v8::Eternal.335", %"class.v8::Eternal.335", %"class.v8::Eternal.335", %"class.v8::Eternal.336", %"class.v8::Eternal.336", %"class.v8::Eternal.337", %"class.v8::Eternal.336", %"class.v8::Eternal.336", %"class.v8::Eternal.336", %"class.v8::Eternal.337", %"class.v8::Eternal.337", %"class.v8::Eternal.336", %"class.v8::Eternal.337", %"class.v8::Eternal.336", %"class.v8::Eternal.337", %"class.v8::Eternal.337", %"class.v8::Eternal.337", %"class.v8::Eternal.336", %"class.v8::Eternal.337", %"class.v8::Eternal.337", %"class.v8::Eternal.336", %"class.v8::Eternal.336", %"class.v8::Eternal.337", %"class.v8::Eternal.337", %"class.v8::Eternal.337", %"class.v8::Eternal.337", %"class.v8::Eternal.336", %"class.v8::Eternal.336", %"class.v8::Eternal.336", %"class.v8::Eternal.336", %"class.v8::Eternal.336", %"class.v8::Eternal.336", %"class.v8::Eternal.337", %"class.v8::Eternal.336", %"class.v8::Eternal.336", %"class.v8::Eternal.336", %"class.v8::Eternal.337", %"class.v8::Eternal.336", %"class.v8::Eternal.336", %"class.v8::Eternal.337", %"class.v8::Eternal.336", %"class.v8::Eternal.336", %"class.v8::Eternal.337", %"class.v8::Eternal.336", %"class.v8::Eternal.336", %"class.v8::Eternal.337", %"class.v8::Eternal.337", %"class.v8::Eternal.336", %"class.v8::Eternal", %"class.v8::Eternal", %"class.v8::Eternal", %"class.v8::Eternal", %"class.v8::Eternal", %"class.v8::Eternal", %"class.v8::Eternal", %"class.v8::Eternal", %"class.v8::Eternal", %"class.v8::Eternal", %"class.v8::Eternal", %"class.v8::Eternal", %"class.v8::Eternal", %"class.v8::Eternal", %"class.v8::Eternal", %"class.v8::Eternal", %"class.v8::Eternal", %"class.v8::Eternal", %"class.v8::Eternal", %"class.v8::Eternal", %"class.v8::Eternal", %"class.v8::Eternal", %"class.v8::Eternal", %"class.v8::Eternal", %"class.v8::Eternal", %"class.v8::Eternal", %"class.v8::Eternal", %"class.v8::Eternal", %"class.v8::Eternal", %"class.v8::Eternal", %"class.v8::Eternal", %"class.v8::Eternal", %"class.v8::Eternal", %"class.v8::Eternal", %"class.v8::Eternal", %"class.v8::Eternal", %"class.v8::Eternal", %"class.v8::Eternal", %"class.v8::Eternal", %"class.v8::Eternal", %"class.v8::Eternal", %"class.v8::Eternal", %"class.v8::Eternal", %"class.v8::Eternal", %"class.v8::Eternal", %"class.v8::Eternal", %"class.v8::Eternal", %"class.v8::Eternal", %"class.v8::Eternal", %"class.v8::Eternal", %"class.v8::Eternal", %"class.v8::Eternal", %"class.v8::Eternal", %"class.v8::Eternal", %"class.v8::Eternal", %"class.v8::Eternal", %"class.v8::Eternal", %"class.v8::Eternal", %"class.v8::Eternal", %"class.v8::Eternal", %"class.v8::Eternal.337", %"class.v8::Eternal.337", %"class.v8::Eternal.337", %"class.v8::Eternal.337", %"class.v8::Eternal.337", %"class.v8::Eternal.337", %"class.v8::Eternal.337", %"class.v8::Eternal.337", %"class.v8::Eternal.337", %"class.v8::Eternal.337", %"class.v8::Eternal.337", %"class.v8::Eternal.337", %"class.v8::Eternal.337", %"class.v8::Eternal.337", %"class.v8::Eternal.337", %"class.v8::Eternal.337", %"class.v8::Eternal.337", %"struct.std::array.338", ptr, ptr, ptr, ptr, ptr, %"class.std::optional", %"class.std::unique_ptr.351", %"class.std::shared_ptr.359", ptr, ptr }
%"class.std::unordered_map.314" = type { %"class.std::_Hashtable.315" }
%"class.std::_Hashtable.315" = type { ptr, i64, %"struct.std::__detail::_Hash_node_base", i64, %"struct.std::__detail::_Prime_rehash_policy", ptr }
%"class.v8::Eternal.334" = type { %"class.v8::IndirectHandleBase" }
%"class.v8::Eternal.335" = type { %"class.v8::IndirectHandleBase" }
%"class.v8::Eternal.336" = type { %"class.v8::IndirectHandleBase" }
%"class.v8::Eternal" = type { %"class.v8::IndirectHandleBase" }
%"class.v8::Eternal.337" = type { %"class.v8::IndirectHandleBase" }
%"struct.std::array.338" = type { [64 x %"class.v8::Eternal.335"] }
%"class.std::optional" = type { %"struct.std::_Optional_base" }
%"struct.std::_Optional_base" = type { %"struct.std::_Optional_payload" }
%"struct.std::_Optional_payload" = type { %"struct.std::_Optional_payload.base.348", [7 x i8] }
%"struct.std::_Optional_payload.base.348" = type { %"struct.std::_Optional_payload_base.base.347" }
%"struct.std::_Optional_payload_base.base.347" = type <{ %"union.std::_Optional_payload_base<node::SnapshotConfig>::_Storage", i8 }>
%"union.std::_Optional_payload_base<node::SnapshotConfig>::_Storage" = type { %"struct.node::SnapshotConfig" }
%"struct.node::SnapshotConfig" = type { i32, [4 x i8], %"class.std::optional.340" }
%"class.std::optional.340" = type { %"struct.std::_Optional_base.341" }
%"struct.std::_Optional_base.341" = type { %"struct.std::_Optional_payload.343" }
%"struct.std::_Optional_payload.343" = type { %"struct.std::_Optional_payload.base", [7 x i8] }
%"struct.std::_Optional_payload.base" = type { %"struct.std::_Optional_payload_base.base" }
%"struct.std::_Optional_payload_base.base" = type <{ %"union.std::_Optional_payload_base<std::__cxx11::basic_string<char>>::_Storage", i8 }>
%"union.std::_Optional_payload_base<std::__cxx11::basic_string<char>>::_Storage" = type { %"class.std::__cxx11::basic_string" }
%"class.std::unique_ptr.351" = type { %"struct.std::__uniq_ptr_data.352" }
%"struct.std::__uniq_ptr_data.352" = type { %"class.std::__uniq_ptr_impl.353" }
%"class.std::__uniq_ptr_impl.353" = type { %"class.std::tuple.354" }
%"class.std::tuple.354" = type { %"struct.std::_Tuple_impl.355" }
%"struct.std::_Tuple_impl.355" = type { %"struct.std::_Head_base.358" }
%"struct.std::_Head_base.358" = type { ptr }
%"class.std::shared_ptr.359" = type { %"class.std::__shared_ptr.360" }
%"class.std::__shared_ptr.360" = type { ptr, %"class.std::__shared_count" }
%class.anon.364 = type { ptr }
%"class.std::vector.365" = type { %"struct.std::_Vector_base.366" }
%"struct.std::_Vector_base.366" = type { %"struct.std::_Vector_base<node::CleanupQueue::CleanupHookCallback, std::allocator<node::CleanupQueue::CleanupHookCallback>>::_Vector_impl" }
%"struct.std::_Vector_base<node::CleanupQueue::CleanupHookCallback, std::allocator<node::CleanupQueue::CleanupHookCallback>>::_Vector_impl" = type { %"struct.std::_Vector_base<node::CleanupQueue::CleanupHookCallback, std::allocator<node::CleanupQueue::CleanupHookCallback>>::_Vector_impl_data" }
%"struct.std::_Vector_base<node::CleanupQueue::CleanupHookCallback, std::allocator<node::CleanupQueue::CleanupHookCallback>>::_Vector_impl_data" = type { ptr, ptr, ptr }
%"class.__gnu_cxx::__normal_iterator" = type { ptr }
%"class.node::CleanupQueue::CleanupHookCallback" = type { ptr, ptr, i64 }
%"struct.std::__detail::_Node_iterator" = type { %"struct.std::__detail::_Node_iterator_base" }
%"struct.std::__detail::_Node_iterator_base" = type { ptr }
%"struct.std::pair" = type { ptr, ptr }
%"struct.std::__detail::_Select1st" = type { i8 }
%"struct.std::__detail::_Hash_node_value_base" = type { %"struct.__gnu_cxx::__aligned_buffer" }
%"struct.__gnu_cxx::__aligned_buffer" = type { %"union.std::aligned_storage<16, 8>::type" }
%"union.std::aligned_storage<16, 8>::type" = type { [16 x i8] }
%"struct.std::__detail::_Mod_range_hashing" = type { i8 }
%"struct.std::_Deque_iterator.370" = type { ptr, ptr, ptr, ptr }
%"class.std::unique_ptr.371" = type { %"struct.std::__uniq_ptr_data.372" }
%"struct.std::__uniq_ptr_data.372" = type { %"class.std::__uniq_ptr_impl.373" }
%"class.std::__uniq_ptr_impl.373" = type { %"class.std::tuple.374" }
%"class.std::tuple.374" = type { %"struct.std::_Tuple_impl.375" }
%"struct.std::_Tuple_impl.375" = type { %"struct.std::_Head_base.378" }
%"struct.std::_Head_base.378" = type { ptr }
%"struct.std::_Hashtable<const node::MemoryRetainer *, std::pair<const node::MemoryRetainer *const, node::MemoryRetainerNode *>, std::allocator<std::pair<const node::MemoryRetainer *const, node::MemoryRetainerNode *>>, std::__detail::_Select1st, std::equal_to<const node::MemoryRetainer *>, std::hash<const node::MemoryRetainer *>, std::__detail::_Mod_range_hashing, std::__detail::_Default_ranged_hash, std::__detail::_Prime_rehash_policy, std::__detail::_Hashtable_traits<false, false, true>>::_Scoped_node" = type { ptr, ptr }
%"class.std::tuple.379" = type { %"struct.std::_Tuple_impl.380" }
%"struct.std::_Tuple_impl.380" = type { %"struct.std::_Head_base.381" }
%"struct.std::_Head_base.381" = type { ptr }
%"class.std::tuple.382" = type { i8 }
%"struct.std::pair.384" = type { i8, i64 }
%"class.std::allocator.386" = type { i8 }
%"class.std::allocator.389" = type { i8 }
%"struct.std::__detail::_Hash_node_value_base.394" = type { %"struct.__gnu_cxx::__aligned_buffer.395" }
%"struct.__gnu_cxx::__aligned_buffer.395" = type { %"union.std::aligned_storage<24, 8>::type" }
%"union.std::aligned_storage<24, 8>::type" = type { [24 x i8] }
%"struct.node::BaseObject::PointerData" = type { i32, i32, i8, i8, ptr }
%"struct.std::_Rb_tree_node" = type { %"struct.std::_Rb_tree_node_base", %"struct.__gnu_cxx::__aligned_membuf" }
%"struct.__gnu_cxx::__aligned_membuf" = type { [32 x i8] }
%"struct.std::_Rb_tree_node.399" = type { %"struct.std::_Rb_tree_node_base", %"struct.__gnu_cxx::__aligned_membuf.400" }
%"struct.__gnu_cxx::__aligned_membuf.400" = type { [8 x i8] }
%"class.std::unique_ptr.401" = type { %"struct.std::__uniq_ptr_data.402" }
%"struct.std::__uniq_ptr_data.402" = type { %"class.std::__uniq_ptr_impl.403" }
%"class.std::__uniq_ptr_impl.403" = type { %"class.std::tuple.404" }
%"class.std::tuple.404" = type { %"struct.std::_Tuple_impl.405" }
%"struct.std::_Tuple_impl.405" = type { %"struct.std::_Head_base.408" }
%"struct.std::_Head_base.408" = type { ptr }
%"class.std::_Sp_counted_base" = type { ptr, i32, i32 }
%struct._Guard = type { ptr }
%"class.v8::MaybeLocal.411" = type { %"class.v8::Local.299" }
%"class.__gnu_cxx::__normal_iterator.412" = type { ptr }

$_ZN4node14MemoryRetainerC2Ev = comdat any

$_ZNSt3setIPN4node11node_moduleESt4lessIS2_ESaIS2_EEC2Ev = comdat any

$_ZNSt3setINSt7__cxx1112basic_stringIcSt11char_traitsIcESaIcEEESt4lessIS5_ESaIS5_EEC2Ev = comdat any

$_ZNSt6vectorINSt7__cxx1112basic_stringIcSt11char_traitsIcESaIcEEESaIS5_EEC2Ev = comdat any

$_ZNSt5arrayIN4node17BaseObjectPtrImplINS0_10BaseObjectELb1EEELm12EEC2Ev = comdat any

$_ZN4node12CleanupQueueC2Ev = comdat any

$_ZNSt7__cxx1112basic_stringIcSt11char_traitsIcESaIcEEC2IS3_EEPKcRKS3_ = comdat any

$_ZN4node11ContextInfoC2ERKNSt7__cxx1112basic_stringIcSt11char_traitsIcESaIcEEE = comdat any

$_ZN4node11ContextInfoD2Ev = comdat any

$_ZN4node12CleanupQueueD2Ev = comdat any

$_ZNSt5arrayIN4node17BaseObjectPtrImplINS0_10BaseObjectELb1EEELm12EED2Ev = comdat any

$_ZNSt6vectorINSt7__cxx1112basic_stringIcSt11char_traitsIcESaIcEEESaIS5_EED2Ev = comdat any

$_ZNSt3setINSt7__cxx1112basic_stringIcSt11char_traitsIcESaIcEEESt4lessIS5_ESaIS5_EED2Ev = comdat any

$_ZNSt3setIPN4node11node_moduleESt4lessIS2_ESaIS2_EED2Ev = comdat any

$_ZN4node13MemoryTracker10TrackFieldIN2v88FunctionEEEvPKcRKNS2_5LocalIT_EES5_ = comdat any

$_ZN4node13MemoryTracker10TrackFieldIN2v86ObjectEEEvPKcRKNS2_5LocalIT_EES5_ = comdat any

$_ZN4node13MemoryTracker10TrackFieldEPKcRKNS_14MemoryRetainerES2_ = comdat any

$_ZN4node13MemoryTracker10TrackFieldISt3setINSt7__cxx1112basic_stringIcSt11char_traitsIcESaIcEEESt4lessIS8_ESaIS8_EESt23_Rb_tree_const_iteratorIS8_EEEvPKcRKT_SG_SG_b = comdat any

$_ZNK4node11Environment18primordials_stringEv = comdat any

$_ZN4node21FIXED_ONE_BYTE_STRINGILi10EEEN2v85LocalINS1_6StringEEEPNS1_7IsolateERAT__Kc = comdat any

$_ZNK4node5Realm7isolateEv = comdat any

$_ZN4node21FIXED_ONE_BYTE_STRINGILi8EEEN2v85LocalINS1_6StringEEEPNS1_7IsolateERAT__Kc = comdat any

$_ZN4node21FIXED_ONE_BYTE_STRINGILi12EEEN2v85LocalINS1_6StringEEEPNS1_7IsolateERAT__Kc = comdat any

$_ZN4node18RealmSerializeInfoC2Ev = comdat any

$_ZNKSt3setINSt7__cxx1112basic_stringIcSt11char_traitsIcESaIcEEESt4lessIS5_ESaIS5_EE5beginEv = comdat any

$_ZNKSt3setINSt7__cxx1112basic_stringIcSt11char_traitsIcESaIcEEESt4lessIS5_ESaIS5_EE3endEv = comdat any

$_ZNSaINSt7__cxx1112basic_stringIcSt11char_traitsIcESaIcEEEEC2Ev = comdat any

$_ZNSt6vectorINSt7__cxx1112basic_stringIcSt11char_traitsIcESaIcEEESaIS5_EEC2ISt23_Rb_tree_const_iteratorIS5_EvEET_SB_RKS6_ = comdat any

$_ZNSt6vectorINSt7__cxx1112basic_stringIcSt11char_traitsIcESaIcEEESaIS5_EEaSEOS7_ = comdat any

$_ZNSaINSt7__cxx1112basic_stringIcSt11char_traitsIcESaIcEEEED2Ev = comdat any

$_ZNSt6vectorIN4node8PropInfoESaIS1_EE9push_backEOS1_ = comdat any

$_ZN4node8PropInfoD2Ev = comdat any

$_ZN4node18RealmSerializeInfoD2Ev = comdat any

$_ZNSt6vectorINSt7__cxx1112basic_stringIcSt11char_traitsIcESaIcEEESaIS5_EEaSERKS7_ = comdat any

$_ZNKSt6vectorIN4node8PropInfoESaIS1_EE4sizeEv = comdat any

$_ZNKSt6vectorIN4node8PropInfoESaIS1_EEixEm = comdat any

$_ZNK4node5Realm3envEv = comdat any

$_ZN4node11Environment14builtin_loaderEv = comdat any

$_ZN4node11Environment11async_hooksEv = comdat any

$_ZNK4node5Realm26has_run_bootstrapping_codeEv = comdat any

$_ZN4node11Environment14req_wrap_queueEv = comdat any

$_ZNK4node8ListHeadINS_11ReqWrapBaseEXadL_ZNS1_15req_wrap_queue_EEEE7IsEmptyEv = comdat any

$_ZN4node11Environment17handle_wrap_queueEv = comdat any

$_ZNK4node8ListHeadINS_10HandleWrapEXadL_ZNS1_18handle_wrap_queue_EEEE7IsEmptyEv = comdat any

$_ZN4node7tracing16TraceEventHelper23GetCategoryGroupEnabledEPKc = comdat any

$_ZN4node7tracing12ScopedTracerC2Ev = comdat any

$_ZN4node7tracing12ScopedTracer10InitializeEPKhPKcm = comdat any

$_ZNKSt5arrayIN4node17BaseObjectPtrImplINS0_10BaseObjectELb1EEELm12EE4sizeEv = comdat any

$_ZNSt5arrayIN4node17BaseObjectPtrImplINS0_10BaseObjectELb1EEELm12EEixEm = comdat any

$_ZN4node17BaseObjectPtrImplINS_10BaseObjectELb1EE5resetEPS1_ = comdat any

$_ZN4node7tracing12ScopedTracerD2Ev = comdat any

$_ZStneRKSt23_Rb_tree_const_iteratorINSt7__cxx1112basic_stringIcSt11char_traitsIcESaIcEEEES8_ = comdat any

$_ZNKSt23_Rb_tree_const_iteratorINSt7__cxx1112basic_stringIcSt11char_traitsIcESaIcEEEEdeEv = comdat any

$_ZNSt23_Rb_tree_const_iteratorINSt7__cxx1112basic_stringIcSt11char_traitsIcESaIcEEEEppEv = comdat any

$_ZNKSt3setIPN4node11node_moduleESt4lessIS2_ESaIS2_EE5beginEv = comdat any

$_ZNKSt3setIPN4node11node_moduleESt4lessIS2_ESaIS2_EE3endEv = comdat any

$_ZStneRKSt23_Rb_tree_const_iteratorIPN4node11node_moduleEES5_ = comdat any

$_ZNKSt23_Rb_tree_const_iteratorIPN4node11node_moduleEEdeEv = comdat any

$_ZNSt23_Rb_tree_const_iteratorIPN4node11node_moduleEEppEv = comdat any

$_ZN4node11Environment7optionsEv = comdat any

$_ZNKSt19__shared_ptr_accessIN4node18EnvironmentOptionsELN9__gnu_cxx12_Lock_policyE2ELb0ELb0EEptEv = comdat any

$_ZNSt10shared_ptrIN4node18EnvironmentOptionsEED2Ev = comdat any

$_ZN4node17PersistentToLocal6StrongIN2v87ContextEEENS2_5LocalIT_EERKNS2_14PersistentBaseIS5_EE = comdat any

$_ZN4node17PersistentToLocal6StrongIN2v88FunctionEEENS2_5LocalIT_EERKNS2_14PersistentBaseIS5_EE = comdat any

$_ZN4node17PersistentToLocal6StrongIN2v86ObjectEEENS2_5LocalIT_EERKNS2_14PersistentBaseIS5_EE = comdat any

$_ZNK4node11Environment18no_browser_globalsEv = comdat any

$_ZNK4node11Environment14is_main_threadEv = comdat any

$_ZNK4node11Environment18owns_process_stateEv = comdat any

$_ZN4node21FIXED_ONE_BYTE_STRINGILi4EEEN2v85LocalINS1_6StringEEEPNS1_7IsolateERAT__Kc = comdat any

$_ZNK4node5Realm12isolate_dataEv = comdat any

$_ZNK4node11IsolateData18env_proxy_templateEv = comdat any

$_ZNK4node14MemoryRetainer13WrappedObjectEv = comdat any

$_ZNK4node14MemoryRetainer10IsRootNodeEv = comdat any

$_ZNK4node14MemoryRetainer15GetDetachednessEv = comdat any

$_ZNK4node14PrincipalRealm14MemoryInfoNameEv = comdat any

$_ZNK4node14PrincipalRealm8SelfSizeEv = comdat any

$_ZN4node14MemoryRetainerD2Ev = comdat any

$_ZN4node14MemoryRetainerD0Ev = comdat any

$_ZNSt8_Rb_treeIPN4node11node_moduleES2_St9_IdentityIS2_ESt4lessIS2_ESaIS2_EEC2Ev = comdat any

$_ZNSt8_Rb_treeIPN4node11node_moduleES2_St9_IdentityIS2_ESt4lessIS2_ESaIS2_EE13_Rb_tree_implIS6_Lb1EEC2Ev = comdat any

$_ZNSaISt13_Rb_tree_nodeIPN4node11node_moduleEEEC2Ev = comdat any

$_ZNSt20_Rb_tree_key_compareISt4lessIPN4node11node_moduleEEEC2Ev = comdat any

$_ZNSt15_Rb_tree_headerC2Ev = comdat any

$_ZNSt15__new_allocatorISt13_Rb_tree_nodeIPN4node11node_moduleEEEC2Ev = comdat any

$_ZNSt15_Rb_tree_header8_M_resetEv = comdat any

$_ZNSt8_Rb_treeINSt7__cxx1112basic_stringIcSt11char_traitsIcESaIcEEES5_St9_IdentityIS5_ESt4lessIS5_ESaIS5_EEC2Ev = comdat any

$_ZNSt8_Rb_treeINSt7__cxx1112basic_stringIcSt11char_traitsIcESaIcEEES5_St9_IdentityIS5_ESt4lessIS5_ESaIS5_EE13_Rb_tree_implIS9_Lb1EEC2Ev = comdat any

$_ZNSaISt13_Rb_tree_nodeINSt7__cxx1112basic_stringIcSt11char_traitsIcESaIcEEEEEC2Ev = comdat any

$_ZNSt20_Rb_tree_key_compareISt4lessINSt7__cxx1112basic_stringIcSt11char_traitsIcESaIcEEEEEC2Ev = comdat any

$_ZNSt15__new_allocatorISt13_Rb_tree_nodeINSt7__cxx1112basic_stringIcSt11char_traitsIcESaIcEEEEEC2Ev = comdat any

$_ZNSt12_Vector_baseINSt7__cxx1112basic_stringIcSt11char_traitsIcESaIcEEESaIS5_EEC2Ev = comdat any

$_ZNSt12_Vector_baseINSt7__cxx1112basic_stringIcSt11char_traitsIcESaIcEEESaIS5_EE12_Vector_implC2Ev = comdat any

$_ZNSt15__new_allocatorINSt7__cxx1112basic_stringIcSt11char_traitsIcESaIcEEEEC2Ev = comdat any

$_ZN4node17BaseObjectPtrImplINS_10BaseObjectELb1EEC2Ev = comdat any

$_ZNSt13unordered_setIN4node12CleanupQueue19CleanupHookCallbackENS2_4HashENS2_5EqualESaIS2_EEC2Ev = comdat any

$_ZN4node12CleanupQueueD0Ev = comdat any

$_ZNK4node12CleanupQueue10MemoryInfoEPNS_13MemoryTrackerE = comdat any

$_ZNK4node12CleanupQueue14MemoryInfoNameEv = comdat any

$_ZNK4node12CleanupQueue8SelfSizeEv = comdat any

$_ZNSt10_HashtableIN4node12CleanupQueue19CleanupHookCallbackES2_SaIS2_ENSt8__detail9_IdentityENS2_5EqualENS2_4HashENS4_18_Mod_range_hashingENS4_20_Default_ranged_hashENS4_20_Prime_rehash_policyENS4_17_Hashtable_traitsILb1ELb1ELb1EEEEC2Ev = comdat any

$_ZNSt8__detail15_Hashtable_baseIN4node12CleanupQueue19CleanupHookCallbackES3_NS_9_IdentityENS3_5EqualENS3_4HashENS_18_Mod_range_hashingENS_20_Default_ranged_hashENS_17_Hashtable_traitsILb1ELb1ELb1EEEEC2Ev = comdat any

$_ZNSt8__detail16_Hashtable_allocISaINS_10_Hash_nodeIN4node12CleanupQueue19CleanupHookCallbackELb1EEEEEC2Ev = comdat any

$_ZNSt8__detail15_Hash_node_baseC2Ev = comdat any

$_ZNSt8__detail20_Prime_rehash_policyC2Ef = comdat any

$_ZNSt8__detail15_Hash_code_baseIN4node12CleanupQueue19CleanupHookCallbackES3_NS_9_IdentityENS3_4HashENS_18_Mod_range_hashingENS_20_Default_ranged_hashELb1EEC2Ev = comdat any

$_ZNSt8__detail21_Hashtable_ebo_helperILi0EN4node12CleanupQueue19CleanupHookCallback5EqualELb1EEC2Ev = comdat any

$_ZNSt8__detail21_Hashtable_ebo_helperILi1EN4node12CleanupQueue19CleanupHookCallback4HashELb1EEC2Ev = comdat any

$_ZNSt8__detail21_Hashtable_ebo_helperILi0ESaINS_10_Hash_nodeIN4node12CleanupQueue19CleanupHookCallbackELb1EEEELb1EEC2Ev = comdat any

$_ZNSaINSt8__detail10_Hash_nodeIN4node12CleanupQueue19CleanupHookCallbackELb1EEEEC2Ev = comdat any

$_ZNSt15__new_allocatorINSt8__detail10_Hash_nodeIN4node12CleanupQueue19CleanupHookCallbackELb1EEEEC2Ev = comdat any

$_ZNK4node12CleanupQueue17ForEachBaseObjectIZNKS0_10MemoryInfoEPNS_13MemoryTrackerEEUlPNS_10BaseObjectEE_EEvOT_ = comdat any

$_ZNSt6vectorIN4node12CleanupQueue19CleanupHookCallbackESaIS2_EE5beginEv = comdat any

$_ZNSt6vectorIN4node12CleanupQueue19CleanupHookCallbackESaIS2_EE3endEv = comdat any

$_ZN9__gnu_cxxneIPN4node12CleanupQueue19CleanupHookCallbackESt6vectorIS3_SaIS3_EEEEbRKNS_17__normal_iteratorIT_T0_EESD_ = comdat any

$_ZNK9__gnu_cxx17__normal_iteratorIPN4node12CleanupQueue19CleanupHookCallbackESt6vectorIS3_SaIS3_EEEdeEv = comdat any

$_ZNK4node12CleanupQueue13GetBaseObjectERKNS0_19CleanupHookCallbackE = comdat any

$_ZZNK4node12CleanupQueue10MemoryInfoEPNS_13MemoryTrackerEENKUlPNS_10BaseObjectEE_clES4_ = comdat any

$_ZN9__gnu_cxx17__normal_iteratorIPN4node12CleanupQueue19CleanupHookCallbackESt6vectorIS3_SaIS3_EEEppEv = comdat any

$_ZNSt6vectorIN4node12CleanupQueue19CleanupHookCallbackESaIS2_EED2Ev = comdat any

$_ZN9__gnu_cxx17__normal_iteratorIPN4node12CleanupQueue19CleanupHookCallbackESt6vectorIS3_SaIS3_EEEC2ERKS4_ = comdat any

$_ZNK9__gnu_cxx17__normal_iteratorIPN4node12CleanupQueue19CleanupHookCallbackESt6vectorIS3_SaIS3_EEE4baseEv = comdat any

$_ZN4node13MemoryTracker5TrackEPKNS_14MemoryRetainerEPKc = comdat any

$_ZNSt13unordered_mapIPKN4node14MemoryRetainerEPNS0_18MemoryRetainerNodeESt4hashIS3_ESt8equal_toIS3_ESaISt4pairIKS3_S5_EEE4findERSB_ = comdat any

$_ZNSt8__detailneERKNS_19_Node_iterator_baseISt4pairIKPKN4node14MemoryRetainerEPNS2_18MemoryRetainerNodeEELb0EEESC_ = comdat any

$_ZNSt13unordered_mapIPKN4node14MemoryRetainerEPNS0_18MemoryRetainerNodeESt4hashIS3_ESt8equal_toIS3_ESaISt4pairIKS3_S5_EEE3endEv = comdat any

$_ZNK4node13MemoryTracker11CurrentNodeEv = comdat any

$_ZNKSt8__detail14_Node_iteratorISt4pairIKPKN4node14MemoryRetainerEPNS2_18MemoryRetainerNodeEELb0ELb0EEptEv = comdat any

$_ZN4node13MemoryTracker8PushNodeEPKNS_14MemoryRetainerEPKc = comdat any

$_ZN4node13MemoryTracker7PopNodeEv = comdat any

$_ZNSt10_HashtableIPKN4node14MemoryRetainerESt4pairIKS3_PNS0_18MemoryRetainerNodeEESaIS8_ENSt8__detail10_Select1stESt8equal_toIS3_ESt4hashIS3_ENSA_18_Mod_range_hashingENSA_20_Default_ranged_hashENSA_20_Prime_rehash_policyENSA_17_Hashtable_traitsILb0ELb0ELb1EEEE4findERS5_ = comdat any

$_ZNKSt10_HashtableIPKN4node14MemoryRetainerESt4pairIKS3_PNS0_18MemoryRetainerNodeEESaIS8_ENSt8__detail10_Select1stESt8equal_toIS3_ESt4hashIS3_ENSA_18_Mod_range_hashingENSA_20_Default_ranged_hashENSA_20_Prime_rehash_policyENSA_17_Hashtable_traitsILb0ELb0ELb1EEEE4sizeEv = comdat any

$_ZNSt10_HashtableIPKN4node14MemoryRetainerESt4pairIKS3_PNS0_18MemoryRetainerNodeEESaIS8_ENSt8__detail10_Select1stESt8equal_toIS3_ESt4hashIS3_ENSA_18_Mod_range_hashingENSA_20_Default_ranged_hashENSA_20_Prime_rehash_policyENSA_17_Hashtable_traitsILb0ELb0ELb1EEEE22__small_size_thresholdEv = comdat any

$_ZNSt10_HashtableIPKN4node14MemoryRetainerESt4pairIKS3_PNS0_18MemoryRetainerNodeEESaIS8_ENSt8__detail10_Select1stESt8equal_toIS3_ESt4hashIS3_ENSA_18_Mod_range_hashingENSA_20_Default_ranged_hashENSA_20_Prime_rehash_policyENSA_17_Hashtable_traitsILb0ELb0ELb1EEEE5beginEv = comdat any

$_ZNSt10_HashtableIPKN4node14MemoryRetainerESt4pairIKS3_PNS0_18MemoryRetainerNodeEESaIS8_ENSt8__detail10_Select1stESt8equal_toIS3_ESt4hashIS3_ENSA_18_Mod_range_hashingENSA_20_Default_ranged_hashENSA_20_Prime_rehash_policyENSA_17_Hashtable_traitsILb0ELb0ELb1EEEE3endEv = comdat any

$_ZNKSt8__detail15_Hashtable_baseIPKN4node14MemoryRetainerESt4pairIKS4_PNS1_18MemoryRetainerNodeEENS_10_Select1stESt8equal_toIS4_ESt4hashIS4_ENS_18_Mod_range_hashingENS_20_Default_ranged_hashENS_17_Hashtable_traitsILb0ELb0ELb1EEEE13_M_key_equalsERS6_RKNS_16_Hash_node_valueIS9_Lb0EEE = comdat any

$_ZNSt8__detail14_Node_iteratorISt4pairIKPKN4node14MemoryRetainerEPNS2_18MemoryRetainerNodeEELb0ELb0EEppEv = comdat any

$_ZNKSt8__detail15_Hash_code_baseIPKN4node14MemoryRetainerESt4pairIKS4_PNS1_18MemoryRetainerNodeEENS_10_Select1stESt4hashIS4_ENS_18_Mod_range_hashingENS_20_Default_ranged_hashELb0EE12_M_hash_codeERS6_ = comdat any

$_ZNKSt10_HashtableIPKN4node14MemoryRetainerESt4pairIKS3_PNS0_18MemoryRetainerNodeEESaIS8_ENSt8__detail10_Select1stESt8equal_toIS3_ESt4hashIS3_ENSA_18_Mod_range_hashingENSA_20_Default_ranged_hashENSA_20_Prime_rehash_policyENSA_17_Hashtable_traitsILb0ELb0ELb1EEEE15_M_bucket_indexEm = comdat any

$_ZNKSt10_HashtableIPKN4node14MemoryRetainerESt4pairIKS3_PNS0_18MemoryRetainerNodeEESaIS8_ENSt8__detail10_Select1stESt8equal_toIS3_ESt4hashIS3_ENSA_18_Mod_range_hashingENSA_20_Default_ranged_hashENSA_20_Prime_rehash_policyENSA_17_Hashtable_traitsILb0ELb0ELb1EEEE12_M_find_nodeEmRS5_m = comdat any

$_ZNSt8__detail14_Node_iteratorISt4pairIKPKN4node14MemoryRetainerEPNS2_18MemoryRetainerNodeEELb0ELb0EEC2EPNS_10_Hash_nodeIS9_Lb0EEE = comdat any

$_ZNSt8__detail22_Hashtable_hash_traitsISt4hashIPKN4node14MemoryRetainerEEE22__small_size_thresholdEv = comdat any

$_ZNKSt10_HashtableIPKN4node14MemoryRetainerESt4pairIKS3_PNS0_18MemoryRetainerNodeEESaIS8_ENSt8__detail10_Select1stESt8equal_toIS3_ESt4hashIS3_ENSA_18_Mod_range_hashingENSA_20_Default_ranged_hashENSA_20_Prime_rehash_policyENSA_17_Hashtable_traitsILb0ELb0ELb1EEEE8_M_beginEv = comdat any

$_ZNKSt8__detail15_Hashtable_baseIPKN4node14MemoryRetainerESt4pairIKS4_PNS1_18MemoryRetainerNodeEENS_10_Select1stESt8equal_toIS4_ESt4hashIS4_ENS_18_Mod_range_hashingENS_20_Default_ranged_hashENS_17_Hashtable_traitsILb0ELb0ELb1EEEE5_M_eqEv = comdat any

$_ZNKSt8equal_toIPKN4node14MemoryRetainerEEclERKS3_S6_ = comdat any

$_ZNKSt8__detail10_Select1stclIRKSt4pairIKPKN4node14MemoryRetainerEPNS3_18MemoryRetainerNodeEEEEONS0_10__1st_typeIT_E4typeEOSE_ = comdat any

$_ZNKSt8__detail21_Hash_node_value_baseISt4pairIKPKN4node14MemoryRetainerEPNS2_18MemoryRetainerNodeEEE4_M_vEv = comdat any

$_ZNKSt8__detail21_Hashtable_ebo_helperILi0ESt8equal_toIPKN4node14MemoryRetainerEELb1EE7_M_cgetEv = comdat any

$_ZNKSt8__detail21_Hash_node_value_baseISt4pairIKPKN4node14MemoryRetainerEPNS2_18MemoryRetainerNodeEEE9_M_valptrEv = comdat any

$_ZNK9__gnu_cxx16__aligned_bufferISt4pairIKPKN4node14MemoryRetainerEPNS2_18MemoryRetainerNodeEEE6_M_ptrEv = comdat any

$_ZNK9__gnu_cxx16__aligned_bufferISt4pairIKPKN4node14MemoryRetainerEPNS2_18MemoryRetainerNodeEEE7_M_addrEv = comdat any

$_ZNSt8__detail19_Node_iterator_baseISt4pairIKPKN4node14MemoryRetainerEPNS2_18MemoryRetainerNodeEELb0EE7_M_incrEv = comdat any

$_ZNKSt8__detail10_Hash_nodeISt4pairIKPKN4node14MemoryRetainerEPNS2_18MemoryRetainerNodeEELb0EE7_M_nextEv = comdat any

$_ZNKSt8__detail15_Hash_code_baseIPKN4node14MemoryRetainerESt4pairIKS4_PNS1_18MemoryRetainerNodeEENS_10_Select1stESt4hashIS4_ENS_18_Mod_range_hashingENS_20_Default_ranged_hashELb0EE7_M_hashEv = comdat any

$_ZNKSt4hashIPKN4node14MemoryRetainerEEclES3_ = comdat any

$_ZNKSt8__detail21_Hashtable_ebo_helperILi1ESt4hashIPKN4node14MemoryRetainerEELb1EE7_M_cgetEv = comdat any

$_ZNKSt8__detail15_Hash_code_baseIPKN4node14MemoryRetainerESt4pairIKS4_PNS1_18MemoryRetainerNodeEENS_10_Select1stESt4hashIS4_ENS_18_Mod_range_hashingENS_20_Default_ranged_hashELb0EE15_M_bucket_indexEmm = comdat any

$_ZNKSt8__detail18_Mod_range_hashingclEmm = comdat any

$_ZNKSt10_HashtableIPKN4node14MemoryRetainerESt4pairIKS3_PNS0_18MemoryRetainerNodeEESaIS8_ENSt8__detail10_Select1stESt8equal_toIS3_ESt4hashIS3_ENSA_18_Mod_range_hashingENSA_20_Default_ranged_hashENSA_20_Prime_rehash_policyENSA_17_Hashtable_traitsILb0ELb0ELb1EEEE19_M_find_before_nodeEmRS5_m = comdat any

$_ZNKSt8__detail15_Hashtable_baseIPKN4node14MemoryRetainerESt4pairIKS4_PNS1_18MemoryRetainerNodeEENS_10_Select1stESt8equal_toIS4_ESt4hashIS4_ENS_18_Mod_range_hashingENS_20_Default_ranged_hashENS_17_Hashtable_traitsILb0ELb0ELb1EEEE9_M_equalsERS6_mRKNS_16_Hash_node_valueIS9_Lb0EEE = comdat any

$_ZNKSt10_HashtableIPKN4node14MemoryRetainerESt4pairIKS3_PNS0_18MemoryRetainerNodeEESaIS8_ENSt8__detail10_Select1stESt8equal_toIS3_ESt4hashIS3_ENSA_18_Mod_range_hashingENSA_20_Default_ranged_hashENSA_20_Prime_rehash_policyENSA_17_Hashtable_traitsILb0ELb0ELb1EEEE15_M_bucket_indexERKNSA_16_Hash_node_valueIS8_Lb0EEE = comdat any

$_ZNSt8__detail15_Hashtable_baseIPKN4node14MemoryRetainerESt4pairIKS4_PNS1_18MemoryRetainerNodeEENS_10_Select1stESt8equal_toIS4_ESt4hashIS4_ENS_18_Mod_range_hashingENS_20_Default_ranged_hashENS_17_Hashtable_traitsILb0ELb0ELb1EEEE9_S_equalsEmRKNS_21_Hash_node_code_cacheILb0EEE = comdat any

$_ZNKSt8__detail15_Hash_code_baseIPKN4node14MemoryRetainerESt4pairIKS4_PNS1_18MemoryRetainerNodeEENS_10_Select1stESt4hashIS4_ENS_18_Mod_range_hashingENS_20_Default_ranged_hashELb0EE15_M_bucket_indexERKNS_16_Hash_node_valueIS9_Lb0EEEm = comdat any

$_ZNSt8__detail19_Node_iterator_baseISt4pairIKPKN4node14MemoryRetainerEPNS2_18MemoryRetainerNodeEELb0EEC2EPNS_10_Hash_nodeIS9_Lb0EEE = comdat any

$_ZNKSt5stackIPN4node18MemoryRetainerNodeESt5dequeIS2_SaIS2_EEE5emptyEv = comdat any

$_ZNKSt5stackIPN4node18MemoryRetainerNodeESt5dequeIS2_SaIS2_EEE3topEv = comdat any

$_ZNKSt5dequeIPN4node18MemoryRetainerNodeESaIS2_EE5emptyEv = comdat any

$_ZSteqRKSt15_Deque_iteratorIPN4node18MemoryRetainerNodeERS2_PS2_ES7_ = comdat any

$_ZNKSt5dequeIPN4node18MemoryRetainerNodeESaIS2_EE4backEv = comdat any

$_ZNKSt5dequeIPN4node18MemoryRetainerNodeESaIS2_EE3endEv = comdat any

$_ZNSt15_Deque_iteratorIPN4node18MemoryRetainerNodeERKS2_PS3_EmmEv = comdat any

$_ZNKSt15_Deque_iteratorIPN4node18MemoryRetainerNodeERKS2_PS3_EdeEv = comdat any

$_ZNSt15_Deque_iteratorIPN4node18MemoryRetainerNodeERKS2_PS3_EC2IS_IS2_RS2_PS2_EvEERKT_ = comdat any

$_ZNSt15_Deque_iteratorIPN4node18MemoryRetainerNodeERKS2_PS3_E11_M_set_nodeEPPS2_ = comdat any

$_ZNSt15_Deque_iteratorIPN4node18MemoryRetainerNodeERKS2_PS3_E14_S_buffer_sizeEv = comdat any

$_ZSt16__deque_buf_sizem = comdat any

$_ZNSt8__detail21_Hash_node_value_baseISt4pairIKPKN4node14MemoryRetainerEPNS2_18MemoryRetainerNodeEEE9_M_valptrEv = comdat any

$_ZN9__gnu_cxx16__aligned_bufferISt4pairIKPKN4node14MemoryRetainerEPNS2_18MemoryRetainerNodeEEE6_M_ptrEv = comdat any

$_ZN9__gnu_cxx16__aligned_bufferISt4pairIKPKN4node14MemoryRetainerEPNS2_18MemoryRetainerNodeEEE7_M_addrEv = comdat any

$_ZN4node13MemoryTracker7AddNodeEPKNS_14MemoryRetainerEPKc = comdat any

$_ZNSt5stackIPN4node18MemoryRetainerNodeESt5dequeIS2_SaIS2_EEE4pushERKS2_ = comdat any

$_ZN4node18MemoryRetainerNodeC2EPNS_13MemoryTrackerEPKNS_14MemoryRetainerE = comdat any

$_ZNSt10unique_ptrIN2v813EmbedderGraph4NodeESt14default_deleteIS2_EEC2IS4_vEEPS2_ = comdat any

$_ZNSt10unique_ptrIN2v813EmbedderGraph4NodeESt14default_deleteIS2_EED2Ev = comdat any

$_ZNSt13unordered_mapIPKN4node14MemoryRetainerEPNS0_18MemoryRetainerNodeESt4hashIS3_ESt8equal_toIS3_ESaISt4pairIKS3_S5_EEEixERSB_ = comdat any

$_ZN4node18MemoryRetainerNode13JSWrapperNodeEv = comdat any

$_ZN2v813EmbedderGraph4NodeC2Ev = comdat any

$_ZN4node13MemoryTracker7isolateEv = comdat any

$_ZN4node13MemoryTracker5graphEv = comdat any

$_ZN4node18MemoryRetainerNodeD2Ev = comdat any

$_ZN4node18MemoryRetainerNodeD0Ev = comdat any

$_ZN4node18MemoryRetainerNode4NameEv = comdat any

$_ZN4node18MemoryRetainerNode11SizeInBytesEv = comdat any

$_ZN2v813EmbedderGraph4Node11WrapperNodeEv = comdat any

$_ZN4node18MemoryRetainerNode10IsRootNodeEv = comdat any

$_ZN2v813EmbedderGraph4Node14IsEmbedderNodeEv = comdat any

$_ZN4node18MemoryRetainerNode10NamePrefixEv = comdat any

$_ZN2v813EmbedderGraph4Node15GetNativeObjectEv = comdat any

$_ZN4node18MemoryRetainerNode15GetDetachednessEv = comdat any

$_ZN2v813EmbedderGraph4Node10GetAddressEv = comdat any

$_ZN2v813EmbedderGraph4NodeD2Ev = comdat any

$_ZN2v813EmbedderGraph4NodeD0Ev = comdat any

$_ZN2v813EmbedderGraph4Node10IsRootNodeEv = comdat any

$_ZN2v813EmbedderGraph4Node10NamePrefixEv = comdat any

$_ZN2v813EmbedderGraph4Node15GetDetachednessEv = comdat any

$_ZNSt15__uniq_ptr_dataIN2v813EmbedderGraph4NodeESt14default_deleteIS2_ELb1ELb1EECI2St15__uniq_ptr_implIS2_S4_EEPS2_ = comdat any

$_ZNSt15__uniq_ptr_implIN2v813EmbedderGraph4NodeESt14default_deleteIS2_EEC2EPS2_ = comdat any

$_ZNSt5tupleIJPN2v813EmbedderGraph4NodeESt14default_deleteIS2_EEEC2ILb1ETnNSt9enable_ifIXclsr17_TupleConstraintsIXT_ES3_S5_EE37__is_implicitly_default_constructibleEEbE4typeELb1EEEv = comdat any

$_ZNSt15__uniq_ptr_implIN2v813EmbedderGraph4NodeESt14default_deleteIS2_EE6_M_ptrEv = comdat any

$_ZNSt11_Tuple_implILm0EJPN2v813EmbedderGraph4NodeESt14default_deleteIS2_EEEC2Ev = comdat any

$_ZNSt11_Tuple_implILm1EJSt14default_deleteIN2v813EmbedderGraph4NodeEEEEC2Ev = comdat any

$_ZNSt10_Head_baseILm0EPN2v813EmbedderGraph4NodeELb0EEC2Ev = comdat any

$_ZNSt10_Head_baseILm1ESt14default_deleteIN2v813EmbedderGraph4NodeEELb1EEC2Ev = comdat any

$_ZSt3getILm0EJPN2v813EmbedderGraph4NodeESt14default_deleteIS2_EEERNSt13tuple_elementIXT_ESt5tupleIJDpT0_EEE4typeERSA_ = comdat any

$_ZSt12__get_helperILm0EPN2v813EmbedderGraph4NodeEJSt14default_deleteIS2_EEERT0_RSt11_Tuple_implIXT_EJS6_DpT1_EE = comdat any

$_ZNSt11_Tuple_implILm0EJPN2v813EmbedderGraph4NodeESt14default_deleteIS2_EEE7_M_headERS6_ = comdat any

$_ZNSt10_Head_baseILm0EPN2v813EmbedderGraph4NodeELb0EE7_M_headERS4_ = comdat any

$_ZNSt10unique_ptrIN2v813EmbedderGraph4NodeESt14default_deleteIS2_EE11get_deleterEv = comdat any

$_ZNKSt14default_deleteIN2v813EmbedderGraph4NodeEEclEPS2_ = comdat any

$_ZNSt15__uniq_ptr_implIN2v813EmbedderGraph4NodeESt14default_deleteIS2_EE10_M_deleterEv = comdat any

$_ZSt3getILm1EJPN2v813EmbedderGraph4NodeESt14default_deleteIS2_EEERNSt13tuple_elementIXT_ESt5tupleIJDpT0_EEE4typeERSA_ = comdat any

$_ZSt12__get_helperILm1ESt14default_deleteIN2v813EmbedderGraph4NodeEEJEERT0_RSt11_Tuple_implIXT_EJS5_DpT1_EE = comdat any

$_ZNSt11_Tuple_implILm1EJSt14default_deleteIN2v813EmbedderGraph4NodeEEEE7_M_headERS5_ = comdat any

$_ZNSt10_Head_baseILm1ESt14default_deleteIN2v813EmbedderGraph4NodeEELb1EE7_M_headERS5_ = comdat any

$_ZNSt8__detail9_Map_baseIPKN4node14MemoryRetainerESt4pairIKS4_PNS1_18MemoryRetainerNodeEESaIS9_ENS_10_Select1stESt8equal_toIS4_ESt4hashIS4_ENS_18_Mod_range_hashingENS_20_Default_ranged_hashENS_20_Prime_rehash_policyENS_17_Hashtable_traitsILb0ELb0ELb1EEELb1EEixERS6_ = comdat any

$_ZNSt8__detail21_Hash_node_value_baseISt4pairIKPKN4node14MemoryRetainerEPNS2_18MemoryRetainerNodeEEE4_M_vEv = comdat any

$_ZNSt5tupleIJRKPKN4node14MemoryRetainerEEEC2ILb1ETnNSt9enable_ifIXclsr4_TCCIXT_EEE29__is_implicitly_constructibleIS5_EEEbE4typeELb1EEES5_ = comdat any

$_ZNSt10_HashtableIPKN4node14MemoryRetainerESt4pairIKS3_PNS0_18MemoryRetainerNodeEESaIS8_ENSt8__detail10_Select1stESt8equal_toIS3_ESt4hashIS3_ENSA_18_Mod_range_hashingENSA_20_Default_ranged_hashENSA_20_Prime_rehash_policyENSA_17_Hashtable_traitsILb0ELb0ELb1EEEE12_Scoped_nodeC2IJRKSt21piecewise_construct_tSt5tupleIJRS5_EESR_IJEEEEEPNSA_16_Hashtable_allocISaINSA_10_Hash_nodeIS8_Lb0EEEEEEDpOT_ = comdat any

$_ZNSt10_HashtableIPKN4node14MemoryRetainerESt4pairIKS3_PNS0_18MemoryRetainerNodeEESaIS8_ENSt8__detail10_Select1stESt8equal_toIS3_ESt4hashIS3_ENSA_18_Mod_range_hashingENSA_20_Default_ranged_hashENSA_20_Prime_rehash_policyENSA_17_Hashtable_traitsILb0ELb0ELb1EEEE21_M_insert_unique_nodeEmmPNSA_10_Hash_nodeIS8_Lb0EEEm = comdat any

$_ZNSt10_HashtableIPKN4node14MemoryRetainerESt4pairIKS3_PNS0_18MemoryRetainerNodeEESaIS8_ENSt8__detail10_Select1stESt8equal_toIS3_ESt4hashIS3_ENSA_18_Mod_range_hashingENSA_20_Default_ranged_hashENSA_20_Prime_rehash_policyENSA_17_Hashtable_traitsILb0ELb0ELb1EEEE12_Scoped_nodeD2Ev = comdat any

$_ZNSt11_Tuple_implILm0EJRKPKN4node14MemoryRetainerEEEC2ES5_ = comdat any

$_ZNSt10_Head_baseILm0ERKPKN4node14MemoryRetainerELb0EEC2ES5_ = comdat any

$_ZNSt8__detail16_Hashtable_allocISaINS_10_Hash_nodeISt4pairIKPKN4node14MemoryRetainerEPNS3_18MemoryRetainerNodeEELb0EEEEE16_M_allocate_nodeIJRKSt21piecewise_construct_tSt5tupleIJRS7_EESI_IJEEEEEPSB_DpOT_ = comdat any

$_ZNSt16allocator_traitsISaINSt8__detail10_Hash_nodeISt4pairIKPKN4node14MemoryRetainerEPNS3_18MemoryRetainerNodeEELb0EEEEE8allocateERSC_m = comdat any

$_ZNSt8__detail16_Hashtable_allocISaINS_10_Hash_nodeISt4pairIKPKN4node14MemoryRetainerEPNS3_18MemoryRetainerNodeEELb0EEEEE17_M_node_allocatorEv = comdat any

$_ZSt12__to_addressINSt8__detail10_Hash_nodeISt4pairIKPKN4node14MemoryRetainerEPNS3_18MemoryRetainerNodeEELb0EEEEPT_SD_ = comdat any

$_ZNSt8__detail10_Hash_nodeISt4pairIKPKN4node14MemoryRetainerEPNS2_18MemoryRetainerNodeEELb0EEC2Ev = comdat any

$_ZNSt16allocator_traitsISaINSt8__detail10_Hash_nodeISt4pairIKPKN4node14MemoryRetainerEPNS3_18MemoryRetainerNodeEELb0EEEEE9constructISA_JRKSt21piecewise_construct_tSt5tupleIJRS7_EESI_IJEEEEEvRSC_PT_DpOT0_ = comdat any

$_ZNSt15__new_allocatorINSt8__detail10_Hash_nodeISt4pairIKPKN4node14MemoryRetainerEPNS3_18MemoryRetainerNodeEELb0EEEE8allocateEmPKv = comdat any

$_ZNKSt15__new_allocatorINSt8__detail10_Hash_nodeISt4pairIKPKN4node14MemoryRetainerEPNS3_18MemoryRetainerNodeEELb0EEEE11_M_max_sizeEv = comdat any

$_ZNSt8__detail21_Hashtable_ebo_helperILi0ESaINS_10_Hash_nodeISt4pairIKPKN4node14MemoryRetainerEPNS3_18MemoryRetainerNodeEELb0EEEELb1EE6_M_getEv = comdat any

$_ZNSt15__new_allocatorINSt8__detail10_Hash_nodeISt4pairIKPKN4node14MemoryRetainerEPNS3_18MemoryRetainerNodeEELb0EEEE9constructISA_JRKSt21piecewise_construct_tSt5tupleIJRS7_EESH_IJEEEEEvPT_DpOT0_ = comdat any

$_ZNSt5tupleIJRKPKN4node14MemoryRetainerEEEC2EOS6_ = comdat any

$_ZNSt4pairIKPKN4node14MemoryRetainerEPNS0_18MemoryRetainerNodeEEC2IJRS4_EJEEESt21piecewise_construct_tSt5tupleIJDpT_EESB_IJDpT0_EE = comdat any

$_ZNSt11_Tuple_implILm0EJRKPKN4node14MemoryRetainerEEEC2EOS6_ = comdat any

$_ZNSt4pairIKPKN4node14MemoryRetainerEPNS0_18MemoryRetainerNodeEEC2IJRS4_EJLm0EEJETpTnmJEEERSt5tupleIJDpT_EERSA_IJDpT1_EESt12_Index_tupleIJXspT0_EEESJ_IJXspT2_EEE = comdat any

$_ZSt3getILm0EJRKPKN4node14MemoryRetainerEEERNSt13tuple_elementIXT_ESt5tupleIJDpT0_EEE4typeERSA_ = comdat any

$_ZSt12__get_helperILm0ERKPKN4node14MemoryRetainerEJEERT0_RSt11_Tuple_implIXT_EJS6_DpT1_EE = comdat any

$_ZNSt11_Tuple_implILm0EJRKPKN4node14MemoryRetainerEEE7_M_headERS6_ = comdat any

$_ZNSt10_Head_baseILm0ERKPKN4node14MemoryRetainerELb0EE7_M_headERS6_ = comdat any

$_ZNKSt8__detail20_Prime_rehash_policy8_M_stateEv = comdat any

$_ZNSt10_HashtableIPKN4node14MemoryRetainerESt4pairIKS3_PNS0_18MemoryRetainerNodeEESaIS8_ENSt8__detail10_Select1stESt8equal_toIS3_ESt4hashIS3_ENSA_18_Mod_range_hashingENSA_20_Default_ranged_hashENSA_20_Prime_rehash_policyENSA_17_Hashtable_traitsILb0ELb0ELb1EEEE9_M_rehashEmRKm = comdat any

$_ZNKSt8__detail15_Hash_code_baseIPKN4node14MemoryRetainerESt4pairIKS4_PNS1_18MemoryRetainerNodeEENS_10_Select1stESt4hashIS4_ENS_18_Mod_range_hashingENS_20_Default_ranged_hashELb0EE13_M_store_codeERNS_21_Hash_node_code_cacheILb0EEEm = comdat any

$_ZNSt10_HashtableIPKN4node14MemoryRetainerESt4pairIKS3_PNS0_18MemoryRetainerNodeEESaIS8_ENSt8__detail10_Select1stESt8equal_toIS3_ESt4hashIS3_ENSA_18_Mod_range_hashingENSA_20_Default_ranged_hashENSA_20_Prime_rehash_policyENSA_17_Hashtable_traitsILb0ELb0ELb1EEEE22_M_insert_bucket_beginEmPNSA_10_Hash_nodeIS8_Lb0EEE = comdat any

$_ZNSt10_HashtableIPKN4node14MemoryRetainerESt4pairIKS3_PNS0_18MemoryRetainerNodeEESaIS8_ENSt8__detail10_Select1stESt8equal_toIS3_ESt4hashIS3_ENSA_18_Mod_range_hashingENSA_20_Default_ranged_hashENSA_20_Prime_rehash_policyENSA_17_Hashtable_traitsILb0ELb0ELb1EEEE13_M_rehash_auxEmSt17integral_constantIbLb1EE = comdat any

$_ZNSt10_HashtableIPKN4node14MemoryRetainerESt4pairIKS3_PNS0_18MemoryRetainerNodeEESaIS8_ENSt8__detail10_Select1stESt8equal_toIS3_ESt4hashIS3_ENSA_18_Mod_range_hashingENSA_20_Default_ranged_hashENSA_20_Prime_rehash_policyENSA_17_Hashtable_traitsILb0ELb0ELb1EEEE19_M_allocate_bucketsEm = comdat any

$_ZNSt10_HashtableIPKN4node14MemoryRetainerESt4pairIKS3_PNS0_18MemoryRetainerNodeEESaIS8_ENSt8__detail10_Select1stESt8equal_toIS3_ESt4hashIS3_ENSA_18_Mod_range_hashingENSA_20_Default_ranged_hashENSA_20_Prime_rehash_policyENSA_17_Hashtable_traitsILb0ELb0ELb1EEEE21_M_deallocate_bucketsEv = comdat any

$_ZNSt8__detail16_Hashtable_allocISaINS_10_Hash_nodeISt4pairIKPKN4node14MemoryRetainerEPNS3_18MemoryRetainerNodeEELb0EEEEE19_M_allocate_bucketsEm = comdat any

$_ZNSaIPNSt8__detail15_Hash_node_baseEEC2INS_10_Hash_nodeISt4pairIKPKN4node14MemoryRetainerEPNS6_18MemoryRetainerNodeEELb0EEEEERKSaIT_E = comdat any

$_ZNSt16allocator_traitsISaIPNSt8__detail15_Hash_node_baseEEE8allocateERS3_m = comdat any

$_ZSt12__to_addressIPNSt8__detail15_Hash_node_baseEEPT_S4_ = comdat any

$_ZNSaIPNSt8__detail15_Hash_node_baseEED2Ev = comdat any

$_ZNSt15__new_allocatorIPNSt8__detail15_Hash_node_baseEEC2Ev = comdat any

$_ZNSt15__new_allocatorIPNSt8__detail15_Hash_node_baseEE8allocateEmPKv = comdat any

$_ZNKSt15__new_allocatorIPNSt8__detail15_Hash_node_baseEE11_M_max_sizeEv = comdat any

$_ZNSt15__new_allocatorIPNSt8__detail15_Hash_node_baseEED2Ev = comdat any

$_ZNSt10_HashtableIPKN4node14MemoryRetainerESt4pairIKS3_PNS0_18MemoryRetainerNodeEESaIS8_ENSt8__detail10_Select1stESt8equal_toIS3_ESt4hashIS3_ENSA_18_Mod_range_hashingENSA_20_Default_ranged_hashENSA_20_Prime_rehash_policyENSA_17_Hashtable_traitsILb0ELb0ELb1EEEE21_M_deallocate_bucketsEPPNSA_15_Hash_node_baseEm = comdat any

$_ZNKSt10_HashtableIPKN4node14MemoryRetainerESt4pairIKS3_PNS0_18MemoryRetainerNodeEESaIS8_ENSt8__detail10_Select1stESt8equal_toIS3_ESt4hashIS3_ENSA_18_Mod_range_hashingENSA_20_Default_ranged_hashENSA_20_Prime_rehash_policyENSA_17_Hashtable_traitsILb0ELb0ELb1EEEE21_M_uses_single_bucketEPPNSA_15_Hash_node_baseE = comdat any

$_ZNSt8__detail16_Hashtable_allocISaINS_10_Hash_nodeISt4pairIKPKN4node14MemoryRetainerEPNS3_18MemoryRetainerNodeEELb0EEEEE21_M_deallocate_bucketsEPPNS_15_Hash_node_baseEm = comdat any

$_ZNSt19__ptr_traits_ptr_toIPPNSt8__detail15_Hash_node_baseES2_Lb0EE10pointer_toERS2_ = comdat any

$_ZNSt16allocator_traitsISaIPNSt8__detail15_Hash_node_baseEEE10deallocateERS3_PS2_m = comdat any

$_ZNSt15__new_allocatorIPNSt8__detail15_Hash_node_baseEE10deallocateEPS2_m = comdat any

$_ZNSt8__detail16_Hashtable_allocISaINS_10_Hash_nodeISt4pairIKPKN4node14MemoryRetainerEPNS3_18MemoryRetainerNodeEELb0EEEEE18_M_deallocate_nodeEPSB_ = comdat any

$_ZNSt16allocator_traitsISaINSt8__detail10_Hash_nodeISt4pairIKPKN4node14MemoryRetainerEPNS3_18MemoryRetainerNodeEELb0EEEEE7destroyISA_EEvRSC_PT_ = comdat any

$_ZNSt8__detail16_Hashtable_allocISaINS_10_Hash_nodeISt4pairIKPKN4node14MemoryRetainerEPNS3_18MemoryRetainerNodeEELb0EEEEE22_M_deallocate_node_ptrEPSB_ = comdat any

$_ZNSt15__new_allocatorINSt8__detail10_Hash_nodeISt4pairIKPKN4node14MemoryRetainerEPNS3_18MemoryRetainerNodeEELb0EEEE7destroyISA_EEvPT_ = comdat any

$_ZNSt19__ptr_traits_ptr_toIPNSt8__detail10_Hash_nodeISt4pairIKPKN4node14MemoryRetainerEPNS3_18MemoryRetainerNodeEELb0EEESB_Lb0EE10pointer_toERSB_ = comdat any

$_ZNSt16allocator_traitsISaINSt8__detail10_Hash_nodeISt4pairIKPKN4node14MemoryRetainerEPNS3_18MemoryRetainerNodeEELb0EEEEE10deallocateERSC_PSB_m = comdat any

$_ZNSt15__new_allocatorINSt8__detail10_Hash_nodeISt4pairIKPKN4node14MemoryRetainerEPNS3_18MemoryRetainerNodeEELb0EEEE10deallocateEPSB_m = comdat any

$_ZNSt5dequeIPN4node18MemoryRetainerNodeESaIS2_EE9push_backERKS2_ = comdat any

$_ZNSt16allocator_traitsISaIPN4node18MemoryRetainerNodeEEE9constructIS2_JRKS2_EEEvRS3_PT_DpOT0_ = comdat any

$_ZNSt5dequeIPN4node18MemoryRetainerNodeESaIS2_EE16_M_push_back_auxIJRKS2_EEEvDpOT_ = comdat any

$_ZNSt15__new_allocatorIPN4node18MemoryRetainerNodeEE9constructIS2_JRKS2_EEEvPT_DpOT0_ = comdat any

$_ZNKSt5dequeIPN4node18MemoryRetainerNodeESaIS2_EE4sizeEv = comdat any

$_ZNKSt5dequeIPN4node18MemoryRetainerNodeESaIS2_EE8max_sizeEv = comdat any

$_ZNSt5dequeIPN4node18MemoryRetainerNodeESaIS2_EE22_M_reserve_map_at_backEm = comdat any

$_ZNSt11_Deque_baseIPN4node18MemoryRetainerNodeESaIS2_EE16_M_allocate_nodeEv = comdat any

$_ZNSt15_Deque_iteratorIPN4node18MemoryRetainerNodeERS2_PS2_E11_M_set_nodeEPS4_ = comdat any

$_ZStmiRKSt15_Deque_iteratorIPN4node18MemoryRetainerNodeERS2_PS2_ES7_ = comdat any

$_ZNSt15_Deque_iteratorIPN4node18MemoryRetainerNodeERS2_PS2_E14_S_buffer_sizeEv = comdat any

$_ZNSt5dequeIPN4node18MemoryRetainerNodeESaIS2_EE11_S_max_sizeERKS3_ = comdat any

$_ZNKSt11_Deque_baseIPN4node18MemoryRetainerNodeESaIS2_EE19_M_get_Tp_allocatorEv = comdat any

$_ZNSt16allocator_traitsISaIPN4node18MemoryRetainerNodeEEE8max_sizeERKS3_ = comdat any

$_ZSt3minImERKT_S2_S2_ = comdat any

$_ZNKSt15__new_allocatorIPN4node18MemoryRetainerNodeEE8max_sizeEv = comdat any

$_ZNKSt15__new_allocatorIPN4node18MemoryRetainerNodeEE11_M_max_sizeEv = comdat any

$_ZNSt5dequeIPN4node18MemoryRetainerNodeESaIS2_EE17_M_reallocate_mapEmb = comdat any

$_ZSt4copyIPPPN4node18MemoryRetainerNodeES4_ET0_T_S6_S5_ = comdat any

$_ZSt13copy_backwardIPPPN4node18MemoryRetainerNodeES4_ET0_T_S6_S5_ = comdat any

$_ZSt3maxImERKT_S2_S2_ = comdat any

$_ZNSt11_Deque_baseIPN4node18MemoryRetainerNodeESaIS2_EE15_M_allocate_mapEm = comdat any

$_ZNSt11_Deque_baseIPN4node18MemoryRetainerNodeESaIS2_EE17_M_deallocate_mapEPPS2_m = comdat any

$_ZSt13__copy_move_aILb0EPPPN4node18MemoryRetainerNodeES4_ET1_T0_S6_S5_ = comdat any

$_ZSt12__miter_baseIPPPN4node18MemoryRetainerNodeEET_S5_ = comdat any

$_ZSt12__niter_wrapIPPPN4node18MemoryRetainerNodeEET_RKS5_S5_ = comdat any

$_ZSt14__copy_move_a1ILb0EPPPN4node18MemoryRetainerNodeES4_ET1_T0_S6_S5_ = comdat any

$_ZSt12__niter_baseIPPPN4node18MemoryRetainerNodeEET_S5_ = comdat any

$_ZSt14__copy_move_a2ILb0EPPPN4node18MemoryRetainerNodeES4_ET1_T0_S6_S5_ = comdat any

$_ZNSt11__copy_moveILb0ELb1ESt26random_access_iterator_tagE8__copy_mIPPN4node18MemoryRetainerNodeEEEPT_PKS7_SA_S8_ = comdat any

$_ZSt22__copy_move_backward_aILb0EPPPN4node18MemoryRetainerNodeES4_ET1_T0_S6_S5_ = comdat any

$_ZSt23__copy_move_backward_a1ILb0EPPPN4node18MemoryRetainerNodeES4_ET1_T0_S6_S5_ = comdat any

$_ZSt23__copy_move_backward_a2ILb0EPPPN4node18MemoryRetainerNodeES4_ET1_T0_S6_S5_ = comdat any

$_ZNSt20__copy_move_backwardILb0ELb1ESt26random_access_iterator_tagE13__copy_move_bIPPN4node18MemoryRetainerNodeEEEPT_PKS7_SA_S8_ = comdat any

$_ZNKSt11_Deque_baseIPN4node18MemoryRetainerNodeESaIS2_EE20_M_get_map_allocatorEv = comdat any

$_ZNSt16allocator_traitsISaIPPN4node18MemoryRetainerNodeEEE8allocateERS4_m = comdat any

$_ZNSaIPPN4node18MemoryRetainerNodeEED2Ev = comdat any

$_ZNSaIPPN4node18MemoryRetainerNodeEEC2IS1_EERKSaIT_E = comdat any

$_ZNSt15__new_allocatorIPPN4node18MemoryRetainerNodeEEC2Ev = comdat any

$_ZNSt15__new_allocatorIPPN4node18MemoryRetainerNodeEE8allocateEmPKv = comdat any

$_ZNKSt15__new_allocatorIPPN4node18MemoryRetainerNodeEE11_M_max_sizeEv = comdat any

$_ZNSt15__new_allocatorIPPN4node18MemoryRetainerNodeEED2Ev = comdat any

$_ZNSt16allocator_traitsISaIPPN4node18MemoryRetainerNodeEEE10deallocateERS4_PS3_m = comdat any

$_ZNSt15__new_allocatorIPPN4node18MemoryRetainerNodeEE10deallocateEPS3_m = comdat any

$_ZNSt16allocator_traitsISaIPN4node18MemoryRetainerNodeEEE8allocateERS3_m = comdat any

$_ZNSt15__new_allocatorIPN4node18MemoryRetainerNodeEE8allocateEmPKv = comdat any

$_ZNSt5stackIPN4node18MemoryRetainerNodeESt5dequeIS2_SaIS2_EEE3popEv = comdat any

$_ZNSt5dequeIPN4node18MemoryRetainerNodeESaIS2_EE8pop_backEv = comdat any

$_ZNSt16allocator_traitsISaIPN4node18MemoryRetainerNodeEEE7destroyIS2_EEvRS3_PT_ = comdat any

$_ZNSt11_Deque_baseIPN4node18MemoryRetainerNodeESaIS2_EE19_M_get_Tp_allocatorEv = comdat any

$_ZNSt5dequeIPN4node18MemoryRetainerNodeESaIS2_EE15_M_pop_back_auxEv = comdat any

$_ZNSt15__new_allocatorIPN4node18MemoryRetainerNodeEE7destroyIS2_EEvPT_ = comdat any

$_ZNSt11_Deque_baseIPN4node18MemoryRetainerNodeESaIS2_EE18_M_deallocate_nodeEPS2_ = comdat any

$_ZNSt16allocator_traitsISaIPN4node18MemoryRetainerNodeEEE10deallocateERS3_PS2_m = comdat any

$_ZNSt15__new_allocatorIPN4node18MemoryRetainerNodeEE10deallocateEPS2_m = comdat any

$_ZSt8_DestroyIPN4node12CleanupQueue19CleanupHookCallbackES2_EvT_S4_RSaIT0_E = comdat any

$_ZNSt12_Vector_baseIN4node12CleanupQueue19CleanupHookCallbackESaIS2_EE19_M_get_Tp_allocatorEv = comdat any

$_ZNSt12_Vector_baseIN4node12CleanupQueue19CleanupHookCallbackESaIS2_EED2Ev = comdat any

$_ZSt8_DestroyIPN4node12CleanupQueue19CleanupHookCallbackEEvT_S4_ = comdat any

$_ZNSt12_Destroy_auxILb1EE9__destroyIPN4node12CleanupQueue19CleanupHookCallbackEEEvT_S6_ = comdat any

$_ZNSt12_Vector_baseIN4node12CleanupQueue19CleanupHookCallbackESaIS2_EE13_M_deallocateEPS2_m = comdat any

$_ZNSt12_Vector_baseIN4node12CleanupQueue19CleanupHookCallbackESaIS2_EE12_Vector_implD2Ev = comdat any

$_ZNSt16allocator_traitsISaIN4node12CleanupQueue19CleanupHookCallbackEEE10deallocateERS3_PS2_m = comdat any

$_ZNSt15__new_allocatorIN4node12CleanupQueue19CleanupHookCallbackEE10deallocateEPS2_m = comdat any

$_ZNSaIN4node12CleanupQueue19CleanupHookCallbackEED2Ev = comdat any

$_ZNSt15__new_allocatorIN4node12CleanupQueue19CleanupHookCallbackEED2Ev = comdat any

$_ZNKSt13unordered_setIN4node12CleanupQueue19CleanupHookCallbackENS2_4HashENS2_5EqualESaIS2_EE4sizeEv = comdat any

$_ZNKSt10_HashtableIN4node12CleanupQueue19CleanupHookCallbackES2_SaIS2_ENSt8__detail9_IdentityENS2_5EqualENS2_4HashENS4_18_Mod_range_hashingENS4_20_Default_ranged_hashENS4_20_Prime_rehash_policyENS4_17_Hashtable_traitsILb1ELb1ELb1EEEE4sizeEv = comdat any

$_ZNSt13unordered_setIN4node12CleanupQueue19CleanupHookCallbackENS2_4HashENS2_5EqualESaIS2_EED2Ev = comdat any

$_ZNSt10_HashtableIN4node12CleanupQueue19CleanupHookCallbackES2_SaIS2_ENSt8__detail9_IdentityENS2_5EqualENS2_4HashENS4_18_Mod_range_hashingENS4_20_Default_ranged_hashENS4_20_Prime_rehash_policyENS4_17_Hashtable_traitsILb1ELb1ELb1EEEED2Ev = comdat any

$_ZNSt10_HashtableIN4node12CleanupQueue19CleanupHookCallbackES2_SaIS2_ENSt8__detail9_IdentityENS2_5EqualENS2_4HashENS4_18_Mod_range_hashingENS4_20_Default_ranged_hashENS4_20_Prime_rehash_policyENS4_17_Hashtable_traitsILb1ELb1ELb1EEEE5clearEv = comdat any

$_ZNSt10_HashtableIN4node12CleanupQueue19CleanupHookCallbackES2_SaIS2_ENSt8__detail9_IdentityENS2_5EqualENS2_4HashENS4_18_Mod_range_hashingENS4_20_Default_ranged_hashENS4_20_Prime_rehash_policyENS4_17_Hashtable_traitsILb1ELb1ELb1EEEE21_M_deallocate_bucketsEv = comdat any

$_ZNSt8__detail16_Hashtable_allocISaINS_10_Hash_nodeIN4node12CleanupQueue19CleanupHookCallbackELb1EEEEED2Ev = comdat any

$_ZNSt8__detail16_Hashtable_allocISaINS_10_Hash_nodeIN4node12CleanupQueue19CleanupHookCallbackELb1EEEEE19_M_deallocate_nodesEPS5_ = comdat any

$_ZNKSt10_HashtableIN4node12CleanupQueue19CleanupHookCallbackES2_SaIS2_ENSt8__detail9_IdentityENS2_5EqualENS2_4HashENS4_18_Mod_range_hashingENS4_20_Default_ranged_hashENS4_20_Prime_rehash_policyENS4_17_Hashtable_traitsILb1ELb1ELb1EEEE8_M_beginEv = comdat any

$_ZNKSt8__detail10_Hash_nodeIN4node12CleanupQueue19CleanupHookCallbackELb1EE7_M_nextEv = comdat any

$_ZNSt8__detail16_Hashtable_allocISaINS_10_Hash_nodeIN4node12CleanupQueue19CleanupHookCallbackELb1EEEEE18_M_deallocate_nodeEPS5_ = comdat any

$_ZNSt16allocator_traitsISaINSt8__detail10_Hash_nodeIN4node12CleanupQueue19CleanupHookCallbackELb1EEEEE7destroyIS4_EEvRS6_PT_ = comdat any

$_ZNSt8__detail16_Hashtable_allocISaINS_10_Hash_nodeIN4node12CleanupQueue19CleanupHookCallbackELb1EEEEE17_M_node_allocatorEv = comdat any

$_ZNSt8__detail21_Hash_node_value_baseIN4node12CleanupQueue19CleanupHookCallbackEE9_M_valptrEv = comdat any

$_ZNSt8__detail16_Hashtable_allocISaINS_10_Hash_nodeIN4node12CleanupQueue19CleanupHookCallbackELb1EEEEE22_M_deallocate_node_ptrEPS5_ = comdat any

$_ZNSt15__new_allocatorINSt8__detail10_Hash_nodeIN4node12CleanupQueue19CleanupHookCallbackELb1EEEE7destroyIS4_EEvPT_ = comdat any

$_ZNSt8__detail21_Hashtable_ebo_helperILi0ESaINS_10_Hash_nodeIN4node12CleanupQueue19CleanupHookCallbackELb1EEEELb1EE6_M_getEv = comdat any

$_ZN9__gnu_cxx16__aligned_bufferIN4node12CleanupQueue19CleanupHookCallbackEE6_M_ptrEv = comdat any

$_ZN9__gnu_cxx16__aligned_bufferIN4node12CleanupQueue19CleanupHookCallbackEE7_M_addrEv = comdat any

$_ZNSt19__ptr_traits_ptr_toIPNSt8__detail10_Hash_nodeIN4node12CleanupQueue19CleanupHookCallbackELb1EEES5_Lb0EE10pointer_toERS5_ = comdat any

$_ZNSt16allocator_traitsISaINSt8__detail10_Hash_nodeIN4node12CleanupQueue19CleanupHookCallbackELb1EEEEE10deallocateERS6_PS5_m = comdat any

$_ZNSt15__new_allocatorINSt8__detail10_Hash_nodeIN4node12CleanupQueue19CleanupHookCallbackELb1EEEE10deallocateEPS5_m = comdat any

$_ZNSt10_HashtableIN4node12CleanupQueue19CleanupHookCallbackES2_SaIS2_ENSt8__detail9_IdentityENS2_5EqualENS2_4HashENS4_18_Mod_range_hashingENS4_20_Default_ranged_hashENS4_20_Prime_rehash_policyENS4_17_Hashtable_traitsILb1ELb1ELb1EEEE21_M_deallocate_bucketsEPPNS4_15_Hash_node_baseEm = comdat any

$_ZNKSt10_HashtableIN4node12CleanupQueue19CleanupHookCallbackES2_SaIS2_ENSt8__detail9_IdentityENS2_5EqualENS2_4HashENS4_18_Mod_range_hashingENS4_20_Default_ranged_hashENS4_20_Prime_rehash_policyENS4_17_Hashtable_traitsILb1ELb1ELb1EEEE21_M_uses_single_bucketEPPNS4_15_Hash_node_baseE = comdat any

$_ZNSt8__detail16_Hashtable_allocISaINS_10_Hash_nodeIN4node12CleanupQueue19CleanupHookCallbackELb1EEEEE21_M_deallocate_bucketsEPPNS_15_Hash_node_baseEm = comdat any

$_ZNSaIPNSt8__detail15_Hash_node_baseEEC2INS_10_Hash_nodeIN4node12CleanupQueue19CleanupHookCallbackELb1EEEEERKSaIT_E = comdat any

$_ZNSt8__detail21_Hashtable_ebo_helperILi0ESaINS_10_Hash_nodeIN4node12CleanupQueue19CleanupHookCallbackELb1EEEELb1EED2Ev = comdat any

$_ZNSaINSt8__detail10_Hash_nodeIN4node12CleanupQueue19CleanupHookCallbackELb1EEEED2Ev = comdat any

$_ZNSt15__new_allocatorINSt8__detail10_Hash_nodeIN4node12CleanupQueue19CleanupHookCallbackELb1EEEED2Ev = comdat any

$_ZN4node17BaseObjectPtrImplINS_10BaseObjectELb1EED2Ev = comdat any

$_ZNK4node17BaseObjectPtrImplINS_10BaseObjectELb1EE12pointer_dataEv = comdat any

$_ZNSt8_Rb_treeINSt7__cxx1112basic_stringIcSt11char_traitsIcESaIcEEES5_St9_IdentityIS5_ESt4lessIS5_ESaIS5_EED2Ev = comdat any

$_ZNSt8_Rb_treeINSt7__cxx1112basic_stringIcSt11char_traitsIcESaIcEEES5_St9_IdentityIS5_ESt4lessIS5_ESaIS5_EE8_M_eraseEPSt13_Rb_tree_nodeIS5_E = comdat any

$_ZNSt8_Rb_treeINSt7__cxx1112basic_stringIcSt11char_traitsIcESaIcEEES5_St9_IdentityIS5_ESt4lessIS5_ESaIS5_EE8_M_beginEv = comdat any

$_ZNSt8_Rb_treeINSt7__cxx1112basic_stringIcSt11char_traitsIcESaIcEEES5_St9_IdentityIS5_ESt4lessIS5_ESaIS5_EE13_Rb_tree_implIS9_Lb1EED2Ev = comdat any

$_ZNSt8_Rb_treeINSt7__cxx1112basic_stringIcSt11char_traitsIcESaIcEEES5_St9_IdentityIS5_ESt4lessIS5_ESaIS5_EE8_S_rightEPSt18_Rb_tree_node_base = comdat any

$_ZNSt8_Rb_treeINSt7__cxx1112basic_stringIcSt11char_traitsIcESaIcEEES5_St9_IdentityIS5_ESt4lessIS5_ESaIS5_EE7_S_leftEPSt18_Rb_tree_node_base = comdat any

$_ZNSt8_Rb_treeINSt7__cxx1112basic_stringIcSt11char_traitsIcESaIcEEES5_St9_IdentityIS5_ESt4lessIS5_ESaIS5_EE12_M_drop_nodeEPSt13_Rb_tree_nodeIS5_E = comdat any

$_ZNSt8_Rb_treeINSt7__cxx1112basic_stringIcSt11char_traitsIcESaIcEEES5_St9_IdentityIS5_ESt4lessIS5_ESaIS5_EE15_M_destroy_nodeEPSt13_Rb_tree_nodeIS5_E = comdat any

$_ZNSt8_Rb_treeINSt7__cxx1112basic_stringIcSt11char_traitsIcESaIcEEES5_St9_IdentityIS5_ESt4lessIS5_ESaIS5_EE11_M_put_nodeEPSt13_Rb_tree_nodeIS5_E = comdat any

$_ZNSt16allocator_traitsISaISt13_Rb_tree_nodeINSt7__cxx1112basic_stringIcSt11char_traitsIcESaIcEEEEEE7destroyIS6_EEvRS8_PT_ = comdat any

$_ZNSt8_Rb_treeINSt7__cxx1112basic_stringIcSt11char_traitsIcESaIcEEES5_St9_IdentityIS5_ESt4lessIS5_ESaIS5_EE21_M_get_Node_allocatorEv = comdat any

$_ZNSt13_Rb_tree_nodeINSt7__cxx1112basic_stringIcSt11char_traitsIcESaIcEEEE9_M_valptrEv = comdat any

$_ZNSt15__new_allocatorISt13_Rb_tree_nodeINSt7__cxx1112basic_stringIcSt11char_traitsIcESaIcEEEEE7destroyIS6_EEvPT_ = comdat any

$_ZN9__gnu_cxx16__aligned_membufINSt7__cxx1112basic_stringIcSt11char_traitsIcESaIcEEEE6_M_ptrEv = comdat any

$_ZN9__gnu_cxx16__aligned_membufINSt7__cxx1112basic_stringIcSt11char_traitsIcESaIcEEEE7_M_addrEv = comdat any

$_ZNSt16allocator_traitsISaISt13_Rb_tree_nodeINSt7__cxx1112basic_stringIcSt11char_traitsIcESaIcEEEEEE10deallocateERS8_PS7_m = comdat any

$_ZNSt15__new_allocatorISt13_Rb_tree_nodeINSt7__cxx1112basic_stringIcSt11char_traitsIcESaIcEEEEE10deallocateEPS7_m = comdat any

$_ZNKSt8_Rb_treeINSt7__cxx1112basic_stringIcSt11char_traitsIcESaIcEEES5_St9_IdentityIS5_ESt4lessIS5_ESaIS5_EE9_M_mbeginEv = comdat any

$_ZNSaISt13_Rb_tree_nodeINSt7__cxx1112basic_stringIcSt11char_traitsIcESaIcEEEEED2Ev = comdat any

$_ZNSt15__new_allocatorISt13_Rb_tree_nodeINSt7__cxx1112basic_stringIcSt11char_traitsIcESaIcEEEEED2Ev = comdat any

$_ZNSt8_Rb_treeIPN4node11node_moduleES2_St9_IdentityIS2_ESt4lessIS2_ESaIS2_EED2Ev = comdat any

$_ZNSt8_Rb_treeIPN4node11node_moduleES2_St9_IdentityIS2_ESt4lessIS2_ESaIS2_EE8_M_eraseEPSt13_Rb_tree_nodeIS2_E = comdat any

$_ZNSt8_Rb_treeIPN4node11node_moduleES2_St9_IdentityIS2_ESt4lessIS2_ESaIS2_EE8_M_beginEv = comdat any

$_ZNSt8_Rb_treeIPN4node11node_moduleES2_St9_IdentityIS2_ESt4lessIS2_ESaIS2_EE13_Rb_tree_implIS6_Lb1EED2Ev = comdat any

$_ZNSt8_Rb_treeIPN4node11node_moduleES2_St9_IdentityIS2_ESt4lessIS2_ESaIS2_EE8_S_rightEPSt18_Rb_tree_node_base = comdat any

$_ZNSt8_Rb_treeIPN4node11node_moduleES2_St9_IdentityIS2_ESt4lessIS2_ESaIS2_EE7_S_leftEPSt18_Rb_tree_node_base = comdat any

$_ZNSt8_Rb_treeIPN4node11node_moduleES2_St9_IdentityIS2_ESt4lessIS2_ESaIS2_EE12_M_drop_nodeEPSt13_Rb_tree_nodeIS2_E = comdat any

$_ZNSt8_Rb_treeIPN4node11node_moduleES2_St9_IdentityIS2_ESt4lessIS2_ESaIS2_EE15_M_destroy_nodeEPSt13_Rb_tree_nodeIS2_E = comdat any

$_ZNSt8_Rb_treeIPN4node11node_moduleES2_St9_IdentityIS2_ESt4lessIS2_ESaIS2_EE11_M_put_nodeEPSt13_Rb_tree_nodeIS2_E = comdat any

$_ZNSt16allocator_traitsISaISt13_Rb_tree_nodeIPN4node11node_moduleEEEE7destroyIS3_EEvRS5_PT_ = comdat any

$_ZNSt8_Rb_treeIPN4node11node_moduleES2_St9_IdentityIS2_ESt4lessIS2_ESaIS2_EE21_M_get_Node_allocatorEv = comdat any

$_ZNSt13_Rb_tree_nodeIPN4node11node_moduleEE9_M_valptrEv = comdat any

$_ZNSt15__new_allocatorISt13_Rb_tree_nodeIPN4node11node_moduleEEE7destroyIS3_EEvPT_ = comdat any

$_ZN9__gnu_cxx16__aligned_membufIPN4node11node_moduleEE6_M_ptrEv = comdat any

$_ZN9__gnu_cxx16__aligned_membufIPN4node11node_moduleEE7_M_addrEv = comdat any

$_ZNSt16allocator_traitsISaISt13_Rb_tree_nodeIPN4node11node_moduleEEEE10deallocateERS5_PS4_m = comdat any

$_ZNSt15__new_allocatorISt13_Rb_tree_nodeIPN4node11node_moduleEEE10deallocateEPS4_m = comdat any

$_ZNKSt8_Rb_treeIPN4node11node_moduleES2_St9_IdentityIS2_ESt4lessIS2_ESaIS2_EE9_M_mbeginEv = comdat any

$_ZNSaISt13_Rb_tree_nodeIPN4node11node_moduleEEED2Ev = comdat any

$_ZNSt15__new_allocatorISt13_Rb_tree_nodeIPN4node11node_moduleEEED2Ev = comdat any

$_ZN4node13MemoryTracker10TrackFieldEPKcPKNS_14MemoryRetainerES2_ = comdat any

$_ZNK4node11Environment12isolate_dataEv = comdat any

$_ZNK4node11IsolateData18primordials_stringEv = comdat any

$_ZNSt6vectorIN4node8PropInfoESaIS1_EEC2Ev = comdat any

$_ZNSt12_Vector_baseIN4node8PropInfoESaIS1_EEC2Ev = comdat any

$_ZNSt12_Vector_baseIN4node8PropInfoESaIS1_EE12_Vector_implC2Ev = comdat any

$_ZNSaIN4node8PropInfoEEC2Ev = comdat any

$_ZNSt12_Vector_baseIN4node8PropInfoESaIS1_EE17_Vector_impl_dataC2Ev = comdat any

$_ZNSt15__new_allocatorIN4node8PropInfoEEC2Ev = comdat any

$_ZNSt6vectorIN4node8PropInfoESaIS1_EED2Ev = comdat any

$_ZSt8_DestroyIPN4node8PropInfoES1_EvT_S3_RSaIT0_E = comdat any

$_ZNSt12_Vector_baseIN4node8PropInfoESaIS1_EE19_M_get_Tp_allocatorEv = comdat any

$_ZNSt12_Vector_baseIN4node8PropInfoESaIS1_EED2Ev = comdat any

$_ZSt8_DestroyIPN4node8PropInfoEEvT_S3_ = comdat any

$_ZNSt12_Destroy_auxILb0EE9__destroyIPN4node8PropInfoEEEvT_S5_ = comdat any

$_ZSt8_DestroyIN4node8PropInfoEEvPT_ = comdat any

$_ZNSt12_Vector_baseIN4node8PropInfoESaIS1_EE13_M_deallocateEPS1_m = comdat any

$_ZNSt12_Vector_baseIN4node8PropInfoESaIS1_EE12_Vector_implD2Ev = comdat any

$_ZNSt16allocator_traitsISaIN4node8PropInfoEEE10deallocateERS2_PS1_m = comdat any

$_ZNSt15__new_allocatorIN4node8PropInfoEE10deallocateEPS1_m = comdat any

$_ZNSaIN4node8PropInfoEED2Ev = comdat any

$_ZNSt15__new_allocatorIN4node8PropInfoEED2Ev = comdat any

$_ZNSt10unique_ptrIN2v824ConvertableToTraceFormatESt14default_deleteIS1_EEC2IS3_vEEv = comdat any

$_ZNSt10unique_ptrIN2v824ConvertableToTraceFormatESt14default_deleteIS1_EE5resetEPS1_ = comdat any

$_ZNSt10unique_ptrIN2v824ConvertableToTraceFormatESt14default_deleteIS1_EED2Ev = comdat any

$_ZNSt15__uniq_ptr_dataIN2v824ConvertableToTraceFormatESt14default_deleteIS1_ELb1ELb1EEC2Ev = comdat any

$_ZNSt15__uniq_ptr_implIN2v824ConvertableToTraceFormatESt14default_deleteIS1_EEC2Ev = comdat any

$_ZNSt5tupleIJPN2v824ConvertableToTraceFormatESt14default_deleteIS1_EEEC2ILb1ETnNSt9enable_ifIXclsr17_TupleConstraintsIXT_ES2_S4_EE37__is_implicitly_default_constructibleEEbE4typeELb1EEEv = comdat any

$_ZNSt11_Tuple_implILm0EJPN2v824ConvertableToTraceFormatESt14default_deleteIS1_EEEC2Ev = comdat any

$_ZNSt11_Tuple_implILm1EJSt14default_deleteIN2v824ConvertableToTraceFormatEEEEC2Ev = comdat any

$_ZNSt10_Head_baseILm0EPN2v824ConvertableToTraceFormatELb0EEC2Ev = comdat any

$_ZNSt10_Head_baseILm1ESt14default_deleteIN2v824ConvertableToTraceFormatEELb1EEC2Ev = comdat any

$_ZNSt15__uniq_ptr_implIN2v824ConvertableToTraceFormatESt14default_deleteIS1_EE5resetEPS1_ = comdat any

$_ZNSt15__uniq_ptr_implIN2v824ConvertableToTraceFormatESt14default_deleteIS1_EE6_M_ptrEv = comdat any

$_ZNSt15__uniq_ptr_implIN2v824ConvertableToTraceFormatESt14default_deleteIS1_EE10_M_deleterEv = comdat any

$_ZNKSt14default_deleteIN2v824ConvertableToTraceFormatEEclEPS1_ = comdat any

$_ZSt3getILm0EJPN2v824ConvertableToTraceFormatESt14default_deleteIS1_EEERNSt13tuple_elementIXT_ESt5tupleIJDpT0_EEE4typeERS9_ = comdat any

$_ZSt12__get_helperILm0EPN2v824ConvertableToTraceFormatEJSt14default_deleteIS1_EEERT0_RSt11_Tuple_implIXT_EJS5_DpT1_EE = comdat any

$_ZNSt11_Tuple_implILm0EJPN2v824ConvertableToTraceFormatESt14default_deleteIS1_EEE7_M_headERS5_ = comdat any

$_ZNSt10_Head_baseILm0EPN2v824ConvertableToTraceFormatELb0EE7_M_headERS3_ = comdat any

$_ZSt3getILm1EJPN2v824ConvertableToTraceFormatESt14default_deleteIS1_EEERNSt13tuple_elementIXT_ESt5tupleIJDpT0_EEE4typeERS9_ = comdat any

$_ZSt12__get_helperILm1ESt14default_deleteIN2v824ConvertableToTraceFormatEEJEERT0_RSt11_Tuple_implIXT_EJS4_DpT1_EE = comdat any

$_ZNSt11_Tuple_implILm1EJSt14default_deleteIN2v824ConvertableToTraceFormatEEEE7_M_headERS4_ = comdat any

$_ZNSt10_Head_baseILm1ESt14default_deleteIN2v824ConvertableToTraceFormatEELb1EE7_M_headERS4_ = comdat any

$_ZNSt10unique_ptrIN2v824ConvertableToTraceFormatESt14default_deleteIS1_EE11get_deleterEv = comdat any

$_ZNSt14__array_traitsIN4node17BaseObjectPtrImplINS0_10BaseObjectELb1EEELm12EE6_S_refERA12_KS3_m = comdat any

$_ZNSt10shared_ptrIN4node18EnvironmentOptionsEEC2ERKS2_ = comdat any

$_ZNSt12__shared_ptrIN4node18EnvironmentOptionsELN9__gnu_cxx12_Lock_policyE2EEC2ERKS4_ = comdat any

$_ZNSt14__shared_countILN9__gnu_cxx12_Lock_policyE2EEC2ERKS2_ = comdat any

$_ZNSt16_Sp_counted_baseILN9__gnu_cxx12_Lock_policyE2EE15_M_add_ref_copyEv = comdat any

$_ZNSt12__shared_ptrIN4node18EnvironmentOptionsELN9__gnu_cxx12_Lock_policyE2EED2Ev = comdat any

$_ZNSt14__shared_countILN9__gnu_cxx12_Lock_policyE2EED2Ev = comdat any

$_ZNSt16_Sp_counted_baseILN9__gnu_cxx12_Lock_policyE2EE10_M_releaseEv = comdat any

$_ZNSt16_Sp_counted_baseILN9__gnu_cxx12_Lock_policyE2EE24_M_release_last_use_coldEv = comdat any

$_ZNSt16_Sp_counted_baseILN9__gnu_cxx12_Lock_policyE2EE19_M_release_last_useEv = comdat any

$_ZNK4node11Environment14worker_contextEv = comdat any

$_ZNK4node11IsolateData14worker_contextEv = comdat any

$_ZNSt15__new_allocatorINSt7__cxx1112basic_stringIcSt11char_traitsIcESaIcEEEED2Ev = comdat any

$_ZSt8_DestroyIPNSt7__cxx1112basic_stringIcSt11char_traitsIcESaIcEEES5_EvT_S7_RSaIT0_E = comdat any

$_ZNSt12_Vector_baseINSt7__cxx1112basic_stringIcSt11char_traitsIcESaIcEEESaIS5_EE19_M_get_Tp_allocatorEv = comdat any

$_ZNSt12_Vector_baseINSt7__cxx1112basic_stringIcSt11char_traitsIcESaIcEEESaIS5_EED2Ev = comdat any

$_ZSt8_DestroyIPNSt7__cxx1112basic_stringIcSt11char_traitsIcESaIcEEEEvT_S7_ = comdat any

$_ZNSt12_Destroy_auxILb0EE9__destroyIPNSt7__cxx1112basic_stringIcSt11char_traitsIcESaIcEEEEEvT_S9_ = comdat any

$_ZSt8_DestroyINSt7__cxx1112basic_stringIcSt11char_traitsIcESaIcEEEEvPT_ = comdat any

$_ZNSt12_Vector_baseINSt7__cxx1112basic_stringIcSt11char_traitsIcESaIcEEESaIS5_EE13_M_deallocateEPS5_m = comdat any

$_ZNSt12_Vector_baseINSt7__cxx1112basic_stringIcSt11char_traitsIcESaIcEEESaIS5_EE12_Vector_implD2Ev = comdat any

$_ZNSt16allocator_traitsISaINSt7__cxx1112basic_stringIcSt11char_traitsIcESaIcEEEEE10deallocateERS6_PS5_m = comdat any

$_ZNSt15__new_allocatorINSt7__cxx1112basic_stringIcSt11char_traitsIcESaIcEEEE10deallocateEPS5_m = comdat any

$_ZNKSt19__shared_ptr_accessIN4node18EnvironmentOptionsELN9__gnu_cxx12_Lock_policyE2ELb0ELb0EE6_M_getEv = comdat any

$_ZNKSt12__shared_ptrIN4node18EnvironmentOptionsELN9__gnu_cxx12_Lock_policyE2EE3getEv = comdat any

$_ZNSt11char_traitsIcE6lengthEPKc = comdat any

$_ZNSt7__cxx1112basic_stringIcSt11char_traitsIcESaIcEE12_M_constructIPKcEEvT_S8_St20forward_iterator_tag = comdat any

$_ZSt8distanceIPKcENSt15iterator_traitsIT_E15difference_typeES3_S3_ = comdat any

$_ZZNSt7__cxx1112basic_stringIcSt11char_traitsIcESaIcEE12_M_constructIPKcEEvT_S8_St20forward_iterator_tagEN6_GuardC2EPS4_ = comdat any

$_ZZNSt7__cxx1112basic_stringIcSt11char_traitsIcESaIcEE12_M_constructIPKcEEvT_S8_St20forward_iterator_tagEN6_GuardD2Ev = comdat any

$_ZSt10__distanceIPKcENSt15iterator_traitsIT_E15difference_typeES3_S3_St26random_access_iterator_tag = comdat any

$_ZSt19__iterator_categoryIPKcENSt15iterator_traitsIT_E17iterator_categoryERKS3_ = comdat any

$_ZSteqRKSt23_Rb_tree_const_iteratorINSt7__cxx1112basic_stringIcSt11char_traitsIcESaIcEEEES8_ = comdat any

$_ZN4node13MemoryTracker8PushNodeEPKcmS2_ = comdat any

$_ZN4node11GetNodeNameEPKcS1_ = comdat any

$_ZN4node13MemoryTracker10TrackFieldIcEEvPKcRKNSt7__cxx1112basic_stringIT_St11char_traitsIS6_ESaIS6_EEES3_ = comdat any

$_ZN4node13MemoryTracker7AddNodeEPKcmS2_ = comdat any

$_ZN4node18MemoryRetainerNodeC2EPNS_13MemoryTrackerEPKcmb = comdat any

$_ZN4node13MemoryTracker18TrackFieldWithSizeEPKcmS2_ = comdat any

$_ZN4node13OneByteStringEPN2v87IsolateEPKci = comdat any

$_ZNKSt8_Rb_treeINSt7__cxx1112basic_stringIcSt11char_traitsIcESaIcEEES5_St9_IdentityIS5_ESt4lessIS5_ESaIS5_EE5beginEv = comdat any

$_ZNSt23_Rb_tree_const_iteratorINSt7__cxx1112basic_stringIcSt11char_traitsIcESaIcEEEEC2EPKSt18_Rb_tree_node_base = comdat any

$_ZNKSt8_Rb_treeINSt7__cxx1112basic_stringIcSt11char_traitsIcESaIcEEES5_St9_IdentityIS5_ESt4lessIS5_ESaIS5_EE3endEv = comdat any

$_ZNSt12_Vector_baseINSt7__cxx1112basic_stringIcSt11char_traitsIcESaIcEEESaIS5_EEC2ERKS6_ = comdat any

$_ZNSt6vectorINSt7__cxx1112basic_stringIcSt11char_traitsIcESaIcEEESaIS5_EE19_M_range_initializeISt23_Rb_tree_const_iteratorIS5_EEEvT_SB_St20forward_iterator_tag = comdat any

$_ZSt19__iterator_categoryISt23_Rb_tree_const_iteratorINSt7__cxx1112basic_stringIcSt11char_traitsIcESaIcEEEEENSt15iterator_traitsIT_E17iterator_categoryERKS9_ = comdat any

$_ZNSt12_Vector_baseINSt7__cxx1112basic_stringIcSt11char_traitsIcESaIcEEESaIS5_EE12_Vector_implC2ERKS6_ = comdat any

$_ZNSt15__new_allocatorINSt7__cxx1112basic_stringIcSt11char_traitsIcESaIcEEEEC2ERKS6_ = comdat any

$_ZSt8distanceISt23_Rb_tree_const_iteratorINSt7__cxx1112basic_stringIcSt11char_traitsIcESaIcEEEEENSt15iterator_traitsIT_E15difference_typeES9_S9_ = comdat any

$_ZNSt12_Vector_baseINSt7__cxx1112basic_stringIcSt11char_traitsIcESaIcEEESaIS5_EE11_M_allocateEm = comdat any

$_ZNSt6vectorINSt7__cxx1112basic_stringIcSt11char_traitsIcESaIcEEESaIS5_EE17_S_check_init_lenEmRKS6_ = comdat any

$_ZSt22__uninitialized_copy_aISt23_Rb_tree_const_iteratorINSt7__cxx1112basic_stringIcSt11char_traitsIcESaIcEEEEPS6_S6_ET0_T_SA_S9_RSaIT1_E = comdat any

$_ZSt10__distanceISt23_Rb_tree_const_iteratorINSt7__cxx1112basic_stringIcSt11char_traitsIcESaIcEEEEENSt15iterator_traitsIT_E15difference_typeES9_S9_St18input_iterator_tag = comdat any

$_ZNSt16allocator_traitsISaINSt7__cxx1112basic_stringIcSt11char_traitsIcESaIcEEEEE8allocateERS6_m = comdat any

$_ZNSt15__new_allocatorINSt7__cxx1112basic_stringIcSt11char_traitsIcESaIcEEEE8allocateEmPKv = comdat any

$_ZNKSt15__new_allocatorINSt7__cxx1112basic_stringIcSt11char_traitsIcESaIcEEEE11_M_max_sizeEv = comdat any

$_ZNSt6vectorINSt7__cxx1112basic_stringIcSt11char_traitsIcESaIcEEESaIS5_EE11_S_max_sizeERKS6_ = comdat any

$_ZNSaINSt7__cxx1112basic_stringIcSt11char_traitsIcESaIcEEEEC2ERKS5_ = comdat any

$_ZNSt16allocator_traitsISaINSt7__cxx1112basic_stringIcSt11char_traitsIcESaIcEEEEE8max_sizeERKS6_ = comdat any

$_ZNKSt15__new_allocatorINSt7__cxx1112basic_stringIcSt11char_traitsIcESaIcEEEE8max_sizeEv = comdat any

$_ZSt18uninitialized_copyISt23_Rb_tree_const_iteratorINSt7__cxx1112basic_stringIcSt11char_traitsIcESaIcEEEEPS6_ET0_T_SA_S9_ = comdat any

$_ZNSt20__uninitialized_copyILb0EE13__uninit_copyISt23_Rb_tree_const_iteratorINSt7__cxx1112basic_stringIcSt11char_traitsIcESaIcEEEEPS8_EET0_T_SC_SB_ = comdat any

$_ZSt16__do_uninit_copyISt23_Rb_tree_const_iteratorINSt7__cxx1112basic_stringIcSt11char_traitsIcESaIcEEEEPS6_ET0_T_SA_S9_ = comdat any

$_ZSt10_ConstructINSt7__cxx1112basic_stringIcSt11char_traitsIcESaIcEEEJRKS5_EEvPT_DpOT0_ = comdat any

$_ZNSt6vectorINSt7__cxx1112basic_stringIcSt11char_traitsIcESaIcEEESaIS5_EE14_M_move_assignEOS7_St17integral_constantIbLb1EE = comdat any

$_ZNKSt12_Vector_baseINSt7__cxx1112basic_stringIcSt11char_traitsIcESaIcEEESaIS5_EE13get_allocatorEv = comdat any

$_ZNSt6vectorINSt7__cxx1112basic_stringIcSt11char_traitsIcESaIcEEESaIS5_EEC2ERKS6_ = comdat any

$_ZNSt12_Vector_baseINSt7__cxx1112basic_stringIcSt11char_traitsIcESaIcEEESaIS5_EE17_Vector_impl_data12_M_swap_dataERS8_ = comdat any

$_ZSt15__alloc_on_moveISaINSt7__cxx1112basic_stringIcSt11char_traitsIcESaIcEEEEEvRT_S8_ = comdat any

$_ZNKSt12_Vector_baseINSt7__cxx1112basic_stringIcSt11char_traitsIcESaIcEEESaIS5_EE19_M_get_Tp_allocatorEv = comdat any

$_ZNSt12_Vector_baseINSt7__cxx1112basic_stringIcSt11char_traitsIcESaIcEEESaIS5_EE17_Vector_impl_dataC2Ev = comdat any

$_ZNSt12_Vector_baseINSt7__cxx1112basic_stringIcSt11char_traitsIcESaIcEEESaIS5_EE17_Vector_impl_data12_M_copy_dataERKS8_ = comdat any

$_ZNSt6vectorIN4node8PropInfoESaIS1_EE12emplace_backIJS1_EEERS1_DpOT_ = comdat any

$_ZNSt16allocator_traitsISaIN4node8PropInfoEEE9constructIS1_JS1_EEEvRS2_PT_DpOT0_ = comdat any

$_ZNSt6vectorIN4node8PropInfoESaIS1_EE17_M_realloc_insertIJS1_EEEvN9__gnu_cxx17__normal_iteratorIPS1_S3_EEDpOT_ = comdat any

$_ZNSt6vectorIN4node8PropInfoESaIS1_EE3endEv = comdat any

$_ZNSt6vectorIN4node8PropInfoESaIS1_EE4backEv = comdat any

$_ZNSt15__new_allocatorIN4node8PropInfoEE9constructIS1_JS1_EEEvPT_DpOT0_ = comdat any

$_ZN4node8PropInfoC2EOS0_ = comdat any

$_ZNKSt6vectorIN4node8PropInfoESaIS1_EE12_M_check_lenEmPKc = comdat any

$_ZN9__gnu_cxxmiIPN4node8PropInfoESt6vectorIS2_SaIS2_EEEENS_17__normal_iteratorIT_T0_E15difference_typeERKSA_SD_ = comdat any

$_ZNSt6vectorIN4node8PropInfoESaIS1_EE5beginEv = comdat any

$_ZNSt12_Vector_baseIN4node8PropInfoESaIS1_EE11_M_allocateEm = comdat any

$_ZNSt6vectorIN4node8PropInfoESaIS1_EE11_S_relocateEPS1_S4_S4_RS2_ = comdat any

$_ZNK9__gnu_cxx17__normal_iteratorIPN4node8PropInfoESt6vectorIS2_SaIS2_EEE4baseEv = comdat any

$_ZNKSt6vectorIN4node8PropInfoESaIS1_EE8max_sizeEv = comdat any

$_ZNSt6vectorIN4node8PropInfoESaIS1_EE11_S_max_sizeERKS2_ = comdat any

$_ZNKSt12_Vector_baseIN4node8PropInfoESaIS1_EE19_M_get_Tp_allocatorEv = comdat any

$_ZNSt16allocator_traitsISaIN4node8PropInfoEEE8max_sizeERKS2_ = comdat any

$_ZNKSt15__new_allocatorIN4node8PropInfoEE8max_sizeEv = comdat any

$_ZNKSt15__new_allocatorIN4node8PropInfoEE11_M_max_sizeEv = comdat any

$_ZN9__gnu_cxx17__normal_iteratorIPN4node8PropInfoESt6vectorIS2_SaIS2_EEEC2ERKS3_ = comdat any

$_ZNSt16allocator_traitsISaIN4node8PropInfoEEE8allocateERS2_m = comdat any

$_ZNSt15__new_allocatorIN4node8PropInfoEE8allocateEmPKv = comdat any

$_ZSt12__relocate_aIPN4node8PropInfoES2_SaIS1_EET0_T_S5_S4_RT1_ = comdat any

$_ZSt14__relocate_a_1IPN4node8PropInfoES2_SaIS1_EET0_T_S5_S4_RT1_ = comdat any

$_ZSt12__niter_baseIPN4node8PropInfoEET_S3_ = comdat any

$_ZSt19__relocate_object_aIN4node8PropInfoES1_SaIS1_EEvPT_PT0_RT1_ = comdat any

$_ZNSt16allocator_traitsISaIN4node8PropInfoEEE7destroyIS1_EEvRS2_PT_ = comdat any

$_ZNSt15__new_allocatorIN4node8PropInfoEE7destroyIS1_EEvPT_ = comdat any

$_ZNK9__gnu_cxx17__normal_iteratorIPN4node8PropInfoESt6vectorIS2_SaIS2_EEEmiEl = comdat any

$_ZNK9__gnu_cxx17__normal_iteratorIPN4node8PropInfoESt6vectorIS2_SaIS2_EEEdeEv = comdat any

$_ZNKSt6vectorINSt7__cxx1112basic_stringIcSt11char_traitsIcESaIcEEESaIS5_EE4sizeEv = comdat any

$_ZNKSt6vectorINSt7__cxx1112basic_stringIcSt11char_traitsIcESaIcEEESaIS5_EE8capacityEv = comdat any

$_ZNSt6vectorINSt7__cxx1112basic_stringIcSt11char_traitsIcESaIcEEESaIS5_EE20_M_allocate_and_copyIN9__gnu_cxx17__normal_iteratorIPKS5_S7_EEEEPS5_mT_SF_ = comdat any

$_ZNKSt6vectorINSt7__cxx1112basic_stringIcSt11char_traitsIcESaIcEEESaIS5_EE5beginEv = comdat any

$_ZNKSt6vectorINSt7__cxx1112basic_stringIcSt11char_traitsIcESaIcEEESaIS5_EE3endEv = comdat any

$_ZSt8_DestroyIN9__gnu_cxx17__normal_iteratorIPNSt7__cxx1112basic_stringIcSt11char_traitsIcESaIcEEESt6vectorIS7_SaIS7_EEEES7_EvT_SD_RSaIT0_E = comdat any

$_ZSt4copyIN9__gnu_cxx17__normal_iteratorIPKNSt7__cxx1112basic_stringIcSt11char_traitsIcESaIcEEESt6vectorIS7_SaIS7_EEEENS1_IPS7_SC_EEET0_T_SH_SG_ = comdat any

$_ZNSt6vectorINSt7__cxx1112basic_stringIcSt11char_traitsIcESaIcEEESaIS5_EE5beginEv = comdat any

$_ZNSt6vectorINSt7__cxx1112basic_stringIcSt11char_traitsIcESaIcEEESaIS5_EE3endEv = comdat any

$_ZSt4copyIPNSt7__cxx1112basic_stringIcSt11char_traitsIcESaIcEEES6_ET0_T_S8_S7_ = comdat any

$_ZSt22__uninitialized_copy_aIPNSt7__cxx1112basic_stringIcSt11char_traitsIcESaIcEEES6_S5_ET0_T_S8_S7_RSaIT1_E = comdat any

$_ZSt22__uninitialized_copy_aIN9__gnu_cxx17__normal_iteratorIPKNSt7__cxx1112basic_stringIcSt11char_traitsIcESaIcEEESt6vectorIS7_SaIS7_EEEEPS7_S7_ET0_T_SG_SF_RSaIT1_E = comdat any

$_ZSt18uninitialized_copyIN9__gnu_cxx17__normal_iteratorIPKNSt7__cxx1112basic_stringIcSt11char_traitsIcESaIcEEESt6vectorIS7_SaIS7_EEEEPS7_ET0_T_SG_SF_ = comdat any

$_ZNSt20__uninitialized_copyILb0EE13__uninit_copyIN9__gnu_cxx17__normal_iteratorIPKNSt7__cxx1112basic_stringIcSt11char_traitsIcESaIcEEESt6vectorIS9_SaIS9_EEEEPS9_EET0_T_SI_SH_ = comdat any

$_ZSt16__do_uninit_copyIN9__gnu_cxx17__normal_iteratorIPKNSt7__cxx1112basic_stringIcSt11char_traitsIcESaIcEEESt6vectorIS7_SaIS7_EEEEPS7_ET0_T_SG_SF_ = comdat any

$_ZN9__gnu_cxxneIPKNSt7__cxx1112basic_stringIcSt11char_traitsIcESaIcEEESt6vectorIS6_SaIS6_EEEEbRKNS_17__normal_iteratorIT_T0_EESH_ = comdat any

$_ZNK9__gnu_cxx17__normal_iteratorIPKNSt7__cxx1112basic_stringIcSt11char_traitsIcESaIcEEESt6vectorIS6_SaIS6_EEEdeEv = comdat any

$_ZN9__gnu_cxx17__normal_iteratorIPKNSt7__cxx1112basic_stringIcSt11char_traitsIcESaIcEEESt6vectorIS6_SaIS6_EEEppEv = comdat any

$_ZNK9__gnu_cxx17__normal_iteratorIPKNSt7__cxx1112basic_stringIcSt11char_traitsIcESaIcEEESt6vectorIS6_SaIS6_EEE4baseEv = comdat any

$_ZN9__gnu_cxx17__normal_iteratorIPKNSt7__cxx1112basic_stringIcSt11char_traitsIcESaIcEEESt6vectorIS6_SaIS6_EEEC2ERKS8_ = comdat any

$_ZSt8_DestroyIN9__gnu_cxx17__normal_iteratorIPNSt7__cxx1112basic_stringIcSt11char_traitsIcESaIcEEESt6vectorIS7_SaIS7_EEEEEvT_SD_ = comdat any

$_ZNSt12_Destroy_auxILb0EE9__destroyIN9__gnu_cxx17__normal_iteratorIPNSt7__cxx1112basic_stringIcSt11char_traitsIcESaIcEEESt6vectorIS9_SaIS9_EEEEEEvT_SF_ = comdat any

$_ZN9__gnu_cxxneIPNSt7__cxx1112basic_stringIcSt11char_traitsIcESaIcEEESt6vectorIS6_SaIS6_EEEEbRKNS_17__normal_iteratorIT_T0_EESG_ = comdat any

$_ZNK9__gnu_cxx17__normal_iteratorIPNSt7__cxx1112basic_stringIcSt11char_traitsIcESaIcEEESt6vectorIS6_SaIS6_EEEdeEv = comdat any

$_ZN9__gnu_cxx17__normal_iteratorIPNSt7__cxx1112basic_stringIcSt11char_traitsIcESaIcEEESt6vectorIS6_SaIS6_EEEppEv = comdat any

$_ZNK9__gnu_cxx17__normal_iteratorIPNSt7__cxx1112basic_stringIcSt11char_traitsIcESaIcEEESt6vectorIS6_SaIS6_EEE4baseEv = comdat any

$_ZSt13__copy_move_aILb0EN9__gnu_cxx17__normal_iteratorIPKNSt7__cxx1112basic_stringIcSt11char_traitsIcESaIcEEESt6vectorIS7_SaIS7_EEEENS1_IPS7_SC_EEET1_T0_SH_SG_ = comdat any

$_ZSt12__miter_baseIN9__gnu_cxx17__normal_iteratorIPKNSt7__cxx1112basic_stringIcSt11char_traitsIcESaIcEEESt6vectorIS7_SaIS7_EEEEET_SE_ = comdat any

$_ZSt12__niter_wrapIN9__gnu_cxx17__normal_iteratorIPNSt7__cxx1112basic_stringIcSt11char_traitsIcESaIcEEESt6vectorIS7_SaIS7_EEEES8_ET_SD_T0_ = comdat any

$_ZSt14__copy_move_a1ILb0EPKNSt7__cxx1112basic_stringIcSt11char_traitsIcESaIcEEEPS5_ET1_T0_SA_S9_ = comdat any

$_ZSt12__niter_baseIPKNSt7__cxx1112basic_stringIcSt11char_traitsIcESaIcEEESt6vectorIS5_SaIS5_EEET_N9__gnu_cxx17__normal_iteratorISB_T0_EE = comdat any

$_ZSt12__niter_baseIPNSt7__cxx1112basic_stringIcSt11char_traitsIcESaIcEEESt6vectorIS5_SaIS5_EEET_N9__gnu_cxx17__normal_iteratorISA_T0_EE = comdat any

$_ZNK9__gnu_cxx17__normal_iteratorIPNSt7__cxx1112basic_stringIcSt11char_traitsIcESaIcEEESt6vectorIS6_SaIS6_EEEplEl = comdat any

$_ZN9__gnu_cxx17__normal_iteratorIPNSt7__cxx1112basic_stringIcSt11char_traitsIcESaIcEEESt6vectorIS6_SaIS6_EEEC2ERKS7_ = comdat any

$_ZSt14__copy_move_a2ILb0EPKNSt7__cxx1112basic_stringIcSt11char_traitsIcESaIcEEEPS5_ET1_T0_SA_S9_ = comdat any

$_ZNSt11__copy_moveILb0ELb0ESt26random_access_iterator_tagE8__copy_mIPKNSt7__cxx1112basic_stringIcSt11char_traitsIcESaIcEEEPS8_EET0_T_SD_SC_ = comdat any

$_ZSt13__copy_move_aILb0EPNSt7__cxx1112basic_stringIcSt11char_traitsIcESaIcEEES6_ET1_T0_S8_S7_ = comdat any

$_ZSt12__miter_baseIPNSt7__cxx1112basic_stringIcSt11char_traitsIcESaIcEEEET_S7_ = comdat any

$_ZSt12__niter_wrapIPNSt7__cxx1112basic_stringIcSt11char_traitsIcESaIcEEEET_RKS7_S7_ = comdat any

$_ZSt14__copy_move_a1ILb0EPNSt7__cxx1112basic_stringIcSt11char_traitsIcESaIcEEES6_ET1_T0_S8_S7_ = comdat any

$_ZSt12__niter_baseIPNSt7__cxx1112basic_stringIcSt11char_traitsIcESaIcEEEET_S7_ = comdat any

$_ZSt14__copy_move_a2ILb0EPNSt7__cxx1112basic_stringIcSt11char_traitsIcESaIcEEES6_ET1_T0_S8_S7_ = comdat any

$_ZNSt11__copy_moveILb0ELb0ESt26random_access_iterator_tagE8__copy_mIPNSt7__cxx1112basic_stringIcSt11char_traitsIcESaIcEEES9_EET0_T_SB_SA_ = comdat any

$_ZSt18uninitialized_copyIPNSt7__cxx1112basic_stringIcSt11char_traitsIcESaIcEEES6_ET0_T_S8_S7_ = comdat any

$_ZNSt20__uninitialized_copyILb0EE13__uninit_copyIPNSt7__cxx1112basic_stringIcSt11char_traitsIcESaIcEEES8_EET0_T_SA_S9_ = comdat any

$_ZSt16__do_uninit_copyIPNSt7__cxx1112basic_stringIcSt11char_traitsIcESaIcEEES6_ET0_T_S8_S7_ = comdat any

$_ZSt10_ConstructINSt7__cxx1112basic_stringIcSt11char_traitsIcESaIcEEEJRS5_EEvPT_DpOT0_ = comdat any

$_ZN2v88internal9CastCheckILb1EE7PerformINS_8FunctionEEEvPT_ = comdat any

$_ZN2v88internal9CastCheckILb1EE7PerformINS_6ObjectEEEvPT_ = comdat any

$_ZN2v88internal9CastCheckILb1EE7PerformINS_7ContextEEEvPT_ = comdat any

$_ZNK4node8ListNodeINS_11ReqWrapBaseEE7IsEmptyEv = comdat any

$_ZNK4node8ListNodeINS_10HandleWrapEE7IsEmptyEv = comdat any

$_ZStanSt12memory_orderSt23__memory_order_modifier = comdat any

$_ZN4node17BaseObjectPtrImplINS_10BaseObjectELb1EEC2EPS1_ = comdat any

$_ZN4node17BaseObjectPtrImplINS_10BaseObjectELb1EEaSEOS2_ = comdat any

$_ZN4node17BaseObjectPtrImplINS_10BaseObjectELb1EEC2EOS2_ = comdat any

$_ZNKSt13_Rb_tree_nodeINSt7__cxx1112basic_stringIcSt11char_traitsIcESaIcEEEE9_M_valptrEv = comdat any

$_ZNK9__gnu_cxx16__aligned_membufINSt7__cxx1112basic_stringIcSt11char_traitsIcESaIcEEEE6_M_ptrEv = comdat any

$_ZNK9__gnu_cxx16__aligned_membufINSt7__cxx1112basic_stringIcSt11char_traitsIcESaIcEEEE7_M_addrEv = comdat any

$_ZNKSt8_Rb_treeIPN4node11node_moduleES2_St9_IdentityIS2_ESt4lessIS2_ESaIS2_EE5beginEv = comdat any

$_ZNSt23_Rb_tree_const_iteratorIPN4node11node_moduleEEC2EPKSt18_Rb_tree_node_base = comdat any

$_ZNKSt8_Rb_treeIPN4node11node_moduleES2_St9_IdentityIS2_ESt4lessIS2_ESaIS2_EE3endEv = comdat any

$_ZNKSt13_Rb_tree_nodeIPN4node11node_moduleEE9_M_valptrEv = comdat any

$_ZNK9__gnu_cxx16__aligned_membufIPN4node11node_moduleEE6_M_ptrEv = comdat any

$_ZNK9__gnu_cxx16__aligned_membufIPN4node11node_moduleEE7_M_addrEv = comdat any

$_ZTVN4node14MemoryRetainerE = comdat any

$_ZTVN4node12CleanupQueueE = comdat any

$_ZZN4node13MemoryTracker5TrackEPKNS_14MemoryRetainerEPKcE4args = comdat any

$_ZZN4node13MemoryTracker5TrackEPKNS_14MemoryRetainerEPKcE4args_0 = comdat any

$_ZTVN4node18MemoryRetainerNodeE = comdat any

$_ZZN4node18MemoryRetainerNodeC1EPNS_13MemoryTrackerEPKNS_14MemoryRetainerEE4args = comdat any

$_ZTVN2v813EmbedderGraph4NodeE = comdat any

$_ZSt19piecewise_construct = comdat any

$_ZZN4node7tracing16TraceEventHelper23GetCategoryGroupEnabledEPKcE8disabled = comdat any

$_ZZN4node17BaseObjectPtrImplINS_10BaseObjectELb1EEC1EPS1_E4args = comdat any

@_ZStL8__ioinit = internal global %"class.std::ios_base::Init" zeroinitializer, align 1
@__dso_handle = external hidden global i8
@_ZTVN4node5RealmE = dso_local unnamed_addr constant { [132 x ptr] } { [132 x ptr] [ptr null, ptr null, ptr @_ZN4node5RealmD1Ev, ptr @_ZN4node5RealmD0Ev, ptr @_ZNK4node5Realm10MemoryInfoEPNS_13MemoryTrackerE, ptr @__cxa_pure_virtual, ptr @__cxa_pure_virtual, ptr @_ZNK4node14MemoryRetainer13WrappedObjectEv, ptr @_ZNK4node14MemoryRetainer10IsRootNodeEv, ptr @_ZNK4node14MemoryRetainer15GetDetachednessEv, ptr @_ZNK4node5Realm7contextEv, ptr @__cxa_pure_virtual, ptr @__cxa_pure_virtual, ptr @__cxa_pure_virtual, ptr @__cxa_pure_virtual, ptr @__cxa_pure_virtual, ptr @__cxa_pure_virtual, ptr @__cxa_pure_virtual, ptr @__cxa_pure_virtual, ptr @__cxa_pure_virtual, ptr @__cxa_pure_virtual, ptr @__cxa_pure_virtual, ptr @__cxa_pure_virtual, ptr @__cxa_pure_virtual, ptr @__cxa_pure_virtual, ptr @__cxa_pure_virtual, ptr @__cxa_pure_virtual, ptr @__cxa_pure_virtual, ptr @__cxa_pure_virtual, ptr @__cxa_pure_virtual, ptr @__cxa_pure_virtual, ptr @__cxa_pure_virtual, ptr @__cxa_pure_virtual, ptr @__cxa_pure_virtual, ptr @__cxa_pure_virtual, ptr @__cxa_pure_virtual, ptr @__cxa_pure_virtual, ptr @__cxa_pure_virtual, ptr @__cxa_pure_virtual, ptr @__cxa_pure_virtual, ptr @__cxa_pure_virtual, ptr @__cxa_pure_virtual, ptr @__cxa_pure_virtual, ptr @__cxa_pure_virtual, ptr @__cxa_pure_virtual, ptr @__cxa_pure_virtual, ptr @__cxa_pure_virtual, ptr @__cxa_pure_virtual, ptr @__cxa_pure_virtual, ptr @__cxa_pure_virtual, ptr @__cxa_pure_virtual, ptr @__cxa_pure_virtual, ptr @__cxa_pure_virtual, ptr @__cxa_pure_virtual, ptr @__cxa_pure_virtual, ptr @__cxa_pure_virtual, ptr @__cxa_pure_virtual, ptr @__cxa_pure_virtual, ptr @__cxa_pure_virtual, ptr @__cxa_pure_virtual, ptr @__cxa_pure_virtual, ptr @__cxa_pure_virtual, ptr @__cxa_pure_virtual, ptr @__cxa_pure_virtual, ptr @__cxa_pure_virtual, ptr @__cxa_pure_virtual, ptr @__cxa_pure_virtual, ptr @__cxa_pure_virtual, ptr @__cxa_pure_virtual, ptr @__cxa_pure_virtual, ptr @__cxa_pure_virtual, ptr @__cxa_pure_virtual, ptr @__cxa_pure_virtual, ptr @__cxa_pure_virtual, ptr @__cxa_pure_virtual, ptr @__cxa_pure_virtual, ptr @__cxa_pure_virtual, ptr @__cxa_pure_virtual, ptr @__cxa_pure_virtual, ptr @__cxa_pure_virtual, ptr @__cxa_pure_virtual, ptr @__cxa_pure_virtual, ptr @__cxa_pure_virtual, ptr @__cxa_pure_virtual, ptr @__cxa_pure_virtual, ptr @__cxa_pure_virtual, ptr @__cxa_pure_virtual, ptr @__cxa_pure_virtual, ptr @__cxa_pure_virtual, ptr @__cxa_pure_virtual, ptr @__cxa_pure_virtual, ptr @__cxa_pure_virtual, ptr @__cxa_pure_virtual, ptr @__cxa_pure_virtual, ptr @__cxa_pure_virtual, ptr @__cxa_pure_virtual, ptr @__cxa_pure_virtual, ptr @__cxa_pure_virtual, ptr @__cxa_pure_virtual, ptr @__cxa_pure_virtual, ptr @__cxa_pure_virtual, ptr @__cxa_pure_virtual, ptr @__cxa_pure_virtual, ptr @__cxa_pure_virtual, ptr @__cxa_pure_virtual, ptr @__cxa_pure_virtual, ptr @__cxa_pure_virtual, ptr @__cxa_pure_virtual, ptr @__cxa_pure_virtual, ptr @__cxa_pure_virtual, ptr @__cxa_pure_virtual, ptr @__cxa_pure_virtual, ptr @__cxa_pure_virtual, ptr @__cxa_pure_virtual, ptr @__cxa_pure_virtual, ptr @__cxa_pure_virtual, ptr @__cxa_pure_virtual, ptr @__cxa_pure_virtual, ptr @__cxa_pure_virtual, ptr @__cxa_pure_virtual, ptr @__cxa_pure_virtual, ptr @__cxa_pure_virtual, ptr @__cxa_pure_virtual, ptr @__cxa_pure_virtual, ptr @__cxa_pure_virtual, ptr @__cxa_pure_virtual, ptr @__cxa_pure_virtual, ptr @__cxa_pure_virtual, ptr @__cxa_pure_virtual, ptr @__cxa_pure_virtual, ptr @__cxa_pure_virtual, ptr @__cxa_pure_virtual] }, align 8
@.str = private unnamed_addr constant [1 x i8] zeroinitializer, align 1
@_ZZN4node5RealmD1EvE4args = internal constant %"struct.node::AssertionInfo" { ptr @.str.1, ptr @.str.2, ptr @.str.3 }, align 8
@.str.1 = private unnamed_addr constant [27 x i8] c"../../src/node_realm.cc:28\00", align 1
@.str.2 = private unnamed_addr constant [28 x i8] c"(base_object_count_) == (0)\00", align 1
@.str.3 = private unnamed_addr constant [30 x i8] c"virtual node::Realm::~Realm()\00", align 1
@.str.4 = private unnamed_addr constant [27 x i8] c"async_hooks_after_function\00", align 1
@.str.5 = private unnamed_addr constant [28 x i8] c"async_hooks_before_function\00", align 1
@.str.6 = private unnamed_addr constant [32 x i8] c"async_hooks_callback_trampoline\00", align 1
@.str.7 = private unnamed_addr constant [20 x i8] c"async_hooks_binding\00", align 1
@.str.8 = private unnamed_addr constant [29 x i8] c"async_hooks_destroy_function\00", align 1
@.str.9 = private unnamed_addr constant [26 x i8] c"async_hooks_init_function\00", align 1
@.str.10 = private unnamed_addr constant [37 x i8] c"async_hooks_promise_resolve_function\00", align 1
@.str.11 = private unnamed_addr constant [24 x i8] c"buffer_prototype_object\00", align 1
@.str.12 = private unnamed_addr constant [30 x i8] c"crypto_key_object_constructor\00", align 1
@.str.13 = private unnamed_addr constant [38 x i8] c"crypto_key_object_private_constructor\00", align 1
@.str.14 = private unnamed_addr constant [37 x i8] c"crypto_key_object_public_constructor\00", align 1
@.str.15 = private unnamed_addr constant [37 x i8] c"crypto_key_object_secret_constructor\00", align 1
@.str.16 = private unnamed_addr constant [22 x i8] c"domexception_function\00", align 1
@.str.17 = private unnamed_addr constant [36 x i8] c"enhance_fatal_stack_after_inspector\00", align 1
@.str.18 = private unnamed_addr constant [37 x i8] c"enhance_fatal_stack_before_inspector\00", align 1
@.str.19 = private unnamed_addr constant [28 x i8] c"get_source_map_error_source\00", align 1
@.str.20 = private unnamed_addr constant [40 x i8] c"host_import_module_dynamically_callback\00", align 1
@.str.21 = private unnamed_addr constant [44 x i8] c"host_initialize_import_meta_object_callback\00", align 1
@.str.22 = private unnamed_addr constant [32 x i8] c"http2session_on_altsvc_function\00", align 1
@.str.23 = private unnamed_addr constant [31 x i8] c"http2session_on_error_function\00", align 1
@.str.24 = private unnamed_addr constant [37 x i8] c"http2session_on_frame_error_function\00", align 1
@.str.25 = private unnamed_addr constant [37 x i8] c"http2session_on_goaway_data_function\00", align 1
@.str.26 = private unnamed_addr constant [33 x i8] c"http2session_on_headers_function\00", align 1
@.str.27 = private unnamed_addr constant [32 x i8] c"http2session_on_origin_function\00", align 1
@.str.28 = private unnamed_addr constant [30 x i8] c"http2session_on_ping_function\00", align 1
@.str.29 = private unnamed_addr constant [34 x i8] c"http2session_on_priority_function\00", align 1
@.str.30 = private unnamed_addr constant [34 x i8] c"http2session_on_settings_function\00", align 1
@.str.31 = private unnamed_addr constant [38 x i8] c"http2session_on_stream_close_function\00", align 1
@.str.32 = private unnamed_addr constant [41 x i8] c"http2session_on_stream_trailers_function\00", align 1
@.str.33 = private unnamed_addr constant [24 x i8] c"internal_binding_loader\00", align 1
@.str.34 = private unnamed_addr constant [28 x i8] c"immediate_callback_function\00", align 1
@.str.35 = private unnamed_addr constant [38 x i8] c"inspector_console_extension_installer\00", align 1
@.str.36 = private unnamed_addr constant [30 x i8] c"inspector_disable_async_hooks\00", align 1
@.str.37 = private unnamed_addr constant [29 x i8] c"inspector_enable_async_hooks\00", align 1
@.str.38 = private unnamed_addr constant [33 x i8] c"maybe_cache_generated_source_map\00", align 1
@.str.39 = private unnamed_addr constant [36 x i8] c"messaging_deserialize_create_object\00", align 1
@.str.40 = private unnamed_addr constant [13 x i8] c"message_port\00", align 1
@.str.41 = private unnamed_addr constant [23 x i8] c"builtin_module_require\00", align 1
@.str.42 = private unnamed_addr constant [27 x i8] c"performance_entry_callback\00", align 1
@.str.43 = private unnamed_addr constant [29 x i8] c"prepare_stack_trace_callback\00", align 1
@.str.44 = private unnamed_addr constant [15 x i8] c"process_object\00", align 1
@.str.45 = private unnamed_addr constant [12 x i8] c"primordials\00", align 1
@.str.46 = private unnamed_addr constant [38 x i8] c"primordials_safe_map_prototype_object\00", align 1
@.str.47 = private unnamed_addr constant [38 x i8] c"primordials_safe_set_prototype_object\00", align 1
@.str.48 = private unnamed_addr constant [43 x i8] c"primordials_safe_weak_map_prototype_object\00", align 1
@.str.49 = private unnamed_addr constant [43 x i8] c"primordials_safe_weak_set_prototype_object\00", align 1
@.str.50 = private unnamed_addr constant [21 x i8] c"promise_hook_handler\00", align 1
@.str.51 = private unnamed_addr constant [24 x i8] c"promise_reject_callback\00", align 1
@.str.52 = private unnamed_addr constant [28 x i8] c"snapshot_serialize_callback\00", align 1
@.str.53 = private unnamed_addr constant [30 x i8] c"snapshot_deserialize_callback\00", align 1
@.str.54 = private unnamed_addr constant [26 x i8] c"snapshot_deserialize_main\00", align 1
@.str.55 = private unnamed_addr constant [24 x i8] c"source_map_cache_getter\00", align 1
@.str.56 = private unnamed_addr constant [23 x i8] c"tick_callback_function\00", align 1
@.str.57 = private unnamed_addr constant [25 x i8] c"timers_callback_function\00", align 1
@.str.58 = private unnamed_addr constant [30 x i8] c"tls_wrap_constructor_function\00", align 1
@.str.59 = private unnamed_addr constant [30 x i8] c"trace_category_state_function\00", align 1
@.str.60 = private unnamed_addr constant [25 x i8] c"udp_constructor_function\00", align 1
@.str.61 = private unnamed_addr constant [25 x i8] c"url_constructor_function\00", align 1
@.str.62 = private unnamed_addr constant [32 x i8] c"wasm_streaming_compilation_impl\00", align 1
@.str.63 = private unnamed_addr constant [34 x i8] c"wasm_streaming_object_constructor\00", align 1
@.str.64 = private unnamed_addr constant [14 x i8] c"cleanup_queue\00", align 1
@.str.65 = private unnamed_addr constant [20 x i8] c"builtins_with_cache\00", align 1
@.str.66 = private unnamed_addr constant [23 x i8] c"builtins_without_cache\00", align 1
@_ZZN4node5Realm16CreatePropertiesEvE4args = internal constant %"struct.node::AssertionInfo" { ptr @.str.67, ptr @.str.68, ptr @.str.69 }, align 8
@.str.67 = private unnamed_addr constant [27 x i8] c"../../src/node_realm.cc:52\00", align 1
@.str.68 = private unnamed_addr constant [24 x i8] c"primordials->IsObject()\00", align 1
@.str.69 = private unnamed_addr constant [37 x i8] c"void node::Realm::CreateProperties()\00", align 1
@.str.70 = private unnamed_addr constant [10 x i8] c"prototype\00", align 1
@.str.71 = private unnamed_addr constant [8 x i8] c"SafeMap\00", align 1
@_ZZN4node5Realm16CreatePropertiesEvE4args_0 = internal constant %"struct.node::AssertionInfo" { ptr @.str.72, ptr @.str.73, ptr @.str.69 }, align 8
@.str.72 = private unnamed_addr constant [27 x i8] c"../../src/node_realm.cc:72\00", align 1
@.str.73 = private unnamed_addr constant [17 x i8] c"ctor->IsObject()\00", align 1
@_ZZN4node5Realm16CreatePropertiesEvE4args_1 = internal constant %"struct.node::AssertionInfo" { ptr @.str.72, ptr @.str.74, ptr @.str.69 }, align 8
@.str.74 = private unnamed_addr constant [22 x i8] c"prototype->IsObject()\00", align 1
@.str.75 = private unnamed_addr constant [8 x i8] c"SafeSet\00", align 1
@_ZZN4node5Realm16CreatePropertiesEvE4args_2 = internal constant %"struct.node::AssertionInfo" { ptr @.str.76, ptr @.str.73, ptr @.str.69 }, align 8
@.str.76 = private unnamed_addr constant [27 x i8] c"../../src/node_realm.cc:73\00", align 1
@_ZZN4node5Realm16CreatePropertiesEvE4args_3 = internal constant %"struct.node::AssertionInfo" { ptr @.str.76, ptr @.str.74, ptr @.str.69 }, align 8
@.str.77 = private unnamed_addr constant [12 x i8] c"SafeWeakMap\00", align 1
@_ZZN4node5Realm16CreatePropertiesEvE4args_4 = internal constant %"struct.node::AssertionInfo" { ptr @.str.78, ptr @.str.73, ptr @.str.69 }, align 8
@.str.78 = private unnamed_addr constant [27 x i8] c"../../src/node_realm.cc:74\00", align 1
@_ZZN4node5Realm16CreatePropertiesEvE4args_5 = internal constant %"struct.node::AssertionInfo" { ptr @.str.78, ptr @.str.74, ptr @.str.69 }, align 8
@.str.79 = private unnamed_addr constant [12 x i8] c"SafeWeakSet\00", align 1
@_ZZN4node5Realm16CreatePropertiesEvE4args_6 = internal constant %"struct.node::AssertionInfo" { ptr @.str.80, ptr @.str.73, ptr @.str.69 }, align 8
@.str.80 = private unnamed_addr constant [27 x i8] c"../../src/node_realm.cc:75\00", align 1
@_ZZN4node5Realm16CreatePropertiesEvE4args_7 = internal constant %"struct.node::AssertionInfo" { ptr @.str.80, ptr @.str.74, ptr @.str.69 }, align 8
@stderr = external global ptr, align 8
@.str.81 = private unnamed_addr constant [62 x i8] c"Failed to deserialize realm value async_hooks_after_function\0A\00", align 1
@.str.82 = private unnamed_addr constant [63 x i8] c"Failed to deserialize realm value async_hooks_before_function\0A\00", align 1
@.str.83 = private unnamed_addr constant [67 x i8] c"Failed to deserialize realm value async_hooks_callback_trampoline\0A\00", align 1
@.str.84 = private unnamed_addr constant [55 x i8] c"Failed to deserialize realm value async_hooks_binding\0A\00", align 1
@.str.85 = private unnamed_addr constant [64 x i8] c"Failed to deserialize realm value async_hooks_destroy_function\0A\00", align 1
@.str.86 = private unnamed_addr constant [61 x i8] c"Failed to deserialize realm value async_hooks_init_function\0A\00", align 1
@.str.87 = private unnamed_addr constant [72 x i8] c"Failed to deserialize realm value async_hooks_promise_resolve_function\0A\00", align 1
@.str.88 = private unnamed_addr constant [59 x i8] c"Failed to deserialize realm value buffer_prototype_object\0A\00", align 1
@.str.89 = private unnamed_addr constant [65 x i8] c"Failed to deserialize realm value crypto_key_object_constructor\0A\00", align 1
@.str.90 = private unnamed_addr constant [73 x i8] c"Failed to deserialize realm value crypto_key_object_private_constructor\0A\00", align 1
@.str.91 = private unnamed_addr constant [72 x i8] c"Failed to deserialize realm value crypto_key_object_public_constructor\0A\00", align 1
@.str.92 = private unnamed_addr constant [72 x i8] c"Failed to deserialize realm value crypto_key_object_secret_constructor\0A\00", align 1
@.str.93 = private unnamed_addr constant [57 x i8] c"Failed to deserialize realm value domexception_function\0A\00", align 1
@.str.94 = private unnamed_addr constant [71 x i8] c"Failed to deserialize realm value enhance_fatal_stack_after_inspector\0A\00", align 1
@.str.95 = private unnamed_addr constant [72 x i8] c"Failed to deserialize realm value enhance_fatal_stack_before_inspector\0A\00", align 1
@.str.96 = private unnamed_addr constant [63 x i8] c"Failed to deserialize realm value get_source_map_error_source\0A\00", align 1
@.str.97 = private unnamed_addr constant [75 x i8] c"Failed to deserialize realm value host_import_module_dynamically_callback\0A\00", align 1
@.str.98 = private unnamed_addr constant [79 x i8] c"Failed to deserialize realm value host_initialize_import_meta_object_callback\0A\00", align 1
@.str.99 = private unnamed_addr constant [67 x i8] c"Failed to deserialize realm value http2session_on_altsvc_function\0A\00", align 1
@.str.100 = private unnamed_addr constant [66 x i8] c"Failed to deserialize realm value http2session_on_error_function\0A\00", align 1
@.str.101 = private unnamed_addr constant [72 x i8] c"Failed to deserialize realm value http2session_on_frame_error_function\0A\00", align 1
@.str.102 = private unnamed_addr constant [72 x i8] c"Failed to deserialize realm value http2session_on_goaway_data_function\0A\00", align 1
@.str.103 = private unnamed_addr constant [68 x i8] c"Failed to deserialize realm value http2session_on_headers_function\0A\00", align 1
@.str.104 = private unnamed_addr constant [67 x i8] c"Failed to deserialize realm value http2session_on_origin_function\0A\00", align 1
@.str.105 = private unnamed_addr constant [65 x i8] c"Failed to deserialize realm value http2session_on_ping_function\0A\00", align 1
@.str.106 = private unnamed_addr constant [69 x i8] c"Failed to deserialize realm value http2session_on_priority_function\0A\00", align 1
@.str.107 = private unnamed_addr constant [69 x i8] c"Failed to deserialize realm value http2session_on_settings_function\0A\00", align 1
@.str.108 = private unnamed_addr constant [73 x i8] c"Failed to deserialize realm value http2session_on_stream_close_function\0A\00", align 1
@.str.109 = private unnamed_addr constant [76 x i8] c"Failed to deserialize realm value http2session_on_stream_trailers_function\0A\00", align 1
@.str.110 = private unnamed_addr constant [59 x i8] c"Failed to deserialize realm value internal_binding_loader\0A\00", align 1
@.str.111 = private unnamed_addr constant [63 x i8] c"Failed to deserialize realm value immediate_callback_function\0A\00", align 1
@.str.112 = private unnamed_addr constant [73 x i8] c"Failed to deserialize realm value inspector_console_extension_installer\0A\00", align 1
@.str.113 = private unnamed_addr constant [65 x i8] c"Failed to deserialize realm value inspector_disable_async_hooks\0A\00", align 1
@.str.114 = private unnamed_addr constant [64 x i8] c"Failed to deserialize realm value inspector_enable_async_hooks\0A\00", align 1
@.str.115 = private unnamed_addr constant [68 x i8] c"Failed to deserialize realm value maybe_cache_generated_source_map\0A\00", align 1
@.str.116 = private unnamed_addr constant [71 x i8] c"Failed to deserialize realm value messaging_deserialize_create_object\0A\00", align 1
@.str.117 = private unnamed_addr constant [48 x i8] c"Failed to deserialize realm value message_port\0A\00", align 1
@.str.118 = private unnamed_addr constant [58 x i8] c"Failed to deserialize realm value builtin_module_require\0A\00", align 1
@.str.119 = private unnamed_addr constant [62 x i8] c"Failed to deserialize realm value performance_entry_callback\0A\00", align 1
@.str.120 = private unnamed_addr constant [64 x i8] c"Failed to deserialize realm value prepare_stack_trace_callback\0A\00", align 1
@.str.121 = private unnamed_addr constant [50 x i8] c"Failed to deserialize realm value process_object\0A\00", align 1
@.str.122 = private unnamed_addr constant [47 x i8] c"Failed to deserialize realm value primordials\0A\00", align 1
@.str.123 = private unnamed_addr constant [73 x i8] c"Failed to deserialize realm value primordials_safe_map_prototype_object\0A\00", align 1
@.str.124 = private unnamed_addr constant [73 x i8] c"Failed to deserialize realm value primordials_safe_set_prototype_object\0A\00", align 1
@.str.125 = private unnamed_addr constant [78 x i8] c"Failed to deserialize realm value primordials_safe_weak_map_prototype_object\0A\00", align 1
@.str.126 = private unnamed_addr constant [78 x i8] c"Failed to deserialize realm value primordials_safe_weak_set_prototype_object\0A\00", align 1
@.str.127 = private unnamed_addr constant [56 x i8] c"Failed to deserialize realm value promise_hook_handler\0A\00", align 1
@.str.128 = private unnamed_addr constant [59 x i8] c"Failed to deserialize realm value promise_reject_callback\0A\00", align 1
@.str.129 = private unnamed_addr constant [63 x i8] c"Failed to deserialize realm value snapshot_serialize_callback\0A\00", align 1
@.str.130 = private unnamed_addr constant [65 x i8] c"Failed to deserialize realm value snapshot_deserialize_callback\0A\00", align 1
@.str.131 = private unnamed_addr constant [61 x i8] c"Failed to deserialize realm value snapshot_deserialize_main\0A\00", align 1
@.str.132 = private unnamed_addr constant [59 x i8] c"Failed to deserialize realm value source_map_cache_getter\0A\00", align 1
@.str.133 = private unnamed_addr constant [58 x i8] c"Failed to deserialize realm value tick_callback_function\0A\00", align 1
@.str.134 = private unnamed_addr constant [60 x i8] c"Failed to deserialize realm value timers_callback_function\0A\00", align 1
@.str.135 = private unnamed_addr constant [65 x i8] c"Failed to deserialize realm value tls_wrap_constructor_function\0A\00", align 1
@.str.136 = private unnamed_addr constant [65 x i8] c"Failed to deserialize realm value trace_category_state_function\0A\00", align 1
@.str.137 = private unnamed_addr constant [60 x i8] c"Failed to deserialize realm value udp_constructor_function\0A\00", align 1
@.str.138 = private unnamed_addr constant [60 x i8] c"Failed to deserialize realm value url_constructor_function\0A\00", align 1
@.str.139 = private unnamed_addr constant [67 x i8] c"Failed to deserialize realm value wasm_streaming_compilation_impl\0A\00", align 1
@.str.140 = private unnamed_addr constant [69 x i8] c"Failed to deserialize realm value wasm_streaming_object_constructor\0A\00", align 1
@.str.141 = private unnamed_addr constant [64 x i8] c"Failed to deserialize context back reference from the snapshot\0A\00", align 1
@_ZZN4node5Realm21DeserializePropertiesEPKNS_18RealmSerializeInfoEE4args = internal constant %"struct.node::AssertionInfo" { ptr @.str.142, ptr @.str.143, ptr @.str.144 }, align 8
@.str.142 = private unnamed_addr constant [28 x i8] c"../../src/node_realm.cc:152\00", align 1
@.str.143 = private unnamed_addr constant [29 x i8] c"(ctx_from_snapshot) == (ctx)\00", align 1
@.str.144 = private unnamed_addr constant [68 x i8] c"void node::Realm::DeserializeProperties(const RealmSerializeInfo *)\00", align 1
@_ZZN4node5Realm16RunBootstrappingEvE4args = internal constant %"struct.node::AssertionInfo" { ptr @.str.145, ptr @.str.146, ptr @.str.147 }, align 8
@.str.145 = private unnamed_addr constant [28 x i8] c"../../src/node_realm.cc:179\00", align 1
@.str.146 = private unnamed_addr constant [30 x i8] c"!has_run_bootstrapping_code()\00", align 1
@.str.147 = private unnamed_addr constant [50 x i8] c"MaybeLocal<Value> node::Realm::RunBootstrapping()\00", align 1
@.str.148 = private unnamed_addr constant [25 x i8] c"internal/bootstrap/realm\00", align 1
@_ZZN4node5Realm17DoneBootstrappingEvE4args = internal constant %"struct.node::AssertionInfo" { ptr @.str.149, ptr @.str.150, ptr @.str.151 }, align 8
@.str.149 = private unnamed_addr constant [28 x i8] c"../../src/node_realm.cc:201\00", align 1
@.str.150 = private unnamed_addr constant [34 x i8] c"env_->req_wrap_queue()->IsEmpty()\00", align 1
@.str.151 = private unnamed_addr constant [38 x i8] c"void node::Realm::DoneBootstrapping()\00", align 1
@_ZZN4node5Realm17DoneBootstrappingEvE4args_0 = internal constant %"struct.node::AssertionInfo" { ptr @.str.152, ptr @.str.153, ptr @.str.151 }, align 8
@.str.152 = private unnamed_addr constant [28 x i8] c"../../src/node_realm.cc:202\00", align 1
@.str.153 = private unnamed_addr constant [37 x i8] c"env_->handle_wrap_queue()->IsEmpty()\00", align 1
@_ZZN4node5Realm10RunCleanupEvE28trace_event_unique_atomic214 = internal global { i64 } zeroinitializer, align 8
@.str.154 = private unnamed_addr constant [16 x i8] c"node,node.realm\00", align 1
@.str.155 = private unnamed_addr constant [11 x i8] c"RunCleanup\00", align 1
@_ZN4node7tracingL12kGlobalScopeE = internal constant ptr null, align 8
@.str.156 = private unnamed_addr constant [12 x i8] c"Realm = %p\0A\00", align 1
@.str.157 = private unnamed_addr constant [27 x i8] c"BaseObjects of the Realm:\0A\00", align 1
@.str.158 = private unnamed_addr constant [26 x i8] c"\0ABuiltins without cache:\0A\00", align 1
@.str.159 = private unnamed_addr constant [4 x i8] c"%s\0A\00", align 1
@.str.160 = private unnamed_addr constant [23 x i8] c"\0ABuiltins with cache:\0A\00", align 1
@.str.161 = private unnamed_addr constant [43 x i8] c"\0AStatic bindings (need to be registered):\0A\00", align 1
@.str.162 = private unnamed_addr constant [7 x i8] c"%s:%s\0A\00", align 1
@.str.163 = private unnamed_addr constant [19 x i8] c"End of the Realm.\0A\00", align 1
@_ZTVN4node14PrincipalRealmE = dso_local unnamed_addr constant { [132 x ptr] } { [132 x ptr] [ptr null, ptr null, ptr @_ZN4node14PrincipalRealmD1Ev, ptr @_ZN4node14PrincipalRealmD0Ev, ptr @_ZNK4node5Realm10MemoryInfoEPNS_13MemoryTrackerE, ptr @_ZNK4node14PrincipalRealm14MemoryInfoNameEv, ptr @_ZNK4node14PrincipalRealm8SelfSizeEv, ptr @_ZNK4node14MemoryRetainer13WrappedObjectEv, ptr @_ZNK4node14MemoryRetainer10IsRootNodeEv, ptr @_ZNK4node14MemoryRetainer15GetDetachednessEv, ptr @_ZNK4node5Realm7contextEv, ptr @_ZNK4node14PrincipalRealm26async_hooks_after_functionEv, ptr @_ZN4node14PrincipalRealm30set_async_hooks_after_functionEN2v85LocalINS1_8FunctionEEE, ptr @_ZNK4node14PrincipalRealm27async_hooks_before_functionEv, ptr @_ZN4node14PrincipalRealm31set_async_hooks_before_functionEN2v85LocalINS1_8FunctionEEE, ptr @_ZNK4node14PrincipalRealm31async_hooks_callback_trampolineEv, ptr @_ZN4node14PrincipalRealm35set_async_hooks_callback_trampolineEN2v85LocalINS1_8FunctionEEE, ptr @_ZNK4node14PrincipalRealm19async_hooks_bindingEv, ptr @_ZN4node14PrincipalRealm23set_async_hooks_bindingEN2v85LocalINS1_6ObjectEEE, ptr @_ZNK4node14PrincipalRealm28async_hooks_destroy_functionEv, ptr @_ZN4node14PrincipalRealm32set_async_hooks_destroy_functionEN2v85LocalINS1_8FunctionEEE, ptr @_ZNK4node14PrincipalRealm25async_hooks_init_functionEv, ptr @_ZN4node14PrincipalRealm29set_async_hooks_init_functionEN2v85LocalINS1_8FunctionEEE, ptr @_ZNK4node14PrincipalRealm36async_hooks_promise_resolve_functionEv, ptr @_ZN4node14PrincipalRealm40set_async_hooks_promise_resolve_functionEN2v85LocalINS1_8FunctionEEE, ptr @_ZNK4node14PrincipalRealm23buffer_prototype_objectEv, ptr @_ZN4node14PrincipalRealm27set_buffer_prototype_objectEN2v85LocalINS1_6ObjectEEE, ptr @_ZNK4node14PrincipalRealm29crypto_key_object_constructorEv, ptr @_ZN4node14PrincipalRealm33set_crypto_key_object_constructorEN2v85LocalINS1_8FunctionEEE, ptr @_ZNK4node14PrincipalRealm37crypto_key_object_private_constructorEv, ptr @_ZN4node14PrincipalRealm41set_crypto_key_object_private_constructorEN2v85LocalINS1_8FunctionEEE, ptr @_ZNK4node14PrincipalRealm36crypto_key_object_public_constructorEv, ptr @_ZN4node14PrincipalRealm40set_crypto_key_object_public_constructorEN2v85LocalINS1_8FunctionEEE, ptr @_ZNK4node14PrincipalRealm36crypto_key_object_secret_constructorEv, ptr @_ZN4node14PrincipalRealm40set_crypto_key_object_secret_constructorEN2v85LocalINS1_8FunctionEEE, ptr @_ZNK4node14PrincipalRealm21domexception_functionEv, ptr @_ZN4node14PrincipalRealm25set_domexception_functionEN2v85LocalINS1_8FunctionEEE, ptr @_ZNK4node14PrincipalRealm35enhance_fatal_stack_after_inspectorEv, ptr @_ZN4node14PrincipalRealm39set_enhance_fatal_stack_after_inspectorEN2v85LocalINS1_8FunctionEEE, ptr @_ZNK4node14PrincipalRealm36enhance_fatal_stack_before_inspectorEv, ptr @_ZN4node14PrincipalRealm40set_enhance_fatal_stack_before_inspectorEN2v85LocalINS1_8FunctionEEE, ptr @_ZNK4node14PrincipalRealm27get_source_map_error_sourceEv, ptr @_ZN4node14PrincipalRealm31set_get_source_map_error_sourceEN2v85LocalINS1_8FunctionEEE, ptr @_ZNK4node14PrincipalRealm39host_import_module_dynamically_callbackEv, ptr @_ZN4node14PrincipalRealm43set_host_import_module_dynamically_callbackEN2v85LocalINS1_8FunctionEEE, ptr @_ZNK4node14PrincipalRealm43host_initialize_import_meta_object_callbackEv, ptr @_ZN4node14PrincipalRealm47set_host_initialize_import_meta_object_callbackEN2v85LocalINS1_8FunctionEEE, ptr @_ZNK4node14PrincipalRealm31http2session_on_altsvc_functionEv, ptr @_ZN4node14PrincipalRealm35set_http2session_on_altsvc_functionEN2v85LocalINS1_8FunctionEEE, ptr @_ZNK4node14PrincipalRealm30http2session_on_error_functionEv, ptr @_ZN4node14PrincipalRealm34set_http2session_on_error_functionEN2v85LocalINS1_8FunctionEEE, ptr @_ZNK4node14PrincipalRealm36http2session_on_frame_error_functionEv, ptr @_ZN4node14PrincipalRealm40set_http2session_on_frame_error_functionEN2v85LocalINS1_8FunctionEEE, ptr @_ZNK4node14PrincipalRealm36http2session_on_goaway_data_functionEv, ptr @_ZN4node14PrincipalRealm40set_http2session_on_goaway_data_functionEN2v85LocalINS1_8FunctionEEE, ptr @_ZNK4node14PrincipalRealm32http2session_on_headers_functionEv, ptr @_ZN4node14PrincipalRealm36set_http2session_on_headers_functionEN2v85LocalINS1_8FunctionEEE, ptr @_ZNK4node14PrincipalRealm31http2session_on_origin_functionEv, ptr @_ZN4node14PrincipalRealm35set_http2session_on_origin_functionEN2v85LocalINS1_8FunctionEEE, ptr @_ZNK4node14PrincipalRealm29http2session_on_ping_functionEv, ptr @_ZN4node14PrincipalRealm33set_http2session_on_ping_functionEN2v85LocalINS1_8FunctionEEE, ptr @_ZNK4node14PrincipalRealm33http2session_on_priority_functionEv, ptr @_ZN4node14PrincipalRealm37set_http2session_on_priority_functionEN2v85LocalINS1_8FunctionEEE, ptr @_ZNK4node14PrincipalRealm33http2session_on_settings_functionEv, ptr @_ZN4node14PrincipalRealm37set_http2session_on_settings_functionEN2v85LocalINS1_8FunctionEEE, ptr @_ZNK4node14PrincipalRealm37http2session_on_stream_close_functionEv, ptr @_ZN4node14PrincipalRealm41set_http2session_on_stream_close_functionEN2v85LocalINS1_8FunctionEEE, ptr @_ZNK4node14PrincipalRealm40http2session_on_stream_trailers_functionEv, ptr @_ZN4node14PrincipalRealm44set_http2session_on_stream_trailers_functionEN2v85LocalINS1_8FunctionEEE, ptr @_ZNK4node14PrincipalRealm23internal_binding_loaderEv, ptr @_ZN4node14PrincipalRealm27set_internal_binding_loaderEN2v85LocalINS1_8FunctionEEE, ptr @_ZNK4node14PrincipalRealm27immediate_callback_functionEv, ptr @_ZN4node14PrincipalRealm31set_immediate_callback_functionEN2v85LocalINS1_8FunctionEEE, ptr @_ZNK4node14PrincipalRealm37inspector_console_extension_installerEv, ptr @_ZN4node14PrincipalRealm41set_inspector_console_extension_installerEN2v85LocalINS1_8FunctionEEE, ptr @_ZNK4node14PrincipalRealm29inspector_disable_async_hooksEv, ptr @_ZN4node14PrincipalRealm33set_inspector_disable_async_hooksEN2v85LocalINS1_8FunctionEEE, ptr @_ZNK4node14PrincipalRealm28inspector_enable_async_hooksEv, ptr @_ZN4node14PrincipalRealm32set_inspector_enable_async_hooksEN2v85LocalINS1_8FunctionEEE, ptr @_ZNK4node14PrincipalRealm32maybe_cache_generated_source_mapEv, ptr @_ZN4node14PrincipalRealm36set_maybe_cache_generated_source_mapEN2v85LocalINS1_8FunctionEEE, ptr @_ZNK4node14PrincipalRealm35messaging_deserialize_create_objectEv, ptr @_ZN4node14PrincipalRealm39set_messaging_deserialize_create_objectEN2v85LocalINS1_8FunctionEEE, ptr @_ZNK4node14PrincipalRealm12message_portEv, ptr @_ZN4node14PrincipalRealm16set_message_portEN2v85LocalINS1_6ObjectEEE, ptr @_ZNK4node14PrincipalRealm22builtin_module_requireEv, ptr @_ZN4node14PrincipalRealm26set_builtin_module_requireEN2v85LocalINS1_8FunctionEEE, ptr @_ZNK4node14PrincipalRealm26performance_entry_callbackEv, ptr @_ZN4node14PrincipalRealm30set_performance_entry_callbackEN2v85LocalINS1_8FunctionEEE, ptr @_ZNK4node14PrincipalRealm28prepare_stack_trace_callbackEv, ptr @_ZN4node14PrincipalRealm32set_prepare_stack_trace_callbackEN2v85LocalINS1_8FunctionEEE, ptr @_ZNK4node14PrincipalRealm14process_objectEv, ptr @_ZN4node14PrincipalRealm18set_process_objectEN2v85LocalINS1_6ObjectEEE, ptr @_ZNK4node14PrincipalRealm11primordialsEv, ptr @_ZN4node14PrincipalRealm15set_primordialsEN2v85LocalINS1_6ObjectEEE, ptr @_ZNK4node14PrincipalRealm37primordials_safe_map_prototype_objectEv, ptr @_ZN4node14PrincipalRealm41set_primordials_safe_map_prototype_objectEN2v85LocalINS1_6ObjectEEE, ptr @_ZNK4node14PrincipalRealm37primordials_safe_set_prototype_objectEv, ptr @_ZN4node14PrincipalRealm41set_primordials_safe_set_prototype_objectEN2v85LocalINS1_6ObjectEEE, ptr @_ZNK4node14PrincipalRealm42primordials_safe_weak_map_prototype_objectEv, ptr @_ZN4node14PrincipalRealm46set_primordials_safe_weak_map_prototype_objectEN2v85LocalINS1_6ObjectEEE, ptr @_ZNK4node14PrincipalRealm42primordials_safe_weak_set_prototype_objectEv, ptr @_ZN4node14PrincipalRealm46set_primordials_safe_weak_set_prototype_objectEN2v85LocalINS1_6ObjectEEE, ptr @_ZNK4node14PrincipalRealm20promise_hook_handlerEv, ptr @_ZN4node14PrincipalRealm24set_promise_hook_handlerEN2v85LocalINS1_8FunctionEEE, ptr @_ZNK4node14PrincipalRealm23promise_reject_callbackEv, ptr @_ZN4node14PrincipalRealm27set_promise_reject_callbackEN2v85LocalINS1_8FunctionEEE, ptr @_ZNK4node14PrincipalRealm27snapshot_serialize_callbackEv, ptr @_ZN4node14PrincipalRealm31set_snapshot_serialize_callbackEN2v85LocalINS1_8FunctionEEE, ptr @_ZNK4node14PrincipalRealm29snapshot_deserialize_callbackEv, ptr @_ZN4node14PrincipalRealm33set_snapshot_deserialize_callbackEN2v85LocalINS1_8FunctionEEE, ptr @_ZNK4node14PrincipalRealm25snapshot_deserialize_mainEv, ptr @_ZN4node14PrincipalRealm29set_snapshot_deserialize_mainEN2v85LocalINS1_8FunctionEEE, ptr @_ZNK4node14PrincipalRealm23source_map_cache_getterEv, ptr @_ZN4node14PrincipalRealm27set_source_map_cache_getterEN2v85LocalINS1_8FunctionEEE, ptr @_ZNK4node14PrincipalRealm22tick_callback_functionEv, ptr @_ZN4node14PrincipalRealm26set_tick_callback_functionEN2v85LocalINS1_8FunctionEEE, ptr @_ZNK4node14PrincipalRealm24timers_callback_functionEv, ptr @_ZN4node14PrincipalRealm28set_timers_callback_functionEN2v85LocalINS1_8FunctionEEE, ptr @_ZNK4node14PrincipalRealm29tls_wrap_constructor_functionEv, ptr @_ZN4node14PrincipalRealm33set_tls_wrap_constructor_functionEN2v85LocalINS1_8FunctionEEE, ptr @_ZNK4node14PrincipalRealm29trace_category_state_functionEv, ptr @_ZN4node14PrincipalRealm33set_trace_category_state_functionEN2v85LocalINS1_8FunctionEEE, ptr @_ZNK4node14PrincipalRealm24udp_constructor_functionEv, ptr @_ZN4node14PrincipalRealm28set_udp_constructor_functionEN2v85LocalINS1_8FunctionEEE, ptr @_ZNK4node14PrincipalRealm24url_constructor_functionEv, ptr @_ZN4node14PrincipalRealm28set_url_constructor_functionEN2v85LocalINS1_8FunctionEEE, ptr @_ZNK4node14PrincipalRealm31wasm_streaming_compilation_implEv, ptr @_ZN4node14PrincipalRealm35set_wasm_streaming_compilation_implEN2v85LocalINS1_8FunctionEEE, ptr @_ZNK4node14PrincipalRealm33wasm_streaming_object_constructorEv, ptr @_ZN4node14PrincipalRealm37set_wasm_streaming_object_constructorEN2v85LocalINS1_8FunctionEEE, ptr @_ZN4node14PrincipalRealm14BootstrapRealmEv] }, align 8
@.str.164 = private unnamed_addr constant [24 x i8] c"internal/bootstrap/node\00", align 1
@.str.165 = private unnamed_addr constant [40 x i8] c"internal/bootstrap/web/exposed-wildcard\00", align 1
@.str.166 = private unnamed_addr constant [48 x i8] c"internal/bootstrap/web/exposed-window-or-worker\00", align 1
@.str.167 = private unnamed_addr constant [43 x i8] c"internal/bootstrap/switches/is_main_thread\00", align 1
@.str.168 = private unnamed_addr constant [47 x i8] c"internal/bootstrap/switches/is_not_main_thread\00", align 1
@.str.169 = private unnamed_addr constant [51 x i8] c"internal/bootstrap/switches/does_own_process_state\00", align 1
@.str.170 = private unnamed_addr constant [55 x i8] c"internal/bootstrap/switches/does_not_own_process_state\00", align 1
@.str.171 = private unnamed_addr constant [4 x i8] c"env\00", align 1
@_ZTVN4node14MemoryRetainerE = linkonce_odr dso_local unnamed_addr constant { [10 x ptr] } { [10 x ptr] [ptr null, ptr null, ptr @_ZN4node14MemoryRetainerD2Ev, ptr @_ZN4node14MemoryRetainerD0Ev, ptr @__cxa_pure_virtual, ptr @__cxa_pure_virtual, ptr @__cxa_pure_virtual, ptr @_ZNK4node14MemoryRetainer13WrappedObjectEv, ptr @_ZNK4node14MemoryRetainer10IsRootNodeEv, ptr @_ZNK4node14MemoryRetainer15GetDetachednessEv] }, comdat, align 8
@_ZTVN4node12CleanupQueueE = linkonce_odr dso_local unnamed_addr constant { [10 x ptr] } { [10 x ptr] [ptr null, ptr null, ptr @_ZN4node12CleanupQueueD2Ev, ptr @_ZN4node12CleanupQueueD0Ev, ptr @_ZNK4node12CleanupQueue10MemoryInfoEPNS_13MemoryTrackerE, ptr @_ZNK4node12CleanupQueue14MemoryInfoNameEv, ptr @_ZNK4node12CleanupQueue8SelfSizeEv, ptr @_ZNK4node14MemoryRetainer13WrappedObjectEv, ptr @_ZNK4node14MemoryRetainer10IsRootNodeEv, ptr @_ZNK4node14MemoryRetainer15GetDetachednessEv] }, comdat, align 8
@_ZZN4node13MemoryTracker5TrackEPKNS_14MemoryRetainerEPKcE4args = linkonce_odr dso_local constant %"struct.node::AssertionInfo" { ptr @.str.172, ptr @.str.173, ptr @.str.174 }, comdat, align 8
@.str.172 = private unnamed_addr constant [35 x i8] c"../../src/memory_tracker-inl.h:285\00", align 1
@.str.173 = private unnamed_addr constant [23 x i8] c"(CurrentNode()) == (n)\00", align 1
@.str.174 = private unnamed_addr constant [70 x i8] c"void node::MemoryTracker::Track(const MemoryRetainer *, const char *)\00", align 1
@_ZZN4node13MemoryTracker5TrackEPKNS_14MemoryRetainerEPKcE4args_0 = linkonce_odr dso_local constant %"struct.node::AssertionInfo" { ptr @.str.175, ptr @.str.176, ptr @.str.174 }, comdat, align 8
@.str.175 = private unnamed_addr constant [35 x i8] c"../../src/memory_tracker-inl.h:286\00", align 1
@.str.176 = private unnamed_addr constant [18 x i8] c"(n->size_) != (0)\00", align 1
@.str.177 = private unnamed_addr constant [21 x i8] c"native_to_javascript\00", align 1
@.str.178 = private unnamed_addr constant [21 x i8] c"javascript_to_native\00", align 1
@_ZTVN4node18MemoryRetainerNodeE = linkonce_odr dso_local unnamed_addr constant { [13 x ptr] } { [13 x ptr] [ptr null, ptr null, ptr @_ZN4node18MemoryRetainerNodeD2Ev, ptr @_ZN4node18MemoryRetainerNodeD0Ev, ptr @_ZN4node18MemoryRetainerNode4NameEv, ptr @_ZN4node18MemoryRetainerNode11SizeInBytesEv, ptr @_ZN2v813EmbedderGraph4Node11WrapperNodeEv, ptr @_ZN4node18MemoryRetainerNode10IsRootNodeEv, ptr @_ZN2v813EmbedderGraph4Node14IsEmbedderNodeEv, ptr @_ZN4node18MemoryRetainerNode10NamePrefixEv, ptr @_ZN2v813EmbedderGraph4Node15GetNativeObjectEv, ptr @_ZN4node18MemoryRetainerNode15GetDetachednessEv, ptr @_ZN2v813EmbedderGraph4Node10GetAddressEv] }, comdat, align 8
@_ZZN4node18MemoryRetainerNodeC1EPNS_13MemoryTrackerEPKNS_14MemoryRetainerEE4args = linkonce_odr dso_local constant %"struct.node::AssertionInfo" { ptr @.str.179, ptr @.str.180, ptr @.str.181 }, comdat, align 8
@.str.179 = private unnamed_addr constant [34 x i8] c"../../src/memory_tracker-inl.h:28\00", align 1
@.str.180 = private unnamed_addr constant [23 x i8] c"(retainer_) != nullptr\00", align 1
@.str.181 = private unnamed_addr constant [86 x i8] c"node::MemoryRetainerNode::MemoryRetainerNode(MemoryTracker *, const MemoryRetainer *)\00", align 1
@_ZTVN2v813EmbedderGraph4NodeE = linkonce_odr dso_local unnamed_addr constant { [13 x ptr] } { [13 x ptr] [ptr null, ptr null, ptr @_ZN2v813EmbedderGraph4NodeD2Ev, ptr @_ZN2v813EmbedderGraph4NodeD0Ev, ptr @__cxa_pure_virtual, ptr @__cxa_pure_virtual, ptr @_ZN2v813EmbedderGraph4Node11WrapperNodeEv, ptr @_ZN2v813EmbedderGraph4Node10IsRootNodeEv, ptr @_ZN2v813EmbedderGraph4Node14IsEmbedderNodeEv, ptr @_ZN2v813EmbedderGraph4Node10NamePrefixEv, ptr @_ZN2v813EmbedderGraph4Node15GetNativeObjectEv, ptr @_ZN2v813EmbedderGraph4Node15GetDetachednessEv, ptr @_ZN2v813EmbedderGraph4Node10GetAddressEv] }, comdat, align 8
@.str.182 = private unnamed_addr constant [7 x i8] c"Node /\00", align 1
@_ZSt19piecewise_construct = linkonce_odr dso_local constant %"struct.std::piecewise_construct_t" zeroinitializer, comdat, align 1
@.str.183 = private unnamed_addr constant [48 x i8] c"cannot create std::deque larger than max_size()\00", align 1
@.str.184 = private unnamed_addr constant [13 x i8] c"CleanupQueue\00", align 1
@_ZZN4node7tracing16TraceEventHelper23GetCategoryGroupEnabledEPKcE8disabled = linkonce_odr dso_local constant i8 0, comdat, align 1
@__libc_single_threaded = external global i8, align 1
@.str.185 = private unnamed_addr constant [15 x i8] c"PrincipalRealm\00", align 1
@.str.186 = private unnamed_addr constant [50 x i8] c"basic_string: construction from null is not valid\00", align 1
@.str.187 = private unnamed_addr constant [18 x i8] c"std::basic_string\00", align 1
@.str.188 = private unnamed_addr constant [49 x i8] c"cannot create std::vector larger than max_size()\00", align 1
@.str.189 = private unnamed_addr constant [26 x i8] c"vector::_M_realloc_insert\00", align 1
@_ZZN4node17BaseObjectPtrImplINS_10BaseObjectELb1EEC1EPS1_E4args = linkonce_odr dso_local constant %"struct.node::AssertionInfo" { ptr @.str.190, ptr @.str.191, ptr @.str.192 }, comdat, align 8
@.str.190 = private unnamed_addr constant [32 x i8] c"../../src/base_object-inl.h:202\00", align 1
@.str.191 = private unnamed_addr constant [28 x i8] c"(pointer_data()) != nullptr\00", align 1
@.str.192 = private unnamed_addr constant [111 x i8] c"node::BaseObjectPtrImpl<node::BaseObject, true>::BaseObjectPtrImpl(T *) [T = node::BaseObject, kIsWeak = true]\00", align 1
@_ZSt4cerr = external global %"class.std::basic_ostream", align 8
@.str.193 = private unnamed_addr constant [2 x i8] c"#\00", align 1
@.str.194 = private unnamed_addr constant [2 x i8] c" \00", align 1
@.str.195 = private unnamed_addr constant [3 x i8] c": \00", align 1
@.str.196 = private unnamed_addr constant [2 x i8] c"\0A\00", align 1
@.str.197 = private unnamed_addr constant [44 x i8] c"Found bad BaseObject during clean exit: %s\0A\00", align 1
@llvm.global_ctors = appending global [1 x { i32, ptr, ptr }] [{ i32, ptr, ptr } { i32 65535, ptr @_GLOBAL__sub_I_node_realm.cc, ptr null }]

@_ZN4node5RealmD1Ev = dso_local unnamed_addr alias void (ptr), ptr @_ZN4node5RealmD2Ev
@_ZN4node14PrincipalRealmC1EPNS_11EnvironmentEN2v85LocalINS3_7ContextEEEPKNS_18RealmSerializeInfoE = dso_local unnamed_addr alias void (ptr, ptr, ptr, ptr), ptr @_ZN4node14PrincipalRealmC2EPNS_11EnvironmentEN2v85LocalINS3_7ContextEEEPKNS_18RealmSerializeInfoE
@_ZN4node14PrincipalRealmD1Ev = dso_local unnamed_addr alias void (ptr), ptr @_ZN4node14PrincipalRealmD2Ev

; Function Attrs: nounwind uwtable
define internal void @__cxx_global_var_init() #0 section ".text.startup" {
entry:
  call void @_ZNSt8ios_base4InitC1Ev(ptr noundef nonnull align 1 dereferenceable(1) @_ZStL8__ioinit)
  %0 = call i32 @__cxa_atexit(ptr @_ZNSt8ios_base4InitD1Ev, ptr @_ZStL8__ioinit, ptr @__dso_handle) #3
  ret void
}

declare void @_ZNSt8ios_base4InitC1Ev(ptr noundef nonnull align 1 dereferenceable(1)) unnamed_addr #1

; Function Attrs: nounwind
declare void @_ZNSt8ios_base4InitD1Ev(ptr noundef nonnull align 1 dereferenceable(1)) unnamed_addr #2

; Function Attrs: nounwind
declare i32 @__cxa_atexit(ptr, ptr, ptr) #3

; Function Attrs: mustprogress nounwind uwtable
define dso_local void @_ZN4node5RealmC2EPNS_11EnvironmentEN2v85LocalINS3_7ContextEEENS0_4KindE(ptr noundef nonnull align 8 dereferenceable(872) %this, ptr noundef %env, ptr %context.coerce, i32 noundef %kind) unnamed_addr #4 align 2 {
entry:
  %value.addr.i408 = alloca ptr, align 8
  %value.addr.i = alloca ptr, align 8
  %slot.addr.i.i = alloca ptr, align 8
  %this.addr.i.i.i = alloca ptr, align 8
  %this.addr.i2.i = alloca ptr, align 8
  %this.addr.i.i403 = alloca ptr, align 8
  %this.addr.i404 = alloca ptr, align 8
  %retval.i = alloca ptr, align 8
  %isolate.addr.i399 = alloca ptr, align 8
  %that.addr.i = alloca ptr, align 8
  %this.addr.i397 = alloca ptr, align 8
  %this.addr.i395 = alloca ptr, align 8
  %this.addr.i393 = alloca ptr, align 8
  %this.addr.i.i386 = alloca ptr, align 8
  %this.addr.i387 = alloca ptr, align 8
  %slot.addr.i = alloca ptr, align 8
  %this.addr.i.i381 = alloca ptr, align 8
  %this.addr.i382 = alloca ptr, align 8
  %this.addr.i.i377 = alloca ptr, align 8
  %this.addr.i378 = alloca ptr, align 8
  %this.addr.i.i373 = alloca ptr, align 8
  %this.addr.i374 = alloca ptr, align 8
  %this.addr.i.i369 = alloca ptr, align 8
  %this.addr.i370 = alloca ptr, align 8
  %this.addr.i.i365 = alloca ptr, align 8
  %this.addr.i366 = alloca ptr, align 8
  %this.addr.i.i361 = alloca ptr, align 8
  %this.addr.i362 = alloca ptr, align 8
  %this.addr.i.i357 = alloca ptr, align 8
  %this.addr.i358 = alloca ptr, align 8
  %this.addr.i.i353 = alloca ptr, align 8
  %this.addr.i354 = alloca ptr, align 8
  %this.addr.i.i349 = alloca ptr, align 8
  %this.addr.i350 = alloca ptr, align 8
  %this.addr.i.i345 = alloca ptr, align 8
  %this.addr.i346 = alloca ptr, align 8
  %this.addr.i.i341 = alloca ptr, align 8
  %this.addr.i342 = alloca ptr, align 8
  %this.addr.i.i337 = alloca ptr, align 8
  %this.addr.i338 = alloca ptr, align 8
  %this.addr.i.i333 = alloca ptr, align 8
  %this.addr.i334 = alloca ptr, align 8
  %this.addr.i.i329 = alloca ptr, align 8
  %this.addr.i330 = alloca ptr, align 8
  %this.addr.i.i325 = alloca ptr, align 8
  %this.addr.i326 = alloca ptr, align 8
  %this.addr.i.i321 = alloca ptr, align 8
  %this.addr.i322 = alloca ptr, align 8
  %this.addr.i.i317 = alloca ptr, align 8
  %this.addr.i318 = alloca ptr, align 8
  %this.addr.i.i313 = alloca ptr, align 8
  %this.addr.i314 = alloca ptr, align 8
  %this.addr.i.i309 = alloca ptr, align 8
  %this.addr.i310 = alloca ptr, align 8
  %this.addr.i.i305 = alloca ptr, align 8
  %this.addr.i306 = alloca ptr, align 8
  %this.addr.i.i301 = alloca ptr, align 8
  %this.addr.i302 = alloca ptr, align 8
  %this.addr.i.i297 = alloca ptr, align 8
  %this.addr.i298 = alloca ptr, align 8
  %this.addr.i.i293 = alloca ptr, align 8
  %this.addr.i294 = alloca ptr, align 8
  %this.addr.i.i289 = alloca ptr, align 8
  %this.addr.i290 = alloca ptr, align 8
  %this.addr.i.i285 = alloca ptr, align 8
  %this.addr.i286 = alloca ptr, align 8
  %this.addr.i.i281 = alloca ptr, align 8
  %this.addr.i282 = alloca ptr, align 8
  %this.addr.i.i277 = alloca ptr, align 8
  %this.addr.i278 = alloca ptr, align 8
  %this.addr.i.i273 = alloca ptr, align 8
  %this.addr.i274 = alloca ptr, align 8
  %this.addr.i.i269 = alloca ptr, align 8
  %this.addr.i270 = alloca ptr, align 8
  %this.addr.i.i265 = alloca ptr, align 8
  %this.addr.i266 = alloca ptr, align 8
  %this.addr.i.i261 = alloca ptr, align 8
  %this.addr.i262 = alloca ptr, align 8
  %this.addr.i.i257 = alloca ptr, align 8
  %this.addr.i258 = alloca ptr, align 8
  %this.addr.i.i253 = alloca ptr, align 8
  %this.addr.i254 = alloca ptr, align 8
  %this.addr.i.i249 = alloca ptr, align 8
  %this.addr.i250 = alloca ptr, align 8
  %this.addr.i.i245 = alloca ptr, align 8
  %this.addr.i246 = alloca ptr, align 8
  %this.addr.i.i241 = alloca ptr, align 8
  %this.addr.i242 = alloca ptr, align 8
  %this.addr.i.i237 = alloca ptr, align 8
  %this.addr.i238 = alloca ptr, align 8
  %this.addr.i.i233 = alloca ptr, align 8
  %this.addr.i234 = alloca ptr, align 8
  %this.addr.i.i229 = alloca ptr, align 8
  %this.addr.i230 = alloca ptr, align 8
  %this.addr.i.i225 = alloca ptr, align 8
  %this.addr.i226 = alloca ptr, align 8
  %this.addr.i.i221 = alloca ptr, align 8
  %this.addr.i222 = alloca ptr, align 8
  %this.addr.i.i217 = alloca ptr, align 8
  %this.addr.i218 = alloca ptr, align 8
  %this.addr.i.i213 = alloca ptr, align 8
  %this.addr.i214 = alloca ptr, align 8
  %this.addr.i.i209 = alloca ptr, align 8
  %this.addr.i210 = alloca ptr, align 8
  %this.addr.i.i205 = alloca ptr, align 8
  %this.addr.i206 = alloca ptr, align 8
  %this.addr.i.i201 = alloca ptr, align 8
  %this.addr.i202 = alloca ptr, align 8
  %this.addr.i.i197 = alloca ptr, align 8
  %this.addr.i198 = alloca ptr, align 8
  %this.addr.i.i193 = alloca ptr, align 8
  %this.addr.i194 = alloca ptr, align 8
  %this.addr.i.i189 = alloca ptr, align 8
  %this.addr.i190 = alloca ptr, align 8
  %this.addr.i.i185 = alloca ptr, align 8
  %this.addr.i186 = alloca ptr, align 8
  %this.addr.i.i181 = alloca ptr, align 8
  %this.addr.i182 = alloca ptr, align 8
  %this.addr.i.i177 = alloca ptr, align 8
  %this.addr.i178 = alloca ptr, align 8
  %this.addr.i.i173 = alloca ptr, align 8
  %this.addr.i174 = alloca ptr, align 8
  %this.addr.i.i169 = alloca ptr, align 8
  %this.addr.i170 = alloca ptr, align 8
  %this.addr.i.i165 = alloca ptr, align 8
  %this.addr.i166 = alloca ptr, align 8
  %this.addr.i.i161 = alloca ptr, align 8
  %this.addr.i162 = alloca ptr, align 8
  %this.addr.i.i157 = alloca ptr, align 8
  %this.addr.i158 = alloca ptr, align 8
  %this.addr.i.i153 = alloca ptr, align 8
  %this.addr.i154 = alloca ptr, align 8
  %this.addr.i.i149 = alloca ptr, align 8
  %this.addr.i150 = alloca ptr, align 8
  %this.addr.i.i145 = alloca ptr, align 8
  %this.addr.i146 = alloca ptr, align 8
  %this.addr.i.i = alloca ptr, align 8
  %this.addr.i143 = alloca ptr, align 8
  %this.addr.i141 = alloca ptr, align 8
  %this.addr.i139 = alloca ptr, align 8
  %this.addr.i137 = alloca ptr, align 8
  %this.addr.i134 = alloca ptr, align 8
  %isolate.addr.i = alloca ptr, align 8
  %other.addr.i = alloca ptr, align 8
  %this.addr.i132 = alloca ptr, align 8
  %this.addr.i130 = alloca ptr, align 8
  %this.addr.i128 = alloca ptr, align 8
  %this.addr.i126 = alloca ptr, align 8
  %this.addr.i124 = alloca ptr, align 8
  %this.addr.i122 = alloca ptr, align 8
  %this.addr.i120 = alloca ptr, align 8
  %this.addr.i118 = alloca ptr, align 8
  %this.addr.i116 = alloca ptr, align 8
  %this.addr.i114 = alloca ptr, align 8
  %this.addr.i112 = alloca ptr, align 8
  %this.addr.i110 = alloca ptr, align 8
  %this.addr.i108 = alloca ptr, align 8
  %this.addr.i106 = alloca ptr, align 8
  %this.addr.i104 = alloca ptr, align 8
  %this.addr.i102 = alloca ptr, align 8
  %this.addr.i100 = alloca ptr, align 8
  %this.addr.i98 = alloca ptr, align 8
  %this.addr.i96 = alloca ptr, align 8
  %this.addr.i94 = alloca ptr, align 8
  %this.addr.i92 = alloca ptr, align 8
  %this.addr.i90 = alloca ptr, align 8
  %this.addr.i88 = alloca ptr, align 8
  %this.addr.i86 = alloca ptr, align 8
  %this.addr.i84 = alloca ptr, align 8
  %this.addr.i82 = alloca ptr, align 8
  %this.addr.i80 = alloca ptr, align 8
  %this.addr.i78 = alloca ptr, align 8
  %this.addr.i76 = alloca ptr, align 8
  %this.addr.i74 = alloca ptr, align 8
  %this.addr.i72 = alloca ptr, align 8
  %this.addr.i70 = alloca ptr, align 8
  %this.addr.i68 = alloca ptr, align 8
  %this.addr.i66 = alloca ptr, align 8
  %this.addr.i64 = alloca ptr, align 8
  %this.addr.i62 = alloca ptr, align 8
  %this.addr.i60 = alloca ptr, align 8
  %this.addr.i58 = alloca ptr, align 8
  %this.addr.i56 = alloca ptr, align 8
  %this.addr.i54 = alloca ptr, align 8
  %this.addr.i52 = alloca ptr, align 8
  %this.addr.i50 = alloca ptr, align 8
  %this.addr.i48 = alloca ptr, align 8
  %this.addr.i46 = alloca ptr, align 8
  %this.addr.i44 = alloca ptr, align 8
  %this.addr.i42 = alloca ptr, align 8
  %this.addr.i40 = alloca ptr, align 8
  %this.addr.i38 = alloca ptr, align 8
  %this.addr.i36 = alloca ptr, align 8
  %this.addr.i34 = alloca ptr, align 8
  %this.addr.i32 = alloca ptr, align 8
  %this.addr.i30 = alloca ptr, align 8
  %this.addr.i28 = alloca ptr, align 8
  %this.addr.i26 = alloca ptr, align 8
  %this.addr.i24 = alloca ptr, align 8
  %this.addr.i22 = alloca ptr, align 8
  %this.addr.i20 = alloca ptr, align 8
  %this.addr.i18 = alloca ptr, align 8
  %this.addr.i16 = alloca ptr, align 8
  %this.addr.i14 = alloca ptr, align 8
  %this.addr.i12 = alloca ptr, align 8
  %this.addr.i = alloca ptr, align 8
  %context = alloca %"class.v8::Local", align 8
  %this.addr = alloca ptr, align 8
  %env.addr = alloca ptr, align 8
  %kind.addr = alloca i32, align 4
  %agg.tmp = alloca %"class.v8::Local", align 8
  %ref.tmp = alloca %"struct.node::ContextInfo", align 8
  %ref.tmp7 = alloca %"class.std::__cxx11::basic_string", align 8
  %ref.tmp8 = alloca %"class.std::allocator.117", align 1
  %coerce.dive = getelementptr inbounds %"class.v8::Local", ptr %context, i32 0, i32 0
  %coerce.dive1 = getelementptr inbounds %"class.v8::LocalBase", ptr %coerce.dive, i32 0, i32 0
  %coerce.dive2 = getelementptr inbounds %"class.v8::IndirectHandleBase", ptr %coerce.dive1, i32 0, i32 0
  store ptr %context.coerce, ptr %coerce.dive2, align 8
  store ptr %this, ptr %this.addr, align 8
  store ptr %env, ptr %env.addr, align 8
  store i32 %kind, ptr %kind.addr, align 4
  %this3 = load ptr, ptr %this.addr, align 8
  call void @_ZN4node14MemoryRetainerC2Ev(ptr noundef nonnull align 8 dereferenceable(8) %this3) #3
  store ptr getelementptr inbounds ({ [132 x ptr] }, ptr @_ZTVN4node5RealmE, i32 0, inrange i32 0, i32 2), ptr %this3, align 8
  %internal_bindings = getelementptr inbounds %"class.node::Realm", ptr %this3, i32 0, i32 1
  call void @_ZNSt3setIPN4node11node_moduleESt4lessIS2_ESaIS2_EEC2Ev(ptr noundef nonnull align 8 dereferenceable(48) %internal_bindings) #3
  %builtins_with_cache = getelementptr inbounds %"class.node::Realm", ptr %this3, i32 0, i32 2
  call void @_ZNSt3setINSt7__cxx1112basic_stringIcSt11char_traitsIcESaIcEEESt4lessIS5_ESaIS5_EEC2Ev(ptr noundef nonnull align 8 dereferenceable(48) %builtins_with_cache) #3
  %builtins_without_cache = getelementptr inbounds %"class.node::Realm", ptr %this3, i32 0, i32 3
  call void @_ZNSt3setINSt7__cxx1112basic_stringIcSt11char_traitsIcESaIcEEESt4lessIS5_ESaIS5_EEC2Ev(ptr noundef nonnull align 8 dereferenceable(48) %builtins_without_cache) #3
  %builtins_in_snapshot = getelementptr inbounds %"class.node::Realm", ptr %this3, i32 0, i32 4
  call void @_ZNSt6vectorINSt7__cxx1112basic_stringIcSt11char_traitsIcESaIcEEESaIS5_EEC2Ev(ptr noundef nonnull align 8 dereferenceable(24) %builtins_in_snapshot) #3
  %env_ = getelementptr inbounds %"class.node::Realm", ptr %this3, i32 0, i32 5
  %0 = load ptr, ptr %env.addr, align 8
  store ptr %0, ptr %env_, align 8
  %isolate_ = getelementptr inbounds %"class.node::Realm", ptr %this3, i32 0, i32 6
  store ptr %context, ptr %this.addr.i, align 8
  %this1.i = load ptr, ptr %this.addr.i, align 8
  store ptr %this1.i, ptr %this.addr.i382, align 8
  %this1.i383 = load ptr, ptr %this.addr.i382, align 8
  store ptr %this1.i383, ptr %this.addr.i.i381, align 8
  %this1.i.i384 = load ptr, ptr %this.addr.i.i381, align 8
  %1 = load ptr, ptr %this1.i.i384, align 8
  store ptr %1, ptr %slot.addr.i, align 8
  %2 = load ptr, ptr %slot.addr.i, align 8
  %call4 = call noundef ptr @_ZN2v87Context10GetIsolateEv(ptr noundef nonnull align 1 dereferenceable(1) %2)
  store ptr %call4, ptr %isolate_, align 8
  %context_ = getelementptr inbounds %"class.node::Realm", ptr %this3, i32 0, i32 7
  store ptr %context_, ptr %this.addr.i12, align 8
  %this1.i13 = load ptr, ptr %this.addr.i12, align 8
  store ptr %this1.i13, ptr %this.addr.i139, align 8
  %this1.i140 = load ptr, ptr %this.addr.i139, align 8
  store ptr %this1.i140, ptr %this.addr.i141, align 8
  %this1.i142 = load ptr, ptr %this.addr.i141, align 8
  store ptr null, ptr %this1.i142, align 8
  %async_hooks_after_function_ = getelementptr inbounds %"class.node::Realm", ptr %this3, i32 0, i32 8
  store ptr %async_hooks_after_function_, ptr %this.addr.i14, align 8
  %this1.i15 = load ptr, ptr %this.addr.i14, align 8
  store ptr %this1.i15, ptr %this.addr.i342, align 8
  %this1.i343 = load ptr, ptr %this.addr.i342, align 8
  store ptr %this1.i343, ptr %this.addr.i.i341, align 8
  %this1.i.i344 = load ptr, ptr %this.addr.i.i341, align 8
  store ptr null, ptr %this1.i.i344, align 8
  %async_hooks_before_function_ = getelementptr inbounds %"class.node::Realm", ptr %this3, i32 0, i32 9
  store ptr %async_hooks_before_function_, ptr %this.addr.i16, align 8
  %this1.i17 = load ptr, ptr %this.addr.i16, align 8
  store ptr %this1.i17, ptr %this.addr.i338, align 8
  %this1.i339 = load ptr, ptr %this.addr.i338, align 8
  store ptr %this1.i339, ptr %this.addr.i.i337, align 8
  %this1.i.i340 = load ptr, ptr %this.addr.i.i337, align 8
  store ptr null, ptr %this1.i.i340, align 8
  %async_hooks_callback_trampoline_ = getelementptr inbounds %"class.node::Realm", ptr %this3, i32 0, i32 10
  store ptr %async_hooks_callback_trampoline_, ptr %this.addr.i18, align 8
  %this1.i19 = load ptr, ptr %this.addr.i18, align 8
  store ptr %this1.i19, ptr %this.addr.i334, align 8
  %this1.i335 = load ptr, ptr %this.addr.i334, align 8
  store ptr %this1.i335, ptr %this.addr.i.i333, align 8
  %this1.i.i336 = load ptr, ptr %this.addr.i.i333, align 8
  store ptr null, ptr %this1.i.i336, align 8
  %async_hooks_binding_ = getelementptr inbounds %"class.node::Realm", ptr %this3, i32 0, i32 11
  store ptr %async_hooks_binding_, ptr %this.addr.i116, align 8
  %this1.i117 = load ptr, ptr %this.addr.i116, align 8
  store ptr %this1.i117, ptr %this.addr.i378, align 8
  %this1.i379 = load ptr, ptr %this.addr.i378, align 8
  store ptr %this1.i379, ptr %this.addr.i.i377, align 8
  %this1.i.i380 = load ptr, ptr %this.addr.i.i377, align 8
  store ptr null, ptr %this1.i.i380, align 8
  %async_hooks_destroy_function_ = getelementptr inbounds %"class.node::Realm", ptr %this3, i32 0, i32 12
  store ptr %async_hooks_destroy_function_, ptr %this.addr.i20, align 8
  %this1.i21 = load ptr, ptr %this.addr.i20, align 8
  store ptr %this1.i21, ptr %this.addr.i330, align 8
  %this1.i331 = load ptr, ptr %this.addr.i330, align 8
  store ptr %this1.i331, ptr %this.addr.i.i329, align 8
  %this1.i.i332 = load ptr, ptr %this.addr.i.i329, align 8
  store ptr null, ptr %this1.i.i332, align 8
  %async_hooks_init_function_ = getelementptr inbounds %"class.node::Realm", ptr %this3, i32 0, i32 13
  store ptr %async_hooks_init_function_, ptr %this.addr.i22, align 8
  %this1.i23 = load ptr, ptr %this.addr.i22, align 8
  store ptr %this1.i23, ptr %this.addr.i326, align 8
  %this1.i327 = load ptr, ptr %this.addr.i326, align 8
  store ptr %this1.i327, ptr %this.addr.i.i325, align 8
  %this1.i.i328 = load ptr, ptr %this.addr.i.i325, align 8
  store ptr null, ptr %this1.i.i328, align 8
  %async_hooks_promise_resolve_function_ = getelementptr inbounds %"class.node::Realm", ptr %this3, i32 0, i32 14
  store ptr %async_hooks_promise_resolve_function_, ptr %this.addr.i24, align 8
  %this1.i25 = load ptr, ptr %this.addr.i24, align 8
  store ptr %this1.i25, ptr %this.addr.i322, align 8
  %this1.i323 = load ptr, ptr %this.addr.i322, align 8
  store ptr %this1.i323, ptr %this.addr.i.i321, align 8
  %this1.i.i324 = load ptr, ptr %this.addr.i.i321, align 8
  store ptr null, ptr %this1.i.i324, align 8
  %buffer_prototype_object_ = getelementptr inbounds %"class.node::Realm", ptr %this3, i32 0, i32 15
  store ptr %buffer_prototype_object_, ptr %this.addr.i118, align 8
  %this1.i119 = load ptr, ptr %this.addr.i118, align 8
  store ptr %this1.i119, ptr %this.addr.i374, align 8
  %this1.i375 = load ptr, ptr %this.addr.i374, align 8
  store ptr %this1.i375, ptr %this.addr.i.i373, align 8
  %this1.i.i376 = load ptr, ptr %this.addr.i.i373, align 8
  store ptr null, ptr %this1.i.i376, align 8
  %crypto_key_object_constructor_ = getelementptr inbounds %"class.node::Realm", ptr %this3, i32 0, i32 16
  store ptr %crypto_key_object_constructor_, ptr %this.addr.i26, align 8
  %this1.i27 = load ptr, ptr %this.addr.i26, align 8
  store ptr %this1.i27, ptr %this.addr.i318, align 8
  %this1.i319 = load ptr, ptr %this.addr.i318, align 8
  store ptr %this1.i319, ptr %this.addr.i.i317, align 8
  %this1.i.i320 = load ptr, ptr %this.addr.i.i317, align 8
  store ptr null, ptr %this1.i.i320, align 8
  %crypto_key_object_private_constructor_ = getelementptr inbounds %"class.node::Realm", ptr %this3, i32 0, i32 17
  store ptr %crypto_key_object_private_constructor_, ptr %this.addr.i28, align 8
  %this1.i29 = load ptr, ptr %this.addr.i28, align 8
  store ptr %this1.i29, ptr %this.addr.i314, align 8
  %this1.i315 = load ptr, ptr %this.addr.i314, align 8
  store ptr %this1.i315, ptr %this.addr.i.i313, align 8
  %this1.i.i316 = load ptr, ptr %this.addr.i.i313, align 8
  store ptr null, ptr %this1.i.i316, align 8
  %crypto_key_object_public_constructor_ = getelementptr inbounds %"class.node::Realm", ptr %this3, i32 0, i32 18
  store ptr %crypto_key_object_public_constructor_, ptr %this.addr.i30, align 8
  %this1.i31 = load ptr, ptr %this.addr.i30, align 8
  store ptr %this1.i31, ptr %this.addr.i310, align 8
  %this1.i311 = load ptr, ptr %this.addr.i310, align 8
  store ptr %this1.i311, ptr %this.addr.i.i309, align 8
  %this1.i.i312 = load ptr, ptr %this.addr.i.i309, align 8
  store ptr null, ptr %this1.i.i312, align 8
  %crypto_key_object_secret_constructor_ = getelementptr inbounds %"class.node::Realm", ptr %this3, i32 0, i32 19
  store ptr %crypto_key_object_secret_constructor_, ptr %this.addr.i32, align 8
  %this1.i33 = load ptr, ptr %this.addr.i32, align 8
  store ptr %this1.i33, ptr %this.addr.i306, align 8
  %this1.i307 = load ptr, ptr %this.addr.i306, align 8
  store ptr %this1.i307, ptr %this.addr.i.i305, align 8
  %this1.i.i308 = load ptr, ptr %this.addr.i.i305, align 8
  store ptr null, ptr %this1.i.i308, align 8
  %domexception_function_ = getelementptr inbounds %"class.node::Realm", ptr %this3, i32 0, i32 20
  store ptr %domexception_function_, ptr %this.addr.i34, align 8
  %this1.i35 = load ptr, ptr %this.addr.i34, align 8
  store ptr %this1.i35, ptr %this.addr.i302, align 8
  %this1.i303 = load ptr, ptr %this.addr.i302, align 8
  store ptr %this1.i303, ptr %this.addr.i.i301, align 8
  %this1.i.i304 = load ptr, ptr %this.addr.i.i301, align 8
  store ptr null, ptr %this1.i.i304, align 8
  %enhance_fatal_stack_after_inspector_ = getelementptr inbounds %"class.node::Realm", ptr %this3, i32 0, i32 21
  store ptr %enhance_fatal_stack_after_inspector_, ptr %this.addr.i36, align 8
  %this1.i37 = load ptr, ptr %this.addr.i36, align 8
  store ptr %this1.i37, ptr %this.addr.i298, align 8
  %this1.i299 = load ptr, ptr %this.addr.i298, align 8
  store ptr %this1.i299, ptr %this.addr.i.i297, align 8
  %this1.i.i300 = load ptr, ptr %this.addr.i.i297, align 8
  store ptr null, ptr %this1.i.i300, align 8
  %enhance_fatal_stack_before_inspector_ = getelementptr inbounds %"class.node::Realm", ptr %this3, i32 0, i32 22
  store ptr %enhance_fatal_stack_before_inspector_, ptr %this.addr.i38, align 8
  %this1.i39 = load ptr, ptr %this.addr.i38, align 8
  store ptr %this1.i39, ptr %this.addr.i294, align 8
  %this1.i295 = load ptr, ptr %this.addr.i294, align 8
  store ptr %this1.i295, ptr %this.addr.i.i293, align 8
  %this1.i.i296 = load ptr, ptr %this.addr.i.i293, align 8
  store ptr null, ptr %this1.i.i296, align 8
  %get_source_map_error_source_ = getelementptr inbounds %"class.node::Realm", ptr %this3, i32 0, i32 23
  store ptr %get_source_map_error_source_, ptr %this.addr.i40, align 8
  %this1.i41 = load ptr, ptr %this.addr.i40, align 8
  store ptr %this1.i41, ptr %this.addr.i290, align 8
  %this1.i291 = load ptr, ptr %this.addr.i290, align 8
  store ptr %this1.i291, ptr %this.addr.i.i289, align 8
  %this1.i.i292 = load ptr, ptr %this.addr.i.i289, align 8
  store ptr null, ptr %this1.i.i292, align 8
  %host_import_module_dynamically_callback_ = getelementptr inbounds %"class.node::Realm", ptr %this3, i32 0, i32 24
  store ptr %host_import_module_dynamically_callback_, ptr %this.addr.i42, align 8
  %this1.i43 = load ptr, ptr %this.addr.i42, align 8
  store ptr %this1.i43, ptr %this.addr.i286, align 8
  %this1.i287 = load ptr, ptr %this.addr.i286, align 8
  store ptr %this1.i287, ptr %this.addr.i.i285, align 8
  %this1.i.i288 = load ptr, ptr %this.addr.i.i285, align 8
  store ptr null, ptr %this1.i.i288, align 8
  %host_initialize_import_meta_object_callback_ = getelementptr inbounds %"class.node::Realm", ptr %this3, i32 0, i32 25
  store ptr %host_initialize_import_meta_object_callback_, ptr %this.addr.i44, align 8
  %this1.i45 = load ptr, ptr %this.addr.i44, align 8
  store ptr %this1.i45, ptr %this.addr.i282, align 8
  %this1.i283 = load ptr, ptr %this.addr.i282, align 8
  store ptr %this1.i283, ptr %this.addr.i.i281, align 8
  %this1.i.i284 = load ptr, ptr %this.addr.i.i281, align 8
  store ptr null, ptr %this1.i.i284, align 8
  %http2session_on_altsvc_function_ = getelementptr inbounds %"class.node::Realm", ptr %this3, i32 0, i32 26
  store ptr %http2session_on_altsvc_function_, ptr %this.addr.i46, align 8
  %this1.i47 = load ptr, ptr %this.addr.i46, align 8
  store ptr %this1.i47, ptr %this.addr.i278, align 8
  %this1.i279 = load ptr, ptr %this.addr.i278, align 8
  store ptr %this1.i279, ptr %this.addr.i.i277, align 8
  %this1.i.i280 = load ptr, ptr %this.addr.i.i277, align 8
  store ptr null, ptr %this1.i.i280, align 8
  %http2session_on_error_function_ = getelementptr inbounds %"class.node::Realm", ptr %this3, i32 0, i32 27
  store ptr %http2session_on_error_function_, ptr %this.addr.i48, align 8
  %this1.i49 = load ptr, ptr %this.addr.i48, align 8
  store ptr %this1.i49, ptr %this.addr.i274, align 8
  %this1.i275 = load ptr, ptr %this.addr.i274, align 8
  store ptr %this1.i275, ptr %this.addr.i.i273, align 8
  %this1.i.i276 = load ptr, ptr %this.addr.i.i273, align 8
  store ptr null, ptr %this1.i.i276, align 8
  %http2session_on_frame_error_function_ = getelementptr inbounds %"class.node::Realm", ptr %this3, i32 0, i32 28
  store ptr %http2session_on_frame_error_function_, ptr %this.addr.i50, align 8
  %this1.i51 = load ptr, ptr %this.addr.i50, align 8
  store ptr %this1.i51, ptr %this.addr.i270, align 8
  %this1.i271 = load ptr, ptr %this.addr.i270, align 8
  store ptr %this1.i271, ptr %this.addr.i.i269, align 8
  %this1.i.i272 = load ptr, ptr %this.addr.i.i269, align 8
  store ptr null, ptr %this1.i.i272, align 8
  %http2session_on_goaway_data_function_ = getelementptr inbounds %"class.node::Realm", ptr %this3, i32 0, i32 29
  store ptr %http2session_on_goaway_data_function_, ptr %this.addr.i52, align 8
  %this1.i53 = load ptr, ptr %this.addr.i52, align 8
  store ptr %this1.i53, ptr %this.addr.i266, align 8
  %this1.i267 = load ptr, ptr %this.addr.i266, align 8
  store ptr %this1.i267, ptr %this.addr.i.i265, align 8
  %this1.i.i268 = load ptr, ptr %this.addr.i.i265, align 8
  store ptr null, ptr %this1.i.i268, align 8
  %http2session_on_headers_function_ = getelementptr inbounds %"class.node::Realm", ptr %this3, i32 0, i32 30
  store ptr %http2session_on_headers_function_, ptr %this.addr.i54, align 8
  %this1.i55 = load ptr, ptr %this.addr.i54, align 8
  store ptr %this1.i55, ptr %this.addr.i262, align 8
  %this1.i263 = load ptr, ptr %this.addr.i262, align 8
  store ptr %this1.i263, ptr %this.addr.i.i261, align 8
  %this1.i.i264 = load ptr, ptr %this.addr.i.i261, align 8
  store ptr null, ptr %this1.i.i264, align 8
  %http2session_on_origin_function_ = getelementptr inbounds %"class.node::Realm", ptr %this3, i32 0, i32 31
  store ptr %http2session_on_origin_function_, ptr %this.addr.i56, align 8
  %this1.i57 = load ptr, ptr %this.addr.i56, align 8
  store ptr %this1.i57, ptr %this.addr.i258, align 8
  %this1.i259 = load ptr, ptr %this.addr.i258, align 8
  store ptr %this1.i259, ptr %this.addr.i.i257, align 8
  %this1.i.i260 = load ptr, ptr %this.addr.i.i257, align 8
  store ptr null, ptr %this1.i.i260, align 8
  %http2session_on_ping_function_ = getelementptr inbounds %"class.node::Realm", ptr %this3, i32 0, i32 32
  store ptr %http2session_on_ping_function_, ptr %this.addr.i58, align 8
  %this1.i59 = load ptr, ptr %this.addr.i58, align 8
  store ptr %this1.i59, ptr %this.addr.i254, align 8
  %this1.i255 = load ptr, ptr %this.addr.i254, align 8
  store ptr %this1.i255, ptr %this.addr.i.i253, align 8
  %this1.i.i256 = load ptr, ptr %this.addr.i.i253, align 8
  store ptr null, ptr %this1.i.i256, align 8
  %http2session_on_priority_function_ = getelementptr inbounds %"class.node::Realm", ptr %this3, i32 0, i32 33
  store ptr %http2session_on_priority_function_, ptr %this.addr.i60, align 8
  %this1.i61 = load ptr, ptr %this.addr.i60, align 8
  store ptr %this1.i61, ptr %this.addr.i250, align 8
  %this1.i251 = load ptr, ptr %this.addr.i250, align 8
  store ptr %this1.i251, ptr %this.addr.i.i249, align 8
  %this1.i.i252 = load ptr, ptr %this.addr.i.i249, align 8
  store ptr null, ptr %this1.i.i252, align 8
  %http2session_on_settings_function_ = getelementptr inbounds %"class.node::Realm", ptr %this3, i32 0, i32 34
  store ptr %http2session_on_settings_function_, ptr %this.addr.i62, align 8
  %this1.i63 = load ptr, ptr %this.addr.i62, align 8
  store ptr %this1.i63, ptr %this.addr.i246, align 8
  %this1.i247 = load ptr, ptr %this.addr.i246, align 8
  store ptr %this1.i247, ptr %this.addr.i.i245, align 8
  %this1.i.i248 = load ptr, ptr %this.addr.i.i245, align 8
  store ptr null, ptr %this1.i.i248, align 8
  %http2session_on_stream_close_function_ = getelementptr inbounds %"class.node::Realm", ptr %this3, i32 0, i32 35
  store ptr %http2session_on_stream_close_function_, ptr %this.addr.i64, align 8
  %this1.i65 = load ptr, ptr %this.addr.i64, align 8
  store ptr %this1.i65, ptr %this.addr.i242, align 8
  %this1.i243 = load ptr, ptr %this.addr.i242, align 8
  store ptr %this1.i243, ptr %this.addr.i.i241, align 8
  %this1.i.i244 = load ptr, ptr %this.addr.i.i241, align 8
  store ptr null, ptr %this1.i.i244, align 8
  %http2session_on_stream_trailers_function_ = getelementptr inbounds %"class.node::Realm", ptr %this3, i32 0, i32 36
  store ptr %http2session_on_stream_trailers_function_, ptr %this.addr.i66, align 8
  %this1.i67 = load ptr, ptr %this.addr.i66, align 8
  store ptr %this1.i67, ptr %this.addr.i238, align 8
  %this1.i239 = load ptr, ptr %this.addr.i238, align 8
  store ptr %this1.i239, ptr %this.addr.i.i237, align 8
  %this1.i.i240 = load ptr, ptr %this.addr.i.i237, align 8
  store ptr null, ptr %this1.i.i240, align 8
  %internal_binding_loader_ = getelementptr inbounds %"class.node::Realm", ptr %this3, i32 0, i32 37
  store ptr %internal_binding_loader_, ptr %this.addr.i68, align 8
  %this1.i69 = load ptr, ptr %this.addr.i68, align 8
  store ptr %this1.i69, ptr %this.addr.i234, align 8
  %this1.i235 = load ptr, ptr %this.addr.i234, align 8
  store ptr %this1.i235, ptr %this.addr.i.i233, align 8
  %this1.i.i236 = load ptr, ptr %this.addr.i.i233, align 8
  store ptr null, ptr %this1.i.i236, align 8
  %immediate_callback_function_ = getelementptr inbounds %"class.node::Realm", ptr %this3, i32 0, i32 38
  store ptr %immediate_callback_function_, ptr %this.addr.i70, align 8
  %this1.i71 = load ptr, ptr %this.addr.i70, align 8
  store ptr %this1.i71, ptr %this.addr.i230, align 8
  %this1.i231 = load ptr, ptr %this.addr.i230, align 8
  store ptr %this1.i231, ptr %this.addr.i.i229, align 8
  %this1.i.i232 = load ptr, ptr %this.addr.i.i229, align 8
  store ptr null, ptr %this1.i.i232, align 8
  %inspector_console_extension_installer_ = getelementptr inbounds %"class.node::Realm", ptr %this3, i32 0, i32 39
  store ptr %inspector_console_extension_installer_, ptr %this.addr.i72, align 8
  %this1.i73 = load ptr, ptr %this.addr.i72, align 8
  store ptr %this1.i73, ptr %this.addr.i226, align 8
  %this1.i227 = load ptr, ptr %this.addr.i226, align 8
  store ptr %this1.i227, ptr %this.addr.i.i225, align 8
  %this1.i.i228 = load ptr, ptr %this.addr.i.i225, align 8
  store ptr null, ptr %this1.i.i228, align 8
  %inspector_disable_async_hooks_ = getelementptr inbounds %"class.node::Realm", ptr %this3, i32 0, i32 40
  store ptr %inspector_disable_async_hooks_, ptr %this.addr.i74, align 8
  %this1.i75 = load ptr, ptr %this.addr.i74, align 8
  store ptr %this1.i75, ptr %this.addr.i222, align 8
  %this1.i223 = load ptr, ptr %this.addr.i222, align 8
  store ptr %this1.i223, ptr %this.addr.i.i221, align 8
  %this1.i.i224 = load ptr, ptr %this.addr.i.i221, align 8
  store ptr null, ptr %this1.i.i224, align 8
  %inspector_enable_async_hooks_ = getelementptr inbounds %"class.node::Realm", ptr %this3, i32 0, i32 41
  store ptr %inspector_enable_async_hooks_, ptr %this.addr.i76, align 8
  %this1.i77 = load ptr, ptr %this.addr.i76, align 8
  store ptr %this1.i77, ptr %this.addr.i218, align 8
  %this1.i219 = load ptr, ptr %this.addr.i218, align 8
  store ptr %this1.i219, ptr %this.addr.i.i217, align 8
  %this1.i.i220 = load ptr, ptr %this.addr.i.i217, align 8
  store ptr null, ptr %this1.i.i220, align 8
  %maybe_cache_generated_source_map_ = getelementptr inbounds %"class.node::Realm", ptr %this3, i32 0, i32 42
  store ptr %maybe_cache_generated_source_map_, ptr %this.addr.i78, align 8
  %this1.i79 = load ptr, ptr %this.addr.i78, align 8
  store ptr %this1.i79, ptr %this.addr.i214, align 8
  %this1.i215 = load ptr, ptr %this.addr.i214, align 8
  store ptr %this1.i215, ptr %this.addr.i.i213, align 8
  %this1.i.i216 = load ptr, ptr %this.addr.i.i213, align 8
  store ptr null, ptr %this1.i.i216, align 8
  %messaging_deserialize_create_object_ = getelementptr inbounds %"class.node::Realm", ptr %this3, i32 0, i32 43
  store ptr %messaging_deserialize_create_object_, ptr %this.addr.i80, align 8
  %this1.i81 = load ptr, ptr %this.addr.i80, align 8
  store ptr %this1.i81, ptr %this.addr.i210, align 8
  %this1.i211 = load ptr, ptr %this.addr.i210, align 8
  store ptr %this1.i211, ptr %this.addr.i.i209, align 8
  %this1.i.i212 = load ptr, ptr %this.addr.i.i209, align 8
  store ptr null, ptr %this1.i.i212, align 8
  %message_port_ = getelementptr inbounds %"class.node::Realm", ptr %this3, i32 0, i32 44
  store ptr %message_port_, ptr %this.addr.i120, align 8
  %this1.i121 = load ptr, ptr %this.addr.i120, align 8
  store ptr %this1.i121, ptr %this.addr.i370, align 8
  %this1.i371 = load ptr, ptr %this.addr.i370, align 8
  store ptr %this1.i371, ptr %this.addr.i.i369, align 8
  %this1.i.i372 = load ptr, ptr %this.addr.i.i369, align 8
  store ptr null, ptr %this1.i.i372, align 8
  %builtin_module_require_ = getelementptr inbounds %"class.node::Realm", ptr %this3, i32 0, i32 45
  store ptr %builtin_module_require_, ptr %this.addr.i82, align 8
  %this1.i83 = load ptr, ptr %this.addr.i82, align 8
  store ptr %this1.i83, ptr %this.addr.i206, align 8
  %this1.i207 = load ptr, ptr %this.addr.i206, align 8
  store ptr %this1.i207, ptr %this.addr.i.i205, align 8
  %this1.i.i208 = load ptr, ptr %this.addr.i.i205, align 8
  store ptr null, ptr %this1.i.i208, align 8
  %performance_entry_callback_ = getelementptr inbounds %"class.node::Realm", ptr %this3, i32 0, i32 46
  store ptr %performance_entry_callback_, ptr %this.addr.i84, align 8
  %this1.i85 = load ptr, ptr %this.addr.i84, align 8
  store ptr %this1.i85, ptr %this.addr.i202, align 8
  %this1.i203 = load ptr, ptr %this.addr.i202, align 8
  store ptr %this1.i203, ptr %this.addr.i.i201, align 8
  %this1.i.i204 = load ptr, ptr %this.addr.i.i201, align 8
  store ptr null, ptr %this1.i.i204, align 8
  %prepare_stack_trace_callback_ = getelementptr inbounds %"class.node::Realm", ptr %this3, i32 0, i32 47
  store ptr %prepare_stack_trace_callback_, ptr %this.addr.i86, align 8
  %this1.i87 = load ptr, ptr %this.addr.i86, align 8
  store ptr %this1.i87, ptr %this.addr.i198, align 8
  %this1.i199 = load ptr, ptr %this.addr.i198, align 8
  store ptr %this1.i199, ptr %this.addr.i.i197, align 8
  %this1.i.i200 = load ptr, ptr %this.addr.i.i197, align 8
  store ptr null, ptr %this1.i.i200, align 8
  %process_object_ = getelementptr inbounds %"class.node::Realm", ptr %this3, i32 0, i32 48
  store ptr %process_object_, ptr %this.addr.i122, align 8
  %this1.i123 = load ptr, ptr %this.addr.i122, align 8
  store ptr %this1.i123, ptr %this.addr.i366, align 8
  %this1.i367 = load ptr, ptr %this.addr.i366, align 8
  store ptr %this1.i367, ptr %this.addr.i.i365, align 8
  %this1.i.i368 = load ptr, ptr %this.addr.i.i365, align 8
  store ptr null, ptr %this1.i.i368, align 8
  %primordials_ = getelementptr inbounds %"class.node::Realm", ptr %this3, i32 0, i32 49
  store ptr %primordials_, ptr %this.addr.i124, align 8
  %this1.i125 = load ptr, ptr %this.addr.i124, align 8
  store ptr %this1.i125, ptr %this.addr.i362, align 8
  %this1.i363 = load ptr, ptr %this.addr.i362, align 8
  store ptr %this1.i363, ptr %this.addr.i.i361, align 8
  %this1.i.i364 = load ptr, ptr %this.addr.i.i361, align 8
  store ptr null, ptr %this1.i.i364, align 8
  %primordials_safe_map_prototype_object_ = getelementptr inbounds %"class.node::Realm", ptr %this3, i32 0, i32 50
  store ptr %primordials_safe_map_prototype_object_, ptr %this.addr.i126, align 8
  %this1.i127 = load ptr, ptr %this.addr.i126, align 8
  store ptr %this1.i127, ptr %this.addr.i358, align 8
  %this1.i359 = load ptr, ptr %this.addr.i358, align 8
  store ptr %this1.i359, ptr %this.addr.i.i357, align 8
  %this1.i.i360 = load ptr, ptr %this.addr.i.i357, align 8
  store ptr null, ptr %this1.i.i360, align 8
  %primordials_safe_set_prototype_object_ = getelementptr inbounds %"class.node::Realm", ptr %this3, i32 0, i32 51
  store ptr %primordials_safe_set_prototype_object_, ptr %this.addr.i128, align 8
  %this1.i129 = load ptr, ptr %this.addr.i128, align 8
  store ptr %this1.i129, ptr %this.addr.i354, align 8
  %this1.i355 = load ptr, ptr %this.addr.i354, align 8
  store ptr %this1.i355, ptr %this.addr.i.i353, align 8
  %this1.i.i356 = load ptr, ptr %this.addr.i.i353, align 8
  store ptr null, ptr %this1.i.i356, align 8
  %primordials_safe_weak_map_prototype_object_ = getelementptr inbounds %"class.node::Realm", ptr %this3, i32 0, i32 52
  store ptr %primordials_safe_weak_map_prototype_object_, ptr %this.addr.i130, align 8
  %this1.i131 = load ptr, ptr %this.addr.i130, align 8
  store ptr %this1.i131, ptr %this.addr.i350, align 8
  %this1.i351 = load ptr, ptr %this.addr.i350, align 8
  store ptr %this1.i351, ptr %this.addr.i.i349, align 8
  %this1.i.i352 = load ptr, ptr %this.addr.i.i349, align 8
  store ptr null, ptr %this1.i.i352, align 8
  %primordials_safe_weak_set_prototype_object_ = getelementptr inbounds %"class.node::Realm", ptr %this3, i32 0, i32 53
  store ptr %primordials_safe_weak_set_prototype_object_, ptr %this.addr.i132, align 8
  %this1.i133 = load ptr, ptr %this.addr.i132, align 8
  store ptr %this1.i133, ptr %this.addr.i346, align 8
  %this1.i347 = load ptr, ptr %this.addr.i346, align 8
  store ptr %this1.i347, ptr %this.addr.i.i345, align 8
  %this1.i.i348 = load ptr, ptr %this.addr.i.i345, align 8
  store ptr null, ptr %this1.i.i348, align 8
  %promise_hook_handler_ = getelementptr inbounds %"class.node::Realm", ptr %this3, i32 0, i32 54
  store ptr %promise_hook_handler_, ptr %this.addr.i88, align 8
  %this1.i89 = load ptr, ptr %this.addr.i88, align 8
  store ptr %this1.i89, ptr %this.addr.i194, align 8
  %this1.i195 = load ptr, ptr %this.addr.i194, align 8
  store ptr %this1.i195, ptr %this.addr.i.i193, align 8
  %this1.i.i196 = load ptr, ptr %this.addr.i.i193, align 8
  store ptr null, ptr %this1.i.i196, align 8
  %promise_reject_callback_ = getelementptr inbounds %"class.node::Realm", ptr %this3, i32 0, i32 55
  store ptr %promise_reject_callback_, ptr %this.addr.i90, align 8
  %this1.i91 = load ptr, ptr %this.addr.i90, align 8
  store ptr %this1.i91, ptr %this.addr.i190, align 8
  %this1.i191 = load ptr, ptr %this.addr.i190, align 8
  store ptr %this1.i191, ptr %this.addr.i.i189, align 8
  %this1.i.i192 = load ptr, ptr %this.addr.i.i189, align 8
  store ptr null, ptr %this1.i.i192, align 8
  %snapshot_serialize_callback_ = getelementptr inbounds %"class.node::Realm", ptr %this3, i32 0, i32 56
  store ptr %snapshot_serialize_callback_, ptr %this.addr.i92, align 8
  %this1.i93 = load ptr, ptr %this.addr.i92, align 8
  store ptr %this1.i93, ptr %this.addr.i186, align 8
  %this1.i187 = load ptr, ptr %this.addr.i186, align 8
  store ptr %this1.i187, ptr %this.addr.i.i185, align 8
  %this1.i.i188 = load ptr, ptr %this.addr.i.i185, align 8
  store ptr null, ptr %this1.i.i188, align 8
  %snapshot_deserialize_callback_ = getelementptr inbounds %"class.node::Realm", ptr %this3, i32 0, i32 57
  store ptr %snapshot_deserialize_callback_, ptr %this.addr.i94, align 8
  %this1.i95 = load ptr, ptr %this.addr.i94, align 8
  store ptr %this1.i95, ptr %this.addr.i182, align 8
  %this1.i183 = load ptr, ptr %this.addr.i182, align 8
  store ptr %this1.i183, ptr %this.addr.i.i181, align 8
  %this1.i.i184 = load ptr, ptr %this.addr.i.i181, align 8
  store ptr null, ptr %this1.i.i184, align 8
  %snapshot_deserialize_main_ = getelementptr inbounds %"class.node::Realm", ptr %this3, i32 0, i32 58
  store ptr %snapshot_deserialize_main_, ptr %this.addr.i96, align 8
  %this1.i97 = load ptr, ptr %this.addr.i96, align 8
  store ptr %this1.i97, ptr %this.addr.i178, align 8
  %this1.i179 = load ptr, ptr %this.addr.i178, align 8
  store ptr %this1.i179, ptr %this.addr.i.i177, align 8
  %this1.i.i180 = load ptr, ptr %this.addr.i.i177, align 8
  store ptr null, ptr %this1.i.i180, align 8
  %source_map_cache_getter_ = getelementptr inbounds %"class.node::Realm", ptr %this3, i32 0, i32 59
  store ptr %source_map_cache_getter_, ptr %this.addr.i98, align 8
  %this1.i99 = load ptr, ptr %this.addr.i98, align 8
  store ptr %this1.i99, ptr %this.addr.i174, align 8
  %this1.i175 = load ptr, ptr %this.addr.i174, align 8
  store ptr %this1.i175, ptr %this.addr.i.i173, align 8
  %this1.i.i176 = load ptr, ptr %this.addr.i.i173, align 8
  store ptr null, ptr %this1.i.i176, align 8
  %tick_callback_function_ = getelementptr inbounds %"class.node::Realm", ptr %this3, i32 0, i32 60
  store ptr %tick_callback_function_, ptr %this.addr.i100, align 8
  %this1.i101 = load ptr, ptr %this.addr.i100, align 8
  store ptr %this1.i101, ptr %this.addr.i170, align 8
  %this1.i171 = load ptr, ptr %this.addr.i170, align 8
  store ptr %this1.i171, ptr %this.addr.i.i169, align 8
  %this1.i.i172 = load ptr, ptr %this.addr.i.i169, align 8
  store ptr null, ptr %this1.i.i172, align 8
  %timers_callback_function_ = getelementptr inbounds %"class.node::Realm", ptr %this3, i32 0, i32 61
  store ptr %timers_callback_function_, ptr %this.addr.i102, align 8
  %this1.i103 = load ptr, ptr %this.addr.i102, align 8
  store ptr %this1.i103, ptr %this.addr.i166, align 8
  %this1.i167 = load ptr, ptr %this.addr.i166, align 8
  store ptr %this1.i167, ptr %this.addr.i.i165, align 8
  %this1.i.i168 = load ptr, ptr %this.addr.i.i165, align 8
  store ptr null, ptr %this1.i.i168, align 8
  %tls_wrap_constructor_function_ = getelementptr inbounds %"class.node::Realm", ptr %this3, i32 0, i32 62
  store ptr %tls_wrap_constructor_function_, ptr %this.addr.i104, align 8
  %this1.i105 = load ptr, ptr %this.addr.i104, align 8
  store ptr %this1.i105, ptr %this.addr.i162, align 8
  %this1.i163 = load ptr, ptr %this.addr.i162, align 8
  store ptr %this1.i163, ptr %this.addr.i.i161, align 8
  %this1.i.i164 = load ptr, ptr %this.addr.i.i161, align 8
  store ptr null, ptr %this1.i.i164, align 8
  %trace_category_state_function_ = getelementptr inbounds %"class.node::Realm", ptr %this3, i32 0, i32 63
  store ptr %trace_category_state_function_, ptr %this.addr.i106, align 8
  %this1.i107 = load ptr, ptr %this.addr.i106, align 8
  store ptr %this1.i107, ptr %this.addr.i158, align 8
  %this1.i159 = load ptr, ptr %this.addr.i158, align 8
  store ptr %this1.i159, ptr %this.addr.i.i157, align 8
  %this1.i.i160 = load ptr, ptr %this.addr.i.i157, align 8
  store ptr null, ptr %this1.i.i160, align 8
  %udp_constructor_function_ = getelementptr inbounds %"class.node::Realm", ptr %this3, i32 0, i32 64
  store ptr %udp_constructor_function_, ptr %this.addr.i108, align 8
  %this1.i109 = load ptr, ptr %this.addr.i108, align 8
  store ptr %this1.i109, ptr %this.addr.i154, align 8
  %this1.i155 = load ptr, ptr %this.addr.i154, align 8
  store ptr %this1.i155, ptr %this.addr.i.i153, align 8
  %this1.i.i156 = load ptr, ptr %this.addr.i.i153, align 8
  store ptr null, ptr %this1.i.i156, align 8
  %url_constructor_function_ = getelementptr inbounds %"class.node::Realm", ptr %this3, i32 0, i32 65
  store ptr %url_constructor_function_, ptr %this.addr.i110, align 8
  %this1.i111 = load ptr, ptr %this.addr.i110, align 8
  store ptr %this1.i111, ptr %this.addr.i150, align 8
  %this1.i151 = load ptr, ptr %this.addr.i150, align 8
  store ptr %this1.i151, ptr %this.addr.i.i149, align 8
  %this1.i.i152 = load ptr, ptr %this.addr.i.i149, align 8
  store ptr null, ptr %this1.i.i152, align 8
  %wasm_streaming_compilation_impl_ = getelementptr inbounds %"class.node::Realm", ptr %this3, i32 0, i32 66
  store ptr %wasm_streaming_compilation_impl_, ptr %this.addr.i112, align 8
  %this1.i113 = load ptr, ptr %this.addr.i112, align 8
  store ptr %this1.i113, ptr %this.addr.i146, align 8
  %this1.i147 = load ptr, ptr %this.addr.i146, align 8
  store ptr %this1.i147, ptr %this.addr.i.i145, align 8
  %this1.i.i148 = load ptr, ptr %this.addr.i.i145, align 8
  store ptr null, ptr %this1.i.i148, align 8
  %wasm_streaming_object_constructor_ = getelementptr inbounds %"class.node::Realm", ptr %this3, i32 0, i32 67
  store ptr %wasm_streaming_object_constructor_, ptr %this.addr.i114, align 8
  %this1.i115 = load ptr, ptr %this.addr.i114, align 8
  store ptr %this1.i115, ptr %this.addr.i143, align 8
  %this1.i144 = load ptr, ptr %this.addr.i143, align 8
  store ptr %this1.i144, ptr %this.addr.i.i, align 8
  %this1.i.i = load ptr, ptr %this.addr.i.i, align 8
  store ptr null, ptr %this1.i.i, align 8
  %kind_ = getelementptr inbounds %"class.node::Realm", ptr %this3, i32 0, i32 68
  %3 = load i32, ptr %kind.addr, align 4
  store i32 %3, ptr %kind_, align 8
  %has_run_bootstrapping_code_ = getelementptr inbounds %"class.node::Realm", ptr %this3, i32 0, i32 69
  store i8 0, ptr %has_run_bootstrapping_code_, align 4
  %base_object_count_ = getelementptr inbounds %"class.node::Realm", ptr %this3, i32 0, i32 70
  store i64 0, ptr %base_object_count_, align 8
  %base_object_created_by_bootstrap_ = getelementptr inbounds %"class.node::Realm", ptr %this3, i32 0, i32 71
  store i64 0, ptr %base_object_created_by_bootstrap_, align 8
  %binding_data_store_ = getelementptr inbounds %"class.node::Realm", ptr %this3, i32 0, i32 72
  call void @_ZNSt5arrayIN4node17BaseObjectPtrImplINS0_10BaseObjectELb1EEELm12EEC2Ev(ptr noundef nonnull align 8 dereferenceable(96) %binding_data_store_)
  %cleanup_queue_ = getelementptr inbounds %"class.node::Realm", ptr %this3, i32 0, i32 73
  call void @_ZN4node12CleanupQueueC2Ev(ptr noundef nonnull align 8 dereferenceable(72) %cleanup_queue_) #3
  %context_5 = getelementptr inbounds %"class.node::Realm", ptr %this3, i32 0, i32 7
  %isolate_6 = getelementptr inbounds %"class.node::Realm", ptr %this3, i32 0, i32 6
  %4 = load ptr, ptr %isolate_6, align 8
  store ptr %context_5, ptr %this.addr.i134, align 8
  store ptr %4, ptr %isolate.addr.i, align 8
  store ptr %context, ptr %other.addr.i, align 8
  %this1.i135 = load ptr, ptr %this.addr.i134, align 8
  store ptr %this1.i135, ptr %this.addr.i387, align 8
  %this1.i388 = load ptr, ptr %this.addr.i387, align 8
  store ptr %this1.i388, ptr %this.addr.i.i386, align 8
  %this1.i.i389 = load ptr, ptr %this.addr.i.i386, align 8
  %5 = load ptr, ptr %this1.i.i389, align 8
  %cmp.i.i = icmp eq ptr %5, null
  br i1 %cmp.i.i, label %if.then.i392, label %if.end.i390

if.then.i392:                                     ; preds = %entry
  br label %_ZN2v814PersistentBaseINS_7ContextEE5ResetEv.exit

if.end.i390:                                      ; preds = %entry
  store ptr %this1.i388, ptr %this.addr.i393, align 8
  %this1.i394 = load ptr, ptr %this.addr.i393, align 8
  %6 = load ptr, ptr %this1.i394, align 8
  call void @_ZN2v812api_internal13DisposeGlobalEPm(ptr noundef %6) #3
  store ptr %this1.i388, ptr %this.addr.i397, align 8
  %this1.i398 = load ptr, ptr %this.addr.i397, align 8
  store ptr null, ptr %this1.i398, align 8
  br label %_ZN2v814PersistentBaseINS_7ContextEE5ResetEv.exit

_ZN2v814PersistentBaseINS_7ContextEE5ResetEv.exit: ; preds = %if.end.i390, %if.then.i392
  %7 = load ptr, ptr %other.addr.i, align 8
  store ptr %7, ptr %this.addr.i137, align 8
  %this1.i138 = load ptr, ptr %this.addr.i137, align 8
  %8 = load ptr, ptr %this1.i138, align 8
  %cmp.i = icmp eq ptr %8, null
  br i1 %cmp.i, label %if.then.i, label %if.end.i

if.then.i:                                        ; preds = %_ZN2v814PersistentBaseINS_7ContextEE5ResetEv.exit
  br label %_ZN2v814PersistentBaseINS_7ContextEE5ResetIS1_EEvPNS_7IsolateERKNS_5LocalIT_EE.exit

if.end.i:                                         ; preds = %_ZN2v814PersistentBaseINS_7ContextEE5ResetEv.exit
  %9 = load ptr, ptr %isolate.addr.i, align 8
  %10 = load ptr, ptr %other.addr.i, align 8
  store ptr %10, ptr %this.addr.i404, align 8
  %this1.i405 = load ptr, ptr %this.addr.i404, align 8
  store ptr %this1.i405, ptr %this.addr.i.i403, align 8
  %this1.i.i406 = load ptr, ptr %this.addr.i.i403, align 8
  store ptr %this1.i.i406, ptr %this.addr.i2.i, align 8
  %this1.i3.i = load ptr, ptr %this.addr.i2.i, align 8
  store ptr %this1.i3.i, ptr %this.addr.i.i.i, align 8
  %this1.i.i.i = load ptr, ptr %this.addr.i.i.i, align 8
  %11 = load ptr, ptr %this1.i.i.i, align 8
  store ptr %11, ptr %slot.addr.i.i, align 8
  %12 = load ptr, ptr %slot.addr.i.i, align 8
  store ptr %9, ptr %isolate.addr.i399, align 8
  store ptr %12, ptr %that.addr.i, align 8
  %13 = load ptr, ptr %that.addr.i, align 8
  store ptr %13, ptr %value.addr.i, align 8
  %14 = load ptr, ptr %value.addr.i, align 8
  %15 = ptrtoint ptr %14 to i64
  %cmp.i407 = icmp eq i64 %15, 0
  br i1 %cmp.i407, label %if.then.i402, label %if.end.i400

if.then.i402:                                     ; preds = %if.end.i
  store ptr null, ptr %retval.i, align 8
  br label %_ZN2v814PersistentBaseINS_7ContextEE3NewEPNS_7IsolateEPS1_.exit

if.end.i400:                                      ; preds = %if.end.i
  %16 = load ptr, ptr %isolate.addr.i399, align 8
  %17 = load ptr, ptr %that.addr.i, align 8
  store ptr %17, ptr %value.addr.i408, align 8
  %18 = load ptr, ptr %value.addr.i408, align 8
  %19 = load i64, ptr %18, align 8
  %call2.i401 = call noundef ptr @_ZN2v812api_internal18GlobalizeReferenceEPNS_8internal7IsolateEm(ptr noundef %16, i64 noundef %19) #3
  store ptr %call2.i401, ptr %retval.i, align 8
  br label %_ZN2v814PersistentBaseINS_7ContextEE3NewEPNS_7IsolateEPS1_.exit

_ZN2v814PersistentBaseINS_7ContextEE3NewEPNS_7IsolateEPS1_.exit: ; preds = %if.end.i400, %if.then.i402
  %20 = load ptr, ptr %retval.i, align 8
  store ptr %this1.i135, ptr %this.addr.i395, align 8
  %this1.i396 = load ptr, ptr %this.addr.i395, align 8
  store ptr %20, ptr %this1.i396, align 8
  br label %_ZN2v814PersistentBaseINS_7ContextEE5ResetIS1_EEvPNS_7IsolateERKNS_5LocalIT_EE.exit

_ZN2v814PersistentBaseINS_7ContextEE5ResetIS1_EEvPNS_7IsolateERKNS_5LocalIT_EE.exit: ; preds = %_ZN2v814PersistentBaseINS_7ContextEE3NewEPNS_7IsolateEPS1_.exit, %if.then.i
  %21 = load ptr, ptr %env.addr, align 8
  call void @llvm.memcpy.p0.p0.i64(ptr align 8 %agg.tmp, ptr align 8 %context, i64 8, i1 false)
  call void @_ZNSaIcEC1Ev(ptr noundef nonnull align 1 dereferenceable(1) %ref.tmp8) #3
  call void @_ZNSt7__cxx1112basic_stringIcSt11char_traitsIcESaIcEEC2IS3_EEPKcRKS3_(ptr noundef nonnull align 8 dereferenceable(32) %ref.tmp7, ptr noundef @.str, ptr noundef nonnull align 1 dereferenceable(1) %ref.tmp8)
  call void @_ZN4node11ContextInfoC2ERKNSt7__cxx1112basic_stringIcSt11char_traitsIcESaIcEEE(ptr noundef nonnull align 8 dereferenceable(65) %ref.tmp, ptr noundef nonnull align 8 dereferenceable(32) %ref.tmp7)
  %coerce.dive9 = getelementptr inbounds %"class.v8::Local", ptr %agg.tmp, i32 0, i32 0
  %coerce.dive10 = getelementptr inbounds %"class.v8::LocalBase", ptr %coerce.dive9, i32 0, i32 0
  %coerce.dive11 = getelementptr inbounds %"class.v8::IndirectHandleBase", ptr %coerce.dive10, i32 0, i32 0
  %22 = load ptr, ptr %coerce.dive11, align 8
  call void @_ZN4node11Environment15AssignToContextEN2v85LocalINS1_7ContextEEEPNS_5RealmERKNS_11ContextInfoE(ptr noundef nonnull align 8 dereferenceable(2872) %21, ptr %22, ptr noundef %this3, ptr noundef nonnull align 8 dereferenceable(65) %ref.tmp)
  call void @_ZN4node11ContextInfoD2Ev(ptr noundef nonnull align 8 dereferenceable(65) %ref.tmp) #3
  call void @_ZNSt7__cxx1112basic_stringIcSt11char_traitsIcESaIcEED1Ev(ptr noundef nonnull align 8 dereferenceable(32) %ref.tmp7) #3
  call void @_ZNSaIcED1Ev(ptr noundef nonnull align 1 dereferenceable(1) %ref.tmp8) #3
  ret void
}

; Function Attrs: mustprogress nounwind uwtable
define linkonce_odr dso_local void @_ZN4node14MemoryRetainerC2Ev(ptr noundef nonnull align 8 dereferenceable(8) %this) unnamed_addr #4 comdat align 2 {
entry:
  %this.addr = alloca ptr, align 8
  store ptr %this, ptr %this.addr, align 8
  %this1 = load ptr, ptr %this.addr, align 8
  store ptr getelementptr inbounds ({ [10 x ptr] }, ptr @_ZTVN4node14MemoryRetainerE, i32 0, inrange i32 0, i32 2), ptr %this1, align 8
  ret void
}

; Function Attrs: mustprogress nounwind uwtable
define linkonce_odr dso_local void @_ZNSt3setIPN4node11node_moduleESt4lessIS2_ESaIS2_EEC2Ev(ptr noundef nonnull align 8 dereferenceable(48) %this) unnamed_addr #4 comdat align 2 {
entry:
  %this.addr = alloca ptr, align 8
  store ptr %this, ptr %this.addr, align 8
  %this1 = load ptr, ptr %this.addr, align 8
  %_M_t = getelementptr inbounds %"class.std::set", ptr %this1, i32 0, i32 0
  call void @_ZNSt8_Rb_treeIPN4node11node_moduleES2_St9_IdentityIS2_ESt4lessIS2_ESaIS2_EEC2Ev(ptr noundef nonnull align 8 dereferenceable(48) %_M_t) #3
  ret void
}

; Function Attrs: mustprogress nounwind uwtable
define linkonce_odr dso_local void @_ZNSt3setINSt7__cxx1112basic_stringIcSt11char_traitsIcESaIcEEESt4lessIS5_ESaIS5_EEC2Ev(ptr noundef nonnull align 8 dereferenceable(48) %this) unnamed_addr #4 comdat align 2 {
entry:
  %this.addr = alloca ptr, align 8
  store ptr %this, ptr %this.addr, align 8
  %this1 = load ptr, ptr %this.addr, align 8
  %_M_t = getelementptr inbounds %"class.std::set.0", ptr %this1, i32 0, i32 0
  call void @_ZNSt8_Rb_treeINSt7__cxx1112basic_stringIcSt11char_traitsIcESaIcEEES5_St9_IdentityIS5_ESt4lessIS5_ESaIS5_EEC2Ev(ptr noundef nonnull align 8 dereferenceable(48) %_M_t) #3
  ret void
}

; Function Attrs: mustprogress nounwind uwtable
define linkonce_odr dso_local void @_ZNSt6vectorINSt7__cxx1112basic_stringIcSt11char_traitsIcESaIcEEESaIS5_EEC2Ev(ptr noundef nonnull align 8 dereferenceable(24) %this) unnamed_addr #4 comdat align 2 {
entry:
  %this.addr = alloca ptr, align 8
  store ptr %this, ptr %this.addr, align 8
  %this1 = load ptr, ptr %this.addr, align 8
  call void @_ZNSt12_Vector_baseINSt7__cxx1112basic_stringIcSt11char_traitsIcESaIcEEESaIS5_EEC2Ev(ptr noundef nonnull align 8 dereferenceable(24) %this1) #3
  ret void
}

declare noundef ptr @_ZN2v87Context10GetIsolateEv(ptr noundef nonnull align 1 dereferenceable(1)) #1

; Function Attrs: mustprogress nounwind uwtable
define linkonce_odr dso_local void @_ZNSt5arrayIN4node17BaseObjectPtrImplINS0_10BaseObjectELb1EEELm12EEC2Ev(ptr noundef nonnull align 8 dereferenceable(96) %this) unnamed_addr #4 comdat align 2 {
entry:
  %this.addr = alloca ptr, align 8
  store ptr %this, ptr %this.addr, align 8
  %this1 = load ptr, ptr %this.addr, align 8
  %_M_elems = getelementptr inbounds %"struct.std::array", ptr %this1, i32 0, i32 0
  %array.begin = getelementptr inbounds [12 x %"class.node::BaseObjectPtrImpl"], ptr %_M_elems, i32 0, i32 0
  %arrayctor.end = getelementptr inbounds %"class.node::BaseObjectPtrImpl", ptr %array.begin, i64 12
  br label %arrayctor.loop

arrayctor.loop:                                   ; preds = %arrayctor.loop, %entry
  %arrayctor.cur = phi ptr [ %array.begin, %entry ], [ %arrayctor.next, %arrayctor.loop ]
  call void @_ZN4node17BaseObjectPtrImplINS_10BaseObjectELb1EEC2Ev(ptr noundef nonnull align 8 dereferenceable(8) %arrayctor.cur)
  %arrayctor.next = getelementptr inbounds %"class.node::BaseObjectPtrImpl", ptr %arrayctor.cur, i64 1
  %arrayctor.done = icmp eq ptr %arrayctor.next, %arrayctor.end
  br i1 %arrayctor.done, label %arrayctor.cont, label %arrayctor.loop

arrayctor.cont:                                   ; preds = %arrayctor.loop
  ret void
}

; Function Attrs: mustprogress nounwind uwtable
define linkonce_odr dso_local void @_ZN4node12CleanupQueueC2Ev(ptr noundef nonnull align 8 dereferenceable(72) %this) unnamed_addr #4 comdat align 2 {
entry:
  %this.addr = alloca ptr, align 8
  store ptr %this, ptr %this.addr, align 8
  %this1 = load ptr, ptr %this.addr, align 8
  call void @_ZN4node14MemoryRetainerC2Ev(ptr noundef nonnull align 8 dereferenceable(8) %this1) #3
  store ptr getelementptr inbounds ({ [10 x ptr] }, ptr @_ZTVN4node12CleanupQueueE, i32 0, inrange i32 0, i32 2), ptr %this1, align 8
  %cleanup_hooks_ = getelementptr inbounds %"class.node::CleanupQueue", ptr %this1, i32 0, i32 1
  call void @_ZNSt13unordered_setIN4node12CleanupQueue19CleanupHookCallbackENS2_4HashENS2_5EqualESaIS2_EEC2Ev(ptr noundef nonnull align 8 dereferenceable(56) %cleanup_hooks_) #3
  %cleanup_hook_counter_ = getelementptr inbounds %"class.node::CleanupQueue", ptr %this1, i32 0, i32 2
  store i64 0, ptr %cleanup_hook_counter_, align 8
  ret void
}

declare void @_ZN4node11Environment15AssignToContextEN2v85LocalINS1_7ContextEEEPNS_5RealmERKNS_11ContextInfoE(ptr noundef nonnull align 8 dereferenceable(2872), ptr, ptr noundef, ptr noundef nonnull align 8 dereferenceable(65)) #1

; Function Attrs: nocallback nofree nounwind willreturn memory(argmem: readwrite)
declare void @llvm.memcpy.p0.p0.i64(ptr noalias nocapture writeonly, ptr noalias nocapture readonly, i64, i1 immarg) #5

; Function Attrs: nounwind
declare void @_ZNSaIcEC1Ev(ptr noundef nonnull align 1 dereferenceable(1)) unnamed_addr #2

; Function Attrs: mustprogress nounwind uwtable
define linkonce_odr dso_local void @_ZNSt7__cxx1112basic_stringIcSt11char_traitsIcESaIcEEC2IS3_EEPKcRKS3_(ptr noundef nonnull align 8 dereferenceable(32) %this, ptr noundef %__s, ptr noundef nonnull align 1 dereferenceable(1) %__a) unnamed_addr #4 comdat align 2 {
entry:
  %this.addr = alloca ptr, align 8
  %__s.addr = alloca ptr, align 8
  %__a.addr = alloca ptr, align 8
  %__end = alloca ptr, align 8
  store ptr %this, ptr %this.addr, align 8
  store ptr %__s, ptr %__s.addr, align 8
  store ptr %__a, ptr %__a.addr, align 8
  %this1 = load ptr, ptr %this.addr, align 8
  %_M_dataplus = getelementptr inbounds %"class.std::__cxx11::basic_string", ptr %this1, i32 0, i32 0
  %call = call noundef ptr @_ZNSt7__cxx1112basic_stringIcSt11char_traitsIcESaIcEE13_M_local_dataEv(ptr noundef nonnull align 8 dereferenceable(32) %this1)
  %0 = load ptr, ptr %__a.addr, align 8
  call void @_ZNSt7__cxx1112basic_stringIcSt11char_traitsIcESaIcEE12_Alloc_hiderC1EPcRKS3_(ptr noundef nonnull align 8 dereferenceable(8) %_M_dataplus, ptr noundef %call, ptr noundef nonnull align 1 dereferenceable(1) %0)
  %1 = load ptr, ptr %__s.addr, align 8
  %cmp = icmp eq ptr %1, null
  br i1 %cmp, label %if.then, label %if.end

if.then:                                          ; preds = %entry
  call void @_ZSt19__throw_logic_errorPKc(ptr noundef @.str.186) #14
  unreachable

if.end:                                           ; preds = %entry
  %2 = load ptr, ptr %__s.addr, align 8
  %3 = load ptr, ptr %__s.addr, align 8
  %call2 = call noundef i64 @_ZNSt11char_traitsIcE6lengthEPKc(ptr noundef %3)
  %add.ptr = getelementptr inbounds i8, ptr %2, i64 %call2
  store ptr %add.ptr, ptr %__end, align 8
  %4 = load ptr, ptr %__s.addr, align 8
  %5 = load ptr, ptr %__end, align 8
  call void @_ZNSt7__cxx1112basic_stringIcSt11char_traitsIcESaIcEE12_M_constructIPKcEEvT_S8_St20forward_iterator_tag(ptr noundef nonnull align 8 dereferenceable(32) %this1, ptr noundef %4, ptr noundef %5)
  ret void
}

; Function Attrs: mustprogress nounwind uwtable
define linkonce_odr dso_local void @_ZN4node11ContextInfoC2ERKNSt7__cxx1112basic_stringIcSt11char_traitsIcESaIcEEE(ptr noundef nonnull align 8 dereferenceable(65) %this, ptr noundef nonnull align 8 dereferenceable(32) %name) unnamed_addr #4 comdat align 2 {
entry:
  %this.addr = alloca ptr, align 8
  %name.addr = alloca ptr, align 8
  store ptr %this, ptr %this.addr, align 8
  store ptr %name, ptr %name.addr, align 8
  %this1 = load ptr, ptr %this.addr, align 8
  %name2 = getelementptr inbounds %"struct.node::ContextInfo", ptr %this1, i32 0, i32 0
  %0 = load ptr, ptr %name.addr, align 8
  call void @_ZNSt7__cxx1112basic_stringIcSt11char_traitsIcESaIcEEC1ERKS4_(ptr noundef nonnull align 8 dereferenceable(32) %name2, ptr noundef nonnull align 8 dereferenceable(32) %0)
  %origin = getelementptr inbounds %"struct.node::ContextInfo", ptr %this1, i32 0, i32 1
  call void @_ZNSt7__cxx1112basic_stringIcSt11char_traitsIcESaIcEEC1Ev(ptr noundef nonnull align 8 dereferenceable(32) %origin) #3
  %is_default = getelementptr inbounds %"struct.node::ContextInfo", ptr %this1, i32 0, i32 2
  store i8 0, ptr %is_default, align 8
  ret void
}

; Function Attrs: mustprogress nounwind uwtable
define linkonce_odr dso_local void @_ZN4node11ContextInfoD2Ev(ptr noundef nonnull align 8 dereferenceable(65) %this) unnamed_addr #4 comdat align 2 {
entry:
  %this.addr = alloca ptr, align 8
  store ptr %this, ptr %this.addr, align 8
  %this1 = load ptr, ptr %this.addr, align 8
  %origin = getelementptr inbounds %"struct.node::ContextInfo", ptr %this1, i32 0, i32 1
  call void @_ZNSt7__cxx1112basic_stringIcSt11char_traitsIcESaIcEED1Ev(ptr noundef nonnull align 8 dereferenceable(32) %origin) #3
  %name = getelementptr inbounds %"struct.node::ContextInfo", ptr %this1, i32 0, i32 0
  call void @_ZNSt7__cxx1112basic_stringIcSt11char_traitsIcESaIcEED1Ev(ptr noundef nonnull align 8 dereferenceable(32) %name) #3
  ret void
}

; Function Attrs: nounwind
declare void @_ZNSt7__cxx1112basic_stringIcSt11char_traitsIcESaIcEED1Ev(ptr noundef nonnull align 8 dereferenceable(32)) unnamed_addr #2

; Function Attrs: nounwind
declare void @_ZNSaIcED1Ev(ptr noundef nonnull align 1 dereferenceable(1)) unnamed_addr #2

; Function Attrs: mustprogress nounwind uwtable
define dso_local void @_ZN4node5RealmD2Ev(ptr noundef nonnull align 8 dereferenceable(872) %this) unnamed_addr #4 align 2 {
entry:
  %this.addr.i5.i835 = alloca ptr, align 8
  %this.addr.i3.i836 = alloca ptr, align 8
  %this.addr.i.i837 = alloca ptr, align 8
  %this.addr.i838 = alloca ptr, align 8
  %this.addr.i5.i823 = alloca ptr, align 8
  %this.addr.i3.i824 = alloca ptr, align 8
  %this.addr.i.i825 = alloca ptr, align 8
  %this.addr.i826 = alloca ptr, align 8
  %this.addr.i5.i811 = alloca ptr, align 8
  %this.addr.i3.i812 = alloca ptr, align 8
  %this.addr.i.i813 = alloca ptr, align 8
  %this.addr.i814 = alloca ptr, align 8
  %this.addr.i5.i799 = alloca ptr, align 8
  %this.addr.i3.i800 = alloca ptr, align 8
  %this.addr.i.i801 = alloca ptr, align 8
  %this.addr.i802 = alloca ptr, align 8
  %this.addr.i5.i787 = alloca ptr, align 8
  %this.addr.i3.i788 = alloca ptr, align 8
  %this.addr.i.i789 = alloca ptr, align 8
  %this.addr.i790 = alloca ptr, align 8
  %this.addr.i5.i775 = alloca ptr, align 8
  %this.addr.i3.i776 = alloca ptr, align 8
  %this.addr.i.i777 = alloca ptr, align 8
  %this.addr.i778 = alloca ptr, align 8
  %this.addr.i5.i763 = alloca ptr, align 8
  %this.addr.i3.i764 = alloca ptr, align 8
  %this.addr.i.i765 = alloca ptr, align 8
  %this.addr.i766 = alloca ptr, align 8
  %this.addr.i5.i751 = alloca ptr, align 8
  %this.addr.i3.i752 = alloca ptr, align 8
  %this.addr.i.i753 = alloca ptr, align 8
  %this.addr.i754 = alloca ptr, align 8
  %this.addr.i5.i740 = alloca ptr, align 8
  %this.addr.i3.i741 = alloca ptr, align 8
  %this.addr.i.i742 = alloca ptr, align 8
  %this.addr.i743 = alloca ptr, align 8
  %this.addr.i5.i728 = alloca ptr, align 8
  %this.addr.i3.i729 = alloca ptr, align 8
  %this.addr.i.i730 = alloca ptr, align 8
  %this.addr.i731 = alloca ptr, align 8
  %this.addr.i5.i716 = alloca ptr, align 8
  %this.addr.i3.i717 = alloca ptr, align 8
  %this.addr.i.i718 = alloca ptr, align 8
  %this.addr.i719 = alloca ptr, align 8
  %this.addr.i5.i704 = alloca ptr, align 8
  %this.addr.i3.i705 = alloca ptr, align 8
  %this.addr.i.i706 = alloca ptr, align 8
  %this.addr.i707 = alloca ptr, align 8
  %this.addr.i5.i692 = alloca ptr, align 8
  %this.addr.i3.i693 = alloca ptr, align 8
  %this.addr.i.i694 = alloca ptr, align 8
  %this.addr.i695 = alloca ptr, align 8
  %this.addr.i5.i680 = alloca ptr, align 8
  %this.addr.i3.i681 = alloca ptr, align 8
  %this.addr.i.i682 = alloca ptr, align 8
  %this.addr.i683 = alloca ptr, align 8
  %this.addr.i5.i668 = alloca ptr, align 8
  %this.addr.i3.i669 = alloca ptr, align 8
  %this.addr.i.i670 = alloca ptr, align 8
  %this.addr.i671 = alloca ptr, align 8
  %this.addr.i5.i656 = alloca ptr, align 8
  %this.addr.i3.i657 = alloca ptr, align 8
  %this.addr.i.i658 = alloca ptr, align 8
  %this.addr.i659 = alloca ptr, align 8
  %this.addr.i5.i644 = alloca ptr, align 8
  %this.addr.i3.i645 = alloca ptr, align 8
  %this.addr.i.i646 = alloca ptr, align 8
  %this.addr.i647 = alloca ptr, align 8
  %this.addr.i5.i632 = alloca ptr, align 8
  %this.addr.i3.i633 = alloca ptr, align 8
  %this.addr.i.i634 = alloca ptr, align 8
  %this.addr.i635 = alloca ptr, align 8
  %this.addr.i5.i620 = alloca ptr, align 8
  %this.addr.i3.i621 = alloca ptr, align 8
  %this.addr.i.i622 = alloca ptr, align 8
  %this.addr.i623 = alloca ptr, align 8
  %this.addr.i5.i608 = alloca ptr, align 8
  %this.addr.i3.i609 = alloca ptr, align 8
  %this.addr.i.i610 = alloca ptr, align 8
  %this.addr.i611 = alloca ptr, align 8
  %this.addr.i5.i596 = alloca ptr, align 8
  %this.addr.i3.i597 = alloca ptr, align 8
  %this.addr.i.i598 = alloca ptr, align 8
  %this.addr.i599 = alloca ptr, align 8
  %this.addr.i5.i584 = alloca ptr, align 8
  %this.addr.i3.i585 = alloca ptr, align 8
  %this.addr.i.i586 = alloca ptr, align 8
  %this.addr.i587 = alloca ptr, align 8
  %this.addr.i5.i572 = alloca ptr, align 8
  %this.addr.i3.i573 = alloca ptr, align 8
  %this.addr.i.i574 = alloca ptr, align 8
  %this.addr.i575 = alloca ptr, align 8
  %this.addr.i5.i560 = alloca ptr, align 8
  %this.addr.i3.i561 = alloca ptr, align 8
  %this.addr.i.i562 = alloca ptr, align 8
  %this.addr.i563 = alloca ptr, align 8
  %this.addr.i5.i548 = alloca ptr, align 8
  %this.addr.i3.i549 = alloca ptr, align 8
  %this.addr.i.i550 = alloca ptr, align 8
  %this.addr.i551 = alloca ptr, align 8
  %this.addr.i5.i536 = alloca ptr, align 8
  %this.addr.i3.i537 = alloca ptr, align 8
  %this.addr.i.i538 = alloca ptr, align 8
  %this.addr.i539 = alloca ptr, align 8
  %this.addr.i5.i524 = alloca ptr, align 8
  %this.addr.i3.i525 = alloca ptr, align 8
  %this.addr.i.i526 = alloca ptr, align 8
  %this.addr.i527 = alloca ptr, align 8
  %this.addr.i5.i512 = alloca ptr, align 8
  %this.addr.i3.i513 = alloca ptr, align 8
  %this.addr.i.i514 = alloca ptr, align 8
  %this.addr.i515 = alloca ptr, align 8
  %this.addr.i5.i500 = alloca ptr, align 8
  %this.addr.i3.i501 = alloca ptr, align 8
  %this.addr.i.i502 = alloca ptr, align 8
  %this.addr.i503 = alloca ptr, align 8
  %this.addr.i5.i488 = alloca ptr, align 8
  %this.addr.i3.i489 = alloca ptr, align 8
  %this.addr.i.i490 = alloca ptr, align 8
  %this.addr.i491 = alloca ptr, align 8
  %this.addr.i5.i476 = alloca ptr, align 8
  %this.addr.i3.i477 = alloca ptr, align 8
  %this.addr.i.i478 = alloca ptr, align 8
  %this.addr.i479 = alloca ptr, align 8
  %this.addr.i5.i464 = alloca ptr, align 8
  %this.addr.i3.i465 = alloca ptr, align 8
  %this.addr.i.i466 = alloca ptr, align 8
  %this.addr.i467 = alloca ptr, align 8
  %this.addr.i5.i452 = alloca ptr, align 8
  %this.addr.i3.i453 = alloca ptr, align 8
  %this.addr.i.i454 = alloca ptr, align 8
  %this.addr.i455 = alloca ptr, align 8
  %this.addr.i5.i440 = alloca ptr, align 8
  %this.addr.i3.i441 = alloca ptr, align 8
  %this.addr.i.i442 = alloca ptr, align 8
  %this.addr.i443 = alloca ptr, align 8
  %this.addr.i5.i428 = alloca ptr, align 8
  %this.addr.i3.i429 = alloca ptr, align 8
  %this.addr.i.i430 = alloca ptr, align 8
  %this.addr.i431 = alloca ptr, align 8
  %this.addr.i5.i416 = alloca ptr, align 8
  %this.addr.i3.i417 = alloca ptr, align 8
  %this.addr.i.i418 = alloca ptr, align 8
  %this.addr.i419 = alloca ptr, align 8
  %this.addr.i5.i404 = alloca ptr, align 8
  %this.addr.i3.i405 = alloca ptr, align 8
  %this.addr.i.i406 = alloca ptr, align 8
  %this.addr.i407 = alloca ptr, align 8
  %this.addr.i5.i392 = alloca ptr, align 8
  %this.addr.i3.i393 = alloca ptr, align 8
  %this.addr.i.i394 = alloca ptr, align 8
  %this.addr.i395 = alloca ptr, align 8
  %this.addr.i5.i380 = alloca ptr, align 8
  %this.addr.i3.i381 = alloca ptr, align 8
  %this.addr.i.i382 = alloca ptr, align 8
  %this.addr.i383 = alloca ptr, align 8
  %this.addr.i5.i368 = alloca ptr, align 8
  %this.addr.i3.i369 = alloca ptr, align 8
  %this.addr.i.i370 = alloca ptr, align 8
  %this.addr.i371 = alloca ptr, align 8
  %this.addr.i5.i356 = alloca ptr, align 8
  %this.addr.i3.i357 = alloca ptr, align 8
  %this.addr.i.i358 = alloca ptr, align 8
  %this.addr.i359 = alloca ptr, align 8
  %this.addr.i5.i344 = alloca ptr, align 8
  %this.addr.i3.i345 = alloca ptr, align 8
  %this.addr.i.i346 = alloca ptr, align 8
  %this.addr.i347 = alloca ptr, align 8
  %this.addr.i5.i332 = alloca ptr, align 8
  %this.addr.i3.i333 = alloca ptr, align 8
  %this.addr.i.i334 = alloca ptr, align 8
  %this.addr.i335 = alloca ptr, align 8
  %this.addr.i5.i320 = alloca ptr, align 8
  %this.addr.i3.i321 = alloca ptr, align 8
  %this.addr.i.i322 = alloca ptr, align 8
  %this.addr.i323 = alloca ptr, align 8
  %this.addr.i5.i308 = alloca ptr, align 8
  %this.addr.i3.i309 = alloca ptr, align 8
  %this.addr.i.i310 = alloca ptr, align 8
  %this.addr.i311 = alloca ptr, align 8
  %this.addr.i5.i296 = alloca ptr, align 8
  %this.addr.i3.i297 = alloca ptr, align 8
  %this.addr.i.i298 = alloca ptr, align 8
  %this.addr.i299 = alloca ptr, align 8
  %this.addr.i5.i284 = alloca ptr, align 8
  %this.addr.i3.i285 = alloca ptr, align 8
  %this.addr.i.i286 = alloca ptr, align 8
  %this.addr.i287 = alloca ptr, align 8
  %this.addr.i5.i272 = alloca ptr, align 8
  %this.addr.i3.i273 = alloca ptr, align 8
  %this.addr.i.i274 = alloca ptr, align 8
  %this.addr.i275 = alloca ptr, align 8
  %this.addr.i5.i260 = alloca ptr, align 8
  %this.addr.i3.i261 = alloca ptr, align 8
  %this.addr.i.i262 = alloca ptr, align 8
  %this.addr.i263 = alloca ptr, align 8
  %this.addr.i5.i248 = alloca ptr, align 8
  %this.addr.i3.i249 = alloca ptr, align 8
  %this.addr.i.i250 = alloca ptr, align 8
  %this.addr.i251 = alloca ptr, align 8
  %this.addr.i5.i236 = alloca ptr, align 8
  %this.addr.i3.i237 = alloca ptr, align 8
  %this.addr.i.i238 = alloca ptr, align 8
  %this.addr.i239 = alloca ptr, align 8
  %this.addr.i5.i224 = alloca ptr, align 8
  %this.addr.i3.i225 = alloca ptr, align 8
  %this.addr.i.i226 = alloca ptr, align 8
  %this.addr.i227 = alloca ptr, align 8
  %this.addr.i5.i212 = alloca ptr, align 8
  %this.addr.i3.i213 = alloca ptr, align 8
  %this.addr.i.i214 = alloca ptr, align 8
  %this.addr.i215 = alloca ptr, align 8
  %this.addr.i5.i200 = alloca ptr, align 8
  %this.addr.i3.i201 = alloca ptr, align 8
  %this.addr.i.i202 = alloca ptr, align 8
  %this.addr.i203 = alloca ptr, align 8
  %this.addr.i5.i188 = alloca ptr, align 8
  %this.addr.i3.i189 = alloca ptr, align 8
  %this.addr.i.i190 = alloca ptr, align 8
  %this.addr.i191 = alloca ptr, align 8
  %this.addr.i5.i176 = alloca ptr, align 8
  %this.addr.i3.i177 = alloca ptr, align 8
  %this.addr.i.i178 = alloca ptr, align 8
  %this.addr.i179 = alloca ptr, align 8
  %this.addr.i5.i164 = alloca ptr, align 8
  %this.addr.i3.i165 = alloca ptr, align 8
  %this.addr.i.i166 = alloca ptr, align 8
  %this.addr.i167 = alloca ptr, align 8
  %this.addr.i5.i152 = alloca ptr, align 8
  %this.addr.i3.i153 = alloca ptr, align 8
  %this.addr.i.i154 = alloca ptr, align 8
  %this.addr.i155 = alloca ptr, align 8
  %this.addr.i5.i140 = alloca ptr, align 8
  %this.addr.i3.i141 = alloca ptr, align 8
  %this.addr.i.i142 = alloca ptr, align 8
  %this.addr.i143 = alloca ptr, align 8
  %this.addr.i5.i = alloca ptr, align 8
  %this.addr.i3.i = alloca ptr, align 8
  %this.addr.i.i133 = alloca ptr, align 8
  %this.addr.i134 = alloca ptr, align 8
  %this.addr.i131 = alloca ptr, align 8
  %this.addr.i129 = alloca ptr, align 8
  %this.addr.i.i = alloca ptr, align 8
  %this.addr.i127 = alloca ptr, align 8
  %this.addr.i125 = alloca ptr, align 8
  %this.addr.i123 = alloca ptr, align 8
  %this.addr.i121 = alloca ptr, align 8
  %this.addr.i119 = alloca ptr, align 8
  %this.addr.i117 = alloca ptr, align 8
  %this.addr.i115 = alloca ptr, align 8
  %this.addr.i113 = alloca ptr, align 8
  %this.addr.i111 = alloca ptr, align 8
  %this.addr.i109 = alloca ptr, align 8
  %this.addr.i107 = alloca ptr, align 8
  %this.addr.i105 = alloca ptr, align 8
  %this.addr.i103 = alloca ptr, align 8
  %this.addr.i101 = alloca ptr, align 8
  %this.addr.i99 = alloca ptr, align 8
  %this.addr.i97 = alloca ptr, align 8
  %this.addr.i95 = alloca ptr, align 8
  %this.addr.i93 = alloca ptr, align 8
  %this.addr.i91 = alloca ptr, align 8
  %this.addr.i89 = alloca ptr, align 8
  %this.addr.i87 = alloca ptr, align 8
  %this.addr.i85 = alloca ptr, align 8
  %this.addr.i83 = alloca ptr, align 8
  %this.addr.i81 = alloca ptr, align 8
  %this.addr.i79 = alloca ptr, align 8
  %this.addr.i77 = alloca ptr, align 8
  %this.addr.i75 = alloca ptr, align 8
  %this.addr.i73 = alloca ptr, align 8
  %this.addr.i71 = alloca ptr, align 8
  %this.addr.i69 = alloca ptr, align 8
  %this.addr.i67 = alloca ptr, align 8
  %this.addr.i65 = alloca ptr, align 8
  %this.addr.i63 = alloca ptr, align 8
  %this.addr.i61 = alloca ptr, align 8
  %this.addr.i59 = alloca ptr, align 8
  %this.addr.i57 = alloca ptr, align 8
  %this.addr.i55 = alloca ptr, align 8
  %this.addr.i53 = alloca ptr, align 8
  %this.addr.i51 = alloca ptr, align 8
  %this.addr.i49 = alloca ptr, align 8
  %this.addr.i47 = alloca ptr, align 8
  %this.addr.i45 = alloca ptr, align 8
  %this.addr.i43 = alloca ptr, align 8
  %this.addr.i41 = alloca ptr, align 8
  %this.addr.i39 = alloca ptr, align 8
  %this.addr.i37 = alloca ptr, align 8
  %this.addr.i35 = alloca ptr, align 8
  %this.addr.i33 = alloca ptr, align 8
  %this.addr.i31 = alloca ptr, align 8
  %this.addr.i29 = alloca ptr, align 8
  %this.addr.i27 = alloca ptr, align 8
  %this.addr.i25 = alloca ptr, align 8
  %this.addr.i23 = alloca ptr, align 8
  %this.addr.i21 = alloca ptr, align 8
  %this.addr.i19 = alloca ptr, align 8
  %this.addr.i17 = alloca ptr, align 8
  %this.addr.i15 = alloca ptr, align 8
  %this.addr.i13 = alloca ptr, align 8
  %this.addr.i11 = alloca ptr, align 8
  %this.addr.i9 = alloca ptr, align 8
  %this.addr.i7 = alloca ptr, align 8
  %this.addr.i = alloca ptr, align 8
  %this.addr = alloca ptr, align 8
  store ptr %this, ptr %this.addr, align 8
  %this1 = load ptr, ptr %this.addr, align 8
  store ptr getelementptr inbounds ({ [132 x ptr] }, ptr @_ZTVN4node5RealmE, i32 0, inrange i32 0, i32 2), ptr %this1, align 8
  br label %do.body

do.body:                                          ; preds = %entry
  %base_object_count_ = getelementptr inbounds %"class.node::Realm", ptr %this1, i32 0, i32 70
  %0 = load i64, ptr %base_object_count_, align 8
  %cmp = icmp eq i64 %0, 0
  %lnot = xor i1 %cmp, true
  %lnot2 = xor i1 %lnot, true
  %lnot3 = xor i1 %lnot2, true
  br i1 %lnot3, label %if.then, label %if.end

if.then:                                          ; preds = %do.body
  br label %do.body4

do.body4:                                         ; preds = %if.then
  call void @_ZN4node6AssertERKNS_13AssertionInfoE(ptr noundef nonnull align 8 dereferenceable(24) @_ZZN4node5RealmD1EvE4args)
  call void @abort() #15
  unreachable

do.cond:                                          ; No predecessors!
  br label %do.end

do.end:                                           ; preds = %do.cond
  br label %if.end

if.end:                                           ; preds = %do.end, %do.body
  br label %do.cond5

do.cond5:                                         ; preds = %if.end
  br label %do.end6

do.end6:                                          ; preds = %do.cond5
  %cleanup_queue_ = getelementptr inbounds %"class.node::Realm", ptr %this1, i32 0, i32 73
  call void @_ZN4node12CleanupQueueD2Ev(ptr noundef nonnull align 8 dereferenceable(72) %cleanup_queue_) #3
  %binding_data_store_ = getelementptr inbounds %"class.node::Realm", ptr %this1, i32 0, i32 72
  call void @_ZNSt5arrayIN4node17BaseObjectPtrImplINS0_10BaseObjectELb1EEELm12EED2Ev(ptr noundef nonnull align 8 dereferenceable(96) %binding_data_store_) #3
  %wasm_streaming_object_constructor_ = getelementptr inbounds %"class.node::Realm", ptr %this1, i32 0, i32 67
  store ptr %wasm_streaming_object_constructor_, ptr %this.addr.i, align 8
  %this1.i = load ptr, ptr %this.addr.i, align 8
  store ptr %this1.i, ptr %this.addr.i731, align 8
  %this1.i732 = load ptr, ptr %this.addr.i731, align 8
  store ptr %this1.i732, ptr %this.addr.i.i730, align 8
  %this1.i.i733 = load ptr, ptr %this.addr.i.i730, align 8
  %1 = load ptr, ptr %this1.i.i733, align 8
  %cmp.i.i734 = icmp eq ptr %1, null
  br i1 %cmp.i.i734, label %if.then.i738, label %if.end.i735

if.then.i738:                                     ; preds = %do.end6
  br label %_ZN2v814PersistentBaseINS_8FunctionEE5ResetEv.exit739

if.end.i735:                                      ; preds = %do.end6
  store ptr %this1.i732, ptr %this.addr.i3.i729, align 8
  %this1.i4.i736 = load ptr, ptr %this.addr.i3.i729, align 8
  %2 = load ptr, ptr %this1.i4.i736, align 8
  call void @_ZN2v812api_internal13DisposeGlobalEPm(ptr noundef %2) #3
  store ptr %this1.i732, ptr %this.addr.i5.i728, align 8
  %this1.i6.i737 = load ptr, ptr %this.addr.i5.i728, align 8
  store ptr null, ptr %this1.i6.i737, align 8
  br label %_ZN2v814PersistentBaseINS_8FunctionEE5ResetEv.exit739

_ZN2v814PersistentBaseINS_8FunctionEE5ResetEv.exit739: ; preds = %if.end.i735, %if.then.i738
  %wasm_streaming_compilation_impl_ = getelementptr inbounds %"class.node::Realm", ptr %this1, i32 0, i32 66
  store ptr %wasm_streaming_compilation_impl_, ptr %this.addr.i7, align 8
  %this1.i8 = load ptr, ptr %this.addr.i7, align 8
  store ptr %this1.i8, ptr %this.addr.i719, align 8
  %this1.i720 = load ptr, ptr %this.addr.i719, align 8
  store ptr %this1.i720, ptr %this.addr.i.i718, align 8
  %this1.i.i721 = load ptr, ptr %this.addr.i.i718, align 8
  %3 = load ptr, ptr %this1.i.i721, align 8
  %cmp.i.i722 = icmp eq ptr %3, null
  br i1 %cmp.i.i722, label %if.then.i726, label %if.end.i723

if.then.i726:                                     ; preds = %_ZN2v814PersistentBaseINS_8FunctionEE5ResetEv.exit739
  br label %_ZN2v814PersistentBaseINS_8FunctionEE5ResetEv.exit727

if.end.i723:                                      ; preds = %_ZN2v814PersistentBaseINS_8FunctionEE5ResetEv.exit739
  store ptr %this1.i720, ptr %this.addr.i3.i717, align 8
  %this1.i4.i724 = load ptr, ptr %this.addr.i3.i717, align 8
  %4 = load ptr, ptr %this1.i4.i724, align 8
  call void @_ZN2v812api_internal13DisposeGlobalEPm(ptr noundef %4) #3
  store ptr %this1.i720, ptr %this.addr.i5.i716, align 8
  %this1.i6.i725 = load ptr, ptr %this.addr.i5.i716, align 8
  store ptr null, ptr %this1.i6.i725, align 8
  br label %_ZN2v814PersistentBaseINS_8FunctionEE5ResetEv.exit727

_ZN2v814PersistentBaseINS_8FunctionEE5ResetEv.exit727: ; preds = %if.end.i723, %if.then.i726
  %url_constructor_function_ = getelementptr inbounds %"class.node::Realm", ptr %this1, i32 0, i32 65
  store ptr %url_constructor_function_, ptr %this.addr.i9, align 8
  %this1.i10 = load ptr, ptr %this.addr.i9, align 8
  store ptr %this1.i10, ptr %this.addr.i707, align 8
  %this1.i708 = load ptr, ptr %this.addr.i707, align 8
  store ptr %this1.i708, ptr %this.addr.i.i706, align 8
  %this1.i.i709 = load ptr, ptr %this.addr.i.i706, align 8
  %5 = load ptr, ptr %this1.i.i709, align 8
  %cmp.i.i710 = icmp eq ptr %5, null
  br i1 %cmp.i.i710, label %if.then.i714, label %if.end.i711

if.then.i714:                                     ; preds = %_ZN2v814PersistentBaseINS_8FunctionEE5ResetEv.exit727
  br label %_ZN2v814PersistentBaseINS_8FunctionEE5ResetEv.exit715

if.end.i711:                                      ; preds = %_ZN2v814PersistentBaseINS_8FunctionEE5ResetEv.exit727
  store ptr %this1.i708, ptr %this.addr.i3.i705, align 8
  %this1.i4.i712 = load ptr, ptr %this.addr.i3.i705, align 8
  %6 = load ptr, ptr %this1.i4.i712, align 8
  call void @_ZN2v812api_internal13DisposeGlobalEPm(ptr noundef %6) #3
  store ptr %this1.i708, ptr %this.addr.i5.i704, align 8
  %this1.i6.i713 = load ptr, ptr %this.addr.i5.i704, align 8
  store ptr null, ptr %this1.i6.i713, align 8
  br label %_ZN2v814PersistentBaseINS_8FunctionEE5ResetEv.exit715

_ZN2v814PersistentBaseINS_8FunctionEE5ResetEv.exit715: ; preds = %if.end.i711, %if.then.i714
  %udp_constructor_function_ = getelementptr inbounds %"class.node::Realm", ptr %this1, i32 0, i32 64
  store ptr %udp_constructor_function_, ptr %this.addr.i11, align 8
  %this1.i12 = load ptr, ptr %this.addr.i11, align 8
  store ptr %this1.i12, ptr %this.addr.i695, align 8
  %this1.i696 = load ptr, ptr %this.addr.i695, align 8
  store ptr %this1.i696, ptr %this.addr.i.i694, align 8
  %this1.i.i697 = load ptr, ptr %this.addr.i.i694, align 8
  %7 = load ptr, ptr %this1.i.i697, align 8
  %cmp.i.i698 = icmp eq ptr %7, null
  br i1 %cmp.i.i698, label %if.then.i702, label %if.end.i699

if.then.i702:                                     ; preds = %_ZN2v814PersistentBaseINS_8FunctionEE5ResetEv.exit715
  br label %_ZN2v814PersistentBaseINS_8FunctionEE5ResetEv.exit703

if.end.i699:                                      ; preds = %_ZN2v814PersistentBaseINS_8FunctionEE5ResetEv.exit715
  store ptr %this1.i696, ptr %this.addr.i3.i693, align 8
  %this1.i4.i700 = load ptr, ptr %this.addr.i3.i693, align 8
  %8 = load ptr, ptr %this1.i4.i700, align 8
  call void @_ZN2v812api_internal13DisposeGlobalEPm(ptr noundef %8) #3
  store ptr %this1.i696, ptr %this.addr.i5.i692, align 8
  %this1.i6.i701 = load ptr, ptr %this.addr.i5.i692, align 8
  store ptr null, ptr %this1.i6.i701, align 8
  br label %_ZN2v814PersistentBaseINS_8FunctionEE5ResetEv.exit703

_ZN2v814PersistentBaseINS_8FunctionEE5ResetEv.exit703: ; preds = %if.end.i699, %if.then.i702
  %trace_category_state_function_ = getelementptr inbounds %"class.node::Realm", ptr %this1, i32 0, i32 63
  store ptr %trace_category_state_function_, ptr %this.addr.i13, align 8
  %this1.i14 = load ptr, ptr %this.addr.i13, align 8
  store ptr %this1.i14, ptr %this.addr.i683, align 8
  %this1.i684 = load ptr, ptr %this.addr.i683, align 8
  store ptr %this1.i684, ptr %this.addr.i.i682, align 8
  %this1.i.i685 = load ptr, ptr %this.addr.i.i682, align 8
  %9 = load ptr, ptr %this1.i.i685, align 8
  %cmp.i.i686 = icmp eq ptr %9, null
  br i1 %cmp.i.i686, label %if.then.i690, label %if.end.i687

if.then.i690:                                     ; preds = %_ZN2v814PersistentBaseINS_8FunctionEE5ResetEv.exit703
  br label %_ZN2v814PersistentBaseINS_8FunctionEE5ResetEv.exit691

if.end.i687:                                      ; preds = %_ZN2v814PersistentBaseINS_8FunctionEE5ResetEv.exit703
  store ptr %this1.i684, ptr %this.addr.i3.i681, align 8
  %this1.i4.i688 = load ptr, ptr %this.addr.i3.i681, align 8
  %10 = load ptr, ptr %this1.i4.i688, align 8
  call void @_ZN2v812api_internal13DisposeGlobalEPm(ptr noundef %10) #3
  store ptr %this1.i684, ptr %this.addr.i5.i680, align 8
  %this1.i6.i689 = load ptr, ptr %this.addr.i5.i680, align 8
  store ptr null, ptr %this1.i6.i689, align 8
  br label %_ZN2v814PersistentBaseINS_8FunctionEE5ResetEv.exit691

_ZN2v814PersistentBaseINS_8FunctionEE5ResetEv.exit691: ; preds = %if.end.i687, %if.then.i690
  %tls_wrap_constructor_function_ = getelementptr inbounds %"class.node::Realm", ptr %this1, i32 0, i32 62
  store ptr %tls_wrap_constructor_function_, ptr %this.addr.i15, align 8
  %this1.i16 = load ptr, ptr %this.addr.i15, align 8
  store ptr %this1.i16, ptr %this.addr.i671, align 8
  %this1.i672 = load ptr, ptr %this.addr.i671, align 8
  store ptr %this1.i672, ptr %this.addr.i.i670, align 8
  %this1.i.i673 = load ptr, ptr %this.addr.i.i670, align 8
  %11 = load ptr, ptr %this1.i.i673, align 8
  %cmp.i.i674 = icmp eq ptr %11, null
  br i1 %cmp.i.i674, label %if.then.i678, label %if.end.i675

if.then.i678:                                     ; preds = %_ZN2v814PersistentBaseINS_8FunctionEE5ResetEv.exit691
  br label %_ZN2v814PersistentBaseINS_8FunctionEE5ResetEv.exit679

if.end.i675:                                      ; preds = %_ZN2v814PersistentBaseINS_8FunctionEE5ResetEv.exit691
  store ptr %this1.i672, ptr %this.addr.i3.i669, align 8
  %this1.i4.i676 = load ptr, ptr %this.addr.i3.i669, align 8
  %12 = load ptr, ptr %this1.i4.i676, align 8
  call void @_ZN2v812api_internal13DisposeGlobalEPm(ptr noundef %12) #3
  store ptr %this1.i672, ptr %this.addr.i5.i668, align 8
  %this1.i6.i677 = load ptr, ptr %this.addr.i5.i668, align 8
  store ptr null, ptr %this1.i6.i677, align 8
  br label %_ZN2v814PersistentBaseINS_8FunctionEE5ResetEv.exit679

_ZN2v814PersistentBaseINS_8FunctionEE5ResetEv.exit679: ; preds = %if.end.i675, %if.then.i678
  %timers_callback_function_ = getelementptr inbounds %"class.node::Realm", ptr %this1, i32 0, i32 61
  store ptr %timers_callback_function_, ptr %this.addr.i17, align 8
  %this1.i18 = load ptr, ptr %this.addr.i17, align 8
  store ptr %this1.i18, ptr %this.addr.i659, align 8
  %this1.i660 = load ptr, ptr %this.addr.i659, align 8
  store ptr %this1.i660, ptr %this.addr.i.i658, align 8
  %this1.i.i661 = load ptr, ptr %this.addr.i.i658, align 8
  %13 = load ptr, ptr %this1.i.i661, align 8
  %cmp.i.i662 = icmp eq ptr %13, null
  br i1 %cmp.i.i662, label %if.then.i666, label %if.end.i663

if.then.i666:                                     ; preds = %_ZN2v814PersistentBaseINS_8FunctionEE5ResetEv.exit679
  br label %_ZN2v814PersistentBaseINS_8FunctionEE5ResetEv.exit667

if.end.i663:                                      ; preds = %_ZN2v814PersistentBaseINS_8FunctionEE5ResetEv.exit679
  store ptr %this1.i660, ptr %this.addr.i3.i657, align 8
  %this1.i4.i664 = load ptr, ptr %this.addr.i3.i657, align 8
  %14 = load ptr, ptr %this1.i4.i664, align 8
  call void @_ZN2v812api_internal13DisposeGlobalEPm(ptr noundef %14) #3
  store ptr %this1.i660, ptr %this.addr.i5.i656, align 8
  %this1.i6.i665 = load ptr, ptr %this.addr.i5.i656, align 8
  store ptr null, ptr %this1.i6.i665, align 8
  br label %_ZN2v814PersistentBaseINS_8FunctionEE5ResetEv.exit667

_ZN2v814PersistentBaseINS_8FunctionEE5ResetEv.exit667: ; preds = %if.end.i663, %if.then.i666
  %tick_callback_function_ = getelementptr inbounds %"class.node::Realm", ptr %this1, i32 0, i32 60
  store ptr %tick_callback_function_, ptr %this.addr.i19, align 8
  %this1.i20 = load ptr, ptr %this.addr.i19, align 8
  store ptr %this1.i20, ptr %this.addr.i647, align 8
  %this1.i648 = load ptr, ptr %this.addr.i647, align 8
  store ptr %this1.i648, ptr %this.addr.i.i646, align 8
  %this1.i.i649 = load ptr, ptr %this.addr.i.i646, align 8
  %15 = load ptr, ptr %this1.i.i649, align 8
  %cmp.i.i650 = icmp eq ptr %15, null
  br i1 %cmp.i.i650, label %if.then.i654, label %if.end.i651

if.then.i654:                                     ; preds = %_ZN2v814PersistentBaseINS_8FunctionEE5ResetEv.exit667
  br label %_ZN2v814PersistentBaseINS_8FunctionEE5ResetEv.exit655

if.end.i651:                                      ; preds = %_ZN2v814PersistentBaseINS_8FunctionEE5ResetEv.exit667
  store ptr %this1.i648, ptr %this.addr.i3.i645, align 8
  %this1.i4.i652 = load ptr, ptr %this.addr.i3.i645, align 8
  %16 = load ptr, ptr %this1.i4.i652, align 8
  call void @_ZN2v812api_internal13DisposeGlobalEPm(ptr noundef %16) #3
  store ptr %this1.i648, ptr %this.addr.i5.i644, align 8
  %this1.i6.i653 = load ptr, ptr %this.addr.i5.i644, align 8
  store ptr null, ptr %this1.i6.i653, align 8
  br label %_ZN2v814PersistentBaseINS_8FunctionEE5ResetEv.exit655

_ZN2v814PersistentBaseINS_8FunctionEE5ResetEv.exit655: ; preds = %if.end.i651, %if.then.i654
  %source_map_cache_getter_ = getelementptr inbounds %"class.node::Realm", ptr %this1, i32 0, i32 59
  store ptr %source_map_cache_getter_, ptr %this.addr.i21, align 8
  %this1.i22 = load ptr, ptr %this.addr.i21, align 8
  store ptr %this1.i22, ptr %this.addr.i635, align 8
  %this1.i636 = load ptr, ptr %this.addr.i635, align 8
  store ptr %this1.i636, ptr %this.addr.i.i634, align 8
  %this1.i.i637 = load ptr, ptr %this.addr.i.i634, align 8
  %17 = load ptr, ptr %this1.i.i637, align 8
  %cmp.i.i638 = icmp eq ptr %17, null
  br i1 %cmp.i.i638, label %if.then.i642, label %if.end.i639

if.then.i642:                                     ; preds = %_ZN2v814PersistentBaseINS_8FunctionEE5ResetEv.exit655
  br label %_ZN2v814PersistentBaseINS_8FunctionEE5ResetEv.exit643

if.end.i639:                                      ; preds = %_ZN2v814PersistentBaseINS_8FunctionEE5ResetEv.exit655
  store ptr %this1.i636, ptr %this.addr.i3.i633, align 8
  %this1.i4.i640 = load ptr, ptr %this.addr.i3.i633, align 8
  %18 = load ptr, ptr %this1.i4.i640, align 8
  call void @_ZN2v812api_internal13DisposeGlobalEPm(ptr noundef %18) #3
  store ptr %this1.i636, ptr %this.addr.i5.i632, align 8
  %this1.i6.i641 = load ptr, ptr %this.addr.i5.i632, align 8
  store ptr null, ptr %this1.i6.i641, align 8
  br label %_ZN2v814PersistentBaseINS_8FunctionEE5ResetEv.exit643

_ZN2v814PersistentBaseINS_8FunctionEE5ResetEv.exit643: ; preds = %if.end.i639, %if.then.i642
  %snapshot_deserialize_main_ = getelementptr inbounds %"class.node::Realm", ptr %this1, i32 0, i32 58
  store ptr %snapshot_deserialize_main_, ptr %this.addr.i23, align 8
  %this1.i24 = load ptr, ptr %this.addr.i23, align 8
  store ptr %this1.i24, ptr %this.addr.i623, align 8
  %this1.i624 = load ptr, ptr %this.addr.i623, align 8
  store ptr %this1.i624, ptr %this.addr.i.i622, align 8
  %this1.i.i625 = load ptr, ptr %this.addr.i.i622, align 8
  %19 = load ptr, ptr %this1.i.i625, align 8
  %cmp.i.i626 = icmp eq ptr %19, null
  br i1 %cmp.i.i626, label %if.then.i630, label %if.end.i627

if.then.i630:                                     ; preds = %_ZN2v814PersistentBaseINS_8FunctionEE5ResetEv.exit643
  br label %_ZN2v814PersistentBaseINS_8FunctionEE5ResetEv.exit631

if.end.i627:                                      ; preds = %_ZN2v814PersistentBaseINS_8FunctionEE5ResetEv.exit643
  store ptr %this1.i624, ptr %this.addr.i3.i621, align 8
  %this1.i4.i628 = load ptr, ptr %this.addr.i3.i621, align 8
  %20 = load ptr, ptr %this1.i4.i628, align 8
  call void @_ZN2v812api_internal13DisposeGlobalEPm(ptr noundef %20) #3
  store ptr %this1.i624, ptr %this.addr.i5.i620, align 8
  %this1.i6.i629 = load ptr, ptr %this.addr.i5.i620, align 8
  store ptr null, ptr %this1.i6.i629, align 8
  br label %_ZN2v814PersistentBaseINS_8FunctionEE5ResetEv.exit631

_ZN2v814PersistentBaseINS_8FunctionEE5ResetEv.exit631: ; preds = %if.end.i627, %if.then.i630
  %snapshot_deserialize_callback_ = getelementptr inbounds %"class.node::Realm", ptr %this1, i32 0, i32 57
  store ptr %snapshot_deserialize_callback_, ptr %this.addr.i25, align 8
  %this1.i26 = load ptr, ptr %this.addr.i25, align 8
  store ptr %this1.i26, ptr %this.addr.i611, align 8
  %this1.i612 = load ptr, ptr %this.addr.i611, align 8
  store ptr %this1.i612, ptr %this.addr.i.i610, align 8
  %this1.i.i613 = load ptr, ptr %this.addr.i.i610, align 8
  %21 = load ptr, ptr %this1.i.i613, align 8
  %cmp.i.i614 = icmp eq ptr %21, null
  br i1 %cmp.i.i614, label %if.then.i618, label %if.end.i615

if.then.i618:                                     ; preds = %_ZN2v814PersistentBaseINS_8FunctionEE5ResetEv.exit631
  br label %_ZN2v814PersistentBaseINS_8FunctionEE5ResetEv.exit619

if.end.i615:                                      ; preds = %_ZN2v814PersistentBaseINS_8FunctionEE5ResetEv.exit631
  store ptr %this1.i612, ptr %this.addr.i3.i609, align 8
  %this1.i4.i616 = load ptr, ptr %this.addr.i3.i609, align 8
  %22 = load ptr, ptr %this1.i4.i616, align 8
  call void @_ZN2v812api_internal13DisposeGlobalEPm(ptr noundef %22) #3
  store ptr %this1.i612, ptr %this.addr.i5.i608, align 8
  %this1.i6.i617 = load ptr, ptr %this.addr.i5.i608, align 8
  store ptr null, ptr %this1.i6.i617, align 8
  br label %_ZN2v814PersistentBaseINS_8FunctionEE5ResetEv.exit619

_ZN2v814PersistentBaseINS_8FunctionEE5ResetEv.exit619: ; preds = %if.end.i615, %if.then.i618
  %snapshot_serialize_callback_ = getelementptr inbounds %"class.node::Realm", ptr %this1, i32 0, i32 56
  store ptr %snapshot_serialize_callback_, ptr %this.addr.i27, align 8
  %this1.i28 = load ptr, ptr %this.addr.i27, align 8
  store ptr %this1.i28, ptr %this.addr.i599, align 8
  %this1.i600 = load ptr, ptr %this.addr.i599, align 8
  store ptr %this1.i600, ptr %this.addr.i.i598, align 8
  %this1.i.i601 = load ptr, ptr %this.addr.i.i598, align 8
  %23 = load ptr, ptr %this1.i.i601, align 8
  %cmp.i.i602 = icmp eq ptr %23, null
  br i1 %cmp.i.i602, label %if.then.i606, label %if.end.i603

if.then.i606:                                     ; preds = %_ZN2v814PersistentBaseINS_8FunctionEE5ResetEv.exit619
  br label %_ZN2v814PersistentBaseINS_8FunctionEE5ResetEv.exit607

if.end.i603:                                      ; preds = %_ZN2v814PersistentBaseINS_8FunctionEE5ResetEv.exit619
  store ptr %this1.i600, ptr %this.addr.i3.i597, align 8
  %this1.i4.i604 = load ptr, ptr %this.addr.i3.i597, align 8
  %24 = load ptr, ptr %this1.i4.i604, align 8
  call void @_ZN2v812api_internal13DisposeGlobalEPm(ptr noundef %24) #3
  store ptr %this1.i600, ptr %this.addr.i5.i596, align 8
  %this1.i6.i605 = load ptr, ptr %this.addr.i5.i596, align 8
  store ptr null, ptr %this1.i6.i605, align 8
  br label %_ZN2v814PersistentBaseINS_8FunctionEE5ResetEv.exit607

_ZN2v814PersistentBaseINS_8FunctionEE5ResetEv.exit607: ; preds = %if.end.i603, %if.then.i606
  %promise_reject_callback_ = getelementptr inbounds %"class.node::Realm", ptr %this1, i32 0, i32 55
  store ptr %promise_reject_callback_, ptr %this.addr.i29, align 8
  %this1.i30 = load ptr, ptr %this.addr.i29, align 8
  store ptr %this1.i30, ptr %this.addr.i587, align 8
  %this1.i588 = load ptr, ptr %this.addr.i587, align 8
  store ptr %this1.i588, ptr %this.addr.i.i586, align 8
  %this1.i.i589 = load ptr, ptr %this.addr.i.i586, align 8
  %25 = load ptr, ptr %this1.i.i589, align 8
  %cmp.i.i590 = icmp eq ptr %25, null
  br i1 %cmp.i.i590, label %if.then.i594, label %if.end.i591

if.then.i594:                                     ; preds = %_ZN2v814PersistentBaseINS_8FunctionEE5ResetEv.exit607
  br label %_ZN2v814PersistentBaseINS_8FunctionEE5ResetEv.exit595

if.end.i591:                                      ; preds = %_ZN2v814PersistentBaseINS_8FunctionEE5ResetEv.exit607
  store ptr %this1.i588, ptr %this.addr.i3.i585, align 8
  %this1.i4.i592 = load ptr, ptr %this.addr.i3.i585, align 8
  %26 = load ptr, ptr %this1.i4.i592, align 8
  call void @_ZN2v812api_internal13DisposeGlobalEPm(ptr noundef %26) #3
  store ptr %this1.i588, ptr %this.addr.i5.i584, align 8
  %this1.i6.i593 = load ptr, ptr %this.addr.i5.i584, align 8
  store ptr null, ptr %this1.i6.i593, align 8
  br label %_ZN2v814PersistentBaseINS_8FunctionEE5ResetEv.exit595

_ZN2v814PersistentBaseINS_8FunctionEE5ResetEv.exit595: ; preds = %if.end.i591, %if.then.i594
  %promise_hook_handler_ = getelementptr inbounds %"class.node::Realm", ptr %this1, i32 0, i32 54
  store ptr %promise_hook_handler_, ptr %this.addr.i31, align 8
  %this1.i32 = load ptr, ptr %this.addr.i31, align 8
  store ptr %this1.i32, ptr %this.addr.i575, align 8
  %this1.i576 = load ptr, ptr %this.addr.i575, align 8
  store ptr %this1.i576, ptr %this.addr.i.i574, align 8
  %this1.i.i577 = load ptr, ptr %this.addr.i.i574, align 8
  %27 = load ptr, ptr %this1.i.i577, align 8
  %cmp.i.i578 = icmp eq ptr %27, null
  br i1 %cmp.i.i578, label %if.then.i582, label %if.end.i579

if.then.i582:                                     ; preds = %_ZN2v814PersistentBaseINS_8FunctionEE5ResetEv.exit595
  br label %_ZN2v814PersistentBaseINS_8FunctionEE5ResetEv.exit583

if.end.i579:                                      ; preds = %_ZN2v814PersistentBaseINS_8FunctionEE5ResetEv.exit595
  store ptr %this1.i576, ptr %this.addr.i3.i573, align 8
  %this1.i4.i580 = load ptr, ptr %this.addr.i3.i573, align 8
  %28 = load ptr, ptr %this1.i4.i580, align 8
  call void @_ZN2v812api_internal13DisposeGlobalEPm(ptr noundef %28) #3
  store ptr %this1.i576, ptr %this.addr.i5.i572, align 8
  %this1.i6.i581 = load ptr, ptr %this.addr.i5.i572, align 8
  store ptr null, ptr %this1.i6.i581, align 8
  br label %_ZN2v814PersistentBaseINS_8FunctionEE5ResetEv.exit583

_ZN2v814PersistentBaseINS_8FunctionEE5ResetEv.exit583: ; preds = %if.end.i579, %if.then.i582
  %primordials_safe_weak_set_prototype_object_ = getelementptr inbounds %"class.node::Realm", ptr %this1, i32 0, i32 53
  store ptr %primordials_safe_weak_set_prototype_object_, ptr %this.addr.i107, align 8
  %this1.i108 = load ptr, ptr %this.addr.i107, align 8
  store ptr %this1.i108, ptr %this.addr.i838, align 8
  %this1.i839 = load ptr, ptr %this.addr.i838, align 8
  store ptr %this1.i839, ptr %this.addr.i.i837, align 8
  %this1.i.i840 = load ptr, ptr %this.addr.i.i837, align 8
  %29 = load ptr, ptr %this1.i.i840, align 8
  %cmp.i.i841 = icmp eq ptr %29, null
  br i1 %cmp.i.i841, label %if.then.i845, label %if.end.i842

if.then.i845:                                     ; preds = %_ZN2v814PersistentBaseINS_8FunctionEE5ResetEv.exit583
  br label %_ZN2v814PersistentBaseINS_6ObjectEE5ResetEv.exit846

if.end.i842:                                      ; preds = %_ZN2v814PersistentBaseINS_8FunctionEE5ResetEv.exit583
  store ptr %this1.i839, ptr %this.addr.i3.i836, align 8
  %this1.i4.i843 = load ptr, ptr %this.addr.i3.i836, align 8
  %30 = load ptr, ptr %this1.i4.i843, align 8
  call void @_ZN2v812api_internal13DisposeGlobalEPm(ptr noundef %30) #3
  store ptr %this1.i839, ptr %this.addr.i5.i835, align 8
  %this1.i6.i844 = load ptr, ptr %this.addr.i5.i835, align 8
  store ptr null, ptr %this1.i6.i844, align 8
  br label %_ZN2v814PersistentBaseINS_6ObjectEE5ResetEv.exit846

_ZN2v814PersistentBaseINS_6ObjectEE5ResetEv.exit846: ; preds = %if.end.i842, %if.then.i845
  %primordials_safe_weak_map_prototype_object_ = getelementptr inbounds %"class.node::Realm", ptr %this1, i32 0, i32 52
  store ptr %primordials_safe_weak_map_prototype_object_, ptr %this.addr.i109, align 8
  %this1.i110 = load ptr, ptr %this.addr.i109, align 8
  store ptr %this1.i110, ptr %this.addr.i826, align 8
  %this1.i827 = load ptr, ptr %this.addr.i826, align 8
  store ptr %this1.i827, ptr %this.addr.i.i825, align 8
  %this1.i.i828 = load ptr, ptr %this.addr.i.i825, align 8
  %31 = load ptr, ptr %this1.i.i828, align 8
  %cmp.i.i829 = icmp eq ptr %31, null
  br i1 %cmp.i.i829, label %if.then.i833, label %if.end.i830

if.then.i833:                                     ; preds = %_ZN2v814PersistentBaseINS_6ObjectEE5ResetEv.exit846
  br label %_ZN2v814PersistentBaseINS_6ObjectEE5ResetEv.exit834

if.end.i830:                                      ; preds = %_ZN2v814PersistentBaseINS_6ObjectEE5ResetEv.exit846
  store ptr %this1.i827, ptr %this.addr.i3.i824, align 8
  %this1.i4.i831 = load ptr, ptr %this.addr.i3.i824, align 8
  %32 = load ptr, ptr %this1.i4.i831, align 8
  call void @_ZN2v812api_internal13DisposeGlobalEPm(ptr noundef %32) #3
  store ptr %this1.i827, ptr %this.addr.i5.i823, align 8
  %this1.i6.i832 = load ptr, ptr %this.addr.i5.i823, align 8
  store ptr null, ptr %this1.i6.i832, align 8
  br label %_ZN2v814PersistentBaseINS_6ObjectEE5ResetEv.exit834

_ZN2v814PersistentBaseINS_6ObjectEE5ResetEv.exit834: ; preds = %if.end.i830, %if.then.i833
  %primordials_safe_set_prototype_object_ = getelementptr inbounds %"class.node::Realm", ptr %this1, i32 0, i32 51
  store ptr %primordials_safe_set_prototype_object_, ptr %this.addr.i111, align 8
  %this1.i112 = load ptr, ptr %this.addr.i111, align 8
  store ptr %this1.i112, ptr %this.addr.i814, align 8
  %this1.i815 = load ptr, ptr %this.addr.i814, align 8
  store ptr %this1.i815, ptr %this.addr.i.i813, align 8
  %this1.i.i816 = load ptr, ptr %this.addr.i.i813, align 8
  %33 = load ptr, ptr %this1.i.i816, align 8
  %cmp.i.i817 = icmp eq ptr %33, null
  br i1 %cmp.i.i817, label %if.then.i821, label %if.end.i818

if.then.i821:                                     ; preds = %_ZN2v814PersistentBaseINS_6ObjectEE5ResetEv.exit834
  br label %_ZN2v814PersistentBaseINS_6ObjectEE5ResetEv.exit822

if.end.i818:                                      ; preds = %_ZN2v814PersistentBaseINS_6ObjectEE5ResetEv.exit834
  store ptr %this1.i815, ptr %this.addr.i3.i812, align 8
  %this1.i4.i819 = load ptr, ptr %this.addr.i3.i812, align 8
  %34 = load ptr, ptr %this1.i4.i819, align 8
  call void @_ZN2v812api_internal13DisposeGlobalEPm(ptr noundef %34) #3
  store ptr %this1.i815, ptr %this.addr.i5.i811, align 8
  %this1.i6.i820 = load ptr, ptr %this.addr.i5.i811, align 8
  store ptr null, ptr %this1.i6.i820, align 8
  br label %_ZN2v814PersistentBaseINS_6ObjectEE5ResetEv.exit822

_ZN2v814PersistentBaseINS_6ObjectEE5ResetEv.exit822: ; preds = %if.end.i818, %if.then.i821
  %primordials_safe_map_prototype_object_ = getelementptr inbounds %"class.node::Realm", ptr %this1, i32 0, i32 50
  store ptr %primordials_safe_map_prototype_object_, ptr %this.addr.i113, align 8
  %this1.i114 = load ptr, ptr %this.addr.i113, align 8
  store ptr %this1.i114, ptr %this.addr.i802, align 8
  %this1.i803 = load ptr, ptr %this.addr.i802, align 8
  store ptr %this1.i803, ptr %this.addr.i.i801, align 8
  %this1.i.i804 = load ptr, ptr %this.addr.i.i801, align 8
  %35 = load ptr, ptr %this1.i.i804, align 8
  %cmp.i.i805 = icmp eq ptr %35, null
  br i1 %cmp.i.i805, label %if.then.i809, label %if.end.i806

if.then.i809:                                     ; preds = %_ZN2v814PersistentBaseINS_6ObjectEE5ResetEv.exit822
  br label %_ZN2v814PersistentBaseINS_6ObjectEE5ResetEv.exit810

if.end.i806:                                      ; preds = %_ZN2v814PersistentBaseINS_6ObjectEE5ResetEv.exit822
  store ptr %this1.i803, ptr %this.addr.i3.i800, align 8
  %this1.i4.i807 = load ptr, ptr %this.addr.i3.i800, align 8
  %36 = load ptr, ptr %this1.i4.i807, align 8
  call void @_ZN2v812api_internal13DisposeGlobalEPm(ptr noundef %36) #3
  store ptr %this1.i803, ptr %this.addr.i5.i799, align 8
  %this1.i6.i808 = load ptr, ptr %this.addr.i5.i799, align 8
  store ptr null, ptr %this1.i6.i808, align 8
  br label %_ZN2v814PersistentBaseINS_6ObjectEE5ResetEv.exit810

_ZN2v814PersistentBaseINS_6ObjectEE5ResetEv.exit810: ; preds = %if.end.i806, %if.then.i809
  %primordials_ = getelementptr inbounds %"class.node::Realm", ptr %this1, i32 0, i32 49
  store ptr %primordials_, ptr %this.addr.i115, align 8
  %this1.i116 = load ptr, ptr %this.addr.i115, align 8
  store ptr %this1.i116, ptr %this.addr.i790, align 8
  %this1.i791 = load ptr, ptr %this.addr.i790, align 8
  store ptr %this1.i791, ptr %this.addr.i.i789, align 8
  %this1.i.i792 = load ptr, ptr %this.addr.i.i789, align 8
  %37 = load ptr, ptr %this1.i.i792, align 8
  %cmp.i.i793 = icmp eq ptr %37, null
  br i1 %cmp.i.i793, label %if.then.i797, label %if.end.i794

if.then.i797:                                     ; preds = %_ZN2v814PersistentBaseINS_6ObjectEE5ResetEv.exit810
  br label %_ZN2v814PersistentBaseINS_6ObjectEE5ResetEv.exit798

if.end.i794:                                      ; preds = %_ZN2v814PersistentBaseINS_6ObjectEE5ResetEv.exit810
  store ptr %this1.i791, ptr %this.addr.i3.i788, align 8
  %this1.i4.i795 = load ptr, ptr %this.addr.i3.i788, align 8
  %38 = load ptr, ptr %this1.i4.i795, align 8
  call void @_ZN2v812api_internal13DisposeGlobalEPm(ptr noundef %38) #3
  store ptr %this1.i791, ptr %this.addr.i5.i787, align 8
  %this1.i6.i796 = load ptr, ptr %this.addr.i5.i787, align 8
  store ptr null, ptr %this1.i6.i796, align 8
  br label %_ZN2v814PersistentBaseINS_6ObjectEE5ResetEv.exit798

_ZN2v814PersistentBaseINS_6ObjectEE5ResetEv.exit798: ; preds = %if.end.i794, %if.then.i797
  %process_object_ = getelementptr inbounds %"class.node::Realm", ptr %this1, i32 0, i32 48
  store ptr %process_object_, ptr %this.addr.i117, align 8
  %this1.i118 = load ptr, ptr %this.addr.i117, align 8
  store ptr %this1.i118, ptr %this.addr.i778, align 8
  %this1.i779 = load ptr, ptr %this.addr.i778, align 8
  store ptr %this1.i779, ptr %this.addr.i.i777, align 8
  %this1.i.i780 = load ptr, ptr %this.addr.i.i777, align 8
  %39 = load ptr, ptr %this1.i.i780, align 8
  %cmp.i.i781 = icmp eq ptr %39, null
  br i1 %cmp.i.i781, label %if.then.i785, label %if.end.i782

if.then.i785:                                     ; preds = %_ZN2v814PersistentBaseINS_6ObjectEE5ResetEv.exit798
  br label %_ZN2v814PersistentBaseINS_6ObjectEE5ResetEv.exit786

if.end.i782:                                      ; preds = %_ZN2v814PersistentBaseINS_6ObjectEE5ResetEv.exit798
  store ptr %this1.i779, ptr %this.addr.i3.i776, align 8
  %this1.i4.i783 = load ptr, ptr %this.addr.i3.i776, align 8
  %40 = load ptr, ptr %this1.i4.i783, align 8
  call void @_ZN2v812api_internal13DisposeGlobalEPm(ptr noundef %40) #3
  store ptr %this1.i779, ptr %this.addr.i5.i775, align 8
  %this1.i6.i784 = load ptr, ptr %this.addr.i5.i775, align 8
  store ptr null, ptr %this1.i6.i784, align 8
  br label %_ZN2v814PersistentBaseINS_6ObjectEE5ResetEv.exit786

_ZN2v814PersistentBaseINS_6ObjectEE5ResetEv.exit786: ; preds = %if.end.i782, %if.then.i785
  %prepare_stack_trace_callback_ = getelementptr inbounds %"class.node::Realm", ptr %this1, i32 0, i32 47
  store ptr %prepare_stack_trace_callback_, ptr %this.addr.i33, align 8
  %this1.i34 = load ptr, ptr %this.addr.i33, align 8
  store ptr %this1.i34, ptr %this.addr.i563, align 8
  %this1.i564 = load ptr, ptr %this.addr.i563, align 8
  store ptr %this1.i564, ptr %this.addr.i.i562, align 8
  %this1.i.i565 = load ptr, ptr %this.addr.i.i562, align 8
  %41 = load ptr, ptr %this1.i.i565, align 8
  %cmp.i.i566 = icmp eq ptr %41, null
  br i1 %cmp.i.i566, label %if.then.i570, label %if.end.i567

if.then.i570:                                     ; preds = %_ZN2v814PersistentBaseINS_6ObjectEE5ResetEv.exit786
  br label %_ZN2v814PersistentBaseINS_8FunctionEE5ResetEv.exit571

if.end.i567:                                      ; preds = %_ZN2v814PersistentBaseINS_6ObjectEE5ResetEv.exit786
  store ptr %this1.i564, ptr %this.addr.i3.i561, align 8
  %this1.i4.i568 = load ptr, ptr %this.addr.i3.i561, align 8
  %42 = load ptr, ptr %this1.i4.i568, align 8
  call void @_ZN2v812api_internal13DisposeGlobalEPm(ptr noundef %42) #3
  store ptr %this1.i564, ptr %this.addr.i5.i560, align 8
  %this1.i6.i569 = load ptr, ptr %this.addr.i5.i560, align 8
  store ptr null, ptr %this1.i6.i569, align 8
  br label %_ZN2v814PersistentBaseINS_8FunctionEE5ResetEv.exit571

_ZN2v814PersistentBaseINS_8FunctionEE5ResetEv.exit571: ; preds = %if.end.i567, %if.then.i570
  %performance_entry_callback_ = getelementptr inbounds %"class.node::Realm", ptr %this1, i32 0, i32 46
  store ptr %performance_entry_callback_, ptr %this.addr.i35, align 8
  %this1.i36 = load ptr, ptr %this.addr.i35, align 8
  store ptr %this1.i36, ptr %this.addr.i551, align 8
  %this1.i552 = load ptr, ptr %this.addr.i551, align 8
  store ptr %this1.i552, ptr %this.addr.i.i550, align 8
  %this1.i.i553 = load ptr, ptr %this.addr.i.i550, align 8
  %43 = load ptr, ptr %this1.i.i553, align 8
  %cmp.i.i554 = icmp eq ptr %43, null
  br i1 %cmp.i.i554, label %if.then.i558, label %if.end.i555

if.then.i558:                                     ; preds = %_ZN2v814PersistentBaseINS_8FunctionEE5ResetEv.exit571
  br label %_ZN2v814PersistentBaseINS_8FunctionEE5ResetEv.exit559

if.end.i555:                                      ; preds = %_ZN2v814PersistentBaseINS_8FunctionEE5ResetEv.exit571
  store ptr %this1.i552, ptr %this.addr.i3.i549, align 8
  %this1.i4.i556 = load ptr, ptr %this.addr.i3.i549, align 8
  %44 = load ptr, ptr %this1.i4.i556, align 8
  call void @_ZN2v812api_internal13DisposeGlobalEPm(ptr noundef %44) #3
  store ptr %this1.i552, ptr %this.addr.i5.i548, align 8
  %this1.i6.i557 = load ptr, ptr %this.addr.i5.i548, align 8
  store ptr null, ptr %this1.i6.i557, align 8
  br label %_ZN2v814PersistentBaseINS_8FunctionEE5ResetEv.exit559

_ZN2v814PersistentBaseINS_8FunctionEE5ResetEv.exit559: ; preds = %if.end.i555, %if.then.i558
  %builtin_module_require_ = getelementptr inbounds %"class.node::Realm", ptr %this1, i32 0, i32 45
  store ptr %builtin_module_require_, ptr %this.addr.i37, align 8
  %this1.i38 = load ptr, ptr %this.addr.i37, align 8
  store ptr %this1.i38, ptr %this.addr.i539, align 8
  %this1.i540 = load ptr, ptr %this.addr.i539, align 8
  store ptr %this1.i540, ptr %this.addr.i.i538, align 8
  %this1.i.i541 = load ptr, ptr %this.addr.i.i538, align 8
  %45 = load ptr, ptr %this1.i.i541, align 8
  %cmp.i.i542 = icmp eq ptr %45, null
  br i1 %cmp.i.i542, label %if.then.i546, label %if.end.i543

if.then.i546:                                     ; preds = %_ZN2v814PersistentBaseINS_8FunctionEE5ResetEv.exit559
  br label %_ZN2v814PersistentBaseINS_8FunctionEE5ResetEv.exit547

if.end.i543:                                      ; preds = %_ZN2v814PersistentBaseINS_8FunctionEE5ResetEv.exit559
  store ptr %this1.i540, ptr %this.addr.i3.i537, align 8
  %this1.i4.i544 = load ptr, ptr %this.addr.i3.i537, align 8
  %46 = load ptr, ptr %this1.i4.i544, align 8
  call void @_ZN2v812api_internal13DisposeGlobalEPm(ptr noundef %46) #3
  store ptr %this1.i540, ptr %this.addr.i5.i536, align 8
  %this1.i6.i545 = load ptr, ptr %this.addr.i5.i536, align 8
  store ptr null, ptr %this1.i6.i545, align 8
  br label %_ZN2v814PersistentBaseINS_8FunctionEE5ResetEv.exit547

_ZN2v814PersistentBaseINS_8FunctionEE5ResetEv.exit547: ; preds = %if.end.i543, %if.then.i546
  %message_port_ = getelementptr inbounds %"class.node::Realm", ptr %this1, i32 0, i32 44
  store ptr %message_port_, ptr %this.addr.i119, align 8
  %this1.i120 = load ptr, ptr %this.addr.i119, align 8
  store ptr %this1.i120, ptr %this.addr.i766, align 8
  %this1.i767 = load ptr, ptr %this.addr.i766, align 8
  store ptr %this1.i767, ptr %this.addr.i.i765, align 8
  %this1.i.i768 = load ptr, ptr %this.addr.i.i765, align 8
  %47 = load ptr, ptr %this1.i.i768, align 8
  %cmp.i.i769 = icmp eq ptr %47, null
  br i1 %cmp.i.i769, label %if.then.i773, label %if.end.i770

if.then.i773:                                     ; preds = %_ZN2v814PersistentBaseINS_8FunctionEE5ResetEv.exit547
  br label %_ZN2v814PersistentBaseINS_6ObjectEE5ResetEv.exit774

if.end.i770:                                      ; preds = %_ZN2v814PersistentBaseINS_8FunctionEE5ResetEv.exit547
  store ptr %this1.i767, ptr %this.addr.i3.i764, align 8
  %this1.i4.i771 = load ptr, ptr %this.addr.i3.i764, align 8
  %48 = load ptr, ptr %this1.i4.i771, align 8
  call void @_ZN2v812api_internal13DisposeGlobalEPm(ptr noundef %48) #3
  store ptr %this1.i767, ptr %this.addr.i5.i763, align 8
  %this1.i6.i772 = load ptr, ptr %this.addr.i5.i763, align 8
  store ptr null, ptr %this1.i6.i772, align 8
  br label %_ZN2v814PersistentBaseINS_6ObjectEE5ResetEv.exit774

_ZN2v814PersistentBaseINS_6ObjectEE5ResetEv.exit774: ; preds = %if.end.i770, %if.then.i773
  %messaging_deserialize_create_object_ = getelementptr inbounds %"class.node::Realm", ptr %this1, i32 0, i32 43
  store ptr %messaging_deserialize_create_object_, ptr %this.addr.i39, align 8
  %this1.i40 = load ptr, ptr %this.addr.i39, align 8
  store ptr %this1.i40, ptr %this.addr.i527, align 8
  %this1.i528 = load ptr, ptr %this.addr.i527, align 8
  store ptr %this1.i528, ptr %this.addr.i.i526, align 8
  %this1.i.i529 = load ptr, ptr %this.addr.i.i526, align 8
  %49 = load ptr, ptr %this1.i.i529, align 8
  %cmp.i.i530 = icmp eq ptr %49, null
  br i1 %cmp.i.i530, label %if.then.i534, label %if.end.i531

if.then.i534:                                     ; preds = %_ZN2v814PersistentBaseINS_6ObjectEE5ResetEv.exit774
  br label %_ZN2v814PersistentBaseINS_8FunctionEE5ResetEv.exit535

if.end.i531:                                      ; preds = %_ZN2v814PersistentBaseINS_6ObjectEE5ResetEv.exit774
  store ptr %this1.i528, ptr %this.addr.i3.i525, align 8
  %this1.i4.i532 = load ptr, ptr %this.addr.i3.i525, align 8
  %50 = load ptr, ptr %this1.i4.i532, align 8
  call void @_ZN2v812api_internal13DisposeGlobalEPm(ptr noundef %50) #3
  store ptr %this1.i528, ptr %this.addr.i5.i524, align 8
  %this1.i6.i533 = load ptr, ptr %this.addr.i5.i524, align 8
  store ptr null, ptr %this1.i6.i533, align 8
  br label %_ZN2v814PersistentBaseINS_8FunctionEE5ResetEv.exit535

_ZN2v814PersistentBaseINS_8FunctionEE5ResetEv.exit535: ; preds = %if.end.i531, %if.then.i534
  %maybe_cache_generated_source_map_ = getelementptr inbounds %"class.node::Realm", ptr %this1, i32 0, i32 42
  store ptr %maybe_cache_generated_source_map_, ptr %this.addr.i41, align 8
  %this1.i42 = load ptr, ptr %this.addr.i41, align 8
  store ptr %this1.i42, ptr %this.addr.i515, align 8
  %this1.i516 = load ptr, ptr %this.addr.i515, align 8
  store ptr %this1.i516, ptr %this.addr.i.i514, align 8
  %this1.i.i517 = load ptr, ptr %this.addr.i.i514, align 8
  %51 = load ptr, ptr %this1.i.i517, align 8
  %cmp.i.i518 = icmp eq ptr %51, null
  br i1 %cmp.i.i518, label %if.then.i522, label %if.end.i519

if.then.i522:                                     ; preds = %_ZN2v814PersistentBaseINS_8FunctionEE5ResetEv.exit535
  br label %_ZN2v814PersistentBaseINS_8FunctionEE5ResetEv.exit523

if.end.i519:                                      ; preds = %_ZN2v814PersistentBaseINS_8FunctionEE5ResetEv.exit535
  store ptr %this1.i516, ptr %this.addr.i3.i513, align 8
  %this1.i4.i520 = load ptr, ptr %this.addr.i3.i513, align 8
  %52 = load ptr, ptr %this1.i4.i520, align 8
  call void @_ZN2v812api_internal13DisposeGlobalEPm(ptr noundef %52) #3
  store ptr %this1.i516, ptr %this.addr.i5.i512, align 8
  %this1.i6.i521 = load ptr, ptr %this.addr.i5.i512, align 8
  store ptr null, ptr %this1.i6.i521, align 8
  br label %_ZN2v814PersistentBaseINS_8FunctionEE5ResetEv.exit523

_ZN2v814PersistentBaseINS_8FunctionEE5ResetEv.exit523: ; preds = %if.end.i519, %if.then.i522
  %inspector_enable_async_hooks_ = getelementptr inbounds %"class.node::Realm", ptr %this1, i32 0, i32 41
  store ptr %inspector_enable_async_hooks_, ptr %this.addr.i43, align 8
  %this1.i44 = load ptr, ptr %this.addr.i43, align 8
  store ptr %this1.i44, ptr %this.addr.i503, align 8
  %this1.i504 = load ptr, ptr %this.addr.i503, align 8
  store ptr %this1.i504, ptr %this.addr.i.i502, align 8
  %this1.i.i505 = load ptr, ptr %this.addr.i.i502, align 8
  %53 = load ptr, ptr %this1.i.i505, align 8
  %cmp.i.i506 = icmp eq ptr %53, null
  br i1 %cmp.i.i506, label %if.then.i510, label %if.end.i507

if.then.i510:                                     ; preds = %_ZN2v814PersistentBaseINS_8FunctionEE5ResetEv.exit523
  br label %_ZN2v814PersistentBaseINS_8FunctionEE5ResetEv.exit511

if.end.i507:                                      ; preds = %_ZN2v814PersistentBaseINS_8FunctionEE5ResetEv.exit523
  store ptr %this1.i504, ptr %this.addr.i3.i501, align 8
  %this1.i4.i508 = load ptr, ptr %this.addr.i3.i501, align 8
  %54 = load ptr, ptr %this1.i4.i508, align 8
  call void @_ZN2v812api_internal13DisposeGlobalEPm(ptr noundef %54) #3
  store ptr %this1.i504, ptr %this.addr.i5.i500, align 8
  %this1.i6.i509 = load ptr, ptr %this.addr.i5.i500, align 8
  store ptr null, ptr %this1.i6.i509, align 8
  br label %_ZN2v814PersistentBaseINS_8FunctionEE5ResetEv.exit511

_ZN2v814PersistentBaseINS_8FunctionEE5ResetEv.exit511: ; preds = %if.end.i507, %if.then.i510
  %inspector_disable_async_hooks_ = getelementptr inbounds %"class.node::Realm", ptr %this1, i32 0, i32 40
  store ptr %inspector_disable_async_hooks_, ptr %this.addr.i45, align 8
  %this1.i46 = load ptr, ptr %this.addr.i45, align 8
  store ptr %this1.i46, ptr %this.addr.i491, align 8
  %this1.i492 = load ptr, ptr %this.addr.i491, align 8
  store ptr %this1.i492, ptr %this.addr.i.i490, align 8
  %this1.i.i493 = load ptr, ptr %this.addr.i.i490, align 8
  %55 = load ptr, ptr %this1.i.i493, align 8
  %cmp.i.i494 = icmp eq ptr %55, null
  br i1 %cmp.i.i494, label %if.then.i498, label %if.end.i495

if.then.i498:                                     ; preds = %_ZN2v814PersistentBaseINS_8FunctionEE5ResetEv.exit511
  br label %_ZN2v814PersistentBaseINS_8FunctionEE5ResetEv.exit499

if.end.i495:                                      ; preds = %_ZN2v814PersistentBaseINS_8FunctionEE5ResetEv.exit511
  store ptr %this1.i492, ptr %this.addr.i3.i489, align 8
  %this1.i4.i496 = load ptr, ptr %this.addr.i3.i489, align 8
  %56 = load ptr, ptr %this1.i4.i496, align 8
  call void @_ZN2v812api_internal13DisposeGlobalEPm(ptr noundef %56) #3
  store ptr %this1.i492, ptr %this.addr.i5.i488, align 8
  %this1.i6.i497 = load ptr, ptr %this.addr.i5.i488, align 8
  store ptr null, ptr %this1.i6.i497, align 8
  br label %_ZN2v814PersistentBaseINS_8FunctionEE5ResetEv.exit499

_ZN2v814PersistentBaseINS_8FunctionEE5ResetEv.exit499: ; preds = %if.end.i495, %if.then.i498
  %inspector_console_extension_installer_ = getelementptr inbounds %"class.node::Realm", ptr %this1, i32 0, i32 39
  store ptr %inspector_console_extension_installer_, ptr %this.addr.i47, align 8
  %this1.i48 = load ptr, ptr %this.addr.i47, align 8
  store ptr %this1.i48, ptr %this.addr.i479, align 8
  %this1.i480 = load ptr, ptr %this.addr.i479, align 8
  store ptr %this1.i480, ptr %this.addr.i.i478, align 8
  %this1.i.i481 = load ptr, ptr %this.addr.i.i478, align 8
  %57 = load ptr, ptr %this1.i.i481, align 8
  %cmp.i.i482 = icmp eq ptr %57, null
  br i1 %cmp.i.i482, label %if.then.i486, label %if.end.i483

if.then.i486:                                     ; preds = %_ZN2v814PersistentBaseINS_8FunctionEE5ResetEv.exit499
  br label %_ZN2v814PersistentBaseINS_8FunctionEE5ResetEv.exit487

if.end.i483:                                      ; preds = %_ZN2v814PersistentBaseINS_8FunctionEE5ResetEv.exit499
  store ptr %this1.i480, ptr %this.addr.i3.i477, align 8
  %this1.i4.i484 = load ptr, ptr %this.addr.i3.i477, align 8
  %58 = load ptr, ptr %this1.i4.i484, align 8
  call void @_ZN2v812api_internal13DisposeGlobalEPm(ptr noundef %58) #3
  store ptr %this1.i480, ptr %this.addr.i5.i476, align 8
  %this1.i6.i485 = load ptr, ptr %this.addr.i5.i476, align 8
  store ptr null, ptr %this1.i6.i485, align 8
  br label %_ZN2v814PersistentBaseINS_8FunctionEE5ResetEv.exit487

_ZN2v814PersistentBaseINS_8FunctionEE5ResetEv.exit487: ; preds = %if.end.i483, %if.then.i486
  %immediate_callback_function_ = getelementptr inbounds %"class.node::Realm", ptr %this1, i32 0, i32 38
  store ptr %immediate_callback_function_, ptr %this.addr.i49, align 8
  %this1.i50 = load ptr, ptr %this.addr.i49, align 8
  store ptr %this1.i50, ptr %this.addr.i467, align 8
  %this1.i468 = load ptr, ptr %this.addr.i467, align 8
  store ptr %this1.i468, ptr %this.addr.i.i466, align 8
  %this1.i.i469 = load ptr, ptr %this.addr.i.i466, align 8
  %59 = load ptr, ptr %this1.i.i469, align 8
  %cmp.i.i470 = icmp eq ptr %59, null
  br i1 %cmp.i.i470, label %if.then.i474, label %if.end.i471

if.then.i474:                                     ; preds = %_ZN2v814PersistentBaseINS_8FunctionEE5ResetEv.exit487
  br label %_ZN2v814PersistentBaseINS_8FunctionEE5ResetEv.exit475

if.end.i471:                                      ; preds = %_ZN2v814PersistentBaseINS_8FunctionEE5ResetEv.exit487
  store ptr %this1.i468, ptr %this.addr.i3.i465, align 8
  %this1.i4.i472 = load ptr, ptr %this.addr.i3.i465, align 8
  %60 = load ptr, ptr %this1.i4.i472, align 8
  call void @_ZN2v812api_internal13DisposeGlobalEPm(ptr noundef %60) #3
  store ptr %this1.i468, ptr %this.addr.i5.i464, align 8
  %this1.i6.i473 = load ptr, ptr %this.addr.i5.i464, align 8
  store ptr null, ptr %this1.i6.i473, align 8
  br label %_ZN2v814PersistentBaseINS_8FunctionEE5ResetEv.exit475

_ZN2v814PersistentBaseINS_8FunctionEE5ResetEv.exit475: ; preds = %if.end.i471, %if.then.i474
  %internal_binding_loader_ = getelementptr inbounds %"class.node::Realm", ptr %this1, i32 0, i32 37
  store ptr %internal_binding_loader_, ptr %this.addr.i51, align 8
  %this1.i52 = load ptr, ptr %this.addr.i51, align 8
  store ptr %this1.i52, ptr %this.addr.i455, align 8
  %this1.i456 = load ptr, ptr %this.addr.i455, align 8
  store ptr %this1.i456, ptr %this.addr.i.i454, align 8
  %this1.i.i457 = load ptr, ptr %this.addr.i.i454, align 8
  %61 = load ptr, ptr %this1.i.i457, align 8
  %cmp.i.i458 = icmp eq ptr %61, null
  br i1 %cmp.i.i458, label %if.then.i462, label %if.end.i459

if.then.i462:                                     ; preds = %_ZN2v814PersistentBaseINS_8FunctionEE5ResetEv.exit475
  br label %_ZN2v814PersistentBaseINS_8FunctionEE5ResetEv.exit463

if.end.i459:                                      ; preds = %_ZN2v814PersistentBaseINS_8FunctionEE5ResetEv.exit475
  store ptr %this1.i456, ptr %this.addr.i3.i453, align 8
  %this1.i4.i460 = load ptr, ptr %this.addr.i3.i453, align 8
  %62 = load ptr, ptr %this1.i4.i460, align 8
  call void @_ZN2v812api_internal13DisposeGlobalEPm(ptr noundef %62) #3
  store ptr %this1.i456, ptr %this.addr.i5.i452, align 8
  %this1.i6.i461 = load ptr, ptr %this.addr.i5.i452, align 8
  store ptr null, ptr %this1.i6.i461, align 8
  br label %_ZN2v814PersistentBaseINS_8FunctionEE5ResetEv.exit463

_ZN2v814PersistentBaseINS_8FunctionEE5ResetEv.exit463: ; preds = %if.end.i459, %if.then.i462
  %http2session_on_stream_trailers_function_ = getelementptr inbounds %"class.node::Realm", ptr %this1, i32 0, i32 36
  store ptr %http2session_on_stream_trailers_function_, ptr %this.addr.i53, align 8
  %this1.i54 = load ptr, ptr %this.addr.i53, align 8
  store ptr %this1.i54, ptr %this.addr.i443, align 8
  %this1.i444 = load ptr, ptr %this.addr.i443, align 8
  store ptr %this1.i444, ptr %this.addr.i.i442, align 8
  %this1.i.i445 = load ptr, ptr %this.addr.i.i442, align 8
  %63 = load ptr, ptr %this1.i.i445, align 8
  %cmp.i.i446 = icmp eq ptr %63, null
  br i1 %cmp.i.i446, label %if.then.i450, label %if.end.i447

if.then.i450:                                     ; preds = %_ZN2v814PersistentBaseINS_8FunctionEE5ResetEv.exit463
  br label %_ZN2v814PersistentBaseINS_8FunctionEE5ResetEv.exit451

if.end.i447:                                      ; preds = %_ZN2v814PersistentBaseINS_8FunctionEE5ResetEv.exit463
  store ptr %this1.i444, ptr %this.addr.i3.i441, align 8
  %this1.i4.i448 = load ptr, ptr %this.addr.i3.i441, align 8
  %64 = load ptr, ptr %this1.i4.i448, align 8
  call void @_ZN2v812api_internal13DisposeGlobalEPm(ptr noundef %64) #3
  store ptr %this1.i444, ptr %this.addr.i5.i440, align 8
  %this1.i6.i449 = load ptr, ptr %this.addr.i5.i440, align 8
  store ptr null, ptr %this1.i6.i449, align 8
  br label %_ZN2v814PersistentBaseINS_8FunctionEE5ResetEv.exit451

_ZN2v814PersistentBaseINS_8FunctionEE5ResetEv.exit451: ; preds = %if.end.i447, %if.then.i450
  %http2session_on_stream_close_function_ = getelementptr inbounds %"class.node::Realm", ptr %this1, i32 0, i32 35
  store ptr %http2session_on_stream_close_function_, ptr %this.addr.i55, align 8
  %this1.i56 = load ptr, ptr %this.addr.i55, align 8
  store ptr %this1.i56, ptr %this.addr.i431, align 8
  %this1.i432 = load ptr, ptr %this.addr.i431, align 8
  store ptr %this1.i432, ptr %this.addr.i.i430, align 8
  %this1.i.i433 = load ptr, ptr %this.addr.i.i430, align 8
  %65 = load ptr, ptr %this1.i.i433, align 8
  %cmp.i.i434 = icmp eq ptr %65, null
  br i1 %cmp.i.i434, label %if.then.i438, label %if.end.i435

if.then.i438:                                     ; preds = %_ZN2v814PersistentBaseINS_8FunctionEE5ResetEv.exit451
  br label %_ZN2v814PersistentBaseINS_8FunctionEE5ResetEv.exit439

if.end.i435:                                      ; preds = %_ZN2v814PersistentBaseINS_8FunctionEE5ResetEv.exit451
  store ptr %this1.i432, ptr %this.addr.i3.i429, align 8
  %this1.i4.i436 = load ptr, ptr %this.addr.i3.i429, align 8
  %66 = load ptr, ptr %this1.i4.i436, align 8
  call void @_ZN2v812api_internal13DisposeGlobalEPm(ptr noundef %66) #3
  store ptr %this1.i432, ptr %this.addr.i5.i428, align 8
  %this1.i6.i437 = load ptr, ptr %this.addr.i5.i428, align 8
  store ptr null, ptr %this1.i6.i437, align 8
  br label %_ZN2v814PersistentBaseINS_8FunctionEE5ResetEv.exit439

_ZN2v814PersistentBaseINS_8FunctionEE5ResetEv.exit439: ; preds = %if.end.i435, %if.then.i438
  %http2session_on_settings_function_ = getelementptr inbounds %"class.node::Realm", ptr %this1, i32 0, i32 34
  store ptr %http2session_on_settings_function_, ptr %this.addr.i57, align 8
  %this1.i58 = load ptr, ptr %this.addr.i57, align 8
  store ptr %this1.i58, ptr %this.addr.i419, align 8
  %this1.i420 = load ptr, ptr %this.addr.i419, align 8
  store ptr %this1.i420, ptr %this.addr.i.i418, align 8
  %this1.i.i421 = load ptr, ptr %this.addr.i.i418, align 8
  %67 = load ptr, ptr %this1.i.i421, align 8
  %cmp.i.i422 = icmp eq ptr %67, null
  br i1 %cmp.i.i422, label %if.then.i426, label %if.end.i423

if.then.i426:                                     ; preds = %_ZN2v814PersistentBaseINS_8FunctionEE5ResetEv.exit439
  br label %_ZN2v814PersistentBaseINS_8FunctionEE5ResetEv.exit427

if.end.i423:                                      ; preds = %_ZN2v814PersistentBaseINS_8FunctionEE5ResetEv.exit439
  store ptr %this1.i420, ptr %this.addr.i3.i417, align 8
  %this1.i4.i424 = load ptr, ptr %this.addr.i3.i417, align 8
  %68 = load ptr, ptr %this1.i4.i424, align 8
  call void @_ZN2v812api_internal13DisposeGlobalEPm(ptr noundef %68) #3
  store ptr %this1.i420, ptr %this.addr.i5.i416, align 8
  %this1.i6.i425 = load ptr, ptr %this.addr.i5.i416, align 8
  store ptr null, ptr %this1.i6.i425, align 8
  br label %_ZN2v814PersistentBaseINS_8FunctionEE5ResetEv.exit427

_ZN2v814PersistentBaseINS_8FunctionEE5ResetEv.exit427: ; preds = %if.end.i423, %if.then.i426
  %http2session_on_priority_function_ = getelementptr inbounds %"class.node::Realm", ptr %this1, i32 0, i32 33
  store ptr %http2session_on_priority_function_, ptr %this.addr.i59, align 8
  %this1.i60 = load ptr, ptr %this.addr.i59, align 8
  store ptr %this1.i60, ptr %this.addr.i407, align 8
  %this1.i408 = load ptr, ptr %this.addr.i407, align 8
  store ptr %this1.i408, ptr %this.addr.i.i406, align 8
  %this1.i.i409 = load ptr, ptr %this.addr.i.i406, align 8
  %69 = load ptr, ptr %this1.i.i409, align 8
  %cmp.i.i410 = icmp eq ptr %69, null
  br i1 %cmp.i.i410, label %if.then.i414, label %if.end.i411

if.then.i414:                                     ; preds = %_ZN2v814PersistentBaseINS_8FunctionEE5ResetEv.exit427
  br label %_ZN2v814PersistentBaseINS_8FunctionEE5ResetEv.exit415

if.end.i411:                                      ; preds = %_ZN2v814PersistentBaseINS_8FunctionEE5ResetEv.exit427
  store ptr %this1.i408, ptr %this.addr.i3.i405, align 8
  %this1.i4.i412 = load ptr, ptr %this.addr.i3.i405, align 8
  %70 = load ptr, ptr %this1.i4.i412, align 8
  call void @_ZN2v812api_internal13DisposeGlobalEPm(ptr noundef %70) #3
  store ptr %this1.i408, ptr %this.addr.i5.i404, align 8
  %this1.i6.i413 = load ptr, ptr %this.addr.i5.i404, align 8
  store ptr null, ptr %this1.i6.i413, align 8
  br label %_ZN2v814PersistentBaseINS_8FunctionEE5ResetEv.exit415

_ZN2v814PersistentBaseINS_8FunctionEE5ResetEv.exit415: ; preds = %if.end.i411, %if.then.i414
  %http2session_on_ping_function_ = getelementptr inbounds %"class.node::Realm", ptr %this1, i32 0, i32 32
  store ptr %http2session_on_ping_function_, ptr %this.addr.i61, align 8
  %this1.i62 = load ptr, ptr %this.addr.i61, align 8
  store ptr %this1.i62, ptr %this.addr.i395, align 8
  %this1.i396 = load ptr, ptr %this.addr.i395, align 8
  store ptr %this1.i396, ptr %this.addr.i.i394, align 8
  %this1.i.i397 = load ptr, ptr %this.addr.i.i394, align 8
  %71 = load ptr, ptr %this1.i.i397, align 8
  %cmp.i.i398 = icmp eq ptr %71, null
  br i1 %cmp.i.i398, label %if.then.i402, label %if.end.i399

if.then.i402:                                     ; preds = %_ZN2v814PersistentBaseINS_8FunctionEE5ResetEv.exit415
  br label %_ZN2v814PersistentBaseINS_8FunctionEE5ResetEv.exit403

if.end.i399:                                      ; preds = %_ZN2v814PersistentBaseINS_8FunctionEE5ResetEv.exit415
  store ptr %this1.i396, ptr %this.addr.i3.i393, align 8
  %this1.i4.i400 = load ptr, ptr %this.addr.i3.i393, align 8
  %72 = load ptr, ptr %this1.i4.i400, align 8
  call void @_ZN2v812api_internal13DisposeGlobalEPm(ptr noundef %72) #3
  store ptr %this1.i396, ptr %this.addr.i5.i392, align 8
  %this1.i6.i401 = load ptr, ptr %this.addr.i5.i392, align 8
  store ptr null, ptr %this1.i6.i401, align 8
  br label %_ZN2v814PersistentBaseINS_8FunctionEE5ResetEv.exit403

_ZN2v814PersistentBaseINS_8FunctionEE5ResetEv.exit403: ; preds = %if.end.i399, %if.then.i402
  %http2session_on_origin_function_ = getelementptr inbounds %"class.node::Realm", ptr %this1, i32 0, i32 31
  store ptr %http2session_on_origin_function_, ptr %this.addr.i63, align 8
  %this1.i64 = load ptr, ptr %this.addr.i63, align 8
  store ptr %this1.i64, ptr %this.addr.i383, align 8
  %this1.i384 = load ptr, ptr %this.addr.i383, align 8
  store ptr %this1.i384, ptr %this.addr.i.i382, align 8
  %this1.i.i385 = load ptr, ptr %this.addr.i.i382, align 8
  %73 = load ptr, ptr %this1.i.i385, align 8
  %cmp.i.i386 = icmp eq ptr %73, null
  br i1 %cmp.i.i386, label %if.then.i390, label %if.end.i387

if.then.i390:                                     ; preds = %_ZN2v814PersistentBaseINS_8FunctionEE5ResetEv.exit403
  br label %_ZN2v814PersistentBaseINS_8FunctionEE5ResetEv.exit391

if.end.i387:                                      ; preds = %_ZN2v814PersistentBaseINS_8FunctionEE5ResetEv.exit403
  store ptr %this1.i384, ptr %this.addr.i3.i381, align 8
  %this1.i4.i388 = load ptr, ptr %this.addr.i3.i381, align 8
  %74 = load ptr, ptr %this1.i4.i388, align 8
  call void @_ZN2v812api_internal13DisposeGlobalEPm(ptr noundef %74) #3
  store ptr %this1.i384, ptr %this.addr.i5.i380, align 8
  %this1.i6.i389 = load ptr, ptr %this.addr.i5.i380, align 8
  store ptr null, ptr %this1.i6.i389, align 8
  br label %_ZN2v814PersistentBaseINS_8FunctionEE5ResetEv.exit391

_ZN2v814PersistentBaseINS_8FunctionEE5ResetEv.exit391: ; preds = %if.end.i387, %if.then.i390
  %http2session_on_headers_function_ = getelementptr inbounds %"class.node::Realm", ptr %this1, i32 0, i32 30
  store ptr %http2session_on_headers_function_, ptr %this.addr.i65, align 8
  %this1.i66 = load ptr, ptr %this.addr.i65, align 8
  store ptr %this1.i66, ptr %this.addr.i371, align 8
  %this1.i372 = load ptr, ptr %this.addr.i371, align 8
  store ptr %this1.i372, ptr %this.addr.i.i370, align 8
  %this1.i.i373 = load ptr, ptr %this.addr.i.i370, align 8
  %75 = load ptr, ptr %this1.i.i373, align 8
  %cmp.i.i374 = icmp eq ptr %75, null
  br i1 %cmp.i.i374, label %if.then.i378, label %if.end.i375

if.then.i378:                                     ; preds = %_ZN2v814PersistentBaseINS_8FunctionEE5ResetEv.exit391
  br label %_ZN2v814PersistentBaseINS_8FunctionEE5ResetEv.exit379

if.end.i375:                                      ; preds = %_ZN2v814PersistentBaseINS_8FunctionEE5ResetEv.exit391
  store ptr %this1.i372, ptr %this.addr.i3.i369, align 8
  %this1.i4.i376 = load ptr, ptr %this.addr.i3.i369, align 8
  %76 = load ptr, ptr %this1.i4.i376, align 8
  call void @_ZN2v812api_internal13DisposeGlobalEPm(ptr noundef %76) #3
  store ptr %this1.i372, ptr %this.addr.i5.i368, align 8
  %this1.i6.i377 = load ptr, ptr %this.addr.i5.i368, align 8
  store ptr null, ptr %this1.i6.i377, align 8
  br label %_ZN2v814PersistentBaseINS_8FunctionEE5ResetEv.exit379

_ZN2v814PersistentBaseINS_8FunctionEE5ResetEv.exit379: ; preds = %if.end.i375, %if.then.i378
  %http2session_on_goaway_data_function_ = getelementptr inbounds %"class.node::Realm", ptr %this1, i32 0, i32 29
  store ptr %http2session_on_goaway_data_function_, ptr %this.addr.i67, align 8
  %this1.i68 = load ptr, ptr %this.addr.i67, align 8
  store ptr %this1.i68, ptr %this.addr.i359, align 8
  %this1.i360 = load ptr, ptr %this.addr.i359, align 8
  store ptr %this1.i360, ptr %this.addr.i.i358, align 8
  %this1.i.i361 = load ptr, ptr %this.addr.i.i358, align 8
  %77 = load ptr, ptr %this1.i.i361, align 8
  %cmp.i.i362 = icmp eq ptr %77, null
  br i1 %cmp.i.i362, label %if.then.i366, label %if.end.i363

if.then.i366:                                     ; preds = %_ZN2v814PersistentBaseINS_8FunctionEE5ResetEv.exit379
  br label %_ZN2v814PersistentBaseINS_8FunctionEE5ResetEv.exit367

if.end.i363:                                      ; preds = %_ZN2v814PersistentBaseINS_8FunctionEE5ResetEv.exit379
  store ptr %this1.i360, ptr %this.addr.i3.i357, align 8
  %this1.i4.i364 = load ptr, ptr %this.addr.i3.i357, align 8
  %78 = load ptr, ptr %this1.i4.i364, align 8
  call void @_ZN2v812api_internal13DisposeGlobalEPm(ptr noundef %78) #3
  store ptr %this1.i360, ptr %this.addr.i5.i356, align 8
  %this1.i6.i365 = load ptr, ptr %this.addr.i5.i356, align 8
  store ptr null, ptr %this1.i6.i365, align 8
  br label %_ZN2v814PersistentBaseINS_8FunctionEE5ResetEv.exit367

_ZN2v814PersistentBaseINS_8FunctionEE5ResetEv.exit367: ; preds = %if.end.i363, %if.then.i366
  %http2session_on_frame_error_function_ = getelementptr inbounds %"class.node::Realm", ptr %this1, i32 0, i32 28
  store ptr %http2session_on_frame_error_function_, ptr %this.addr.i69, align 8
  %this1.i70 = load ptr, ptr %this.addr.i69, align 8
  store ptr %this1.i70, ptr %this.addr.i347, align 8
  %this1.i348 = load ptr, ptr %this.addr.i347, align 8
  store ptr %this1.i348, ptr %this.addr.i.i346, align 8
  %this1.i.i349 = load ptr, ptr %this.addr.i.i346, align 8
  %79 = load ptr, ptr %this1.i.i349, align 8
  %cmp.i.i350 = icmp eq ptr %79, null
  br i1 %cmp.i.i350, label %if.then.i354, label %if.end.i351

if.then.i354:                                     ; preds = %_ZN2v814PersistentBaseINS_8FunctionEE5ResetEv.exit367
  br label %_ZN2v814PersistentBaseINS_8FunctionEE5ResetEv.exit355

if.end.i351:                                      ; preds = %_ZN2v814PersistentBaseINS_8FunctionEE5ResetEv.exit367
  store ptr %this1.i348, ptr %this.addr.i3.i345, align 8
  %this1.i4.i352 = load ptr, ptr %this.addr.i3.i345, align 8
  %80 = load ptr, ptr %this1.i4.i352, align 8
  call void @_ZN2v812api_internal13DisposeGlobalEPm(ptr noundef %80) #3
  store ptr %this1.i348, ptr %this.addr.i5.i344, align 8
  %this1.i6.i353 = load ptr, ptr %this.addr.i5.i344, align 8
  store ptr null, ptr %this1.i6.i353, align 8
  br label %_ZN2v814PersistentBaseINS_8FunctionEE5ResetEv.exit355

_ZN2v814PersistentBaseINS_8FunctionEE5ResetEv.exit355: ; preds = %if.end.i351, %if.then.i354
  %http2session_on_error_function_ = getelementptr inbounds %"class.node::Realm", ptr %this1, i32 0, i32 27
  store ptr %http2session_on_error_function_, ptr %this.addr.i71, align 8
  %this1.i72 = load ptr, ptr %this.addr.i71, align 8
  store ptr %this1.i72, ptr %this.addr.i335, align 8
  %this1.i336 = load ptr, ptr %this.addr.i335, align 8
  store ptr %this1.i336, ptr %this.addr.i.i334, align 8
  %this1.i.i337 = load ptr, ptr %this.addr.i.i334, align 8
  %81 = load ptr, ptr %this1.i.i337, align 8
  %cmp.i.i338 = icmp eq ptr %81, null
  br i1 %cmp.i.i338, label %if.then.i342, label %if.end.i339

if.then.i342:                                     ; preds = %_ZN2v814PersistentBaseINS_8FunctionEE5ResetEv.exit355
  br label %_ZN2v814PersistentBaseINS_8FunctionEE5ResetEv.exit343

if.end.i339:                                      ; preds = %_ZN2v814PersistentBaseINS_8FunctionEE5ResetEv.exit355
  store ptr %this1.i336, ptr %this.addr.i3.i333, align 8
  %this1.i4.i340 = load ptr, ptr %this.addr.i3.i333, align 8
  %82 = load ptr, ptr %this1.i4.i340, align 8
  call void @_ZN2v812api_internal13DisposeGlobalEPm(ptr noundef %82) #3
  store ptr %this1.i336, ptr %this.addr.i5.i332, align 8
  %this1.i6.i341 = load ptr, ptr %this.addr.i5.i332, align 8
  store ptr null, ptr %this1.i6.i341, align 8
  br label %_ZN2v814PersistentBaseINS_8FunctionEE5ResetEv.exit343

_ZN2v814PersistentBaseINS_8FunctionEE5ResetEv.exit343: ; preds = %if.end.i339, %if.then.i342
  %http2session_on_altsvc_function_ = getelementptr inbounds %"class.node::Realm", ptr %this1, i32 0, i32 26
  store ptr %http2session_on_altsvc_function_, ptr %this.addr.i73, align 8
  %this1.i74 = load ptr, ptr %this.addr.i73, align 8
  store ptr %this1.i74, ptr %this.addr.i323, align 8
  %this1.i324 = load ptr, ptr %this.addr.i323, align 8
  store ptr %this1.i324, ptr %this.addr.i.i322, align 8
  %this1.i.i325 = load ptr, ptr %this.addr.i.i322, align 8
  %83 = load ptr, ptr %this1.i.i325, align 8
  %cmp.i.i326 = icmp eq ptr %83, null
  br i1 %cmp.i.i326, label %if.then.i330, label %if.end.i327

if.then.i330:                                     ; preds = %_ZN2v814PersistentBaseINS_8FunctionEE5ResetEv.exit343
  br label %_ZN2v814PersistentBaseINS_8FunctionEE5ResetEv.exit331

if.end.i327:                                      ; preds = %_ZN2v814PersistentBaseINS_8FunctionEE5ResetEv.exit343
  store ptr %this1.i324, ptr %this.addr.i3.i321, align 8
  %this1.i4.i328 = load ptr, ptr %this.addr.i3.i321, align 8
  %84 = load ptr, ptr %this1.i4.i328, align 8
  call void @_ZN2v812api_internal13DisposeGlobalEPm(ptr noundef %84) #3
  store ptr %this1.i324, ptr %this.addr.i5.i320, align 8
  %this1.i6.i329 = load ptr, ptr %this.addr.i5.i320, align 8
  store ptr null, ptr %this1.i6.i329, align 8
  br label %_ZN2v814PersistentBaseINS_8FunctionEE5ResetEv.exit331

_ZN2v814PersistentBaseINS_8FunctionEE5ResetEv.exit331: ; preds = %if.end.i327, %if.then.i330
  %host_initialize_import_meta_object_callback_ = getelementptr inbounds %"class.node::Realm", ptr %this1, i32 0, i32 25
  store ptr %host_initialize_import_meta_object_callback_, ptr %this.addr.i75, align 8
  %this1.i76 = load ptr, ptr %this.addr.i75, align 8
  store ptr %this1.i76, ptr %this.addr.i311, align 8
  %this1.i312 = load ptr, ptr %this.addr.i311, align 8
  store ptr %this1.i312, ptr %this.addr.i.i310, align 8
  %this1.i.i313 = load ptr, ptr %this.addr.i.i310, align 8
  %85 = load ptr, ptr %this1.i.i313, align 8
  %cmp.i.i314 = icmp eq ptr %85, null
  br i1 %cmp.i.i314, label %if.then.i318, label %if.end.i315

if.then.i318:                                     ; preds = %_ZN2v814PersistentBaseINS_8FunctionEE5ResetEv.exit331
  br label %_ZN2v814PersistentBaseINS_8FunctionEE5ResetEv.exit319

if.end.i315:                                      ; preds = %_ZN2v814PersistentBaseINS_8FunctionEE5ResetEv.exit331
  store ptr %this1.i312, ptr %this.addr.i3.i309, align 8
  %this1.i4.i316 = load ptr, ptr %this.addr.i3.i309, align 8
  %86 = load ptr, ptr %this1.i4.i316, align 8
  call void @_ZN2v812api_internal13DisposeGlobalEPm(ptr noundef %86) #3
  store ptr %this1.i312, ptr %this.addr.i5.i308, align 8
  %this1.i6.i317 = load ptr, ptr %this.addr.i5.i308, align 8
  store ptr null, ptr %this1.i6.i317, align 8
  br label %_ZN2v814PersistentBaseINS_8FunctionEE5ResetEv.exit319

_ZN2v814PersistentBaseINS_8FunctionEE5ResetEv.exit319: ; preds = %if.end.i315, %if.then.i318
  %host_import_module_dynamically_callback_ = getelementptr inbounds %"class.node::Realm", ptr %this1, i32 0, i32 24
  store ptr %host_import_module_dynamically_callback_, ptr %this.addr.i77, align 8
  %this1.i78 = load ptr, ptr %this.addr.i77, align 8
  store ptr %this1.i78, ptr %this.addr.i299, align 8
  %this1.i300 = load ptr, ptr %this.addr.i299, align 8
  store ptr %this1.i300, ptr %this.addr.i.i298, align 8
  %this1.i.i301 = load ptr, ptr %this.addr.i.i298, align 8
  %87 = load ptr, ptr %this1.i.i301, align 8
  %cmp.i.i302 = icmp eq ptr %87, null
  br i1 %cmp.i.i302, label %if.then.i306, label %if.end.i303

if.then.i306:                                     ; preds = %_ZN2v814PersistentBaseINS_8FunctionEE5ResetEv.exit319
  br label %_ZN2v814PersistentBaseINS_8FunctionEE5ResetEv.exit307

if.end.i303:                                      ; preds = %_ZN2v814PersistentBaseINS_8FunctionEE5ResetEv.exit319
  store ptr %this1.i300, ptr %this.addr.i3.i297, align 8
  %this1.i4.i304 = load ptr, ptr %this.addr.i3.i297, align 8
  %88 = load ptr, ptr %this1.i4.i304, align 8
  call void @_ZN2v812api_internal13DisposeGlobalEPm(ptr noundef %88) #3
  store ptr %this1.i300, ptr %this.addr.i5.i296, align 8
  %this1.i6.i305 = load ptr, ptr %this.addr.i5.i296, align 8
  store ptr null, ptr %this1.i6.i305, align 8
  br label %_ZN2v814PersistentBaseINS_8FunctionEE5ResetEv.exit307

_ZN2v814PersistentBaseINS_8FunctionEE5ResetEv.exit307: ; preds = %if.end.i303, %if.then.i306
  %get_source_map_error_source_ = getelementptr inbounds %"class.node::Realm", ptr %this1, i32 0, i32 23
  store ptr %get_source_map_error_source_, ptr %this.addr.i79, align 8
  %this1.i80 = load ptr, ptr %this.addr.i79, align 8
  store ptr %this1.i80, ptr %this.addr.i287, align 8
  %this1.i288 = load ptr, ptr %this.addr.i287, align 8
  store ptr %this1.i288, ptr %this.addr.i.i286, align 8
  %this1.i.i289 = load ptr, ptr %this.addr.i.i286, align 8
  %89 = load ptr, ptr %this1.i.i289, align 8
  %cmp.i.i290 = icmp eq ptr %89, null
  br i1 %cmp.i.i290, label %if.then.i294, label %if.end.i291

if.then.i294:                                     ; preds = %_ZN2v814PersistentBaseINS_8FunctionEE5ResetEv.exit307
  br label %_ZN2v814PersistentBaseINS_8FunctionEE5ResetEv.exit295

if.end.i291:                                      ; preds = %_ZN2v814PersistentBaseINS_8FunctionEE5ResetEv.exit307
  store ptr %this1.i288, ptr %this.addr.i3.i285, align 8
  %this1.i4.i292 = load ptr, ptr %this.addr.i3.i285, align 8
  %90 = load ptr, ptr %this1.i4.i292, align 8
  call void @_ZN2v812api_internal13DisposeGlobalEPm(ptr noundef %90) #3
  store ptr %this1.i288, ptr %this.addr.i5.i284, align 8
  %this1.i6.i293 = load ptr, ptr %this.addr.i5.i284, align 8
  store ptr null, ptr %this1.i6.i293, align 8
  br label %_ZN2v814PersistentBaseINS_8FunctionEE5ResetEv.exit295

_ZN2v814PersistentBaseINS_8FunctionEE5ResetEv.exit295: ; preds = %if.end.i291, %if.then.i294
  %enhance_fatal_stack_before_inspector_ = getelementptr inbounds %"class.node::Realm", ptr %this1, i32 0, i32 22
  store ptr %enhance_fatal_stack_before_inspector_, ptr %this.addr.i81, align 8
  %this1.i82 = load ptr, ptr %this.addr.i81, align 8
  store ptr %this1.i82, ptr %this.addr.i275, align 8
  %this1.i276 = load ptr, ptr %this.addr.i275, align 8
  store ptr %this1.i276, ptr %this.addr.i.i274, align 8
  %this1.i.i277 = load ptr, ptr %this.addr.i.i274, align 8
  %91 = load ptr, ptr %this1.i.i277, align 8
  %cmp.i.i278 = icmp eq ptr %91, null
  br i1 %cmp.i.i278, label %if.then.i282, label %if.end.i279

if.then.i282:                                     ; preds = %_ZN2v814PersistentBaseINS_8FunctionEE5ResetEv.exit295
  br label %_ZN2v814PersistentBaseINS_8FunctionEE5ResetEv.exit283

if.end.i279:                                      ; preds = %_ZN2v814PersistentBaseINS_8FunctionEE5ResetEv.exit295
  store ptr %this1.i276, ptr %this.addr.i3.i273, align 8
  %this1.i4.i280 = load ptr, ptr %this.addr.i3.i273, align 8
  %92 = load ptr, ptr %this1.i4.i280, align 8
  call void @_ZN2v812api_internal13DisposeGlobalEPm(ptr noundef %92) #3
  store ptr %this1.i276, ptr %this.addr.i5.i272, align 8
  %this1.i6.i281 = load ptr, ptr %this.addr.i5.i272, align 8
  store ptr null, ptr %this1.i6.i281, align 8
  br label %_ZN2v814PersistentBaseINS_8FunctionEE5ResetEv.exit283

_ZN2v814PersistentBaseINS_8FunctionEE5ResetEv.exit283: ; preds = %if.end.i279, %if.then.i282
  %enhance_fatal_stack_after_inspector_ = getelementptr inbounds %"class.node::Realm", ptr %this1, i32 0, i32 21
  store ptr %enhance_fatal_stack_after_inspector_, ptr %this.addr.i83, align 8
  %this1.i84 = load ptr, ptr %this.addr.i83, align 8
  store ptr %this1.i84, ptr %this.addr.i263, align 8
  %this1.i264 = load ptr, ptr %this.addr.i263, align 8
  store ptr %this1.i264, ptr %this.addr.i.i262, align 8
  %this1.i.i265 = load ptr, ptr %this.addr.i.i262, align 8
  %93 = load ptr, ptr %this1.i.i265, align 8
  %cmp.i.i266 = icmp eq ptr %93, null
  br i1 %cmp.i.i266, label %if.then.i270, label %if.end.i267

if.then.i270:                                     ; preds = %_ZN2v814PersistentBaseINS_8FunctionEE5ResetEv.exit283
  br label %_ZN2v814PersistentBaseINS_8FunctionEE5ResetEv.exit271

if.end.i267:                                      ; preds = %_ZN2v814PersistentBaseINS_8FunctionEE5ResetEv.exit283
  store ptr %this1.i264, ptr %this.addr.i3.i261, align 8
  %this1.i4.i268 = load ptr, ptr %this.addr.i3.i261, align 8
  %94 = load ptr, ptr %this1.i4.i268, align 8
  call void @_ZN2v812api_internal13DisposeGlobalEPm(ptr noundef %94) #3
  store ptr %this1.i264, ptr %this.addr.i5.i260, align 8
  %this1.i6.i269 = load ptr, ptr %this.addr.i5.i260, align 8
  store ptr null, ptr %this1.i6.i269, align 8
  br label %_ZN2v814PersistentBaseINS_8FunctionEE5ResetEv.exit271

_ZN2v814PersistentBaseINS_8FunctionEE5ResetEv.exit271: ; preds = %if.end.i267, %if.then.i270
  %domexception_function_ = getelementptr inbounds %"class.node::Realm", ptr %this1, i32 0, i32 20
  store ptr %domexception_function_, ptr %this.addr.i85, align 8
  %this1.i86 = load ptr, ptr %this.addr.i85, align 8
  store ptr %this1.i86, ptr %this.addr.i251, align 8
  %this1.i252 = load ptr, ptr %this.addr.i251, align 8
  store ptr %this1.i252, ptr %this.addr.i.i250, align 8
  %this1.i.i253 = load ptr, ptr %this.addr.i.i250, align 8
  %95 = load ptr, ptr %this1.i.i253, align 8
  %cmp.i.i254 = icmp eq ptr %95, null
  br i1 %cmp.i.i254, label %if.then.i258, label %if.end.i255

if.then.i258:                                     ; preds = %_ZN2v814PersistentBaseINS_8FunctionEE5ResetEv.exit271
  br label %_ZN2v814PersistentBaseINS_8FunctionEE5ResetEv.exit259

if.end.i255:                                      ; preds = %_ZN2v814PersistentBaseINS_8FunctionEE5ResetEv.exit271
  store ptr %this1.i252, ptr %this.addr.i3.i249, align 8
  %this1.i4.i256 = load ptr, ptr %this.addr.i3.i249, align 8
  %96 = load ptr, ptr %this1.i4.i256, align 8
  call void @_ZN2v812api_internal13DisposeGlobalEPm(ptr noundef %96) #3
  store ptr %this1.i252, ptr %this.addr.i5.i248, align 8
  %this1.i6.i257 = load ptr, ptr %this.addr.i5.i248, align 8
  store ptr null, ptr %this1.i6.i257, align 8
  br label %_ZN2v814PersistentBaseINS_8FunctionEE5ResetEv.exit259

_ZN2v814PersistentBaseINS_8FunctionEE5ResetEv.exit259: ; preds = %if.end.i255, %if.then.i258
  %crypto_key_object_secret_constructor_ = getelementptr inbounds %"class.node::Realm", ptr %this1, i32 0, i32 19
  store ptr %crypto_key_object_secret_constructor_, ptr %this.addr.i87, align 8
  %this1.i88 = load ptr, ptr %this.addr.i87, align 8
  store ptr %this1.i88, ptr %this.addr.i239, align 8
  %this1.i240 = load ptr, ptr %this.addr.i239, align 8
  store ptr %this1.i240, ptr %this.addr.i.i238, align 8
  %this1.i.i241 = load ptr, ptr %this.addr.i.i238, align 8
  %97 = load ptr, ptr %this1.i.i241, align 8
  %cmp.i.i242 = icmp eq ptr %97, null
  br i1 %cmp.i.i242, label %if.then.i246, label %if.end.i243

if.then.i246:                                     ; preds = %_ZN2v814PersistentBaseINS_8FunctionEE5ResetEv.exit259
  br label %_ZN2v814PersistentBaseINS_8FunctionEE5ResetEv.exit247

if.end.i243:                                      ; preds = %_ZN2v814PersistentBaseINS_8FunctionEE5ResetEv.exit259
  store ptr %this1.i240, ptr %this.addr.i3.i237, align 8
  %this1.i4.i244 = load ptr, ptr %this.addr.i3.i237, align 8
  %98 = load ptr, ptr %this1.i4.i244, align 8
  call void @_ZN2v812api_internal13DisposeGlobalEPm(ptr noundef %98) #3
  store ptr %this1.i240, ptr %this.addr.i5.i236, align 8
  %this1.i6.i245 = load ptr, ptr %this.addr.i5.i236, align 8
  store ptr null, ptr %this1.i6.i245, align 8
  br label %_ZN2v814PersistentBaseINS_8FunctionEE5ResetEv.exit247

_ZN2v814PersistentBaseINS_8FunctionEE5ResetEv.exit247: ; preds = %if.end.i243, %if.then.i246
  %crypto_key_object_public_constructor_ = getelementptr inbounds %"class.node::Realm", ptr %this1, i32 0, i32 18
  store ptr %crypto_key_object_public_constructor_, ptr %this.addr.i89, align 8
  %this1.i90 = load ptr, ptr %this.addr.i89, align 8
  store ptr %this1.i90, ptr %this.addr.i227, align 8
  %this1.i228 = load ptr, ptr %this.addr.i227, align 8
  store ptr %this1.i228, ptr %this.addr.i.i226, align 8
  %this1.i.i229 = load ptr, ptr %this.addr.i.i226, align 8
  %99 = load ptr, ptr %this1.i.i229, align 8
  %cmp.i.i230 = icmp eq ptr %99, null
  br i1 %cmp.i.i230, label %if.then.i234, label %if.end.i231

if.then.i234:                                     ; preds = %_ZN2v814PersistentBaseINS_8FunctionEE5ResetEv.exit247
  br label %_ZN2v814PersistentBaseINS_8FunctionEE5ResetEv.exit235

if.end.i231:                                      ; preds = %_ZN2v814PersistentBaseINS_8FunctionEE5ResetEv.exit247
  store ptr %this1.i228, ptr %this.addr.i3.i225, align 8
  %this1.i4.i232 = load ptr, ptr %this.addr.i3.i225, align 8
  %100 = load ptr, ptr %this1.i4.i232, align 8
  call void @_ZN2v812api_internal13DisposeGlobalEPm(ptr noundef %100) #3
  store ptr %this1.i228, ptr %this.addr.i5.i224, align 8
  %this1.i6.i233 = load ptr, ptr %this.addr.i5.i224, align 8
  store ptr null, ptr %this1.i6.i233, align 8
  br label %_ZN2v814PersistentBaseINS_8FunctionEE5ResetEv.exit235

_ZN2v814PersistentBaseINS_8FunctionEE5ResetEv.exit235: ; preds = %if.end.i231, %if.then.i234
  %crypto_key_object_private_constructor_ = getelementptr inbounds %"class.node::Realm", ptr %this1, i32 0, i32 17
  store ptr %crypto_key_object_private_constructor_, ptr %this.addr.i91, align 8
  %this1.i92 = load ptr, ptr %this.addr.i91, align 8
  store ptr %this1.i92, ptr %this.addr.i215, align 8
  %this1.i216 = load ptr, ptr %this.addr.i215, align 8
  store ptr %this1.i216, ptr %this.addr.i.i214, align 8
  %this1.i.i217 = load ptr, ptr %this.addr.i.i214, align 8
  %101 = load ptr, ptr %this1.i.i217, align 8
  %cmp.i.i218 = icmp eq ptr %101, null
  br i1 %cmp.i.i218, label %if.then.i222, label %if.end.i219

if.then.i222:                                     ; preds = %_ZN2v814PersistentBaseINS_8FunctionEE5ResetEv.exit235
  br label %_ZN2v814PersistentBaseINS_8FunctionEE5ResetEv.exit223

if.end.i219:                                      ; preds = %_ZN2v814PersistentBaseINS_8FunctionEE5ResetEv.exit235
  store ptr %this1.i216, ptr %this.addr.i3.i213, align 8
  %this1.i4.i220 = load ptr, ptr %this.addr.i3.i213, align 8
  %102 = load ptr, ptr %this1.i4.i220, align 8
  call void @_ZN2v812api_internal13DisposeGlobalEPm(ptr noundef %102) #3
  store ptr %this1.i216, ptr %this.addr.i5.i212, align 8
  %this1.i6.i221 = load ptr, ptr %this.addr.i5.i212, align 8
  store ptr null, ptr %this1.i6.i221, align 8
  br label %_ZN2v814PersistentBaseINS_8FunctionEE5ResetEv.exit223

_ZN2v814PersistentBaseINS_8FunctionEE5ResetEv.exit223: ; preds = %if.end.i219, %if.then.i222
  %crypto_key_object_constructor_ = getelementptr inbounds %"class.node::Realm", ptr %this1, i32 0, i32 16
  store ptr %crypto_key_object_constructor_, ptr %this.addr.i93, align 8
  %this1.i94 = load ptr, ptr %this.addr.i93, align 8
  store ptr %this1.i94, ptr %this.addr.i203, align 8
  %this1.i204 = load ptr, ptr %this.addr.i203, align 8
  store ptr %this1.i204, ptr %this.addr.i.i202, align 8
  %this1.i.i205 = load ptr, ptr %this.addr.i.i202, align 8
  %103 = load ptr, ptr %this1.i.i205, align 8
  %cmp.i.i206 = icmp eq ptr %103, null
  br i1 %cmp.i.i206, label %if.then.i210, label %if.end.i207

if.then.i210:                                     ; preds = %_ZN2v814PersistentBaseINS_8FunctionEE5ResetEv.exit223
  br label %_ZN2v814PersistentBaseINS_8FunctionEE5ResetEv.exit211

if.end.i207:                                      ; preds = %_ZN2v814PersistentBaseINS_8FunctionEE5ResetEv.exit223
  store ptr %this1.i204, ptr %this.addr.i3.i201, align 8
  %this1.i4.i208 = load ptr, ptr %this.addr.i3.i201, align 8
  %104 = load ptr, ptr %this1.i4.i208, align 8
  call void @_ZN2v812api_internal13DisposeGlobalEPm(ptr noundef %104) #3
  store ptr %this1.i204, ptr %this.addr.i5.i200, align 8
  %this1.i6.i209 = load ptr, ptr %this.addr.i5.i200, align 8
  store ptr null, ptr %this1.i6.i209, align 8
  br label %_ZN2v814PersistentBaseINS_8FunctionEE5ResetEv.exit211

_ZN2v814PersistentBaseINS_8FunctionEE5ResetEv.exit211: ; preds = %if.end.i207, %if.then.i210
  %buffer_prototype_object_ = getelementptr inbounds %"class.node::Realm", ptr %this1, i32 0, i32 15
  store ptr %buffer_prototype_object_, ptr %this.addr.i121, align 8
  %this1.i122 = load ptr, ptr %this.addr.i121, align 8
  store ptr %this1.i122, ptr %this.addr.i754, align 8
  %this1.i755 = load ptr, ptr %this.addr.i754, align 8
  store ptr %this1.i755, ptr %this.addr.i.i753, align 8
  %this1.i.i756 = load ptr, ptr %this.addr.i.i753, align 8
  %105 = load ptr, ptr %this1.i.i756, align 8
  %cmp.i.i757 = icmp eq ptr %105, null
  br i1 %cmp.i.i757, label %if.then.i761, label %if.end.i758

if.then.i761:                                     ; preds = %_ZN2v814PersistentBaseINS_8FunctionEE5ResetEv.exit211
  br label %_ZN2v814PersistentBaseINS_6ObjectEE5ResetEv.exit762

if.end.i758:                                      ; preds = %_ZN2v814PersistentBaseINS_8FunctionEE5ResetEv.exit211
  store ptr %this1.i755, ptr %this.addr.i3.i752, align 8
  %this1.i4.i759 = load ptr, ptr %this.addr.i3.i752, align 8
  %106 = load ptr, ptr %this1.i4.i759, align 8
  call void @_ZN2v812api_internal13DisposeGlobalEPm(ptr noundef %106) #3
  store ptr %this1.i755, ptr %this.addr.i5.i751, align 8
  %this1.i6.i760 = load ptr, ptr %this.addr.i5.i751, align 8
  store ptr null, ptr %this1.i6.i760, align 8
  br label %_ZN2v814PersistentBaseINS_6ObjectEE5ResetEv.exit762

_ZN2v814PersistentBaseINS_6ObjectEE5ResetEv.exit762: ; preds = %if.end.i758, %if.then.i761
  %async_hooks_promise_resolve_function_ = getelementptr inbounds %"class.node::Realm", ptr %this1, i32 0, i32 14
  store ptr %async_hooks_promise_resolve_function_, ptr %this.addr.i95, align 8
  %this1.i96 = load ptr, ptr %this.addr.i95, align 8
  store ptr %this1.i96, ptr %this.addr.i191, align 8
  %this1.i192 = load ptr, ptr %this.addr.i191, align 8
  store ptr %this1.i192, ptr %this.addr.i.i190, align 8
  %this1.i.i193 = load ptr, ptr %this.addr.i.i190, align 8
  %107 = load ptr, ptr %this1.i.i193, align 8
  %cmp.i.i194 = icmp eq ptr %107, null
  br i1 %cmp.i.i194, label %if.then.i198, label %if.end.i195

if.then.i198:                                     ; preds = %_ZN2v814PersistentBaseINS_6ObjectEE5ResetEv.exit762
  br label %_ZN2v814PersistentBaseINS_8FunctionEE5ResetEv.exit199

if.end.i195:                                      ; preds = %_ZN2v814PersistentBaseINS_6ObjectEE5ResetEv.exit762
  store ptr %this1.i192, ptr %this.addr.i3.i189, align 8
  %this1.i4.i196 = load ptr, ptr %this.addr.i3.i189, align 8
  %108 = load ptr, ptr %this1.i4.i196, align 8
  call void @_ZN2v812api_internal13DisposeGlobalEPm(ptr noundef %108) #3
  store ptr %this1.i192, ptr %this.addr.i5.i188, align 8
  %this1.i6.i197 = load ptr, ptr %this.addr.i5.i188, align 8
  store ptr null, ptr %this1.i6.i197, align 8
  br label %_ZN2v814PersistentBaseINS_8FunctionEE5ResetEv.exit199

_ZN2v814PersistentBaseINS_8FunctionEE5ResetEv.exit199: ; preds = %if.end.i195, %if.then.i198
  %async_hooks_init_function_ = getelementptr inbounds %"class.node::Realm", ptr %this1, i32 0, i32 13
  store ptr %async_hooks_init_function_, ptr %this.addr.i97, align 8
  %this1.i98 = load ptr, ptr %this.addr.i97, align 8
  store ptr %this1.i98, ptr %this.addr.i179, align 8
  %this1.i180 = load ptr, ptr %this.addr.i179, align 8
  store ptr %this1.i180, ptr %this.addr.i.i178, align 8
  %this1.i.i181 = load ptr, ptr %this.addr.i.i178, align 8
  %109 = load ptr, ptr %this1.i.i181, align 8
  %cmp.i.i182 = icmp eq ptr %109, null
  br i1 %cmp.i.i182, label %if.then.i186, label %if.end.i183

if.then.i186:                                     ; preds = %_ZN2v814PersistentBaseINS_8FunctionEE5ResetEv.exit199
  br label %_ZN2v814PersistentBaseINS_8FunctionEE5ResetEv.exit187

if.end.i183:                                      ; preds = %_ZN2v814PersistentBaseINS_8FunctionEE5ResetEv.exit199
  store ptr %this1.i180, ptr %this.addr.i3.i177, align 8
  %this1.i4.i184 = load ptr, ptr %this.addr.i3.i177, align 8
  %110 = load ptr, ptr %this1.i4.i184, align 8
  call void @_ZN2v812api_internal13DisposeGlobalEPm(ptr noundef %110) #3
  store ptr %this1.i180, ptr %this.addr.i5.i176, align 8
  %this1.i6.i185 = load ptr, ptr %this.addr.i5.i176, align 8
  store ptr null, ptr %this1.i6.i185, align 8
  br label %_ZN2v814PersistentBaseINS_8FunctionEE5ResetEv.exit187

_ZN2v814PersistentBaseINS_8FunctionEE5ResetEv.exit187: ; preds = %if.end.i183, %if.then.i186
  %async_hooks_destroy_function_ = getelementptr inbounds %"class.node::Realm", ptr %this1, i32 0, i32 12
  store ptr %async_hooks_destroy_function_, ptr %this.addr.i99, align 8
  %this1.i100 = load ptr, ptr %this.addr.i99, align 8
  store ptr %this1.i100, ptr %this.addr.i167, align 8
  %this1.i168 = load ptr, ptr %this.addr.i167, align 8
  store ptr %this1.i168, ptr %this.addr.i.i166, align 8
  %this1.i.i169 = load ptr, ptr %this.addr.i.i166, align 8
  %111 = load ptr, ptr %this1.i.i169, align 8
  %cmp.i.i170 = icmp eq ptr %111, null
  br i1 %cmp.i.i170, label %if.then.i174, label %if.end.i171

if.then.i174:                                     ; preds = %_ZN2v814PersistentBaseINS_8FunctionEE5ResetEv.exit187
  br label %_ZN2v814PersistentBaseINS_8FunctionEE5ResetEv.exit175

if.end.i171:                                      ; preds = %_ZN2v814PersistentBaseINS_8FunctionEE5ResetEv.exit187
  store ptr %this1.i168, ptr %this.addr.i3.i165, align 8
  %this1.i4.i172 = load ptr, ptr %this.addr.i3.i165, align 8
  %112 = load ptr, ptr %this1.i4.i172, align 8
  call void @_ZN2v812api_internal13DisposeGlobalEPm(ptr noundef %112) #3
  store ptr %this1.i168, ptr %this.addr.i5.i164, align 8
  %this1.i6.i173 = load ptr, ptr %this.addr.i5.i164, align 8
  store ptr null, ptr %this1.i6.i173, align 8
  br label %_ZN2v814PersistentBaseINS_8FunctionEE5ResetEv.exit175

_ZN2v814PersistentBaseINS_8FunctionEE5ResetEv.exit175: ; preds = %if.end.i171, %if.then.i174
  %async_hooks_binding_ = getelementptr inbounds %"class.node::Realm", ptr %this1, i32 0, i32 11
  store ptr %async_hooks_binding_, ptr %this.addr.i123, align 8
  %this1.i124 = load ptr, ptr %this.addr.i123, align 8
  store ptr %this1.i124, ptr %this.addr.i743, align 8
  %this1.i744 = load ptr, ptr %this.addr.i743, align 8
  store ptr %this1.i744, ptr %this.addr.i.i742, align 8
  %this1.i.i745 = load ptr, ptr %this.addr.i.i742, align 8
  %113 = load ptr, ptr %this1.i.i745, align 8
  %cmp.i.i746 = icmp eq ptr %113, null
  br i1 %cmp.i.i746, label %if.then.i750, label %if.end.i747

if.then.i750:                                     ; preds = %_ZN2v814PersistentBaseINS_8FunctionEE5ResetEv.exit175
  br label %_ZN2v814PersistentBaseINS_6ObjectEE5ResetEv.exit

if.end.i747:                                      ; preds = %_ZN2v814PersistentBaseINS_8FunctionEE5ResetEv.exit175
  store ptr %this1.i744, ptr %this.addr.i3.i741, align 8
  %this1.i4.i748 = load ptr, ptr %this.addr.i3.i741, align 8
  %114 = load ptr, ptr %this1.i4.i748, align 8
  call void @_ZN2v812api_internal13DisposeGlobalEPm(ptr noundef %114) #3
  store ptr %this1.i744, ptr %this.addr.i5.i740, align 8
  %this1.i6.i749 = load ptr, ptr %this.addr.i5.i740, align 8
  store ptr null, ptr %this1.i6.i749, align 8
  br label %_ZN2v814PersistentBaseINS_6ObjectEE5ResetEv.exit

_ZN2v814PersistentBaseINS_6ObjectEE5ResetEv.exit: ; preds = %if.end.i747, %if.then.i750
  %async_hooks_callback_trampoline_ = getelementptr inbounds %"class.node::Realm", ptr %this1, i32 0, i32 10
  store ptr %async_hooks_callback_trampoline_, ptr %this.addr.i101, align 8
  %this1.i102 = load ptr, ptr %this.addr.i101, align 8
  store ptr %this1.i102, ptr %this.addr.i155, align 8
  %this1.i156 = load ptr, ptr %this.addr.i155, align 8
  store ptr %this1.i156, ptr %this.addr.i.i154, align 8
  %this1.i.i157 = load ptr, ptr %this.addr.i.i154, align 8
  %115 = load ptr, ptr %this1.i.i157, align 8
  %cmp.i.i158 = icmp eq ptr %115, null
  br i1 %cmp.i.i158, label %if.then.i162, label %if.end.i159

if.then.i162:                                     ; preds = %_ZN2v814PersistentBaseINS_6ObjectEE5ResetEv.exit
  br label %_ZN2v814PersistentBaseINS_8FunctionEE5ResetEv.exit163

if.end.i159:                                      ; preds = %_ZN2v814PersistentBaseINS_6ObjectEE5ResetEv.exit
  store ptr %this1.i156, ptr %this.addr.i3.i153, align 8
  %this1.i4.i160 = load ptr, ptr %this.addr.i3.i153, align 8
  %116 = load ptr, ptr %this1.i4.i160, align 8
  call void @_ZN2v812api_internal13DisposeGlobalEPm(ptr noundef %116) #3
  store ptr %this1.i156, ptr %this.addr.i5.i152, align 8
  %this1.i6.i161 = load ptr, ptr %this.addr.i5.i152, align 8
  store ptr null, ptr %this1.i6.i161, align 8
  br label %_ZN2v814PersistentBaseINS_8FunctionEE5ResetEv.exit163

_ZN2v814PersistentBaseINS_8FunctionEE5ResetEv.exit163: ; preds = %if.end.i159, %if.then.i162
  %async_hooks_before_function_ = getelementptr inbounds %"class.node::Realm", ptr %this1, i32 0, i32 9
  store ptr %async_hooks_before_function_, ptr %this.addr.i103, align 8
  %this1.i104 = load ptr, ptr %this.addr.i103, align 8
  store ptr %this1.i104, ptr %this.addr.i143, align 8
  %this1.i144 = load ptr, ptr %this.addr.i143, align 8
  store ptr %this1.i144, ptr %this.addr.i.i142, align 8
  %this1.i.i145 = load ptr, ptr %this.addr.i.i142, align 8
  %117 = load ptr, ptr %this1.i.i145, align 8
  %cmp.i.i146 = icmp eq ptr %117, null
  br i1 %cmp.i.i146, label %if.then.i150, label %if.end.i147

if.then.i150:                                     ; preds = %_ZN2v814PersistentBaseINS_8FunctionEE5ResetEv.exit163
  br label %_ZN2v814PersistentBaseINS_8FunctionEE5ResetEv.exit151

if.end.i147:                                      ; preds = %_ZN2v814PersistentBaseINS_8FunctionEE5ResetEv.exit163
  store ptr %this1.i144, ptr %this.addr.i3.i141, align 8
  %this1.i4.i148 = load ptr, ptr %this.addr.i3.i141, align 8
  %118 = load ptr, ptr %this1.i4.i148, align 8
  call void @_ZN2v812api_internal13DisposeGlobalEPm(ptr noundef %118) #3
  store ptr %this1.i144, ptr %this.addr.i5.i140, align 8
  %this1.i6.i149 = load ptr, ptr %this.addr.i5.i140, align 8
  store ptr null, ptr %this1.i6.i149, align 8
  br label %_ZN2v814PersistentBaseINS_8FunctionEE5ResetEv.exit151

_ZN2v814PersistentBaseINS_8FunctionEE5ResetEv.exit151: ; preds = %if.end.i147, %if.then.i150
  %async_hooks_after_function_ = getelementptr inbounds %"class.node::Realm", ptr %this1, i32 0, i32 8
  store ptr %async_hooks_after_function_, ptr %this.addr.i105, align 8
  %this1.i106 = load ptr, ptr %this.addr.i105, align 8
  store ptr %this1.i106, ptr %this.addr.i134, align 8
  %this1.i135 = load ptr, ptr %this.addr.i134, align 8
  store ptr %this1.i135, ptr %this.addr.i.i133, align 8
  %this1.i.i136 = load ptr, ptr %this.addr.i.i133, align 8
  %119 = load ptr, ptr %this1.i.i136, align 8
  %cmp.i.i137 = icmp eq ptr %119, null
  br i1 %cmp.i.i137, label %if.then.i139, label %if.end.i138

if.then.i139:                                     ; preds = %_ZN2v814PersistentBaseINS_8FunctionEE5ResetEv.exit151
  br label %_ZN2v814PersistentBaseINS_8FunctionEE5ResetEv.exit

if.end.i138:                                      ; preds = %_ZN2v814PersistentBaseINS_8FunctionEE5ResetEv.exit151
  store ptr %this1.i135, ptr %this.addr.i3.i, align 8
  %this1.i4.i = load ptr, ptr %this.addr.i3.i, align 8
  %120 = load ptr, ptr %this1.i4.i, align 8
  call void @_ZN2v812api_internal13DisposeGlobalEPm(ptr noundef %120) #3
  store ptr %this1.i135, ptr %this.addr.i5.i, align 8
  %this1.i6.i = load ptr, ptr %this.addr.i5.i, align 8
  store ptr null, ptr %this1.i6.i, align 8
  br label %_ZN2v814PersistentBaseINS_8FunctionEE5ResetEv.exit

_ZN2v814PersistentBaseINS_8FunctionEE5ResetEv.exit: ; preds = %if.end.i138, %if.then.i139
  %context_ = getelementptr inbounds %"class.node::Realm", ptr %this1, i32 0, i32 7
  store ptr %context_, ptr %this.addr.i125, align 8
  %this1.i126 = load ptr, ptr %this.addr.i125, align 8
  store ptr %this1.i126, ptr %this.addr.i127, align 8
  %this1.i128 = load ptr, ptr %this.addr.i127, align 8
  store ptr %this1.i128, ptr %this.addr.i.i, align 8
  %this1.i.i = load ptr, ptr %this.addr.i.i, align 8
  %121 = load ptr, ptr %this1.i.i, align 8
  %cmp.i.i = icmp eq ptr %121, null
  br i1 %cmp.i.i, label %if.then.i, label %if.end.i

if.then.i:                                        ; preds = %_ZN2v814PersistentBaseINS_8FunctionEE5ResetEv.exit
  br label %_ZN2v814PersistentBaseINS_7ContextEE5ResetEv.exit

if.end.i:                                         ; preds = %_ZN2v814PersistentBaseINS_8FunctionEE5ResetEv.exit
  store ptr %this1.i128, ptr %this.addr.i129, align 8
  %this1.i130 = load ptr, ptr %this.addr.i129, align 8
  %122 = load ptr, ptr %this1.i130, align 8
  call void @_ZN2v812api_internal13DisposeGlobalEPm(ptr noundef %122) #3
  store ptr %this1.i128, ptr %this.addr.i131, align 8
  %this1.i132 = load ptr, ptr %this.addr.i131, align 8
  store ptr null, ptr %this1.i132, align 8
  br label %_ZN2v814PersistentBaseINS_7ContextEE5ResetEv.exit

_ZN2v814PersistentBaseINS_7ContextEE5ResetEv.exit: ; preds = %if.end.i, %if.then.i
  %builtins_in_snapshot = getelementptr inbounds %"class.node::Realm", ptr %this1, i32 0, i32 4
  call void @_ZNSt6vectorINSt7__cxx1112basic_stringIcSt11char_traitsIcESaIcEEESaIS5_EED2Ev(ptr noundef nonnull align 8 dereferenceable(24) %builtins_in_snapshot) #3
  %builtins_without_cache = getelementptr inbounds %"class.node::Realm", ptr %this1, i32 0, i32 3
  call void @_ZNSt3setINSt7__cxx1112basic_stringIcSt11char_traitsIcESaIcEEESt4lessIS5_ESaIS5_EED2Ev(ptr noundef nonnull align 8 dereferenceable(48) %builtins_without_cache) #3
  %builtins_with_cache = getelementptr inbounds %"class.node::Realm", ptr %this1, i32 0, i32 2
  call void @_ZNSt3setINSt7__cxx1112basic_stringIcSt11char_traitsIcESaIcEEESt4lessIS5_ESaIS5_EED2Ev(ptr noundef nonnull align 8 dereferenceable(48) %builtins_with_cache) #3
  %internal_bindings = getelementptr inbounds %"class.node::Realm", ptr %this1, i32 0, i32 1
  call void @_ZNSt3setIPN4node11node_moduleESt4lessIS2_ESaIS2_EED2Ev(ptr noundef nonnull align 8 dereferenceable(48) %internal_bindings) #3
  call void @_ZN4node14MemoryRetainerD2Ev(ptr noundef nonnull align 8 dereferenceable(8) %this1) #3
  ret void
}

declare void @_ZN4node6AssertERKNS_13AssertionInfoE(ptr noundef nonnull align 8 dereferenceable(24)) #1

; Function Attrs: noreturn nounwind
declare void @abort() #6

; Function Attrs: mustprogress nounwind uwtable
define linkonce_odr dso_local void @_ZN4node12CleanupQueueD2Ev(ptr noundef nonnull align 8 dereferenceable(72) %this) unnamed_addr #4 comdat align 2 {
entry:
  %this.addr = alloca ptr, align 8
  store ptr %this, ptr %this.addr, align 8
  %this1 = load ptr, ptr %this.addr, align 8
  store ptr getelementptr inbounds ({ [10 x ptr] }, ptr @_ZTVN4node12CleanupQueueE, i32 0, inrange i32 0, i32 2), ptr %this1, align 8
  %cleanup_hooks_ = getelementptr inbounds %"class.node::CleanupQueue", ptr %this1, i32 0, i32 1
  call void @_ZNSt13unordered_setIN4node12CleanupQueue19CleanupHookCallbackENS2_4HashENS2_5EqualESaIS2_EED2Ev(ptr noundef nonnull align 8 dereferenceable(56) %cleanup_hooks_) #3
  call void @_ZN4node14MemoryRetainerD2Ev(ptr noundef nonnull align 8 dereferenceable(8) %this1) #3
  ret void
}

; Function Attrs: mustprogress nounwind uwtable
define linkonce_odr dso_local void @_ZNSt5arrayIN4node17BaseObjectPtrImplINS0_10BaseObjectELb1EEELm12EED2Ev(ptr noundef nonnull align 8 dereferenceable(96) %this) unnamed_addr #4 comdat align 2 {
entry:
  %this.addr = alloca ptr, align 8
  store ptr %this, ptr %this.addr, align 8
  %this1 = load ptr, ptr %this.addr, align 8
  %_M_elems = getelementptr inbounds %"struct.std::array", ptr %this1, i32 0, i32 0
  %array.begin = getelementptr inbounds [12 x %"class.node::BaseObjectPtrImpl"], ptr %_M_elems, i32 0, i32 0
  %0 = getelementptr inbounds %"class.node::BaseObjectPtrImpl", ptr %array.begin, i64 12
  br label %arraydestroy.body

arraydestroy.body:                                ; preds = %arraydestroy.body, %entry
  %arraydestroy.elementPast = phi ptr [ %0, %entry ], [ %arraydestroy.element, %arraydestroy.body ]
  %arraydestroy.element = getelementptr inbounds %"class.node::BaseObjectPtrImpl", ptr %arraydestroy.elementPast, i64 -1
  call void @_ZN4node17BaseObjectPtrImplINS_10BaseObjectELb1EED2Ev(ptr noundef nonnull align 8 dereferenceable(8) %arraydestroy.element) #3
  %arraydestroy.done = icmp eq ptr %arraydestroy.element, %array.begin
  br i1 %arraydestroy.done, label %arraydestroy.done2, label %arraydestroy.body

arraydestroy.done2:                               ; preds = %arraydestroy.body
  ret void
}

; Function Attrs: mustprogress nounwind uwtable
define linkonce_odr dso_local void @_ZNSt6vectorINSt7__cxx1112basic_stringIcSt11char_traitsIcESaIcEEESaIS5_EED2Ev(ptr noundef nonnull align 8 dereferenceable(24) %this) unnamed_addr #4 comdat align 2 {
entry:
  %this.addr = alloca ptr, align 8
  store ptr %this, ptr %this.addr, align 8
  %this1 = load ptr, ptr %this.addr, align 8
  %_M_impl = getelementptr inbounds %"struct.std::_Vector_base", ptr %this1, i32 0, i32 0
  %_M_start = getelementptr inbounds %"struct.std::_Vector_base<std::__cxx11::basic_string<char>, std::allocator<std::__cxx11::basic_string<char>>>::_Vector_impl_data", ptr %_M_impl, i32 0, i32 0
  %0 = load ptr, ptr %_M_start, align 8
  %_M_impl2 = getelementptr inbounds %"struct.std::_Vector_base", ptr %this1, i32 0, i32 0
  %_M_finish = getelementptr inbounds %"struct.std::_Vector_base<std::__cxx11::basic_string<char>, std::allocator<std::__cxx11::basic_string<char>>>::_Vector_impl_data", ptr %_M_impl2, i32 0, i32 1
  %1 = load ptr, ptr %_M_finish, align 8
  %call = call noundef nonnull align 1 dereferenceable(1) ptr @_ZNSt12_Vector_baseINSt7__cxx1112basic_stringIcSt11char_traitsIcESaIcEEESaIS5_EE19_M_get_Tp_allocatorEv(ptr noundef nonnull align 8 dereferenceable(24) %this1) #3
  call void @_ZSt8_DestroyIPNSt7__cxx1112basic_stringIcSt11char_traitsIcESaIcEEES5_EvT_S7_RSaIT0_E(ptr noundef %0, ptr noundef %1, ptr noundef nonnull align 1 dereferenceable(1) %call)
  call void @_ZNSt12_Vector_baseINSt7__cxx1112basic_stringIcSt11char_traitsIcESaIcEEESaIS5_EED2Ev(ptr noundef nonnull align 8 dereferenceable(24) %this1) #3
  ret void
}

; Function Attrs: mustprogress nounwind uwtable
define linkonce_odr dso_local void @_ZNSt3setINSt7__cxx1112basic_stringIcSt11char_traitsIcESaIcEEESt4lessIS5_ESaIS5_EED2Ev(ptr noundef nonnull align 8 dereferenceable(48) %this) unnamed_addr #4 comdat align 2 {
entry:
  %this.addr = alloca ptr, align 8
  store ptr %this, ptr %this.addr, align 8
  %this1 = load ptr, ptr %this.addr, align 8
  %_M_t = getelementptr inbounds %"class.std::set.0", ptr %this1, i32 0, i32 0
  call void @_ZNSt8_Rb_treeINSt7__cxx1112basic_stringIcSt11char_traitsIcESaIcEEES5_St9_IdentityIS5_ESt4lessIS5_ESaIS5_EED2Ev(ptr noundef nonnull align 8 dereferenceable(48) %_M_t) #3
  ret void
}

; Function Attrs: mustprogress nounwind uwtable
define linkonce_odr dso_local void @_ZNSt3setIPN4node11node_moduleESt4lessIS2_ESaIS2_EED2Ev(ptr noundef nonnull align 8 dereferenceable(48) %this) unnamed_addr #4 comdat align 2 {
entry:
  %this.addr = alloca ptr, align 8
  store ptr %this, ptr %this.addr, align 8
  %this1 = load ptr, ptr %this.addr, align 8
  %_M_t = getelementptr inbounds %"class.std::set", ptr %this1, i32 0, i32 0
  call void @_ZNSt8_Rb_treeIPN4node11node_moduleES2_St9_IdentityIS2_ESt4lessIS2_ESaIS2_EED2Ev(ptr noundef nonnull align 8 dereferenceable(48) %_M_t) #3
  ret void
}

; Function Attrs: mustprogress nounwind uwtable
define dso_local void @_ZN4node5RealmD0Ev(ptr noundef nonnull align 8 dereferenceable(872) %this) unnamed_addr #4 align 2 {
entry:
  %this.addr = alloca ptr, align 8
  store ptr %this, ptr %this.addr, align 8
  call void @llvm.trap() #15
  unreachable
}

; Function Attrs: cold noreturn nounwind memory(inaccessiblemem: write)
declare void @llvm.trap() #7

; Function Attrs: mustprogress nounwind uwtable
define dso_local void @_ZNK4node5Realm10MemoryInfoEPNS_13MemoryTrackerE(ptr noundef nonnull align 8 dereferenceable(872) %this, ptr noundef %tracker) unnamed_addr #4 align 2 {
entry:
  %this.addr = alloca ptr, align 8
  %tracker.addr = alloca ptr, align 8
  %ref.tmp = alloca %"class.v8::Local.292", align 8
  %ref.tmp4 = alloca %"class.v8::Local.292", align 8
  %ref.tmp11 = alloca %"class.v8::Local.292", align 8
  %ref.tmp18 = alloca %"class.v8::Local.294", align 8
  %ref.tmp25 = alloca %"class.v8::Local.292", align 8
  %ref.tmp32 = alloca %"class.v8::Local.292", align 8
  %ref.tmp39 = alloca %"class.v8::Local.292", align 8
  %ref.tmp46 = alloca %"class.v8::Local.294", align 8
  %ref.tmp53 = alloca %"class.v8::Local.292", align 8
  %ref.tmp60 = alloca %"class.v8::Local.292", align 8
  %ref.tmp67 = alloca %"class.v8::Local.292", align 8
  %ref.tmp74 = alloca %"class.v8::Local.292", align 8
  %ref.tmp81 = alloca %"class.v8::Local.292", align 8
  %ref.tmp88 = alloca %"class.v8::Local.292", align 8
  %ref.tmp95 = alloca %"class.v8::Local.292", align 8
  %ref.tmp102 = alloca %"class.v8::Local.292", align 8
  %ref.tmp109 = alloca %"class.v8::Local.292", align 8
  %ref.tmp116 = alloca %"class.v8::Local.292", align 8
  %ref.tmp123 = alloca %"class.v8::Local.292", align 8
  %ref.tmp130 = alloca %"class.v8::Local.292", align 8
  %ref.tmp137 = alloca %"class.v8::Local.292", align 8
  %ref.tmp144 = alloca %"class.v8::Local.292", align 8
  %ref.tmp151 = alloca %"class.v8::Local.292", align 8
  %ref.tmp158 = alloca %"class.v8::Local.292", align 8
  %ref.tmp165 = alloca %"class.v8::Local.292", align 8
  %ref.tmp172 = alloca %"class.v8::Local.292", align 8
  %ref.tmp179 = alloca %"class.v8::Local.292", align 8
  %ref.tmp186 = alloca %"class.v8::Local.292", align 8
  %ref.tmp193 = alloca %"class.v8::Local.292", align 8
  %ref.tmp200 = alloca %"class.v8::Local.292", align 8
  %ref.tmp207 = alloca %"class.v8::Local.292", align 8
  %ref.tmp214 = alloca %"class.v8::Local.292", align 8
  %ref.tmp221 = alloca %"class.v8::Local.292", align 8
  %ref.tmp228 = alloca %"class.v8::Local.292", align 8
  %ref.tmp235 = alloca %"class.v8::Local.292", align 8
  %ref.tmp242 = alloca %"class.v8::Local.292", align 8
  %ref.tmp249 = alloca %"class.v8::Local.294", align 8
  %ref.tmp256 = alloca %"class.v8::Local.292", align 8
  %ref.tmp263 = alloca %"class.v8::Local.292", align 8
  %ref.tmp270 = alloca %"class.v8::Local.292", align 8
  %ref.tmp277 = alloca %"class.v8::Local.294", align 8
  %ref.tmp284 = alloca %"class.v8::Local.294", align 8
  %ref.tmp291 = alloca %"class.v8::Local.294", align 8
  %ref.tmp298 = alloca %"class.v8::Local.294", align 8
  %ref.tmp305 = alloca %"class.v8::Local.294", align 8
  %ref.tmp312 = alloca %"class.v8::Local.294", align 8
  %ref.tmp319 = alloca %"class.v8::Local.292", align 8
  %ref.tmp326 = alloca %"class.v8::Local.292", align 8
  %ref.tmp333 = alloca %"class.v8::Local.292", align 8
  %ref.tmp340 = alloca %"class.v8::Local.292", align 8
  %ref.tmp347 = alloca %"class.v8::Local.292", align 8
  %ref.tmp354 = alloca %"class.v8::Local.292", align 8
  %ref.tmp361 = alloca %"class.v8::Local.292", align 8
  %ref.tmp368 = alloca %"class.v8::Local.292", align 8
  %ref.tmp375 = alloca %"class.v8::Local.292", align 8
  %ref.tmp382 = alloca %"class.v8::Local.292", align 8
  %ref.tmp389 = alloca %"class.v8::Local.292", align 8
  %ref.tmp396 = alloca %"class.v8::Local.292", align 8
  %ref.tmp403 = alloca %"class.v8::Local.292", align 8
  %ref.tmp410 = alloca %"class.v8::Local.292", align 8
  store ptr %this, ptr %this.addr, align 8
  store ptr %tracker, ptr %tracker.addr, align 8
  %this1 = load ptr, ptr %this.addr, align 8
  %0 = load ptr, ptr %tracker.addr, align 8
  %vtable = load ptr, ptr %this1, align 8
  %vfn = getelementptr inbounds ptr, ptr %vtable, i64 9
  %1 = load ptr, ptr %vfn, align 8
  %call = call ptr %1(ptr noundef nonnull align 8 dereferenceable(872) %this1)
  %coerce.dive = getelementptr inbounds %"class.v8::Local.292", ptr %ref.tmp, i32 0, i32 0
  %coerce.dive2 = getelementptr inbounds %"class.v8::LocalBase.293", ptr %coerce.dive, i32 0, i32 0
  %coerce.dive3 = getelementptr inbounds %"class.v8::IndirectHandleBase", ptr %coerce.dive2, i32 0, i32 0
  store ptr %call, ptr %coerce.dive3, align 8
  call void @_ZN4node13MemoryTracker10TrackFieldIN2v88FunctionEEEvPKcRKNS2_5LocalIT_EES5_(ptr noundef nonnull align 8 dereferenceable(152) %0, ptr noundef @.str.4, ptr noundef nonnull align 8 dereferenceable(8) %ref.tmp, ptr noundef null)
  %2 = load ptr, ptr %tracker.addr, align 8
  %vtable5 = load ptr, ptr %this1, align 8
  %vfn6 = getelementptr inbounds ptr, ptr %vtable5, i64 11
  %3 = load ptr, ptr %vfn6, align 8
  %call7 = call ptr %3(ptr noundef nonnull align 8 dereferenceable(872) %this1)
  %coerce.dive8 = getelementptr inbounds %"class.v8::Local.292", ptr %ref.tmp4, i32 0, i32 0
  %coerce.dive9 = getelementptr inbounds %"class.v8::LocalBase.293", ptr %coerce.dive8, i32 0, i32 0
  %coerce.dive10 = getelementptr inbounds %"class.v8::IndirectHandleBase", ptr %coerce.dive9, i32 0, i32 0
  store ptr %call7, ptr %coerce.dive10, align 8
  call void @_ZN4node13MemoryTracker10TrackFieldIN2v88FunctionEEEvPKcRKNS2_5LocalIT_EES5_(ptr noundef nonnull align 8 dereferenceable(152) %2, ptr noundef @.str.5, ptr noundef nonnull align 8 dereferenceable(8) %ref.tmp4, ptr noundef null)
  %4 = load ptr, ptr %tracker.addr, align 8
  %vtable12 = load ptr, ptr %this1, align 8
  %vfn13 = getelementptr inbounds ptr, ptr %vtable12, i64 13
  %5 = load ptr, ptr %vfn13, align 8
  %call14 = call ptr %5(ptr noundef nonnull align 8 dereferenceable(872) %this1)
  %coerce.dive15 = getelementptr inbounds %"class.v8::Local.292", ptr %ref.tmp11, i32 0, i32 0
  %coerce.dive16 = getelementptr inbounds %"class.v8::LocalBase.293", ptr %coerce.dive15, i32 0, i32 0
  %coerce.dive17 = getelementptr inbounds %"class.v8::IndirectHandleBase", ptr %coerce.dive16, i32 0, i32 0
  store ptr %call14, ptr %coerce.dive17, align 8
  call void @_ZN4node13MemoryTracker10TrackFieldIN2v88FunctionEEEvPKcRKNS2_5LocalIT_EES5_(ptr noundef nonnull align 8 dereferenceable(152) %4, ptr noundef @.str.6, ptr noundef nonnull align 8 dereferenceable(8) %ref.tmp11, ptr noundef null)
  %6 = load ptr, ptr %tracker.addr, align 8
  %vtable19 = load ptr, ptr %this1, align 8
  %vfn20 = getelementptr inbounds ptr, ptr %vtable19, i64 15
  %7 = load ptr, ptr %vfn20, align 8
  %call21 = call ptr %7(ptr noundef nonnull align 8 dereferenceable(872) %this1)
  %coerce.dive22 = getelementptr inbounds %"class.v8::Local.294", ptr %ref.tmp18, i32 0, i32 0
  %coerce.dive23 = getelementptr inbounds %"class.v8::LocalBase.295", ptr %coerce.dive22, i32 0, i32 0
  %coerce.dive24 = getelementptr inbounds %"class.v8::IndirectHandleBase", ptr %coerce.dive23, i32 0, i32 0
  store ptr %call21, ptr %coerce.dive24, align 8
  call void @_ZN4node13MemoryTracker10TrackFieldIN2v86ObjectEEEvPKcRKNS2_5LocalIT_EES5_(ptr noundef nonnull align 8 dereferenceable(152) %6, ptr noundef @.str.7, ptr noundef nonnull align 8 dereferenceable(8) %ref.tmp18, ptr noundef null)
  %8 = load ptr, ptr %tracker.addr, align 8
  %vtable26 = load ptr, ptr %this1, align 8
  %vfn27 = getelementptr inbounds ptr, ptr %vtable26, i64 17
  %9 = load ptr, ptr %vfn27, align 8
  %call28 = call ptr %9(ptr noundef nonnull align 8 dereferenceable(872) %this1)
  %coerce.dive29 = getelementptr inbounds %"class.v8::Local.292", ptr %ref.tmp25, i32 0, i32 0
  %coerce.dive30 = getelementptr inbounds %"class.v8::LocalBase.293", ptr %coerce.dive29, i32 0, i32 0
  %coerce.dive31 = getelementptr inbounds %"class.v8::IndirectHandleBase", ptr %coerce.dive30, i32 0, i32 0
  store ptr %call28, ptr %coerce.dive31, align 8
  call void @_ZN4node13MemoryTracker10TrackFieldIN2v88FunctionEEEvPKcRKNS2_5LocalIT_EES5_(ptr noundef nonnull align 8 dereferenceable(152) %8, ptr noundef @.str.8, ptr noundef nonnull align 8 dereferenceable(8) %ref.tmp25, ptr noundef null)
  %10 = load ptr, ptr %tracker.addr, align 8
  %vtable33 = load ptr, ptr %this1, align 8
  %vfn34 = getelementptr inbounds ptr, ptr %vtable33, i64 19
  %11 = load ptr, ptr %vfn34, align 8
  %call35 = call ptr %11(ptr noundef nonnull align 8 dereferenceable(872) %this1)
  %coerce.dive36 = getelementptr inbounds %"class.v8::Local.292", ptr %ref.tmp32, i32 0, i32 0
  %coerce.dive37 = getelementptr inbounds %"class.v8::LocalBase.293", ptr %coerce.dive36, i32 0, i32 0
  %coerce.dive38 = getelementptr inbounds %"class.v8::IndirectHandleBase", ptr %coerce.dive37, i32 0, i32 0
  store ptr %call35, ptr %coerce.dive38, align 8
  call void @_ZN4node13MemoryTracker10TrackFieldIN2v88FunctionEEEvPKcRKNS2_5LocalIT_EES5_(ptr noundef nonnull align 8 dereferenceable(152) %10, ptr noundef @.str.9, ptr noundef nonnull align 8 dereferenceable(8) %ref.tmp32, ptr noundef null)
  %12 = load ptr, ptr %tracker.addr, align 8
  %vtable40 = load ptr, ptr %this1, align 8
  %vfn41 = getelementptr inbounds ptr, ptr %vtable40, i64 21
  %13 = load ptr, ptr %vfn41, align 8
  %call42 = call ptr %13(ptr noundef nonnull align 8 dereferenceable(872) %this1)
  %coerce.dive43 = getelementptr inbounds %"class.v8::Local.292", ptr %ref.tmp39, i32 0, i32 0
  %coerce.dive44 = getelementptr inbounds %"class.v8::LocalBase.293", ptr %coerce.dive43, i32 0, i32 0
  %coerce.dive45 = getelementptr inbounds %"class.v8::IndirectHandleBase", ptr %coerce.dive44, i32 0, i32 0
  store ptr %call42, ptr %coerce.dive45, align 8
  call void @_ZN4node13MemoryTracker10TrackFieldIN2v88FunctionEEEvPKcRKNS2_5LocalIT_EES5_(ptr noundef nonnull align 8 dereferenceable(152) %12, ptr noundef @.str.10, ptr noundef nonnull align 8 dereferenceable(8) %ref.tmp39, ptr noundef null)
  %14 = load ptr, ptr %tracker.addr, align 8
  %vtable47 = load ptr, ptr %this1, align 8
  %vfn48 = getelementptr inbounds ptr, ptr %vtable47, i64 23
  %15 = load ptr, ptr %vfn48, align 8
  %call49 = call ptr %15(ptr noundef nonnull align 8 dereferenceable(872) %this1)
  %coerce.dive50 = getelementptr inbounds %"class.v8::Local.294", ptr %ref.tmp46, i32 0, i32 0
  %coerce.dive51 = getelementptr inbounds %"class.v8::LocalBase.295", ptr %coerce.dive50, i32 0, i32 0
  %coerce.dive52 = getelementptr inbounds %"class.v8::IndirectHandleBase", ptr %coerce.dive51, i32 0, i32 0
  store ptr %call49, ptr %coerce.dive52, align 8
  call void @_ZN4node13MemoryTracker10TrackFieldIN2v86ObjectEEEvPKcRKNS2_5LocalIT_EES5_(ptr noundef nonnull align 8 dereferenceable(152) %14, ptr noundef @.str.11, ptr noundef nonnull align 8 dereferenceable(8) %ref.tmp46, ptr noundef null)
  %16 = load ptr, ptr %tracker.addr, align 8
  %vtable54 = load ptr, ptr %this1, align 8
  %vfn55 = getelementptr inbounds ptr, ptr %vtable54, i64 25
  %17 = load ptr, ptr %vfn55, align 8
  %call56 = call ptr %17(ptr noundef nonnull align 8 dereferenceable(872) %this1)
  %coerce.dive57 = getelementptr inbounds %"class.v8::Local.292", ptr %ref.tmp53, i32 0, i32 0
  %coerce.dive58 = getelementptr inbounds %"class.v8::LocalBase.293", ptr %coerce.dive57, i32 0, i32 0
  %coerce.dive59 = getelementptr inbounds %"class.v8::IndirectHandleBase", ptr %coerce.dive58, i32 0, i32 0
  store ptr %call56, ptr %coerce.dive59, align 8
  call void @_ZN4node13MemoryTracker10TrackFieldIN2v88FunctionEEEvPKcRKNS2_5LocalIT_EES5_(ptr noundef nonnull align 8 dereferenceable(152) %16, ptr noundef @.str.12, ptr noundef nonnull align 8 dereferenceable(8) %ref.tmp53, ptr noundef null)
  %18 = load ptr, ptr %tracker.addr, align 8
  %vtable61 = load ptr, ptr %this1, align 8
  %vfn62 = getelementptr inbounds ptr, ptr %vtable61, i64 27
  %19 = load ptr, ptr %vfn62, align 8
  %call63 = call ptr %19(ptr noundef nonnull align 8 dereferenceable(872) %this1)
  %coerce.dive64 = getelementptr inbounds %"class.v8::Local.292", ptr %ref.tmp60, i32 0, i32 0
  %coerce.dive65 = getelementptr inbounds %"class.v8::LocalBase.293", ptr %coerce.dive64, i32 0, i32 0
  %coerce.dive66 = getelementptr inbounds %"class.v8::IndirectHandleBase", ptr %coerce.dive65, i32 0, i32 0
  store ptr %call63, ptr %coerce.dive66, align 8
  call void @_ZN4node13MemoryTracker10TrackFieldIN2v88FunctionEEEvPKcRKNS2_5LocalIT_EES5_(ptr noundef nonnull align 8 dereferenceable(152) %18, ptr noundef @.str.13, ptr noundef nonnull align 8 dereferenceable(8) %ref.tmp60, ptr noundef null)
  %20 = load ptr, ptr %tracker.addr, align 8
  %vtable68 = load ptr, ptr %this1, align 8
  %vfn69 = getelementptr inbounds ptr, ptr %vtable68, i64 29
  %21 = load ptr, ptr %vfn69, align 8
  %call70 = call ptr %21(ptr noundef nonnull align 8 dereferenceable(872) %this1)
  %coerce.dive71 = getelementptr inbounds %"class.v8::Local.292", ptr %ref.tmp67, i32 0, i32 0
  %coerce.dive72 = getelementptr inbounds %"class.v8::LocalBase.293", ptr %coerce.dive71, i32 0, i32 0
  %coerce.dive73 = getelementptr inbounds %"class.v8::IndirectHandleBase", ptr %coerce.dive72, i32 0, i32 0
  store ptr %call70, ptr %coerce.dive73, align 8
  call void @_ZN4node13MemoryTracker10TrackFieldIN2v88FunctionEEEvPKcRKNS2_5LocalIT_EES5_(ptr noundef nonnull align 8 dereferenceable(152) %20, ptr noundef @.str.14, ptr noundef nonnull align 8 dereferenceable(8) %ref.tmp67, ptr noundef null)
  %22 = load ptr, ptr %tracker.addr, align 8
  %vtable75 = load ptr, ptr %this1, align 8
  %vfn76 = getelementptr inbounds ptr, ptr %vtable75, i64 31
  %23 = load ptr, ptr %vfn76, align 8
  %call77 = call ptr %23(ptr noundef nonnull align 8 dereferenceable(872) %this1)
  %coerce.dive78 = getelementptr inbounds %"class.v8::Local.292", ptr %ref.tmp74, i32 0, i32 0
  %coerce.dive79 = getelementptr inbounds %"class.v8::LocalBase.293", ptr %coerce.dive78, i32 0, i32 0
  %coerce.dive80 = getelementptr inbounds %"class.v8::IndirectHandleBase", ptr %coerce.dive79, i32 0, i32 0
  store ptr %call77, ptr %coerce.dive80, align 8
  call void @_ZN4node13MemoryTracker10TrackFieldIN2v88FunctionEEEvPKcRKNS2_5LocalIT_EES5_(ptr noundef nonnull align 8 dereferenceable(152) %22, ptr noundef @.str.15, ptr noundef nonnull align 8 dereferenceable(8) %ref.tmp74, ptr noundef null)
  %24 = load ptr, ptr %tracker.addr, align 8
  %vtable82 = load ptr, ptr %this1, align 8
  %vfn83 = getelementptr inbounds ptr, ptr %vtable82, i64 33
  %25 = load ptr, ptr %vfn83, align 8
  %call84 = call ptr %25(ptr noundef nonnull align 8 dereferenceable(872) %this1)
  %coerce.dive85 = getelementptr inbounds %"class.v8::Local.292", ptr %ref.tmp81, i32 0, i32 0
  %coerce.dive86 = getelementptr inbounds %"class.v8::LocalBase.293", ptr %coerce.dive85, i32 0, i32 0
  %coerce.dive87 = getelementptr inbounds %"class.v8::IndirectHandleBase", ptr %coerce.dive86, i32 0, i32 0
  store ptr %call84, ptr %coerce.dive87, align 8
  call void @_ZN4node13MemoryTracker10TrackFieldIN2v88FunctionEEEvPKcRKNS2_5LocalIT_EES5_(ptr noundef nonnull align 8 dereferenceable(152) %24, ptr noundef @.str.16, ptr noundef nonnull align 8 dereferenceable(8) %ref.tmp81, ptr noundef null)
  %26 = load ptr, ptr %tracker.addr, align 8
  %vtable89 = load ptr, ptr %this1, align 8
  %vfn90 = getelementptr inbounds ptr, ptr %vtable89, i64 35
  %27 = load ptr, ptr %vfn90, align 8
  %call91 = call ptr %27(ptr noundef nonnull align 8 dereferenceable(872) %this1)
  %coerce.dive92 = getelementptr inbounds %"class.v8::Local.292", ptr %ref.tmp88, i32 0, i32 0
  %coerce.dive93 = getelementptr inbounds %"class.v8::LocalBase.293", ptr %coerce.dive92, i32 0, i32 0
  %coerce.dive94 = getelementptr inbounds %"class.v8::IndirectHandleBase", ptr %coerce.dive93, i32 0, i32 0
  store ptr %call91, ptr %coerce.dive94, align 8
  call void @_ZN4node13MemoryTracker10TrackFieldIN2v88FunctionEEEvPKcRKNS2_5LocalIT_EES5_(ptr noundef nonnull align 8 dereferenceable(152) %26, ptr noundef @.str.17, ptr noundef nonnull align 8 dereferenceable(8) %ref.tmp88, ptr noundef null)
  %28 = load ptr, ptr %tracker.addr, align 8
  %vtable96 = load ptr, ptr %this1, align 8
  %vfn97 = getelementptr inbounds ptr, ptr %vtable96, i64 37
  %29 = load ptr, ptr %vfn97, align 8
  %call98 = call ptr %29(ptr noundef nonnull align 8 dereferenceable(872) %this1)
  %coerce.dive99 = getelementptr inbounds %"class.v8::Local.292", ptr %ref.tmp95, i32 0, i32 0
  %coerce.dive100 = getelementptr inbounds %"class.v8::LocalBase.293", ptr %coerce.dive99, i32 0, i32 0
  %coerce.dive101 = getelementptr inbounds %"class.v8::IndirectHandleBase", ptr %coerce.dive100, i32 0, i32 0
  store ptr %call98, ptr %coerce.dive101, align 8
  call void @_ZN4node13MemoryTracker10TrackFieldIN2v88FunctionEEEvPKcRKNS2_5LocalIT_EES5_(ptr noundef nonnull align 8 dereferenceable(152) %28, ptr noundef @.str.18, ptr noundef nonnull align 8 dereferenceable(8) %ref.tmp95, ptr noundef null)
  %30 = load ptr, ptr %tracker.addr, align 8
  %vtable103 = load ptr, ptr %this1, align 8
  %vfn104 = getelementptr inbounds ptr, ptr %vtable103, i64 39
  %31 = load ptr, ptr %vfn104, align 8
  %call105 = call ptr %31(ptr noundef nonnull align 8 dereferenceable(872) %this1)
  %coerce.dive106 = getelementptr inbounds %"class.v8::Local.292", ptr %ref.tmp102, i32 0, i32 0
  %coerce.dive107 = getelementptr inbounds %"class.v8::LocalBase.293", ptr %coerce.dive106, i32 0, i32 0
  %coerce.dive108 = getelementptr inbounds %"class.v8::IndirectHandleBase", ptr %coerce.dive107, i32 0, i32 0
  store ptr %call105, ptr %coerce.dive108, align 8
  call void @_ZN4node13MemoryTracker10TrackFieldIN2v88FunctionEEEvPKcRKNS2_5LocalIT_EES5_(ptr noundef nonnull align 8 dereferenceable(152) %30, ptr noundef @.str.19, ptr noundef nonnull align 8 dereferenceable(8) %ref.tmp102, ptr noundef null)
  %32 = load ptr, ptr %tracker.addr, align 8
  %vtable110 = load ptr, ptr %this1, align 8
  %vfn111 = getelementptr inbounds ptr, ptr %vtable110, i64 41
  %33 = load ptr, ptr %vfn111, align 8
  %call112 = call ptr %33(ptr noundef nonnull align 8 dereferenceable(872) %this1)
  %coerce.dive113 = getelementptr inbounds %"class.v8::Local.292", ptr %ref.tmp109, i32 0, i32 0
  %coerce.dive114 = getelementptr inbounds %"class.v8::LocalBase.293", ptr %coerce.dive113, i32 0, i32 0
  %coerce.dive115 = getelementptr inbounds %"class.v8::IndirectHandleBase", ptr %coerce.dive114, i32 0, i32 0
  store ptr %call112, ptr %coerce.dive115, align 8
  call void @_ZN4node13MemoryTracker10TrackFieldIN2v88FunctionEEEvPKcRKNS2_5LocalIT_EES5_(ptr noundef nonnull align 8 dereferenceable(152) %32, ptr noundef @.str.20, ptr noundef nonnull align 8 dereferenceable(8) %ref.tmp109, ptr noundef null)
  %34 = load ptr, ptr %tracker.addr, align 8
  %vtable117 = load ptr, ptr %this1, align 8
  %vfn118 = getelementptr inbounds ptr, ptr %vtable117, i64 43
  %35 = load ptr, ptr %vfn118, align 8
  %call119 = call ptr %35(ptr noundef nonnull align 8 dereferenceable(872) %this1)
  %coerce.dive120 = getelementptr inbounds %"class.v8::Local.292", ptr %ref.tmp116, i32 0, i32 0
  %coerce.dive121 = getelementptr inbounds %"class.v8::LocalBase.293", ptr %coerce.dive120, i32 0, i32 0
  %coerce.dive122 = getelementptr inbounds %"class.v8::IndirectHandleBase", ptr %coerce.dive121, i32 0, i32 0
  store ptr %call119, ptr %coerce.dive122, align 8
  call void @_ZN4node13MemoryTracker10TrackFieldIN2v88FunctionEEEvPKcRKNS2_5LocalIT_EES5_(ptr noundef nonnull align 8 dereferenceable(152) %34, ptr noundef @.str.21, ptr noundef nonnull align 8 dereferenceable(8) %ref.tmp116, ptr noundef null)
  %36 = load ptr, ptr %tracker.addr, align 8
  %vtable124 = load ptr, ptr %this1, align 8
  %vfn125 = getelementptr inbounds ptr, ptr %vtable124, i64 45
  %37 = load ptr, ptr %vfn125, align 8
  %call126 = call ptr %37(ptr noundef nonnull align 8 dereferenceable(872) %this1)
  %coerce.dive127 = getelementptr inbounds %"class.v8::Local.292", ptr %ref.tmp123, i32 0, i32 0
  %coerce.dive128 = getelementptr inbounds %"class.v8::LocalBase.293", ptr %coerce.dive127, i32 0, i32 0
  %coerce.dive129 = getelementptr inbounds %"class.v8::IndirectHandleBase", ptr %coerce.dive128, i32 0, i32 0
  store ptr %call126, ptr %coerce.dive129, align 8
  call void @_ZN4node13MemoryTracker10TrackFieldIN2v88FunctionEEEvPKcRKNS2_5LocalIT_EES5_(ptr noundef nonnull align 8 dereferenceable(152) %36, ptr noundef @.str.22, ptr noundef nonnull align 8 dereferenceable(8) %ref.tmp123, ptr noundef null)
  %38 = load ptr, ptr %tracker.addr, align 8
  %vtable131 = load ptr, ptr %this1, align 8
  %vfn132 = getelementptr inbounds ptr, ptr %vtable131, i64 47
  %39 = load ptr, ptr %vfn132, align 8
  %call133 = call ptr %39(ptr noundef nonnull align 8 dereferenceable(872) %this1)
  %coerce.dive134 = getelementptr inbounds %"class.v8::Local.292", ptr %ref.tmp130, i32 0, i32 0
  %coerce.dive135 = getelementptr inbounds %"class.v8::LocalBase.293", ptr %coerce.dive134, i32 0, i32 0
  %coerce.dive136 = getelementptr inbounds %"class.v8::IndirectHandleBase", ptr %coerce.dive135, i32 0, i32 0
  store ptr %call133, ptr %coerce.dive136, align 8
  call void @_ZN4node13MemoryTracker10TrackFieldIN2v88FunctionEEEvPKcRKNS2_5LocalIT_EES5_(ptr noundef nonnull align 8 dereferenceable(152) %38, ptr noundef @.str.23, ptr noundef nonnull align 8 dereferenceable(8) %ref.tmp130, ptr noundef null)
  %40 = load ptr, ptr %tracker.addr, align 8
  %vtable138 = load ptr, ptr %this1, align 8
  %vfn139 = getelementptr inbounds ptr, ptr %vtable138, i64 49
  %41 = load ptr, ptr %vfn139, align 8
  %call140 = call ptr %41(ptr noundef nonnull align 8 dereferenceable(872) %this1)
  %coerce.dive141 = getelementptr inbounds %"class.v8::Local.292", ptr %ref.tmp137, i32 0, i32 0
  %coerce.dive142 = getelementptr inbounds %"class.v8::LocalBase.293", ptr %coerce.dive141, i32 0, i32 0
  %coerce.dive143 = getelementptr inbounds %"class.v8::IndirectHandleBase", ptr %coerce.dive142, i32 0, i32 0
  store ptr %call140, ptr %coerce.dive143, align 8
  call void @_ZN4node13MemoryTracker10TrackFieldIN2v88FunctionEEEvPKcRKNS2_5LocalIT_EES5_(ptr noundef nonnull align 8 dereferenceable(152) %40, ptr noundef @.str.24, ptr noundef nonnull align 8 dereferenceable(8) %ref.tmp137, ptr noundef null)
  %42 = load ptr, ptr %tracker.addr, align 8
  %vtable145 = load ptr, ptr %this1, align 8
  %vfn146 = getelementptr inbounds ptr, ptr %vtable145, i64 51
  %43 = load ptr, ptr %vfn146, align 8
  %call147 = call ptr %43(ptr noundef nonnull align 8 dereferenceable(872) %this1)
  %coerce.dive148 = getelementptr inbounds %"class.v8::Local.292", ptr %ref.tmp144, i32 0, i32 0
  %coerce.dive149 = getelementptr inbounds %"class.v8::LocalBase.293", ptr %coerce.dive148, i32 0, i32 0
  %coerce.dive150 = getelementptr inbounds %"class.v8::IndirectHandleBase", ptr %coerce.dive149, i32 0, i32 0
  store ptr %call147, ptr %coerce.dive150, align 8
  call void @_ZN4node13MemoryTracker10TrackFieldIN2v88FunctionEEEvPKcRKNS2_5LocalIT_EES5_(ptr noundef nonnull align 8 dereferenceable(152) %42, ptr noundef @.str.25, ptr noundef nonnull align 8 dereferenceable(8) %ref.tmp144, ptr noundef null)
  %44 = load ptr, ptr %tracker.addr, align 8
  %vtable152 = load ptr, ptr %this1, align 8
  %vfn153 = getelementptr inbounds ptr, ptr %vtable152, i64 53
  %45 = load ptr, ptr %vfn153, align 8
  %call154 = call ptr %45(ptr noundef nonnull align 8 dereferenceable(872) %this1)
  %coerce.dive155 = getelementptr inbounds %"class.v8::Local.292", ptr %ref.tmp151, i32 0, i32 0
  %coerce.dive156 = getelementptr inbounds %"class.v8::LocalBase.293", ptr %coerce.dive155, i32 0, i32 0
  %coerce.dive157 = getelementptr inbounds %"class.v8::IndirectHandleBase", ptr %coerce.dive156, i32 0, i32 0
  store ptr %call154, ptr %coerce.dive157, align 8
  call void @_ZN4node13MemoryTracker10TrackFieldIN2v88FunctionEEEvPKcRKNS2_5LocalIT_EES5_(ptr noundef nonnull align 8 dereferenceable(152) %44, ptr noundef @.str.26, ptr noundef nonnull align 8 dereferenceable(8) %ref.tmp151, ptr noundef null)
  %46 = load ptr, ptr %tracker.addr, align 8
  %vtable159 = load ptr, ptr %this1, align 8
  %vfn160 = getelementptr inbounds ptr, ptr %vtable159, i64 55
  %47 = load ptr, ptr %vfn160, align 8
  %call161 = call ptr %47(ptr noundef nonnull align 8 dereferenceable(872) %this1)
  %coerce.dive162 = getelementptr inbounds %"class.v8::Local.292", ptr %ref.tmp158, i32 0, i32 0
  %coerce.dive163 = getelementptr inbounds %"class.v8::LocalBase.293", ptr %coerce.dive162, i32 0, i32 0
  %coerce.dive164 = getelementptr inbounds %"class.v8::IndirectHandleBase", ptr %coerce.dive163, i32 0, i32 0
  store ptr %call161, ptr %coerce.dive164, align 8
  call void @_ZN4node13MemoryTracker10TrackFieldIN2v88FunctionEEEvPKcRKNS2_5LocalIT_EES5_(ptr noundef nonnull align 8 dereferenceable(152) %46, ptr noundef @.str.27, ptr noundef nonnull align 8 dereferenceable(8) %ref.tmp158, ptr noundef null)
  %48 = load ptr, ptr %tracker.addr, align 8
  %vtable166 = load ptr, ptr %this1, align 8
  %vfn167 = getelementptr inbounds ptr, ptr %vtable166, i64 57
  %49 = load ptr, ptr %vfn167, align 8
  %call168 = call ptr %49(ptr noundef nonnull align 8 dereferenceable(872) %this1)
  %coerce.dive169 = getelementptr inbounds %"class.v8::Local.292", ptr %ref.tmp165, i32 0, i32 0
  %coerce.dive170 = getelementptr inbounds %"class.v8::LocalBase.293", ptr %coerce.dive169, i32 0, i32 0
  %coerce.dive171 = getelementptr inbounds %"class.v8::IndirectHandleBase", ptr %coerce.dive170, i32 0, i32 0
  store ptr %call168, ptr %coerce.dive171, align 8
  call void @_ZN4node13MemoryTracker10TrackFieldIN2v88FunctionEEEvPKcRKNS2_5LocalIT_EES5_(ptr noundef nonnull align 8 dereferenceable(152) %48, ptr noundef @.str.28, ptr noundef nonnull align 8 dereferenceable(8) %ref.tmp165, ptr noundef null)
  %50 = load ptr, ptr %tracker.addr, align 8
  %vtable173 = load ptr, ptr %this1, align 8
  %vfn174 = getelementptr inbounds ptr, ptr %vtable173, i64 59
  %51 = load ptr, ptr %vfn174, align 8
  %call175 = call ptr %51(ptr noundef nonnull align 8 dereferenceable(872) %this1)
  %coerce.dive176 = getelementptr inbounds %"class.v8::Local.292", ptr %ref.tmp172, i32 0, i32 0
  %coerce.dive177 = getelementptr inbounds %"class.v8::LocalBase.293", ptr %coerce.dive176, i32 0, i32 0
  %coerce.dive178 = getelementptr inbounds %"class.v8::IndirectHandleBase", ptr %coerce.dive177, i32 0, i32 0
  store ptr %call175, ptr %coerce.dive178, align 8
  call void @_ZN4node13MemoryTracker10TrackFieldIN2v88FunctionEEEvPKcRKNS2_5LocalIT_EES5_(ptr noundef nonnull align 8 dereferenceable(152) %50, ptr noundef @.str.29, ptr noundef nonnull align 8 dereferenceable(8) %ref.tmp172, ptr noundef null)
  %52 = load ptr, ptr %tracker.addr, align 8
  %vtable180 = load ptr, ptr %this1, align 8
  %vfn181 = getelementptr inbounds ptr, ptr %vtable180, i64 61
  %53 = load ptr, ptr %vfn181, align 8
  %call182 = call ptr %53(ptr noundef nonnull align 8 dereferenceable(872) %this1)
  %coerce.dive183 = getelementptr inbounds %"class.v8::Local.292", ptr %ref.tmp179, i32 0, i32 0
  %coerce.dive184 = getelementptr inbounds %"class.v8::LocalBase.293", ptr %coerce.dive183, i32 0, i32 0
  %coerce.dive185 = getelementptr inbounds %"class.v8::IndirectHandleBase", ptr %coerce.dive184, i32 0, i32 0
  store ptr %call182, ptr %coerce.dive185, align 8
  call void @_ZN4node13MemoryTracker10TrackFieldIN2v88FunctionEEEvPKcRKNS2_5LocalIT_EES5_(ptr noundef nonnull align 8 dereferenceable(152) %52, ptr noundef @.str.30, ptr noundef nonnull align 8 dereferenceable(8) %ref.tmp179, ptr noundef null)
  %54 = load ptr, ptr %tracker.addr, align 8
  %vtable187 = load ptr, ptr %this1, align 8
  %vfn188 = getelementptr inbounds ptr, ptr %vtable187, i64 63
  %55 = load ptr, ptr %vfn188, align 8
  %call189 = call ptr %55(ptr noundef nonnull align 8 dereferenceable(872) %this1)
  %coerce.dive190 = getelementptr inbounds %"class.v8::Local.292", ptr %ref.tmp186, i32 0, i32 0
  %coerce.dive191 = getelementptr inbounds %"class.v8::LocalBase.293", ptr %coerce.dive190, i32 0, i32 0
  %coerce.dive192 = getelementptr inbounds %"class.v8::IndirectHandleBase", ptr %coerce.dive191, i32 0, i32 0
  store ptr %call189, ptr %coerce.dive192, align 8
  call void @_ZN4node13MemoryTracker10TrackFieldIN2v88FunctionEEEvPKcRKNS2_5LocalIT_EES5_(ptr noundef nonnull align 8 dereferenceable(152) %54, ptr noundef @.str.31, ptr noundef nonnull align 8 dereferenceable(8) %ref.tmp186, ptr noundef null)
  %56 = load ptr, ptr %tracker.addr, align 8
  %vtable194 = load ptr, ptr %this1, align 8
  %vfn195 = getelementptr inbounds ptr, ptr %vtable194, i64 65
  %57 = load ptr, ptr %vfn195, align 8
  %call196 = call ptr %57(ptr noundef nonnull align 8 dereferenceable(872) %this1)
  %coerce.dive197 = getelementptr inbounds %"class.v8::Local.292", ptr %ref.tmp193, i32 0, i32 0
  %coerce.dive198 = getelementptr inbounds %"class.v8::LocalBase.293", ptr %coerce.dive197, i32 0, i32 0
  %coerce.dive199 = getelementptr inbounds %"class.v8::IndirectHandleBase", ptr %coerce.dive198, i32 0, i32 0
  store ptr %call196, ptr %coerce.dive199, align 8
  call void @_ZN4node13MemoryTracker10TrackFieldIN2v88FunctionEEEvPKcRKNS2_5LocalIT_EES5_(ptr noundef nonnull align 8 dereferenceable(152) %56, ptr noundef @.str.32, ptr noundef nonnull align 8 dereferenceable(8) %ref.tmp193, ptr noundef null)
  %58 = load ptr, ptr %tracker.addr, align 8
  %vtable201 = load ptr, ptr %this1, align 8
  %vfn202 = getelementptr inbounds ptr, ptr %vtable201, i64 67
  %59 = load ptr, ptr %vfn202, align 8
  %call203 = call ptr %59(ptr noundef nonnull align 8 dereferenceable(872) %this1)
  %coerce.dive204 = getelementptr inbounds %"class.v8::Local.292", ptr %ref.tmp200, i32 0, i32 0
  %coerce.dive205 = getelementptr inbounds %"class.v8::LocalBase.293", ptr %coerce.dive204, i32 0, i32 0
  %coerce.dive206 = getelementptr inbounds %"class.v8::IndirectHandleBase", ptr %coerce.dive205, i32 0, i32 0
  store ptr %call203, ptr %coerce.dive206, align 8
  call void @_ZN4node13MemoryTracker10TrackFieldIN2v88FunctionEEEvPKcRKNS2_5LocalIT_EES5_(ptr noundef nonnull align 8 dereferenceable(152) %58, ptr noundef @.str.33, ptr noundef nonnull align 8 dereferenceable(8) %ref.tmp200, ptr noundef null)
  %60 = load ptr, ptr %tracker.addr, align 8
  %vtable208 = load ptr, ptr %this1, align 8
  %vfn209 = getelementptr inbounds ptr, ptr %vtable208, i64 69
  %61 = load ptr, ptr %vfn209, align 8
  %call210 = call ptr %61(ptr noundef nonnull align 8 dereferenceable(872) %this1)
  %coerce.dive211 = getelementptr inbounds %"class.v8::Local.292", ptr %ref.tmp207, i32 0, i32 0
  %coerce.dive212 = getelementptr inbounds %"class.v8::LocalBase.293", ptr %coerce.dive211, i32 0, i32 0
  %coerce.dive213 = getelementptr inbounds %"class.v8::IndirectHandleBase", ptr %coerce.dive212, i32 0, i32 0
  store ptr %call210, ptr %coerce.dive213, align 8
  call void @_ZN4node13MemoryTracker10TrackFieldIN2v88FunctionEEEvPKcRKNS2_5LocalIT_EES5_(ptr noundef nonnull align 8 dereferenceable(152) %60, ptr noundef @.str.34, ptr noundef nonnull align 8 dereferenceable(8) %ref.tmp207, ptr noundef null)
  %62 = load ptr, ptr %tracker.addr, align 8
  %vtable215 = load ptr, ptr %this1, align 8
  %vfn216 = getelementptr inbounds ptr, ptr %vtable215, i64 71
  %63 = load ptr, ptr %vfn216, align 8
  %call217 = call ptr %63(ptr noundef nonnull align 8 dereferenceable(872) %this1)
  %coerce.dive218 = getelementptr inbounds %"class.v8::Local.292", ptr %ref.tmp214, i32 0, i32 0
  %coerce.dive219 = getelementptr inbounds %"class.v8::LocalBase.293", ptr %coerce.dive218, i32 0, i32 0
  %coerce.dive220 = getelementptr inbounds %"class.v8::IndirectHandleBase", ptr %coerce.dive219, i32 0, i32 0
  store ptr %call217, ptr %coerce.dive220, align 8
  call void @_ZN4node13MemoryTracker10TrackFieldIN2v88FunctionEEEvPKcRKNS2_5LocalIT_EES5_(ptr noundef nonnull align 8 dereferenceable(152) %62, ptr noundef @.str.35, ptr noundef nonnull align 8 dereferenceable(8) %ref.tmp214, ptr noundef null)
  %64 = load ptr, ptr %tracker.addr, align 8
  %vtable222 = load ptr, ptr %this1, align 8
  %vfn223 = getelementptr inbounds ptr, ptr %vtable222, i64 73
  %65 = load ptr, ptr %vfn223, align 8
  %call224 = call ptr %65(ptr noundef nonnull align 8 dereferenceable(872) %this1)
  %coerce.dive225 = getelementptr inbounds %"class.v8::Local.292", ptr %ref.tmp221, i32 0, i32 0
  %coerce.dive226 = getelementptr inbounds %"class.v8::LocalBase.293", ptr %coerce.dive225, i32 0, i32 0
  %coerce.dive227 = getelementptr inbounds %"class.v8::IndirectHandleBase", ptr %coerce.dive226, i32 0, i32 0
  store ptr %call224, ptr %coerce.dive227, align 8
  call void @_ZN4node13MemoryTracker10TrackFieldIN2v88FunctionEEEvPKcRKNS2_5LocalIT_EES5_(ptr noundef nonnull align 8 dereferenceable(152) %64, ptr noundef @.str.36, ptr noundef nonnull align 8 dereferenceable(8) %ref.tmp221, ptr noundef null)
  %66 = load ptr, ptr %tracker.addr, align 8
  %vtable229 = load ptr, ptr %this1, align 8
  %vfn230 = getelementptr inbounds ptr, ptr %vtable229, i64 75
  %67 = load ptr, ptr %vfn230, align 8
  %call231 = call ptr %67(ptr noundef nonnull align 8 dereferenceable(872) %this1)
  %coerce.dive232 = getelementptr inbounds %"class.v8::Local.292", ptr %ref.tmp228, i32 0, i32 0
  %coerce.dive233 = getelementptr inbounds %"class.v8::LocalBase.293", ptr %coerce.dive232, i32 0, i32 0
  %coerce.dive234 = getelementptr inbounds %"class.v8::IndirectHandleBase", ptr %coerce.dive233, i32 0, i32 0
  store ptr %call231, ptr %coerce.dive234, align 8
  call void @_ZN4node13MemoryTracker10TrackFieldIN2v88FunctionEEEvPKcRKNS2_5LocalIT_EES5_(ptr noundef nonnull align 8 dereferenceable(152) %66, ptr noundef @.str.37, ptr noundef nonnull align 8 dereferenceable(8) %ref.tmp228, ptr noundef null)
  %68 = load ptr, ptr %tracker.addr, align 8
  %vtable236 = load ptr, ptr %this1, align 8
  %vfn237 = getelementptr inbounds ptr, ptr %vtable236, i64 77
  %69 = load ptr, ptr %vfn237, align 8
  %call238 = call ptr %69(ptr noundef nonnull align 8 dereferenceable(872) %this1)
  %coerce.dive239 = getelementptr inbounds %"class.v8::Local.292", ptr %ref.tmp235, i32 0, i32 0
  %coerce.dive240 = getelementptr inbounds %"class.v8::LocalBase.293", ptr %coerce.dive239, i32 0, i32 0
  %coerce.dive241 = getelementptr inbounds %"class.v8::IndirectHandleBase", ptr %coerce.dive240, i32 0, i32 0
  store ptr %call238, ptr %coerce.dive241, align 8
  call void @_ZN4node13MemoryTracker10TrackFieldIN2v88FunctionEEEvPKcRKNS2_5LocalIT_EES5_(ptr noundef nonnull align 8 dereferenceable(152) %68, ptr noundef @.str.38, ptr noundef nonnull align 8 dereferenceable(8) %ref.tmp235, ptr noundef null)
  %70 = load ptr, ptr %tracker.addr, align 8
  %vtable243 = load ptr, ptr %this1, align 8
  %vfn244 = getelementptr inbounds ptr, ptr %vtable243, i64 79
  %71 = load ptr, ptr %vfn244, align 8
  %call245 = call ptr %71(ptr noundef nonnull align 8 dereferenceable(872) %this1)
  %coerce.dive246 = getelementptr inbounds %"class.v8::Local.292", ptr %ref.tmp242, i32 0, i32 0
  %coerce.dive247 = getelementptr inbounds %"class.v8::LocalBase.293", ptr %coerce.dive246, i32 0, i32 0
  %coerce.dive248 = getelementptr inbounds %"class.v8::IndirectHandleBase", ptr %coerce.dive247, i32 0, i32 0
  store ptr %call245, ptr %coerce.dive248, align 8
  call void @_ZN4node13MemoryTracker10TrackFieldIN2v88FunctionEEEvPKcRKNS2_5LocalIT_EES5_(ptr noundef nonnull align 8 dereferenceable(152) %70, ptr noundef @.str.39, ptr noundef nonnull align 8 dereferenceable(8) %ref.tmp242, ptr noundef null)
  %72 = load ptr, ptr %tracker.addr, align 8
  %vtable250 = load ptr, ptr %this1, align 8
  %vfn251 = getelementptr inbounds ptr, ptr %vtable250, i64 81
  %73 = load ptr, ptr %vfn251, align 8
  %call252 = call ptr %73(ptr noundef nonnull align 8 dereferenceable(872) %this1)
  %coerce.dive253 = getelementptr inbounds %"class.v8::Local.294", ptr %ref.tmp249, i32 0, i32 0
  %coerce.dive254 = getelementptr inbounds %"class.v8::LocalBase.295", ptr %coerce.dive253, i32 0, i32 0
  %coerce.dive255 = getelementptr inbounds %"class.v8::IndirectHandleBase", ptr %coerce.dive254, i32 0, i32 0
  store ptr %call252, ptr %coerce.dive255, align 8
  call void @_ZN4node13MemoryTracker10TrackFieldIN2v86ObjectEEEvPKcRKNS2_5LocalIT_EES5_(ptr noundef nonnull align 8 dereferenceable(152) %72, ptr noundef @.str.40, ptr noundef nonnull align 8 dereferenceable(8) %ref.tmp249, ptr noundef null)
  %74 = load ptr, ptr %tracker.addr, align 8
  %vtable257 = load ptr, ptr %this1, align 8
  %vfn258 = getelementptr inbounds ptr, ptr %vtable257, i64 83
  %75 = load ptr, ptr %vfn258, align 8
  %call259 = call ptr %75(ptr noundef nonnull align 8 dereferenceable(872) %this1)
  %coerce.dive260 = getelementptr inbounds %"class.v8::Local.292", ptr %ref.tmp256, i32 0, i32 0
  %coerce.dive261 = getelementptr inbounds %"class.v8::LocalBase.293", ptr %coerce.dive260, i32 0, i32 0
  %coerce.dive262 = getelementptr inbounds %"class.v8::IndirectHandleBase", ptr %coerce.dive261, i32 0, i32 0
  store ptr %call259, ptr %coerce.dive262, align 8
  call void @_ZN4node13MemoryTracker10TrackFieldIN2v88FunctionEEEvPKcRKNS2_5LocalIT_EES5_(ptr noundef nonnull align 8 dereferenceable(152) %74, ptr noundef @.str.41, ptr noundef nonnull align 8 dereferenceable(8) %ref.tmp256, ptr noundef null)
  %76 = load ptr, ptr %tracker.addr, align 8
  %vtable264 = load ptr, ptr %this1, align 8
  %vfn265 = getelementptr inbounds ptr, ptr %vtable264, i64 85
  %77 = load ptr, ptr %vfn265, align 8
  %call266 = call ptr %77(ptr noundef nonnull align 8 dereferenceable(872) %this1)
  %coerce.dive267 = getelementptr inbounds %"class.v8::Local.292", ptr %ref.tmp263, i32 0, i32 0
  %coerce.dive268 = getelementptr inbounds %"class.v8::LocalBase.293", ptr %coerce.dive267, i32 0, i32 0
  %coerce.dive269 = getelementptr inbounds %"class.v8::IndirectHandleBase", ptr %coerce.dive268, i32 0, i32 0
  store ptr %call266, ptr %coerce.dive269, align 8
  call void @_ZN4node13MemoryTracker10TrackFieldIN2v88FunctionEEEvPKcRKNS2_5LocalIT_EES5_(ptr noundef nonnull align 8 dereferenceable(152) %76, ptr noundef @.str.42, ptr noundef nonnull align 8 dereferenceable(8) %ref.tmp263, ptr noundef null)
  %78 = load ptr, ptr %tracker.addr, align 8
  %vtable271 = load ptr, ptr %this1, align 8
  %vfn272 = getelementptr inbounds ptr, ptr %vtable271, i64 87
  %79 = load ptr, ptr %vfn272, align 8
  %call273 = call ptr %79(ptr noundef nonnull align 8 dereferenceable(872) %this1)
  %coerce.dive274 = getelementptr inbounds %"class.v8::Local.292", ptr %ref.tmp270, i32 0, i32 0
  %coerce.dive275 = getelementptr inbounds %"class.v8::LocalBase.293", ptr %coerce.dive274, i32 0, i32 0
  %coerce.dive276 = getelementptr inbounds %"class.v8::IndirectHandleBase", ptr %coerce.dive275, i32 0, i32 0
  store ptr %call273, ptr %coerce.dive276, align 8
  call void @_ZN4node13MemoryTracker10TrackFieldIN2v88FunctionEEEvPKcRKNS2_5LocalIT_EES5_(ptr noundef nonnull align 8 dereferenceable(152) %78, ptr noundef @.str.43, ptr noundef nonnull align 8 dereferenceable(8) %ref.tmp270, ptr noundef null)
  %80 = load ptr, ptr %tracker.addr, align 8
  %vtable278 = load ptr, ptr %this1, align 8
  %vfn279 = getelementptr inbounds ptr, ptr %vtable278, i64 89
  %81 = load ptr, ptr %vfn279, align 8
  %call280 = call ptr %81(ptr noundef nonnull align 8 dereferenceable(872) %this1)
  %coerce.dive281 = getelementptr inbounds %"class.v8::Local.294", ptr %ref.tmp277, i32 0, i32 0
  %coerce.dive282 = getelementptr inbounds %"class.v8::LocalBase.295", ptr %coerce.dive281, i32 0, i32 0
  %coerce.dive283 = getelementptr inbounds %"class.v8::IndirectHandleBase", ptr %coerce.dive282, i32 0, i32 0
  store ptr %call280, ptr %coerce.dive283, align 8
  call void @_ZN4node13MemoryTracker10TrackFieldIN2v86ObjectEEEvPKcRKNS2_5LocalIT_EES5_(ptr noundef nonnull align 8 dereferenceable(152) %80, ptr noundef @.str.44, ptr noundef nonnull align 8 dereferenceable(8) %ref.tmp277, ptr noundef null)
  %82 = load ptr, ptr %tracker.addr, align 8
  %vtable285 = load ptr, ptr %this1, align 8
  %vfn286 = getelementptr inbounds ptr, ptr %vtable285, i64 91
  %83 = load ptr, ptr %vfn286, align 8
  %call287 = call ptr %83(ptr noundef nonnull align 8 dereferenceable(872) %this1)
  %coerce.dive288 = getelementptr inbounds %"class.v8::Local.294", ptr %ref.tmp284, i32 0, i32 0
  %coerce.dive289 = getelementptr inbounds %"class.v8::LocalBase.295", ptr %coerce.dive288, i32 0, i32 0
  %coerce.dive290 = getelementptr inbounds %"class.v8::IndirectHandleBase", ptr %coerce.dive289, i32 0, i32 0
  store ptr %call287, ptr %coerce.dive290, align 8
  call void @_ZN4node13MemoryTracker10TrackFieldIN2v86ObjectEEEvPKcRKNS2_5LocalIT_EES5_(ptr noundef nonnull align 8 dereferenceable(152) %82, ptr noundef @.str.45, ptr noundef nonnull align 8 dereferenceable(8) %ref.tmp284, ptr noundef null)
  %84 = load ptr, ptr %tracker.addr, align 8
  %vtable292 = load ptr, ptr %this1, align 8
  %vfn293 = getelementptr inbounds ptr, ptr %vtable292, i64 93
  %85 = load ptr, ptr %vfn293, align 8
  %call294 = call ptr %85(ptr noundef nonnull align 8 dereferenceable(872) %this1)
  %coerce.dive295 = getelementptr inbounds %"class.v8::Local.294", ptr %ref.tmp291, i32 0, i32 0
  %coerce.dive296 = getelementptr inbounds %"class.v8::LocalBase.295", ptr %coerce.dive295, i32 0, i32 0
  %coerce.dive297 = getelementptr inbounds %"class.v8::IndirectHandleBase", ptr %coerce.dive296, i32 0, i32 0
  store ptr %call294, ptr %coerce.dive297, align 8
  call void @_ZN4node13MemoryTracker10TrackFieldIN2v86ObjectEEEvPKcRKNS2_5LocalIT_EES5_(ptr noundef nonnull align 8 dereferenceable(152) %84, ptr noundef @.str.46, ptr noundef nonnull align 8 dereferenceable(8) %ref.tmp291, ptr noundef null)
  %86 = load ptr, ptr %tracker.addr, align 8
  %vtable299 = load ptr, ptr %this1, align 8
  %vfn300 = getelementptr inbounds ptr, ptr %vtable299, i64 95
  %87 = load ptr, ptr %vfn300, align 8
  %call301 = call ptr %87(ptr noundef nonnull align 8 dereferenceable(872) %this1)
  %coerce.dive302 = getelementptr inbounds %"class.v8::Local.294", ptr %ref.tmp298, i32 0, i32 0
  %coerce.dive303 = getelementptr inbounds %"class.v8::LocalBase.295", ptr %coerce.dive302, i32 0, i32 0
  %coerce.dive304 = getelementptr inbounds %"class.v8::IndirectHandleBase", ptr %coerce.dive303, i32 0, i32 0
  store ptr %call301, ptr %coerce.dive304, align 8
  call void @_ZN4node13MemoryTracker10TrackFieldIN2v86ObjectEEEvPKcRKNS2_5LocalIT_EES5_(ptr noundef nonnull align 8 dereferenceable(152) %86, ptr noundef @.str.47, ptr noundef nonnull align 8 dereferenceable(8) %ref.tmp298, ptr noundef null)
  %88 = load ptr, ptr %tracker.addr, align 8
  %vtable306 = load ptr, ptr %this1, align 8
  %vfn307 = getelementptr inbounds ptr, ptr %vtable306, i64 97
  %89 = load ptr, ptr %vfn307, align 8
  %call308 = call ptr %89(ptr noundef nonnull align 8 dereferenceable(872) %this1)
  %coerce.dive309 = getelementptr inbounds %"class.v8::Local.294", ptr %ref.tmp305, i32 0, i32 0
  %coerce.dive310 = getelementptr inbounds %"class.v8::LocalBase.295", ptr %coerce.dive309, i32 0, i32 0
  %coerce.dive311 = getelementptr inbounds %"class.v8::IndirectHandleBase", ptr %coerce.dive310, i32 0, i32 0
  store ptr %call308, ptr %coerce.dive311, align 8
  call void @_ZN4node13MemoryTracker10TrackFieldIN2v86ObjectEEEvPKcRKNS2_5LocalIT_EES5_(ptr noundef nonnull align 8 dereferenceable(152) %88, ptr noundef @.str.48, ptr noundef nonnull align 8 dereferenceable(8) %ref.tmp305, ptr noundef null)
  %90 = load ptr, ptr %tracker.addr, align 8
  %vtable313 = load ptr, ptr %this1, align 8
  %vfn314 = getelementptr inbounds ptr, ptr %vtable313, i64 99
  %91 = load ptr, ptr %vfn314, align 8
  %call315 = call ptr %91(ptr noundef nonnull align 8 dereferenceable(872) %this1)
  %coerce.dive316 = getelementptr inbounds %"class.v8::Local.294", ptr %ref.tmp312, i32 0, i32 0
  %coerce.dive317 = getelementptr inbounds %"class.v8::LocalBase.295", ptr %coerce.dive316, i32 0, i32 0
  %coerce.dive318 = getelementptr inbounds %"class.v8::IndirectHandleBase", ptr %coerce.dive317, i32 0, i32 0
  store ptr %call315, ptr %coerce.dive318, align 8
  call void @_ZN4node13MemoryTracker10TrackFieldIN2v86ObjectEEEvPKcRKNS2_5LocalIT_EES5_(ptr noundef nonnull align 8 dereferenceable(152) %90, ptr noundef @.str.49, ptr noundef nonnull align 8 dereferenceable(8) %ref.tmp312, ptr noundef null)
  %92 = load ptr, ptr %tracker.addr, align 8
  %vtable320 = load ptr, ptr %this1, align 8
  %vfn321 = getelementptr inbounds ptr, ptr %vtable320, i64 101
  %93 = load ptr, ptr %vfn321, align 8
  %call322 = call ptr %93(ptr noundef nonnull align 8 dereferenceable(872) %this1)
  %coerce.dive323 = getelementptr inbounds %"class.v8::Local.292", ptr %ref.tmp319, i32 0, i32 0
  %coerce.dive324 = getelementptr inbounds %"class.v8::LocalBase.293", ptr %coerce.dive323, i32 0, i32 0
  %coerce.dive325 = getelementptr inbounds %"class.v8::IndirectHandleBase", ptr %coerce.dive324, i32 0, i32 0
  store ptr %call322, ptr %coerce.dive325, align 8
  call void @_ZN4node13MemoryTracker10TrackFieldIN2v88FunctionEEEvPKcRKNS2_5LocalIT_EES5_(ptr noundef nonnull align 8 dereferenceable(152) %92, ptr noundef @.str.50, ptr noundef nonnull align 8 dereferenceable(8) %ref.tmp319, ptr noundef null)
  %94 = load ptr, ptr %tracker.addr, align 8
  %vtable327 = load ptr, ptr %this1, align 8
  %vfn328 = getelementptr inbounds ptr, ptr %vtable327, i64 103
  %95 = load ptr, ptr %vfn328, align 8
  %call329 = call ptr %95(ptr noundef nonnull align 8 dereferenceable(872) %this1)
  %coerce.dive330 = getelementptr inbounds %"class.v8::Local.292", ptr %ref.tmp326, i32 0, i32 0
  %coerce.dive331 = getelementptr inbounds %"class.v8::LocalBase.293", ptr %coerce.dive330, i32 0, i32 0
  %coerce.dive332 = getelementptr inbounds %"class.v8::IndirectHandleBase", ptr %coerce.dive331, i32 0, i32 0
  store ptr %call329, ptr %coerce.dive332, align 8
  call void @_ZN4node13MemoryTracker10TrackFieldIN2v88FunctionEEEvPKcRKNS2_5LocalIT_EES5_(ptr noundef nonnull align 8 dereferenceable(152) %94, ptr noundef @.str.51, ptr noundef nonnull align 8 dereferenceable(8) %ref.tmp326, ptr noundef null)
  %96 = load ptr, ptr %tracker.addr, align 8
  %vtable334 = load ptr, ptr %this1, align 8
  %vfn335 = getelementptr inbounds ptr, ptr %vtable334, i64 105
  %97 = load ptr, ptr %vfn335, align 8
  %call336 = call ptr %97(ptr noundef nonnull align 8 dereferenceable(872) %this1)
  %coerce.dive337 = getelementptr inbounds %"class.v8::Local.292", ptr %ref.tmp333, i32 0, i32 0
  %coerce.dive338 = getelementptr inbounds %"class.v8::LocalBase.293", ptr %coerce.dive337, i32 0, i32 0
  %coerce.dive339 = getelementptr inbounds %"class.v8::IndirectHandleBase", ptr %coerce.dive338, i32 0, i32 0
  store ptr %call336, ptr %coerce.dive339, align 8
  call void @_ZN4node13MemoryTracker10TrackFieldIN2v88FunctionEEEvPKcRKNS2_5LocalIT_EES5_(ptr noundef nonnull align 8 dereferenceable(152) %96, ptr noundef @.str.52, ptr noundef nonnull align 8 dereferenceable(8) %ref.tmp333, ptr noundef null)
  %98 = load ptr, ptr %tracker.addr, align 8
  %vtable341 = load ptr, ptr %this1, align 8
  %vfn342 = getelementptr inbounds ptr, ptr %vtable341, i64 107
  %99 = load ptr, ptr %vfn342, align 8
  %call343 = call ptr %99(ptr noundef nonnull align 8 dereferenceable(872) %this1)
  %coerce.dive344 = getelementptr inbounds %"class.v8::Local.292", ptr %ref.tmp340, i32 0, i32 0
  %coerce.dive345 = getelementptr inbounds %"class.v8::LocalBase.293", ptr %coerce.dive344, i32 0, i32 0
  %coerce.dive346 = getelementptr inbounds %"class.v8::IndirectHandleBase", ptr %coerce.dive345, i32 0, i32 0
  store ptr %call343, ptr %coerce.dive346, align 8
  call void @_ZN4node13MemoryTracker10TrackFieldIN2v88FunctionEEEvPKcRKNS2_5LocalIT_EES5_(ptr noundef nonnull align 8 dereferenceable(152) %98, ptr noundef @.str.53, ptr noundef nonnull align 8 dereferenceable(8) %ref.tmp340, ptr noundef null)
  %100 = load ptr, ptr %tracker.addr, align 8
  %vtable348 = load ptr, ptr %this1, align 8
  %vfn349 = getelementptr inbounds ptr, ptr %vtable348, i64 109
  %101 = load ptr, ptr %vfn349, align 8
  %call350 = call ptr %101(ptr noundef nonnull align 8 dereferenceable(872) %this1)
  %coerce.dive351 = getelementptr inbounds %"class.v8::Local.292", ptr %ref.tmp347, i32 0, i32 0
  %coerce.dive352 = getelementptr inbounds %"class.v8::LocalBase.293", ptr %coerce.dive351, i32 0, i32 0
  %coerce.dive353 = getelementptr inbounds %"class.v8::IndirectHandleBase", ptr %coerce.dive352, i32 0, i32 0
  store ptr %call350, ptr %coerce.dive353, align 8
  call void @_ZN4node13MemoryTracker10TrackFieldIN2v88FunctionEEEvPKcRKNS2_5LocalIT_EES5_(ptr noundef nonnull align 8 dereferenceable(152) %100, ptr noundef @.str.54, ptr noundef nonnull align 8 dereferenceable(8) %ref.tmp347, ptr noundef null)
  %102 = load ptr, ptr %tracker.addr, align 8
  %vtable355 = load ptr, ptr %this1, align 8
  %vfn356 = getelementptr inbounds ptr, ptr %vtable355, i64 111
  %103 = load ptr, ptr %vfn356, align 8
  %call357 = call ptr %103(ptr noundef nonnull align 8 dereferenceable(872) %this1)
  %coerce.dive358 = getelementptr inbounds %"class.v8::Local.292", ptr %ref.tmp354, i32 0, i32 0
  %coerce.dive359 = getelementptr inbounds %"class.v8::LocalBase.293", ptr %coerce.dive358, i32 0, i32 0
  %coerce.dive360 = getelementptr inbounds %"class.v8::IndirectHandleBase", ptr %coerce.dive359, i32 0, i32 0
  store ptr %call357, ptr %coerce.dive360, align 8
  call void @_ZN4node13MemoryTracker10TrackFieldIN2v88FunctionEEEvPKcRKNS2_5LocalIT_EES5_(ptr noundef nonnull align 8 dereferenceable(152) %102, ptr noundef @.str.55, ptr noundef nonnull align 8 dereferenceable(8) %ref.tmp354, ptr noundef null)
  %104 = load ptr, ptr %tracker.addr, align 8
  %vtable362 = load ptr, ptr %this1, align 8
  %vfn363 = getelementptr inbounds ptr, ptr %vtable362, i64 113
  %105 = load ptr, ptr %vfn363, align 8
  %call364 = call ptr %105(ptr noundef nonnull align 8 dereferenceable(872) %this1)
  %coerce.dive365 = getelementptr inbounds %"class.v8::Local.292", ptr %ref.tmp361, i32 0, i32 0
  %coerce.dive366 = getelementptr inbounds %"class.v8::LocalBase.293", ptr %coerce.dive365, i32 0, i32 0
  %coerce.dive367 = getelementptr inbounds %"class.v8::IndirectHandleBase", ptr %coerce.dive366, i32 0, i32 0
  store ptr %call364, ptr %coerce.dive367, align 8
  call void @_ZN4node13MemoryTracker10TrackFieldIN2v88FunctionEEEvPKcRKNS2_5LocalIT_EES5_(ptr noundef nonnull align 8 dereferenceable(152) %104, ptr noundef @.str.56, ptr noundef nonnull align 8 dereferenceable(8) %ref.tmp361, ptr noundef null)
  %106 = load ptr, ptr %tracker.addr, align 8
  %vtable369 = load ptr, ptr %this1, align 8
  %vfn370 = getelementptr inbounds ptr, ptr %vtable369, i64 115
  %107 = load ptr, ptr %vfn370, align 8
  %call371 = call ptr %107(ptr noundef nonnull align 8 dereferenceable(872) %this1)
  %coerce.dive372 = getelementptr inbounds %"class.v8::Local.292", ptr %ref.tmp368, i32 0, i32 0
  %coerce.dive373 = getelementptr inbounds %"class.v8::LocalBase.293", ptr %coerce.dive372, i32 0, i32 0
  %coerce.dive374 = getelementptr inbounds %"class.v8::IndirectHandleBase", ptr %coerce.dive373, i32 0, i32 0
  store ptr %call371, ptr %coerce.dive374, align 8
  call void @_ZN4node13MemoryTracker10TrackFieldIN2v88FunctionEEEvPKcRKNS2_5LocalIT_EES5_(ptr noundef nonnull align 8 dereferenceable(152) %106, ptr noundef @.str.57, ptr noundef nonnull align 8 dereferenceable(8) %ref.tmp368, ptr noundef null)
  %108 = load ptr, ptr %tracker.addr, align 8
  %vtable376 = load ptr, ptr %this1, align 8
  %vfn377 = getelementptr inbounds ptr, ptr %vtable376, i64 117
  %109 = load ptr, ptr %vfn377, align 8
  %call378 = call ptr %109(ptr noundef nonnull align 8 dereferenceable(872) %this1)
  %coerce.dive379 = getelementptr inbounds %"class.v8::Local.292", ptr %ref.tmp375, i32 0, i32 0
  %coerce.dive380 = getelementptr inbounds %"class.v8::LocalBase.293", ptr %coerce.dive379, i32 0, i32 0
  %coerce.dive381 = getelementptr inbounds %"class.v8::IndirectHandleBase", ptr %coerce.dive380, i32 0, i32 0
  store ptr %call378, ptr %coerce.dive381, align 8
  call void @_ZN4node13MemoryTracker10TrackFieldIN2v88FunctionEEEvPKcRKNS2_5LocalIT_EES5_(ptr noundef nonnull align 8 dereferenceable(152) %108, ptr noundef @.str.58, ptr noundef nonnull align 8 dereferenceable(8) %ref.tmp375, ptr noundef null)
  %110 = load ptr, ptr %tracker.addr, align 8
  %vtable383 = load ptr, ptr %this1, align 8
  %vfn384 = getelementptr inbounds ptr, ptr %vtable383, i64 119
  %111 = load ptr, ptr %vfn384, align 8
  %call385 = call ptr %111(ptr noundef nonnull align 8 dereferenceable(872) %this1)
  %coerce.dive386 = getelementptr inbounds %"class.v8::Local.292", ptr %ref.tmp382, i32 0, i32 0
  %coerce.dive387 = getelementptr inbounds %"class.v8::LocalBase.293", ptr %coerce.dive386, i32 0, i32 0
  %coerce.dive388 = getelementptr inbounds %"class.v8::IndirectHandleBase", ptr %coerce.dive387, i32 0, i32 0
  store ptr %call385, ptr %coerce.dive388, align 8
  call void @_ZN4node13MemoryTracker10TrackFieldIN2v88FunctionEEEvPKcRKNS2_5LocalIT_EES5_(ptr noundef nonnull align 8 dereferenceable(152) %110, ptr noundef @.str.59, ptr noundef nonnull align 8 dereferenceable(8) %ref.tmp382, ptr noundef null)
  %112 = load ptr, ptr %tracker.addr, align 8
  %vtable390 = load ptr, ptr %this1, align 8
  %vfn391 = getelementptr inbounds ptr, ptr %vtable390, i64 121
  %113 = load ptr, ptr %vfn391, align 8
  %call392 = call ptr %113(ptr noundef nonnull align 8 dereferenceable(872) %this1)
  %coerce.dive393 = getelementptr inbounds %"class.v8::Local.292", ptr %ref.tmp389, i32 0, i32 0
  %coerce.dive394 = getelementptr inbounds %"class.v8::LocalBase.293", ptr %coerce.dive393, i32 0, i32 0
  %coerce.dive395 = getelementptr inbounds %"class.v8::IndirectHandleBase", ptr %coerce.dive394, i32 0, i32 0
  store ptr %call392, ptr %coerce.dive395, align 8
  call void @_ZN4node13MemoryTracker10TrackFieldIN2v88FunctionEEEvPKcRKNS2_5LocalIT_EES5_(ptr noundef nonnull align 8 dereferenceable(152) %112, ptr noundef @.str.60, ptr noundef nonnull align 8 dereferenceable(8) %ref.tmp389, ptr noundef null)
  %114 = load ptr, ptr %tracker.addr, align 8
  %vtable397 = load ptr, ptr %this1, align 8
  %vfn398 = getelementptr inbounds ptr, ptr %vtable397, i64 123
  %115 = load ptr, ptr %vfn398, align 8
  %call399 = call ptr %115(ptr noundef nonnull align 8 dereferenceable(872) %this1)
  %coerce.dive400 = getelementptr inbounds %"class.v8::Local.292", ptr %ref.tmp396, i32 0, i32 0
  %coerce.dive401 = getelementptr inbounds %"class.v8::LocalBase.293", ptr %coerce.dive400, i32 0, i32 0
  %coerce.dive402 = getelementptr inbounds %"class.v8::IndirectHandleBase", ptr %coerce.dive401, i32 0, i32 0
  store ptr %call399, ptr %coerce.dive402, align 8
  call void @_ZN4node13MemoryTracker10TrackFieldIN2v88FunctionEEEvPKcRKNS2_5LocalIT_EES5_(ptr noundef nonnull align 8 dereferenceable(152) %114, ptr noundef @.str.61, ptr noundef nonnull align 8 dereferenceable(8) %ref.tmp396, ptr noundef null)
  %116 = load ptr, ptr %tracker.addr, align 8
  %vtable404 = load ptr, ptr %this1, align 8
  %vfn405 = getelementptr inbounds ptr, ptr %vtable404, i64 125
  %117 = load ptr, ptr %vfn405, align 8
  %call406 = call ptr %117(ptr noundef nonnull align 8 dereferenceable(872) %this1)
  %coerce.dive407 = getelementptr inbounds %"class.v8::Local.292", ptr %ref.tmp403, i32 0, i32 0
  %coerce.dive408 = getelementptr inbounds %"class.v8::LocalBase.293", ptr %coerce.dive407, i32 0, i32 0
  %coerce.dive409 = getelementptr inbounds %"class.v8::IndirectHandleBase", ptr %coerce.dive408, i32 0, i32 0
  store ptr %call406, ptr %coerce.dive409, align 8
  call void @_ZN4node13MemoryTracker10TrackFieldIN2v88FunctionEEEvPKcRKNS2_5LocalIT_EES5_(ptr noundef nonnull align 8 dereferenceable(152) %116, ptr noundef @.str.62, ptr noundef nonnull align 8 dereferenceable(8) %ref.tmp403, ptr noundef null)
  %118 = load ptr, ptr %tracker.addr, align 8
  %vtable411 = load ptr, ptr %this1, align 8
  %vfn412 = getelementptr inbounds ptr, ptr %vtable411, i64 127
  %119 = load ptr, ptr %vfn412, align 8
  %call413 = call ptr %119(ptr noundef nonnull align 8 dereferenceable(872) %this1)
  %coerce.dive414 = getelementptr inbounds %"class.v8::Local.292", ptr %ref.tmp410, i32 0, i32 0
  %coerce.dive415 = getelementptr inbounds %"class.v8::LocalBase.293", ptr %coerce.dive414, i32 0, i32 0
  %coerce.dive416 = getelementptr inbounds %"class.v8::IndirectHandleBase", ptr %coerce.dive415, i32 0, i32 0
  store ptr %call413, ptr %coerce.dive416, align 8
  call void @_ZN4node13MemoryTracker10TrackFieldIN2v88FunctionEEEvPKcRKNS2_5LocalIT_EES5_(ptr noundef nonnull align 8 dereferenceable(152) %118, ptr noundef @.str.63, ptr noundef nonnull align 8 dereferenceable(8) %ref.tmp410, ptr noundef null)
  %120 = load ptr, ptr %tracker.addr, align 8
  %cleanup_queue_ = getelementptr inbounds %"class.node::Realm", ptr %this1, i32 0, i32 73
  call void @_ZN4node13MemoryTracker10TrackFieldEPKcRKNS_14MemoryRetainerES2_(ptr noundef nonnull align 8 dereferenceable(152) %120, ptr noundef @.str.64, ptr noundef nonnull align 8 dereferenceable(8) %cleanup_queue_, ptr noundef null)
  %121 = load ptr, ptr %tracker.addr, align 8
  %builtins_with_cache = getelementptr inbounds %"class.node::Realm", ptr %this1, i32 0, i32 2
  call void @_ZN4node13MemoryTracker10TrackFieldISt3setINSt7__cxx1112basic_stringIcSt11char_traitsIcESaIcEEESt4lessIS8_ESaIS8_EESt23_Rb_tree_const_iteratorIS8_EEEvPKcRKT_SG_SG_b(ptr noundef nonnull align 8 dereferenceable(152) %121, ptr noundef @.str.65, ptr noundef nonnull align 8 dereferenceable(48) %builtins_with_cache, ptr noundef null, ptr noundef null, i1 noundef zeroext true)
  %122 = load ptr, ptr %tracker.addr, align 8
  %builtins_without_cache = getelementptr inbounds %"class.node::Realm", ptr %this1, i32 0, i32 3
  call void @_ZN4node13MemoryTracker10TrackFieldISt3setINSt7__cxx1112basic_stringIcSt11char_traitsIcESaIcEEESt4lessIS8_ESaIS8_EESt23_Rb_tree_const_iteratorIS8_EEEvPKcRKT_SG_SG_b(ptr noundef nonnull align 8 dereferenceable(152) %122, ptr noundef @.str.66, ptr noundef nonnull align 8 dereferenceable(48) %builtins_without_cache, ptr noundef null, ptr noundef null, i1 noundef zeroext true)
  ret void
}

; Function Attrs: mustprogress nounwind uwtable
define linkonce_odr dso_local void @_ZN4node13MemoryTracker10TrackFieldIN2v88FunctionEEEvPKcRKNS2_5LocalIT_EES5_(ptr noundef nonnull align 8 dereferenceable(152) %this, ptr noundef %edge_name, ptr noundef nonnull align 8 dereferenceable(8) %value, ptr noundef %node_name) #4 comdat align 2 {
entry:
  %this.addr.i10 = alloca ptr, align 8
  %other.addr.i = alloca ptr, align 8
  %that.i = alloca %"class.v8::Local.292", align 8
  %this.addr.i9 = alloca ptr, align 8
  %this.addr.i = alloca ptr, align 8
  %this.addr = alloca ptr, align 8
  %edge_name.addr = alloca ptr, align 8
  %value.addr = alloca ptr, align 8
  %node_name.addr = alloca ptr, align 8
  %ref.tmp = alloca %"class.v8::Local.296", align 8
  %agg.tmp = alloca %"class.v8::Local.292", align 8
  store ptr %this, ptr %this.addr, align 8
  store ptr %edge_name, ptr %edge_name.addr, align 8
  store ptr %value, ptr %value.addr, align 8
  store ptr %node_name, ptr %node_name.addr, align 8
  %this1 = load ptr, ptr %this.addr, align 8
  %0 = load ptr, ptr %value.addr, align 8
  store ptr %0, ptr %this.addr.i, align 8
  %this1.i = load ptr, ptr %this.addr.i, align 8
  %1 = load ptr, ptr %this1.i, align 8
  %cmp.i = icmp eq ptr %1, null
  br i1 %cmp.i, label %if.end, label %if.then

if.then:                                          ; preds = %entry
  %graph_ = getelementptr inbounds %"class.node::MemoryTracker", ptr %this1, i32 0, i32 1
  %2 = load ptr, ptr %graph_, align 8
  %call2 = call noundef ptr @_ZNK4node13MemoryTracker11CurrentNodeEv(ptr noundef nonnull align 8 dereferenceable(152) %this1)
  %graph_3 = getelementptr inbounds %"class.node::MemoryTracker", ptr %this1, i32 0, i32 1
  %3 = load ptr, ptr %graph_3, align 8
  %4 = load ptr, ptr %value.addr, align 8
  call void @llvm.memcpy.p0.p0.i64(ptr align 8 %agg.tmp, ptr align 8 %4, i64 8, i1 false)
  %coerce.dive = getelementptr inbounds %"class.v8::Local.292", ptr %agg.tmp, i32 0, i32 0
  %coerce.dive4 = getelementptr inbounds %"class.v8::LocalBase.293", ptr %coerce.dive, i32 0, i32 0
  %coerce.dive5 = getelementptr inbounds %"class.v8::IndirectHandleBase", ptr %coerce.dive4, i32 0, i32 0
  %5 = load ptr, ptr %coerce.dive5, align 8
  store ptr %5, ptr %that.i, align 8
  store ptr %ref.tmp, ptr %this.addr.i9, align 8
  %this3.i = load ptr, ptr %this.addr.i9, align 8
  store ptr %this3.i, ptr %this.addr.i10, align 8
  store ptr %that.i, ptr %other.addr.i, align 8
  %this1.i11 = load ptr, ptr %this.addr.i10, align 8
  %6 = load ptr, ptr %other.addr.i, align 8
  call void @llvm.memcpy.p0.p0.i64(ptr align 8 %this1.i11, ptr align 8 %6, i64 8, i1 false)
  %vtable = load ptr, ptr %3, align 8
  %vfn = getelementptr inbounds ptr, ptr %vtable, i64 0
  %7 = load ptr, ptr %vfn, align 8
  %call6 = call noundef ptr %7(ptr noundef nonnull align 8 dereferenceable(8) %3, ptr noundef nonnull align 8 dereferenceable(8) %ref.tmp)
  %8 = load ptr, ptr %edge_name.addr, align 8
  %vtable7 = load ptr, ptr %2, align 8
  %vfn8 = getelementptr inbounds ptr, ptr %vtable7, i64 2
  %9 = load ptr, ptr %vfn8, align 8
  call void %9(ptr noundef nonnull align 8 dereferenceable(8) %2, ptr noundef %call2, ptr noundef %call6, ptr noundef %8)
  br label %if.end

if.end:                                           ; preds = %if.then, %entry
  ret void
}

; Function Attrs: mustprogress nounwind uwtable
define linkonce_odr dso_local void @_ZN4node13MemoryTracker10TrackFieldIN2v86ObjectEEEvPKcRKNS2_5LocalIT_EES5_(ptr noundef nonnull align 8 dereferenceable(152) %this, ptr noundef %edge_name, ptr noundef nonnull align 8 dereferenceable(8) %value, ptr noundef %node_name) #4 comdat align 2 {
entry:
  %this.addr.i10 = alloca ptr, align 8
  %other.addr.i = alloca ptr, align 8
  %that.i = alloca %"class.v8::Local.294", align 8
  %this.addr.i9 = alloca ptr, align 8
  %this.addr.i = alloca ptr, align 8
  %this.addr = alloca ptr, align 8
  %edge_name.addr = alloca ptr, align 8
  %value.addr = alloca ptr, align 8
  %node_name.addr = alloca ptr, align 8
  %ref.tmp = alloca %"class.v8::Local.296", align 8
  %agg.tmp = alloca %"class.v8::Local.294", align 8
  store ptr %this, ptr %this.addr, align 8
  store ptr %edge_name, ptr %edge_name.addr, align 8
  store ptr %value, ptr %value.addr, align 8
  store ptr %node_name, ptr %node_name.addr, align 8
  %this1 = load ptr, ptr %this.addr, align 8
  %0 = load ptr, ptr %value.addr, align 8
  store ptr %0, ptr %this.addr.i, align 8
  %this1.i = load ptr, ptr %this.addr.i, align 8
  %1 = load ptr, ptr %this1.i, align 8
  %cmp.i = icmp eq ptr %1, null
  br i1 %cmp.i, label %if.end, label %if.then

if.then:                                          ; preds = %entry
  %graph_ = getelementptr inbounds %"class.node::MemoryTracker", ptr %this1, i32 0, i32 1
  %2 = load ptr, ptr %graph_, align 8
  %call2 = call noundef ptr @_ZNK4node13MemoryTracker11CurrentNodeEv(ptr noundef nonnull align 8 dereferenceable(152) %this1)
  %graph_3 = getelementptr inbounds %"class.node::MemoryTracker", ptr %this1, i32 0, i32 1
  %3 = load ptr, ptr %graph_3, align 8
  %4 = load ptr, ptr %value.addr, align 8
  call void @llvm.memcpy.p0.p0.i64(ptr align 8 %agg.tmp, ptr align 8 %4, i64 8, i1 false)
  %coerce.dive = getelementptr inbounds %"class.v8::Local.294", ptr %agg.tmp, i32 0, i32 0
  %coerce.dive4 = getelementptr inbounds %"class.v8::LocalBase.295", ptr %coerce.dive, i32 0, i32 0
  %coerce.dive5 = getelementptr inbounds %"class.v8::IndirectHandleBase", ptr %coerce.dive4, i32 0, i32 0
  %5 = load ptr, ptr %coerce.dive5, align 8
  store ptr %5, ptr %that.i, align 8
  store ptr %ref.tmp, ptr %this.addr.i9, align 8
  %this3.i = load ptr, ptr %this.addr.i9, align 8
  store ptr %this3.i, ptr %this.addr.i10, align 8
  store ptr %that.i, ptr %other.addr.i, align 8
  %this1.i11 = load ptr, ptr %this.addr.i10, align 8
  %6 = load ptr, ptr %other.addr.i, align 8
  call void @llvm.memcpy.p0.p0.i64(ptr align 8 %this1.i11, ptr align 8 %6, i64 8, i1 false)
  %vtable = load ptr, ptr %3, align 8
  %vfn = getelementptr inbounds ptr, ptr %vtable, i64 0
  %7 = load ptr, ptr %vfn, align 8
  %call6 = call noundef ptr %7(ptr noundef nonnull align 8 dereferenceable(8) %3, ptr noundef nonnull align 8 dereferenceable(8) %ref.tmp)
  %8 = load ptr, ptr %edge_name.addr, align 8
  %vtable7 = load ptr, ptr %2, align 8
  %vfn8 = getelementptr inbounds ptr, ptr %vtable7, i64 2
  %9 = load ptr, ptr %vfn8, align 8
  call void %9(ptr noundef nonnull align 8 dereferenceable(8) %2, ptr noundef %call2, ptr noundef %call6, ptr noundef %8)
  br label %if.end

if.end:                                           ; preds = %if.then, %entry
  ret void
}

; Function Attrs: mustprogress nounwind uwtable
define linkonce_odr dso_local void @_ZN4node13MemoryTracker10TrackFieldEPKcRKNS_14MemoryRetainerES2_(ptr noundef nonnull align 8 dereferenceable(152) %this, ptr noundef %edge_name, ptr noundef nonnull align 8 dereferenceable(8) %value, ptr noundef %node_name) #4 comdat align 2 {
entry:
  %this.addr = alloca ptr, align 8
  %edge_name.addr = alloca ptr, align 8
  %value.addr = alloca ptr, align 8
  %node_name.addr = alloca ptr, align 8
  store ptr %this, ptr %this.addr, align 8
  store ptr %edge_name, ptr %edge_name.addr, align 8
  store ptr %value, ptr %value.addr, align 8
  store ptr %node_name, ptr %node_name.addr, align 8
  %this1 = load ptr, ptr %this.addr, align 8
  %0 = load ptr, ptr %edge_name.addr, align 8
  %1 = load ptr, ptr %value.addr, align 8
  call void @_ZN4node13MemoryTracker10TrackFieldEPKcPKNS_14MemoryRetainerES2_(ptr noundef nonnull align 8 dereferenceable(152) %this1, ptr noundef %0, ptr noundef %1, ptr noundef null)
  ret void
}

; Function Attrs: mustprogress nounwind uwtable
define linkonce_odr dso_local void @_ZN4node13MemoryTracker10TrackFieldISt3setINSt7__cxx1112basic_stringIcSt11char_traitsIcESaIcEEESt4lessIS8_ESaIS8_EESt23_Rb_tree_const_iteratorIS8_EEEvPKcRKT_SG_SG_b(ptr noundef nonnull align 8 dereferenceable(152) %this, ptr noundef %edge_name, ptr noundef nonnull align 8 dereferenceable(48) %value, ptr noundef %node_name, ptr noundef %element_name, i1 noundef zeroext %subtract_from_self) #4 comdat align 2 {
entry:
  %this.addr = alloca ptr, align 8
  %edge_name.addr = alloca ptr, align 8
  %value.addr = alloca ptr, align 8
  %node_name.addr = alloca ptr, align 8
  %element_name.addr = alloca ptr, align 8
  %subtract_from_self.addr = alloca i8, align 1
  %ref.tmp = alloca %"struct.std::_Rb_tree_const_iterator", align 8
  %ref.tmp2 = alloca %"struct.std::_Rb_tree_const_iterator", align 8
  %it = alloca %"struct.std::_Rb_tree_const_iterator", align 8
  %ref.tmp14 = alloca %"struct.std::_Rb_tree_const_iterator", align 8
  store ptr %this, ptr %this.addr, align 8
  store ptr %edge_name, ptr %edge_name.addr, align 8
  store ptr %value, ptr %value.addr, align 8
  store ptr %node_name, ptr %node_name.addr, align 8
  store ptr %element_name, ptr %element_name.addr, align 8
  %frombool = zext i1 %subtract_from_self to i8
  store i8 %frombool, ptr %subtract_from_self.addr, align 1
  %this1 = load ptr, ptr %this.addr, align 8
  %0 = load ptr, ptr %value.addr, align 8
  %call = call ptr @_ZNKSt3setINSt7__cxx1112basic_stringIcSt11char_traitsIcESaIcEEESt4lessIS5_ESaIS5_EE5beginEv(ptr noundef nonnull align 8 dereferenceable(48) %0) #3
  %coerce.dive = getelementptr inbounds %"struct.std::_Rb_tree_const_iterator", ptr %ref.tmp, i32 0, i32 0
  store ptr %call, ptr %coerce.dive, align 8
  %1 = load ptr, ptr %value.addr, align 8
  %call3 = call ptr @_ZNKSt3setINSt7__cxx1112basic_stringIcSt11char_traitsIcESaIcEEESt4lessIS5_ESaIS5_EE3endEv(ptr noundef nonnull align 8 dereferenceable(48) %1) #3
  %coerce.dive4 = getelementptr inbounds %"struct.std::_Rb_tree_const_iterator", ptr %ref.tmp2, i32 0, i32 0
  store ptr %call3, ptr %coerce.dive4, align 8
  %call5 = call noundef zeroext i1 @_ZSteqRKSt23_Rb_tree_const_iteratorINSt7__cxx1112basic_stringIcSt11char_traitsIcESaIcEEEES8_(ptr noundef nonnull align 8 dereferenceable(8) %ref.tmp, ptr noundef nonnull align 8 dereferenceable(8) %ref.tmp2) #3
  br i1 %call5, label %if.then, label %if.end

if.then:                                          ; preds = %entry
  br label %return

if.end:                                           ; preds = %entry
  %call6 = call noundef ptr @_ZNK4node13MemoryTracker11CurrentNodeEv(ptr noundef nonnull align 8 dereferenceable(152) %this1)
  %cmp = icmp ne ptr %call6, null
  br i1 %cmp, label %land.lhs.true, label %if.end9

land.lhs.true:                                    ; preds = %if.end
  %2 = load i8, ptr %subtract_from_self.addr, align 1
  %tobool = trunc i8 %2 to i1
  br i1 %tobool, label %if.then7, label %if.end9

if.then7:                                         ; preds = %land.lhs.true
  %call8 = call noundef ptr @_ZNK4node13MemoryTracker11CurrentNodeEv(ptr noundef nonnull align 8 dereferenceable(152) %this1)
  %size_ = getelementptr inbounds %"class.node::MemoryRetainerNode", ptr %call8, i32 0, i32 6
  %3 = load i64, ptr %size_, align 8
  %sub = sub i64 %3, 48
  store i64 %sub, ptr %size_, align 8
  br label %if.end9

if.end9:                                          ; preds = %if.then7, %land.lhs.true, %if.end
  %4 = load ptr, ptr %node_name.addr, align 8
  %5 = load ptr, ptr %edge_name.addr, align 8
  %call10 = call noundef ptr @_ZN4node11GetNodeNameEPKcS1_(ptr noundef %4, ptr noundef %5)
  %6 = load ptr, ptr %edge_name.addr, align 8
  %call11 = call noundef ptr @_ZN4node13MemoryTracker8PushNodeEPKcmS2_(ptr noundef nonnull align 8 dereferenceable(152) %this1, ptr noundef %call10, i64 noundef 48, ptr noundef %6)
  %7 = load ptr, ptr %value.addr, align 8
  %call12 = call ptr @_ZNKSt3setINSt7__cxx1112basic_stringIcSt11char_traitsIcESaIcEEESt4lessIS5_ESaIS5_EE5beginEv(ptr noundef nonnull align 8 dereferenceable(48) %7) #3
  %coerce.dive13 = getelementptr inbounds %"struct.std::_Rb_tree_const_iterator", ptr %it, i32 0, i32 0
  store ptr %call12, ptr %coerce.dive13, align 8
  br label %for.cond

for.cond:                                         ; preds = %for.inc, %if.end9
  %8 = load ptr, ptr %value.addr, align 8
  %call15 = call ptr @_ZNKSt3setINSt7__cxx1112basic_stringIcSt11char_traitsIcESaIcEEESt4lessIS5_ESaIS5_EE3endEv(ptr noundef nonnull align 8 dereferenceable(48) %8) #3
  %coerce.dive16 = getelementptr inbounds %"struct.std::_Rb_tree_const_iterator", ptr %ref.tmp14, i32 0, i32 0
  store ptr %call15, ptr %coerce.dive16, align 8
  %call17 = call noundef zeroext i1 @_ZStneRKSt23_Rb_tree_const_iteratorINSt7__cxx1112basic_stringIcSt11char_traitsIcESaIcEEEES8_(ptr noundef nonnull align 8 dereferenceable(8) %it, ptr noundef nonnull align 8 dereferenceable(8) %ref.tmp14) #3
  br i1 %call17, label %for.body, label %for.end

for.body:                                         ; preds = %for.cond
  %call18 = call noundef nonnull align 8 dereferenceable(32) ptr @_ZNKSt23_Rb_tree_const_iteratorINSt7__cxx1112basic_stringIcSt11char_traitsIcESaIcEEEEdeEv(ptr noundef nonnull align 8 dereferenceable(8) %it) #3
  %9 = load ptr, ptr %element_name.addr, align 8
  call void @_ZN4node13MemoryTracker10TrackFieldIcEEvPKcRKNSt7__cxx1112basic_stringIT_St11char_traitsIS6_ESaIS6_EEES3_(ptr noundef nonnull align 8 dereferenceable(152) %this1, ptr noundef null, ptr noundef nonnull align 8 dereferenceable(32) %call18, ptr noundef %9)
  br label %for.inc

for.inc:                                          ; preds = %for.body
  %call19 = call noundef nonnull align 8 dereferenceable(8) ptr @_ZNSt23_Rb_tree_const_iteratorINSt7__cxx1112basic_stringIcSt11char_traitsIcESaIcEEEEppEv(ptr noundef nonnull align 8 dereferenceable(8) %it) #3
  br label %for.cond, !llvm.loop !5

for.end:                                          ; preds = %for.cond
  call void @_ZN4node13MemoryTracker7PopNodeEv(ptr noundef nonnull align 8 dereferenceable(152) %this1)
  br label %return

return:                                           ; preds = %for.end, %if.then
  ret void
}

; Function Attrs: mustprogress nounwind uwtable
define dso_local void @_ZN4node5Realm16CreatePropertiesEv(ptr noundef nonnull align 8 dereferenceable(872) %this) #4 align 2 {
entry:
  %this.addr.i.i988 = alloca ptr, align 8
  %this.addr.i989 = alloca ptr, align 8
  %this.addr.i.i983 = alloca ptr, align 8
  %this.addr.i984 = alloca ptr, align 8
  %this.addr.i980 = alloca ptr, align 8
  %other.addr.i981 = alloca ptr, align 8
  %this.addr.i977 = alloca ptr, align 8
  %other.addr.i978 = alloca ptr, align 8
  %this.addr.i974 = alloca ptr, align 8
  %other.addr.i975 = alloca ptr, align 8
  %this.addr.i971 = alloca ptr, align 8
  %other.addr.i972 = alloca ptr, align 8
  %this.addr.i968 = alloca ptr, align 8
  %other.addr.i969 = alloca ptr, align 8
  %this.addr.i965 = alloca ptr, align 8
  %other.addr.i966 = alloca ptr, align 8
  %this.addr.i962 = alloca ptr, align 8
  %other.addr.i963 = alloca ptr, align 8
  %this.addr.i959 = alloca ptr, align 8
  %other.addr.i960 = alloca ptr, align 8
  %this.addr.i956 = alloca ptr, align 8
  %other.addr.i957 = alloca ptr, align 8
  %this.addr.i953 = alloca ptr, align 8
  %other.addr.i954 = alloca ptr, align 8
  %this.addr.i950 = alloca ptr, align 8
  %other.addr.i951 = alloca ptr, align 8
  %this.addr.i947 = alloca ptr, align 8
  %other.addr.i948 = alloca ptr, align 8
  %this.addr.i944 = alloca ptr, align 8
  %other.addr.i945 = alloca ptr, align 8
  %this.addr.i941 = alloca ptr, align 8
  %other.addr.i942 = alloca ptr, align 8
  %this.addr.i938 = alloca ptr, align 8
  %other.addr.i939 = alloca ptr, align 8
  %this.addr.i935 = alloca ptr, align 8
  %other.addr.i936 = alloca ptr, align 8
  %this.addr.i932 = alloca ptr, align 8
  %other.addr.i933 = alloca ptr, align 8
  %this.addr.i929 = alloca ptr, align 8
  %other.addr.i930 = alloca ptr, align 8
  %this.addr.i926 = alloca ptr, align 8
  %other.addr.i927 = alloca ptr, align 8
  %this.addr.i923 = alloca ptr, align 8
  %other.addr.i924 = alloca ptr, align 8
  %this.addr.i920 = alloca ptr, align 8
  %other.addr.i921 = alloca ptr, align 8
  %this.addr.i917 = alloca ptr, align 8
  %other.addr.i918 = alloca ptr, align 8
  %this.addr.i914 = alloca ptr, align 8
  %other.addr.i915 = alloca ptr, align 8
  %this.addr.i911 = alloca ptr, align 8
  %other.addr.i912 = alloca ptr, align 8
  %this.addr.i908 = alloca ptr, align 8
  %other.addr.i909 = alloca ptr, align 8
  %this.addr.i905 = alloca ptr, align 8
  %other.addr.i906 = alloca ptr, align 8
  %retval.i902 = alloca %"class.v8::Local.294", align 8
  %that.i903 = alloca %"class.v8::Local.296", align 8
  %ref.tmp.i904 = alloca %"class.v8::LocalBase.295", align 8
  %retval.i899 = alloca %"class.v8::Local.294", align 8
  %that.i900 = alloca %"class.v8::Local.296", align 8
  %ref.tmp.i901 = alloca %"class.v8::LocalBase.295", align 8
  %retval.i896 = alloca %"class.v8::Local.294", align 8
  %that.i897 = alloca %"class.v8::Local.296", align 8
  %ref.tmp.i898 = alloca %"class.v8::LocalBase.295", align 8
  %retval.i893 = alloca %"class.v8::Local.294", align 8
  %that.i894 = alloca %"class.v8::Local.296", align 8
  %ref.tmp.i895 = alloca %"class.v8::LocalBase.295", align 8
  %retval.i890 = alloca %"class.v8::Local.294", align 8
  %that.i891 = alloca %"class.v8::Local.296", align 8
  %ref.tmp.i892 = alloca %"class.v8::LocalBase.295", align 8
  %retval.i887 = alloca %"class.v8::Local.294", align 8
  %that.i888 = alloca %"class.v8::Local.296", align 8
  %ref.tmp.i889 = alloca %"class.v8::LocalBase.295", align 8
  %retval.i884 = alloca %"class.v8::Local.294", align 8
  %that.i885 = alloca %"class.v8::Local.296", align 8
  %ref.tmp.i886 = alloca %"class.v8::LocalBase.295", align 8
  %retval.i881 = alloca %"class.v8::Local.294", align 8
  %that.i882 = alloca %"class.v8::Local.296", align 8
  %ref.tmp.i883 = alloca %"class.v8::LocalBase.295", align 8
  %retval.i878 = alloca %"class.v8::Local.294", align 8
  %that.i879 = alloca %"class.v8::Local.296", align 8
  %ref.tmp.i880 = alloca %"class.v8::LocalBase.295", align 8
  %retval.i875 = alloca %"class.v8::Local.294", align 8
  %that.i876 = alloca %"class.v8::Local.296", align 8
  %ref.tmp.i877 = alloca %"class.v8::LocalBase.295", align 8
  %retval.i872 = alloca %"class.v8::Local.294", align 8
  %that.i873 = alloca %"class.v8::Local.296", align 8
  %ref.tmp.i874 = alloca %"class.v8::LocalBase.295", align 8
  %retval.i869 = alloca %"class.v8::Local.294", align 8
  %that.i870 = alloca %"class.v8::Local.296", align 8
  %ref.tmp.i871 = alloca %"class.v8::LocalBase.295", align 8
  %retval.i867 = alloca %"class.v8::Local.294", align 8
  %that.i868 = alloca %"class.v8::Local.296", align 8
  %ref.tmp.i = alloca %"class.v8::LocalBase.295", align 8
  %slot.addr.i866 = alloca ptr, align 8
  %slot.addr.i865 = alloca ptr, align 8
  %slot.addr.i864 = alloca ptr, align 8
  %slot.addr.i863 = alloca ptr, align 8
  %slot.addr.i862 = alloca ptr, align 8
  %slot.addr.i861 = alloca ptr, align 8
  %slot.addr.i860 = alloca ptr, align 8
  %slot.addr.i859 = alloca ptr, align 8
  %slot.addr.i858 = alloca ptr, align 8
  %this.addr.i.i853 = alloca ptr, align 8
  %this.addr.i854 = alloca ptr, align 8
  %this.addr.i.i848 = alloca ptr, align 8
  %this.addr.i849 = alloca ptr, align 8
  %this.addr.i.i843 = alloca ptr, align 8
  %this.addr.i844 = alloca ptr, align 8
  %this.addr.i.i838 = alloca ptr, align 8
  %this.addr.i839 = alloca ptr, align 8
  %this.addr.i.i833 = alloca ptr, align 8
  %this.addr.i834 = alloca ptr, align 8
  %this.addr.i.i828 = alloca ptr, align 8
  %this.addr.i829 = alloca ptr, align 8
  %this.addr.i.i823 = alloca ptr, align 8
  %this.addr.i824 = alloca ptr, align 8
  %this.addr.i.i818 = alloca ptr, align 8
  %this.addr.i819 = alloca ptr, align 8
  %this.addr.i.i814 = alloca ptr, align 8
  %this.addr.i815 = alloca ptr, align 8
  %this.addr.i811 = alloca ptr, align 8
  %other.addr.i812 = alloca ptr, align 8
  %this.addr.i808 = alloca ptr, align 8
  %other.addr.i809 = alloca ptr, align 8
  %this.addr.i805 = alloca ptr, align 8
  %other.addr.i806 = alloca ptr, align 8
  %this.addr.i802 = alloca ptr, align 8
  %other.addr.i803 = alloca ptr, align 8
  %this.addr.i799 = alloca ptr, align 8
  %other.addr.i800 = alloca ptr, align 8
  %this.addr.i796 = alloca ptr, align 8
  %other.addr.i797 = alloca ptr, align 8
  %this.addr.i793 = alloca ptr, align 8
  %other.addr.i794 = alloca ptr, align 8
  %this.addr.i790 = alloca ptr, align 8
  %other.addr.i791 = alloca ptr, align 8
  %this.addr.i788 = alloca ptr, align 8
  %other.addr.i = alloca ptr, align 8
  %slot.addr.i787 = alloca ptr, align 8
  %slot.addr.i786 = alloca ptr, align 8
  %slot.addr.i785 = alloca ptr, align 8
  %slot.addr.i784 = alloca ptr, align 8
  %slot.addr.i783 = alloca ptr, align 8
  %slot.addr.i782 = alloca ptr, align 8
  %slot.addr.i781 = alloca ptr, align 8
  %slot.addr.i780 = alloca ptr, align 8
  %slot.addr.i = alloca ptr, align 8
  %this.addr.i.i775 = alloca ptr, align 8
  %this.addr.i776 = alloca ptr, align 8
  %this.addr.i.i770 = alloca ptr, align 8
  %this.addr.i771 = alloca ptr, align 8
  %this.addr.i.i765 = alloca ptr, align 8
  %this.addr.i766 = alloca ptr, align 8
  %this.addr.i.i760 = alloca ptr, align 8
  %this.addr.i761 = alloca ptr, align 8
  %this.addr.i.i755 = alloca ptr, align 8
  %this.addr.i756 = alloca ptr, align 8
  %this.addr.i.i750 = alloca ptr, align 8
  %this.addr.i751 = alloca ptr, align 8
  %this.addr.i.i745 = alloca ptr, align 8
  %this.addr.i746 = alloca ptr, align 8
  %this.addr.i.i740 = alloca ptr, align 8
  %this.addr.i741 = alloca ptr, align 8
  %this.addr.i.i736 = alloca ptr, align 8
  %this.addr.i737 = alloca ptr, align 8
  %this.addr.i.i732 = alloca ptr, align 8
  %this.addr.i733 = alloca ptr, align 8
  %this.addr.i.i727 = alloca ptr, align 8
  %this.addr.i728 = alloca ptr, align 8
  %this.addr.i.i722 = alloca ptr, align 8
  %this.addr.i723 = alloca ptr, align 8
  %this.addr.i.i717 = alloca ptr, align 8
  %this.addr.i718 = alloca ptr, align 8
  %this.addr.i.i712 = alloca ptr, align 8
  %this.addr.i713 = alloca ptr, align 8
  %this.addr.i.i707 = alloca ptr, align 8
  %this.addr.i708 = alloca ptr, align 8
  %this.addr.i.i702 = alloca ptr, align 8
  %this.addr.i703 = alloca ptr, align 8
  %this.addr.i.i697 = alloca ptr, align 8
  %this.addr.i698 = alloca ptr, align 8
  %this.addr.i.i692 = alloca ptr, align 8
  %this.addr.i693 = alloca ptr, align 8
  %this.addr.i.i = alloca ptr, align 8
  %this.addr.i690 = alloca ptr, align 8
  %this.addr.i688 = alloca ptr, align 8
  %retval.i684 = alloca %"class.v8::Local.294", align 8
  %default_value.i = alloca %"class.v8::Local.294", align 8
  %this.addr.i685 = alloca ptr, align 8
  %retval.i679 = alloca %"class.v8::Local.294", align 8
  %this.addr.i680 = alloca ptr, align 8
  %agg.tmp.i681 = alloca %"class.v8::Local.296", align 8
  %retval.i674 = alloca %"class.v8::Local.294", align 8
  %this.addr.i675 = alloca ptr, align 8
  %agg.tmp.i676 = alloca %"class.v8::Local.296", align 8
  %retval.i669 = alloca %"class.v8::Local.294", align 8
  %this.addr.i670 = alloca ptr, align 8
  %agg.tmp.i671 = alloca %"class.v8::Local.296", align 8
  %retval.i664 = alloca %"class.v8::Local.294", align 8
  %this.addr.i665 = alloca ptr, align 8
  %agg.tmp.i666 = alloca %"class.v8::Local.296", align 8
  %retval.i659 = alloca %"class.v8::Local.294", align 8
  %this.addr.i660 = alloca ptr, align 8
  %agg.tmp.i661 = alloca %"class.v8::Local.296", align 8
  %retval.i654 = alloca %"class.v8::Local.294", align 8
  %this.addr.i655 = alloca ptr, align 8
  %agg.tmp.i656 = alloca %"class.v8::Local.296", align 8
  %retval.i649 = alloca %"class.v8::Local.294", align 8
  %this.addr.i650 = alloca ptr, align 8
  %agg.tmp.i651 = alloca %"class.v8::Local.296", align 8
  %retval.i644 = alloca %"class.v8::Local.294", align 8
  %this.addr.i645 = alloca ptr, align 8
  %agg.tmp.i646 = alloca %"class.v8::Local.296", align 8
  %retval.i639 = alloca %"class.v8::Local.294", align 8
  %this.addr.i640 = alloca ptr, align 8
  %agg.tmp.i641 = alloca %"class.v8::Local.296", align 8
  %retval.i634 = alloca %"class.v8::Local.294", align 8
  %this.addr.i635 = alloca ptr, align 8
  %agg.tmp.i636 = alloca %"class.v8::Local.296", align 8
  %retval.i629 = alloca %"class.v8::Local.294", align 8
  %this.addr.i630 = alloca ptr, align 8
  %agg.tmp.i631 = alloca %"class.v8::Local.296", align 8
  %retval.i624 = alloca %"class.v8::Local.294", align 8
  %this.addr.i625 = alloca ptr, align 8
  %agg.tmp.i626 = alloca %"class.v8::Local.296", align 8
  %retval.i620 = alloca %"class.v8::Local.294", align 8
  %this.addr.i621 = alloca ptr, align 8
  %agg.tmp.i = alloca %"class.v8::Local.296", align 8
  %this.addr.i617 = alloca ptr, align 8
  %this.addr.i614 = alloca ptr, align 8
  %this.addr.i611 = alloca ptr, align 8
  %this.addr.i608 = alloca ptr, align 8
  %this.addr.i605 = alloca ptr, align 8
  %this.addr.i602 = alloca ptr, align 8
  %this.addr.i599 = alloca ptr, align 8
  %this.addr.i596 = alloca ptr, align 8
  %this.addr.i593 = alloca ptr, align 8
  %retval.i586 = alloca %"class.v8::Local.296", align 8
  %this.addr.i587 = alloca ptr, align 8
  %retval.i579 = alloca %"class.v8::Local.296", align 8
  %this.addr.i580 = alloca ptr, align 8
  %retval.i572 = alloca %"class.v8::Local.296", align 8
  %this.addr.i573 = alloca ptr, align 8
  %retval.i565 = alloca %"class.v8::Local.296", align 8
  %this.addr.i566 = alloca ptr, align 8
  %retval.i558 = alloca %"class.v8::Local.296", align 8
  %this.addr.i559 = alloca ptr, align 8
  %retval.i551 = alloca %"class.v8::Local.296", align 8
  %this.addr.i552 = alloca ptr, align 8
  %retval.i544 = alloca %"class.v8::Local.296", align 8
  %this.addr.i545 = alloca ptr, align 8
  %retval.i537 = alloca %"class.v8::Local.296", align 8
  %this.addr.i538 = alloca ptr, align 8
  %retval.i531 = alloca %"class.v8::Local.296", align 8
  %this.addr.i532 = alloca ptr, align 8
  %that.i528 = alloca %"class.v8::Local.299", align 8
  %this.addr.i529 = alloca ptr, align 8
  %that.i525 = alloca %"class.v8::Local.299", align 8
  %this.addr.i526 = alloca ptr, align 8
  %that.i522 = alloca %"class.v8::Local.299", align 8
  %this.addr.i523 = alloca ptr, align 8
  %that.i519 = alloca %"class.v8::Local.299", align 8
  %this.addr.i520 = alloca ptr, align 8
  %that.i516 = alloca %"class.v8::Local.299", align 8
  %this.addr.i517 = alloca ptr, align 8
  %that.i513 = alloca %"class.v8::Local.299", align 8
  %this.addr.i514 = alloca ptr, align 8
  %that.i510 = alloca %"class.v8::Local.299", align 8
  %this.addr.i511 = alloca ptr, align 8
  %that.i507 = alloca %"class.v8::Local.299", align 8
  %this.addr.i508 = alloca ptr, align 8
  %that.i = alloca %"class.v8::Local.299", align 8
  %this.addr.i506 = alloca ptr, align 8
  %this.addr.i503 = alloca ptr, align 8
  %this.addr.i500 = alloca ptr, align 8
  %this.addr.i497 = alloca ptr, align 8
  %this.addr.i494 = alloca ptr, align 8
  %this.addr.i491 = alloca ptr, align 8
  %this.addr.i488 = alloca ptr, align 8
  %this.addr.i485 = alloca ptr, align 8
  %this.addr.i482 = alloca ptr, align 8
  %this.addr.i479 = alloca ptr, align 8
  %retval.i = alloca %"class.v8::Local.294", align 8
  %this.addr.i = alloca ptr, align 8
  %this.addr = alloca ptr, align 8
  %handle_scope = alloca %"class.v8::HandleScope", align 8
  %ctx = alloca %"class.v8::Local", align 8
  %per_context_bindings = alloca %"class.v8::Local.294", align 8
  %ref.tmp = alloca %"class.v8::MaybeLocal", align 8
  %agg.tmp = alloca %"class.v8::Local", align 8
  %primordials = alloca %"class.v8::Local.296", align 8
  %ref.tmp16 = alloca %"class.v8::MaybeLocal.298", align 8
  %agg.tmp18 = alloca %"class.v8::Local", align 8
  %agg.tmp19 = alloca %"class.v8::Local.296", align 8
  %agg.tmp20 = alloca %"class.v8::Local.299", align 8
  %agg.tmp50 = alloca %"class.v8::Local.294", align 8
  %prototype_string = alloca %"class.v8::Local.299", align 8
  %ctor = alloca %"class.v8::Local.296", align 8
  %ref.tmp65 = alloca %"class.v8::MaybeLocal.298", align 8
  %ref.tmp66 = alloca %"class.v8::Local.294", align 8
  %agg.tmp72 = alloca %"class.v8::Local", align 8
  %agg.tmp73 = alloca %"class.v8::Local.296", align 8
  %agg.tmp74 = alloca %"class.v8::Local.299", align 8
  %prototype = alloca %"class.v8::Local.296", align 8
  %ref.tmp111 = alloca %"class.v8::MaybeLocal.298", align 8
  %ref.tmp112 = alloca %"class.v8::Local.294", align 8
  %agg.tmp118 = alloca %"class.v8::Local", align 8
  %agg.tmp119 = alloca %"class.v8::Local.296", align 8
  %agg.tmp120 = alloca %"class.v8::Local.299", align 8
  %agg.tmp152 = alloca %"class.v8::Local.294", align 8
  %ctor162 = alloca %"class.v8::Local.296", align 8
  %ref.tmp163 = alloca %"class.v8::MaybeLocal.298", align 8
  %ref.tmp164 = alloca %"class.v8::Local.294", align 8
  %agg.tmp170 = alloca %"class.v8::Local", align 8
  %agg.tmp171 = alloca %"class.v8::Local.296", align 8
  %agg.tmp172 = alloca %"class.v8::Local.299", align 8
  %prototype209 = alloca %"class.v8::Local.296", align 8
  %ref.tmp210 = alloca %"class.v8::MaybeLocal.298", align 8
  %ref.tmp211 = alloca %"class.v8::Local.294", align 8
  %agg.tmp217 = alloca %"class.v8::Local", align 8
  %agg.tmp218 = alloca %"class.v8::Local.296", align 8
  %agg.tmp219 = alloca %"class.v8::Local.299", align 8
  %agg.tmp251 = alloca %"class.v8::Local.294", align 8
  %ctor261 = alloca %"class.v8::Local.296", align 8
  %ref.tmp262 = alloca %"class.v8::MaybeLocal.298", align 8
  %ref.tmp263 = alloca %"class.v8::Local.294", align 8
  %agg.tmp269 = alloca %"class.v8::Local", align 8
  %agg.tmp270 = alloca %"class.v8::Local.296", align 8
  %agg.tmp271 = alloca %"class.v8::Local.299", align 8
  %prototype308 = alloca %"class.v8::Local.296", align 8
  %ref.tmp309 = alloca %"class.v8::MaybeLocal.298", align 8
  %ref.tmp310 = alloca %"class.v8::Local.294", align 8
  %agg.tmp316 = alloca %"class.v8::Local", align 8
  %agg.tmp317 = alloca %"class.v8::Local.296", align 8
  %agg.tmp318 = alloca %"class.v8::Local.299", align 8
  %agg.tmp350 = alloca %"class.v8::Local.294", align 8
  %ctor360 = alloca %"class.v8::Local.296", align 8
  %ref.tmp361 = alloca %"class.v8::MaybeLocal.298", align 8
  %ref.tmp362 = alloca %"class.v8::Local.294", align 8
  %agg.tmp368 = alloca %"class.v8::Local", align 8
  %agg.tmp369 = alloca %"class.v8::Local.296", align 8
  %agg.tmp370 = alloca %"class.v8::Local.299", align 8
  %prototype407 = alloca %"class.v8::Local.296", align 8
  %ref.tmp408 = alloca %"class.v8::MaybeLocal.298", align 8
  %ref.tmp409 = alloca %"class.v8::Local.294", align 8
  %agg.tmp415 = alloca %"class.v8::Local", align 8
  %agg.tmp416 = alloca %"class.v8::Local.296", align 8
  %agg.tmp417 = alloca %"class.v8::Local.299", align 8
  %agg.tmp449 = alloca %"class.v8::Local.294", align 8
  %process_object = alloca %"class.v8::Local.294", align 8
  %ref.tmp459 = alloca %"class.v8::MaybeLocal", align 8
  %agg.tmp465 = alloca %"class.v8::Local.294", align 8
  %agg.tmp473 = alloca %"class.v8::Local.294", align 8
  store ptr %this, ptr %this.addr, align 8
  %this1 = load ptr, ptr %this.addr, align 8
  %isolate_ = getelementptr inbounds %"class.node::Realm", ptr %this1, i32 0, i32 6
  %0 = load ptr, ptr %isolate_, align 8
  call void @_ZN2v811HandleScopeC1EPNS_7IsolateE(ptr noundef nonnull align 8 dereferenceable(24) %handle_scope, ptr noundef %0)
  %vtable = load ptr, ptr %this1, align 8
  %vfn = getelementptr inbounds ptr, ptr %vtable, i64 8
  %1 = load ptr, ptr %vfn, align 8
  %call = call ptr %1(ptr noundef nonnull align 8 dereferenceable(872) %this1)
  %coerce.dive = getelementptr inbounds %"class.v8::Local", ptr %ctx, i32 0, i32 0
  %coerce.dive2 = getelementptr inbounds %"class.v8::LocalBase", ptr %coerce.dive, i32 0, i32 0
  %coerce.dive3 = getelementptr inbounds %"class.v8::IndirectHandleBase", ptr %coerce.dive2, i32 0, i32 0
  store ptr %call, ptr %coerce.dive3, align 8
  call void @llvm.memcpy.p0.p0.i64(ptr align 8 %agg.tmp, ptr align 8 %ctx, i64 8, i1 false)
  %coerce.dive4 = getelementptr inbounds %"class.v8::Local", ptr %agg.tmp, i32 0, i32 0
  %coerce.dive5 = getelementptr inbounds %"class.v8::LocalBase", ptr %coerce.dive4, i32 0, i32 0
  %coerce.dive6 = getelementptr inbounds %"class.v8::IndirectHandleBase", ptr %coerce.dive5, i32 0, i32 0
  %2 = load ptr, ptr %coerce.dive6, align 8
  %call7 = call ptr @_ZN4node20GetPerContextExportsEN2v85LocalINS0_7ContextEEE(ptr %2)
  %coerce.dive8 = getelementptr inbounds %"class.v8::MaybeLocal", ptr %ref.tmp, i32 0, i32 0
  %coerce.dive9 = getelementptr inbounds %"class.v8::Local.294", ptr %coerce.dive8, i32 0, i32 0
  %coerce.dive10 = getelementptr inbounds %"class.v8::LocalBase.295", ptr %coerce.dive9, i32 0, i32 0
  %coerce.dive11 = getelementptr inbounds %"class.v8::IndirectHandleBase", ptr %coerce.dive10, i32 0, i32 0
  store ptr %call7, ptr %coerce.dive11, align 8
  store ptr %ref.tmp, ptr %this.addr.i, align 8
  %this1.i = load ptr, ptr %this.addr.i, align 8
  store ptr %this1.i, ptr %this.addr.i989, align 8
  %this1.i990 = load ptr, ptr %this.addr.i989, align 8
  store ptr %this1.i990, ptr %this.addr.i.i988, align 8
  %this1.i.i991 = load ptr, ptr %this.addr.i.i988, align 8
  %3 = load ptr, ptr %this1.i.i991, align 8
  %cmp.i.i992 = icmp eq ptr %3, null
  br i1 %cmp.i.i992, label %if.then.i, label %_ZN2v810MaybeLocalINS_6ObjectEE14ToLocalCheckedEv.exit

if.then.i:                                        ; preds = %entry
  call void @_ZN2v812api_internal12ToLocalEmptyEv() #3
  br label %_ZN2v810MaybeLocalINS_6ObjectEE14ToLocalCheckedEv.exit

_ZN2v810MaybeLocalINS_6ObjectEE14ToLocalCheckedEv.exit: ; preds = %if.then.i, %entry
  call void @llvm.memcpy.p0.p0.i64(ptr align 8 %retval.i, ptr align 8 %this1.i, i64 8, i1 false)
  %4 = load ptr, ptr %retval.i, align 8
  %coerce.dive13 = getelementptr inbounds %"class.v8::Local.294", ptr %per_context_bindings, i32 0, i32 0
  %coerce.dive14 = getelementptr inbounds %"class.v8::LocalBase.295", ptr %coerce.dive13, i32 0, i32 0
  %coerce.dive15 = getelementptr inbounds %"class.v8::IndirectHandleBase", ptr %coerce.dive14, i32 0, i32 0
  store ptr %4, ptr %coerce.dive15, align 8
  store ptr %per_context_bindings, ptr %this.addr.i503, align 8
  %this1.i504 = load ptr, ptr %this.addr.i503, align 8
  store ptr %this1.i504, ptr %this.addr.i737, align 8
  %this1.i738 = load ptr, ptr %this.addr.i737, align 8
  store ptr %this1.i738, ptr %this.addr.i.i736, align 8
  %this1.i.i739 = load ptr, ptr %this.addr.i.i736, align 8
  %5 = load ptr, ptr %this1.i.i739, align 8
  store ptr %5, ptr %slot.addr.i787, align 8
  %6 = load ptr, ptr %slot.addr.i787, align 8
  call void @llvm.memcpy.p0.p0.i64(ptr align 8 %agg.tmp18, ptr align 8 %ctx, i64 8, i1 false)
  %env_ = getelementptr inbounds %"class.node::Realm", ptr %this1, i32 0, i32 5
  %7 = load ptr, ptr %env_, align 8
  %call21 = call ptr @_ZNK4node11Environment18primordials_stringEv(ptr noundef nonnull align 8 dereferenceable(2872) %7)
  %coerce.dive22 = getelementptr inbounds %"class.v8::Local.299", ptr %agg.tmp20, i32 0, i32 0
  %coerce.dive23 = getelementptr inbounds %"class.v8::LocalBase.300", ptr %coerce.dive22, i32 0, i32 0
  %coerce.dive24 = getelementptr inbounds %"class.v8::IndirectHandleBase", ptr %coerce.dive23, i32 0, i32 0
  store ptr %call21, ptr %coerce.dive24, align 8
  %coerce.dive25 = getelementptr inbounds %"class.v8::Local.299", ptr %agg.tmp20, i32 0, i32 0
  %coerce.dive26 = getelementptr inbounds %"class.v8::LocalBase.300", ptr %coerce.dive25, i32 0, i32 0
  %coerce.dive27 = getelementptr inbounds %"class.v8::IndirectHandleBase", ptr %coerce.dive26, i32 0, i32 0
  %8 = load ptr, ptr %coerce.dive27, align 8
  store ptr %8, ptr %that.i, align 8
  store ptr %agg.tmp19, ptr %this.addr.i506, align 8
  %this3.i = load ptr, ptr %this.addr.i506, align 8
  store ptr %this3.i, ptr %this.addr.i811, align 8
  store ptr %that.i, ptr %other.addr.i812, align 8
  %this1.i813 = load ptr, ptr %this.addr.i811, align 8
  %9 = load ptr, ptr %other.addr.i812, align 8
  call void @llvm.memcpy.p0.p0.i64(ptr align 8 %this1.i813, ptr align 8 %9, i64 8, i1 false)
  %coerce.dive28 = getelementptr inbounds %"class.v8::Local", ptr %agg.tmp18, i32 0, i32 0
  %coerce.dive29 = getelementptr inbounds %"class.v8::LocalBase", ptr %coerce.dive28, i32 0, i32 0
  %coerce.dive30 = getelementptr inbounds %"class.v8::IndirectHandleBase", ptr %coerce.dive29, i32 0, i32 0
  %10 = load ptr, ptr %coerce.dive30, align 8
  %coerce.dive31 = getelementptr inbounds %"class.v8::Local.296", ptr %agg.tmp19, i32 0, i32 0
  %coerce.dive32 = getelementptr inbounds %"class.v8::LocalBase.297", ptr %coerce.dive31, i32 0, i32 0
  %coerce.dive33 = getelementptr inbounds %"class.v8::IndirectHandleBase", ptr %coerce.dive32, i32 0, i32 0
  %11 = load ptr, ptr %coerce.dive33, align 8
  %call34 = call ptr @_ZN2v86Object3GetENS_5LocalINS_7ContextEEENS1_INS_5ValueEEE(ptr noundef nonnull align 1 dereferenceable(1) %6, ptr %10, ptr %11)
  %coerce.dive35 = getelementptr inbounds %"class.v8::MaybeLocal.298", ptr %ref.tmp16, i32 0, i32 0
  %coerce.dive36 = getelementptr inbounds %"class.v8::Local.296", ptr %coerce.dive35, i32 0, i32 0
  %coerce.dive37 = getelementptr inbounds %"class.v8::LocalBase.297", ptr %coerce.dive36, i32 0, i32 0
  %coerce.dive38 = getelementptr inbounds %"class.v8::IndirectHandleBase", ptr %coerce.dive37, i32 0, i32 0
  store ptr %call34, ptr %coerce.dive38, align 8
  store ptr %ref.tmp16, ptr %this.addr.i587, align 8
  %this1.i588 = load ptr, ptr %this.addr.i587, align 8
  store ptr %this1.i588, ptr %this.addr.i690, align 8
  %this1.i691 = load ptr, ptr %this.addr.i690, align 8
  store ptr %this1.i691, ptr %this.addr.i.i, align 8
  %this1.i.i = load ptr, ptr %this.addr.i.i, align 8
  %12 = load ptr, ptr %this1.i.i, align 8
  %cmp.i.i = icmp eq ptr %12, null
  br i1 %cmp.i.i, label %if.then.i591, label %_ZN2v810MaybeLocalINS_5ValueEE14ToLocalCheckedEv.exit592

if.then.i591:                                     ; preds = %_ZN2v810MaybeLocalINS_6ObjectEE14ToLocalCheckedEv.exit
  call void @_ZN2v812api_internal12ToLocalEmptyEv() #3
  br label %_ZN2v810MaybeLocalINS_5ValueEE14ToLocalCheckedEv.exit592

_ZN2v810MaybeLocalINS_5ValueEE14ToLocalCheckedEv.exit592: ; preds = %if.then.i591, %_ZN2v810MaybeLocalINS_6ObjectEE14ToLocalCheckedEv.exit
  call void @llvm.memcpy.p0.p0.i64(ptr align 8 %retval.i586, ptr align 8 %this1.i588, i64 8, i1 false)
  %13 = load ptr, ptr %retval.i586, align 8
  %coerce.dive40 = getelementptr inbounds %"class.v8::Local.296", ptr %primordials, i32 0, i32 0
  %coerce.dive41 = getelementptr inbounds %"class.v8::LocalBase.297", ptr %coerce.dive40, i32 0, i32 0
  %coerce.dive42 = getelementptr inbounds %"class.v8::IndirectHandleBase", ptr %coerce.dive41, i32 0, i32 0
  store ptr %13, ptr %coerce.dive42, align 8
  br label %do.body

do.body:                                          ; preds = %_ZN2v810MaybeLocalINS_5ValueEE14ToLocalCheckedEv.exit592
  store ptr %primordials, ptr %this.addr.i617, align 8
  %this1.i618 = load ptr, ptr %this.addr.i617, align 8
  store ptr %this1.i618, ptr %this.addr.i815, align 8
  %this1.i816 = load ptr, ptr %this.addr.i815, align 8
  store ptr %this1.i816, ptr %this.addr.i.i814, align 8
  %this1.i.i817 = load ptr, ptr %this.addr.i.i814, align 8
  %14 = load ptr, ptr %this1.i.i817, align 8
  store ptr %14, ptr %slot.addr.i866, align 8
  %15 = load ptr, ptr %slot.addr.i866, align 8
  %call44 = call noundef zeroext i1 @_ZNK2v85Value8IsObjectEv(ptr noundef nonnull align 1 dereferenceable(1) %15)
  %lnot = xor i1 %call44, true
  %lnot45 = xor i1 %lnot, true
  %lnot46 = xor i1 %lnot45, true
  br i1 %lnot46, label %if.then, label %if.end

if.then:                                          ; preds = %do.body
  br label %do.body47

do.body47:                                        ; preds = %if.then
  call void @_ZN4node6AssertERKNS_13AssertionInfoE(ptr noundef nonnull align 8 dereferenceable(24) @_ZZN4node5Realm16CreatePropertiesEvE4args)
  call void @abort() #15
  unreachable

do.cond:                                          ; No predecessors!
  br label %do.end

do.end:                                           ; preds = %do.cond
  br label %if.end

if.end:                                           ; preds = %do.end, %do.body
  br label %do.cond48

do.cond48:                                        ; preds = %if.end
  br label %do.end49

do.end49:                                         ; preds = %do.cond48
  store ptr %primordials, ptr %this.addr.i680, align 8
  %this1.i682 = load ptr, ptr %this.addr.i680, align 8
  call void @llvm.memcpy.p0.p0.i64(ptr align 8 %agg.tmp.i681, ptr align 8 %this1.i682, i64 8, i1 false)
  %16 = load ptr, ptr %agg.tmp.i681, align 8
  store ptr %16, ptr %that.i868, align 8
  store ptr %ref.tmp.i, ptr %this.addr.i941, align 8
  store ptr %that.i868, ptr %other.addr.i942, align 8
  %this1.i943 = load ptr, ptr %this.addr.i941, align 8
  %17 = load ptr, ptr %other.addr.i942, align 8
  call void @llvm.memcpy.p0.p0.i64(ptr align 8 %this1.i943, ptr align 8 %17, i64 8, i1 false)
  store ptr %retval.i867, ptr %this.addr.i980, align 8
  store ptr %ref.tmp.i, ptr %other.addr.i981, align 8
  %this1.i982 = load ptr, ptr %this.addr.i980, align 8
  %18 = load ptr, ptr %other.addr.i981, align 8
  call void @llvm.memcpy.p0.p0.i64(ptr align 8 %this1.i982, ptr align 8 %18, i64 8, i1 false)
  %19 = load ptr, ptr %retval.i867, align 8
  store ptr %19, ptr %retval.i679, align 8
  %20 = load ptr, ptr %retval.i679, align 8
  %coerce.dive52 = getelementptr inbounds %"class.v8::Local.294", ptr %agg.tmp50, i32 0, i32 0
  %coerce.dive53 = getelementptr inbounds %"class.v8::LocalBase.295", ptr %coerce.dive52, i32 0, i32 0
  %coerce.dive54 = getelementptr inbounds %"class.v8::IndirectHandleBase", ptr %coerce.dive53, i32 0, i32 0
  store ptr %20, ptr %coerce.dive54, align 8
  %coerce.dive55 = getelementptr inbounds %"class.v8::Local.294", ptr %agg.tmp50, i32 0, i32 0
  %coerce.dive56 = getelementptr inbounds %"class.v8::LocalBase.295", ptr %coerce.dive55, i32 0, i32 0
  %coerce.dive57 = getelementptr inbounds %"class.v8::IndirectHandleBase", ptr %coerce.dive56, i32 0, i32 0
  %21 = load ptr, ptr %coerce.dive57, align 8
  %vtable58 = load ptr, ptr %this1, align 8
  %vfn59 = getelementptr inbounds ptr, ptr %vtable58, i64 92
  %22 = load ptr, ptr %vfn59, align 8
  call void %22(ptr noundef nonnull align 8 dereferenceable(872) %this1, ptr %21)
  %call60 = call noundef ptr @_ZNK4node5Realm7isolateEv(ptr noundef nonnull align 8 dereferenceable(872) %this1)
  %call61 = call ptr @_ZN4node21FIXED_ONE_BYTE_STRINGILi10EEEN2v85LocalINS1_6StringEEEPNS1_7IsolateERAT__Kc(ptr noundef %call60, ptr noundef nonnull align 1 dereferenceable(10) @.str.70)
  %coerce.dive62 = getelementptr inbounds %"class.v8::Local.299", ptr %prototype_string, i32 0, i32 0
  %coerce.dive63 = getelementptr inbounds %"class.v8::LocalBase.300", ptr %coerce.dive62, i32 0, i32 0
  %coerce.dive64 = getelementptr inbounds %"class.v8::IndirectHandleBase", ptr %coerce.dive63, i32 0, i32 0
  store ptr %call61, ptr %coerce.dive64, align 8
  store ptr %primordials, ptr %this.addr.i675, align 8
  %this1.i677 = load ptr, ptr %this.addr.i675, align 8
  call void @llvm.memcpy.p0.p0.i64(ptr align 8 %agg.tmp.i676, ptr align 8 %this1.i677, i64 8, i1 false)
  %23 = load ptr, ptr %agg.tmp.i676, align 8
  store ptr %23, ptr %that.i870, align 8
  store ptr %ref.tmp.i871, ptr %this.addr.i938, align 8
  store ptr %that.i870, ptr %other.addr.i939, align 8
  %this1.i940 = load ptr, ptr %this.addr.i938, align 8
  %24 = load ptr, ptr %other.addr.i939, align 8
  call void @llvm.memcpy.p0.p0.i64(ptr align 8 %this1.i940, ptr align 8 %24, i64 8, i1 false)
  store ptr %retval.i869, ptr %this.addr.i977, align 8
  store ptr %ref.tmp.i871, ptr %other.addr.i978, align 8
  %this1.i979 = load ptr, ptr %this.addr.i977, align 8
  %25 = load ptr, ptr %other.addr.i978, align 8
  call void @llvm.memcpy.p0.p0.i64(ptr align 8 %this1.i979, ptr align 8 %25, i64 8, i1 false)
  %26 = load ptr, ptr %retval.i869, align 8
  store ptr %26, ptr %retval.i674, align 8
  %27 = load ptr, ptr %retval.i674, align 8
  %coerce.dive68 = getelementptr inbounds %"class.v8::Local.294", ptr %ref.tmp66, i32 0, i32 0
  %coerce.dive69 = getelementptr inbounds %"class.v8::LocalBase.295", ptr %coerce.dive68, i32 0, i32 0
  %coerce.dive70 = getelementptr inbounds %"class.v8::IndirectHandleBase", ptr %coerce.dive69, i32 0, i32 0
  store ptr %27, ptr %coerce.dive70, align 8
  store ptr %ref.tmp66, ptr %this.addr.i500, align 8
  %this1.i501 = load ptr, ptr %this.addr.i500, align 8
  store ptr %this1.i501, ptr %this.addr.i741, align 8
  %this1.i742 = load ptr, ptr %this.addr.i741, align 8
  store ptr %this1.i742, ptr %this.addr.i.i740, align 8
  %this1.i.i743 = load ptr, ptr %this.addr.i.i740, align 8
  %28 = load ptr, ptr %this1.i.i743, align 8
  store ptr %28, ptr %slot.addr.i786, align 8
  %29 = load ptr, ptr %slot.addr.i786, align 8
  call void @llvm.memcpy.p0.p0.i64(ptr align 8 %agg.tmp72, ptr align 8 %ctx, i64 8, i1 false)
  %call75 = call noundef ptr @_ZNK4node5Realm7isolateEv(ptr noundef nonnull align 8 dereferenceable(872) %this1)
  %call76 = call ptr @_ZN4node21FIXED_ONE_BYTE_STRINGILi8EEEN2v85LocalINS1_6StringEEEPNS1_7IsolateERAT__Kc(ptr noundef %call75, ptr noundef nonnull align 1 dereferenceable(8) @.str.71)
  %coerce.dive77 = getelementptr inbounds %"class.v8::Local.299", ptr %agg.tmp74, i32 0, i32 0
  %coerce.dive78 = getelementptr inbounds %"class.v8::LocalBase.300", ptr %coerce.dive77, i32 0, i32 0
  %coerce.dive79 = getelementptr inbounds %"class.v8::IndirectHandleBase", ptr %coerce.dive78, i32 0, i32 0
  store ptr %call76, ptr %coerce.dive79, align 8
  %coerce.dive80 = getelementptr inbounds %"class.v8::Local.299", ptr %agg.tmp74, i32 0, i32 0
  %coerce.dive81 = getelementptr inbounds %"class.v8::LocalBase.300", ptr %coerce.dive80, i32 0, i32 0
  %coerce.dive82 = getelementptr inbounds %"class.v8::IndirectHandleBase", ptr %coerce.dive81, i32 0, i32 0
  %30 = load ptr, ptr %coerce.dive82, align 8
  store ptr %30, ptr %that.i507, align 8
  store ptr %agg.tmp73, ptr %this.addr.i508, align 8
  %this3.i509 = load ptr, ptr %this.addr.i508, align 8
  store ptr %this3.i509, ptr %this.addr.i808, align 8
  store ptr %that.i507, ptr %other.addr.i809, align 8
  %this1.i810 = load ptr, ptr %this.addr.i808, align 8
  %31 = load ptr, ptr %other.addr.i809, align 8
  call void @llvm.memcpy.p0.p0.i64(ptr align 8 %this1.i810, ptr align 8 %31, i64 8, i1 false)
  %coerce.dive83 = getelementptr inbounds %"class.v8::Local", ptr %agg.tmp72, i32 0, i32 0
  %coerce.dive84 = getelementptr inbounds %"class.v8::LocalBase", ptr %coerce.dive83, i32 0, i32 0
  %coerce.dive85 = getelementptr inbounds %"class.v8::IndirectHandleBase", ptr %coerce.dive84, i32 0, i32 0
  %32 = load ptr, ptr %coerce.dive85, align 8
  %coerce.dive86 = getelementptr inbounds %"class.v8::Local.296", ptr %agg.tmp73, i32 0, i32 0
  %coerce.dive87 = getelementptr inbounds %"class.v8::LocalBase.297", ptr %coerce.dive86, i32 0, i32 0
  %coerce.dive88 = getelementptr inbounds %"class.v8::IndirectHandleBase", ptr %coerce.dive87, i32 0, i32 0
  %33 = load ptr, ptr %coerce.dive88, align 8
  %call89 = call ptr @_ZN2v86Object3GetENS_5LocalINS_7ContextEEENS1_INS_5ValueEEE(ptr noundef nonnull align 1 dereferenceable(1) %29, ptr %32, ptr %33)
  %coerce.dive90 = getelementptr inbounds %"class.v8::MaybeLocal.298", ptr %ref.tmp65, i32 0, i32 0
  %coerce.dive91 = getelementptr inbounds %"class.v8::Local.296", ptr %coerce.dive90, i32 0, i32 0
  %coerce.dive92 = getelementptr inbounds %"class.v8::LocalBase.297", ptr %coerce.dive91, i32 0, i32 0
  %coerce.dive93 = getelementptr inbounds %"class.v8::IndirectHandleBase", ptr %coerce.dive92, i32 0, i32 0
  store ptr %call89, ptr %coerce.dive93, align 8
  store ptr %ref.tmp65, ptr %this.addr.i580, align 8
  %this1.i581 = load ptr, ptr %this.addr.i580, align 8
  store ptr %this1.i581, ptr %this.addr.i693, align 8
  %this1.i694 = load ptr, ptr %this.addr.i693, align 8
  store ptr %this1.i694, ptr %this.addr.i.i692, align 8
  %this1.i.i695 = load ptr, ptr %this.addr.i.i692, align 8
  %34 = load ptr, ptr %this1.i.i695, align 8
  %cmp.i.i696 = icmp eq ptr %34, null
  br i1 %cmp.i.i696, label %if.then.i584, label %_ZN2v810MaybeLocalINS_5ValueEE14ToLocalCheckedEv.exit585

if.then.i584:                                     ; preds = %do.end49
  call void @_ZN2v812api_internal12ToLocalEmptyEv() #3
  br label %_ZN2v810MaybeLocalINS_5ValueEE14ToLocalCheckedEv.exit585

_ZN2v810MaybeLocalINS_5ValueEE14ToLocalCheckedEv.exit585: ; preds = %if.then.i584, %do.end49
  call void @llvm.memcpy.p0.p0.i64(ptr align 8 %retval.i579, ptr align 8 %this1.i581, i64 8, i1 false)
  %35 = load ptr, ptr %retval.i579, align 8
  %coerce.dive95 = getelementptr inbounds %"class.v8::Local.296", ptr %ctor, i32 0, i32 0
  %coerce.dive96 = getelementptr inbounds %"class.v8::LocalBase.297", ptr %coerce.dive95, i32 0, i32 0
  %coerce.dive97 = getelementptr inbounds %"class.v8::IndirectHandleBase", ptr %coerce.dive96, i32 0, i32 0
  store ptr %35, ptr %coerce.dive97, align 8
  br label %do.body98

do.body98:                                        ; preds = %_ZN2v810MaybeLocalINS_5ValueEE14ToLocalCheckedEv.exit585
  store ptr %ctor, ptr %this.addr.i614, align 8
  %this1.i615 = load ptr, ptr %this.addr.i614, align 8
  store ptr %this1.i615, ptr %this.addr.i819, align 8
  %this1.i820 = load ptr, ptr %this.addr.i819, align 8
  store ptr %this1.i820, ptr %this.addr.i.i818, align 8
  %this1.i.i821 = load ptr, ptr %this.addr.i.i818, align 8
  %36 = load ptr, ptr %this1.i.i821, align 8
  store ptr %36, ptr %slot.addr.i865, align 8
  %37 = load ptr, ptr %slot.addr.i865, align 8
  %call100 = call noundef zeroext i1 @_ZNK2v85Value8IsObjectEv(ptr noundef nonnull align 1 dereferenceable(1) %37)
  %lnot101 = xor i1 %call100, true
  %lnot102 = xor i1 %lnot101, true
  %lnot103 = xor i1 %lnot102, true
  br i1 %lnot103, label %if.then104, label %if.end108

if.then104:                                       ; preds = %do.body98
  br label %do.body105

do.body105:                                       ; preds = %if.then104
  call void @_ZN4node6AssertERKNS_13AssertionInfoE(ptr noundef nonnull align 8 dereferenceable(24) @_ZZN4node5Realm16CreatePropertiesEvE4args_0)
  call void @abort() #15
  unreachable

do.cond106:                                       ; No predecessors!
  br label %do.end107

do.end107:                                        ; preds = %do.cond106
  br label %if.end108

if.end108:                                        ; preds = %do.end107, %do.body98
  br label %do.cond109

do.cond109:                                       ; preds = %if.end108
  br label %do.end110

do.end110:                                        ; preds = %do.cond109
  store ptr %ctor, ptr %this.addr.i670, align 8
  %this1.i672 = load ptr, ptr %this.addr.i670, align 8
  call void @llvm.memcpy.p0.p0.i64(ptr align 8 %agg.tmp.i671, ptr align 8 %this1.i672, i64 8, i1 false)
  %38 = load ptr, ptr %agg.tmp.i671, align 8
  store ptr %38, ptr %that.i873, align 8
  store ptr %ref.tmp.i874, ptr %this.addr.i935, align 8
  store ptr %that.i873, ptr %other.addr.i936, align 8
  %this1.i937 = load ptr, ptr %this.addr.i935, align 8
  %39 = load ptr, ptr %other.addr.i936, align 8
  call void @llvm.memcpy.p0.p0.i64(ptr align 8 %this1.i937, ptr align 8 %39, i64 8, i1 false)
  store ptr %retval.i872, ptr %this.addr.i974, align 8
  store ptr %ref.tmp.i874, ptr %other.addr.i975, align 8
  %this1.i976 = load ptr, ptr %this.addr.i974, align 8
  %40 = load ptr, ptr %other.addr.i975, align 8
  call void @llvm.memcpy.p0.p0.i64(ptr align 8 %this1.i976, ptr align 8 %40, i64 8, i1 false)
  %41 = load ptr, ptr %retval.i872, align 8
  store ptr %41, ptr %retval.i669, align 8
  %42 = load ptr, ptr %retval.i669, align 8
  %coerce.dive114 = getelementptr inbounds %"class.v8::Local.294", ptr %ref.tmp112, i32 0, i32 0
  %coerce.dive115 = getelementptr inbounds %"class.v8::LocalBase.295", ptr %coerce.dive114, i32 0, i32 0
  %coerce.dive116 = getelementptr inbounds %"class.v8::IndirectHandleBase", ptr %coerce.dive115, i32 0, i32 0
  store ptr %42, ptr %coerce.dive116, align 8
  store ptr %ref.tmp112, ptr %this.addr.i497, align 8
  %this1.i498 = load ptr, ptr %this.addr.i497, align 8
  store ptr %this1.i498, ptr %this.addr.i746, align 8
  %this1.i747 = load ptr, ptr %this.addr.i746, align 8
  store ptr %this1.i747, ptr %this.addr.i.i745, align 8
  %this1.i.i748 = load ptr, ptr %this.addr.i.i745, align 8
  %43 = load ptr, ptr %this1.i.i748, align 8
  store ptr %43, ptr %slot.addr.i785, align 8
  %44 = load ptr, ptr %slot.addr.i785, align 8
  call void @llvm.memcpy.p0.p0.i64(ptr align 8 %agg.tmp118, ptr align 8 %ctx, i64 8, i1 false)
  call void @llvm.memcpy.p0.p0.i64(ptr align 8 %agg.tmp120, ptr align 8 %prototype_string, i64 8, i1 false)
  %coerce.dive121 = getelementptr inbounds %"class.v8::Local.299", ptr %agg.tmp120, i32 0, i32 0
  %coerce.dive122 = getelementptr inbounds %"class.v8::LocalBase.300", ptr %coerce.dive121, i32 0, i32 0
  %coerce.dive123 = getelementptr inbounds %"class.v8::IndirectHandleBase", ptr %coerce.dive122, i32 0, i32 0
  %45 = load ptr, ptr %coerce.dive123, align 8
  store ptr %45, ptr %that.i510, align 8
  store ptr %agg.tmp119, ptr %this.addr.i511, align 8
  %this3.i512 = load ptr, ptr %this.addr.i511, align 8
  store ptr %this3.i512, ptr %this.addr.i805, align 8
  store ptr %that.i510, ptr %other.addr.i806, align 8
  %this1.i807 = load ptr, ptr %this.addr.i805, align 8
  %46 = load ptr, ptr %other.addr.i806, align 8
  call void @llvm.memcpy.p0.p0.i64(ptr align 8 %this1.i807, ptr align 8 %46, i64 8, i1 false)
  %coerce.dive124 = getelementptr inbounds %"class.v8::Local", ptr %agg.tmp118, i32 0, i32 0
  %coerce.dive125 = getelementptr inbounds %"class.v8::LocalBase", ptr %coerce.dive124, i32 0, i32 0
  %coerce.dive126 = getelementptr inbounds %"class.v8::IndirectHandleBase", ptr %coerce.dive125, i32 0, i32 0
  %47 = load ptr, ptr %coerce.dive126, align 8
  %coerce.dive127 = getelementptr inbounds %"class.v8::Local.296", ptr %agg.tmp119, i32 0, i32 0
  %coerce.dive128 = getelementptr inbounds %"class.v8::LocalBase.297", ptr %coerce.dive127, i32 0, i32 0
  %coerce.dive129 = getelementptr inbounds %"class.v8::IndirectHandleBase", ptr %coerce.dive128, i32 0, i32 0
  %48 = load ptr, ptr %coerce.dive129, align 8
  %call130 = call ptr @_ZN2v86Object3GetENS_5LocalINS_7ContextEEENS1_INS_5ValueEEE(ptr noundef nonnull align 1 dereferenceable(1) %44, ptr %47, ptr %48)
  %coerce.dive131 = getelementptr inbounds %"class.v8::MaybeLocal.298", ptr %ref.tmp111, i32 0, i32 0
  %coerce.dive132 = getelementptr inbounds %"class.v8::Local.296", ptr %coerce.dive131, i32 0, i32 0
  %coerce.dive133 = getelementptr inbounds %"class.v8::LocalBase.297", ptr %coerce.dive132, i32 0, i32 0
  %coerce.dive134 = getelementptr inbounds %"class.v8::IndirectHandleBase", ptr %coerce.dive133, i32 0, i32 0
  store ptr %call130, ptr %coerce.dive134, align 8
  store ptr %ref.tmp111, ptr %this.addr.i573, align 8
  %this1.i574 = load ptr, ptr %this.addr.i573, align 8
  store ptr %this1.i574, ptr %this.addr.i698, align 8
  %this1.i699 = load ptr, ptr %this.addr.i698, align 8
  store ptr %this1.i699, ptr %this.addr.i.i697, align 8
  %this1.i.i700 = load ptr, ptr %this.addr.i.i697, align 8
  %49 = load ptr, ptr %this1.i.i700, align 8
  %cmp.i.i701 = icmp eq ptr %49, null
  br i1 %cmp.i.i701, label %if.then.i577, label %_ZN2v810MaybeLocalINS_5ValueEE14ToLocalCheckedEv.exit578

if.then.i577:                                     ; preds = %do.end110
  call void @_ZN2v812api_internal12ToLocalEmptyEv() #3
  br label %_ZN2v810MaybeLocalINS_5ValueEE14ToLocalCheckedEv.exit578

_ZN2v810MaybeLocalINS_5ValueEE14ToLocalCheckedEv.exit578: ; preds = %if.then.i577, %do.end110
  call void @llvm.memcpy.p0.p0.i64(ptr align 8 %retval.i572, ptr align 8 %this1.i574, i64 8, i1 false)
  %50 = load ptr, ptr %retval.i572, align 8
  %coerce.dive136 = getelementptr inbounds %"class.v8::Local.296", ptr %prototype, i32 0, i32 0
  %coerce.dive137 = getelementptr inbounds %"class.v8::LocalBase.297", ptr %coerce.dive136, i32 0, i32 0
  %coerce.dive138 = getelementptr inbounds %"class.v8::IndirectHandleBase", ptr %coerce.dive137, i32 0, i32 0
  store ptr %50, ptr %coerce.dive138, align 8
  br label %do.body139

do.body139:                                       ; preds = %_ZN2v810MaybeLocalINS_5ValueEE14ToLocalCheckedEv.exit578
  store ptr %prototype, ptr %this.addr.i611, align 8
  %this1.i612 = load ptr, ptr %this.addr.i611, align 8
  store ptr %this1.i612, ptr %this.addr.i824, align 8
  %this1.i825 = load ptr, ptr %this.addr.i824, align 8
  store ptr %this1.i825, ptr %this.addr.i.i823, align 8
  %this1.i.i826 = load ptr, ptr %this.addr.i.i823, align 8
  %51 = load ptr, ptr %this1.i.i826, align 8
  store ptr %51, ptr %slot.addr.i864, align 8
  %52 = load ptr, ptr %slot.addr.i864, align 8
  %call141 = call noundef zeroext i1 @_ZNK2v85Value8IsObjectEv(ptr noundef nonnull align 1 dereferenceable(1) %52)
  %lnot142 = xor i1 %call141, true
  %lnot143 = xor i1 %lnot142, true
  %lnot144 = xor i1 %lnot143, true
  br i1 %lnot144, label %if.then145, label %if.end149

if.then145:                                       ; preds = %do.body139
  br label %do.body146

do.body146:                                       ; preds = %if.then145
  call void @_ZN4node6AssertERKNS_13AssertionInfoE(ptr noundef nonnull align 8 dereferenceable(24) @_ZZN4node5Realm16CreatePropertiesEvE4args_1)
  call void @abort() #15
  unreachable

do.cond147:                                       ; No predecessors!
  br label %do.end148

do.end148:                                        ; preds = %do.cond147
  br label %if.end149

if.end149:                                        ; preds = %do.end148, %do.body139
  br label %do.cond150

do.cond150:                                       ; preds = %if.end149
  br label %do.end151

do.end151:                                        ; preds = %do.cond150
  store ptr %prototype, ptr %this.addr.i665, align 8
  %this1.i667 = load ptr, ptr %this.addr.i665, align 8
  call void @llvm.memcpy.p0.p0.i64(ptr align 8 %agg.tmp.i666, ptr align 8 %this1.i667, i64 8, i1 false)
  %53 = load ptr, ptr %agg.tmp.i666, align 8
  store ptr %53, ptr %that.i876, align 8
  store ptr %ref.tmp.i877, ptr %this.addr.i932, align 8
  store ptr %that.i876, ptr %other.addr.i933, align 8
  %this1.i934 = load ptr, ptr %this.addr.i932, align 8
  %54 = load ptr, ptr %other.addr.i933, align 8
  call void @llvm.memcpy.p0.p0.i64(ptr align 8 %this1.i934, ptr align 8 %54, i64 8, i1 false)
  store ptr %retval.i875, ptr %this.addr.i971, align 8
  store ptr %ref.tmp.i877, ptr %other.addr.i972, align 8
  %this1.i973 = load ptr, ptr %this.addr.i971, align 8
  %55 = load ptr, ptr %other.addr.i972, align 8
  call void @llvm.memcpy.p0.p0.i64(ptr align 8 %this1.i973, ptr align 8 %55, i64 8, i1 false)
  %56 = load ptr, ptr %retval.i875, align 8
  store ptr %56, ptr %retval.i664, align 8
  %57 = load ptr, ptr %retval.i664, align 8
  %coerce.dive154 = getelementptr inbounds %"class.v8::Local.294", ptr %agg.tmp152, i32 0, i32 0
  %coerce.dive155 = getelementptr inbounds %"class.v8::LocalBase.295", ptr %coerce.dive154, i32 0, i32 0
  %coerce.dive156 = getelementptr inbounds %"class.v8::IndirectHandleBase", ptr %coerce.dive155, i32 0, i32 0
  store ptr %57, ptr %coerce.dive156, align 8
  %coerce.dive157 = getelementptr inbounds %"class.v8::Local.294", ptr %agg.tmp152, i32 0, i32 0
  %coerce.dive158 = getelementptr inbounds %"class.v8::LocalBase.295", ptr %coerce.dive157, i32 0, i32 0
  %coerce.dive159 = getelementptr inbounds %"class.v8::IndirectHandleBase", ptr %coerce.dive158, i32 0, i32 0
  %58 = load ptr, ptr %coerce.dive159, align 8
  %vtable160 = load ptr, ptr %this1, align 8
  %vfn161 = getelementptr inbounds ptr, ptr %vtable160, i64 94
  %59 = load ptr, ptr %vfn161, align 8
  call void %59(ptr noundef nonnull align 8 dereferenceable(872) %this1, ptr %58)
  store ptr %primordials, ptr %this.addr.i660, align 8
  %this1.i662 = load ptr, ptr %this.addr.i660, align 8
  call void @llvm.memcpy.p0.p0.i64(ptr align 8 %agg.tmp.i661, ptr align 8 %this1.i662, i64 8, i1 false)
  %60 = load ptr, ptr %agg.tmp.i661, align 8
  store ptr %60, ptr %that.i879, align 8
  store ptr %ref.tmp.i880, ptr %this.addr.i929, align 8
  store ptr %that.i879, ptr %other.addr.i930, align 8
  %this1.i931 = load ptr, ptr %this.addr.i929, align 8
  %61 = load ptr, ptr %other.addr.i930, align 8
  call void @llvm.memcpy.p0.p0.i64(ptr align 8 %this1.i931, ptr align 8 %61, i64 8, i1 false)
  store ptr %retval.i878, ptr %this.addr.i968, align 8
  store ptr %ref.tmp.i880, ptr %other.addr.i969, align 8
  %this1.i970 = load ptr, ptr %this.addr.i968, align 8
  %62 = load ptr, ptr %other.addr.i969, align 8
  call void @llvm.memcpy.p0.p0.i64(ptr align 8 %this1.i970, ptr align 8 %62, i64 8, i1 false)
  %63 = load ptr, ptr %retval.i878, align 8
  store ptr %63, ptr %retval.i659, align 8
  %64 = load ptr, ptr %retval.i659, align 8
  %coerce.dive166 = getelementptr inbounds %"class.v8::Local.294", ptr %ref.tmp164, i32 0, i32 0
  %coerce.dive167 = getelementptr inbounds %"class.v8::LocalBase.295", ptr %coerce.dive166, i32 0, i32 0
  %coerce.dive168 = getelementptr inbounds %"class.v8::IndirectHandleBase", ptr %coerce.dive167, i32 0, i32 0
  store ptr %64, ptr %coerce.dive168, align 8
  store ptr %ref.tmp164, ptr %this.addr.i494, align 8
  %this1.i495 = load ptr, ptr %this.addr.i494, align 8
  store ptr %this1.i495, ptr %this.addr.i751, align 8
  %this1.i752 = load ptr, ptr %this.addr.i751, align 8
  store ptr %this1.i752, ptr %this.addr.i.i750, align 8
  %this1.i.i753 = load ptr, ptr %this.addr.i.i750, align 8
  %65 = load ptr, ptr %this1.i.i753, align 8
  store ptr %65, ptr %slot.addr.i784, align 8
  %66 = load ptr, ptr %slot.addr.i784, align 8
  call void @llvm.memcpy.p0.p0.i64(ptr align 8 %agg.tmp170, ptr align 8 %ctx, i64 8, i1 false)
  %call173 = call noundef ptr @_ZNK4node5Realm7isolateEv(ptr noundef nonnull align 8 dereferenceable(872) %this1)
  %call174 = call ptr @_ZN4node21FIXED_ONE_BYTE_STRINGILi8EEEN2v85LocalINS1_6StringEEEPNS1_7IsolateERAT__Kc(ptr noundef %call173, ptr noundef nonnull align 1 dereferenceable(8) @.str.75)
  %coerce.dive175 = getelementptr inbounds %"class.v8::Local.299", ptr %agg.tmp172, i32 0, i32 0
  %coerce.dive176 = getelementptr inbounds %"class.v8::LocalBase.300", ptr %coerce.dive175, i32 0, i32 0
  %coerce.dive177 = getelementptr inbounds %"class.v8::IndirectHandleBase", ptr %coerce.dive176, i32 0, i32 0
  store ptr %call174, ptr %coerce.dive177, align 8
  %coerce.dive178 = getelementptr inbounds %"class.v8::Local.299", ptr %agg.tmp172, i32 0, i32 0
  %coerce.dive179 = getelementptr inbounds %"class.v8::LocalBase.300", ptr %coerce.dive178, i32 0, i32 0
  %coerce.dive180 = getelementptr inbounds %"class.v8::IndirectHandleBase", ptr %coerce.dive179, i32 0, i32 0
  %67 = load ptr, ptr %coerce.dive180, align 8
  store ptr %67, ptr %that.i513, align 8
  store ptr %agg.tmp171, ptr %this.addr.i514, align 8
  %this3.i515 = load ptr, ptr %this.addr.i514, align 8
  store ptr %this3.i515, ptr %this.addr.i802, align 8
  store ptr %that.i513, ptr %other.addr.i803, align 8
  %this1.i804 = load ptr, ptr %this.addr.i802, align 8
  %68 = load ptr, ptr %other.addr.i803, align 8
  call void @llvm.memcpy.p0.p0.i64(ptr align 8 %this1.i804, ptr align 8 %68, i64 8, i1 false)
  %coerce.dive181 = getelementptr inbounds %"class.v8::Local", ptr %agg.tmp170, i32 0, i32 0
  %coerce.dive182 = getelementptr inbounds %"class.v8::LocalBase", ptr %coerce.dive181, i32 0, i32 0
  %coerce.dive183 = getelementptr inbounds %"class.v8::IndirectHandleBase", ptr %coerce.dive182, i32 0, i32 0
  %69 = load ptr, ptr %coerce.dive183, align 8
  %coerce.dive184 = getelementptr inbounds %"class.v8::Local.296", ptr %agg.tmp171, i32 0, i32 0
  %coerce.dive185 = getelementptr inbounds %"class.v8::LocalBase.297", ptr %coerce.dive184, i32 0, i32 0
  %coerce.dive186 = getelementptr inbounds %"class.v8::IndirectHandleBase", ptr %coerce.dive185, i32 0, i32 0
  %70 = load ptr, ptr %coerce.dive186, align 8
  %call187 = call ptr @_ZN2v86Object3GetENS_5LocalINS_7ContextEEENS1_INS_5ValueEEE(ptr noundef nonnull align 1 dereferenceable(1) %66, ptr %69, ptr %70)
  %coerce.dive188 = getelementptr inbounds %"class.v8::MaybeLocal.298", ptr %ref.tmp163, i32 0, i32 0
  %coerce.dive189 = getelementptr inbounds %"class.v8::Local.296", ptr %coerce.dive188, i32 0, i32 0
  %coerce.dive190 = getelementptr inbounds %"class.v8::LocalBase.297", ptr %coerce.dive189, i32 0, i32 0
  %coerce.dive191 = getelementptr inbounds %"class.v8::IndirectHandleBase", ptr %coerce.dive190, i32 0, i32 0
  store ptr %call187, ptr %coerce.dive191, align 8
  store ptr %ref.tmp163, ptr %this.addr.i566, align 8
  %this1.i567 = load ptr, ptr %this.addr.i566, align 8
  store ptr %this1.i567, ptr %this.addr.i703, align 8
  %this1.i704 = load ptr, ptr %this.addr.i703, align 8
  store ptr %this1.i704, ptr %this.addr.i.i702, align 8
  %this1.i.i705 = load ptr, ptr %this.addr.i.i702, align 8
  %71 = load ptr, ptr %this1.i.i705, align 8
  %cmp.i.i706 = icmp eq ptr %71, null
  br i1 %cmp.i.i706, label %if.then.i570, label %_ZN2v810MaybeLocalINS_5ValueEE14ToLocalCheckedEv.exit571

if.then.i570:                                     ; preds = %do.end151
  call void @_ZN2v812api_internal12ToLocalEmptyEv() #3
  br label %_ZN2v810MaybeLocalINS_5ValueEE14ToLocalCheckedEv.exit571

_ZN2v810MaybeLocalINS_5ValueEE14ToLocalCheckedEv.exit571: ; preds = %if.then.i570, %do.end151
  call void @llvm.memcpy.p0.p0.i64(ptr align 8 %retval.i565, ptr align 8 %this1.i567, i64 8, i1 false)
  %72 = load ptr, ptr %retval.i565, align 8
  %coerce.dive193 = getelementptr inbounds %"class.v8::Local.296", ptr %ctor162, i32 0, i32 0
  %coerce.dive194 = getelementptr inbounds %"class.v8::LocalBase.297", ptr %coerce.dive193, i32 0, i32 0
  %coerce.dive195 = getelementptr inbounds %"class.v8::IndirectHandleBase", ptr %coerce.dive194, i32 0, i32 0
  store ptr %72, ptr %coerce.dive195, align 8
  br label %do.body196

do.body196:                                       ; preds = %_ZN2v810MaybeLocalINS_5ValueEE14ToLocalCheckedEv.exit571
  store ptr %ctor162, ptr %this.addr.i608, align 8
  %this1.i609 = load ptr, ptr %this.addr.i608, align 8
  store ptr %this1.i609, ptr %this.addr.i829, align 8
  %this1.i830 = load ptr, ptr %this.addr.i829, align 8
  store ptr %this1.i830, ptr %this.addr.i.i828, align 8
  %this1.i.i831 = load ptr, ptr %this.addr.i.i828, align 8
  %73 = load ptr, ptr %this1.i.i831, align 8
  store ptr %73, ptr %slot.addr.i863, align 8
  %74 = load ptr, ptr %slot.addr.i863, align 8
  %call198 = call noundef zeroext i1 @_ZNK2v85Value8IsObjectEv(ptr noundef nonnull align 1 dereferenceable(1) %74)
  %lnot199 = xor i1 %call198, true
  %lnot200 = xor i1 %lnot199, true
  %lnot201 = xor i1 %lnot200, true
  br i1 %lnot201, label %if.then202, label %if.end206

if.then202:                                       ; preds = %do.body196
  br label %do.body203

do.body203:                                       ; preds = %if.then202
  call void @_ZN4node6AssertERKNS_13AssertionInfoE(ptr noundef nonnull align 8 dereferenceable(24) @_ZZN4node5Realm16CreatePropertiesEvE4args_2)
  call void @abort() #15
  unreachable

do.cond204:                                       ; No predecessors!
  br label %do.end205

do.end205:                                        ; preds = %do.cond204
  br label %if.end206

if.end206:                                        ; preds = %do.end205, %do.body196
  br label %do.cond207

do.cond207:                                       ; preds = %if.end206
  br label %do.end208

do.end208:                                        ; preds = %do.cond207
  store ptr %ctor162, ptr %this.addr.i655, align 8
  %this1.i657 = load ptr, ptr %this.addr.i655, align 8
  call void @llvm.memcpy.p0.p0.i64(ptr align 8 %agg.tmp.i656, ptr align 8 %this1.i657, i64 8, i1 false)
  %75 = load ptr, ptr %agg.tmp.i656, align 8
  store ptr %75, ptr %that.i882, align 8
  store ptr %ref.tmp.i883, ptr %this.addr.i926, align 8
  store ptr %that.i882, ptr %other.addr.i927, align 8
  %this1.i928 = load ptr, ptr %this.addr.i926, align 8
  %76 = load ptr, ptr %other.addr.i927, align 8
  call void @llvm.memcpy.p0.p0.i64(ptr align 8 %this1.i928, ptr align 8 %76, i64 8, i1 false)
  store ptr %retval.i881, ptr %this.addr.i965, align 8
  store ptr %ref.tmp.i883, ptr %other.addr.i966, align 8
  %this1.i967 = load ptr, ptr %this.addr.i965, align 8
  %77 = load ptr, ptr %other.addr.i966, align 8
  call void @llvm.memcpy.p0.p0.i64(ptr align 8 %this1.i967, ptr align 8 %77, i64 8, i1 false)
  %78 = load ptr, ptr %retval.i881, align 8
  store ptr %78, ptr %retval.i654, align 8
  %79 = load ptr, ptr %retval.i654, align 8
  %coerce.dive213 = getelementptr inbounds %"class.v8::Local.294", ptr %ref.tmp211, i32 0, i32 0
  %coerce.dive214 = getelementptr inbounds %"class.v8::LocalBase.295", ptr %coerce.dive213, i32 0, i32 0
  %coerce.dive215 = getelementptr inbounds %"class.v8::IndirectHandleBase", ptr %coerce.dive214, i32 0, i32 0
  store ptr %79, ptr %coerce.dive215, align 8
  store ptr %ref.tmp211, ptr %this.addr.i491, align 8
  %this1.i492 = load ptr, ptr %this.addr.i491, align 8
  store ptr %this1.i492, ptr %this.addr.i756, align 8
  %this1.i757 = load ptr, ptr %this.addr.i756, align 8
  store ptr %this1.i757, ptr %this.addr.i.i755, align 8
  %this1.i.i758 = load ptr, ptr %this.addr.i.i755, align 8
  %80 = load ptr, ptr %this1.i.i758, align 8
  store ptr %80, ptr %slot.addr.i783, align 8
  %81 = load ptr, ptr %slot.addr.i783, align 8
  call void @llvm.memcpy.p0.p0.i64(ptr align 8 %agg.tmp217, ptr align 8 %ctx, i64 8, i1 false)
  call void @llvm.memcpy.p0.p0.i64(ptr align 8 %agg.tmp219, ptr align 8 %prototype_string, i64 8, i1 false)
  %coerce.dive220 = getelementptr inbounds %"class.v8::Local.299", ptr %agg.tmp219, i32 0, i32 0
  %coerce.dive221 = getelementptr inbounds %"class.v8::LocalBase.300", ptr %coerce.dive220, i32 0, i32 0
  %coerce.dive222 = getelementptr inbounds %"class.v8::IndirectHandleBase", ptr %coerce.dive221, i32 0, i32 0
  %82 = load ptr, ptr %coerce.dive222, align 8
  store ptr %82, ptr %that.i516, align 8
  store ptr %agg.tmp218, ptr %this.addr.i517, align 8
  %this3.i518 = load ptr, ptr %this.addr.i517, align 8
  store ptr %this3.i518, ptr %this.addr.i799, align 8
  store ptr %that.i516, ptr %other.addr.i800, align 8
  %this1.i801 = load ptr, ptr %this.addr.i799, align 8
  %83 = load ptr, ptr %other.addr.i800, align 8
  call void @llvm.memcpy.p0.p0.i64(ptr align 8 %this1.i801, ptr align 8 %83, i64 8, i1 false)
  %coerce.dive223 = getelementptr inbounds %"class.v8::Local", ptr %agg.tmp217, i32 0, i32 0
  %coerce.dive224 = getelementptr inbounds %"class.v8::LocalBase", ptr %coerce.dive223, i32 0, i32 0
  %coerce.dive225 = getelementptr inbounds %"class.v8::IndirectHandleBase", ptr %coerce.dive224, i32 0, i32 0
  %84 = load ptr, ptr %coerce.dive225, align 8
  %coerce.dive226 = getelementptr inbounds %"class.v8::Local.296", ptr %agg.tmp218, i32 0, i32 0
  %coerce.dive227 = getelementptr inbounds %"class.v8::LocalBase.297", ptr %coerce.dive226, i32 0, i32 0
  %coerce.dive228 = getelementptr inbounds %"class.v8::IndirectHandleBase", ptr %coerce.dive227, i32 0, i32 0
  %85 = load ptr, ptr %coerce.dive228, align 8
  %call229 = call ptr @_ZN2v86Object3GetENS_5LocalINS_7ContextEEENS1_INS_5ValueEEE(ptr noundef nonnull align 1 dereferenceable(1) %81, ptr %84, ptr %85)
  %coerce.dive230 = getelementptr inbounds %"class.v8::MaybeLocal.298", ptr %ref.tmp210, i32 0, i32 0
  %coerce.dive231 = getelementptr inbounds %"class.v8::Local.296", ptr %coerce.dive230, i32 0, i32 0
  %coerce.dive232 = getelementptr inbounds %"class.v8::LocalBase.297", ptr %coerce.dive231, i32 0, i32 0
  %coerce.dive233 = getelementptr inbounds %"class.v8::IndirectHandleBase", ptr %coerce.dive232, i32 0, i32 0
  store ptr %call229, ptr %coerce.dive233, align 8
  store ptr %ref.tmp210, ptr %this.addr.i559, align 8
  %this1.i560 = load ptr, ptr %this.addr.i559, align 8
  store ptr %this1.i560, ptr %this.addr.i708, align 8
  %this1.i709 = load ptr, ptr %this.addr.i708, align 8
  store ptr %this1.i709, ptr %this.addr.i.i707, align 8
  %this1.i.i710 = load ptr, ptr %this.addr.i.i707, align 8
  %86 = load ptr, ptr %this1.i.i710, align 8
  %cmp.i.i711 = icmp eq ptr %86, null
  br i1 %cmp.i.i711, label %if.then.i563, label %_ZN2v810MaybeLocalINS_5ValueEE14ToLocalCheckedEv.exit564

if.then.i563:                                     ; preds = %do.end208
  call void @_ZN2v812api_internal12ToLocalEmptyEv() #3
  br label %_ZN2v810MaybeLocalINS_5ValueEE14ToLocalCheckedEv.exit564

_ZN2v810MaybeLocalINS_5ValueEE14ToLocalCheckedEv.exit564: ; preds = %if.then.i563, %do.end208
  call void @llvm.memcpy.p0.p0.i64(ptr align 8 %retval.i558, ptr align 8 %this1.i560, i64 8, i1 false)
  %87 = load ptr, ptr %retval.i558, align 8
  %coerce.dive235 = getelementptr inbounds %"class.v8::Local.296", ptr %prototype209, i32 0, i32 0
  %coerce.dive236 = getelementptr inbounds %"class.v8::LocalBase.297", ptr %coerce.dive235, i32 0, i32 0
  %coerce.dive237 = getelementptr inbounds %"class.v8::IndirectHandleBase", ptr %coerce.dive236, i32 0, i32 0
  store ptr %87, ptr %coerce.dive237, align 8
  br label %do.body238

do.body238:                                       ; preds = %_ZN2v810MaybeLocalINS_5ValueEE14ToLocalCheckedEv.exit564
  store ptr %prototype209, ptr %this.addr.i605, align 8
  %this1.i606 = load ptr, ptr %this.addr.i605, align 8
  store ptr %this1.i606, ptr %this.addr.i834, align 8
  %this1.i835 = load ptr, ptr %this.addr.i834, align 8
  store ptr %this1.i835, ptr %this.addr.i.i833, align 8
  %this1.i.i836 = load ptr, ptr %this.addr.i.i833, align 8
  %88 = load ptr, ptr %this1.i.i836, align 8
  store ptr %88, ptr %slot.addr.i862, align 8
  %89 = load ptr, ptr %slot.addr.i862, align 8
  %call240 = call noundef zeroext i1 @_ZNK2v85Value8IsObjectEv(ptr noundef nonnull align 1 dereferenceable(1) %89)
  %lnot241 = xor i1 %call240, true
  %lnot242 = xor i1 %lnot241, true
  %lnot243 = xor i1 %lnot242, true
  br i1 %lnot243, label %if.then244, label %if.end248

if.then244:                                       ; preds = %do.body238
  br label %do.body245

do.body245:                                       ; preds = %if.then244
  call void @_ZN4node6AssertERKNS_13AssertionInfoE(ptr noundef nonnull align 8 dereferenceable(24) @_ZZN4node5Realm16CreatePropertiesEvE4args_3)
  call void @abort() #15
  unreachable

do.cond246:                                       ; No predecessors!
  br label %do.end247

do.end247:                                        ; preds = %do.cond246
  br label %if.end248

if.end248:                                        ; preds = %do.end247, %do.body238
  br label %do.cond249

do.cond249:                                       ; preds = %if.end248
  br label %do.end250

do.end250:                                        ; preds = %do.cond249
  store ptr %prototype209, ptr %this.addr.i650, align 8
  %this1.i652 = load ptr, ptr %this.addr.i650, align 8
  call void @llvm.memcpy.p0.p0.i64(ptr align 8 %agg.tmp.i651, ptr align 8 %this1.i652, i64 8, i1 false)
  %90 = load ptr, ptr %agg.tmp.i651, align 8
  store ptr %90, ptr %that.i885, align 8
  store ptr %ref.tmp.i886, ptr %this.addr.i923, align 8
  store ptr %that.i885, ptr %other.addr.i924, align 8
  %this1.i925 = load ptr, ptr %this.addr.i923, align 8
  %91 = load ptr, ptr %other.addr.i924, align 8
  call void @llvm.memcpy.p0.p0.i64(ptr align 8 %this1.i925, ptr align 8 %91, i64 8, i1 false)
  store ptr %retval.i884, ptr %this.addr.i962, align 8
  store ptr %ref.tmp.i886, ptr %other.addr.i963, align 8
  %this1.i964 = load ptr, ptr %this.addr.i962, align 8
  %92 = load ptr, ptr %other.addr.i963, align 8
  call void @llvm.memcpy.p0.p0.i64(ptr align 8 %this1.i964, ptr align 8 %92, i64 8, i1 false)
  %93 = load ptr, ptr %retval.i884, align 8
  store ptr %93, ptr %retval.i649, align 8
  %94 = load ptr, ptr %retval.i649, align 8
  %coerce.dive253 = getelementptr inbounds %"class.v8::Local.294", ptr %agg.tmp251, i32 0, i32 0
  %coerce.dive254 = getelementptr inbounds %"class.v8::LocalBase.295", ptr %coerce.dive253, i32 0, i32 0
  %coerce.dive255 = getelementptr inbounds %"class.v8::IndirectHandleBase", ptr %coerce.dive254, i32 0, i32 0
  store ptr %94, ptr %coerce.dive255, align 8
  %coerce.dive256 = getelementptr inbounds %"class.v8::Local.294", ptr %agg.tmp251, i32 0, i32 0
  %coerce.dive257 = getelementptr inbounds %"class.v8::LocalBase.295", ptr %coerce.dive256, i32 0, i32 0
  %coerce.dive258 = getelementptr inbounds %"class.v8::IndirectHandleBase", ptr %coerce.dive257, i32 0, i32 0
  %95 = load ptr, ptr %coerce.dive258, align 8
  %vtable259 = load ptr, ptr %this1, align 8
  %vfn260 = getelementptr inbounds ptr, ptr %vtable259, i64 96
  %96 = load ptr, ptr %vfn260, align 8
  call void %96(ptr noundef nonnull align 8 dereferenceable(872) %this1, ptr %95)
  store ptr %primordials, ptr %this.addr.i645, align 8
  %this1.i647 = load ptr, ptr %this.addr.i645, align 8
  call void @llvm.memcpy.p0.p0.i64(ptr align 8 %agg.tmp.i646, ptr align 8 %this1.i647, i64 8, i1 false)
  %97 = load ptr, ptr %agg.tmp.i646, align 8
  store ptr %97, ptr %that.i888, align 8
  store ptr %ref.tmp.i889, ptr %this.addr.i920, align 8
  store ptr %that.i888, ptr %other.addr.i921, align 8
  %this1.i922 = load ptr, ptr %this.addr.i920, align 8
  %98 = load ptr, ptr %other.addr.i921, align 8
  call void @llvm.memcpy.p0.p0.i64(ptr align 8 %this1.i922, ptr align 8 %98, i64 8, i1 false)
  store ptr %retval.i887, ptr %this.addr.i959, align 8
  store ptr %ref.tmp.i889, ptr %other.addr.i960, align 8
  %this1.i961 = load ptr, ptr %this.addr.i959, align 8
  %99 = load ptr, ptr %other.addr.i960, align 8
  call void @llvm.memcpy.p0.p0.i64(ptr align 8 %this1.i961, ptr align 8 %99, i64 8, i1 false)
  %100 = load ptr, ptr %retval.i887, align 8
  store ptr %100, ptr %retval.i644, align 8
  %101 = load ptr, ptr %retval.i644, align 8
  %coerce.dive265 = getelementptr inbounds %"class.v8::Local.294", ptr %ref.tmp263, i32 0, i32 0
  %coerce.dive266 = getelementptr inbounds %"class.v8::LocalBase.295", ptr %coerce.dive265, i32 0, i32 0
  %coerce.dive267 = getelementptr inbounds %"class.v8::IndirectHandleBase", ptr %coerce.dive266, i32 0, i32 0
  store ptr %101, ptr %coerce.dive267, align 8
  store ptr %ref.tmp263, ptr %this.addr.i488, align 8
  %this1.i489 = load ptr, ptr %this.addr.i488, align 8
  store ptr %this1.i489, ptr %this.addr.i761, align 8
  %this1.i762 = load ptr, ptr %this.addr.i761, align 8
  store ptr %this1.i762, ptr %this.addr.i.i760, align 8
  %this1.i.i763 = load ptr, ptr %this.addr.i.i760, align 8
  %102 = load ptr, ptr %this1.i.i763, align 8
  store ptr %102, ptr %slot.addr.i782, align 8
  %103 = load ptr, ptr %slot.addr.i782, align 8
  call void @llvm.memcpy.p0.p0.i64(ptr align 8 %agg.tmp269, ptr align 8 %ctx, i64 8, i1 false)
  %call272 = call noundef ptr @_ZNK4node5Realm7isolateEv(ptr noundef nonnull align 8 dereferenceable(872) %this1)
  %call273 = call ptr @_ZN4node21FIXED_ONE_BYTE_STRINGILi12EEEN2v85LocalINS1_6StringEEEPNS1_7IsolateERAT__Kc(ptr noundef %call272, ptr noundef nonnull align 1 dereferenceable(12) @.str.77)
  %coerce.dive274 = getelementptr inbounds %"class.v8::Local.299", ptr %agg.tmp271, i32 0, i32 0
  %coerce.dive275 = getelementptr inbounds %"class.v8::LocalBase.300", ptr %coerce.dive274, i32 0, i32 0
  %coerce.dive276 = getelementptr inbounds %"class.v8::IndirectHandleBase", ptr %coerce.dive275, i32 0, i32 0
  store ptr %call273, ptr %coerce.dive276, align 8
  %coerce.dive277 = getelementptr inbounds %"class.v8::Local.299", ptr %agg.tmp271, i32 0, i32 0
  %coerce.dive278 = getelementptr inbounds %"class.v8::LocalBase.300", ptr %coerce.dive277, i32 0, i32 0
  %coerce.dive279 = getelementptr inbounds %"class.v8::IndirectHandleBase", ptr %coerce.dive278, i32 0, i32 0
  %104 = load ptr, ptr %coerce.dive279, align 8
  store ptr %104, ptr %that.i519, align 8
  store ptr %agg.tmp270, ptr %this.addr.i520, align 8
  %this3.i521 = load ptr, ptr %this.addr.i520, align 8
  store ptr %this3.i521, ptr %this.addr.i796, align 8
  store ptr %that.i519, ptr %other.addr.i797, align 8
  %this1.i798 = load ptr, ptr %this.addr.i796, align 8
  %105 = load ptr, ptr %other.addr.i797, align 8
  call void @llvm.memcpy.p0.p0.i64(ptr align 8 %this1.i798, ptr align 8 %105, i64 8, i1 false)
  %coerce.dive280 = getelementptr inbounds %"class.v8::Local", ptr %agg.tmp269, i32 0, i32 0
  %coerce.dive281 = getelementptr inbounds %"class.v8::LocalBase", ptr %coerce.dive280, i32 0, i32 0
  %coerce.dive282 = getelementptr inbounds %"class.v8::IndirectHandleBase", ptr %coerce.dive281, i32 0, i32 0
  %106 = load ptr, ptr %coerce.dive282, align 8
  %coerce.dive283 = getelementptr inbounds %"class.v8::Local.296", ptr %agg.tmp270, i32 0, i32 0
  %coerce.dive284 = getelementptr inbounds %"class.v8::LocalBase.297", ptr %coerce.dive283, i32 0, i32 0
  %coerce.dive285 = getelementptr inbounds %"class.v8::IndirectHandleBase", ptr %coerce.dive284, i32 0, i32 0
  %107 = load ptr, ptr %coerce.dive285, align 8
  %call286 = call ptr @_ZN2v86Object3GetENS_5LocalINS_7ContextEEENS1_INS_5ValueEEE(ptr noundef nonnull align 1 dereferenceable(1) %103, ptr %106, ptr %107)
  %coerce.dive287 = getelementptr inbounds %"class.v8::MaybeLocal.298", ptr %ref.tmp262, i32 0, i32 0
  %coerce.dive288 = getelementptr inbounds %"class.v8::Local.296", ptr %coerce.dive287, i32 0, i32 0
  %coerce.dive289 = getelementptr inbounds %"class.v8::LocalBase.297", ptr %coerce.dive288, i32 0, i32 0
  %coerce.dive290 = getelementptr inbounds %"class.v8::IndirectHandleBase", ptr %coerce.dive289, i32 0, i32 0
  store ptr %call286, ptr %coerce.dive290, align 8
  store ptr %ref.tmp262, ptr %this.addr.i552, align 8
  %this1.i553 = load ptr, ptr %this.addr.i552, align 8
  store ptr %this1.i553, ptr %this.addr.i713, align 8
  %this1.i714 = load ptr, ptr %this.addr.i713, align 8
  store ptr %this1.i714, ptr %this.addr.i.i712, align 8
  %this1.i.i715 = load ptr, ptr %this.addr.i.i712, align 8
  %108 = load ptr, ptr %this1.i.i715, align 8
  %cmp.i.i716 = icmp eq ptr %108, null
  br i1 %cmp.i.i716, label %if.then.i556, label %_ZN2v810MaybeLocalINS_5ValueEE14ToLocalCheckedEv.exit557

if.then.i556:                                     ; preds = %do.end250
  call void @_ZN2v812api_internal12ToLocalEmptyEv() #3
  br label %_ZN2v810MaybeLocalINS_5ValueEE14ToLocalCheckedEv.exit557

_ZN2v810MaybeLocalINS_5ValueEE14ToLocalCheckedEv.exit557: ; preds = %if.then.i556, %do.end250
  call void @llvm.memcpy.p0.p0.i64(ptr align 8 %retval.i551, ptr align 8 %this1.i553, i64 8, i1 false)
  %109 = load ptr, ptr %retval.i551, align 8
  %coerce.dive292 = getelementptr inbounds %"class.v8::Local.296", ptr %ctor261, i32 0, i32 0
  %coerce.dive293 = getelementptr inbounds %"class.v8::LocalBase.297", ptr %coerce.dive292, i32 0, i32 0
  %coerce.dive294 = getelementptr inbounds %"class.v8::IndirectHandleBase", ptr %coerce.dive293, i32 0, i32 0
  store ptr %109, ptr %coerce.dive294, align 8
  br label %do.body295

do.body295:                                       ; preds = %_ZN2v810MaybeLocalINS_5ValueEE14ToLocalCheckedEv.exit557
  store ptr %ctor261, ptr %this.addr.i602, align 8
  %this1.i603 = load ptr, ptr %this.addr.i602, align 8
  store ptr %this1.i603, ptr %this.addr.i839, align 8
  %this1.i840 = load ptr, ptr %this.addr.i839, align 8
  store ptr %this1.i840, ptr %this.addr.i.i838, align 8
  %this1.i.i841 = load ptr, ptr %this.addr.i.i838, align 8
  %110 = load ptr, ptr %this1.i.i841, align 8
  store ptr %110, ptr %slot.addr.i861, align 8
  %111 = load ptr, ptr %slot.addr.i861, align 8
  %call297 = call noundef zeroext i1 @_ZNK2v85Value8IsObjectEv(ptr noundef nonnull align 1 dereferenceable(1) %111)
  %lnot298 = xor i1 %call297, true
  %lnot299 = xor i1 %lnot298, true
  %lnot300 = xor i1 %lnot299, true
  br i1 %lnot300, label %if.then301, label %if.end305

if.then301:                                       ; preds = %do.body295
  br label %do.body302

do.body302:                                       ; preds = %if.then301
  call void @_ZN4node6AssertERKNS_13AssertionInfoE(ptr noundef nonnull align 8 dereferenceable(24) @_ZZN4node5Realm16CreatePropertiesEvE4args_4)
  call void @abort() #15
  unreachable

do.cond303:                                       ; No predecessors!
  br label %do.end304

do.end304:                                        ; preds = %do.cond303
  br label %if.end305

if.end305:                                        ; preds = %do.end304, %do.body295
  br label %do.cond306

do.cond306:                                       ; preds = %if.end305
  br label %do.end307

do.end307:                                        ; preds = %do.cond306
  store ptr %ctor261, ptr %this.addr.i640, align 8
  %this1.i642 = load ptr, ptr %this.addr.i640, align 8
  call void @llvm.memcpy.p0.p0.i64(ptr align 8 %agg.tmp.i641, ptr align 8 %this1.i642, i64 8, i1 false)
  %112 = load ptr, ptr %agg.tmp.i641, align 8
  store ptr %112, ptr %that.i891, align 8
  store ptr %ref.tmp.i892, ptr %this.addr.i917, align 8
  store ptr %that.i891, ptr %other.addr.i918, align 8
  %this1.i919 = load ptr, ptr %this.addr.i917, align 8
  %113 = load ptr, ptr %other.addr.i918, align 8
  call void @llvm.memcpy.p0.p0.i64(ptr align 8 %this1.i919, ptr align 8 %113, i64 8, i1 false)
  store ptr %retval.i890, ptr %this.addr.i956, align 8
  store ptr %ref.tmp.i892, ptr %other.addr.i957, align 8
  %this1.i958 = load ptr, ptr %this.addr.i956, align 8
  %114 = load ptr, ptr %other.addr.i957, align 8
  call void @llvm.memcpy.p0.p0.i64(ptr align 8 %this1.i958, ptr align 8 %114, i64 8, i1 false)
  %115 = load ptr, ptr %retval.i890, align 8
  store ptr %115, ptr %retval.i639, align 8
  %116 = load ptr, ptr %retval.i639, align 8
  %coerce.dive312 = getelementptr inbounds %"class.v8::Local.294", ptr %ref.tmp310, i32 0, i32 0
  %coerce.dive313 = getelementptr inbounds %"class.v8::LocalBase.295", ptr %coerce.dive312, i32 0, i32 0
  %coerce.dive314 = getelementptr inbounds %"class.v8::IndirectHandleBase", ptr %coerce.dive313, i32 0, i32 0
  store ptr %116, ptr %coerce.dive314, align 8
  store ptr %ref.tmp310, ptr %this.addr.i485, align 8
  %this1.i486 = load ptr, ptr %this.addr.i485, align 8
  store ptr %this1.i486, ptr %this.addr.i766, align 8
  %this1.i767 = load ptr, ptr %this.addr.i766, align 8
  store ptr %this1.i767, ptr %this.addr.i.i765, align 8
  %this1.i.i768 = load ptr, ptr %this.addr.i.i765, align 8
  %117 = load ptr, ptr %this1.i.i768, align 8
  store ptr %117, ptr %slot.addr.i781, align 8
  %118 = load ptr, ptr %slot.addr.i781, align 8
  call void @llvm.memcpy.p0.p0.i64(ptr align 8 %agg.tmp316, ptr align 8 %ctx, i64 8, i1 false)
  call void @llvm.memcpy.p0.p0.i64(ptr align 8 %agg.tmp318, ptr align 8 %prototype_string, i64 8, i1 false)
  %coerce.dive319 = getelementptr inbounds %"class.v8::Local.299", ptr %agg.tmp318, i32 0, i32 0
  %coerce.dive320 = getelementptr inbounds %"class.v8::LocalBase.300", ptr %coerce.dive319, i32 0, i32 0
  %coerce.dive321 = getelementptr inbounds %"class.v8::IndirectHandleBase", ptr %coerce.dive320, i32 0, i32 0
  %119 = load ptr, ptr %coerce.dive321, align 8
  store ptr %119, ptr %that.i522, align 8
  store ptr %agg.tmp317, ptr %this.addr.i523, align 8
  %this3.i524 = load ptr, ptr %this.addr.i523, align 8
  store ptr %this3.i524, ptr %this.addr.i793, align 8
  store ptr %that.i522, ptr %other.addr.i794, align 8
  %this1.i795 = load ptr, ptr %this.addr.i793, align 8
  %120 = load ptr, ptr %other.addr.i794, align 8
  call void @llvm.memcpy.p0.p0.i64(ptr align 8 %this1.i795, ptr align 8 %120, i64 8, i1 false)
  %coerce.dive322 = getelementptr inbounds %"class.v8::Local", ptr %agg.tmp316, i32 0, i32 0
  %coerce.dive323 = getelementptr inbounds %"class.v8::LocalBase", ptr %coerce.dive322, i32 0, i32 0
  %coerce.dive324 = getelementptr inbounds %"class.v8::IndirectHandleBase", ptr %coerce.dive323, i32 0, i32 0
  %121 = load ptr, ptr %coerce.dive324, align 8
  %coerce.dive325 = getelementptr inbounds %"class.v8::Local.296", ptr %agg.tmp317, i32 0, i32 0
  %coerce.dive326 = getelementptr inbounds %"class.v8::LocalBase.297", ptr %coerce.dive325, i32 0, i32 0
  %coerce.dive327 = getelementptr inbounds %"class.v8::IndirectHandleBase", ptr %coerce.dive326, i32 0, i32 0
  %122 = load ptr, ptr %coerce.dive327, align 8
  %call328 = call ptr @_ZN2v86Object3GetENS_5LocalINS_7ContextEEENS1_INS_5ValueEEE(ptr noundef nonnull align 1 dereferenceable(1) %118, ptr %121, ptr %122)
  %coerce.dive329 = getelementptr inbounds %"class.v8::MaybeLocal.298", ptr %ref.tmp309, i32 0, i32 0
  %coerce.dive330 = getelementptr inbounds %"class.v8::Local.296", ptr %coerce.dive329, i32 0, i32 0
  %coerce.dive331 = getelementptr inbounds %"class.v8::LocalBase.297", ptr %coerce.dive330, i32 0, i32 0
  %coerce.dive332 = getelementptr inbounds %"class.v8::IndirectHandleBase", ptr %coerce.dive331, i32 0, i32 0
  store ptr %call328, ptr %coerce.dive332, align 8
  store ptr %ref.tmp309, ptr %this.addr.i545, align 8
  %this1.i546 = load ptr, ptr %this.addr.i545, align 8
  store ptr %this1.i546, ptr %this.addr.i718, align 8
  %this1.i719 = load ptr, ptr %this.addr.i718, align 8
  store ptr %this1.i719, ptr %this.addr.i.i717, align 8
  %this1.i.i720 = load ptr, ptr %this.addr.i.i717, align 8
  %123 = load ptr, ptr %this1.i.i720, align 8
  %cmp.i.i721 = icmp eq ptr %123, null
  br i1 %cmp.i.i721, label %if.then.i549, label %_ZN2v810MaybeLocalINS_5ValueEE14ToLocalCheckedEv.exit550

if.then.i549:                                     ; preds = %do.end307
  call void @_ZN2v812api_internal12ToLocalEmptyEv() #3
  br label %_ZN2v810MaybeLocalINS_5ValueEE14ToLocalCheckedEv.exit550

_ZN2v810MaybeLocalINS_5ValueEE14ToLocalCheckedEv.exit550: ; preds = %if.then.i549, %do.end307
  call void @llvm.memcpy.p0.p0.i64(ptr align 8 %retval.i544, ptr align 8 %this1.i546, i64 8, i1 false)
  %124 = load ptr, ptr %retval.i544, align 8
  %coerce.dive334 = getelementptr inbounds %"class.v8::Local.296", ptr %prototype308, i32 0, i32 0
  %coerce.dive335 = getelementptr inbounds %"class.v8::LocalBase.297", ptr %coerce.dive334, i32 0, i32 0
  %coerce.dive336 = getelementptr inbounds %"class.v8::IndirectHandleBase", ptr %coerce.dive335, i32 0, i32 0
  store ptr %124, ptr %coerce.dive336, align 8
  br label %do.body337

do.body337:                                       ; preds = %_ZN2v810MaybeLocalINS_5ValueEE14ToLocalCheckedEv.exit550
  store ptr %prototype308, ptr %this.addr.i599, align 8
  %this1.i600 = load ptr, ptr %this.addr.i599, align 8
  store ptr %this1.i600, ptr %this.addr.i844, align 8
  %this1.i845 = load ptr, ptr %this.addr.i844, align 8
  store ptr %this1.i845, ptr %this.addr.i.i843, align 8
  %this1.i.i846 = load ptr, ptr %this.addr.i.i843, align 8
  %125 = load ptr, ptr %this1.i.i846, align 8
  store ptr %125, ptr %slot.addr.i860, align 8
  %126 = load ptr, ptr %slot.addr.i860, align 8
  %call339 = call noundef zeroext i1 @_ZNK2v85Value8IsObjectEv(ptr noundef nonnull align 1 dereferenceable(1) %126)
  %lnot340 = xor i1 %call339, true
  %lnot341 = xor i1 %lnot340, true
  %lnot342 = xor i1 %lnot341, true
  br i1 %lnot342, label %if.then343, label %if.end347

if.then343:                                       ; preds = %do.body337
  br label %do.body344

do.body344:                                       ; preds = %if.then343
  call void @_ZN4node6AssertERKNS_13AssertionInfoE(ptr noundef nonnull align 8 dereferenceable(24) @_ZZN4node5Realm16CreatePropertiesEvE4args_5)
  call void @abort() #15
  unreachable

do.cond345:                                       ; No predecessors!
  br label %do.end346

do.end346:                                        ; preds = %do.cond345
  br label %if.end347

if.end347:                                        ; preds = %do.end346, %do.body337
  br label %do.cond348

do.cond348:                                       ; preds = %if.end347
  br label %do.end349

do.end349:                                        ; preds = %do.cond348
  store ptr %prototype308, ptr %this.addr.i635, align 8
  %this1.i637 = load ptr, ptr %this.addr.i635, align 8
  call void @llvm.memcpy.p0.p0.i64(ptr align 8 %agg.tmp.i636, ptr align 8 %this1.i637, i64 8, i1 false)
  %127 = load ptr, ptr %agg.tmp.i636, align 8
  store ptr %127, ptr %that.i894, align 8
  store ptr %ref.tmp.i895, ptr %this.addr.i914, align 8
  store ptr %that.i894, ptr %other.addr.i915, align 8
  %this1.i916 = load ptr, ptr %this.addr.i914, align 8
  %128 = load ptr, ptr %other.addr.i915, align 8
  call void @llvm.memcpy.p0.p0.i64(ptr align 8 %this1.i916, ptr align 8 %128, i64 8, i1 false)
  store ptr %retval.i893, ptr %this.addr.i953, align 8
  store ptr %ref.tmp.i895, ptr %other.addr.i954, align 8
  %this1.i955 = load ptr, ptr %this.addr.i953, align 8
  %129 = load ptr, ptr %other.addr.i954, align 8
  call void @llvm.memcpy.p0.p0.i64(ptr align 8 %this1.i955, ptr align 8 %129, i64 8, i1 false)
  %130 = load ptr, ptr %retval.i893, align 8
  store ptr %130, ptr %retval.i634, align 8
  %131 = load ptr, ptr %retval.i634, align 8
  %coerce.dive352 = getelementptr inbounds %"class.v8::Local.294", ptr %agg.tmp350, i32 0, i32 0
  %coerce.dive353 = getelementptr inbounds %"class.v8::LocalBase.295", ptr %coerce.dive352, i32 0, i32 0
  %coerce.dive354 = getelementptr inbounds %"class.v8::IndirectHandleBase", ptr %coerce.dive353, i32 0, i32 0
  store ptr %131, ptr %coerce.dive354, align 8
  %coerce.dive355 = getelementptr inbounds %"class.v8::Local.294", ptr %agg.tmp350, i32 0, i32 0
  %coerce.dive356 = getelementptr inbounds %"class.v8::LocalBase.295", ptr %coerce.dive355, i32 0, i32 0
  %coerce.dive357 = getelementptr inbounds %"class.v8::IndirectHandleBase", ptr %coerce.dive356, i32 0, i32 0
  %132 = load ptr, ptr %coerce.dive357, align 8
  %vtable358 = load ptr, ptr %this1, align 8
  %vfn359 = getelementptr inbounds ptr, ptr %vtable358, i64 98
  %133 = load ptr, ptr %vfn359, align 8
  call void %133(ptr noundef nonnull align 8 dereferenceable(872) %this1, ptr %132)
  store ptr %primordials, ptr %this.addr.i630, align 8
  %this1.i632 = load ptr, ptr %this.addr.i630, align 8
  call void @llvm.memcpy.p0.p0.i64(ptr align 8 %agg.tmp.i631, ptr align 8 %this1.i632, i64 8, i1 false)
  %134 = load ptr, ptr %agg.tmp.i631, align 8
  store ptr %134, ptr %that.i897, align 8
  store ptr %ref.tmp.i898, ptr %this.addr.i911, align 8
  store ptr %that.i897, ptr %other.addr.i912, align 8
  %this1.i913 = load ptr, ptr %this.addr.i911, align 8
  %135 = load ptr, ptr %other.addr.i912, align 8
  call void @llvm.memcpy.p0.p0.i64(ptr align 8 %this1.i913, ptr align 8 %135, i64 8, i1 false)
  store ptr %retval.i896, ptr %this.addr.i950, align 8
  store ptr %ref.tmp.i898, ptr %other.addr.i951, align 8
  %this1.i952 = load ptr, ptr %this.addr.i950, align 8
  %136 = load ptr, ptr %other.addr.i951, align 8
  call void @llvm.memcpy.p0.p0.i64(ptr align 8 %this1.i952, ptr align 8 %136, i64 8, i1 false)
  %137 = load ptr, ptr %retval.i896, align 8
  store ptr %137, ptr %retval.i629, align 8
  %138 = load ptr, ptr %retval.i629, align 8
  %coerce.dive364 = getelementptr inbounds %"class.v8::Local.294", ptr %ref.tmp362, i32 0, i32 0
  %coerce.dive365 = getelementptr inbounds %"class.v8::LocalBase.295", ptr %coerce.dive364, i32 0, i32 0
  %coerce.dive366 = getelementptr inbounds %"class.v8::IndirectHandleBase", ptr %coerce.dive365, i32 0, i32 0
  store ptr %138, ptr %coerce.dive366, align 8
  store ptr %ref.tmp362, ptr %this.addr.i482, align 8
  %this1.i483 = load ptr, ptr %this.addr.i482, align 8
  store ptr %this1.i483, ptr %this.addr.i771, align 8
  %this1.i772 = load ptr, ptr %this.addr.i771, align 8
  store ptr %this1.i772, ptr %this.addr.i.i770, align 8
  %this1.i.i773 = load ptr, ptr %this.addr.i.i770, align 8
  %139 = load ptr, ptr %this1.i.i773, align 8
  store ptr %139, ptr %slot.addr.i780, align 8
  %140 = load ptr, ptr %slot.addr.i780, align 8
  call void @llvm.memcpy.p0.p0.i64(ptr align 8 %agg.tmp368, ptr align 8 %ctx, i64 8, i1 false)
  %call371 = call noundef ptr @_ZNK4node5Realm7isolateEv(ptr noundef nonnull align 8 dereferenceable(872) %this1)
  %call372 = call ptr @_ZN4node21FIXED_ONE_BYTE_STRINGILi12EEEN2v85LocalINS1_6StringEEEPNS1_7IsolateERAT__Kc(ptr noundef %call371, ptr noundef nonnull align 1 dereferenceable(12) @.str.79)
  %coerce.dive373 = getelementptr inbounds %"class.v8::Local.299", ptr %agg.tmp370, i32 0, i32 0
  %coerce.dive374 = getelementptr inbounds %"class.v8::LocalBase.300", ptr %coerce.dive373, i32 0, i32 0
  %coerce.dive375 = getelementptr inbounds %"class.v8::IndirectHandleBase", ptr %coerce.dive374, i32 0, i32 0
  store ptr %call372, ptr %coerce.dive375, align 8
  %coerce.dive376 = getelementptr inbounds %"class.v8::Local.299", ptr %agg.tmp370, i32 0, i32 0
  %coerce.dive377 = getelementptr inbounds %"class.v8::LocalBase.300", ptr %coerce.dive376, i32 0, i32 0
  %coerce.dive378 = getelementptr inbounds %"class.v8::IndirectHandleBase", ptr %coerce.dive377, i32 0, i32 0
  %141 = load ptr, ptr %coerce.dive378, align 8
  store ptr %141, ptr %that.i525, align 8
  store ptr %agg.tmp369, ptr %this.addr.i526, align 8
  %this3.i527 = load ptr, ptr %this.addr.i526, align 8
  store ptr %this3.i527, ptr %this.addr.i790, align 8
  store ptr %that.i525, ptr %other.addr.i791, align 8
  %this1.i792 = load ptr, ptr %this.addr.i790, align 8
  %142 = load ptr, ptr %other.addr.i791, align 8
  call void @llvm.memcpy.p0.p0.i64(ptr align 8 %this1.i792, ptr align 8 %142, i64 8, i1 false)
  %coerce.dive379 = getelementptr inbounds %"class.v8::Local", ptr %agg.tmp368, i32 0, i32 0
  %coerce.dive380 = getelementptr inbounds %"class.v8::LocalBase", ptr %coerce.dive379, i32 0, i32 0
  %coerce.dive381 = getelementptr inbounds %"class.v8::IndirectHandleBase", ptr %coerce.dive380, i32 0, i32 0
  %143 = load ptr, ptr %coerce.dive381, align 8
  %coerce.dive382 = getelementptr inbounds %"class.v8::Local.296", ptr %agg.tmp369, i32 0, i32 0
  %coerce.dive383 = getelementptr inbounds %"class.v8::LocalBase.297", ptr %coerce.dive382, i32 0, i32 0
  %coerce.dive384 = getelementptr inbounds %"class.v8::IndirectHandleBase", ptr %coerce.dive383, i32 0, i32 0
  %144 = load ptr, ptr %coerce.dive384, align 8
  %call385 = call ptr @_ZN2v86Object3GetENS_5LocalINS_7ContextEEENS1_INS_5ValueEEE(ptr noundef nonnull align 1 dereferenceable(1) %140, ptr %143, ptr %144)
  %coerce.dive386 = getelementptr inbounds %"class.v8::MaybeLocal.298", ptr %ref.tmp361, i32 0, i32 0
  %coerce.dive387 = getelementptr inbounds %"class.v8::Local.296", ptr %coerce.dive386, i32 0, i32 0
  %coerce.dive388 = getelementptr inbounds %"class.v8::LocalBase.297", ptr %coerce.dive387, i32 0, i32 0
  %coerce.dive389 = getelementptr inbounds %"class.v8::IndirectHandleBase", ptr %coerce.dive388, i32 0, i32 0
  store ptr %call385, ptr %coerce.dive389, align 8
  store ptr %ref.tmp361, ptr %this.addr.i538, align 8
  %this1.i539 = load ptr, ptr %this.addr.i538, align 8
  store ptr %this1.i539, ptr %this.addr.i723, align 8
  %this1.i724 = load ptr, ptr %this.addr.i723, align 8
  store ptr %this1.i724, ptr %this.addr.i.i722, align 8
  %this1.i.i725 = load ptr, ptr %this.addr.i.i722, align 8
  %145 = load ptr, ptr %this1.i.i725, align 8
  %cmp.i.i726 = icmp eq ptr %145, null
  br i1 %cmp.i.i726, label %if.then.i542, label %_ZN2v810MaybeLocalINS_5ValueEE14ToLocalCheckedEv.exit543

if.then.i542:                                     ; preds = %do.end349
  call void @_ZN2v812api_internal12ToLocalEmptyEv() #3
  br label %_ZN2v810MaybeLocalINS_5ValueEE14ToLocalCheckedEv.exit543

_ZN2v810MaybeLocalINS_5ValueEE14ToLocalCheckedEv.exit543: ; preds = %if.then.i542, %do.end349
  call void @llvm.memcpy.p0.p0.i64(ptr align 8 %retval.i537, ptr align 8 %this1.i539, i64 8, i1 false)
  %146 = load ptr, ptr %retval.i537, align 8
  %coerce.dive391 = getelementptr inbounds %"class.v8::Local.296", ptr %ctor360, i32 0, i32 0
  %coerce.dive392 = getelementptr inbounds %"class.v8::LocalBase.297", ptr %coerce.dive391, i32 0, i32 0
  %coerce.dive393 = getelementptr inbounds %"class.v8::IndirectHandleBase", ptr %coerce.dive392, i32 0, i32 0
  store ptr %146, ptr %coerce.dive393, align 8
  br label %do.body394

do.body394:                                       ; preds = %_ZN2v810MaybeLocalINS_5ValueEE14ToLocalCheckedEv.exit543
  store ptr %ctor360, ptr %this.addr.i596, align 8
  %this1.i597 = load ptr, ptr %this.addr.i596, align 8
  store ptr %this1.i597, ptr %this.addr.i849, align 8
  %this1.i850 = load ptr, ptr %this.addr.i849, align 8
  store ptr %this1.i850, ptr %this.addr.i.i848, align 8
  %this1.i.i851 = load ptr, ptr %this.addr.i.i848, align 8
  %147 = load ptr, ptr %this1.i.i851, align 8
  store ptr %147, ptr %slot.addr.i859, align 8
  %148 = load ptr, ptr %slot.addr.i859, align 8
  %call396 = call noundef zeroext i1 @_ZNK2v85Value8IsObjectEv(ptr noundef nonnull align 1 dereferenceable(1) %148)
  %lnot397 = xor i1 %call396, true
  %lnot398 = xor i1 %lnot397, true
  %lnot399 = xor i1 %lnot398, true
  br i1 %lnot399, label %if.then400, label %if.end404

if.then400:                                       ; preds = %do.body394
  br label %do.body401

do.body401:                                       ; preds = %if.then400
  call void @_ZN4node6AssertERKNS_13AssertionInfoE(ptr noundef nonnull align 8 dereferenceable(24) @_ZZN4node5Realm16CreatePropertiesEvE4args_6)
  call void @abort() #15
  unreachable

do.cond402:                                       ; No predecessors!
  br label %do.end403

do.end403:                                        ; preds = %do.cond402
  br label %if.end404

if.end404:                                        ; preds = %do.end403, %do.body394
  br label %do.cond405

do.cond405:                                       ; preds = %if.end404
  br label %do.end406

do.end406:                                        ; preds = %do.cond405
  store ptr %ctor360, ptr %this.addr.i625, align 8
  %this1.i627 = load ptr, ptr %this.addr.i625, align 8
  call void @llvm.memcpy.p0.p0.i64(ptr align 8 %agg.tmp.i626, ptr align 8 %this1.i627, i64 8, i1 false)
  %149 = load ptr, ptr %agg.tmp.i626, align 8
  store ptr %149, ptr %that.i900, align 8
  store ptr %ref.tmp.i901, ptr %this.addr.i908, align 8
  store ptr %that.i900, ptr %other.addr.i909, align 8
  %this1.i910 = load ptr, ptr %this.addr.i908, align 8
  %150 = load ptr, ptr %other.addr.i909, align 8
  call void @llvm.memcpy.p0.p0.i64(ptr align 8 %this1.i910, ptr align 8 %150, i64 8, i1 false)
  store ptr %retval.i899, ptr %this.addr.i947, align 8
  store ptr %ref.tmp.i901, ptr %other.addr.i948, align 8
  %this1.i949 = load ptr, ptr %this.addr.i947, align 8
  %151 = load ptr, ptr %other.addr.i948, align 8
  call void @llvm.memcpy.p0.p0.i64(ptr align 8 %this1.i949, ptr align 8 %151, i64 8, i1 false)
  %152 = load ptr, ptr %retval.i899, align 8
  store ptr %152, ptr %retval.i624, align 8
  %153 = load ptr, ptr %retval.i624, align 8
  %coerce.dive411 = getelementptr inbounds %"class.v8::Local.294", ptr %ref.tmp409, i32 0, i32 0
  %coerce.dive412 = getelementptr inbounds %"class.v8::LocalBase.295", ptr %coerce.dive411, i32 0, i32 0
  %coerce.dive413 = getelementptr inbounds %"class.v8::IndirectHandleBase", ptr %coerce.dive412, i32 0, i32 0
  store ptr %153, ptr %coerce.dive413, align 8
  store ptr %ref.tmp409, ptr %this.addr.i479, align 8
  %this1.i480 = load ptr, ptr %this.addr.i479, align 8
  store ptr %this1.i480, ptr %this.addr.i776, align 8
  %this1.i777 = load ptr, ptr %this.addr.i776, align 8
  store ptr %this1.i777, ptr %this.addr.i.i775, align 8
  %this1.i.i778 = load ptr, ptr %this.addr.i.i775, align 8
  %154 = load ptr, ptr %this1.i.i778, align 8
  store ptr %154, ptr %slot.addr.i, align 8
  %155 = load ptr, ptr %slot.addr.i, align 8
  call void @llvm.memcpy.p0.p0.i64(ptr align 8 %agg.tmp415, ptr align 8 %ctx, i64 8, i1 false)
  call void @llvm.memcpy.p0.p0.i64(ptr align 8 %agg.tmp417, ptr align 8 %prototype_string, i64 8, i1 false)
  %coerce.dive418 = getelementptr inbounds %"class.v8::Local.299", ptr %agg.tmp417, i32 0, i32 0
  %coerce.dive419 = getelementptr inbounds %"class.v8::LocalBase.300", ptr %coerce.dive418, i32 0, i32 0
  %coerce.dive420 = getelementptr inbounds %"class.v8::IndirectHandleBase", ptr %coerce.dive419, i32 0, i32 0
  %156 = load ptr, ptr %coerce.dive420, align 8
  store ptr %156, ptr %that.i528, align 8
  store ptr %agg.tmp416, ptr %this.addr.i529, align 8
  %this3.i530 = load ptr, ptr %this.addr.i529, align 8
  store ptr %this3.i530, ptr %this.addr.i788, align 8
  store ptr %that.i528, ptr %other.addr.i, align 8
  %this1.i789 = load ptr, ptr %this.addr.i788, align 8
  %157 = load ptr, ptr %other.addr.i, align 8
  call void @llvm.memcpy.p0.p0.i64(ptr align 8 %this1.i789, ptr align 8 %157, i64 8, i1 false)
  %coerce.dive421 = getelementptr inbounds %"class.v8::Local", ptr %agg.tmp415, i32 0, i32 0
  %coerce.dive422 = getelementptr inbounds %"class.v8::LocalBase", ptr %coerce.dive421, i32 0, i32 0
  %coerce.dive423 = getelementptr inbounds %"class.v8::IndirectHandleBase", ptr %coerce.dive422, i32 0, i32 0
  %158 = load ptr, ptr %coerce.dive423, align 8
  %coerce.dive424 = getelementptr inbounds %"class.v8::Local.296", ptr %agg.tmp416, i32 0, i32 0
  %coerce.dive425 = getelementptr inbounds %"class.v8::LocalBase.297", ptr %coerce.dive424, i32 0, i32 0
  %coerce.dive426 = getelementptr inbounds %"class.v8::IndirectHandleBase", ptr %coerce.dive425, i32 0, i32 0
  %159 = load ptr, ptr %coerce.dive426, align 8
  %call427 = call ptr @_ZN2v86Object3GetENS_5LocalINS_7ContextEEENS1_INS_5ValueEEE(ptr noundef nonnull align 1 dereferenceable(1) %155, ptr %158, ptr %159)
  %coerce.dive428 = getelementptr inbounds %"class.v8::MaybeLocal.298", ptr %ref.tmp408, i32 0, i32 0
  %coerce.dive429 = getelementptr inbounds %"class.v8::Local.296", ptr %coerce.dive428, i32 0, i32 0
  %coerce.dive430 = getelementptr inbounds %"class.v8::LocalBase.297", ptr %coerce.dive429, i32 0, i32 0
  %coerce.dive431 = getelementptr inbounds %"class.v8::IndirectHandleBase", ptr %coerce.dive430, i32 0, i32 0
  store ptr %call427, ptr %coerce.dive431, align 8
  store ptr %ref.tmp408, ptr %this.addr.i532, align 8
  %this1.i533 = load ptr, ptr %this.addr.i532, align 8
  store ptr %this1.i533, ptr %this.addr.i728, align 8
  %this1.i729 = load ptr, ptr %this.addr.i728, align 8
  store ptr %this1.i729, ptr %this.addr.i.i727, align 8
  %this1.i.i730 = load ptr, ptr %this.addr.i.i727, align 8
  %160 = load ptr, ptr %this1.i.i730, align 8
  %cmp.i.i731 = icmp eq ptr %160, null
  br i1 %cmp.i.i731, label %if.then.i536, label %_ZN2v810MaybeLocalINS_5ValueEE14ToLocalCheckedEv.exit

if.then.i536:                                     ; preds = %do.end406
  call void @_ZN2v812api_internal12ToLocalEmptyEv() #3
  br label %_ZN2v810MaybeLocalINS_5ValueEE14ToLocalCheckedEv.exit

_ZN2v810MaybeLocalINS_5ValueEE14ToLocalCheckedEv.exit: ; preds = %if.then.i536, %do.end406
  call void @llvm.memcpy.p0.p0.i64(ptr align 8 %retval.i531, ptr align 8 %this1.i533, i64 8, i1 false)
  %161 = load ptr, ptr %retval.i531, align 8
  %coerce.dive433 = getelementptr inbounds %"class.v8::Local.296", ptr %prototype407, i32 0, i32 0
  %coerce.dive434 = getelementptr inbounds %"class.v8::LocalBase.297", ptr %coerce.dive433, i32 0, i32 0
  %coerce.dive435 = getelementptr inbounds %"class.v8::IndirectHandleBase", ptr %coerce.dive434, i32 0, i32 0
  store ptr %161, ptr %coerce.dive435, align 8
  br label %do.body436

do.body436:                                       ; preds = %_ZN2v810MaybeLocalINS_5ValueEE14ToLocalCheckedEv.exit
  store ptr %prototype407, ptr %this.addr.i593, align 8
  %this1.i594 = load ptr, ptr %this.addr.i593, align 8
  store ptr %this1.i594, ptr %this.addr.i854, align 8
  %this1.i855 = load ptr, ptr %this.addr.i854, align 8
  store ptr %this1.i855, ptr %this.addr.i.i853, align 8
  %this1.i.i856 = load ptr, ptr %this.addr.i.i853, align 8
  %162 = load ptr, ptr %this1.i.i856, align 8
  store ptr %162, ptr %slot.addr.i858, align 8
  %163 = load ptr, ptr %slot.addr.i858, align 8
  %call438 = call noundef zeroext i1 @_ZNK2v85Value8IsObjectEv(ptr noundef nonnull align 1 dereferenceable(1) %163)
  %lnot439 = xor i1 %call438, true
  %lnot440 = xor i1 %lnot439, true
  %lnot441 = xor i1 %lnot440, true
  br i1 %lnot441, label %if.then442, label %if.end446

if.then442:                                       ; preds = %do.body436
  br label %do.body443

do.body443:                                       ; preds = %if.then442
  call void @_ZN4node6AssertERKNS_13AssertionInfoE(ptr noundef nonnull align 8 dereferenceable(24) @_ZZN4node5Realm16CreatePropertiesEvE4args_7)
  call void @abort() #15
  unreachable

do.cond444:                                       ; No predecessors!
  br label %do.end445

do.end445:                                        ; preds = %do.cond444
  br label %if.end446

if.end446:                                        ; preds = %do.end445, %do.body436
  br label %do.cond447

do.cond447:                                       ; preds = %if.end446
  br label %do.end448

do.end448:                                        ; preds = %do.cond447
  store ptr %prototype407, ptr %this.addr.i621, align 8
  %this1.i622 = load ptr, ptr %this.addr.i621, align 8
  call void @llvm.memcpy.p0.p0.i64(ptr align 8 %agg.tmp.i, ptr align 8 %this1.i622, i64 8, i1 false)
  %164 = load ptr, ptr %agg.tmp.i, align 8
  store ptr %164, ptr %that.i903, align 8
  store ptr %ref.tmp.i904, ptr %this.addr.i905, align 8
  store ptr %that.i903, ptr %other.addr.i906, align 8
  %this1.i907 = load ptr, ptr %this.addr.i905, align 8
  %165 = load ptr, ptr %other.addr.i906, align 8
  call void @llvm.memcpy.p0.p0.i64(ptr align 8 %this1.i907, ptr align 8 %165, i64 8, i1 false)
  store ptr %retval.i902, ptr %this.addr.i944, align 8
  store ptr %ref.tmp.i904, ptr %other.addr.i945, align 8
  %this1.i946 = load ptr, ptr %this.addr.i944, align 8
  %166 = load ptr, ptr %other.addr.i945, align 8
  call void @llvm.memcpy.p0.p0.i64(ptr align 8 %this1.i946, ptr align 8 %166, i64 8, i1 false)
  %167 = load ptr, ptr %retval.i902, align 8
  store ptr %167, ptr %retval.i620, align 8
  %168 = load ptr, ptr %retval.i620, align 8
  %coerce.dive451 = getelementptr inbounds %"class.v8::Local.294", ptr %agg.tmp449, i32 0, i32 0
  %coerce.dive452 = getelementptr inbounds %"class.v8::LocalBase.295", ptr %coerce.dive451, i32 0, i32 0
  %coerce.dive453 = getelementptr inbounds %"class.v8::IndirectHandleBase", ptr %coerce.dive452, i32 0, i32 0
  store ptr %168, ptr %coerce.dive453, align 8
  %coerce.dive454 = getelementptr inbounds %"class.v8::Local.294", ptr %agg.tmp449, i32 0, i32 0
  %coerce.dive455 = getelementptr inbounds %"class.v8::LocalBase.295", ptr %coerce.dive454, i32 0, i32 0
  %coerce.dive456 = getelementptr inbounds %"class.v8::IndirectHandleBase", ptr %coerce.dive455, i32 0, i32 0
  %169 = load ptr, ptr %coerce.dive456, align 8
  %vtable457 = load ptr, ptr %this1, align 8
  %vfn458 = getelementptr inbounds ptr, ptr %vtable457, i64 100
  %170 = load ptr, ptr %vfn458, align 8
  call void %170(ptr noundef nonnull align 8 dereferenceable(872) %this1, ptr %169)
  %call460 = call ptr @_ZN4node19CreateProcessObjectEPNS_5RealmE(ptr noundef %this1)
  %coerce.dive461 = getelementptr inbounds %"class.v8::MaybeLocal", ptr %ref.tmp459, i32 0, i32 0
  %coerce.dive462 = getelementptr inbounds %"class.v8::Local.294", ptr %coerce.dive461, i32 0, i32 0
  %coerce.dive463 = getelementptr inbounds %"class.v8::LocalBase.295", ptr %coerce.dive462, i32 0, i32 0
  %coerce.dive464 = getelementptr inbounds %"class.v8::IndirectHandleBase", ptr %coerce.dive463, i32 0, i32 0
  store ptr %call460, ptr %coerce.dive464, align 8
  call void @llvm.memset.p0.i64(ptr align 8 %agg.tmp465, i8 0, i64 8, i1 false)
  store ptr %agg.tmp465, ptr %this.addr.i688, align 8
  %this1.i689 = load ptr, ptr %this.addr.i688, align 8
  store ptr %this1.i689, ptr %this.addr.i733, align 8
  %this1.i734 = load ptr, ptr %this.addr.i733, align 8
  store ptr %this1.i734, ptr %this.addr.i.i732, align 8
  %this1.i.i735 = load ptr, ptr %this.addr.i.i732, align 8
  store ptr null, ptr %this1.i.i735, align 8
  %coerce.dive466 = getelementptr inbounds %"class.v8::Local.294", ptr %agg.tmp465, i32 0, i32 0
  %coerce.dive467 = getelementptr inbounds %"class.v8::LocalBase.295", ptr %coerce.dive466, i32 0, i32 0
  %coerce.dive468 = getelementptr inbounds %"class.v8::IndirectHandleBase", ptr %coerce.dive467, i32 0, i32 0
  %171 = load ptr, ptr %coerce.dive468, align 8
  store ptr %171, ptr %default_value.i, align 8
  store ptr %ref.tmp459, ptr %this.addr.i685, align 8
  %this3.i686 = load ptr, ptr %this.addr.i685, align 8
  store ptr %this3.i686, ptr %this.addr.i984, align 8
  %this1.i985 = load ptr, ptr %this.addr.i984, align 8
  store ptr %this1.i985, ptr %this.addr.i.i983, align 8
  %this1.i.i986 = load ptr, ptr %this.addr.i.i983, align 8
  %172 = load ptr, ptr %this1.i.i986, align 8
  %cmp.i.i987 = icmp eq ptr %172, null
  br i1 %cmp.i.i987, label %cond.true.i, label %cond.false.i

cond.true.i:                                      ; preds = %do.end448
  call void @llvm.memcpy.p0.p0.i64(ptr align 8 %retval.i684, ptr align 8 %default_value.i, i64 8, i1 false)
  br label %_ZNK2v810MaybeLocalINS_6ObjectEE9FromMaybeIS1_EENS_5LocalIT_EES6_.exit

cond.false.i:                                     ; preds = %do.end448
  call void @llvm.memcpy.p0.p0.i64(ptr align 8 %retval.i684, ptr align 8 %this3.i686, i64 8, i1 false)
  br label %_ZNK2v810MaybeLocalINS_6ObjectEE9FromMaybeIS1_EENS_5LocalIT_EES6_.exit

_ZNK2v810MaybeLocalINS_6ObjectEE9FromMaybeIS1_EENS_5LocalIT_EES6_.exit: ; preds = %cond.false.i, %cond.true.i
  %173 = load ptr, ptr %retval.i684, align 8
  %coerce.dive470 = getelementptr inbounds %"class.v8::Local.294", ptr %process_object, i32 0, i32 0
  %coerce.dive471 = getelementptr inbounds %"class.v8::LocalBase.295", ptr %coerce.dive470, i32 0, i32 0
  %coerce.dive472 = getelementptr inbounds %"class.v8::IndirectHandleBase", ptr %coerce.dive471, i32 0, i32 0
  store ptr %173, ptr %coerce.dive472, align 8
  call void @llvm.memcpy.p0.p0.i64(ptr align 8 %agg.tmp473, ptr align 8 %process_object, i64 8, i1 false)
  %coerce.dive474 = getelementptr inbounds %"class.v8::Local.294", ptr %agg.tmp473, i32 0, i32 0
  %coerce.dive475 = getelementptr inbounds %"class.v8::LocalBase.295", ptr %coerce.dive474, i32 0, i32 0
  %coerce.dive476 = getelementptr inbounds %"class.v8::IndirectHandleBase", ptr %coerce.dive475, i32 0, i32 0
  %174 = load ptr, ptr %coerce.dive476, align 8
  %vtable477 = load ptr, ptr %this1, align 8
  %vfn478 = getelementptr inbounds ptr, ptr %vtable477, i64 90
  %175 = load ptr, ptr %vfn478, align 8
  call void %175(ptr noundef nonnull align 8 dereferenceable(872) %this1, ptr %174)
  call void @_ZN2v811HandleScopeD1Ev(ptr noundef nonnull align 8 dereferenceable(24) %handle_scope) #3
  ret void
}

declare void @_ZN2v811HandleScopeC1EPNS_7IsolateE(ptr noundef nonnull align 8 dereferenceable(24), ptr noundef) unnamed_addr #1

declare ptr @_ZN4node20GetPerContextExportsEN2v85LocalINS0_7ContextEEE(ptr) #1

declare ptr @_ZN2v86Object3GetENS_5LocalINS_7ContextEEENS1_INS_5ValueEEE(ptr noundef nonnull align 1 dereferenceable(1), ptr, ptr) #1

; Function Attrs: mustprogress nounwind uwtable
define linkonce_odr dso_local ptr @_ZNK4node11Environment18primordials_stringEv(ptr noundef nonnull align 8 dereferenceable(2872) %this) #4 comdat align 2 {
entry:
  %retval = alloca %"class.v8::Local.299", align 8
  %this.addr = alloca ptr, align 8
  store ptr %this, ptr %this.addr, align 8
  %this1 = load ptr, ptr %this.addr, align 8
  %call = call noundef ptr @_ZNK4node11Environment12isolate_dataEv(ptr noundef nonnull align 8 dereferenceable(2872) %this1)
  %call2 = call ptr @_ZNK4node11IsolateData18primordials_stringEv(ptr noundef nonnull align 8 dereferenceable(4192) %call)
  %coerce.dive = getelementptr inbounds %"class.v8::Local.299", ptr %retval, i32 0, i32 0
  %coerce.dive3 = getelementptr inbounds %"class.v8::LocalBase.300", ptr %coerce.dive, i32 0, i32 0
  %coerce.dive4 = getelementptr inbounds %"class.v8::IndirectHandleBase", ptr %coerce.dive3, i32 0, i32 0
  store ptr %call2, ptr %coerce.dive4, align 8
  %coerce.dive5 = getelementptr inbounds %"class.v8::Local.299", ptr %retval, i32 0, i32 0
  %coerce.dive6 = getelementptr inbounds %"class.v8::LocalBase.300", ptr %coerce.dive5, i32 0, i32 0
  %coerce.dive7 = getelementptr inbounds %"class.v8::IndirectHandleBase", ptr %coerce.dive6, i32 0, i32 0
  %0 = load ptr, ptr %coerce.dive7, align 8
  ret ptr %0
}

