; ModuleID = 'bench/hermes/original/Interpreter.cpp.ll'
source_filename = "bench/hermes/original/Interpreter.cpp.ll"
target datalayout = "e-m:e-p270:32:32-p271:32:32-p272:64:64-i64:64-i128:128-f80:128-n8:16:32:64-S128"
target triple = "x86_64-unknown-linux-gnu"

%"struct.std::array.229" = type { [79 x ptr] }
%"struct.std::atomic" = type { %"struct.std::__atomic_base" }
%"struct.std::__atomic_base" = type { i8 }
%"class.hermes::vm::PinnedHermesValue" = type { %"class.hermes::vm::HermesValue" }
%"class.hermes::vm::HermesValue" = type { i64 }
%"class.hermes::vm::NativeArgs" = type { %"class.std::reverse_iterator", i32, ptr }
%"class.std::reverse_iterator" = type { ptr }
%"class.hermes::vm::RuntimeModule" = type { %"class.llvh::ilist_node", ptr, %"class.std::vector.157", %"class.hermes::vm::WeakRoot.162", %"class.std::vector.163", %"class.std::shared_ptr.168", %"union.hermes::vm::RuntimeModuleFlags", %"class.std::__cxx11::basic_string", i32, [4 x i8], %"class.llvh::DenseMap.172", %"class.llvh::DenseMap.175" }
%"class.llvh::ilist_node" = type { %"class.llvh::ilist_node_impl" }
%"class.llvh::ilist_node_impl" = type { %"class.llvh::ilist_node_base" }
%"class.llvh::ilist_node_base" = type { ptr, ptr }
%"class.std::vector.157" = type { %"struct.std::_Vector_base.158" }
%"struct.std::_Vector_base.158" = type { %"struct.std::_Vector_base<hermes::vm::RootSymbolID, std::allocator<hermes::vm::RootSymbolID>>::_Vector_impl" }
%"struct.std::_Vector_base<hermes::vm::RootSymbolID, std::allocator<hermes::vm::RootSymbolID>>::_Vector_impl" = type { %"struct.std::_Vector_base<hermes::vm::RootSymbolID, std::allocator<hermes::vm::RootSymbolID>>::_Vector_impl_data" }
%"struct.std::_Vector_base<hermes::vm::RootSymbolID, std::allocator<hermes::vm::RootSymbolID>>::_Vector_impl_data" = type { ptr, ptr, ptr }
%"class.hermes::vm::WeakRoot.162" = type { %"class.hermes::vm::WeakRootBase" }
%"class.hermes::vm::WeakRootBase" = type { %"class.hermes::vm::CompressedPointer" }
%"class.hermes::vm::CompressedPointer" = type { %"class.hermes::vm::BasedPointer" }
%"class.hermes::vm::BasedPointer" = type { i32 }
%"class.std::vector.163" = type { %"struct.std::_Vector_base.164" }
%"struct.std::_Vector_base.164" = type { %"struct.std::_Vector_base<hermes::vm::CodeBlock *, std::allocator<hermes::vm::CodeBlock *>>::_Vector_impl" }
%"struct.std::_Vector_base<hermes::vm::CodeBlock *, std::allocator<hermes::vm::CodeBlock *>>::_Vector_impl" = type { %"struct.std::_Vector_base<hermes::vm::CodeBlock *, std::allocator<hermes::vm::CodeBlock *>>::_Vector_impl_data" }
%"struct.std::_Vector_base<hermes::vm::CodeBlock *, std::allocator<hermes::vm::CodeBlock *>>::_Vector_impl_data" = type { ptr, ptr, ptr }
%"class.std::shared_ptr.168" = type { %"class.std::__shared_ptr.169" }
%"class.std::__shared_ptr.169" = type { ptr, %"class.std::__shared_count" }
%"class.std::__shared_count" = type { ptr }
%"union.hermes::vm::RuntimeModuleFlags" = type { %struct.anon.171 }
%struct.anon.171 = type { i8 }
%"class.std::__cxx11::basic_string" = type { %"struct.std::__cxx11::basic_string<char>::_Alloc_hider", i64, %union.anon }
%"struct.std::__cxx11::basic_string<char>::_Alloc_hider" = type { ptr }
%union.anon = type { i64, [8 x i8] }
%"class.llvh::DenseMap.172" = type <{ ptr, i32, i32, i32, [4 x i8] }>
%"class.llvh::DenseMap.175" = type <{ ptr, i32, i32, i32, [4 x i8] }>
%"class.hermes::vm::Runtime" = type { %"class.hermes::vm::HandleRootOwner", %"struct.hermes::vm::GCBase::GCCallbacks", %"class.hermes::vm::PinnedHermesValue", %"class.hermes::vm::PinnedHermesValue", %"class.hermes::vm::PinnedHermesValue", %"class.hermes::vm::PinnedHermesValue", %"class.hermes::vm::PinnedHermesValue", %"class.hermes::vm::PinnedHermesValue", %"class.hermes::vm::PinnedHermesValue", %"class.hermes::vm::PinnedHermesValue", %"class.hermes::vm::PinnedHermesValue", %"class.hermes::vm::PinnedHermesValue", %"class.hermes::vm::PinnedHermesValue", %"class.hermes::vm::PinnedHermesValue", %"class.hermes::vm::PinnedHermesValue", %"class.hermes::vm::PinnedHermesValue", %"class.hermes::vm::PinnedHermesValue", %"class.hermes::vm::PinnedHermesValue", %"class.hermes::vm::PinnedHermesValue", %"class.hermes::vm::PinnedHermesValue", %"class.hermes::vm::PinnedHermesValue", %"class.hermes::vm::PinnedHermesValue", %"class.hermes::vm::PinnedHermesValue", %"class.hermes::vm::PinnedHermesValue", %"class.hermes::vm::PinnedHermesValue", %"class.hermes::vm::PinnedHermesValue", %"class.hermes::vm::PinnedHermesValue", %"class.hermes::vm::PinnedHermesValue", %"class.hermes::vm::PinnedHermesValue", %"class.hermes::vm::PinnedHermesValue", %"class.hermes::vm::PinnedHermesValue", %"class.hermes::vm::PinnedHermesValue", %"class.hermes::vm::PinnedHermesValue", %"class.hermes::vm::PinnedHermesValue", %"class.hermes::vm::PinnedHermesValue", %"class.hermes::vm::PinnedHermesValue", %"class.hermes::vm::PinnedHermesValue", %"class.hermes::vm::PinnedHermesValue", %"class.hermes::vm::PinnedHermesValue", %"class.hermes::vm::PinnedHermesValue", %"class.hermes::vm::PinnedHermesValue", %"class.hermes::vm::PinnedHermesValue", %"class.hermes::vm::PinnedHermesValue", %"class.hermes::vm::PinnedHermesValue", %"class.hermes::vm::PinnedHermesValue", %"class.hermes::vm::PinnedHermesValue", %"class.hermes::vm::PinnedHermesValue", %"class.hermes::vm::PinnedHermesValue", %"class.hermes::vm::PinnedHermesValue", %"class.hermes::vm::PinnedHermesValue", %"class.hermes::vm::PinnedHermesValue", %"class.hermes::vm::PinnedHermesValue", %"class.hermes::vm::PinnedHermesValue", %"class.hermes::vm::PinnedHermesValue", %"class.hermes::vm::PinnedHermesValue", %"class.hermes::vm::PinnedHermesValue", %"class.hermes::vm::PinnedHermesValue", %"class.hermes::vm::PinnedHermesValue", %"class.hermes::vm::PinnedHermesValue", %"class.hermes::vm::PinnedHermesValue", %"class.hermes::vm::PinnedHermesValue", %"class.hermes::vm::PinnedHermesValue", %"class.hermes::vm::PinnedHermesValue", %"class.hermes::vm::PinnedHermesValue", %"class.hermes::vm::PinnedHermesValue", %"class.hermes::vm::PinnedHermesValue", %"class.hermes::vm::PinnedHermesValue", %"class.hermes::vm::PinnedHermesValue", %"class.hermes::vm::PinnedHermesValue", %"class.hermes::vm::PinnedHermesValue", %"class.hermes::vm::PinnedHermesValue", %"class.hermes::vm::PinnedHermesValue", %"class.hermes::vm::PinnedHermesValue", %"class.hermes::vm::PinnedHermesValue", %"class.hermes::vm::PinnedHermesValue", %"class.hermes::vm::PinnedHermesValue", %"class.hermes::vm::PinnedHermesValue", %"class.hermes::vm::PinnedHermesValue", %"class.hermes::vm::PinnedHermesValue", %"class.hermes::vm::PinnedHermesValue", %"class.hermes::vm::PinnedHermesValue", %"class.hermes::vm::PinnedHermesValue", %"class.hermes::vm::PinnedHermesValue", %"class.hermes::vm::PinnedHermesValue", %"class.hermes::vm::PinnedHermesValue", %"class.hermes::vm::PinnedHermesValue", %"class.hermes::vm::PinnedHermesValue", %"class.hermes::vm::PinnedHermesValue", %"class.hermes::vm::PinnedHermesValue", %"class.hermes::vm::PinnedHermesValue", ptr, ptr, %"class.llvh::SmallVector", i8, i8, %"class.std::unique_ptr", %"class.std::shared_ptr", %"class.hermes::vm::GCStorage", %"class.std::vector.88", %"class.std::vector.93", %"class.std::vector.98", %"class.std::vector.98", i8, i8, i8, i8, i8, i8, i8, i8, i8, i8, i32, %"class.std::chrono::time_point", [17 x double], double, i32, [4 x i8], %"class.hermes::vm::IdentifierTable", %"class.hermes::vm::SymbolRegistry", %"class.std::unique_ptr.111", ptr, ptr, ptr, %"class.llvh::simple_ilist", %"class.hermes::vm::CrashTraceNoop", %"class.llvh::MutableArrayRef.119", ptr, ptr, ptr, %"class.std::shared_ptr.6", %"class.hermes::vm::StackFramePtrT", i32, %"struct.std::array.121", [1 x %"struct.hermes::vm::PropertyCacheEntry"], %"class.std::vector.122", %"class.std::vector.127", %"class.std::vector.132", i8, %"class.std::deque.137", i32, i32, %"class.std::unique_ptr.140", %"struct.std::atomic.148", %"class.std::vector.150", %"class.std::function.155", ptr }
%"class.hermes::vm::HandleRootOwner" = type { ptr, ptr }
%"struct.hermes::vm::GCBase::GCCallbacks" = type { ptr }
%"class.llvh::SmallVector" = type { %"class.llvh::SmallVectorImpl", %"struct.llvh::SmallVectorStorage" }
%"class.llvh::SmallVectorImpl" = type { %"class.llvh::SmallVectorTemplateBase" }
%"class.llvh::SmallVectorTemplateBase" = type { %"class.llvh::SmallVectorTemplateCommon" }
%"class.llvh::SmallVectorTemplateCommon" = type { %"class.llvh::SmallVectorBase" }
%"class.llvh::SmallVectorBase" = type { ptr, i32, i32 }
%"struct.llvh::SmallVectorStorage" = type { [4 x %"struct.llvh::AlignedCharArrayUnion"] }
%"struct.llvh::AlignedCharArrayUnion" = type { %"struct.llvh::AlignedCharArray" }
%"struct.llvh::AlignedCharArray" = type { [12 x i8] }
%"class.std::unique_ptr" = type { %"struct.std::__uniq_ptr_data" }
%"struct.std::__uniq_ptr_data" = type { %"class.std::__uniq_ptr_impl" }
%"class.std::__uniq_ptr_impl" = type { %"class.std::tuple" }
%"class.std::tuple" = type { %"struct.std::_Tuple_impl" }
%"struct.std::_Tuple_impl" = type { %"struct.std::_Head_base.5" }
%"struct.std::_Head_base.5" = type { ptr }
%"class.std::shared_ptr" = type { %"class.std::__shared_ptr" }
%"class.std::__shared_ptr" = type { ptr, %"class.std::__shared_count" }
%"class.hermes::vm::GCStorage" = type { %"class.hermes::vm::HadesGC" }
%"class.hermes::vm::HadesGC" = type { %"class.hermes::vm::GCBase.base", i64, i64, %"class.std::vector.29", %"class.std::shared_ptr.34", %"class.hermes::vm::HadesGC::HeapSegment", %"class.hermes::vm::AssignableCompressedPointer", %"class.std::vector.37", double, %"class.hermes::vm::HadesGC::OldGen", %"class.std::recursive_mutex", %"struct.std::atomic", %"class.std::_V2::condition_variable_any", i8, i8, %"class.std::unique_ptr.58", %"class.std::unique_ptr.66", %"class.std::future", i8, i8, i8, double, %"class.hermes::ExponentialMovingAverage", %"class.std::unique_ptr.77", %"class.std::unique_ptr.77", %"struct.hermes::vm::GCBase::CumulativeHeapStats", %"struct.hermes::vm::GCBase::CumulativeHeapStats", %"class.hermes::ExponentialMovingAverage", i64, %"struct.hermes::vm::HadesGC::CompacteeState", i64, %"struct.hermes::vm::HadesGC::NativeIDs" }
%"class.hermes::vm::GCBase.base" = type <{ ptr, i32, [4 x i8], i64, %"class.hermes::vm::GCExecTrace", [7 x i8], ptr, ptr, %"class.std::shared_ptr.6", i32, [4 x i8], %"class.std::function", %"class.std::vector", i8, i8, i8, i8, [4 x i8], %"class.std::chrono::time_point", %"class.std::chrono::duration.9", i64, i64, %"struct.hermes::vm::GCBase::CumulativeHeapStats", %"class.std::__cxx11::basic_string", %"class.std::deque", ptr, %"class.std::recursive_mutex", %"class.hermes::vm::GCBase::IDTracker", [3 x i64], %"class.std::function.26", i32, i8 }>
%"class.hermes::vm::GCExecTrace" = type { i8 }
%"class.std::function" = type { %"class.std::_Function_base", ptr }
%"class.std::_Function_base" = type { %"union.std::_Any_data", ptr }
%"union.std::_Any_data" = type { %"union.std::_Nocopy_types" }
%"union.std::_Nocopy_types" = type { { i64, i64 } }
%"class.std::vector" = type { %"struct.std::_Vector_base" }
%"struct.std::_Vector_base" = type { %"struct.std::_Vector_base<hermes::vm::GCAnalyticsEvent, std::allocator<hermes::vm::GCAnalyticsEvent>>::_Vector_impl" }
%"struct.std::_Vector_base<hermes::vm::GCAnalyticsEvent, std::allocator<hermes::vm::GCAnalyticsEvent>>::_Vector_impl" = type { %"struct.std::_Vector_base<hermes::vm::GCAnalyticsEvent, std::allocator<hermes::vm::GCAnalyticsEvent>>::_Vector_impl_data" }
%"struct.std::_Vector_base<hermes::vm::GCAnalyticsEvent, std::allocator<hermes::vm::GCAnalyticsEvent>>::_Vector_impl_data" = type { ptr, ptr, ptr }
%"class.std::chrono::duration.9" = type { i64 }
%"class.std::deque" = type { %"class.std::_Deque_base" }
%"class.std::_Deque_base" = type { %"struct.std::_Deque_base<hermes::vm::WeakRefSlot, std::allocator<hermes::vm::WeakRefSlot>>::_Deque_impl" }
%"struct.std::_Deque_base<hermes::vm::WeakRefSlot, std::allocator<hermes::vm::WeakRefSlot>>::_Deque_impl" = type { %"struct.std::_Deque_base<hermes::vm::WeakRefSlot, std::allocator<hermes::vm::WeakRefSlot>>::_Deque_impl_data" }
%"struct.std::_Deque_base<hermes::vm::WeakRefSlot, std::allocator<hermes::vm::WeakRefSlot>>::_Deque_impl_data" = type { ptr, i64, %"struct.std::_Deque_iterator", %"struct.std::_Deque_iterator" }
%"struct.std::_Deque_iterator" = type { ptr, ptr, ptr, ptr }
%"class.hermes::vm::GCBase::IDTracker" = type { %"class.std::recursive_mutex", i32, [4 x i8], %"class.llvh::DenseMap", %"class.llvh::DenseMap", %"class.llvh::DenseMap.17", %"class.llvh::DenseMap.20", %"class.llvh::DenseMap", %"class.llvh::DenseMap.23" }
%"class.llvh::DenseMap.17" = type <{ ptr, i32, i32, i32, [4 x i8] }>
%"class.llvh::DenseMap.20" = type <{ ptr, i32, i32, i32, [4 x i8] }>
%"class.llvh::DenseMap" = type <{ ptr, i32, i32, i32, [4 x i8] }>
%"class.llvh::DenseMap.23" = type <{ ptr, i32, i32, i32, [4 x i8] }>
%"class.std::function.26" = type { %"class.std::_Function_base", ptr }
%"class.std::vector.29" = type { %"struct.std::_Vector_base.30" }
%"struct.std::_Vector_base.30" = type { %"struct.std::_Vector_base<unsigned long, std::allocator<unsigned long>>::_Vector_impl" }
%"struct.std::_Vector_base<unsigned long, std::allocator<unsigned long>>::_Vector_impl" = type { %"struct.std::_Vector_base<unsigned long, std::allocator<unsigned long>>::_Vector_impl_data" }
%"struct.std::_Vector_base<unsigned long, std::allocator<unsigned long>>::_Vector_impl_data" = type { ptr, ptr, ptr }
%"class.std::shared_ptr.34" = type { %"class.std::__shared_ptr.35" }
%"class.std::__shared_ptr.35" = type { ptr, %"class.std::__shared_count" }
%"class.hermes::vm::HadesGC::HeapSegment" = type { %"class.hermes::vm::AlignedHeapSegment" }
%"class.hermes::vm::AlignedHeapSegment" = type { %"struct.hermes::vm::AlignedStorage", ptr, ptr }
%"struct.hermes::vm::AlignedStorage" = type { ptr, ptr }
%"class.hermes::vm::AssignableCompressedPointer" = type { %"class.hermes::vm::CompressedPointer" }
%"class.std::vector.37" = type { %"struct.std::_Vector_base.38" }
%"struct.std::_Vector_base.38" = type { %"struct.std::_Vector_base<hermes::vm::GCCell *, std::allocator<hermes::vm::GCCell *>>::_Vector_impl" }
%"struct.std::_Vector_base<hermes::vm::GCCell *, std::allocator<hermes::vm::GCCell *>>::_Vector_impl" = type { %"struct.std::_Vector_base<hermes::vm::GCCell *, std::allocator<hermes::vm::GCCell *>>::_Vector_impl_data" }
%"struct.std::_Vector_base<hermes::vm::GCCell *, std::allocator<hermes::vm::GCCell *>>::_Vector_impl_data" = type { ptr, ptr, ptr }
%"class.hermes::vm::HadesGC::OldGen" = type { ptr, %"class.std::deque.42", %"class.hermes::ExponentialMovingAverage", i64, i64, %"class.hermes::BitArray", %"class.std::deque.48", %"struct.std::array.54", %"struct.hermes::vm::HadesGC::OldGen::SweepIterator" }
%"class.std::deque.42" = type { %"class.std::_Deque_base.43" }
%"class.std::_Deque_base.43" = type { %"struct.std::_Deque_base<hermes::vm::HadesGC::HeapSegment, std::allocator<hermes::vm::HadesGC::HeapSegment>>::_Deque_impl" }
%"struct.std::_Deque_base<hermes::vm::HadesGC::HeapSegment, std::allocator<hermes::vm::HadesGC::HeapSegment>>::_Deque_impl" = type { %"struct.std::_Deque_base<hermes::vm::HadesGC::HeapSegment, std::allocator<hermes::vm::HadesGC::HeapSegment>>::_Deque_impl_data" }
%"struct.std::_Deque_base<hermes::vm::HadesGC::HeapSegment, std::allocator<hermes::vm::HadesGC::HeapSegment>>::_Deque_impl_data" = type { ptr, i64, %"struct.std::_Deque_iterator.47", %"struct.std::_Deque_iterator.47" }
%"struct.std::_Deque_iterator.47" = type { ptr, ptr, ptr, ptr }
%"class.hermes::BitArray" = type { %"struct.std::array" }
%"struct.std::array" = type { [5 x i64] }
%"class.std::deque.48" = type { %"class.std::_Deque_base.49" }
%"class.std::_Deque_base.49" = type { %"struct.std::_Deque_base<std::array<hermes::vm::HadesGC::OldGen::SegmentBucket, 267>, std::allocator<std::array<hermes::vm::HadesGC::OldGen::SegmentBucket, 267>>>::_Deque_impl" }
%"struct.std::_Deque_base<std::array<hermes::vm::HadesGC::OldGen::SegmentBucket, 267>, std::allocator<std::array<hermes::vm::HadesGC::OldGen::SegmentBucket, 267>>>::_Deque_impl" = type { %"struct.std::_Deque_base<std::array<hermes::vm::HadesGC::OldGen::SegmentBucket, 267>, std::allocator<std::array<hermes::vm::HadesGC::OldGen::SegmentBucket, 267>>>::_Deque_impl_data" }
%"struct.std::_Deque_base<std::array<hermes::vm::HadesGC::OldGen::SegmentBucket, 267>, std::allocator<std::array<hermes::vm::HadesGC::OldGen::SegmentBucket, 267>>>::_Deque_impl_data" = type { ptr, i64, %"struct.std::_Deque_iterator.53", %"struct.std::_Deque_iterator.53" }
%"struct.std::_Deque_iterator.53" = type { ptr, ptr, ptr, ptr }
%"struct.std::array.54" = type { [267 x %"struct.hermes::vm::HadesGC::OldGen::SegmentBucket"] }
%"struct.hermes::vm::HadesGC::OldGen::SegmentBucket" = type <{ ptr, ptr, %"class.hermes::vm::AssignableCompressedPointer", [4 x i8] }>
%"struct.hermes::vm::HadesGC::OldGen::SweepIterator" = type { i64, i64, i64 }
%"class.std::recursive_mutex" = type { %"class.std::__recursive_mutex_base" }
%"class.std::__recursive_mutex_base" = type { %union.pthread_mutex_t }
%union.pthread_mutex_t = type { %struct.__pthread_mutex_s }
%struct.__pthread_mutex_s = type { i32, i32, i32, i32, i32, i16, i16, %struct.__pthread_internal_list }
%struct.__pthread_internal_list = type { ptr, ptr }
%"class.std::_V2::condition_variable_any" = type { %"class.std::condition_variable", %"class.std::shared_ptr.55" }
%"class.std::condition_variable" = type { %"class.std::__condvar" }
%"class.std::__condvar" = type { %union.pthread_cond_t }
%union.pthread_cond_t = type { %struct.__pthread_cond_s }
%struct.__pthread_cond_s = type { %union.__atomic_wide_counter, %union.__atomic_wide_counter, [2 x i32], [2 x i32], i32, i32, [2 x i32] }
%union.__atomic_wide_counter = type { i64 }
%"class.std::shared_ptr.55" = type { %"class.std::__shared_ptr.56" }
%"class.std::__shared_ptr.56" = type { ptr, %"class.std::__shared_count" }
%"class.std::unique_ptr.58" = type { %"struct.std::__uniq_ptr_data.59" }
%"struct.std::__uniq_ptr_data.59" = type { %"class.std::__uniq_ptr_impl.60" }
%"class.std::__uniq_ptr_impl.60" = type { %"class.std::tuple.61" }
%"class.std::tuple.61" = type { %"struct.std::_Tuple_impl.62" }
%"struct.std::_Tuple_impl.62" = type { %"struct.std::_Head_base.65" }
%"struct.std::_Head_base.65" = type { ptr }
%"class.std::unique_ptr.66" = type { %"struct.std::__uniq_ptr_data.67" }
%"struct.std::__uniq_ptr_data.67" = type { %"class.std::__uniq_ptr_impl.68" }
%"class.std::__uniq_ptr_impl.68" = type { %"class.std::tuple.69" }
%"class.std::tuple.69" = type { %"struct.std::_Tuple_impl.70" }
%"struct.std::_Tuple_impl.70" = type { %"struct.std::_Head_base.73" }
%"struct.std::_Head_base.73" = type { ptr }
%"class.std::future" = type { %"class.std::__basic_future" }
%"class.std::__basic_future" = type { %"class.std::shared_ptr.74" }
%"class.std::shared_ptr.74" = type { %"class.std::__shared_ptr.75" }
%"class.std::__shared_ptr.75" = type { ptr, %"class.std::__shared_count" }
%"class.std::unique_ptr.77" = type { %"struct.std::__uniq_ptr_data.78" }
%"struct.std::__uniq_ptr_data.78" = type { %"class.std::__uniq_ptr_impl.79" }
%"class.std::__uniq_ptr_impl.79" = type { %"class.std::tuple.80" }
%"class.std::tuple.80" = type { %"struct.std::_Tuple_impl.81" }
%"struct.std::_Tuple_impl.81" = type { %"struct.std::_Head_base.84" }
%"struct.std::_Head_base.84" = type { ptr }
%"struct.hermes::vm::GCBase::CumulativeHeapStats" = type { i32, %"class.hermes::StatsAccumulator", %"class.hermes::StatsAccumulator", i32, %"class.hermes::StatsAccumulator.10", %"class.hermes::StatsAccumulator.10" }
%"class.hermes::StatsAccumulator" = type { i32, double, double, double, double }
%"class.hermes::StatsAccumulator.10" = type { i32, i64, i32, i32, double }
%"class.hermes::ExponentialMovingAverage" = type { double, double }
%"struct.hermes::vm::HadesGC::CompacteeState" = type { ptr, %"class.hermes::vm::AssignableCompressedPointer", ptr, %"class.hermes::vm::AssignableCompressedPointer", %"class.std::shared_ptr.85" }
%"class.std::shared_ptr.85" = type { %"class.std::__shared_ptr.86" }
%"class.std::__shared_ptr.86" = type { ptr, %"class.std::__shared_count" }
%"struct.hermes::vm::HadesGC::NativeIDs" = type { i32, i32 }
%"class.std::vector.88" = type { %"struct.std::_Vector_base.89" }
%"struct.std::_Vector_base.89" = type { %"struct.std::_Vector_base<std::function<void (hermes::vm::HadesGC *, hermes::vm::RootAcceptor &)>, std::allocator<std::function<void (hermes::vm::HadesGC *, hermes::vm::RootAcceptor &)>>>::_Vector_impl" }
%"struct.std::_Vector_base<std::function<void (hermes::vm::HadesGC *, hermes::vm::RootAcceptor &)>, std::allocator<std::function<void (hermes::vm::HadesGC *, hermes::vm::RootAcceptor &)>>>::_Vector_impl" = type { %"struct.std::_Vector_base<std::function<void (hermes::vm::HadesGC *, hermes::vm::RootAcceptor &)>, std::allocator<std::function<void (hermes::vm::HadesGC *, hermes::vm::RootAcceptor &)>>>::_Vector_impl_data" }
%"struct.std::_Vector_base<std::function<void (hermes::vm::HadesGC *, hermes::vm::RootAcceptor &)>, std::allocator<std::function<void (hermes::vm::HadesGC *, hermes::vm::RootAcceptor &)>>>::_Vector_impl_data" = type { ptr, ptr, ptr }
%"class.std::vector.93" = type { %"struct.std::_Vector_base.94" }
%"struct.std::_Vector_base.94" = type { %"struct.std::_Vector_base<std::function<void (hermes::vm::HadesGC *, hermes::vm::WeakRootAcceptor &)>, std::allocator<std::function<void (hermes::vm::HadesGC *, hermes::vm::WeakRootAcceptor &)>>>::_Vector_impl" }
%"struct.std::_Vector_base<std::function<void (hermes::vm::HadesGC *, hermes::vm::WeakRootAcceptor &)>, std::allocator<std::function<void (hermes::vm::HadesGC *, hermes::vm::WeakRootAcceptor &)>>>::_Vector_impl" = type { %"struct.std::_Vector_base<std::function<void (hermes::vm::HadesGC *, hermes::vm::WeakRootAcceptor &)>, std::allocator<std::function<void (hermes::vm::HadesGC *, hermes::vm::WeakRootAcceptor &)>>>::_Vector_impl_data" }
%"struct.std::_Vector_base<std::function<void (hermes::vm::HadesGC *, hermes::vm::WeakRootAcceptor &)>, std::allocator<std::function<void (hermes::vm::HadesGC *, hermes::vm::WeakRootAcceptor &)>>>::_Vector_impl_data" = type { ptr, ptr, ptr }
%"class.std::vector.98" = type { %"struct.std::_Vector_base.99" }
%"struct.std::_Vector_base.99" = type { %"struct.std::_Vector_base<std::function<void (hermes::vm::HeapSnapshot &)>, std::allocator<std::function<void (hermes::vm::HeapSnapshot &)>>>::_Vector_impl" }
%"struct.std::_Vector_base<std::function<void (hermes::vm::HeapSnapshot &)>, std::allocator<std::function<void (hermes::vm::HeapSnapshot &)>>>::_Vector_impl" = type { %"struct.std::_Vector_base<std::function<void (hermes::vm::HeapSnapshot &)>, std::allocator<std::function<void (hermes::vm::HeapSnapshot &)>>>::_Vector_impl_data" }
%"struct.std::_Vector_base<std::function<void (hermes::vm::HeapSnapshot &)>, std::allocator<std::function<void (hermes::vm::HeapSnapshot &)>>>::_Vector_impl_data" = type { ptr, ptr, ptr }
%"class.std::chrono::time_point" = type { %"class.std::chrono::duration" }
%"class.std::chrono::duration" = type { i64 }
%"class.hermes::vm::IdentifierTable" = type <{ %"class.hermes::vm::IdentifierTable::ConservativeVector", %"class.llvh::BitVector", %"class.hermes::vm::detail::IdentifierHashTable", i32, [4 x i8] }>
%"class.hermes::vm::IdentifierTable::ConservativeVector" = type { %"class.std::vector.103" }
%"class.std::vector.103" = type { %"struct.std::_Vector_base.104" }
%"struct.std::_Vector_base.104" = type { %"struct.std::_Vector_base<hermes::vm::IdentifierTable::LookupEntry, std::allocator<hermes::vm::IdentifierTable::LookupEntry>>::_Vector_impl" }
%"struct.std::_Vector_base<hermes::vm::IdentifierTable::LookupEntry, std::allocator<hermes::vm::IdentifierTable::LookupEntry>>::_Vector_impl" = type { %"struct.std::_Vector_base<hermes::vm::IdentifierTable::LookupEntry, std::allocator<hermes::vm::IdentifierTable::LookupEntry>>::_Vector_impl_data" }
%"struct.std::_Vector_base<hermes::vm::IdentifierTable::LookupEntry, std::allocator<hermes::vm::IdentifierTable::LookupEntry>>::_Vector_impl_data" = type { ptr, ptr, ptr }
%"class.llvh::BitVector" = type <{ %"class.llvh::MutableArrayRef", i32, [4 x i8] }>
%"class.llvh::MutableArrayRef" = type { %"class.llvh::ArrayRef" }
%"class.llvh::ArrayRef" = type { ptr, i64 }
%"class.hermes::vm::detail::IdentifierHashTable" = type { %"class.hermes::CompactTable", ptr, i32, i32 }
%"class.hermes::CompactTable" = type { %"class.hermes::CompactArray" }
%"class.hermes::CompactArray" = type { i32, i32, ptr }
%"class.hermes::vm::SymbolRegistry" = type { %"class.hermes::vm::PinnedHermesValue", %"class.llvh::DenseSet" }
%"class.llvh::DenseSet" = type { %"class.llvh::detail::DenseSetImpl" }
%"class.llvh::detail::DenseSetImpl" = type { %"class.llvh::DenseMap.108" }
%"class.llvh::DenseMap.108" = type <{ ptr, i32, i32, i32, [4 x i8] }>
%"class.std::unique_ptr.111" = type { %"struct.std::__uniq_ptr_data.112" }
%"struct.std::__uniq_ptr_data.112" = type { %"class.std::__uniq_ptr_impl.113" }
%"class.std::__uniq_ptr_impl.113" = type { %"class.std::tuple.114" }
%"class.std::tuple.114" = type { %"struct.std::_Tuple_impl.115" }
%"struct.std::_Tuple_impl.115" = type { %"struct.std::_Head_base.118" }
%"struct.std::_Head_base.118" = type { ptr }
%"class.llvh::simple_ilist" = type { %"class.llvh::ilist_sentinel" }
%"class.llvh::ilist_sentinel" = type { %"class.llvh::ilist_node_impl" }
%"class.hermes::vm::CrashTraceNoop" = type { i8 }
%"class.llvh::MutableArrayRef.119" = type { %"class.llvh::ArrayRef.120" }
%"class.llvh::ArrayRef.120" = type { ptr, i64 }
%"class.std::shared_ptr.6" = type { %"class.std::__shared_ptr.7" }
%"class.std::__shared_ptr.7" = type { ptr, %"class.std::__shared_count" }
%"class.hermes::vm::StackFramePtrT" = type { ptr }
%"struct.std::array.121" = type { [8 x %"class.hermes::vm::PinnedHermesValue"] }
%"struct.hermes::vm::PropertyCacheEntry" = type { %"class.hermes::vm::WeakRoot", i32 }
%"class.hermes::vm::WeakRoot" = type { %"class.hermes::vm::WeakRootBase" }
%"class.std::vector.122" = type { %"struct.std::_Vector_base.123" }
%"struct.std::_Vector_base.123" = type { %"struct.std::_Vector_base<hermes::vm::PinnedHermesValue, std::allocator<hermes::vm::PinnedHermesValue>>::_Vector_impl" }
%"struct.std::_Vector_base<hermes::vm::PinnedHermesValue, std::allocator<hermes::vm::PinnedHermesValue>>::_Vector_impl" = type { %"struct.std::_Vector_base<hermes::vm::PinnedHermesValue, std::allocator<hermes::vm::PinnedHermesValue>>::_Vector_impl_data" }
%"struct.std::_Vector_base<hermes::vm::PinnedHermesValue, std::allocator<hermes::vm::PinnedHermesValue>>::_Vector_impl_data" = type { ptr, ptr, ptr }
%"class.std::vector.127" = type { %"struct.std::_Vector_base.128" }
%"struct.std::_Vector_base.128" = type { %"struct.std::_Vector_base<hermes::vm::JSObject *, std::allocator<hermes::vm::JSObject *>>::_Vector_impl" }
%"struct.std::_Vector_base<hermes::vm::JSObject *, std::allocator<hermes::vm::JSObject *>>::_Vector_impl" = type { %"struct.std::_Vector_base<hermes::vm::JSObject *, std::allocator<hermes::vm::JSObject *>>::_Vector_impl_data" }
%"struct.std::_Vector_base<hermes::vm::JSObject *, std::allocator<hermes::vm::JSObject *>>::_Vector_impl_data" = type { ptr, ptr, ptr }
%"class.std::vector.132" = type { %"struct.std::_Vector_base.133" }
%"struct.std::_Vector_base.133" = type { %"struct.std::_Vector_base<hermes::vm::Callable *, std::allocator<hermes::vm::Callable *>>::_Vector_impl" }
%"struct.std::_Vector_base<hermes::vm::Callable *, std::allocator<hermes::vm::Callable *>>::_Vector_impl" = type { %"struct.std::_Vector_base<hermes::vm::Callable *, std::allocator<hermes::vm::Callable *>>::_Vector_impl_data" }
%"struct.std::_Vector_base<hermes::vm::Callable *, std::allocator<hermes::vm::Callable *>>::_Vector_impl_data" = type { ptr, ptr, ptr }
%"class.std::deque.137" = type { %"class.std::_Deque_base.138" }
%"class.std::_Deque_base.138" = type { %"struct.std::_Deque_base<hermes::vm::Callable *, std::allocator<hermes::vm::Callable *>>::_Deque_impl" }
%"struct.std::_Deque_base<hermes::vm::Callable *, std::allocator<hermes::vm::Callable *>>::_Deque_impl" = type { %"struct.std::_Deque_base<hermes::vm::Callable *, std::allocator<hermes::vm::Callable *>>::_Deque_impl_data" }
%"struct.std::_Deque_base<hermes::vm::Callable *, std::allocator<hermes::vm::Callable *>>::_Deque_impl_data" = type { ptr, i64, %"struct.std::_Deque_iterator.139", %"struct.std::_Deque_iterator.139" }
%"struct.std::_Deque_iterator.139" = type { ptr, ptr, ptr, ptr }
%"class.std::unique_ptr.140" = type { %"struct.std::__uniq_ptr_data.141" }
%"struct.std::__uniq_ptr_data.141" = type { %"class.std::__uniq_ptr_impl.142" }
%"class.std::__uniq_ptr_impl.142" = type { %"class.std::tuple.143" }
%"class.std::tuple.143" = type { %"struct.std::_Tuple_impl.144" }
%"struct.std::_Tuple_impl.144" = type { %"struct.std::_Head_base.147" }
%"struct.std::_Head_base.147" = type { ptr }
%"struct.std::atomic.148" = type { %"struct.std::__atomic_base.149" }
%"struct.std::__atomic_base.149" = type { i8 }
%"class.std::vector.150" = type { %"struct.std::_Vector_base.151" }
%"struct.std::_Vector_base.151" = type { %"struct.std::_Vector_base<std::shared_ptr<hermes::hbc::BCProviderFromBuffer>, std::allocator<std::shared_ptr<hermes::hbc::BCProviderFromBuffer>>>::_Vector_impl" }
%"struct.std::_Vector_base<std::shared_ptr<hermes::hbc::BCProviderFromBuffer>, std::allocator<std::shared_ptr<hermes::hbc::BCProviderFromBuffer>>>::_Vector_impl" = type { %"struct.std::_Vector_base<std::shared_ptr<hermes::hbc::BCProviderFromBuffer>, std::allocator<std::shared_ptr<hermes::hbc::BCProviderFromBuffer>>>::_Vector_impl_data" }
%"struct.std::_Vector_base<std::shared_ptr<hermes::hbc::BCProviderFromBuffer>, std::allocator<std::shared_ptr<hermes::hbc::BCProviderFromBuffer>>>::_Vector_impl_data" = type { ptr, ptr, ptr }
%"class.std::function.155" = type { %"class.std::_Function_base", ptr }
%"class.hermes::vm::GCScope" = type <{ ptr, ptr, [128 x i8], %"class.llvh::SmallVector.211", ptr, ptr, i32, [4 x i8] }>
%"class.llvh::SmallVector.211" = type { %"class.llvh::SmallVectorImpl.212", %"struct.llvh::SmallVectorStorage.215" }
%"class.llvh::SmallVectorImpl.212" = type { %"class.llvh::SmallVectorTemplateBase.213" }
%"class.llvh::SmallVectorTemplateBase.213" = type { %"class.llvh::SmallVectorTemplateCommon.214" }
%"class.llvh::SmallVectorTemplateCommon.214" = type { %"class.llvh::SmallVectorBase" }
%"struct.llvh::SmallVectorStorage.215" = type { [4 x %"struct.llvh::AlignedCharArrayUnion.216"] }
%"struct.llvh::AlignedCharArrayUnion.216" = type { %"struct.llvh::AlignedCharArray.217" }
%"struct.llvh::AlignedCharArray.217" = type { [8 x i8] }
%"class.hermes::vm::BoxedDouble" = type { %"class.hermes::vm::GCCell", double }
%"class.hermes::vm::GCCell" = type { %union.anon.179 }
%union.anon.179 = type { %"class.hermes::vm::KindAndSize" }
%"class.hermes::vm::KindAndSize" = type { i32 }
%"class.hermes::vm::ArrayImpl" = type { %"class.hermes::vm::JSObject", i32, i32, %"class.hermes::vm::GCPointer.189" }
%"class.hermes::vm::JSObject" = type { %"class.hermes::vm::GCCell", %"struct.hermes::vm::ObjectFlags", %"class.hermes::vm::GCPointer", %"class.hermes::vm::GCPointer.180", %"class.hermes::vm::GCPointer.181" }
%"struct.hermes::vm::ObjectFlags" = type { i32 }
%"class.hermes::vm::GCPointer" = type { %"class.hermes::vm::GCPointerBase" }
%"class.hermes::vm::GCPointerBase" = type { %"class.hermes::vm::CompressedPointer" }
%"class.hermes::vm::GCPointer.180" = type { %"class.hermes::vm::GCPointerBase" }
%"class.hermes::vm::GCPointer.181" = type { %"class.hermes::vm::GCPointerBase" }
%"class.hermes::vm::GCPointer.189" = type { %"class.hermes::vm::GCPointerBase" }
%"class.hermes::vm::SegmentedArrayBase" = type { %"class.hermes::vm::VariableSizeRuntimeCell", %"struct.std::atomic.226" }
%"class.hermes::vm::VariableSizeRuntimeCell" = type { %"class.hermes::vm::GCCell" }
%"struct.std::atomic.226" = type { %"struct.std::__atomic_base.227" }
%"struct.std::__atomic_base.227" = type { i32 }
%"class.hermes::vm::GCHermesValueBase" = type { %"class.hermes::vm::HermesValue32" }
%"class.hermes::vm::HermesValue32" = type { i32 }
%"class.hermes::vm::SegmentedArrayBase<hermes::vm::HermesValue32>::Segment" = type { %"class.hermes::vm::GCCell", %"struct.std::atomic.226", [1024 x %"class.hermes::vm::GCHermesValueBase"] }
%"class.hermes::vm::MutableHandle" = type { %"class.hermes::vm::Handle.3" }
%"class.hermes::vm::Handle.3" = type { %"class.hermes::vm::HandleBase" }
%"class.hermes::vm::HandleBase" = type { ptr }
%"class.hermes::vm::MutableHandle.194" = type { %"class.hermes::vm::Handle.195" }
%"class.hermes::vm::Handle.195" = type { %"class.hermes::vm::HandleBase" }
%"struct.hermes::vm::ComputedPropertyDescriptor" = type { %"struct.hermes::vm::PropertyDescriptor" }
%"struct.hermes::vm::PropertyDescriptor" = type { %union.anon.196, i32 }
%union.anon.196 = type { i32 }
%"struct.hermes::vm::ObjectVTable" = type { %"struct.hermes::vm::VTable", ptr, ptr, ptr, ptr, ptr, ptr, ptr }
%"struct.hermes::vm::VTable" = type { i64, i32, i32, ptr, ptr, ptr, ptr }
%"class.hermes::vm::JSObjectAndDirectProps" = type { %"class.hermes::vm::JSObject", [5 x %"class.hermes::vm::GCHermesValueBase"] }
%"class.hermes::vm::ArrayStorageBase" = type { %"class.hermes::vm::VariableSizeRuntimeCell", %"struct.std::atomic.226" }
%"class.hermes::vm::NativeFunction" = type { %"class.hermes::vm::Callable", ptr, ptr }
%"class.hermes::vm::Callable" = type { %"class.hermes::vm::JSObject", %"class.hermes::vm::GCPointer.182" }
%"class.hermes::vm::GCPointer.182" = type { %"class.hermes::vm::GCPointerBase" }
%"class.hermes::vm::StringPrimitive" = type { %"class.hermes::vm::VariableSizeRuntimeCell", i32 }
%"class.hermes::vm::ExternalStringPrimitive" = type { %"class.hermes::vm::SymbolStringPrimitive", %"class.std::__cxx11::basic_string" }
%"class.hermes::vm::SymbolStringPrimitive" = type { %"class.hermes::vm::StringPrimitive", %"class.hermes::vm::SymbolID" }
%"class.hermes::vm::SymbolID" = type { i32 }
%"class.hermes::vm::DynamicStringPrimitive" = type { %"class.hermes::vm::SymbolStringPrimitive" }
%"class.hermes::vm::DynamicStringPrimitive.241" = type { %"class.hermes::vm::StringPrimitive" }
%"class.hermes::vm::BufferedStringPrimitive" = type { %"class.hermes::vm::StringPrimitive", %"class.hermes::vm::GCHermesValueBase.245" }
%"class.hermes::vm::GCHermesValueBase.245" = type { %"class.hermes::vm::HermesValue" }
%"class.hermes::vm::ExternalStringPrimitive.249" = type { %"class.hermes::vm::SymbolStringPrimitive", %"class.std::__cxx11::basic_string.250" }
%"class.std::__cxx11::basic_string.250" = type { %"struct.std::__cxx11::basic_string<char16_t>::_Alloc_hider", i64, %union.anon.254 }
%"struct.std::__cxx11::basic_string<char16_t>::_Alloc_hider" = type { ptr }
%union.anon.254 = type { i64, [8 x i8] }
%"class.hermes::vm::DynamicStringPrimitive.255" = type { %"class.hermes::vm::SymbolStringPrimitive" }
%"class.hermes::vm::DynamicStringPrimitive.261" = type { %"class.hermes::vm::StringPrimitive" }
%"class.hermes::vm::BufferedStringPrimitive.265" = type { %"class.hermes::vm::StringPrimitive", %"class.hermes::vm::GCHermesValueBase.245" }
%"class.hermes::vm::StringView" = type { %union.anon.269, i32, i32 }
%union.anon.269 = type { ptr }
%"class.hermes::vm::SmallXString" = type { %"class.llvh::SmallVector.273" }
%"class.llvh::SmallVector.273" = type { %"class.llvh::SmallVectorImpl.274", %"struct.llvh::SmallVectorStorage.277" }
%"class.llvh::SmallVectorImpl.274" = type { %"class.llvh::SmallVectorTemplateBase.275" }
%"class.llvh::SmallVectorTemplateBase.275" = type { %"class.llvh::SmallVectorTemplateCommon.276" }
%"class.llvh::SmallVectorTemplateCommon.276" = type { %"class.llvh::SmallVectorBase" }
%"struct.llvh::SmallVectorStorage.277" = type { [32 x %"struct.llvh::AlignedCharArrayUnion.278"] }
%"struct.llvh::AlignedCharArrayUnion.278" = type { %"struct.llvh::AlignedCharArray.279" }
%"struct.llvh::AlignedCharArray.279" = type { [2 x i8] }
%"class.hermes::vm::TwineChar16" = type { %"union.hermes::vm::TwineChar16::Node", i32, %"union.hermes::vm::TwineChar16::Node", i32, i64, i64 }
%"union.hermes::vm::TwineChar16::Node" = type { ptr }
%"struct.hermes::vm::NamedPropertyDescriptor" = type { %"struct.hermes::vm::PropertyDescriptor" }
%"class.hermes::vm::PropertyAccessor" = type { %"class.hermes::vm::GCCell", %"class.hermes::vm::GCPointer.202", %"class.hermes::vm::GCPointer.202" }
%"class.hermes::vm::GCPointer.202" = type { %"class.hermes::vm::GCPointerBase" }
%"class.hermes::vm::SerializedLiteralParser" = type { %"class.hermes::hbc::SerializedLiteralParserBase", ptr }
%"class.hermes::hbc::SerializedLiteralParserBase" = type { %"class.llvh::ArrayRef.206", i32, i8, i32, i32 }
%"class.llvh::ArrayRef.206" = type { ptr, i64 }
%"class.hermes::vm::CallResult.290" = type { %"class.llvh::Optional.291" }
%"class.llvh::Optional.291" = type { %"struct.llvh::optional_detail::OptionalStorage.292" }
%"struct.llvh::optional_detail::OptionalStorage.292" = type { %"struct.llvh::AlignedCharArrayUnion.293", i8, [7 x i8] }
%"struct.llvh::AlignedCharArrayUnion.293" = type { %"struct.llvh::AlignedCharArray.294" }
%"struct.llvh::AlignedCharArray.294" = type { [16 x i8] }
%"class.hermes::vm::RootSymbolID" = type { %"class.hermes::vm::SymbolID" }
%"class.hermes::vm::HiddenClass" = type { %"class.hermes::vm::GCCell", %"class.hermes::vm::GCSymbolID", %"struct.hermes::vm::PropertyFlags", %"struct.hermes::vm::ClassFlags", i32, %"class.hermes::vm::GCPointer.297", %"class.hermes::vm::detail::TransitionMap", %"class.hermes::vm::GCPointer.180", %"class.hermes::vm::GCPointer.298" }
%"class.hermes::vm::GCSymbolID" = type { %"class.hermes::vm::SymbolID" }
%"struct.hermes::vm::PropertyFlags" = type { %union.anon.197 }
%union.anon.197 = type { %struct.anon.198 }
%struct.anon.198 = type { i16 }
%"struct.hermes::vm::ClassFlags" = type { i8 }
%"class.hermes::vm::GCPointer.297" = type { %"class.hermes::vm::GCPointerBase" }
%"class.hermes::vm::detail::TransitionMap" = type { %"class.hermes::vm::detail::Transition", %"union.hermes::vm::detail::TransitionMap::U" }
%"class.hermes::vm::detail::Transition" = type <{ %"class.hermes::vm::SymbolID", %"struct.hermes::vm::PropertyFlags", [2 x i8] }>
%"union.hermes::vm::detail::TransitionMap::U" = type { %"class.hermes::vm::WeakRef" }
%"class.hermes::vm::WeakRef" = type { %"class.hermes::vm::WeakRefBase" }
%"class.hermes::vm::WeakRefBase" = type { ptr }
%"class.hermes::vm::GCPointer.298" = type { %"class.hermes::vm::GCPointerBase" }
%"struct.hermes::vm::InterpreterState" = type <{ ptr, i32, [4 x i8] }>
%"class.hermes::vm::CodeCoverageProfiler" = type <{ ptr, %"class.std::mutex", %"class.llvh::DenseMap.300", %"class.llvh::DenseSet.303", i8, [7 x i8] }>
%"class.std::mutex" = type { %"class.std::__mutex_base" }
%"class.std::__mutex_base" = type { %union.pthread_mutex_t }
%"class.llvh::DenseMap.300" = type <{ ptr, i32, i32, i32, [4 x i8] }>
%"class.llvh::DenseSet.303" = type { %"class.llvh::detail::DenseSetImpl.304" }
%"class.llvh::detail::DenseSetImpl.304" = type { %"class.llvh::DenseMap.305" }
%"class.llvh::DenseMap.305" = type <{ ptr, i32, i32, i32, [4 x i8] }>
%"class.hermes::vm::CodeBlock" = type <{ ptr, %"class.hermes::hbc::RuntimeFunctionHeader", ptr, i32, i32, i32, [4 x i8] }>
%"class.hermes::hbc::RuntimeFunctionHeader" = type { ptr }
%"struct.hermes::hbc::SmallFuncHeader" = type { [15 x i8], %"union.hermes::hbc::FunctionHeaderFlag" }
%"union.hermes::hbc::FunctionHeaderFlag" = type { %struct.anon.308 }
%struct.anon.308 = type { i8 }
%"struct.hermes::inst::MovInst" = type { i8, i8, i8 }
%"struct.hermes::inst::MovLongInst" = type <{ i8, i32, i32 }>
%"struct.hermes::inst::LoadParamInst" = type { i8, i8, i8 }
%"struct.hermes::inst::LoadParamLongInst" = type <{ i8, i8, i32 }>
%"struct.hermes::inst::CoerceThisNSInst" = type { i8, i8, i8 }
%"struct.hermes::inst::LoadThisNSInst" = type { i8, i8 }
%"struct.hermes::inst::ConstructLongInst" = type <{ i8, i8, i8, i32 }>
%"struct.hermes::inst::CallLongInst" = type <{ i8, i8, i8, i32 }>
%"struct.hermes::inst::Call1Inst" = type { i8, i8, i8, i8 }
%"struct.hermes::inst::Call2Inst" = type { i8, i8, i8, i8, i8 }
%"struct.hermes::inst::Call3Inst" = type { i8, i8, i8, i8, i8, i8 }
%"struct.hermes::inst::Call4Inst" = type { i8, i8, i8, i8, i8, i8, i8 }
%"struct.hermes::inst::ConstructInst" = type { i8, i8, i8, i8 }
%"struct.hermes::inst::CallInst" = type { i8, i8, i8, i8 }
%"class.hermes::vm::JSFunction" = type <{ %"class.hermes::vm::Callable", %"class.hermes::vm::XorPtr", %"class.hermes::vm::GCPointer.299", [4 x i8] }>
%"class.hermes::vm::XorPtr" = type { i64 }
%"class.hermes::vm::GCPointer.299" = type { %"class.hermes::vm::GCPointerBase" }
%"struct.hermes::inst::CallDirectInst" = type <{ i8, i8, i8, i16 }>
%"struct.hermes::inst::CallDirectLongIndexInst" = type <{ i8, i8, i8, i32 }>
%"struct.hermes::inst::CallBuiltinInst" = type { i8, i8, i8, i8 }
%"struct.hermes::inst::GetBuiltinClosureInst" = type { i8, i8, i8 }
%"struct.hermes::inst::CallBuiltinLongInst" = type <{ i8, i8, i8, i32 }>
%"class.hermes::vm::GeneratorInnerFunction" = type <{ %"class.hermes::vm::JSFunction.base", i32, i32, %"class.hermes::vm::GCPointer.218", %"class.hermes::vm::GCHermesValueBase", i32, i32, i8, [3 x i8] }>
%"class.hermes::vm::JSFunction.base" = type <{ %"class.hermes::vm::Callable", %"class.hermes::vm::XorPtr", %"class.hermes::vm::GCPointer.299" }>
%"class.hermes::vm::GCPointer.218" = type { %"class.hermes::vm::GCPointerBase" }
%"struct.hermes::inst::CompleteGeneratorInst" = type { i8 }
%"struct.hermes::inst::SaveGeneratorInst" = type { i8, i8 }
%"struct.hermes::inst::SaveGeneratorLongInst" = type <{ i8, i32 }>
%"struct.hermes::inst::StartGeneratorInst" = type { i8 }
%"struct.hermes::inst::ResumeGeneratorInst" = type { i8, i8, i8 }
%"struct.hermes::inst::RetInst" = type { i8, i8 }
%"struct.hermes::inst::CatchInst" = type { i8, i8 }
%"struct.hermes::inst::ThrowInst" = type { i8, i8 }
%"struct.hermes::inst::ThrowIfEmptyInst" = type { i8, i8, i8 }
%"struct.hermes::inst::DebuggerInst" = type { i8 }
%"struct.hermes::inst::AsyncBreakCheckInst" = type { i8 }
%"struct.hermes::inst::ProfilePointInst" = type <{ i8, i16 }>
%"struct.hermes::inst::CreateClosureInst" = type <{ i8, i8, i8, i16 }>
%"struct.hermes::inst::CreateClosureLongIndexInst" = type <{ i8, i8, i8, i32 }>
%"struct.hermes::inst::CreateAsyncClosureInst" = type <{ i8, i8, i8, i16 }>
%"struct.hermes::inst::CreateAsyncClosureLongIndexInst" = type <{ i8, i8, i8, i32 }>
%"struct.hermes::inst::CreateGeneratorClosureInst" = type <{ i8, i8, i8, i16 }>
%"struct.hermes::inst::CreateGeneratorClosureLongIndexInst" = type <{ i8, i8, i8, i32 }>
%"struct.hermes::inst::CreateGeneratorInst" = type <{ i8, i8, i8, i16 }>
%"struct.hermes::inst::CreateGeneratorLongIndexInst" = type <{ i8, i8, i8, i32 }>
%"struct.hermes::inst::GetEnvironmentInst" = type { i8, i8, i8 }
%"class.hermes::vm::Environment" = type { %"class.hermes::vm::VariableSizeRuntimeCell", %"class.hermes::vm::GCPointer.182", %"struct.std::atomic.226", [4 x i8] }
%"struct.hermes::inst::CreateInnerEnvironmentInst" = type <{ i8, i8, i8, i32 }>
%"struct.hermes::inst::CreateEnvironmentInst" = type { i8, i8 }
%"struct.hermes::inst::StoreToEnvironmentInst" = type { i8, i8, i8, i8 }
%"struct.hermes::inst::StoreToEnvironmentLInst" = type <{ i8, i8, i16, i8 }>
%"struct.hermes::inst::StoreNPToEnvironmentInst" = type { i8, i8, i8, i8 }
%"struct.hermes::inst::StoreNPToEnvironmentLInst" = type <{ i8, i8, i16, i8 }>
%"struct.hermes::inst::LoadFromEnvironmentInst" = type { i8, i8, i8, i8 }
%"struct.hermes::inst::LoadFromEnvironmentLInst" = type <{ i8, i8, i8, i16 }>
%"struct.hermes::inst::GetGlobalObjectInst" = type { i8, i8 }
%"struct.hermes::inst::GetNewTargetInst" = type { i8, i8 }
%"struct.hermes::inst::DeclareGlobalVarInst" = type <{ i8, i32 }>
%"struct.hermes::inst::ThrowIfHasRestrictedGlobalPropertyInst" = type <{ i8, i32 }>
%"struct.hermes::inst::TryGetByIdLongInst" = type { i8, i8, i8, i8, i32 }
%"struct.hermes::inst::GetByIdLongInst" = type { i8, i8, i8, i8, i32 }
%"struct.hermes::inst::GetByIdShortInst" = type { i8, i8, i8, i8, i8 }
%"struct.hermes::inst::TryGetByIdInst" = type { i8, i8, i8, i8, i16 }
%"struct.hermes::inst::GetByIdInst" = type { i8, i8, i8, i8, i16 }
%"class.hermes::vm::DictPropertyMap" = type { %"class.hermes::vm::VariableSizeRuntimeCell", i32, i32, %"struct.std::atomic.226", i32, i32, i32 }
%"struct.std::pair.341" = type { %"class.hermes::vm::GCSymbolID", %"struct.hermes::vm::NamedPropertyDescriptor" }
%"class.hermes::vm::detail::DPMHashPair" = type { %struct.anon.352 }
%struct.anon.352 = type { i32 }
%"struct.hermes::inst::TryPutByIdLongInst" = type { i8, i8, i8, i8, i32 }
%"struct.hermes::inst::PutByIdLongInst" = type { i8, i8, i8, i8, i32 }
%"struct.hermes::inst::TryPutByIdInst" = type { i8, i8, i8, i8, i16 }
%"struct.hermes::inst::PutByIdInst" = type { i8, i8, i8, i8, i16 }
%"struct.hermes::inst::GetByValInst" = type { i8, i8, i8, i8 }
%"struct.hermes::inst::PutByValInst" = type { i8, i8, i8, i8 }
%"struct.hermes::inst::PutOwnByIndexLInst" = type <{ i8, i8, i8, i32 }>
%"struct.hermes::inst::PutOwnByIndexInst" = type { i8, i8, i8, i8 }
%"struct.hermes::inst::GetPNameListInst" = type { i8, i8, i8, i8, i8 }
%"struct.hermes::inst::GetNextPNameInst" = type { i8, i8, i8, i8, i8, i8 }
%"class.hermes::vm::SegmentedArrayBase.319" = type { %"class.hermes::vm::VariableSizeRuntimeCell", %"struct.std::atomic.226" }
%"class.hermes::vm::SegmentedArrayBase<hermes::vm::HermesValue>::Segment" = type { %"class.hermes::vm::GCCell", %"struct.std::atomic.226", [1024 x %"class.hermes::vm::GCHermesValueBase.245"] }
%"struct.hermes::inst::ToNumberInst" = type { i8, i8, i8 }
%"struct.hermes::inst::ToNumericInst" = type { i8, i8, i8 }
%"struct.hermes::inst::ToInt32Inst" = type { i8, i8, i8 }
%"struct.hermes::inst::AddEmptyStringInst" = type { i8, i8, i8 }
%"struct.hermes::inst::JmpInst" = type { i8, i8 }
%"struct.hermes::inst::JmpLongInst" = type <{ i8, i32 }>
%"struct.hermes::inst::JmpTrueInst" = type { i8, i8, i8 }
%"struct.hermes::inst::JmpTrueLongInst" = type <{ i8, i32, i8 }>
%"struct.hermes::inst::JmpFalseInst" = type { i8, i8, i8 }
%"struct.hermes::inst::JmpFalseLongInst" = type <{ i8, i32, i8 }>
%"struct.hermes::inst::JmpUndefinedInst" = type { i8, i8, i8 }
%"struct.hermes::inst::JmpUndefinedLongInst" = type <{ i8, i32, i8 }>
%"struct.hermes::inst::IncInst" = type { i8, i8, i8 }
%"struct.hermes::inst::DecInst" = type { i8, i8, i8 }
%"struct.hermes::inst::AddInst" = type { i8, i8, i8, i8 }
%"struct.hermes::inst::BitNotInst" = type { i8, i8, i8 }
%"struct.hermes::inst::GetArgumentsLengthInst" = type { i8, i8, i8 }
%"struct.hermes::inst::GetArgumentsPropByValInst" = type { i8, i8, i8, i8 }
%"struct.hermes::inst::ReifyArgumentsInst" = type { i8, i8 }
%"struct.hermes::inst::NewObjectInst" = type { i8, i8 }
%"struct.hermes::inst::NewObjectWithParentInst" = type { i8, i8, i8 }
%"struct.hermes::inst::NewObjectWithBufferInst" = type { i8, i8, i16, i16, i16, i16 }
%"struct.hermes::inst::NewObjectWithBufferLongInst" = type <{ i8, i8, i16, i16, i32, i32 }>
%"struct.hermes::inst::NewArrayInst" = type { i8, i8, i16 }
%"struct.hermes::inst::NewArrayWithBufferInst" = type { i8, i8, i16, i16, i16 }
%"struct.hermes::inst::NewArrayWithBufferLongInst" = type <{ i8, i8, i16, i16, i32 }>
%"struct.hermes::inst::CreateThisInst" = type { i8, i8, i8, i8 }
%"struct.hermes::vm::CallableVTable" = type { %"struct.hermes::vm::ObjectVTable", ptr, ptr }
%"struct.hermes::inst::SelectObjectInst" = type { i8, i8, i8, i8 }
%"struct.hermes::inst::EqInst" = type { i8, i8, i8, i8 }
%"struct.hermes::inst::StrictEqInst" = type { i8, i8, i8, i8 }
%"struct.hermes::inst::StrictNeqInst" = type { i8, i8, i8, i8 }
%"struct.hermes::inst::NotInst" = type { i8, i8, i8 }
%"struct.hermes::inst::NegateInst" = type { i8, i8, i8 }
%"struct.hermes::inst::TypeOfInst" = type { i8, i8, i8 }
%"struct.hermes::inst::ModInst" = type { i8, i8, i8, i8 }
%"struct.hermes::inst::InstanceOfInst" = type { i8, i8, i8, i8 }
%"struct.hermes::inst::IsInInst" = type { i8, i8, i8, i8 }
%"struct.hermes::inst::PutNewOwnByIdShortInst" = type { i8, i8, i8, i8 }
%"struct.hermes::inst::PutNewOwnByIdLongInst" = type <{ i8, i8, i8, i32 }>
%"struct.hermes::inst::PutNewOwnByIdInst" = type <{ i8, i8, i8, i16 }>
%"struct.hermes::inst::DelByIdLongInst" = type <{ i8, i8, i8, i32 }>
%"struct.hermes::inst::DelByIdInst" = type <{ i8, i8, i8, i16 }>
%"struct.hermes::inst::DelByValInst" = type { i8, i8, i8, i8 }
%"struct.hermes::inst::CreateRegExpInst" = type <{ i8, i8, i32, i32, i32 }>
%"struct.hermes::inst::SwitchImmInst" = type <{ i8, i8, i32, i32, i32, i32 }>
%"struct.hermes::inst::LoadConstUInt8Inst" = type { i8, i8, i8 }
%"struct.hermes::inst::LoadConstIntInst" = type <{ i8, i8, i32 }>
%"struct.hermes::inst::LoadConstDoubleInst" = type <{ i8, i8, double }>
%"struct.hermes::inst::LoadConstStringInst" = type { i8, i8, i16 }
%"struct.hermes::inst::LoadConstStringLongIndexInst" = type <{ i8, i8, i32 }>
%"struct.hermes::inst::LoadConstEmptyInst" = type { i8, i8 }
%"struct.hermes::inst::LoadConstUndefinedInst" = type { i8, i8 }
%"struct.hermes::inst::LoadConstNullInst" = type { i8, i8 }
%"struct.hermes::inst::LoadConstTrueInst" = type { i8, i8 }
%"struct.hermes::inst::LoadConstFalseInst" = type { i8, i8 }
%"struct.hermes::inst::LoadConstZeroInst" = type { i8, i8 }
%"struct.hermes::inst::LoadConstBigIntInst" = type { i8, i8, i16 }
%"struct.hermes::inst::LoadConstBigIntLongIndexInst" = type <{ i8, i8, i32 }>
%"struct.hermes::inst::SubInst" = type { i8, i8, i8, i8 }
%"struct.hermes::inst::MulInst" = type { i8, i8, i8, i8 }
%"struct.hermes::inst::DivInst" = type { i8, i8, i8, i8 }
%"struct.hermes::inst::BitAndInst" = type { i8, i8, i8, i8 }
%"struct.hermes::inst::BitOrInst" = type { i8, i8, i8, i8 }
%"struct.hermes::inst::BitXorInst" = type { i8, i8, i8, i8 }
%"struct.hermes::inst::LShiftInst" = type { i8, i8, i8, i8 }
%"struct.hermes::inst::RShiftInst" = type { i8, i8, i8, i8 }
%"struct.hermes::inst::URshiftInst" = type { i8, i8, i8, i8 }
%"struct.hermes::inst::LessInst" = type { i8, i8, i8, i8 }
%"struct.hermes::inst::LessEqInst" = type { i8, i8, i8, i8 }
%"struct.hermes::inst::GreaterInst" = type { i8, i8, i8, i8 }
%"struct.hermes::inst::GreaterEqInst" = type { i8, i8, i8, i8 }
%"struct.hermes::inst::JLessInst" = type { i8, i8, i8, i8 }
%"struct.hermes::inst::JLessNInst" = type { i8, i8, i8, i8 }
%"struct.hermes::inst::JLessLongInst" = type <{ i8, i32, i8, i8 }>
%"struct.hermes::inst::JLessNLongInst" = type <{ i8, i32, i8, i8 }>
%"struct.hermes::inst::JNotLessInst" = type { i8, i8, i8, i8 }
%"struct.hermes::inst::JNotLessNInst" = type { i8, i8, i8, i8 }
%"struct.hermes::inst::JNotLessLongInst" = type <{ i8, i32, i8, i8 }>
%"struct.hermes::inst::JNotLessNLongInst" = type <{ i8, i32, i8, i8 }>
%"struct.hermes::inst::JLessEqualInst" = type { i8, i8, i8, i8 }
%"struct.hermes::inst::JLessEqualNInst" = type { i8, i8, i8, i8 }
%"struct.hermes::inst::JLessEqualLongInst" = type <{ i8, i32, i8, i8 }>
%"struct.hermes::inst::JLessEqualNLongInst" = type <{ i8, i32, i8, i8 }>
%"struct.hermes::inst::JNotLessEqualInst" = type { i8, i8, i8, i8 }
%"struct.hermes::inst::JNotLessEqualNInst" = type { i8, i8, i8, i8 }
%"struct.hermes::inst::JNotLessEqualLongInst" = type <{ i8, i32, i8, i8 }>
%"struct.hermes::inst::JNotLessEqualNLongInst" = type <{ i8, i32, i8, i8 }>
%"struct.hermes::inst::JGreaterInst" = type { i8, i8, i8, i8 }
%"struct.hermes::inst::JGreaterNInst" = type { i8, i8, i8, i8 }
%"struct.hermes::inst::JGreaterLongInst" = type <{ i8, i32, i8, i8 }>
%"struct.hermes::inst::JGreaterNLongInst" = type <{ i8, i32, i8, i8 }>
%"struct.hermes::inst::JNotGreaterInst" = type { i8, i8, i8, i8 }
%"struct.hermes::inst::JNotGreaterNInst" = type { i8, i8, i8, i8 }
%"struct.hermes::inst::JNotGreaterLongInst" = type <{ i8, i32, i8, i8 }>
%"struct.hermes::inst::JNotGreaterNLongInst" = type <{ i8, i32, i8, i8 }>
%"struct.hermes::inst::JGreaterEqualInst" = type { i8, i8, i8, i8 }
%"struct.hermes::inst::JGreaterEqualNInst" = type { i8, i8, i8, i8 }
%"struct.hermes::inst::JGreaterEqualLongInst" = type <{ i8, i32, i8, i8 }>
%"struct.hermes::inst::JGreaterEqualNLongInst" = type <{ i8, i32, i8, i8 }>
%"struct.hermes::inst::JNotGreaterEqualInst" = type { i8, i8, i8, i8 }
%"struct.hermes::inst::JNotGreaterEqualNInst" = type { i8, i8, i8, i8 }
%"struct.hermes::inst::JNotGreaterEqualLongInst" = type <{ i8, i32, i8, i8 }>
%"struct.hermes::inst::JNotGreaterEqualNLongInst" = type <{ i8, i32, i8, i8 }>
%"struct.hermes::inst::JStrictEqualInst" = type { i8, i8, i8, i8 }
%"struct.hermes::inst::JStrictEqualLongInst" = type <{ i8, i32, i8, i8 }>
%"struct.hermes::inst::JStrictNotEqualInst" = type { i8, i8, i8, i8 }
%"struct.hermes::inst::JStrictNotEqualLongInst" = type <{ i8, i32, i8, i8 }>
%"struct.hermes::inst::JEqualInst" = type { i8, i8, i8, i8 }
%"struct.hermes::inst::JEqualLongInst" = type <{ i8, i32, i8, i8 }>
%"struct.hermes::inst::JNotEqualInst" = type { i8, i8, i8, i8 }
%"struct.hermes::inst::JNotEqualLongInst" = type <{ i8, i32, i8, i8 }>
%"struct.hermes::inst::PutOwnByValInst" = type { i8, i8, i8, i8, i8 }
%"struct.hermes::inst::PutOwnGetterSetterByValInst" = type { i8, i8, i8, i8, i8, i8 }
%"struct.hermes::inst::DirectEvalInst" = type { i8, i8, i8, i8 }
%"struct.hermes::inst::IteratorBeginInst" = type { i8, i8, i8 }
%"struct.hermes::inst::IteratorNextInst" = type { i8, i8, i8, i8 }
%"struct.hermes::inst::IteratorCloseInst" = type { i8, i8, i8 }
%"class.hermes::vm::JSError" = type <{ %"class.hermes::vm::JSObject", [4 x i8], %"class.std::unique_ptr.326", i64, %"class.hermes::vm::GCPointer.181", %"class.hermes::vm::GCPointer.181", i8, [7 x i8] }>
%"class.std::unique_ptr.326" = type { %"struct.std::__uniq_ptr_data.327" }
%"struct.std::__uniq_ptr_data.327" = type { %"class.std::__uniq_ptr_impl.328" }
%"class.std::__uniq_ptr_impl.328" = type { %"class.std::tuple.329" }
%"class.std::tuple.329" = type { %"struct.std::_Tuple_impl.330" }
%"struct.std::_Tuple_impl.330" = type { %"struct.std::_Head_base.333" }
%"struct.std::_Head_base.333" = type { ptr }
%"class.hermes::vm::BigIntPrimitive" = type { %"class.hermes::vm::VariableSizeRuntimeCell", i32 }

$_ZN6hermes2vm8JSObject20getComputedSlotValueENS0_12PseudoHandleIS1_EERNS0_7RuntimeERNS0_13MutableHandleINS0_8SymbolIDEEENS0_26ComputedPropertyDescriptorE = comdat any

$_ZN6hermes2vm14NativeFunction11_nativeCallEPS1_RNS0_7RuntimeE = comdat any

$_ZN6hermes2vm11Interpreter17interpretFunctionILb0ELb0EEENS0_10CallResultINS0_11HermesValueELNS0_6detail20CallResultSpecializeE2EEERNS0_7RuntimeERNS0_16InterpreterStateE = comdat any

$_ZNK6hermes2vm13HermesValue329unboxToHVERNS0_11PointerBaseE = comdat any

$_ZN6hermes2vm15BigIntPrimitive9fromBytesERNS0_7RuntimeEN4llvh8ArrayRefIhEE = comdat any

$_ZZN6hermes2vm11Interpreter17interpretFunctionILb0ELb0EEENS0_10CallResultINS0_11HermesValueELNS0_6detail20CallResultSpecializeE2EEERNS0_7RuntimeERNS0_16InterpreterStateEE14opcodeDispatch = comdat any

$_ZZN6hermes2vm20CodeCoverageProfiler17globalEnabledFlagEvE17globalEnabledFlag = comdat any

@.str = private unnamed_addr constant [5 x i8] c"read\00", align 1
@.str.1 = private unnamed_addr constant [4 x i8] c"set\00", align 1
@.str.2 = private unnamed_addr constant [47 x i8] c"Cannot modify a property in a transient object\00", align 1
@.str.3 = private unnamed_addr constant [35 x i8] c"Cannot modify a read-only accessor\00", align 1
@.str.4 = private unnamed_addr constant [35 x i8] c"transient proxy set returned false\00", align 1
@_ZN6hermes2vm6VTable11vtableArrayE = external local_unnamed_addr global %"struct.std::array.229", align 8
@.str.5 = private unnamed_addr constant [41 x i8] c"<<Exception occurred getting the value>>\00", align 1
@.str.6 = private unnamed_addr constant [25 x i8] c"Cannot create property '\00", align 1
@.str.7 = private unnamed_addr constant [6 x i8] c"' on \00", align 1
@.str.8 = private unnamed_addr constant [3 x i8] c" '\00", align 1
@.str.9 = private unnamed_addr constant [2 x i8] c"'\00", align 1
@.str.10 = private unnamed_addr constant [25 x i8] c"String allocation failed\00", align 1
@.str.11 = private unnamed_addr constant [38 x i8] c"Class constructor invoked without new\00", align 1
@.str.12 = private unnamed_addr constant [30 x i8] c"Function is not a constructor\00", align 1
@_ZZN6hermes2vm11Interpreter17interpretFunctionILb0ELb0EEENS0_10CallResultINS0_11HermesValueELNS0_6detail20CallResultSpecializeE2EEERNS0_7RuntimeERNS0_16InterpreterStateEE14opcodeDispatch = linkonce_odr hidden local_unnamed_addr global [193 x ptr] [ptr blockaddress(@_ZN6hermes2vm11Interpreter17interpretFunctionILb0ELb0EEENS0_10CallResultINS0_11HermesValueELNS0_6detail20CallResultSpecializeE2EEERNS0_7RuntimeERNS0_16InterpreterStateE, %case_Unreachable), ptr blockaddress(@_ZN6hermes2vm11Interpreter17interpretFunctionILb0ELb0EEENS0_10CallResultINS0_11HermesValueELNS0_6detail20CallResultSpecializeE2EEERNS0_7RuntimeERNS0_16InterpreterStateE, %case_NewObjectWithBuffer), ptr blockaddress(@_ZN6hermes2vm11Interpreter17interpretFunctionILb0ELb0EEENS0_10CallResultINS0_11HermesValueELNS0_6detail20CallResultSpecializeE2EEERNS0_7RuntimeERNS0_16InterpreterStateE, %case_NewObjectWithBufferLong), ptr blockaddress(@_ZN6hermes2vm11Interpreter17interpretFunctionILb0ELb0EEENS0_10CallResultINS0_11HermesValueELNS0_6detail20CallResultSpecializeE2EEERNS0_7RuntimeERNS0_16InterpreterStateE, %case_NewObject), ptr blockaddress(@_ZN6hermes2vm11Interpreter17interpretFunctionILb0ELb0EEENS0_10CallResultINS0_11HermesValueELNS0_6detail20CallResultSpecializeE2EEERNS0_7RuntimeERNS0_16InterpreterStateE, %case_NewObjectWithParent), ptr blockaddress(@_ZN6hermes2vm11Interpreter17interpretFunctionILb0ELb0EEENS0_10CallResultINS0_11HermesValueELNS0_6detail20CallResultSpecializeE2EEERNS0_7RuntimeERNS0_16InterpreterStateE, %case_NewArrayWithBuffer), ptr blockaddress(@_ZN6hermes2vm11Interpreter17interpretFunctionILb0ELb0EEENS0_10CallResultINS0_11HermesValueELNS0_6detail20CallResultSpecializeE2EEERNS0_7RuntimeERNS0_16InterpreterStateE, %case_NewArrayWithBufferLong), ptr blockaddress(@_ZN6hermes2vm11Interpreter17interpretFunctionILb0ELb0EEENS0_10CallResultINS0_11HermesValueELNS0_6detail20CallResultSpecializeE2EEERNS0_7RuntimeERNS0_16InterpreterStateE, %case_NewArray), ptr blockaddress(@_ZN6hermes2vm11Interpreter17interpretFunctionILb0ELb0EEENS0_10CallResultINS0_11HermesValueELNS0_6detail20CallResultSpecializeE2EEERNS0_7RuntimeERNS0_16InterpreterStateE, %case_Mov), ptr blockaddress(@_ZN6hermes2vm11Interpreter17interpretFunctionILb0ELb0EEENS0_10CallResultINS0_11HermesValueELNS0_6detail20CallResultSpecializeE2EEERNS0_7RuntimeERNS0_16InterpreterStateE, %case_MovLong), ptr blockaddress(@_ZN6hermes2vm11Interpreter17interpretFunctionILb0ELb0EEENS0_10CallResultINS0_11HermesValueELNS0_6detail20CallResultSpecializeE2EEERNS0_7RuntimeERNS0_16InterpreterStateE, %case_Negate), ptr blockaddress(@_ZN6hermes2vm11Interpreter17interpretFunctionILb0ELb0EEENS0_10CallResultINS0_11HermesValueELNS0_6detail20CallResultSpecializeE2EEERNS0_7RuntimeERNS0_16InterpreterStateE, %case_Not), ptr blockaddress(@_ZN6hermes2vm11Interpreter17interpretFunctionILb0ELb0EEENS0_10CallResultINS0_11HermesValueELNS0_6detail20CallResultSpecializeE2EEERNS0_7RuntimeERNS0_16InterpreterStateE, %case_BitNot), ptr blockaddress(@_ZN6hermes2vm11Interpreter17interpretFunctionILb0ELb0EEENS0_10CallResultINS0_11HermesValueELNS0_6detail20CallResultSpecializeE2EEERNS0_7RuntimeERNS0_16InterpreterStateE, %case_TypeOf), ptr blockaddress(@_ZN6hermes2vm11Interpreter17interpretFunctionILb0ELb0EEENS0_10CallResultINS0_11HermesValueELNS0_6detail20CallResultSpecializeE2EEERNS0_7RuntimeERNS0_16InterpreterStateE, %case_Neq), ptr blockaddress(@_ZN6hermes2vm11Interpreter17interpretFunctionILb0ELb0EEENS0_10CallResultINS0_11HermesValueELNS0_6detail20CallResultSpecializeE2EEERNS0_7RuntimeERNS0_16InterpreterStateE, %case_StrictEq), ptr blockaddress(@_ZN6hermes2vm11Interpreter17interpretFunctionILb0ELb0EEENS0_10CallResultINS0_11HermesValueELNS0_6detail20CallResultSpecializeE2EEERNS0_7RuntimeERNS0_16InterpreterStateE, %case_Neq), ptr blockaddress(@_ZN6hermes2vm11Interpreter17interpretFunctionILb0ELb0EEENS0_10CallResultINS0_11HermesValueELNS0_6detail20CallResultSpecializeE2EEERNS0_7RuntimeERNS0_16InterpreterStateE, %case_StrictNeq), ptr blockaddress(@_ZN6hermes2vm11Interpreter17interpretFunctionILb0ELb0EEENS0_10CallResultINS0_11HermesValueELNS0_6detail20CallResultSpecializeE2EEERNS0_7RuntimeERNS0_16InterpreterStateE, %case_Less), ptr blockaddress(@_ZN6hermes2vm11Interpreter17interpretFunctionILb0ELb0EEENS0_10CallResultINS0_11HermesValueELNS0_6detail20CallResultSpecializeE2EEERNS0_7RuntimeERNS0_16InterpreterStateE, %case_LessEq), ptr blockaddress(@_ZN6hermes2vm11Interpreter17interpretFunctionILb0ELb0EEENS0_10CallResultINS0_11HermesValueELNS0_6detail20CallResultSpecializeE2EEERNS0_7RuntimeERNS0_16InterpreterStateE, %case_Greater), ptr blockaddress(@_ZN6hermes2vm11Interpreter17interpretFunctionILb0ELb0EEENS0_10CallResultINS0_11HermesValueELNS0_6detail20CallResultSpecializeE2EEERNS0_7RuntimeERNS0_16InterpreterStateE, %case_GreaterEq), ptr blockaddress(@_ZN6hermes2vm11Interpreter17interpretFunctionILb0ELb0EEENS0_10CallResultINS0_11HermesValueELNS0_6detail20CallResultSpecializeE2EEERNS0_7RuntimeERNS0_16InterpreterStateE, %case_Add), ptr blockaddress(@_ZN6hermes2vm11Interpreter17interpretFunctionILb0ELb0EEENS0_10CallResultINS0_11HermesValueELNS0_6detail20CallResultSpecializeE2EEERNS0_7RuntimeERNS0_16InterpreterStateE, %case_AddN), ptr blockaddress(@_ZN6hermes2vm11Interpreter17interpretFunctionILb0ELb0EEENS0_10CallResultINS0_11HermesValueELNS0_6detail20CallResultSpecializeE2EEERNS0_7RuntimeERNS0_16InterpreterStateE, %case_Mul), ptr blockaddress(@_ZN6hermes2vm11Interpreter17interpretFunctionILb0ELb0EEENS0_10CallResultINS0_11HermesValueELNS0_6detail20CallResultSpecializeE2EEERNS0_7RuntimeERNS0_16InterpreterStateE, %case_MulN), ptr blockaddress(@_ZN6hermes2vm11Interpreter17interpretFunctionILb0ELb0EEENS0_10CallResultINS0_11HermesValueELNS0_6detail20CallResultSpecializeE2EEERNS0_7RuntimeERNS0_16InterpreterStateE, %case_Div), ptr blockaddress(@_ZN6hermes2vm11Interpreter17interpretFunctionILb0ELb0EEENS0_10CallResultINS0_11HermesValueELNS0_6detail20CallResultSpecializeE2EEERNS0_7RuntimeERNS0_16InterpreterStateE, %case_DivN), ptr blockaddress(@_ZN6hermes2vm11Interpreter17interpretFunctionILb0ELb0EEENS0_10CallResultINS0_11HermesValueELNS0_6detail20CallResultSpecializeE2EEERNS0_7RuntimeERNS0_16InterpreterStateE, %case_Mod), ptr blockaddress(@_ZN6hermes2vm11Interpreter17interpretFunctionILb0ELb0EEENS0_10CallResultINS0_11HermesValueELNS0_6detail20CallResultSpecializeE2EEERNS0_7RuntimeERNS0_16InterpreterStateE, %case_Sub), ptr blockaddress(@_ZN6hermes2vm11Interpreter17interpretFunctionILb0ELb0EEENS0_10CallResultINS0_11HermesValueELNS0_6detail20CallResultSpecializeE2EEERNS0_7RuntimeERNS0_16InterpreterStateE, %case_SubN), ptr blockaddress(@_ZN6hermes2vm11Interpreter17interpretFunctionILb0ELb0EEENS0_10CallResultINS0_11HermesValueELNS0_6detail20CallResultSpecializeE2EEERNS0_7RuntimeERNS0_16InterpreterStateE, %case_LShift), ptr blockaddress(@_ZN6hermes2vm11Interpreter17interpretFunctionILb0ELb0EEENS0_10CallResultINS0_11HermesValueELNS0_6detail20CallResultSpecializeE2EEERNS0_7RuntimeERNS0_16InterpreterStateE, %case_RShift), ptr blockaddress(@_ZN6hermes2vm11Interpreter17interpretFunctionILb0ELb0EEENS0_10CallResultINS0_11HermesValueELNS0_6detail20CallResultSpecializeE2EEERNS0_7RuntimeERNS0_16InterpreterStateE, %case_URshift), ptr blockaddress(@_ZN6hermes2vm11Interpreter17interpretFunctionILb0ELb0EEENS0_10CallResultINS0_11HermesValueELNS0_6detail20CallResultSpecializeE2EEERNS0_7RuntimeERNS0_16InterpreterStateE, %case_BitAnd), ptr blockaddress(@_ZN6hermes2vm11Interpreter17interpretFunctionILb0ELb0EEENS0_10CallResultINS0_11HermesValueELNS0_6detail20CallResultSpecializeE2EEERNS0_7RuntimeERNS0_16InterpreterStateE, %case_BitXor), ptr blockaddress(@_ZN6hermes2vm11Interpreter17interpretFunctionILb0ELb0EEENS0_10CallResultINS0_11HermesValueELNS0_6detail20CallResultSpecializeE2EEERNS0_7RuntimeERNS0_16InterpreterStateE, %case_BitOr), ptr blockaddress(@_ZN6hermes2vm11Interpreter17interpretFunctionILb0ELb0EEENS0_10CallResultINS0_11HermesValueELNS0_6detail20CallResultSpecializeE2EEERNS0_7RuntimeERNS0_16InterpreterStateE, %case_Inc), ptr blockaddress(@_ZN6hermes2vm11Interpreter17interpretFunctionILb0ELb0EEENS0_10CallResultINS0_11HermesValueELNS0_6detail20CallResultSpecializeE2EEERNS0_7RuntimeERNS0_16InterpreterStateE, %case_Dec), ptr blockaddress(@_ZN6hermes2vm11Interpreter17interpretFunctionILb0ELb0EEENS0_10CallResultINS0_11HermesValueELNS0_6detail20CallResultSpecializeE2EEERNS0_7RuntimeERNS0_16InterpreterStateE, %case_InstanceOf), ptr blockaddress(@_ZN6hermes2vm11Interpreter17interpretFunctionILb0ELb0EEENS0_10CallResultINS0_11HermesValueELNS0_6detail20CallResultSpecializeE2EEERNS0_7RuntimeERNS0_16InterpreterStateE, %case_IsIn), ptr blockaddress(@_ZN6hermes2vm11Interpreter17interpretFunctionILb0ELb0EEENS0_10CallResultINS0_11HermesValueELNS0_6detail20CallResultSpecializeE2EEERNS0_7RuntimeERNS0_16InterpreterStateE, %case_GetEnvironment), ptr blockaddress(@_ZN6hermes2vm11Interpreter17interpretFunctionILb0ELb0EEENS0_10CallResultINS0_11HermesValueELNS0_6detail20CallResultSpecializeE2EEERNS0_7RuntimeERNS0_16InterpreterStateE, %case_StoreToEnvironment), ptr blockaddress(@_ZN6hermes2vm11Interpreter17interpretFunctionILb0ELb0EEENS0_10CallResultINS0_11HermesValueELNS0_6detail20CallResultSpecializeE2EEERNS0_7RuntimeERNS0_16InterpreterStateE, %case_StoreToEnvironmentL), ptr blockaddress(@_ZN6hermes2vm11Interpreter17interpretFunctionILb0ELb0EEENS0_10CallResultINS0_11HermesValueELNS0_6detail20CallResultSpecializeE2EEERNS0_7RuntimeERNS0_16InterpreterStateE, %case_StoreNPToEnvironment), ptr blockaddress(@_ZN6hermes2vm11Interpreter17interpretFunctionILb0ELb0EEENS0_10CallResultINS0_11HermesValueELNS0_6detail20CallResultSpecializeE2EEERNS0_7RuntimeERNS0_16InterpreterStateE, %case_StoreNPToEnvironmentL), ptr blockaddress(@_ZN6hermes2vm11Interpreter17interpretFunctionILb0ELb0EEENS0_10CallResultINS0_11HermesValueELNS0_6detail20CallResultSpecializeE2EEERNS0_7RuntimeERNS0_16InterpreterStateE, %case_LoadFromEnvironment), ptr blockaddress(@_ZN6hermes2vm11Interpreter17interpretFunctionILb0ELb0EEENS0_10CallResultINS0_11HermesValueELNS0_6detail20CallResultSpecializeE2EEERNS0_7RuntimeERNS0_16InterpreterStateE, %case_LoadFromEnvironmentL), ptr blockaddress(@_ZN6hermes2vm11Interpreter17interpretFunctionILb0ELb0EEENS0_10CallResultINS0_11HermesValueELNS0_6detail20CallResultSpecializeE2EEERNS0_7RuntimeERNS0_16InterpreterStateE, %case_GetGlobalObject), ptr blockaddress(@_ZN6hermes2vm11Interpreter17interpretFunctionILb0ELb0EEENS0_10CallResultINS0_11HermesValueELNS0_6detail20CallResultSpecializeE2EEERNS0_7RuntimeERNS0_16InterpreterStateE, %case_GetNewTarget), ptr blockaddress(@_ZN6hermes2vm11Interpreter17interpretFunctionILb0ELb0EEENS0_10CallResultINS0_11HermesValueELNS0_6detail20CallResultSpecializeE2EEERNS0_7RuntimeERNS0_16InterpreterStateE, %case_CreateEnvironment), ptr blockaddress(@_ZN6hermes2vm11Interpreter17interpretFunctionILb0ELb0EEENS0_10CallResultINS0_11HermesValueELNS0_6detail20CallResultSpecializeE2EEERNS0_7RuntimeERNS0_16InterpreterStateE, %case_CreateInnerEnvironment), ptr blockaddress(@_ZN6hermes2vm11Interpreter17interpretFunctionILb0ELb0EEENS0_10CallResultINS0_11HermesValueELNS0_6detail20CallResultSpecializeE2EEERNS0_7RuntimeERNS0_16InterpreterStateE, %case_DeclareGlobalVar), ptr blockaddress(@_ZN6hermes2vm11Interpreter17interpretFunctionILb0ELb0EEENS0_10CallResultINS0_11HermesValueELNS0_6detail20CallResultSpecializeE2EEERNS0_7RuntimeERNS0_16InterpreterStateE, %case_ThrowIfHasRestrictedGlobalProperty), ptr blockaddress(@_ZN6hermes2vm11Interpreter17interpretFunctionILb0ELb0EEENS0_10CallResultINS0_11HermesValueELNS0_6detail20CallResultSpecializeE2EEERNS0_7RuntimeERNS0_16InterpreterStateE, %case_GetByIdShort), ptr blockaddress(@_ZN6hermes2vm11Interpreter17interpretFunctionILb0ELb0EEENS0_10CallResultINS0_11HermesValueELNS0_6detail20CallResultSpecializeE2EEERNS0_7RuntimeERNS0_16InterpreterStateE, %case_GetById), ptr blockaddress(@_ZN6hermes2vm11Interpreter17interpretFunctionILb0ELb0EEENS0_10CallResultINS0_11HermesValueELNS0_6detail20CallResultSpecializeE2EEERNS0_7RuntimeERNS0_16InterpreterStateE, %case_GetByIdLong), ptr blockaddress(@_ZN6hermes2vm11Interpreter17interpretFunctionILb0ELb0EEENS0_10CallResultINS0_11HermesValueELNS0_6detail20CallResultSpecializeE2EEERNS0_7RuntimeERNS0_16InterpreterStateE, %case_TryGetById), ptr blockaddress(@_ZN6hermes2vm11Interpreter17interpretFunctionILb0ELb0EEENS0_10CallResultINS0_11HermesValueELNS0_6detail20CallResultSpecializeE2EEERNS0_7RuntimeERNS0_16InterpreterStateE, %case_TryGetByIdLong), ptr blockaddress(@_ZN6hermes2vm11Interpreter17interpretFunctionILb0ELb0EEENS0_10CallResultINS0_11HermesValueELNS0_6detail20CallResultSpecializeE2EEERNS0_7RuntimeERNS0_16InterpreterStateE, %case_PutById), ptr blockaddress(@_ZN6hermes2vm11Interpreter17interpretFunctionILb0ELb0EEENS0_10CallResultINS0_11HermesValueELNS0_6detail20CallResultSpecializeE2EEERNS0_7RuntimeERNS0_16InterpreterStateE, %case_PutByIdLong), ptr blockaddress(@_ZN6hermes2vm11Interpreter17interpretFunctionILb0ELb0EEENS0_10CallResultINS0_11HermesValueELNS0_6detail20CallResultSpecializeE2EEERNS0_7RuntimeERNS0_16InterpreterStateE, %case_TryPutById), ptr blockaddress(@_ZN6hermes2vm11Interpreter17interpretFunctionILb0ELb0EEENS0_10CallResultINS0_11HermesValueELNS0_6detail20CallResultSpecializeE2EEERNS0_7RuntimeERNS0_16InterpreterStateE, %case_TryPutByIdLong), ptr blockaddress(@_ZN6hermes2vm11Interpreter17interpretFunctionILb0ELb0EEENS0_10CallResultINS0_11HermesValueELNS0_6detail20CallResultSpecializeE2EEERNS0_7RuntimeERNS0_16InterpreterStateE, %case_PutNewOwnByIdShort), ptr blockaddress(@_ZN6hermes2vm11Interpreter17interpretFunctionILb0ELb0EEENS0_10CallResultINS0_11HermesValueELNS0_6detail20CallResultSpecializeE2EEERNS0_7RuntimeERNS0_16InterpreterStateE, %case_PutNewOwnById), ptr blockaddress(@_ZN6hermes2vm11Interpreter17interpretFunctionILb0ELb0EEENS0_10CallResultINS0_11HermesValueELNS0_6detail20CallResultSpecializeE2EEERNS0_7RuntimeERNS0_16InterpreterStateE, %case_PutNewOwnByIdLong), ptr blockaddress(@_ZN6hermes2vm11Interpreter17interpretFunctionILb0ELb0EEENS0_10CallResultINS0_11HermesValueELNS0_6detail20CallResultSpecializeE2EEERNS0_7RuntimeERNS0_16InterpreterStateE, %case_PutNewOwnById), ptr blockaddress(@_ZN6hermes2vm11Interpreter17interpretFunctionILb0ELb0EEENS0_10CallResultINS0_11HermesValueELNS0_6detail20CallResultSpecializeE2EEERNS0_7RuntimeERNS0_16InterpreterStateE, %case_PutNewOwnByIdLong), ptr blockaddress(@_ZN6hermes2vm11Interpreter17interpretFunctionILb0ELb0EEENS0_10CallResultINS0_11HermesValueELNS0_6detail20CallResultSpecializeE2EEERNS0_7RuntimeERNS0_16InterpreterStateE, %case_PutOwnByIndex), ptr blockaddress(@_ZN6hermes2vm11Interpreter17interpretFunctionILb0ELb0EEENS0_10CallResultINS0_11HermesValueELNS0_6detail20CallResultSpecializeE2EEERNS0_7RuntimeERNS0_16InterpreterStateE, %case_PutOwnByIndexL), ptr blockaddress(@_ZN6hermes2vm11Interpreter17interpretFunctionILb0ELb0EEENS0_10CallResultINS0_11HermesValueELNS0_6detail20CallResultSpecializeE2EEERNS0_7RuntimeERNS0_16InterpreterStateE, %case_PutOwnByVal), ptr blockaddress(@_ZN6hermes2vm11Interpreter17interpretFunctionILb0ELb0EEENS0_10CallResultINS0_11HermesValueELNS0_6detail20CallResultSpecializeE2EEERNS0_7RuntimeERNS0_16InterpreterStateE, %case_DelById), ptr blockaddress(@_ZN6hermes2vm11Interpreter17interpretFunctionILb0ELb0EEENS0_10CallResultINS0_11HermesValueELNS0_6detail20CallResultSpecializeE2EEERNS0_7RuntimeERNS0_16InterpreterStateE, %case_DelByIdLong), ptr blockaddress(@_ZN6hermes2vm11Interpreter17interpretFunctionILb0ELb0EEENS0_10CallResultINS0_11HermesValueELNS0_6detail20CallResultSpecializeE2EEERNS0_7RuntimeERNS0_16InterpreterStateE, %case_GetByVal), ptr blockaddress(@_ZN6hermes2vm11Interpreter17interpretFunctionILb0ELb0EEENS0_10CallResultINS0_11HermesValueELNS0_6detail20CallResultSpecializeE2EEERNS0_7RuntimeERNS0_16InterpreterStateE, %case_PutByVal), ptr blockaddress(@_ZN6hermes2vm11Interpreter17interpretFunctionILb0ELb0EEENS0_10CallResultINS0_11HermesValueELNS0_6detail20CallResultSpecializeE2EEERNS0_7RuntimeERNS0_16InterpreterStateE, %case_DelByVal), ptr blockaddress(@_ZN6hermes2vm11Interpreter17interpretFunctionILb0ELb0EEENS0_10CallResultINS0_11HermesValueELNS0_6detail20CallResultSpecializeE2EEERNS0_7RuntimeERNS0_16InterpreterStateE, %case_PutOwnGetterSetterByVal), ptr blockaddress(@_ZN6hermes2vm11Interpreter17interpretFunctionILb0ELb0EEENS0_10CallResultINS0_11HermesValueELNS0_6detail20CallResultSpecializeE2EEERNS0_7RuntimeERNS0_16InterpreterStateE, %case_GetPNameList), ptr blockaddress(@_ZN6hermes2vm11Interpreter17interpretFunctionILb0ELb0EEENS0_10CallResultINS0_11HermesValueELNS0_6detail20CallResultSpecializeE2EEERNS0_7RuntimeERNS0_16InterpreterStateE, %case_GetNextPName), ptr blockaddress(@_ZN6hermes2vm11Interpreter17interpretFunctionILb0ELb0EEENS0_10CallResultINS0_11HermesValueELNS0_6detail20CallResultSpecializeE2EEERNS0_7RuntimeERNS0_16InterpreterStateE, %case_Call), ptr blockaddress(@_ZN6hermes2vm11Interpreter17interpretFunctionILb0ELb0EEENS0_10CallResultINS0_11HermesValueELNS0_6detail20CallResultSpecializeE2EEERNS0_7RuntimeERNS0_16InterpreterStateE, %case_Construct), ptr blockaddress(@_ZN6hermes2vm11Interpreter17interpretFunctionILb0ELb0EEENS0_10CallResultINS0_11HermesValueELNS0_6detail20CallResultSpecializeE2EEERNS0_7RuntimeERNS0_16InterpreterStateE, %case_Call1), ptr blockaddress(@_ZN6hermes2vm11Interpreter17interpretFunctionILb0ELb0EEENS0_10CallResultINS0_11HermesValueELNS0_6detail20CallResultSpecializeE2EEERNS0_7RuntimeERNS0_16InterpreterStateE, %case_CallDirectLongIndex), ptr blockaddress(@_ZN6hermes2vm11Interpreter17interpretFunctionILb0ELb0EEENS0_10CallResultINS0_11HermesValueELNS0_6detail20CallResultSpecializeE2EEERNS0_7RuntimeERNS0_16InterpreterStateE, %case_Call2), ptr blockaddress(@_ZN6hermes2vm11Interpreter17interpretFunctionILb0ELb0EEENS0_10CallResultINS0_11HermesValueELNS0_6detail20CallResultSpecializeE2EEERNS0_7RuntimeERNS0_16InterpreterStateE, %case_Call3), ptr blockaddress(@_ZN6hermes2vm11Interpreter17interpretFunctionILb0ELb0EEENS0_10CallResultINS0_11HermesValueELNS0_6detail20CallResultSpecializeE2EEERNS0_7RuntimeERNS0_16InterpreterStateE, %case_Call4), ptr blockaddress(@_ZN6hermes2vm11Interpreter17interpretFunctionILb0ELb0EEENS0_10CallResultINS0_11HermesValueELNS0_6detail20CallResultSpecializeE2EEERNS0_7RuntimeERNS0_16InterpreterStateE, %case_CallLong), ptr blockaddress(@_ZN6hermes2vm11Interpreter17interpretFunctionILb0ELb0EEENS0_10CallResultINS0_11HermesValueELNS0_6detail20CallResultSpecializeE2EEERNS0_7RuntimeERNS0_16InterpreterStateE, %case_ConstructLong), ptr blockaddress(@_ZN6hermes2vm11Interpreter17interpretFunctionILb0ELb0EEENS0_10CallResultINS0_11HermesValueELNS0_6detail20CallResultSpecializeE2EEERNS0_7RuntimeERNS0_16InterpreterStateE, %case_CallDirectLongIndex), ptr blockaddress(@_ZN6hermes2vm11Interpreter17interpretFunctionILb0ELb0EEENS0_10CallResultINS0_11HermesValueELNS0_6detail20CallResultSpecializeE2EEERNS0_7RuntimeERNS0_16InterpreterStateE, %case_CallBuiltin), ptr blockaddress(@_ZN6hermes2vm11Interpreter17interpretFunctionILb0ELb0EEENS0_10CallResultINS0_11HermesValueELNS0_6detail20CallResultSpecializeE2EEERNS0_7RuntimeERNS0_16InterpreterStateE, %case_CallBuiltinLong), ptr blockaddress(@_ZN6hermes2vm11Interpreter17interpretFunctionILb0ELb0EEENS0_10CallResultINS0_11HermesValueELNS0_6detail20CallResultSpecializeE2EEERNS0_7RuntimeERNS0_16InterpreterStateE, %case_GetBuiltinClosure), ptr blockaddress(@_ZN6hermes2vm11Interpreter17interpretFunctionILb0ELb0EEENS0_10CallResultINS0_11HermesValueELNS0_6detail20CallResultSpecializeE2EEERNS0_7RuntimeERNS0_16InterpreterStateE, %case_Ret), ptr blockaddress(@_ZN6hermes2vm11Interpreter17interpretFunctionILb0ELb0EEENS0_10CallResultINS0_11HermesValueELNS0_6detail20CallResultSpecializeE2EEERNS0_7RuntimeERNS0_16InterpreterStateE, %case_Catch), ptr blockaddress(@_ZN6hermes2vm11Interpreter17interpretFunctionILb0ELb0EEENS0_10CallResultINS0_11HermesValueELNS0_6detail20CallResultSpecializeE2EEERNS0_7RuntimeERNS0_16InterpreterStateE, %case_DirectEval), ptr blockaddress(@_ZN6hermes2vm11Interpreter17interpretFunctionILb0ELb0EEENS0_10CallResultINS0_11HermesValueELNS0_6detail20CallResultSpecializeE2EEERNS0_7RuntimeERNS0_16InterpreterStateE, %case_Throw), ptr blockaddress(@_ZN6hermes2vm11Interpreter17interpretFunctionILb0ELb0EEENS0_10CallResultINS0_11HermesValueELNS0_6detail20CallResultSpecializeE2EEERNS0_7RuntimeERNS0_16InterpreterStateE, %case_ThrowIfEmpty), ptr blockaddress(@_ZN6hermes2vm11Interpreter17interpretFunctionILb0ELb0EEENS0_10CallResultINS0_11HermesValueELNS0_6detail20CallResultSpecializeE2EEERNS0_7RuntimeERNS0_16InterpreterStateE, %do.end642), ptr blockaddress(@_ZN6hermes2vm11Interpreter17interpretFunctionILb0ELb0EEENS0_10CallResultINS0_11HermesValueELNS0_6detail20CallResultSpecializeE2EEERNS0_7RuntimeERNS0_16InterpreterStateE, %case_AsyncBreakCheck), ptr blockaddress(@_ZN6hermes2vm11Interpreter17interpretFunctionILb0ELb0EEENS0_10CallResultINS0_11HermesValueELNS0_6detail20CallResultSpecializeE2EEERNS0_7RuntimeERNS0_16InterpreterStateE, %case_ProfilePoint), ptr blockaddress(@_ZN6hermes2vm11Interpreter17interpretFunctionILb0ELb0EEENS0_10CallResultINS0_11HermesValueELNS0_6detail20CallResultSpecializeE2EEERNS0_7RuntimeERNS0_16InterpreterStateE, %case_CreateClosure), ptr blockaddress(@_ZN6hermes2vm11Interpreter17interpretFunctionILb0ELb0EEENS0_10CallResultINS0_11HermesValueELNS0_6detail20CallResultSpecializeE2EEERNS0_7RuntimeERNS0_16InterpreterStateE, %case_CreateClosureLongIndex), ptr blockaddress(@_ZN6hermes2vm11Interpreter17interpretFunctionILb0ELb0EEENS0_10CallResultINS0_11HermesValueELNS0_6detail20CallResultSpecializeE2EEERNS0_7RuntimeERNS0_16InterpreterStateE, %case_CreateGeneratorClosure), ptr blockaddress(@_ZN6hermes2vm11Interpreter17interpretFunctionILb0ELb0EEENS0_10CallResultINS0_11HermesValueELNS0_6detail20CallResultSpecializeE2EEERNS0_7RuntimeERNS0_16InterpreterStateE, %case_CreateGeneratorClosureLongIndex), ptr blockaddress(@_ZN6hermes2vm11Interpreter17interpretFunctionILb0ELb0EEENS0_10CallResultINS0_11HermesValueELNS0_6detail20CallResultSpecializeE2EEERNS0_7RuntimeERNS0_16InterpreterStateE, %case_CreateAsyncClosure), ptr blockaddress(@_ZN6hermes2vm11Interpreter17interpretFunctionILb0ELb0EEENS0_10CallResultINS0_11HermesValueELNS0_6detail20CallResultSpecializeE2EEERNS0_7RuntimeERNS0_16InterpreterStateE, %case_CreateAsyncClosureLongIndex), ptr blockaddress(@_ZN6hermes2vm11Interpreter17interpretFunctionILb0ELb0EEENS0_10CallResultINS0_11HermesValueELNS0_6detail20CallResultSpecializeE2EEERNS0_7RuntimeERNS0_16InterpreterStateE, %case_CreateThis), ptr blockaddress(@_ZN6hermes2vm11Interpreter17interpretFunctionILb0ELb0EEENS0_10CallResultINS0_11HermesValueELNS0_6detail20CallResultSpecializeE2EEERNS0_7RuntimeERNS0_16InterpreterStateE, %case_SelectObject), ptr blockaddress(@_ZN6hermes2vm11Interpreter17interpretFunctionILb0ELb0EEENS0_10CallResultINS0_11HermesValueELNS0_6detail20CallResultSpecializeE2EEERNS0_7RuntimeERNS0_16InterpreterStateE, %case_LoadParam), ptr blockaddress(@_ZN6hermes2vm11Interpreter17interpretFunctionILb0ELb0EEENS0_10CallResultINS0_11HermesValueELNS0_6detail20CallResultSpecializeE2EEERNS0_7RuntimeERNS0_16InterpreterStateE, %case_LoadParamLong), ptr blockaddress(@_ZN6hermes2vm11Interpreter17interpretFunctionILb0ELb0EEENS0_10CallResultINS0_11HermesValueELNS0_6detail20CallResultSpecializeE2EEERNS0_7RuntimeERNS0_16InterpreterStateE, %case_LoadConstUInt8), ptr blockaddress(@_ZN6hermes2vm11Interpreter17interpretFunctionILb0ELb0EEENS0_10CallResultINS0_11HermesValueELNS0_6detail20CallResultSpecializeE2EEERNS0_7RuntimeERNS0_16InterpreterStateE, %case_LoadConstInt), ptr blockaddress(@_ZN6hermes2vm11Interpreter17interpretFunctionILb0ELb0EEENS0_10CallResultINS0_11HermesValueELNS0_6detail20CallResultSpecializeE2EEERNS0_7RuntimeERNS0_16InterpreterStateE, %case_LoadConstDouble), ptr blockaddress(@_ZN6hermes2vm11Interpreter17interpretFunctionILb0ELb0EEENS0_10CallResultINS0_11HermesValueELNS0_6detail20CallResultSpecializeE2EEERNS0_7RuntimeERNS0_16InterpreterStateE, %case_LoadConstBigInt), ptr blockaddress(@_ZN6hermes2vm11Interpreter17interpretFunctionILb0ELb0EEENS0_10CallResultINS0_11HermesValueELNS0_6detail20CallResultSpecializeE2EEERNS0_7RuntimeERNS0_16InterpreterStateE, %case_LoadConstBigIntLongIndex), ptr blockaddress(@_ZN6hermes2vm11Interpreter17interpretFunctionILb0ELb0EEENS0_10CallResultINS0_11HermesValueELNS0_6detail20CallResultSpecializeE2EEERNS0_7RuntimeERNS0_16InterpreterStateE, %case_LoadConstString), ptr blockaddress(@_ZN6hermes2vm11Interpreter17interpretFunctionILb0ELb0EEENS0_10CallResultINS0_11HermesValueELNS0_6detail20CallResultSpecializeE2EEERNS0_7RuntimeERNS0_16InterpreterStateE, %case_LoadConstStringLongIndex), ptr blockaddress(@_ZN6hermes2vm11Interpreter17interpretFunctionILb0ELb0EEENS0_10CallResultINS0_11HermesValueELNS0_6detail20CallResultSpecializeE2EEERNS0_7RuntimeERNS0_16InterpreterStateE, %case_LoadConstEmpty), ptr blockaddress(@_ZN6hermes2vm11Interpreter17interpretFunctionILb0ELb0EEENS0_10CallResultINS0_11HermesValueELNS0_6detail20CallResultSpecializeE2EEERNS0_7RuntimeERNS0_16InterpreterStateE, %case_LoadConstUndefined), ptr blockaddress(@_ZN6hermes2vm11Interpreter17interpretFunctionILb0ELb0EEENS0_10CallResultINS0_11HermesValueELNS0_6detail20CallResultSpecializeE2EEERNS0_7RuntimeERNS0_16InterpreterStateE, %case_LoadConstNull), ptr blockaddress(@_ZN6hermes2vm11Interpreter17interpretFunctionILb0ELb0EEENS0_10CallResultINS0_11HermesValueELNS0_6detail20CallResultSpecializeE2EEERNS0_7RuntimeERNS0_16InterpreterStateE, %case_LoadConstTrue), ptr blockaddress(@_ZN6hermes2vm11Interpreter17interpretFunctionILb0ELb0EEENS0_10CallResultINS0_11HermesValueELNS0_6detail20CallResultSpecializeE2EEERNS0_7RuntimeERNS0_16InterpreterStateE, %case_LoadConstFalse), ptr blockaddress(@_ZN6hermes2vm11Interpreter17interpretFunctionILb0ELb0EEENS0_10CallResultINS0_11HermesValueELNS0_6detail20CallResultSpecializeE2EEERNS0_7RuntimeERNS0_16InterpreterStateE, %case_LoadConstZero), ptr blockaddress(@_ZN6hermes2vm11Interpreter17interpretFunctionILb0ELb0EEENS0_10CallResultINS0_11HermesValueELNS0_6detail20CallResultSpecializeE2EEERNS0_7RuntimeERNS0_16InterpreterStateE, %case_CoerceThisNS), ptr blockaddress(@_ZN6hermes2vm11Interpreter17interpretFunctionILb0ELb0EEENS0_10CallResultINS0_11HermesValueELNS0_6detail20CallResultSpecializeE2EEERNS0_7RuntimeERNS0_16InterpreterStateE, %case_LoadThisNS), ptr blockaddress(@_ZN6hermes2vm11Interpreter17interpretFunctionILb0ELb0EEENS0_10CallResultINS0_11HermesValueELNS0_6detail20CallResultSpecializeE2EEERNS0_7RuntimeERNS0_16InterpreterStateE, %case_ToNumber), ptr blockaddress(@_ZN6hermes2vm11Interpreter17interpretFunctionILb0ELb0EEENS0_10CallResultINS0_11HermesValueELNS0_6detail20CallResultSpecializeE2EEERNS0_7RuntimeERNS0_16InterpreterStateE, %case_ToNumeric), ptr blockaddress(@_ZN6hermes2vm11Interpreter17interpretFunctionILb0ELb0EEENS0_10CallResultINS0_11HermesValueELNS0_6detail20CallResultSpecializeE2EEERNS0_7RuntimeERNS0_16InterpreterStateE, %case_ToInt32), ptr blockaddress(@_ZN6hermes2vm11Interpreter17interpretFunctionILb0ELb0EEENS0_10CallResultINS0_11HermesValueELNS0_6detail20CallResultSpecializeE2EEERNS0_7RuntimeERNS0_16InterpreterStateE, %case_AddEmptyString), ptr blockaddress(@_ZN6hermes2vm11Interpreter17interpretFunctionILb0ELb0EEENS0_10CallResultINS0_11HermesValueELNS0_6detail20CallResultSpecializeE2EEERNS0_7RuntimeERNS0_16InterpreterStateE, %case_GetArgumentsPropByVal), ptr blockaddress(@_ZN6hermes2vm11Interpreter17interpretFunctionILb0ELb0EEENS0_10CallResultINS0_11HermesValueELNS0_6detail20CallResultSpecializeE2EEERNS0_7RuntimeERNS0_16InterpreterStateE, %case_GetArgumentsLength), ptr blockaddress(@_ZN6hermes2vm11Interpreter17interpretFunctionILb0ELb0EEENS0_10CallResultINS0_11HermesValueELNS0_6detail20CallResultSpecializeE2EEERNS0_7RuntimeERNS0_16InterpreterStateE, %case_ReifyArguments), ptr blockaddress(@_ZN6hermes2vm11Interpreter17interpretFunctionILb0ELb0EEENS0_10CallResultINS0_11HermesValueELNS0_6detail20CallResultSpecializeE2EEERNS0_7RuntimeERNS0_16InterpreterStateE, %case_CreateRegExp), ptr blockaddress(@_ZN6hermes2vm11Interpreter17interpretFunctionILb0ELb0EEENS0_10CallResultINS0_11HermesValueELNS0_6detail20CallResultSpecializeE2EEERNS0_7RuntimeERNS0_16InterpreterStateE, %case_SwitchImm), ptr blockaddress(@_ZN6hermes2vm11Interpreter17interpretFunctionILb0ELb0EEENS0_10CallResultINS0_11HermesValueELNS0_6detail20CallResultSpecializeE2EEERNS0_7RuntimeERNS0_16InterpreterStateE, %case_StartGenerator), ptr blockaddress(@_ZN6hermes2vm11Interpreter17interpretFunctionILb0ELb0EEENS0_10CallResultINS0_11HermesValueELNS0_6detail20CallResultSpecializeE2EEERNS0_7RuntimeERNS0_16InterpreterStateE, %case_ResumeGenerator), ptr blockaddress(@_ZN6hermes2vm11Interpreter17interpretFunctionILb0ELb0EEENS0_10CallResultINS0_11HermesValueELNS0_6detail20CallResultSpecializeE2EEERNS0_7RuntimeERNS0_16InterpreterStateE, %case_CompleteGenerator), ptr blockaddress(@_ZN6hermes2vm11Interpreter17interpretFunctionILb0ELb0EEENS0_10CallResultINS0_11HermesValueELNS0_6detail20CallResultSpecializeE2EEERNS0_7RuntimeERNS0_16InterpreterStateE, %case_CreateGenerator), ptr blockaddress(@_ZN6hermes2vm11Interpreter17interpretFunctionILb0ELb0EEENS0_10CallResultINS0_11HermesValueELNS0_6detail20CallResultSpecializeE2EEERNS0_7RuntimeERNS0_16InterpreterStateE, %case_CreateGeneratorLongIndex), ptr blockaddress(@_ZN6hermes2vm11Interpreter17interpretFunctionILb0ELb0EEENS0_10CallResultINS0_11HermesValueELNS0_6detail20CallResultSpecializeE2EEERNS0_7RuntimeERNS0_16InterpreterStateE, %case_IteratorBegin), ptr blockaddress(@_ZN6hermes2vm11Interpreter17interpretFunctionILb0ELb0EEENS0_10CallResultINS0_11HermesValueELNS0_6detail20CallResultSpecializeE2EEERNS0_7RuntimeERNS0_16InterpreterStateE, %case_IteratorNext), ptr blockaddress(@_ZN6hermes2vm11Interpreter17interpretFunctionILb0ELb0EEENS0_10CallResultINS0_11HermesValueELNS0_6detail20CallResultSpecializeE2EEERNS0_7RuntimeERNS0_16InterpreterStateE, %case_IteratorClose), ptr blockaddress(@_ZN6hermes2vm11Interpreter17interpretFunctionILb0ELb0EEENS0_10CallResultINS0_11HermesValueELNS0_6detail20CallResultSpecializeE2EEERNS0_7RuntimeERNS0_16InterpreterStateE, %case_Jmp), ptr blockaddress(@_ZN6hermes2vm11Interpreter17interpretFunctionILb0ELb0EEENS0_10CallResultINS0_11HermesValueELNS0_6detail20CallResultSpecializeE2EEERNS0_7RuntimeERNS0_16InterpreterStateE, %case_JmpLong), ptr blockaddress(@_ZN6hermes2vm11Interpreter17interpretFunctionILb0ELb0EEENS0_10CallResultINS0_11HermesValueELNS0_6detail20CallResultSpecializeE2EEERNS0_7RuntimeERNS0_16InterpreterStateE, %case_JmpTrue), ptr blockaddress(@_ZN6hermes2vm11Interpreter17interpretFunctionILb0ELb0EEENS0_10CallResultINS0_11HermesValueELNS0_6detail20CallResultSpecializeE2EEERNS0_7RuntimeERNS0_16InterpreterStateE, %case_JmpTrueLong), ptr blockaddress(@_ZN6hermes2vm11Interpreter17interpretFunctionILb0ELb0EEENS0_10CallResultINS0_11HermesValueELNS0_6detail20CallResultSpecializeE2EEERNS0_7RuntimeERNS0_16InterpreterStateE, %case_JmpFalse), ptr blockaddress(@_ZN6hermes2vm11Interpreter17interpretFunctionILb0ELb0EEENS0_10CallResultINS0_11HermesValueELNS0_6detail20CallResultSpecializeE2EEERNS0_7RuntimeERNS0_16InterpreterStateE, %case_JmpFalseLong), ptr blockaddress(@_ZN6hermes2vm11Interpreter17interpretFunctionILb0ELb0EEENS0_10CallResultINS0_11HermesValueELNS0_6detail20CallResultSpecializeE2EEERNS0_7RuntimeERNS0_16InterpreterStateE, %case_JmpUndefined), ptr blockaddress(@_ZN6hermes2vm11Interpreter17interpretFunctionILb0ELb0EEENS0_10CallResultINS0_11HermesValueELNS0_6detail20CallResultSpecializeE2EEERNS0_7RuntimeERNS0_16InterpreterStateE, %case_JmpUndefinedLong), ptr blockaddress(@_ZN6hermes2vm11Interpreter17interpretFunctionILb0ELb0EEENS0_10CallResultINS0_11HermesValueELNS0_6detail20CallResultSpecializeE2EEERNS0_7RuntimeERNS0_16InterpreterStateE, %do.body473), ptr blockaddress(@_ZN6hermes2vm11Interpreter17interpretFunctionILb0ELb0EEENS0_10CallResultINS0_11HermesValueELNS0_6detail20CallResultSpecializeE2EEERNS0_7RuntimeERNS0_16InterpreterStateE, %do.body483), ptr blockaddress(@_ZN6hermes2vm11Interpreter17interpretFunctionILb0ELb0EEENS0_10CallResultINS0_11HermesValueELNS0_6detail20CallResultSpecializeE2EEERNS0_7RuntimeERNS0_16InterpreterStateE, %case_JLess), ptr blockaddress(@_ZN6hermes2vm11Interpreter17interpretFunctionILb0ELb0EEENS0_10CallResultINS0_11HermesValueELNS0_6detail20CallResultSpecializeE2EEERNS0_7RuntimeERNS0_16InterpreterStateE, %case_JLessLong), ptr blockaddress(@_ZN6hermes2vm11Interpreter17interpretFunctionILb0ELb0EEENS0_10CallResultINS0_11HermesValueELNS0_6detail20CallResultSpecializeE2EEERNS0_7RuntimeERNS0_16InterpreterStateE, %case_JNotLess), ptr blockaddress(@_ZN6hermes2vm11Interpreter17interpretFunctionILb0ELb0EEENS0_10CallResultINS0_11HermesValueELNS0_6detail20CallResultSpecializeE2EEERNS0_7RuntimeERNS0_16InterpreterStateE, %case_JNotLessLong), ptr blockaddress(@_ZN6hermes2vm11Interpreter17interpretFunctionILb0ELb0EEENS0_10CallResultINS0_11HermesValueELNS0_6detail20CallResultSpecializeE2EEERNS0_7RuntimeERNS0_16InterpreterStateE, %case_JLessN), ptr blockaddress(@_ZN6hermes2vm11Interpreter17interpretFunctionILb0ELb0EEENS0_10CallResultINS0_11HermesValueELNS0_6detail20CallResultSpecializeE2EEERNS0_7RuntimeERNS0_16InterpreterStateE, %case_JLessNLong), ptr blockaddress(@_ZN6hermes2vm11Interpreter17interpretFunctionILb0ELb0EEENS0_10CallResultINS0_11HermesValueELNS0_6detail20CallResultSpecializeE2EEERNS0_7RuntimeERNS0_16InterpreterStateE, %case_JNotLessN), ptr blockaddress(@_ZN6hermes2vm11Interpreter17interpretFunctionILb0ELb0EEENS0_10CallResultINS0_11HermesValueELNS0_6detail20CallResultSpecializeE2EEERNS0_7RuntimeERNS0_16InterpreterStateE, %case_JNotLessNLong), ptr blockaddress(@_ZN6hermes2vm11Interpreter17interpretFunctionILb0ELb0EEENS0_10CallResultINS0_11HermesValueELNS0_6detail20CallResultSpecializeE2EEERNS0_7RuntimeERNS0_16InterpreterStateE, %case_JLessEqual), ptr blockaddress(@_ZN6hermes2vm11Interpreter17interpretFunctionILb0ELb0EEENS0_10CallResultINS0_11HermesValueELNS0_6detail20CallResultSpecializeE2EEERNS0_7RuntimeERNS0_16InterpreterStateE, %case_JLessEqualLong), ptr blockaddress(@_ZN6hermes2vm11Interpreter17interpretFunctionILb0ELb0EEENS0_10CallResultINS0_11HermesValueELNS0_6detail20CallResultSpecializeE2EEERNS0_7RuntimeERNS0_16InterpreterStateE, %case_JNotLessEqual), ptr blockaddress(@_ZN6hermes2vm11Interpreter17interpretFunctionILb0ELb0EEENS0_10CallResultINS0_11HermesValueELNS0_6detail20CallResultSpecializeE2EEERNS0_7RuntimeERNS0_16InterpreterStateE, %case_JNotLessEqualLong), ptr blockaddress(@_ZN6hermes2vm11Interpreter17interpretFunctionILb0ELb0EEENS0_10CallResultINS0_11HermesValueELNS0_6detail20CallResultSpecializeE2EEERNS0_7RuntimeERNS0_16InterpreterStateE, %case_JLessEqualN), ptr blockaddress(@_ZN6hermes2vm11Interpreter17interpretFunctionILb0ELb0EEENS0_10CallResultINS0_11HermesValueELNS0_6detail20CallResultSpecializeE2EEERNS0_7RuntimeERNS0_16InterpreterStateE, %case_JLessEqualNLong), ptr blockaddress(@_ZN6hermes2vm11Interpreter17interpretFunctionILb0ELb0EEENS0_10CallResultINS0_11HermesValueELNS0_6detail20CallResultSpecializeE2EEERNS0_7RuntimeERNS0_16InterpreterStateE, %case_JNotLessEqualN), ptr blockaddress(@_ZN6hermes2vm11Interpreter17interpretFunctionILb0ELb0EEENS0_10CallResultINS0_11HermesValueELNS0_6detail20CallResultSpecializeE2EEERNS0_7RuntimeERNS0_16InterpreterStateE, %case_JNotLessEqualNLong), ptr blockaddress(@_ZN6hermes2vm11Interpreter17interpretFunctionILb0ELb0EEENS0_10CallResultINS0_11HermesValueELNS0_6detail20CallResultSpecializeE2EEERNS0_7RuntimeERNS0_16InterpreterStateE, %case_JGreater), ptr blockaddress(@_ZN6hermes2vm11Interpreter17interpretFunctionILb0ELb0EEENS0_10CallResultINS0_11HermesValueELNS0_6detail20CallResultSpecializeE2EEERNS0_7RuntimeERNS0_16InterpreterStateE, %case_JGreaterLong), ptr blockaddress(@_ZN6hermes2vm11Interpreter17interpretFunctionILb0ELb0EEENS0_10CallResultINS0_11HermesValueELNS0_6detail20CallResultSpecializeE2EEERNS0_7RuntimeERNS0_16InterpreterStateE, %case_JNotGreater), ptr blockaddress(@_ZN6hermes2vm11Interpreter17interpretFunctionILb0ELb0EEENS0_10CallResultINS0_11HermesValueELNS0_6detail20CallResultSpecializeE2EEERNS0_7RuntimeERNS0_16InterpreterStateE, %case_JNotGreaterLong), ptr blockaddress(@_ZN6hermes2vm11Interpreter17interpretFunctionILb0ELb0EEENS0_10CallResultINS0_11HermesValueELNS0_6detail20CallResultSpecializeE2EEERNS0_7RuntimeERNS0_16InterpreterStateE, %case_JGreaterN), ptr blockaddress(@_ZN6hermes2vm11Interpreter17interpretFunctionILb0ELb0EEENS0_10CallResultINS0_11HermesValueELNS0_6detail20CallResultSpecializeE2EEERNS0_7RuntimeERNS0_16InterpreterStateE, %case_JGreaterNLong), ptr blockaddress(@_ZN6hermes2vm11Interpreter17interpretFunctionILb0ELb0EEENS0_10CallResultINS0_11HermesValueELNS0_6detail20CallResultSpecializeE2EEERNS0_7RuntimeERNS0_16InterpreterStateE, %case_JNotGreaterN), ptr blockaddress(@_ZN6hermes2vm11Interpreter17interpretFunctionILb0ELb0EEENS0_10CallResultINS0_11HermesValueELNS0_6detail20CallResultSpecializeE2EEERNS0_7RuntimeERNS0_16InterpreterStateE, %case_JNotGreaterNLong), ptr blockaddress(@_ZN6hermes2vm11Interpreter17interpretFunctionILb0ELb0EEENS0_10CallResultINS0_11HermesValueELNS0_6detail20CallResultSpecializeE2EEERNS0_7RuntimeERNS0_16InterpreterStateE, %case_JGreaterEqual), ptr blockaddress(@_ZN6hermes2vm11Interpreter17interpretFunctionILb0ELb0EEENS0_10CallResultINS0_11HermesValueELNS0_6detail20CallResultSpecializeE2EEERNS0_7RuntimeERNS0_16InterpreterStateE, %case_JGreaterEqualLong), ptr blockaddress(@_ZN6hermes2vm11Interpreter17interpretFunctionILb0ELb0EEENS0_10CallResultINS0_11HermesValueELNS0_6detail20CallResultSpecializeE2EEERNS0_7RuntimeERNS0_16InterpreterStateE, %case_JNotGreaterEqual), ptr blockaddress(@_ZN6hermes2vm11Interpreter17interpretFunctionILb0ELb0EEENS0_10CallResultINS0_11HermesValueELNS0_6detail20CallResultSpecializeE2EEERNS0_7RuntimeERNS0_16InterpreterStateE, %case_JNotGreaterEqualLong), ptr blockaddress(@_ZN6hermes2vm11Interpreter17interpretFunctionILb0ELb0EEENS0_10CallResultINS0_11HermesValueELNS0_6detail20CallResultSpecializeE2EEERNS0_7RuntimeERNS0_16InterpreterStateE, %case_JGreaterEqualN), ptr blockaddress(@_ZN6hermes2vm11Interpreter17interpretFunctionILb0ELb0EEENS0_10CallResultINS0_11HermesValueELNS0_6detail20CallResultSpecializeE2EEERNS0_7RuntimeERNS0_16InterpreterStateE, %case_JGreaterEqualNLong), ptr blockaddress(@_ZN6hermes2vm11Interpreter17interpretFunctionILb0ELb0EEENS0_10CallResultINS0_11HermesValueELNS0_6detail20CallResultSpecializeE2EEERNS0_7RuntimeERNS0_16InterpreterStateE, %case_JNotGreaterEqualN), ptr blockaddress(@_ZN6hermes2vm11Interpreter17interpretFunctionILb0ELb0EEENS0_10CallResultINS0_11HermesValueELNS0_6detail20CallResultSpecializeE2EEERNS0_7RuntimeERNS0_16InterpreterStateE, %case_JNotGreaterEqualNLong), ptr blockaddress(@_ZN6hermes2vm11Interpreter17interpretFunctionILb0ELb0EEENS0_10CallResultINS0_11HermesValueELNS0_6detail20CallResultSpecializeE2EEERNS0_7RuntimeERNS0_16InterpreterStateE, %case_JEqual), ptr blockaddress(@_ZN6hermes2vm11Interpreter17interpretFunctionILb0ELb0EEENS0_10CallResultINS0_11HermesValueELNS0_6detail20CallResultSpecializeE2EEERNS0_7RuntimeERNS0_16InterpreterStateE, %case_JEqualLong), ptr blockaddress(@_ZN6hermes2vm11Interpreter17interpretFunctionILb0ELb0EEENS0_10CallResultINS0_11HermesValueELNS0_6detail20CallResultSpecializeE2EEERNS0_7RuntimeERNS0_16InterpreterStateE, %case_JNotEqual), ptr blockaddress(@_ZN6hermes2vm11Interpreter17interpretFunctionILb0ELb0EEENS0_10CallResultINS0_11HermesValueELNS0_6detail20CallResultSpecializeE2EEERNS0_7RuntimeERNS0_16InterpreterStateE, %case_JNotEqualLong), ptr blockaddress(@_ZN6hermes2vm11Interpreter17interpretFunctionILb0ELb0EEENS0_10CallResultINS0_11HermesValueELNS0_6detail20CallResultSpecializeE2EEERNS0_7RuntimeERNS0_16InterpreterStateE, %case_JStrictEqual), ptr blockaddress(@_ZN6hermes2vm11Interpreter17interpretFunctionILb0ELb0EEENS0_10CallResultINS0_11HermesValueELNS0_6detail20CallResultSpecializeE2EEERNS0_7RuntimeERNS0_16InterpreterStateE, %case_JStrictEqualLong), ptr blockaddress(@_ZN6hermes2vm11Interpreter17interpretFunctionILb0ELb0EEENS0_10CallResultINS0_11HermesValueELNS0_6detail20CallResultSpecializeE2EEERNS0_7RuntimeERNS0_16InterpreterStateE, %case_JStrictNotEqual), ptr blockaddress(@_ZN6hermes2vm11Interpreter17interpretFunctionILb0ELb0EEENS0_10CallResultINS0_11HermesValueELNS0_6detail20CallResultSpecializeE2EEERNS0_7RuntimeERNS0_16InterpreterStateE, %case_JStrictNotEqualLong), ptr blockaddress(@_ZN6hermes2vm11Interpreter17interpretFunctionILb0ELb0EEENS0_10CallResultINS0_11HermesValueELNS0_6detail20CallResultSpecializeE2EEERNS0_7RuntimeERNS0_16InterpreterStateE, %case__last)], comdat, align 16
@.str.13 = private unnamed_addr constant [36 x i8] c"accessing an uninitialized variable\00", align 1
@.str.14 = private unnamed_addr constant [36 x i8] c"Unreachable instruction encountered\00", align 1
@.str.15 = private unnamed_addr constant [28 x i8] c"constructor is not callable\00", align 1
@.str.16 = private unnamed_addr constant [39 x i8] c"right operand of 'in' is not an object\00", align 1
@.str.17 = private unnamed_addr constant [7 x i8] c"delete\00", align 1
@.str.18 = private unnamed_addr constant [21 x i8] c"Invalid opcode _last\00", align 1
@_ZZN6hermes2vm20CodeCoverageProfiler17globalEnabledFlagEvE17globalEnabledFlag = linkonce_odr hidden local_unnamed_addr global %"struct.std::atomic" zeroinitializer, comdat, align 1
@_ZN6hermes2vm15HandleRootOwner12nullPointer_E = external global %"class.hermes::vm::PinnedHermesValue", align 8
@.str.19 = private unnamed_addr constant [45 x i8] c"BigInt is too small for the operation result\00", align 1
@.str.20 = private unnamed_addr constant [29 x i8] c"Maximum BigInt size exceeded\00", align 1
@.str.21 = private unnamed_addr constant [17 x i8] c"Division by zero\00", align 1
@.str.22 = private unnamed_addr constant [26 x i8] c"Exponent must be positive\00", align 1
@_ZN6hermes2vm15HandleRootOwner11emptyValue_E = external global %"class.hermes::vm::PinnedHermesValue", align 8

; Function Attrs: mustprogress nounwind uwtable
define hidden ptr @_ZN6hermes2vm11Interpreter19createGenerator_RJSERNS0_7RuntimeEPNS0_13RuntimeModuleEjNS0_6HandleINS0_11EnvironmentEEENS0_10NativeArgsE(ptr noundef nonnull align 8 dereferenceable(9832) %runtime, ptr noundef %runtimeModule, i32 noundef %funcIndex, ptr %envHandle.coerce, ptr nocapture noundef readonly %args) local_unnamed_addr #0 align 2 {
entry:
  %agg.tmp10 = alloca %"class.hermes::vm::NativeArgs", align 8
  %domain_.i.i = getelementptr inbounds %"class.hermes::vm::RuntimeModule", ptr %runtimeModule, i64 0, i32 3
  %0 = load i32, ptr %domain_.i.i, align 4
  %cmp.i.i.not.i.i.i.i = icmp eq i32 %0, 0
  br i1 %cmp.i.i.not.i.i.i.i, label %_ZN6hermes2vm13RuntimeModule15getDomainUnsafeERNS0_7RuntimeE.exit.i, label %if.end.i.i.i.i

if.end.i.i.i.i:                                   ; preds = %entry
  %runtime_.i.i = getelementptr inbounds %"class.hermes::vm::RuntimeModule", ptr %runtimeModule, i64 0, i32 1
  %1 = load ptr, ptr %runtime_.i.i, align 8
  %heapStorage_.i.i.i = getelementptr inbounds %"class.hermes::vm::Runtime", ptr %1, i64 0, i32 97
  %2 = ptrtoint ptr %1 to i64
  %conv.i.i.i.i.i.i.i = zext i32 %0 to i64
  %add.i.i.i.i.i.i.i = add i64 %2, %conv.i.i.i.i.i.i.i
  %3 = inttoptr i64 %add.i.i.i.i.i.i.i to ptr
  tail call void @_ZN6hermes2vm7HadesGC18weakRefReadBarrierEPNS0_6GCCellE(ptr noundef nonnull align 8 dereferenceable(8152) %heapStorage_.i.i.i, ptr noundef %3) #9
  %4 = or i64 %add.i.i.i.i.i.i.i, -281474976710656
  br label %_ZN6hermes2vm13RuntimeModule15getDomainUnsafeERNS0_7RuntimeE.exit.i

_ZN6hermes2vm13RuntimeModule15getDomainUnsafeERNS0_7RuntimeE.exit.i: ; preds = %if.end.i.i.i.i, %entry
  %retval.0.i.i.i.i = phi i64 [ %4, %if.end.i.i.i.i ], [ -281474976710656, %entry ]
  %topGCScope_.i.i.i.i.i = getelementptr inbounds %"class.hermes::vm::HandleRootOwner", ptr %runtime, i64 0, i32 1
  %5 = load ptr, ptr %topGCScope_.i.i.i.i.i, align 8
  %next_.i.i.i.i.i.i.i.i = getelementptr inbounds %"class.hermes::vm::GCScope", ptr %5, i64 0, i32 4
  %6 = load ptr, ptr %next_.i.i.i.i.i.i.i.i, align 8
  %curChunkEnd_.i.i.i.i.i.i.i = getelementptr inbounds %"class.hermes::vm::GCScope", ptr %5, i64 0, i32 5
  %7 = load ptr, ptr %curChunkEnd_.i.i.i.i.i.i.i, align 8
  %cmp.i.i.i.i.i.i.i = icmp ult ptr %6, %7
  br i1 %cmp.i.i.i.i.i.i.i, label %if.then.i.i.i.i.i.i.i, label %if.end.i.i.i.i.i.i.i

if.then.i.i.i.i.i.i.i:                            ; preds = %_ZN6hermes2vm13RuntimeModule15getDomainUnsafeERNS0_7RuntimeE.exit.i
  %incdec.ptr.i.i.i.i.i.i.i = getelementptr inbounds %"class.hermes::vm::PinnedHermesValue", ptr %6, i64 1
  store ptr %incdec.ptr.i.i.i.i.i.i.i, ptr %next_.i.i.i.i.i.i.i.i, align 8
  store i64 %retval.0.i.i.i.i, ptr %6, align 8
  br label %_ZN6hermes2vm13RuntimeModule9getDomainERNS0_7RuntimeE.exit

if.end.i.i.i.i.i.i.i:                             ; preds = %_ZN6hermes2vm13RuntimeModule15getDomainUnsafeERNS0_7RuntimeE.exit.i
  %call7.i.i.i.i.i.i.i = tail call noundef ptr @_ZN6hermes2vm7GCScope15_newChunkAndPHVENS0_11HermesValueE(ptr noundef nonnull align 8 dereferenceable(212) %5, i64 %retval.0.i.i.i.i) #9
  br label %_ZN6hermes2vm13RuntimeModule9getDomainERNS0_7RuntimeE.exit

_ZN6hermes2vm13RuntimeModule9getDomainERNS0_7RuntimeE.exit: ; preds = %if.then.i.i.i.i.i.i.i, %if.end.i.i.i.i.i.i.i
  %retval.0.i.i.i.i.i.i.i = phi ptr [ %6, %if.then.i.i.i.i.i.i.i ], [ %call7.i.i.i.i.i.i.i, %if.end.i.i.i.i.i.i.i ]
  %functionPrototype = getelementptr inbounds %"class.hermes::vm::Runtime", ptr %runtime, i64 0, i32 24
  %functionMap_.i = getelementptr inbounds %"class.hermes::vm::RuntimeModule", ptr %runtimeModule, i64 0, i32 4
  %conv.i = zext i32 %funcIndex to i64
  %8 = load ptr, ptr %functionMap_.i, align 8
  %add.ptr.i.i = getelementptr inbounds ptr, ptr %8, i64 %conv.i
  %9 = load ptr, ptr %add.ptr.i.i, align 8
  %tobool.not.i = icmp eq ptr %9, null
  br i1 %tobool.not.i, label %if.end.i, label %_ZN6hermes2vm13RuntimeModule23getCodeBlockMayAllocateEj.exit

if.end.i:                                         ; preds = %_ZN6hermes2vm13RuntimeModule9getDomainERNS0_7RuntimeE.exit
  %call6.i = tail call noundef ptr @_ZN6hermes2vm13RuntimeModule20getCodeBlockSlowPathEj(ptr noundef nonnull align 8 dereferenceable(192) %runtimeModule, i32 noundef %funcIndex) #9
  br label %_ZN6hermes2vm13RuntimeModule23getCodeBlockMayAllocateEj.exit

_ZN6hermes2vm13RuntimeModule23getCodeBlockMayAllocateEj.exit: ; preds = %_ZN6hermes2vm13RuntimeModule9getDomainERNS0_7RuntimeE.exit, %if.end.i
  %retval.0.i = phi ptr [ %call6.i, %if.end.i ], [ %9, %_ZN6hermes2vm13RuntimeModule9getDomainERNS0_7RuntimeE.exit ]
  %10 = load ptr, ptr %args, align 8
  store ptr %10, ptr %agg.tmp10, align 8
  %argCount_.i = getelementptr inbounds %"class.hermes::vm::NativeArgs", ptr %agg.tmp10, i64 0, i32 1
  %argCount_3.i = getelementptr inbounds %"class.hermes::vm::NativeArgs", ptr %args, i64 0, i32 1
  call void @llvm.memcpy.p0.p0.i64(ptr noundef nonnull align 8 dereferenceable(16) %argCount_.i, ptr noundef nonnull align 8 dereferenceable(16) %argCount_3.i, i64 16, i1 false)
  %call17 = call ptr @_ZN6hermes2vm22GeneratorInnerFunction6createERNS0_7RuntimeENS0_6HandleINS0_6DomainEEENS4_INS0_8JSObjectEEENS4_INS0_11EnvironmentEEEPNS0_9CodeBlockENS0_10NativeArgsE(ptr noundef nonnull align 8 dereferenceable(9832) %runtime, ptr %retval.0.i.i.i.i.i.i.i, ptr nonnull %functionPrototype, ptr %envHandle.coerce, ptr noundef %retval.0.i, ptr noundef nonnull %agg.tmp10) #9
  %cmp.i.i.not = icmp eq ptr %call17, inttoptr (i64 -1 to ptr)
  br i1 %cmp.i.i.not, label %return, label %if.end

if.end:                                           ; preds = %_ZN6hermes2vm13RuntimeModule23getCodeBlockMayAllocateEj.exit
  %currentFrame_.i = getelementptr inbounds %"class.hermes::vm::Runtime", ptr %runtime, i64 0, i32 131
  %retval.sroa.0.0.copyload.i = load ptr, ptr %currentFrame_.i, align 8
  %arrayidx.i.i = getelementptr inbounds %"class.hermes::vm::PinnedHermesValue", ptr %retval.sroa.0.0.copyload.i, i64 -6
  %agg.tmp.sroa.0.0.copyload.i = load i64, ptr %arrayidx.i.i, align 8
  %or.i.i.i.i.i = or i64 %agg.tmp.sroa.0.0.copyload.i, -281474976710656
  %11 = load ptr, ptr %topGCScope_.i.i.i.i.i, align 8
  %next_.i.i.i.i.i.i.i = getelementptr inbounds %"class.hermes::vm::GCScope", ptr %11, i64 0, i32 4
  %12 = load ptr, ptr %next_.i.i.i.i.i.i.i, align 8
  %curChunkEnd_.i.i.i.i.i.i = getelementptr inbounds %"class.hermes::vm::GCScope", ptr %11, i64 0, i32 5
  %13 = load ptr, ptr %curChunkEnd_.i.i.i.i.i.i, align 8
  %cmp.i.i.i.i.i.i = icmp ult ptr %12, %13
  br i1 %cmp.i.i.i.i.i.i, label %if.then.i.i.i.i.i.i, label %if.end.i.i.i.i.i.i

if.then.i.i.i.i.i.i:                              ; preds = %if.end
  %incdec.ptr.i.i.i.i.i.i = getelementptr inbounds %"class.hermes::vm::PinnedHermesValue", ptr %12, i64 1
  store ptr %incdec.ptr.i.i.i.i.i.i, ptr %next_.i.i.i.i.i.i.i, align 8
  store i64 %or.i.i.i.i.i, ptr %12, align 8
  br label %_ZN6hermes2vm15HandleRootOwner10makeHandleINS0_19JSGeneratorFunctionEEENS0_6HandleIT_EEPS5_.exit

if.end.i.i.i.i.i.i:                               ; preds = %if.end
  %call7.i.i.i.i.i.i = call noundef ptr @_ZN6hermes2vm7GCScope15_newChunkAndPHVENS0_11HermesValueE(ptr noundef nonnull align 8 dereferenceable(212) %11, i64 %or.i.i.i.i.i) #9
  br label %_ZN6hermes2vm15HandleRootOwner10makeHandleINS0_19JSGeneratorFunctionEEENS0_6HandleIT_EEPS5_.exit

_ZN6hermes2vm15HandleRootOwner10makeHandleINS0_19JSGeneratorFunctionEEENS0_6HandleIT_EEPS5_.exit: ; preds = %if.then.i.i.i.i.i.i, %if.end.i.i.i.i.i.i
  %retval.0.i.i.i.i.i.i = phi ptr [ %12, %if.then.i.i.i.i.i.i ], [ %call7.i.i.i.i.i.i, %if.end.i.i.i.i.i.i ]
  %call.i = call { i32, i64 } @_ZN6hermes2vm8JSObject24getNamedWithReceiver_RJSENS0_6HandleIS1_EERNS0_7RuntimeENS0_8SymbolIDENS2_INS0_11HermesValueEEENS0_11PropOpFlagsEPNS0_18PropertyCacheEntryE(ptr %retval.0.i.i.i.i.i.i, ptr noundef nonnull align 8 dereferenceable(9832) %runtime, i32 55, ptr %retval.0.i.i.i.i.i.i, i32 0, ptr noundef null) #9
  %14 = extractvalue { i32, i64 } %call.i, 0
  %15 = extractvalue { i32, i64 } %call.i, 1
  %cmp.i10 = icmp eq i32 %14, 0
  br i1 %cmp.i10, label %return, label %if.end41

if.end41:                                         ; preds = %_ZN6hermes2vm15HandleRootOwner10makeHandleINS0_19JSGeneratorFunctionEEENS0_6HandleIT_EEPS5_.exit
  %cmp.i.i12 = icmp ugt i64 %15, -844424930131969
  br i1 %cmp.i.i12, label %_ZN6hermes2vm5vmisaINS0_8JSObjectEEEbNS0_11HermesValueE.exit, label %cond.false

_ZN6hermes2vm5vmisaINS0_8JSObjectEEEbNS0_11HermesValueE.exit: ; preds = %if.end41
  %and.i.i = and i64 %15, 281474976710655
  %16 = inttoptr i64 %and.i.i to ptr
  %bf.load.i.i.i.i.i.i.i.i.i = load i32, ptr %16, align 4
  %17 = add i32 %bf.load.i.i.i.i.i.i.i.i.i, -436207616
  %18 = icmp ult i32 %17, 855638016
  br i1 %18, label %cond.true, label %cond.false

cond.true:                                        ; preds = %_ZN6hermes2vm5vmisaINS0_8JSObjectEEEbNS0_11HermesValueE.exit
  %or.i.i.i.i.i15 = or i64 %15, -281474976710656
  %19 = load ptr, ptr %topGCScope_.i.i.i.i.i, align 8
  %next_.i.i.i.i.i.i.i17 = getelementptr inbounds %"class.hermes::vm::GCScope", ptr %19, i64 0, i32 4
  %20 = load ptr, ptr %next_.i.i.i.i.i.i.i17, align 8
  %curChunkEnd_.i.i.i.i.i.i18 = getelementptr inbounds %"class.hermes::vm::GCScope", ptr %19, i64 0, i32 5
  %21 = load ptr, ptr %curChunkEnd_.i.i.i.i.i.i18, align 8
  %cmp.i.i.i.i.i.i19 = icmp ult ptr %20, %21
  br i1 %cmp.i.i.i.i.i.i19, label %if.then.i.i.i.i.i.i23, label %if.end.i.i.i.i.i.i20

if.then.i.i.i.i.i.i23:                            ; preds = %cond.true
  %incdec.ptr.i.i.i.i.i.i24 = getelementptr inbounds %"class.hermes::vm::PinnedHermesValue", ptr %20, i64 1
  store ptr %incdec.ptr.i.i.i.i.i.i24, ptr %next_.i.i.i.i.i.i.i17, align 8
  store i64 %or.i.i.i.i.i15, ptr %20, align 8
  br label %cond.end

if.end.i.i.i.i.i.i20:                             ; preds = %cond.true
  %call7.i.i.i.i.i.i21 = call noundef ptr @_ZN6hermes2vm7GCScope15_newChunkAndPHVENS0_11HermesValueE(ptr noundef nonnull align 8 dereferenceable(212) %19, i64 %or.i.i.i.i.i15) #9
  br label %cond.end

cond.false:                                       ; preds = %if.end41, %_ZN6hermes2vm5vmisaINS0_8JSObjectEEEbNS0_11HermesValueE.exit
  %generatorPrototype = getelementptr inbounds %"class.hermes::vm::Runtime", ptr %runtime, i64 0, i32 78
  br label %cond.end

cond.end:                                         ; preds = %if.end.i.i.i.i.i.i20, %if.then.i.i.i.i.i.i23, %cond.false
  %prototype.sroa.0.0 = phi ptr [ %generatorPrototype, %cond.false ], [ %20, %if.then.i.i.i.i.i.i23 ], [ %call7.i.i.i.i.i.i21, %if.end.i.i.i.i.i.i20 ]
  %call66 = call ptr @_ZN6hermes2vm11JSGenerator6createERNS0_7RuntimeENS0_6HandleINS0_22GeneratorInnerFunctionEEENS4_INS0_8JSObjectEEE(ptr noundef nonnull align 8 dereferenceable(9832) %runtime, ptr %call17, ptr %prototype.sroa.0.0) #9
  br label %return

return:                                           ; preds = %_ZN6hermes2vm15HandleRootOwner10makeHandleINS0_19JSGeneratorFunctionEEENS0_6HandleIT_EEPS5_.exit, %_ZN6hermes2vm13RuntimeModule23getCodeBlockMayAllocateEj.exit, %cond.end
  %retval.sroa.0.0 = phi ptr [ %call66, %cond.end ], [ inttoptr (i64 -1 to ptr), %_ZN6hermes2vm13RuntimeModule23getCodeBlockMayAllocateEj.exit ], [ inttoptr (i64 -1 to ptr), %_ZN6hermes2vm15HandleRootOwner10makeHandleINS0_19JSGeneratorFunctionEEENS0_6HandleIT_EEPS5_.exit ]
  ret ptr %retval.sroa.0.0
}

declare ptr @_ZN6hermes2vm22GeneratorInnerFunction6createERNS0_7RuntimeENS0_6HandleINS0_6DomainEEENS4_INS0_8JSObjectEEENS4_INS0_11EnvironmentEEEPNS0_9CodeBlockENS0_10NativeArgsE(ptr noundef nonnull align 8 dereferenceable(9832), ptr, ptr, ptr, ptr noundef, ptr noundef) local_unnamed_addr #1

; Function Attrs: mustprogress nocallback nofree nounwind willreturn memory(argmem: readwrite)
declare void @llvm.memcpy.p0.p0.i64(ptr noalias nocapture writeonly, ptr noalias nocapture readonly, i64, i1 immarg) #2

declare ptr @_ZN6hermes2vm11JSGenerator6createERNS0_7RuntimeENS0_6HandleINS0_22GeneratorInnerFunctionEEENS4_INS0_8JSObjectEEE(ptr noundef nonnull align 8 dereferenceable(9832), ptr, ptr) local_unnamed_addr #1

; Function Attrs: mustprogress nounwind uwtable
define hidden ptr @_ZN6hermes2vm11Interpreter22reifyArgumentsSlowPathERNS0_7RuntimeENS0_6HandleINS0_8CallableEEEb(ptr noundef nonnull align 8 dereferenceable(9832) %runtime, ptr %curFunction.coerce, i1 noundef zeroext %strictMode) local_unnamed_addr #0 align 2 {
entry:
  %currentFrame_.i = getelementptr inbounds %"class.hermes::vm::Runtime", ptr %runtime, i64 0, i32 131
  %retval.sroa.0.0.copyload.i = load ptr, ptr %currentFrame_.i, align 8
  %arrayidx.i.i = getelementptr inbounds %"class.hermes::vm::PinnedHermesValue", ptr %retval.sroa.0.0.copyload.i, i64 -4
  %0 = load i64, ptr %arrayidx.i.i, align 8
  %conv.i.i = trunc i64 %0 to i32
  %call6 = tail call ptr @_ZN6hermes2vm9Arguments6createERNS0_7RuntimeEjNS0_6HandleINS0_8CallableEEEb(ptr noundef nonnull align 8 dereferenceable(9832) %runtime, i32 noundef %conv.i.i, ptr %curFunction.coerce, i1 noundef zeroext %strictMode) #9
  %cmp.i.i.not = icmp eq ptr %call6, inttoptr (i64 -1 to ptr)
  %cmp11.not = icmp eq i32 %conv.i.i, 0
  %or.cond = or i1 %cmp.i.i.not, %cmp11.not
  br i1 %or.cond, label %return, label %for.body.lr.ph

for.body.lr.ph:                                   ; preds = %entry
  %invariant.gep = getelementptr %"class.hermes::vm::PinnedHermesValue", ptr %retval.sroa.0.0.copyload.i, i64 -8
  %1 = ptrtoint ptr %runtime to i64
  %level_.i.i.i.i.i.i.i.i.i = getelementptr inbounds %"class.hermes::vm::Runtime", ptr %runtime, i64 0, i32 97, i32 0, i32 5, i32 0, i32 1
  %effectiveEnd_.i.i.i.i.i.i.i.i.i.i = getelementptr inbounds %"class.hermes::vm::Runtime", ptr %runtime, i64 0, i32 97, i32 0, i32 5, i32 0, i32 2
  %heapStorage_.i.i.i.i.i = getelementptr inbounds %"class.hermes::vm::Runtime", ptr %runtime, i64 0, i32 97
  %youngGen_.i.i.i.i.i = getelementptr inbounds %"class.hermes::vm::Runtime", ptr %runtime, i64 0, i32 97, i32 0, i32 5
  br label %for.body

for.body:                                         ; preds = %for.body.lr.ph, %_ZN6hermes2vm9ArrayImpl26unsafeSetExistingElementAtEPS1_RNS0_7RuntimeEjNS0_13HermesValue32E.exit
  %argIndex.012 = phi i32 [ 0, %for.body.lr.ph ], [ %inc, %_ZN6hermes2vm9ArrayImpl26unsafeSetExistingElementAtEPS1_RNS0_7RuntimeEjNS0_13HermesValue32E.exit ]
  %conv.i = sext i32 %argIndex.012 to i64
  %idx.neg.i.i.i = sub nsw i64 0, %conv.i
  %gep = getelementptr %"class.hermes::vm::PinnedHermesValue", ptr %invariant.gep, i64 %idx.neg.i.i.i
  %agg.tmp12.sroa.0.0.copyload = load i64, ptr %gep, align 8
  %shr.i.i = ashr i64 %agg.tmp12.sroa.0.0.copyload, 47
  switch i64 %shr.i.i, label %sw.default.i [
    i64 -14, label %_ZN6hermes2vm13HermesValue3217encodeHermesValueENS0_11HermesValueERNS0_7RuntimeE.exit
    i64 -12, label %sw.bb3.i
    i64 -11, label %sw.bb6.i
    i64 -10, label %sw.bb9.i
    i64 -9, label %sw.bb13.i
    i64 -6, label %sw.bb19.i
    i64 -5, label %sw.bb19.i
    i64 -4, label %sw.bb23.i
    i64 -3, label %sw.bb23.i
    i64 -2, label %sw.bb27.i
    i64 -1, label %sw.bb27.i
  ]

sw.bb3.i:                                         ; preds = %for.body
  br label %_ZN6hermes2vm13HermesValue3217encodeHermesValueENS0_11HermesValueERNS0_7RuntimeE.exit

sw.bb6.i:                                         ; preds = %for.body
  br label %_ZN6hermes2vm13HermesValue3217encodeHermesValueENS0_11HermesValueERNS0_7RuntimeE.exit

sw.bb9.i:                                         ; preds = %for.body
  %and.i.i = and i64 %agg.tmp12.sroa.0.0.copyload, 1
  %tobool.i.not.i = icmp eq i64 %and.i.i, 0
  %or.i.i.i = select i1 %tobool.i.not.i, i32 6, i32 22
  br label %_ZN6hermes2vm13HermesValue3217encodeHermesValueENS0_11HermesValueERNS0_7RuntimeE.exit

sw.bb13.i:                                        ; preds = %for.body
  %conv.i.i8 = trunc i64 %agg.tmp12.sroa.0.0.copyload to i32
  %shl.i.i.i = shl i32 %conv.i.i8, 3
  %or.i.i4.i = or disjoint i32 %shl.i.i.i, 5
  br label %_ZN6hermes2vm13HermesValue3217encodeHermesValueENS0_11HermesValueERNS0_7RuntimeE.exit

sw.bb19.i:                                        ; preds = %for.body, %for.body
  %sub.i.i.i.i.i.i = sub i64 %agg.tmp12.sroa.0.0.copyload, %1
  %conv.i.i.i.i.i.i = trunc i64 %sub.i.i.i.i.i.i to i32
  %or.i.i.i.i = or i32 %conv.i.i.i.i.i.i, 2
  br label %_ZN6hermes2vm13HermesValue3217encodeHermesValueENS0_11HermesValueERNS0_7RuntimeE.exit

sw.bb23.i:                                        ; preds = %for.body, %for.body
  %sub.i.i.i.i.i6.i = sub i64 %agg.tmp12.sroa.0.0.copyload, %1
  %conv.i.i.i.i.i7.i = trunc i64 %sub.i.i.i.i.i6.i to i32
  %or.i.i.i8.i = or i32 %conv.i.i.i.i.i7.i, 1
  br label %_ZN6hermes2vm13HermesValue3217encodeHermesValueENS0_11HermesValueERNS0_7RuntimeE.exit

sw.bb27.i:                                        ; preds = %for.body, %for.body
  %sub.i.i.i.i.i10.i = sub i64 %agg.tmp12.sroa.0.0.copyload, %1
  %conv.i.i.i.i.i11.i = trunc i64 %sub.i.i.i.i.i10.i to i32
  br label %_ZN6hermes2vm13HermesValue3217encodeHermesValueENS0_11HermesValueERNS0_7RuntimeE.exit

sw.default.i:                                     ; preds = %for.body
  %2 = bitcast i64 %agg.tmp12.sroa.0.0.copyload to double
  %conv.i.i.i.i.i = fptosi double %2 to i32
  %shl.i.i.i.i.i = shl i32 %conv.i.i.i.i.i, 3
  %shr.i.i.i.i.i = ashr exact i32 %shl.i.i.i.i.i, 3
  %conv.i12.i = sitofp i32 %shr.i.i.i.i.i to double
  %3 = bitcast double %conv.i12.i to i64
  %cmp.i.i9 = icmp eq i64 %agg.tmp12.sroa.0.0.copyload, %3
  br i1 %cmp.i.i9, label %if.then.i.i, label %if.end.i.i

if.then.i.i:                                      ; preds = %sw.default.i
  %or.i.i16.i = or disjoint i32 %shl.i.i.i.i.i, 4
  br label %_ZN6hermes2vm13HermesValue3217encodeHermesValueENS0_11HermesValueERNS0_7RuntimeE.exit

if.end.i.i:                                       ; preds = %sw.default.i
  %4 = load ptr, ptr %level_.i.i.i.i.i.i.i.i.i, align 8
  %add.ptr.i.i.i.i.i.i.i.i.i = getelementptr inbounds i8, ptr %4, i64 16
  %5 = load ptr, ptr %effectiveEnd_.i.i.i.i.i.i.i.i.i.i, align 8
  %cmp.i.i.i.i.i.i.i.i.i = icmp ugt ptr %add.ptr.i.i.i.i.i.i.i.i.i, %5
  br i1 %cmp.i.i.i.i.i.i.i.i.i, label %cond.true.i.i.i.i.i.i.i.i, label %cond.false.i.i.i.i.i.i.i.i

cond.true.i.i.i.i.i.i.i.i:                        ; preds = %if.end.i.i
  %call3.i.i.i.i.i.i.i.i = tail call noundef ptr @_ZN6hermes2vm7HadesGC9allocSlowEj(ptr noundef nonnull align 8 dereferenceable(8152) %heapStorage_.i.i.i.i.i, i32 noundef 16) #9
  br label %_ZN6hermes2vm11BoxedDouble6createEdRNS0_7RuntimeE.exit.i.i

cond.false.i.i.i.i.i.i.i.i:                       ; preds = %if.end.i.i
  store ptr %add.ptr.i.i.i.i.i.i.i.i.i, ptr %level_.i.i.i.i.i.i.i.i.i, align 8
  br label %_ZN6hermes2vm11BoxedDouble6createEdRNS0_7RuntimeE.exit.i.i

_ZN6hermes2vm11BoxedDouble6createEdRNS0_7RuntimeE.exit.i.i: ; preds = %cond.false.i.i.i.i.i.i.i.i, %cond.true.i.i.i.i.i.i.i.i
  %cond.i.i.i.i.i.i.i.i = phi ptr [ %call3.i.i.i.i.i.i.i.i, %cond.true.i.i.i.i.i.i.i.i ], [ %4, %cond.false.i.i.i.i.i.i.i.i ]
  %value_.i.i.i.i.i.i.i.i.i = getelementptr inbounds %"class.hermes::vm::BoxedDouble", ptr %cond.i.i.i.i.i.i.i.i, i64 0, i32 1
  store i64 %agg.tmp12.sroa.0.0.copyload, ptr %value_.i.i.i.i.i.i.i.i.i, align 8
  store i32 402653200, ptr %cond.i.i.i.i.i.i.i.i, align 4
  %6 = ptrtoint ptr %cond.i.i.i.i.i.i.i.i to i64
  %sub.i.i.i.i.i13.i = sub i64 %6, %1
  %conv.i.i.i.i.i14.i = trunc i64 %sub.i.i.i.i.i13.i to i32
  %or.i.i.i15.i = or i32 %conv.i.i.i.i.i14.i, 3
  br label %_ZN6hermes2vm13HermesValue3217encodeHermesValueENS0_11HermesValueERNS0_7RuntimeE.exit

_ZN6hermes2vm13HermesValue3217encodeHermesValueENS0_11HermesValueERNS0_7RuntimeE.exit: ; preds = %for.body, %sw.bb3.i, %sw.bb6.i, %sw.bb9.i, %sw.bb13.i, %sw.bb19.i, %sw.bb23.i, %sw.bb27.i, %if.then.i.i, %_ZN6hermes2vm11BoxedDouble6createEdRNS0_7RuntimeE.exit.i.i
  %retval.sroa.0.0.i = phi i32 [ %conv.i.i.i.i.i11.i, %sw.bb27.i ], [ %or.i.i.i8.i, %sw.bb23.i ], [ %or.i.i.i.i, %sw.bb19.i ], [ %or.i.i4.i, %sw.bb13.i ], [ %or.i.i.i, %sw.bb9.i ], [ 15, %sw.bb6.i ], [ 14, %sw.bb3.i ], [ 7, %for.body ], [ %or.i.i16.i, %if.then.i.i ], [ %or.i.i.i15.i, %_ZN6hermes2vm11BoxedDouble6createEdRNS0_7RuntimeE.exit.i.i ]
  %retval.sroa.0.0.copyload.i.i.i = load i64, ptr %call6, align 8
  %and.i.i.i.i.i = and i64 %retval.sroa.0.0.copyload.i.i.i, 281474976710655
  %7 = inttoptr i64 %and.i.i.i.i.i to ptr
  %indexedStorage_.i.i = getelementptr inbounds %"class.hermes::vm::ArrayImpl", ptr %7, i64 0, i32 3
  %agg.tmp.sroa.0.0.copyload.i.i.i.i = load i32, ptr %indexedStorage_.i.i, align 4
  %cmp.i.not.i.i.i.i.i.i = icmp eq i32 %agg.tmp.sroa.0.0.copyload.i.i.i.i, 0
  %conv.i.i.i.i.i.i.i = zext i32 %agg.tmp.sroa.0.0.copyload.i.i.i.i to i64
  %add.i.i.i.i.i.i.i = add i64 %conv.i.i.i.i.i.i.i, %1
  %8 = inttoptr i64 %add.i.i.i.i.i.i.i to ptr
  %cond.i.i.i.i.i.i = select i1 %cmp.i.not.i.i.i.i.i.i, ptr null, ptr %8
  %beginIndex_.i = getelementptr inbounds %"class.hermes::vm::ArrayImpl", ptr %7, i64 0, i32 1
  %9 = load i32, ptr %beginIndex_.i, align 4
  %sub.i = sub i32 %argIndex.012, %9
  %cmp.i.i.i.i = icmp ult i32 %sub.i, 4096
  br i1 %cmp.i.i.i.i, label %if.then.i.i.i.i, label %if.else.i.i.i.i

if.then.i.i.i.i:                                  ; preds = %_ZN6hermes2vm13HermesValue3217encodeHermesValueENS0_11HermesValueERNS0_7RuntimeE.exit
  %add.ptr.i.i.i.i.i.i.i = getelementptr inbounds %"class.hermes::vm::SegmentedArrayBase", ptr %cond.i.i.i.i.i.i, i64 1
  %idxprom.i.i.i.i = zext nneg i32 %sub.i to i64
  %arrayidx.i.i.i.i = getelementptr inbounds %"class.hermes::vm::GCHermesValueBase", ptr %add.ptr.i.i.i.i.i.i.i, i64 %idxprom.i.i.i.i
  br label %_ZN6hermes2vm18SegmentedArrayBaseINS0_13HermesValue32EE5atRefILNS3_6InlineE0EEERNS0_17GCHermesValueBaseIS2_EERNS0_11PointerBaseEj.exit.i.i

if.else.i.i.i.i:                                  ; preds = %_ZN6hermes2vm13HermesValue3217encodeHermesValueENS0_11HermesValueERNS0_7RuntimeE.exit
  %sub.i.i.i.i.i = add i32 %sub.i, -4096
  %div1.i.i.i.i.i = lshr i32 %sub.i.i.i.i.i, 10
  %add.ptr.i.i.i.i.i.i.i.i = getelementptr inbounds %"class.hermes::vm::SegmentedArrayBase", ptr %cond.i.i.i.i.i.i, i64 2049
  %idx.ext.i.i.i.i.i.i.i = zext nneg i32 %div1.i.i.i.i.i to i64
  %add.ptr.i.i.i1.i.i.i.i = getelementptr inbounds %"class.hermes::vm::GCHermesValueBase", ptr %add.ptr.i.i.i.i.i.i.i.i, i64 %idx.ext.i.i.i.i.i.i.i
  %10 = load i32, ptr %add.ptr.i.i.i1.i.i.i.i, align 4
  %cmp.i.not.i.i.i.i.i.i.i.i.i.i = icmp eq i32 %10, 0
  %conv.i.i.i.i.i.i.i.i.i.i.i = zext i32 %10 to i64
  %add.i.i.i.i.i.i.i.i.i.i.i = add i64 %conv.i.i.i.i.i.i.i.i.i.i.i, %1
  %11 = inttoptr i64 %add.i.i.i.i.i.i.i.i.i.i.i to ptr
  %cond.i.i.i.i.i.i.i.i.i.i = select i1 %cmp.i.not.i.i.i.i.i.i.i.i.i.i, ptr null, ptr %11
  %rem.i.i.i.i.i = and i32 %sub.i, 1023
  %idxprom.i.i.i.i.i = zext nneg i32 %rem.i.i.i.i.i to i64
  %arrayidx.i.i.i.i.i = getelementptr inbounds %"class.hermes::vm::SegmentedArrayBase<hermes::vm::HermesValue32>::Segment", ptr %cond.i.i.i.i.i.i.i.i.i.i, i64 0, i32 2, i64 %idxprom.i.i.i.i.i
  br label %_ZN6hermes2vm18SegmentedArrayBaseINS0_13HermesValue32EE5atRefILNS3_6InlineE0EEERNS0_17GCHermesValueBaseIS2_EERNS0_11PointerBaseEj.exit.i.i

_ZN6hermes2vm18SegmentedArrayBaseINS0_13HermesValue32EE5atRefILNS3_6InlineE0EEERNS0_17GCHermesValueBaseIS2_EERNS0_11PointerBaseEj.exit.i.i: ; preds = %if.else.i.i.i.i, %if.then.i.i.i.i
  %retval.0.i.i.i.i = phi ptr [ %arrayidx.i.i.i.i, %if.then.i.i.i.i ], [ %arrayidx.i.i.i.i.i, %if.else.i.i.i.i ]
  %12 = load ptr, ptr %youngGen_.i.i.i.i.i, align 8
  %13 = ptrtoint ptr %retval.0.i.i.i.i to i64
  %and.i.i.i.i.i.i = and i64 %13, -4194304
  %14 = inttoptr i64 %and.i.i.i.i.i.i to ptr
  %cmp.i.i.i.i.i = icmp eq ptr %12, %14
  br i1 %cmp.i.i.i.i.i, label %_ZN6hermes2vm9ArrayImpl26unsafeSetExistingElementAtEPS1_RNS0_7RuntimeEjNS0_13HermesValue32E.exit, label %if.then.i.i2.i.i

if.then.i.i2.i.i:                                 ; preds = %_ZN6hermes2vm18SegmentedArrayBaseINS0_13HermesValue32EE5atRefILNS3_6InlineE0EEERNS0_17GCHermesValueBaseIS2_EERNS0_11PointerBaseEj.exit.i.i
  tail call void @_ZN6hermes2vm7HadesGC16writeBarrierSlowEPKNS0_17GCHermesValueBaseINS0_13HermesValue32EEES3_(ptr noundef nonnull align 8 dereferenceable(8152) %heapStorage_.i.i.i.i.i, ptr noundef nonnull %retval.0.i.i.i.i, i32 %retval.sroa.0.0.i) #9
  br label %_ZN6hermes2vm9ArrayImpl26unsafeSetExistingElementAtEPS1_RNS0_7RuntimeEjNS0_13HermesValue32E.exit

_ZN6hermes2vm9ArrayImpl26unsafeSetExistingElementAtEPS1_RNS0_7RuntimeEjNS0_13HermesValue32E.exit: ; preds = %_ZN6hermes2vm18SegmentedArrayBaseINS0_13HermesValue32EE5atRefILNS3_6InlineE0EEERNS0_17GCHermesValueBaseIS2_EERNS0_11PointerBaseEj.exit.i.i, %if.then.i.i2.i.i
  store i32 %retval.sroa.0.0.i, ptr %retval.0.i.i.i.i, align 4
  %inc = add nuw i32 %argIndex.012, 1
  %exitcond.not = icmp eq i32 %inc, %conv.i.i
  br i1 %exitcond.not, label %return, label %for.body, !llvm.loop !4

return:                                           ; preds = %_ZN6hermes2vm9ArrayImpl26unsafeSetExistingElementAtEPS1_RNS0_7RuntimeEjNS0_13HermesValue32E.exit, %entry
  ret ptr %call6
}

declare ptr @_ZN6hermes2vm9Arguments6createERNS0_7RuntimeEjNS0_6HandleINS0_8CallableEEEb(ptr noundef nonnull align 8 dereferenceable(9832), i32 noundef, ptr, i1 noundef zeroext) local_unnamed_addr #1

; Function Attrs: mustprogress nounwind uwtable
define hidden { i32, i64 } @_ZN6hermes2vm11Interpreter33getArgumentsPropByValSlowPath_RJSERNS0_7RuntimeEPNS0_17PinnedHermesValueES5_NS0_6HandleINS0_8CallableEEEb(ptr noundef nonnull align 8 dereferenceable(9832) %runtime, ptr noundef %lazyReg, ptr noundef %valueReg, ptr %curFunction.coerce, i1 noundef zeroext %strictMode) local_unnamed_addr #0 align 2 {
entry:
  %inObject = alloca %"class.hermes::vm::MutableHandle", align 8
  %inNameTmpStorage = alloca %"class.hermes::vm::MutableHandle.194", align 8
  %desc = alloca %"struct.hermes::vm::ComputedPropertyDescriptor", align 8
  %currentFrame_.i = getelementptr inbounds %"class.hermes::vm::Runtime", ptr %runtime, i64 0, i32 131
  %retval.sroa.0.0.copyload.i = load ptr, ptr %currentFrame_.i, align 8
  %0 = load i64, ptr %lazyReg, align 8
  %shr.i.mask.i = and i64 %0, -140737488355328
  %cmp.i = icmp eq i64 %shr.i.mask.i, -1688849860263936
  br i1 %cmp.i, label %if.end, label %if.then

if.then:                                          ; preds = %entry
  %call.i = tail call { i32, i64 } @_ZN6hermes2vm8JSObject27getComputedWithReceiver_RJSENS0_6HandleIS1_EERNS0_7RuntimeENS2_INS0_11HermesValueEEES7_(ptr nonnull %lazyReg, ptr noundef nonnull align 8 dereferenceable(9832) %runtime, ptr %valueReg, ptr nonnull %lazyReg) #9
  %1 = extractvalue { i32, i64 } %call.i, 0
  %2 = extractvalue { i32, i64 } %call.i, 1
  br label %return

if.end:                                           ; preds = %entry
  %3 = load i64, ptr %valueReg, align 8
  %shr.i.mask.i20 = and i64 %3, -140737488355328
  %cmp.i21 = icmp eq i64 %shr.i.mask.i20, -1266637395197952
  br i1 %cmp.i21, label %if.end100, label %if.then14

if.then14:                                        ; preds = %if.end
  %call18 = tail call ptr @_ZN6hermes2vm12toString_RJSERNS0_7RuntimeENS0_6HandleINS0_11HermesValueEEE(ptr noundef nonnull align 8 dereferenceable(9832) %runtime, ptr nonnull %valueReg) #9
  %cmp.i.i.not = icmp eq ptr %call18, inttoptr (i64 -1 to ptr)
  br i1 %cmp.i.i.not, label %return, label %if.end23

if.end23:                                         ; preds = %if.then14
  %4 = ptrtoint ptr %call18 to i64
  %or.i.i.i.i.i = or i64 %4, -844424930131968
  %topGCScope_.i.i.i.i = getelementptr inbounds %"class.hermes::vm::HandleRootOwner", ptr %runtime, i64 0, i32 1
  %5 = load ptr, ptr %topGCScope_.i.i.i.i, align 8
  %next_.i.i.i.i.i.i.i = getelementptr inbounds %"class.hermes::vm::GCScope", ptr %5, i64 0, i32 4
  %6 = load ptr, ptr %next_.i.i.i.i.i.i.i, align 8
  %curChunkEnd_.i.i.i.i.i.i = getelementptr inbounds %"class.hermes::vm::GCScope", ptr %5, i64 0, i32 5
  %7 = load ptr, ptr %curChunkEnd_.i.i.i.i.i.i, align 8
  %cmp.i.i.i.i.i.i = icmp ult ptr %6, %7
  br i1 %cmp.i.i.i.i.i.i, label %if.then.i.i.i.i.i.i, label %if.end.i.i.i.i.i.i

if.then.i.i.i.i.i.i:                              ; preds = %if.end23
  %incdec.ptr.i.i.i.i.i.i = getelementptr inbounds %"class.hermes::vm::PinnedHermesValue", ptr %6, i64 1
  store ptr %incdec.ptr.i.i.i.i.i.i, ptr %next_.i.i.i.i.i.i.i, align 8
  store i64 %or.i.i.i.i.i, ptr %6, align 8
  br label %_ZN6hermes2vm15HandleRootOwner10makeHandleINS0_15StringPrimitiveEEENS0_6HandleIT_EEONS0_12PseudoHandleIS5_EE.exit

if.end.i.i.i.i.i.i:                               ; preds = %if.end23
  %call7.i.i.i.i.i.i = tail call noundef ptr @_ZN6hermes2vm7GCScope15_newChunkAndPHVENS0_11HermesValueE(ptr noundef nonnull align 8 dereferenceable(212) %5, i64 %or.i.i.i.i.i) #9
  br label %_ZN6hermes2vm15HandleRootOwner10makeHandleINS0_15StringPrimitiveEEENS0_6HandleIT_EEONS0_12PseudoHandleIS5_EE.exit

_ZN6hermes2vm15HandleRootOwner10makeHandleINS0_15StringPrimitiveEEENS0_6HandleIT_EEONS0_12PseudoHandleIS5_EE.exit: ; preds = %if.then.i.i.i.i.i.i, %if.end.i.i.i.i.i.i
  %retval.0.i.i.i.i.i.i = phi ptr [ %6, %if.then.i.i.i.i.i.i ], [ %call7.i.i.i.i.i.i, %if.end.i.i.i.i.i.i ]
  %call31 = tail call i64 @_ZN6hermes2vm12toArrayIndexERNS0_7RuntimeENS0_6HandleINS0_15StringPrimitiveEEE(ptr noundef nonnull align 8 dereferenceable(9832) %runtime, ptr %retval.0.i.i.i.i.i.i) #9
  %8 = and i64 %call31, 4294967296
  %tobool.i.not = icmp eq i64 %8, 0
  br i1 %tobool.i.not, label %if.end82, label %if.then33

if.then33:                                        ; preds = %_ZN6hermes2vm15HandleRootOwner10makeHandleINS0_15StringPrimitiveEEENS0_6HandleIT_EEONS0_12PseudoHandleIS5_EE.exit
  %index.sroa.0.0.extract.trunc = trunc i64 %call31 to i32
  %arrayidx.i.i = getelementptr inbounds %"class.hermes::vm::PinnedHermesValue", ptr %retval.sroa.0.0.copyload.i, i64 -4
  %9 = load i64, ptr %arrayidx.i.i, align 8
  %conv.i.i = trunc i64 %9 to i32
  %cmp = icmp ult i32 %index.sroa.0.0.extract.trunc, %conv.i.i
  br i1 %cmp, label %if.then36, label %if.end44

if.then36:                                        ; preds = %if.then33
  %arrayidx.i.i.i = getelementptr inbounds %"class.hermes::vm::PinnedHermesValue", ptr %retval.sroa.0.0.copyload.i, i64 -7
  %sext = shl i64 %call31, 32
  %conv.i = ashr exact i64 %sext, 32
  %idx.neg.i.i.i = sub nsw i64 0, %conv.i
  %add.ptr.i.i.i = getelementptr inbounds %"class.hermes::vm::PinnedHermesValue", ptr %arrayidx.i.i.i, i64 %idx.neg.i.i.i
  %incdec.ptr.i.i.i = getelementptr inbounds %"class.hermes::vm::PinnedHermesValue", ptr %add.ptr.i.i.i, i64 -1
  %agg.tmp37.sroa.0.0.copyload = load i64, ptr %incdec.ptr.i.i.i, align 8
  br label %return

if.end44:                                         ; preds = %if.then33
  %objectPrototype45 = getelementptr inbounds %"class.hermes::vm::Runtime", ptr %runtime, i64 0, i32 2
  %10 = load ptr, ptr %topGCScope_.i.i.i.i, align 8
  %next_.i.i.i.i.i.i.i25 = getelementptr inbounds %"class.hermes::vm::GCScope", ptr %10, i64 0, i32 4
  %11 = load ptr, ptr %next_.i.i.i.i.i.i.i25, align 8
  %curChunkEnd_.i.i.i.i.i.i26 = getelementptr inbounds %"class.hermes::vm::GCScope", ptr %10, i64 0, i32 5
  %12 = load ptr, ptr %curChunkEnd_.i.i.i.i.i.i26, align 8
  %cmp.i.i.i.i.i.i27 = icmp ult ptr %11, %12
  br i1 %cmp.i.i.i.i.i.i27, label %if.then.i.i.i.i.i.i31, label %if.end.i.i.i.i.i.i28

if.then.i.i.i.i.i.i31:                            ; preds = %if.end44
  %incdec.ptr.i.i.i.i.i.i32 = getelementptr inbounds %"class.hermes::vm::PinnedHermesValue", ptr %11, i64 1
  store ptr %incdec.ptr.i.i.i.i.i.i32, ptr %next_.i.i.i.i.i.i.i25, align 8
  store i64 -281474976710656, ptr %11, align 8
  br label %_ZN6hermes2vm13MutableHandleINS0_8JSObjectEEC2ERNS0_15HandleRootOwnerEPS2_.exit

if.end.i.i.i.i.i.i28:                             ; preds = %if.end44
  %call7.i.i.i.i.i.i29 = tail call noundef ptr @_ZN6hermes2vm7GCScope15_newChunkAndPHVENS0_11HermesValueE(ptr noundef nonnull align 8 dereferenceable(212) %10, i64 -281474976710656) #9
  br label %_ZN6hermes2vm13MutableHandleINS0_8JSObjectEEC2ERNS0_15HandleRootOwnerEPS2_.exit

_ZN6hermes2vm13MutableHandleINS0_8JSObjectEEC2ERNS0_15HandleRootOwnerEPS2_.exit: ; preds = %if.then.i.i.i.i.i.i31, %if.end.i.i.i.i.i.i28
  %retval.0.i.i.i.i.i.i30 = phi ptr [ %11, %if.then.i.i.i.i.i.i31 ], [ %call7.i.i.i.i.i.i29, %if.end.i.i.i.i.i.i28 ]
  store ptr %retval.0.i.i.i.i.i.i30, ptr %inObject, align 8
  %13 = load ptr, ptr %topGCScope_.i.i.i.i, align 8
  %next_.i.i.i.i.i.i.i34 = getelementptr inbounds %"class.hermes::vm::GCScope", ptr %13, i64 0, i32 4
  %14 = load ptr, ptr %next_.i.i.i.i.i.i.i34, align 8
  %curChunkEnd_.i.i.i.i.i.i35 = getelementptr inbounds %"class.hermes::vm::GCScope", ptr %13, i64 0, i32 5
  %15 = load ptr, ptr %curChunkEnd_.i.i.i.i.i.i35, align 8
  %cmp.i.i.i.i.i.i36 = icmp ult ptr %14, %15
  br i1 %cmp.i.i.i.i.i.i36, label %if.then.i.i.i.i.i.i40, label %if.end.i.i.i.i.i.i37

if.then.i.i.i.i.i.i40:                            ; preds = %_ZN6hermes2vm13MutableHandleINS0_8JSObjectEEC2ERNS0_15HandleRootOwnerEPS2_.exit
  %incdec.ptr.i.i.i.i.i.i41 = getelementptr inbounds %"class.hermes::vm::PinnedHermesValue", ptr %14, i64 1
  store ptr %incdec.ptr.i.i.i.i.i.i41, ptr %next_.i.i.i.i.i.i.i34, align 8
  store i64 -1266636858327041, ptr %14, align 8
  br label %_ZN6hermes2vm13MutableHandleINS0_8SymbolIDEEC2ERNS0_15HandleRootOwnerES2_.exit

if.end.i.i.i.i.i.i37:                             ; preds = %_ZN6hermes2vm13MutableHandleINS0_8JSObjectEEC2ERNS0_15HandleRootOwnerEPS2_.exit
  %call7.i.i.i.i.i.i38 = tail call noundef ptr @_ZN6hermes2vm7GCScope15_newChunkAndPHVENS0_11HermesValueE(ptr noundef nonnull align 8 dereferenceable(212) %13, i64 -1266636858327041) #9
  br label %_ZN6hermes2vm13MutableHandleINS0_8SymbolIDEEC2ERNS0_15HandleRootOwnerES2_.exit

_ZN6hermes2vm13MutableHandleINS0_8SymbolIDEEC2ERNS0_15HandleRootOwnerES2_.exit: ; preds = %if.then.i.i.i.i.i.i40, %if.end.i.i.i.i.i.i37
  %retval.0.i.i.i.i.i.i39 = phi ptr [ %14, %if.then.i.i.i.i.i.i40 ], [ %call7.i.i.i.i.i.i38, %if.end.i.i.i.i.i.i37 ]
  store ptr %retval.0.i.i.i.i.i.i39, ptr %inNameTmpStorage, align 8
  store i32 0, ptr %desc, align 8
  %slot.i.i = getelementptr inbounds %"struct.hermes::vm::PropertyDescriptor", ptr %desc, i64 0, i32 1
  store i32 -1, ptr %slot.i.i, align 4
  %call60 = call noundef i32 @_ZN6hermes2vm8JSObject30getComputedPrimitiveDescriptorENS0_6HandleIS1_EERNS0_7RuntimeENS2_INS0_11HermesValueEEERNS0_13MutableHandleIS1_EERNS8_INS0_8SymbolIDEEERNS0_26ComputedPropertyDescriptorE(ptr nonnull %objectPrototype45, ptr noundef nonnull align 8 dereferenceable(9832) %runtime, ptr %retval.0.i.i.i.i.i.i, ptr noundef nonnull align 8 dereferenceable(8) %inObject, ptr noundef nonnull align 8 dereferenceable(8) %inNameTmpStorage, ptr noundef nonnull align 4 dereferenceable(8) %desc) #9
  %16 = load ptr, ptr %inObject, align 8
  %17 = load i64, ptr %16, align 8
  %cmp.i.i42 = icmp ugt i64 %17, -844424930131969
  %and.i.i = and i64 %17, 281474976710655
  %tobool.i43 = icmp ne i64 %and.i.i, 0
  %18 = and i1 %cmp.i.i42, %tobool.i43
  br i1 %18, label %if.end71, label %return

if.end71:                                         ; preds = %_ZN6hermes2vm13MutableHandleINS0_8SymbolIDEEC2ERNS0_15HandleRootOwnerES2_.exit
  %bf.load = load i16, ptr %desc, align 8
  %19 = and i16 %bf.load, 16
  %tobool.not = icmp eq i16 %19, 0
  br i1 %tobool.not, label %if.then72, label %if.end82

if.then72:                                        ; preds = %if.end71
  %20 = inttoptr i64 %and.i.i to ptr
  %agg.tmp77.sroa.0.0.copyload = load i64, ptr %desc, align 8
  %call80 = call { i32, i64 } @_ZN6hermes2vm8JSObject20getComputedSlotValueENS0_12PseudoHandleIS1_EERNS0_7RuntimeERNS0_13MutableHandleINS0_8SymbolIDEEENS0_26ComputedPropertyDescriptorE(ptr nonnull %20, ptr noundef nonnull align 8 dereferenceable(9832) %runtime, ptr noundef nonnull align 8 dereferenceable(8) %inNameTmpStorage, i64 %agg.tmp77.sroa.0.0.copyload)
  %21 = extractvalue { i32, i64 } %call80, 0
  %22 = extractvalue { i32, i64 } %call80, 1
  br label %return

if.end82:                                         ; preds = %if.end71, %_ZN6hermes2vm15HandleRootOwner10makeHandleINS0_15StringPrimitiveEEENS0_6HandleIT_EEONS0_12PseudoHandleIS5_EE.exit
  %retval.sroa.0.0.copyload.i.i.i = load i64, ptr %retval.0.i.i.i.i.i.i, align 8
  %and.i.i.i.i.i = and i64 %retval.sroa.0.0.copyload.i.i.i, 281474976710655
  %23 = inttoptr i64 %and.i.i.i.i.i to ptr
  %call88 = call noundef zeroext i1 @_ZN6hermes2vm7Runtime24symbolEqualsToStringPrimENS0_8SymbolIDEPNS0_15StringPrimitiveE(ptr noundef nonnull align 8 dereferenceable(9832) %runtime, i32 82, ptr noundef %23) #9
  br i1 %call88, label %if.then89, label %if.end100

if.then89:                                        ; preds = %if.end82
  %arrayidx.i.i45 = getelementptr inbounds %"class.hermes::vm::PinnedHermesValue", ptr %retval.sroa.0.0.copyload.i, i64 -4
  %24 = load i64, ptr %arrayidx.i.i45, align 8
  %conv.i.i46 = trunc i64 %24 to i32
  %conv.i47 = uitofp i32 %conv.i.i46 to double
  %25 = bitcast double %conv.i47 to i64
  br label %return

if.end100:                                        ; preds = %if.end82, %if.end
  %call105 = call ptr @_ZN6hermes2vm11Interpreter22reifyArgumentsSlowPathERNS0_7RuntimeENS0_6HandleINS0_8CallableEEEb(ptr noundef nonnull align 8 dereferenceable(9832) %runtime, ptr %curFunction.coerce, i1 noundef zeroext %strictMode)
  %cmp.i.i49.not = icmp eq ptr %call105, inttoptr (i64 -1 to ptr)
  br i1 %cmp.i.i49.not, label %return, label %if.end111

if.end111:                                        ; preds = %if.end100
  %retval.sroa.0.0.copyload.i53 = load i64, ptr %call105, align 8
  store i64 %retval.sroa.0.0.copyload.i53, ptr %lazyReg, align 8
  %call121 = call { i32, i64 } @_ZN6hermes2vm11Interpreter33getArgumentsPropByValSlowPath_RJSERNS0_7RuntimeEPNS0_17PinnedHermesValueES5_NS0_6HandleINS0_8CallableEEEb(ptr noundef nonnull align 8 dereferenceable(9832) %runtime, ptr noundef nonnull %lazyReg, ptr noundef nonnull %valueReg, ptr %curFunction.coerce, i1 noundef zeroext %strictMode)
  %26 = extractvalue { i32, i64 } %call121, 0
  %27 = extractvalue { i32, i64 } %call121, 1
  br label %return

return:                                           ; preds = %if.end100, %_ZN6hermes2vm13MutableHandleINS0_8SymbolIDEEC2ERNS0_15HandleRootOwnerES2_.exit, %if.then14, %if.end111, %if.then89, %if.then72, %if.then36, %if.then
  %retval.sroa.0.0 = phi i32 [ %26, %if.end111 ], [ 1, %if.then36 ], [ %21, %if.then72 ], [ 1, %if.then89 ], [ %1, %if.then ], [ 0, %if.then14 ], [ 1, %_ZN6hermes2vm13MutableHandleINS0_8SymbolIDEEC2ERNS0_15HandleRootOwnerES2_.exit ], [ 0, %if.end100 ]
  %retval.sroa.9.0 = phi i64 [ %27, %if.end111 ], [ %agg.tmp37.sroa.0.0.copyload, %if.then36 ], [ %22, %if.then72 ], [ %25, %if.then89 ], [ %2, %if.then ], [ -1688849860263936, %if.then14 ], [ -1688849860263936, %_ZN6hermes2vm13MutableHandleINS0_8SymbolIDEEC2ERNS0_15HandleRootOwnerES2_.exit ], [ -1688849860263936, %if.end100 ]
  %.fca.0.insert = insertvalue { i32, i64 } poison, i32 %retval.sroa.0.0, 0
  %.fca.1.insert = insertvalue { i32, i64 } %.fca.0.insert, i64 %retval.sroa.9.0, 1
  ret { i32, i64 } %.fca.1.insert
}

declare ptr @_ZN6hermes2vm12toString_RJSERNS0_7RuntimeENS0_6HandleINS0_11HermesValueEEE(ptr noundef nonnull align 8 dereferenceable(9832), ptr) local_unnamed_addr #1

declare i64 @_ZN6hermes2vm12toArrayIndexERNS0_7RuntimeENS0_6HandleINS0_15StringPrimitiveEEE(ptr noundef nonnull align 8 dereferenceable(9832), ptr) local_unnamed_addr #1

declare noundef i32 @_ZN6hermes2vm8JSObject30getComputedPrimitiveDescriptorENS0_6HandleIS1_EERNS0_7RuntimeENS2_INS0_11HermesValueEEERNS0_13MutableHandleIS1_EERNS8_INS0_8SymbolIDEEERNS0_26ComputedPropertyDescriptorE(ptr, ptr noundef nonnull align 8 dereferenceable(9832), ptr, ptr noundef nonnull align 8 dereferenceable(8), ptr noundef nonnull align 8 dereferenceable(8), ptr noundef nonnull align 4 dereferenceable(8)) local_unnamed_addr #1

; Function Attrs: mustprogress nounwind uwtable
define linkonce_odr hidden { i32, i64 } @_ZN6hermes2vm8JSObject20getComputedSlotValueENS0_12PseudoHandleIS1_EERNS0_7RuntimeERNS0_13MutableHandleINS0_8SymbolIDEEENS0_26ComputedPropertyDescriptorE(ptr %self.coerce, ptr noundef nonnull align 8 dereferenceable(9832) %runtime, ptr noundef nonnull align 8 dereferenceable(8) %tmpSymbolStorage, i64 %desc.coerce) local_unnamed_addr #0 comdat align 2 {
entry:
  %desc.sroa.0.0.extract.trunc = trunc i64 %desc.coerce to i16
  %desc.sroa.320.0.extract.shift = lshr i64 %desc.coerce, 32
  %0 = and i16 %desc.sroa.0.0.extract.trunc, 32
  %tobool.not = icmp eq i16 %0, 0
  br i1 %tobool.not, label %if.end, label %if.then

if.then:                                          ; preds = %entry
  %desc.sroa.320.0.extract.trunc = trunc i64 %desc.sroa.320.0.extract.shift to i32
  %bf.load.i.i.i.i = load i32, ptr %self.coerce, align 4
  %bf.lshr.i.i.i.i = lshr i32 %bf.load.i.i.i.i, 24
  %conv.i.i.i.i = zext nneg i32 %bf.lshr.i.i.i.i to i64
  %arrayidx.i.i.i.i.i.i = getelementptr inbounds [79 x ptr], ptr @_ZN6hermes2vm6VTable11vtableArrayE, i64 0, i64 %conv.i.i.i.i
  %1 = load ptr, ptr %arrayidx.i.i.i.i.i.i, align 8
  %getOwnIndexed.i = getelementptr inbounds %"struct.hermes::vm::ObjectVTable", ptr %1, i64 0, i32 4
  %2 = load ptr, ptr %getOwnIndexed.i, align 8
  %call3.i = tail call i64 %2(ptr nonnull %self.coerce, ptr noundef nonnull align 8 dereferenceable(9832) %runtime, i32 noundef %desc.sroa.320.0.extract.trunc) #9
  br label %return

if.end:                                           ; preds = %entry
  %3 = and i16 %desc.sroa.0.0.extract.trunc, 1280
  %or.cond = icmp eq i16 %3, 0
  br i1 %or.cond, label %if.end40, label %if.then17

if.then17:                                        ; preds = %if.end
  %4 = ptrtoint ptr %self.coerce to i64
  %or.i.i.i.i.i = or i64 %4, -281474976710656
  %topGCScope_.i.i.i.i = getelementptr inbounds %"class.hermes::vm::HandleRootOwner", ptr %runtime, i64 0, i32 1
  %5 = load ptr, ptr %topGCScope_.i.i.i.i, align 8
  %next_.i.i.i.i.i.i.i = getelementptr inbounds %"class.hermes::vm::GCScope", ptr %5, i64 0, i32 4
  %6 = load ptr, ptr %next_.i.i.i.i.i.i.i, align 8
  %curChunkEnd_.i.i.i.i.i.i = getelementptr inbounds %"class.hermes::vm::GCScope", ptr %5, i64 0, i32 5
  %7 = load ptr, ptr %curChunkEnd_.i.i.i.i.i.i, align 8
  %cmp.i.i.i.i.i.i = icmp ult ptr %6, %7
  br i1 %cmp.i.i.i.i.i.i, label %if.then.i.i.i.i.i.i, label %if.end.i.i.i.i.i.i

if.then.i.i.i.i.i.i:                              ; preds = %if.then17
  %incdec.ptr.i.i.i.i.i.i = getelementptr inbounds %"class.hermes::vm::PinnedHermesValue", ptr %6, i64 1
  store ptr %incdec.ptr.i.i.i.i.i.i, ptr %next_.i.i.i.i.i.i.i, align 8
  store i64 %or.i.i.i.i.i, ptr %6, align 8
  br label %_ZN6hermes2vm15HandleRootOwner10makeHandleINS0_8JSObjectEEENS0_6HandleIT_EEONS0_12PseudoHandleIS5_EE.exit

if.end.i.i.i.i.i.i:                               ; preds = %if.then17
  %call7.i.i.i.i.i.i = tail call noundef ptr @_ZN6hermes2vm7GCScope15_newChunkAndPHVENS0_11HermesValueE(ptr noundef nonnull align 8 dereferenceable(212) %5, i64 %or.i.i.i.i.i) #9
  br label %_ZN6hermes2vm15HandleRootOwner10makeHandleINS0_8JSObjectEEENS0_6HandleIT_EEONS0_12PseudoHandleIS5_EE.exit

_ZN6hermes2vm15HandleRootOwner10makeHandleINS0_8JSObjectEEENS0_6HandleIT_EEONS0_12PseudoHandleIS5_EE.exit: ; preds = %if.then.i.i.i.i.i.i, %if.end.i.i.i.i.i.i
  %retval.0.i.i.i.i.i.i = phi ptr [ %6, %if.then.i.i.i.i.i.i ], [ %call7.i.i.i.i.i.i, %if.end.i.i.i.i.i.i ]
  %or.i.i = or disjoint i64 %desc.sroa.320.0.extract.shift, -1266637395197952
  %8 = load ptr, ptr %topGCScope_.i.i.i.i, align 8
  %next_.i.i.i.i.i.i.i7 = getelementptr inbounds %"class.hermes::vm::GCScope", ptr %8, i64 0, i32 4
  %9 = load ptr, ptr %next_.i.i.i.i.i.i.i7, align 8
  %curChunkEnd_.i.i.i.i.i.i8 = getelementptr inbounds %"class.hermes::vm::GCScope", ptr %8, i64 0, i32 5
  %10 = load ptr, ptr %curChunkEnd_.i.i.i.i.i.i8, align 8
  %cmp.i.i.i.i.i.i9 = icmp ult ptr %9, %10
  br i1 %cmp.i.i.i.i.i.i9, label %if.then.i.i.i.i.i.i13, label %if.end.i.i.i.i.i.i10

if.then.i.i.i.i.i.i13:                            ; preds = %_ZN6hermes2vm15HandleRootOwner10makeHandleINS0_8JSObjectEEENS0_6HandleIT_EEONS0_12PseudoHandleIS5_EE.exit
  %incdec.ptr.i.i.i.i.i.i14 = getelementptr inbounds %"class.hermes::vm::PinnedHermesValue", ptr %9, i64 1
  store ptr %incdec.ptr.i.i.i.i.i.i14, ptr %next_.i.i.i.i.i.i.i7, align 8
  store i64 %or.i.i, ptr %9, align 8
  br label %_ZN6hermes2vm15HandleRootOwner10makeHandleENS0_11HermesValueE.exit

if.end.i.i.i.i.i.i10:                             ; preds = %_ZN6hermes2vm15HandleRootOwner10makeHandleINS0_8JSObjectEEENS0_6HandleIT_EEONS0_12PseudoHandleIS5_EE.exit
  %call7.i.i.i.i.i.i11 = tail call noundef ptr @_ZN6hermes2vm7GCScope15_newChunkAndPHVENS0_11HermesValueE(ptr noundef nonnull align 8 dereferenceable(212) %8, i64 %or.i.i) #9
  br label %_ZN6hermes2vm15HandleRootOwner10makeHandleENS0_11HermesValueE.exit

_ZN6hermes2vm15HandleRootOwner10makeHandleENS0_11HermesValueE.exit: ; preds = %if.then.i.i.i.i.i.i13, %if.end.i.i.i.i.i.i10
  %retval.0.i.i.i.i.i.i12 = phi ptr [ %9, %if.then.i.i.i.i.i.i13 ], [ %call7.i.i.i.i.i.i11, %if.end.i.i.i.i.i.i10 ]
  %call.i = tail call { i32, i64 } @_ZN6hermes2vm8JSObject27getComputedWithReceiver_RJSENS0_6HandleIS1_EERNS0_7RuntimeENS2_INS0_11HermesValueEEES7_(ptr %retval.0.i.i.i.i.i.i, ptr noundef nonnull align 8 dereferenceable(9832) %runtime, ptr %retval.0.i.i.i.i.i.i12, ptr %retval.0.i.i.i.i.i.i) #9
  %11 = extractvalue { i32, i64 } %call.i, 0
  %12 = extractvalue { i32, i64 } %call.i, 1
  br label %return

if.end40:                                         ; preds = %if.end
  %desc.sroa.1.0.extract.trunc.i = trunc i64 %desc.sroa.320.0.extract.shift to i32
  %cmp.i.i = icmp ult i32 %desc.sroa.1.0.extract.trunc.i, 5
  br i1 %cmp.i.i, label %if.then.i.i, label %if.end.i.i

if.then.i.i:                                      ; preds = %if.end40
  %directProps_.i.i.i = getelementptr inbounds %"class.hermes::vm::JSObjectAndDirectProps", ptr %self.coerce, i64 0, i32 1
  br label %_ZN6hermes2vm8JSObject23getNamedSlotValueUnsafeEPS1_RNS0_11PointerBaseENS0_23NamedPropertyDescriptorE.exit

if.end.i.i:                                       ; preds = %if.end40
  %propStorage_.i.i = getelementptr inbounds %"class.hermes::vm::JSObject", ptr %self.coerce, i64 0, i32 4
  %agg.tmp.sroa.0.0.copyload.i.i.i.i = load i32, ptr %propStorage_.i.i, align 4
  %13 = ptrtoint ptr %runtime to i64
  %conv.i.i.i.i.i = zext i32 %agg.tmp.sroa.0.0.copyload.i.i.i.i to i64
  %add.i.i.i.i.i = add i64 %conv.i.i.i.i.i, %13
  %14 = inttoptr i64 %add.i.i.i.i.i to ptr
  %sub.i.i = add nuw nsw i64 %desc.sroa.320.0.extract.shift, 4294967291
  %add.ptr.i.i.i.i.i.i = getelementptr inbounds %"class.hermes::vm::ArrayStorageBase", ptr %14, i64 1
  %15 = and i64 %sub.i.i, 4294967295
  br label %_ZN6hermes2vm8JSObject23getNamedSlotValueUnsafeEPS1_RNS0_11PointerBaseENS0_23NamedPropertyDescriptorE.exit

_ZN6hermes2vm8JSObject23getNamedSlotValueUnsafeEPS1_RNS0_11PointerBaseENS0_23NamedPropertyDescriptorE.exit: ; preds = %if.then.i.i, %if.end.i.i
  %sub.sink.i.i = phi i64 [ %15, %if.end.i.i ], [ %desc.sroa.320.0.extract.shift, %if.then.i.i ]
  %add.ptr.i.i.i.i.sink.i.i = phi ptr [ %add.ptr.i.i.i.i.i.i, %if.end.i.i ], [ %directProps_.i.i.i, %if.then.i.i ]
  %arrayidx.i.i.i = getelementptr inbounds %"class.hermes::vm::GCHermesValueBase", ptr %add.ptr.i.i.i.i.sink.i.i, i64 %sub.sink.i.i
  %retval.sroa.0.0.i.i = load i32, ptr %arrayidx.i.i.i, align 4
  %16 = trunc i32 %retval.sroa.0.0.i.i to i8
  %conv.i.i = and i8 %16, 15
  switch i8 %conv.i.i, label %sw.default.i [
    i8 0, label %sw.bb.i
    i8 8, label %sw.bb.i
    i8 1, label %sw.bb4.i
    i8 9, label %sw.bb4.i
    i8 2, label %sw.bb8.i
    i8 10, label %sw.bb8.i
    i8 3, label %sw.bb12.i
    i8 11, label %sw.bb12.i
    i8 4, label %sw.bb18.i
    i8 12, label %sw.bb18.i
    i8 5, label %sw.bb22.i
    i8 13, label %sw.bb22.i
    i8 6, label %sw.bb29.i
    i8 14, label %return
    i8 7, label %sw.bb36.i
    i8 15, label %sw.bb39.i
  ]

sw.bb.i:                                          ; preds = %_ZN6hermes2vm8JSObject23getNamedSlotValueUnsafeEPS1_RNS0_11PointerBaseENS0_23NamedPropertyDescriptorE.exit, %_ZN6hermes2vm8JSObject23getNamedSlotValueUnsafeEPS1_RNS0_11PointerBaseENS0_23NamedPropertyDescriptorE.exit
  %cmp.i.not.i.i.i.i.i = icmp eq i32 %retval.sroa.0.0.i.i, 0
  %17 = ptrtoint ptr %runtime to i64
  %conv.i.i.i.i.i.i = zext i32 %retval.sroa.0.0.i.i to i64
  %add.i.i.i.i.i.i = add i64 %conv.i.i.i.i.i.i, %17
  %18 = or i64 %add.i.i.i.i.i.i, -281474976710656
  %or.i.i.i.i = select i1 %cmp.i.not.i.i.i.i.i, i64 -281474976710656, i64 %18
  br label %return

sw.bb4.i:                                         ; preds = %_ZN6hermes2vm8JSObject23getNamedSlotValueUnsafeEPS1_RNS0_11PointerBaseENS0_23NamedPropertyDescriptorE.exit, %_ZN6hermes2vm8JSObject23getNamedSlotValueUnsafeEPS1_RNS0_11PointerBaseENS0_23NamedPropertyDescriptorE.exit
  %and.i.i.i.i = and i32 %retval.sroa.0.0.i.i, -8
  %19 = ptrtoint ptr %runtime to i64
  %conv.i.i.i.i.i17 = zext i32 %and.i.i.i.i to i64
  %add.i.i.i.i.i18 = add i64 %conv.i.i.i.i.i17, %19
  %or.i.i.i4.i = or i64 %add.i.i.i.i.i18, -562949953421312
  br label %return

sw.bb8.i:                                         ; preds = %_ZN6hermes2vm8JSObject23getNamedSlotValueUnsafeEPS1_RNS0_11PointerBaseENS0_23NamedPropertyDescriptorE.exit, %_ZN6hermes2vm8JSObject23getNamedSlotValueUnsafeEPS1_RNS0_11PointerBaseENS0_23NamedPropertyDescriptorE.exit
  %and.i.i.i5.i = and i32 %retval.sroa.0.0.i.i, -8
  %20 = ptrtoint ptr %runtime to i64
  %conv.i.i.i.i6.i = zext i32 %and.i.i.i5.i to i64
  %add.i.i.i.i7.i = add i64 %conv.i.i.i.i6.i, %20
  %or.i.i.i8.i = or i64 %add.i.i.i.i7.i, -844424930131968
  br label %return

sw.bb12.i:                                        ; preds = %_ZN6hermes2vm8JSObject23getNamedSlotValueUnsafeEPS1_RNS0_11PointerBaseENS0_23NamedPropertyDescriptorE.exit, %_ZN6hermes2vm8JSObject23getNamedSlotValueUnsafeEPS1_RNS0_11PointerBaseENS0_23NamedPropertyDescriptorE.exit
  %and.i.i.i = and i32 %retval.sroa.0.0.i.i, -8
  %21 = ptrtoint ptr %runtime to i64
  %conv.i.i.i.i15 = zext i32 %and.i.i.i to i64
  %add.i.i.i.i = add i64 %conv.i.i.i.i15, %21
  %22 = inttoptr i64 %add.i.i.i.i to ptr
  %value_.i.i = getelementptr inbounds %"class.hermes::vm::BoxedDouble", ptr %22, i64 0, i32 1
  %23 = load double, ptr %value_.i.i, align 8
  %24 = fcmp uno double %23, 0.000000e+00
  %25 = bitcast double %23 to i64
  %retval.sroa.0.0.i.i16 = select i1 %24, i64 9221120237041090560, i64 %25
  br label %return

sw.bb18.i:                                        ; preds = %_ZN6hermes2vm8JSObject23getNamedSlotValueUnsafeEPS1_RNS0_11PointerBaseENS0_23NamedPropertyDescriptorE.exit, %_ZN6hermes2vm8JSObject23getNamedSlotValueUnsafeEPS1_RNS0_11PointerBaseENS0_23NamedPropertyDescriptorE.exit
  %shr.i.i = ashr i32 %retval.sroa.0.0.i.i, 3
  %conv.i9.i = sitofp i32 %shr.i.i to double
  %26 = bitcast double %conv.i9.i to i64
  br label %return

sw.bb22.i:                                        ; preds = %_ZN6hermes2vm8JSObject23getNamedSlotValueUnsafeEPS1_RNS0_11PointerBaseENS0_23NamedPropertyDescriptorE.exit, %_ZN6hermes2vm8JSObject23getNamedSlotValueUnsafeEPS1_RNS0_11PointerBaseENS0_23NamedPropertyDescriptorE.exit
  %shr.i10.i = lshr i32 %retval.sroa.0.0.i.i, 3
  %conv.i11.i = zext nneg i32 %shr.i10.i to i64
  %or.i.i.i = or disjoint i64 %conv.i11.i, -1266637395197952
  br label %return

sw.bb29.i:                                        ; preds = %_ZN6hermes2vm8JSObject23getNamedSlotValueUnsafeEPS1_RNS0_11PointerBaseENS0_23NamedPropertyDescriptorE.exit
  %tobool.i = icmp ugt i32 %retval.sroa.0.0.i.i, 15
  %conv.i13.i = zext i1 %tobool.i to i64
  %or.i.i14.i = or disjoint i64 %conv.i13.i, -1407374883553280
  br label %return

sw.bb36.i:                                        ; preds = %_ZN6hermes2vm8JSObject23getNamedSlotValueUnsafeEPS1_RNS0_11PointerBaseENS0_23NamedPropertyDescriptorE.exit
  br label %return

sw.bb39.i:                                        ; preds = %_ZN6hermes2vm8JSObject23getNamedSlotValueUnsafeEPS1_RNS0_11PointerBaseENS0_23NamedPropertyDescriptorE.exit
  br label %return

sw.default.i:                                     ; preds = %_ZN6hermes2vm8JSObject23getNamedSlotValueUnsafeEPS1_RNS0_11PointerBaseENS0_23NamedPropertyDescriptorE.exit
  unreachable

return:                                           ; preds = %sw.bb39.i, %sw.bb36.i, %sw.bb29.i, %sw.bb22.i, %sw.bb18.i, %sw.bb12.i, %sw.bb8.i, %sw.bb4.i, %sw.bb.i, %_ZN6hermes2vm8JSObject23getNamedSlotValueUnsafeEPS1_RNS0_11PointerBaseENS0_23NamedPropertyDescriptorE.exit, %_ZN6hermes2vm15HandleRootOwner10makeHandleENS0_11HermesValueE.exit, %if.then
  %retval.sroa.0.0 = phi i32 [ %11, %_ZN6hermes2vm15HandleRootOwner10makeHandleENS0_11HermesValueE.exit ], [ 1, %if.then ], [ 1, %_ZN6hermes2vm8JSObject23getNamedSlotValueUnsafeEPS1_RNS0_11PointerBaseENS0_23NamedPropertyDescriptorE.exit ], [ 1, %sw.bb.i ], [ 1, %sw.bb4.i ], [ 1, %sw.bb8.i ], [ 1, %sw.bb12.i ], [ 1, %sw.bb18.i ], [ 1, %sw.bb22.i ], [ 1, %sw.bb29.i ], [ 1, %sw.bb36.i ], [ 1, %sw.bb39.i ]
  %retval.sroa.4.0 = phi i64 [ %12, %_ZN6hermes2vm15HandleRootOwner10makeHandleENS0_11HermesValueE.exit ], [ %call3.i, %if.then ], [ -1688849860263936, %_ZN6hermes2vm8JSObject23getNamedSlotValueUnsafeEPS1_RNS0_11PointerBaseENS0_23NamedPropertyDescriptorE.exit ], [ %or.i.i.i.i, %sw.bb.i ], [ %or.i.i.i4.i, %sw.bb4.i ], [ %or.i.i.i8.i, %sw.bb8.i ], [ %retval.sroa.0.0.i.i16, %sw.bb12.i ], [ %26, %sw.bb18.i ], [ %or.i.i.i, %sw.bb22.i ], [ %or.i.i14.i, %sw.bb29.i ], [ -1970324836974592, %sw.bb36.i ], [ -1548112371908608, %sw.bb39.i ]
  %.fca.0.insert = insertvalue { i32, i64 } poison, i32 %retval.sroa.0.0, 0
  %.fca.1.insert = insertvalue { i32, i64 } %.fca.0.insert, i64 %retval.sroa.4.0, 1
  ret { i32, i64 } %.fca.1.insert
}

declare noundef zeroext i1 @_ZN6hermes2vm7Runtime24symbolEqualsToStringPrimENS0_8SymbolIDEPNS0_15StringPrimitiveE(ptr noundef nonnull align 8 dereferenceable(9832), i32, ptr noundef) local_unnamed_addr #1

; Function Attrs: mustprogress nounwind uwtable
define hidden { i32, i64 } @_ZN6hermes2vm11Interpreter18handleCallSlowPathERNS0_7RuntimeEPNS0_17PinnedHermesValueE(ptr noundef nonnull align 8 dereferenceable(9832) %runtime, ptr noundef %callTarget) local_unnamed_addr #0 align 2 {
entry:
  %agg.tmp.sroa.0.0.copyload = load i64, ptr %callTarget, align 8
  %cmp.i.i = icmp ugt i64 %agg.tmp.sroa.0.0.copyload, -844424930131969
  br i1 %cmp.i.i, label %cond.true.i, label %if.else11

cond.true.i:                                      ; preds = %entry
  %and.i.i = and i64 %agg.tmp.sroa.0.0.copyload, 281474976710655
  %0 = inttoptr i64 %and.i.i to ptr
  %bf.load.i.i.i.i.i.i.i.i.i.i.i = load i32, ptr %0, align 4
  %1 = add i32 %bf.load.i.i.i.i.i.i.i.i.i.i.i, -1157627904
  %2 = icmp ult i32 %1, 67108864
  br i1 %2, label %if.then, label %cond.true.i10

if.then:                                          ; preds = %cond.true.i
  %call2 = tail call { i32, i64 } @_ZN6hermes2vm14NativeFunction11_nativeCallEPS1_RNS0_7RuntimeE(ptr noundef nonnull %0, ptr noundef nonnull align 8 dereferenceable(9832) %runtime)
  %3 = extractvalue { i32, i64 } %call2, 0
  %4 = extractvalue { i32, i64 } %call2, 1
  br label %return

cond.true.i10:                                    ; preds = %cond.true.i
  %bf.lshr.i.i.mask.i.i.i.i.i.i.i.i.i = and i32 %bf.load.i.i.i.i.i.i.i.i.i.i.i, -16777216
  %cmp.i.i.i.i.i.i.i.i.i = icmp eq i32 %bf.lshr.i.i.mask.i.i.i.i.i.i.i.i.i, 1140850688
  br i1 %cmp.i.i.i.i.i.i.i.i.i, label %if.then7, label %if.else11

if.then7:                                         ; preds = %cond.true.i10
  %currentIP_.i = getelementptr inbounds %"class.hermes::vm::Runtime", ptr %runtime, i64 0, i32 146
  %5 = load ptr, ptr %currentIP_.i, align 8
  %call10 = tail call { i32, i64 } @_ZN6hermes2vm13BoundFunction10_boundCallEPS1_PKNS_4inst4InstERNS0_7RuntimeE(ptr noundef nonnull %0, ptr noundef %5, ptr noundef nonnull align 8 dereferenceable(9832) %runtime) #9
  %6 = extractvalue { i32, i64 } %call10, 0
  %7 = extractvalue { i32, i64 } %call10, 1
  br label %return

if.else11:                                        ; preds = %cond.true.i10, %entry
  %call15 = tail call noundef i32 @_ZN6hermes2vm7Runtime25raiseTypeErrorForCallableENS0_6HandleINS0_11HermesValueEEE(ptr noundef nonnull align 8 dereferenceable(9832) %runtime, ptr nonnull %callTarget) #9
  br label %return

return:                                           ; preds = %if.else11, %if.then7, %if.then
  %retval.sroa.0.0 = phi i32 [ %call15, %if.else11 ], [ %6, %if.then7 ], [ %3, %if.then ]
  %retval.sroa.4.0 = phi i64 [ -1688849860263936, %if.else11 ], [ %7, %if.then7 ], [ %4, %if.then ]
  %.fca.0.insert = insertvalue { i32, i64 } poison, i32 %retval.sroa.0.0, 0
  %.fca.1.insert = insertvalue { i32, i64 } %.fca.0.insert, i64 %retval.sroa.4.0, 1
  ret { i32, i64 } %.fca.1.insert
}

; Function Attrs: mustprogress nounwind uwtable
define linkonce_odr hidden { i32, i64 } @_ZN6hermes2vm14NativeFunction11_nativeCallEPS1_RNS0_7RuntimeE(ptr noundef %self, ptr noundef nonnull align 8 dereferenceable(9832) %runtime) local_unnamed_addr #0 comdat align 2 {
entry:
  %agg.tmp14 = alloca %"class.hermes::vm::NativeArgs", align 8
  %nativeCallFrameDepth_.i = getelementptr inbounds %"class.hermes::vm::Runtime", ptr %runtime, i64 0, i32 132
  %0 = load i32, ptr %nativeCallFrameDepth_.i, align 8
  %inc.i = add i32 %0, 1
  store i32 %inc.i, ptr %nativeCallFrameDepth_.i, align 8
  %cmp.i.i = icmp ugt i32 %inc.i, 384
  br i1 %cmp.i.i, label %if.then, label %if.end

if.then:                                          ; preds = %entry
  %call1 = tail call noundef i32 @_ZN6hermes2vm7Runtime18raiseStackOverflowENS1_17StackOverflowKindE(ptr noundef nonnull align 8 dereferenceable(9832) %runtime, i32 noundef 1) #9
  br label %cleanup

if.end:                                           ; preds = %entry
  %stackPointer_.i = getelementptr inbounds %"class.hermes::vm::Runtime", ptr %runtime, i64 0, i32 129
  %1 = load ptr, ptr %stackPointer_.i, align 8
  %currentFrame_.i = getelementptr inbounds %"class.hermes::vm::Runtime", ptr %runtime, i64 0, i32 131
  store ptr %1, ptr %currentFrame_.i, align 8
  %currentIP_.i.i = getelementptr inbounds %"class.hermes::vm::Runtime", ptr %runtime, i64 0, i32 146
  %2 = load ptr, ptr %currentIP_.i.i, align 8
  %arrayidx.i.i = getelementptr inbounds %"class.hermes::vm::PinnedHermesValue", ptr %1, i64 -2
  store ptr %2, ptr %arrayidx.i.i, align 8
  %registerStackEnd_.i.i.i = getelementptr inbounds %"class.hermes::vm::Runtime", ptr %runtime, i64 0, i32 128
  %3 = load ptr, ptr %registerStackEnd_.i.i.i, align 8
  %4 = load ptr, ptr %stackPointer_.i, align 8
  %sub.ptr.lhs.cast.i.i.i = ptrtoint ptr %3 to i64
  %sub.ptr.rhs.cast.i.i.i = ptrtoint ptr %4 to i64
  %sub.ptr.sub.i.i.i = sub i64 %sub.ptr.lhs.cast.i.i.i, %sub.ptr.rhs.cast.i.i.i
  %5 = and i64 %sub.ptr.sub.i.i.i, 34359738360
  %cmp.i.i12 = icmp ugt i64 %5, 256
  br i1 %cmp.i.i12, label %if.end13, label %if.then7

if.then7:                                         ; preds = %if.end
  store ptr %1, ptr %stackPointer_.i, align 8
  %arrayidx.i.i.i.i = getelementptr inbounds %"class.hermes::vm::PinnedHermesValue", ptr %1, i64 -1
  %6 = load i64, ptr %arrayidx.i.i.i.i, align 8
  store i64 %6, ptr %currentFrame_.i, align 8
  %call12 = tail call noundef i32 @_ZN6hermes2vm7Runtime18raiseStackOverflowENS1_17StackOverflowKindE(ptr noundef nonnull align 8 dereferenceable(9832) %runtime, i32 noundef 0) #9
  br label %cleanup

if.end13:                                         ; preds = %if.end
  tail call void @_ZN6hermes2vm7Runtime10allocStackEjNS0_11HermesValueE(ptr noundef nonnull align 8 dereferenceable(9832) %runtime, i32 noundef 1, i64 -1688849860263936) #9
  %functionPtr_ = getelementptr inbounds %"class.hermes::vm::NativeFunction", ptr %self, i64 0, i32 2
  %7 = load ptr, ptr %functionPtr_, align 8
  %context_ = getelementptr inbounds %"class.hermes::vm::NativeFunction", ptr %self, i64 0, i32 1
  %8 = load ptr, ptr %context_, align 8
  tail call void @llvm.experimental.noalias.scope.decl(metadata !6)
  %arrayidx.i.i.i = getelementptr inbounds %"class.hermes::vm::PinnedHermesValue", ptr %1, i64 -7
  %arrayidx.i.i1.i = getelementptr inbounds %"class.hermes::vm::PinnedHermesValue", ptr %1, i64 -4
  %9 = load i64, ptr %arrayidx.i.i1.i, align 8, !noalias !6
  %conv.i.i.i = trunc i64 %9 to i32
  %arrayidx.i.i16 = getelementptr inbounds %"class.hermes::vm::PinnedHermesValue", ptr %1, i64 -5
  store ptr %arrayidx.i.i.i, ptr %agg.tmp14, align 8, !alias.scope !6
  %argCount_.i.i = getelementptr inbounds %"class.hermes::vm::NativeArgs", ptr %agg.tmp14, i64 0, i32 1
  store i32 %conv.i.i.i, ptr %argCount_.i.i, align 8, !alias.scope !6
  %newTarget_.i.i = getelementptr inbounds %"class.hermes::vm::NativeArgs", ptr %agg.tmp14, i64 0, i32 2
  store ptr %arrayidx.i.i16, ptr %newTarget_.i.i, align 8, !alias.scope !6
  %call15 = call { i32, i64 } %7(ptr noundef %8, ptr noundef nonnull align 8 dereferenceable(9832) %runtime, ptr noundef nonnull %agg.tmp14) #9
  %10 = extractvalue { i32, i64 } %call15, 0
  %11 = extractvalue { i32, i64 } %call15, 1
  store ptr %1, ptr %stackPointer_.i, align 8
  %arrayidx.i.i.i.i18 = getelementptr inbounds %"class.hermes::vm::PinnedHermesValue", ptr %1, i64 -1
  %12 = load i64, ptr %arrayidx.i.i.i.i18, align 8
  store i64 %12, ptr %currentFrame_.i, align 8
  %cmp.i = icmp ne i32 %10, 0
  %spec.select = zext i1 %cmp.i to i32
  %spec.select23 = select i1 %cmp.i, i64 %11, i64 -1688849860263936
  br label %cleanup

cleanup:                                          ; preds = %if.end13, %if.then7, %if.then
  %retval.sroa.0.0 = phi i32 [ %call1, %if.then ], [ %call12, %if.then7 ], [ %spec.select, %if.end13 ]
  %retval.sroa.5.0 = phi i64 [ -1688849860263936, %if.then ], [ -1688849860263936, %if.then7 ], [ %spec.select23, %if.end13 ]
  %13 = load i32, ptr %nativeCallFrameDepth_.i, align 8
  %dec.i = add i32 %13, -1
  store i32 %dec.i, ptr %nativeCallFrameDepth_.i, align 8
  %.fca.0.insert = insertvalue { i32, i64 } poison, i32 %retval.sroa.0.0, 0
  %.fca.1.insert = insertvalue { i32, i64 } %.fca.0.insert, i64 %retval.sroa.5.0, 1
  ret { i32, i64 } %.fca.1.insert
}

declare { i32, i64 } @_ZN6hermes2vm13BoundFunction10_boundCallEPS1_PKNS_4inst4InstERNS0_7RuntimeE(ptr noundef, ptr noundef, ptr noundef nonnull align 8 dereferenceable(9832)) local_unnamed_addr #1

declare noundef i32 @_ZN6hermes2vm7Runtime25raiseTypeErrorForCallableENS0_6HandleINS0_11HermesValueEEE(ptr noundef nonnull align 8 dereferenceable(9832), ptr) local_unnamed_addr #1

; Function Attrs: mustprogress nounwind uwtable
define hidden { i32, i64 } @_ZN6hermes2vm11Interpreter20getByIdTransient_RJSERNS0_7RuntimeENS0_6HandleINS0_11HermesValueEEENS0_8SymbolIDE(ptr noundef nonnull align 8 dereferenceable(9832) %runtime, ptr %base.coerce, i32 %id.coerce) local_unnamed_addr #0 align 2 {
entry:
  %0 = load i64, ptr %base.coerce, align 8
  %shr.i.mask.i.i = and i64 %0, -281474976710656
  %cmp.i.i = icmp eq i64 %shr.i.mask.i.i, -844424930131968
  %cmp.i1.i = icmp eq i32 %id.coerce, 82
  %or.cond.i = select i1 %cmp.i.i, i1 %cmp.i1.i, i1 false
  br i1 %or.cond.i, label %_ZN6hermes2vm11Interpreter30tryGetPrimitiveOwnPropertyByIdERNS0_7RuntimeENS0_6HandleINS0_11HermesValueEEENS0_8SymbolIDE.exit, label %if.end

_ZN6hermes2vm11Interpreter30tryGetPrimitiveOwnPropertyByIdERNS0_7RuntimeENS0_6HandleINS0_11HermesValueEEENS0_8SymbolIDE.exit: ; preds = %entry
  %and.i.i.i = and i64 %0, 281474976710655
  %1 = inttoptr i64 %and.i.i.i to ptr
  %lengthAndUniquedFlag_.i.i = getelementptr inbounds %"class.hermes::vm::StringPrimitive", ptr %1, i64 0, i32 1
  %2 = load i32, ptr %lengthAndUniquedFlag_.i.i, align 4
  %and.i.i = and i32 %2, 2147483647
  %conv.i.i = uitofp i32 %and.i.i to double
  %3 = bitcast double %conv.i.i to i64
  %shr.i.mask.i = and i64 %3, -140737488355328
  %cmp.i = icmp eq i64 %shr.i.mask.i, -1970324836974592
  br i1 %cmp.i, label %if.end, label %return

if.end:                                           ; preds = %entry, %_ZN6hermes2vm11Interpreter30tryGetPrimitiveOwnPropertyByIdERNS0_7RuntimeENS0_6HandleINS0_11HermesValueEEENS0_8SymbolIDE.exit
  %call14 = tail call ptr @_ZN6hermes2vm21getPrimitivePrototypeERNS0_7RuntimeENS0_6HandleINS0_11HermesValueEEE(ptr noundef nonnull align 8 dereferenceable(9832) %runtime, ptr nonnull %base.coerce) #9
  %cmp.i.i8.not = icmp eq ptr %call14, inttoptr (i64 -1 to ptr)
  br i1 %cmp.i.i8.not, label %_ZN4llvh9StringRefC2EPKc.exit, label %if.end27

_ZN4llvh9StringRefC2EPKc.exit:                    ; preds = %if.end
  %call26 = tail call noundef i32 @_ZN6hermes2vm35amendPropAccessErrorMsgWithPropNameERNS0_7RuntimeENS0_6HandleINS0_11HermesValueEEEN4llvh9StringRefENS0_8SymbolIDE(ptr noundef nonnull align 8 dereferenceable(9832) %runtime, ptr nonnull %base.coerce, ptr nonnull @.str, i64 4, i32 %id.coerce) #9
  br label %return

if.end27:                                         ; preds = %if.end
  %call39 = tail call { i32, i64 } @_ZN6hermes2vm8JSObject24getNamedWithReceiver_RJSENS0_6HandleIS1_EERNS0_7RuntimeENS0_8SymbolIDENS2_INS0_11HermesValueEEENS0_11PropOpFlagsEPNS0_18PropertyCacheEntryE(ptr %call14, ptr noundef nonnull align 8 dereferenceable(9832) %runtime, i32 %id.coerce, ptr nonnull %base.coerce, i32 0, ptr noundef null) #9
  %4 = extractvalue { i32, i64 } %call39, 0
  %5 = extractvalue { i32, i64 } %call39, 1
  br label %return

return:                                           ; preds = %_ZN6hermes2vm11Interpreter30tryGetPrimitiveOwnPropertyByIdERNS0_7RuntimeENS0_6HandleINS0_11HermesValueEEENS0_8SymbolIDE.exit, %if.end27, %_ZN4llvh9StringRefC2EPKc.exit
  %retval.sroa.0.0 = phi i32 [ %call26, %_ZN4llvh9StringRefC2EPKc.exit ], [ %4, %if.end27 ], [ 1, %_ZN6hermes2vm11Interpreter30tryGetPrimitiveOwnPropertyByIdERNS0_7RuntimeENS0_6HandleINS0_11HermesValueEEENS0_8SymbolIDE.exit ]
  %retval.sroa.4.0 = phi i64 [ -1688849860263936, %_ZN4llvh9StringRefC2EPKc.exit ], [ %5, %if.end27 ], [ %3, %_ZN6hermes2vm11Interpreter30tryGetPrimitiveOwnPropertyByIdERNS0_7RuntimeENS0_6HandleINS0_11HermesValueEEENS0_8SymbolIDE.exit ]
  %.fca.0.insert = insertvalue { i32, i64 } poison, i32 %retval.sroa.0.0, 0
  %.fca.1.insert = insertvalue { i32, i64 } %.fca.0.insert, i64 %retval.sroa.4.0, 1
  ret { i32, i64 } %.fca.1.insert
}

declare ptr @_ZN6hermes2vm21getPrimitivePrototypeERNS0_7RuntimeENS0_6HandleINS0_11HermesValueEEE(ptr noundef nonnull align 8 dereferenceable(9832), ptr) local_unnamed_addr #1

declare noundef i32 @_ZN6hermes2vm35amendPropAccessErrorMsgWithPropNameERNS0_7RuntimeENS0_6HandleINS0_11HermesValueEEEN4llvh9StringRefENS0_8SymbolIDE(ptr noundef nonnull align 8 dereferenceable(9832), ptr, ptr, i64, i32) local_unnamed_addr #1

declare { i32, i64 } @_ZN6hermes2vm8JSObject24getNamedWithReceiver_RJSENS0_6HandleIS1_EERNS0_7RuntimeENS0_8SymbolIDENS2_INS0_11HermesValueEEENS0_11PropOpFlagsEPNS0_18PropertyCacheEntryE(ptr, ptr noundef nonnull align 8 dereferenceable(9832), i32, ptr, i32, ptr noundef) local_unnamed_addr #1

; Function Attrs: mustprogress nounwind uwtable
define hidden i64 @_ZN6hermes2vm11Interpreter21getByValTransientFastERNS0_7RuntimeENS0_6HandleINS0_11HermesValueEEES6_(ptr noundef nonnull align 8 dereferenceable(9832) %runtime, ptr nocapture readonly %base.coerce, ptr nocapture readonly %nameHandle.coerce) local_unnamed_addr #0 align 2 {
entry:
  %0 = load i64, ptr %base.coerce, align 8
  %shr.i.mask.i = and i64 %0, -281474976710656
  %cmp.i = icmp eq i64 %shr.i.mask.i, -844424930131968
  br i1 %cmp.i, label %if.then, label %return

if.then:                                          ; preds = %entry
  %retval.sroa.0.0.copyload.i.i.i = load i64, ptr %nameHandle.coerce, align 8
  %cmp.i.i.i = icmp ult i64 %retval.sroa.0.0.copyload.i.i.i, -1970324836974592
  br i1 %cmp.i.i.i, label %_ZN6hermes2vm20toArrayIndexFastPathENS0_11HermesValueE.exit, label %return

_ZN6hermes2vm20toArrayIndexFastPathENS0_11HermesValueE.exit: ; preds = %if.then
  %1 = bitcast i64 %retval.sroa.0.0.copyload.i.i.i to double
  %conv.i.i = fptoui double %1 to i32
  %conv1.i.i = uitofp i32 %conv.i.i to double
  %cmp.i.i = fcmp une double %conv1.i.i, %1
  %cmp2.i.i = icmp eq i32 %conv.i.i, -1
  %or.cond.i.i.not = or i1 %cmp2.i.i, %cmp.i.i
  br i1 %or.cond.i.i.not, label %return, label %land.lhs.true

land.lhs.true:                                    ; preds = %_ZN6hermes2vm20toArrayIndexFastPathENS0_11HermesValueE.exit
  %and.i.i = and i64 %0, 281474976710655
  %2 = inttoptr i64 %and.i.i to ptr
  %lengthAndUniquedFlag_.i = getelementptr inbounds %"class.hermes::vm::StringPrimitive", ptr %2, i64 0, i32 1
  %3 = load i32, ptr %lengthAndUniquedFlag_.i, align 4
  %and.i = and i32 %3, 2147483647
  %cmp = icmp ugt i32 %and.i, %conv.i.i
  br i1 %cmp, label %if.then14, label %return

if.then14:                                        ; preds = %land.lhs.true
  %bf.load.i.i.i.i = load i32, ptr %2, align 4
  %4 = and i32 %bf.load.i.i.i.i, 16777216
  %cmp.i.i2 = icmp eq i32 %4, 0
  %cmp.i.i.i3 = icmp ugt i32 %bf.load.i.i.i.i, 150994943
  br i1 %cmp.i.i2, label %if.then.i4, label %if.else.i

if.then.i4:                                       ; preds = %if.then14
  br i1 %cmp.i.i.i3, label %if.then.i.i, label %if.else.i.i

if.then.i.i:                                      ; preds = %if.then.i4
  %contents_.i.i.i = getelementptr inbounds %"class.hermes::vm::ExternalStringPrimitive", ptr %2, i64 0, i32 1
  %call.i.i.i = tail call noundef nonnull align 1 dereferenceable(1) ptr @_ZNKSt7__cxx1112basic_stringIcSt11char_traitsIcESaIcEEixEm(ptr noundef nonnull align 8 dereferenceable(32) %contents_.i.i.i, i64 noundef 0) #9
  br label %_ZNK6hermes2vm15StringPrimitive18castToASCIIPointerEv.exit.i

if.else.i.i:                                      ; preds = %if.then.i4
  %bf.lshr.i.i.mask.i.i.i.i.i.i.i.i.i = and i32 %bf.load.i.i.i.i, 234881024
  switch i32 %bf.lshr.i.i.mask.i.i.i.i.i.i.i.i.i, label %if.else13.i.i [
    i32 134217728, label %if.then5.i.i
    i32 67108864, label %if.then10.i.i
  ]

if.then5.i.i:                                     ; preds = %if.else.i.i
  %add.ptr.i.i.i.i.i = getelementptr inbounds %"class.hermes::vm::DynamicStringPrimitive", ptr %2, i64 1
  br label %_ZNK6hermes2vm15StringPrimitive18castToASCIIPointerEv.exit.i

if.then10.i.i:                                    ; preds = %if.else.i.i
  %add.ptr.i.i.i4.i.i = getelementptr inbounds %"class.hermes::vm::DynamicStringPrimitive.241", ptr %2, i64 1
  br label %_ZNK6hermes2vm15StringPrimitive18castToASCIIPointerEv.exit.i

if.else13.i.i:                                    ; preds = %if.else.i.i
  %concatBufferHV_.i.i.i.i = getelementptr inbounds %"class.hermes::vm::BufferedStringPrimitive", ptr %2, i64 0, i32 1
  %agg.tmp.sroa.0.0.copyload.i.i.i.i = load i64, ptr %concatBufferHV_.i.i.i.i, align 8
  %and.i.i.i.i.i.i = and i64 %agg.tmp.sroa.0.0.copyload.i.i.i.i, 281474976710655
  %5 = inttoptr i64 %and.i.i.i.i.i.i to ptr
  %contents_.i.i.i.i = getelementptr inbounds %"class.hermes::vm::ExternalStringPrimitive", ptr %5, i64 0, i32 1
  %call.i.i.i.i = tail call noundef nonnull align 1 dereferenceable(1) ptr @_ZNKSt7__cxx1112basic_stringIcSt11char_traitsIcESaIcEEixEm(ptr noundef nonnull align 8 dereferenceable(32) %contents_.i.i.i.i, i64 noundef 0) #9
  br label %_ZNK6hermes2vm15StringPrimitive18castToASCIIPointerEv.exit.i

_ZNK6hermes2vm15StringPrimitive18castToASCIIPointerEv.exit.i: ; preds = %if.else13.i.i, %if.then10.i.i, %if.then5.i.i, %if.then.i.i
  %retval.0.i.i = phi ptr [ %call.i.i.i, %if.then.i.i ], [ %add.ptr.i.i.i.i.i, %if.then5.i.i ], [ %add.ptr.i.i.i4.i.i, %if.then10.i.i ], [ %call.i.i.i.i, %if.else13.i.i ]
  %idx.ext.i = zext i32 %conv.i.i to i64
  %add.ptr.i = getelementptr inbounds i8, ptr %retval.0.i.i, i64 %idx.ext.i
  %6 = load i8, ptr %add.ptr.i, align 1
  %conv.i = sext i8 %6 to i16
  br label %_ZNK6hermes2vm15StringPrimitive2atEj.exit

if.else.i:                                        ; preds = %if.then14
  br i1 %cmp.i.i.i3, label %if.then.i16.i, label %if.else.i4.i

if.then.i16.i:                                    ; preds = %if.else.i
  %contents_.i.i17.i = getelementptr inbounds %"class.hermes::vm::ExternalStringPrimitive.249", ptr %2, i64 0, i32 1
  %7 = load ptr, ptr %contents_.i.i17.i, align 8
  br label %_ZNK6hermes2vm15StringPrimitive18castToUTF16PointerEv.exit.i

if.else.i4.i:                                     ; preds = %if.else.i
  %bf.lshr.i.i.mask.i.i.i.i.i.i.i.i5.i = and i32 %bf.load.i.i.i.i, 251658240
  switch i32 %bf.lshr.i.i.mask.i.i.i.i.i.i.i.i5.i, label %if.else13.i11.i [
    i32 117440512, label %if.then5.i9.i
    i32 50331648, label %if.then10.i6.i
  ]

if.then5.i9.i:                                    ; preds = %if.else.i4.i
  %add.ptr.i.i.i.i10.i = getelementptr inbounds %"class.hermes::vm::DynamicStringPrimitive.255", ptr %2, i64 1
  br label %_ZNK6hermes2vm15StringPrimitive18castToUTF16PointerEv.exit.i

if.then10.i6.i:                                   ; preds = %if.else.i4.i
  %add.ptr.i.i.i4.i7.i = getelementptr inbounds %"class.hermes::vm::DynamicStringPrimitive.261", ptr %2, i64 1
  br label %_ZNK6hermes2vm15StringPrimitive18castToUTF16PointerEv.exit.i

if.else13.i11.i:                                  ; preds = %if.else.i4.i
  %concatBufferHV_.i.i.i12.i = getelementptr inbounds %"class.hermes::vm::BufferedStringPrimitive.265", ptr %2, i64 0, i32 1
  %agg.tmp.sroa.0.0.copyload.i.i.i13.i = load i64, ptr %concatBufferHV_.i.i.i12.i, align 8
  %and.i.i.i.i.i14.i = and i64 %agg.tmp.sroa.0.0.copyload.i.i.i13.i, 281474976710655
  %8 = inttoptr i64 %and.i.i.i.i.i14.i to ptr
  %contents_.i.i.i15.i = getelementptr inbounds %"class.hermes::vm::ExternalStringPrimitive.249", ptr %8, i64 0, i32 1
  %9 = load ptr, ptr %contents_.i.i.i15.i, align 8
  br label %_ZNK6hermes2vm15StringPrimitive18castToUTF16PointerEv.exit.i

_ZNK6hermes2vm15StringPrimitive18castToUTF16PointerEv.exit.i: ; preds = %if.else13.i11.i, %if.then10.i6.i, %if.then5.i9.i, %if.then.i16.i
  %retval.0.i8.i = phi ptr [ %7, %if.then.i16.i ], [ %add.ptr.i.i.i.i10.i, %if.then5.i9.i ], [ %add.ptr.i.i.i4.i7.i, %if.then10.i6.i ], [ %9, %if.else13.i11.i ]
  %idx.ext4.i = zext i32 %conv.i.i to i64
  %add.ptr5.i = getelementptr inbounds i16, ptr %retval.0.i8.i, i64 %idx.ext4.i
  %10 = load i16, ptr %add.ptr5.i, align 2
  br label %_ZNK6hermes2vm15StringPrimitive2atEj.exit

_ZNK6hermes2vm15StringPrimitive2atEj.exit:        ; preds = %_ZNK6hermes2vm15StringPrimitive18castToASCIIPointerEv.exit.i, %_ZNK6hermes2vm15StringPrimitive18castToUTF16PointerEv.exit.i
  %retval.0.i = phi i16 [ %conv.i, %_ZNK6hermes2vm15StringPrimitive18castToASCIIPointerEv.exit.i ], [ %10, %_ZNK6hermes2vm15StringPrimitive18castToUTF16PointerEv.exit.i ]
  %call20 = tail call ptr @_ZN6hermes2vm7Runtime18getCharacterStringEDs(ptr noundef nonnull align 8 dereferenceable(9832) %runtime, i16 noundef zeroext %retval.0.i) #9
  %retval.sroa.0.0.copyload.i = load i64, ptr %call20, align 8
  br label %return

return:                                           ; preds = %if.then, %entry, %land.lhs.true, %_ZN6hermes2vm20toArrayIndexFastPathENS0_11HermesValueE.exit, %_ZNK6hermes2vm15StringPrimitive2atEj.exit
  %retval.sroa.0.0 = phi i64 [ %retval.sroa.0.0.copyload.i, %_ZNK6hermes2vm15StringPrimitive2atEj.exit ], [ -1970324836974592, %_ZN6hermes2vm20toArrayIndexFastPathENS0_11HermesValueE.exit ], [ -1970324836974592, %land.lhs.true ], [ -1970324836974592, %entry ], [ -1970324836974592, %if.then ]
  ret i64 %retval.sroa.0.0
}

declare ptr @_ZN6hermes2vm7Runtime18getCharacterStringEDs(ptr noundef nonnull align 8 dereferenceable(9832), i16 noundef zeroext) local_unnamed_addr #1

; Function Attrs: mustprogress nounwind uwtable
define hidden { i32, i64 } @_ZN6hermes2vm11Interpreter21getByValTransient_RJSERNS0_7RuntimeENS0_6HandleINS0_11HermesValueEEES6_(ptr noundef nonnull align 8 dereferenceable(9832) %runtime, ptr %base.coerce, ptr %name.coerce) local_unnamed_addr #0 align 2 {
entry:
  %call = tail call i64 @_ZN6hermes2vm11Interpreter21getByValTransientFastERNS0_7RuntimeENS0_6HandleINS0_11HermesValueEEES6_(ptr noundef nonnull align 8 dereferenceable(9832) %runtime, ptr %base.coerce, ptr %name.coerce)
  %shr.i.mask.i = and i64 %call, -140737488355328
  %cmp.i = icmp eq i64 %shr.i.mask.i, -1970324836974592
  br i1 %cmp.i, label %if.end, label %return

if.end:                                           ; preds = %entry
  %call16 = tail call { i32, i64 } @_ZN6hermes2vm8toObjectERNS0_7RuntimeENS0_6HandleINS0_11HermesValueEEE(ptr noundef nonnull align 8 dereferenceable(9832) %runtime, ptr %base.coerce) #9
  %0 = extractvalue { i32, i64 } %call16, 0
  %cmp.i4 = icmp eq i32 %0, 0
  br i1 %cmp.i4, label %return, label %if.end19

if.end19:                                         ; preds = %if.end
  %1 = extractvalue { i32, i64 } %call16, 1
  %or.i.i.i.i.i = or i64 %1, -281474976710656
  %topGCScope_.i.i.i.i = getelementptr inbounds %"class.hermes::vm::HandleRootOwner", ptr %runtime, i64 0, i32 1
  %2 = load ptr, ptr %topGCScope_.i.i.i.i, align 8
  %next_.i.i.i.i.i.i.i = getelementptr inbounds %"class.hermes::vm::GCScope", ptr %2, i64 0, i32 4
  %3 = load ptr, ptr %next_.i.i.i.i.i.i.i, align 8
  %curChunkEnd_.i.i.i.i.i.i = getelementptr inbounds %"class.hermes::vm::GCScope", ptr %2, i64 0, i32 5
  %4 = load ptr, ptr %curChunkEnd_.i.i.i.i.i.i, align 8
  %cmp.i.i.i.i.i.i = icmp ult ptr %3, %4
  br i1 %cmp.i.i.i.i.i.i, label %if.then.i.i.i.i.i.i, label %if.end.i.i.i.i.i.i

if.then.i.i.i.i.i.i:                              ; preds = %if.end19
  %incdec.ptr.i.i.i.i.i.i = getelementptr inbounds %"class.hermes::vm::PinnedHermesValue", ptr %3, i64 1
  store ptr %incdec.ptr.i.i.i.i.i.i, ptr %next_.i.i.i.i.i.i.i, align 8
  store i64 %or.i.i.i.i.i, ptr %3, align 8
  br label %_ZN6hermes2vm15HandleRootOwner10makeHandleINS0_8JSObjectEEENS0_6HandleIT_EENS0_11HermesValueE.exit

if.end.i.i.i.i.i.i:                               ; preds = %if.end19
  %call7.i.i.i.i.i.i = tail call noundef ptr @_ZN6hermes2vm7GCScope15_newChunkAndPHVENS0_11HermesValueE(ptr noundef nonnull align 8 dereferenceable(212) %2, i64 %or.i.i.i.i.i) #9
  br label %_ZN6hermes2vm15HandleRootOwner10makeHandleINS0_8JSObjectEEENS0_6HandleIT_EENS0_11HermesValueE.exit

_ZN6hermes2vm15HandleRootOwner10makeHandleINS0_8JSObjectEEENS0_6HandleIT_EENS0_11HermesValueE.exit: ; preds = %if.then.i.i.i.i.i.i, %if.end.i.i.i.i.i.i
  %retval.0.i.i.i.i.i.i = phi ptr [ %3, %if.then.i.i.i.i.i.i ], [ %call7.i.i.i.i.i.i, %if.end.i.i.i.i.i.i ]
  %call35 = tail call { i32, i64 } @_ZN6hermes2vm8JSObject27getComputedWithReceiver_RJSENS0_6HandleIS1_EERNS0_7RuntimeENS2_INS0_11HermesValueEEES7_(ptr %retval.0.i.i.i.i.i.i, ptr noundef nonnull align 8 dereferenceable(9832) %runtime, ptr %name.coerce, ptr %base.coerce) #9
  %5 = extractvalue { i32, i64 } %call35, 0
  %6 = extractvalue { i32, i64 } %call35, 1
  br label %return

return:                                           ; preds = %if.end, %entry, %_ZN6hermes2vm15HandleRootOwner10makeHandleINS0_8JSObjectEEENS0_6HandleIT_EENS0_11HermesValueE.exit
  %retval.sroa.0.0 = phi i32 [ %5, %_ZN6hermes2vm15HandleRootOwner10makeHandleINS0_8JSObjectEEENS0_6HandleIT_EENS0_11HermesValueE.exit ], [ 1, %entry ], [ 0, %if.end ]
  %retval.sroa.4.0 = phi i64 [ %6, %_ZN6hermes2vm15HandleRootOwner10makeHandleINS0_8JSObjectEEENS0_6HandleIT_EENS0_11HermesValueE.exit ], [ %call, %entry ], [ -1688849860263936, %if.end ]
  %.fca.0.insert = insertvalue { i32, i64 } poison, i32 %retval.sroa.0.0, 0
  %.fca.1.insert = insertvalue { i32, i64 } %.fca.0.insert, i64 %retval.sroa.4.0, 1
  ret { i32, i64 } %.fca.1.insert
}

declare { i32, i64 } @_ZN6hermes2vm8toObjectERNS0_7RuntimeENS0_6HandleINS0_11HermesValueEEE(ptr noundef nonnull align 8 dereferenceable(9832), ptr) local_unnamed_addr #1

declare { i32, i64 } @_ZN6hermes2vm8JSObject27getComputedWithReceiver_RJSENS0_6HandleIS1_EERNS0_7RuntimeENS2_INS0_11HermesValueEEES7_(ptr, ptr noundef nonnull align 8 dereferenceable(9832), ptr, ptr) local_unnamed_addr #1

; Function Attrs: mustprogress nounwind uwtable
define hidden noundef i32 @_ZN6hermes2vm11Interpreter20putByIdTransient_RJSERNS0_7RuntimeENS0_6HandleINS0_11HermesValueEEENS0_8SymbolIDES6_b(ptr noundef nonnull align 8 dereferenceable(9832) %runtime, ptr %base.coerce, i32 %id.coerce, ptr %value.coerce, i1 noundef zeroext %strictMode) local_unnamed_addr #0 align 2 {
entry:
  %baseTypeAsString.i = alloca %"class.hermes::vm::StringView", align 8
  %valueAsStringPrintable.i = alloca %"class.hermes::vm::StringView", align 8
  %tmp1.i = alloca %"class.hermes::vm::SmallXString", align 8
  %tmp2.i = alloca %"class.hermes::vm::SmallXString", align 8
  %ref.tmp64.i = alloca %"class.hermes::vm::TwineChar16", align 8
  %ref.tmp65.i = alloca %"class.hermes::vm::TwineChar16", align 8
  %ref.tmp66.i = alloca %"class.hermes::vm::TwineChar16", align 8
  %ref.tmp67.i = alloca %"class.hermes::vm::TwineChar16", align 8
  %ref.tmp68.i = alloca %"class.hermes::vm::TwineChar16", align 8
  %ref.tmp69.i = alloca %"class.hermes::vm::TwineChar16", align 8
  %desc = alloca %"struct.hermes::vm::NamedPropertyDescriptor", align 8
  %ref.tmp = alloca %"class.hermes::vm::TwineChar16", align 8
  %ref.tmp76 = alloca %"class.hermes::vm::TwineChar16", align 8
  %ref.tmp123 = alloca %"class.hermes::vm::TwineChar16", align 8
  %call = tail call { i32, i64 } @_ZN6hermes2vm8toObjectERNS0_7RuntimeENS0_6HandleINS0_11HermesValueEEE(ptr noundef nonnull align 8 dereferenceable(9832) %runtime, ptr %base.coerce) #9
  %0 = extractvalue { i32, i64 } %call, 0
  %cmp.i = icmp eq i32 %0, 0
  br i1 %cmp.i, label %_ZN4llvh9StringRefC2EPKc.exit, label %if.end

_ZN4llvh9StringRefC2EPKc.exit:                    ; preds = %entry
  %call14 = tail call noundef i32 @_ZN6hermes2vm35amendPropAccessErrorMsgWithPropNameERNS0_7RuntimeENS0_6HandleINS0_11HermesValueEEEN4llvh9StringRefENS0_8SymbolIDE(ptr noundef nonnull align 8 dereferenceable(9832) %runtime, ptr %base.coerce, ptr nonnull @.str.1, i64 3, i32 %id.coerce) #9
  br label %return

if.end:                                           ; preds = %entry
  %1 = extractvalue { i32, i64 } %call, 1
  %or.i.i.i.i.i = or i64 %1, -281474976710656
  %topGCScope_.i.i.i.i = getelementptr inbounds %"class.hermes::vm::HandleRootOwner", ptr %runtime, i64 0, i32 1
  %2 = load ptr, ptr %topGCScope_.i.i.i.i, align 8
  %next_.i.i.i.i.i.i.i = getelementptr inbounds %"class.hermes::vm::GCScope", ptr %2, i64 0, i32 4
  %3 = load ptr, ptr %next_.i.i.i.i.i.i.i, align 8
  %curChunkEnd_.i.i.i.i.i.i = getelementptr inbounds %"class.hermes::vm::GCScope", ptr %2, i64 0, i32 5
  %4 = load ptr, ptr %curChunkEnd_.i.i.i.i.i.i, align 8
  %cmp.i.i.i.i.i.i = icmp ult ptr %3, %4
  br i1 %cmp.i.i.i.i.i.i, label %if.then.i.i.i.i.i.i, label %if.end.i.i.i.i.i.i

if.then.i.i.i.i.i.i:                              ; preds = %if.end
  %incdec.ptr.i.i.i.i.i.i = getelementptr inbounds %"class.hermes::vm::PinnedHermesValue", ptr %3, i64 1
  store ptr %incdec.ptr.i.i.i.i.i.i, ptr %next_.i.i.i.i.i.i.i, align 8
  store i64 %or.i.i.i.i.i, ptr %3, align 8
  br label %_ZN6hermes2vm15HandleRootOwner10makeHandleINS0_8JSObjectEEENS0_6HandleIT_EENS0_11HermesValueE.exit

if.end.i.i.i.i.i.i:                               ; preds = %if.end
  %call7.i.i.i.i.i.i = tail call noundef ptr @_ZN6hermes2vm7GCScope15_newChunkAndPHVENS0_11HermesValueE(ptr noundef nonnull align 8 dereferenceable(212) %2, i64 %or.i.i.i.i.i) #9
  br label %_ZN6hermes2vm15HandleRootOwner10makeHandleINS0_8JSObjectEEENS0_6HandleIT_EENS0_11HermesValueE.exit

_ZN6hermes2vm15HandleRootOwner10makeHandleINS0_8JSObjectEEENS0_6HandleIT_EENS0_11HermesValueE.exit: ; preds = %if.then.i.i.i.i.i.i, %if.end.i.i.i.i.i.i
  %retval.0.i.i.i.i.i.i = phi ptr [ %3, %if.then.i.i.i.i.i.i ], [ %call7.i.i.i.i.i.i, %if.end.i.i.i.i.i.i ]
  store i32 0, ptr %desc, align 8
  %slot.i.i = getelementptr inbounds %"struct.hermes::vm::PropertyDescriptor", ptr %desc, i64 0, i32 1
  store i32 -1, ptr %slot.i.i, align 4
  %call14.i = call noundef ptr @_ZN6hermes2vm8JSObject24getNamedDescriptorUnsafeENS0_6HandleIS1_EERNS0_7RuntimeENS0_8SymbolIDENS0_13PropertyFlagsERNS0_23NamedPropertyDescriptorE(ptr %retval.0.i.i.i.i.i.i, ptr noundef nonnull align 8 dereferenceable(9832) %runtime, i32 %id.coerce, i16 1, ptr noundef nonnull align 4 dereferenceable(8) %desc) #9
  %tobool.not = icmp eq ptr %call14.i, null
  br i1 %tobool.not, label %if.then34, label %lor.lhs.false

lor.lhs.false:                                    ; preds = %_ZN6hermes2vm15HandleRootOwner10makeHandleINS0_8JSObjectEEENS0_6HandleIT_EENS0_11HermesValueE.exit
  %retval.sroa.0.0.copyload.i.i = load i64, ptr %retval.0.i.i.i.i.i.i, align 8
  %and.i.i.i.i = and i64 %retval.sroa.0.0.copyload.i.i, 281474976710655
  %5 = inttoptr i64 %and.i.i.i.i to ptr
  %cmp.not = icmp eq ptr %call14.i, %5
  %bf.load45.pre = load i16, ptr %desc, align 8
  %.pre80 = and i16 %bf.load45.pre, 1040
  %6 = icmp eq i16 %.pre80, 0
  br i1 %cmp.not, label %if.end44, label %land.lhs.true

land.lhs.true:                                    ; preds = %lor.lhs.false
  br i1 %6, label %if.then34, label %if.end59

if.then34:                                        ; preds = %land.lhs.true, %_ZN6hermes2vm15HandleRootOwner10makeHandleINS0_8JSObjectEEENS0_6HandleIT_EENS0_11HermesValueE.exit
  br i1 %strictMode, label %if.then36, label %return

if.then36:                                        ; preds = %if.then34
  call void @llvm.lifetime.start.p0(i64 16, ptr nonnull %baseTypeAsString.i)
  call void @llvm.lifetime.start.p0(i64 16, ptr nonnull %valueAsStringPrintable.i)
  call void @llvm.lifetime.start.p0(i64 80, ptr nonnull %tmp1.i)
  call void @llvm.lifetime.start.p0(i64 80, ptr nonnull %tmp2.i)
  call void @llvm.lifetime.start.p0(i64 48, ptr nonnull %ref.tmp64.i)
  call void @llvm.lifetime.start.p0(i64 48, ptr nonnull %ref.tmp65.i)
  call void @llvm.lifetime.start.p0(i64 48, ptr nonnull %ref.tmp66.i)
  call void @llvm.lifetime.start.p0(i64 48, ptr nonnull %ref.tmp67.i)
  call void @llvm.lifetime.start.p0(i64 48, ptr nonnull %ref.tmp68.i)
  call void @llvm.lifetime.start.p0(i64 48, ptr nonnull %ref.tmp69.i)
  %identifierTable_.i.i = getelementptr inbounds %"class.hermes::vm::Runtime", ptr %runtime, i64 0, i32 118
  %call4.i = call { ptr, i64 } @_ZNK6hermes2vm15IdentifierTable13getStringViewERNS0_7RuntimeENS0_8SymbolIDE(ptr noundef nonnull align 8 dereferenceable(84) %identifierTable_.i.i, ptr noundef nonnull align 8 dereferenceable(9832) %runtime, i32 %id.coerce) #9
  %7 = extractvalue { ptr, i64 } %call4.i, 0
  %8 = extractvalue { ptr, i64 } %call4.i, 1
  %propName.sroa.3.8.extract.trunc.i = trunc i64 %8 to i32
  %propName.sroa.6.8.extract.shift.i = lshr i64 %8, 32
  %call9.i = call i64 @_ZN6hermes2vm6typeOfERNS0_7RuntimeENS0_6HandleINS0_11HermesValueEEE(ptr noundef nonnull align 8 dereferenceable(9832) %runtime, ptr %base.coerce) #9
  %and.i.i.i = and i64 %call9.i, 281474976710655
  %or.i.i.i.i.i.i = or disjoint i64 %and.i.i.i, -844424930131968
  %9 = load ptr, ptr %topGCScope_.i.i.i.i, align 8
  %next_.i.i.i.i.i.i.i.i = getelementptr inbounds %"class.hermes::vm::GCScope", ptr %9, i64 0, i32 4
  %10 = load ptr, ptr %next_.i.i.i.i.i.i.i.i, align 8
  %curChunkEnd_.i.i.i.i.i.i.i = getelementptr inbounds %"class.hermes::vm::GCScope", ptr %9, i64 0, i32 5
  %11 = load ptr, ptr %curChunkEnd_.i.i.i.i.i.i.i, align 8
  %cmp.i.i.i.i.i.i.i = icmp ult ptr %10, %11
  br i1 %cmp.i.i.i.i.i.i.i, label %if.then.i.i.i.i.i.i.i, label %if.end.i.i.i.i.i.i.i

if.then.i.i.i.i.i.i.i:                            ; preds = %if.then36
  %incdec.ptr.i.i.i.i.i.i.i = getelementptr inbounds %"class.hermes::vm::PinnedHermesValue", ptr %10, i64 1
  store ptr %incdec.ptr.i.i.i.i.i.i.i, ptr %next_.i.i.i.i.i.i.i.i, align 8
  store i64 %or.i.i.i.i.i.i, ptr %10, align 8
  br label %_ZN6hermes2vm15HandleRootOwner10makeHandleINS0_15StringPrimitiveEEENS0_6HandleIT_EEPS5_.exit.i

if.end.i.i.i.i.i.i.i:                             ; preds = %if.then36
  %call7.i.i.i.i.i.i.i = call noundef ptr @_ZN6hermes2vm7GCScope15_newChunkAndPHVENS0_11HermesValueE(ptr noundef nonnull align 8 dereferenceable(212) %9, i64 %or.i.i.i.i.i.i) #9
  br label %_ZN6hermes2vm15HandleRootOwner10makeHandleINS0_15StringPrimitiveEEENS0_6HandleIT_EEPS5_.exit.i

_ZN6hermes2vm15HandleRootOwner10makeHandleINS0_15StringPrimitiveEEENS0_6HandleIT_EEPS5_.exit.i: ; preds = %if.end.i.i.i.i.i.i.i, %if.then.i.i.i.i.i.i.i
  %retval.0.i.i.i.i.i.i.i = phi ptr [ %10, %if.then.i.i.i.i.i.i.i ], [ %call7.i.i.i.i.i.i.i, %if.end.i.i.i.i.i.i.i ]
  %call19.i = call { ptr, i64 } @_ZN6hermes2vm15StringPrimitive16createStringViewERNS0_7RuntimeENS0_6HandleIS1_EE(ptr noundef nonnull align 8 dereferenceable(9832) %runtime, ptr %retval.0.i.i.i.i.i.i.i) #9
  %12 = extractvalue { ptr, i64 } %call19.i, 0
  store ptr %12, ptr %baseTypeAsString.i, align 8
  %13 = getelementptr inbounds { ptr, i64 }, ptr %baseTypeAsString.i, i64 0, i32 1
  %14 = extractvalue { ptr, i64 } %call19.i, 1
  store i64 %14, ptr %13, align 8
  %15 = load ptr, ptr %topGCScope_.i.i.i.i, align 8
  %next_.i.i.i.i.i.i.i15.i = getelementptr inbounds %"class.hermes::vm::GCScope", ptr %15, i64 0, i32 4
  %16 = load ptr, ptr %next_.i.i.i.i.i.i.i15.i, align 8
  %curChunkEnd_.i.i.i.i.i.i16.i = getelementptr inbounds %"class.hermes::vm::GCScope", ptr %15, i64 0, i32 5
  %17 = load ptr, ptr %curChunkEnd_.i.i.i.i.i.i16.i, align 8
  %cmp.i.i.i.i.i.i17.i = icmp ult ptr %16, %17
  br i1 %cmp.i.i.i.i.i.i17.i, label %if.then.i.i.i.i.i.i21.i, label %if.end.i.i.i.i.i.i18.i

if.then.i.i.i.i.i.i21.i:                          ; preds = %_ZN6hermes2vm15HandleRootOwner10makeHandleINS0_15StringPrimitiveEEENS0_6HandleIT_EEPS5_.exit.i
  %incdec.ptr.i.i.i.i.i.i22.i = getelementptr inbounds %"class.hermes::vm::PinnedHermesValue", ptr %16, i64 1
  store ptr %incdec.ptr.i.i.i.i.i.i22.i, ptr %next_.i.i.i.i.i.i.i15.i, align 8
  store i64 -844424930131968, ptr %16, align 8
  br label %_ZN6hermes2vm13MutableHandleINS0_15StringPrimitiveEEC2ERNS0_15HandleRootOwnerEPS2_.exit.i

if.end.i.i.i.i.i.i18.i:                           ; preds = %_ZN6hermes2vm15HandleRootOwner10makeHandleINS0_15StringPrimitiveEEENS0_6HandleIT_EEPS5_.exit.i
  %call7.i.i.i.i.i.i19.i = call noundef ptr @_ZN6hermes2vm7GCScope15_newChunkAndPHVENS0_11HermesValueE(ptr noundef nonnull align 8 dereferenceable(212) %15, i64 -844424930131968) #9
  br label %_ZN6hermes2vm13MutableHandleINS0_15StringPrimitiveEEC2ERNS0_15HandleRootOwnerEPS2_.exit.i

_ZN6hermes2vm13MutableHandleINS0_15StringPrimitiveEEC2ERNS0_15HandleRootOwnerEPS2_.exit.i: ; preds = %if.end.i.i.i.i.i.i18.i, %if.then.i.i.i.i.i.i21.i
  %retval.0.i.i.i.i.i.i20.i = phi ptr [ %16, %if.then.i.i.i.i.i.i21.i ], [ %call7.i.i.i.i.i.i19.i, %if.end.i.i.i.i.i.i18.i ]
  %18 = load i64, ptr %base.coerce, align 8
  %shr.i.mask.i.i = and i64 %18, -140737488355328
  %cmp.i.i = icmp eq i64 %shr.i.mask.i.i, -1266637395197952
  br i1 %cmp.i.i, label %if.then.i, label %if.else49.i

if.then.i:                                        ; preds = %_ZN6hermes2vm13MutableHandleINS0_15StringPrimitiveEEC2ERNS0_15HandleRootOwnerEPS2_.exit.i
  %call29.i = call ptr @_ZN6hermes2vm23symbolDescriptiveStringERNS0_7RuntimeENS0_6HandleINS0_8SymbolIDEEE(ptr noundef nonnull align 8 dereferenceable(9832) %runtime, ptr nonnull %base.coerce) #9
  %cmp.i.i.not.i = icmp eq ptr %call29.i, inttoptr (i64 -1 to ptr)
  br i1 %cmp.i.i.not.i, label %if.else.i, label %if.then34.i

if.then34.i:                                      ; preds = %if.then.i
  %retval.sroa.0.0.copyload.i.i.i.i.i = load i64, ptr %call29.i, align 8
  %and.i.i.i.i.i.i.i = and i64 %retval.sroa.0.0.copyload.i.i.i.i.i, 281474976710655
  br label %if.end59.i

if.else.i:                                        ; preds = %if.then.i
  %thrownValue_.i.i = getelementptr inbounds %"class.hermes::vm::Runtime", ptr %runtime, i64 0, i32 87
  store i64 -1970324836974592, ptr %thrownValue_.i.i, align 8
  %call3.i.i = call { i32, i64 } @_ZN6hermes2vm22DynamicStringPrimitiveIcLb0EE6createERNS0_7RuntimeEN4llvh8ArrayRefIcEE(ptr noundef nonnull align 8 dereferenceable(9832) %runtime, ptr nonnull @.str.5, i64 40) #9
  %19 = extractvalue { i32, i64 } %call3.i.i, 0
  %cmp.i.i24.i = icmp eq i32 %19, 0
  br i1 %cmp.i.i24.i, label %if.then.i.i, label %if.end.i.i

if.then.i.i:                                      ; preds = %if.else.i
  call void @_ZN6hermes12hermes_fatalEPKc(ptr noundef nonnull @.str.10) #10
  unreachable

if.end.i.i:                                       ; preds = %if.else.i
  %20 = extractvalue { i32, i64 } %call3.i.i, 1
  %and.i.i.i.i.i = and i64 %20, 281474976710655
  %or.i.i.i.i.i.i.i = or disjoint i64 %and.i.i.i.i.i, -844424930131968
  %21 = load ptr, ptr %topGCScope_.i.i.i.i, align 8
  %next_.i.i.i.i.i.i.i.i.i = getelementptr inbounds %"class.hermes::vm::GCScope", ptr %21, i64 0, i32 4
  %22 = load ptr, ptr %next_.i.i.i.i.i.i.i.i.i, align 8
  %curChunkEnd_.i.i.i.i.i.i.i.i = getelementptr inbounds %"class.hermes::vm::GCScope", ptr %21, i64 0, i32 5
  %23 = load ptr, ptr %curChunkEnd_.i.i.i.i.i.i.i.i, align 8
  %cmp.i.i.i.i.i.i.i.i = icmp ult ptr %22, %23
  br i1 %cmp.i.i.i.i.i.i.i.i, label %if.then.i.i.i.i.i.i.i.i, label %if.end.i.i.i.i.i.i.i.i

if.then.i.i.i.i.i.i.i.i:                          ; preds = %if.end.i.i
  %incdec.ptr.i.i.i.i.i.i.i.i = getelementptr inbounds %"class.hermes::vm::PinnedHermesValue", ptr %22, i64 1
  store ptr %incdec.ptr.i.i.i.i.i.i.i.i, ptr %next_.i.i.i.i.i.i.i.i.i, align 8
  store i64 %or.i.i.i.i.i.i.i, ptr %22, align 8
  br label %if.end59.i

if.end.i.i.i.i.i.i.i.i:                           ; preds = %if.end.i.i
  %call7.i.i.i.i.i.i.i.i = call noundef ptr @_ZN6hermes2vm7GCScope15_newChunkAndPHVENS0_11HermesValueE(ptr noundef nonnull align 8 dereferenceable(212) %21, i64 %or.i.i.i.i.i.i.i) #9
  %retval.sroa.0.0.copyload.i.i.i.i25.pre.i = load i64, ptr %call7.i.i.i.i.i.i.i.i, align 8
  %24 = and i64 %retval.sroa.0.0.copyload.i.i.i.i25.pre.i, 281474976710655
  br label %if.end59.i

if.else49.i:                                      ; preds = %_ZN6hermes2vm13MutableHandleINS0_15StringPrimitiveEEC2ERNS0_15HandleRootOwnerEPS2_.exit.i
  %call54.i = call ptr @_ZN6hermes2vm12toString_RJSERNS0_7RuntimeENS0_6HandleINS0_11HermesValueEEE(ptr noundef nonnull align 8 dereferenceable(9832) %runtime, ptr nonnull %base.coerce) #9
  %25 = ptrtoint ptr %call54.i to i64
  br label %if.end59.i

if.end59.i:                                       ; preds = %if.then.i.i.i.i.i.i.i.i, %if.end.i.i.i.i.i.i.i.i, %if.else49.i, %if.then34.i
  %and.i.i.i.i.i.i.sink.i = phi i64 [ %and.i.i.i.i.i.i.i, %if.then34.i ], [ %25, %if.else49.i ], [ %and.i.i.i.i.i, %if.then.i.i.i.i.i.i.i.i ], [ %24, %if.end.i.i.i.i.i.i.i.i ]
  %or.i.i.i.i.i23.i = or i64 %and.i.i.i.i.i.i.sink.i, -844424930131968
  store i64 %or.i.i.i.i.i23.i, ptr %retval.0.i.i.i.i.i.i20.i, align 8
  %call63.i = call { ptr, i64 } @_ZN6hermes2vm15StringPrimitive16createStringViewERNS0_7RuntimeENS0_6HandleIS1_EE(ptr noundef nonnull align 8 dereferenceable(9832) %runtime, ptr nonnull %retval.0.i.i.i.i.i.i20.i) #9
  %26 = extractvalue { ptr, i64 } %call63.i, 0
  store ptr %26, ptr %valueAsStringPrintable.i, align 8
  %27 = getelementptr inbounds { ptr, i64 }, ptr %valueAsStringPrintable.i, i64 0, i32 1
  %28 = extractvalue { ptr, i64 } %call63.i, 1
  store i64 %28, ptr %27, align 8
  %add.ptr.i.i.i.i.i.i.i = getelementptr inbounds i8, ptr %tmp1.i, i64 16
  store ptr %add.ptr.i.i.i.i.i.i.i, ptr %tmp1.i, align 8
  %Size.i.i.i.i.i.i.i = getelementptr inbounds %"class.llvh::SmallVectorBase", ptr %tmp1.i, i64 0, i32 1
  store i32 0, ptr %Size.i.i.i.i.i.i.i, align 8
  %Capacity2.i.i.i.i.i.i.i = getelementptr inbounds %"class.llvh::SmallVectorBase", ptr %tmp1.i, i64 0, i32 2
  store i32 32, ptr %Capacity2.i.i.i.i.i.i.i, align 4
  %add.ptr.i.i.i.i.i.i29.i = getelementptr inbounds i8, ptr %tmp2.i, i64 16
  store ptr %add.ptr.i.i.i.i.i.i29.i, ptr %tmp2.i, align 8
  %Size.i.i.i.i.i.i30.i = getelementptr inbounds %"class.llvh::SmallVectorBase", ptr %tmp2.i, i64 0, i32 1
  store i32 0, ptr %Size.i.i.i.i.i.i30.i, align 8
  %Capacity2.i.i.i.i.i.i31.i = getelementptr inbounds %"class.llvh::SmallVectorBase", ptr %tmp2.i, i64 0, i32 2
  store i32 32, ptr %Capacity2.i.i.i.i.i.i31.i, align 4
  %tobool.i.i.i = icmp slt i32 %propName.sroa.3.8.extract.trunc.i, 0
  br i1 %tobool.i.i.i, label %if.then.i258.i, label %if.end.i257.i

if.then.i258.i:                                   ; preds = %if.end59.i
  %29 = and i32 %propName.sroa.3.8.extract.trunc.i, 1073741824
  %tobool.not.i.i.i = icmp eq i32 %29, 0
  br i1 %tobool.not.i.i.i, label %_ZNK6hermes2vm10StringView13castToCharPtrEv.exit.i.i, label %if.end.i.i259.i

if.end.i.i259.i:                                  ; preds = %if.then.i258.i
  %retval.sroa.0.0.copyload.i.i.i.i.i.i = load i64, ptr %7, align 8, !noalias !9
  %and.i.i.i.i.i.i.i.i = and i64 %retval.sroa.0.0.copyload.i.i.i.i.i.i, 281474976710655
  %30 = inttoptr i64 %and.i.i.i.i.i.i.i.i to ptr
  %bf.load.i.i.i.i.i.i.i = load i32, ptr %30, align 4, !noalias !9
  %cmp.i.i.i.i260.i = icmp ugt i32 %bf.load.i.i.i.i.i.i.i, 150994943
  br i1 %cmp.i.i.i.i260.i, label %if.then.i.i.i265.i, label %if.else.i.i.i.i

if.then.i.i.i265.i:                               ; preds = %if.end.i.i259.i
  %contents_.i.i.i.i.i = getelementptr inbounds %"class.hermes::vm::ExternalStringPrimitive", ptr %30, i64 0, i32 1
  %call.i.i.i.i.i = call noundef nonnull align 1 dereferenceable(1) ptr @_ZNKSt7__cxx1112basic_stringIcSt11char_traitsIcESaIcEEixEm(ptr noundef nonnull align 8 dereferenceable(32) %contents_.i.i.i.i.i, i64 noundef 0) #9, !noalias !9
  br label %_ZNK6hermes2vm10StringView13castToCharPtrEv.exit.i.i

if.else.i.i.i.i:                                  ; preds = %if.end.i.i259.i
  %bf.lshr.i.i.mask.i.i.i.i.i.i.i.i.i.i.i = and i32 %bf.load.i.i.i.i.i.i.i, 251658240
  switch i32 %bf.lshr.i.i.mask.i.i.i.i.i.i.i.i.i.i.i, label %if.else13.i.i.i.i [
    i32 134217728, label %if.then5.i.i.i.i
    i32 67108864, label %if.then10.i.i.i.i
  ]

if.then5.i.i.i.i:                                 ; preds = %if.else.i.i.i.i
  %add.ptr.i.i.i.i.i.i264.i = getelementptr inbounds %"class.hermes::vm::DynamicStringPrimitive", ptr %30, i64 1
  br label %_ZNK6hermes2vm10StringView13castToCharPtrEv.exit.i.i

if.then10.i.i.i.i:                                ; preds = %if.else.i.i.i.i
  %add.ptr.i.i.i4.i.i.i.i = getelementptr inbounds %"class.hermes::vm::DynamicStringPrimitive.241", ptr %30, i64 1
  br label %_ZNK6hermes2vm10StringView13castToCharPtrEv.exit.i.i

if.else13.i.i.i.i:                                ; preds = %if.else.i.i.i.i
  %concatBufferHV_.i.i.i.i.i.i = getelementptr inbounds %"class.hermes::vm::BufferedStringPrimitive", ptr %30, i64 0, i32 1
  %agg.tmp.sroa.0.0.copyload.i.i.i.i.i.i = load i64, ptr %concatBufferHV_.i.i.i.i.i.i, align 8, !noalias !9
  %and.i.i.i.i.i1.i.i.i = and i64 %agg.tmp.sroa.0.0.copyload.i.i.i.i.i.i, 281474976710655
  %31 = inttoptr i64 %and.i.i.i.i.i1.i.i.i to ptr
  %contents_.i.i.i.i.i.i = getelementptr inbounds %"class.hermes::vm::ExternalStringPrimitive", ptr %31, i64 0, i32 1
  %call.i.i.i.i.i.i = call noundef nonnull align 1 dereferenceable(1) ptr @_ZNKSt7__cxx1112basic_stringIcSt11char_traitsIcESaIcEEixEm(ptr noundef nonnull align 8 dereferenceable(32) %contents_.i.i.i.i.i.i, i64 noundef 0) #9, !noalias !9
  br label %_ZNK6hermes2vm10StringView13castToCharPtrEv.exit.i.i

_ZNK6hermes2vm10StringView13castToCharPtrEv.exit.i.i: ; preds = %if.else13.i.i.i.i, %if.then10.i.i.i.i, %if.then5.i.i.i.i, %if.then.i.i.i265.i, %if.then.i258.i
  %retval.0.i.sink.i.i.i = phi ptr [ %7, %if.then.i258.i ], [ %call.i.i.i.i.i, %if.then.i.i.i265.i ], [ %add.ptr.i.i.i.i.i.i264.i, %if.then5.i.i.i.i ], [ %add.ptr.i.i.i4.i.i.i.i, %if.then10.i.i.i.i ], [ %call.i.i.i.i.i.i, %if.else13.i.i.i.i ]
  %cmp.i.i261.i = icmp ult i64 %8, 4294967296
  br i1 %cmp.i.i261.i, label %38, label %if.else.i.i262.i

if.else.i.i262.i:                                 ; preds = %_ZNK6hermes2vm10StringView13castToCharPtrEv.exit.i.i
  %bf.clear8.i.i.i = and i64 %8, 1073741823
  %add.ptr10.i.i.i = getelementptr inbounds i8, ptr %retval.0.i.sink.i.i.i, i64 %bf.clear8.i.i.i
  br label %36

if.end.i257.i:                                    ; preds = %if.end59.i
  %tobool.not.i5.i.i = icmp ult i32 %propName.sroa.3.8.extract.trunc.i, 1073741824
  br i1 %tobool.not.i5.i.i, label %_ZNK6hermes2vm10StringView15castToChar16PtrEv.exit.i.i, label %if.end.i6.i.i

if.end.i6.i.i:                                    ; preds = %if.end.i257.i
  %retval.sroa.0.0.copyload.i.i.i.i7.i.i = load i64, ptr %7, align 8, !noalias !9
  %and.i.i.i.i.i.i8.i.i = and i64 %retval.sroa.0.0.copyload.i.i.i.i7.i.i, 281474976710655
  %32 = inttoptr i64 %and.i.i.i.i.i.i8.i.i to ptr
  %bf.load.i.i.i.i.i9.i.i = load i32, ptr %32, align 4, !noalias !9
  %cmp.i.i.i10.i.i = icmp ugt i32 %bf.load.i.i.i.i.i9.i.i, 150994943
  br i1 %cmp.i.i.i10.i.i, label %if.then.i.i26.i.i, label %if.else.i.i11.i.i

if.then.i.i26.i.i:                                ; preds = %if.end.i6.i.i
  %contents_.i.i.i27.i.i = getelementptr inbounds %"class.hermes::vm::ExternalStringPrimitive.249", ptr %32, i64 0, i32 1
  %33 = load ptr, ptr %contents_.i.i.i27.i.i, align 8, !noalias !9
  br label %_ZNK6hermes2vm10StringView15castToChar16PtrEv.exit.i.i

if.else.i.i11.i.i:                                ; preds = %if.end.i6.i.i
  %bf.lshr.i.i.mask.i.i.i.i.i.i.i.i.i12.i.i = and i32 %bf.load.i.i.i.i.i9.i.i, 251658240
  switch i32 %bf.lshr.i.i.mask.i.i.i.i.i.i.i.i.i12.i.i, label %if.else13.i.i21.i.i [
    i32 117440512, label %if.then5.i.i19.i.i
    i32 50331648, label %if.then10.i.i13.i.i
  ]

if.then5.i.i19.i.i:                               ; preds = %if.else.i.i11.i.i
  %add.ptr.i.i.i.i.i20.i.i = getelementptr inbounds %"class.hermes::vm::DynamicStringPrimitive.255", ptr %32, i64 1
  br label %_ZNK6hermes2vm10StringView15castToChar16PtrEv.exit.i.i

if.then10.i.i13.i.i:                              ; preds = %if.else.i.i11.i.i
  %add.ptr.i.i.i4.i.i14.i.i = getelementptr inbounds %"class.hermes::vm::DynamicStringPrimitive.261", ptr %32, i64 1
  br label %_ZNK6hermes2vm10StringView15castToChar16PtrEv.exit.i.i

if.else13.i.i21.i.i:                              ; preds = %if.else.i.i11.i.i
  %concatBufferHV_.i.i.i.i22.i.i = getelementptr inbounds %"class.hermes::vm::BufferedStringPrimitive.265", ptr %32, i64 0, i32 1
  %agg.tmp.sroa.0.0.copyload.i.i.i.i23.i.i = load i64, ptr %concatBufferHV_.i.i.i.i22.i.i, align 8, !noalias !9
  %and.i.i.i.i.i1.i24.i.i = and i64 %agg.tmp.sroa.0.0.copyload.i.i.i.i23.i.i, 281474976710655
  %34 = inttoptr i64 %and.i.i.i.i.i1.i24.i.i to ptr
  %contents_.i.i.i.i25.i.i = getelementptr inbounds %"class.hermes::vm::ExternalStringPrimitive.249", ptr %34, i64 0, i32 1
  %35 = load ptr, ptr %contents_.i.i.i.i25.i.i, align 8, !noalias !9
  br label %_ZNK6hermes2vm10StringView15castToChar16PtrEv.exit.i.i

_ZNK6hermes2vm10StringView15castToChar16PtrEv.exit.i.i: ; preds = %if.else13.i.i21.i.i, %if.then10.i.i13.i.i, %if.then5.i.i19.i.i, %if.then.i.i26.i.i, %if.end.i257.i
  %retval.0.i.sink.i15.i.i = phi ptr [ %7, %if.end.i257.i ], [ %33, %if.then.i.i26.i.i ], [ %add.ptr.i.i.i.i.i20.i.i, %if.then5.i.i19.i.i ], [ %add.ptr.i.i.i4.i.i14.i.i, %if.then10.i.i13.i.i ], [ %35, %if.else13.i.i21.i.i ]
  %bf.clear8.i16.i.i = and i64 %8, 1073741823
  %add.ptr10.i18.i.i = getelementptr inbounds i16, ptr %retval.0.i.sink.i15.i.i, i64 %bf.clear8.i16.i.i
  br label %36

36:                                               ; preds = %_ZNK6hermes2vm10StringView15castToChar16PtrEv.exit.i.i, %if.else.i.i262.i
  %newRight.sroa.0.0.copyload.i.i.ph.i = phi ptr [ %add.ptr10.i.i.i, %if.else.i.i262.i ], [ %add.ptr10.i18.i.i, %_ZNK6hermes2vm10StringView15castToChar16PtrEv.exit.i.i ]
  %.ph.i = phi i32 [ 3, %if.else.i.i262.i ], [ 4, %_ZNK6hermes2vm10StringView15castToChar16PtrEv.exit.i.i ]
  store ptr @.str.6, ptr %ref.tmp69.i, align 8, !alias.scope !12
  %leftKind_.i22.i.i.i = getelementptr inbounds %"class.hermes::vm::TwineChar16", ptr %ref.tmp69.i, i64 0, i32 1
  store i32 3, ptr %leftKind_.i22.i.i.i, align 8, !alias.scope !12
  %rightChild_.i.i.i.i = getelementptr inbounds %"class.hermes::vm::TwineChar16", ptr %ref.tmp69.i, i64 0, i32 2
  store ptr %newRight.sroa.0.0.copyload.i.i.ph.i, ptr %rightChild_.i.i.i.i, align 8, !alias.scope !12
  %rightKind_.i23.i.i.i = getelementptr inbounds %"class.hermes::vm::TwineChar16", ptr %ref.tmp69.i, i64 0, i32 3
  store i32 %.ph.i, ptr %rightKind_.i23.i.i.i, align 8, !alias.scope !12
  %leftSize_.i24.i.i.i = getelementptr inbounds %"class.hermes::vm::TwineChar16", ptr %ref.tmp69.i, i64 0, i32 4
  store i64 24, ptr %leftSize_.i24.i.i.i, align 8, !alias.scope !12
  %rightSize_.i25.i.i.i = getelementptr inbounds %"class.hermes::vm::TwineChar16", ptr %ref.tmp69.i, i64 0, i32 5
  store i64 %propName.sroa.6.8.extract.shift.i, ptr %rightSize_.i25.i.i.i, align 8, !alias.scope !12
  %37 = add nuw nsw i64 %propName.sroa.6.8.extract.shift.i, 24
  br label %39

38:                                               ; preds = %_ZNK6hermes2vm10StringView13castToCharPtrEv.exit.i.i
  store ptr @.str.6, ptr %ref.tmp69.i, align 8
  %ref.tmp70.i.sroa.4.0.ref.tmp69.i.sroa_idx = getelementptr inbounds i8, ptr %ref.tmp69.i, i64 8
  store i32 3, ptr %ref.tmp70.i.sroa.4.0.ref.tmp69.i.sroa_idx, align 8
  %ref.tmp70.i.sroa.577.0.ref.tmp69.i.sroa_idx = getelementptr inbounds i8, ptr %ref.tmp69.i, i64 24
  store i32 1, ptr %ref.tmp70.i.sroa.577.0.ref.tmp69.i.sroa_idx, align 8
  %ref.tmp70.i.sroa.678.0.ref.tmp69.i.sroa_idx = getelementptr inbounds i8, ptr %ref.tmp69.i, i64 32
  store i64 24, ptr %ref.tmp70.i.sroa.678.0.ref.tmp69.i.sroa_idx, align 8
  %ref.tmp70.i.sroa.7.0.ref.tmp69.i.sroa_idx = getelementptr inbounds i8, ptr %ref.tmp69.i, i64 40
  store i64 0, ptr %ref.tmp70.i.sroa.7.0.ref.tmp69.i.sroa_idx, align 8
  br label %39

39:                                               ; preds = %36, %38
  %40 = phi i32 [ 3, %38 ], [ 2, %36 ]
  %add.i.i.i53.i8690 = phi i64 [ 24, %38 ], [ %37, %36 ]
  %41 = phi ptr [ @.str.6, %38 ], [ %ref.tmp69.i, %36 ]
  store ptr %41, ptr %ref.tmp68.i, align 8, !alias.scope !17
  %leftKind_.i22.i.i67.i = getelementptr inbounds %"class.hermes::vm::TwineChar16", ptr %ref.tmp68.i, i64 0, i32 1
  store i32 %40, ptr %leftKind_.i22.i.i67.i, align 8, !alias.scope !17
  %rightChild_.i.i.i68.i = getelementptr inbounds %"class.hermes::vm::TwineChar16", ptr %ref.tmp68.i, i64 0, i32 2
  store ptr @.str.7, ptr %rightChild_.i.i.i68.i, align 8, !alias.scope !17
  %rightKind_.i23.i.i69.i = getelementptr inbounds %"class.hermes::vm::TwineChar16", ptr %ref.tmp68.i, i64 0, i32 3
  store i32 3, ptr %rightKind_.i23.i.i69.i, align 8, !alias.scope !17
  %leftSize_.i24.i.i70.i = getelementptr inbounds %"class.hermes::vm::TwineChar16", ptr %ref.tmp68.i, i64 0, i32 4
  store i64 %add.i.i.i53.i8690, ptr %leftSize_.i24.i.i70.i, align 8, !alias.scope !17
  %rightSize_.i25.i.i71.i = getelementptr inbounds %"class.hermes::vm::TwineChar16", ptr %ref.tmp68.i, i64 0, i32 5
  store i64 5, ptr %rightSize_.i25.i.i71.i, align 8, !alias.scope !17
  %call.i.i = call { ptr, i64 } @_ZNK6hermes2vm10StringView11getUTF16RefERN4llvh15SmallVectorImplIDsEEb(ptr noundef nonnull align 8 dereferenceable(16) %baseTypeAsString.i, ptr noundef nonnull align 8 dereferenceable(16) %tmp1.i, i1 noundef zeroext false) #9
  %add.i.i.i91.i = add nuw nsw i64 %add.i.i.i53.i8690, 5
  %42 = extractvalue { ptr, i64 } %call.i.i, 0
  %43 = extractvalue { ptr, i64 } %call.i.i, 1
  store ptr %ref.tmp68.i, ptr %ref.tmp67.i, align 8, !alias.scope !22
  %leftKind_.i22.i.i105.i = getelementptr inbounds %"class.hermes::vm::TwineChar16", ptr %ref.tmp67.i, i64 0, i32 1
  store i32 2, ptr %leftKind_.i22.i.i105.i, align 8, !alias.scope !22
  %rightChild_.i.i.i106.i = getelementptr inbounds %"class.hermes::vm::TwineChar16", ptr %ref.tmp67.i, i64 0, i32 2
  store ptr %42, ptr %rightChild_.i.i.i106.i, align 8, !alias.scope !22
  %rightKind_.i23.i.i107.i = getelementptr inbounds %"class.hermes::vm::TwineChar16", ptr %ref.tmp67.i, i64 0, i32 3
  store i32 4, ptr %rightKind_.i23.i.i107.i, align 8, !alias.scope !22
  %leftSize_.i24.i.i108.i = getelementptr inbounds %"class.hermes::vm::TwineChar16", ptr %ref.tmp67.i, i64 0, i32 4
  store i64 %add.i.i.i91.i, ptr %leftSize_.i24.i.i108.i, align 8, !alias.scope !22
  %rightSize_.i25.i.i109.i = getelementptr inbounds %"class.hermes::vm::TwineChar16", ptr %ref.tmp67.i, i64 0, i32 5
  store i64 %43, ptr %rightSize_.i25.i.i109.i, align 8, !alias.scope !22
  %add.i.i.i137.i = add i64 %43, %add.i.i.i91.i
  store ptr %ref.tmp67.i, ptr %ref.tmp66.i, align 8, !alias.scope !27
  %leftKind_.i22.i.i151.i = getelementptr inbounds %"class.hermes::vm::TwineChar16", ptr %ref.tmp66.i, i64 0, i32 1
  store i32 2, ptr %leftKind_.i22.i.i151.i, align 8, !alias.scope !27
  %rightChild_.i.i.i152.i = getelementptr inbounds %"class.hermes::vm::TwineChar16", ptr %ref.tmp66.i, i64 0, i32 2
  store ptr @.str.8, ptr %rightChild_.i.i.i152.i, align 8, !alias.scope !27
  %rightKind_.i23.i.i153.i = getelementptr inbounds %"class.hermes::vm::TwineChar16", ptr %ref.tmp66.i, i64 0, i32 3
  store i32 3, ptr %rightKind_.i23.i.i153.i, align 8, !alias.scope !27
  %leftSize_.i24.i.i154.i = getelementptr inbounds %"class.hermes::vm::TwineChar16", ptr %ref.tmp66.i, i64 0, i32 4
  store i64 %add.i.i.i137.i, ptr %leftSize_.i24.i.i154.i, align 8, !alias.scope !27
  %rightSize_.i25.i.i155.i = getelementptr inbounds %"class.hermes::vm::TwineChar16", ptr %ref.tmp66.i, i64 0, i32 5
  store i64 2, ptr %rightSize_.i25.i.i155.i, align 8, !alias.scope !27
  %call.i163.i = call { ptr, i64 } @_ZNK6hermes2vm10StringView11getUTF16RefERN4llvh15SmallVectorImplIDsEEb(ptr noundef nonnull align 8 dereferenceable(16) %valueAsStringPrintable.i, ptr noundef nonnull align 8 dereferenceable(16) %tmp2.i, i1 noundef zeroext false) #9
  %44 = extractvalue { ptr, i64 } %call.i163.i, 0
  %45 = extractvalue { ptr, i64 } %call.i163.i, 1
  %add.i.i.i180.i = add i64 %add.i.i.i137.i, 2
  store ptr %ref.tmp66.i, ptr %ref.tmp65.i, align 8, !alias.scope !32
  %leftKind_.i22.i.i194.i = getelementptr inbounds %"class.hermes::vm::TwineChar16", ptr %ref.tmp65.i, i64 0, i32 1
  store i32 2, ptr %leftKind_.i22.i.i194.i, align 8, !alias.scope !32
  %rightChild_.i.i.i195.i = getelementptr inbounds %"class.hermes::vm::TwineChar16", ptr %ref.tmp65.i, i64 0, i32 2
  store ptr %44, ptr %rightChild_.i.i.i195.i, align 8, !alias.scope !32
  %rightKind_.i23.i.i196.i = getelementptr inbounds %"class.hermes::vm::TwineChar16", ptr %ref.tmp65.i, i64 0, i32 3
  store i32 4, ptr %rightKind_.i23.i.i196.i, align 8, !alias.scope !32
  %leftSize_.i24.i.i197.i = getelementptr inbounds %"class.hermes::vm::TwineChar16", ptr %ref.tmp65.i, i64 0, i32 4
  store i64 %add.i.i.i180.i, ptr %leftSize_.i24.i.i197.i, align 8, !alias.scope !32
  %rightSize_.i25.i.i198.i = getelementptr inbounds %"class.hermes::vm::TwineChar16", ptr %ref.tmp65.i, i64 0, i32 5
  store i64 %45, ptr %rightSize_.i25.i.i198.i, align 8, !alias.scope !32
  %add.i.i.i226.i = add i64 %45, %add.i.i.i180.i
  store ptr %ref.tmp65.i, ptr %ref.tmp64.i, align 8, !alias.scope !37
  %leftKind_.i22.i.i240.i = getelementptr inbounds %"class.hermes::vm::TwineChar16", ptr %ref.tmp64.i, i64 0, i32 1
  store i32 2, ptr %leftKind_.i22.i.i240.i, align 8, !alias.scope !37
  %rightChild_.i.i.i241.i = getelementptr inbounds %"class.hermes::vm::TwineChar16", ptr %ref.tmp64.i, i64 0, i32 2
  store ptr @.str.9, ptr %rightChild_.i.i.i241.i, align 8, !alias.scope !37
  %rightKind_.i23.i.i242.i = getelementptr inbounds %"class.hermes::vm::TwineChar16", ptr %ref.tmp64.i, i64 0, i32 3
  store i32 3, ptr %rightKind_.i23.i.i242.i, align 8, !alias.scope !37
  %leftSize_.i24.i.i243.i = getelementptr inbounds %"class.hermes::vm::TwineChar16", ptr %ref.tmp64.i, i64 0, i32 4
  store i64 %add.i.i.i226.i, ptr %leftSize_.i24.i.i243.i, align 8, !alias.scope !37
  %rightSize_.i25.i.i244.i = getelementptr inbounds %"class.hermes::vm::TwineChar16", ptr %ref.tmp64.i, i64 0, i32 5
  store i64 1, ptr %rightSize_.i25.i.i244.i, align 8, !alias.scope !37
  %call81.i = call noundef i32 @_ZN6hermes2vm7Runtime14raiseTypeErrorERKNS0_11TwineChar16E(ptr noundef nonnull align 8 dereferenceable(9832) %runtime, ptr noundef nonnull align 8 dereferenceable(48) %ref.tmp64.i) #9
  %46 = load ptr, ptr %tmp2.i, align 8
  %cmp.i.i.i.i.i = icmp eq ptr %46, %add.ptr.i.i.i.i.i.i29.i
  br i1 %cmp.i.i.i.i.i, label %_ZN6hermes2vm12SmallXStringIDsLj32EED2Ev.exit.i, label %if.then.i.i.i.i

if.then.i.i.i.i:                                  ; preds = %39
  call void @free(ptr noundef %46) #9
  br label %_ZN6hermes2vm12SmallXStringIDsLj32EED2Ev.exit.i

_ZN6hermes2vm12SmallXStringIDsLj32EED2Ev.exit.i:  ; preds = %if.then.i.i.i.i, %39
  %47 = load ptr, ptr %tmp1.i, align 8
  %cmp.i.i.i.i253.i = icmp eq ptr %47, %add.ptr.i.i.i.i.i.i.i
  br i1 %cmp.i.i.i.i253.i, label %_ZN6hermes2vmL30transientObjectPutErrorMessageERNS0_7RuntimeENS0_6HandleINS0_11HermesValueEEENS0_8SymbolIDE.exit, label %if.then.i.i.i254.i

if.then.i.i.i254.i:                               ; preds = %_ZN6hermes2vm12SmallXStringIDsLj32EED2Ev.exit.i
  call void @free(ptr noundef %47) #9
  br label %_ZN6hermes2vmL30transientObjectPutErrorMessageERNS0_7RuntimeENS0_6HandleINS0_11HermesValueEEENS0_8SymbolIDE.exit

_ZN6hermes2vmL30transientObjectPutErrorMessageERNS0_7RuntimeENS0_6HandleINS0_11HermesValueEEENS0_8SymbolIDE.exit: ; preds = %_ZN6hermes2vm12SmallXStringIDsLj32EED2Ev.exit.i, %if.then.i.i.i254.i
  call void @llvm.lifetime.end.p0(i64 16, ptr nonnull %baseTypeAsString.i)
  call void @llvm.lifetime.end.p0(i64 16, ptr nonnull %valueAsStringPrintable.i)
  call void @llvm.lifetime.end.p0(i64 80, ptr nonnull %tmp1.i)
  call void @llvm.lifetime.end.p0(i64 80, ptr nonnull %tmp2.i)
  call void @llvm.lifetime.end.p0(i64 48, ptr nonnull %ref.tmp64.i)
  call void @llvm.lifetime.end.p0(i64 48, ptr nonnull %ref.tmp65.i)
  call void @llvm.lifetime.end.p0(i64 48, ptr nonnull %ref.tmp66.i)
  call void @llvm.lifetime.end.p0(i64 48, ptr nonnull %ref.tmp67.i)
  call void @llvm.lifetime.end.p0(i64 48, ptr nonnull %ref.tmp68.i)
  call void @llvm.lifetime.end.p0(i64 48, ptr nonnull %ref.tmp69.i)
  br label %return

if.end44:                                         ; preds = %lor.lhs.false
  br i1 %6, label %if.then54, label %if.end59

if.then54:                                        ; preds = %if.end44
  br i1 %strictMode, label %if.then56, label %return

if.then56:                                        ; preds = %if.then54
  %rightKind_.i3.i = getelementptr inbounds %"class.hermes::vm::TwineChar16", ptr %ref.tmp, i64 0, i32 3
  store i32 1, ptr %rightKind_.i3.i, align 8
  %leftSize_.i4.i = getelementptr inbounds %"class.hermes::vm::TwineChar16", ptr %ref.tmp, i64 0, i32 4
  store i64 46, ptr %leftSize_.i4.i, align 8
  %rightSize_.i5.i = getelementptr inbounds %"class.hermes::vm::TwineChar16", ptr %ref.tmp, i64 0, i32 5
  store i64 0, ptr %rightSize_.i5.i, align 8
  store ptr @.str.2, ptr %ref.tmp, align 8
  %48 = getelementptr inbounds %"class.hermes::vm::TwineChar16", ptr %ref.tmp, i64 0, i32 1
  store i32 3, ptr %48, align 8
  %call57 = call noundef i32 @_ZN6hermes2vm7Runtime14raiseTypeErrorERKNS0_11TwineChar16E(ptr noundef nonnull align 8 dereferenceable(9832) %runtime, ptr noundef nonnull align 8 dereferenceable(48) %ref.tmp) #9
  br label %return

if.end59:                                         ; preds = %land.lhs.true, %if.end44
  %49 = and i16 %bf.load45.pre, 16
  %tobool48.not = icmp eq i16 %49, 0
  br i1 %tobool48.not, label %if.else, label %if.then64

if.then64:                                        ; preds = %if.end59
  %agg.tmp66.sroa.0.0.copyload = load i64, ptr %desc, align 8
  %desc.sroa.1.0.extract.shift.i = lshr i64 %agg.tmp66.sroa.0.0.copyload, 32
  %desc.sroa.1.0.extract.trunc.i = trunc i64 %desc.sroa.1.0.extract.shift.i to i32
  %cmp.i.i31 = icmp ult i32 %desc.sroa.1.0.extract.trunc.i, 5
  br i1 %cmp.i.i31, label %if.then.i.i33, label %if.end.i.i32

if.then.i.i33:                                    ; preds = %if.then64
  %directProps_.i.i.i = getelementptr inbounds %"class.hermes::vm::JSObjectAndDirectProps", ptr %call14.i, i64 0, i32 1
  %.pre = ptrtoint ptr %runtime to i64
  br label %_ZN6hermes2vm8JSObject23getNamedSlotValueUnsafeEPS1_RNS0_11PointerBaseENS0_23NamedPropertyDescriptorE.exit

if.end.i.i32:                                     ; preds = %if.then64
  %propStorage_.i.i = getelementptr inbounds %"class.hermes::vm::JSObject", ptr %call14.i, i64 0, i32 4
  %agg.tmp.sroa.0.0.copyload.i.i.i.i = load i32, ptr %propStorage_.i.i, align 4
  %50 = ptrtoint ptr %runtime to i64
  %conv.i.i.i.i.i = zext i32 %agg.tmp.sroa.0.0.copyload.i.i.i.i to i64
  %add.i.i.i.i.i = add i64 %conv.i.i.i.i.i, %50
  %51 = inttoptr i64 %add.i.i.i.i.i to ptr
  %sub.i.i = add nuw nsw i64 %desc.sroa.1.0.extract.shift.i, 4294967291
  %add.ptr.i.i.i.i.i.i = getelementptr inbounds %"class.hermes::vm::ArrayStorageBase", ptr %51, i64 1
  %52 = and i64 %sub.i.i, 4294967295
  br label %_ZN6hermes2vm8JSObject23getNamedSlotValueUnsafeEPS1_RNS0_11PointerBaseENS0_23NamedPropertyDescriptorE.exit

_ZN6hermes2vm8JSObject23getNamedSlotValueUnsafeEPS1_RNS0_11PointerBaseENS0_23NamedPropertyDescriptorE.exit: ; preds = %if.then.i.i33, %if.end.i.i32
  %.pre-phi = phi i64 [ %.pre, %if.then.i.i33 ], [ %50, %if.end.i.i32 ]
  %sub.sink.i.i = phi i64 [ %desc.sroa.1.0.extract.shift.i, %if.then.i.i33 ], [ %52, %if.end.i.i32 ]
  %add.ptr.i.i.i.i.sink.i.i = phi ptr [ %directProps_.i.i.i, %if.then.i.i33 ], [ %add.ptr.i.i.i.i.i.i, %if.end.i.i32 ]
  %arrayidx.i.i.i = getelementptr inbounds %"class.hermes::vm::GCHermesValueBase", ptr %add.ptr.i.i.i.i.sink.i.i, i64 %sub.sink.i.i
  %retval.sroa.0.0.i.i = load i32, ptr %arrayidx.i.i.i, align 4
  %cmp.i.not.i.i.i.i = icmp eq i32 %retval.sroa.0.0.i.i, 0
  %conv.i.i.i.i.i34 = zext i32 %retval.sroa.0.0.i.i to i64
  %add.i.i.i.i.i35 = add i64 %.pre-phi, %conv.i.i.i.i.i34
  %53 = inttoptr i64 %add.i.i.i.i.i35 to ptr
  %cond.i.i.i.i = select i1 %cmp.i.not.i.i.i.i, ptr null, ptr %53
  %setter = getelementptr inbounds %"class.hermes::vm::PropertyAccessor", ptr %cond.i.i.i.i, i64 0, i32 2
  %54 = load i32, ptr %setter, align 4
  %cmp.i.i36.not = icmp eq i32 %54, 0
  br i1 %cmp.i.i36.not, label %if.then73, label %if.end79

if.then73:                                        ; preds = %_ZN6hermes2vm8JSObject23getNamedSlotValueUnsafeEPS1_RNS0_11PointerBaseENS0_23NamedPropertyDescriptorE.exit
  br i1 %strictMode, label %if.then75, label %return

if.then75:                                        ; preds = %if.then73
  %rightKind_.i3.i38 = getelementptr inbounds %"class.hermes::vm::TwineChar16", ptr %ref.tmp76, i64 0, i32 3
  store i32 1, ptr %rightKind_.i3.i38, align 8
  %leftSize_.i4.i39 = getelementptr inbounds %"class.hermes::vm::TwineChar16", ptr %ref.tmp76, i64 0, i32 4
  store i64 34, ptr %leftSize_.i4.i39, align 8
  %rightSize_.i5.i40 = getelementptr inbounds %"class.hermes::vm::TwineChar16", ptr %ref.tmp76, i64 0, i32 5
  store i64 0, ptr %rightSize_.i5.i40, align 8
  store ptr @.str.3, ptr %ref.tmp76, align 8
  %55 = getelementptr inbounds %"class.hermes::vm::TwineChar16", ptr %ref.tmp76, i64 0, i32 1
  store i32 3, ptr %55, align 8
  %call77 = call noundef i32 @_ZN6hermes2vm7Runtime14raiseTypeErrorERKNS0_11TwineChar16E(ptr noundef nonnull align 8 dereferenceable(9832) %runtime, ptr noundef nonnull align 8 dereferenceable(48) %ref.tmp76) #9
  br label %return

if.end79:                                         ; preds = %_ZN6hermes2vm8JSObject23getNamedSlotValueUnsafeEPS1_RNS0_11PointerBaseENS0_23NamedPropertyDescriptorE.exit
  %conv.i.i.i = zext i32 %54 to i64
  %add.i.i.i = add i64 %.pre-phi, %conv.i.i.i
  %56 = or i64 %add.i.i.i, -281474976710656
  %57 = load ptr, ptr %topGCScope_.i.i.i.i, align 8
  %next_.i.i.i.i.i.i.i47 = getelementptr inbounds %"class.hermes::vm::GCScope", ptr %57, i64 0, i32 4
  %58 = load ptr, ptr %next_.i.i.i.i.i.i.i47, align 8
  %curChunkEnd_.i.i.i.i.i.i48 = getelementptr inbounds %"class.hermes::vm::GCScope", ptr %57, i64 0, i32 5
  %59 = load ptr, ptr %curChunkEnd_.i.i.i.i.i.i48, align 8
  %cmp.i.i.i.i.i.i49 = icmp ult ptr %58, %59
  br i1 %cmp.i.i.i.i.i.i49, label %if.then.i.i.i.i.i.i53, label %if.end.i.i.i.i.i.i50

if.then.i.i.i.i.i.i53:                            ; preds = %if.end79
  %incdec.ptr.i.i.i.i.i.i54 = getelementptr inbounds %"class.hermes::vm::PinnedHermesValue", ptr %58, i64 1
  store ptr %incdec.ptr.i.i.i.i.i.i54, ptr %next_.i.i.i.i.i.i.i47, align 8
  store i64 %56, ptr %58, align 8
  br label %_ZN6hermes2vm7Runtime10makeHandleINS0_8CallableEEENS0_6HandleIT_EERKNS0_9GCPointerIS5_EE.exit

if.end.i.i.i.i.i.i50:                             ; preds = %if.end79
  %call7.i.i.i.i.i.i51 = call noundef ptr @_ZN6hermes2vm7GCScope15_newChunkAndPHVENS0_11HermesValueE(ptr noundef nonnull align 8 dereferenceable(212) %57, i64 %56) #9
  br label %_ZN6hermes2vm7Runtime10makeHandleINS0_8CallableEEENS0_6HandleIT_EERKNS0_9GCPointerIS5_EE.exit

_ZN6hermes2vm7Runtime10makeHandleINS0_8CallableEEENS0_6HandleIT_EERKNS0_9GCPointerIS5_EE.exit: ; preds = %if.then.i.i.i.i.i.i53, %if.end.i.i.i.i.i.i50
  %retval.0.i.i.i.i.i.i52 = phi ptr [ %58, %if.then.i.i.i.i.i.i53 ], [ %call7.i.i.i.i.i.i51, %if.end.i.i.i.i.i.i50 ]
  %retval.sroa.0.0.copyload.i.i.i = load i64, ptr %value.coerce, align 8
  %call96 = call { i32, i64 } @_ZN6hermes2vm8Callable12executeCall1ENS0_6HandleIS1_EERNS0_7RuntimeENS2_INS0_11HermesValueEEES6_b(ptr %retval.0.i.i.i.i.i.i52, ptr noundef nonnull align 8 dereferenceable(9832) %runtime, ptr %base.coerce, i64 %retval.sroa.0.0.copyload.i.i.i, i1 noundef zeroext false) #9
  %60 = extractvalue { i32, i64 } %call96, 0
  %cmp.i55 = icmp eq i32 %60, 0
  br i1 %cmp.i55, label %return, label %if.end126

if.else:                                          ; preds = %if.end59
  %61 = ptrtoint ptr %call14.i to i64
  %or.i.i.i.i.i56 = or i64 %61, -281474976710656
  %62 = load ptr, ptr %topGCScope_.i.i.i.i, align 8
  %next_.i.i.i.i.i.i.i58 = getelementptr inbounds %"class.hermes::vm::GCScope", ptr %62, i64 0, i32 4
  %63 = load ptr, ptr %next_.i.i.i.i.i.i.i58, align 8
  %curChunkEnd_.i.i.i.i.i.i59 = getelementptr inbounds %"class.hermes::vm::GCScope", ptr %62, i64 0, i32 5
  %64 = load ptr, ptr %curChunkEnd_.i.i.i.i.i.i59, align 8
  %cmp.i.i.i.i.i.i60 = icmp ult ptr %63, %64
  br i1 %cmp.i.i.i.i.i.i60, label %if.then.i.i.i.i.i.i64, label %if.end.i.i.i.i.i.i61

if.then.i.i.i.i.i.i64:                            ; preds = %if.else
  %incdec.ptr.i.i.i.i.i.i65 = getelementptr inbounds %"class.hermes::vm::PinnedHermesValue", ptr %63, i64 1
  store ptr %incdec.ptr.i.i.i.i.i.i65, ptr %next_.i.i.i.i.i.i.i58, align 8
  store i64 %or.i.i.i.i.i56, ptr %63, align 8
  br label %_ZN6hermes2vm15HandleRootOwner10makeHandleINS0_8JSObjectEEENS0_6HandleIT_EEPS5_.exit

if.end.i.i.i.i.i.i61:                             ; preds = %if.else
  %call7.i.i.i.i.i.i62 = call noundef ptr @_ZN6hermes2vm7GCScope15_newChunkAndPHVENS0_11HermesValueE(ptr noundef nonnull align 8 dereferenceable(212) %62, i64 %or.i.i.i.i.i56) #9
  br label %_ZN6hermes2vm15HandleRootOwner10makeHandleINS0_8JSObjectEEENS0_6HandleIT_EEPS5_.exit

_ZN6hermes2vm15HandleRootOwner10makeHandleINS0_8JSObjectEEENS0_6HandleIT_EEPS5_.exit: ; preds = %if.then.i.i.i.i.i.i64, %if.end.i.i.i.i.i.i61
  %retval.0.i.i.i.i.i.i63 = phi ptr [ %63, %if.then.i.i.i.i.i.i64 ], [ %call7.i.i.i.i.i.i62, %if.end.i.i.i.i.i.i61 ]
  %call115 = call i32 @_ZN6hermes2vm7JSProxy8setNamedENS0_6HandleINS0_8JSObjectEEERNS0_7RuntimeENS0_8SymbolIDENS2_INS0_11HermesValueEEES9_(ptr %retval.0.i.i.i.i.i.i63, ptr noundef nonnull align 8 dereferenceable(9832) %runtime, i32 %id.coerce, ptr %value.coerce, ptr %base.coerce) #9
  %bf.cast.i.i79.mask = and i32 %call115, 255
  %cmp.i66 = icmp eq i32 %bf.cast.i.i79.mask, 0
  br i1 %cmp.i66, label %return, label %if.end118

if.end118:                                        ; preds = %_ZN6hermes2vm15HandleRootOwner10makeHandleINS0_8JSObjectEEENS0_6HandleIT_EEPS5_.exit
  %65 = and i32 %call115, 256
  %bf.cast.i.i68 = icmp eq i32 %65, 0
  %brmerge.not = and i1 %bf.cast.i.i68, %strictMode
  br i1 %brmerge.not, label %if.then122, label %if.end126

if.then122:                                       ; preds = %if.end118
  %rightKind_.i3.i70 = getelementptr inbounds %"class.hermes::vm::TwineChar16", ptr %ref.tmp123, i64 0, i32 3
  store i32 1, ptr %rightKind_.i3.i70, align 8
  %leftSize_.i4.i71 = getelementptr inbounds %"class.hermes::vm::TwineChar16", ptr %ref.tmp123, i64 0, i32 4
  store i64 34, ptr %leftSize_.i4.i71, align 8
  %rightSize_.i5.i72 = getelementptr inbounds %"class.hermes::vm::TwineChar16", ptr %ref.tmp123, i64 0, i32 5
  store i64 0, ptr %rightSize_.i5.i72, align 8
  store ptr @.str.4, ptr %ref.tmp123, align 8
  %66 = getelementptr inbounds %"class.hermes::vm::TwineChar16", ptr %ref.tmp123, i64 0, i32 1
  store i32 3, ptr %66, align 8
  %call124 = call noundef i32 @_ZN6hermes2vm7Runtime14raiseTypeErrorERKNS0_11TwineChar16E(ptr noundef nonnull align 8 dereferenceable(9832) %runtime, ptr noundef nonnull align 8 dereferenceable(48) %ref.tmp123) #9
  br label %return

if.end126:                                        ; preds = %if.end118, %_ZN6hermes2vm7Runtime10makeHandleINS0_8CallableEEENS0_6HandleIT_EERKNS0_9GCPointerIS5_EE.exit
  br label %return

return:                                           ; preds = %_ZN6hermes2vm15HandleRootOwner10makeHandleINS0_8JSObjectEEENS0_6HandleIT_EEPS5_.exit, %_ZN6hermes2vm7Runtime10makeHandleINS0_8CallableEEENS0_6HandleIT_EERKNS0_9GCPointerIS5_EE.exit, %if.then73, %if.then54, %if.then34, %if.end126, %if.then122, %if.then75, %if.then56, %_ZN6hermes2vmL30transientObjectPutErrorMessageERNS0_7RuntimeENS0_6HandleINS0_11HermesValueEEENS0_8SymbolIDE.exit, %_ZN4llvh9StringRefC2EPKc.exit
  %retval.0 = phi i32 [ %call14, %_ZN4llvh9StringRefC2EPKc.exit ], [ 1, %if.end126 ], [ %call77, %if.then75 ], [ %call124, %if.then122 ], [ %call57, %if.then56 ], [ %call81.i, %_ZN6hermes2vmL30transientObjectPutErrorMessageERNS0_7RuntimeENS0_6HandleINS0_11HermesValueEEENS0_8SymbolIDE.exit ], [ 1, %if.then34 ], [ 1, %if.then54 ], [ 1, %if.then73 ], [ 0, %_ZN6hermes2vm7Runtime10makeHandleINS0_8CallableEEENS0_6HandleIT_EERKNS0_9GCPointerIS5_EE.exit ], [ 0, %_ZN6hermes2vm15HandleRootOwner10makeHandleINS0_8JSObjectEEENS0_6HandleIT_EEPS5_.exit ]
  ret i32 %retval.0
}

declare noundef i32 @_ZN6hermes2vm7Runtime14raiseTypeErrorERKNS0_11TwineChar16E(ptr noundef nonnull align 8 dereferenceable(9832), ptr noundef nonnull align 8 dereferenceable(48)) local_unnamed_addr #1

declare { i32, i64 } @_ZN6hermes2vm8Callable12executeCall1ENS0_6HandleIS1_EERNS0_7RuntimeENS2_INS0_11HermesValueEEES6_b(ptr, ptr noundef nonnull align 8 dereferenceable(9832), ptr, i64, i1 noundef zeroext) local_unnamed_addr #1

declare i32 @_ZN6hermes2vm7JSProxy8setNamedENS0_6HandleINS0_8JSObjectEEERNS0_7RuntimeENS0_8SymbolIDENS2_INS0_11HermesValueEEES9_(ptr, ptr noundef nonnull align 8 dereferenceable(9832), i32, ptr, ptr) local_unnamed_addr #1

; Function Attrs: mustprogress nounwind uwtable
define hidden noundef i32 @_ZN6hermes2vm11Interpreter21putByValTransient_RJSERNS0_7RuntimeENS0_6HandleINS0_11HermesValueEEES6_S6_b(ptr noundef nonnull align 8 dereferenceable(9832) %runtime, ptr %base.coerce, ptr %name.coerce, ptr %value.coerce, i1 noundef zeroext %strictMode) local_unnamed_addr #0 align 2 {
entry:
  %call = tail call ptr @_ZN6hermes2vm15valueToSymbolIDERNS0_7RuntimeENS0_6HandleINS0_11HermesValueEEE(ptr noundef nonnull align 8 dereferenceable(9832) %runtime, ptr %name.coerce) #9
  %cmp.i.i.not = icmp eq ptr %call, inttoptr (i64 -1 to ptr)
  br i1 %cmp.i.i.not, label %return, label %if.end

if.end:                                           ; preds = %entry
  %retval.sroa.0.0.copyload.i.i.i = load i64, ptr %call, align 8
  %conv.i.i.i.i = trunc i64 %retval.sroa.0.0.copyload.i.i.i to i32
  %call23 = tail call noundef i32 @_ZN6hermes2vm11Interpreter20putByIdTransient_RJSERNS0_7RuntimeENS0_6HandleINS0_11HermesValueEEENS0_8SymbolIDES6_b(ptr noundef nonnull align 8 dereferenceable(9832) %runtime, ptr %base.coerce, i32 %conv.i.i.i.i, ptr %value.coerce, i1 noundef zeroext %strictMode)
  br label %return

return:                                           ; preds = %entry, %if.end
  %retval.0 = phi i32 [ %call23, %if.end ], [ 0, %entry ]
  ret i32 %retval.0
}

declare ptr @_ZN6hermes2vm15valueToSymbolIDERNS0_7RuntimeENS0_6HandleINS0_11HermesValueEEE(ptr noundef nonnull align 8 dereferenceable(9832), ptr) local_unnamed_addr #1

; Function Attrs: mustprogress nounwind uwtable
define hidden { i32, i64 } @_ZN6hermes2vm11Interpreter22createObjectFromBufferERNS0_7RuntimeEPNS0_9CodeBlockEjjj(ptr noundef nonnull align 8 dereferenceable(9832) %runtime, ptr noundef %curCodeBlock, i32 noundef %numLiterals, i32 noundef %keyBufferIndex, i32 noundef %valBufferIndex) local_unnamed_addr #0 align 2 {
entry:
  %keyGen.i = alloca %"class.hermes::vm::SerializedLiteralParser", align 8
  %addResult.i = alloca %"class.hermes::vm::CallResult.290", align 8
  %valGen = alloca %"class.hermes::vm::SerializedLiteralParser", align 8
  call void @llvm.lifetime.start.p0(i64 40, ptr nonnull %keyGen.i)
  call void @llvm.lifetime.start.p0(i64 24, ptr nonnull %addResult.i)
  %0 = load ptr, ptr %curCodeBlock, align 8
  %call1.i = tail call { i64, i8 } @_ZNK6hermes2vm13RuntimeModule28findCachedLiteralHiddenClassERNS0_7RuntimeEjj(ptr noundef nonnull align 8 dereferenceable(192) %0, ptr noundef nonnull align 8 dereferenceable(9832) %runtime, i32 noundef %keyBufferIndex, i32 noundef %numLiterals) #9
  %1 = extractvalue { i64, i8 } %call1.i, 1
  %2 = and i8 %1, 1
  %tobool.i.not.i = icmp eq i8 %2, 0
  br i1 %tobool.i.not.i, label %if.end.i, label %if.then.i

if.then.i:                                        ; preds = %entry
  %3 = extractvalue { i64, i8 } %call1.i, 0
  %4 = inttoptr i64 %3 to ptr
  br label %_ZN6hermes2vmL23getHiddenClassForBufferERNS0_7RuntimeEPNS0_9CodeBlockEjj.exit

if.end.i:                                         ; preds = %entry
  %topGCScope_.i.i.i.i.i = getelementptr inbounds %"class.hermes::vm::HandleRootOwner", ptr %runtime, i64 0, i32 1
  %5 = load ptr, ptr %topGCScope_.i.i.i.i.i, align 8
  %next_.i.i.i.i.i.i.i.i = getelementptr inbounds %"class.hermes::vm::GCScope", ptr %5, i64 0, i32 4
  %6 = load ptr, ptr %next_.i.i.i.i.i.i.i.i, align 8
  %curChunkEnd_.i.i.i.i.i.i.i = getelementptr inbounds %"class.hermes::vm::GCScope", ptr %5, i64 0, i32 5
  %7 = load ptr, ptr %curChunkEnd_.i.i.i.i.i.i.i, align 8
  %cmp.i.i.i.i.i.i.i = icmp ult ptr %6, %7
  br i1 %cmp.i.i.i.i.i.i.i, label %if.then.i.i.i.i.i.i.i, label %if.end.i.i.i.i.i.i.i

if.then.i.i.i.i.i.i.i:                            ; preds = %if.end.i
  %incdec.ptr.i.i.i.i.i.i.i = getelementptr inbounds %"class.hermes::vm::PinnedHermesValue", ptr %6, i64 1
  store ptr %incdec.ptr.i.i.i.i.i.i.i, ptr %next_.i.i.i.i.i.i.i.i, align 8
  store i64 -1688849860263936, ptr %6, align 8
  br label %_ZN6hermes2vm13MutableHandleINS0_11HermesValueEEC2ERNS0_15HandleRootOwnerES2_.exit.i

if.end.i.i.i.i.i.i.i:                             ; preds = %if.end.i
  %call7.i.i.i.i.i.i.i = tail call noundef ptr @_ZN6hermes2vm7GCScope15_newChunkAndPHVENS0_11HermesValueE(ptr noundef nonnull align 8 dereferenceable(212) %5, i64 -1688849860263936) #9
  br label %_ZN6hermes2vm13MutableHandleINS0_11HermesValueEEC2ERNS0_15HandleRootOwnerES2_.exit.i

_ZN6hermes2vm13MutableHandleINS0_11HermesValueEEC2ERNS0_15HandleRootOwnerES2_.exit.i: ; preds = %if.end.i.i.i.i.i.i.i, %if.then.i.i.i.i.i.i.i
  %retval.0.i.i.i.i.i.i.i = phi ptr [ %6, %if.then.i.i.i.i.i.i.i ], [ %call7.i.i.i.i.i.i.i, %if.end.i.i.i.i.i.i.i ]
  %rootClazzes_.i.i = getelementptr inbounds %"class.hermes::vm::Runtime", ptr %runtime, i64 0, i32 133
  %retval.sroa.0.0.copyload.i.i.i.i = load i64, ptr %rootClazzes_.i.i, align 8
  %or.i.i.i.i.i.i.i = or i64 %retval.sroa.0.0.copyload.i.i.i.i, -281474976710656
  %8 = load ptr, ptr %topGCScope_.i.i.i.i.i, align 8, !noalias !42
  %next_.i.i.i.i.i.i.i.i.i = getelementptr inbounds %"class.hermes::vm::GCScope", ptr %8, i64 0, i32 4
  %9 = load ptr, ptr %next_.i.i.i.i.i.i.i.i.i, align 8, !noalias !42
  %curChunkEnd_.i.i.i.i.i.i.i.i = getelementptr inbounds %"class.hermes::vm::GCScope", ptr %8, i64 0, i32 5
  %10 = load ptr, ptr %curChunkEnd_.i.i.i.i.i.i.i.i, align 8, !noalias !42
  %cmp.i.i.i.i.i.i.i.i = icmp ult ptr %9, %10
  br i1 %cmp.i.i.i.i.i.i.i.i, label %if.then.i.i.i.i.i.i.i.i, label %if.end.i.i.i.i.i.i.i.i

if.then.i.i.i.i.i.i.i.i:                          ; preds = %_ZN6hermes2vm13MutableHandleINS0_11HermesValueEEC2ERNS0_15HandleRootOwnerES2_.exit.i
  %incdec.ptr.i.i.i.i.i.i.i.i = getelementptr inbounds %"class.hermes::vm::PinnedHermesValue", ptr %9, i64 1
  store ptr %incdec.ptr.i.i.i.i.i.i.i.i, ptr %next_.i.i.i.i.i.i.i.i.i, align 8, !noalias !42
  store i64 %or.i.i.i.i.i.i.i, ptr %9, align 8, !noalias !42
  br label %_ZN6hermes2vm15HandleRootOwner17makeMutableHandleINS0_11HiddenClassEEENS0_13MutableHandleIT_EEPS5_.exit.i

if.end.i.i.i.i.i.i.i.i:                           ; preds = %_ZN6hermes2vm13MutableHandleINS0_11HermesValueEEC2ERNS0_15HandleRootOwnerES2_.exit.i
  %call7.i.i.i.i.i.i.i.i = tail call noundef ptr @_ZN6hermes2vm7GCScope15_newChunkAndPHVENS0_11HermesValueE(ptr noundef nonnull align 8 dereferenceable(212) %8, i64 %or.i.i.i.i.i.i.i) #9, !noalias !42
  br label %_ZN6hermes2vm15HandleRootOwner17makeMutableHandleINS0_11HiddenClassEEENS0_13MutableHandleIT_EEPS5_.exit.i

_ZN6hermes2vm15HandleRootOwner17makeMutableHandleINS0_11HiddenClassEEENS0_13MutableHandleIT_EEPS5_.exit.i: ; preds = %if.end.i.i.i.i.i.i.i.i, %if.then.i.i.i.i.i.i.i.i
  %retval.0.i.i.i.i.i.i.i.i = phi ptr [ %9, %if.then.i.i.i.i.i.i.i.i ], [ %call7.i.i.i.i.i.i.i.i, %if.end.i.i.i.i.i.i.i.i ]
  %11 = load ptr, ptr %topGCScope_.i.i.i.i.i, align 8
  %next_.i.i.i = getelementptr inbounds %"class.hermes::vm::GCScope", ptr %11, i64 0, i32 4
  %12 = load ptr, ptr %next_.i.i.i, align 8
  %curChunkIndex_.i.i.i = getelementptr inbounds %"class.hermes::vm::GCScope", ptr %11, i64 0, i32 6
  %13 = load i32, ptr %curChunkIndex_.i.i.i, align 8
  call void @_ZNK6hermes2vm9CodeBlock22getObjectBufferKeyIterEjj(ptr nonnull sret(%"class.hermes::vm::SerializedLiteralParser") align 8 %keyGen.i, ptr noundef nonnull align 8 dereferenceable(40) %curCodeBlock, i32 noundef %keyBufferIndex, i32 noundef %numLiterals) #9
  %elemsLeft_.i.i = getelementptr inbounds %"class.hermes::hbc::SerializedLiteralParserBase", ptr %keyGen.i, i64 0, i32 1
  %14 = load i32, ptr %elemsLeft_.i.i, align 8
  %cmp.i.not32.i = icmp eq i32 %14, 0
  br i1 %cmp.i.not32.i, label %while.end.i, label %while.body.lr.ph.i

while.body.lr.ph.i:                               ; preds = %_ZN6hermes2vm15HandleRootOwner17makeMutableHandleINS0_11HiddenClassEEENS0_13MutableHandleIT_EEPS5_.exit.i
  %chunks_.i.i.i = getelementptr inbounds %"class.hermes::vm::GCScope", ptr %11, i64 0, i32 3
  %conv.i.i.i = zext i32 %13 to i64
  %curChunkEnd_.i.i.i = getelementptr inbounds %"class.hermes::vm::GCScope", ptr %11, i64 0, i32 5
  br label %while.body.i

while.body.i:                                     ; preds = %"_ZZN6hermes2vmL23getHiddenClassForBufferERNS0_7RuntimeEPNS0_9CodeBlockEjjENK3$_0clEv.exit.i", %while.body.lr.ph.i
  %call16.i = call i64 @_ZN6hermes2vm23SerializedLiteralParser3getERNS0_7RuntimeE(ptr noundef nonnull align 8 dereferenceable(40) %keyGen.i, ptr noundef nonnull align 8 dereferenceable(9832) %runtime) #9
  %shr.i.mask.i.i.i = and i64 %call16.i, -140737488355328
  %cmp.i.i.i = icmp eq i64 %shr.i.mask.i.i.i, -1266637395197952
  br i1 %cmp.i.i.i, label %if.then.i.i, label %if.end.i.i

if.then.i.i:                                      ; preds = %while.body.i
  %15 = load ptr, ptr %curCodeBlock, align 8
  %and.i.i15.i = and i64 %call16.i, 268435455
  %stringIDMap_.i.i.i = getelementptr inbounds %"class.hermes::vm::RuntimeModule", ptr %15, i64 0, i32 2
  %16 = load ptr, ptr %stringIDMap_.i.i.i, align 8
  %add.ptr.i.i.i.i = getelementptr inbounds %"class.hermes::vm::RootSymbolID", ptr %16, i64 %and.i.i15.i
  %retval.sroa.0.0.copyload.i.i.i = load i32, ptr %add.ptr.i.i.i.i, align 4
  br label %"_ZZN6hermes2vmL23getHiddenClassForBufferERNS0_7RuntimeEPNS0_9CodeBlockEjjENK3$_0clEv.exit.i"

if.end.i.i:                                       ; preds = %while.body.i
  store i64 %call16.i, ptr %retval.0.i.i.i.i.i.i.i, align 8
  %call13.i.i = call ptr @_ZN6hermes2vm15valueToSymbolIDERNS0_7RuntimeENS0_6HandleINS0_11HermesValueEEE(ptr noundef nonnull align 8 dereferenceable(9832) %runtime, ptr nonnull %retval.0.i.i.i.i.i.i.i) #9
  %retval.sroa.0.0.copyload.i.i.i.i.i = load i64, ptr %call13.i.i, align 8
  %conv.i.i.i.i.i.i = trunc i64 %retval.sroa.0.0.copyload.i.i.i.i.i to i32
  br label %"_ZZN6hermes2vmL23getHiddenClassForBufferERNS0_7RuntimeEPNS0_9CodeBlockEjjENK3$_0clEv.exit.i"

"_ZZN6hermes2vmL23getHiddenClassForBufferERNS0_7RuntimeEPNS0_9CodeBlockEjjENK3$_0clEv.exit.i": ; preds = %if.end.i.i, %if.then.i.i
  %retval.sroa.0.0.i.i = phi i32 [ %retval.sroa.0.0.copyload.i.i.i, %if.then.i.i ], [ %conv.i.i.i.i.i.i, %if.end.i.i ]
  call void @_ZN6hermes2vm11HiddenClass11addPropertyENS0_6HandleIS1_EERNS0_7RuntimeENS0_8SymbolIDENS0_13PropertyFlagsE(ptr nonnull sret(%"class.hermes::vm::CallResult.290") align 8 %addResult.i, ptr %retval.0.i.i.i.i.i.i.i.i, ptr noundef nonnull align 8 dereferenceable(9832) %runtime, i32 %retval.sroa.0.0.i.i, i16 14) #9
  %agg.tmp35.sroa.0.0.copyload.i = load ptr, ptr %addResult.i, align 8
  %retval.sroa.0.0.copyload.i.i.i.i16.i = load i64, ptr %agg.tmp35.sroa.0.0.copyload.i, align 8
  %or.i.i.i.i.i.i = or i64 %retval.sroa.0.0.copyload.i.i.i.i16.i, -281474976710656
  store i64 %or.i.i.i.i.i.i, ptr %retval.0.i.i.i.i.i.i.i.i, align 8
  %17 = load ptr, ptr %chunks_.i.i.i, align 8
  %arrayidx.i19.i.i.i = getelementptr inbounds ptr, ptr %17, i64 %conv.i.i.i
  %18 = load ptr, ptr %arrayidx.i19.i.i.i, align 8
  %add.ptr.i.i.i = getelementptr inbounds %"class.hermes::vm::PinnedHermesValue", ptr %18, i64 16
  store i32 %13, ptr %curChunkIndex_.i.i.i, align 8
  store ptr %add.ptr.i.i.i, ptr %curChunkEnd_.i.i.i, align 8
  store ptr %12, ptr %next_.i.i.i, align 8
  %19 = load i32, ptr %elemsLeft_.i.i, align 8
  %cmp.i.not.i = icmp eq i32 %19, 0
  br i1 %cmp.i.not.i, label %while.end.i, label %while.body.i, !llvm.loop !45

while.end.i:                                      ; preds = %"_ZZN6hermes2vmL23getHiddenClassForBufferERNS0_7RuntimeEPNS0_9CodeBlockEjjENK3$_0clEv.exit.i", %_ZN6hermes2vm15HandleRootOwner17makeMutableHandleINS0_11HiddenClassEEENS0_13MutableHandleIT_EEPS5_.exit.i
  %agg.tmp.sroa.0.0.copyload.i.i.i = load i64, ptr %retval.0.i.i.i.i.i.i.i.i, align 8
  %and.i.i.i.i.i20.i = and i64 %agg.tmp.sroa.0.0.copyload.i.i.i, 281474976710655
  %20 = inttoptr i64 %and.i.i.i.i.i20.i to ptr
  %flags_.i.i = getelementptr inbounds %"class.hermes::vm::HiddenClass", ptr %20, i64 0, i32 3
  %bf.load.i.i = load i8, ptr %flags_.i.i, align 2
  %bf.clear.i.i = and i8 %bf.load.i.i, 1
  %tobool.i21.not.i = icmp eq i8 %bf.clear.i.i, 0
  br i1 %tobool.i21.not.i, label %if.then42.i, label %if.end44.i

if.then42.i:                                      ; preds = %while.end.i
  call void @_ZN6hermes2vm13RuntimeModule26tryCacheLiteralHiddenClassERNS0_7RuntimeEjPNS0_11HiddenClassE(ptr noundef nonnull align 8 dereferenceable(192) %0, ptr noundef nonnull align 8 dereferenceable(9832) %runtime, i32 noundef %keyBufferIndex, ptr noundef nonnull %20) #9
  br label %if.end44.i

if.end44.i:                                       ; preds = %if.then42.i, %while.end.i
  %chunks_.i.i.i.i = getelementptr inbounds %"class.hermes::vm::GCScope", ptr %11, i64 0, i32 3
  %conv.i.i.i.i = zext i32 %13 to i64
  %21 = load ptr, ptr %chunks_.i.i.i.i, align 8
  %arrayidx.i19.i.i.i.i = getelementptr inbounds ptr, ptr %21, i64 %conv.i.i.i.i
  %22 = load ptr, ptr %arrayidx.i19.i.i.i.i, align 8
  %add.ptr.i.i.i25.i = getelementptr inbounds %"class.hermes::vm::PinnedHermesValue", ptr %22, i64 16
  store i32 %13, ptr %curChunkIndex_.i.i.i, align 8
  %curChunkEnd_.i.i.i.i = getelementptr inbounds %"class.hermes::vm::GCScope", ptr %11, i64 0, i32 5
  store ptr %add.ptr.i.i.i25.i, ptr %curChunkEnd_.i.i.i.i, align 8
  store ptr %12, ptr %next_.i.i.i, align 8
  br label %_ZN6hermes2vmL23getHiddenClassForBufferERNS0_7RuntimeEPNS0_9CodeBlockEjj.exit

_ZN6hermes2vmL23getHiddenClassForBufferERNS0_7RuntimeEPNS0_9CodeBlockEjj.exit: ; preds = %if.then.i, %if.end44.i
  %retval.sroa.0.0.i = phi ptr [ %4, %if.then.i ], [ %retval.0.i.i.i.i.i.i.i.i, %if.end44.i ]
  call void @llvm.lifetime.end.p0(i64 40, ptr nonnull %keyGen.i)
  call void @llvm.lifetime.end.p0(i64 24, ptr nonnull %addResult.i)
  %call4 = call ptr @_ZN6hermes2vm8JSObject6createERNS0_7RuntimeENS0_6HandleINS0_11HiddenClassEEE(ptr noundef nonnull align 8 dereferenceable(9832) %runtime, ptr %retval.sroa.0.0.i) #9
  %23 = ptrtoint ptr %call4 to i64
  %or.i.i.i.i.i = or i64 %23, -281474976710656
  %topGCScope_.i.i.i.i = getelementptr inbounds %"class.hermes::vm::HandleRootOwner", ptr %runtime, i64 0, i32 1
  %24 = load ptr, ptr %topGCScope_.i.i.i.i, align 8
  %next_.i.i.i.i.i.i.i = getelementptr inbounds %"class.hermes::vm::GCScope", ptr %24, i64 0, i32 4
  %25 = load ptr, ptr %next_.i.i.i.i.i.i.i, align 8
  %curChunkEnd_.i.i.i.i.i.i = getelementptr inbounds %"class.hermes::vm::GCScope", ptr %24, i64 0, i32 5
  %26 = load ptr, ptr %curChunkEnd_.i.i.i.i.i.i, align 8
  %cmp.i.i.i.i.i.i = icmp ult ptr %25, %26
  br i1 %cmp.i.i.i.i.i.i, label %if.then.i.i.i.i.i.i, label %if.end.i.i.i.i.i.i

if.then.i.i.i.i.i.i:                              ; preds = %_ZN6hermes2vmL23getHiddenClassForBufferERNS0_7RuntimeEPNS0_9CodeBlockEjj.exit
  %incdec.ptr.i.i.i.i.i.i = getelementptr inbounds %"class.hermes::vm::PinnedHermesValue", ptr %25, i64 1
  store ptr %incdec.ptr.i.i.i.i.i.i, ptr %next_.i.i.i.i.i.i.i, align 8
  store i64 %or.i.i.i.i.i, ptr %25, align 8
  br label %_ZN6hermes2vm15HandleRootOwner10makeHandleINS0_8JSObjectEEENS0_6HandleIT_EEONS0_12PseudoHandleIS5_EE.exit

if.end.i.i.i.i.i.i:                               ; preds = %_ZN6hermes2vmL23getHiddenClassForBufferERNS0_7RuntimeEPNS0_9CodeBlockEjj.exit
  %call7.i.i.i.i.i.i = call noundef ptr @_ZN6hermes2vm7GCScope15_newChunkAndPHVENS0_11HermesValueE(ptr noundef nonnull align 8 dereferenceable(212) %24, i64 %or.i.i.i.i.i) #9
  br label %_ZN6hermes2vm15HandleRootOwner10makeHandleINS0_8JSObjectEEENS0_6HandleIT_EEONS0_12PseudoHandleIS5_EE.exit

_ZN6hermes2vm15HandleRootOwner10makeHandleINS0_8JSObjectEEENS0_6HandleIT_EEONS0_12PseudoHandleIS5_EE.exit: ; preds = %if.then.i.i.i.i.i.i, %if.end.i.i.i.i.i.i
  %retval.0.i.i.i.i.i.i = phi ptr [ %25, %if.then.i.i.i.i.i.i ], [ %call7.i.i.i.i.i.i, %if.end.i.i.i.i.i.i ]
  call void @_ZNK6hermes2vm9CodeBlock24getObjectBufferValueIterEjj(ptr nonnull sret(%"class.hermes::vm::SerializedLiteralParser") align 8 %valGen, ptr noundef nonnull align 8 dereferenceable(40) %curCodeBlock, i32 noundef %valBufferIndex, i32 noundef %numLiterals) #9
  %elemsLeft_.i = getelementptr inbounds %"class.hermes::hbc::SerializedLiteralParserBase", ptr %valGen, i64 0, i32 1
  %27 = load i32, ptr %elemsLeft_.i, align 8
  %cmp.i.not23 = icmp eq i32 %27, 0
  br i1 %cmp.i.not23, label %while.end, label %while.body.lr.ph

while.body.lr.ph:                                 ; preds = %_ZN6hermes2vm15HandleRootOwner10makeHandleINS0_8JSObjectEEENS0_6HandleIT_EEONS0_12PseudoHandleIS5_EE.exit
  %28 = ptrtoint ptr %runtime to i64
  %level_.i.i.i.i.i.i.i.i.i = getelementptr inbounds %"class.hermes::vm::Runtime", ptr %runtime, i64 0, i32 97, i32 0, i32 5, i32 0, i32 1
  %effectiveEnd_.i.i.i.i.i.i.i.i.i.i = getelementptr inbounds %"class.hermes::vm::Runtime", ptr %runtime, i64 0, i32 97, i32 0, i32 5, i32 0, i32 2
  %heapStorage_.i.i.i.i.i = getelementptr inbounds %"class.hermes::vm::Runtime", ptr %runtime, i64 0, i32 97
  %youngGen_.i.i.i.i.i = getelementptr inbounds %"class.hermes::vm::Runtime", ptr %runtime, i64 0, i32 97, i32 0, i32 5
  br label %while.body

while.body:                                       ; preds = %while.body.lr.ph, %_ZN6hermes2vm8JSObject23setNamedSlotValueUnsafeILNS0_16ArrayStorageBaseINS0_13HermesValue32EE6InlineE0EEEvPS1_RNS0_7RuntimeEjS4_.exit
  %propIndex.024 = phi i32 [ 0, %while.body.lr.ph ], [ %inc, %_ZN6hermes2vm8JSObject23setNamedSlotValueUnsafeILNS0_16ArrayStorageBaseINS0_13HermesValue32EE6InlineE0EEEvPS1_RNS0_7RuntimeEjS4_.exit ]
  %call10 = call i64 @_ZN6hermes2vm23SerializedLiteralParser3getERNS0_7RuntimeE(ptr noundef nonnull align 8 dereferenceable(40) %valGen, ptr noundef nonnull align 8 dereferenceable(9832) %runtime) #9
  %shr.i.i = ashr i64 %call10, 47
  switch i64 %shr.i.i, label %sw.default.i [
    i64 -14, label %_ZN6hermes2vm13HermesValue3217encodeHermesValueENS0_11HermesValueERNS0_7RuntimeE.exit
    i64 -12, label %sw.bb3.i
    i64 -11, label %sw.bb6.i
    i64 -10, label %sw.bb9.i
    i64 -9, label %sw.bb13.i
    i64 -6, label %sw.bb19.i
    i64 -5, label %sw.bb19.i
    i64 -4, label %sw.bb23.i
    i64 -3, label %sw.bb23.i
    i64 -2, label %sw.bb27.i
    i64 -1, label %sw.bb27.i
  ]

sw.bb3.i:                                         ; preds = %while.body
  br label %_ZN6hermes2vm13HermesValue3217encodeHermesValueENS0_11HermesValueERNS0_7RuntimeE.exit

sw.bb6.i:                                         ; preds = %while.body
  br label %_ZN6hermes2vm13HermesValue3217encodeHermesValueENS0_11HermesValueERNS0_7RuntimeE.exit

sw.bb9.i:                                         ; preds = %while.body
  %and.i.i = and i64 %call10, 1
  %tobool.i.not.i11 = icmp eq i64 %and.i.i, 0
  %or.i.i.i = select i1 %tobool.i.not.i11, i32 6, i32 22
  br label %_ZN6hermes2vm13HermesValue3217encodeHermesValueENS0_11HermesValueERNS0_7RuntimeE.exit

sw.bb13.i:                                        ; preds = %while.body
  %conv.i.i = trunc i64 %call10 to i32
  %shl.i.i.i = shl i32 %conv.i.i, 3
  %or.i.i4.i = or disjoint i32 %shl.i.i.i, 5
  br label %_ZN6hermes2vm13HermesValue3217encodeHermesValueENS0_11HermesValueERNS0_7RuntimeE.exit

sw.bb19.i:                                        ; preds = %while.body, %while.body
  %sub.i.i.i.i.i.i = sub i64 %call10, %28
  %conv.i.i.i.i.i.i10 = trunc i64 %sub.i.i.i.i.i.i to i32
  %or.i.i.i.i = or i32 %conv.i.i.i.i.i.i10, 2
  br label %_ZN6hermes2vm13HermesValue3217encodeHermesValueENS0_11HermesValueERNS0_7RuntimeE.exit

sw.bb23.i:                                        ; preds = %while.body, %while.body
  %sub.i.i.i.i.i6.i = sub i64 %call10, %28
  %conv.i.i.i.i.i7.i = trunc i64 %sub.i.i.i.i.i6.i to i32
  %or.i.i.i8.i = or i32 %conv.i.i.i.i.i7.i, 1
  br label %_ZN6hermes2vm13HermesValue3217encodeHermesValueENS0_11HermesValueERNS0_7RuntimeE.exit

sw.bb27.i:                                        ; preds = %while.body, %while.body
  %sub.i.i.i.i.i10.i = sub i64 %call10, %28
  %conv.i.i.i.i.i11.i = trunc i64 %sub.i.i.i.i.i10.i to i32
  br label %_ZN6hermes2vm13HermesValue3217encodeHermesValueENS0_11HermesValueERNS0_7RuntimeE.exit

sw.default.i:                                     ; preds = %while.body
  %29 = bitcast i64 %call10 to double
  %conv.i.i.i.i.i = fptosi double %29 to i32
  %shl.i.i.i.i.i = shl i32 %conv.i.i.i.i.i, 3
  %shr.i.i.i.i.i = ashr exact i32 %shl.i.i.i.i.i, 3
  %conv.i12.i = sitofp i32 %shr.i.i.i.i.i to double
  %30 = bitcast double %conv.i12.i to i64
  %cmp.i.i = icmp eq i64 %call10, %30
  br i1 %cmp.i.i, label %if.then.i.i13, label %if.end.i.i12

if.then.i.i13:                                    ; preds = %sw.default.i
  %or.i.i16.i = or disjoint i32 %shl.i.i.i.i.i, 4
  br label %_ZN6hermes2vm13HermesValue3217encodeHermesValueENS0_11HermesValueERNS0_7RuntimeE.exit

if.end.i.i12:                                     ; preds = %sw.default.i
  %31 = load ptr, ptr %level_.i.i.i.i.i.i.i.i.i, align 8
  %add.ptr.i.i.i.i.i.i.i.i.i = getelementptr inbounds i8, ptr %31, i64 16
  %32 = load ptr, ptr %effectiveEnd_.i.i.i.i.i.i.i.i.i.i, align 8
  %cmp.i.i.i.i.i.i.i.i.i = icmp ugt ptr %add.ptr.i.i.i.i.i.i.i.i.i, %32
  br i1 %cmp.i.i.i.i.i.i.i.i.i, label %cond.true.i.i.i.i.i.i.i.i, label %cond.false.i.i.i.i.i.i.i.i

cond.true.i.i.i.i.i.i.i.i:                        ; preds = %if.end.i.i12
  %call3.i.i.i.i.i.i.i.i = call noundef ptr @_ZN6hermes2vm7HadesGC9allocSlowEj(ptr noundef nonnull align 8 dereferenceable(8152) %heapStorage_.i.i.i.i.i, i32 noundef 16) #9
  br label %_ZN6hermes2vm11BoxedDouble6createEdRNS0_7RuntimeE.exit.i.i

cond.false.i.i.i.i.i.i.i.i:                       ; preds = %if.end.i.i12
  store ptr %add.ptr.i.i.i.i.i.i.i.i.i, ptr %level_.i.i.i.i.i.i.i.i.i, align 8
  br label %_ZN6hermes2vm11BoxedDouble6createEdRNS0_7RuntimeE.exit.i.i

_ZN6hermes2vm11BoxedDouble6createEdRNS0_7RuntimeE.exit.i.i: ; preds = %cond.false.i.i.i.i.i.i.i.i, %cond.true.i.i.i.i.i.i.i.i
  %cond.i.i.i.i.i.i.i.i = phi ptr [ %call3.i.i.i.i.i.i.i.i, %cond.true.i.i.i.i.i.i.i.i ], [ %31, %cond.false.i.i.i.i.i.i.i.i ]
  %value_.i.i.i.i.i.i.i.i.i = getelementptr inbounds %"class.hermes::vm::BoxedDouble", ptr %cond.i.i.i.i.i.i.i.i, i64 0, i32 1
  store i64 %call10, ptr %value_.i.i.i.i.i.i.i.i.i, align 8
  store i32 402653200, ptr %cond.i.i.i.i.i.i.i.i, align 4
  %33 = ptrtoint ptr %cond.i.i.i.i.i.i.i.i to i64
  %sub.i.i.i.i.i13.i = sub i64 %33, %28
  %conv.i.i.i.i.i14.i = trunc i64 %sub.i.i.i.i.i13.i to i32
  %or.i.i.i15.i = or i32 %conv.i.i.i.i.i14.i, 3
  br label %_ZN6hermes2vm13HermesValue3217encodeHermesValueENS0_11HermesValueERNS0_7RuntimeE.exit

_ZN6hermes2vm13HermesValue3217encodeHermesValueENS0_11HermesValueERNS0_7RuntimeE.exit: ; preds = %while.body, %sw.bb3.i, %sw.bb6.i, %sw.bb9.i, %sw.bb13.i, %sw.bb19.i, %sw.bb23.i, %sw.bb27.i, %if.then.i.i13, %_ZN6hermes2vm11BoxedDouble6createEdRNS0_7RuntimeE.exit.i.i
  %retval.sroa.0.0.i9 = phi i32 [ %conv.i.i.i.i.i11.i, %sw.bb27.i ], [ %or.i.i.i8.i, %sw.bb23.i ], [ %or.i.i.i.i, %sw.bb19.i ], [ %or.i.i4.i, %sw.bb13.i ], [ %or.i.i.i, %sw.bb9.i ], [ 15, %sw.bb6.i ], [ 14, %sw.bb3.i ], [ 7, %while.body ], [ %or.i.i16.i, %if.then.i.i13 ], [ %or.i.i.i15.i, %_ZN6hermes2vm11BoxedDouble6createEdRNS0_7RuntimeE.exit.i.i ]
  %retval.sroa.0.0.copyload.i.i = load i64, ptr %retval.0.i.i.i.i.i.i, align 8
  %and.i.i.i.i = and i64 %retval.sroa.0.0.copyload.i.i, 281474976710655
  %34 = inttoptr i64 %and.i.i.i.i to ptr
  %cmp.i14 = icmp ult i32 %propIndex.024, 5
  br i1 %cmp.i14, label %if.then.i18, label %if.end.i15

if.then.i18:                                      ; preds = %_ZN6hermes2vm13HermesValue3217encodeHermesValueENS0_11HermesValueERNS0_7RuntimeE.exit
  %directProps_.i.i = getelementptr inbounds %"class.hermes::vm::JSObjectAndDirectProps", ptr %34, i64 0, i32 1
  %idxprom.i = zext nneg i32 %propIndex.024 to i64
  %arrayidx.i = getelementptr inbounds %"class.hermes::vm::GCHermesValueBase", ptr %directProps_.i.i, i64 %idxprom.i
  %35 = load ptr, ptr %youngGen_.i.i.i.i.i, align 8
  %36 = ptrtoint ptr %arrayidx.i to i64
  %and.i.i.i.i.i = and i64 %36, 1125899902648320
  %37 = inttoptr i64 %and.i.i.i.i.i to ptr
  %cmp.i.i.i.i = icmp eq ptr %35, %37
  br i1 %cmp.i.i.i.i, label %_ZN6hermes2vm8JSObject23setNamedSlotValueUnsafeILNS0_16ArrayStorageBaseINS0_13HermesValue32EE6InlineE0EEEvPS1_RNS0_7RuntimeEjS4_.exit, label %return.sink.split.i

if.end.i15:                                       ; preds = %_ZN6hermes2vm13HermesValue3217encodeHermesValueENS0_11HermesValueERNS0_7RuntimeE.exit
  %propStorage_.i = getelementptr inbounds %"class.hermes::vm::JSObject", ptr %34, i64 0, i32 4
  %agg.tmp.sroa.0.0.copyload.i.i.i16 = load i32, ptr %propStorage_.i, align 4
  %conv.i.i.i.i17 = zext i32 %agg.tmp.sroa.0.0.copyload.i.i.i16 to i64
  %add.i.i.i.i = add i64 %conv.i.i.i.i17, %28
  %38 = inttoptr i64 %add.i.i.i.i to ptr
  %sub.i = add i32 %propIndex.024, -5
