; ModuleID = 'bench/hermes/original/NativeState.cpp.ll'
source_filename = "bench/hermes/original/NativeState.cpp.ll"
target datalayout = "e-m:e-p270:32:32-p271:32:32-p272:64:64-i64:64-i128:128-f80:128-n8:16:32:64-S128"
target triple = "x86_64-unknown-linux-gnu"

%"struct.hermes::vm::VTable" = type { i64, i32, i32, ptr, ptr, ptr, ptr }
%"class.hermes::vm::NativeState" = type { %"class.hermes::vm::GCCell", ptr, ptr }
%"class.hermes::vm::GCCell" = type { %union.anon.158 }
%union.anon.158 = type { %"class.hermes::vm::KindAndSize" }
%"class.hermes::vm::KindAndSize" = type { i32 }
%"class.hermes::vm::Metadata::Builder" = type { ptr, %"class.std::map", %"class.std::map", %"class.std::map", %"class.std::map", %"class.hermes::OptValue", [3 x i8], %"class.hermes::OptValue.0", ptr }
%"class.std::map" = type { %"class.std::_Rb_tree" }
%"class.std::_Rb_tree" = type { %"struct.std::_Rb_tree<unsigned char, std::pair<const unsigned char, const char *>, std::_Select1st<std::pair<const unsigned char, const char *>>, std::less<unsigned char>>::_Rb_tree_impl" }
%"struct.std::_Rb_tree<unsigned char, std::pair<const unsigned char, const char *>, std::_Select1st<std::pair<const unsigned char, const char *>>, std::less<unsigned char>>::_Rb_tree_impl" = type { %"struct.std::_Rb_tree_key_compare", %"struct.std::_Rb_tree_header" }
%"struct.std::_Rb_tree_key_compare" = type { %"struct.std::less" }
%"struct.std::less" = type { i8 }
%"struct.std::_Rb_tree_header" = type { %"struct.std::_Rb_tree_node_base", i64 }
%"struct.std::_Rb_tree_node_base" = type { i32, ptr, ptr, ptr }
%"class.hermes::OptValue" = type { %"struct.hermes::vm::Metadata::ArrayData", i8 }
%"struct.hermes::vm::Metadata::ArrayData" = type { i8, i8, i8, i8 }
%"class.hermes::OptValue.0" = type <{ i32, i8, [3 x i8] }>
%"class.hermes::vm::Runtime" = type { %"class.hermes::vm::HandleRootOwner", %"struct.hermes::vm::GCBase::GCCallbacks", %"class.hermes::vm::PinnedHermesValue", %"class.hermes::vm::PinnedHermesValue", %"class.hermes::vm::PinnedHermesValue", %"class.hermes::vm::PinnedHermesValue", %"class.hermes::vm::PinnedHermesValue", %"class.hermes::vm::PinnedHermesValue", %"class.hermes::vm::PinnedHermesValue", %"class.hermes::vm::PinnedHermesValue", %"class.hermes::vm::PinnedHermesValue", %"class.hermes::vm::PinnedHermesValue", %"class.hermes::vm::PinnedHermesValue", %"class.hermes::vm::PinnedHermesValue", %"class.hermes::vm::PinnedHermesValue", %"class.hermes::vm::PinnedHermesValue", %"class.hermes::vm::PinnedHermesValue", %"class.hermes::vm::PinnedHermesValue", %"class.hermes::vm::PinnedHermesValue", %"class.hermes::vm::PinnedHermesValue", %"class.hermes::vm::PinnedHermesValue", %"class.hermes::vm::PinnedHermesValue", %"class.hermes::vm::PinnedHermesValue", %"class.hermes::vm::PinnedHermesValue", %"class.hermes::vm::PinnedHermesValue", %"class.hermes::vm::PinnedHermesValue", %"class.hermes::vm::PinnedHermesValue", %"class.hermes::vm::PinnedHermesValue", %"class.hermes::vm::PinnedHermesValue", %"class.hermes::vm::PinnedHermesValue", %"class.hermes::vm::PinnedHermesValue", %"class.hermes::vm::PinnedHermesValue", %"class.hermes::vm::PinnedHermesValue", %"class.hermes::vm::PinnedHermesValue", %"class.hermes::vm::PinnedHermesValue", %"class.hermes::vm::PinnedHermesValue", %"class.hermes::vm::PinnedHermesValue", %"class.hermes::vm::PinnedHermesValue", %"class.hermes::vm::PinnedHermesValue", %"class.hermes::vm::PinnedHermesValue", %"class.hermes::vm::PinnedHermesValue", %"class.hermes::vm::PinnedHermesValue", %"class.hermes::vm::PinnedHermesValue", %"class.hermes::vm::PinnedHermesValue", %"class.hermes::vm::PinnedHermesValue", %"class.hermes::vm::PinnedHermesValue", %"class.hermes::vm::PinnedHermesValue", %"class.hermes::vm::PinnedHermesValue", %"class.hermes::vm::PinnedHermesValue", %"class.hermes::vm::PinnedHermesValue", %"class.hermes::vm::PinnedHermesValue", %"class.hermes::vm::PinnedHermesValue", %"class.hermes::vm::PinnedHermesValue", %"class.hermes::vm::PinnedHermesValue", %"class.hermes::vm::PinnedHermesValue", %"class.hermes::vm::PinnedHermesValue", %"class.hermes::vm::PinnedHermesValue", %"class.hermes::vm::PinnedHermesValue", %"class.hermes::vm::PinnedHermesValue", %"class.hermes::vm::PinnedHermesValue", %"class.hermes::vm::PinnedHermesValue", %"class.hermes::vm::PinnedHermesValue", %"class.hermes::vm::PinnedHermesValue", %"class.hermes::vm::PinnedHermesValue", %"class.hermes::vm::PinnedHermesValue", %"class.hermes::vm::PinnedHermesValue", %"class.hermes::vm::PinnedHermesValue", %"class.hermes::vm::PinnedHermesValue", %"class.hermes::vm::PinnedHermesValue", %"class.hermes::vm::PinnedHermesValue", %"class.hermes::vm::PinnedHermesValue", %"class.hermes::vm::PinnedHermesValue", %"class.hermes::vm::PinnedHermesValue", %"class.hermes::vm::PinnedHermesValue", %"class.hermes::vm::PinnedHermesValue", %"class.hermes::vm::PinnedHermesValue", %"class.hermes::vm::PinnedHermesValue", %"class.hermes::vm::PinnedHermesValue", %"class.hermes::vm::PinnedHermesValue", %"class.hermes::vm::PinnedHermesValue", %"class.hermes::vm::PinnedHermesValue", %"class.hermes::vm::PinnedHermesValue", %"class.hermes::vm::PinnedHermesValue", %"class.hermes::vm::PinnedHermesValue", %"class.hermes::vm::PinnedHermesValue", %"class.hermes::vm::PinnedHermesValue", %"class.hermes::vm::PinnedHermesValue", %"class.hermes::vm::PinnedHermesValue", %"class.hermes::vm::PinnedHermesValue", %"class.hermes::vm::PinnedHermesValue", ptr, ptr, %"class.llvh::SmallVector", i8, i8, %"class.std::unique_ptr", %"class.std::shared_ptr", %"class.hermes::vm::GCStorage", %"class.std::vector.88", %"class.std::vector.93", %"class.std::vector.98", %"class.std::vector.98", i8, i8, i8, i8, i8, i8, i8, i8, i8, i8, i32, %"class.std::chrono::time_point", [17 x double], double, i32, [4 x i8], %"class.hermes::vm::IdentifierTable", %"class.hermes::vm::SymbolRegistry", %"class.std::unique_ptr.111", ptr, ptr, ptr, %"class.llvh::simple_ilist", %"class.hermes::vm::CrashTraceNoop", %"class.llvh::MutableArrayRef.119", ptr, ptr, ptr, %"class.std::shared_ptr.3", %"class.hermes::vm::StackFramePtrT", i32, %"struct.std::array.121", [1 x %"struct.hermes::vm::PropertyCacheEntry"], %"class.std::vector.122", %"class.std::vector.127", %"class.std::vector.132", i8, %"class.std::deque.137", i32, i32, %"class.std::unique_ptr.140", %"struct.std::atomic.148", %"class.std::vector.150", %"class.std::function.155", ptr }
%"class.hermes::vm::HandleRootOwner" = type { ptr, ptr }
%"struct.hermes::vm::GCBase::GCCallbacks" = type { ptr }
%"class.hermes::vm::PinnedHermesValue" = type { %"class.hermes::vm::HermesValue" }
%"class.hermes::vm::HermesValue" = type { i64 }
%"class.llvh::SmallVector" = type { %"class.llvh::SmallVectorImpl", %"struct.llvh::SmallVectorStorage" }
%"class.llvh::SmallVectorImpl" = type { %"class.llvh::SmallVectorTemplateBase" }
%"class.llvh::SmallVectorTemplateBase" = type { %"class.llvh::SmallVectorTemplateCommon" }
%"class.llvh::SmallVectorTemplateCommon" = type { %"class.llvh::SmallVectorBase" }
%"class.llvh::SmallVectorBase" = type { ptr, i32, i32 }
%"struct.llvh::SmallVectorStorage" = type { [4 x %"struct.llvh::AlignedCharArrayUnion"] }
%"struct.llvh::AlignedCharArrayUnion" = type { %"struct.llvh::AlignedCharArray" }
%"struct.llvh::AlignedCharArray" = type { [12 x i8] }
%"class.std::unique_ptr" = type { %"struct.std::__uniq_ptr_data" }
%"struct.std::__uniq_ptr_data" = type { %"class.std::__uniq_ptr_impl" }
%"class.std::__uniq_ptr_impl" = type { %"class.std::tuple" }
%"class.std::tuple" = type { %"struct.std::_Tuple_impl" }
%"struct.std::_Tuple_impl" = type { %"struct.std::_Head_base.2" }
%"struct.std::_Head_base.2" = type { ptr }
%"class.std::shared_ptr" = type { %"class.std::__shared_ptr" }
%"class.std::__shared_ptr" = type { ptr, %"class.std::__shared_count" }
%"class.std::__shared_count" = type { ptr }
%"class.hermes::vm::GCStorage" = type { %"class.hermes::vm::HadesGC" }
%"class.hermes::vm::HadesGC" = type { %"class.hermes::vm::GCBase.base", i64, i64, %"class.std::vector.29", %"class.std::shared_ptr.34", %"class.hermes::vm::HadesGC::HeapSegment", %"class.hermes::vm::AssignableCompressedPointer", %"class.std::vector.37", double, %"class.hermes::vm::HadesGC::OldGen", %"class.std::recursive_mutex", %"struct.std::atomic", %"class.std::_V2::condition_variable_any", i8, i8, %"class.std::unique_ptr.58", %"class.std::unique_ptr.66", %"class.std::future", i8, i8, i8, double, %"class.hermes::ExponentialMovingAverage", %"class.std::unique_ptr.77", %"class.std::unique_ptr.77", %"struct.hermes::vm::GCBase::CumulativeHeapStats", %"struct.hermes::vm::GCBase::CumulativeHeapStats", %"class.hermes::ExponentialMovingAverage", i64, %"struct.hermes::vm::HadesGC::CompacteeState", i64, %"struct.hermes::vm::HadesGC::NativeIDs" }
%"class.hermes::vm::GCBase.base" = type <{ ptr, i32, [4 x i8], i64, %"class.hermes::vm::GCExecTrace", [7 x i8], ptr, ptr, %"class.std::shared_ptr.3", i32, [4 x i8], %"class.std::function", %"class.std::vector", i8, i8, i8, i8, [4 x i8], %"class.std::chrono::time_point", %"class.std::chrono::duration.9", i64, i64, %"struct.hermes::vm::GCBase::CumulativeHeapStats", %"class.std::__cxx11::basic_string", %"class.std::deque", ptr, %"class.std::recursive_mutex", %"class.hermes::vm::GCBase::IDTracker", [3 x i64], %"class.std::function.26", i32, i8 }>
%"class.hermes::vm::GCExecTrace" = type { i8 }
%"class.std::function" = type { %"class.std::_Function_base", ptr }
%"class.std::_Function_base" = type { %"union.std::_Any_data", ptr }
%"union.std::_Any_data" = type { %"union.std::_Nocopy_types" }
%"union.std::_Nocopy_types" = type { { i64, i64 } }
%"class.std::vector" = type { %"struct.std::_Vector_base" }
%"struct.std::_Vector_base" = type { %"struct.std::_Vector_base<hermes::vm::GCAnalyticsEvent, std::allocator<hermes::vm::GCAnalyticsEvent>>::_Vector_impl" }
%"struct.std::_Vector_base<hermes::vm::GCAnalyticsEvent, std::allocator<hermes::vm::GCAnalyticsEvent>>::_Vector_impl" = type { %"struct.std::_Vector_base<hermes::vm::GCAnalyticsEvent, std::allocator<hermes::vm::GCAnalyticsEvent>>::_Vector_impl_data" }
%"struct.std::_Vector_base<hermes::vm::GCAnalyticsEvent, std::allocator<hermes::vm::GCAnalyticsEvent>>::_Vector_impl_data" = type { ptr, ptr, ptr }
%"class.std::chrono::duration.9" = type { i64 }
%"class.std::__cxx11::basic_string" = type { %"struct.std::__cxx11::basic_string<char>::_Alloc_hider", i64, %union.anon }
%"struct.std::__cxx11::basic_string<char>::_Alloc_hider" = type { ptr }
%union.anon = type { i64, [8 x i8] }
%"class.std::deque" = type { %"class.std::_Deque_base" }
%"class.std::_Deque_base" = type { %"struct.std::_Deque_base<hermes::vm::WeakRefSlot, std::allocator<hermes::vm::WeakRefSlot>>::_Deque_impl" }
%"struct.std::_Deque_base<hermes::vm::WeakRefSlot, std::allocator<hermes::vm::WeakRefSlot>>::_Deque_impl" = type { %"struct.std::_Deque_base<hermes::vm::WeakRefSlot, std::allocator<hermes::vm::WeakRefSlot>>::_Deque_impl_data" }
%"struct.std::_Deque_base<hermes::vm::WeakRefSlot, std::allocator<hermes::vm::WeakRefSlot>>::_Deque_impl_data" = type { ptr, i64, %"struct.std::_Deque_iterator", %"struct.std::_Deque_iterator" }
%"struct.std::_Deque_iterator" = type { ptr, ptr, ptr, ptr }
%"class.hermes::vm::GCBase::IDTracker" = type { %"class.std::recursive_mutex", i32, [4 x i8], %"class.llvh::DenseMap", %"class.llvh::DenseMap", %"class.llvh::DenseMap.17", %"class.llvh::DenseMap.20", %"class.llvh::DenseMap", %"class.llvh::DenseMap.23" }
%"class.llvh::DenseMap.17" = type <{ ptr, i32, i32, i32, [4 x i8] }>
%"class.llvh::DenseMap.20" = type <{ ptr, i32, i32, i32, [4 x i8] }>
%"class.llvh::DenseMap" = type <{ ptr, i32, i32, i32, [4 x i8] }>
%"class.llvh::DenseMap.23" = type <{ ptr, i32, i32, i32, [4 x i8] }>
%"class.std::function.26" = type { %"class.std::_Function_base", ptr }
%"class.std::vector.29" = type { %"struct.std::_Vector_base.30" }
%"struct.std::_Vector_base.30" = type { %"struct.std::_Vector_base<unsigned long, std::allocator<unsigned long>>::_Vector_impl" }
%"struct.std::_Vector_base<unsigned long, std::allocator<unsigned long>>::_Vector_impl" = type { %"struct.std::_Vector_base<unsigned long, std::allocator<unsigned long>>::_Vector_impl_data" }
%"struct.std::_Vector_base<unsigned long, std::allocator<unsigned long>>::_Vector_impl_data" = type { ptr, ptr, ptr }
%"class.std::shared_ptr.34" = type { %"class.std::__shared_ptr.35" }
%"class.std::__shared_ptr.35" = type { ptr, %"class.std::__shared_count" }
%"class.hermes::vm::HadesGC::HeapSegment" = type { %"class.hermes::vm::AlignedHeapSegment" }
%"class.hermes::vm::AlignedHeapSegment" = type { %"struct.hermes::vm::AlignedStorage", ptr, ptr }
%"struct.hermes::vm::AlignedStorage" = type { ptr, ptr }
%"class.hermes::vm::AssignableCompressedPointer" = type { %"class.hermes::vm::CompressedPointer" }
%"class.hermes::vm::CompressedPointer" = type { %"class.hermes::vm::BasedPointer" }
%"class.hermes::vm::BasedPointer" = type { i32 }
%"class.std::vector.37" = type { %"struct.std::_Vector_base.38" }
%"struct.std::_Vector_base.38" = type { %"struct.std::_Vector_base<hermes::vm::GCCell *, std::allocator<hermes::vm::GCCell *>>::_Vector_impl" }
%"struct.std::_Vector_base<hermes::vm::GCCell *, std::allocator<hermes::vm::GCCell *>>::_Vector_impl" = type { %"struct.std::_Vector_base<hermes::vm::GCCell *, std::allocator<hermes::vm::GCCell *>>::_Vector_impl_data" }
%"struct.std::_Vector_base<hermes::vm::GCCell *, std::allocator<hermes::vm::GCCell *>>::_Vector_impl_data" = type { ptr, ptr, ptr }
%"class.hermes::vm::HadesGC::OldGen" = type { ptr, %"class.std::deque.42", %"class.hermes::ExponentialMovingAverage", i64, i64, %"class.hermes::BitArray", %"class.std::deque.48", %"struct.std::array.54", %"struct.hermes::vm::HadesGC::OldGen::SweepIterator" }
%"class.std::deque.42" = type { %"class.std::_Deque_base.43" }
%"class.std::_Deque_base.43" = type { %"struct.std::_Deque_base<hermes::vm::HadesGC::HeapSegment, std::allocator<hermes::vm::HadesGC::HeapSegment>>::_Deque_impl" }
%"struct.std::_Deque_base<hermes::vm::HadesGC::HeapSegment, std::allocator<hermes::vm::HadesGC::HeapSegment>>::_Deque_impl" = type { %"struct.std::_Deque_base<hermes::vm::HadesGC::HeapSegment, std::allocator<hermes::vm::HadesGC::HeapSegment>>::_Deque_impl_data" }
%"struct.std::_Deque_base<hermes::vm::HadesGC::HeapSegment, std::allocator<hermes::vm::HadesGC::HeapSegment>>::_Deque_impl_data" = type { ptr, i64, %"struct.std::_Deque_iterator.47", %"struct.std::_Deque_iterator.47" }
%"struct.std::_Deque_iterator.47" = type { ptr, ptr, ptr, ptr }
%"class.hermes::BitArray" = type { %"struct.std::array" }
%"struct.std::array" = type { [5 x i64] }
%"class.std::deque.48" = type { %"class.std::_Deque_base.49" }
%"class.std::_Deque_base.49" = type { %"struct.std::_Deque_base<std::array<hermes::vm::HadesGC::OldGen::SegmentBucket, 267>, std::allocator<std::array<hermes::vm::HadesGC::OldGen::SegmentBucket, 267>>>::_Deque_impl" }
%"struct.std::_Deque_base<std::array<hermes::vm::HadesGC::OldGen::SegmentBucket, 267>, std::allocator<std::array<hermes::vm::HadesGC::OldGen::SegmentBucket, 267>>>::_Deque_impl" = type { %"struct.std::_Deque_base<std::array<hermes::vm::HadesGC::OldGen::SegmentBucket, 267>, std::allocator<std::array<hermes::vm::HadesGC::OldGen::SegmentBucket, 267>>>::_Deque_impl_data" }
%"struct.std::_Deque_base<std::array<hermes::vm::HadesGC::OldGen::SegmentBucket, 267>, std::allocator<std::array<hermes::vm::HadesGC::OldGen::SegmentBucket, 267>>>::_Deque_impl_data" = type { ptr, i64, %"struct.std::_Deque_iterator.53", %"struct.std::_Deque_iterator.53" }
%"struct.std::_Deque_iterator.53" = type { ptr, ptr, ptr, ptr }
%"struct.std::array.54" = type { [267 x %"struct.hermes::vm::HadesGC::OldGen::SegmentBucket"] }
%"struct.hermes::vm::HadesGC::OldGen::SegmentBucket" = type <{ ptr, ptr, %"class.hermes::vm::AssignableCompressedPointer", [4 x i8] }>
%"struct.hermes::vm::HadesGC::OldGen::SweepIterator" = type { i64, i64, i64 }
%"class.std::recursive_mutex" = type { %"class.std::__recursive_mutex_base" }
%"class.std::__recursive_mutex_base" = type { %union.pthread_mutex_t }
%union.pthread_mutex_t = type { %struct.__pthread_mutex_s }
%struct.__pthread_mutex_s = type { i32, i32, i32, i32, i32, i16, i16, %struct.__pthread_internal_list }
%struct.__pthread_internal_list = type { ptr, ptr }
%"struct.std::atomic" = type { %"struct.std::__atomic_base" }
%"struct.std::__atomic_base" = type { i8 }
%"class.std::_V2::condition_variable_any" = type { %"class.std::condition_variable", %"class.std::shared_ptr.55" }
%"class.std::condition_variable" = type { %"class.std::__condvar" }
%"class.std::__condvar" = type { %union.pthread_cond_t }
%union.pthread_cond_t = type { %struct.__pthread_cond_s }
%struct.__pthread_cond_s = type { %union.__atomic_wide_counter, %union.__atomic_wide_counter, [2 x i32], [2 x i32], i32, i32, [2 x i32] }
%union.__atomic_wide_counter = type { i64 }
%"class.std::shared_ptr.55" = type { %"class.std::__shared_ptr.56" }
%"class.std::__shared_ptr.56" = type { ptr, %"class.std::__shared_count" }
%"class.std::unique_ptr.58" = type { %"struct.std::__uniq_ptr_data.59" }
%"struct.std::__uniq_ptr_data.59" = type { %"class.std::__uniq_ptr_impl.60" }
%"class.std::__uniq_ptr_impl.60" = type { %"class.std::tuple.61" }
%"class.std::tuple.61" = type { %"struct.std::_Tuple_impl.62" }
%"struct.std::_Tuple_impl.62" = type { %"struct.std::_Head_base.65" }
%"struct.std::_Head_base.65" = type { ptr }
%"class.std::unique_ptr.66" = type { %"struct.std::__uniq_ptr_data.67" }
%"struct.std::__uniq_ptr_data.67" = type { %"class.std::__uniq_ptr_impl.68" }
%"class.std::__uniq_ptr_impl.68" = type { %"class.std::tuple.69" }
%"class.std::tuple.69" = type { %"struct.std::_Tuple_impl.70" }
%"struct.std::_Tuple_impl.70" = type { %"struct.std::_Head_base.73" }
%"struct.std::_Head_base.73" = type { ptr }
%"class.std::future" = type { %"class.std::__basic_future" }
%"class.std::__basic_future" = type { %"class.std::shared_ptr.74" }
%"class.std::shared_ptr.74" = type { %"class.std::__shared_ptr.75" }
%"class.std::__shared_ptr.75" = type { ptr, %"class.std::__shared_count" }
%"class.std::unique_ptr.77" = type { %"struct.std::__uniq_ptr_data.78" }
%"struct.std::__uniq_ptr_data.78" = type { %"class.std::__uniq_ptr_impl.79" }
%"class.std::__uniq_ptr_impl.79" = type { %"class.std::tuple.80" }
%"class.std::tuple.80" = type { %"struct.std::_Tuple_impl.81" }
%"struct.std::_Tuple_impl.81" = type { %"struct.std::_Head_base.84" }
%"struct.std::_Head_base.84" = type { ptr }
%"struct.hermes::vm::GCBase::CumulativeHeapStats" = type { i32, %"class.hermes::StatsAccumulator", %"class.hermes::StatsAccumulator", i32, %"class.hermes::StatsAccumulator.10", %"class.hermes::StatsAccumulator.10" }
%"class.hermes::StatsAccumulator" = type { i32, double, double, double, double }
%"class.hermes::StatsAccumulator.10" = type { i32, i64, i32, i32, double }
%"class.hermes::ExponentialMovingAverage" = type { double, double }
%"struct.hermes::vm::HadesGC::CompacteeState" = type { ptr, %"class.hermes::vm::AssignableCompressedPointer", ptr, %"class.hermes::vm::AssignableCompressedPointer", %"class.std::shared_ptr.85" }
%"class.std::shared_ptr.85" = type { %"class.std::__shared_ptr.86" }
%"class.std::__shared_ptr.86" = type { ptr, %"class.std::__shared_count" }
%"struct.hermes::vm::HadesGC::NativeIDs" = type { i32, i32 }
%"class.std::vector.88" = type { %"struct.std::_Vector_base.89" }
%"struct.std::_Vector_base.89" = type { %"struct.std::_Vector_base<std::function<void (hermes::vm::HadesGC *, hermes::vm::RootAcceptor &)>, std::allocator<std::function<void (hermes::vm::HadesGC *, hermes::vm::RootAcceptor &)>>>::_Vector_impl" }
%"struct.std::_Vector_base<std::function<void (hermes::vm::HadesGC *, hermes::vm::RootAcceptor &)>, std::allocator<std::function<void (hermes::vm::HadesGC *, hermes::vm::RootAcceptor &)>>>::_Vector_impl" = type { %"struct.std::_Vector_base<std::function<void (hermes::vm::HadesGC *, hermes::vm::RootAcceptor &)>, std::allocator<std::function<void (hermes::vm::HadesGC *, hermes::vm::RootAcceptor &)>>>::_Vector_impl_data" }
%"struct.std::_Vector_base<std::function<void (hermes::vm::HadesGC *, hermes::vm::RootAcceptor &)>, std::allocator<std::function<void (hermes::vm::HadesGC *, hermes::vm::RootAcceptor &)>>>::_Vector_impl_data" = type { ptr, ptr, ptr }
%"class.std::vector.93" = type { %"struct.std::_Vector_base.94" }
%"struct.std::_Vector_base.94" = type { %"struct.std::_Vector_base<std::function<void (hermes::vm::HadesGC *, hermes::vm::WeakRootAcceptor &)>, std::allocator<std::function<void (hermes::vm::HadesGC *, hermes::vm::WeakRootAcceptor &)>>>::_Vector_impl" }
%"struct.std::_Vector_base<std::function<void (hermes::vm::HadesGC *, hermes::vm::WeakRootAcceptor &)>, std::allocator<std::function<void (hermes::vm::HadesGC *, hermes::vm::WeakRootAcceptor &)>>>::_Vector_impl" = type { %"struct.std::_Vector_base<std::function<void (hermes::vm::HadesGC *, hermes::vm::WeakRootAcceptor &)>, std::allocator<std::function<void (hermes::vm::HadesGC *, hermes::vm::WeakRootAcceptor &)>>>::_Vector_impl_data" }
%"struct.std::_Vector_base<std::function<void (hermes::vm::HadesGC *, hermes::vm::WeakRootAcceptor &)>, std::allocator<std::function<void (hermes::vm::HadesGC *, hermes::vm::WeakRootAcceptor &)>>>::_Vector_impl_data" = type { ptr, ptr, ptr }
%"class.std::vector.98" = type { %"struct.std::_Vector_base.99" }
%"struct.std::_Vector_base.99" = type { %"struct.std::_Vector_base<std::function<void (hermes::vm::HeapSnapshot &)>, std::allocator<std::function<void (hermes::vm::HeapSnapshot &)>>>::_Vector_impl" }
%"struct.std::_Vector_base<std::function<void (hermes::vm::HeapSnapshot &)>, std::allocator<std::function<void (hermes::vm::HeapSnapshot &)>>>::_Vector_impl" = type { %"struct.std::_Vector_base<std::function<void (hermes::vm::HeapSnapshot &)>, std::allocator<std::function<void (hermes::vm::HeapSnapshot &)>>>::_Vector_impl_data" }
%"struct.std::_Vector_base<std::function<void (hermes::vm::HeapSnapshot &)>, std::allocator<std::function<void (hermes::vm::HeapSnapshot &)>>>::_Vector_impl_data" = type { ptr, ptr, ptr }
%"class.std::chrono::time_point" = type { %"class.std::chrono::duration" }
%"class.std::chrono::duration" = type { i64 }
%"class.hermes::vm::IdentifierTable" = type <{ %"class.hermes::vm::IdentifierTable::ConservativeVector", %"class.llvh::BitVector", %"class.hermes::vm::detail::IdentifierHashTable", i32, [4 x i8] }>
%"class.hermes::vm::IdentifierTable::ConservativeVector" = type { %"class.std::vector.103" }
%"class.std::vector.103" = type { %"struct.std::_Vector_base.104" }
%"struct.std::_Vector_base.104" = type { %"struct.std::_Vector_base<hermes::vm::IdentifierTable::LookupEntry, std::allocator<hermes::vm::IdentifierTable::LookupEntry>>::_Vector_impl" }
%"struct.std::_Vector_base<hermes::vm::IdentifierTable::LookupEntry, std::allocator<hermes::vm::IdentifierTable::LookupEntry>>::_Vector_impl" = type { %"struct.std::_Vector_base<hermes::vm::IdentifierTable::LookupEntry, std::allocator<hermes::vm::IdentifierTable::LookupEntry>>::_Vector_impl_data" }
%"struct.std::_Vector_base<hermes::vm::IdentifierTable::LookupEntry, std::allocator<hermes::vm::IdentifierTable::LookupEntry>>::_Vector_impl_data" = type { ptr, ptr, ptr }
%"class.llvh::BitVector" = type <{ %"class.llvh::MutableArrayRef", i32, [4 x i8] }>
%"class.llvh::MutableArrayRef" = type { %"class.llvh::ArrayRef" }
%"class.llvh::ArrayRef" = type { ptr, i64 }
%"class.hermes::vm::detail::IdentifierHashTable" = type { %"class.hermes::CompactTable", ptr, i32, i32 }
%"class.hermes::CompactTable" = type { %"class.hermes::CompactArray" }
%"class.hermes::CompactArray" = type { i32, i32, ptr }
%"class.hermes::vm::SymbolRegistry" = type { %"class.hermes::vm::PinnedHermesValue", %"class.llvh::DenseSet" }
%"class.llvh::DenseSet" = type { %"class.llvh::detail::DenseSetImpl" }
%"class.llvh::detail::DenseSetImpl" = type { %"class.llvh::DenseMap.108" }
%"class.llvh::DenseMap.108" = type <{ ptr, i32, i32, i32, [4 x i8] }>
%"class.std::unique_ptr.111" = type { %"struct.std::__uniq_ptr_data.112" }
%"struct.std::__uniq_ptr_data.112" = type { %"class.std::__uniq_ptr_impl.113" }
%"class.std::__uniq_ptr_impl.113" = type { %"class.std::tuple.114" }
%"class.std::tuple.114" = type { %"struct.std::_Tuple_impl.115" }
%"struct.std::_Tuple_impl.115" = type { %"struct.std::_Head_base.118" }
%"struct.std::_Head_base.118" = type { ptr }
%"class.llvh::simple_ilist" = type { %"class.llvh::ilist_sentinel" }
%"class.llvh::ilist_sentinel" = type { %"class.llvh::ilist_node_impl" }
%"class.llvh::ilist_node_impl" = type { %"class.llvh::ilist_node_base" }
%"class.llvh::ilist_node_base" = type { ptr, ptr }
%"class.hermes::vm::CrashTraceNoop" = type { i8 }
%"class.llvh::MutableArrayRef.119" = type { %"class.llvh::ArrayRef.120" }
%"class.llvh::ArrayRef.120" = type { ptr, i64 }
%"class.std::shared_ptr.3" = type { %"class.std::__shared_ptr.4" }
%"class.std::__shared_ptr.4" = type { ptr, %"class.std::__shared_count" }
%"class.hermes::vm::StackFramePtrT" = type { ptr }
%"struct.std::array.121" = type { [8 x %"class.hermes::vm::PinnedHermesValue"] }
%"struct.hermes::vm::PropertyCacheEntry" = type { %"class.hermes::vm::WeakRoot", i32 }
%"class.hermes::vm::WeakRoot" = type { %"class.hermes::vm::WeakRootBase" }
%"class.hermes::vm::WeakRootBase" = type { %"class.hermes::vm::CompressedPointer" }
%"class.std::vector.122" = type { %"struct.std::_Vector_base.123" }
%"struct.std::_Vector_base.123" = type { %"struct.std::_Vector_base<hermes::vm::PinnedHermesValue, std::allocator<hermes::vm::PinnedHermesValue>>::_Vector_impl" }
%"struct.std::_Vector_base<hermes::vm::PinnedHermesValue, std::allocator<hermes::vm::PinnedHermesValue>>::_Vector_impl" = type { %"struct.std::_Vector_base<hermes::vm::PinnedHermesValue, std::allocator<hermes::vm::PinnedHermesValue>>::_Vector_impl_data" }
%"struct.std::_Vector_base<hermes::vm::PinnedHermesValue, std::allocator<hermes::vm::PinnedHermesValue>>::_Vector_impl_data" = type { ptr, ptr, ptr }
%"class.std::vector.127" = type { %"struct.std::_Vector_base.128" }
%"struct.std::_Vector_base.128" = type { %"struct.std::_Vector_base<hermes::vm::JSObject *, std::allocator<hermes::vm::JSObject *>>::_Vector_impl" }
%"struct.std::_Vector_base<hermes::vm::JSObject *, std::allocator<hermes::vm::JSObject *>>::_Vector_impl" = type { %"struct.std::_Vector_base<hermes::vm::JSObject *, std::allocator<hermes::vm::JSObject *>>::_Vector_impl_data" }
%"struct.std::_Vector_base<hermes::vm::JSObject *, std::allocator<hermes::vm::JSObject *>>::_Vector_impl_data" = type { ptr, ptr, ptr }
%"class.std::vector.132" = type { %"struct.std::_Vector_base.133" }
%"struct.std::_Vector_base.133" = type { %"struct.std::_Vector_base<hermes::vm::Callable *, std::allocator<hermes::vm::Callable *>>::_Vector_impl" }
%"struct.std::_Vector_base<hermes::vm::Callable *, std::allocator<hermes::vm::Callable *>>::_Vector_impl" = type { %"struct.std::_Vector_base<hermes::vm::Callable *, std::allocator<hermes::vm::Callable *>>::_Vector_impl_data" }
%"struct.std::_Vector_base<hermes::vm::Callable *, std::allocator<hermes::vm::Callable *>>::_Vector_impl_data" = type { ptr, ptr, ptr }
%"class.std::deque.137" = type { %"class.std::_Deque_base.138" }
%"class.std::_Deque_base.138" = type { %"struct.std::_Deque_base<hermes::vm::Callable *, std::allocator<hermes::vm::Callable *>>::_Deque_impl" }
%"struct.std::_Deque_base<hermes::vm::Callable *, std::allocator<hermes::vm::Callable *>>::_Deque_impl" = type { %"struct.std::_Deque_base<hermes::vm::Callable *, std::allocator<hermes::vm::Callable *>>::_Deque_impl_data" }
%"struct.std::_Deque_base<hermes::vm::Callable *, std::allocator<hermes::vm::Callable *>>::_Deque_impl_data" = type { ptr, i64, %"struct.std::_Deque_iterator.139", %"struct.std::_Deque_iterator.139" }
%"struct.std::_Deque_iterator.139" = type { ptr, ptr, ptr, ptr }
%"class.std::unique_ptr.140" = type { %"struct.std::__uniq_ptr_data.141" }
%"struct.std::__uniq_ptr_data.141" = type { %"class.std::__uniq_ptr_impl.142" }
%"class.std::__uniq_ptr_impl.142" = type { %"class.std::tuple.143" }
%"class.std::tuple.143" = type { %"struct.std::_Tuple_impl.144" }
%"struct.std::_Tuple_impl.144" = type { %"struct.std::_Head_base.147" }
%"struct.std::_Head_base.147" = type { ptr }
%"struct.std::atomic.148" = type { %"struct.std::__atomic_base.149" }
%"struct.std::__atomic_base.149" = type { i8 }
%"class.std::vector.150" = type { %"struct.std::_Vector_base.151" }
%"struct.std::_Vector_base.151" = type { %"struct.std::_Vector_base<std::shared_ptr<hermes::hbc::BCProviderFromBuffer>, std::allocator<std::shared_ptr<hermes::hbc::BCProviderFromBuffer>>>::_Vector_impl" }
%"struct.std::_Vector_base<std::shared_ptr<hermes::hbc::BCProviderFromBuffer>, std::allocator<std::shared_ptr<hermes::hbc::BCProviderFromBuffer>>>::_Vector_impl" = type { %"struct.std::_Vector_base<std::shared_ptr<hermes::hbc::BCProviderFromBuffer>, std::allocator<std::shared_ptr<hermes::hbc::BCProviderFromBuffer>>>::_Vector_impl_data" }
%"struct.std::_Vector_base<std::shared_ptr<hermes::hbc::BCProviderFromBuffer>, std::allocator<std::shared_ptr<hermes::hbc::BCProviderFromBuffer>>>::_Vector_impl_data" = type { ptr, ptr, ptr }
%"class.std::function.155" = type { %"class.std::_Function_base", ptr }

$_ZN6hermes2vm7HadesGC9allocWorkILb1ELNS0_12HasFinalizerE1EEEPvj = comdat any

@_ZN6hermes2vm11NativeState2vtE = hidden constant %"struct.hermes::vm::VTable" { i64 -47381121442796770, i32 25, i32 24, ptr @_ZN6hermes2vm11NativeState13_finalizeImplEPNS0_6GCCellERNS0_7HadesGCE, ptr null, ptr null, ptr null }, align 8
@.str = private unnamed_addr constant [26 x i8] c"vector::_M_realloc_insert\00", align 1

; Function Attrs: mustprogress nounwind uwtable
define hidden void @_ZN6hermes2vm11NativeState13_finalizeImplEPNS0_6GCCellERNS0_7HadesGCE(ptr noundef %cell, ptr noundef nonnull align 8 dereferenceable(8152) %gc) #0 align 2 {
entry:
  %finalizePtr_ = getelementptr inbounds %"class.hermes::vm::NativeState", ptr %cell, i64 0, i32 2
  %0 = load ptr, ptr %finalizePtr_, align 8
  tail call void %0(ptr noundef nonnull align 8 dereferenceable(8152) %gc, ptr noundef %cell) #8
  ret void
}

; Function Attrs: mustprogress nofree norecurse nosync nounwind willreturn memory(argmem: write) uwtable
define hidden void @_ZN6hermes2vm20NativeStateBuildMetaEPKNS0_6GCCellERNS0_8Metadata7BuilderE(ptr nocapture noundef readnone %cell, ptr nocapture noundef nonnull writeonly align 8 dereferenceable(224) %mb) local_unnamed_addr #1 {
entry:
  %vtp_.i = getelementptr inbounds %"class.hermes::vm::Metadata::Builder", ptr %mb, i64 0, i32 8
  store ptr @_ZN6hermes2vm11NativeState2vtE, ptr %vtp_.i, align 8
  ret void
}

; Function Attrs: mustprogress nounwind uwtable
define hidden noundef ptr @_ZN6hermes2vm11NativeState6createERNS0_7RuntimeEPvPFvRNS0_7HadesGCEPS1_E(ptr noundef nonnull align 8 dereferenceable(9832) %runtime, ptr noundef %context, ptr noundef %finalizePtr) local_unnamed_addr #0 align 2 {
entry:
  %heapStorage_.i.i = getelementptr inbounds %"class.hermes::vm::Runtime", ptr %runtime, i64 0, i32 97
  %call.i.i.i.i = tail call noundef ptr @_ZN6hermes2vm7HadesGC9allocWorkILb1ELNS0_12HasFinalizerE1EEEPvj(ptr noundef nonnull align 8 dereferenceable(8152) %heapStorage_.i.i, i32 noundef 24)
  %context_.i.i.i.i.i.i = getelementptr inbounds %"class.hermes::vm::NativeState", ptr %call.i.i.i.i, i64 0, i32 1
  store ptr %context, ptr %context_.i.i.i.i.i.i, align 8
  %finalizePtr_.i.i.i.i.i.i = getelementptr inbounds %"class.hermes::vm::NativeState", ptr %call.i.i.i.i, i64 0, i32 2
  store ptr %finalizePtr, ptr %finalizePtr_.i.i.i.i.i.i, align 8
  store i32 419430424, ptr %call.i.i.i.i, align 4
  ret ptr %call.i.i.i.i
}

; Function Attrs: mustprogress nounwind uwtable
define linkonce_odr hidden noundef ptr @_ZN6hermes2vm7HadesGC9allocWorkILb1ELNS0_12HasFinalizerE1EEEPvj(ptr noundef nonnull align 8 dereferenceable(8152) %this, i32 noundef %sz) local_unnamed_addr #0 comdat align 2 {
entry:
  %level_.i = getelementptr inbounds %"class.hermes::vm::HadesGC", ptr %this, i64 0, i32 5, i32 0, i32 1
  %0 = load ptr, ptr %level_.i, align 8
  %idx.ext.i = zext i32 %sz to i64
  %add.ptr.i = getelementptr inbounds i8, ptr %0, i64 %idx.ext.i
  %effectiveEnd_.i.i = getelementptr inbounds %"class.hermes::vm::HadesGC", ptr %this, i64 0, i32 5, i32 0, i32 2
  %1 = load ptr, ptr %effectiveEnd_.i.i, align 8
  %cmp.i = icmp ugt ptr %add.ptr.i, %1
  br i1 %cmp.i, label %cond.true, label %cond.false

cond.true:                                        ; preds = %entry
  %call3 = tail call noundef ptr @_ZN6hermes2vm7HadesGC9allocSlowEj(ptr noundef nonnull align 8 dereferenceable(8152) %this, i32 noundef %sz) #8
  br label %cond.end

cond.false:                                       ; preds = %entry
  store ptr %add.ptr.i, ptr %level_.i, align 8
  br label %cond.end

cond.end:                                         ; preds = %cond.false, %cond.true
  %cond = phi ptr [ %call3, %cond.true ], [ %0, %cond.false ]
  %youngGenFinalizables_ = getelementptr inbounds %"class.hermes::vm::HadesGC", ptr %this, i64 0, i32 7
  %_M_finish.i = getelementptr inbounds %"class.hermes::vm::HadesGC", ptr %this, i64 0, i32 7, i32 0, i32 0, i32 0, i32 1
  %2 = load ptr, ptr %_M_finish.i, align 8
  %_M_end_of_storage.i = getelementptr inbounds %"class.hermes::vm::HadesGC", ptr %this, i64 0, i32 7, i32 0, i32 0, i32 0, i32 2
  %3 = load ptr, ptr %_M_end_of_storage.i, align 8
  %cmp.not.i = icmp eq ptr %2, %3
  br i1 %cmp.not.i, label %if.else.i, label %if.then.i

if.then.i:                                        ; preds = %cond.end
  store ptr %cond, ptr %2, align 8
  %4 = load ptr, ptr %_M_finish.i, align 8
  %incdec.ptr.i = getelementptr inbounds ptr, ptr %4, i64 1
  store ptr %incdec.ptr.i, ptr %_M_finish.i, align 8
  br label %_ZNSt6vectorIPN6hermes2vm6GCCellESaIS3_EE12emplace_backIJS3_EEERS3_DpOT_.exit

if.else.i:                                        ; preds = %cond.end
  %5 = load ptr, ptr %youngGenFinalizables_, align 8
  %sub.ptr.lhs.cast.i.i.i.i = ptrtoint ptr %2 to i64
  %sub.ptr.rhs.cast.i.i.i.i = ptrtoint ptr %5 to i64
  %sub.ptr.sub.i.i.i.i = sub i64 %sub.ptr.lhs.cast.i.i.i.i, %sub.ptr.rhs.cast.i.i.i.i
  %cmp.i.i.i = icmp eq i64 %sub.ptr.sub.i.i.i.i, 9223372036854775800
  br i1 %cmp.i.i.i, label %if.then.i.i.i, label %_ZNKSt6vectorIPN6hermes2vm6GCCellESaIS3_EE12_M_check_lenEmPKc.exit.i.i

if.then.i.i.i:                                    ; preds = %if.else.i
  tail call void @_ZSt20__throw_length_errorPKc(ptr noundef nonnull @.str) #9
  unreachable

_ZNKSt6vectorIPN6hermes2vm6GCCellESaIS3_EE12_M_check_lenEmPKc.exit.i.i: ; preds = %if.else.i
  %sub.ptr.div.i.i.i.i = ashr exact i64 %sub.ptr.sub.i.i.i.i, 3
  %.sroa.speculated.i.i.i = tail call i64 @llvm.umax.i64(i64 %sub.ptr.div.i.i.i.i, i64 1)
  %add.i.i.i = add i64 %.sroa.speculated.i.i.i, %sub.ptr.div.i.i.i.i
  %cmp7.i.i.i = icmp ult i64 %add.i.i.i, %sub.ptr.div.i.i.i.i
  %6 = tail call i64 @llvm.umin.i64(i64 %add.i.i.i, i64 1152921504606846975)
  %cond.i.i.i = select i1 %cmp7.i.i.i, i64 1152921504606846975, i64 %6
  %cmp.not.i.i.i = icmp eq i64 %cond.i.i.i, 0
  br i1 %cmp.not.i.i.i, label %_ZNSt12_Vector_baseIPN6hermes2vm6GCCellESaIS3_EE11_M_allocateEm.exit.i.i, label %cond.true.i.i.i

cond.true.i.i.i:                                  ; preds = %_ZNKSt6vectorIPN6hermes2vm6GCCellESaIS3_EE12_M_check_lenEmPKc.exit.i.i
  %mul.i.i.i.i.i = shl nuw nsw i64 %cond.i.i.i, 3
  %call5.i.i.i.i.i = tail call noalias noundef nonnull ptr @_Znwm(i64 noundef %mul.i.i.i.i.i) #10
  br label %_ZNSt12_Vector_baseIPN6hermes2vm6GCCellESaIS3_EE11_M_allocateEm.exit.i.i

_ZNSt12_Vector_baseIPN6hermes2vm6GCCellESaIS3_EE11_M_allocateEm.exit.i.i: ; preds = %cond.true.i.i.i, %_ZNKSt6vectorIPN6hermes2vm6GCCellESaIS3_EE12_M_check_lenEmPKc.exit.i.i
  %cond.i10.i.i = phi ptr [ %call5.i.i.i.i.i, %cond.true.i.i.i ], [ null, %_ZNKSt6vectorIPN6hermes2vm6GCCellESaIS3_EE12_M_check_lenEmPKc.exit.i.i ]
  %add.ptr.i.i = getelementptr inbounds ptr, ptr %cond.i10.i.i, i64 %sub.ptr.div.i.i.i.i
  store ptr %cond, ptr %add.ptr.i.i, align 8
  %cmp.i.i.i.i.i = icmp sgt i64 %sub.ptr.sub.i.i.i.i, 0
  br i1 %cmp.i.i.i.i.i, label %if.then.i.i.i.i.i, label %_ZNSt6vectorIPN6hermes2vm6GCCellESaIS3_EE11_S_relocateEPS3_S6_S6_RS4_.exit17.i.i

if.then.i.i.i.i.i:                                ; preds = %_ZNSt12_Vector_baseIPN6hermes2vm6GCCellESaIS3_EE11_M_allocateEm.exit.i.i
  tail call void @llvm.memmove.p0.p0.i64(ptr nonnull align 8 %cond.i10.i.i, ptr align 8 %5, i64 %sub.ptr.sub.i.i.i.i, i1 false)
  br label %_ZNSt6vectorIPN6hermes2vm6GCCellESaIS3_EE11_S_relocateEPS3_S6_S6_RS4_.exit17.i.i

_ZNSt6vectorIPN6hermes2vm6GCCellESaIS3_EE11_S_relocateEPS3_S6_S6_RS4_.exit17.i.i: ; preds = %if.then.i.i.i.i.i, %_ZNSt12_Vector_baseIPN6hermes2vm6GCCellESaIS3_EE11_M_allocateEm.exit.i.i
  %add.ptr.i.i.i.i.i = getelementptr inbounds i8, ptr %cond.i10.i.i, i64 %sub.ptr.sub.i.i.i.i
  %incdec.ptr.i.i = getelementptr inbounds ptr, ptr %add.ptr.i.i.i.i.i, i64 1
  %tobool.not.i.i.i = icmp eq ptr %5, null
  br i1 %tobool.not.i.i.i, label %_ZNSt6vectorIPN6hermes2vm6GCCellESaIS3_EE17_M_realloc_insertIJS3_EEEvN9__gnu_cxx17__normal_iteratorIPS3_S5_EEDpOT_.exit.i, label %if.then.i18.i.i

if.then.i18.i.i:                                  ; preds = %_ZNSt6vectorIPN6hermes2vm6GCCellESaIS3_EE11_S_relocateEPS3_S6_S6_RS4_.exit17.i.i
  tail call void @_ZdlPv(ptr noundef nonnull %5) #11
  br label %_ZNSt6vectorIPN6hermes2vm6GCCellESaIS3_EE17_M_realloc_insertIJS3_EEEvN9__gnu_cxx17__normal_iteratorIPS3_S5_EEDpOT_.exit.i

_ZNSt6vectorIPN6hermes2vm6GCCellESaIS3_EE17_M_realloc_insertIJS3_EEEvN9__gnu_cxx17__normal_iteratorIPS3_S5_EEDpOT_.exit.i: ; preds = %if.then.i18.i.i, %_ZNSt6vectorIPN6hermes2vm6GCCellESaIS3_EE11_S_relocateEPS3_S6_S6_RS4_.exit17.i.i
  store ptr %cond.i10.i.i, ptr %youngGenFinalizables_, align 8
  store ptr %incdec.ptr.i.i, ptr %_M_finish.i, align 8
  %add.ptr19.i.i = getelementptr inbounds ptr, ptr %cond.i10.i.i, i64 %cond.i.i.i
  store ptr %add.ptr19.i.i, ptr %_M_end_of_storage.i, align 8
  br label %_ZNSt6vectorIPN6hermes2vm6GCCellESaIS3_EE12emplace_backIJS3_EEERS3_DpOT_.exit

_ZNSt6vectorIPN6hermes2vm6GCCellESaIS3_EE12emplace_backIJS3_EEERS3_DpOT_.exit: ; preds = %if.then.i, %_ZNSt6vectorIPN6hermes2vm6GCCellESaIS3_EE17_M_realloc_insertIJS3_EEEvN9__gnu_cxx17__normal_iteratorIPS3_S5_EEDpOT_.exit.i
  ret ptr %cond
}

declare noundef ptr @_ZN6hermes2vm7HadesGC9allocSlowEj(ptr noundef nonnull align 8 dereferenceable(8152), i32 noundef) local_unnamed_addr #2

; Function Attrs: noreturn
declare void @_ZSt20__throw_length_errorPKc(ptr noundef) local_unnamed_addr #3

; Function Attrs: nobuiltin allocsize(0)
declare noundef nonnull ptr @_Znwm(i64 noundef) local_unnamed_addr #4

; Function Attrs: mustprogress nocallback nofree nounwind willreturn memory(argmem: readwrite)
declare void @llvm.memmove.p0.p0.i64(ptr nocapture writeonly, ptr nocapture readonly, i64, i1 immarg) #5

; Function Attrs: nobuiltin nounwind
declare void @_ZdlPv(ptr noundef) local_unnamed_addr #6

; Function Attrs: nocallback nofree nosync nounwind speculatable willreturn memory(none)
declare i64 @llvm.umax.i64(i64, i64) #7

; Function Attrs: nocallback nofree nosync nounwind speculatable willreturn memory(none)
declare i64 @llvm.umin.i64(i64, i64) #7

attributes #0 = { mustprogress nounwind uwtable "frame-pointer"="all" "min-legal-vector-width"="0" "no-trapping-math"="true" "stack-protector-buffer-size"="8" "target-cpu"="x86-64" "target-features"="+cmov,+cx8,+fxsr,+mmx,+sse,+sse2,+x87" "tune-cpu"="generic" }
attributes #1 = { mustprogress nofree norecurse nosync nounwind willreturn memory(argmem: write) uwtable "frame-pointer"="all" "min-legal-vector-width"="0" "no-trapping-math"="true" "stack-protector-buffer-size"="8" "target-cpu"="x86-64" "target-features"="+cmov,+cx8,+fxsr,+mmx,+sse,+sse2,+x87" "tune-cpu"="generic" }
attributes #2 = { "frame-pointer"="all" "no-trapping-math"="true" "stack-protector-buffer-size"="8" "target-cpu"="x86-64" "target-features"="+cmov,+cx8,+fxsr,+mmx,+sse,+sse2,+x87" "tune-cpu"="generic" }
attributes #3 = { noreturn "frame-pointer"="all" "no-trapping-math"="true" "stack-protector-buffer-size"="8" "target-cpu"="x86-64" "target-features"="+cmov,+cx8,+fxsr,+mmx,+sse,+sse2,+x87" "tune-cpu"="generic" }
attributes #4 = { nobuiltin allocsize(0) "frame-pointer"="all" "no-trapping-math"="true" "stack-protector-buffer-size"="8" "target-cpu"="x86-64" "target-features"="+cmov,+cx8,+fxsr,+mmx,+sse,+sse2,+x87" "tune-cpu"="generic" }
attributes #5 = { mustprogress nocallback nofree nounwind willreturn memory(argmem: readwrite) }
attributes #6 = { nobuiltin nounwind "frame-pointer"="all" "no-trapping-math"="true" "stack-protector-buffer-size"="8" "target-cpu"="x86-64" "target-features"="+cmov,+cx8,+fxsr,+mmx,+sse,+sse2,+x87" "tune-cpu"="generic" }
attributes #7 = { nocallback nofree nosync nounwind speculatable willreturn memory(none) }
attributes #8 = { nounwind }
attributes #9 = { noreturn nounwind }
attributes #10 = { builtin nounwind allocsize(0) }
attributes #11 = { builtin nounwind }

!llvm.module.flags = !{!0, !1, !2, !3}

!0 = !{i32 1, !"wchar_size", i32 4}
!1 = !{i32 8, !"PIC Level", i32 2}
!2 = !{i32 7, !"uwtable", i32 2}
!3 = !{i32 7, !"frame-pointer", i32 2}
