; ModuleID = 'bench/hermes/original/SingleObject.cpp.ll'
source_filename = "bench/hermes/original/SingleObject.cpp.ll"
target datalayout = "e-m:e-p270:32:32-p271:32:32-p272:64:64-i64:64-i128:128-f80:128-n8:16:32:64-S128"
target triple = "x86_64-unknown-linux-gnu"

%"class.hermes::vm::Metadata::Builder" = type { ptr, %"class.std::map", %"class.std::map", %"class.std::map", %"class.std::map", %"class.hermes::OptValue", [3 x i8], %"class.hermes::OptValue.0", ptr }
%"class.std::map" = type { %"class.std::_Rb_tree" }
%"class.std::_Rb_tree" = type { %"struct.std::_Rb_tree<unsigned char, std::pair<const unsigned char, const char *>, std::_Select1st<std::pair<const unsigned char, const char *>>, std::less<unsigned char>>::_Rb_tree_impl" }
%"struct.std::_Rb_tree<unsigned char, std::pair<const unsigned char, const char *>, std::_Select1st<std::pair<const unsigned char, const char *>>, std::less<unsigned char>>::_Rb_tree_impl" = type { %"struct.std::_Rb_tree_key_compare", %"struct.std::_Rb_tree_header" }
%"struct.std::_Rb_tree_key_compare" = type { %"struct.std::less" }
%"struct.std::less" = type { i8 }
%"struct.std::_Rb_tree_header" = type { %"struct.std::_Rb_tree_node_base", i64 }
%"struct.std::_Rb_tree_node_base" = type { i32, ptr, ptr, ptr }
%"class.hermes::OptValue" = type { %"struct.hermes::vm::Metadata::ArrayData", i8 }
%"struct.hermes::vm::Metadata::ArrayData" = type { i8, i8, i8, i8 }
%"class.hermes::OptValue.0" = type <{ i32, i8, [3 x i8] }>

$_ZN6hermes2vm12SingleObjectILNS0_8CellKindE60EE2vtE = comdat any

$_ZN6hermes2vm12SingleObjectILNS0_8CellKindE59EE2vtE = comdat any

@_ZN6hermes2vm12SingleObjectILNS0_8CellKindE60EE2vtE = linkonce_odr hidden constant { i64, i32, i32, ptr, ptr, ptr, ptr, ptr, ptr, ptr, ptr, ptr, ptr, ptr } { i64 -47381121442796770, i32 60, i32 40, ptr null, ptr null, ptr null, ptr null, ptr @_ZN6hermes2vm8JSObject23_getOwnIndexedRangeImplEPS1_RNS0_7RuntimeE, ptr @_ZN6hermes2vm8JSObject19_haveOwnIndexedImplEPS1_RNS0_7RuntimeEj, ptr @_ZN6hermes2vm8JSObject31_getOwnIndexedPropertyFlagsImplEPS1_RNS0_7RuntimeEj, ptr @_ZN6hermes2vm8JSObject18_getOwnIndexedImplENS0_12PseudoHandleIS1_EERNS0_7RuntimeEj, ptr @_ZN6hermes2vm8JSObject18_setOwnIndexedImplENS0_6HandleIS1_EERNS0_7RuntimeEjNS2_INS0_11HermesValueEEE, ptr @_ZN6hermes2vm8JSObject21_deleteOwnIndexedImplENS0_6HandleIS1_EERNS0_7RuntimeEj, ptr @_ZN6hermes2vm8JSObject23_checkAllOwnIndexedImplEPS1_RNS0_7RuntimeENS0_12ObjectVTable22CheckAllOwnIndexedModeE }, comdat, align 8
@_ZN6hermes2vm12SingleObjectILNS0_8CellKindE59EE2vtE = linkonce_odr hidden constant { i64, i32, i32, ptr, ptr, ptr, ptr, ptr, ptr, ptr, ptr, ptr, ptr, ptr } { i64 -47381121442796770, i32 59, i32 40, ptr null, ptr null, ptr null, ptr null, ptr @_ZN6hermes2vm8JSObject23_getOwnIndexedRangeImplEPS1_RNS0_7RuntimeE, ptr @_ZN6hermes2vm8JSObject19_haveOwnIndexedImplEPS1_RNS0_7RuntimeEj, ptr @_ZN6hermes2vm8JSObject31_getOwnIndexedPropertyFlagsImplEPS1_RNS0_7RuntimeEj, ptr @_ZN6hermes2vm8JSObject18_getOwnIndexedImplENS0_12PseudoHandleIS1_EERNS0_7RuntimeEj, ptr @_ZN6hermes2vm8JSObject18_setOwnIndexedImplENS0_6HandleIS1_EERNS0_7RuntimeEjNS2_INS0_11HermesValueEEE, ptr @_ZN6hermes2vm8JSObject21_deleteOwnIndexedImplENS0_6HandleIS1_EERNS0_7RuntimeEj, ptr @_ZN6hermes2vm8JSObject23_checkAllOwnIndexedImplEPS1_RNS0_7RuntimeENS0_12ObjectVTable22CheckAllOwnIndexedModeE }, comdat, align 8

; Function Attrs: mustprogress nounwind uwtable
define hidden void @_ZN6hermes2vm15JSMathBuildMetaEPKNS0_6GCCellERNS0_8Metadata7BuilderE(ptr noundef %cell, ptr noundef nonnull align 8 dereferenceable(224) %mb) local_unnamed_addr #0 {
entry:
  %hasValue_.i.i = getelementptr inbounds %"class.hermes::vm::Metadata::Builder", ptr %mb, i64 0, i32 7, i32 1
  %0 = load i8, ptr %hasValue_.i.i, align 4
  %1 = and i8 %0, 1
  %tobool.i.not.i = icmp eq i8 %1, 0
  br i1 %tobool.i.not.i, label %if.then.i, label %_ZN6hermes2vm8Metadata7Builder23addJSObjectOverlapSlotsEj.exit

if.then.i:                                        ; preds = %entry
  %jsObjectOverlapSlots_.i = getelementptr inbounds %"class.hermes::vm::Metadata::Builder", ptr %mb, i64 0, i32 7
  store i32 0, ptr %jsObjectOverlapSlots_.i, align 8
  store i8 1, ptr %hasValue_.i.i, align 4
  br label %_ZN6hermes2vm8Metadata7Builder23addJSObjectOverlapSlotsEj.exit

_ZN6hermes2vm8Metadata7Builder23addJSObjectOverlapSlotsEj.exit: ; preds = %entry, %if.then.i
  tail call void @_ZN6hermes2vm17JSObjectBuildMetaEPKNS0_6GCCellERNS0_8Metadata7BuilderE(ptr noundef %cell, ptr noundef nonnull align 8 dereferenceable(224) %mb) #2
  %vtp_.i = getelementptr inbounds %"class.hermes::vm::Metadata::Builder", ptr %mb, i64 0, i32 8
  store ptr @_ZN6hermes2vm12SingleObjectILNS0_8CellKindE60EE2vtE, ptr %vtp_.i, align 8
  ret void
}

declare void @_ZN6hermes2vm17JSObjectBuildMetaEPKNS0_6GCCellERNS0_8Metadata7BuilderE(ptr noundef, ptr noundef nonnull align 8 dereferenceable(224)) local_unnamed_addr #1

; Function Attrs: mustprogress nounwind uwtable
define hidden void @_ZN6hermes2vm15JSJSONBuildMetaEPKNS0_6GCCellERNS0_8Metadata7BuilderE(ptr noundef %cell, ptr noundef nonnull align 8 dereferenceable(224) %mb) local_unnamed_addr #0 {
entry:
  %hasValue_.i.i = getelementptr inbounds %"class.hermes::vm::Metadata::Builder", ptr %mb, i64 0, i32 7, i32 1
  %0 = load i8, ptr %hasValue_.i.i, align 4
  %1 = and i8 %0, 1
  %tobool.i.not.i = icmp eq i8 %1, 0
  br i1 %tobool.i.not.i, label %if.then.i, label %_ZN6hermes2vm8Metadata7Builder23addJSObjectOverlapSlotsEj.exit

if.then.i:                                        ; preds = %entry
  %jsObjectOverlapSlots_.i = getelementptr inbounds %"class.hermes::vm::Metadata::Builder", ptr %mb, i64 0, i32 7
  store i32 0, ptr %jsObjectOverlapSlots_.i, align 8
  store i8 1, ptr %hasValue_.i.i, align 4
  br label %_ZN6hermes2vm8Metadata7Builder23addJSObjectOverlapSlotsEj.exit

_ZN6hermes2vm8Metadata7Builder23addJSObjectOverlapSlotsEj.exit: ; preds = %entry, %if.then.i
  tail call void @_ZN6hermes2vm17JSObjectBuildMetaEPKNS0_6GCCellERNS0_8Metadata7BuilderE(ptr noundef %cell, ptr noundef nonnull align 8 dereferenceable(224) %mb) #2
  %vtp_.i = getelementptr inbounds %"class.hermes::vm::Metadata::Builder", ptr %mb, i64 0, i32 8
  store ptr @_ZN6hermes2vm12SingleObjectILNS0_8CellKindE59EE2vtE, ptr %vtp_.i, align 8
  ret void
}

declare i64 @_ZN6hermes2vm8JSObject23_getOwnIndexedRangeImplEPS1_RNS0_7RuntimeE(ptr noundef, ptr noundef nonnull align 8 dereferenceable(9832)) #1

declare noundef zeroext i1 @_ZN6hermes2vm8JSObject19_haveOwnIndexedImplEPS1_RNS0_7RuntimeEj(ptr noundef, ptr noundef nonnull align 8 dereferenceable(9832), i32 noundef) #1

declare i32 @_ZN6hermes2vm8JSObject31_getOwnIndexedPropertyFlagsImplEPS1_RNS0_7RuntimeEj(ptr noundef, ptr noundef nonnull align 8 dereferenceable(9832), i32 noundef) #1

declare i64 @_ZN6hermes2vm8JSObject18_getOwnIndexedImplENS0_12PseudoHandleIS1_EERNS0_7RuntimeEj(ptr, ptr noundef nonnull align 8 dereferenceable(9832), i32 noundef) #1

declare i32 @_ZN6hermes2vm8JSObject18_setOwnIndexedImplENS0_6HandleIS1_EERNS0_7RuntimeEjNS2_INS0_11HermesValueEEE(ptr, ptr noundef nonnull align 8 dereferenceable(9832), i32 noundef, ptr) #1

declare noundef zeroext i1 @_ZN6hermes2vm8JSObject21_deleteOwnIndexedImplENS0_6HandleIS1_EERNS0_7RuntimeEj(ptr, ptr noundef nonnull align 8 dereferenceable(9832), i32 noundef) #1

declare noundef zeroext i1 @_ZN6hermes2vm8JSObject23_checkAllOwnIndexedImplEPS1_RNS0_7RuntimeENS0_12ObjectVTable22CheckAllOwnIndexedModeE(ptr noundef, ptr noundef nonnull align 8 dereferenceable(9832), i32 noundef) #1

attributes #0 = { mustprogress nounwind uwtable "frame-pointer"="all" "min-legal-vector-width"="0" "no-trapping-math"="true" "stack-protector-buffer-size"="8" "target-cpu"="x86-64" "target-features"="+cmov,+cx8,+fxsr,+mmx,+sse,+sse2,+x87" "tune-cpu"="generic" }
attributes #1 = { "frame-pointer"="all" "no-trapping-math"="true" "stack-protector-buffer-size"="8" "target-cpu"="x86-64" "target-features"="+cmov,+cx8,+fxsr,+mmx,+sse,+sse2,+x87" "tune-cpu"="generic" }
attributes #2 = { nounwind }

!llvm.module.flags = !{!0, !1, !2, !3}

!0 = !{i32 1, !"wchar_size", i32 4}
!1 = !{i32 8, !"PIC Level", i32 2}
!2 = !{i32 7, !"uwtable", i32 2}
!3 = !{i32 7, !"frame-pointer", i32 2}
