; ModuleID = 'bench/hermes/original/StringRefUtils.cpp.ll'
source_filename = "bench/hermes/original/StringRefUtils.cpp.ll"
target datalayout = "e-m:e-p270:32:32-p271:32:32-p272:64:64-i64:64-i128:128-f80:128-n8:16:32:64-S128"
target triple = "x86_64-unknown-linux-gnu"

%"class.llvh::raw_ostream" = type <{ ptr, ptr, ptr, ptr, i32, [4 x i8] }>
%"class.std::__cxx11::basic_string" = type { %"struct.std::__cxx11::basic_string<char>::_Alloc_hider", i64, %union.anon }
%"struct.std::__cxx11::basic_string<char>::_Alloc_hider" = type { ptr }
%union.anon = type { i64, [8 x i8] }

; Function Attrs: mustprogress nofree norecurse nosync nounwind willreturn memory(argmem: read) uwtable
define hidden { ptr, i64 } @_ZN6hermes2vm14createUTF16RefEPKDs(ptr noundef %str) local_unnamed_addr #0 {
entry:
  br label %while.cond.i

while.cond.i:                                     ; preds = %while.cond.i, %entry
  %__i.0.i = phi i64 [ 0, %entry ], [ %inc.i, %while.cond.i ]
  %arrayidx.i = getelementptr inbounds i16, ptr %str, i64 %__i.0.i
  %0 = load i16, ptr %arrayidx.i, align 2
  %cmp.i.i = icmp eq i16 %0, 0
  %inc.i = add i64 %__i.0.i, 1
  br i1 %cmp.i.i, label %_ZNSt11char_traitsIDsE6lengthEPKDs.exit, label %while.cond.i, !llvm.loop !4

_ZNSt11char_traitsIDsE6lengthEPKDs.exit:          ; preds = %while.cond.i
  %.fca.0.insert = insertvalue { ptr, i64 } poison, ptr %str, 0
  %.fca.1.insert = insertvalue { ptr, i64 } %.fca.0.insert, i64 %__i.0.i, 1
  ret { ptr, i64 } %.fca.1.insert
}

; Function Attrs: mustprogress nofree nounwind willreturn memory(argmem: read) uwtable
define hidden { ptr, i64 } @_ZN6hermes2vm14createASCIIRefEPKc(ptr noundef %str) local_unnamed_addr #1 {
entry:
  %call.i = tail call noundef i64 @strlen(ptr noundef nonnull dereferenceable(1) %str) #7
  %.fca.0.insert = insertvalue { ptr, i64 } poison, ptr %str, 0
  %.fca.1.insert = insertvalue { ptr, i64 } %.fca.0.insert, i64 %call.i, 1
  ret { ptr, i64 } %.fca.1.insert
}

; Function Attrs: mustprogress nounwind uwtable
define hidden noundef nonnull align 8 dereferenceable(36) ptr @_ZN6hermes2vmlsERN4llvh11raw_ostreamENS1_8ArrayRefIcEE(ptr noundef nonnull align 8 dereferenceable(36) %OS, ptr %asciiRef.coerce0, i64 %asciiRef.coerce1) local_unnamed_addr #2 {
entry:
  %OutBufEnd.i = getelementptr inbounds %"class.llvh::raw_ostream", ptr %OS, i64 0, i32 2
  %0 = load ptr, ptr %OutBufEnd.i, align 8
  %OutBufCur.i = getelementptr inbounds %"class.llvh::raw_ostream", ptr %OS, i64 0, i32 3
  %1 = load ptr, ptr %OutBufCur.i, align 8
  %sub.ptr.lhs.cast.i = ptrtoint ptr %0 to i64
  %sub.ptr.rhs.cast.i = ptrtoint ptr %1 to i64
  %sub.ptr.sub.i = sub i64 %sub.ptr.lhs.cast.i, %sub.ptr.rhs.cast.i
  %cmp.i = icmp ult i64 %sub.ptr.sub.i, %asciiRef.coerce1
  br i1 %cmp.i, label %if.then.i, label %if.end.i

if.then.i:                                        ; preds = %entry
  %call3.i = tail call noundef nonnull align 8 dereferenceable(36) ptr @_ZN4llvh11raw_ostream5writeEPKcm(ptr noundef nonnull align 8 dereferenceable(36) %OS, ptr noundef %asciiRef.coerce0, i64 noundef %asciiRef.coerce1) #7
  br label %_ZN4llvh11raw_ostreamlsENS_9StringRefE.exit

if.end.i:                                         ; preds = %entry
  %tobool.not.i = icmp eq i64 %asciiRef.coerce1, 0
  br i1 %tobool.not.i, label %_ZN4llvh11raw_ostreamlsENS_9StringRefE.exit, label %if.then4.i

if.then4.i:                                       ; preds = %if.end.i
  tail call void @llvm.memcpy.p0.p0.i64(ptr align 1 %1, ptr align 1 %asciiRef.coerce0, i64 %asciiRef.coerce1, i1 false)
  %2 = load ptr, ptr %OutBufCur.i, align 8
  %add.ptr.i = getelementptr inbounds i8, ptr %2, i64 %asciiRef.coerce1
  store ptr %add.ptr.i, ptr %OutBufCur.i, align 8
  br label %_ZN4llvh11raw_ostreamlsENS_9StringRefE.exit

_ZN4llvh11raw_ostreamlsENS_9StringRefE.exit:      ; preds = %if.then.i, %if.end.i, %if.then4.i
  %retval.0.i = phi ptr [ %call3.i, %if.then.i ], [ %OS, %if.then4.i ], [ %OS, %if.end.i ]
  ret ptr %retval.0.i
}

; Function Attrs: mustprogress nounwind uwtable
define hidden noundef nonnull align 8 dereferenceable(36) ptr @_ZN6hermes2vmlsERN4llvh11raw_ostreamENS1_8ArrayRefIDsEE(ptr noundef nonnull align 8 dereferenceable(36) %OS, ptr %u16ref.coerce0, i64 %u16ref.coerce1) local_unnamed_addr #2 {
entry:
  %narrowStr = alloca %"class.std::__cxx11::basic_string", align 8
  call void @_ZNSt7__cxx1112basic_stringIcSt11char_traitsIcESaIcEEC1Ev(ptr noundef nonnull align 8 dereferenceable(32) %narrowStr) #7
  %call = call noundef zeroext i1 @_ZN6hermes34convertUTF16ToUTF8WithReplacementsERNSt7__cxx1112basic_stringIcSt11char_traitsIcESaIcEEEN4llvh8ArrayRefIDsEEm(ptr noundef nonnull align 8 dereferenceable(32) %narrowStr, ptr %u16ref.coerce0, i64 %u16ref.coerce1, i64 noundef 0) #7
  %call.i = call noundef ptr @_ZNKSt7__cxx1112basic_stringIcSt11char_traitsIcESaIcEE4dataEv(ptr noundef nonnull align 8 dereferenceable(32) %narrowStr) #7
  %call2.i = call noundef i64 @_ZNKSt7__cxx1112basic_stringIcSt11char_traitsIcESaIcEE6lengthEv(ptr noundef nonnull align 8 dereferenceable(32) %narrowStr) #7
  %call3.i = call noundef nonnull align 8 dereferenceable(36) ptr @_ZN4llvh11raw_ostream5writeEPKcm(ptr noundef nonnull align 8 dereferenceable(36) %OS, ptr noundef %call.i, i64 noundef %call2.i) #7
  call void @_ZNSt7__cxx1112basic_stringIcSt11char_traitsIcESaIcEED1Ev(ptr noundef nonnull align 8 dereferenceable(32) %narrowStr) #7
  ret ptr %call3.i
}

; Function Attrs: nounwind
declare void @_ZNSt7__cxx1112basic_stringIcSt11char_traitsIcESaIcEEC1Ev(ptr noundef nonnull align 8 dereferenceable(32)) unnamed_addr #3

declare noundef zeroext i1 @_ZN6hermes34convertUTF16ToUTF8WithReplacementsERNSt7__cxx1112basic_stringIcSt11char_traitsIcESaIcEEEN4llvh8ArrayRefIDsEEm(ptr noundef nonnull align 8 dereferenceable(32), ptr, i64, i64 noundef) local_unnamed_addr #4

; Function Attrs: mustprogress nocallback nofree nounwind willreturn memory(argmem: readwrite)
declare void @llvm.memcpy.p0.p0.i64(ptr noalias nocapture writeonly, ptr noalias nocapture readonly, i64, i1 immarg) #5

; Function Attrs: nounwind
declare void @_ZNSt7__cxx1112basic_stringIcSt11char_traitsIcESaIcEED1Ev(ptr noundef nonnull align 8 dereferenceable(32)) unnamed_addr #3

; Function Attrs: mustprogress nofree nounwind willreturn memory(argmem: read)
declare i64 @strlen(ptr nocapture noundef) local_unnamed_addr #6

declare noundef nonnull align 8 dereferenceable(36) ptr @_ZN4llvh11raw_ostream5writeEPKcm(ptr noundef nonnull align 8 dereferenceable(36), ptr noundef, i64 noundef) local_unnamed_addr #4

; Function Attrs: nounwind
declare noundef ptr @_ZNKSt7__cxx1112basic_stringIcSt11char_traitsIcESaIcEE4dataEv(ptr noundef nonnull align 8 dereferenceable(32)) local_unnamed_addr #3

; Function Attrs: nounwind
declare noundef i64 @_ZNKSt7__cxx1112basic_stringIcSt11char_traitsIcESaIcEE6lengthEv(ptr noundef nonnull align 8 dereferenceable(32)) local_unnamed_addr #3

attributes #0 = { mustprogress nofree norecurse nosync nounwind willreturn memory(argmem: read) uwtable "frame-pointer"="all" "min-legal-vector-width"="0" "no-trapping-math"="true" "stack-protector-buffer-size"="8" "target-cpu"="x86-64" "target-features"="+cmov,+cx8,+fxsr,+mmx,+sse,+sse2,+x87" "tune-cpu"="generic" }
attributes #1 = { mustprogress nofree nounwind willreturn memory(argmem: read) uwtable "frame-pointer"="all" "min-legal-vector-width"="0" "no-trapping-math"="true" "stack-protector-buffer-size"="8" "target-cpu"="x86-64" "target-features"="+cmov,+cx8,+fxsr,+mmx,+sse,+sse2,+x87" "tune-cpu"="generic" }
attributes #2 = { mustprogress nounwind uwtable "frame-pointer"="all" "min-legal-vector-width"="0" "no-trapping-math"="true" "stack-protector-buffer-size"="8" "target-cpu"="x86-64" "target-features"="+cmov,+cx8,+fxsr,+mmx,+sse,+sse2,+x87" "tune-cpu"="generic" }
attributes #3 = { nounwind "frame-pointer"="all" "no-trapping-math"="true" "stack-protector-buffer-size"="8" "target-cpu"="x86-64" "target-features"="+cmov,+cx8,+fxsr,+mmx,+sse,+sse2,+x87" "tune-cpu"="generic" }
attributes #4 = { "frame-pointer"="all" "no-trapping-math"="true" "stack-protector-buffer-size"="8" "target-cpu"="x86-64" "target-features"="+cmov,+cx8,+fxsr,+mmx,+sse,+sse2,+x87" "tune-cpu"="generic" }
attributes #5 = { mustprogress nocallback nofree nounwind willreturn memory(argmem: readwrite) }
attributes #6 = { mustprogress nofree nounwind willreturn memory(argmem: read) "frame-pointer"="all" "no-trapping-math"="true" "stack-protector-buffer-size"="8" "target-cpu"="x86-64" "target-features"="+cmov,+cx8,+fxsr,+mmx,+sse,+sse2,+x87" "tune-cpu"="generic" }
attributes #7 = { nounwind }

!llvm.module.flags = !{!0, !1, !2, !3}

!0 = !{i32 1, !"wchar_size", i32 4}
!1 = !{i32 8, !"PIC Level", i32 2}
!2 = !{i32 7, !"uwtable", i32 2}
!3 = !{i32 7, !"frame-pointer", i32 2}
!4 = distinct !{!4, !5}
!5 = !{!"llvm.loop.mustprogress"}
