target datalayout = "e-m:e-p270:32:32-p271:32:32-p272:64:64-i64:64-i128:128-f80:128-n8:16:32:64-S128"
target triple = "x86_64-unknown-linux-gnu"

%struct.aiImporterDesc = type { ptr, ptr, ptr, ptr, i32, i32, i32, i32, i32, ptr }
%struct.aiColor3D = type { float, float, float }
%"struct.std::nothrow_t" = type { i8 }
%"struct.std::_Vector_base" = type { %"struct.std::_Vector_base<std::__cxx11::basic_string<char>, std::allocator<std::__cxx11::basic_string<char>>>::_Vector_impl" }
%"struct.std::_Vector_base<std::__cxx11::basic_string<char>, std::allocator<std::__cxx11::basic_string<char>>>::_Vector_impl" = type { %"struct.std::_Vector_base<std::__cxx11::basic_string<char>, std::allocator<std::__cxx11::basic_string<char>>>::_Vector_impl_data" }
%"struct.std::_Vector_base<std::__cxx11::basic_string<char>, std::allocator<std::__cxx11::basic_string<char>>>::_Vector_impl_data" = type { ptr, ptr, ptr }
%"class.Assimp::Discreet3DSImporter" = type <{ %"class.Assimp::BaseImporter", ptr, i16, [6 x i8], ptr, ptr, ptr, %struct.aiColor3D, float, %"class.std::__cxx11::basic_string", i8, i8, [6 x i8] }>
%"class.Assimp::BaseImporter" = type { ptr, double, double, %"class.std::__cxx11::basic_string", %"class.std::__exception_ptr::exception_ptr", ptr }
%"class.std::__exception_ptr::exception_ptr" = type { ptr }
%"class.std::__cxx11::basic_string" = type { %"struct.std::__cxx11::basic_string<char>::_Alloc_hider", i64, %union.anon }
%"struct.std::__cxx11::basic_string<char>::_Alloc_hider" = type { ptr }
%union.anon = type { i64, [8 x i8] }
%"class.std::allocator.0" = type { i8 }
%"class.Assimp::StreamReader" = type <{ %"class.std::shared_ptr", ptr, ptr, ptr, ptr, i8, [7 x i8] }>
%"class.std::shared_ptr" = type { %"class.std::__shared_ptr" }
%"class.std::__shared_ptr" = type { ptr, %"class.std::__shared_count" }
%"class.std::__shared_count" = type { ptr }
%"struct.Assimp::D3DS::Scene" = type { %"class.std::vector.4", %"class.std::vector.9", %"class.std::vector.14", %"class.std::vector.19" }
%"class.std::vector.4" = type { %"struct.std::_Vector_base.5" }
%"struct.std::_Vector_base.5" = type { %"struct.std::_Vector_base<Assimp::D3DS::Material, std::allocator<Assimp::D3DS::Material>>::_Vector_impl" }
%"struct.std::_Vector_base<Assimp::D3DS::Material, std::allocator<Assimp::D3DS::Material>>::_Vector_impl" = type { %"struct.std::_Vector_base<Assimp::D3DS::Material, std::allocator<Assimp::D3DS::Material>>::_Vector_impl_data" }
%"struct.std::_Vector_base<Assimp::D3DS::Material, std::allocator<Assimp::D3DS::Material>>::_Vector_impl_data" = type { ptr, ptr, ptr }
%"class.std::vector.9" = type { %"struct.std::_Vector_base.10" }
%"struct.std::_Vector_base.10" = type { %"struct.std::_Vector_base<Assimp::D3DS::Mesh, std::allocator<Assimp::D3DS::Mesh>>::_Vector_impl" }
%"struct.std::_Vector_base<Assimp::D3DS::Mesh, std::allocator<Assimp::D3DS::Mesh>>::_Vector_impl" = type { %"struct.std::_Vector_base<Assimp::D3DS::Mesh, std::allocator<Assimp::D3DS::Mesh>>::_Vector_impl_data" }
%"struct.std::_Vector_base<Assimp::D3DS::Mesh, std::allocator<Assimp::D3DS::Mesh>>::_Vector_impl_data" = type { ptr, ptr, ptr }
%"class.std::vector.14" = type { %"struct.std::_Vector_base.15" }
%"struct.std::_Vector_base.15" = type { %"struct.std::_Vector_base<aiCamera *, std::allocator<aiCamera *>>::_Vector_impl" }
%"struct.std::_Vector_base<aiCamera *, std::allocator<aiCamera *>>::_Vector_impl" = type { %"struct.std::_Vector_base<aiCamera *, std::allocator<aiCamera *>>::_Vector_impl_data" }
%"struct.std::_Vector_base<aiCamera *, std::allocator<aiCamera *>>::_Vector_impl_data" = type { ptr, ptr, ptr }
%"class.std::vector.19" = type { %"struct.std::_Vector_base.20" }
%"struct.std::_Vector_base.20" = type { %"struct.std::_Vector_base<aiLight *, std::allocator<aiLight *>>::_Vector_impl" }
%"struct.std::_Vector_base<aiLight *, std::allocator<aiLight *>>::_Vector_impl" = type { %"struct.std::_Vector_base<aiLight *, std::allocator<aiLight *>>::_Vector_impl_data" }
%"struct.std::_Vector_base<aiLight *, std::allocator<aiLight *>>::_Vector_impl_data" = type { ptr, ptr, ptr }
%"struct.Assimp::D3DS::Node" = type { ptr, %"class.std::vector.24", %"class.std::__cxx11::basic_string", i32, %"class.std::__cxx11::basic_string", i16, i16, %"class.std::vector.29", %"class.std::vector.34", %"class.std::vector.34", %"class.std::vector.34", %"class.std::vector.39", %class.aiVector3t, i32 }
%"class.std::vector.24" = type { %"struct.std::_Vector_base.25" }
%"struct.std::_Vector_base.25" = type { %"struct.std::_Vector_base<Assimp::D3DS::Node *, std::allocator<Assimp::D3DS::Node *>>::_Vector_impl" }
%"struct.std::_Vector_base<Assimp::D3DS::Node *, std::allocator<Assimp::D3DS::Node *>>::_Vector_impl" = type { %"struct.std::_Vector_base<Assimp::D3DS::Node *, std::allocator<Assimp::D3DS::Node *>>::_Vector_impl_data" }
%"struct.std::_Vector_base<Assimp::D3DS::Node *, std::allocator<Assimp::D3DS::Node *>>::_Vector_impl_data" = type { ptr, ptr, ptr }
%"class.std::vector.29" = type { %"struct.std::_Vector_base.30" }
%"struct.std::_Vector_base.30" = type { %"struct.std::_Vector_base<aiQuatKey, std::allocator<aiQuatKey>>::_Vector_impl" }
%"struct.std::_Vector_base<aiQuatKey, std::allocator<aiQuatKey>>::_Vector_impl" = type { %"struct.std::_Vector_base<aiQuatKey, std::allocator<aiQuatKey>>::_Vector_impl_data" }
%"struct.std::_Vector_base<aiQuatKey, std::allocator<aiQuatKey>>::_Vector_impl_data" = type { ptr, ptr, ptr }
%"class.std::vector.34" = type { %"struct.std::_Vector_base.35" }
%"struct.std::_Vector_base.35" = type { %"struct.std::_Vector_base<aiVectorKey, std::allocator<aiVectorKey>>::_Vector_impl" }
%"struct.std::_Vector_base<aiVectorKey, std::allocator<aiVectorKey>>::_Vector_impl" = type { %"struct.std::_Vector_base<aiVectorKey, std::allocator<aiVectorKey>>::_Vector_impl_data" }
%"struct.std::_Vector_base<aiVectorKey, std::allocator<aiVectorKey>>::_Vector_impl_data" = type { ptr, ptr, ptr }
%"class.std::vector.39" = type { %"struct.std::_Vector_base.40" }
%"struct.std::_Vector_base.40" = type { %"struct.std::_Vector_base<Assimp::D3DS::aiFloatKey, std::allocator<Assimp::D3DS::aiFloatKey>>::_Vector_impl" }
%"struct.std::_Vector_base<Assimp::D3DS::aiFloatKey, std::allocator<Assimp::D3DS::aiFloatKey>>::_Vector_impl" = type { %"struct.std::_Vector_base<Assimp::D3DS::aiFloatKey, std::allocator<Assimp::D3DS::aiFloatKey>>::_Vector_impl_data" }
%"struct.std::_Vector_base<Assimp::D3DS::aiFloatKey, std::allocator<Assimp::D3DS::aiFloatKey>>::_Vector_impl_data" = type { ptr, ptr, ptr }
%class.aiVector3t = type { float, float, float }
%"class.__gnu_cxx::__normal_iterator" = type { ptr }
%struct.MeshWithSmoothingGroups = type { %"class.std::vector.44", %"class.std::vector.49", %"class.std::vector.44" }
%"class.std::vector.49" = type { %"struct.std::_Vector_base.50" }
%"struct.std::_Vector_base.50" = type { %"struct.std::_Vector_base<Assimp::D3DS::Face, std::allocator<Assimp::D3DS::Face>>::_Vector_impl" }
%"struct.std::_Vector_base<Assimp::D3DS::Face, std::allocator<Assimp::D3DS::Face>>::_Vector_impl" = type { %"struct.std::_Vector_base<Assimp::D3DS::Face, std::allocator<Assimp::D3DS::Face>>::_Vector_impl_data" }
%"struct.std::_Vector_base<Assimp::D3DS::Face, std::allocator<Assimp::D3DS::Face>>::_Vector_impl_data" = type { ptr, ptr, ptr }
%"class.std::vector.44" = type { %"struct.std::_Vector_base.45" }
%"struct.std::_Vector_base.45" = type { %"struct.std::_Vector_base<aiVector3t<float>, std::allocator<aiVector3t<float>>>::_Vector_impl" }
%"struct.std::_Vector_base<aiVector3t<float>, std::allocator<aiVector3t<float>>>::_Vector_impl" = type { %"struct.std::_Vector_base<aiVector3t<float>, std::allocator<aiVector3t<float>>>::_Vector_impl_data" }
%"struct.std::_Vector_base<aiVector3t<float>, std::allocator<aiVector3t<float>>>::_Vector_impl_data" = type { ptr, ptr, ptr }
%"class.Assimp::Formatter::basic_formatter" = type { %"class.std::__cxx11::basic_ostringstream" }
%"class.std::__cxx11::basic_ostringstream" = type { %"class.std::basic_ostream.base", %"class.std::__cxx11::basic_stringbuf", %"class.std::basic_ios" }
%"class.std::basic_ostream.base" = type { ptr }
%"class.std::__cxx11::basic_stringbuf" = type { %"class.std::basic_streambuf", i32, %"class.std::__cxx11::basic_string" }
%"class.std::basic_streambuf" = type { ptr, ptr, ptr, ptr, ptr, ptr, ptr, %"class.std::locale" }
%"class.std::locale" = type { ptr }
%"class.std::basic_ios" = type { %"class.std::ios_base", ptr, i8, i8, ptr, ptr, ptr, ptr }
%"class.std::ios_base" = type { ptr, i64, i64, i32, i32, i32, ptr, %"struct.std::ios_base::_Words", [8 x %"struct.std::ios_base::_Words"], i32, ptr, %"class.std::locale" }
%"struct.std::ios_base::_Words" = type { ptr, i64 }
%"struct.Assimp::D3DS::Discreet3DS::Chunk" = type <{ i16, i32 }>
%"class.Assimp::SGSpatialSort" = type { %class.aiVector3t, %"class.std::vector.71" }
%"class.std::vector.71" = type { %"struct.std::_Vector_base.72" }
%"struct.std::_Vector_base.72" = type { %"struct.std::_Vector_base<Assimp::SGSpatialSort::Entry, std::allocator<Assimp::SGSpatialSort::Entry>>::_Vector_impl" }
%"struct.std::_Vector_base<Assimp::SGSpatialSort::Entry, std::allocator<Assimp::SGSpatialSort::Entry>>::_Vector_impl" = type { %"struct.std::_Vector_base<Assimp::SGSpatialSort::Entry, std::allocator<Assimp::SGSpatialSort::Entry>>::_Vector_impl_data" }
%"struct.std::_Vector_base<Assimp::SGSpatialSort::Entry, std::allocator<Assimp::SGSpatialSort::Entry>>::_Vector_impl_data" = type { ptr, ptr, ptr }
%"class.__gnu_cxx::__normal_iterator.66" = type { ptr }
%"class.std::vector.76" = type { %"struct.std::_Bvector_base" }
%"struct.std::_Bvector_base" = type { %"struct.std::_Bvector_base<std::allocator<bool>>::_Bvector_impl" }
%"struct.std::_Bvector_base<std::allocator<bool>>::_Bvector_impl" = type { %"struct.std::_Bvector_base<std::allocator<bool>>::_Bvector_impl_data" }
%"struct.std::_Bvector_base<std::allocator<bool>>::_Bvector_impl_data" = type { %"struct.std::_Bit_iterator", %"struct.std::_Bit_iterator", ptr }
%"struct.std::_Bit_iterator" = type { %"struct.std::_Bit_iterator_base.base", [4 x i8] }
%"struct.std::_Bit_iterator_base.base" = type <{ ptr, i32 }>
%"class.std::allocator.80" = type { i8 }
%"class.std::vector.54" = type { %"struct.std::_Vector_base.55" }
%"struct.std::_Vector_base.55" = type { %"struct.std::_Vector_base<unsigned int, std::allocator<unsigned int>>::_Vector_impl" }
%"struct.std::_Vector_base<unsigned int, std::allocator<unsigned int>>::_Vector_impl" = type { %"struct.std::_Vector_base<unsigned int, std::allocator<unsigned int>>::_Vector_impl_data" }
%"struct.std::_Vector_base<unsigned int, std::allocator<unsigned int>>::_Vector_impl_data" = type { ptr, ptr, ptr }
%"struct.std::_Bit_reference" = type { ptr, i64 }
%"class.__gnu_cxx::__normal_iterator.83" = type { ptr }
%"class.__gnu_cxx::__normal_iterator.84" = type { ptr }
%struct.FaceWithSmoothingGroup = type { [3 x i32], i32 }
%"struct.Assimp::D3DS::Mesh" = type { %struct.MeshWithSmoothingGroups, %"class.std::__cxx11::basic_string", %"class.std::vector.44", %"class.std::vector.54", %class.aiMatrix4x4t }
%class.aiMatrix4x4t = type { float, float, float, float, float, float, float, float, float, float, float, float, float, float, float, float }
%struct.aiScene = type { i32, ptr, i32, ptr, i32, ptr, i32, ptr, i32, ptr, i32, ptr, i32, ptr, ptr, %struct.aiString, i32, ptr, ptr }
%struct.aiString = type { i32, [1024 x i8] }
%struct.aiNode = type { %struct.aiString, %class.aiMatrix4x4t, ptr, i32, ptr, i32, ptr, ptr }
%class.aiQuaterniont = type { float, float, float, float }
%class.aiMatrix3x3t = type { float, float, float, float, float, float, float, float, float }
%struct.aiLight = type { %struct.aiString, i32, %class.aiVector3t, %class.aiVector3t, %class.aiVector3t, float, float, float, %struct.aiColor3D, %struct.aiColor3D, %struct.aiColor3D, float, float, %class.aiVector2t }
%class.aiVector2t = type { float, float }
%struct.aiCamera = type { %struct.aiString, %class.aiVector3t, %class.aiVector3t, %class.aiVector3t, float, float, float, float, float }
%"class.__gnu_cxx::__normal_iterator.68" = type { ptr }
%"struct.Assimp::D3DS::Material" = type <{ ptr, %"class.std::__cxx11::basic_string", %struct.aiColor3D, float, float, %struct.aiColor3D, %struct.aiColor3D, i32, float, [4 x i8], %"struct.Assimp::D3DS::Texture", %"struct.Assimp::D3DS::Texture", %"struct.Assimp::D3DS::Texture", %"struct.Assimp::D3DS::Texture", %"struct.Assimp::D3DS::Texture", %"struct.Assimp::D3DS::Texture", %"struct.Assimp::D3DS::Texture", float, %struct.aiColor3D, %"struct.Assimp::D3DS::Texture", i8, [7 x i8] }>
%"struct.Assimp::D3DS::Texture" = type { float, %"class.std::__cxx11::basic_string", float, float, float, float, float, i32, i8, i32 }
%union._IEEESingle = type { float }
%"class.__gnu_cxx::__normal_iterator.93" = type { ptr }
%"class.__gnu_cxx::__normal_iterator.94" = type { ptr }
%struct.aiVectorKey = type <{ double, %class.aiVector3t, [4 x i8] }>
%"class.__gnu_cxx::__normal_iterator.60" = type { ptr }
%"class.__gnu_cxx::__normal_iterator.61" = type { ptr }
%"struct.Assimp::D3DS::aiFloatKey" = type { double, float }
%"class.__gnu_cxx::__normal_iterator.62" = type { ptr }
%"class.__gnu_cxx::__normal_iterator.63" = type { ptr }
%struct.aiQuatKey = type { double, %class.aiQuaterniont }
%"class.__gnu_cxx::__normal_iterator.64" = type { ptr }
%"class.__gnu_cxx::__normal_iterator.65" = type { ptr }
%"class.__gnu_cxx::__normal_iterator.59" = type { ptr }
%"struct.__gnu_cxx::__ops::_Iter_comp_iter" = type { ptr }
%"struct.__gnu_cxx::__ops::_Iter_comp_iter.98" = type { ptr }
%"struct.__gnu_cxx::__ops::_Iter_comp_iter.102" = type { ptr }
%"class.__gnu_cxx::__normal_iterator.67" = type { ptr }
%"struct.Assimp::D3DS::Face" = type { %struct.FaceWithSmoothingGroup }
%"class.__gnu_cxx::__normal_iterator.85" = type { ptr }
%"class.Assimp::IOSystem" = type { ptr, %"class.std::vector" }
%"class.std::vector" = type { %"struct.std::_Vector_base" }
%"class.__gnu_cxx::__normal_iterator.69" = type { ptr }
%"class.__gnu_cxx::__normal_iterator.70" = type { ptr }
%struct._Guard = type { ptr }
%"class.std::_Sp_counted_ptr" = type { %"class.std::_Sp_counted_base", ptr }
%"class.std::_Sp_counted_base" = type { ptr, i32, i32 }
%"class.__gnu_cxx::__normal_iterator.86" = type { ptr }
%"struct.std::vector<aiVector3t<float>>::_Temporary_value" = type <{ ptr, %"union.std::vector<aiVector3t<float>>::_Temporary_value::_Storage", [4 x i8] }>
%"union.std::vector<aiVector3t<float>>::_Temporary_value::_Storage" = type { %class.aiVector3t }
%"class.std::move_iterator" = type { ptr }
%"class.std::allocator.77" = type { i8 }
%"struct.std::_Bit_iterator_base" = type <{ ptr, i32, [4 x i8] }>
%"struct.Assimp::Intern::Getter" = type { i8 }
%"struct.Assimp::Intern::ByteSwapper" = type { i8 }
%"struct.Assimp::Intern::Getter.87" = type { i8 }
%"struct.Assimp::Intern::ByteSwapper.88" = type { i8 }
%"struct.Assimp::Intern::Getter.89" = type { i8 }
%"struct.Assimp::Intern::ByteSwapper.90" = type { i8 }
%"struct.Assimp::Intern::Getter.91" = type { i8 }
%"struct.Assimp::Intern::ByteSwapper.92" = type { i8 }
%"class.std::_Temporary_buffer" = type { i64, i64, ptr }
%"struct.std::pair" = type { ptr, i64 }
%"struct.__gnu_cxx::__ops::_Iter_less_iter" = type { i8 }
%"struct.__gnu_cxx::__ops::_Val_less_iter" = type { i8 }
%"struct.__gnu_cxx::__ops::_Iter_less_val" = type { i8 }
%"class.std::_Temporary_buffer.95" = type { i64, i64, ptr }
%"struct.std::pair.96" = type { ptr, i64 }
%"class.std::_Temporary_buffer.99" = type { i64, i64, ptr }
%"struct.std::pair.100" = type { ptr, i64 }
%"struct.std::vector<unsigned int>::_Temporary_value" = type <{ ptr, %"union.std::vector<unsigned int>::_Temporary_value::_Storage", [4 x i8] }>
%"union.std::vector<unsigned int>::_Temporary_value::_Storage" = type { i32 }
%"class.std::move_iterator.103" = type { ptr }
%"struct.Assimp::Intern::Getter.104" = type { i8 }
%"struct.Assimp::Intern::ByteSwapper.105" = type { i8 }

$_ZN6Assimp8IOStreamD0Ev = comdat any

$_ZN6Assimp9LogStreamD0Ev = comdat any

$_ZN6Assimp6LoggerD0Ev = comdat any

$_ZNSt6vectorINSt7__cxx1112basic_stringIcSt11char_traitsIcESaIcEEESaIS5_EED2Ev = comdat any

$_ZN6Assimp8IOSystemD0Ev = comdat any

$_ZN9aiColor3DC2Ev = comdat any

$_ZN6Assimp8IOSystem4OpenERKNSt7__cxx1112basic_stringIcSt11char_traitsIcESaIcEEES8_ = comdat any

$_ZNSt7__cxx1112basic_stringIcSt11char_traitsIcESaIcEEC2IS3_EEPKcRKS3_ = comdat any

$_ZN17DeadlyImportErrorC2IJRA21_KcRKNSt7__cxx1112basic_stringIcSt11char_traitsIcESaIcEEEEEEDpOT_ = comdat any

$_ZN17DeadlyImportErrorD2Ev = comdat any

$_ZN6Assimp12StreamReaderILb0ELb0EEC2EPNS_8IOStreamEb = comdat any

$_ZNK6Assimp12StreamReaderILb0ELb0EE16GetRemainingSizeEv = comdat any

$_ZN17DeadlyImportErrorC2IJRA38_KcRKNSt7__cxx1112basic_stringIcSt11char_traitsIcESaIcEEEEEEDpOT_ = comdat any

$_ZN6Assimp4D3DS5SceneC2Ev = comdat any

$_ZN6Assimp4D3DS4NodeC2ERKNSt7__cxx1112basic_stringIcSt11char_traitsIcESaIcEEE = comdat any

$_ZNSt6vectorIN6Assimp4D3DS4MeshESaIS2_EE5beginEv = comdat any

$_ZNSt6vectorIN6Assimp4D3DS4MeshESaIS2_EE3endEv = comdat any

$_ZN9__gnu_cxxneIPN6Assimp4D3DS4MeshESt6vectorIS3_SaIS3_EEEEbRKNS_17__normal_iteratorIT_T0_EESD_ = comdat any

$_ZNK9__gnu_cxx17__normal_iteratorIPN6Assimp4D3DS4MeshESt6vectorIS3_SaIS3_EEEdeEv = comdat any

$_ZNKSt6vectorIN6Assimp4D3DS4FaceESaIS2_EE4sizeEv = comdat any

$_ZNKSt6vectorI10aiVector3tIfESaIS1_EE4sizeEv = comdat any

$_ZN17DeadlyImportErrorC2IJRA42_KcRKNSt7__cxx1112basic_stringIcSt11char_traitsIcESaIcEEEEEEDpOT_ = comdat any

$_Z34ComputeNormalsWithSmoothingsGroupsIN6Assimp4D3DS4FaceEEvR23MeshWithSmoothingGroupsIT_E = comdat any

$_ZN9__gnu_cxx17__normal_iteratorIPN6Assimp4D3DS4MeshESt6vectorIS3_SaIS3_EEEppEv = comdat any

$_ZN6Assimp4D3DS4NodeD2Ev = comdat any

$_ZN6Assimp4D3DS5SceneD2Ev = comdat any

$_ZN6Assimp12StreamReaderILb0ELb0EED2Ev = comdat any

$_ZN12aiMatrix4x4tIfEC2Effffffffffffffff = comdat any

$_ZN12aiMatrix4x4tIfEmLERKS0_ = comdat any

$_ZN6Assimp12StreamReaderILb0ELb0EE5GetI2Ev = comdat any

$_ZN6Assimp12StreamReaderILb0ELb0EE5GetI4Ev = comdat any

$_ZN17DeadlyImportErrorC2EPKc = comdat any

$_ZNK6Assimp12StreamReaderILb0ELb0EE23GetRemainingSizeToLimitEv = comdat any

$_ZN6Assimp12StreamReaderILb0ELb0EE6IncPtrEl = comdat any

$_ZN6Assimp12StreamReaderILb0ELb0EE12SetReadLimitEj = comdat any

$_ZNK6Assimp12StreamReaderILb0ELb0EE13GetCurrentPosEv = comdat any

$_ZN6Assimp12StreamReaderILb0ELb0EE15SkipToReadLimitEv = comdat any

$_ZN6Assimp13ASSIMP_itoa10ILm10EEEjRAT__ci = comdat any

$_ZN6Assimp6Logger4infoIJRA26_KcRA10_cEEEvDpOT_ = comdat any

$_ZNK6Assimp12StreamReaderILb0ELb0EE6GetPtrEv = comdat any

$_ZN6Assimp12StreamReaderILb0ELb0EE5GetI1Ev = comdat any

$_ZNSt6vectorIN6Assimp4D3DS8MaterialESaIS2_EE12emplace_backIJNSt7__cxx1112basic_stringIcSt11char_traitsIcESaIcEEEEEERS2_DpOT_ = comdat any

$_ZStplIcSt11char_traitsIcESaIcEENSt7__cxx1112basic_stringIT_T0_T1_EEPKS5_OS8_ = comdat any

$_Z12ai_to_stringImENSt7__cxx1112basic_stringIcSt11char_traitsIcESaIcEEET_ = comdat any

$_ZNKSt6vectorIN6Assimp4D3DS8MaterialESaIS2_EE4sizeEv = comdat any

$_Z7is_qnanf = comdat any

$_ZN6Assimp12StreamReaderILb0ELb0EE5GetF4Ev = comdat any

$_ZNSt6vectorIN6Assimp4D3DS4MeshESaIS2_EE12emplace_backIJNSt7__cxx1112basic_stringIcSt11char_traitsIcESaIcEEEEEERS2_DpOT_ = comdat any

$_ZN7aiLightC2Ev = comdat any

$_ZNSt6vectorIP7aiLightSaIS1_EE9push_backERKS1_ = comdat any

$_ZN8aiString3SetERKNSt7__cxx1112basic_stringIcSt11char_traitsIcESaIcEEE = comdat any

$_ZN9aiColor3DC2Efff = comdat any

$_ZN9aiColor3DaSERKS_ = comdat any

$_ZN8aiCameraC2Ev = comdat any

$_ZNSt6vectorIP8aiCameraSaIS1_EE9push_backERKS1_ = comdat any

$_ZNK10aiVector3tIfE6LengthEv = comdat any

$_ZN10aiVector3tIfEC2Efff = comdat any

$_ZN10aiVector3tIfEdVEf = comdat any

$_ZN13aiQuaterniontIfEC2E10aiVector3tIfEf = comdat any

$_ZmlIfE10aiVector3tIT_ERK12aiMatrix3x3tIS1_ERKS2_ = comdat any

$_ZNK13aiQuaterniontIfE9GetMatrixEv = comdat any

$_ZNSt6vectorIP7aiLightSaIS1_EE4backEv = comdat any

$_ZN10aiVector3tIfE9NormalizeEv = comdat any

$_ZNK9aiColor3DmlEf = comdat any

$_ZNSt6vectorIP8aiCameraSaIS1_EE4backEv = comdat any

$_ZN6Assimp4D3DS4Node9push_backEPS1_ = comdat any

$_ZSteqIcEN9__gnu_cxx11__enable_ifIXsr9__is_charIT_EE7__valueEbE6__typeERKNSt7__cxx1112basic_stringIS2_St11char_traitsIS2_ESaIS2_EEESC_ = comdat any

$_ZNSt6vectorIPN6Assimp4D3DS4NodeESaIS3_EE5beginEv = comdat any

$_ZN9__gnu_cxxneIPPN6Assimp4D3DS4NodeESt6vectorIS4_SaIS4_EEEEbRKNS_17__normal_iteratorIT_T0_EESE_ = comdat any

$_ZNSt6vectorIPN6Assimp4D3DS4NodeESaIS3_EE3endEv = comdat any

$_ZNK9__gnu_cxx17__normal_iteratorIPPN6Assimp4D3DS4NodeESt6vectorIS4_SaIS4_EEEdeEv = comdat any

$_ZN9__gnu_cxx17__normal_iteratorIPPN6Assimp4D3DS4NodeESt6vectorIS4_SaIS4_EEEppEv = comdat any

$_ZSteqIcSt11char_traitsIcESaIcEEbRKNSt7__cxx1112basic_stringIT_T0_T1_EEPKS5_ = comdat any

$_ZNSt6vectorI11aiVectorKeySaIS0_EE7reserveEm = comdat any

$_ZN11aiVectorKeyC2Ev = comdat any

$_ZNKSt6vectorI11aiVectorKeySaIS0_EE5emptyEv = comdat any

$_ZNSt6vectorI11aiVectorKeySaIS0_EE4backEv = comdat any

$_ZNSt6vectorI11aiVectorKeySaIS0_EE9push_backERKS0_ = comdat any

$_ZSt11stable_sortIN9__gnu_cxx17__normal_iteratorIP11aiVectorKeySt6vectorIS2_SaIS2_EEEEEvT_S8_ = comdat any

$_ZNSt6vectorI11aiVectorKeySaIS0_EE5beginEv = comdat any

$_ZNSt6vectorI11aiVectorKeySaIS0_EE3endEv = comdat any

$_ZNSt6vectorI11aiVectorKeySaIS0_EE5eraseEN9__gnu_cxx17__normal_iteratorIPKS0_S2_EES7_ = comdat any

$_ZSt6uniqueIN9__gnu_cxx17__normal_iteratorIP11aiVectorKeySt6vectorIS2_SaIS2_EEEEPFbRKS2_S9_EET_SC_SC_T0_ = comdat any

$_ZN6Assimp16KeyUniqueCompareI11aiVectorKeyEEbRKT_S4_ = comdat any

$_ZN9__gnu_cxx17__normal_iteratorIPK11aiVectorKeySt6vectorIS1_SaIS1_EEEC2IPS1_vEERKNS0_IT_S6_EE = comdat any

$_ZNSt6vectorIN6Assimp4D3DS10aiFloatKeyESaIS2_EE7reserveEm = comdat any

$_ZNKSt6vectorIN6Assimp4D3DS10aiFloatKeyESaIS2_EE5emptyEv = comdat any

$_ZNSt6vectorIN6Assimp4D3DS10aiFloatKeyESaIS2_EE4backEv = comdat any

$_ZNSt6vectorIN6Assimp4D3DS10aiFloatKeyESaIS2_EE9push_backERKS2_ = comdat any

$_ZSt11stable_sortIN9__gnu_cxx17__normal_iteratorIPN6Assimp4D3DS10aiFloatKeyESt6vectorIS4_SaIS4_EEEEEvT_SA_ = comdat any

$_ZNSt6vectorIN6Assimp4D3DS10aiFloatKeyESaIS2_EE5beginEv = comdat any

$_ZNSt6vectorIN6Assimp4D3DS10aiFloatKeyESaIS2_EE3endEv = comdat any

$_ZNSt6vectorIN6Assimp4D3DS10aiFloatKeyESaIS2_EE5eraseEN9__gnu_cxx17__normal_iteratorIPKS2_S4_EES9_ = comdat any

$_ZSt6uniqueIN9__gnu_cxx17__normal_iteratorIPN6Assimp4D3DS10aiFloatKeyESt6vectorIS4_SaIS4_EEEEPFbRKS4_SB_EET_SE_SE_T0_ = comdat any

$_ZN6Assimp16KeyUniqueCompareINS_4D3DS10aiFloatKeyEEEbRKT_S5_ = comdat any

$_ZN9__gnu_cxx17__normal_iteratorIPKN6Assimp4D3DS10aiFloatKeyESt6vectorIS3_SaIS3_EEEC2IPS3_vEERKNS0_IT_S8_EE = comdat any

$_ZNSt6vectorI9aiQuatKeySaIS0_EE7reserveEm = comdat any

$_ZN9aiQuatKeyC2Ev = comdat any

$_ZN10aiVector3tIfEC2Ev = comdat any

$_ZNKSt6vectorI9aiQuatKeySaIS0_EE5emptyEv = comdat any

$_ZNSt6vectorI9aiQuatKeySaIS0_EE4backEv = comdat any

$_ZNSt6vectorI9aiQuatKeySaIS0_EE9push_backERKS0_ = comdat any

$_ZSt11stable_sortIN9__gnu_cxx17__normal_iteratorIP9aiQuatKeySt6vectorIS2_SaIS2_EEEEEvT_S8_ = comdat any

$_ZNSt6vectorI9aiQuatKeySaIS0_EE5beginEv = comdat any

$_ZNSt6vectorI9aiQuatKeySaIS0_EE3endEv = comdat any

$_ZNSt6vectorI9aiQuatKeySaIS0_EE5eraseEN9__gnu_cxx17__normal_iteratorIPKS0_S2_EES7_ = comdat any

$_ZSt6uniqueIN9__gnu_cxx17__normal_iteratorIP9aiQuatKeySt6vectorIS2_SaIS2_EEEEPFbRKS2_S9_EET_SC_SC_T0_ = comdat any

$_ZN6Assimp16KeyUniqueCompareI9aiQuatKeyEEbRKT_S4_ = comdat any

$_ZN9__gnu_cxx17__normal_iteratorIPK9aiQuatKeySt6vectorIS1_SaIS1_EEEC2IPS1_vEERKNS0_IT_S6_EE = comdat any

$_ZNSt6vectorIN6Assimp4D3DS4MeshESaIS2_EE4backEv = comdat any

$_ZNSt6vectorIN6Assimp4D3DS4FaceESaIS2_EE5beginEv = comdat any

$_ZNK9__gnu_cxx17__normal_iteratorIPN6Assimp4D3DS4FaceESt6vectorIS3_SaIS3_EEEdeEv = comdat any

$_ZN9__gnu_cxx17__normal_iteratorIPN6Assimp4D3DS4FaceESt6vectorIS3_SaIS3_EEEppEv = comdat any

$_ZNSt6vectorIN6Assimp4D3DS8MaterialESaIS2_EE5beginEv = comdat any

$_ZN9__gnu_cxx17__normal_iteratorIPKN6Assimp4D3DS8MaterialESt6vectorIS3_SaIS3_EEEC2IPS3_vEERKNS0_IT_S8_EE = comdat any

$_ZN9__gnu_cxxneIPKN6Assimp4D3DS8MaterialEPS3_St6vectorIS3_SaIS3_EEEEbRKNS_17__normal_iteratorIT_T1_EERKNSA_IT0_SC_EE = comdat any

$_ZNSt6vectorIN6Assimp4D3DS8MaterialESaIS2_EE3endEv = comdat any

$_ZNK9__gnu_cxx17__normal_iteratorIPKN6Assimp4D3DS8MaterialESt6vectorIS3_SaIS3_EEEdeEv = comdat any

$_ZN6Assimp14ASSIMP_stricmpEPKcS1_ = comdat any

$_ZN9__gnu_cxx17__normal_iteratorIPKN6Assimp4D3DS8MaterialESt6vectorIS3_SaIS3_EEEppEv = comdat any

$_ZN6Assimp6Logger5errorIJRA24_KcRPS2_EEEvDpOT_ = comdat any

$_ZNKSt6vectorIjSaIjEE4sizeEv = comdat any

$_ZNSt6vectorIjSaIjEEixEm = comdat any

$_ZNSt6vectorI10aiVector3tIfESaIS1_EE7reserveEm = comdat any

$_ZNSt6vectorI10aiVector3tIfESaIS1_EE9push_backERKS1_ = comdat any

$_ZNSt6vectorIN6Assimp4D3DS4FaceESaIS2_EE7reserveEm = comdat any

$_ZNSt6vectorIN6Assimp4D3DS4FaceESaIS2_EE12emplace_backIJEEERS2_DpOT_ = comdat any

$_ZNSt6vectorIN6Assimp4D3DS4FaceESaIS2_EE4backEv = comdat any

$_ZNSt6vectorIjSaIjEE6resizeEmRKj = comdat any

$_ZNSt6vectorIN6Assimp4D3DS8MaterialESaIS2_EE4backEv = comdat any

$_ZN6Assimp12StreamReaderILb0ELb0EE5GetF8Ev = comdat any

$_Z8get_qnanv = comdat any

$_ZN6Assimp8IOStreamD2Ev = comdat any

$_ZN6Assimp9LogStreamD2Ev = comdat any

$_ZN6Assimp6LoggerD2Ev = comdat any

$_ZN6Assimp8IOSystemD2Ev = comdat any

$_ZN6Assimp8IOSystem13PushDirectoryERKNSt7__cxx1112basic_stringIcSt11char_traitsIcESaIcEEE = comdat any

$_ZNK6Assimp8IOSystem9StackSizeEv = comdat any

$_ZN6Assimp8IOSystem12PopDirectoryEv = comdat any

$_ZN6Assimp8IOSystem15CreateDirectoryERKNSt7__cxx1112basic_stringIcSt11char_traitsIcESaIcEEE = comdat any

$_ZN6Assimp8IOSystem15ChangeDirectoryERKNSt7__cxx1112basic_stringIcSt11char_traitsIcESaIcEEE = comdat any

$_ZN6Assimp8IOSystem10DeleteFileERKNSt7__cxx1112basic_stringIcSt11char_traitsIcESaIcEEE = comdat any

$_ZN6Assimp19Discreet3DSImporterD2Ev = comdat any

$_ZN6Assimp19Discreet3DSImporterD0Ev = comdat any

$_ZN15DeadlyErrorBaseD2Ev = comdat any

$_ZNSt6vectorIN6Assimp4D3DS8MaterialESaIS2_EEC2Ev = comdat any

$_ZNSt6vectorIN6Assimp4D3DS4MeshESaIS2_EEC2Ev = comdat any

$_ZNSt6vectorIP8aiCameraSaIS1_EEC2Ev = comdat any

$_ZNSt6vectorIP7aiLightSaIS1_EEC2Ev = comdat any

$_ZNSt12_Vector_baseIN6Assimp4D3DS8MaterialESaIS2_EEC2Ev = comdat any

$_ZNSt12_Vector_baseIN6Assimp4D3DS8MaterialESaIS2_EE12_Vector_implC2Ev = comdat any

$_ZNSaIN6Assimp4D3DS8MaterialEEC2Ev = comdat any

$_ZNSt12_Vector_baseIN6Assimp4D3DS8MaterialESaIS2_EE17_Vector_impl_dataC2Ev = comdat any

$_ZNSt15__new_allocatorIN6Assimp4D3DS8MaterialEEC2Ev = comdat any

$_ZNSt12_Vector_baseIN6Assimp4D3DS4MeshESaIS2_EEC2Ev = comdat any

$_ZNSt12_Vector_baseIN6Assimp4D3DS4MeshESaIS2_EE12_Vector_implC2Ev = comdat any

$_ZNSaIN6Assimp4D3DS4MeshEEC2Ev = comdat any

$_ZNSt12_Vector_baseIN6Assimp4D3DS4MeshESaIS2_EE17_Vector_impl_dataC2Ev = comdat any

$_ZNSt15__new_allocatorIN6Assimp4D3DS4MeshEEC2Ev = comdat any

$_ZNSt12_Vector_baseIP8aiCameraSaIS1_EEC2Ev = comdat any

$_ZNSt12_Vector_baseIP8aiCameraSaIS1_EE12_Vector_implC2Ev = comdat any

$_ZNSaIP8aiCameraEC2Ev = comdat any

$_ZNSt12_Vector_baseIP8aiCameraSaIS1_EE17_Vector_impl_dataC2Ev = comdat any

$_ZNSt15__new_allocatorIP8aiCameraEC2Ev = comdat any

$_ZNSt12_Vector_baseIP7aiLightSaIS1_EEC2Ev = comdat any

$_ZNSt12_Vector_baseIP7aiLightSaIS1_EE12_Vector_implC2Ev = comdat any

$_ZNSaIP7aiLightEC2Ev = comdat any

$_ZNSt12_Vector_baseIP7aiLightSaIS1_EE17_Vector_impl_dataC2Ev = comdat any

$_ZNSt15__new_allocatorIP7aiLightEC2Ev = comdat any

$_ZNSt6vectorIPN6Assimp4D3DS4NodeESaIS3_EEC2Ev = comdat any

$_ZNSt6vectorI9aiQuatKeySaIS0_EEC2Ev = comdat any

$_ZNSt6vectorI11aiVectorKeySaIS0_EEC2Ev = comdat any

$_ZNSt6vectorIN6Assimp4D3DS10aiFloatKeyESaIS2_EEC2Ev = comdat any

$_ZNSt6vectorIN6Assimp4D3DS10aiFloatKeyESaIS2_EED2Ev = comdat any

$_ZNSt6vectorI11aiVectorKeySaIS0_EED2Ev = comdat any

$_ZNSt6vectorI9aiQuatKeySaIS0_EED2Ev = comdat any

$_ZNSt6vectorIPN6Assimp4D3DS4NodeESaIS3_EED2Ev = comdat any

$_ZNSt12_Vector_baseIPN6Assimp4D3DS4NodeESaIS3_EEC2Ev = comdat any

$_ZNSt12_Vector_baseIPN6Assimp4D3DS4NodeESaIS3_EE12_Vector_implC2Ev = comdat any

$_ZNSaIPN6Assimp4D3DS4NodeEEC2Ev = comdat any

$_ZNSt12_Vector_baseIPN6Assimp4D3DS4NodeESaIS3_EE17_Vector_impl_dataC2Ev = comdat any

$_ZNSt15__new_allocatorIPN6Assimp4D3DS4NodeEEC2Ev = comdat any

$_ZNSt12_Vector_baseI9aiQuatKeySaIS0_EEC2Ev = comdat any

$_ZNSt12_Vector_baseI9aiQuatKeySaIS0_EE12_Vector_implC2Ev = comdat any

$_ZNSaI9aiQuatKeyEC2Ev = comdat any

$_ZNSt12_Vector_baseI9aiQuatKeySaIS0_EE17_Vector_impl_dataC2Ev = comdat any

$_ZNSt15__new_allocatorI9aiQuatKeyEC2Ev = comdat any

$_ZNSt12_Vector_baseI11aiVectorKeySaIS0_EEC2Ev = comdat any

$_ZNSt12_Vector_baseI11aiVectorKeySaIS0_EE12_Vector_implC2Ev = comdat any

$_ZNSaI11aiVectorKeyEC2Ev = comdat any

$_ZNSt12_Vector_baseI11aiVectorKeySaIS0_EE17_Vector_impl_dataC2Ev = comdat any

$_ZNSt15__new_allocatorI11aiVectorKeyEC2Ev = comdat any

$_ZNSt12_Vector_baseIN6Assimp4D3DS10aiFloatKeyESaIS2_EEC2Ev = comdat any

$_ZNSt12_Vector_baseIN6Assimp4D3DS10aiFloatKeyESaIS2_EE12_Vector_implC2Ev = comdat any

$_ZNSaIN6Assimp4D3DS10aiFloatKeyEEC2Ev = comdat any

$_ZNSt12_Vector_baseIN6Assimp4D3DS10aiFloatKeyESaIS2_EE17_Vector_impl_dataC2Ev = comdat any

$_ZNSt15__new_allocatorIN6Assimp4D3DS10aiFloatKeyEEC2Ev = comdat any

$_ZSt8_DestroyIPN6Assimp4D3DS10aiFloatKeyES2_EvT_S4_RSaIT0_E = comdat any

$_ZNSt12_Vector_baseIN6Assimp4D3DS10aiFloatKeyESaIS2_EE19_M_get_Tp_allocatorEv = comdat any

$__clang_call_terminate = comdat any

$_ZNSt12_Vector_baseIN6Assimp4D3DS10aiFloatKeyESaIS2_EED2Ev = comdat any

$_ZSt8_DestroyIPN6Assimp4D3DS10aiFloatKeyEEvT_S4_ = comdat any

$_ZNSt12_Destroy_auxILb1EE9__destroyIPN6Assimp4D3DS10aiFloatKeyEEEvT_S6_ = comdat any

$_ZNSt12_Vector_baseIN6Assimp4D3DS10aiFloatKeyESaIS2_EE13_M_deallocateEPS2_m = comdat any

$_ZNSt12_Vector_baseIN6Assimp4D3DS10aiFloatKeyESaIS2_EE12_Vector_implD2Ev = comdat any

$_ZNSt16allocator_traitsISaIN6Assimp4D3DS10aiFloatKeyEEE10deallocateERS3_PS2_m = comdat any

$_ZNSt15__new_allocatorIN6Assimp4D3DS10aiFloatKeyEE10deallocateEPS2_m = comdat any

$_ZNSaIN6Assimp4D3DS10aiFloatKeyEED2Ev = comdat any

$_ZNSt15__new_allocatorIN6Assimp4D3DS10aiFloatKeyEED2Ev = comdat any

$_ZSt8_DestroyIP11aiVectorKeyS0_EvT_S2_RSaIT0_E = comdat any

$_ZNSt12_Vector_baseI11aiVectorKeySaIS0_EE19_M_get_Tp_allocatorEv = comdat any

$_ZNSt12_Vector_baseI11aiVectorKeySaIS0_EED2Ev = comdat any

$_ZSt8_DestroyIP11aiVectorKeyEvT_S2_ = comdat any

$_ZNSt12_Destroy_auxILb1EE9__destroyIP11aiVectorKeyEEvT_S4_ = comdat any

$_ZNSt12_Vector_baseI11aiVectorKeySaIS0_EE13_M_deallocateEPS0_m = comdat any

$_ZNSt12_Vector_baseI11aiVectorKeySaIS0_EE12_Vector_implD2Ev = comdat any

$_ZNSt16allocator_traitsISaI11aiVectorKeyEE10deallocateERS1_PS0_m = comdat any

$_ZNSt15__new_allocatorI11aiVectorKeyE10deallocateEPS0_m = comdat any

$_ZNSaI11aiVectorKeyED2Ev = comdat any

$_ZNSt15__new_allocatorI11aiVectorKeyED2Ev = comdat any

$_ZSt8_DestroyIP9aiQuatKeyS0_EvT_S2_RSaIT0_E = comdat any

$_ZNSt12_Vector_baseI9aiQuatKeySaIS0_EE19_M_get_Tp_allocatorEv = comdat any

$_ZNSt12_Vector_baseI9aiQuatKeySaIS0_EED2Ev = comdat any

$_ZSt8_DestroyIP9aiQuatKeyEvT_S2_ = comdat any

$_ZNSt12_Destroy_auxILb1EE9__destroyIP9aiQuatKeyEEvT_S4_ = comdat any

$_ZNSt12_Vector_baseI9aiQuatKeySaIS0_EE13_M_deallocateEPS0_m = comdat any

$_ZNSt12_Vector_baseI9aiQuatKeySaIS0_EE12_Vector_implD2Ev = comdat any

$_ZNSt16allocator_traitsISaI9aiQuatKeyEE10deallocateERS1_PS0_m = comdat any

$_ZNSt15__new_allocatorI9aiQuatKeyE10deallocateEPS0_m = comdat any

$_ZNSaI9aiQuatKeyED2Ev = comdat any

$_ZNSt15__new_allocatorI9aiQuatKeyED2Ev = comdat any

$_ZSt8_DestroyIPPN6Assimp4D3DS4NodeES3_EvT_S5_RSaIT0_E = comdat any

$_ZNSt12_Vector_baseIPN6Assimp4D3DS4NodeESaIS3_EE19_M_get_Tp_allocatorEv = comdat any

$_ZNSt12_Vector_baseIPN6Assimp4D3DS4NodeESaIS3_EED2Ev = comdat any

$_ZSt8_DestroyIPPN6Assimp4D3DS4NodeEEvT_S5_ = comdat any

$_ZNSt12_Destroy_auxILb1EE9__destroyIPPN6Assimp4D3DS4NodeEEEvT_S7_ = comdat any

$_ZNSt12_Vector_baseIPN6Assimp4D3DS4NodeESaIS3_EE13_M_deallocateEPS3_m = comdat any

$_ZNSt12_Vector_baseIPN6Assimp4D3DS4NodeESaIS3_EE12_Vector_implD2Ev = comdat any

$_ZNSt16allocator_traitsISaIPN6Assimp4D3DS4NodeEEE10deallocateERS4_PS3_m = comdat any

$_ZNSt15__new_allocatorIPN6Assimp4D3DS4NodeEE10deallocateEPS3_m = comdat any

$_ZNSaIPN6Assimp4D3DS4NodeEED2Ev = comdat any

$_ZNSt15__new_allocatorIPN6Assimp4D3DS4NodeEED2Ev = comdat any

$_ZNKSt6vectorIPN6Assimp4D3DS4NodeESaIS3_EE4sizeEv = comdat any

$_ZNSt6vectorIPN6Assimp4D3DS4NodeESaIS3_EEixEm = comdat any

$_ZNSt6vectorIP7aiLightSaIS1_EED2Ev = comdat any

$_ZNSt6vectorIP8aiCameraSaIS1_EED2Ev = comdat any

$_ZNSt6vectorIN6Assimp4D3DS4MeshESaIS2_EED2Ev = comdat any

$_ZNSt6vectorIN6Assimp4D3DS8MaterialESaIS2_EED2Ev = comdat any

$_ZSt8_DestroyIPP7aiLightS1_EvT_S3_RSaIT0_E = comdat any

$_ZNSt12_Vector_baseIP7aiLightSaIS1_EE19_M_get_Tp_allocatorEv = comdat any

$_ZNSt12_Vector_baseIP7aiLightSaIS1_EED2Ev = comdat any

$_ZSt8_DestroyIPP7aiLightEvT_S3_ = comdat any

$_ZNSt12_Destroy_auxILb1EE9__destroyIPP7aiLightEEvT_S5_ = comdat any

$_ZNSt12_Vector_baseIP7aiLightSaIS1_EE13_M_deallocateEPS1_m = comdat any

$_ZNSt12_Vector_baseIP7aiLightSaIS1_EE12_Vector_implD2Ev = comdat any

$_ZNSt16allocator_traitsISaIP7aiLightEE10deallocateERS2_PS1_m = comdat any

$_ZNSt15__new_allocatorIP7aiLightE10deallocateEPS1_m = comdat any

$_ZNSaIP7aiLightED2Ev = comdat any

$_ZNSt15__new_allocatorIP7aiLightED2Ev = comdat any

$_ZSt8_DestroyIPP8aiCameraS1_EvT_S3_RSaIT0_E = comdat any

$_ZNSt12_Vector_baseIP8aiCameraSaIS1_EE19_M_get_Tp_allocatorEv = comdat any

$_ZNSt12_Vector_baseIP8aiCameraSaIS1_EED2Ev = comdat any

$_ZSt8_DestroyIPP8aiCameraEvT_S3_ = comdat any

$_ZNSt12_Destroy_auxILb1EE9__destroyIPP8aiCameraEEvT_S5_ = comdat any

$_ZNSt12_Vector_baseIP8aiCameraSaIS1_EE13_M_deallocateEPS1_m = comdat any

$_ZNSt12_Vector_baseIP8aiCameraSaIS1_EE12_Vector_implD2Ev = comdat any

$_ZNSt16allocator_traitsISaIP8aiCameraEE10deallocateERS2_PS1_m = comdat any

$_ZNSt15__new_allocatorIP8aiCameraE10deallocateEPS1_m = comdat any

$_ZNSaIP8aiCameraED2Ev = comdat any

$_ZNSt15__new_allocatorIP8aiCameraED2Ev = comdat any

$_ZSt8_DestroyIPN6Assimp4D3DS4MeshES2_EvT_S4_RSaIT0_E = comdat any

$_ZNSt12_Vector_baseIN6Assimp4D3DS4MeshESaIS2_EE19_M_get_Tp_allocatorEv = comdat any

$_ZNSt12_Vector_baseIN6Assimp4D3DS4MeshESaIS2_EED2Ev = comdat any

$_ZSt8_DestroyIPN6Assimp4D3DS4MeshEEvT_S4_ = comdat any

$_ZNSt12_Destroy_auxILb0EE9__destroyIPN6Assimp4D3DS4MeshEEEvT_S6_ = comdat any

$_ZSt8_DestroyIN6Assimp4D3DS4MeshEEvPT_ = comdat any

$_ZN6Assimp4D3DS4MeshD2Ev = comdat any

$_ZNSt6vectorIjSaIjEED2Ev = comdat any

$_ZNSt6vectorI10aiVector3tIfESaIS1_EED2Ev = comdat any

$_ZN23MeshWithSmoothingGroupsIN6Assimp4D3DS4FaceEED2Ev = comdat any

$_ZSt8_DestroyIPjjEvT_S1_RSaIT0_E = comdat any

$_ZNSt12_Vector_baseIjSaIjEE19_M_get_Tp_allocatorEv = comdat any

$_ZNSt12_Vector_baseIjSaIjEED2Ev = comdat any

$_ZSt8_DestroyIPjEvT_S1_ = comdat any

$_ZNSt12_Destroy_auxILb1EE9__destroyIPjEEvT_S3_ = comdat any

$_ZNSt12_Vector_baseIjSaIjEE13_M_deallocateEPjm = comdat any

$_ZNSt12_Vector_baseIjSaIjEE12_Vector_implD2Ev = comdat any

$_ZNSt16allocator_traitsISaIjEE10deallocateERS0_Pjm = comdat any

$_ZNSt15__new_allocatorIjE10deallocateEPjm = comdat any

$_ZNSaIjED2Ev = comdat any

$_ZNSt15__new_allocatorIjED2Ev = comdat any

$_ZSt8_DestroyIP10aiVector3tIfES1_EvT_S3_RSaIT0_E = comdat any

$_ZNSt12_Vector_baseI10aiVector3tIfESaIS1_EE19_M_get_Tp_allocatorEv = comdat any

$_ZNSt12_Vector_baseI10aiVector3tIfESaIS1_EED2Ev = comdat any

$_ZSt8_DestroyIP10aiVector3tIfEEvT_S3_ = comdat any

$_ZNSt12_Destroy_auxILb1EE9__destroyIP10aiVector3tIfEEEvT_S5_ = comdat any

$_ZNSt12_Vector_baseI10aiVector3tIfESaIS1_EE13_M_deallocateEPS1_m = comdat any

$_ZNSt12_Vector_baseI10aiVector3tIfESaIS1_EE12_Vector_implD2Ev = comdat any

$_ZNSt16allocator_traitsISaI10aiVector3tIfEEE10deallocateERS2_PS1_m = comdat any

$_ZNSt15__new_allocatorI10aiVector3tIfEE10deallocateEPS1_m = comdat any

$_ZNSaI10aiVector3tIfEED2Ev = comdat any

$_ZNSt15__new_allocatorI10aiVector3tIfEED2Ev = comdat any

$_ZNSt6vectorIN6Assimp4D3DS4FaceESaIS2_EED2Ev = comdat any

$_ZSt8_DestroyIPN6Assimp4D3DS4FaceES2_EvT_S4_RSaIT0_E = comdat any

$_ZNSt12_Vector_baseIN6Assimp4D3DS4FaceESaIS2_EE19_M_get_Tp_allocatorEv = comdat any

$_ZNSt12_Vector_baseIN6Assimp4D3DS4FaceESaIS2_EED2Ev = comdat any

$_ZSt8_DestroyIPN6Assimp4D3DS4FaceEEvT_S4_ = comdat any

$_ZNSt12_Destroy_auxILb1EE9__destroyIPN6Assimp4D3DS4FaceEEEvT_S6_ = comdat any

$_ZNSt12_Vector_baseIN6Assimp4D3DS4FaceESaIS2_EE13_M_deallocateEPS2_m = comdat any

$_ZNSt12_Vector_baseIN6Assimp4D3DS4FaceESaIS2_EE12_Vector_implD2Ev = comdat any

$_ZNSt16allocator_traitsISaIN6Assimp4D3DS4FaceEEE10deallocateERS3_PS2_m = comdat any

$_ZNSt15__new_allocatorIN6Assimp4D3DS4FaceEE10deallocateEPS2_m = comdat any

$_ZNSaIN6Assimp4D3DS4FaceEED2Ev = comdat any

$_ZNSt15__new_allocatorIN6Assimp4D3DS4FaceEED2Ev = comdat any

$_ZNSt12_Vector_baseIN6Assimp4D3DS4MeshESaIS2_EE13_M_deallocateEPS2_m = comdat any

$_ZNSt12_Vector_baseIN6Assimp4D3DS4MeshESaIS2_EE12_Vector_implD2Ev = comdat any

$_ZNSt16allocator_traitsISaIN6Assimp4D3DS4MeshEEE10deallocateERS3_PS2_m = comdat any

$_ZNSt15__new_allocatorIN6Assimp4D3DS4MeshEE10deallocateEPS2_m = comdat any

$_ZNSaIN6Assimp4D3DS4MeshEED2Ev = comdat any

$_ZNSt15__new_allocatorIN6Assimp4D3DS4MeshEED2Ev = comdat any

$_ZSt8_DestroyIPN6Assimp4D3DS8MaterialES2_EvT_S4_RSaIT0_E = comdat any

$_ZNSt12_Vector_baseIN6Assimp4D3DS8MaterialESaIS2_EE19_M_get_Tp_allocatorEv = comdat any

$_ZNSt12_Vector_baseIN6Assimp4D3DS8MaterialESaIS2_EED2Ev = comdat any

$_ZSt8_DestroyIPN6Assimp4D3DS8MaterialEEvT_S4_ = comdat any

$_ZNSt12_Destroy_auxILb0EE9__destroyIPN6Assimp4D3DS8MaterialEEEvT_S6_ = comdat any

$_ZSt8_DestroyIN6Assimp4D3DS8MaterialEEvPT_ = comdat any

$_ZNSt12_Vector_baseIN6Assimp4D3DS8MaterialESaIS2_EE13_M_deallocateEPS2_m = comdat any

$_ZNSt12_Vector_baseIN6Assimp4D3DS8MaterialESaIS2_EE12_Vector_implD2Ev = comdat any

$_ZNSt16allocator_traitsISaIN6Assimp4D3DS8MaterialEEE10deallocateERS3_PS2_m = comdat any

$_ZNSt15__new_allocatorIN6Assimp4D3DS8MaterialEE10deallocateEPS2_m = comdat any

$_ZNSaIN6Assimp4D3DS8MaterialEED2Ev = comdat any

$_ZNSt15__new_allocatorIN6Assimp4D3DS8MaterialEED2Ev = comdat any

$_ZN6Assimp9Formatter15basic_formatterIcSt11char_traitsIcESaIcEEC2Ev = comdat any

$_ZN15DeadlyErrorBaseC2IJEPKcEEN6Assimp9Formatter15basic_formatterIcSt11char_traitsIcESaIcEEEOT0_DpOT_ = comdat any

$_ZN6Assimp9Formatter15basic_formatterIcSt11char_traitsIcESaIcEED2Ev = comdat any

$_ZN17DeadlyImportErrorD0Ev = comdat any

$_ZN6Assimp9Formatter15basic_formatterIcSt11char_traitsIcESaIcEElsIPKcTnPNSt9enable_ifIXntsr3std10is_base_ofISt9exceptionT_EE5valueEvE4typeELPv0EEERS5_RKSB_ = comdat any

$_ZN6Assimp9Formatter15basic_formatterIcSt11char_traitsIcESaIcEEC2EOS5_ = comdat any

$_ZNK6Assimp9Formatter15basic_formatterIcSt11char_traitsIcESaIcEEcvNSt7__cxx1112basic_stringIcS3_S4_EEEv = comdat any

$_ZN8aiStringC2Ev = comdat any

$_ZN10aiVector2tIfEC2Eff = comdat any

$_ZNSt6vectorIPN6Assimp4D3DS4NodeESaIS3_EE9push_backERKS3_ = comdat any

$_ZNSt16allocator_traitsISaIPN6Assimp4D3DS4NodeEEE9constructIS3_JRKS3_EEEvRS4_PT_DpOT0_ = comdat any

$_ZNSt6vectorIPN6Assimp4D3DS4NodeESaIS3_EE17_M_realloc_insertIJRKS3_EEEvN9__gnu_cxx17__normal_iteratorIPS3_S5_EEDpOT_ = comdat any

$_ZNSt15__new_allocatorIPN6Assimp4D3DS4NodeEE9constructIS3_JRKS3_EEEvPT_DpOT0_ = comdat any

$_ZNKSt6vectorIPN6Assimp4D3DS4NodeESaIS3_EE12_M_check_lenEmPKc = comdat any

$_ZN9__gnu_cxxmiIPPN6Assimp4D3DS4NodeESt6vectorIS4_SaIS4_EEEENS_17__normal_iteratorIT_T0_E15difference_typeERKSC_SF_ = comdat any

$_ZNSt12_Vector_baseIPN6Assimp4D3DS4NodeESaIS3_EE11_M_allocateEm = comdat any

$_ZNSt6vectorIPN6Assimp4D3DS4NodeESaIS3_EE11_S_relocateEPS3_S6_S6_RS4_ = comdat any

$_ZNK9__gnu_cxx17__normal_iteratorIPPN6Assimp4D3DS4NodeESt6vectorIS4_SaIS4_EEE4baseEv = comdat any

$_ZNKSt6vectorIPN6Assimp4D3DS4NodeESaIS3_EE8max_sizeEv = comdat any

$_ZSt3maxImERKT_S2_S2_ = comdat any

$_ZNSt6vectorIPN6Assimp4D3DS4NodeESaIS3_EE11_S_max_sizeERKS4_ = comdat any

$_ZNKSt12_Vector_baseIPN6Assimp4D3DS4NodeESaIS3_EE19_M_get_Tp_allocatorEv = comdat any

$_ZNSt16allocator_traitsISaIPN6Assimp4D3DS4NodeEEE8max_sizeERKS4_ = comdat any

$_ZSt3minImERKT_S2_S2_ = comdat any

$_ZNKSt15__new_allocatorIPN6Assimp4D3DS4NodeEE8max_sizeEv = comdat any

$_ZNKSt15__new_allocatorIPN6Assimp4D3DS4NodeEE11_M_max_sizeEv = comdat any

$_ZNSt16allocator_traitsISaIPN6Assimp4D3DS4NodeEEE8allocateERS4_m = comdat any

$_ZNSt15__new_allocatorIPN6Assimp4D3DS4NodeEE8allocateEmPKv = comdat any

$_ZSt12__relocate_aIPPN6Assimp4D3DS4NodeES4_SaIS3_EET0_T_S7_S6_RT1_ = comdat any

$_ZSt14__relocate_a_1IPN6Assimp4D3DS4NodeES3_ENSt9enable_ifIXsr3std24__is_bitwise_relocatableIT_EE5valueEPS5_E4typeES6_S6_S6_RSaIT0_E = comdat any

$_ZSt12__niter_baseIPPN6Assimp4D3DS4NodeEET_S5_ = comdat any

$_ZN13aiQuaterniontIfEC2Ev = comdat any

$_ZNSt14numeric_limitsIfE9quiet_NaNEv = comdat any

$_ZNSt6vectorINSt7__cxx1112basic_stringIcSt11char_traitsIcESaIcEEESaIS5_EE9push_backERKS5_ = comdat any

$_ZNSt16allocator_traitsISaINSt7__cxx1112basic_stringIcSt11char_traitsIcESaIcEEEEE9constructIS5_JRKS5_EEEvRS6_PT_DpOT0_ = comdat any

$_ZNSt6vectorINSt7__cxx1112basic_stringIcSt11char_traitsIcESaIcEEESaIS5_EE17_M_realloc_insertIJRKS5_EEEvN9__gnu_cxx17__normal_iteratorIPS5_S7_EEDpOT_ = comdat any

$_ZNSt6vectorINSt7__cxx1112basic_stringIcSt11char_traitsIcESaIcEEESaIS5_EE3endEv = comdat any

$_ZNSt15__new_allocatorINSt7__cxx1112basic_stringIcSt11char_traitsIcESaIcEEEE9constructIS5_JRKS5_EEEvPT_DpOT0_ = comdat any

$_ZNKSt6vectorINSt7__cxx1112basic_stringIcSt11char_traitsIcESaIcEEESaIS5_EE12_M_check_lenEmPKc = comdat any

$_ZN9__gnu_cxxmiIPNSt7__cxx1112basic_stringIcSt11char_traitsIcESaIcEEESt6vectorIS6_SaIS6_EEEENS_17__normal_iteratorIT_T0_E15difference_typeERKSE_SH_ = comdat any

$_ZNSt6vectorINSt7__cxx1112basic_stringIcSt11char_traitsIcESaIcEEESaIS5_EE5beginEv = comdat any

$_ZNSt12_Vector_baseINSt7__cxx1112basic_stringIcSt11char_traitsIcESaIcEEESaIS5_EE11_M_allocateEm = comdat any

$_ZNSt6vectorINSt7__cxx1112basic_stringIcSt11char_traitsIcESaIcEEESaIS5_EE11_S_relocateEPS5_S8_S8_RS6_ = comdat any

$_ZNK9__gnu_cxx17__normal_iteratorIPNSt7__cxx1112basic_stringIcSt11char_traitsIcESaIcEEESt6vectorIS6_SaIS6_EEE4baseEv = comdat any

$_ZNSt12_Vector_baseINSt7__cxx1112basic_stringIcSt11char_traitsIcESaIcEEESaIS5_EE19_M_get_Tp_allocatorEv = comdat any

$_ZNSt16allocator_traitsISaINSt7__cxx1112basic_stringIcSt11char_traitsIcESaIcEEEEE7destroyIS5_EEvRS6_PT_ = comdat any

$_ZSt8_DestroyIPNSt7__cxx1112basic_stringIcSt11char_traitsIcESaIcEEES5_EvT_S7_RSaIT0_E = comdat any

$_ZNSt12_Vector_baseINSt7__cxx1112basic_stringIcSt11char_traitsIcESaIcEEESaIS5_EE13_M_deallocateEPS5_m = comdat any

$_ZNKSt6vectorINSt7__cxx1112basic_stringIcSt11char_traitsIcESaIcEEESaIS5_EE8max_sizeEv = comdat any

$_ZNKSt6vectorINSt7__cxx1112basic_stringIcSt11char_traitsIcESaIcEEESaIS5_EE4sizeEv = comdat any

$_ZNSt6vectorINSt7__cxx1112basic_stringIcSt11char_traitsIcESaIcEEESaIS5_EE11_S_max_sizeERKS6_ = comdat any

$_ZNKSt12_Vector_baseINSt7__cxx1112basic_stringIcSt11char_traitsIcESaIcEEESaIS5_EE19_M_get_Tp_allocatorEv = comdat any

$_ZNSt16allocator_traitsISaINSt7__cxx1112basic_stringIcSt11char_traitsIcESaIcEEEEE8max_sizeERKS6_ = comdat any

$_ZNKSt15__new_allocatorINSt7__cxx1112basic_stringIcSt11char_traitsIcESaIcEEEE8max_sizeEv = comdat any

$_ZNKSt15__new_allocatorINSt7__cxx1112basic_stringIcSt11char_traitsIcESaIcEEEE11_M_max_sizeEv = comdat any

$_ZN9__gnu_cxx17__normal_iteratorIPNSt7__cxx1112basic_stringIcSt11char_traitsIcESaIcEEESt6vectorIS6_SaIS6_EEEC2ERKS7_ = comdat any

$_ZNSt16allocator_traitsISaINSt7__cxx1112basic_stringIcSt11char_traitsIcESaIcEEEEE8allocateERS6_m = comdat any

$_ZNSt15__new_allocatorINSt7__cxx1112basic_stringIcSt11char_traitsIcESaIcEEEE8allocateEmPKv = comdat any

$_ZSt12__relocate_aIPNSt7__cxx1112basic_stringIcSt11char_traitsIcESaIcEEES6_SaIS5_EET0_T_S9_S8_RT1_ = comdat any

$_ZSt14__relocate_a_1IPNSt7__cxx1112basic_stringIcSt11char_traitsIcESaIcEEES6_SaIS5_EET0_T_S9_S8_RT1_ = comdat any

$_ZSt12__niter_baseIPNSt7__cxx1112basic_stringIcSt11char_traitsIcESaIcEEEET_S7_ = comdat any

$_ZSt19__relocate_object_aINSt7__cxx1112basic_stringIcSt11char_traitsIcESaIcEEES5_SaIS5_EEvPT_PT0_RT1_ = comdat any

$_ZNSt16allocator_traitsISaINSt7__cxx1112basic_stringIcSt11char_traitsIcESaIcEEEEE9constructIS5_JS5_EEEvRS6_PT_DpOT0_ = comdat any

$_ZNSt15__new_allocatorINSt7__cxx1112basic_stringIcSt11char_traitsIcESaIcEEEE9constructIS5_JS5_EEEvPT_DpOT0_ = comdat any

$_ZNSt15__new_allocatorINSt7__cxx1112basic_stringIcSt11char_traitsIcESaIcEEEE7destroyIS5_EEvPT_ = comdat any

$_ZSt8_DestroyIPNSt7__cxx1112basic_stringIcSt11char_traitsIcESaIcEEEEvT_S7_ = comdat any

$_ZNSt12_Destroy_auxILb0EE9__destroyIPNSt7__cxx1112basic_stringIcSt11char_traitsIcESaIcEEEEEvT_S9_ = comdat any

$_ZSt8_DestroyINSt7__cxx1112basic_stringIcSt11char_traitsIcESaIcEEEEvPT_ = comdat any

$_ZNSt16allocator_traitsISaINSt7__cxx1112basic_stringIcSt11char_traitsIcESaIcEEEEE10deallocateERS6_PS5_m = comdat any

$_ZNSt15__new_allocatorINSt7__cxx1112basic_stringIcSt11char_traitsIcESaIcEEEE10deallocateEPS5_m = comdat any

$_ZNKSt6vectorINSt7__cxx1112basic_stringIcSt11char_traitsIcESaIcEEESaIS5_EE5emptyEv = comdat any

$_ZNSt6vectorINSt7__cxx1112basic_stringIcSt11char_traitsIcESaIcEEESaIS5_EE8pop_backEv = comdat any

$_ZN9__gnu_cxxeqIPKNSt7__cxx1112basic_stringIcSt11char_traitsIcESaIcEEESt6vectorIS6_SaIS6_EEEEbRKNS_17__normal_iteratorIT_T0_EESH_ = comdat any

$_ZNKSt6vectorINSt7__cxx1112basic_stringIcSt11char_traitsIcESaIcEEESaIS5_EE5beginEv = comdat any

$_ZNKSt6vectorINSt7__cxx1112basic_stringIcSt11char_traitsIcESaIcEEESaIS5_EE3endEv = comdat any

$_ZNK9__gnu_cxx17__normal_iteratorIPKNSt7__cxx1112basic_stringIcSt11char_traitsIcESaIcEEESt6vectorIS6_SaIS6_EEE4baseEv = comdat any

$_ZN9__gnu_cxx17__normal_iteratorIPKNSt7__cxx1112basic_stringIcSt11char_traitsIcESaIcEEESt6vectorIS6_SaIS6_EEEC2ERKS8_ = comdat any

$_ZNKSt6vectorI9aiQuatKeySaIS0_EE8max_sizeEv = comdat any

$_ZNKSt6vectorI9aiQuatKeySaIS0_EE8capacityEv = comdat any

$_ZNKSt6vectorI9aiQuatKeySaIS0_EE4sizeEv = comdat any

$_ZNSt12_Vector_baseI9aiQuatKeySaIS0_EE11_M_allocateEm = comdat any

$_ZNSt6vectorI9aiQuatKeySaIS0_EE11_S_relocateEPS0_S3_S3_RS1_ = comdat any

$_ZNSt6vectorI9aiQuatKeySaIS0_EE11_S_max_sizeERKS1_ = comdat any

$_ZNKSt12_Vector_baseI9aiQuatKeySaIS0_EE19_M_get_Tp_allocatorEv = comdat any

$_ZNSt16allocator_traitsISaI9aiQuatKeyEE8max_sizeERKS1_ = comdat any

$_ZNKSt15__new_allocatorI9aiQuatKeyE8max_sizeEv = comdat any

$_ZNKSt15__new_allocatorI9aiQuatKeyE11_M_max_sizeEv = comdat any

$_ZNSt16allocator_traitsISaI9aiQuatKeyEE8allocateERS1_m = comdat any

$_ZNSt15__new_allocatorI9aiQuatKeyE8allocateEmPKv = comdat any

$_ZSt12__relocate_aIP9aiQuatKeyS1_SaIS0_EET0_T_S4_S3_RT1_ = comdat any

$_ZSt14__relocate_a_1IP9aiQuatKeyS1_SaIS0_EET0_T_S4_S3_RT1_ = comdat any

$_ZSt12__niter_baseIP9aiQuatKeyET_S2_ = comdat any

$_ZSt19__relocate_object_aI9aiQuatKeyS0_SaIS0_EEvPT_PT0_RT1_ = comdat any

$_ZNSt16allocator_traitsISaI9aiQuatKeyEE9constructIS0_JS0_EEEvRS1_PT_DpOT0_ = comdat any

$_ZNSt16allocator_traitsISaI9aiQuatKeyEE7destroyIS0_EEvRS1_PT_ = comdat any

$_ZNSt15__new_allocatorI9aiQuatKeyE9constructIS0_JS0_EEEvPT_DpOT0_ = comdat any

$_ZNSt15__new_allocatorI9aiQuatKeyE7destroyIS0_EEvPT_ = comdat any

$_ZNKSt6vectorI11aiVectorKeySaIS0_EE8max_sizeEv = comdat any

$_ZNKSt6vectorI11aiVectorKeySaIS0_EE8capacityEv = comdat any

$_ZNKSt6vectorI11aiVectorKeySaIS0_EE4sizeEv = comdat any

$_ZNSt12_Vector_baseI11aiVectorKeySaIS0_EE11_M_allocateEm = comdat any

$_ZNSt6vectorI11aiVectorKeySaIS0_EE11_S_relocateEPS0_S3_S3_RS1_ = comdat any

$_ZNSt6vectorI11aiVectorKeySaIS0_EE11_S_max_sizeERKS1_ = comdat any

$_ZNKSt12_Vector_baseI11aiVectorKeySaIS0_EE19_M_get_Tp_allocatorEv = comdat any

$_ZNSt16allocator_traitsISaI11aiVectorKeyEE8max_sizeERKS1_ = comdat any

$_ZNKSt15__new_allocatorI11aiVectorKeyE8max_sizeEv = comdat any

$_ZNKSt15__new_allocatorI11aiVectorKeyE11_M_max_sizeEv = comdat any

$_ZNSt16allocator_traitsISaI11aiVectorKeyEE8allocateERS1_m = comdat any

$_ZNSt15__new_allocatorI11aiVectorKeyE8allocateEmPKv = comdat any

$_ZSt12__relocate_aIP11aiVectorKeyS1_SaIS0_EET0_T_S4_S3_RT1_ = comdat any

$_ZSt14__relocate_a_1IP11aiVectorKeyS1_SaIS0_EET0_T_S4_S3_RT1_ = comdat any

$_ZSt12__niter_baseIP11aiVectorKeyET_S2_ = comdat any

$_ZSt19__relocate_object_aI11aiVectorKeyS0_SaIS0_EEvPT_PT0_RT1_ = comdat any

$_ZNSt16allocator_traitsISaI11aiVectorKeyEE9constructIS0_JS0_EEEvRS1_PT_DpOT0_ = comdat any

$_ZNSt16allocator_traitsISaI11aiVectorKeyEE7destroyIS0_EEvRS1_PT_ = comdat any

$_ZNSt15__new_allocatorI11aiVectorKeyE9constructIS0_JS0_EEEvPT_DpOT0_ = comdat any

$_ZNSt15__new_allocatorI11aiVectorKeyE7destroyIS0_EEvPT_ = comdat any

$_ZNSt12_Vector_baseINSt7__cxx1112basic_stringIcSt11char_traitsIcESaIcEEESaIS5_EED2Ev = comdat any

$_ZNSt12_Vector_baseINSt7__cxx1112basic_stringIcSt11char_traitsIcESaIcEEESaIS5_EE12_Vector_implD2Ev = comdat any

$_ZNSaINSt7__cxx1112basic_stringIcSt11char_traitsIcESaIcEEEED2Ev = comdat any

$_ZNSt15__new_allocatorINSt7__cxx1112basic_stringIcSt11char_traitsIcESaIcEEEED2Ev = comdat any

$_ZNSt11char_traitsIcE6lengthEPKc = comdat any

$_ZNSt7__cxx1112basic_stringIcSt11char_traitsIcESaIcEE12_M_constructIPKcEEvT_S8_St20forward_iterator_tag = comdat any

$_ZNSt7__cxx1112basic_stringIcSt11char_traitsIcESaIcEE12_Alloc_hiderD2Ev = comdat any

$_ZSt8distanceIPKcENSt15iterator_traitsIT_E15difference_typeES3_S3_ = comdat any

$_ZZNSt7__cxx1112basic_stringIcSt11char_traitsIcESaIcEE12_M_constructIPKcEEvT_S8_St20forward_iterator_tagEN6_GuardC2EPS4_ = comdat any

$_ZZNSt7__cxx1112basic_stringIcSt11char_traitsIcESaIcEE12_M_constructIPKcEEvT_S8_St20forward_iterator_tagEN6_GuardD2Ev = comdat any

$_ZSt10__distanceIPKcENSt15iterator_traitsIT_E15difference_typeES3_S3_St26random_access_iterator_tag = comdat any

$_ZSt19__iterator_categoryIPKcENSt15iterator_traitsIT_E17iterator_categoryERKS3_ = comdat any

$_ZN15DeadlyErrorBaseC2IJRKNSt7__cxx1112basic_stringIcSt11char_traitsIcESaIcEEEERA21_KcEEN6Assimp9Formatter15basic_formatterIcS4_S5_EEOT0_DpOT_ = comdat any

$_ZN6Assimp9Formatter15basic_formatterIcSt11char_traitsIcESaIcEElsIA21_cTnPNSt9enable_ifIXntsr3std10is_base_ofISt9exceptionT_EE5valueEvE4typeELPv0EEERS5_RKSA_ = comdat any

$_ZN15DeadlyErrorBaseC2IJERKNSt7__cxx1112basic_stringIcSt11char_traitsIcESaIcEEEEEN6Assimp9Formatter15basic_formatterIcS4_S5_EEOT0_DpOT_ = comdat any

$_ZN6Assimp9Formatter15basic_formatterIcSt11char_traitsIcESaIcEElsINSt7__cxx1112basic_stringIcS3_S4_EETnPNSt9enable_ifIXntsr3std10is_base_ofISt9exceptionT_EE5valueEvE4typeELPv0EEERS5_RKSC_ = comdat any

$_ZNSt10shared_ptrIN6Assimp8IOStreamEEC2IS1_vEEPT_ = comdat any

$_ZN6Assimp12StreamReaderILb0ELb0EE11InternBeginEv = comdat any

$_ZNSt10shared_ptrIN6Assimp8IOStreamEED2Ev = comdat any

$_ZNSt12__shared_ptrIN6Assimp8IOStreamELN9__gnu_cxx12_Lock_policyE2EEC2IS1_vEEPT_ = comdat any

$_ZNSt14__shared_countILN9__gnu_cxx12_Lock_policyE2EEC2IPN6Assimp8IOStreamEEET_St17integral_constantIbLb0EE = comdat any

$_ZNSt12__shared_ptrIN6Assimp8IOStreamELN9__gnu_cxx12_Lock_policyE2EE31_M_enable_shared_from_this_withIS1_S1_EENSt9enable_ifIXntsr15__has_esft_baseIT0_EE5valueEvE4typeEPT_ = comdat any

$_ZNSt14__shared_countILN9__gnu_cxx12_Lock_policyE2EEC2IPN6Assimp8IOStreamEEET_ = comdat any

$_ZNSt15_Sp_counted_ptrIPN6Assimp8IOStreamELN9__gnu_cxx12_Lock_policyE2EEC2ES2_ = comdat any

$_ZNSt16_Sp_counted_baseILN9__gnu_cxx12_Lock_policyE2EEC2Ev = comdat any

$_ZNSt15_Sp_counted_ptrIPN6Assimp8IOStreamELN9__gnu_cxx12_Lock_policyE2EED2Ev = comdat any

$_ZNSt15_Sp_counted_ptrIPN6Assimp8IOStreamELN9__gnu_cxx12_Lock_policyE2EED0Ev = comdat any

$_ZNSt15_Sp_counted_ptrIPN6Assimp8IOStreamELN9__gnu_cxx12_Lock_policyE2EE10_M_disposeEv = comdat any

$_ZNSt15_Sp_counted_ptrIPN6Assimp8IOStreamELN9__gnu_cxx12_Lock_policyE2EE10_M_destroyEv = comdat any

$_ZNSt15_Sp_counted_ptrIPN6Assimp8IOStreamELN9__gnu_cxx12_Lock_policyE2EE14_M_get_deleterERKSt9type_info = comdat any

$_ZNSt16_Sp_counted_baseILN9__gnu_cxx12_Lock_policyE2EED2Ev = comdat any

$_ZNSt16_Sp_counted_baseILN9__gnu_cxx12_Lock_policyE2EED0Ev = comdat any

$_ZNSt16_Sp_counted_baseILN9__gnu_cxx12_Lock_policyE2EE10_M_destroyEv = comdat any

$_ZSteqIN6Assimp8IOStreamEEbDnRKSt10shared_ptrIT_E = comdat any

$_ZNKSt19__shared_ptr_accessIN6Assimp8IOStreamELN9__gnu_cxx12_Lock_policyE2ELb0ELb0EEptEv = comdat any

$_ZNKSt12__shared_ptrIN6Assimp8IOStreamELN9__gnu_cxx12_Lock_policyE2EEcvbEv = comdat any

$_ZNKSt19__shared_ptr_accessIN6Assimp8IOStreamELN9__gnu_cxx12_Lock_policyE2ELb0ELb0EE6_M_getEv = comdat any

$_ZNKSt12__shared_ptrIN6Assimp8IOStreamELN9__gnu_cxx12_Lock_policyE2EE3getEv = comdat any

$_ZNSt12__shared_ptrIN6Assimp8IOStreamELN9__gnu_cxx12_Lock_policyE2EED2Ev = comdat any

$_ZNSt14__shared_countILN9__gnu_cxx12_Lock_policyE2EED2Ev = comdat any

$_ZNSt16_Sp_counted_baseILN9__gnu_cxx12_Lock_policyE2EE10_M_releaseEv = comdat any

$_ZNSt16_Sp_counted_baseILN9__gnu_cxx12_Lock_policyE2EE24_M_release_last_use_coldEv = comdat any

$_ZNSt16_Sp_counted_baseILN9__gnu_cxx12_Lock_policyE2EE19_M_release_last_useEv = comdat any

$_ZN15DeadlyErrorBaseC2IJRKNSt7__cxx1112basic_stringIcSt11char_traitsIcESaIcEEEERA38_KcEEN6Assimp9Formatter15basic_formatterIcS4_S5_EEOT0_DpOT_ = comdat any

$_ZN6Assimp9Formatter15basic_formatterIcSt11char_traitsIcESaIcEElsIA38_cTnPNSt9enable_ifIXntsr3std10is_base_ofISt9exceptionT_EE5valueEvE4typeELPv0EEERS5_RKSA_ = comdat any

$_ZN9__gnu_cxx17__normal_iteratorIPN6Assimp4D3DS4MeshESt6vectorIS3_SaIS3_EEEC2ERKS4_ = comdat any

$_ZNK9__gnu_cxx17__normal_iteratorIPN6Assimp4D3DS4MeshESt6vectorIS3_SaIS3_EEE4baseEv = comdat any

$_ZN15DeadlyErrorBaseC2IJRKNSt7__cxx1112basic_stringIcSt11char_traitsIcESaIcEEEERA42_KcEEN6Assimp9Formatter15basic_formatterIcS4_S5_EEOT0_DpOT_ = comdat any

$_ZN6Assimp9Formatter15basic_formatterIcSt11char_traitsIcESaIcEElsIA42_cTnPNSt9enable_ifIXntsr3std10is_base_ofISt9exceptionT_EE5valueEvE4typeELPv0EEERS5_RKSA_ = comdat any

$_ZNSt6vectorI10aiVector3tIfESaIS1_EE6resizeEmRKS1_ = comdat any

$_ZNSt6vectorIN6Assimp4D3DS4FaceESaIS2_EEixEm = comdat any

$_ZNSt6vectorI10aiVector3tIfESaIS1_EEixEm = comdat any

$_ZmiIfE10aiVector3tIT_ERKS2_S4_ = comdat any

$_ZeoIfE10aiVector3tIT_ERKS2_S4_ = comdat any

$_ZSt3minIfERKT_S2_S2_ = comdat any

$_ZSt3maxIfERKT_S2_S2_ = comdat any

$_ZNSt6vectorI10aiVector3tIfESaIS1_EEC2Ev = comdat any

$_ZNSt6vectorI10aiVector3tIfESaIS1_EE6resizeEm = comdat any

$_ZN9__gnu_cxxneIPN6Assimp4D3DS4FaceESt6vectorIS3_SaIS3_EEEEbRKNS_17__normal_iteratorIT_T0_EESD_ = comdat any

$_ZNSt6vectorIN6Assimp4D3DS4FaceESaIS2_EE3endEv = comdat any

$_ZNSaIbEC2Ev = comdat any

$_ZNSt6vectorIbSaIbEEC2EmRKbRKS0_ = comdat any

$_ZNSaIbED2Ev = comdat any

$_ZNSt6vectorIjSaIjEEC2Ev = comdat any

$_ZNSt6vectorIbSaIbEEixEm = comdat any

$_ZNKSt14_Bit_referencecvbEv = comdat any

$_ZNSt6vectorIjSaIjEE5beginEv = comdat any

$_ZN9__gnu_cxx17__normal_iteratorIPKjSt6vectorIjSaIjEEEC2IPjvEERKNS0_IT_S5_EE = comdat any

$_ZN9__gnu_cxxneIPKjPjSt6vectorIjSaIjEEEEbRKNS_17__normal_iteratorIT_T1_EERKNS7_IT0_S9_EE = comdat any

$_ZNSt6vectorIjSaIjEE3endEv = comdat any

$_ZNK9__gnu_cxx17__normal_iteratorIPKjSt6vectorIjSaIjEEEdeEv = comdat any

$_ZN10aiVector3tIfEpLERKS0_ = comdat any

$_ZN9__gnu_cxx17__normal_iteratorIPKjSt6vectorIjSaIjEEEppEv = comdat any

$_ZN10aiVector3tIfE13NormalizeSafeEv = comdat any

$_ZNSt14_Bit_referenceaSEb = comdat any

$_ZNSt6vectorI10aiVector3tIfESaIS1_EEaSERKS3_ = comdat any

$_ZNSt6vectorIbSaIbEED2Ev = comdat any

$_ZNSt6vectorI10aiVector3tIfESaIS1_EE14_M_fill_insertEN9__gnu_cxx17__normal_iteratorIPS1_S3_EEmRKS1_ = comdat any

$_ZNSt6vectorI10aiVector3tIfESaIS1_EE3endEv = comdat any

$_ZNSt6vectorI10aiVector3tIfESaIS1_EE15_M_erase_at_endEPS1_ = comdat any

$_ZNSt6vectorI10aiVector3tIfESaIS1_EE16_Temporary_valueC2IJRKS1_EEEPS3_DpOT_ = comdat any

$_ZNSt6vectorI10aiVector3tIfESaIS1_EE16_Temporary_value6_M_valEv = comdat any

$_ZN9__gnu_cxxmiIP10aiVector3tIfESt6vectorIS2_SaIS2_EEEENS_17__normal_iteratorIT_T0_E15difference_typeERKSA_SD_ = comdat any

$_ZSt22__uninitialized_move_aIP10aiVector3tIfES2_SaIS1_EET0_T_S5_S4_RT1_ = comdat any

$_ZSt13move_backwardIP10aiVector3tIfES2_ET0_T_S4_S3_ = comdat any

$_ZNK9__gnu_cxx17__normal_iteratorIP10aiVector3tIfESt6vectorIS2_SaIS2_EEE4baseEv = comdat any

$_ZSt4fillIP10aiVector3tIfES1_EvT_S3_RKT0_ = comdat any

$_ZSt24__uninitialized_fill_n_aIP10aiVector3tIfEmS1_S1_ET_S3_T0_RKT1_RSaIT2_E = comdat any

$_ZNSt6vectorI10aiVector3tIfESaIS1_EE16_Temporary_valueD2Ev = comdat any

$_ZNKSt6vectorI10aiVector3tIfESaIS1_EE12_M_check_lenEmPKc = comdat any

$_ZNSt12_Vector_baseI10aiVector3tIfESaIS1_EE11_M_allocateEm = comdat any

$_ZSt34__uninitialized_move_if_noexcept_aIP10aiVector3tIfES2_SaIS1_EET0_T_S5_S4_RT1_ = comdat any

$_ZNSt6vectorI10aiVector3tIfESaIS1_EE16_Temporary_value8_StorageC2Ev = comdat any

$_ZNSt16allocator_traitsISaI10aiVector3tIfEEE9constructIS1_JRKS1_EEEvRS2_PT_DpOT0_ = comdat any

$_ZNSt6vectorI10aiVector3tIfESaIS1_EE16_Temporary_value6_M_ptrEv = comdat any

$_ZNSt15__new_allocatorI10aiVector3tIfEE9constructIS1_JRKS1_EEEvPT_DpOT0_ = comdat any

$_ZSt22__uninitialized_copy_aISt13move_iteratorIP10aiVector3tIfEES3_S2_ET0_T_S6_S5_RSaIT1_E = comdat any

$_ZSt18make_move_iteratorIP10aiVector3tIfEESt13move_iteratorIT_ES4_ = comdat any

$_ZSt18uninitialized_copyISt13move_iteratorIP10aiVector3tIfEES3_ET0_T_S6_S5_ = comdat any

$_ZNSt20__uninitialized_copyILb0EE13__uninit_copyISt13move_iteratorIP10aiVector3tIfEES5_EET0_T_S8_S7_ = comdat any

$_ZSt16__do_uninit_copyISt13move_iteratorIP10aiVector3tIfEES3_ET0_T_S6_S5_ = comdat any

$_ZStneIP10aiVector3tIfEEbRKSt13move_iteratorIT_ES7_ = comdat any

$_ZSt10_ConstructI10aiVector3tIfEJS1_EEvPT_DpOT0_ = comdat any

$_ZNKSt13move_iteratorIP10aiVector3tIfEEdeEv = comdat any

$_ZNSt13move_iteratorIP10aiVector3tIfEEppEv = comdat any

$_ZSteqIP10aiVector3tIfEEbRKSt13move_iteratorIT_ES7_ = comdat any

$_ZNKSt13move_iteratorIP10aiVector3tIfEE4baseEv = comdat any

$_ZNSt13move_iteratorIP10aiVector3tIfEEC2ES2_ = comdat any

$_ZSt22__copy_move_backward_aILb1EP10aiVector3tIfES2_ET1_T0_S4_S3_ = comdat any

$_ZSt12__miter_baseIP10aiVector3tIfEET_S3_ = comdat any

$_ZSt12__niter_wrapIP10aiVector3tIfEET_RKS3_S3_ = comdat any

$_ZSt23__copy_move_backward_a1ILb1EP10aiVector3tIfES2_ET1_T0_S4_S3_ = comdat any

$_ZSt12__niter_baseIP10aiVector3tIfEET_S3_ = comdat any

$_ZSt23__copy_move_backward_a2ILb1EP10aiVector3tIfES2_ET1_T0_S4_S3_ = comdat any

$_ZNSt20__copy_move_backwardILb1ELb1ESt26random_access_iterator_tagE13__copy_move_bI10aiVector3tIfEEEPT_PKS5_S8_S6_ = comdat any

$_ZSt8__fill_aIP10aiVector3tIfES1_EvT_S3_RKT0_ = comdat any

$_ZSt9__fill_a1IP10aiVector3tIfES1_EN9__gnu_cxx11__enable_ifIXntsr11__is_scalarIT0_EE7__valueEvE6__typeET_S8_RKS5_ = comdat any

$_ZSt20uninitialized_fill_nIP10aiVector3tIfEmS1_ET_S3_T0_RKT1_ = comdat any

$_ZNSt22__uninitialized_fill_nILb0EE15__uninit_fill_nIP10aiVector3tIfEmS3_EET_S5_T0_RKT1_ = comdat any

$_ZSt18__do_uninit_fill_nIP10aiVector3tIfEmS1_ET_S3_T0_RKT1_ = comdat any

$_ZSt10_ConstructI10aiVector3tIfEJRKS1_EEvPT_DpOT0_ = comdat any

$_ZNSt16allocator_traitsISaI10aiVector3tIfEEE7destroyIS1_EEvRS2_PT_ = comdat any

$_ZNSt6vectorI10aiVector3tIfESaIS1_EE16_Temporary_value8_StorageD2Ev = comdat any

$_ZNSt15__new_allocatorI10aiVector3tIfEE7destroyIS1_EEvPT_ = comdat any

$_ZNKSt6vectorI10aiVector3tIfESaIS1_EE8max_sizeEv = comdat any

$_ZNSt6vectorI10aiVector3tIfESaIS1_EE11_S_max_sizeERKS2_ = comdat any

$_ZNKSt12_Vector_baseI10aiVector3tIfESaIS1_EE19_M_get_Tp_allocatorEv = comdat any

$_ZNSt16allocator_traitsISaI10aiVector3tIfEEE8max_sizeERKS2_ = comdat any

$_ZNKSt15__new_allocatorI10aiVector3tIfEE8max_sizeEv = comdat any

$_ZNKSt15__new_allocatorI10aiVector3tIfEE11_M_max_sizeEv = comdat any

$_ZNSt16allocator_traitsISaI10aiVector3tIfEEE8allocateERS2_m = comdat any

$_ZNSt15__new_allocatorI10aiVector3tIfEE8allocateEmPKv = comdat any

$_ZSt32__make_move_if_noexcept_iteratorI10aiVector3tIfESt13move_iteratorIPS1_EET0_PT_ = comdat any

$_ZN9__gnu_cxx17__normal_iteratorIP10aiVector3tIfESt6vectorIS2_SaIS2_EEEC2ERKS3_ = comdat any

$_ZNSt12_Vector_baseI10aiVector3tIfESaIS1_EEC2Ev = comdat any

$_ZNSt12_Vector_baseI10aiVector3tIfESaIS1_EE12_Vector_implC2Ev = comdat any

$_ZNSaI10aiVector3tIfEEC2Ev = comdat any

$_ZNSt12_Vector_baseI10aiVector3tIfESaIS1_EE17_Vector_impl_dataC2Ev = comdat any

$_ZNSt15__new_allocatorI10aiVector3tIfEEC2Ev = comdat any

$_ZNSt6vectorI10aiVector3tIfESaIS1_EE17_M_default_appendEm = comdat any

$_ZSt27__uninitialized_default_n_aIP10aiVector3tIfEmS1_ET_S3_T0_RSaIT1_E = comdat any

$_ZNSt6vectorI10aiVector3tIfESaIS1_EE11_S_relocateEPS1_S4_S4_RS2_ = comdat any

$_ZSt25__uninitialized_default_nIP10aiVector3tIfEmET_S3_T0_ = comdat any

$_ZNSt27__uninitialized_default_n_1ILb0EE18__uninit_default_nIP10aiVector3tIfEmEET_S5_T0_ = comdat any

$_ZSt10_ConstructI10aiVector3tIfEJEEvPT_DpOT0_ = comdat any

$_ZSt12__relocate_aIP10aiVector3tIfES2_SaIS1_EET0_T_S5_S4_RT1_ = comdat any

$_ZSt14__relocate_a_1IP10aiVector3tIfES2_SaIS1_EET0_T_S5_S4_RT1_ = comdat any

$_ZSt19__relocate_object_aI10aiVector3tIfES1_SaIS1_EEvPT_PT0_RT1_ = comdat any

$_ZNSt16allocator_traitsISaI10aiVector3tIfEEE9constructIS1_JS1_EEEvRS2_PT_DpOT0_ = comdat any

$_ZNSt15__new_allocatorI10aiVector3tIfEE9constructIS1_JS1_EEEvPT_DpOT0_ = comdat any

$_ZNK9__gnu_cxx17__normal_iteratorIPN6Assimp4D3DS4FaceESt6vectorIS3_SaIS3_EEE4baseEv = comdat any

$_ZN9__gnu_cxx17__normal_iteratorIPN6Assimp4D3DS4FaceESt6vectorIS3_SaIS3_EEEC2ERKS4_ = comdat any

$_ZNSt15__new_allocatorIbEC2Ev = comdat any

$_ZNSt13_Bvector_baseISaIbEEC2ERKS0_ = comdat any

$_ZNSt6vectorIbSaIbEE13_M_initializeEm = comdat any

$_ZNSt6vectorIbSaIbEE19_M_initialize_valueEb = comdat any

$_ZNSt13_Bvector_baseISaIbEED2Ev = comdat any

$_ZNSaImEC2IbEERKSaIT_E = comdat any

$_ZNSt13_Bvector_baseISaIbEE13_Bvector_implC2ERKSaImE = comdat any

$_ZNSaImED2Ev = comdat any

$_ZNSt15__new_allocatorImEC2Ev = comdat any

$_ZNSaImEC2ERKS_ = comdat any

$_ZNSt15__new_allocatorImEC2ERKS0_ = comdat any

$_ZNSt13_Bit_iteratorC2Ev = comdat any

$_ZNSt18_Bit_iterator_baseC2EPmj = comdat any

$_ZNSt15__new_allocatorImED2Ev = comdat any

$_ZNSt13_Bvector_baseISaIbEE11_M_allocateEm = comdat any

$_ZNSt13_Bvector_baseISaIbEE8_S_nwordEm = comdat any

$_ZNSt13_Bit_iteratorC2EPmj = comdat any

$_ZStplRKSt13_Bit_iteratorl = comdat any

$_ZNSt16allocator_traitsISaImEE8allocateERS0_m = comdat any

$_ZNSt15__new_allocatorImE8allocateEmPKv = comdat any

$_ZNKSt15__new_allocatorImE11_M_max_sizeEv = comdat any

$_ZNSt13_Bit_iteratorpLEl = comdat any

$_ZNSt18_Bit_iterator_base7_M_incrEl = comdat any

$_ZSt16__fill_bvector_nPmmb = comdat any

$_ZNKSt13_Bvector_baseISaIbEE13_Bvector_impl11_M_end_addrEv = comdat any

$_ZNSt13_Bvector_baseISaIbEE13_M_deallocateEv = comdat any

$_ZNSt13_Bvector_baseISaIbEE13_Bvector_implD2Ev = comdat any

$_ZNSt16allocator_traitsISaImEE10deallocateERS0_Pmm = comdat any

$_ZNSt13_Bvector_baseISaIbEE18_Bvector_impl_data8_M_resetEv = comdat any

$_ZNSt15__new_allocatorImE10deallocateEPmm = comdat any

$_ZNSt13_Bvector_baseISaIbEE18_Bvector_impl_dataC2Ev = comdat any

$_ZNSt15__new_allocatorIbED2Ev = comdat any

$_ZNSt12_Vector_baseIjSaIjEEC2Ev = comdat any

$_ZNSt12_Vector_baseIjSaIjEE12_Vector_implC2Ev = comdat any

$_ZNSaIjEC2Ev = comdat any

$_ZNSt12_Vector_baseIjSaIjEE17_Vector_impl_dataC2Ev = comdat any

$_ZNSt15__new_allocatorIjEC2Ev = comdat any

$_ZNSt6vectorIbSaIbEE5beginEv = comdat any

$_ZNKSt13_Bit_iteratorixEl = comdat any

$_ZNKSt13_Bit_iteratordeEv = comdat any

$_ZNSt14_Bit_referenceC2EPmm = comdat any

$_ZN9__gnu_cxx17__normal_iteratorIPjSt6vectorIjSaIjEEEC2ERKS1_ = comdat any

$_ZNK9__gnu_cxx17__normal_iteratorIPjSt6vectorIjSaIjEEE4baseEv = comdat any

$_ZNK9__gnu_cxx17__normal_iteratorIPKjSt6vectorIjSaIjEEE4baseEv = comdat any

$_ZNKSt6vectorI10aiVector3tIfESaIS1_EE8capacityEv = comdat any

$_ZNSt6vectorI10aiVector3tIfESaIS1_EE20_M_allocate_and_copyIN9__gnu_cxx17__normal_iteratorIPKS1_S3_EEEEPS1_mT_SB_ = comdat any

$_ZNKSt6vectorI10aiVector3tIfESaIS1_EE5beginEv = comdat any

$_ZNKSt6vectorI10aiVector3tIfESaIS1_EE3endEv = comdat any

$_ZSt8_DestroyIN9__gnu_cxx17__normal_iteratorIP10aiVector3tIfESt6vectorIS3_SaIS3_EEEES3_EvT_S9_RSaIT0_E = comdat any

$_ZSt4copyIN9__gnu_cxx17__normal_iteratorIPK10aiVector3tIfESt6vectorIS3_SaIS3_EEEENS1_IPS3_S8_EEET0_T_SD_SC_ = comdat any

$_ZNSt6vectorI10aiVector3tIfESaIS1_EE5beginEv = comdat any

$_ZSt4copyIP10aiVector3tIfES2_ET0_T_S4_S3_ = comdat any

$_ZSt22__uninitialized_copy_aIP10aiVector3tIfES2_S1_ET0_T_S4_S3_RSaIT1_E = comdat any

$_ZSt22__uninitialized_copy_aIN9__gnu_cxx17__normal_iteratorIPK10aiVector3tIfESt6vectorIS3_SaIS3_EEEEPS3_S3_ET0_T_SC_SB_RSaIT1_E = comdat any

$_ZSt18uninitialized_copyIN9__gnu_cxx17__normal_iteratorIPK10aiVector3tIfESt6vectorIS3_SaIS3_EEEEPS3_ET0_T_SC_SB_ = comdat any

$_ZNSt20__uninitialized_copyILb0EE13__uninit_copyIN9__gnu_cxx17__normal_iteratorIPK10aiVector3tIfESt6vectorIS5_SaIS5_EEEEPS5_EET0_T_SE_SD_ = comdat any

$_ZSt16__do_uninit_copyIN9__gnu_cxx17__normal_iteratorIPK10aiVector3tIfESt6vectorIS3_SaIS3_EEEEPS3_ET0_T_SC_SB_ = comdat any

$_ZN9__gnu_cxxneIPK10aiVector3tIfESt6vectorIS2_SaIS2_EEEEbRKNS_17__normal_iteratorIT_T0_EESD_ = comdat any

$_ZNK9__gnu_cxx17__normal_iteratorIPK10aiVector3tIfESt6vectorIS2_SaIS2_EEEdeEv = comdat any

$_ZN9__gnu_cxx17__normal_iteratorIPK10aiVector3tIfESt6vectorIS2_SaIS2_EEEppEv = comdat any

$_ZNK9__gnu_cxx17__normal_iteratorIPK10aiVector3tIfESt6vectorIS2_SaIS2_EEE4baseEv = comdat any

$_ZN9__gnu_cxx17__normal_iteratorIPK10aiVector3tIfESt6vectorIS2_SaIS2_EEEC2ERKS4_ = comdat any

$_ZSt8_DestroyIN9__gnu_cxx17__normal_iteratorIP10aiVector3tIfESt6vectorIS3_SaIS3_EEEEEvT_S9_ = comdat any

$_ZNSt12_Destroy_auxILb1EE9__destroyIN9__gnu_cxx17__normal_iteratorIP10aiVector3tIfESt6vectorIS5_SaIS5_EEEEEEvT_SB_ = comdat any

$_ZSt13__copy_move_aILb0EN9__gnu_cxx17__normal_iteratorIPK10aiVector3tIfESt6vectorIS3_SaIS3_EEEENS1_IPS3_S8_EEET1_T0_SD_SC_ = comdat any

$_ZSt12__miter_baseIN9__gnu_cxx17__normal_iteratorIPK10aiVector3tIfESt6vectorIS3_SaIS3_EEEEET_SA_ = comdat any

$_ZSt12__niter_wrapIN9__gnu_cxx17__normal_iteratorIP10aiVector3tIfESt6vectorIS3_SaIS3_EEEES4_ET_S9_T0_ = comdat any

$_ZSt14__copy_move_a1ILb0EPK10aiVector3tIfEPS1_ET1_T0_S6_S5_ = comdat any

$_ZSt12__niter_baseIPK10aiVector3tIfESt6vectorIS1_SaIS1_EEET_N9__gnu_cxx17__normal_iteratorIS7_T0_EE = comdat any

$_ZSt12__niter_baseIP10aiVector3tIfESt6vectorIS1_SaIS1_EEET_N9__gnu_cxx17__normal_iteratorIS6_T0_EE = comdat any

$_ZNK9__gnu_cxx17__normal_iteratorIP10aiVector3tIfESt6vectorIS2_SaIS2_EEEplEl = comdat any

$_ZSt14__copy_move_a2ILb0EPK10aiVector3tIfEPS1_ET1_T0_S6_S5_ = comdat any

$_ZNSt11__copy_moveILb0ELb1ESt26random_access_iterator_tagE8__copy_mI10aiVector3tIfEEEPT_PKS5_S8_S6_ = comdat any

$_ZSt13__copy_move_aILb0EP10aiVector3tIfES2_ET1_T0_S4_S3_ = comdat any

$_ZSt14__copy_move_a1ILb0EP10aiVector3tIfES2_ET1_T0_S4_S3_ = comdat any

$_ZSt14__copy_move_a2ILb0EP10aiVector3tIfES2_ET1_T0_S4_S3_ = comdat any

$_ZSt18uninitialized_copyIP10aiVector3tIfES2_ET0_T_S4_S3_ = comdat any

$_ZNSt20__uninitialized_copyILb0EE13__uninit_copyIP10aiVector3tIfES4_EET0_T_S6_S5_ = comdat any

$_ZSt16__do_uninit_copyIP10aiVector3tIfES2_ET0_T_S4_S3_ = comdat any

$_ZSt10_ConstructI10aiVector3tIfEJRS1_EEvPT_DpOT0_ = comdat any

$_ZN6Assimp12StreamReaderILb0ELb0EE3GetIsEET_v = comdat any

$_ZN6Assimp6Intern6GetterILb0EsLb0EEclEPsb = comdat any

$_ZN6Assimp6Intern11ByteSwapperIsLb0EEclEPs = comdat any

$_ZN6Assimp12StreamReaderILb0ELb0EE3GetIiEET_v = comdat any

$_ZN6Assimp6Intern6GetterILb0EiLb0EEclEPib = comdat any

$_ZN6Assimp6Intern11ByteSwapperIiLb0EEclEPi = comdat any

$_ZNK6Assimp12StreamReaderILb0ELb0EE12GetReadLimitEv = comdat any

$_ZN6Assimp13ASSIMP_itoa10EPcji = comdat any

$_ZN6Assimp6Logger13formatMessageIJERA10_cEENSt7__cxx1112basic_stringIcSt11char_traitsIcESaIcEEENS_9Formatter15basic_formatterIcS7_S8_EEOT0_DpOT_ = comdat any

$_ZN6Assimp9Formatter15basic_formatterIcSt11char_traitsIcESaIcEEC2IA26_cEERKT_ = comdat any

$_ZN6Assimp6Logger13formatMessageB5cxx11ENS_9Formatter15basic_formatterIcSt11char_traitsIcESaIcEEE = comdat any

$_ZN6Assimp9Formatter15basic_formatterIcSt11char_traitsIcESaIcEElsIA10_cTnPNSt9enable_ifIXntsr3std10is_base_ofISt9exceptionT_EE5valueEvE4typeELPv0EEERS5_RKSA_ = comdat any

$_ZN6Assimp12StreamReaderILb0ELb0EE3GetIaEET_v = comdat any

$_ZN6Assimp6Intern6GetterILb0EaLb0EEclEPab = comdat any

$_ZN6Assimp6Intern11ByteSwapperIaLb0EEclEPa = comdat any

$_ZNSt16allocator_traitsISaIN6Assimp4D3DS8MaterialEEE9constructIS2_JNSt7__cxx1112basic_stringIcSt11char_traitsIcESaIcEEEEEEvRS3_PT_DpOT0_ = comdat any

$_ZNSt6vectorIN6Assimp4D3DS8MaterialESaIS2_EE17_M_realloc_insertIJNSt7__cxx1112basic_stringIcSt11char_traitsIcESaIcEEEEEEvN9__gnu_cxx17__normal_iteratorIPS2_S4_EEDpOT_ = comdat any

$_ZNSt15__new_allocatorIN6Assimp4D3DS8MaterialEE9constructIS2_JNSt7__cxx1112basic_stringIcSt11char_traitsIcESaIcEEEEEEvPT_DpOT0_ = comdat any

$_ZN6Assimp4D3DS8MaterialC2ERKNSt7__cxx1112basic_stringIcSt11char_traitsIcESaIcEEE = comdat any

$_ZN6Assimp4D3DS7TextureC2Ev = comdat any

$_ZN6Assimp4D3DS8MaterialD2Ev = comdat any

$_ZN6Assimp4D3DS8MaterialD0Ev = comdat any

$_ZN6Assimp4D3DS7TextureD2Ev = comdat any

$_ZNKSt6vectorIN6Assimp4D3DS8MaterialESaIS2_EE12_M_check_lenEmPKc = comdat any

$_ZN9__gnu_cxxmiIPN6Assimp4D3DS8MaterialESt6vectorIS3_SaIS3_EEEENS_17__normal_iteratorIT_T0_E15difference_typeERKSB_SE_ = comdat any

$_ZNSt12_Vector_baseIN6Assimp4D3DS8MaterialESaIS2_EE11_M_allocateEm = comdat any

$_ZSt34__uninitialized_move_if_noexcept_aIPN6Assimp4D3DS8MaterialES3_SaIS2_EET0_T_S6_S5_RT1_ = comdat any

$_ZNK9__gnu_cxx17__normal_iteratorIPN6Assimp4D3DS8MaterialESt6vectorIS3_SaIS3_EEE4baseEv = comdat any

$_ZNSt16allocator_traitsISaIN6Assimp4D3DS8MaterialEEE7destroyIS2_EEvRS3_PT_ = comdat any

$_ZNKSt6vectorIN6Assimp4D3DS8MaterialESaIS2_EE8max_sizeEv = comdat any

$_ZNSt6vectorIN6Assimp4D3DS8MaterialESaIS2_EE11_S_max_sizeERKS3_ = comdat any

$_ZNKSt12_Vector_baseIN6Assimp4D3DS8MaterialESaIS2_EE19_M_get_Tp_allocatorEv = comdat any

$_ZNSt16allocator_traitsISaIN6Assimp4D3DS8MaterialEEE8max_sizeERKS3_ = comdat any

$_ZNKSt15__new_allocatorIN6Assimp4D3DS8MaterialEE8max_sizeEv = comdat any

$_ZNKSt15__new_allocatorIN6Assimp4D3DS8MaterialEE11_M_max_sizeEv = comdat any

$_ZNSt16allocator_traitsISaIN6Assimp4D3DS8MaterialEEE8allocateERS3_m = comdat any

$_ZNSt15__new_allocatorIN6Assimp4D3DS8MaterialEE8allocateEmPKv = comdat any

$_ZSt22__uninitialized_copy_aIPKN6Assimp4D3DS8MaterialEPS2_S2_ET0_T_S7_S6_RSaIT1_E = comdat any

$_ZSt32__make_move_if_noexcept_iteratorIN6Assimp4D3DS8MaterialEPKS2_ET0_PT_ = comdat any

$_ZSt18uninitialized_copyIPKN6Assimp4D3DS8MaterialEPS2_ET0_T_S7_S6_ = comdat any

$_ZNSt20__uninitialized_copyILb0EE13__uninit_copyIPKN6Assimp4D3DS8MaterialEPS4_EET0_T_S9_S8_ = comdat any

$_ZSt16__do_uninit_copyIPKN6Assimp4D3DS8MaterialEPS2_ET0_T_S7_S6_ = comdat any

$_ZSt10_ConstructIN6Assimp4D3DS8MaterialEJRKS2_EEvPT_DpOT0_ = comdat any

$_ZN6Assimp4D3DS8MaterialC2ERKS1_ = comdat any

$_ZN9aiColor3DC2ERKS_ = comdat any

$_ZN6Assimp4D3DS7TextureC2ERKS1_ = comdat any

$_ZNSt15__new_allocatorIN6Assimp4D3DS8MaterialEE7destroyIS2_EEvPT_ = comdat any

$_ZN6Assimp12StreamReaderILb0ELb0EE3GetIfEET_v = comdat any

$_ZN6Assimp6Intern6GetterILb0EfLb0EEclEPfb = comdat any

$_ZN6Assimp6Intern11ByteSwapperIfLb0EEclEPf = comdat any

$_ZNSt16allocator_traitsISaIN6Assimp4D3DS4MeshEEE9constructIS2_JNSt7__cxx1112basic_stringIcSt11char_traitsIcESaIcEEEEEEvRS3_PT_DpOT0_ = comdat any

$_ZNSt6vectorIN6Assimp4D3DS4MeshESaIS2_EE17_M_realloc_insertIJNSt7__cxx1112basic_stringIcSt11char_traitsIcESaIcEEEEEEvN9__gnu_cxx17__normal_iteratorIPS2_S4_EEDpOT_ = comdat any

$_ZNSt15__new_allocatorIN6Assimp4D3DS4MeshEE9constructIS2_JNSt7__cxx1112basic_stringIcSt11char_traitsIcESaIcEEEEEEvPT_DpOT0_ = comdat any

$_ZN6Assimp4D3DS4MeshC2ERKNSt7__cxx1112basic_stringIcSt11char_traitsIcESaIcEEE = comdat any

$_ZN23MeshWithSmoothingGroupsIN6Assimp4D3DS4FaceEEC2Ev = comdat any

$_ZN12aiMatrix4x4tIfEC2Ev = comdat any

$_ZNSt6vectorIN6Assimp4D3DS4FaceESaIS2_EEC2Ev = comdat any

$_ZNSt12_Vector_baseIN6Assimp4D3DS4FaceESaIS2_EEC2Ev = comdat any

$_ZNSt12_Vector_baseIN6Assimp4D3DS4FaceESaIS2_EE12_Vector_implC2Ev = comdat any

$_ZNSaIN6Assimp4D3DS4FaceEEC2Ev = comdat any

$_ZNSt12_Vector_baseIN6Assimp4D3DS4FaceESaIS2_EE17_Vector_impl_dataC2Ev = comdat any

$_ZNSt15__new_allocatorIN6Assimp4D3DS4FaceEEC2Ev = comdat any

$_ZNKSt6vectorIN6Assimp4D3DS4MeshESaIS2_EE12_M_check_lenEmPKc = comdat any

$_ZN9__gnu_cxxmiIPN6Assimp4D3DS4MeshESt6vectorIS3_SaIS3_EEEENS_17__normal_iteratorIT_T0_E15difference_typeERKSB_SE_ = comdat any

$_ZNSt12_Vector_baseIN6Assimp4D3DS4MeshESaIS2_EE11_M_allocateEm = comdat any

$_ZNSt6vectorIN6Assimp4D3DS4MeshESaIS2_EE11_S_relocateEPS2_S5_S5_RS3_ = comdat any

$_ZNSt16allocator_traitsISaIN6Assimp4D3DS4MeshEEE7destroyIS2_EEvRS3_PT_ = comdat any

$_ZNKSt6vectorIN6Assimp4D3DS4MeshESaIS2_EE8max_sizeEv = comdat any

$_ZNKSt6vectorIN6Assimp4D3DS4MeshESaIS2_EE4sizeEv = comdat any

$_ZNSt6vectorIN6Assimp4D3DS4MeshESaIS2_EE11_S_max_sizeERKS3_ = comdat any

$_ZNKSt12_Vector_baseIN6Assimp4D3DS4MeshESaIS2_EE19_M_get_Tp_allocatorEv = comdat any

$_ZNSt16allocator_traitsISaIN6Assimp4D3DS4MeshEEE8max_sizeERKS3_ = comdat any

$_ZNKSt15__new_allocatorIN6Assimp4D3DS4MeshEE8max_sizeEv = comdat any

$_ZNKSt15__new_allocatorIN6Assimp4D3DS4MeshEE11_M_max_sizeEv = comdat any

$_ZNSt16allocator_traitsISaIN6Assimp4D3DS4MeshEEE8allocateERS3_m = comdat any

$_ZNSt15__new_allocatorIN6Assimp4D3DS4MeshEE8allocateEmPKv = comdat any

$_ZSt12__relocate_aIPN6Assimp4D3DS4MeshES3_SaIS2_EET0_T_S6_S5_RT1_ = comdat any

$_ZSt14__relocate_a_1IPN6Assimp4D3DS4MeshES3_SaIS2_EET0_T_S6_S5_RT1_ = comdat any

$_ZSt12__niter_baseIPN6Assimp4D3DS4MeshEET_S4_ = comdat any

$_ZSt19__relocate_object_aIN6Assimp4D3DS4MeshES2_SaIS2_EEvPT_PT0_RT1_ = comdat any

$_ZNSt16allocator_traitsISaIN6Assimp4D3DS4MeshEEE9constructIS2_JS2_EEEvRS3_PT_DpOT0_ = comdat any

$_ZNSt15__new_allocatorIN6Assimp4D3DS4MeshEE9constructIS2_JS2_EEEvPT_DpOT0_ = comdat any

$_ZN6Assimp4D3DS4MeshC2EOS1_ = comdat any

$_ZN23MeshWithSmoothingGroupsIN6Assimp4D3DS4FaceEEC2EOS3_ = comdat any

$_ZNSt6vectorI10aiVector3tIfESaIS1_EEC2EOS3_ = comdat any

$_ZNSt6vectorIjSaIjEEC2EOS1_ = comdat any

$_ZNSt6vectorIN6Assimp4D3DS4FaceESaIS2_EEC2EOS4_ = comdat any

$_ZNSt12_Vector_baseIN6Assimp4D3DS4FaceESaIS2_EEC2EOS4_ = comdat any

$_ZNSt12_Vector_baseIN6Assimp4D3DS4FaceESaIS2_EE12_Vector_implC2EOS5_ = comdat any

$_ZNSaIN6Assimp4D3DS4FaceEEC2ERKS2_ = comdat any

$_ZNSt12_Vector_baseIN6Assimp4D3DS4FaceESaIS2_EE17_Vector_impl_dataC2EOS5_ = comdat any

$_ZNSt15__new_allocatorIN6Assimp4D3DS4FaceEEC2ERKS3_ = comdat any

$_ZNSt12_Vector_baseI10aiVector3tIfESaIS1_EEC2EOS3_ = comdat any

$_ZNSt12_Vector_baseI10aiVector3tIfESaIS1_EE12_Vector_implC2EOS4_ = comdat any

$_ZNSaI10aiVector3tIfEEC2ERKS1_ = comdat any

$_ZNSt12_Vector_baseI10aiVector3tIfESaIS1_EE17_Vector_impl_dataC2EOS4_ = comdat any

$_ZNSt15__new_allocatorI10aiVector3tIfEEC2ERKS2_ = comdat any

$_ZNSt12_Vector_baseIjSaIjEEC2EOS1_ = comdat any

$_ZNSt12_Vector_baseIjSaIjEE12_Vector_implC2EOS2_ = comdat any

$_ZNSaIjEC2ERKS_ = comdat any

$_ZNSt12_Vector_baseIjSaIjEE17_Vector_impl_dataC2EOS2_ = comdat any

$_ZNSt15__new_allocatorIjEC2ERKS0_ = comdat any

$_ZNSt15__new_allocatorIN6Assimp4D3DS4MeshEE7destroyIS2_EEvPT_ = comdat any

$_ZNSt16allocator_traitsISaIP7aiLightEE9constructIS1_JRKS1_EEEvRS2_PT_DpOT0_ = comdat any

$_ZNSt6vectorIP7aiLightSaIS1_EE17_M_realloc_insertIJRKS1_EEEvN9__gnu_cxx17__normal_iteratorIPS1_S3_EEDpOT_ = comdat any

$_ZNSt6vectorIP7aiLightSaIS1_EE3endEv = comdat any

$_ZNSt15__new_allocatorIP7aiLightE9constructIS1_JRKS1_EEEvPT_DpOT0_ = comdat any

$_ZNKSt6vectorIP7aiLightSaIS1_EE12_M_check_lenEmPKc = comdat any

$_ZN9__gnu_cxxmiIPP7aiLightSt6vectorIS2_SaIS2_EEEENS_17__normal_iteratorIT_T0_E15difference_typeERKSA_SD_ = comdat any

$_ZNSt6vectorIP7aiLightSaIS1_EE5beginEv = comdat any

$_ZNSt12_Vector_baseIP7aiLightSaIS1_EE11_M_allocateEm = comdat any

$_ZNSt6vectorIP7aiLightSaIS1_EE11_S_relocateEPS1_S4_S4_RS2_ = comdat any

$_ZNK9__gnu_cxx17__normal_iteratorIPP7aiLightSt6vectorIS2_SaIS2_EEE4baseEv = comdat any

$_ZNKSt6vectorIP7aiLightSaIS1_EE8max_sizeEv = comdat any

$_ZNKSt6vectorIP7aiLightSaIS1_EE4sizeEv = comdat any

$_ZNSt6vectorIP7aiLightSaIS1_EE11_S_max_sizeERKS2_ = comdat any

$_ZNKSt12_Vector_baseIP7aiLightSaIS1_EE19_M_get_Tp_allocatorEv = comdat any

$_ZNSt16allocator_traitsISaIP7aiLightEE8max_sizeERKS2_ = comdat any

$_ZNKSt15__new_allocatorIP7aiLightE8max_sizeEv = comdat any

$_ZNKSt15__new_allocatorIP7aiLightE11_M_max_sizeEv = comdat any

$_ZN9__gnu_cxx17__normal_iteratorIPP7aiLightSt6vectorIS2_SaIS2_EEEC2ERKS3_ = comdat any

$_ZNSt16allocator_traitsISaIP7aiLightEE8allocateERS2_m = comdat any

$_ZNSt15__new_allocatorIP7aiLightE8allocateEmPKv = comdat any

$_ZSt12__relocate_aIPP7aiLightS2_SaIS1_EET0_T_S5_S4_RT1_ = comdat any

$_ZSt14__relocate_a_1IP7aiLightS1_ENSt9enable_ifIXsr3std24__is_bitwise_relocatableIT_EE5valueEPS3_E4typeES4_S4_S4_RSaIT0_E = comdat any

$_ZSt12__niter_baseIPP7aiLightET_S3_ = comdat any

$_ZNSt16allocator_traitsISaIP8aiCameraEE9constructIS1_JRKS1_EEEvRS2_PT_DpOT0_ = comdat any

$_ZNSt6vectorIP8aiCameraSaIS1_EE17_M_realloc_insertIJRKS1_EEEvN9__gnu_cxx17__normal_iteratorIPS1_S3_EEDpOT_ = comdat any

$_ZNSt6vectorIP8aiCameraSaIS1_EE3endEv = comdat any

$_ZNSt15__new_allocatorIP8aiCameraE9constructIS1_JRKS1_EEEvPT_DpOT0_ = comdat any

$_ZNKSt6vectorIP8aiCameraSaIS1_EE12_M_check_lenEmPKc = comdat any

$_ZN9__gnu_cxxmiIPP8aiCameraSt6vectorIS2_SaIS2_EEEENS_17__normal_iteratorIT_T0_E15difference_typeERKSA_SD_ = comdat any

$_ZNSt6vectorIP8aiCameraSaIS1_EE5beginEv = comdat any

$_ZNSt12_Vector_baseIP8aiCameraSaIS1_EE11_M_allocateEm = comdat any

$_ZNSt6vectorIP8aiCameraSaIS1_EE11_S_relocateEPS1_S4_S4_RS2_ = comdat any

$_ZNK9__gnu_cxx17__normal_iteratorIPP8aiCameraSt6vectorIS2_SaIS2_EEE4baseEv = comdat any

$_ZNKSt6vectorIP8aiCameraSaIS1_EE8max_sizeEv = comdat any

$_ZNKSt6vectorIP8aiCameraSaIS1_EE4sizeEv = comdat any

$_ZNSt6vectorIP8aiCameraSaIS1_EE11_S_max_sizeERKS2_ = comdat any

$_ZNKSt12_Vector_baseIP8aiCameraSaIS1_EE19_M_get_Tp_allocatorEv = comdat any

$_ZNSt16allocator_traitsISaIP8aiCameraEE8max_sizeERKS2_ = comdat any

$_ZNKSt15__new_allocatorIP8aiCameraE8max_sizeEv = comdat any

$_ZNKSt15__new_allocatorIP8aiCameraE11_M_max_sizeEv = comdat any

$_ZN9__gnu_cxx17__normal_iteratorIPP8aiCameraSt6vectorIS2_SaIS2_EEEC2ERKS3_ = comdat any

$_ZNSt16allocator_traitsISaIP8aiCameraEE8allocateERS2_m = comdat any

$_ZNSt15__new_allocatorIP8aiCameraE8allocateEmPKv = comdat any

$_ZSt12__relocate_aIPP8aiCameraS2_SaIS1_EET0_T_S5_S4_RT1_ = comdat any

$_ZSt14__relocate_a_1IP8aiCameraS1_ENSt9enable_ifIXsr3std24__is_bitwise_relocatableIT_EE5valueEPS3_E4typeES4_S4_S4_RSaIT0_E = comdat any

$_ZSt12__niter_baseIPP8aiCameraET_S3_ = comdat any

$_ZSt4sqrtf = comdat any

$_ZNK10aiVector3tIfE12SquareLengthEv = comdat any

$_ZSt3sinf = comdat any

$_ZSt3cosf = comdat any

$_ZN12aiMatrix3x3tIfEC2Ev = comdat any

$_ZNK9__gnu_cxx17__normal_iteratorIPP7aiLightSt6vectorIS2_SaIS2_EEEmiEl = comdat any

$_ZNK9__gnu_cxx17__normal_iteratorIPP7aiLightSt6vectorIS2_SaIS2_EEEdeEv = comdat any

$_ZNK9__gnu_cxx17__normal_iteratorIPP8aiCameraSt6vectorIS2_SaIS2_EEEmiEl = comdat any

$_ZNK9__gnu_cxx17__normal_iteratorIPP8aiCameraSt6vectorIS2_SaIS2_EEEdeEv = comdat any

$_ZNSt11char_traitsIcE7compareEPKcS2_m = comdat any

$_ZN9__gnu_cxx17__normal_iteratorIPPN6Assimp4D3DS4NodeESt6vectorIS4_SaIS4_EEEC2ERKS5_ = comdat any

$_ZN9__gnu_cxxeqIPK11aiVectorKeySt6vectorIS1_SaIS1_EEEEbRKNS_17__normal_iteratorIT_T0_EESC_ = comdat any

$_ZNKSt6vectorI11aiVectorKeySaIS0_EE5beginEv = comdat any

$_ZNKSt6vectorI11aiVectorKeySaIS0_EE3endEv = comdat any

$_ZNK9__gnu_cxx17__normal_iteratorIPK11aiVectorKeySt6vectorIS1_SaIS1_EEE4baseEv = comdat any

$_ZN9__gnu_cxx17__normal_iteratorIPK11aiVectorKeySt6vectorIS1_SaIS1_EEEC2ERKS3_ = comdat any

$_ZNK9__gnu_cxx17__normal_iteratorIP11aiVectorKeySt6vectorIS1_SaIS1_EEEmiEl = comdat any

$_ZNK9__gnu_cxx17__normal_iteratorIP11aiVectorKeySt6vectorIS1_SaIS1_EEEdeEv = comdat any

$_ZN9__gnu_cxx17__normal_iteratorIP11aiVectorKeySt6vectorIS1_SaIS1_EEEC2ERKS2_ = comdat any

$_ZNSt16allocator_traitsISaI11aiVectorKeyEE9constructIS0_JRKS0_EEEvRS1_PT_DpOT0_ = comdat any

$_ZNSt6vectorI11aiVectorKeySaIS0_EE17_M_realloc_insertIJRKS0_EEEvN9__gnu_cxx17__normal_iteratorIPS0_S2_EEDpOT_ = comdat any

$_ZNSt15__new_allocatorI11aiVectorKeyE9constructIS0_JRKS0_EEEvPT_DpOT0_ = comdat any

$_ZNKSt6vectorI11aiVectorKeySaIS0_EE12_M_check_lenEmPKc = comdat any

$_ZN9__gnu_cxxmiIP11aiVectorKeySt6vectorIS1_SaIS1_EEEENS_17__normal_iteratorIT_T0_E15difference_typeERKS9_SC_ = comdat any

$_ZNK9__gnu_cxx17__normal_iteratorIP11aiVectorKeySt6vectorIS1_SaIS1_EEE4baseEv = comdat any

$_ZSt13__stable_sortIN9__gnu_cxx17__normal_iteratorIP11aiVectorKeySt6vectorIS2_SaIS2_EEEENS0_5__ops15_Iter_less_iterEEvT_SA_T0_ = comdat any

$_ZN9__gnu_cxx5__ops16__iter_less_iterEv = comdat any

$_ZN9__gnu_cxxeqIP11aiVectorKeySt6vectorIS1_SaIS1_EEEEbRKNS_17__normal_iteratorIT_T0_EESB_ = comdat any

$_ZNSt17_Temporary_bufferIN9__gnu_cxx17__normal_iteratorIP11aiVectorKeySt6vectorIS2_SaIS2_EEEES2_EC2ES7_l = comdat any

$_ZNSt17_Temporary_bufferIN9__gnu_cxx17__normal_iteratorIP11aiVectorKeySt6vectorIS2_SaIS2_EEEES2_E5beginEv = comdat any

$_ZSt21__inplace_stable_sortIN9__gnu_cxx17__normal_iteratorIP11aiVectorKeySt6vectorIS2_SaIS2_EEEENS0_5__ops15_Iter_less_iterEEvT_SA_T0_ = comdat any

$_ZSt22__stable_sort_adaptiveIN9__gnu_cxx17__normal_iteratorIP11aiVectorKeySt6vectorIS2_SaIS2_EEEES3_lNS0_5__ops15_Iter_less_iterEEvT_SA_T0_T1_T2_ = comdat any

$_ZNKSt17_Temporary_bufferIN9__gnu_cxx17__normal_iteratorIP11aiVectorKeySt6vectorIS2_SaIS2_EEEES2_E4sizeEv = comdat any

$_ZNSt17_Temporary_bufferIN9__gnu_cxx17__normal_iteratorIP11aiVectorKeySt6vectorIS2_SaIS2_EEEES2_ED2Ev = comdat any

$_ZSt20get_temporary_bufferI11aiVectorKeyESt4pairIPT_lEl = comdat any

$_ZSt29__uninitialized_construct_bufIP11aiVectorKeyN9__gnu_cxx17__normal_iteratorIS1_St6vectorIS0_SaIS0_EEEEEvT_S8_T0_ = comdat any

$_ZNSt8__detail25__return_temporary_bufferI11aiVectorKeyEEvPT_m = comdat any

$_ZNSt4pairIP11aiVectorKeylEC2IRS1_RlTnNSt9enable_ifIXaaclsr5_PCCPE22_MoveConstructiblePairIT_T0_EEclsr5_PCCPE30_ImplicitlyMoveConvertiblePairIS7_S8_EEEbE4typeELb1EEEOS7_OS8_ = comdat any

$_ZNSt4pairIP11aiVectorKeylEC2IS1_iTnNSt9enable_ifIXaaclsr5_PCCPE22_MoveConstructiblePairIT_T0_EEclsr5_PCCPE30_ImplicitlyMoveConvertiblePairIS5_S6_EEEbE4typeELb1EEEOS5_OS6_ = comdat any

$_ZNSt38__uninitialized_construct_buf_dispatchILb0EE5__ucrIP11aiVectorKeyN9__gnu_cxx17__normal_iteratorIS3_St6vectorIS2_SaIS2_EEEEEEvT_SA_T0_ = comdat any

$_ZSt10_ConstructI11aiVectorKeyJS0_EEvPT_DpOT0_ = comdat any

$_ZSt16__insertion_sortIN9__gnu_cxx17__normal_iteratorIP11aiVectorKeySt6vectorIS2_SaIS2_EEEENS0_5__ops15_Iter_less_iterEEvT_SA_T0_ = comdat any

$_ZNK9__gnu_cxx17__normal_iteratorIP11aiVectorKeySt6vectorIS1_SaIS1_EEEplEl = comdat any

$_ZSt22__merge_without_bufferIN9__gnu_cxx17__normal_iteratorIP11aiVectorKeySt6vectorIS2_SaIS2_EEEElNS0_5__ops15_Iter_less_iterEEvT_SA_SA_T0_SB_T1_ = comdat any

$_ZN9__gnu_cxxneIP11aiVectorKeySt6vectorIS1_SaIS1_EEEEbRKNS_17__normal_iteratorIT_T0_EESB_ = comdat any

$_ZNK9__gnu_cxx5__ops15_Iter_less_iterclINS_17__normal_iteratorIP11aiVectorKeySt6vectorIS4_SaIS4_EEEES9_EEbT_T0_ = comdat any

$_ZSt13move_backwardIN9__gnu_cxx17__normal_iteratorIP11aiVectorKeySt6vectorIS2_SaIS2_EEEES7_ET0_T_S9_S8_ = comdat any

$_ZSt25__unguarded_linear_insertIN9__gnu_cxx17__normal_iteratorIP11aiVectorKeySt6vectorIS2_SaIS2_EEEENS0_5__ops14_Val_less_iterEEvT_T0_ = comdat any

$_ZN9__gnu_cxx5__ops15__val_comp_iterENS0_15_Iter_less_iterE = comdat any

$_ZN9__gnu_cxx17__normal_iteratorIP11aiVectorKeySt6vectorIS1_SaIS1_EEEppEv = comdat any

$_ZNK11aiVectorKeyltERKS_ = comdat any

$_ZSt22__copy_move_backward_aILb1EN9__gnu_cxx17__normal_iteratorIP11aiVectorKeySt6vectorIS2_SaIS2_EEEES7_ET1_T0_S9_S8_ = comdat any

$_ZSt12__miter_baseIN9__gnu_cxx17__normal_iteratorIP11aiVectorKeySt6vectorIS2_SaIS2_EEEEET_S8_ = comdat any

$_ZSt12__niter_wrapIN9__gnu_cxx17__normal_iteratorIP11aiVectorKeySt6vectorIS2_SaIS2_EEEES3_ET_S8_T0_ = comdat any

$_ZSt23__copy_move_backward_a1ILb1EP11aiVectorKeyS1_ET1_T0_S3_S2_ = comdat any

$_ZSt12__niter_baseIP11aiVectorKeySt6vectorIS0_SaIS0_EEET_N9__gnu_cxx17__normal_iteratorIS5_T0_EE = comdat any

$_ZSt23__copy_move_backward_a2ILb1EP11aiVectorKeyS1_ET1_T0_S3_S2_ = comdat any

$_ZNSt20__copy_move_backwardILb1ELb1ESt26random_access_iterator_tagE13__copy_move_bI11aiVectorKeyEEPT_PKS4_S7_S5_ = comdat any

$_ZN9__gnu_cxx17__normal_iteratorIP11aiVectorKeySt6vectorIS1_SaIS1_EEEmmEv = comdat any

$_ZNK9__gnu_cxx5__ops14_Val_less_iterclI11aiVectorKeyNS_17__normal_iteratorIPS3_St6vectorIS3_SaIS3_EEEEEEbRT_T0_ = comdat any

$_ZSt9iter_swapIN9__gnu_cxx17__normal_iteratorIP11aiVectorKeySt6vectorIS2_SaIS2_EEEES7_EvT_T0_ = comdat any

$_ZSt7advanceIN9__gnu_cxx17__normal_iteratorIP11aiVectorKeySt6vectorIS2_SaIS2_EEEElEvRT_T0_ = comdat any

$_ZSt13__lower_boundIN9__gnu_cxx17__normal_iteratorIP11aiVectorKeySt6vectorIS2_SaIS2_EEEES2_NS0_5__ops14_Iter_less_valEET_SA_SA_RKT0_T1_ = comdat any

$_ZN9__gnu_cxx5__ops15__iter_comp_valENS0_15_Iter_less_iterE = comdat any

$_ZSt8distanceIN9__gnu_cxx17__normal_iteratorIP11aiVectorKeySt6vectorIS2_SaIS2_EEEEENSt15iterator_traitsIT_E15difference_typeES9_S9_ = comdat any

$_ZSt13__upper_boundIN9__gnu_cxx17__normal_iteratorIP11aiVectorKeySt6vectorIS2_SaIS2_EEEES2_NS0_5__ops14_Val_less_iterEET_SA_SA_RKT0_T1_ = comdat any

$_ZNSt3_V26rotateIN9__gnu_cxx17__normal_iteratorIP11aiVectorKeySt6vectorIS3_SaIS3_EEEEEET_S9_S9_S9_ = comdat any

$_ZSt4swapI11aiVectorKeyENSt9enable_ifIXsr6__and_ISt6__not_ISt15__is_tuple_likeIT_EESt21is_move_constructibleIS4_ESt18is_move_assignableIS4_EEE5valueEvE4typeERS4_SD_ = comdat any

$_ZSt9__advanceIN9__gnu_cxx17__normal_iteratorIP11aiVectorKeySt6vectorIS2_SaIS2_EEEElEvRT_T0_St26random_access_iterator_tag = comdat any

$_ZSt19__iterator_categoryIN9__gnu_cxx17__normal_iteratorIP11aiVectorKeySt6vectorIS2_SaIS2_EEEEENSt15iterator_traitsIT_E17iterator_categoryERKS9_ = comdat any

$_ZN9__gnu_cxx17__normal_iteratorIP11aiVectorKeySt6vectorIS1_SaIS1_EEEpLEl = comdat any

$_ZNK9__gnu_cxx5__ops14_Iter_less_valclINS_17__normal_iteratorIP11aiVectorKeySt6vectorIS4_SaIS4_EEEEKS4_EEbT_RT0_ = comdat any

$_ZSt10__distanceIN9__gnu_cxx17__normal_iteratorIP11aiVectorKeySt6vectorIS2_SaIS2_EEEEENSt15iterator_traitsIT_E15difference_typeES9_S9_St26random_access_iterator_tag = comdat any

$_ZNK9__gnu_cxx5__ops14_Val_less_iterclIK11aiVectorKeyNS_17__normal_iteratorIPS3_St6vectorIS3_SaIS3_EEEEEEbRT_T0_ = comdat any

$_ZNSt3_V28__rotateIN9__gnu_cxx17__normal_iteratorIP11aiVectorKeySt6vectorIS3_SaIS3_EEEEEET_S9_S9_S9_St26random_access_iterator_tag = comdat any

$_ZSt11swap_rangesIN9__gnu_cxx17__normal_iteratorIP11aiVectorKeySt6vectorIS2_SaIS2_EEEES7_ET0_T_S9_S8_ = comdat any

$_ZSt4swapIlENSt9enable_ifIXsr6__and_ISt6__not_ISt15__is_tuple_likeIT_EESt21is_move_constructibleIS3_ESt18is_move_assignableIS3_EEE5valueEvE4typeERS3_SC_ = comdat any

$_ZSt24__merge_sort_with_bufferIN9__gnu_cxx17__normal_iteratorIP11aiVectorKeySt6vectorIS2_SaIS2_EEEES3_NS0_5__ops15_Iter_less_iterEEvT_SA_T0_T1_ = comdat any

$_ZSt16__merge_adaptiveIN9__gnu_cxx17__normal_iteratorIP11aiVectorKeySt6vectorIS2_SaIS2_EEEElS3_NS0_5__ops15_Iter_less_iterEEvT_SA_SA_T0_SB_T1_SB_T2_ = comdat any

$_ZSt22__chunk_insertion_sortIN9__gnu_cxx17__normal_iteratorIP11aiVectorKeySt6vectorIS2_SaIS2_EEEElNS0_5__ops15_Iter_less_iterEEvT_SA_T0_T1_ = comdat any

$_ZSt17__merge_sort_loopIN9__gnu_cxx17__normal_iteratorIP11aiVectorKeySt6vectorIS2_SaIS2_EEEES3_lNS0_5__ops15_Iter_less_iterEEvT_SA_T0_T1_T2_ = comdat any

$_ZSt17__merge_sort_loopIP11aiVectorKeyN9__gnu_cxx17__normal_iteratorIS1_St6vectorIS0_SaIS0_EEEElNS2_5__ops15_Iter_less_iterEEvT_SA_T0_T1_T2_ = comdat any

$_ZSt12__move_mergeIN9__gnu_cxx17__normal_iteratorIP11aiVectorKeySt6vectorIS2_SaIS2_EEEES3_NS0_5__ops15_Iter_less_iterEET0_T_SB_SB_SB_SA_T1_ = comdat any

$_ZSt3minIlERKT_S2_S2_ = comdat any

$_ZSt4moveIN9__gnu_cxx17__normal_iteratorIP11aiVectorKeySt6vectorIS2_SaIS2_EEEES3_ET0_T_S9_S8_ = comdat any

$_ZSt13__copy_move_aILb1EN9__gnu_cxx17__normal_iteratorIP11aiVectorKeySt6vectorIS2_SaIS2_EEEES3_ET1_T0_S9_S8_ = comdat any

$_ZSt12__niter_wrapIP11aiVectorKeyET_RKS2_S2_ = comdat any

$_ZSt14__copy_move_a1ILb1EP11aiVectorKeyS1_ET1_T0_S3_S2_ = comdat any

$_ZSt14__copy_move_a2ILb1EP11aiVectorKeyS1_ET1_T0_S3_S2_ = comdat any

$_ZNSt11__copy_moveILb1ELb1ESt26random_access_iterator_tagE8__copy_mI11aiVectorKeyEEPT_PKS4_S7_S5_ = comdat any

$_ZSt12__move_mergeIP11aiVectorKeyN9__gnu_cxx17__normal_iteratorIS1_St6vectorIS0_SaIS0_EEEENS2_5__ops15_Iter_less_iterEET0_T_SB_SB_SB_SA_T1_ = comdat any

$_ZNK9__gnu_cxx5__ops15_Iter_less_iterclIP11aiVectorKeyS4_EEbT_T0_ = comdat any

$_ZSt4moveIP11aiVectorKeyN9__gnu_cxx17__normal_iteratorIS1_St6vectorIS0_SaIS0_EEEEET0_T_S9_S8_ = comdat any

$_ZSt13__copy_move_aILb1EP11aiVectorKeyN9__gnu_cxx17__normal_iteratorIS1_St6vectorIS0_SaIS0_EEEEET1_T0_S9_S8_ = comdat any

$_ZSt12__miter_baseIP11aiVectorKeyET_S2_ = comdat any

$_ZSt21__move_merge_adaptiveIP11aiVectorKeyN9__gnu_cxx17__normal_iteratorIS1_St6vectorIS0_SaIS0_EEEES7_NS2_5__ops15_Iter_less_iterEEvT_SA_T0_SB_T1_T2_ = comdat any

$_ZSt30__move_merge_adaptive_backwardIN9__gnu_cxx17__normal_iteratorIP11aiVectorKeySt6vectorIS2_SaIS2_EEEES3_S7_NS0_5__ops15_Iter_less_iterEEvT_SA_T0_SB_T1_T2_ = comdat any

$_ZSt17__rotate_adaptiveIN9__gnu_cxx17__normal_iteratorIP11aiVectorKeySt6vectorIS2_SaIS2_EEEES3_lET_S8_S8_S8_T1_S9_T0_S9_ = comdat any

$_ZNK9__gnu_cxx5__ops15_Iter_less_iterclINS_17__normal_iteratorIP11aiVectorKeySt6vectorIS4_SaIS4_EEEES5_EEbT_T0_ = comdat any

$_ZSt13move_backwardIP11aiVectorKeyN9__gnu_cxx17__normal_iteratorIS1_St6vectorIS0_SaIS0_EEEEET0_T_S9_S8_ = comdat any

$_ZNK9__gnu_cxx5__ops15_Iter_less_iterclIP11aiVectorKeyNS_17__normal_iteratorIS4_St6vectorIS3_SaIS3_EEEEEEbT_T0_ = comdat any

$_ZSt22__copy_move_backward_aILb1EP11aiVectorKeyN9__gnu_cxx17__normal_iteratorIS1_St6vectorIS0_SaIS0_EEEEET1_T0_S9_S8_ = comdat any

$_ZSt4moveIN9__gnu_cxx17__normal_iteratorIP11aiVectorKeySt6vectorIS2_SaIS2_EEEES7_ET0_T_S9_S8_ = comdat any

$_ZSt13__copy_move_aILb1EN9__gnu_cxx17__normal_iteratorIP11aiVectorKeySt6vectorIS2_SaIS2_EEEES7_ET1_T0_S9_S8_ = comdat any

$_ZSt8__uniqueIN9__gnu_cxx17__normal_iteratorIP11aiVectorKeySt6vectorIS2_SaIS2_EEEENS0_5__ops15_Iter_comp_iterIPFbRKS2_SB_EEEET_SF_SF_T0_ = comdat any

$_ZN9__gnu_cxx5__ops16__iter_comp_iterIPFbRK11aiVectorKeyS4_EEENS0_15_Iter_comp_iterIT_EES8_ = comdat any

$_ZSt15__adjacent_findIN9__gnu_cxx17__normal_iteratorIP11aiVectorKeySt6vectorIS2_SaIS2_EEEENS0_5__ops15_Iter_comp_iterIPFbRKS2_SB_EEEET_SF_SF_T0_ = comdat any

$_ZN9__gnu_cxx5__ops15_Iter_comp_iterIPFbRK11aiVectorKeyS4_EEclINS_17__normal_iteratorIPS2_St6vectorIS2_SaIS2_EEEESE_EEbT_T0_ = comdat any

$_ZN9__gnu_cxx5__ops15_Iter_comp_iterIPFbRK11aiVectorKeyS4_EEC2ES6_ = comdat any

$_ZNKSt6vectorI11aiVectorKeySaIS0_EE6cbeginEv = comdat any

$_ZNSt6vectorI11aiVectorKeySaIS0_EE8_M_eraseEN9__gnu_cxx17__normal_iteratorIPS0_S2_EES6_ = comdat any

$_ZN9__gnu_cxxmiIPK11aiVectorKeySt6vectorIS1_SaIS1_EEEENS_17__normal_iteratorIT_T0_E15difference_typeERKSA_SD_ = comdat any

$_ZNSt6vectorI11aiVectorKeySaIS0_EE15_M_erase_at_endEPS0_ = comdat any

$_ZNKSt6vectorIN6Assimp4D3DS10aiFloatKeyESaIS2_EE8max_sizeEv = comdat any

$_ZNKSt6vectorIN6Assimp4D3DS10aiFloatKeyESaIS2_EE8capacityEv = comdat any

$_ZNKSt6vectorIN6Assimp4D3DS10aiFloatKeyESaIS2_EE4sizeEv = comdat any

$_ZNSt12_Vector_baseIN6Assimp4D3DS10aiFloatKeyESaIS2_EE11_M_allocateEm = comdat any

$_ZNSt6vectorIN6Assimp4D3DS10aiFloatKeyESaIS2_EE11_S_relocateEPS2_S5_S5_RS3_ = comdat any

$_ZNSt6vectorIN6Assimp4D3DS10aiFloatKeyESaIS2_EE11_S_max_sizeERKS3_ = comdat any

$_ZNKSt12_Vector_baseIN6Assimp4D3DS10aiFloatKeyESaIS2_EE19_M_get_Tp_allocatorEv = comdat any

$_ZNSt16allocator_traitsISaIN6Assimp4D3DS10aiFloatKeyEEE8max_sizeERKS3_ = comdat any

$_ZNKSt15__new_allocatorIN6Assimp4D3DS10aiFloatKeyEE8max_sizeEv = comdat any

$_ZNKSt15__new_allocatorIN6Assimp4D3DS10aiFloatKeyEE11_M_max_sizeEv = comdat any

$_ZNSt16allocator_traitsISaIN6Assimp4D3DS10aiFloatKeyEEE8allocateERS3_m = comdat any

$_ZNSt15__new_allocatorIN6Assimp4D3DS10aiFloatKeyEE8allocateEmPKv = comdat any

$_ZSt12__relocate_aIPN6Assimp4D3DS10aiFloatKeyES3_SaIS2_EET0_T_S6_S5_RT1_ = comdat any

$_ZSt14__relocate_a_1IN6Assimp4D3DS10aiFloatKeyES2_ENSt9enable_ifIXsr3std24__is_bitwise_relocatableIT_EE5valueEPS4_E4typeES5_S5_S5_RSaIT0_E = comdat any

$_ZSt12__niter_baseIPN6Assimp4D3DS10aiFloatKeyEET_S4_ = comdat any

$_ZN9__gnu_cxxeqIPKN6Assimp4D3DS10aiFloatKeyESt6vectorIS3_SaIS3_EEEEbRKNS_17__normal_iteratorIT_T0_EESE_ = comdat any

$_ZNKSt6vectorIN6Assimp4D3DS10aiFloatKeyESaIS2_EE5beginEv = comdat any

$_ZNKSt6vectorIN6Assimp4D3DS10aiFloatKeyESaIS2_EE3endEv = comdat any

$_ZNK9__gnu_cxx17__normal_iteratorIPKN6Assimp4D3DS10aiFloatKeyESt6vectorIS3_SaIS3_EEE4baseEv = comdat any

$_ZN9__gnu_cxx17__normal_iteratorIPKN6Assimp4D3DS10aiFloatKeyESt6vectorIS3_SaIS3_EEEC2ERKS5_ = comdat any

$_ZNK9__gnu_cxx17__normal_iteratorIPN6Assimp4D3DS10aiFloatKeyESt6vectorIS3_SaIS3_EEEmiEl = comdat any

$_ZNK9__gnu_cxx17__normal_iteratorIPN6Assimp4D3DS10aiFloatKeyESt6vectorIS3_SaIS3_EEEdeEv = comdat any

$_ZN9__gnu_cxx17__normal_iteratorIPN6Assimp4D3DS10aiFloatKeyESt6vectorIS3_SaIS3_EEEC2ERKS4_ = comdat any

$_ZNSt16allocator_traitsISaIN6Assimp4D3DS10aiFloatKeyEEE9constructIS2_JRKS2_EEEvRS3_PT_DpOT0_ = comdat any

$_ZNSt6vectorIN6Assimp4D3DS10aiFloatKeyESaIS2_EE17_M_realloc_insertIJRKS2_EEEvN9__gnu_cxx17__normal_iteratorIPS2_S4_EEDpOT_ = comdat any

$_ZNSt15__new_allocatorIN6Assimp4D3DS10aiFloatKeyEE9constructIS2_JRKS2_EEEvPT_DpOT0_ = comdat any

$_ZNKSt6vectorIN6Assimp4D3DS10aiFloatKeyESaIS2_EE12_M_check_lenEmPKc = comdat any

$_ZN9__gnu_cxxmiIPN6Assimp4D3DS10aiFloatKeyESt6vectorIS3_SaIS3_EEEENS_17__normal_iteratorIT_T0_E15difference_typeERKSB_SE_ = comdat any

$_ZNK9__gnu_cxx17__normal_iteratorIPN6Assimp4D3DS10aiFloatKeyESt6vectorIS3_SaIS3_EEE4baseEv = comdat any

$_ZSt13__stable_sortIN9__gnu_cxx17__normal_iteratorIPN6Assimp4D3DS10aiFloatKeyESt6vectorIS4_SaIS4_EEEENS0_5__ops15_Iter_less_iterEEvT_SC_T0_ = comdat any

$_ZN9__gnu_cxxeqIPN6Assimp4D3DS10aiFloatKeyESt6vectorIS3_SaIS3_EEEEbRKNS_17__normal_iteratorIT_T0_EESD_ = comdat any

$_ZNSt17_Temporary_bufferIN9__gnu_cxx17__normal_iteratorIPN6Assimp4D3DS10aiFloatKeyESt6vectorIS4_SaIS4_EEEES4_EC2ES9_l = comdat any

$_ZNSt17_Temporary_bufferIN9__gnu_cxx17__normal_iteratorIPN6Assimp4D3DS10aiFloatKeyESt6vectorIS4_SaIS4_EEEES4_E5beginEv = comdat any

$_ZSt21__inplace_stable_sortIN9__gnu_cxx17__normal_iteratorIPN6Assimp4D3DS10aiFloatKeyESt6vectorIS4_SaIS4_EEEENS0_5__ops15_Iter_less_iterEEvT_SC_T0_ = comdat any

$_ZSt22__stable_sort_adaptiveIN9__gnu_cxx17__normal_iteratorIPN6Assimp4D3DS10aiFloatKeyESt6vectorIS4_SaIS4_EEEES5_lNS0_5__ops15_Iter_less_iterEEvT_SC_T0_T1_T2_ = comdat any

$_ZNKSt17_Temporary_bufferIN9__gnu_cxx17__normal_iteratorIPN6Assimp4D3DS10aiFloatKeyESt6vectorIS4_SaIS4_EEEES4_E4sizeEv = comdat any

$_ZNSt17_Temporary_bufferIN9__gnu_cxx17__normal_iteratorIPN6Assimp4D3DS10aiFloatKeyESt6vectorIS4_SaIS4_EEEES4_ED2Ev = comdat any

$_ZSt20get_temporary_bufferIN6Assimp4D3DS10aiFloatKeyEESt4pairIPT_lEl = comdat any

$_ZSt29__uninitialized_construct_bufIPN6Assimp4D3DS10aiFloatKeyEN9__gnu_cxx17__normal_iteratorIS3_St6vectorIS2_SaIS2_EEEEEvT_SA_T0_ = comdat any

$_ZNSt8__detail25__return_temporary_bufferIN6Assimp4D3DS10aiFloatKeyEEEvPT_m = comdat any

$_ZNSt4pairIPN6Assimp4D3DS10aiFloatKeyElEC2IRS3_RlTnNSt9enable_ifIXaaclsr5_PCCPE22_MoveConstructiblePairIT_T0_EEclsr5_PCCPE30_ImplicitlyMoveConvertiblePairIS9_SA_EEEbE4typeELb1EEEOS9_OSA_ = comdat any

$_ZNSt4pairIPN6Assimp4D3DS10aiFloatKeyElEC2IS3_iTnNSt9enable_ifIXaaclsr5_PCCPE22_MoveConstructiblePairIT_T0_EEclsr5_PCCPE30_ImplicitlyMoveConvertiblePairIS7_S8_EEEbE4typeELb1EEEOS7_OS8_ = comdat any

$_ZNSt38__uninitialized_construct_buf_dispatchILb1EE5__ucrIPN6Assimp4D3DS10aiFloatKeyEN9__gnu_cxx17__normal_iteratorIS5_St6vectorIS4_SaIS4_EEEEEEvT_SC_T0_ = comdat any

$_ZSt16__insertion_sortIN9__gnu_cxx17__normal_iteratorIPN6Assimp4D3DS10aiFloatKeyESt6vectorIS4_SaIS4_EEEENS0_5__ops15_Iter_less_iterEEvT_SC_T0_ = comdat any

$_ZNK9__gnu_cxx17__normal_iteratorIPN6Assimp4D3DS10aiFloatKeyESt6vectorIS3_SaIS3_EEEplEl = comdat any

$_ZSt22__merge_without_bufferIN9__gnu_cxx17__normal_iteratorIPN6Assimp4D3DS10aiFloatKeyESt6vectorIS4_SaIS4_EEEElNS0_5__ops15_Iter_less_iterEEvT_SC_SC_T0_SD_T1_ = comdat any

$_ZN9__gnu_cxxneIPN6Assimp4D3DS10aiFloatKeyESt6vectorIS3_SaIS3_EEEEbRKNS_17__normal_iteratorIT_T0_EESD_ = comdat any

$_ZNK9__gnu_cxx5__ops15_Iter_less_iterclINS_17__normal_iteratorIPN6Assimp4D3DS10aiFloatKeyESt6vectorIS6_SaIS6_EEEESB_EEbT_T0_ = comdat any

$_ZSt13move_backwardIN9__gnu_cxx17__normal_iteratorIPN6Assimp4D3DS10aiFloatKeyESt6vectorIS4_SaIS4_EEEES9_ET0_T_SB_SA_ = comdat any

$_ZSt25__unguarded_linear_insertIN9__gnu_cxx17__normal_iteratorIPN6Assimp4D3DS10aiFloatKeyESt6vectorIS4_SaIS4_EEEENS0_5__ops14_Val_less_iterEEvT_T0_ = comdat any

$_ZN9__gnu_cxx17__normal_iteratorIPN6Assimp4D3DS10aiFloatKeyESt6vectorIS3_SaIS3_EEEppEv = comdat any

$_ZNK6Assimp4D3DS10aiFloatKeyltERKS1_ = comdat any

$_ZSt22__copy_move_backward_aILb1EN9__gnu_cxx17__normal_iteratorIPN6Assimp4D3DS10aiFloatKeyESt6vectorIS4_SaIS4_EEEES9_ET1_T0_SB_SA_ = comdat any

$_ZSt12__miter_baseIN9__gnu_cxx17__normal_iteratorIPN6Assimp4D3DS10aiFloatKeyESt6vectorIS4_SaIS4_EEEEET_SA_ = comdat any

$_ZSt12__niter_wrapIN9__gnu_cxx17__normal_iteratorIPN6Assimp4D3DS10aiFloatKeyESt6vectorIS4_SaIS4_EEEES5_ET_SA_T0_ = comdat any

$_ZSt23__copy_move_backward_a1ILb1EPN6Assimp4D3DS10aiFloatKeyES3_ET1_T0_S5_S4_ = comdat any

$_ZSt12__niter_baseIPN6Assimp4D3DS10aiFloatKeyESt6vectorIS2_SaIS2_EEET_N9__gnu_cxx17__normal_iteratorIS7_T0_EE = comdat any

$_ZSt23__copy_move_backward_a2ILb1EPN6Assimp4D3DS10aiFloatKeyES3_ET1_T0_S5_S4_ = comdat any

$_ZNSt20__copy_move_backwardILb1ELb1ESt26random_access_iterator_tagE13__copy_move_bIN6Assimp4D3DS10aiFloatKeyEEEPT_PKS6_S9_S7_ = comdat any

$_ZN9__gnu_cxx17__normal_iteratorIPN6Assimp4D3DS10aiFloatKeyESt6vectorIS3_SaIS3_EEEmmEv = comdat any

$_ZNK9__gnu_cxx5__ops14_Val_less_iterclIN6Assimp4D3DS10aiFloatKeyENS_17__normal_iteratorIPS5_St6vectorIS5_SaIS5_EEEEEEbRT_T0_ = comdat any

$_ZSt9iter_swapIN9__gnu_cxx17__normal_iteratorIPN6Assimp4D3DS10aiFloatKeyESt6vectorIS4_SaIS4_EEEES9_EvT_T0_ = comdat any

$_ZSt7advanceIN9__gnu_cxx17__normal_iteratorIPN6Assimp4D3DS10aiFloatKeyESt6vectorIS4_SaIS4_EEEElEvRT_T0_ = comdat any

$_ZSt13__lower_boundIN9__gnu_cxx17__normal_iteratorIPN6Assimp4D3DS10aiFloatKeyESt6vectorIS4_SaIS4_EEEES4_NS0_5__ops14_Iter_less_valEET_SC_SC_RKT0_T1_ = comdat any

$_ZSt8distanceIN9__gnu_cxx17__normal_iteratorIPN6Assimp4D3DS10aiFloatKeyESt6vectorIS4_SaIS4_EEEEENSt15iterator_traitsIT_E15difference_typeESB_SB_ = comdat any

$_ZSt13__upper_boundIN9__gnu_cxx17__normal_iteratorIPN6Assimp4D3DS10aiFloatKeyESt6vectorIS4_SaIS4_EEEES4_NS0_5__ops14_Val_less_iterEET_SC_SC_RKT0_T1_ = comdat any

$_ZNSt3_V26rotateIN9__gnu_cxx17__normal_iteratorIPN6Assimp4D3DS10aiFloatKeyESt6vectorIS5_SaIS5_EEEEEET_SB_SB_SB_ = comdat any

$_ZSt4swapIN6Assimp4D3DS10aiFloatKeyEENSt9enable_ifIXsr6__and_ISt6__not_ISt15__is_tuple_likeIT_EESt21is_move_constructibleIS6_ESt18is_move_assignableIS6_EEE5valueEvE4typeERS6_SF_ = comdat any

$_ZSt9__advanceIN9__gnu_cxx17__normal_iteratorIPN6Assimp4D3DS10aiFloatKeyESt6vectorIS4_SaIS4_EEEElEvRT_T0_St26random_access_iterator_tag = comdat any

$_ZSt19__iterator_categoryIN9__gnu_cxx17__normal_iteratorIPN6Assimp4D3DS10aiFloatKeyESt6vectorIS4_SaIS4_EEEEENSt15iterator_traitsIT_E17iterator_categoryERKSB_ = comdat any

$_ZN9__gnu_cxx17__normal_iteratorIPN6Assimp4D3DS10aiFloatKeyESt6vectorIS3_SaIS3_EEEpLEl = comdat any

$_ZNK9__gnu_cxx5__ops14_Iter_less_valclINS_17__normal_iteratorIPN6Assimp4D3DS10aiFloatKeyESt6vectorIS6_SaIS6_EEEEKS6_EEbT_RT0_ = comdat any

$_ZSt10__distanceIN9__gnu_cxx17__normal_iteratorIPN6Assimp4D3DS10aiFloatKeyESt6vectorIS4_SaIS4_EEEEENSt15iterator_traitsIT_E15difference_typeESB_SB_St26random_access_iterator_tag = comdat any

$_ZNK9__gnu_cxx5__ops14_Val_less_iterclIKN6Assimp4D3DS10aiFloatKeyENS_17__normal_iteratorIPS5_St6vectorIS5_SaIS5_EEEEEEbRT_T0_ = comdat any

$_ZNSt3_V28__rotateIN9__gnu_cxx17__normal_iteratorIPN6Assimp4D3DS10aiFloatKeyESt6vectorIS5_SaIS5_EEEEEET_SB_SB_SB_St26random_access_iterator_tag = comdat any

$_ZSt11swap_rangesIN9__gnu_cxx17__normal_iteratorIPN6Assimp4D3DS10aiFloatKeyESt6vectorIS4_SaIS4_EEEES9_ET0_T_SB_SA_ = comdat any

$_ZSt4moveIN9__gnu_cxx17__normal_iteratorIPN6Assimp4D3DS10aiFloatKeyESt6vectorIS4_SaIS4_EEEES9_ET0_T_SB_SA_ = comdat any

$_ZSt13__copy_move_aILb1EN9__gnu_cxx17__normal_iteratorIPN6Assimp4D3DS10aiFloatKeyESt6vectorIS4_SaIS4_EEEES9_ET1_T0_SB_SA_ = comdat any

$_ZSt14__copy_move_a1ILb1EPN6Assimp4D3DS10aiFloatKeyES3_ET1_T0_S5_S4_ = comdat any

$_ZSt14__copy_move_a2ILb1EPN6Assimp4D3DS10aiFloatKeyES3_ET1_T0_S5_S4_ = comdat any

$_ZNSt11__copy_moveILb1ELb1ESt26random_access_iterator_tagE8__copy_mIN6Assimp4D3DS10aiFloatKeyEEEPT_PKS6_S9_S7_ = comdat any

$_ZSt24__merge_sort_with_bufferIN9__gnu_cxx17__normal_iteratorIPN6Assimp4D3DS10aiFloatKeyESt6vectorIS4_SaIS4_EEEES5_NS0_5__ops15_Iter_less_iterEEvT_SC_T0_T1_ = comdat any

$_ZSt16__merge_adaptiveIN9__gnu_cxx17__normal_iteratorIPN6Assimp4D3DS10aiFloatKeyESt6vectorIS4_SaIS4_EEEElS5_NS0_5__ops15_Iter_less_iterEEvT_SC_SC_T0_SD_T1_SD_T2_ = comdat any

$_ZSt22__chunk_insertion_sortIN9__gnu_cxx17__normal_iteratorIPN6Assimp4D3DS10aiFloatKeyESt6vectorIS4_SaIS4_EEEElNS0_5__ops15_Iter_less_iterEEvT_SC_T0_T1_ = comdat any

$_ZSt17__merge_sort_loopIN9__gnu_cxx17__normal_iteratorIPN6Assimp4D3DS10aiFloatKeyESt6vectorIS4_SaIS4_EEEES5_lNS0_5__ops15_Iter_less_iterEEvT_SC_T0_T1_T2_ = comdat any

$_ZSt17__merge_sort_loopIPN6Assimp4D3DS10aiFloatKeyEN9__gnu_cxx17__normal_iteratorIS3_St6vectorIS2_SaIS2_EEEElNS4_5__ops15_Iter_less_iterEEvT_SC_T0_T1_T2_ = comdat any

$_ZSt12__move_mergeIN9__gnu_cxx17__normal_iteratorIPN6Assimp4D3DS10aiFloatKeyESt6vectorIS4_SaIS4_EEEES5_NS0_5__ops15_Iter_less_iterEET0_T_SD_SD_SD_SC_T1_ = comdat any

$_ZSt4moveIN9__gnu_cxx17__normal_iteratorIPN6Assimp4D3DS10aiFloatKeyESt6vectorIS4_SaIS4_EEEES5_ET0_T_SB_SA_ = comdat any

$_ZSt13__copy_move_aILb1EN9__gnu_cxx17__normal_iteratorIPN6Assimp4D3DS10aiFloatKeyESt6vectorIS4_SaIS4_EEEES5_ET1_T0_SB_SA_ = comdat any

$_ZSt12__niter_wrapIPN6Assimp4D3DS10aiFloatKeyEET_RKS4_S4_ = comdat any

$_ZSt12__move_mergeIPN6Assimp4D3DS10aiFloatKeyEN9__gnu_cxx17__normal_iteratorIS3_St6vectorIS2_SaIS2_EEEENS4_5__ops15_Iter_less_iterEET0_T_SD_SD_SD_SC_T1_ = comdat any

$_ZNK9__gnu_cxx5__ops15_Iter_less_iterclIPN6Assimp4D3DS10aiFloatKeyES6_EEbT_T0_ = comdat any

$_ZSt4moveIPN6Assimp4D3DS10aiFloatKeyEN9__gnu_cxx17__normal_iteratorIS3_St6vectorIS2_SaIS2_EEEEET0_T_SB_SA_ = comdat any

$_ZSt13__copy_move_aILb1EPN6Assimp4D3DS10aiFloatKeyEN9__gnu_cxx17__normal_iteratorIS3_St6vectorIS2_SaIS2_EEEEET1_T0_SB_SA_ = comdat any

$_ZSt12__miter_baseIPN6Assimp4D3DS10aiFloatKeyEET_S4_ = comdat any

$_ZSt21__move_merge_adaptiveIPN6Assimp4D3DS10aiFloatKeyEN9__gnu_cxx17__normal_iteratorIS3_St6vectorIS2_SaIS2_EEEES9_NS4_5__ops15_Iter_less_iterEEvT_SC_T0_SD_T1_T2_ = comdat any

$_ZSt30__move_merge_adaptive_backwardIN9__gnu_cxx17__normal_iteratorIPN6Assimp4D3DS10aiFloatKeyESt6vectorIS4_SaIS4_EEEES5_S9_NS0_5__ops15_Iter_less_iterEEvT_SC_T0_SD_T1_T2_ = comdat any

$_ZSt17__rotate_adaptiveIN9__gnu_cxx17__normal_iteratorIPN6Assimp4D3DS10aiFloatKeyESt6vectorIS4_SaIS4_EEEES5_lET_SA_SA_SA_T1_SB_T0_SB_ = comdat any

$_ZNK9__gnu_cxx5__ops15_Iter_less_iterclINS_17__normal_iteratorIPN6Assimp4D3DS10aiFloatKeyESt6vectorIS6_SaIS6_EEEES7_EEbT_T0_ = comdat any

$_ZSt13move_backwardIPN6Assimp4D3DS10aiFloatKeyEN9__gnu_cxx17__normal_iteratorIS3_St6vectorIS2_SaIS2_EEEEET0_T_SB_SA_ = comdat any

$_ZNK9__gnu_cxx5__ops15_Iter_less_iterclIPN6Assimp4D3DS10aiFloatKeyENS_17__normal_iteratorIS6_St6vectorIS5_SaIS5_EEEEEEbT_T0_ = comdat any

$_ZSt22__copy_move_backward_aILb1EPN6Assimp4D3DS10aiFloatKeyEN9__gnu_cxx17__normal_iteratorIS3_St6vectorIS2_SaIS2_EEEEET1_T0_SB_SA_ = comdat any

$_ZSt8__uniqueIN9__gnu_cxx17__normal_iteratorIPN6Assimp4D3DS10aiFloatKeyESt6vectorIS4_SaIS4_EEEENS0_5__ops15_Iter_comp_iterIPFbRKS4_SD_EEEET_SH_SH_T0_ = comdat any

$_ZN9__gnu_cxx5__ops16__iter_comp_iterIPFbRKN6Assimp4D3DS10aiFloatKeyES6_EEENS0_15_Iter_comp_iterIT_EESA_ = comdat any

$_ZSt15__adjacent_findIN9__gnu_cxx17__normal_iteratorIPN6Assimp4D3DS10aiFloatKeyESt6vectorIS4_SaIS4_EEEENS0_5__ops15_Iter_comp_iterIPFbRKS4_SD_EEEET_SH_SH_T0_ = comdat any

$_ZN9__gnu_cxx5__ops15_Iter_comp_iterIPFbRKN6Assimp4D3DS10aiFloatKeyES6_EEclINS_17__normal_iteratorIPS4_St6vectorIS4_SaIS4_EEEESG_EEbT_T0_ = comdat any

$_ZN9__gnu_cxx5__ops15_Iter_comp_iterIPFbRKN6Assimp4D3DS10aiFloatKeyES6_EEC2ES8_ = comdat any

$_ZNKSt6vectorIN6Assimp4D3DS10aiFloatKeyESaIS2_EE6cbeginEv = comdat any

$_ZNSt6vectorIN6Assimp4D3DS10aiFloatKeyESaIS2_EE8_M_eraseEN9__gnu_cxx17__normal_iteratorIPS2_S4_EES8_ = comdat any

$_ZN9__gnu_cxxmiIPKN6Assimp4D3DS10aiFloatKeyESt6vectorIS3_SaIS3_EEEENS_17__normal_iteratorIT_T0_E15difference_typeERKSC_SF_ = comdat any

$_ZNSt6vectorIN6Assimp4D3DS10aiFloatKeyESaIS2_EE15_M_erase_at_endEPS2_ = comdat any

$_ZN9__gnu_cxxeqIPK9aiQuatKeySt6vectorIS1_SaIS1_EEEEbRKNS_17__normal_iteratorIT_T0_EESC_ = comdat any

$_ZNKSt6vectorI9aiQuatKeySaIS0_EE5beginEv = comdat any

$_ZNKSt6vectorI9aiQuatKeySaIS0_EE3endEv = comdat any

$_ZNK9__gnu_cxx17__normal_iteratorIPK9aiQuatKeySt6vectorIS1_SaIS1_EEE4baseEv = comdat any

$_ZN9__gnu_cxx17__normal_iteratorIPK9aiQuatKeySt6vectorIS1_SaIS1_EEEC2ERKS3_ = comdat any

$_ZNK9__gnu_cxx17__normal_iteratorIP9aiQuatKeySt6vectorIS1_SaIS1_EEEmiEl = comdat any

$_ZNK9__gnu_cxx17__normal_iteratorIP9aiQuatKeySt6vectorIS1_SaIS1_EEEdeEv = comdat any

$_ZN9__gnu_cxx17__normal_iteratorIP9aiQuatKeySt6vectorIS1_SaIS1_EEEC2ERKS2_ = comdat any

$_ZNSt16allocator_traitsISaI9aiQuatKeyEE9constructIS0_JRKS0_EEEvRS1_PT_DpOT0_ = comdat any

$_ZNSt6vectorI9aiQuatKeySaIS0_EE17_M_realloc_insertIJRKS0_EEEvN9__gnu_cxx17__normal_iteratorIPS0_S2_EEDpOT_ = comdat any

$_ZNSt15__new_allocatorI9aiQuatKeyE9constructIS0_JRKS0_EEEvPT_DpOT0_ = comdat any

$_ZNKSt6vectorI9aiQuatKeySaIS0_EE12_M_check_lenEmPKc = comdat any

$_ZN9__gnu_cxxmiIP9aiQuatKeySt6vectorIS1_SaIS1_EEEENS_17__normal_iteratorIT_T0_E15difference_typeERKS9_SC_ = comdat any

$_ZNK9__gnu_cxx17__normal_iteratorIP9aiQuatKeySt6vectorIS1_SaIS1_EEE4baseEv = comdat any

$_ZSt13__stable_sortIN9__gnu_cxx17__normal_iteratorIP9aiQuatKeySt6vectorIS2_SaIS2_EEEENS0_5__ops15_Iter_less_iterEEvT_SA_T0_ = comdat any

$_ZN9__gnu_cxxeqIP9aiQuatKeySt6vectorIS1_SaIS1_EEEEbRKNS_17__normal_iteratorIT_T0_EESB_ = comdat any

$_ZNSt17_Temporary_bufferIN9__gnu_cxx17__normal_iteratorIP9aiQuatKeySt6vectorIS2_SaIS2_EEEES2_EC2ES7_l = comdat any

$_ZNSt17_Temporary_bufferIN9__gnu_cxx17__normal_iteratorIP9aiQuatKeySt6vectorIS2_SaIS2_EEEES2_E5beginEv = comdat any

$_ZSt21__inplace_stable_sortIN9__gnu_cxx17__normal_iteratorIP9aiQuatKeySt6vectorIS2_SaIS2_EEEENS0_5__ops15_Iter_less_iterEEvT_SA_T0_ = comdat any

$_ZSt22__stable_sort_adaptiveIN9__gnu_cxx17__normal_iteratorIP9aiQuatKeySt6vectorIS2_SaIS2_EEEES3_lNS0_5__ops15_Iter_less_iterEEvT_SA_T0_T1_T2_ = comdat any

$_ZNKSt17_Temporary_bufferIN9__gnu_cxx17__normal_iteratorIP9aiQuatKeySt6vectorIS2_SaIS2_EEEES2_E4sizeEv = comdat any

$_ZNSt17_Temporary_bufferIN9__gnu_cxx17__normal_iteratorIP9aiQuatKeySt6vectorIS2_SaIS2_EEEES2_ED2Ev = comdat any

$_ZSt20get_temporary_bufferI9aiQuatKeyESt4pairIPT_lEl = comdat any

$_ZSt29__uninitialized_construct_bufIP9aiQuatKeyN9__gnu_cxx17__normal_iteratorIS1_St6vectorIS0_SaIS0_EEEEEvT_S8_T0_ = comdat any

$_ZNSt8__detail25__return_temporary_bufferI9aiQuatKeyEEvPT_m = comdat any

$_ZNSt4pairIP9aiQuatKeylEC2IRS1_RlTnNSt9enable_ifIXaaclsr5_PCCPE22_MoveConstructiblePairIT_T0_EEclsr5_PCCPE30_ImplicitlyMoveConvertiblePairIS7_S8_EEEbE4typeELb1EEEOS7_OS8_ = comdat any

$_ZNSt4pairIP9aiQuatKeylEC2IS1_iTnNSt9enable_ifIXaaclsr5_PCCPE22_MoveConstructiblePairIT_T0_EEclsr5_PCCPE30_ImplicitlyMoveConvertiblePairIS5_S6_EEEbE4typeELb1EEEOS5_OS6_ = comdat any

$_ZNSt38__uninitialized_construct_buf_dispatchILb0EE5__ucrIP9aiQuatKeyN9__gnu_cxx17__normal_iteratorIS3_St6vectorIS2_SaIS2_EEEEEEvT_SA_T0_ = comdat any

$_ZSt10_ConstructI9aiQuatKeyJS0_EEvPT_DpOT0_ = comdat any

$_ZSt16__insertion_sortIN9__gnu_cxx17__normal_iteratorIP9aiQuatKeySt6vectorIS2_SaIS2_EEEENS0_5__ops15_Iter_less_iterEEvT_SA_T0_ = comdat any

$_ZNK9__gnu_cxx17__normal_iteratorIP9aiQuatKeySt6vectorIS1_SaIS1_EEEplEl = comdat any

$_ZSt22__merge_without_bufferIN9__gnu_cxx17__normal_iteratorIP9aiQuatKeySt6vectorIS2_SaIS2_EEEElNS0_5__ops15_Iter_less_iterEEvT_SA_SA_T0_SB_T1_ = comdat any

$_ZN9__gnu_cxxneIP9aiQuatKeySt6vectorIS1_SaIS1_EEEEbRKNS_17__normal_iteratorIT_T0_EESB_ = comdat any

$_ZNK9__gnu_cxx5__ops15_Iter_less_iterclINS_17__normal_iteratorIP9aiQuatKeySt6vectorIS4_SaIS4_EEEES9_EEbT_T0_ = comdat any

$_ZSt13move_backwardIN9__gnu_cxx17__normal_iteratorIP9aiQuatKeySt6vectorIS2_SaIS2_EEEES7_ET0_T_S9_S8_ = comdat any

$_ZSt25__unguarded_linear_insertIN9__gnu_cxx17__normal_iteratorIP9aiQuatKeySt6vectorIS2_SaIS2_EEEENS0_5__ops14_Val_less_iterEEvT_T0_ = comdat any

$_ZN9__gnu_cxx17__normal_iteratorIP9aiQuatKeySt6vectorIS1_SaIS1_EEEppEv = comdat any

$_ZNK9aiQuatKeyltERKS_ = comdat any

$_ZSt22__copy_move_backward_aILb1EN9__gnu_cxx17__normal_iteratorIP9aiQuatKeySt6vectorIS2_SaIS2_EEEES7_ET1_T0_S9_S8_ = comdat any

$_ZSt12__miter_baseIN9__gnu_cxx17__normal_iteratorIP9aiQuatKeySt6vectorIS2_SaIS2_EEEEET_S8_ = comdat any

$_ZSt12__niter_wrapIN9__gnu_cxx17__normal_iteratorIP9aiQuatKeySt6vectorIS2_SaIS2_EEEES3_ET_S8_T0_ = comdat any

$_ZSt23__copy_move_backward_a1ILb1EP9aiQuatKeyS1_ET1_T0_S3_S2_ = comdat any

$_ZSt12__niter_baseIP9aiQuatKeySt6vectorIS0_SaIS0_EEET_N9__gnu_cxx17__normal_iteratorIS5_T0_EE = comdat any

$_ZSt23__copy_move_backward_a2ILb1EP9aiQuatKeyS1_ET1_T0_S3_S2_ = comdat any

$_ZNSt20__copy_move_backwardILb1ELb1ESt26random_access_iterator_tagE13__copy_move_bI9aiQuatKeyEEPT_PKS4_S7_S5_ = comdat any

$_ZN9__gnu_cxx17__normal_iteratorIP9aiQuatKeySt6vectorIS1_SaIS1_EEEmmEv = comdat any

$_ZNK9__gnu_cxx5__ops14_Val_less_iterclI9aiQuatKeyNS_17__normal_iteratorIPS3_St6vectorIS3_SaIS3_EEEEEEbRT_T0_ = comdat any

$_ZSt9iter_swapIN9__gnu_cxx17__normal_iteratorIP9aiQuatKeySt6vectorIS2_SaIS2_EEEES7_EvT_T0_ = comdat any

$_ZSt7advanceIN9__gnu_cxx17__normal_iteratorIP9aiQuatKeySt6vectorIS2_SaIS2_EEEElEvRT_T0_ = comdat any

$_ZSt13__lower_boundIN9__gnu_cxx17__normal_iteratorIP9aiQuatKeySt6vectorIS2_SaIS2_EEEES2_NS0_5__ops14_Iter_less_valEET_SA_SA_RKT0_T1_ = comdat any

$_ZSt8distanceIN9__gnu_cxx17__normal_iteratorIP9aiQuatKeySt6vectorIS2_SaIS2_EEEEENSt15iterator_traitsIT_E15difference_typeES9_S9_ = comdat any

$_ZSt13__upper_boundIN9__gnu_cxx17__normal_iteratorIP9aiQuatKeySt6vectorIS2_SaIS2_EEEES2_NS0_5__ops14_Val_less_iterEET_SA_SA_RKT0_T1_ = comdat any

$_ZNSt3_V26rotateIN9__gnu_cxx17__normal_iteratorIP9aiQuatKeySt6vectorIS3_SaIS3_EEEEEET_S9_S9_S9_ = comdat any

$_ZSt4swapI9aiQuatKeyENSt9enable_ifIXsr6__and_ISt6__not_ISt15__is_tuple_likeIT_EESt21is_move_constructibleIS4_ESt18is_move_assignableIS4_EEE5valueEvE4typeERS4_SD_ = comdat any

$_ZSt9__advanceIN9__gnu_cxx17__normal_iteratorIP9aiQuatKeySt6vectorIS2_SaIS2_EEEElEvRT_T0_St26random_access_iterator_tag = comdat any

$_ZSt19__iterator_categoryIN9__gnu_cxx17__normal_iteratorIP9aiQuatKeySt6vectorIS2_SaIS2_EEEEENSt15iterator_traitsIT_E17iterator_categoryERKS9_ = comdat any

$_ZN9__gnu_cxx17__normal_iteratorIP9aiQuatKeySt6vectorIS1_SaIS1_EEEpLEl = comdat any

$_ZNK9__gnu_cxx5__ops14_Iter_less_valclINS_17__normal_iteratorIP9aiQuatKeySt6vectorIS4_SaIS4_EEEEKS4_EEbT_RT0_ = comdat any

$_ZSt10__distanceIN9__gnu_cxx17__normal_iteratorIP9aiQuatKeySt6vectorIS2_SaIS2_EEEEENSt15iterator_traitsIT_E15difference_typeES9_S9_St26random_access_iterator_tag = comdat any

$_ZNK9__gnu_cxx5__ops14_Val_less_iterclIK9aiQuatKeyNS_17__normal_iteratorIPS3_St6vectorIS3_SaIS3_EEEEEEbRT_T0_ = comdat any

$_ZNSt3_V28__rotateIN9__gnu_cxx17__normal_iteratorIP9aiQuatKeySt6vectorIS3_SaIS3_EEEEEET_S9_S9_S9_St26random_access_iterator_tag = comdat any

$_ZSt11swap_rangesIN9__gnu_cxx17__normal_iteratorIP9aiQuatKeySt6vectorIS2_SaIS2_EEEES7_ET0_T_S9_S8_ = comdat any

$_ZSt24__merge_sort_with_bufferIN9__gnu_cxx17__normal_iteratorIP9aiQuatKeySt6vectorIS2_SaIS2_EEEES3_NS0_5__ops15_Iter_less_iterEEvT_SA_T0_T1_ = comdat any

$_ZSt16__merge_adaptiveIN9__gnu_cxx17__normal_iteratorIP9aiQuatKeySt6vectorIS2_SaIS2_EEEElS3_NS0_5__ops15_Iter_less_iterEEvT_SA_SA_T0_SB_T1_SB_T2_ = comdat any

$_ZSt22__chunk_insertion_sortIN9__gnu_cxx17__normal_iteratorIP9aiQuatKeySt6vectorIS2_SaIS2_EEEElNS0_5__ops15_Iter_less_iterEEvT_SA_T0_T1_ = comdat any

$_ZSt17__merge_sort_loopIN9__gnu_cxx17__normal_iteratorIP9aiQuatKeySt6vectorIS2_SaIS2_EEEES3_lNS0_5__ops15_Iter_less_iterEEvT_SA_T0_T1_T2_ = comdat any

$_ZSt17__merge_sort_loopIP9aiQuatKeyN9__gnu_cxx17__normal_iteratorIS1_St6vectorIS0_SaIS0_EEEElNS2_5__ops15_Iter_less_iterEEvT_SA_T0_T1_T2_ = comdat any

$_ZSt12__move_mergeIN9__gnu_cxx17__normal_iteratorIP9aiQuatKeySt6vectorIS2_SaIS2_EEEES3_NS0_5__ops15_Iter_less_iterEET0_T_SB_SB_SB_SA_T1_ = comdat any

$_ZSt4moveIN9__gnu_cxx17__normal_iteratorIP9aiQuatKeySt6vectorIS2_SaIS2_EEEES3_ET0_T_S9_S8_ = comdat any

$_ZSt13__copy_move_aILb1EN9__gnu_cxx17__normal_iteratorIP9aiQuatKeySt6vectorIS2_SaIS2_EEEES3_ET1_T0_S9_S8_ = comdat any

$_ZSt12__niter_wrapIP9aiQuatKeyET_RKS2_S2_ = comdat any

$_ZSt14__copy_move_a1ILb1EP9aiQuatKeyS1_ET1_T0_S3_S2_ = comdat any

$_ZSt14__copy_move_a2ILb1EP9aiQuatKeyS1_ET1_T0_S3_S2_ = comdat any

$_ZNSt11__copy_moveILb1ELb1ESt26random_access_iterator_tagE8__copy_mI9aiQuatKeyEEPT_PKS4_S7_S5_ = comdat any

$_ZSt12__move_mergeIP9aiQuatKeyN9__gnu_cxx17__normal_iteratorIS1_St6vectorIS0_SaIS0_EEEENS2_5__ops15_Iter_less_iterEET0_T_SB_SB_SB_SA_T1_ = comdat any

$_ZNK9__gnu_cxx5__ops15_Iter_less_iterclIP9aiQuatKeyS4_EEbT_T0_ = comdat any

$_ZSt4moveIP9aiQuatKeyN9__gnu_cxx17__normal_iteratorIS1_St6vectorIS0_SaIS0_EEEEET0_T_S9_S8_ = comdat any

$_ZSt13__copy_move_aILb1EP9aiQuatKeyN9__gnu_cxx17__normal_iteratorIS1_St6vectorIS0_SaIS0_EEEEET1_T0_S9_S8_ = comdat any

$_ZSt12__miter_baseIP9aiQuatKeyET_S2_ = comdat any

$_ZSt21__move_merge_adaptiveIP9aiQuatKeyN9__gnu_cxx17__normal_iteratorIS1_St6vectorIS0_SaIS0_EEEES7_NS2_5__ops15_Iter_less_iterEEvT_SA_T0_SB_T1_T2_ = comdat any

$_ZSt30__move_merge_adaptive_backwardIN9__gnu_cxx17__normal_iteratorIP9aiQuatKeySt6vectorIS2_SaIS2_EEEES3_S7_NS0_5__ops15_Iter_less_iterEEvT_SA_T0_SB_T1_T2_ = comdat any

$_ZSt17__rotate_adaptiveIN9__gnu_cxx17__normal_iteratorIP9aiQuatKeySt6vectorIS2_SaIS2_EEEES3_lET_S8_S8_S8_T1_S9_T0_S9_ = comdat any

$_ZNK9__gnu_cxx5__ops15_Iter_less_iterclINS_17__normal_iteratorIP9aiQuatKeySt6vectorIS4_SaIS4_EEEES5_EEbT_T0_ = comdat any

$_ZSt13move_backwardIP9aiQuatKeyN9__gnu_cxx17__normal_iteratorIS1_St6vectorIS0_SaIS0_EEEEET0_T_S9_S8_ = comdat any

$_ZNK9__gnu_cxx5__ops15_Iter_less_iterclIP9aiQuatKeyNS_17__normal_iteratorIS4_St6vectorIS3_SaIS3_EEEEEEbT_T0_ = comdat any

$_ZSt22__copy_move_backward_aILb1EP9aiQuatKeyN9__gnu_cxx17__normal_iteratorIS1_St6vectorIS0_SaIS0_EEEEET1_T0_S9_S8_ = comdat any

$_ZSt4moveIN9__gnu_cxx17__normal_iteratorIP9aiQuatKeySt6vectorIS2_SaIS2_EEEES7_ET0_T_S9_S8_ = comdat any

$_ZSt13__copy_move_aILb1EN9__gnu_cxx17__normal_iteratorIP9aiQuatKeySt6vectorIS2_SaIS2_EEEES7_ET1_T0_S9_S8_ = comdat any

$_ZSt8__uniqueIN9__gnu_cxx17__normal_iteratorIP9aiQuatKeySt6vectorIS2_SaIS2_EEEENS0_5__ops15_Iter_comp_iterIPFbRKS2_SB_EEEET_SF_SF_T0_ = comdat any

$_ZN9__gnu_cxx5__ops16__iter_comp_iterIPFbRK9aiQuatKeyS4_EEENS0_15_Iter_comp_iterIT_EES8_ = comdat any

$_ZSt15__adjacent_findIN9__gnu_cxx17__normal_iteratorIP9aiQuatKeySt6vectorIS2_SaIS2_EEEENS0_5__ops15_Iter_comp_iterIPFbRKS2_SB_EEEET_SF_SF_T0_ = comdat any

$_ZN9__gnu_cxx5__ops15_Iter_comp_iterIPFbRK9aiQuatKeyS4_EEclINS_17__normal_iteratorIPS2_St6vectorIS2_SaIS2_EEEESE_EEbT_T0_ = comdat any

$_ZN9__gnu_cxx5__ops15_Iter_comp_iterIPFbRK9aiQuatKeyS4_EEC2ES6_ = comdat any

$_ZNKSt6vectorI9aiQuatKeySaIS0_EE6cbeginEv = comdat any

$_ZNSt6vectorI9aiQuatKeySaIS0_EE8_M_eraseEN9__gnu_cxx17__normal_iteratorIPS0_S2_EES6_ = comdat any

$_ZN9__gnu_cxxmiIPK9aiQuatKeySt6vectorIS1_SaIS1_EEEENS_17__normal_iteratorIT_T0_E15difference_typeERKSA_SD_ = comdat any

$_ZNSt6vectorI9aiQuatKeySaIS0_EE15_M_erase_at_endEPS0_ = comdat any

$_ZNK9__gnu_cxx17__normal_iteratorIPN6Assimp4D3DS4MeshESt6vectorIS3_SaIS3_EEEmiEl = comdat any

$_ZN9__gnu_cxx17__normal_iteratorIPN6Assimp4D3DS8MaterialESt6vectorIS3_SaIS3_EEEC2ERKS4_ = comdat any

$_ZNK9__gnu_cxx17__normal_iteratorIPKN6Assimp4D3DS8MaterialESt6vectorIS3_SaIS3_EEE4baseEv = comdat any

$_ZN6Assimp6Logger13formatMessageIJERPKcEENSt7__cxx1112basic_stringIcSt11char_traitsIcESaIcEEENS_9Formatter15basic_formatterIcS8_S9_EEOT0_DpOT_ = comdat any

$_ZN6Assimp9Formatter15basic_formatterIcSt11char_traitsIcESaIcEEC2IA24_cEERKT_ = comdat any

$_ZNSt6vectorI10aiVector3tIfESaIS1_EE17_M_realloc_insertIJRKS1_EEEvN9__gnu_cxx17__normal_iteratorIPS1_S3_EEDpOT_ = comdat any

$_ZNKSt6vectorIN6Assimp4D3DS4FaceESaIS2_EE8max_sizeEv = comdat any

$_ZNKSt6vectorIN6Assimp4D3DS4FaceESaIS2_EE8capacityEv = comdat any

$_ZNSt12_Vector_baseIN6Assimp4D3DS4FaceESaIS2_EE11_M_allocateEm = comdat any

$_ZNSt6vectorIN6Assimp4D3DS4FaceESaIS2_EE11_S_relocateEPS2_S5_S5_RS3_ = comdat any

$_ZNSt6vectorIN6Assimp4D3DS4FaceESaIS2_EE11_S_max_sizeERKS3_ = comdat any

$_ZNKSt12_Vector_baseIN6Assimp4D3DS4FaceESaIS2_EE19_M_get_Tp_allocatorEv = comdat any

$_ZNSt16allocator_traitsISaIN6Assimp4D3DS4FaceEEE8max_sizeERKS3_ = comdat any

$_ZNKSt15__new_allocatorIN6Assimp4D3DS4FaceEE8max_sizeEv = comdat any

$_ZNKSt15__new_allocatorIN6Assimp4D3DS4FaceEE11_M_max_sizeEv = comdat any

$_ZNSt16allocator_traitsISaIN6Assimp4D3DS4FaceEEE8allocateERS3_m = comdat any

$_ZNSt15__new_allocatorIN6Assimp4D3DS4FaceEE8allocateEmPKv = comdat any

$_ZSt12__relocate_aIPN6Assimp4D3DS4FaceES3_SaIS2_EET0_T_S6_S5_RT1_ = comdat any

$_ZSt14__relocate_a_1IPN6Assimp4D3DS4FaceES3_SaIS2_EET0_T_S6_S5_RT1_ = comdat any

$_ZSt12__niter_baseIPN6Assimp4D3DS4FaceEET_S4_ = comdat any

$_ZSt19__relocate_object_aIN6Assimp4D3DS4FaceES2_SaIS2_EEvPT_PT0_RT1_ = comdat any

$_ZNSt16allocator_traitsISaIN6Assimp4D3DS4FaceEEE9constructIS2_JS2_EEEvRS3_PT_DpOT0_ = comdat any

$_ZNSt16allocator_traitsISaIN6Assimp4D3DS4FaceEEE7destroyIS2_EEvRS3_PT_ = comdat any

$_ZNSt15__new_allocatorIN6Assimp4D3DS4FaceEE9constructIS2_JS2_EEEvPT_DpOT0_ = comdat any

$_ZNSt15__new_allocatorIN6Assimp4D3DS4FaceEE7destroyIS2_EEvPT_ = comdat any

$_ZNSt16allocator_traitsISaIN6Assimp4D3DS4FaceEEE9constructIS2_JEEEvRS3_PT_DpOT0_ = comdat any

$_ZNSt6vectorIN6Assimp4D3DS4FaceESaIS2_EE17_M_realloc_insertIJEEEvN9__gnu_cxx17__normal_iteratorIPS2_S4_EEDpOT_ = comdat any

$_ZNSt15__new_allocatorIN6Assimp4D3DS4FaceEE9constructIS2_JEEEvPT_DpOT0_ = comdat any

$_ZN6Assimp4D3DS4FaceC2Ev = comdat any

$_ZN22FaceWithSmoothingGroupC2Ev = comdat any

$_ZNKSt6vectorIN6Assimp4D3DS4FaceESaIS2_EE12_M_check_lenEmPKc = comdat any

$_ZN9__gnu_cxxmiIPN6Assimp4D3DS4FaceESt6vectorIS3_SaIS3_EEEENS_17__normal_iteratorIT_T0_E15difference_typeERKSB_SE_ = comdat any

$_ZNK9__gnu_cxx17__normal_iteratorIPN6Assimp4D3DS4FaceESt6vectorIS3_SaIS3_EEEmiEl = comdat any

$_ZNSt6vectorIjSaIjEE14_M_fill_insertEN9__gnu_cxx17__normal_iteratorIPjS1_EEmRKj = comdat any

$_ZNSt6vectorIjSaIjEE15_M_erase_at_endEPj = comdat any

$_ZNSt6vectorIjSaIjEE16_Temporary_valueC2IJRKjEEEPS1_DpOT_ = comdat any

$_ZNSt6vectorIjSaIjEE16_Temporary_value6_M_valEv = comdat any

$_ZN9__gnu_cxxmiIPjSt6vectorIjSaIjEEEENS_17__normal_iteratorIT_T0_E15difference_typeERKS8_SB_ = comdat any

$_ZSt22__uninitialized_move_aIPjS0_SaIjEET0_T_S3_S2_RT1_ = comdat any

$_ZSt13move_backwardIPjS0_ET0_T_S2_S1_ = comdat any

$_ZSt4fillIPjjEvT_S1_RKT0_ = comdat any

$_ZSt24__uninitialized_fill_n_aIPjmjjET_S1_T0_RKT1_RSaIT2_E = comdat any

$_ZNSt6vectorIjSaIjEE16_Temporary_valueD2Ev = comdat any

$_ZNKSt6vectorIjSaIjEE12_M_check_lenEmPKc = comdat any

$_ZNSt12_Vector_baseIjSaIjEE11_M_allocateEm = comdat any

$_ZSt34__uninitialized_move_if_noexcept_aIPjS0_SaIjEET0_T_S3_S2_RT1_ = comdat any

$_ZNSt6vectorIjSaIjEE16_Temporary_value8_StorageC2Ev = comdat any

$_ZNSt16allocator_traitsISaIjEE9constructIjJRKjEEEvRS0_PT_DpOT0_ = comdat any

$_ZNSt6vectorIjSaIjEE16_Temporary_value6_M_ptrEv = comdat any

$_ZNSt15__new_allocatorIjE9constructIjJRKjEEEvPT_DpOT0_ = comdat any

$_ZSt22__uninitialized_copy_aISt13move_iteratorIPjES1_jET0_T_S4_S3_RSaIT1_E = comdat any

$_ZSt18make_move_iteratorIPjESt13move_iteratorIT_ES2_ = comdat any

$_ZSt18uninitialized_copyISt13move_iteratorIPjES1_ET0_T_S4_S3_ = comdat any

$_ZNSt20__uninitialized_copyILb1EE13__uninit_copyISt13move_iteratorIPjES3_EET0_T_S6_S5_ = comdat any

$_ZSt4copyISt13move_iteratorIPjES1_ET0_T_S4_S3_ = comdat any

$_ZSt13__copy_move_aILb1EPjS0_ET1_T0_S2_S1_ = comdat any

$_ZSt12__miter_baseIPjEDTcl12__miter_basecldtfp_4baseEEESt13move_iteratorIT_E = comdat any

$_ZSt12__niter_wrapIPjET_RKS1_S1_ = comdat any

$_ZSt14__copy_move_a1ILb1EPjS0_ET1_T0_S2_S1_ = comdat any

$_ZSt12__niter_baseIPjET_S1_ = comdat any

$_ZSt14__copy_move_a2ILb1EPjS0_ET1_T0_S2_S1_ = comdat any

$_ZNSt11__copy_moveILb1ELb1ESt26random_access_iterator_tagE8__copy_mIjEEPT_PKS3_S6_S4_ = comdat any

$_ZSt12__miter_baseIPjET_S1_ = comdat any

$_ZNKSt13move_iteratorIPjE4baseEv = comdat any

$_ZNSt13move_iteratorIPjEC2ES0_ = comdat any

$_ZSt22__copy_move_backward_aILb1EPjS0_ET1_T0_S2_S1_ = comdat any

$_ZSt23__copy_move_backward_a1ILb1EPjS0_ET1_T0_S2_S1_ = comdat any

$_ZSt23__copy_move_backward_a2ILb1EPjS0_ET1_T0_S2_S1_ = comdat any

$_ZNSt20__copy_move_backwardILb1ELb1ESt26random_access_iterator_tagE13__copy_move_bIjEEPT_PKS3_S6_S4_ = comdat any

$_ZSt8__fill_aIPjjEvT_S1_RKT0_ = comdat any

$_ZSt9__fill_a1IPjjEN9__gnu_cxx11__enable_ifIXsr11__is_scalarIT0_EE7__valueEvE6__typeET_S6_RKS3_ = comdat any

$_ZSt20uninitialized_fill_nIPjmjET_S1_T0_RKT1_ = comdat any

$_ZNSt22__uninitialized_fill_nILb1EE15__uninit_fill_nIPjmjEET_S3_T0_RKT1_ = comdat any

$_ZSt6fill_nIPjmjET_S1_T0_RKT1_ = comdat any

$_ZSt10__fill_n_aIPjmjET_S1_T0_RKT1_St26random_access_iterator_tag = comdat any

$_ZSt17__size_to_integerm = comdat any

$_ZSt19__iterator_categoryIPjENSt15iterator_traitsIT_E17iterator_categoryERKS2_ = comdat any

$_ZNSt16allocator_traitsISaIjEE7destroyIjEEvRS0_PT_ = comdat any

$_ZNSt6vectorIjSaIjEE16_Temporary_value8_StorageD2Ev = comdat any

$_ZNSt15__new_allocatorIjE7destroyIjEEvPT_ = comdat any

$_ZNKSt6vectorIjSaIjEE8max_sizeEv = comdat any

$_ZNSt6vectorIjSaIjEE11_S_max_sizeERKS0_ = comdat any

$_ZNKSt12_Vector_baseIjSaIjEE19_M_get_Tp_allocatorEv = comdat any

$_ZNSt16allocator_traitsISaIjEE8max_sizeERKS0_ = comdat any

$_ZNKSt15__new_allocatorIjE8max_sizeEv = comdat any

$_ZNKSt15__new_allocatorIjE11_M_max_sizeEv = comdat any

$_ZNSt16allocator_traitsISaIjEE8allocateERS0_m = comdat any

$_ZNSt15__new_allocatorIjE8allocateEmPKv = comdat any

$_ZSt32__make_move_if_noexcept_iteratorIjSt13move_iteratorIPjEET0_PT_ = comdat any

$_ZNK9__gnu_cxx17__normal_iteratorIPN6Assimp4D3DS8MaterialESt6vectorIS3_SaIS3_EEEmiEl = comdat any

$_ZNK9__gnu_cxx17__normal_iteratorIPN6Assimp4D3DS8MaterialESt6vectorIS3_SaIS3_EEEdeEv = comdat any

$_ZN6Assimp12StreamReaderILb0ELb0EE3GetIdEET_v = comdat any

$_ZN6Assimp6Intern6GetterILb0EdLb0EEclEPdb = comdat any

$_ZN6Assimp6Intern11ByteSwapperIdLb0EEclEPd = comdat any

$_ZTVN6Assimp8IOSystemE = comdat any

$_ZTS17DeadlyImportError = comdat any

$_ZTS15DeadlyErrorBase = comdat any

$_ZTI15DeadlyErrorBase = comdat any

$_ZTI17DeadlyImportError = comdat any

$_ZTVN6Assimp8IOStreamE = comdat any

$_ZTSN6Assimp8IOStreamE = comdat any

$_ZTSN6Assimp6Intern22AllocateFromAssimpHeapE = comdat any

$_ZTIN6Assimp6Intern22AllocateFromAssimpHeapE = comdat any

$_ZTIN6Assimp8IOStreamE = comdat any

$_ZTVN6Assimp9LogStreamE = comdat any

$_ZTSN6Assimp9LogStreamE = comdat any

$_ZTIN6Assimp9LogStreamE = comdat any

$_ZTVN6Assimp6LoggerE = comdat any

$_ZTSN6Assimp6LoggerE = comdat any

$_ZTIN6Assimp6LoggerE = comdat any

$_ZTSN6Assimp8IOSystemE = comdat any

$_ZTIN6Assimp8IOSystemE = comdat any

$_ZTV17DeadlyImportError = comdat any

$_ZTVSt15_Sp_counted_ptrIPN6Assimp8IOStreamELN9__gnu_cxx12_Lock_policyE2EE = comdat any

$_ZTSSt15_Sp_counted_ptrIPN6Assimp8IOStreamELN9__gnu_cxx12_Lock_policyE2EE = comdat any

$_ZTSSt16_Sp_counted_baseILN9__gnu_cxx12_Lock_policyE2EE = comdat any

$_ZTSSt11_Mutex_baseILN9__gnu_cxx12_Lock_policyE2EE = comdat any

$_ZTISt11_Mutex_baseILN9__gnu_cxx12_Lock_policyE2EE = comdat any

$_ZTISt16_Sp_counted_baseILN9__gnu_cxx12_Lock_policyE2EE = comdat any

$_ZTISt15_Sp_counted_ptrIPN6Assimp8IOStreamELN9__gnu_cxx12_Lock_policyE2EE = comdat any

$_ZTVSt16_Sp_counted_baseILN9__gnu_cxx12_Lock_policyE2EE = comdat any

$_ZTVN6Assimp4D3DS8MaterialE = comdat any

$_ZTSN6Assimp4D3DS8MaterialE = comdat any

$_ZTIN6Assimp4D3DS8MaterialE = comdat any

@_ZTVN6Assimp8IOSystemE = linkonce_odr unnamed_addr constant { [16 x ptr] } { [16 x ptr] [ptr null, ptr @_ZTIN6Assimp8IOSystemE, ptr @_ZN6Assimp8IOSystemD2Ev, ptr @_ZN6Assimp8IOSystemD0Ev, ptr @__cxa_pure_virtual, ptr @__cxa_pure_virtual, ptr @__cxa_pure_virtual, ptr @__cxa_pure_virtual, ptr @_ZNK6Assimp8IOSystem12ComparePathsEPKcS2_, ptr @_ZN6Assimp8IOSystem13PushDirectoryERKNSt7__cxx1112basic_stringIcSt11char_traitsIcESaIcEEE, ptr @_ZNK6Assimp8IOSystem16CurrentDirectoryB5cxx11Ev, ptr @_ZNK6Assimp8IOSystem9StackSizeEv, ptr @_ZN6Assimp8IOSystem12PopDirectoryEv, ptr @_ZN6Assimp8IOSystem15CreateDirectoryERKNSt7__cxx1112basic_stringIcSt11char_traitsIcESaIcEEE, ptr @_ZN6Assimp8IOSystem15ChangeDirectoryERKNSt7__cxx1112basic_stringIcSt11char_traitsIcESaIcEEE, ptr @_ZN6Assimp8IOSystem10DeleteFileERKNSt7__cxx1112basic_stringIcSt11char_traitsIcESaIcEEE] }, comdat, align 8
@_ZTVN6Assimp19Discreet3DSImporterE = hidden unnamed_addr constant { [8 x ptr] } { [8 x ptr] [ptr null, ptr @_ZTIN6Assimp19Discreet3DSImporterE, ptr @_ZN6Assimp19Discreet3DSImporterD2Ev, ptr @_ZN6Assimp19Discreet3DSImporterD0Ev, ptr @_ZNK6Assimp19Discreet3DSImporter7CanReadERKNSt7__cxx1112basic_stringIcSt11char_traitsIcESaIcEEEPNS_8IOSystemEb, ptr @_ZN6Assimp19Discreet3DSImporter15SetupPropertiesEPKNS_8ImporterE, ptr @_ZNK6Assimp19Discreet3DSImporter7GetInfoEv, ptr @_ZN6Assimp19Discreet3DSImporter14InternReadFileERKNSt7__cxx1112basic_stringIcSt11char_traitsIcESaIcEEEP7aiScenePNS_8IOSystemE] }, align 8
@_ZZNK6Assimp19Discreet3DSImporter7CanReadERKNSt7__cxx1112basic_stringIcSt11char_traitsIcESaIcEEEPNS_8IOSystemEbE5token = internal constant [2 x i16] [i16 19789, i16 15810], align 2
@_ZN6AssimpL4descE = internal constant %struct.aiImporterDesc { ptr @.str.26, ptr @.str.27, ptr @.str.27, ptr @.str.28, i32 2, i32 0, i32 0, i32 0, i32 0, ptr @.str.29 }, align 8
@.str = private unnamed_addr constant [3 x i8] c"rb\00", align 1
@.str.1 = private unnamed_addr constant [21 x i8] c"3DS: Could not open \00", align 1
@_ZTVN10__cxxabiv120__si_class_type_infoE = external global [0 x ptr]
@_ZTS17DeadlyImportError = linkonce_odr constant [20 x i8] c"17DeadlyImportError\00", comdat, align 1
@_ZTS15DeadlyErrorBase = linkonce_odr constant [18 x i8] c"15DeadlyErrorBase\00", comdat, align 1
@_ZTISt13runtime_error = external constant ptr
@_ZTI15DeadlyErrorBase = linkonce_odr constant { ptr, ptr, ptr } { ptr getelementptr inbounds (ptr, ptr @_ZTVN10__cxxabiv120__si_class_type_infoE, i64 2), ptr @_ZTS15DeadlyErrorBase, ptr @_ZTISt13runtime_error }, comdat, align 8
@_ZTI17DeadlyImportError = linkonce_odr constant { ptr, ptr, ptr } { ptr getelementptr inbounds (ptr, ptr @_ZTVN10__cxxabiv120__si_class_type_infoE, i64 2), ptr @_ZTS17DeadlyImportError, ptr @_ZTI15DeadlyErrorBase }, comdat, align 8
@.str.2 = private unnamed_addr constant [38 x i8] c"3DS file is either empty or corrupt: \00", align 1
@.str.3 = private unnamed_addr constant [8 x i8] c"UNNAMED\00", align 1
@.str.4 = private unnamed_addr constant [42 x i8] c"3DS file contains faces but no vertices: \00", align 1
@.str.5 = private unnamed_addr constant [19 x i8] c"Chunk is too large\00", align 1
@.str.6 = private unnamed_addr constant [20 x i8] c"3DS: Chunk overflow\00", align 1
@.str.7 = private unnamed_addr constant [26 x i8] c"3DS file format version: \00", align 1
@.str.8 = private unnamed_addr constant [9 x i8] c"UNNAMED_\00", align 1
@.str.9 = private unnamed_addr constant [39 x i8] c"3DS: Failed to read ambient base color\00", align 1
@.str.10 = private unnamed_addr constant [49 x i8] c"3DS: Unable to read proper camera look-at vector\00", align 1
@.str.11 = private unnamed_addr constant [33 x i8] c"3DS: Skipping TCB animation info\00", align 1
@.str.12 = private unnamed_addr constant [9 x i8] c"$$$DUMMY\00", align 1
@.str.13 = private unnamed_addr constant [50 x i8] c"3DS: Skipping pivot subchunk for non usual object\00", align 1
@.str.14 = private unnamed_addr constant [47 x i8] c"3DS: Ignoring roll track for non-camera object\00", align 1
@.str.15 = private unnamed_addr constant [57 x i8] c"3DS: Skipping FOV animation track. This is not supported\00", align 1
@.str.16 = private unnamed_addr constant [38 x i8] c"3DS: More smoothing groups than faces\00", align 1
@.str.17 = private unnamed_addr constant [24 x i8] c"3DS: Unknown material: \00", align 1
@.str.18 = private unnamed_addr constant [46 x i8] c"3DS: Invalid face index in face material list\00", align 1
@.str.19 = private unnamed_addr constant [25 x i8] c"3DS: Empty material name\00", align 1
@.str.20 = private unnamed_addr constant [34 x i8] c"3DS: Unable to read DIFFUSE chunk\00", align 1
@.str.21 = private unnamed_addr constant [35 x i8] c"3DS: Unable to read SPECULAR chunk\00", align 1
@.str.22 = private unnamed_addr constant [34 x i8] c"3DS: Unable to read AMBIENT chunk\00", align 1
@.str.23 = private unnamed_addr constant [35 x i8] c"3DS: Unable to read EMISSIVE chunk\00", align 1
@.str.24 = private unnamed_addr constant [67 x i8] c"Texture coordinate scaling in the x direction is zero. Assuming 1.\00", align 1
@.str.25 = private unnamed_addr constant [67 x i8] c"Texture coordinate scaling in the y direction is zero. Assuming 1.\00", align 1
@_ZZN6Assimp19Discreet3DSImporter15ParseColorChunkEP9aiColor3DbE8clrError = internal global %struct.aiColor3D zeroinitializer, align 4
@_ZGVZN6Assimp19Discreet3DSImporter15ParseColorChunkEP9aiColor3DbE8clrError = internal global i64 0, align 8
@_ZTVN6Assimp8IOStreamE = linkonce_odr unnamed_addr constant { [10 x ptr] } { [10 x ptr] [ptr null, ptr @_ZTIN6Assimp8IOStreamE, ptr @_ZN6Assimp8IOStreamD2Ev, ptr @_ZN6Assimp8IOStreamD0Ev, ptr @__cxa_pure_virtual, ptr @__cxa_pure_virtual, ptr @__cxa_pure_virtual, ptr @__cxa_pure_virtual, ptr @__cxa_pure_virtual, ptr @__cxa_pure_virtual] }, comdat, align 8
@_ZTSN6Assimp8IOStreamE = linkonce_odr constant [19 x i8] c"N6Assimp8IOStreamE\00", comdat, align 1
@_ZTVN10__cxxabiv117__class_type_infoE = external global [0 x ptr]
@_ZTSN6Assimp6Intern22AllocateFromAssimpHeapE = linkonce_odr constant [41 x i8] c"N6Assimp6Intern22AllocateFromAssimpHeapE\00", comdat, align 1
@_ZTIN6Assimp6Intern22AllocateFromAssimpHeapE = linkonce_odr constant { ptr, ptr } { ptr getelementptr inbounds (ptr, ptr @_ZTVN10__cxxabiv117__class_type_infoE, i64 2), ptr @_ZTSN6Assimp6Intern22AllocateFromAssimpHeapE }, comdat, align 8
@_ZTIN6Assimp8IOStreamE = linkonce_odr constant { ptr, ptr, ptr } { ptr getelementptr inbounds (ptr, ptr @_ZTVN10__cxxabiv120__si_class_type_infoE, i64 2), ptr @_ZTSN6Assimp8IOStreamE, ptr @_ZTIN6Assimp6Intern22AllocateFromAssimpHeapE }, comdat, align 8
@_ZTVN6Assimp9LogStreamE = linkonce_odr unnamed_addr constant { [5 x ptr] } { [5 x ptr] [ptr null, ptr @_ZTIN6Assimp9LogStreamE, ptr @_ZN6Assimp9LogStreamD2Ev, ptr @_ZN6Assimp9LogStreamD0Ev, ptr @__cxa_pure_virtual] }, comdat, align 8
@_ZTSN6Assimp9LogStreamE = linkonce_odr constant [20 x i8] c"N6Assimp9LogStreamE\00", comdat, align 1
@_ZTIN6Assimp9LogStreamE = linkonce_odr constant { ptr, ptr, ptr } { ptr getelementptr inbounds (ptr, ptr @_ZTVN10__cxxabiv120__si_class_type_infoE, i64 2), ptr @_ZTSN6Assimp9LogStreamE, ptr @_ZTIN6Assimp6Intern22AllocateFromAssimpHeapE }, comdat, align 8
@_ZTVN6Assimp6LoggerE = linkonce_odr unnamed_addr constant { [11 x ptr] } { [11 x ptr] [ptr null, ptr @_ZTIN6Assimp6LoggerE, ptr @_ZN6Assimp6LoggerD2Ev, ptr @_ZN6Assimp6LoggerD0Ev, ptr @__cxa_pure_virtual, ptr @__cxa_pure_virtual, ptr @__cxa_pure_virtual, ptr @__cxa_pure_virtual, ptr @__cxa_pure_virtual, ptr @__cxa_pure_virtual, ptr @__cxa_pure_virtual] }, comdat, align 8
@_ZTSN6Assimp6LoggerE = linkonce_odr constant [17 x i8] c"N6Assimp6LoggerE\00", comdat, align 1
@_ZTIN6Assimp6LoggerE = linkonce_odr constant { ptr, ptr, ptr } { ptr getelementptr inbounds (ptr, ptr @_ZTVN10__cxxabiv120__si_class_type_infoE, i64 2), ptr @_ZTSN6Assimp6LoggerE, ptr @_ZTIN6Assimp6Intern22AllocateFromAssimpHeapE }, comdat, align 8
@_ZTSN6Assimp8IOSystemE = linkonce_odr constant [19 x i8] c"N6Assimp8IOSystemE\00", comdat, align 1
@_ZTIN6Assimp8IOSystemE = linkonce_odr constant { ptr, ptr, ptr } { ptr getelementptr inbounds (ptr, ptr @_ZTVN10__cxxabiv120__si_class_type_infoE, i64 2), ptr @_ZTSN6Assimp8IOSystemE, ptr @_ZTIN6Assimp6Intern22AllocateFromAssimpHeapE }, comdat, align 8
@_ZTSN6Assimp19Discreet3DSImporterE = hidden constant [31 x i8] c"N6Assimp19Discreet3DSImporterE\00", align 1
@_ZTIN6Assimp12BaseImporterE = external constant ptr
@_ZTIN6Assimp19Discreet3DSImporterE = hidden constant { ptr, ptr, ptr } { ptr getelementptr inbounds (ptr, ptr @_ZTVN10__cxxabiv120__si_class_type_infoE, i64 2), ptr @_ZTSN6Assimp19Discreet3DSImporterE, ptr @_ZTIN6Assimp12BaseImporterE }, align 8
@.str.26 = private unnamed_addr constant [22 x i8] c"Discreet 3DS Importer\00", align 1
@.str.27 = private unnamed_addr constant [1 x i8] zeroinitializer, align 1
@.str.28 = private unnamed_addr constant [26 x i8] c"Limited animation support\00", align 1
@.str.29 = private unnamed_addr constant [8 x i8] c"3ds prj\00", align 1
@_ZTV17DeadlyImportError = linkonce_odr unnamed_addr constant { [5 x ptr] } { [5 x ptr] [ptr null, ptr @_ZTI17DeadlyImportError, ptr @_ZN17DeadlyImportErrorD2Ev, ptr @_ZN17DeadlyImportErrorD0Ev, ptr @_ZNKSt13runtime_error4whatEv] }, comdat, align 8
@.str.30 = private unnamed_addr constant [26 x i8] c"vector::_M_realloc_insert\00", align 1
@.str.31 = private unnamed_addr constant [16 x i8] c"vector::reserve\00", align 1
@.str.32 = private unnamed_addr constant [50 x i8] c"basic_string: construction from null is not valid\00", align 1
@_ZTVSt15_Sp_counted_ptrIPN6Assimp8IOStreamELN9__gnu_cxx12_Lock_policyE2EE = linkonce_odr unnamed_addr constant { [7 x ptr] } { [7 x ptr] [ptr null, ptr @_ZTISt15_Sp_counted_ptrIPN6Assimp8IOStreamELN9__gnu_cxx12_Lock_policyE2EE, ptr @_ZNSt15_Sp_counted_ptrIPN6Assimp8IOStreamELN9__gnu_cxx12_Lock_policyE2EED2Ev, ptr @_ZNSt15_Sp_counted_ptrIPN6Assimp8IOStreamELN9__gnu_cxx12_Lock_policyE2EED0Ev, ptr @_ZNSt15_Sp_counted_ptrIPN6Assimp8IOStreamELN9__gnu_cxx12_Lock_policyE2EE10_M_disposeEv, ptr @_ZNSt15_Sp_counted_ptrIPN6Assimp8IOStreamELN9__gnu_cxx12_Lock_policyE2EE10_M_destroyEv, ptr @_ZNSt15_Sp_counted_ptrIPN6Assimp8IOStreamELN9__gnu_cxx12_Lock_policyE2EE14_M_get_deleterERKSt9type_info] }, comdat, align 8
@_ZTSSt15_Sp_counted_ptrIPN6Assimp8IOStreamELN9__gnu_cxx12_Lock_policyE2EE = linkonce_odr constant [70 x i8] c"St15_Sp_counted_ptrIPN6Assimp8IOStreamELN9__gnu_cxx12_Lock_policyE2EE\00", comdat, align 1
@_ZTSSt16_Sp_counted_baseILN9__gnu_cxx12_Lock_policyE2EE = linkonce_odr constant [52 x i8] c"St16_Sp_counted_baseILN9__gnu_cxx12_Lock_policyE2EE\00", comdat, align 1
@_ZTSSt11_Mutex_baseILN9__gnu_cxx12_Lock_policyE2EE = linkonce_odr constant [47 x i8] c"St11_Mutex_baseILN9__gnu_cxx12_Lock_policyE2EE\00", comdat, align 1
@_ZTISt11_Mutex_baseILN9__gnu_cxx12_Lock_policyE2EE = linkonce_odr constant { ptr, ptr } { ptr getelementptr inbounds (ptr, ptr @_ZTVN10__cxxabiv117__class_type_infoE, i64 2), ptr @_ZTSSt11_Mutex_baseILN9__gnu_cxx12_Lock_policyE2EE }, comdat, align 8
@_ZTISt16_Sp_counted_baseILN9__gnu_cxx12_Lock_policyE2EE = linkonce_odr constant { ptr, ptr, ptr } { ptr getelementptr inbounds (ptr, ptr @_ZTVN10__cxxabiv120__si_class_type_infoE, i64 2), ptr @_ZTSSt16_Sp_counted_baseILN9__gnu_cxx12_Lock_policyE2EE, ptr @_ZTISt11_Mutex_baseILN9__gnu_cxx12_Lock_policyE2EE }, comdat, align 8
@_ZTISt15_Sp_counted_ptrIPN6Assimp8IOStreamELN9__gnu_cxx12_Lock_policyE2EE = linkonce_odr constant { ptr, ptr, ptr } { ptr getelementptr inbounds (ptr, ptr @_ZTVN10__cxxabiv120__si_class_type_infoE, i64 2), ptr @_ZTSSt15_Sp_counted_ptrIPN6Assimp8IOStreamELN9__gnu_cxx12_Lock_policyE2EE, ptr @_ZTISt16_Sp_counted_baseILN9__gnu_cxx12_Lock_policyE2EE }, comdat, align 8
@_ZTVSt16_Sp_counted_baseILN9__gnu_cxx12_Lock_policyE2EE = linkonce_odr unnamed_addr constant { [7 x ptr] } { [7 x ptr] [ptr null, ptr @_ZTISt16_Sp_counted_baseILN9__gnu_cxx12_Lock_policyE2EE, ptr @_ZNSt16_Sp_counted_baseILN9__gnu_cxx12_Lock_policyE2EED2Ev, ptr @_ZNSt16_Sp_counted_baseILN9__gnu_cxx12_Lock_policyE2EED0Ev, ptr @__cxa_pure_virtual, ptr @_ZNSt16_Sp_counted_baseILN9__gnu_cxx12_Lock_policyE2EE10_M_destroyEv, ptr @__cxa_pure_virtual] }, comdat, align 8
@.str.33 = private unnamed_addr constant [34 x i8] c"StreamReader: Unable to open file\00", align 1
@.str.34 = private unnamed_addr constant [54 x i8] c"StreamReader: File is empty or EOF is already reached\00", align 1
@__libc_single_threaded = external global i8, align 1
@.str.35 = private unnamed_addr constant [23 x i8] c"vector::_M_fill_insert\00", align 1
@.str.36 = private unnamed_addr constant [26 x i8] c"vector::_M_default_append\00", align 1
@.str.37 = private unnamed_addr constant [40 x i8] c"End of file or stream limit was reached\00", align 1
@.str.38 = private unnamed_addr constant [38 x i8] c"End of file or read limit was reached\00", align 1
@.str.39 = private unnamed_addr constant [33 x i8] c"StreamReader: Invalid read limit\00", align 1
@_ZTVN6Assimp4D3DS8MaterialE = linkonce_odr hidden unnamed_addr constant { [4 x ptr] } { [4 x ptr] [ptr null, ptr @_ZTIN6Assimp4D3DS8MaterialE, ptr @_ZN6Assimp4D3DS8MaterialD2Ev, ptr @_ZN6Assimp4D3DS8MaterialD0Ev] }, comdat, align 8
@_ZTSN6Assimp4D3DS8MaterialE = linkonce_odr hidden constant [24 x i8] c"N6Assimp4D3DS8MaterialE\00", comdat, align 1
@_ZTIN6Assimp4D3DS8MaterialE = linkonce_odr hidden constant { ptr, ptr } { ptr getelementptr inbounds (ptr, ptr @_ZTVN10__cxxabiv117__class_type_infoE, i64 2), ptr @_ZTSN6Assimp4D3DS8MaterialE }, comdat, align 8
@_ZSt7nothrow = external global %"struct.std::nothrow_t", align 1

@_ZN6Assimp19Discreet3DSImporterC1Ev = hidden unnamed_addr alias void (ptr), ptr @_ZN6Assimp19Discreet3DSImporterC2Ev

; Function Attrs: mustprogress nounwind uwtable
define linkonce_odr void @_ZN6Assimp8IOStreamD0Ev(ptr noundef nonnull align 8 dereferenceable(8) %this) unnamed_addr #0 comdat align 2 {
entry:
  %this.addr = alloca ptr, align 8
  store ptr %this, ptr %this.addr, align 8
  call void @llvm.trap() #17
  unreachable
}

; Function Attrs: cold noreturn nounwind memory(inaccessiblemem: write)
declare void @llvm.trap() #1

; Function Attrs: mustprogress nounwind uwtable
define linkonce_odr void @_ZN6Assimp9LogStreamD0Ev(ptr noundef nonnull align 8 dereferenceable(8) %this) unnamed_addr #0 comdat align 2 {
entry:
  %this.addr = alloca ptr, align 8
  store ptr %this, ptr %this.addr, align 8
  call void @llvm.trap() #17
  unreachable
}

; Function Attrs: mustprogress nounwind uwtable
define linkonce_odr void @_ZN6Assimp6LoggerD0Ev(ptr noundef nonnull align 8 dereferenceable(12) %this) unnamed_addr #0 comdat align 2 {
entry:
  %this.addr = alloca ptr, align 8
  store ptr %this, ptr %this.addr, align 8
  call void @llvm.trap() #17
  unreachable
}

; Function Attrs: mustprogress nounwind uwtable
define linkonce_odr void @_ZNSt6vectorINSt7__cxx1112basic_stringIcSt11char_traitsIcESaIcEEESaIS5_EED2Ev(ptr noundef nonnull align 8 dereferenceable(24) %this) unnamed_addr #0 comdat align 2 personality ptr @__gxx_personality_v0 {
entry:
  %this.addr = alloca ptr, align 8
  store ptr %this, ptr %this.addr, align 8
  %this1 = load ptr, ptr %this.addr, align 8
  %_M_impl = getelementptr inbounds %"struct.std::_Vector_base", ptr %this1, i32 0, i32 0
  %_M_start = getelementptr inbounds %"struct.std::_Vector_base<std::__cxx11::basic_string<char>, std::allocator<std::__cxx11::basic_string<char>>>::_Vector_impl_data", ptr %_M_impl, i32 0, i32 0
  %0 = load ptr, ptr %_M_start, align 8
  %_M_impl2 = getelementptr inbounds %"struct.std::_Vector_base", ptr %this1, i32 0, i32 0
  %_M_finish = getelementptr inbounds %"struct.std::_Vector_base<std::__cxx11::basic_string<char>, std::allocator<std::__cxx11::basic_string<char>>>::_Vector_impl_data", ptr %_M_impl2, i32 0, i32 1
  %1 = load ptr, ptr %_M_finish, align 8
  %call = call noundef nonnull align 1 dereferenceable(1) ptr @_ZNSt12_Vector_baseINSt7__cxx1112basic_stringIcSt11char_traitsIcESaIcEEESaIS5_EE19_M_get_Tp_allocatorEv(ptr noundef nonnull align 8 dereferenceable(24) %this1) #10
  invoke void @_ZSt8_DestroyIPNSt7__cxx1112basic_stringIcSt11char_traitsIcESaIcEEES5_EvT_S7_RSaIT0_E(ptr noundef %0, ptr noundef %1, ptr noundef nonnull align 1 dereferenceable(1) %call)
          to label %invoke.cont unwind label %terminate.lpad

invoke.cont:                                      ; preds = %entry
  call void @_ZNSt12_Vector_baseINSt7__cxx1112basic_stringIcSt11char_traitsIcESaIcEEESaIS5_EED2Ev(ptr noundef nonnull align 8 dereferenceable(24) %this1) #10
  ret void

terminate.lpad:                                   ; preds = %entry
  %2 = landingpad { ptr, i32 }
          catch ptr null
  %3 = extractvalue { ptr, i32 } %2, 0
  call void @__clang_call_terminate(ptr %3) #17
  unreachable
}

; Function Attrs: mustprogress nounwind uwtable
define linkonce_odr void @_ZN6Assimp8IOSystemD0Ev(ptr noundef nonnull align 8 dereferenceable(32) %this) unnamed_addr #0 comdat align 2 {
entry:
  %this.addr = alloca ptr, align 8
  store ptr %this, ptr %this.addr, align 8
  call void @llvm.trap() #17
  unreachable
}

; Function Attrs: mustprogress nounwind uwtable
define hidden void @_ZN6Assimp19Discreet3DSImporterC2Ev(ptr noundef nonnull align 8 dereferenceable(162) %this) unnamed_addr #0 align 2 {
entry:
  %this.addr = alloca ptr, align 8
  store ptr %this, ptr %this.addr, align 8
  %this1 = load ptr, ptr %this.addr, align 8
  call void @_ZN6Assimp12BaseImporterC2Ev(ptr noundef nonnull align 8 dereferenceable(72) %this1) #10
  store ptr getelementptr inbounds ({ [8 x ptr] }, ptr @_ZTVN6Assimp19Discreet3DSImporterE, i32 0, inrange i32 0, i32 2), ptr %this1, align 8
  %stream = getelementptr inbounds %"class.Assimp::Discreet3DSImporter", ptr %this1, i32 0, i32 1
  store ptr null, ptr %stream, align 8
  %mLastNodeIndex = getelementptr inbounds %"class.Assimp::Discreet3DSImporter", ptr %this1, i32 0, i32 2
  store i16 0, ptr %mLastNodeIndex, align 8
  %mCurrentNode = getelementptr inbounds %"class.Assimp::Discreet3DSImporter", ptr %this1, i32 0, i32 4
  store ptr null, ptr %mCurrentNode, align 8
  %mRootNode = getelementptr inbounds %"class.Assimp::Discreet3DSImporter", ptr %this1, i32 0, i32 5
  store ptr null, ptr %mRootNode, align 8
  %mScene = getelementptr inbounds %"class.Assimp::Discreet3DSImporter", ptr %this1, i32 0, i32 6
  store ptr null, ptr %mScene, align 8
  %mClrAmbient = getelementptr inbounds %"class.Assimp::Discreet3DSImporter", ptr %this1, i32 0, i32 7
  call void @_ZN9aiColor3DC2Ev(ptr noundef nonnull align 4 dereferenceable(12) %mClrAmbient) #10
  %mMasterScale = getelementptr inbounds %"class.Assimp::Discreet3DSImporter", ptr %this1, i32 0, i32 8
  store float 0.000000e+00, ptr %mMasterScale, align 4
  %mBackgroundImage = getelementptr inbounds %"class.Assimp::Discreet3DSImporter", ptr %this1, i32 0, i32 9
  call void @_ZNSt7__cxx1112basic_stringIcSt11char_traitsIcESaIcEEC1Ev(ptr noundef nonnull align 8 dereferenceable(32) %mBackgroundImage) #10
  %bHasBG = getelementptr inbounds %"class.Assimp::Discreet3DSImporter", ptr %this1, i32 0, i32 10
  store i8 0, ptr %bHasBG, align 8
  %bIsPrj = getelementptr inbounds %"class.Assimp::Discreet3DSImporter", ptr %this1, i32 0, i32 11
  store i8 0, ptr %bIsPrj, align 1
  ret void
}

; Function Attrs: nounwind
declare void @_ZN6Assimp12BaseImporterC2Ev(ptr noundef nonnull align 8 dereferenceable(72)) unnamed_addr #2

; Function Attrs: mustprogress nounwind uwtable
define linkonce_odr hidden void @_ZN9aiColor3DC2Ev(ptr noundef nonnull align 4 dereferenceable(12) %this) unnamed_addr #0 comdat align 2 {
entry:
  %this.addr = alloca ptr, align 8
  store ptr %this, ptr %this.addr, align 8
  %this1 = load ptr, ptr %this.addr, align 8
  %r = getelementptr inbounds %struct.aiColor3D, ptr %this1, i32 0, i32 0
  store float 0.000000e+00, ptr %r, align 4
  %g = getelementptr inbounds %struct.aiColor3D, ptr %this1, i32 0, i32 1
  store float 0.000000e+00, ptr %g, align 4
  %b = getelementptr inbounds %struct.aiColor3D, ptr %this1, i32 0, i32 2
  store float 0.000000e+00, ptr %b, align 4
  ret void
}

; Function Attrs: nounwind
declare void @_ZNSt7__cxx1112basic_stringIcSt11char_traitsIcESaIcEEC1Ev(ptr noundef nonnull align 8 dereferenceable(32)) unnamed_addr #2

; Function Attrs: mustprogress uwtable
define hidden noundef zeroext i1 @_ZNK6Assimp19Discreet3DSImporter7CanReadERKNSt7__cxx1112basic_stringIcSt11char_traitsIcESaIcEEEPNS_8IOSystemEb(ptr noundef nonnull align 8 dereferenceable(162) %this, ptr noundef nonnull align 8 dereferenceable(32) %pFile, ptr noundef %pIOHandler, i1 noundef zeroext %0) unnamed_addr #3 align 2 {
entry:
  %this.addr = alloca ptr, align 8
  %pFile.addr = alloca ptr, align 8
  %pIOHandler.addr = alloca ptr, align 8
  %.addr = alloca i8, align 1
  store ptr %this, ptr %this.addr, align 8
  store ptr %pFile, ptr %pFile.addr, align 8
  store ptr %pIOHandler, ptr %pIOHandler.addr, align 8
  %frombool = zext i1 %0 to i8
  store i8 %frombool, ptr %.addr, align 1
  %1 = load ptr, ptr %pIOHandler.addr, align 8
  %2 = load ptr, ptr %pFile.addr, align 8
  %call = call noundef zeroext i1 @_ZN6Assimp12BaseImporter15CheckMagicTokenEPNS_8IOSystemERKNSt7__cxx1112basic_stringIcSt11char_traitsIcESaIcEEEPKvmjj(ptr noundef %1, ptr noundef nonnull align 8 dereferenceable(32) %2, ptr noundef @_ZZNK6Assimp19Discreet3DSImporter7CanReadERKNSt7__cxx1112basic_stringIcSt11char_traitsIcESaIcEEEPNS_8IOSystemEbE5token, i64 noundef 2, i32 noundef 0, i32 noundef 2)
  ret i1 %call
}

declare noundef zeroext i1 @_ZN6Assimp12BaseImporter15CheckMagicTokenEPNS_8IOSystemERKNSt7__cxx1112basic_stringIcSt11char_traitsIcESaIcEEEPKvmjj(ptr noundef, ptr noundef nonnull align 8 dereferenceable(32), ptr noundef, i64 noundef, i32 noundef, i32 noundef) #4

; Function Attrs: mustprogress nounwind uwtable
define hidden noundef ptr @_ZNK6Assimp19Discreet3DSImporter7GetInfoEv(ptr noundef nonnull align 8 dereferenceable(162) %this) unnamed_addr #0 align 2 {
entry:
  %this.addr = alloca ptr, align 8
  store ptr %this, ptr %this.addr, align 8
  ret ptr @_ZN6AssimpL4descE
}

; Function Attrs: mustprogress nounwind uwtable
define hidden void @_ZN6Assimp19Discreet3DSImporter15SetupPropertiesEPKNS_8ImporterE(ptr noundef nonnull align 8 dereferenceable(162) %this, ptr noundef %0) unnamed_addr #0 align 2 {
entry:
  %this.addr = alloca ptr, align 8
  %.addr = alloca ptr, align 8
  store ptr %this, ptr %this.addr, align 8
  store ptr %0, ptr %.addr, align 8
  ret void
}

; Function Attrs: mustprogress uwtable
define hidden void @_ZN6Assimp19Discreet3DSImporter14InternReadFileERKNSt7__cxx1112basic_stringIcSt11char_traitsIcESaIcEEEP7aiScenePNS_8IOSystemE(ptr noundef nonnull align 8 dereferenceable(162) %this, ptr noundef nonnull align 8 dereferenceable(32) %pFile, ptr noundef %pScene, ptr noundef %pIOHandler) unnamed_addr #3 align 2 personality ptr @__gxx_personality_v0 {
entry:
  %this.addr = alloca ptr, align 8
  %pFile.addr = alloca ptr, align 8
  %pScene.addr = alloca ptr, align 8
  %pIOHandler.addr = alloca ptr, align 8
  %theFile = alloca ptr, align 8
  %ref.tmp = alloca %"class.std::__cxx11::basic_string", align 8
  %ref.tmp2 = alloca %"class.std::allocator.0", align 1
  %exn.slot = alloca ptr, align 8
  %ehselector.slot = alloca i32, align 4
  %theStream = alloca %"class.Assimp::StreamReader", align 8
  %_scene = alloca %"struct.Assimp::D3DS::Scene", align 8
  %_rootNode = alloca %"struct.Assimp::D3DS::Node", align 8
  %ref.tmp17 = alloca %"class.std::__cxx11::basic_string", align 8
  %ref.tmp18 = alloca %"class.std::allocator.0", align 1
  %ref.tmp29 = alloca %"class.std::__cxx11::basic_string", align 8
  %__range1 = alloca ptr, align 8
  %__begin1 = alloca %"class.__gnu_cxx::__normal_iterator", align 8
  %__end1 = alloca %"class.__gnu_cxx::__normal_iterator", align 8
  %mesh = alloca ptr, align 8
  store ptr %this, ptr %this.addr, align 8
  store ptr %pFile, ptr %pFile.addr, align 8
  store ptr %pScene, ptr %pScene.addr, align 8
  store ptr %pIOHandler, ptr %pIOHandler.addr, align 8
  %this1 = load ptr, ptr %this.addr, align 8
  %0 = load ptr, ptr %pIOHandler.addr, align 8
  %1 = load ptr, ptr %pFile.addr, align 8
  call void @_ZNSaIcEC1Ev(ptr noundef nonnull align 1 dereferenceable(1) %ref.tmp2) #10
  invoke void @_ZNSt7__cxx1112basic_stringIcSt11char_traitsIcESaIcEEC2IS3_EEPKcRKS3_(ptr noundef nonnull align 8 dereferenceable(32) %ref.tmp, ptr noundef @.str, ptr noundef nonnull align 1 dereferenceable(1) %ref.tmp2)
          to label %invoke.cont unwind label %lpad

invoke.cont:                                      ; preds = %entry
  %call = invoke noundef ptr @_ZN6Assimp8IOSystem4OpenERKNSt7__cxx1112basic_stringIcSt11char_traitsIcESaIcEEES8_(ptr noundef nonnull align 8 dereferenceable(32) %0, ptr noundef nonnull align 8 dereferenceable(32) %1, ptr noundef nonnull align 8 dereferenceable(32) %ref.tmp)
          to label %invoke.cont4 unwind label %lpad3

invoke.cont4:                                     ; preds = %invoke.cont
  call void @_ZNSt7__cxx1112basic_stringIcSt11char_traitsIcESaIcEED1Ev(ptr noundef nonnull align 8 dereferenceable(32) %ref.tmp) #10
  call void @_ZNSaIcED1Ev(ptr noundef nonnull align 1 dereferenceable(1) %ref.tmp2) #10
  store ptr %call, ptr %theFile, align 8
  %2 = load ptr, ptr %theFile, align 8
  %tobool = icmp ne ptr %2, null
  br i1 %tobool, label %if.end, label %if.then

if.then:                                          ; preds = %invoke.cont4
  %exception = call ptr @__cxa_allocate_exception(i64 16) #10
  %3 = load ptr, ptr %pFile.addr, align 8
  invoke void @_ZN17DeadlyImportErrorC2IJRA21_KcRKNSt7__cxx1112basic_stringIcSt11char_traitsIcESaIcEEEEEEDpOT_(ptr noundef nonnull align 8 dereferenceable(16) %exception, ptr noundef nonnull align 1 dereferenceable(21) @.str.1, ptr noundef nonnull align 8 dereferenceable(32) %3)
          to label %invoke.cont6 unwind label %lpad5

invoke.cont6:                                     ; preds = %if.then
  call void @__cxa_throw(ptr %exception, ptr @_ZTI17DeadlyImportError, ptr @_ZN17DeadlyImportErrorD2Ev) #18
  unreachable

lpad:                                             ; preds = %entry
  %4 = landingpad { ptr, i32 }
          cleanup
  %5 = extractvalue { ptr, i32 } %4, 0
  store ptr %5, ptr %exn.slot, align 8
  %6 = extractvalue { ptr, i32 } %4, 1
  store i32 %6, ptr %ehselector.slot, align 4
  br label %ehcleanup

lpad3:                                            ; preds = %invoke.cont
  %7 = landingpad { ptr, i32 }
          cleanup
  %8 = extractvalue { ptr, i32 } %7, 0
  store ptr %8, ptr %exn.slot, align 8
  %9 = extractvalue { ptr, i32 } %7, 1
  store i32 %9, ptr %ehselector.slot, align 4
  call void @_ZNSt7__cxx1112basic_stringIcSt11char_traitsIcESaIcEED1Ev(ptr noundef nonnull align 8 dereferenceable(32) %ref.tmp) #10
  br label %ehcleanup

ehcleanup:                                        ; preds = %lpad3, %lpad
  call void @_ZNSaIcED1Ev(ptr noundef nonnull align 1 dereferenceable(1) %ref.tmp2) #10
  br label %eh.resume

lpad5:                                            ; preds = %if.then
  %10 = landingpad { ptr, i32 }
          cleanup
  %11 = extractvalue { ptr, i32 } %10, 0
  store ptr %11, ptr %exn.slot, align 8
  %12 = extractvalue { ptr, i32 } %10, 1
  store i32 %12, ptr %ehselector.slot, align 4
  call void @__cxa_free_exception(ptr %exception) #10
  br label %eh.resume

if.end:                                           ; preds = %invoke.cont4
  %13 = load ptr, ptr %theFile, align 8
  call void @_ZN6Assimp12StreamReaderILb0ELb0EEC2EPNS_8IOStreamEb(ptr noundef nonnull align 8 dereferenceable(49) %theStream, ptr noundef %13, i1 noundef zeroext false)
  %call10 = invoke noundef i64 @_ZNK6Assimp12StreamReaderILb0ELb0EE16GetRemainingSizeEv(ptr noundef nonnull align 8 dereferenceable(49) %theStream)
          to label %invoke.cont9 unwind label %lpad8

invoke.cont9:                                     ; preds = %if.end
  %cmp = icmp ult i64 %call10, 16
  br i1 %cmp, label %if.then11, label %if.end16

if.then11:                                        ; preds = %invoke.cont9
  %exception12 = call ptr @__cxa_allocate_exception(i64 16) #10
  %14 = load ptr, ptr %pFile.addr, align 8
  invoke void @_ZN17DeadlyImportErrorC2IJRA38_KcRKNSt7__cxx1112basic_stringIcSt11char_traitsIcESaIcEEEEEEDpOT_(ptr noundef nonnull align 8 dereferenceable(16) %exception12, ptr noundef nonnull align 1 dereferenceable(38) @.str.2, ptr noundef nonnull align 8 dereferenceable(32) %14)
          to label %invoke.cont14 unwind label %lpad13

invoke.cont14:                                    ; preds = %if.then11
  invoke void @__cxa_throw(ptr %exception12, ptr @_ZTI17DeadlyImportError, ptr @_ZN17DeadlyImportErrorD2Ev) #18
          to label %unreachable unwind label %lpad8

lpad8:                                            ; preds = %invoke.cont14, %if.end
  %15 = landingpad { ptr, i32 }
          cleanup
  %16 = extractvalue { ptr, i32 } %15, 0
  store ptr %16, ptr %exn.slot, align 8
  %17 = extractvalue { ptr, i32 } %15, 1
  store i32 %17, ptr %ehselector.slot, align 4
  br label %ehcleanup59

lpad13:                                           ; preds = %if.then11
  %18 = landingpad { ptr, i32 }
          cleanup
  %19 = extractvalue { ptr, i32 } %18, 0
  store ptr %19, ptr %exn.slot, align 8
  %20 = extractvalue { ptr, i32 } %18, 1
  store i32 %20, ptr %ehselector.slot, align 4
  call void @__cxa_free_exception(ptr %exception12) #10
  br label %ehcleanup59

if.end16:                                         ; preds = %invoke.cont9
  %stream = getelementptr inbounds %"class.Assimp::Discreet3DSImporter", ptr %this1, i32 0, i32 1
  store ptr %theStream, ptr %stream, align 8
  call void @_ZN6Assimp4D3DS5SceneC2Ev(ptr noundef nonnull align 8 dereferenceable(96) %_scene) #10
  %mScene = getelementptr inbounds %"class.Assimp::Discreet3DSImporter", ptr %this1, i32 0, i32 6
  store ptr %_scene, ptr %mScene, align 8
  call void @_ZNSaIcEC1Ev(ptr noundef nonnull align 1 dereferenceable(1) %ref.tmp18) #10
  invoke void @_ZNSt7__cxx1112basic_stringIcSt11char_traitsIcESaIcEEC2IS3_EEPKcRKS3_(ptr noundef nonnull align 8 dereferenceable(32) %ref.tmp17, ptr noundef @.str.3, ptr noundef nonnull align 1 dereferenceable(1) %ref.tmp18)
          to label %invoke.cont20 unwind label %lpad19

invoke.cont20:                                    ; preds = %if.end16
  invoke void @_ZN6Assimp4D3DS4NodeC2ERKNSt7__cxx1112basic_stringIcSt11char_traitsIcESaIcEEE(ptr noundef nonnull align 8 dereferenceable(248) %_rootNode, ptr noundef nonnull align 8 dereferenceable(32) %ref.tmp17)
          to label %invoke.cont22 unwind label %lpad21

invoke.cont22:                                    ; preds = %invoke.cont20
  call void @_ZNSt7__cxx1112basic_stringIcSt11char_traitsIcESaIcEED1Ev(ptr noundef nonnull align 8 dereferenceable(32) %ref.tmp17) #10
  call void @_ZNSaIcED1Ev(ptr noundef nonnull align 1 dereferenceable(1) %ref.tmp18) #10
  %mLastNodeIndex = getelementptr inbounds %"class.Assimp::Discreet3DSImporter", ptr %this1, i32 0, i32 2
  store i16 -1, ptr %mLastNodeIndex, align 8
  %mCurrentNode = getelementptr inbounds %"class.Assimp::Discreet3DSImporter", ptr %this1, i32 0, i32 4
  store ptr %_rootNode, ptr %mCurrentNode, align 8
  %mCurrentNode25 = getelementptr inbounds %"class.Assimp::Discreet3DSImporter", ptr %this1, i32 0, i32 4
  %21 = load ptr, ptr %mCurrentNode25, align 8
  %mRootNode = getelementptr inbounds %"class.Assimp::Discreet3DSImporter", ptr %this1, i32 0, i32 5
  store ptr %21, ptr %mRootNode, align 8
  %mRootNode26 = getelementptr inbounds %"class.Assimp::Discreet3DSImporter", ptr %this1, i32 0, i32 5
  %22 = load ptr, ptr %mRootNode26, align 8
  %mHierarchyPos = getelementptr inbounds %"struct.Assimp::D3DS::Node", ptr %22, i32 0, i32 5
  store i16 -1, ptr %mHierarchyPos, align 8
  %mRootNode27 = getelementptr inbounds %"class.Assimp::Discreet3DSImporter", ptr %this1, i32 0, i32 5
  %23 = load ptr, ptr %mRootNode27, align 8
  %mHierarchyIndex = getelementptr inbounds %"struct.Assimp::D3DS::Node", ptr %23, i32 0, i32 6
  store i16 -1, ptr %mHierarchyIndex, align 2
  %mRootNode28 = getelementptr inbounds %"class.Assimp::Discreet3DSImporter", ptr %this1, i32 0, i32 5
  %24 = load ptr, ptr %mRootNode28, align 8
  %mParent = getelementptr inbounds %"struct.Assimp::D3DS::Node", ptr %24, i32 0, i32 0
  store ptr null, ptr %mParent, align 8
  %mMasterScale = getelementptr inbounds %"class.Assimp::Discreet3DSImporter", ptr %this1, i32 0, i32 8
  store float 1.000000e+00, ptr %mMasterScale, align 4
  call void @_ZNSt7__cxx1112basic_stringIcSt11char_traitsIcESaIcEEC1Ev(ptr noundef nonnull align 8 dereferenceable(32) %ref.tmp29) #10
  %mBackgroundImage = getelementptr inbounds %"class.Assimp::Discreet3DSImporter", ptr %this1, i32 0, i32 9
  %call30 = call noundef nonnull align 8 dereferenceable(32) ptr @_ZNSt7__cxx1112basic_stringIcSt11char_traitsIcESaIcEEaSEOS4_(ptr noundef nonnull align 8 dereferenceable(32) %mBackgroundImage, ptr noundef nonnull align 8 dereferenceable(32) %ref.tmp29) #10
  call void @_ZNSt7__cxx1112basic_stringIcSt11char_traitsIcESaIcEED1Ev(ptr noundef nonnull align 8 dereferenceable(32) %ref.tmp29) #10
  %bHasBG = getelementptr inbounds %"class.Assimp::Discreet3DSImporter", ptr %this1, i32 0, i32 10
  store i8 0, ptr %bHasBG, align 8
  %bIsPrj = getelementptr inbounds %"class.Assimp::Discreet3DSImporter", ptr %this1, i32 0, i32 11
  store i8 0, ptr %bIsPrj, align 1
  invoke void @_ZN6Assimp19Discreet3DSImporter14ParseMainChunkEv(ptr noundef nonnull align 8 dereferenceable(162) %this1)
          to label %invoke.cont32 unwind label %lpad31

invoke.cont32:                                    ; preds = %invoke.cont22
  %mScene33 = getelementptr inbounds %"class.Assimp::Discreet3DSImporter", ptr %this1, i32 0, i32 6
  %25 = load ptr, ptr %mScene33, align 8
  %mMeshes = getelementptr inbounds %"struct.Assimp::D3DS::Scene", ptr %25, i32 0, i32 1
  store ptr %mMeshes, ptr %__range1, align 8
  %26 = load ptr, ptr %__range1, align 8
  %call34 = call ptr @_ZNSt6vectorIN6Assimp4D3DS4MeshESaIS2_EE5beginEv(ptr noundef nonnull align 8 dereferenceable(24) %26) #10
  %coerce.dive = getelementptr inbounds %"class.__gnu_cxx::__normal_iterator", ptr %__begin1, i32 0, i32 0
  store ptr %call34, ptr %coerce.dive, align 8
  %27 = load ptr, ptr %__range1, align 8
  %call35 = call ptr @_ZNSt6vectorIN6Assimp4D3DS4MeshESaIS2_EE3endEv(ptr noundef nonnull align 8 dereferenceable(24) %27) #10
  %coerce.dive36 = getelementptr inbounds %"class.__gnu_cxx::__normal_iterator", ptr %__end1, i32 0, i32 0
  store ptr %call35, ptr %coerce.dive36, align 8
  br label %for.cond

for.cond:                                         ; preds = %for.inc, %invoke.cont32
  %call37 = call noundef zeroext i1 @_ZN9__gnu_cxxneIPN6Assimp4D3DS4MeshESt6vectorIS3_SaIS3_EEEEbRKNS_17__normal_iteratorIT_T0_EESD_(ptr noundef nonnull align 8 dereferenceable(8) %__begin1, ptr noundef nonnull align 8 dereferenceable(8) %__end1) #10
  br i1 %call37, label %for.body, label %for.end

for.body:                                         ; preds = %for.cond
  %call38 = call noundef nonnull align 8 dereferenceable(216) ptr @_ZNK9__gnu_cxx17__normal_iteratorIPN6Assimp4D3DS4MeshESt6vectorIS3_SaIS3_EEEdeEv(ptr noundef nonnull align 8 dereferenceable(8) %__begin1) #10
  store ptr %call38, ptr %mesh, align 8
  %28 = load ptr, ptr %mesh, align 8
  %mFaces = getelementptr inbounds %struct.MeshWithSmoothingGroups, ptr %28, i32 0, i32 1
  %call39 = call noundef i64 @_ZNKSt6vectorIN6Assimp4D3DS4FaceESaIS2_EE4sizeEv(ptr noundef nonnull align 8 dereferenceable(24) %mFaces) #10
  %cmp40 = icmp ugt i64 %call39, 0
  br i1 %cmp40, label %land.lhs.true, label %if.end48

land.lhs.true:                                    ; preds = %for.body
  %29 = load ptr, ptr %mesh, align 8
  %mPositions = getelementptr inbounds %struct.MeshWithSmoothingGroups, ptr %29, i32 0, i32 0
  %call41 = call noundef i64 @_ZNKSt6vectorI10aiVector3tIfESaIS1_EE4sizeEv(ptr noundef nonnull align 8 dereferenceable(24) %mPositions) #10
  %cmp42 = icmp eq i64 %call41, 0
  br i1 %cmp42, label %if.then43, label %if.end48

if.then43:                                        ; preds = %land.lhs.true
  %exception44 = call ptr @__cxa_allocate_exception(i64 16) #10
  %30 = load ptr, ptr %pFile.addr, align 8
  invoke void @_ZN17DeadlyImportErrorC2IJRA42_KcRKNSt7__cxx1112basic_stringIcSt11char_traitsIcESaIcEEEEEEDpOT_(ptr noundef nonnull align 8 dereferenceable(16) %exception44, ptr noundef nonnull align 1 dereferenceable(42) @.str.4, ptr noundef nonnull align 8 dereferenceable(32) %30)
          to label %invoke.cont46 unwind label %lpad45

invoke.cont46:                                    ; preds = %if.then43
  invoke void @__cxa_throw(ptr %exception44, ptr @_ZTI17DeadlyImportError, ptr @_ZN17DeadlyImportErrorD2Ev) #18
          to label %unreachable unwind label %lpad31

lpad19:                                           ; preds = %if.end16
  %31 = landingpad { ptr, i32 }
          cleanup
  %32 = extractvalue { ptr, i32 } %31, 0
  store ptr %32, ptr %exn.slot, align 8
  %33 = extractvalue { ptr, i32 } %31, 1
  store i32 %33, ptr %ehselector.slot, align 4
  br label %ehcleanup24

lpad21:                                           ; preds = %invoke.cont20
  %34 = landingpad { ptr, i32 }
          cleanup
  %35 = extractvalue { ptr, i32 } %34, 0
  store ptr %35, ptr %exn.slot, align 8
  %36 = extractvalue { ptr, i32 } %34, 1
  store i32 %36, ptr %ehselector.slot, align 4
  call void @_ZNSt7__cxx1112basic_stringIcSt11char_traitsIcESaIcEED1Ev(ptr noundef nonnull align 8 dereferenceable(32) %ref.tmp17) #10
  br label %ehcleanup24

ehcleanup24:                                      ; preds = %lpad21, %lpad19
  call void @_ZNSaIcED1Ev(ptr noundef nonnull align 1 dereferenceable(1) %ref.tmp18) #10
  br label %ehcleanup58

lpad31:                                           ; preds = %invoke.cont55, %invoke.cont54, %invoke.cont53, %for.end, %invoke.cont50, %invoke.cont49, %if.end48, %invoke.cont46, %invoke.cont22
  %37 = landingpad { ptr, i32 }
          cleanup
  %38 = extractvalue { ptr, i32 } %37, 0
  store ptr %38, ptr %exn.slot, align 8
  %39 = extractvalue { ptr, i32 } %37, 1
  store i32 %39, ptr %ehselector.slot, align 4
  br label %ehcleanup57

lpad45:                                           ; preds = %if.then43
  %40 = landingpad { ptr, i32 }
          cleanup
  %41 = extractvalue { ptr, i32 } %40, 0
  store ptr %41, ptr %exn.slot, align 8
  %42 = extractvalue { ptr, i32 } %40, 1
  store i32 %42, ptr %ehselector.slot, align 4
  call void @__cxa_free_exception(ptr %exception44) #10
  br label %ehcleanup57

if.end48:                                         ; preds = %land.lhs.true, %for.body
  %43 = load ptr, ptr %mesh, align 8
  invoke void @_ZN6Assimp19Discreet3DSImporter12CheckIndicesERNS_4D3DS4MeshE(ptr noundef nonnull align 8 dereferenceable(162) %this1, ptr noundef nonnull align 8 dereferenceable(216) %43)
          to label %invoke.cont49 unwind label %lpad31

invoke.cont49:                                    ; preds = %if.end48
  %44 = load ptr, ptr %mesh, align 8
  invoke void @_ZN6Assimp19Discreet3DSImporter10MakeUniqueERNS_4D3DS4MeshE(ptr noundef nonnull align 8 dereferenceable(162) %this1, ptr noundef nonnull align 8 dereferenceable(216) %44)
          to label %invoke.cont50 unwind label %lpad31

invoke.cont50:                                    ; preds = %invoke.cont49
  %45 = load ptr, ptr %mesh, align 8
  invoke void @_Z34ComputeNormalsWithSmoothingsGroupsIN6Assimp4D3DS4FaceEEvR23MeshWithSmoothingGroupsIT_E(ptr noundef nonnull align 8 dereferenceable(72) %45)
          to label %invoke.cont51 unwind label %lpad31

invoke.cont51:                                    ; preds = %invoke.cont50
  br label %for.inc

for.inc:                                          ; preds = %invoke.cont51
  %call52 = call noundef nonnull align 8 dereferenceable(8) ptr @_ZN9__gnu_cxx17__normal_iteratorIPN6Assimp4D3DS4MeshESt6vectorIS3_SaIS3_EEEppEv(ptr noundef nonnull align 8 dereferenceable(8) %__begin1) #10
  br label %for.cond

for.end:                                          ; preds = %for.cond
  invoke void @_ZN6Assimp19Discreet3DSImporter22ReplaceDefaultMaterialEv(ptr noundef nonnull align 8 dereferenceable(162) %this1)
          to label %invoke.cont53 unwind label %lpad31

invoke.cont53:                                    ; preds = %for.end
  %46 = load ptr, ptr %pScene.addr, align 8
  invoke void @_ZN6Assimp19Discreet3DSImporter12ConvertSceneEP7aiScene(ptr noundef nonnull align 8 dereferenceable(162) %this1, ptr noundef %46)
          to label %invoke.cont54 unwind label %lpad31

invoke.cont54:                                    ; preds = %invoke.cont53
  %47 = load ptr, ptr %pScene.addr, align 8
  invoke void @_ZN6Assimp19Discreet3DSImporter17GenerateNodeGraphEP7aiScene(ptr noundef nonnull align 8 dereferenceable(162) %this1, ptr noundef %47)
          to label %invoke.cont55 unwind label %lpad31

invoke.cont55:                                    ; preds = %invoke.cont54
  %48 = load ptr, ptr %pScene.addr, align 8
  invoke void @_ZN6Assimp19Discreet3DSImporter16ApplyMasterScaleEP7aiScene(ptr noundef nonnull align 8 dereferenceable(162) %this1, ptr noundef %48)
          to label %invoke.cont56 unwind label %lpad31

invoke.cont56:                                    ; preds = %invoke.cont55
  call void @_ZN6Assimp4D3DS4NodeD2Ev(ptr noundef nonnull align 8 dereferenceable(248) %_rootNode) #10
  call void @_ZN6Assimp4D3DS5SceneD2Ev(ptr noundef nonnull align 8 dereferenceable(96) %_scene) #10
  call void @_ZN6Assimp12StreamReaderILb0ELb0EED2Ev(ptr noundef nonnull align 8 dereferenceable(49) %theStream) #10
  ret void

ehcleanup57:                                      ; preds = %lpad45, %lpad31
  call void @_ZN6Assimp4D3DS4NodeD2Ev(ptr noundef nonnull align 8 dereferenceable(248) %_rootNode) #10
  br label %ehcleanup58

ehcleanup58:                                      ; preds = %ehcleanup57, %ehcleanup24
  call void @_ZN6Assimp4D3DS5SceneD2Ev(ptr noundef nonnull align 8 dereferenceable(96) %_scene) #10
  br label %ehcleanup59

ehcleanup59:                                      ; preds = %ehcleanup58, %lpad13, %lpad8
  call void @_ZN6Assimp12StreamReaderILb0ELb0EED2Ev(ptr noundef nonnull align 8 dereferenceable(49) %theStream) #10
  br label %eh.resume

eh.resume:                                        ; preds = %ehcleanup59, %lpad5, %ehcleanup
  %exn = load ptr, ptr %exn.slot, align 8
  %sel = load i32, ptr %ehselector.slot, align 4
  %lpad.val = insertvalue { ptr, i32 } poison, ptr %exn, 0
  %lpad.val60 = insertvalue { ptr, i32 } %lpad.val, i32 %sel, 1
  resume { ptr, i32 } %lpad.val60

unreachable:                                      ; preds = %invoke.cont46, %invoke.cont14
  unreachable
}

; Function Attrs: mustprogress uwtable
define linkonce_odr noundef ptr @_ZN6Assimp8IOSystem4OpenERKNSt7__cxx1112basic_stringIcSt11char_traitsIcESaIcEEES8_(ptr noundef nonnull align 8 dereferenceable(32) %this, ptr noundef nonnull align 8 dereferenceable(32) %pFile, ptr noundef nonnull align 8 dereferenceable(32) %pMode) #3 comdat align 2 {
entry:
  %this.addr = alloca ptr, align 8
  %pFile.addr = alloca ptr, align 8
  %pMode.addr = alloca ptr, align 8
  store ptr %this, ptr %this.addr, align 8
  store ptr %pFile, ptr %pFile.addr, align 8
  store ptr %pMode, ptr %pMode.addr, align 8
  %this1 = load ptr, ptr %this.addr, align 8
  %0 = load ptr, ptr %pFile.addr, align 8
  %call = call noundef ptr @_ZNKSt7__cxx1112basic_stringIcSt11char_traitsIcESaIcEE5c_strEv(ptr noundef nonnull align 8 dereferenceable(32) %0) #10
  %1 = load ptr, ptr %pMode.addr, align 8
  %call2 = call noundef ptr @_ZNKSt7__cxx1112basic_stringIcSt11char_traitsIcESaIcEE5c_strEv(ptr noundef nonnull align 8 dereferenceable(32) %1) #10
  %vtable = load ptr, ptr %this1, align 8
  %vfn = getelementptr inbounds ptr, ptr %vtable, i64 4
  %2 = load ptr, ptr %vfn, align 8
  %call3 = call noundef ptr %2(ptr noundef nonnull align 8 dereferenceable(32) %this1, ptr noundef %call, ptr noundef %call2)
  ret ptr %call3
}

; Function Attrs: nounwind
declare void @_ZNSaIcEC1Ev(ptr noundef nonnull align 1 dereferenceable(1)) unnamed_addr #2

; Function Attrs: mustprogress uwtable
define linkonce_odr void @_ZNSt7__cxx1112basic_stringIcSt11char_traitsIcESaIcEEC2IS3_EEPKcRKS3_(ptr noundef nonnull align 8 dereferenceable(32) %this, ptr noundef %__s, ptr noundef nonnull align 1 dereferenceable(1) %__a) unnamed_addr #3 comdat align 2 personality ptr @__gxx_personality_v0 {
entry:
  %this.addr = alloca ptr, align 8
  %__s.addr = alloca ptr, align 8
  %__a.addr = alloca ptr, align 8
  %exn.slot = alloca ptr, align 8
  %ehselector.slot = alloca i32, align 4
  %__end = alloca ptr, align 8
  store ptr %this, ptr %this.addr, align 8
  store ptr %__s, ptr %__s.addr, align 8
  store ptr %__a, ptr %__a.addr, align 8
  %this1 = load ptr, ptr %this.addr, align 8
  %_M_dataplus = getelementptr inbounds %"class.std::__cxx11::basic_string", ptr %this1, i32 0, i32 0
  %call = call noundef ptr @_ZNSt7__cxx1112basic_stringIcSt11char_traitsIcESaIcEE13_M_local_dataEv(ptr noundef nonnull align 8 dereferenceable(32) %this1)
  %0 = load ptr, ptr %__a.addr, align 8
  call void @_ZNSt7__cxx1112basic_stringIcSt11char_traitsIcESaIcEE12_Alloc_hiderC1EPcRKS3_(ptr noundef nonnull align 8 dereferenceable(8) %_M_dataplus, ptr noundef %call, ptr noundef nonnull align 1 dereferenceable(1) %0)
  %1 = load ptr, ptr %__s.addr, align 8
  %cmp = icmp eq ptr %1, null
  br i1 %cmp, label %if.then, label %if.end

if.then:                                          ; preds = %entry
  invoke void @_ZSt19__throw_logic_errorPKc(ptr noundef @.str.32) #18
          to label %invoke.cont unwind label %lpad

invoke.cont:                                      ; preds = %if.then
  unreachable

lpad:                                             ; preds = %invoke.cont2, %if.end, %if.then
  %2 = landingpad { ptr, i32 }
          cleanup
  %3 = extractvalue { ptr, i32 } %2, 0
  store ptr %3, ptr %exn.slot, align 8
  %4 = extractvalue { ptr, i32 } %2, 1
  store i32 %4, ptr %ehselector.slot, align 4
  call void @_ZNSt7__cxx1112basic_stringIcSt11char_traitsIcESaIcEE12_Alloc_hiderD2Ev(ptr noundef nonnull align 8 dereferenceable(8) %_M_dataplus) #10
  br label %eh.resume

if.end:                                           ; preds = %entry
  %5 = load ptr, ptr %__s.addr, align 8
  %6 = load ptr, ptr %__s.addr, align 8
  %call3 = invoke noundef i64 @_ZNSt11char_traitsIcE6lengthEPKc(ptr noundef %6)
          to label %invoke.cont2 unwind label %lpad

invoke.cont2:                                     ; preds = %if.end
  %add.ptr = getelementptr inbounds i8, ptr %5, i64 %call3
  store ptr %add.ptr, ptr %__end, align 8
  %7 = load ptr, ptr %__s.addr, align 8
  %8 = load ptr, ptr %__end, align 8
  invoke void @_ZNSt7__cxx1112basic_stringIcSt11char_traitsIcESaIcEE12_M_constructIPKcEEvT_S8_St20forward_iterator_tag(ptr noundef nonnull align 8 dereferenceable(32) %this1, ptr noundef %7, ptr noundef %8)
          to label %invoke.cont4 unwind label %lpad

invoke.cont4:                                     ; preds = %invoke.cont2
  ret void

eh.resume:                                        ; preds = %lpad
  %exn = load ptr, ptr %exn.slot, align 8
  %sel = load i32, ptr %ehselector.slot, align 4
  %lpad.val = insertvalue { ptr, i32 } poison, ptr %exn, 0
  %lpad.val5 = insertvalue { ptr, i32 } %lpad.val, i32 %sel, 1
  resume { ptr, i32 } %lpad.val5
}

declare i32 @__gxx_personality_v0(...)

; Function Attrs: nounwind
declare void @_ZNSt7__cxx1112basic_stringIcSt11char_traitsIcESaIcEED1Ev(ptr noundef nonnull align 8 dereferenceable(32)) unnamed_addr #2

; Function Attrs: nounwind
declare void @_ZNSaIcED1Ev(ptr noundef nonnull align 1 dereferenceable(1)) unnamed_addr #2

declare ptr @__cxa_allocate_exception(i64)

; Function Attrs: mustprogress uwtable
define linkonce_odr void @_ZN17DeadlyImportErrorC2IJRA21_KcRKNSt7__cxx1112basic_stringIcSt11char_traitsIcESaIcEEEEEEDpOT_(ptr noundef nonnull align 8 dereferenceable(16) %this, ptr noundef nonnull align 1 dereferenceable(21) %args, ptr noundef nonnull align 8 dereferenceable(32) %args1) unnamed_addr #3 comdat align 2 personality ptr @__gxx_personality_v0 {
entry:
  %this.addr = alloca ptr, align 8
  %args.addr = alloca ptr, align 8
  %args.addr2 = alloca ptr, align 8
  %agg.tmp = alloca %"class.Assimp::Formatter::basic_formatter", align 8
  %exn.slot = alloca ptr, align 8
  %ehselector.slot = alloca i32, align 4
  store ptr %this, ptr %this.addr, align 8
  store ptr %args, ptr %args.addr, align 8
  store ptr %args1, ptr %args.addr2, align 8
  %this3 = load ptr, ptr %this.addr, align 8
  call void @_ZN6Assimp9Formatter15basic_formatterIcSt11char_traitsIcESaIcEEC2Ev(ptr noundef nonnull align 8 dereferenceable(376) %agg.tmp)
  %0 = load ptr, ptr %args.addr, align 8
  %1 = load ptr, ptr %args.addr2, align 8
  invoke void @_ZN15DeadlyErrorBaseC2IJRKNSt7__cxx1112basic_stringIcSt11char_traitsIcESaIcEEEERA21_KcEEN6Assimp9Formatter15basic_formatterIcS4_S5_EEOT0_DpOT_(ptr noundef nonnull align 8 dereferenceable(16) %this3, ptr noundef %agg.tmp, ptr noundef nonnull align 1 dereferenceable(21) %0, ptr noundef nonnull align 8 dereferenceable(32) %1)
          to label %invoke.cont unwind label %lpad

invoke.cont:                                      ; preds = %entry
  call void @_ZN6Assimp9Formatter15basic_formatterIcSt11char_traitsIcESaIcEED2Ev(ptr noundef nonnull align 8 dereferenceable(376) %agg.tmp) #10
  store ptr getelementptr inbounds ({ [5 x ptr] }, ptr @_ZTV17DeadlyImportError, i32 0, inrange i32 0, i32 2), ptr %this3, align 8
  ret void

lpad:                                             ; preds = %entry
  %2 = landingpad { ptr, i32 }
          cleanup
  %3 = extractvalue { ptr, i32 } %2, 0
  store ptr %3, ptr %exn.slot, align 8
  %4 = extractvalue { ptr, i32 } %2, 1
  store i32 %4, ptr %ehselector.slot, align 4
  call void @_ZN6Assimp9Formatter15basic_formatterIcSt11char_traitsIcESaIcEED2Ev(ptr noundef nonnull align 8 dereferenceable(376) %agg.tmp) #10
  br label %eh.resume

eh.resume:                                        ; preds = %lpad
  %exn = load ptr, ptr %exn.slot, align 8
  %sel = load i32, ptr %ehselector.slot, align 4
  %lpad.val = insertvalue { ptr, i32 } poison, ptr %exn, 0
  %lpad.val4 = insertvalue { ptr, i32 } %lpad.val, i32 %sel, 1
  resume { ptr, i32 } %lpad.val4
}

declare void @__cxa_free_exception(ptr)

; Function Attrs: mustprogress nounwind uwtable
define linkonce_odr void @_ZN17DeadlyImportErrorD2Ev(ptr noundef nonnull align 8 dereferenceable(16) %this) unnamed_addr #0 comdat align 2 {
entry:
  %this.addr = alloca ptr, align 8
  store ptr %this, ptr %this.addr, align 8
  %this1 = load ptr, ptr %this.addr, align 8
  call void @_ZN15DeadlyErrorBaseD2Ev(ptr noundef nonnull align 8 dereferenceable(16) %this1) #10
  ret void
}

declare void @__cxa_throw(ptr, ptr, ptr)

; Function Attrs: mustprogress uwtable
define linkonce_odr hidden void @_ZN6Assimp12StreamReaderILb0ELb0EEC2EPNS_8IOStreamEb(ptr noundef nonnull align 8 dereferenceable(49) %this, ptr noundef %stream, i1 noundef zeroext %le) unnamed_addr #3 comdat align 2 personality ptr @__gxx_personality_v0 {
entry:
  %this.addr = alloca ptr, align 8
  %stream.addr = alloca ptr, align 8
  %le.addr = alloca i8, align 1
  %exn.slot = alloca ptr, align 8
  %ehselector.slot = alloca i32, align 4
  store ptr %this, ptr %this.addr, align 8
  store ptr %stream, ptr %stream.addr, align 8
  %frombool = zext i1 %le to i8
  store i8 %frombool, ptr %le.addr, align 1
  %this1 = load ptr, ptr %this.addr, align 8
  %mStream = getelementptr inbounds %"class.Assimp::StreamReader", ptr %this1, i32 0, i32 0
  %0 = load ptr, ptr %stream.addr, align 8
  call void @_ZNSt10shared_ptrIN6Assimp8IOStreamEEC2IS1_vEEPT_(ptr noundef nonnull align 8 dereferenceable(16) %mStream, ptr noundef %0)
  %mBuffer = getelementptr inbounds %"class.Assimp::StreamReader", ptr %this1, i32 0, i32 1
  store ptr null, ptr %mBuffer, align 8
  %mCurrent = getelementptr inbounds %"class.Assimp::StreamReader", ptr %this1, i32 0, i32 2
  store ptr null, ptr %mCurrent, align 8
  %mEnd = getelementptr inbounds %"class.Assimp::StreamReader", ptr %this1, i32 0, i32 3
  store ptr null, ptr %mEnd, align 8
  %mLimit = getelementptr inbounds %"class.Assimp::StreamReader", ptr %this1, i32 0, i32 4
  store ptr null, ptr %mLimit, align 8
  %mLe = getelementptr inbounds %"class.Assimp::StreamReader", ptr %this1, i32 0, i32 5
  %1 = load i8, ptr %le.addr, align 1
  %tobool = trunc i8 %1 to i1
  %frombool2 = zext i1 %tobool to i8
  store i8 %frombool2, ptr %mLe, align 8
  invoke void @_ZN6Assimp12StreamReaderILb0ELb0EE11InternBeginEv(ptr noundef nonnull align 8 dereferenceable(49) %this1)
          to label %invoke.cont unwind label %lpad

invoke.cont:                                      ; preds = %entry
  ret void

lpad:                                             ; preds = %entry
  %2 = landingpad { ptr, i32 }
          cleanup
  %3 = extractvalue { ptr, i32 } %2, 0
  store ptr %3, ptr %exn.slot, align 8
  %4 = extractvalue { ptr, i32 } %2, 1
  store i32 %4, ptr %ehselector.slot, align 4
  call void @_ZNSt10shared_ptrIN6Assimp8IOStreamEED2Ev(ptr noundef nonnull align 8 dereferenceable(16) %mStream) #10
  br label %eh.resume

eh.resume:                                        ; preds = %lpad
  %exn = load ptr, ptr %exn.slot, align 8
  %sel = load i32, ptr %ehselector.slot, align 4
  %lpad.val = insertvalue { ptr, i32 } poison, ptr %exn, 0
  %lpad.val3 = insertvalue { ptr, i32 } %lpad.val, i32 %sel, 1
  resume { ptr, i32 } %lpad.val3
}

; Function Attrs: mustprogress nounwind uwtable
define linkonce_odr hidden noundef i64 @_ZNK6Assimp12StreamReaderILb0ELb0EE16GetRemainingSizeEv(ptr noundef nonnull align 8 dereferenceable(49) %this) #0 comdat align 2 {
entry:
  %this.addr = alloca ptr, align 8
  store ptr %this, ptr %this.addr, align 8
  %this1 = load ptr, ptr %this.addr, align 8
  %mEnd = getelementptr inbounds %"class.Assimp::StreamReader", ptr %this1, i32 0, i32 3
  %0 = load ptr, ptr %mEnd, align 8
  %mCurrent = getelementptr inbounds %"class.Assimp::StreamReader", ptr %this1, i32 0, i32 2
  %1 = load ptr, ptr %mCurrent, align 8
  %sub.ptr.lhs.cast = ptrtoint ptr %0 to i64
  %sub.ptr.rhs.cast = ptrtoint ptr %1 to i64
  %sub.ptr.sub = sub i64 %sub.ptr.lhs.cast, %sub.ptr.rhs.cast
  %conv = trunc i64 %sub.ptr.sub to i32
  %conv2 = zext i32 %conv to i64
  ret i64 %conv2
}

; Function Attrs: mustprogress uwtable
define linkonce_odr void @_ZN17DeadlyImportErrorC2IJRA38_KcRKNSt7__cxx1112basic_stringIcSt11char_traitsIcESaIcEEEEEEDpOT_(ptr noundef nonnull align 8 dereferenceable(16) %this, ptr noundef nonnull align 1 dereferenceable(38) %args, ptr noundef nonnull align 8 dereferenceable(32) %args1) unnamed_addr #3 comdat align 2 personality ptr @__gxx_personality_v0 {
entry:
  %this.addr = alloca ptr, align 8
  %args.addr = alloca ptr, align 8
  %args.addr2 = alloca ptr, align 8
  %agg.tmp = alloca %"class.Assimp::Formatter::basic_formatter", align 8
  %exn.slot = alloca ptr, align 8
  %ehselector.slot = alloca i32, align 4
  store ptr %this, ptr %this.addr, align 8
  store ptr %args, ptr %args.addr, align 8
  store ptr %args1, ptr %args.addr2, align 8
  %this3 = load ptr, ptr %this.addr, align 8
  call void @_ZN6Assimp9Formatter15basic_formatterIcSt11char_traitsIcESaIcEEC2Ev(ptr noundef nonnull align 8 dereferenceable(376) %agg.tmp)
  %0 = load ptr, ptr %args.addr, align 8
  %1 = load ptr, ptr %args.addr2, align 8
  invoke void @_ZN15DeadlyErrorBaseC2IJRKNSt7__cxx1112basic_stringIcSt11char_traitsIcESaIcEEEERA38_KcEEN6Assimp9Formatter15basic_formatterIcS4_S5_EEOT0_DpOT_(ptr noundef nonnull align 8 dereferenceable(16) %this3, ptr noundef %agg.tmp, ptr noundef nonnull align 1 dereferenceable(38) %0, ptr noundef nonnull align 8 dereferenceable(32) %1)
          to label %invoke.cont unwind label %lpad

invoke.cont:                                      ; preds = %entry
  call void @_ZN6Assimp9Formatter15basic_formatterIcSt11char_traitsIcESaIcEED2Ev(ptr noundef nonnull align 8 dereferenceable(376) %agg.tmp) #10
  store ptr getelementptr inbounds ({ [5 x ptr] }, ptr @_ZTV17DeadlyImportError, i32 0, inrange i32 0, i32 2), ptr %this3, align 8
  ret void

lpad:                                             ; preds = %entry
  %2 = landingpad { ptr, i32 }
          cleanup
  %3 = extractvalue { ptr, i32 } %2, 0
  store ptr %3, ptr %exn.slot, align 8
  %4 = extractvalue { ptr, i32 } %2, 1
  store i32 %4, ptr %ehselector.slot, align 4
  call void @_ZN6Assimp9Formatter15basic_formatterIcSt11char_traitsIcESaIcEED2Ev(ptr noundef nonnull align 8 dereferenceable(376) %agg.tmp) #10
  br label %eh.resume

eh.resume:                                        ; preds = %lpad
  %exn = load ptr, ptr %exn.slot, align 8
  %sel = load i32, ptr %ehselector.slot, align 4
  %lpad.val = insertvalue { ptr, i32 } poison, ptr %exn, 0
  %lpad.val4 = insertvalue { ptr, i32 } %lpad.val, i32 %sel, 1
  resume { ptr, i32 } %lpad.val4
}

; Function Attrs: mustprogress nounwind uwtable
define linkonce_odr hidden void @_ZN6Assimp4D3DS5SceneC2Ev(ptr noundef nonnull align 8 dereferenceable(96) %this) unnamed_addr #0 comdat align 2 {
entry:
  %this.addr = alloca ptr, align 8
  store ptr %this, ptr %this.addr, align 8
  %this1 = load ptr, ptr %this.addr, align 8
  %mMaterials = getelementptr inbounds %"struct.Assimp::D3DS::Scene", ptr %this1, i32 0, i32 0
  call void @_ZNSt6vectorIN6Assimp4D3DS8MaterialESaIS2_EEC2Ev(ptr noundef nonnull align 8 dereferenceable(24) %mMaterials) #10
  %mMeshes = getelementptr inbounds %"struct.Assimp::D3DS::Scene", ptr %this1, i32 0, i32 1
  call void @_ZNSt6vectorIN6Assimp4D3DS4MeshESaIS2_EEC2Ev(ptr noundef nonnull align 8 dereferenceable(24) %mMeshes) #10
  %mCameras = getelementptr inbounds %"struct.Assimp::D3DS::Scene", ptr %this1, i32 0, i32 2
  call void @_ZNSt6vectorIP8aiCameraSaIS1_EEC2Ev(ptr noundef nonnull align 8 dereferenceable(24) %mCameras) #10
  %mLights = getelementptr inbounds %"struct.Assimp::D3DS::Scene", ptr %this1, i32 0, i32 3
  call void @_ZNSt6vectorIP7aiLightSaIS1_EEC2Ev(ptr noundef nonnull align 8 dereferenceable(24) %mLights) #10
  ret void
}

; Function Attrs: mustprogress uwtable
define linkonce_odr hidden void @_ZN6Assimp4D3DS4NodeC2ERKNSt7__cxx1112basic_stringIcSt11char_traitsIcESaIcEEE(ptr noundef nonnull align 8 dereferenceable(248) %this, ptr noundef nonnull align 8 dereferenceable(32) %name) unnamed_addr #3 comdat align 2 personality ptr @__gxx_personality_v0 {
entry:
  %this.addr = alloca ptr, align 8
  %name.addr = alloca ptr, align 8
  %exn.slot = alloca ptr, align 8
  %ehselector.slot = alloca i32, align 4
  store ptr %this, ptr %this.addr, align 8
  store ptr %name, ptr %name.addr, align 8
  %this1 = load ptr, ptr %this.addr, align 8
  %mParent = getelementptr inbounds %"struct.Assimp::D3DS::Node", ptr %this1, i32 0, i32 0
  store ptr null, ptr %mParent, align 8
  %mChildren = getelementptr inbounds %"struct.Assimp::D3DS::Node", ptr %this1, i32 0, i32 1
  call void @_ZNSt6vectorIPN6Assimp4D3DS4NodeESaIS3_EEC2Ev(ptr noundef nonnull align 8 dereferenceable(24) %mChildren) #10
  %mName = getelementptr inbounds %"struct.Assimp::D3DS::Node", ptr %this1, i32 0, i32 2
  %0 = load ptr, ptr %name.addr, align 8
  invoke void @_ZNSt7__cxx1112basic_stringIcSt11char_traitsIcESaIcEEC1ERKS4_(ptr noundef nonnull align 8 dereferenceable(32) %mName, ptr noundef nonnull align 8 dereferenceable(32) %0)
          to label %invoke.cont unwind label %lpad

invoke.cont:                                      ; preds = %entry
  %mInstanceNumber = getelementptr inbounds %"struct.Assimp::D3DS::Node", ptr %this1, i32 0, i32 3
  store i32 0, ptr %mInstanceNumber, align 8
  %mDummyName = getelementptr inbounds %"struct.Assimp::D3DS::Node", ptr %this1, i32 0, i32 4
  call void @_ZNSt7__cxx1112basic_stringIcSt11char_traitsIcESaIcEEC1Ev(ptr noundef nonnull align 8 dereferenceable(32) %mDummyName) #10
  %mHierarchyPos = getelementptr inbounds %"struct.Assimp::D3DS::Node", ptr %this1, i32 0, i32 5
  store i16 0, ptr %mHierarchyPos, align 8
  %mHierarchyIndex = getelementptr inbounds %"struct.Assimp::D3DS::Node", ptr %this1, i32 0, i32 6
  store i16 0, ptr %mHierarchyIndex, align 2
  %aRotationKeys = getelementptr inbounds %"struct.Assimp::D3DS::Node", ptr %this1, i32 0, i32 7
  call void @_ZNSt6vectorI9aiQuatKeySaIS0_EEC2Ev(ptr noundef nonnull align 8 dereferenceable(24) %aRotationKeys) #10
  %aPositionKeys = getelementptr inbounds %"struct.Assimp::D3DS::Node", ptr %this1, i32 0, i32 8
  call void @_ZNSt6vectorI11aiVectorKeySaIS0_EEC2Ev(ptr noundef nonnull align 8 dereferenceable(24) %aPositionKeys) #10
  %aScalingKeys = getelementptr inbounds %"struct.Assimp::D3DS::Node", ptr %this1, i32 0, i32 9
  call void @_ZNSt6vectorI11aiVectorKeySaIS0_EEC2Ev(ptr noundef nonnull align 8 dereferenceable(24) %aScalingKeys) #10
  %aTargetPositionKeys = getelementptr inbounds %"struct.Assimp::D3DS::Node", ptr %this1, i32 0, i32 10
  call void @_ZNSt6vectorI11aiVectorKeySaIS0_EEC2Ev(ptr noundef nonnull align 8 dereferenceable(24) %aTargetPositionKeys) #10
  %aCameraRollKeys = getelementptr inbounds %"struct.Assimp::D3DS::Node", ptr %this1, i32 0, i32 11
  call void @_ZNSt6vectorIN6Assimp4D3DS10aiFloatKeyESaIS2_EEC2Ev(ptr noundef nonnull align 8 dereferenceable(24) %aCameraRollKeys) #10
  %vPivot = getelementptr inbounds %"struct.Assimp::D3DS::Node", ptr %this1, i32 0, i32 12
  call void @_ZN10aiVector3tIfEC2Ev(ptr noundef nonnull align 4 dereferenceable(12) %vPivot) #10
  %mInstanceCount = getelementptr inbounds %"struct.Assimp::D3DS::Node", ptr %this1, i32 0, i32 13
  store i32 1, ptr %mInstanceCount, align 4
  %aRotationKeys2 = getelementptr inbounds %"struct.Assimp::D3DS::Node", ptr %this1, i32 0, i32 7
  invoke void @_ZNSt6vectorI9aiQuatKeySaIS0_EE7reserveEm(ptr noundef nonnull align 8 dereferenceable(24) %aRotationKeys2, i64 noundef 20)
          to label %invoke.cont4 unwind label %lpad3

invoke.cont4:                                     ; preds = %invoke.cont
  %aPositionKeys5 = getelementptr inbounds %"struct.Assimp::D3DS::Node", ptr %this1, i32 0, i32 8
  invoke void @_ZNSt6vectorI11aiVectorKeySaIS0_EE7reserveEm(ptr noundef nonnull align 8 dereferenceable(24) %aPositionKeys5, i64 noundef 20)
          to label %invoke.cont6 unwind label %lpad3

invoke.cont6:                                     ; preds = %invoke.cont4
  %aScalingKeys7 = getelementptr inbounds %"struct.Assimp::D3DS::Node", ptr %this1, i32 0, i32 9
  invoke void @_ZNSt6vectorI11aiVectorKeySaIS0_EE7reserveEm(ptr noundef nonnull align 8 dereferenceable(24) %aScalingKeys7, i64 noundef 20)
          to label %invoke.cont8 unwind label %lpad3

invoke.cont8:                                     ; preds = %invoke.cont6
  ret void

lpad:                                             ; preds = %entry
  %1 = landingpad { ptr, i32 }
          cleanup
  %2 = extractvalue { ptr, i32 } %1, 0
  store ptr %2, ptr %exn.slot, align 8
  %3 = extractvalue { ptr, i32 } %1, 1
  store i32 %3, ptr %ehselector.slot, align 4
  br label %ehcleanup

lpad3:                                            ; preds = %invoke.cont6, %invoke.cont4, %invoke.cont
  %4 = landingpad { ptr, i32 }
          cleanup
  %5 = extractvalue { ptr, i32 } %4, 0
  store ptr %5, ptr %exn.slot, align 8
  %6 = extractvalue { ptr, i32 } %4, 1
  store i32 %6, ptr %ehselector.slot, align 4
  call void @_ZNSt6vectorIN6Assimp4D3DS10aiFloatKeyESaIS2_EED2Ev(ptr noundef nonnull align 8 dereferenceable(24) %aCameraRollKeys) #10
  call void @_ZNSt6vectorI11aiVectorKeySaIS0_EED2Ev(ptr noundef nonnull align 8 dereferenceable(24) %aTargetPositionKeys) #10
  call void @_ZNSt6vectorI11aiVectorKeySaIS0_EED2Ev(ptr noundef nonnull align 8 dereferenceable(24) %aScalingKeys) #10
  call void @_ZNSt6vectorI11aiVectorKeySaIS0_EED2Ev(ptr noundef nonnull align 8 dereferenceable(24) %aPositionKeys) #10
  call void @_ZNSt6vectorI9aiQuatKeySaIS0_EED2Ev(ptr noundef nonnull align 8 dereferenceable(24) %aRotationKeys) #10
  call void @_ZNSt7__cxx1112basic_stringIcSt11char_traitsIcESaIcEED1Ev(ptr noundef nonnull align 8 dereferenceable(32) %mDummyName) #10
  call void @_ZNSt7__cxx1112basic_stringIcSt11char_traitsIcESaIcEED1Ev(ptr noundef nonnull align 8 dereferenceable(32) %mName) #10
  br label %ehcleanup

ehcleanup:                                        ; preds = %lpad3, %lpad
  call void @_ZNSt6vectorIPN6Assimp4D3DS4NodeESaIS3_EED2Ev(ptr noundef nonnull align 8 dereferenceable(24) %mChildren) #10
  br label %eh.resume

eh.resume:                                        ; preds = %ehcleanup
  %exn = load ptr, ptr %exn.slot, align 8
  %sel = load i32, ptr %ehselector.slot, align 4
  %lpad.val = insertvalue { ptr, i32 } poison, ptr %exn, 0
  %lpad.val9 = insertvalue { ptr, i32 } %lpad.val, i32 %sel, 1
  resume { ptr, i32 } %lpad.val9
}

; Function Attrs: nounwind
declare noundef nonnull align 8 dereferenceable(32) ptr @_ZNSt7__cxx1112basic_stringIcSt11char_traitsIcESaIcEEaSEOS4_(ptr noundef nonnull align 8 dereferenceable(32), ptr noundef nonnull align 8 dereferenceable(32)) #2

; Function Attrs: mustprogress uwtable
define hidden void @_ZN6Assimp19Discreet3DSImporter14ParseMainChunkEv(ptr noundef nonnull align 8 dereferenceable(162) %this) #3 align 2 {
entry:
  %this.addr = alloca ptr, align 8
  %chunk = alloca %"struct.Assimp::D3DS::Discreet3DS::Chunk", align 1
  %chunkSize = alloca i32, align 4
  %oldReadLimit = alloca i32, align 4
  store ptr %this, ptr %this.addr, align 8
  %this1 = load ptr, ptr %this.addr, align 8
  br label %while.body

while.body:                                       ; preds = %if.end19, %if.then4, %entry
  %stream = getelementptr inbounds %"class.Assimp::Discreet3DSImporter", ptr %this1, i32 0, i32 1
  %0 = load ptr, ptr %stream, align 8
  %call = call noundef i64 @_ZNK6Assimp12StreamReaderILb0ELb0EE23GetRemainingSizeToLimitEv(ptr noundef nonnull align 8 dereferenceable(49) %0)
  %cmp = icmp ult i64 %call, 6
  br i1 %cmp, label %if.then, label %if.end

if.then:                                          ; preds = %while.body
  br label %return

if.end:                                           ; preds = %while.body
  call void @_ZN6Assimp19Discreet3DSImporter9ReadChunkEPNS_4D3DS11Discreet3DS5ChunkE(ptr noundef nonnull align 8 dereferenceable(162) %this1, ptr noundef %chunk)
  %Size = getelementptr inbounds %"struct.Assimp::D3DS::Discreet3DS::Chunk", ptr %chunk, i32 0, i32 1
  %1 = load i32, ptr %Size, align 1
  %conv = zext i32 %1 to i64
  %sub = sub i64 %conv, 6
  %conv2 = trunc i64 %sub to i32
  store i32 %conv2, ptr %chunkSize, align 4
  %2 = load i32, ptr %chunkSize, align 4
  %cmp3 = icmp sle i32 %2, 0
  br i1 %cmp3, label %if.then4, label %if.end5

if.then4:                                         ; preds = %if.end
  br label %while.body, !llvm.loop !4

if.end5:                                          ; preds = %if.end
  %stream6 = getelementptr inbounds %"class.Assimp::Discreet3DSImporter", ptr %this1, i32 0, i32 1
  %3 = load ptr, ptr %stream6, align 8
  %stream7 = getelementptr inbounds %"class.Assimp::Discreet3DSImporter", ptr %this1, i32 0, i32 1
  %4 = load ptr, ptr %stream7, align 8
  %call8 = call noundef i32 @_ZNK6Assimp12StreamReaderILb0ELb0EE13GetCurrentPosEv(ptr noundef nonnull align 8 dereferenceable(49) %4)
  %5 = load i32, ptr %chunkSize, align 4
  %add = add nsw i32 %call8, %5
  %call9 = call noundef i32 @_ZN6Assimp12StreamReaderILb0ELb0EE12SetReadLimitEj(ptr noundef nonnull align 8 dereferenceable(49) %3, i32 noundef %add)
  store i32 %call9, ptr %oldReadLimit, align 4
  %Flag = getelementptr inbounds %"struct.Assimp::D3DS::Discreet3DS::Chunk", ptr %chunk, i32 0, i32 0
  %6 = load i16, ptr %Flag, align 1
  %conv10 = zext i16 %6 to i32
  switch i32 %conv10, label %sw.epilog [
    i32 49725, label %sw.bb
    i32 19789, label %sw.bb11
  ]

sw.bb:                                            ; preds = %if.end5
  %bIsPrj = getelementptr inbounds %"class.Assimp::Discreet3DSImporter", ptr %this1, i32 0, i32 11
  store i8 1, ptr %bIsPrj, align 1
  br label %sw.epilog

sw.bb11:                                          ; preds = %if.end5
  call void @_ZN6Assimp19Discreet3DSImporter16ParseEditorChunkEv(ptr noundef nonnull align 8 dereferenceable(162) %this1)
  br label %sw.epilog

sw.epilog:                                        ; preds = %sw.bb11, %sw.bb, %if.end5
  %stream12 = getelementptr inbounds %"class.Assimp::Discreet3DSImporter", ptr %this1, i32 0, i32 1
  %7 = load ptr, ptr %stream12, align 8
  call void @_ZN6Assimp12StreamReaderILb0ELb0EE15SkipToReadLimitEv(ptr noundef nonnull align 8 dereferenceable(49) %7)
  %stream13 = getelementptr inbounds %"class.Assimp::Discreet3DSImporter", ptr %this1, i32 0, i32 1
  %8 = load ptr, ptr %stream13, align 8
  %9 = load i32, ptr %oldReadLimit, align 4
  %call14 = call noundef i32 @_ZN6Assimp12StreamReaderILb0ELb0EE12SetReadLimitEj(ptr noundef nonnull align 8 dereferenceable(49) %8, i32 noundef %9)
  %stream15 = getelementptr inbounds %"class.Assimp::Discreet3DSImporter", ptr %this1, i32 0, i32 1
  %10 = load ptr, ptr %stream15, align 8
  %call16 = call noundef i64 @_ZNK6Assimp12StreamReaderILb0ELb0EE23GetRemainingSizeToLimitEv(ptr noundef nonnull align 8 dereferenceable(49) %10)
  %cmp17 = icmp eq i64 %call16, 0
  br i1 %cmp17, label %if.then18, label %if.end19

if.then18:                                        ; preds = %sw.epilog
  br label %return

if.end19:                                         ; preds = %sw.epilog
  br label %while.body, !llvm.loop !4

return:                                           ; preds = %if.then18, %if.then
  ret void
}

; Function Attrs: mustprogress nounwind uwtable
define linkonce_odr hidden ptr @_ZNSt6vectorIN6Assimp4D3DS4MeshESaIS2_EE5beginEv(ptr noundef nonnull align 8 dereferenceable(24) %this) #0 comdat align 2 {
entry:
  %retval = alloca %"class.__gnu_cxx::__normal_iterator", align 8
  %this.addr = alloca ptr, align 8
  store ptr %this, ptr %this.addr, align 8
  %this1 = load ptr, ptr %this.addr, align 8
  %_M_impl = getelementptr inbounds %"struct.std::_Vector_base.10", ptr %this1, i32 0, i32 0
  %_M_start = getelementptr inbounds %"struct.std::_Vector_base<Assimp::D3DS::Mesh, std::allocator<Assimp::D3DS::Mesh>>::_Vector_impl_data", ptr %_M_impl, i32 0, i32 0
  call void @_ZN9__gnu_cxx17__normal_iteratorIPN6Assimp4D3DS4MeshESt6vectorIS3_SaIS3_EEEC2ERKS4_(ptr noundef nonnull align 8 dereferenceable(8) %retval, ptr noundef nonnull align 8 dereferenceable(8) %_M_start) #10
  %coerce.dive = getelementptr inbounds %"class.__gnu_cxx::__normal_iterator", ptr %retval, i32 0, i32 0
  %0 = load ptr, ptr %coerce.dive, align 8
  ret ptr %0
}

; Function Attrs: mustprogress nounwind uwtable
define linkonce_odr hidden ptr @_ZNSt6vectorIN6Assimp4D3DS4MeshESaIS2_EE3endEv(ptr noundef nonnull align 8 dereferenceable(24) %this) #0 comdat align 2 {
entry:
  %retval = alloca %"class.__gnu_cxx::__normal_iterator", align 8
  %this.addr = alloca ptr, align 8
  store ptr %this, ptr %this.addr, align 8
  %this1 = load ptr, ptr %this.addr, align 8
  %_M_impl = getelementptr inbounds %"struct.std::_Vector_base.10", ptr %this1, i32 0, i32 0
  %_M_finish = getelementptr inbounds %"struct.std::_Vector_base<Assimp::D3DS::Mesh, std::allocator<Assimp::D3DS::Mesh>>::_Vector_impl_data", ptr %_M_impl, i32 0, i32 1
  call void @_ZN9__gnu_cxx17__normal_iteratorIPN6Assimp4D3DS4MeshESt6vectorIS3_SaIS3_EEEC2ERKS4_(ptr noundef nonnull align 8 dereferenceable(8) %retval, ptr noundef nonnull align 8 dereferenceable(8) %_M_finish) #10
  %coerce.dive = getelementptr inbounds %"class.__gnu_cxx::__normal_iterator", ptr %retval, i32 0, i32 0
  %0 = load ptr, ptr %coerce.dive, align 8
  ret ptr %0
}

; Function Attrs: mustprogress nounwind uwtable
define linkonce_odr hidden noundef zeroext i1 @_ZN9__gnu_cxxneIPN6Assimp4D3DS4MeshESt6vectorIS3_SaIS3_EEEEbRKNS_17__normal_iteratorIT_T0_EESD_(ptr noundef nonnull align 8 dereferenceable(8) %__lhs, ptr noundef nonnull align 8 dereferenceable(8) %__rhs) #0 comdat {
entry:
  %__lhs.addr = alloca ptr, align 8
  %__rhs.addr = alloca ptr, align 8
  store ptr %__lhs, ptr %__lhs.addr, align 8
  store ptr %__rhs, ptr %__rhs.addr, align 8
  %0 = load ptr, ptr %__lhs.addr, align 8
  %call = call noundef nonnull align 8 dereferenceable(8) ptr @_ZNK9__gnu_cxx17__normal_iteratorIPN6Assimp4D3DS4MeshESt6vectorIS3_SaIS3_EEE4baseEv(ptr noundef nonnull align 8 dereferenceable(8) %0) #10
  %1 = load ptr, ptr %call, align 8
  %2 = load ptr, ptr %__rhs.addr, align 8
  %call1 = call noundef nonnull align 8 dereferenceable(8) ptr @_ZNK9__gnu_cxx17__normal_iteratorIPN6Assimp4D3DS4MeshESt6vectorIS3_SaIS3_EEE4baseEv(ptr noundef nonnull align 8 dereferenceable(8) %2) #10
  %3 = load ptr, ptr %call1, align 8
  %cmp = icmp ne ptr %1, %3
  ret i1 %cmp
}

; Function Attrs: mustprogress nounwind uwtable
define linkonce_odr hidden noundef nonnull align 8 dereferenceable(216) ptr @_ZNK9__gnu_cxx17__normal_iteratorIPN6Assimp4D3DS4MeshESt6vectorIS3_SaIS3_EEEdeEv(ptr noundef nonnull align 8 dereferenceable(8) %this) #0 comdat align 2 {
entry:
  %this.addr = alloca ptr, align 8
  store ptr %this, ptr %this.addr, align 8
  %this1 = load ptr, ptr %this.addr, align 8
  %_M_current = getelementptr inbounds %"class.__gnu_cxx::__normal_iterator", ptr %this1, i32 0, i32 0
  %0 = load ptr, ptr %_M_current, align 8
  ret ptr %0
}

; Function Attrs: mustprogress nounwind uwtable
define linkonce_odr hidden noundef i64 @_ZNKSt6vectorIN6Assimp4D3DS4FaceESaIS2_EE4sizeEv(ptr noundef nonnull align 8 dereferenceable(24) %this) #0 comdat align 2 {
entry:
  %this.addr = alloca ptr, align 8
  store ptr %this, ptr %this.addr, align 8
  %this1 = load ptr, ptr %this.addr, align 8
  %_M_impl = getelementptr inbounds %"struct.std::_Vector_base.50", ptr %this1, i32 0, i32 0
  %_M_finish = getelementptr inbounds %"struct.std::_Vector_base<Assimp::D3DS::Face, std::allocator<Assimp::D3DS::Face>>::_Vector_impl_data", ptr %_M_impl, i32 0, i32 1
  %0 = load ptr, ptr %_M_finish, align 8
  %_M_impl2 = getelementptr inbounds %"struct.std::_Vector_base.50", ptr %this1, i32 0, i32 0
  %_M_start = getelementptr inbounds %"struct.std::_Vector_base<Assimp::D3DS::Face, std::allocator<Assimp::D3DS::Face>>::_Vector_impl_data", ptr %_M_impl2, i32 0, i32 0
  %1 = load ptr, ptr %_M_start, align 8
  %sub.ptr.lhs.cast = ptrtoint ptr %0 to i64
  %sub.ptr.rhs.cast = ptrtoint ptr %1 to i64
  %sub.ptr.sub = sub i64 %sub.ptr.lhs.cast, %sub.ptr.rhs.cast
  %sub.ptr.div = sdiv exact i64 %sub.ptr.sub, 16
  ret i64 %sub.ptr.div
}

; Function Attrs: mustprogress nounwind uwtable
define linkonce_odr hidden noundef i64 @_ZNKSt6vectorI10aiVector3tIfESaIS1_EE4sizeEv(ptr noundef nonnull align 8 dereferenceable(24) %this) #0 comdat align 2 {
entry:
  %this.addr = alloca ptr, align 8
  store ptr %this, ptr %this.addr, align 8
  %this1 = load ptr, ptr %this.addr, align 8
  %_M_impl = getelementptr inbounds %"struct.std::_Vector_base.45", ptr %this1, i32 0, i32 0
  %_M_finish = getelementptr inbounds %"struct.std::_Vector_base<aiVector3t<float>, std::allocator<aiVector3t<float>>>::_Vector_impl_data", ptr %_M_impl, i32 0, i32 1
  %0 = load ptr, ptr %_M_finish, align 8
  %_M_impl2 = getelementptr inbounds %"struct.std::_Vector_base.45", ptr %this1, i32 0, i32 0
  %_M_start = getelementptr inbounds %"struct.std::_Vector_base<aiVector3t<float>, std::allocator<aiVector3t<float>>>::_Vector_impl_data", ptr %_M_impl2, i32 0, i32 0
  %1 = load ptr, ptr %_M_start, align 8
  %sub.ptr.lhs.cast = ptrtoint ptr %0 to i64
  %sub.ptr.rhs.cast = ptrtoint ptr %1 to i64
  %sub.ptr.sub = sub i64 %sub.ptr.lhs.cast, %sub.ptr.rhs.cast
  %sub.ptr.div = sdiv exact i64 %sub.ptr.sub, 12
  ret i64 %sub.ptr.div
}

; Function Attrs: mustprogress uwtable
define linkonce_odr void @_ZN17DeadlyImportErrorC2IJRA42_KcRKNSt7__cxx1112basic_stringIcSt11char_traitsIcESaIcEEEEEEDpOT_(ptr noundef nonnull align 8 dereferenceable(16) %this, ptr noundef nonnull align 1 dereferenceable(42) %args, ptr noundef nonnull align 8 dereferenceable(32) %args1) unnamed_addr #3 comdat align 2 personality ptr @__gxx_personality_v0 {
entry:
  %this.addr = alloca ptr, align 8
  %args.addr = alloca ptr, align 8
  %args.addr2 = alloca ptr, align 8
  %agg.tmp = alloca %"class.Assimp::Formatter::basic_formatter", align 8
  %exn.slot = alloca ptr, align 8
  %ehselector.slot = alloca i32, align 4
  store ptr %this, ptr %this.addr, align 8
  store ptr %args, ptr %args.addr, align 8
  store ptr %args1, ptr %args.addr2, align 8
  %this3 = load ptr, ptr %this.addr, align 8
  call void @_ZN6Assimp9Formatter15basic_formatterIcSt11char_traitsIcESaIcEEC2Ev(ptr noundef nonnull align 8 dereferenceable(376) %agg.tmp)
  %0 = load ptr, ptr %args.addr, align 8
  %1 = load ptr, ptr %args.addr2, align 8
  invoke void @_ZN15DeadlyErrorBaseC2IJRKNSt7__cxx1112basic_stringIcSt11char_traitsIcESaIcEEEERA42_KcEEN6Assimp9Formatter15basic_formatterIcS4_S5_EEOT0_DpOT_(ptr noundef nonnull align 8 dereferenceable(16) %this3, ptr noundef %agg.tmp, ptr noundef nonnull align 1 dereferenceable(42) %0, ptr noundef nonnull align 8 dereferenceable(32) %1)
          to label %invoke.cont unwind label %lpad

invoke.cont:                                      ; preds = %entry
  call void @_ZN6Assimp9Formatter15basic_formatterIcSt11char_traitsIcESaIcEED2Ev(ptr noundef nonnull align 8 dereferenceable(376) %agg.tmp) #10
  store ptr getelementptr inbounds ({ [5 x ptr] }, ptr @_ZTV17DeadlyImportError, i32 0, inrange i32 0, i32 2), ptr %this3, align 8
  ret void

lpad:                                             ; preds = %entry
  %2 = landingpad { ptr, i32 }
          cleanup
  %3 = extractvalue { ptr, i32 } %2, 0
  store ptr %3, ptr %exn.slot, align 8
  %4 = extractvalue { ptr, i32 } %2, 1
  store i32 %4, ptr %ehselector.slot, align 4
  call void @_ZN6Assimp9Formatter15basic_formatterIcSt11char_traitsIcESaIcEED2Ev(ptr noundef nonnull align 8 dereferenceable(376) %agg.tmp) #10
  br label %eh.resume

eh.resume:                                        ; preds = %lpad
  %exn = load ptr, ptr %exn.slot, align 8
  %sel = load i32, ptr %ehselector.slot, align 4
  %lpad.val = insertvalue { ptr, i32 } poison, ptr %exn, 0
  %lpad.val4 = insertvalue { ptr, i32 } %lpad.val, i32 %sel, 1
  resume { ptr, i32 } %lpad.val4
}

declare void @_ZN6Assimp19Discreet3DSImporter12CheckIndicesERNS_4D3DS4MeshE(ptr noundef nonnull align 8 dereferenceable(162), ptr noundef nonnull align 8 dereferenceable(216)) #4

declare void @_ZN6Assimp19Discreet3DSImporter10MakeUniqueERNS_4D3DS4MeshE(ptr noundef nonnull align 8 dereferenceable(162), ptr noundef nonnull align 8 dereferenceable(216)) #4

; Function Attrs: mustprogress uwtable
define linkonce_odr hidden void @_Z34ComputeNormalsWithSmoothingsGroupsIN6Assimp4D3DS4FaceEEvR23MeshWithSmoothingGroupsIT_E(ptr noundef nonnull align 8 dereferenceable(72) %sMesh) #5 comdat personality ptr @__gxx_personality_v0 {
entry:
  %sMesh.addr = alloca ptr, align 8
  %ref.tmp = alloca %class.aiVector3t, align 4
  %a = alloca i32, align 4
  %face = alloca ptr, align 8
  %pV1 = alloca ptr, align 8
  %pV2 = alloca ptr, align 8
  %pV3 = alloca ptr, align 8
  %pDelta1 = alloca %class.aiVector3t, align 4
  %tmp.coerce = alloca { <2 x float>, float }, align 8
  %pDelta2 = alloca %class.aiVector3t, align 4
  %tmp.coerce20 = alloca { <2 x float>, float }, align 8
  %vNor = alloca %class.aiVector3t, align 4
  %tmp.coerce22 = alloca { <2 x float>, float }, align 8
  %c = alloca i32, align 4
  %minVec = alloca %class.aiVector3t, align 4
  %maxVec = alloca %class.aiVector3t, align 4
  %a34 = alloca i32, align 4
  %posEpsilon = alloca float, align 4
  %ref.tmp83 = alloca %class.aiVector3t, align 4
  %tmp.coerce85 = alloca { <2 x float>, float }, align 8
  %avNormals = alloca %"class.std::vector.44", align 8
  %exn.slot = alloca ptr, align 8
  %ehselector.slot = alloca i32, align 4
  %sSort = alloca %"class.Assimp::SGSpatialSort", align 8
  %i = alloca %"class.__gnu_cxx::__normal_iterator.66", align 8
  %ref.tmp93 = alloca %"class.__gnu_cxx::__normal_iterator.66", align 8
  %c99 = alloca i32, align 4
  %vertexDone = alloca %"class.std::vector.76", align 8
  %ref.tmp126 = alloca i8, align 1
  %ref.tmp127 = alloca %"class.std::allocator.80", align 1
  %i130 = alloca %"class.__gnu_cxx::__normal_iterator.66", align 8
  %ref.tmp135 = alloca %"class.__gnu_cxx::__normal_iterator.66", align 8
  %poResult = alloca %"class.std::vector.54", align 8
  %c141 = alloca i32, align 4
  %idx = alloca i32, align 4
  %ref.tmp149 = alloca %"struct.std::_Bit_reference", align 8
  %vNormals = alloca %class.aiVector3t, align 4
  %a161 = alloca %"class.__gnu_cxx::__normal_iterator.83", align 8
  %ref.tmp162 = alloca %"class.__gnu_cxx::__normal_iterator.84", align 8
  %ref.tmp166 = alloca %"class.__gnu_cxx::__normal_iterator.84", align 8
  %a182 = alloca %"class.__gnu_cxx::__normal_iterator.83", align 8
  %ref.tmp183 = alloca %"class.__gnu_cxx::__normal_iterator.84", align 8
  %ref.tmp187 = alloca %"class.__gnu_cxx::__normal_iterator.84", align 8
  %ref.tmp195 = alloca %"struct.std::_Bit_reference", align 8
  store ptr %sMesh, ptr %sMesh.addr, align 8
  %0 = load ptr, ptr %sMesh.addr, align 8
  %mNormals = getelementptr inbounds %struct.MeshWithSmoothingGroups, ptr %0, i32 0, i32 2
  %1 = load ptr, ptr %sMesh.addr, align 8
  %mPositions = getelementptr inbounds %struct.MeshWithSmoothingGroups, ptr %1, i32 0, i32 0
  %call = call noundef i64 @_ZNKSt6vectorI10aiVector3tIfESaIS1_EE4sizeEv(ptr noundef nonnull align 8 dereferenceable(24) %mPositions) #10
  call void @_ZN10aiVector3tIfEC2Ev(ptr noundef nonnull align 4 dereferenceable(12) %ref.tmp) #10
  call void @_ZNSt6vectorI10aiVector3tIfESaIS1_EE6resizeEmRKS1_(ptr noundef nonnull align 8 dereferenceable(24) %mNormals, i64 noundef %call, ptr noundef nonnull align 4 dereferenceable(12) %ref.tmp)
  store i32 0, ptr %a, align 4
  br label %for.cond

for.cond:                                         ; preds = %for.inc31, %entry
  %2 = load i32, ptr %a, align 4
  %conv = zext i32 %2 to i64
  %3 = load ptr, ptr %sMesh.addr, align 8
  %mFaces = getelementptr inbounds %struct.MeshWithSmoothingGroups, ptr %3, i32 0, i32 1
  %call1 = call noundef i64 @_ZNKSt6vectorIN6Assimp4D3DS4FaceESaIS2_EE4sizeEv(ptr noundef nonnull align 8 dereferenceable(24) %mFaces) #10
  %cmp = icmp ult i64 %conv, %call1
  br i1 %cmp, label %for.body, label %for.end33

for.body:                                         ; preds = %for.cond
  %4 = load ptr, ptr %sMesh.addr, align 8
  %mFaces2 = getelementptr inbounds %struct.MeshWithSmoothingGroups, ptr %4, i32 0, i32 1
  %5 = load i32, ptr %a, align 4
  %conv3 = zext i32 %5 to i64
  %call4 = call noundef nonnull align 4 dereferenceable(16) ptr @_ZNSt6vectorIN6Assimp4D3DS4FaceESaIS2_EEixEm(ptr noundef nonnull align 8 dereferenceable(24) %mFaces2, i64 noundef %conv3) #10
  store ptr %call4, ptr %face, align 8
  %6 = load ptr, ptr %sMesh.addr, align 8
  %mPositions5 = getelementptr inbounds %struct.MeshWithSmoothingGroups, ptr %6, i32 0, i32 0
  %7 = load ptr, ptr %face, align 8
  %mIndices = getelementptr inbounds %struct.FaceWithSmoothingGroup, ptr %7, i32 0, i32 0
  %arrayidx = getelementptr inbounds [3 x i32], ptr %mIndices, i64 0, i64 0
  %8 = load i32, ptr %arrayidx, align 4
  %conv6 = zext i32 %8 to i64
  %call7 = call noundef nonnull align 4 dereferenceable(12) ptr @_ZNSt6vectorI10aiVector3tIfESaIS1_EEixEm(ptr noundef nonnull align 8 dereferenceable(24) %mPositions5, i64 noundef %conv6) #10
  store ptr %call7, ptr %pV1, align 8
  %9 = load ptr, ptr %sMesh.addr, align 8
  %mPositions8 = getelementptr inbounds %struct.MeshWithSmoothingGroups, ptr %9, i32 0, i32 0
  %10 = load ptr, ptr %face, align 8
  %mIndices9 = getelementptr inbounds %struct.FaceWithSmoothingGroup, ptr %10, i32 0, i32 0
  %arrayidx10 = getelementptr inbounds [3 x i32], ptr %mIndices9, i64 0, i64 1
  %11 = load i32, ptr %arrayidx10, align 4
  %conv11 = zext i32 %11 to i64
  %call12 = call noundef nonnull align 4 dereferenceable(12) ptr @_ZNSt6vectorI10aiVector3tIfESaIS1_EEixEm(ptr noundef nonnull align 8 dereferenceable(24) %mPositions8, i64 noundef %conv11) #10
  store ptr %call12, ptr %pV2, align 8
  %12 = load ptr, ptr %sMesh.addr, align 8
  %mPositions13 = getelementptr inbounds %struct.MeshWithSmoothingGroups, ptr %12, i32 0, i32 0
  %13 = load ptr, ptr %face, align 8
  %mIndices14 = getelementptr inbounds %struct.FaceWithSmoothingGroup, ptr %13, i32 0, i32 0
  %arrayidx15 = getelementptr inbounds [3 x i32], ptr %mIndices14, i64 0, i64 2
  %14 = load i32, ptr %arrayidx15, align 4
  %conv16 = zext i32 %14 to i64
  %call17 = call noundef nonnull align 4 dereferenceable(12) ptr @_ZNSt6vectorI10aiVector3tIfESaIS1_EEixEm(ptr noundef nonnull align 8 dereferenceable(24) %mPositions13, i64 noundef %conv16) #10
  store ptr %call17, ptr %pV3, align 8
  %15 = load ptr, ptr %pV2, align 8
  %16 = load ptr, ptr %pV1, align 8
  %call18 = call { <2 x float>, float } @_ZmiIfE10aiVector3tIT_ERKS2_S4_(ptr noundef nonnull align 4 dereferenceable(12) %15, ptr noundef nonnull align 4 dereferenceable(12) %16)
  store { <2 x float>, float } %call18, ptr %tmp.coerce, align 8
  call void @llvm.memcpy.p0.p0.i64(ptr align 4 %pDelta1, ptr align 8 %tmp.coerce, i64 12, i1 false)
  %17 = load ptr, ptr %pV3, align 8
  %18 = load ptr, ptr %pV1, align 8
  %call19 = call { <2 x float>, float } @_ZmiIfE10aiVector3tIT_ERKS2_S4_(ptr noundef nonnull align 4 dereferenceable(12) %17, ptr noundef nonnull align 4 dereferenceable(12) %18)
  store { <2 x float>, float } %call19, ptr %tmp.coerce20, align 8
  call void @llvm.memcpy.p0.p0.i64(ptr align 4 %pDelta2, ptr align 8 %tmp.coerce20, i64 12, i1 false)
  %call21 = call { <2 x float>, float } @_ZeoIfE10aiVector3tIT_ERKS2_S4_(ptr noundef nonnull align 4 dereferenceable(12) %pDelta1, ptr noundef nonnull align 4 dereferenceable(12) %pDelta2)
  store { <2 x float>, float } %call21, ptr %tmp.coerce22, align 8
  call void @llvm.memcpy.p0.p0.i64(ptr align 4 %vNor, ptr align 8 %tmp.coerce22, i64 12, i1 false)
  store i32 0, ptr %c, align 4
  br label %for.cond23

for.cond23:                                       ; preds = %for.inc, %for.body
  %19 = load i32, ptr %c, align 4
  %cmp24 = icmp ult i32 %19, 3
  br i1 %cmp24, label %for.body25, label %for.end

for.body25:                                       ; preds = %for.cond23
  %20 = load ptr, ptr %sMesh.addr, align 8
  %mNormals26 = getelementptr inbounds %struct.MeshWithSmoothingGroups, ptr %20, i32 0, i32 2
  %21 = load ptr, ptr %face, align 8
  %mIndices27 = getelementptr inbounds %struct.FaceWithSmoothingGroup, ptr %21, i32 0, i32 0
  %22 = load i32, ptr %c, align 4
  %idxprom = zext i32 %22 to i64
  %arrayidx28 = getelementptr inbounds [3 x i32], ptr %mIndices27, i64 0, i64 %idxprom
  %23 = load i32, ptr %arrayidx28, align 4
  %conv29 = zext i32 %23 to i64
  %call30 = call noundef nonnull align 4 dereferenceable(12) ptr @_ZNSt6vectorI10aiVector3tIfESaIS1_EEixEm(ptr noundef nonnull align 8 dereferenceable(24) %mNormals26, i64 noundef %conv29) #10
  call void @llvm.memcpy.p0.p0.i64(ptr align 4 %call30, ptr align 4 %vNor, i64 12, i1 false)
  br label %for.inc

for.inc:                                          ; preds = %for.body25
  %24 = load i32, ptr %c, align 4
  %inc = add i32 %24, 1
  store i32 %inc, ptr %c, align 4
  br label %for.cond23, !llvm.loop !6

for.end:                                          ; preds = %for.cond23
  br label %for.inc31

for.inc31:                                        ; preds = %for.end
  %25 = load i32, ptr %a, align 4
  %inc32 = add i32 %25, 1
  store i32 %inc32, ptr %a, align 4
  br label %for.cond, !llvm.loop !7

for.end33:                                        ; preds = %for.cond
  call void @_ZN10aiVector3tIfEC2Efff(ptr noundef nonnull align 4 dereferenceable(12) %minVec, float noundef 1.000000e+10, float noundef 1.000000e+10, float noundef 1.000000e+10)
  call void @_ZN10aiVector3tIfEC2Efff(ptr noundef nonnull align 4 dereferenceable(12) %maxVec, float noundef -1.000000e+10, float noundef -1.000000e+10, float noundef -1.000000e+10)
  store i32 0, ptr %a34, align 4
  br label %for.cond35

for.cond35:                                       ; preds = %for.inc80, %for.end33
  %26 = load i32, ptr %a34, align 4
  %conv36 = zext i32 %26 to i64
  %27 = load ptr, ptr %sMesh.addr, align 8
  %mPositions37 = getelementptr inbounds %struct.MeshWithSmoothingGroups, ptr %27, i32 0, i32 0
  %call38 = call noundef i64 @_ZNKSt6vectorI10aiVector3tIfESaIS1_EE4sizeEv(ptr noundef nonnull align 8 dereferenceable(24) %mPositions37) #10
  %cmp39 = icmp ult i64 %conv36, %call38
  br i1 %cmp39, label %for.body40, label %for.end82

for.body40:                                       ; preds = %for.cond35
  %x = getelementptr inbounds %class.aiVector3t, ptr %minVec, i32 0, i32 0
  %28 = load ptr, ptr %sMesh.addr, align 8
  %mPositions41 = getelementptr inbounds %struct.MeshWithSmoothingGroups, ptr %28, i32 0, i32 0
  %29 = load i32, ptr %a34, align 4
  %conv42 = zext i32 %29 to i64
  %call43 = call noundef nonnull align 4 dereferenceable(12) ptr @_ZNSt6vectorI10aiVector3tIfESaIS1_EEixEm(ptr noundef nonnull align 8 dereferenceable(24) %mPositions41, i64 noundef %conv42) #10
  %x44 = getelementptr inbounds %class.aiVector3t, ptr %call43, i32 0, i32 0
  %call45 = call noundef nonnull align 4 dereferenceable(4) ptr @_ZSt3minIfERKT_S2_S2_(ptr noundef nonnull align 4 dereferenceable(4) %x, ptr noundef nonnull align 4 dereferenceable(4) %x44)
  %30 = load float, ptr %call45, align 4
  %x46 = getelementptr inbounds %class.aiVector3t, ptr %minVec, i32 0, i32 0
  store float %30, ptr %x46, align 4
  %y = getelementptr inbounds %class.aiVector3t, ptr %minVec, i32 0, i32 1
  %31 = load ptr, ptr %sMesh.addr, align 8
  %mPositions47 = getelementptr inbounds %struct.MeshWithSmoothingGroups, ptr %31, i32 0, i32 0
  %32 = load i32, ptr %a34, align 4
  %conv48 = zext i32 %32 to i64
  %call49 = call noundef nonnull align 4 dereferenceable(12) ptr @_ZNSt6vectorI10aiVector3tIfESaIS1_EEixEm(ptr noundef nonnull align 8 dereferenceable(24) %mPositions47, i64 noundef %conv48) #10
  %y50 = getelementptr inbounds %class.aiVector3t, ptr %call49, i32 0, i32 1
  %call51 = call noundef nonnull align 4 dereferenceable(4) ptr @_ZSt3minIfERKT_S2_S2_(ptr noundef nonnull align 4 dereferenceable(4) %y, ptr noundef nonnull align 4 dereferenceable(4) %y50)
  %33 = load float, ptr %call51, align 4
  %y52 = getelementptr inbounds %class.aiVector3t, ptr %minVec, i32 0, i32 1
  store float %33, ptr %y52, align 4
  %z = getelementptr inbounds %class.aiVector3t, ptr %minVec, i32 0, i32 2
  %34 = load ptr, ptr %sMesh.addr, align 8
  %mPositions53 = getelementptr inbounds %struct.MeshWithSmoothingGroups, ptr %34, i32 0, i32 0
  %35 = load i32, ptr %a34, align 4
  %conv54 = zext i32 %35 to i64
  %call55 = call noundef nonnull align 4 dereferenceable(12) ptr @_ZNSt6vectorI10aiVector3tIfESaIS1_EEixEm(ptr noundef nonnull align 8 dereferenceable(24) %mPositions53, i64 noundef %conv54) #10
  %z56 = getelementptr inbounds %class.aiVector3t, ptr %call55, i32 0, i32 2
  %call57 = call noundef nonnull align 4 dereferenceable(4) ptr @_ZSt3minIfERKT_S2_S2_(ptr noundef nonnull align 4 dereferenceable(4) %z, ptr noundef nonnull align 4 dereferenceable(4) %z56)
  %36 = load float, ptr %call57, align 4
  %z58 = getelementptr inbounds %class.aiVector3t, ptr %minVec, i32 0, i32 2
  store float %36, ptr %z58, align 4
  %x59 = getelementptr inbounds %class.aiVector3t, ptr %maxVec, i32 0, i32 0
  %37 = load ptr, ptr %sMesh.addr, align 8
  %mPositions60 = getelementptr inbounds %struct.MeshWithSmoothingGroups, ptr %37, i32 0, i32 0
  %38 = load i32, ptr %a34, align 4
  %conv61 = zext i32 %38 to i64
  %call62 = call noundef nonnull align 4 dereferenceable(12) ptr @_ZNSt6vectorI10aiVector3tIfESaIS1_EEixEm(ptr noundef nonnull align 8 dereferenceable(24) %mPositions60, i64 noundef %conv61) #10
  %x63 = getelementptr inbounds %class.aiVector3t, ptr %call62, i32 0, i32 0
  %call64 = call noundef nonnull align 4 dereferenceable(4) ptr @_ZSt3maxIfERKT_S2_S2_(ptr noundef nonnull align 4 dereferenceable(4) %x59, ptr noundef nonnull align 4 dereferenceable(4) %x63)
  %39 = load float, ptr %call64, align 4
  %x65 = getelementptr inbounds %class.aiVector3t, ptr %maxVec, i32 0, i32 0
  store float %39, ptr %x65, align 4
  %y66 = getelementptr inbounds %class.aiVector3t, ptr %maxVec, i32 0, i32 1
  %40 = load ptr, ptr %sMesh.addr, align 8
  %mPositions67 = getelementptr inbounds %struct.MeshWithSmoothingGroups, ptr %40, i32 0, i32 0
  %41 = load i32, ptr %a34, align 4
  %conv68 = zext i32 %41 to i64
  %call69 = call noundef nonnull align 4 dereferenceable(12) ptr @_ZNSt6vectorI10aiVector3tIfESaIS1_EEixEm(ptr noundef nonnull align 8 dereferenceable(24) %mPositions67, i64 noundef %conv68) #10
  %y70 = getelementptr inbounds %class.aiVector3t, ptr %call69, i32 0, i32 1
  %call71 = call noundef nonnull align 4 dereferenceable(4) ptr @_ZSt3maxIfERKT_S2_S2_(ptr noundef nonnull align 4 dereferenceable(4) %y66, ptr noundef nonnull align 4 dereferenceable(4) %y70)
  %42 = load float, ptr %call71, align 4
  %y72 = getelementptr inbounds %class.aiVector3t, ptr %maxVec, i32 0, i32 1
  store float %42, ptr %y72, align 4
  %z73 = getelementptr inbounds %class.aiVector3t, ptr %maxVec, i32 0, i32 2
  %43 = load ptr, ptr %sMesh.addr, align 8
  %mPositions74 = getelementptr inbounds %struct.MeshWithSmoothingGroups, ptr %43, i32 0, i32 0
  %44 = load i32, ptr %a34, align 4
  %conv75 = zext i32 %44 to i64
  %call76 = call noundef nonnull align 4 dereferenceable(12) ptr @_ZNSt6vectorI10aiVector3tIfESaIS1_EEixEm(ptr noundef nonnull align 8 dereferenceable(24) %mPositions74, i64 noundef %conv75) #10
  %z77 = getelementptr inbounds %class.aiVector3t, ptr %call76, i32 0, i32 2
  %call78 = call noundef nonnull align 4 dereferenceable(4) ptr @_ZSt3maxIfERKT_S2_S2_(ptr noundef nonnull align 4 dereferenceable(4) %z73, ptr noundef nonnull align 4 dereferenceable(4) %z77)
  %45 = load float, ptr %call78, align 4
  %z79 = getelementptr inbounds %class.aiVector3t, ptr %maxVec, i32 0, i32 2
  store float %45, ptr %z79, align 4
  br label %for.inc80

for.inc80:                                        ; preds = %for.body40
  %46 = load i32, ptr %a34, align 4
  %inc81 = add i32 %46, 1
  store i32 %inc81, ptr %a34, align 4
  br label %for.cond35, !llvm.loop !8

for.end82:                                        ; preds = %for.cond35
  %call84 = call { <2 x float>, float } @_ZmiIfE10aiVector3tIT_ERKS2_S4_(ptr noundef nonnull align 4 dereferenceable(12) %maxVec, ptr noundef nonnull align 4 dereferenceable(12) %minVec)
  store { <2 x float>, float } %call84, ptr %tmp.coerce85, align 8
  call void @llvm.memcpy.p0.p0.i64(ptr align 4 %ref.tmp83, ptr align 8 %tmp.coerce85, i64 12, i1 false)
  %call86 = call noundef float @_ZNK10aiVector3tIfE6LengthEv(ptr noundef nonnull align 4 dereferenceable(12) %ref.tmp83)
  %mul = fmul float %call86, 0x3EE4F8B580000000
  store float %mul, ptr %posEpsilon, align 4
  call void @_ZNSt6vectorI10aiVector3tIfESaIS1_EEC2Ev(ptr noundef nonnull align 8 dereferenceable(24) %avNormals) #10
  %47 = load ptr, ptr %sMesh.addr, align 8
  %mNormals87 = getelementptr inbounds %struct.MeshWithSmoothingGroups, ptr %47, i32 0, i32 2
  %call88 = call noundef i64 @_ZNKSt6vectorI10aiVector3tIfESaIS1_EE4sizeEv(ptr noundef nonnull align 8 dereferenceable(24) %mNormals87) #10
  invoke void @_ZNSt6vectorI10aiVector3tIfESaIS1_EE6resizeEm(ptr noundef nonnull align 8 dereferenceable(24) %avNormals, i64 noundef %call88)
          to label %invoke.cont unwind label %lpad

invoke.cont:                                      ; preds = %for.end82
  invoke void @_ZN6Assimp13SGSpatialSortC1Ev(ptr noundef nonnull align 8 dereferenceable(40) %sSort)
          to label %invoke.cont89 unwind label %lpad

invoke.cont89:                                    ; preds = %invoke.cont
  %48 = load ptr, ptr %sMesh.addr, align 8
  %mFaces90 = getelementptr inbounds %struct.MeshWithSmoothingGroups, ptr %48, i32 0, i32 1
  %call91 = call ptr @_ZNSt6vectorIN6Assimp4D3DS4FaceESaIS2_EE5beginEv(ptr noundef nonnull align 8 dereferenceable(24) %mFaces90) #10
  %coerce.dive = getelementptr inbounds %"class.__gnu_cxx::__normal_iterator.66", ptr %i, i32 0, i32 0
  store ptr %call91, ptr %coerce.dive, align 8
  br label %for.cond92

for.cond92:                                       ; preds = %for.inc120, %invoke.cont89
  %49 = load ptr, ptr %sMesh.addr, align 8
  %mFaces94 = getelementptr inbounds %struct.MeshWithSmoothingGroups, ptr %49, i32 0, i32 1
  %call95 = call ptr @_ZNSt6vectorIN6Assimp4D3DS4FaceESaIS2_EE3endEv(ptr noundef nonnull align 8 dereferenceable(24) %mFaces94) #10
  %coerce.dive96 = getelementptr inbounds %"class.__gnu_cxx::__normal_iterator.66", ptr %ref.tmp93, i32 0, i32 0
  store ptr %call95, ptr %coerce.dive96, align 8
  %call97 = call noundef zeroext i1 @_ZN9__gnu_cxxneIPN6Assimp4D3DS4FaceESt6vectorIS3_SaIS3_EEEEbRKNS_17__normal_iteratorIT_T0_EESD_(ptr noundef nonnull align 8 dereferenceable(8) %i, ptr noundef nonnull align 8 dereferenceable(8) %ref.tmp93) #10
  br i1 %call97, label %for.body98, label %for.end122

for.body98:                                       ; preds = %for.cond92
  store i32 0, ptr %c99, align 4
  br label %for.cond100

for.cond100:                                      ; preds = %for.inc117, %for.body98
  %50 = load i32, ptr %c99, align 4
  %cmp101 = icmp ult i32 %50, 3
  br i1 %cmp101, label %for.body102, label %for.end119

for.body102:                                      ; preds = %for.cond100
  %51 = load ptr, ptr %sMesh.addr, align 8
  %mPositions103 = getelementptr inbounds %struct.MeshWithSmoothingGroups, ptr %51, i32 0, i32 0
  %call104 = call noundef nonnull align 4 dereferenceable(16) ptr @_ZNK9__gnu_cxx17__normal_iteratorIPN6Assimp4D3DS4FaceESt6vectorIS3_SaIS3_EEEdeEv(ptr noundef nonnull align 8 dereferenceable(8) %i) #10
  %mIndices105 = getelementptr inbounds %struct.FaceWithSmoothingGroup, ptr %call104, i32 0, i32 0
  %52 = load i32, ptr %c99, align 4
  %idxprom106 = zext i32 %52 to i64
  %arrayidx107 = getelementptr inbounds [3 x i32], ptr %mIndices105, i64 0, i64 %idxprom106
  %53 = load i32, ptr %arrayidx107, align 4
  %conv108 = zext i32 %53 to i64
  %call109 = call noundef nonnull align 4 dereferenceable(12) ptr @_ZNSt6vectorI10aiVector3tIfESaIS1_EEixEm(ptr noundef nonnull align 8 dereferenceable(24) %mPositions103, i64 noundef %conv108) #10
  %call110 = call noundef nonnull align 4 dereferenceable(16) ptr @_ZNK9__gnu_cxx17__normal_iteratorIPN6Assimp4D3DS4FaceESt6vectorIS3_SaIS3_EEEdeEv(ptr noundef nonnull align 8 dereferenceable(8) %i) #10
  %mIndices111 = getelementptr inbounds %struct.FaceWithSmoothingGroup, ptr %call110, i32 0, i32 0
  %54 = load i32, ptr %c99, align 4
  %idxprom112 = zext i32 %54 to i64
  %arrayidx113 = getelementptr inbounds [3 x i32], ptr %mIndices111, i64 0, i64 %idxprom112
  %55 = load i32, ptr %arrayidx113, align 4
  %call114 = call noundef nonnull align 4 dereferenceable(16) ptr @_ZNK9__gnu_cxx17__normal_iteratorIPN6Assimp4D3DS4FaceESt6vectorIS3_SaIS3_EEEdeEv(ptr noundef nonnull align 8 dereferenceable(8) %i) #10
  %iSmoothGroup = getelementptr inbounds %struct.FaceWithSmoothingGroup, ptr %call114, i32 0, i32 1
  %56 = load i32, ptr %iSmoothGroup, align 4
  invoke void @_ZN6Assimp13SGSpatialSort3AddERK10aiVector3tIfEjj(ptr noundef nonnull align 8 dereferenceable(40) %sSort, ptr noundef nonnull align 4 dereferenceable(12) %call109, i32 noundef %55, i32 noundef %56)
          to label %invoke.cont116 unwind label %lpad115

invoke.cont116:                                   ; preds = %for.body102
  br label %for.inc117

for.inc117:                                       ; preds = %invoke.cont116
  %57 = load i32, ptr %c99, align 4
  %inc118 = add i32 %57, 1
  store i32 %inc118, ptr %c99, align 4
  br label %for.cond100, !llvm.loop !9

lpad:                                             ; preds = %invoke.cont, %for.end82
  %58 = landingpad { ptr, i32 }
          cleanup
  %59 = extractvalue { ptr, i32 } %58, 0
  store ptr %59, ptr %exn.slot, align 8
  %60 = extractvalue { ptr, i32 } %58, 1
  store i32 %60, ptr %ehselector.slot, align 4
  br label %ehcleanup214

lpad115:                                          ; preds = %for.end122, %for.body102
  %61 = landingpad { ptr, i32 }
          cleanup
  %62 = extractvalue { ptr, i32 } %61, 0
  store ptr %62, ptr %exn.slot, align 8
  %63 = extractvalue { ptr, i32 } %61, 1
  store i32 %63, ptr %ehselector.slot, align 4
  br label %ehcleanup213

for.end119:                                       ; preds = %for.cond100
  br label %for.inc120

for.inc120:                                       ; preds = %for.end119
  %call121 = call noundef nonnull align 8 dereferenceable(8) ptr @_ZN9__gnu_cxx17__normal_iteratorIPN6Assimp4D3DS4FaceESt6vectorIS3_SaIS3_EEEppEv(ptr noundef nonnull align 8 dereferenceable(8) %i) #10
  br label %for.cond92, !llvm.loop !10

for.end122:                                       ; preds = %for.cond92
  invoke void @_ZN6Assimp13SGSpatialSort7PrepareEv(ptr noundef nonnull align 8 dereferenceable(40) %sSort)
          to label %invoke.cont123 unwind label %lpad115

invoke.cont123:                                   ; preds = %for.end122
  %64 = load ptr, ptr %sMesh.addr, align 8
  %mPositions124 = getelementptr inbounds %struct.MeshWithSmoothingGroups, ptr %64, i32 0, i32 0
  %call125 = call noundef i64 @_ZNKSt6vectorI10aiVector3tIfESaIS1_EE4sizeEv(ptr noundef nonnull align 8 dereferenceable(24) %mPositions124) #10
  store i8 0, ptr %ref.tmp126, align 1
  call void @_ZNSaIbEC2Ev(ptr noundef nonnull align 1 dereferenceable(1) %ref.tmp127) #10
  invoke void @_ZNSt6vectorIbSaIbEEC2EmRKbRKS0_(ptr noundef nonnull align 8 dereferenceable(40) %vertexDone, i64 noundef %call125, ptr noundef nonnull align 1 dereferenceable(1) %ref.tmp126, ptr noundef nonnull align 1 dereferenceable(1) %ref.tmp127)
          to label %invoke.cont129 unwind label %lpad128

invoke.cont129:                                   ; preds = %invoke.cont123
  call void @_ZNSaIbED2Ev(ptr noundef nonnull align 1 dereferenceable(1) %ref.tmp127) #10
  %65 = load ptr, ptr %sMesh.addr, align 8
  %mFaces131 = getelementptr inbounds %struct.MeshWithSmoothingGroups, ptr %65, i32 0, i32 1
  %call132 = call ptr @_ZNSt6vectorIN6Assimp4D3DS4FaceESaIS2_EE5beginEv(ptr noundef nonnull align 8 dereferenceable(24) %mFaces131) #10
  %coerce.dive133 = getelementptr inbounds %"class.__gnu_cxx::__normal_iterator.66", ptr %i130, i32 0, i32 0
  store ptr %call132, ptr %coerce.dive133, align 8
  br label %for.cond134

for.cond134:                                      ; preds = %for.inc206, %invoke.cont129
  %66 = load ptr, ptr %sMesh.addr, align 8
  %mFaces136 = getelementptr inbounds %struct.MeshWithSmoothingGroups, ptr %66, i32 0, i32 1
  %call137 = call ptr @_ZNSt6vectorIN6Assimp4D3DS4FaceESaIS2_EE3endEv(ptr noundef nonnull align 8 dereferenceable(24) %mFaces136) #10
  %coerce.dive138 = getelementptr inbounds %"class.__gnu_cxx::__normal_iterator.66", ptr %ref.tmp135, i32 0, i32 0
  store ptr %call137, ptr %coerce.dive138, align 8
  %call139 = call noundef zeroext i1 @_ZN9__gnu_cxxneIPN6Assimp4D3DS4FaceESt6vectorIS3_SaIS3_EEEEbRKNS_17__normal_iteratorIT_T0_EESD_(ptr noundef nonnull align 8 dereferenceable(8) %i130, ptr noundef nonnull align 8 dereferenceable(8) %ref.tmp135) #10
  br i1 %call139, label %for.body140, label %for.end208

for.body140:                                      ; preds = %for.cond134
  call void @_ZNSt6vectorIjSaIjEEC2Ev(ptr noundef nonnull align 8 dereferenceable(24) %poResult) #10
  store i32 0, ptr %c141, align 4
  br label %for.cond142

for.cond142:                                      ; preds = %for.inc203, %for.body140
  %67 = load i32, ptr %c141, align 4
  %cmp143 = icmp ult i32 %67, 3
  br i1 %cmp143, label %for.body144, label %for.end205

for.body144:                                      ; preds = %for.cond142
  %call145 = call noundef nonnull align 4 dereferenceable(16) ptr @_ZNK9__gnu_cxx17__normal_iteratorIPN6Assimp4D3DS4FaceESt6vectorIS3_SaIS3_EEEdeEv(ptr noundef nonnull align 8 dereferenceable(8) %i130) #10
  %mIndices146 = getelementptr inbounds %struct.FaceWithSmoothingGroup, ptr %call145, i32 0, i32 0
  %68 = load i32, ptr %c141, align 4
  %idxprom147 = zext i32 %68 to i64
  %arrayidx148 = getelementptr inbounds [3 x i32], ptr %mIndices146, i64 0, i64 %idxprom147
  %69 = load i32, ptr %arrayidx148, align 4
  store i32 %69, ptr %idx, align 4
  %70 = load i32, ptr %idx, align 4
  %conv150 = zext i32 %70 to i64
  %call153 = invoke { ptr, i64 } @_ZNSt6vectorIbSaIbEEixEm(ptr noundef nonnull align 8 dereferenceable(40) %vertexDone, i64 noundef %conv150)
          to label %invoke.cont152 unwind label %lpad151

invoke.cont152:                                   ; preds = %for.body144
  %71 = getelementptr inbounds { ptr, i64 }, ptr %ref.tmp149, i32 0, i32 0
  %72 = extractvalue { ptr, i64 } %call153, 0
  store ptr %72, ptr %71, align 8
  %73 = getelementptr inbounds { ptr, i64 }, ptr %ref.tmp149, i32 0, i32 1
  %74 = extractvalue { ptr, i64 } %call153, 1
  store i64 %74, ptr %73, align 8
  %call154 = call noundef zeroext i1 @_ZNKSt14_Bit_referencecvbEv(ptr noundef nonnull align 8 dereferenceable(16) %ref.tmp149) #10
  br i1 %call154, label %if.then, label %if.end

if.then:                                          ; preds = %invoke.cont152
  br label %for.inc203

lpad128:                                          ; preds = %invoke.cont123
  %75 = landingpad { ptr, i32 }
          cleanup
  %76 = extractvalue { ptr, i32 } %75, 0
  store ptr %76, ptr %exn.slot, align 8
  %77 = extractvalue { ptr, i32 } %75, 1
  store i32 %77, ptr %ehselector.slot, align 4
  call void @_ZNSaIbED2Ev(ptr noundef nonnull align 1 dereferenceable(1) %ref.tmp127) #10
  br label %ehcleanup213

lpad151:                                          ; preds = %for.body191, %for.end179, %for.body170, %if.end, %for.body144
  %78 = landingpad { ptr, i32 }
          cleanup
  %79 = extractvalue { ptr, i32 } %78, 0
  store ptr %79, ptr %exn.slot, align 8
  %80 = extractvalue { ptr, i32 } %78, 1
  store i32 %80, ptr %ehselector.slot, align 4
  call void @_ZNSt6vectorIjSaIjEED2Ev(ptr noundef nonnull align 8 dereferenceable(24) %poResult) #10
  br label %ehcleanup

if.end:                                           ; preds = %invoke.cont152
  %81 = load ptr, ptr %sMesh.addr, align 8
  %mPositions155 = getelementptr inbounds %struct.MeshWithSmoothingGroups, ptr %81, i32 0, i32 0
  %82 = load i32, ptr %idx, align 4
  %conv156 = zext i32 %82 to i64
  %call157 = call noundef nonnull align 4 dereferenceable(12) ptr @_ZNSt6vectorI10aiVector3tIfESaIS1_EEixEm(ptr noundef nonnull align 8 dereferenceable(24) %mPositions155, i64 noundef %conv156) #10
  %call158 = call noundef nonnull align 4 dereferenceable(16) ptr @_ZNK9__gnu_cxx17__normal_iteratorIPN6Assimp4D3DS4FaceESt6vectorIS3_SaIS3_EEEdeEv(ptr noundef nonnull align 8 dereferenceable(8) %i130) #10
  %iSmoothGroup159 = getelementptr inbounds %struct.FaceWithSmoothingGroup, ptr %call158, i32 0, i32 1
  %83 = load i32, ptr %iSmoothGroup159, align 4
  %84 = load float, ptr %posEpsilon, align 4
  invoke void @_ZNK6Assimp13SGSpatialSort13FindPositionsERK10aiVector3tIfEjfRSt6vectorIjSaIjEEb(ptr noundef nonnull align 8 dereferenceable(40) %sSort, ptr noundef nonnull align 4 dereferenceable(12) %call157, i32 noundef %83, float noundef %84, ptr noundef nonnull align 8 dereferenceable(24) %poResult, i1 noundef zeroext false)
          to label %invoke.cont160 unwind label %lpad151

invoke.cont160:                                   ; preds = %if.end
  call void @_ZN10aiVector3tIfEC2Ev(ptr noundef nonnull align 4 dereferenceable(12) %vNormals) #10
  %call163 = call ptr @_ZNSt6vectorIjSaIjEE5beginEv(ptr noundef nonnull align 8 dereferenceable(24) %poResult) #10
  %coerce.dive164 = getelementptr inbounds %"class.__gnu_cxx::__normal_iterator.84", ptr %ref.tmp162, i32 0, i32 0
  store ptr %call163, ptr %coerce.dive164, align 8
  call void @_ZN9__gnu_cxx17__normal_iteratorIPKjSt6vectorIjSaIjEEEC2IPjvEERKNS0_IT_S5_EE(ptr noundef nonnull align 8 dereferenceable(8) %a161, ptr noundef nonnull align 8 dereferenceable(8) %ref.tmp162) #10
  br label %for.cond165

for.cond165:                                      ; preds = %for.inc177, %invoke.cont160
  %call167 = call ptr @_ZNSt6vectorIjSaIjEE3endEv(ptr noundef nonnull align 8 dereferenceable(24) %poResult) #10
  %coerce.dive168 = getelementptr inbounds %"class.__gnu_cxx::__normal_iterator.84", ptr %ref.tmp166, i32 0, i32 0
  store ptr %call167, ptr %coerce.dive168, align 8
  %call169 = call noundef zeroext i1 @_ZN9__gnu_cxxneIPKjPjSt6vectorIjSaIjEEEEbRKNS_17__normal_iteratorIT_T1_EERKNS7_IT0_S9_EE(ptr noundef nonnull align 8 dereferenceable(8) %a161, ptr noundef nonnull align 8 dereferenceable(8) %ref.tmp166) #10
  br i1 %call169, label %for.body170, label %for.end179

for.body170:                                      ; preds = %for.cond165
  %85 = load ptr, ptr %sMesh.addr, align 8
  %mNormals171 = getelementptr inbounds %struct.MeshWithSmoothingGroups, ptr %85, i32 0, i32 2
  %call172 = call noundef nonnull align 4 dereferenceable(4) ptr @_ZNK9__gnu_cxx17__normal_iteratorIPKjSt6vectorIjSaIjEEEdeEv(ptr noundef nonnull align 8 dereferenceable(8) %a161) #10
  %86 = load i32, ptr %call172, align 4
  %conv173 = zext i32 %86 to i64
  %call174 = call noundef nonnull align 4 dereferenceable(12) ptr @_ZNSt6vectorI10aiVector3tIfESaIS1_EEixEm(ptr noundef nonnull align 8 dereferenceable(24) %mNormals171, i64 noundef %conv173) #10
  %call176 = invoke noundef nonnull align 4 dereferenceable(12) ptr @_ZN10aiVector3tIfEpLERKS0_(ptr noundef nonnull align 4 dereferenceable(12) %vNormals, ptr noundef nonnull align 4 dereferenceable(12) %call174)
          to label %invoke.cont175 unwind label %lpad151

invoke.cont175:                                   ; preds = %for.body170
  br label %for.inc177

for.inc177:                                       ; preds = %invoke.cont175
  %call178 = call noundef nonnull align 8 dereferenceable(8) ptr @_ZN9__gnu_cxx17__normal_iteratorIPKjSt6vectorIjSaIjEEEppEv(ptr noundef nonnull align 8 dereferenceable(8) %a161) #10
  br label %for.cond165, !llvm.loop !11

for.end179:                                       ; preds = %for.cond165
  %call181 = invoke noundef nonnull align 4 dereferenceable(12) ptr @_ZN10aiVector3tIfE13NormalizeSafeEv(ptr noundef nonnull align 4 dereferenceable(12) %vNormals)
          to label %invoke.cont180 unwind label %lpad151

invoke.cont180:                                   ; preds = %for.end179
  %call184 = call ptr @_ZNSt6vectorIjSaIjEE5beginEv(ptr noundef nonnull align 8 dereferenceable(24) %poResult) #10
  %coerce.dive185 = getelementptr inbounds %"class.__gnu_cxx::__normal_iterator.84", ptr %ref.tmp183, i32 0, i32 0
  store ptr %call184, ptr %coerce.dive185, align 8
  call void @_ZN9__gnu_cxx17__normal_iteratorIPKjSt6vectorIjSaIjEEEC2IPjvEERKNS0_IT_S5_EE(ptr noundef nonnull align 8 dereferenceable(8) %a182, ptr noundef nonnull align 8 dereferenceable(8) %ref.tmp183) #10
  br label %for.cond186

for.cond186:                                      ; preds = %for.inc200, %invoke.cont180
  %call188 = call ptr @_ZNSt6vectorIjSaIjEE3endEv(ptr noundef nonnull align 8 dereferenceable(24) %poResult) #10
  %coerce.dive189 = getelementptr inbounds %"class.__gnu_cxx::__normal_iterator.84", ptr %ref.tmp187, i32 0, i32 0
  store ptr %call188, ptr %coerce.dive189, align 8
  %call190 = call noundef zeroext i1 @_ZN9__gnu_cxxneIPKjPjSt6vectorIjSaIjEEEEbRKNS_17__normal_iteratorIT_T1_EERKNS7_IT0_S9_EE(ptr noundef nonnull align 8 dereferenceable(8) %a182, ptr noundef nonnull align 8 dereferenceable(8) %ref.tmp187) #10
  br i1 %call190, label %for.body191, label %for.end202

for.body191:                                      ; preds = %for.cond186
  %call192 = call noundef nonnull align 4 dereferenceable(4) ptr @_ZNK9__gnu_cxx17__normal_iteratorIPKjSt6vectorIjSaIjEEEdeEv(ptr noundef nonnull align 8 dereferenceable(8) %a182) #10
  %87 = load i32, ptr %call192, align 4
  store i32 %87, ptr %idx, align 4
  %88 = load i32, ptr %idx, align 4
  %conv193 = zext i32 %88 to i64
  %call194 = call noundef nonnull align 4 dereferenceable(12) ptr @_ZNSt6vectorI10aiVector3tIfESaIS1_EEixEm(ptr noundef nonnull align 8 dereferenceable(24) %avNormals, i64 noundef %conv193) #10
  call void @llvm.memcpy.p0.p0.i64(ptr align 4 %call194, ptr align 4 %vNormals, i64 12, i1 false)
  %89 = load i32, ptr %idx, align 4
  %conv196 = zext i32 %89 to i64
  %call198 = invoke { ptr, i64 } @_ZNSt6vectorIbSaIbEEixEm(ptr noundef nonnull align 8 dereferenceable(40) %vertexDone, i64 noundef %conv196)
          to label %invoke.cont197 unwind label %lpad151

invoke.cont197:                                   ; preds = %for.body191
  %90 = getelementptr inbounds { ptr, i64 }, ptr %ref.tmp195, i32 0, i32 0
  %91 = extractvalue { ptr, i64 } %call198, 0
  store ptr %91, ptr %90, align 8
  %92 = getelementptr inbounds { ptr, i64 }, ptr %ref.tmp195, i32 0, i32 1
  %93 = extractvalue { ptr, i64 } %call198, 1
  store i64 %93, ptr %92, align 8
  %call199 = call noundef nonnull align 8 dereferenceable(16) ptr @_ZNSt14_Bit_referenceaSEb(ptr noundef nonnull align 8 dereferenceable(16) %ref.tmp195, i1 noundef zeroext true) #10
  br label %for.inc200

for.inc200:                                       ; preds = %invoke.cont197
  %call201 = call noundef nonnull align 8 dereferenceable(8) ptr @_ZN9__gnu_cxx17__normal_iteratorIPKjSt6vectorIjSaIjEEEppEv(ptr noundef nonnull align 8 dereferenceable(8) %a182) #10
  br label %for.cond186, !llvm.loop !12

for.end202:                                       ; preds = %for.cond186
  br label %for.inc203

for.inc203:                                       ; preds = %for.end202, %if.then
  %94 = load i32, ptr %c141, align 4
  %inc204 = add i32 %94, 1
  store i32 %inc204, ptr %c141, align 4
  br label %for.cond142, !llvm.loop !13

for.end205:                                       ; preds = %for.cond142
  call void @_ZNSt6vectorIjSaIjEED2Ev(ptr noundef nonnull align 8 dereferenceable(24) %poResult) #10
  br label %for.inc206

for.inc206:                                       ; preds = %for.end205
  %call207 = call noundef nonnull align 8 dereferenceable(8) ptr @_ZN9__gnu_cxx17__normal_iteratorIPN6Assimp4D3DS4FaceESt6vectorIS3_SaIS3_EEEppEv(ptr noundef nonnull align 8 dereferenceable(8) %i130) #10
  br label %for.cond134, !llvm.loop !14

for.end208:                                       ; preds = %for.cond134
  %95 = load ptr, ptr %sMesh.addr, align 8
  %mNormals209 = getelementptr inbounds %struct.MeshWithSmoothingGroups, ptr %95, i32 0, i32 2
  %call212 = invoke noundef nonnull align 8 dereferenceable(24) ptr @_ZNSt6vectorI10aiVector3tIfESaIS1_EEaSERKS3_(ptr noundef nonnull align 8 dereferenceable(24) %mNormals209, ptr noundef nonnull align 8 dereferenceable(24) %avNormals)
          to label %invoke.cont211 unwind label %lpad210

invoke.cont211:                                   ; preds = %for.end208
  call void @_ZNSt6vectorIbSaIbEED2Ev(ptr noundef nonnull align 8 dereferenceable(40) %vertexDone) #10
  call void @_ZN6Assimp13SGSpatialSortD1Ev(ptr noundef nonnull align 8 dereferenceable(40) %sSort) #10
  call void @_ZNSt6vectorI10aiVector3tIfESaIS1_EED2Ev(ptr noundef nonnull align 8 dereferenceable(24) %avNormals) #10
  ret void

lpad210:                                          ; preds = %for.end208
  %96 = landingpad { ptr, i32 }
          cleanup
  %97 = extractvalue { ptr, i32 } %96, 0
  store ptr %97, ptr %exn.slot, align 8
  %98 = extractvalue { ptr, i32 } %96, 1
  store i32 %98, ptr %ehselector.slot, align 4
  br label %ehcleanup

ehcleanup:                                        ; preds = %lpad210, %lpad151
  call void @_ZNSt6vectorIbSaIbEED2Ev(ptr noundef nonnull align 8 dereferenceable(40) %vertexDone) #10
  br label %ehcleanup213

ehcleanup213:                                     ; preds = %ehcleanup, %lpad128, %lpad115
  call void @_ZN6Assimp13SGSpatialSortD1Ev(ptr noundef nonnull align 8 dereferenceable(40) %sSort) #10
  br label %ehcleanup214

ehcleanup214:                                     ; preds = %ehcleanup213, %lpad
  call void @_ZNSt6vectorI10aiVector3tIfESaIS1_EED2Ev(ptr noundef nonnull align 8 dereferenceable(24) %avNormals) #10
  br label %eh.resume

eh.resume:                                        ; preds = %ehcleanup214
  %exn = load ptr, ptr %exn.slot, align 8
  %sel = load i32, ptr %ehselector.slot, align 4
  %lpad.val = insertvalue { ptr, i32 } poison, ptr %exn, 0
  %lpad.val215 = insertvalue { ptr, i32 } %lpad.val, i32 %sel, 1
  resume { ptr, i32 } %lpad.val215
}

; Function Attrs: mustprogress nounwind uwtable
define linkonce_odr hidden noundef nonnull align 8 dereferenceable(8) ptr @_ZN9__gnu_cxx17__normal_iteratorIPN6Assimp4D3DS4MeshESt6vectorIS3_SaIS3_EEEppEv(ptr noundef nonnull align 8 dereferenceable(8) %this) #0 comdat align 2 {
entry:
  %this.addr = alloca ptr, align 8
  store ptr %this, ptr %this.addr, align 8
  %this1 = load ptr, ptr %this.addr, align 8
  %_M_current = getelementptr inbounds %"class.__gnu_cxx::__normal_iterator", ptr %this1, i32 0, i32 0
  %0 = load ptr, ptr %_M_current, align 8
  %incdec.ptr = getelementptr inbounds %"struct.Assimp::D3DS::Mesh", ptr %0, i32 1
  store ptr %incdec.ptr, ptr %_M_current, align 8
  ret ptr %this1
}

declare void @_ZN6Assimp19Discreet3DSImporter22ReplaceDefaultMaterialEv(ptr noundef nonnull align 8 dereferenceable(162)) #4

declare void @_ZN6Assimp19Discreet3DSImporter12ConvertSceneEP7aiScene(ptr noundef nonnull align 8 dereferenceable(162), ptr noundef) #4

declare void @_ZN6Assimp19Discreet3DSImporter17GenerateNodeGraphEP7aiScene(ptr noundef nonnull align 8 dereferenceable(162), ptr noundef) #4

; Function Attrs: mustprogress uwtable
define hidden void @_ZN6Assimp19Discreet3DSImporter16ApplyMasterScaleEP7aiScene(ptr noundef nonnull align 8 dereferenceable(162) %this, ptr noundef %pScene) #3 align 2 {
entry:
  %this.addr = alloca ptr, align 8
  %pScene.addr = alloca ptr, align 8
  %ref.tmp = alloca %class.aiMatrix4x4t, align 4
  store ptr %this, ptr %this.addr, align 8
  store ptr %pScene, ptr %pScene.addr, align 8
  %this1 = load ptr, ptr %this.addr, align 8
  %mMasterScale = getelementptr inbounds %"class.Assimp::Discreet3DSImporter", ptr %this1, i32 0, i32 8
  %0 = load float, ptr %mMasterScale, align 4
  %tobool = fcmp une float %0, 0.000000e+00
  br i1 %tobool, label %if.else, label %if.then

if.then:                                          ; preds = %entry
  %mMasterScale2 = getelementptr inbounds %"class.Assimp::Discreet3DSImporter", ptr %this1, i32 0, i32 8
  store float 1.000000e+00, ptr %mMasterScale2, align 4
  br label %if.end

if.else:                                          ; preds = %entry
  %mMasterScale3 = getelementptr inbounds %"class.Assimp::Discreet3DSImporter", ptr %this1, i32 0, i32 8
  %1 = load float, ptr %mMasterScale3, align 4
  %div = fdiv float 1.000000e+00, %1
  %mMasterScale4 = getelementptr inbounds %"class.Assimp::Discreet3DSImporter", ptr %this1, i32 0, i32 8
  store float %div, ptr %mMasterScale4, align 4
  br label %if.end

if.end:                                           ; preds = %if.else, %if.then
  %mMasterScale5 = getelementptr inbounds %"class.Assimp::Discreet3DSImporter", ptr %this1, i32 0, i32 8
  %2 = load float, ptr %mMasterScale5, align 4
  %mMasterScale6 = getelementptr inbounds %"class.Assimp::Discreet3DSImporter", ptr %this1, i32 0, i32 8
  %3 = load float, ptr %mMasterScale6, align 4
  %mMasterScale7 = getelementptr inbounds %"class.Assimp::Discreet3DSImporter", ptr %this1, i32 0, i32 8
  %4 = load float, ptr %mMasterScale7, align 4
  call void @_ZN12aiMatrix4x4tIfEC2Effffffffffffffff(ptr noundef nonnull align 4 dereferenceable(64) %ref.tmp, float noundef %2, float noundef 0.000000e+00, float noundef 0.000000e+00, float noundef 0.000000e+00, float noundef 0.000000e+00, float noundef %3, float noundef 0.000000e+00, float noundef 0.000000e+00, float noundef 0.000000e+00, float noundef 0.000000e+00, float noundef %4, float noundef 0.000000e+00, float noundef 0.000000e+00, float noundef 0.000000e+00, float noundef 0.000000e+00, float noundef 1.000000e+00)
  %5 = load ptr, ptr %pScene.addr, align 8
  %mRootNode = getelementptr inbounds %struct.aiScene, ptr %5, i32 0, i32 1
  %6 = load ptr, ptr %mRootNode, align 8
  %mTransformation = getelementptr inbounds %struct.aiNode, ptr %6, i32 0, i32 1
  %call = call noundef nonnull align 4 dereferenceable(64) ptr @_ZN12aiMatrix4x4tIfEmLERKS0_(ptr noundef nonnull align 4 dereferenceable(64) %mTransformation, ptr noundef nonnull align 4 dereferenceable(64) %ref.tmp)
  ret void
}

; Function Attrs: mustprogress nounwind uwtable
define linkonce_odr hidden void @_ZN6Assimp4D3DS4NodeD2Ev(ptr noundef nonnull align 8 dereferenceable(248) %this) unnamed_addr #0 comdat align 2 {
entry:
  %this.addr = alloca ptr, align 8
  %i = alloca i32, align 4
  store ptr %this, ptr %this.addr, align 8
  %this1 = load ptr, ptr %this.addr, align 8
  store i32 0, ptr %i, align 4
  br label %for.cond

for.cond:                                         ; preds = %for.inc, %entry
  %0 = load i32, ptr %i, align 4
  %conv = zext i32 %0 to i64
  %mChildren = getelementptr inbounds %"struct.Assimp::D3DS::Node", ptr %this1, i32 0, i32 1
  %call = call noundef i64 @_ZNKSt6vectorIPN6Assimp4D3DS4NodeESaIS3_EE4sizeEv(ptr noundef nonnull align 8 dereferenceable(24) %mChildren) #10
  %cmp = icmp ult i64 %conv, %call
  br i1 %cmp, label %for.body, label %for.end

for.body:                                         ; preds = %for.cond
  %mChildren2 = getelementptr inbounds %"struct.Assimp::D3DS::Node", ptr %this1, i32 0, i32 1
  %1 = load i32, ptr %i, align 4
  %conv3 = zext i32 %1 to i64
  %call4 = call noundef nonnull align 8 dereferenceable(8) ptr @_ZNSt6vectorIPN6Assimp4D3DS4NodeESaIS3_EEixEm(ptr noundef nonnull align 8 dereferenceable(24) %mChildren2, i64 noundef %conv3) #10
  %2 = load ptr, ptr %call4, align 8
  %isnull = icmp eq ptr %2, null
  br i1 %isnull, label %delete.end, label %delete.notnull

delete.notnull:                                   ; preds = %for.body
  call void @_ZN6Assimp4D3DS4NodeD2Ev(ptr noundef nonnull align 8 dereferenceable(248) %2) #10
  call void @_ZdlPv(ptr noundef %2) #19
  br label %delete.end

delete.end:                                       ; preds = %delete.notnull, %for.body
  br label %for.inc

for.inc:                                          ; preds = %delete.end
  %3 = load i32, ptr %i, align 4
  %inc = add i32 %3, 1
  store i32 %inc, ptr %i, align 4
  br label %for.cond, !llvm.loop !15

for.end:                                          ; preds = %for.cond
  %aCameraRollKeys = getelementptr inbounds %"struct.Assimp::D3DS::Node", ptr %this1, i32 0, i32 11
  call void @_ZNSt6vectorIN6Assimp4D3DS10aiFloatKeyESaIS2_EED2Ev(ptr noundef nonnull align 8 dereferenceable(24) %aCameraRollKeys) #10
  %aTargetPositionKeys = getelementptr inbounds %"struct.Assimp::D3DS::Node", ptr %this1, i32 0, i32 10
  call void @_ZNSt6vectorI11aiVectorKeySaIS0_EED2Ev(ptr noundef nonnull align 8 dereferenceable(24) %aTargetPositionKeys) #10
  %aScalingKeys = getelementptr inbounds %"struct.Assimp::D3DS::Node", ptr %this1, i32 0, i32 9
  call void @_ZNSt6vectorI11aiVectorKeySaIS0_EED2Ev(ptr noundef nonnull align 8 dereferenceable(24) %aScalingKeys) #10
  %aPositionKeys = getelementptr inbounds %"struct.Assimp::D3DS::Node", ptr %this1, i32 0, i32 8
  call void @_ZNSt6vectorI11aiVectorKeySaIS0_EED2Ev(ptr noundef nonnull align 8 dereferenceable(24) %aPositionKeys) #10
  %aRotationKeys = getelementptr inbounds %"struct.Assimp::D3DS::Node", ptr %this1, i32 0, i32 7
  call void @_ZNSt6vectorI9aiQuatKeySaIS0_EED2Ev(ptr noundef nonnull align 8 dereferenceable(24) %aRotationKeys) #10
  %mDummyName = getelementptr inbounds %"struct.Assimp::D3DS::Node", ptr %this1, i32 0, i32 4
  call void @_ZNSt7__cxx1112basic_stringIcSt11char_traitsIcESaIcEED1Ev(ptr noundef nonnull align 8 dereferenceable(32) %mDummyName) #10
  %mName = getelementptr inbounds %"struct.Assimp::D3DS::Node", ptr %this1, i32 0, i32 2
  call void @_ZNSt7__cxx1112basic_stringIcSt11char_traitsIcESaIcEED1Ev(ptr noundef nonnull align 8 dereferenceable(32) %mName) #10
  %mChildren5 = getelementptr inbounds %"struct.Assimp::D3DS::Node", ptr %this1, i32 0, i32 1
  call void @_ZNSt6vectorIPN6Assimp4D3DS4NodeESaIS3_EED2Ev(ptr noundef nonnull align 8 dereferenceable(24) %mChildren5) #10
  ret void
}

; Function Attrs: mustprogress nounwind uwtable
define linkonce_odr hidden void @_ZN6Assimp4D3DS5SceneD2Ev(ptr noundef nonnull align 8 dereferenceable(96) %this) unnamed_addr #0 comdat align 2 {
entry:
  %this.addr = alloca ptr, align 8
  store ptr %this, ptr %this.addr, align 8
  %this1 = load ptr, ptr %this.addr, align 8
  %mLights = getelementptr inbounds %"struct.Assimp::D3DS::Scene", ptr %this1, i32 0, i32 3
  call void @_ZNSt6vectorIP7aiLightSaIS1_EED2Ev(ptr noundef nonnull align 8 dereferenceable(24) %mLights) #10
  %mCameras = getelementptr inbounds %"struct.Assimp::D3DS::Scene", ptr %this1, i32 0, i32 2
  call void @_ZNSt6vectorIP8aiCameraSaIS1_EED2Ev(ptr noundef nonnull align 8 dereferenceable(24) %mCameras) #10
  %mMeshes = getelementptr inbounds %"struct.Assimp::D3DS::Scene", ptr %this1, i32 0, i32 1
  call void @_ZNSt6vectorIN6Assimp4D3DS4MeshESaIS2_EED2Ev(ptr noundef nonnull align 8 dereferenceable(24) %mMeshes) #10
  %mMaterials = getelementptr inbounds %"struct.Assimp::D3DS::Scene", ptr %this1, i32 0, i32 0
  call void @_ZNSt6vectorIN6Assimp4D3DS8MaterialESaIS2_EED2Ev(ptr noundef nonnull align 8 dereferenceable(24) %mMaterials) #10
  ret void
}

; Function Attrs: mustprogress nounwind uwtable
define linkonce_odr hidden void @_ZN6Assimp12StreamReaderILb0ELb0EED2Ev(ptr noundef nonnull align 8 dereferenceable(49) %this) unnamed_addr #0 comdat align 2 {
entry:
  %this.addr = alloca ptr, align 8
  store ptr %this, ptr %this.addr, align 8
  %this1 = load ptr, ptr %this.addr, align 8
  %mBuffer = getelementptr inbounds %"class.Assimp::StreamReader", ptr %this1, i32 0, i32 1
  %0 = load ptr, ptr %mBuffer, align 8
  %isnull = icmp eq ptr %0, null
  br i1 %isnull, label %delete.end, label %delete.notnull

delete.notnull:                                   ; preds = %entry
  call void @_ZdaPv(ptr noundef %0) #19
  br label %delete.end

delete.end:                                       ; preds = %delete.notnull, %entry
  %mStream = getelementptr inbounds %"class.Assimp::StreamReader", ptr %this1, i32 0, i32 0
  call void @_ZNSt10shared_ptrIN6Assimp8IOStreamEED2Ev(ptr noundef nonnull align 8 dereferenceable(16) %mStream) #10
  ret void
}

; Function Attrs: mustprogress nounwind uwtable
define linkonce_odr hidden void @_ZN12aiMatrix4x4tIfEC2Effffffffffffffff(ptr noundef nonnull align 4 dereferenceable(64) %this, float noundef %_a1, float noundef %_a2, float noundef %_a3, float noundef %_a4, float noundef %_b1, float noundef %_b2, float noundef %_b3, float noundef %_b4, float noundef %_c1, float noundef %_c2, float noundef %_c3, float noundef %_c4, float noundef %_d1, float noundef %_d2, float noundef %_d3, float noundef %_d4) unnamed_addr #0 comdat align 2 {
entry:
  %this.addr = alloca ptr, align 8
  %_a1.addr = alloca float, align 4
  %_a2.addr = alloca float, align 4
  %_a3.addr = alloca float, align 4
  %_a4.addr = alloca float, align 4
  %_b1.addr = alloca float, align 4
  %_b2.addr = alloca float, align 4
  %_b3.addr = alloca float, align 4
  %_b4.addr = alloca float, align 4
  %_c1.addr = alloca float, align 4
  %_c2.addr = alloca float, align 4
  %_c3.addr = alloca float, align 4
  %_c4.addr = alloca float, align 4
  %_d1.addr = alloca float, align 4
  %_d2.addr = alloca float, align 4
  %_d3.addr = alloca float, align 4
  %_d4.addr = alloca float, align 4
  store ptr %this, ptr %this.addr, align 8
  store float %_a1, ptr %_a1.addr, align 4
  store float %_a2, ptr %_a2.addr, align 4
  store float %_a3, ptr %_a3.addr, align 4
  store float %_a4, ptr %_a4.addr, align 4
  store float %_b1, ptr %_b1.addr, align 4
  store float %_b2, ptr %_b2.addr, align 4
  store float %_b3, ptr %_b3.addr, align 4
  store float %_b4, ptr %_b4.addr, align 4
  store float %_c1, ptr %_c1.addr, align 4
  store float %_c2, ptr %_c2.addr, align 4
  store float %_c3, ptr %_c3.addr, align 4
  store float %_c4, ptr %_c4.addr, align 4
  store float %_d1, ptr %_d1.addr, align 4
  store float %_d2, ptr %_d2.addr, align 4
  store float %_d3, ptr %_d3.addr, align 4
  store float %_d4, ptr %_d4.addr, align 4
  %this1 = load ptr, ptr %this.addr, align 8
  %a1 = getelementptr inbounds %class.aiMatrix4x4t, ptr %this1, i32 0, i32 0
  %0 = load float, ptr %_a1.addr, align 4
  store float %0, ptr %a1, align 4
  %a2 = getelementptr inbounds %class.aiMatrix4x4t, ptr %this1, i32 0, i32 1
  %1 = load float, ptr %_a2.addr, align 4
  store float %1, ptr %a2, align 4
  %a3 = getelementptr inbounds %class.aiMatrix4x4t, ptr %this1, i32 0, i32 2
  %2 = load float, ptr %_a3.addr, align 4
  store float %2, ptr %a3, align 4
  %a4 = getelementptr inbounds %class.aiMatrix4x4t, ptr %this1, i32 0, i32 3
  %3 = load float, ptr %_a4.addr, align 4
  store float %3, ptr %a4, align 4
  %b1 = getelementptr inbounds %class.aiMatrix4x4t, ptr %this1, i32 0, i32 4
  %4 = load float, ptr %_b1.addr, align 4
  store float %4, ptr %b1, align 4
  %b2 = getelementptr inbounds %class.aiMatrix4x4t, ptr %this1, i32 0, i32 5
  %5 = load float, ptr %_b2.addr, align 4
  store float %5, ptr %b2, align 4
  %b3 = getelementptr inbounds %class.aiMatrix4x4t, ptr %this1, i32 0, i32 6
  %6 = load float, ptr %_b3.addr, align 4
  store float %6, ptr %b3, align 4
  %b4 = getelementptr inbounds %class.aiMatrix4x4t, ptr %this1, i32 0, i32 7
  %7 = load float, ptr %_b4.addr, align 4
  store float %7, ptr %b4, align 4
  %c1 = getelementptr inbounds %class.aiMatrix4x4t, ptr %this1, i32 0, i32 8
  %8 = load float, ptr %_c1.addr, align 4
  store float %8, ptr %c1, align 4
  %c2 = getelementptr inbounds %class.aiMatrix4x4t, ptr %this1, i32 0, i32 9
  %9 = load float, ptr %_c2.addr, align 4
  store float %9, ptr %c2, align 4
  %c3 = getelementptr inbounds %class.aiMatrix4x4t, ptr %this1, i32 0, i32 10
  %10 = load float, ptr %_c3.addr, align 4
  store float %10, ptr %c3, align 4
  %c4 = getelementptr inbounds %class.aiMatrix4x4t, ptr %this1, i32 0, i32 11
  %11 = load float, ptr %_c4.addr, align 4
  store float %11, ptr %c4, align 4
  %d1 = getelementptr inbounds %class.aiMatrix4x4t, ptr %this1, i32 0, i32 12
  %12 = load float, ptr %_d1.addr, align 4
  store float %12, ptr %d1, align 4
  %d2 = getelementptr inbounds %class.aiMatrix4x4t, ptr %this1, i32 0, i32 13
  %13 = load float, ptr %_d2.addr, align 4
  store float %13, ptr %d2, align 4
  %d3 = getelementptr inbounds %class.aiMatrix4x4t, ptr %this1, i32 0, i32 14
  %14 = load float, ptr %_d3.addr, align 4
  store float %14, ptr %d3, align 4
  %d4 = getelementptr inbounds %class.aiMatrix4x4t, ptr %this1, i32 0, i32 15
  %15 = load float, ptr %_d4.addr, align 4
  store float %15, ptr %d4, align 4
  ret void
}

; Function Attrs: mustprogress uwtable
define linkonce_odr hidden noundef nonnull align 4 dereferenceable(64) ptr @_ZN12aiMatrix4x4tIfEmLERKS0_(ptr noundef nonnull align 4 dereferenceable(64) %this, ptr noundef nonnull align 4 dereferenceable(64) %m) #3 comdat align 2 {
entry:
  %this.addr = alloca ptr, align 8
  %m.addr = alloca ptr, align 8
  %ref.tmp = alloca %class.aiMatrix4x4t, align 4
  store ptr %this, ptr %this.addr, align 8
  store ptr %m, ptr %m.addr, align 8
  %this1 = load ptr, ptr %this.addr, align 8
  %0 = load ptr, ptr %m.addr, align 8
  %a1 = getelementptr inbounds %class.aiMatrix4x4t, ptr %0, i32 0, i32 0
  %1 = load float, ptr %a1, align 4
  %a12 = getelementptr inbounds %class.aiMatrix4x4t, ptr %this1, i32 0, i32 0
  %2 = load float, ptr %a12, align 4
  %3 = load ptr, ptr %m.addr, align 8
  %b1 = getelementptr inbounds %class.aiMatrix4x4t, ptr %3, i32 0, i32 4
  %4 = load float, ptr %b1, align 4
  %a2 = getelementptr inbounds %class.aiMatrix4x4t, ptr %this1, i32 0, i32 1
  %5 = load float, ptr %a2, align 4
  %mul3 = fmul float %4, %5
  %6 = call float @llvm.fmuladd.f32(float %1, float %2, float %mul3)
  %7 = load ptr, ptr %m.addr, align 8
  %c1 = getelementptr inbounds %class.aiMatrix4x4t, ptr %7, i32 0, i32 8
  %8 = load float, ptr %c1, align 4
  %a3 = getelementptr inbounds %class.aiMatrix4x4t, ptr %this1, i32 0, i32 2
  %9 = load float, ptr %a3, align 4
  %10 = call float @llvm.fmuladd.f32(float %8, float %9, float %6)
  %11 = load ptr, ptr %m.addr, align 8
  %d1 = getelementptr inbounds %class.aiMatrix4x4t, ptr %11, i32 0, i32 12
  %12 = load float, ptr %d1, align 4
  %a4 = getelementptr inbounds %class.aiMatrix4x4t, ptr %this1, i32 0, i32 3
  %13 = load float, ptr %a4, align 4
  %14 = call float @llvm.fmuladd.f32(float %12, float %13, float %10)
  %15 = load ptr, ptr %m.addr, align 8
  %a24 = getelementptr inbounds %class.aiMatrix4x4t, ptr %15, i32 0, i32 1
  %16 = load float, ptr %a24, align 4
  %a15 = getelementptr inbounds %class.aiMatrix4x4t, ptr %this1, i32 0, i32 0
  %17 = load float, ptr %a15, align 4
  %18 = load ptr, ptr %m.addr, align 8
  %b2 = getelementptr inbounds %class.aiMatrix4x4t, ptr %18, i32 0, i32 5
  %19 = load float, ptr %b2, align 4
  %a26 = getelementptr inbounds %class.aiMatrix4x4t, ptr %this1, i32 0, i32 1
  %20 = load float, ptr %a26, align 4
  %mul7 = fmul float %19, %20
  %21 = call float @llvm.fmuladd.f32(float %16, float %17, float %mul7)
  %22 = load ptr, ptr %m.addr, align 8
  %c2 = getelementptr inbounds %class.aiMatrix4x4t, ptr %22, i32 0, i32 9
  %23 = load float, ptr %c2, align 4
  %a38 = getelementptr inbounds %class.aiMatrix4x4t, ptr %this1, i32 0, i32 2
  %24 = load float, ptr %a38, align 4
  %25 = call float @llvm.fmuladd.f32(float %23, float %24, float %21)
  %26 = load ptr, ptr %m.addr, align 8
  %d2 = getelementptr inbounds %class.aiMatrix4x4t, ptr %26, i32 0, i32 13
  %27 = load float, ptr %d2, align 4
  %a49 = getelementptr inbounds %class.aiMatrix4x4t, ptr %this1, i32 0, i32 3
  %28 = load float, ptr %a49, align 4
  %29 = call float @llvm.fmuladd.f32(float %27, float %28, float %25)
  %30 = load ptr, ptr %m.addr, align 8
  %a310 = getelementptr inbounds %class.aiMatrix4x4t, ptr %30, i32 0, i32 2
  %31 = load float, ptr %a310, align 4
  %a111 = getelementptr inbounds %class.aiMatrix4x4t, ptr %this1, i32 0, i32 0
  %32 = load float, ptr %a111, align 4
  %33 = load ptr, ptr %m.addr, align 8
  %b3 = getelementptr inbounds %class.aiMatrix4x4t, ptr %33, i32 0, i32 6
  %34 = load float, ptr %b3, align 4
  %a212 = getelementptr inbounds %class.aiMatrix4x4t, ptr %this1, i32 0, i32 1
  %35 = load float, ptr %a212, align 4
  %mul13 = fmul float %34, %35
  %36 = call float @llvm.fmuladd.f32(float %31, float %32, float %mul13)
  %37 = load ptr, ptr %m.addr, align 8
  %c3 = getelementptr inbounds %class.aiMatrix4x4t, ptr %37, i32 0, i32 10
  %38 = load float, ptr %c3, align 4
  %a314 = getelementptr inbounds %class.aiMatrix4x4t, ptr %this1, i32 0, i32 2
  %39 = load float, ptr %a314, align 4
  %40 = call float @llvm.fmuladd.f32(float %38, float %39, float %36)
  %41 = load ptr, ptr %m.addr, align 8
  %d3 = getelementptr inbounds %class.aiMatrix4x4t, ptr %41, i32 0, i32 14
  %42 = load float, ptr %d3, align 4
  %a415 = getelementptr inbounds %class.aiMatrix4x4t, ptr %this1, i32 0, i32 3
  %43 = load float, ptr %a415, align 4
  %44 = call float @llvm.fmuladd.f32(float %42, float %43, float %40)
  %45 = load ptr, ptr %m.addr, align 8
  %a416 = getelementptr inbounds %class.aiMatrix4x4t, ptr %45, i32 0, i32 3
  %46 = load float, ptr %a416, align 4
  %a117 = getelementptr inbounds %class.aiMatrix4x4t, ptr %this1, i32 0, i32 0
  %47 = load float, ptr %a117, align 4
  %48 = load ptr, ptr %m.addr, align 8
  %b4 = getelementptr inbounds %class.aiMatrix4x4t, ptr %48, i32 0, i32 7
  %49 = load float, ptr %b4, align 4
  %a218 = getelementptr inbounds %class.aiMatrix4x4t, ptr %this1, i32 0, i32 1
  %50 = load float, ptr %a218, align 4
  %mul19 = fmul float %49, %50
  %51 = call float @llvm.fmuladd.f32(float %46, float %47, float %mul19)
  %52 = load ptr, ptr %m.addr, align 8
  %c4 = getelementptr inbounds %class.aiMatrix4x4t, ptr %52, i32 0, i32 11
  %53 = load float, ptr %c4, align 4
  %a320 = getelementptr inbounds %class.aiMatrix4x4t, ptr %this1, i32 0, i32 2
  %54 = load float, ptr %a320, align 4
  %55 = call float @llvm.fmuladd.f32(float %53, float %54, float %51)
  %56 = load ptr, ptr %m.addr, align 8
  %d4 = getelementptr inbounds %class.aiMatrix4x4t, ptr %56, i32 0, i32 15
  %57 = load float, ptr %d4, align 4
  %a421 = getelementptr inbounds %class.aiMatrix4x4t, ptr %this1, i32 0, i32 3
  %58 = load float, ptr %a421, align 4
  %59 = call float @llvm.fmuladd.f32(float %57, float %58, float %55)
  %60 = load ptr, ptr %m.addr, align 8
  %a122 = getelementptr inbounds %class.aiMatrix4x4t, ptr %60, i32 0, i32 0
  %61 = load float, ptr %a122, align 4
  %b123 = getelementptr inbounds %class.aiMatrix4x4t, ptr %this1, i32 0, i32 4
  %62 = load float, ptr %b123, align 4
  %63 = load ptr, ptr %m.addr, align 8
  %b124 = getelementptr inbounds %class.aiMatrix4x4t, ptr %63, i32 0, i32 4
  %64 = load float, ptr %b124, align 4
  %b225 = getelementptr inbounds %class.aiMatrix4x4t, ptr %this1, i32 0, i32 5
  %65 = load float, ptr %b225, align 4
  %mul26 = fmul float %64, %65
  %66 = call float @llvm.fmuladd.f32(float %61, float %62, float %mul26)
  %67 = load ptr, ptr %m.addr, align 8
  %c127 = getelementptr inbounds %class.aiMatrix4x4t, ptr %67, i32 0, i32 8
  %68 = load float, ptr %c127, align 4
  %b328 = getelementptr inbounds %class.aiMatrix4x4t, ptr %this1, i32 0, i32 6
  %69 = load float, ptr %b328, align 4
  %70 = call float @llvm.fmuladd.f32(float %68, float %69, float %66)
  %71 = load ptr, ptr %m.addr, align 8
  %d129 = getelementptr inbounds %class.aiMatrix4x4t, ptr %71, i32 0, i32 12
  %72 = load float, ptr %d129, align 4
  %b430 = getelementptr inbounds %class.aiMatrix4x4t, ptr %this1, i32 0, i32 7
  %73 = load float, ptr %b430, align 4
  %74 = call float @llvm.fmuladd.f32(float %72, float %73, float %70)
  %75 = load ptr, ptr %m.addr, align 8
  %a231 = getelementptr inbounds %class.aiMatrix4x4t, ptr %75, i32 0, i32 1
  %76 = load float, ptr %a231, align 4
  %b132 = getelementptr inbounds %class.aiMatrix4x4t, ptr %this1, i32 0, i32 4
  %77 = load float, ptr %b132, align 4
  %78 = load ptr, ptr %m.addr, align 8
  %b233 = getelementptr inbounds %class.aiMatrix4x4t, ptr %78, i32 0, i32 5
  %79 = load float, ptr %b233, align 4
  %b234 = getelementptr inbounds %class.aiMatrix4x4t, ptr %this1, i32 0, i32 5
  %80 = load float, ptr %b234, align 4
  %mul35 = fmul float %79, %80
  %81 = call float @llvm.fmuladd.f32(float %76, float %77, float %mul35)
  %82 = load ptr, ptr %m.addr, align 8
  %c236 = getelementptr inbounds %class.aiMatrix4x4t, ptr %82, i32 0, i32 9
  %83 = load float, ptr %c236, align 4
  %b337 = getelementptr inbounds %class.aiMatrix4x4t, ptr %this1, i32 0, i32 6
  %84 = load float, ptr %b337, align 4
  %85 = call float @llvm.fmuladd.f32(float %83, float %84, float %81)
  %86 = load ptr, ptr %m.addr, align 8
  %d238 = getelementptr inbounds %class.aiMatrix4x4t, ptr %86, i32 0, i32 13
  %87 = load float, ptr %d238, align 4
  %b439 = getelementptr inbounds %class.aiMatrix4x4t, ptr %this1, i32 0, i32 7
  %88 = load float, ptr %b439, align 4
  %89 = call float @llvm.fmuladd.f32(float %87, float %88, float %85)
  %90 = load ptr, ptr %m.addr, align 8
  %a340 = getelementptr inbounds %class.aiMatrix4x4t, ptr %90, i32 0, i32 2
  %91 = load float, ptr %a340, align 4
  %b141 = getelementptr inbounds %class.aiMatrix4x4t, ptr %this1, i32 0, i32 4
  %92 = load float, ptr %b141, align 4
  %93 = load ptr, ptr %m.addr, align 8
  %b342 = getelementptr inbounds %class.aiMatrix4x4t, ptr %93, i32 0, i32 6
  %94 = load float, ptr %b342, align 4
  %b243 = getelementptr inbounds %class.aiMatrix4x4t, ptr %this1, i32 0, i32 5
  %95 = load float, ptr %b243, align 4
  %mul44 = fmul float %94, %95
  %96 = call float @llvm.fmuladd.f32(float %91, float %92, float %mul44)
  %97 = load ptr, ptr %m.addr, align 8
  %c345 = getelementptr inbounds %class.aiMatrix4x4t, ptr %97, i32 0, i32 10
  %98 = load float, ptr %c345, align 4
  %b346 = getelementptr inbounds %class.aiMatrix4x4t, ptr %this1, i32 0, i32 6
  %99 = load float, ptr %b346, align 4
  %100 = call float @llvm.fmuladd.f32(float %98, float %99, float %96)
  %101 = load ptr, ptr %m.addr, align 8
  %d347 = getelementptr inbounds %class.aiMatrix4x4t, ptr %101, i32 0, i32 14
  %102 = load float, ptr %d347, align 4
  %b448 = getelementptr inbounds %class.aiMatrix4x4t, ptr %this1, i32 0, i32 7
  %103 = load float, ptr %b448, align 4
  %104 = call float @llvm.fmuladd.f32(float %102, float %103, float %100)
  %105 = load ptr, ptr %m.addr, align 8
  %a449 = getelementptr inbounds %class.aiMatrix4x4t, ptr %105, i32 0, i32 3
  %106 = load float, ptr %a449, align 4
  %b150 = getelementptr inbounds %class.aiMatrix4x4t, ptr %this1, i32 0, i32 4
  %107 = load float, ptr %b150, align 4
  %108 = load ptr, ptr %m.addr, align 8
  %b451 = getelementptr inbounds %class.aiMatrix4x4t, ptr %108, i32 0, i32 7
  %109 = load float, ptr %b451, align 4
  %b252 = getelementptr inbounds %class.aiMatrix4x4t, ptr %this1, i32 0, i32 5
  %110 = load float, ptr %b252, align 4
  %mul53 = fmul float %109, %110
  %111 = call float @llvm.fmuladd.f32(float %106, float %107, float %mul53)
  %112 = load ptr, ptr %m.addr, align 8
  %c454 = getelementptr inbounds %class.aiMatrix4x4t, ptr %112, i32 0, i32 11
  %113 = load float, ptr %c454, align 4
  %b355 = getelementptr inbounds %class.aiMatrix4x4t, ptr %this1, i32 0, i32 6
  %114 = load float, ptr %b355, align 4
  %115 = call float @llvm.fmuladd.f32(float %113, float %114, float %111)
  %116 = load ptr, ptr %m.addr, align 8
  %d456 = getelementptr inbounds %class.aiMatrix4x4t, ptr %116, i32 0, i32 15
  %117 = load float, ptr %d456, align 4
  %b457 = getelementptr inbounds %class.aiMatrix4x4t, ptr %this1, i32 0, i32 7
  %118 = load float, ptr %b457, align 4
  %119 = call float @llvm.fmuladd.f32(float %117, float %118, float %115)
  %120 = load ptr, ptr %m.addr, align 8
  %a158 = getelementptr inbounds %class.aiMatrix4x4t, ptr %120, i32 0, i32 0
  %121 = load float, ptr %a158, align 4
  %c159 = getelementptr inbounds %class.aiMatrix4x4t, ptr %this1, i32 0, i32 8
  %122 = load float, ptr %c159, align 4
  %123 = load ptr, ptr %m.addr, align 8
  %b160 = getelementptr inbounds %class.aiMatrix4x4t, ptr %123, i32 0, i32 4
  %124 = load float, ptr %b160, align 4
  %c261 = getelementptr inbounds %class.aiMatrix4x4t, ptr %this1, i32 0, i32 9
  %125 = load float, ptr %c261, align 4
  %mul62 = fmul float %124, %125
  %126 = call float @llvm.fmuladd.f32(float %121, float %122, float %mul62)
  %127 = load ptr, ptr %m.addr, align 8
  %c163 = getelementptr inbounds %class.aiMatrix4x4t, ptr %127, i32 0, i32 8
  %128 = load float, ptr %c163, align 4
  %c364 = getelementptr inbounds %class.aiMatrix4x4t, ptr %this1, i32 0, i32 10
  %129 = load float, ptr %c364, align 4
  %130 = call float @llvm.fmuladd.f32(float %128, float %129, float %126)
  %131 = load ptr, ptr %m.addr, align 8
  %d165 = getelementptr inbounds %class.aiMatrix4x4t, ptr %131, i32 0, i32 12
  %132 = load float, ptr %d165, align 4
  %c466 = getelementptr inbounds %class.aiMatrix4x4t, ptr %this1, i32 0, i32 11
  %133 = load float, ptr %c466, align 4
  %134 = call float @llvm.fmuladd.f32(float %132, float %133, float %130)
  %135 = load ptr, ptr %m.addr, align 8
  %a267 = getelementptr inbounds %class.aiMatrix4x4t, ptr %135, i32 0, i32 1
  %136 = load float, ptr %a267, align 4
  %c168 = getelementptr inbounds %class.aiMatrix4x4t, ptr %this1, i32 0, i32 8
  %137 = load float, ptr %c168, align 4
  %138 = load ptr, ptr %m.addr, align 8
  %b269 = getelementptr inbounds %class.aiMatrix4x4t, ptr %138, i32 0, i32 5
  %139 = load float, ptr %b269, align 4
  %c270 = getelementptr inbounds %class.aiMatrix4x4t, ptr %this1, i32 0, i32 9
  %140 = load float, ptr %c270, align 4
  %mul71 = fmul float %139, %140
  %141 = call float @llvm.fmuladd.f32(float %136, float %137, float %mul71)
  %142 = load ptr, ptr %m.addr, align 8
  %c272 = getelementptr inbounds %class.aiMatrix4x4t, ptr %142, i32 0, i32 9
  %143 = load float, ptr %c272, align 4
  %c373 = getelementptr inbounds %class.aiMatrix4x4t, ptr %this1, i32 0, i32 10
  %144 = load float, ptr %c373, align 4
  %145 = call float @llvm.fmuladd.f32(float %143, float %144, float %141)
  %146 = load ptr, ptr %m.addr, align 8
  %d274 = getelementptr inbounds %class.aiMatrix4x4t, ptr %146, i32 0, i32 13
  %147 = load float, ptr %d274, align 4
  %c475 = getelementptr inbounds %class.aiMatrix4x4t, ptr %this1, i32 0, i32 11
  %148 = load float, ptr %c475, align 4
  %149 = call float @llvm.fmuladd.f32(float %147, float %148, float %145)
  %150 = load ptr, ptr %m.addr, align 8
  %a376 = getelementptr inbounds %class.aiMatrix4x4t, ptr %150, i32 0, i32 2
  %151 = load float, ptr %a376, align 4
  %c177 = getelementptr inbounds %class.aiMatrix4x4t, ptr %this1, i32 0, i32 8
  %152 = load float, ptr %c177, align 4
  %153 = load ptr, ptr %m.addr, align 8
  %b378 = getelementptr inbounds %class.aiMatrix4x4t, ptr %153, i32 0, i32 6
  %154 = load float, ptr %b378, align 4
  %c279 = getelementptr inbounds %class.aiMatrix4x4t, ptr %this1, i32 0, i32 9
  %155 = load float, ptr %c279, align 4
  %mul80 = fmul float %154, %155
  %156 = call float @llvm.fmuladd.f32(float %151, float %152, float %mul80)
  %157 = load ptr, ptr %m.addr, align 8
  %c381 = getelementptr inbounds %class.aiMatrix4x4t, ptr %157, i32 0, i32 10
  %158 = load float, ptr %c381, align 4
  %c382 = getelementptr inbounds %class.aiMatrix4x4t, ptr %this1, i32 0, i32 10
  %159 = load float, ptr %c382, align 4
  %160 = call float @llvm.fmuladd.f32(float %158, float %159, float %156)
  %161 = load ptr, ptr %m.addr, align 8
  %d383 = getelementptr inbounds %class.aiMatrix4x4t, ptr %161, i32 0, i32 14
  %162 = load float, ptr %d383, align 4
  %c484 = getelementptr inbounds %class.aiMatrix4x4t, ptr %this1, i32 0, i32 11
  %163 = load float, ptr %c484, align 4
  %164 = call float @llvm.fmuladd.f32(float %162, float %163, float %160)
  %165 = load ptr, ptr %m.addr, align 8
  %a485 = getelementptr inbounds %class.aiMatrix4x4t, ptr %165, i32 0, i32 3
  %166 = load float, ptr %a485, align 4
  %c186 = getelementptr inbounds %class.aiMatrix4x4t, ptr %this1, i32 0, i32 8
  %167 = load float, ptr %c186, align 4
  %168 = load ptr, ptr %m.addr, align 8
  %b487 = getelementptr inbounds %class.aiMatrix4x4t, ptr %168, i32 0, i32 7
  %169 = load float, ptr %b487, align 4
  %c288 = getelementptr inbounds %class.aiMatrix4x4t, ptr %this1, i32 0, i32 9
  %170 = load float, ptr %c288, align 4
  %mul89 = fmul float %169, %170
  %171 = call float @llvm.fmuladd.f32(float %166, float %167, float %mul89)
  %172 = load ptr, ptr %m.addr, align 8
  %c490 = getelementptr inbounds %class.aiMatrix4x4t, ptr %172, i32 0, i32 11
  %173 = load float, ptr %c490, align 4
  %c391 = getelementptr inbounds %class.aiMatrix4x4t, ptr %this1, i32 0, i32 10
  %174 = load float, ptr %c391, align 4
  %175 = call float @llvm.fmuladd.f32(float %173, float %174, float %171)
  %176 = load ptr, ptr %m.addr, align 8
  %d492 = getelementptr inbounds %class.aiMatrix4x4t, ptr %176, i32 0, i32 15
  %177 = load float, ptr %d492, align 4
  %c493 = getelementptr inbounds %class.aiMatrix4x4t, ptr %this1, i32 0, i32 11
  %178 = load float, ptr %c493, align 4
  %179 = call float @llvm.fmuladd.f32(float %177, float %178, float %175)
  %180 = load ptr, ptr %m.addr, align 8
  %a194 = getelementptr inbounds %class.aiMatrix4x4t, ptr %180, i32 0, i32 0
  %181 = load float, ptr %a194, align 4
  %d195 = getelementptr inbounds %class.aiMatrix4x4t, ptr %this1, i32 0, i32 12
  %182 = load float, ptr %d195, align 4
  %183 = load ptr, ptr %m.addr, align 8
  %b196 = getelementptr inbounds %class.aiMatrix4x4t, ptr %183, i32 0, i32 4
  %184 = load float, ptr %b196, align 4
  %d297 = getelementptr inbounds %class.aiMatrix4x4t, ptr %this1, i32 0, i32 13
  %185 = load float, ptr %d297, align 4
  %mul98 = fmul float %184, %185
  %186 = call float @llvm.fmuladd.f32(float %181, float %182, float %mul98)
  %187 = load ptr, ptr %m.addr, align 8
  %c199 = getelementptr inbounds %class.aiMatrix4x4t, ptr %187, i32 0, i32 8
  %188 = load float, ptr %c199, align 4
  %d3100 = getelementptr inbounds %class.aiMatrix4x4t, ptr %this1, i32 0, i32 14
  %189 = load float, ptr %d3100, align 4
  %190 = call float @llvm.fmuladd.f32(float %188, float %189, float %186)
  %191 = load ptr, ptr %m.addr, align 8
  %d1101 = getelementptr inbounds %class.aiMatrix4x4t, ptr %191, i32 0, i32 12
  %192 = load float, ptr %d1101, align 4
  %d4102 = getelementptr inbounds %class.aiMatrix4x4t, ptr %this1, i32 0, i32 15
  %193 = load float, ptr %d4102, align 4
  %194 = call float @llvm.fmuladd.f32(float %192, float %193, float %190)
  %195 = load ptr, ptr %m.addr, align 8
  %a2103 = getelementptr inbounds %class.aiMatrix4x4t, ptr %195, i32 0, i32 1
  %196 = load float, ptr %a2103, align 4
  %d1104 = getelementptr inbounds %class.aiMatrix4x4t, ptr %this1, i32 0, i32 12
  %197 = load float, ptr %d1104, align 4
  %198 = load ptr, ptr %m.addr, align 8
  %b2105 = getelementptr inbounds %class.aiMatrix4x4t, ptr %198, i32 0, i32 5
  %199 = load float, ptr %b2105, align 4
  %d2106 = getelementptr inbounds %class.aiMatrix4x4t, ptr %this1, i32 0, i32 13
  %200 = load float, ptr %d2106, align 4
  %mul107 = fmul float %199, %200
  %201 = call float @llvm.fmuladd.f32(float %196, float %197, float %mul107)
  %202 = load ptr, ptr %m.addr, align 8
  %c2108 = getelementptr inbounds %class.aiMatrix4x4t, ptr %202, i32 0, i32 9
  %203 = load float, ptr %c2108, align 4
  %d3109 = getelementptr inbounds %class.aiMatrix4x4t, ptr %this1, i32 0, i32 14
  %204 = load float, ptr %d3109, align 4
  %205 = call float @llvm.fmuladd.f32(float %203, float %204, float %201)
  %206 = load ptr, ptr %m.addr, align 8
  %d2110 = getelementptr inbounds %class.aiMatrix4x4t, ptr %206, i32 0, i32 13
  %207 = load float, ptr %d2110, align 4
  %d4111 = getelementptr inbounds %class.aiMatrix4x4t, ptr %this1, i32 0, i32 15
  %208 = load float, ptr %d4111, align 4
  %209 = call float @llvm.fmuladd.f32(float %207, float %208, float %205)
  %210 = load ptr, ptr %m.addr, align 8
  %a3112 = getelementptr inbounds %class.aiMatrix4x4t, ptr %210, i32 0, i32 2
  %211 = load float, ptr %a3112, align 4
  %d1113 = getelementptr inbounds %class.aiMatrix4x4t, ptr %this1, i32 0, i32 12
  %212 = load float, ptr %d1113, align 4
  %213 = load ptr, ptr %m.addr, align 8
  %b3114 = getelementptr inbounds %class.aiMatrix4x4t, ptr %213, i32 0, i32 6
  %214 = load float, ptr %b3114, align 4
  %d2115 = getelementptr inbounds %class.aiMatrix4x4t, ptr %this1, i32 0, i32 13
  %215 = load float, ptr %d2115, align 4
  %mul116 = fmul float %214, %215
  %216 = call float @llvm.fmuladd.f32(float %211, float %212, float %mul116)
  %217 = load ptr, ptr %m.addr, align 8
  %c3117 = getelementptr inbounds %class.aiMatrix4x4t, ptr %217, i32 0, i32 10
  %218 = load float, ptr %c3117, align 4
  %d3118 = getelementptr inbounds %class.aiMatrix4x4t, ptr %this1, i32 0, i32 14
  %219 = load float, ptr %d3118, align 4
  %220 = call float @llvm.fmuladd.f32(float %218, float %219, float %216)
  %221 = load ptr, ptr %m.addr, align 8
  %d3119 = getelementptr inbounds %class.aiMatrix4x4t, ptr %221, i32 0, i32 14
  %222 = load float, ptr %d3119, align 4
  %d4120 = getelementptr inbounds %class.aiMatrix4x4t, ptr %this1, i32 0, i32 15
  %223 = load float, ptr %d4120, align 4
  %224 = call float @llvm.fmuladd.f32(float %222, float %223, float %220)
  %225 = load ptr, ptr %m.addr, align 8
  %a4121 = getelementptr inbounds %class.aiMatrix4x4t, ptr %225, i32 0, i32 3
  %226 = load float, ptr %a4121, align 4
  %d1122 = getelementptr inbounds %class.aiMatrix4x4t, ptr %this1, i32 0, i32 12
  %227 = load float, ptr %d1122, align 4
  %228 = load ptr, ptr %m.addr, align 8
  %b4123 = getelementptr inbounds %class.aiMatrix4x4t, ptr %228, i32 0, i32 7
  %229 = load float, ptr %b4123, align 4
  %d2124 = getelementptr inbounds %class.aiMatrix4x4t, ptr %this1, i32 0, i32 13
  %230 = load float, ptr %d2124, align 4
  %mul125 = fmul float %229, %230
  %231 = call float @llvm.fmuladd.f32(float %226, float %227, float %mul125)
  %232 = load ptr, ptr %m.addr, align 8
  %c4126 = getelementptr inbounds %class.aiMatrix4x4t, ptr %232, i32 0, i32 11
  %233 = load float, ptr %c4126, align 4
  %d3127 = getelementptr inbounds %class.aiMatrix4x4t, ptr %this1, i32 0, i32 14
  %234 = load float, ptr %d3127, align 4
  %235 = call float @llvm.fmuladd.f32(float %233, float %234, float %231)
  %236 = load ptr, ptr %m.addr, align 8
  %d4128 = getelementptr inbounds %class.aiMatrix4x4t, ptr %236, i32 0, i32 15
  %237 = load float, ptr %d4128, align 4
  %d4129 = getelementptr inbounds %class.aiMatrix4x4t, ptr %this1, i32 0, i32 15
  %238 = load float, ptr %d4129, align 4
  %239 = call float @llvm.fmuladd.f32(float %237, float %238, float %235)
  call void @_ZN12aiMatrix4x4tIfEC2Effffffffffffffff(ptr noundef nonnull align 4 dereferenceable(64) %ref.tmp, float noundef %14, float noundef %29, float noundef %44, float noundef %59, float noundef %74, float noundef %89, float noundef %104, float noundef %119, float noundef %134, float noundef %149, float noundef %164, float noundef %179, float noundef %194, float noundef %209, float noundef %224, float noundef %239)
  call void @llvm.memcpy.p0.p0.i64(ptr align 4 %this1, ptr align 4 %ref.tmp, i64 64, i1 false)
  ret ptr %this1
}

; Function Attrs: mustprogress uwtable
define hidden void @_ZN6Assimp19Discreet3DSImporter9ReadChunkEPNS_4D3DS11Discreet3DS5ChunkE(ptr noundef nonnull align 8 dereferenceable(162) %this, ptr noundef %pcOut) #3 align 2 personality ptr @__gxx_personality_v0 {
entry:
  %this.addr = alloca ptr, align 8
  %pcOut.addr = alloca ptr, align 8
  %exn.slot = alloca ptr, align 8
  %ehselector.slot = alloca i32, align 4
  store ptr %this, ptr %this.addr, align 8
  store ptr %pcOut, ptr %pcOut.addr, align 8
  %this1 = load ptr, ptr %this.addr, align 8
  %stream = getelementptr inbounds %"class.Assimp::Discreet3DSImporter", ptr %this1, i32 0, i32 1
  %0 = load ptr, ptr %stream, align 8
  %call = call noundef signext i16 @_ZN6Assimp12StreamReaderILb0ELb0EE5GetI2Ev(ptr noundef nonnull align 8 dereferenceable(49) %0)
  %1 = load ptr, ptr %pcOut.addr, align 8
  %Flag = getelementptr inbounds %"struct.Assimp::D3DS::Discreet3DS::Chunk", ptr %1, i32 0, i32 0
  store i16 %call, ptr %Flag, align 1
  %stream2 = getelementptr inbounds %"class.Assimp::Discreet3DSImporter", ptr %this1, i32 0, i32 1
  %2 = load ptr, ptr %stream2, align 8
  %call3 = call noundef i32 @_ZN6Assimp12StreamReaderILb0ELb0EE5GetI4Ev(ptr noundef nonnull align 8 dereferenceable(49) %2)
  %3 = load ptr, ptr %pcOut.addr, align 8
  %Size = getelementptr inbounds %"struct.Assimp::D3DS::Discreet3DS::Chunk", ptr %3, i32 0, i32 1
  store i32 %call3, ptr %Size, align 1
  %4 = load ptr, ptr %pcOut.addr, align 8
  %Size4 = getelementptr inbounds %"struct.Assimp::D3DS::Discreet3DS::Chunk", ptr %4, i32 0, i32 1
  %5 = load i32, ptr %Size4, align 1
  %conv = zext i32 %5 to i64
  %sub = sub i64 %conv, 6
  %stream5 = getelementptr inbounds %"class.Assimp::Discreet3DSImporter", ptr %this1, i32 0, i32 1
  %6 = load ptr, ptr %stream5, align 8
  %call6 = call noundef i64 @_ZNK6Assimp12StreamReaderILb0ELb0EE16GetRemainingSizeEv(ptr noundef nonnull align 8 dereferenceable(49) %6)
  %cmp = icmp ugt i64 %sub, %call6
  br i1 %cmp, label %if.then, label %if.end

if.then:                                          ; preds = %entry
  %exception = call ptr @__cxa_allocate_exception(i64 16) #10
  invoke void @_ZN17DeadlyImportErrorC2EPKc(ptr noundef nonnull align 8 dereferenceable(16) %exception, ptr noundef @.str.5)
          to label %invoke.cont unwind label %lpad

invoke.cont:                                      ; preds = %if.then
  call void @__cxa_throw(ptr %exception, ptr @_ZTI17DeadlyImportError, ptr @_ZN17DeadlyImportErrorD2Ev) #18
  unreachable

lpad:                                             ; preds = %if.then
  %7 = landingpad { ptr, i32 }
          cleanup
  %8 = extractvalue { ptr, i32 } %7, 0
  store ptr %8, ptr %exn.slot, align 8
  %9 = extractvalue { ptr, i32 } %7, 1
  store i32 %9, ptr %ehselector.slot, align 4
  call void @__cxa_free_exception(ptr %exception) #10
  br label %eh.resume

if.end:                                           ; preds = %entry
  %10 = load ptr, ptr %pcOut.addr, align 8
  %Size7 = getelementptr inbounds %"struct.Assimp::D3DS::Discreet3DS::Chunk", ptr %10, i32 0, i32 1
  %11 = load i32, ptr %Size7, align 1
  %conv8 = zext i32 %11 to i64
  %sub9 = sub i64 %conv8, 6
  %stream10 = getelementptr inbounds %"class.Assimp::Discreet3DSImporter", ptr %this1, i32 0, i32 1
  %12 = load ptr, ptr %stream10, align 8
  %call11 = call noundef i64 @_ZNK6Assimp12StreamReaderILb0ELb0EE23GetRemainingSizeToLimitEv(ptr noundef nonnull align 8 dereferenceable(49) %12)
  %cmp12 = icmp ugt i64 %sub9, %call11
  br i1 %cmp12, label %if.then13, label %if.end15

if.then13:                                        ; preds = %if.end
  %call14 = call noundef ptr @_ZN6Assimp13DefaultLogger3getEv()
  call void @_ZN6Assimp6Logger5errorEPKc(ptr noundef nonnull align 8 dereferenceable(12) %call14, ptr noundef @.str.6)
  br label %if.end15

if.end15:                                         ; preds = %if.then13, %if.end
  ret void

eh.resume:                                        ; preds = %lpad
  %exn = load ptr, ptr %exn.slot, align 8
  %sel = load i32, ptr %ehselector.slot, align 4
  %lpad.val = insertvalue { ptr, i32 } poison, ptr %exn, 0
  %lpad.val16 = insertvalue { ptr, i32 } %lpad.val, i32 %sel, 1
  resume { ptr, i32 } %lpad.val16
}

; Function Attrs: mustprogress uwtable
define linkonce_odr hidden noundef signext i16 @_ZN6Assimp12StreamReaderILb0ELb0EE5GetI2Ev(ptr noundef nonnull align 8 dereferenceable(49) %this) #3 comdat align 2 {
entry:
  %this.addr = alloca ptr, align 8
  store ptr %this, ptr %this.addr, align 8
  %this1 = load ptr, ptr %this.addr, align 8
  %call = call noundef signext i16 @_ZN6Assimp12StreamReaderILb0ELb0EE3GetIsEET_v(ptr noundef nonnull align 8 dereferenceable(49) %this1)
  ret i16 %call
}

; Function Attrs: mustprogress uwtable
define linkonce_odr hidden noundef i32 @_ZN6Assimp12StreamReaderILb0ELb0EE5GetI4Ev(ptr noundef nonnull align 8 dereferenceable(49) %this) #3 comdat align 2 {
entry:
  %this.addr = alloca ptr, align 8
  store ptr %this, ptr %this.addr, align 8
  %this1 = load ptr, ptr %this.addr, align 8
  %call = call noundef i32 @_ZN6Assimp12StreamReaderILb0ELb0EE3GetIiEET_v(ptr noundef nonnull align 8 dereferenceable(49) %this1)
  ret i32 %call
}

; Function Attrs: mustprogress uwtable
define linkonce_odr void @_ZN17DeadlyImportErrorC2EPKc(ptr noundef nonnull align 8 dereferenceable(16) %this, ptr noundef %message) unnamed_addr #3 comdat align 2 personality ptr @__gxx_personality_v0 {
entry:
  %this.addr = alloca ptr, align 8
  %message.addr = alloca ptr, align 8
  %agg.tmp = alloca %"class.Assimp::Formatter::basic_formatter", align 8
  %exn.slot = alloca ptr, align 8
  %ehselector.slot = alloca i32, align 4
  store ptr %this, ptr %this.addr, align 8
  store ptr %message, ptr %message.addr, align 8
  %this1 = load ptr, ptr %this.addr, align 8
  call void @_ZN6Assimp9Formatter15basic_formatterIcSt11char_traitsIcESaIcEEC2Ev(ptr noundef nonnull align 8 dereferenceable(376) %agg.tmp)
  invoke void @_ZN15DeadlyErrorBaseC2IJEPKcEEN6Assimp9Formatter15basic_formatterIcSt11char_traitsIcESaIcEEEOT0_DpOT_(ptr noundef nonnull align 8 dereferenceable(16) %this1, ptr noundef %agg.tmp, ptr noundef nonnull align 8 dereferenceable(8) %message.addr)
          to label %invoke.cont unwind label %lpad

invoke.cont:                                      ; preds = %entry
  call void @_ZN6Assimp9Formatter15basic_formatterIcSt11char_traitsIcESaIcEED2Ev(ptr noundef nonnull align 8 dereferenceable(376) %agg.tmp) #10
  store ptr getelementptr inbounds ({ [5 x ptr] }, ptr @_ZTV17DeadlyImportError, i32 0, inrange i32 0, i32 2), ptr %this1, align 8
  ret void

lpad:                                             ; preds = %entry
  %0 = landingpad { ptr, i32 }
          cleanup
  %1 = extractvalue { ptr, i32 } %0, 0
  store ptr %1, ptr %exn.slot, align 8
  %2 = extractvalue { ptr, i32 } %0, 1
  store i32 %2, ptr %ehselector.slot, align 4
  call void @_ZN6Assimp9Formatter15basic_formatterIcSt11char_traitsIcESaIcEED2Ev(ptr noundef nonnull align 8 dereferenceable(376) %agg.tmp) #10
  br label %eh.resume

eh.resume:                                        ; preds = %lpad
  %exn = load ptr, ptr %exn.slot, align 8
  %sel = load i32, ptr %ehselector.slot, align 4
  %lpad.val = insertvalue { ptr, i32 } poison, ptr %exn, 0
  %lpad.val2 = insertvalue { ptr, i32 } %lpad.val, i32 %sel, 1
  resume { ptr, i32 } %lpad.val2
}

; Function Attrs: mustprogress nounwind uwtable
define linkonce_odr hidden noundef i64 @_ZNK6Assimp12StreamReaderILb0ELb0EE23GetRemainingSizeToLimitEv(ptr noundef nonnull align 8 dereferenceable(49) %this) #0 comdat align 2 {
entry:
  %this.addr = alloca ptr, align 8
  store ptr %this, ptr %this.addr, align 8
  %this1 = load ptr, ptr %this.addr, align 8
  %mLimit = getelementptr inbounds %"class.Assimp::StreamReader", ptr %this1, i32 0, i32 4
  %0 = load ptr, ptr %mLimit, align 8
  %mCurrent = getelementptr inbounds %"class.Assimp::StreamReader", ptr %this1, i32 0, i32 2
  %1 = load ptr, ptr %mCurrent, align 8
  %sub.ptr.lhs.cast = ptrtoint ptr %0 to i64
  %sub.ptr.rhs.cast = ptrtoint ptr %1 to i64
  %sub.ptr.sub = sub i64 %sub.ptr.lhs.cast, %sub.ptr.rhs.cast
  %conv = trunc i64 %sub.ptr.sub to i32
  %conv2 = zext i32 %conv to i64
  ret i64 %conv2
}

declare noundef ptr @_ZN6Assimp13DefaultLogger3getEv() #4

declare void @_ZN6Assimp6Logger5errorEPKc(ptr noundef nonnull align 8 dereferenceable(12), ptr noundef) #4

; Function Attrs: mustprogress uwtable
define hidden void @_ZN6Assimp19Discreet3DSImporter9SkipChunkEv(ptr noundef nonnull align 8 dereferenceable(162) %this) #3 align 2 {
entry:
  %this.addr = alloca ptr, align 8
  %psChunk = alloca %"struct.Assimp::D3DS::Discreet3DS::Chunk", align 1
  store ptr %this, ptr %this.addr, align 8
  %this1 = load ptr, ptr %this.addr, align 8
  call void @_ZN6Assimp19Discreet3DSImporter9ReadChunkEPNS_4D3DS11Discreet3DS5ChunkE(ptr noundef nonnull align 8 dereferenceable(162) %this1, ptr noundef %psChunk)
  %stream = getelementptr inbounds %"class.Assimp::Discreet3DSImporter", ptr %this1, i32 0, i32 1
  %0 = load ptr, ptr %stream, align 8
  %Size = getelementptr inbounds %"struct.Assimp::D3DS::Discreet3DS::Chunk", ptr %psChunk, i32 0, i32 1
  %1 = load i32, ptr %Size, align 1
  %conv = zext i32 %1 to i64
  %sub = sub i64 %conv, 6
  call void @_ZN6Assimp12StreamReaderILb0ELb0EE6IncPtrEl(ptr noundef nonnull align 8 dereferenceable(49) %0, i64 noundef %sub)
  ret void
}

; Function Attrs: mustprogress uwtable
define linkonce_odr hidden void @_ZN6Assimp12StreamReaderILb0ELb0EE6IncPtrEl(ptr noundef nonnull align 8 dereferenceable(49) %this, i64 noundef %plus) #3 comdat align 2 personality ptr @__gxx_personality_v0 {
entry:
  %this.addr = alloca ptr, align 8
  %plus.addr = alloca i64, align 8
  %exn.slot = alloca ptr, align 8
  %ehselector.slot = alloca i32, align 4
  store ptr %this, ptr %this.addr, align 8
  store i64 %plus, ptr %plus.addr, align 8
  %this1 = load ptr, ptr %this.addr, align 8
  %0 = load i64, ptr %plus.addr, align 8
  %mCurrent = getelementptr inbounds %"class.Assimp::StreamReader", ptr %this1, i32 0, i32 2
  %1 = load ptr, ptr %mCurrent, align 8
  %add.ptr = getelementptr inbounds i8, ptr %1, i64 %0
  store ptr %add.ptr, ptr %mCurrent, align 8
  %mCurrent2 = getelementptr inbounds %"class.Assimp::StreamReader", ptr %this1, i32 0, i32 2
  %2 = load ptr, ptr %mCurrent2, align 8
  %mLimit = getelementptr inbounds %"class.Assimp::StreamReader", ptr %this1, i32 0, i32 4
  %3 = load ptr, ptr %mLimit, align 8
  %cmp = icmp ugt ptr %2, %3
  br i1 %cmp, label %if.then, label %if.end

if.then:                                          ; preds = %entry
  %exception = call ptr @__cxa_allocate_exception(i64 16) #10
  invoke void @_ZN17DeadlyImportErrorC2EPKc(ptr noundef nonnull align 8 dereferenceable(16) %exception, ptr noundef @.str.38)
          to label %invoke.cont unwind label %lpad

invoke.cont:                                      ; preds = %if.then
  call void @__cxa_throw(ptr %exception, ptr @_ZTI17DeadlyImportError, ptr @_ZN17DeadlyImportErrorD2Ev) #18
  unreachable

lpad:                                             ; preds = %if.then
  %4 = landingpad { ptr, i32 }
          cleanup
  %5 = extractvalue { ptr, i32 } %4, 0
  store ptr %5, ptr %exn.slot, align 8
  %6 = extractvalue { ptr, i32 } %4, 1
  store i32 %6, ptr %ehselector.slot, align 4
  call void @__cxa_free_exception(ptr %exception) #10
  br label %eh.resume

if.end:                                           ; preds = %entry
  ret void

eh.resume:                                        ; preds = %lpad
  %exn = load ptr, ptr %exn.slot, align 8
  %sel = load i32, ptr %ehselector.slot, align 4
  %lpad.val = insertvalue { ptr, i32 } poison, ptr %exn, 0
  %lpad.val3 = insertvalue { ptr, i32 } %lpad.val, i32 %sel, 1
  resume { ptr, i32 } %lpad.val3
}

; Function Attrs: mustprogress uwtable
define linkonce_odr hidden noundef i32 @_ZN6Assimp12StreamReaderILb0ELb0EE12SetReadLimitEj(ptr noundef nonnull align 8 dereferenceable(49) %this, i32 noundef %_limit) #3 comdat align 2 personality ptr @__gxx_personality_v0 {
entry:
  %retval = alloca i32, align 4
  %this.addr = alloca ptr, align 8
  %_limit.addr = alloca i32, align 4
  %prev = alloca i32, align 4
  %exn.slot = alloca ptr, align 8
  %ehselector.slot = alloca i32, align 4
  store ptr %this, ptr %this.addr, align 8
  store i32 %_limit, ptr %_limit.addr, align 4
  %this1 = load ptr, ptr %this.addr, align 8
  %call = call noundef i32 @_ZNK6Assimp12StreamReaderILb0ELb0EE12GetReadLimitEv(ptr noundef nonnull align 8 dereferenceable(49) %this1)
  store i32 %call, ptr %prev, align 4
  %0 = load i32, ptr %_limit.addr, align 4
  %cmp = icmp eq i32 -1, %0
  br i1 %cmp, label %if.then, label %if.end

if.then:                                          ; preds = %entry
  %mEnd = getelementptr inbounds %"class.Assimp::StreamReader", ptr %this1, i32 0, i32 3
  %1 = load ptr, ptr %mEnd, align 8
  %mLimit = getelementptr inbounds %"class.Assimp::StreamReader", ptr %this1, i32 0, i32 4
  store ptr %1, ptr %mLimit, align 8
  %2 = load i32, ptr %prev, align 4
  store i32 %2, ptr %retval, align 4
  br label %return

if.end:                                           ; preds = %entry
  %mBuffer = getelementptr inbounds %"class.Assimp::StreamReader", ptr %this1, i32 0, i32 1
  %3 = load ptr, ptr %mBuffer, align 8
  %4 = load i32, ptr %_limit.addr, align 4
  %idx.ext = zext i32 %4 to i64
  %add.ptr = getelementptr inbounds i8, ptr %3, i64 %idx.ext
  %mLimit2 = getelementptr inbounds %"class.Assimp::StreamReader", ptr %this1, i32 0, i32 4
  store ptr %add.ptr, ptr %mLimit2, align 8
  %mLimit3 = getelementptr inbounds %"class.Assimp::StreamReader", ptr %this1, i32 0, i32 4
  %5 = load ptr, ptr %mLimit3, align 8
  %mEnd4 = getelementptr inbounds %"class.Assimp::StreamReader", ptr %this1, i32 0, i32 3
  %6 = load ptr, ptr %mEnd4, align 8
  %cmp5 = icmp ugt ptr %5, %6
  br i1 %cmp5, label %if.then6, label %if.end7

if.then6:                                         ; preds = %if.end
  %exception = call ptr @__cxa_allocate_exception(i64 16) #10
  invoke void @_ZN17DeadlyImportErrorC2EPKc(ptr noundef nonnull align 8 dereferenceable(16) %exception, ptr noundef @.str.39)
          to label %invoke.cont unwind label %lpad

invoke.cont:                                      ; preds = %if.then6
  call void @__cxa_throw(ptr %exception, ptr @_ZTI17DeadlyImportError, ptr @_ZN17DeadlyImportErrorD2Ev) #18
  unreachable

lpad:                                             ; preds = %if.then6
  %7 = landingpad { ptr, i32 }
          cleanup
  %8 = extractvalue { ptr, i32 } %7, 0
  store ptr %8, ptr %exn.slot, align 8
  %9 = extractvalue { ptr, i32 } %7, 1
  store i32 %9, ptr %ehselector.slot, align 4
  call void @__cxa_free_exception(ptr %exception) #10
  br label %eh.resume

if.end7:                                          ; preds = %if.end
  %10 = load i32, ptr %prev, align 4
  store i32 %10, ptr %retval, align 4
  br label %return

return:                                           ; preds = %if.end7, %if.then
  %11 = load i32, ptr %retval, align 4
  ret i32 %11

eh.resume:                                        ; preds = %lpad
  %exn = load ptr, ptr %exn.slot, align 8
  %sel = load i32, ptr %ehselector.slot, align 4
  %lpad.val = insertvalue { ptr, i32 } poison, ptr %exn, 0
  %lpad.val8 = insertvalue { ptr, i32 } %lpad.val, i32 %sel, 1
  resume { ptr, i32 } %lpad.val8
}

; Function Attrs: mustprogress nounwind uwtable
define linkonce_odr hidden noundef i32 @_ZNK6Assimp12StreamReaderILb0ELb0EE13GetCurrentPosEv(ptr noundef nonnull align 8 dereferenceable(49) %this) #0 comdat align 2 {
entry:
  %this.addr = alloca ptr, align 8
  store ptr %this, ptr %this.addr, align 8
  %this1 = load ptr, ptr %this.addr, align 8
  %mCurrent = getelementptr inbounds %"class.Assimp::StreamReader", ptr %this1, i32 0, i32 2
  %0 = load ptr, ptr %mCurrent, align 8
  %mBuffer = getelementptr inbounds %"class.Assimp::StreamReader", ptr %this1, i32 0, i32 1
  %1 = load ptr, ptr %mBuffer, align 8
  %sub.ptr.lhs.cast = ptrtoint ptr %0 to i64
  %sub.ptr.rhs.cast = ptrtoint ptr %1 to i64
  %sub.ptr.sub = sub i64 %sub.ptr.lhs.cast, %sub.ptr.rhs.cast
  %conv = trunc i64 %sub.ptr.sub to i32
  ret i32 %conv
}

; Function Attrs: mustprogress uwtable
define hidden void @_ZN6Assimp19Discreet3DSImporter16ParseEditorChunkEv(ptr noundef nonnull align 8 dereferenceable(162) %this) #3 align 2 {
entry:
  %this.addr = alloca ptr, align 8
  %chunk = alloca %"struct.Assimp::D3DS::Discreet3DS::Chunk", align 1
  %chunkSize = alloca i32, align 4
  %oldReadLimit = alloca i32, align 4
  %buff = alloca [10 x i8], align 1
  store ptr %this, ptr %this.addr, align 8
  %this1 = load ptr, ptr %this.addr, align 8
  br label %while.body

while.body:                                       ; preds = %if.end25, %if.then4, %entry
  %stream = getelementptr inbounds %"class.Assimp::Discreet3DSImporter", ptr %this1, i32 0, i32 1
  %0 = load ptr, ptr %stream, align 8
  %call = call noundef i64 @_ZNK6Assimp12StreamReaderILb0ELb0EE23GetRemainingSizeToLimitEv(ptr noundef nonnull align 8 dereferenceable(49) %0)
  %cmp = icmp ult i64 %call, 6
  br i1 %cmp, label %if.then, label %if.end

if.then:                                          ; preds = %while.body
  br label %return

if.end:                                           ; preds = %while.body
  call void @_ZN6Assimp19Discreet3DSImporter9ReadChunkEPNS_4D3DS11Discreet3DS5ChunkE(ptr noundef nonnull align 8 dereferenceable(162) %this1, ptr noundef %chunk)
  %Size = getelementptr inbounds %"struct.Assimp::D3DS::Discreet3DS::Chunk", ptr %chunk, i32 0, i32 1
  %1 = load i32, ptr %Size, align 1
  %conv = zext i32 %1 to i64
  %sub = sub i64 %conv, 6
  %conv2 = trunc i64 %sub to i32
  store i32 %conv2, ptr %chunkSize, align 4
  %2 = load i32, ptr %chunkSize, align 4
  %cmp3 = icmp sle i32 %2, 0
  br i1 %cmp3, label %if.then4, label %if.end5

if.then4:                                         ; preds = %if.end
  br label %while.body, !llvm.loop !16

if.end5:                                          ; preds = %if.end
  %stream6 = getelementptr inbounds %"class.Assimp::Discreet3DSImporter", ptr %this1, i32 0, i32 1
  %3 = load ptr, ptr %stream6, align 8
  %stream7 = getelementptr inbounds %"class.Assimp::Discreet3DSImporter", ptr %this1, i32 0, i32 1
  %4 = load ptr, ptr %stream7, align 8
  %call8 = call noundef i32 @_ZNK6Assimp12StreamReaderILb0ELb0EE13GetCurrentPosEv(ptr noundef nonnull align 8 dereferenceable(49) %4)
  %5 = load i32, ptr %chunkSize, align 4
  %add = add nsw i32 %call8, %5
  %call9 = call noundef i32 @_ZN6Assimp12StreamReaderILb0ELb0EE12SetReadLimitEj(ptr noundef nonnull align 8 dereferenceable(49) %3, i32 noundef %add)
  store i32 %call9, ptr %oldReadLimit, align 4
  %Flag = getelementptr inbounds %"struct.Assimp::D3DS::Discreet3DS::Chunk", ptr %chunk, i32 0, i32 0
  %6 = load i16, ptr %Flag, align 1
  %conv10 = zext i16 %6 to i32
  switch i32 %conv10, label %sw.epilog [
    i32 15677, label %sw.bb
    i32 45056, label %sw.bb11
    i32 2, label %sw.bb12
  ]

sw.bb:                                            ; preds = %if.end5
  call void @_ZN6Assimp19Discreet3DSImporter16ParseObjectChunkEv(ptr noundef nonnull align 8 dereferenceable(162) %this1)
  br label %sw.epilog

sw.bb11:                                          ; preds = %if.end5
  call void @_ZN6Assimp19Discreet3DSImporter18ParseKeyframeChunkEv(ptr noundef nonnull align 8 dereferenceable(162) %this1)
  br label %sw.epilog

sw.bb12:                                          ; preds = %if.end5
  %stream13 = getelementptr inbounds %"class.Assimp::Discreet3DSImporter", ptr %this1, i32 0, i32 1
  %7 = load ptr, ptr %stream13, align 8
  %call14 = call noundef signext i16 @_ZN6Assimp12StreamReaderILb0ELb0EE5GetI2Ev(ptr noundef nonnull align 8 dereferenceable(49) %7)
  %conv15 = sext i16 %call14 to i32
  %call16 = call noundef i32 @_ZN6Assimp13ASSIMP_itoa10ILm10EEEjRAT__ci(ptr noundef nonnull align 1 dereferenceable(10) %buff, i32 noundef %conv15)
  %call17 = call noundef ptr @_ZN6Assimp13DefaultLogger3getEv()
  call void @_ZN6Assimp6Logger4infoIJRA26_KcRA10_cEEEvDpOT_(ptr noundef nonnull align 8 dereferenceable(12) %call17, ptr noundef nonnull align 1 dereferenceable(26) @.str.7, ptr noundef nonnull align 1 dereferenceable(10) %buff)
  br label %sw.epilog

sw.epilog:                                        ; preds = %sw.bb12, %sw.bb11, %sw.bb, %if.end5
  %stream18 = getelementptr inbounds %"class.Assimp::Discreet3DSImporter", ptr %this1, i32 0, i32 1
  %8 = load ptr, ptr %stream18, align 8
  call void @_ZN6Assimp12StreamReaderILb0ELb0EE15SkipToReadLimitEv(ptr noundef nonnull align 8 dereferenceable(49) %8)
  %stream19 = getelementptr inbounds %"class.Assimp::Discreet3DSImporter", ptr %this1, i32 0, i32 1
  %9 = load ptr, ptr %stream19, align 8
  %10 = load i32, ptr %oldReadLimit, align 4
  %call20 = call noundef i32 @_ZN6Assimp12StreamReaderILb0ELb0EE12SetReadLimitEj(ptr noundef nonnull align 8 dereferenceable(49) %9, i32 noundef %10)
  %stream21 = getelementptr inbounds %"class.Assimp::Discreet3DSImporter", ptr %this1, i32 0, i32 1
  %11 = load ptr, ptr %stream21, align 8
  %call22 = call noundef i64 @_ZNK6Assimp12StreamReaderILb0ELb0EE23GetRemainingSizeToLimitEv(ptr noundef nonnull align 8 dereferenceable(49) %11)
  %cmp23 = icmp eq i64 %call22, 0
  br i1 %cmp23, label %if.then24, label %if.end25

if.then24:                                        ; preds = %sw.epilog
  br label %return

if.end25:                                         ; preds = %sw.epilog
  br label %while.body, !llvm.loop !16

return:                                           ; preds = %if.then24, %if.then
  ret void
}

; Function Attrs: mustprogress nounwind uwtable
define linkonce_odr hidden void @_ZN6Assimp12StreamReaderILb0ELb0EE15SkipToReadLimitEv(ptr noundef nonnull align 8 dereferenceable(49) %this) #0 comdat align 2 {
entry:
  %this.addr = alloca ptr, align 8
  store ptr %this, ptr %this.addr, align 8
  %this1 = load ptr, ptr %this.addr, align 8
  %mLimit = getelementptr inbounds %"class.Assimp::StreamReader", ptr %this1, i32 0, i32 4
  %0 = load ptr, ptr %mLimit, align 8
  %mCurrent = getelementptr inbounds %"class.Assimp::StreamReader", ptr %this1, i32 0, i32 2
  store ptr %0, ptr %mCurrent, align 8
  ret void
}

; Function Attrs: mustprogress uwtable
define hidden void @_ZN6Assimp19Discreet3DSImporter16ParseObjectChunkEv(ptr noundef nonnull align 8 dereferenceable(162) %this) #3 align 2 personality ptr @__gxx_personality_v0 {
entry:
  %this.addr = alloca ptr, align 8
  %chunk = alloca %"struct.Assimp::D3DS::Discreet3DS::Chunk", align 1
  %chunkSize = alloca i32, align 4
  %oldReadLimit = alloca i32, align 4
  %cnt = alloca i32, align 4
  %sz = alloca ptr, align 8
  %ref.tmp = alloca %"class.std::__cxx11::basic_string", align 8
  %ref.tmp18 = alloca %"class.std::__cxx11::basic_string", align 8
  %exn.slot = alloca ptr, align 8
  %ehselector.slot = alloca i32, align 4
  %cnt36 = alloca i32, align 4
  %sz37 = alloca ptr, align 8
  %ref.tmp47 = alloca %"class.std::__cxx11::basic_string", align 8
  %ref.tmp49 = alloca %"class.std::allocator.0", align 1
  store ptr %this, ptr %this.addr, align 8
  %this1 = load ptr, ptr %this.addr, align 8
  br label %while.body

while.body:                                       ; preds = %if.end65, %if.then4, %entry
  %stream = getelementptr inbounds %"class.Assimp::Discreet3DSImporter", ptr %this1, i32 0, i32 1
  %0 = load ptr, ptr %stream, align 8
  %call = call noundef i64 @_ZNK6Assimp12StreamReaderILb0ELb0EE23GetRemainingSizeToLimitEv(ptr noundef nonnull align 8 dereferenceable(49) %0)
  %cmp = icmp ult i64 %call, 6
  br i1 %cmp, label %if.then, label %if.end

if.then:                                          ; preds = %while.body
  br label %return

if.end:                                           ; preds = %while.body
  call void @_ZN6Assimp19Discreet3DSImporter9ReadChunkEPNS_4D3DS11Discreet3DS5ChunkE(ptr noundef nonnull align 8 dereferenceable(162) %this1, ptr noundef %chunk)
  %Size = getelementptr inbounds %"struct.Assimp::D3DS::Discreet3DS::Chunk", ptr %chunk, i32 0, i32 1
  %1 = load i32, ptr %Size, align 1
  %conv = zext i32 %1 to i64
  %sub = sub i64 %conv, 6
  %conv2 = trunc i64 %sub to i32
  store i32 %conv2, ptr %chunkSize, align 4
  %2 = load i32, ptr %chunkSize, align 4
  %cmp3 = icmp sle i32 %2, 0
  br i1 %cmp3, label %if.then4, label %if.end5

if.then4:                                         ; preds = %if.end
  br label %while.body, !llvm.loop !17

if.end5:                                          ; preds = %if.end
  %stream6 = getelementptr inbounds %"class.Assimp::Discreet3DSImporter", ptr %this1, i32 0, i32 1
  %3 = load ptr, ptr %stream6, align 8
  %stream7 = getelementptr inbounds %"class.Assimp::Discreet3DSImporter", ptr %this1, i32 0, i32 1
  %4 = load ptr, ptr %stream7, align 8
  %call8 = call noundef i32 @_ZNK6Assimp12StreamReaderILb0ELb0EE13GetCurrentPosEv(ptr noundef nonnull align 8 dereferenceable(49) %4)
  %5 = load i32, ptr %chunkSize, align 4
  %add = add nsw i32 %call8, %5
  %call9 = call noundef i32 @_ZN6Assimp12StreamReaderILb0ELb0EE12SetReadLimitEj(ptr noundef nonnull align 8 dereferenceable(49) %3, i32 noundef %add)
  store i32 %call9, ptr %oldReadLimit, align 4
  %Flag = getelementptr inbounds %"struct.Assimp::D3DS::Discreet3DS::Chunk", ptr %chunk, i32 0, i32 0
  %6 = load i16, ptr %Flag, align 1
  %conv10 = zext i16 %6 to i32
  switch i32 %conv10, label %sw.epilog [
    i32 16384, label %sw.bb
    i32 45055, label %sw.bb17
    i32 8448, label %sw.bb25
    i32 4352, label %sw.bb35
    i32 4353, label %sw.bb54
    i32 256, label %sw.bb55
  ]

sw.bb:                                            ; preds = %if.end5
  store i32 0, ptr %cnt, align 4
  %stream11 = getelementptr inbounds %"class.Assimp::Discreet3DSImporter", ptr %this1, i32 0, i32 1
  %7 = load ptr, ptr %stream11, align 8
  %call12 = call noundef ptr @_ZNK6Assimp12StreamReaderILb0ELb0EE6GetPtrEv(ptr noundef nonnull align 8 dereferenceable(49) %7)
  store ptr %call12, ptr %sz, align 8
  br label %while.cond13

while.cond13:                                     ; preds = %while.body16, %sw.bb
  %stream14 = getelementptr inbounds %"class.Assimp::Discreet3DSImporter", ptr %this1, i32 0, i32 1
  %8 = load ptr, ptr %stream14, align 8
  %call15 = call noundef signext i8 @_ZN6Assimp12StreamReaderILb0ELb0EE5GetI1Ev(ptr noundef nonnull align 8 dereferenceable(49) %8)
  %tobool = icmp ne i8 %call15, 0
  br i1 %tobool, label %while.body16, label %while.end

while.body16:                                     ; preds = %while.cond13
  %9 = load i32, ptr %cnt, align 4
  %inc = add i32 %9, 1
  store i32 %inc, ptr %cnt, align 4
  br label %while.cond13, !llvm.loop !18

while.end:                                        ; preds = %while.cond13
  %10 = load ptr, ptr %sz, align 8
  %11 = load i32, ptr %cnt, align 4
  call void @_ZN6Assimp19Discreet3DSImporter10ParseChunkEPKcj(ptr noundef nonnull align 8 dereferenceable(162) %this1, ptr noundef %10, i32 noundef %11)
  br label %sw.epilog

sw.bb17:                                          ; preds = %if.end5
  %mScene = getelementptr inbounds %"class.Assimp::Discreet3DSImporter", ptr %this1, i32 0, i32 6
  %12 = load ptr, ptr %mScene, align 8
  %mMaterials = getelementptr inbounds %"struct.Assimp::D3DS::Scene", ptr %12, i32 0, i32 0
  %mScene19 = getelementptr inbounds %"class.Assimp::Discreet3DSImporter", ptr %this1, i32 0, i32 6
  %13 = load ptr, ptr %mScene19, align 8
  %mMaterials20 = getelementptr inbounds %"struct.Assimp::D3DS::Scene", ptr %13, i32 0, i32 0
  %call21 = call noundef i64 @_ZNKSt6vectorIN6Assimp4D3DS8MaterialESaIS2_EE4sizeEv(ptr noundef nonnull align 8 dereferenceable(24) %mMaterials20) #10
  call void @_Z12ai_to_stringImENSt7__cxx1112basic_stringIcSt11char_traitsIcESaIcEEET_(ptr sret(%"class.std::__cxx11::basic_string") align 8 %ref.tmp18, i64 noundef %call21)
  invoke void @_ZStplIcSt11char_traitsIcESaIcEENSt7__cxx1112basic_stringIT_T0_T1_EEPKS5_OS8_(ptr sret(%"class.std::__cxx11::basic_string") align 8 %ref.tmp, ptr noundef @.str.8, ptr noundef nonnull align 8 dereferenceable(32) %ref.tmp18)
          to label %invoke.cont unwind label %lpad

invoke.cont:                                      ; preds = %sw.bb17
  %call24 = invoke noundef nonnull align 8 dereferenceable(689) ptr @_ZNSt6vectorIN6Assimp4D3DS8MaterialESaIS2_EE12emplace_backIJNSt7__cxx1112basic_stringIcSt11char_traitsIcESaIcEEEEEERS2_DpOT_(ptr noundef nonnull align 8 dereferenceable(24) %mMaterials, ptr noundef nonnull align 8 dereferenceable(32) %ref.tmp)
          to label %invoke.cont23 unwind label %lpad22

invoke.cont23:                                    ; preds = %invoke.cont
  call void @_ZNSt7__cxx1112basic_stringIcSt11char_traitsIcESaIcEED1Ev(ptr noundef nonnull align 8 dereferenceable(32) %ref.tmp) #10
  call void @_ZNSt7__cxx1112basic_stringIcSt11char_traitsIcESaIcEED1Ev(ptr noundef nonnull align 8 dereferenceable(32) %ref.tmp18) #10
  call void @_ZN6Assimp19Discreet3DSImporter18ParseMaterialChunkEv(ptr noundef nonnull align 8 dereferenceable(162) %this1)
  br label %sw.epilog

lpad:                                             ; preds = %sw.bb17
  %14 = landingpad { ptr, i32 }
          cleanup
  %15 = extractvalue { ptr, i32 } %14, 0
  store ptr %15, ptr %exn.slot, align 8
  %16 = extractvalue { ptr, i32 } %14, 1
  store i32 %16, ptr %ehselector.slot, align 4
  br label %ehcleanup

lpad22:                                           ; preds = %invoke.cont
  %17 = landingpad { ptr, i32 }
          cleanup
  %18 = extractvalue { ptr, i32 } %17, 0
  store ptr %18, ptr %exn.slot, align 8
  %19 = extractvalue { ptr, i32 } %17, 1
  store i32 %19, ptr %ehselector.slot, align 4
  call void @_ZNSt7__cxx1112basic_stringIcSt11char_traitsIcESaIcEED1Ev(ptr noundef nonnull align 8 dereferenceable(32) %ref.tmp) #10
  br label %ehcleanup

ehcleanup:                                        ; preds = %lpad22, %lpad
  call void @_ZNSt7__cxx1112basic_stringIcSt11char_traitsIcESaIcEED1Ev(ptr noundef nonnull align 8 dereferenceable(32) %ref.tmp18) #10
  br label %eh.resume

sw.bb25:                                          ; preds = %if.end5
  %mClrAmbient = getelementptr inbounds %"class.Assimp::Discreet3DSImporter", ptr %this1, i32 0, i32 7
  call void @_ZN6Assimp19Discreet3DSImporter15ParseColorChunkEP9aiColor3Db(ptr noundef nonnull align 8 dereferenceable(162) %this1, ptr noundef %mClrAmbient, i1 noundef zeroext true)
  %mClrAmbient26 = getelementptr inbounds %"class.Assimp::Discreet3DSImporter", ptr %this1, i32 0, i32 7
  %r = getelementptr inbounds %struct.aiColor3D, ptr %mClrAmbient26, i32 0, i32 0
  %20 = load float, ptr %r, align 8
  %call27 = call noundef zeroext i1 @_Z7is_qnanf(float noundef %20)
  br i1 %call27, label %if.then28, label %if.end34

if.then28:                                        ; preds = %sw.bb25
  %call29 = call noundef ptr @_ZN6Assimp13DefaultLogger3getEv()
  call void @_ZN6Assimp6Logger5errorEPKc(ptr noundef nonnull align 8 dereferenceable(12) %call29, ptr noundef @.str.9)
  %mClrAmbient30 = getelementptr inbounds %"class.Assimp::Discreet3DSImporter", ptr %this1, i32 0, i32 7
  %b = getelementptr inbounds %struct.aiColor3D, ptr %mClrAmbient30, i32 0, i32 2
  store float 0.000000e+00, ptr %b, align 8
  %mClrAmbient31 = getelementptr inbounds %"class.Assimp::Discreet3DSImporter", ptr %this1, i32 0, i32 7
  %g = getelementptr inbounds %struct.aiColor3D, ptr %mClrAmbient31, i32 0, i32 1
  store float 0.000000e+00, ptr %g, align 4
  %mClrAmbient32 = getelementptr inbounds %"class.Assimp::Discreet3DSImporter", ptr %this1, i32 0, i32 7
  %r33 = getelementptr inbounds %struct.aiColor3D, ptr %mClrAmbient32, i32 0, i32 0
  store float 0.000000e+00, ptr %r33, align 8
  br label %if.end34

if.end34:                                         ; preds = %if.then28, %sw.bb25
  br label %sw.epilog

sw.bb35:                                          ; preds = %if.end5
  store i32 0, ptr %cnt36, align 4
  %stream38 = getelementptr inbounds %"class.Assimp::Discreet3DSImporter", ptr %this1, i32 0, i32 1
  %21 = load ptr, ptr %stream38, align 8
  %call39 = call noundef ptr @_ZNK6Assimp12StreamReaderILb0ELb0EE6GetPtrEv(ptr noundef nonnull align 8 dereferenceable(49) %21)
  store ptr %call39, ptr %sz37, align 8
  br label %while.cond40

while.cond40:                                     ; preds = %while.body44, %sw.bb35
  %stream41 = getelementptr inbounds %"class.Assimp::Discreet3DSImporter", ptr %this1, i32 0, i32 1
  %22 = load ptr, ptr %stream41, align 8
  %call42 = call noundef signext i8 @_ZN6Assimp12StreamReaderILb0ELb0EE5GetI1Ev(ptr noundef nonnull align 8 dereferenceable(49) %22)
  %tobool43 = icmp ne i8 %call42, 0
  br i1 %tobool43, label %while.body44, label %while.end46

while.body44:                                     ; preds = %while.cond40
  %23 = load i32, ptr %cnt36, align 4
  %inc45 = add i32 %23, 1
  store i32 %inc45, ptr %cnt36, align 4
  br label %while.cond40, !llvm.loop !19

while.end46:                                      ; preds = %while.cond40
  %24 = load ptr, ptr %sz37, align 8
  %25 = load i32, ptr %cnt36, align 4
  %conv48 = zext i32 %25 to i64
  call void @_ZNSaIcEC1Ev(ptr noundef nonnull align 1 dereferenceable(1) %ref.tmp49) #10
  invoke void @_ZNSt7__cxx1112basic_stringIcSt11char_traitsIcESaIcEEC1EPKcmRKS3_(ptr noundef nonnull align 8 dereferenceable(32) %ref.tmp47, ptr noundef %24, i64 noundef %conv48, ptr noundef nonnull align 1 dereferenceable(1) %ref.tmp49)
          to label %invoke.cont51 unwind label %lpad50

invoke.cont51:                                    ; preds = %while.end46
  %mBackgroundImage = getelementptr inbounds %"class.Assimp::Discreet3DSImporter", ptr %this1, i32 0, i32 9
  %call52 = call noundef nonnull align 8 dereferenceable(32) ptr @_ZNSt7__cxx1112basic_stringIcSt11char_traitsIcESaIcEEaSEOS4_(ptr noundef nonnull align 8 dereferenceable(32) %mBackgroundImage, ptr noundef nonnull align 8 dereferenceable(32) %ref.tmp47) #10
  call void @_ZNSt7__cxx1112basic_stringIcSt11char_traitsIcESaIcEED1Ev(ptr noundef nonnull align 8 dereferenceable(32) %ref.tmp47) #10
  call void @_ZNSaIcED1Ev(ptr noundef nonnull align 1 dereferenceable(1) %ref.tmp49) #10
  br label %sw.epilog

lpad50:                                           ; preds = %while.end46
  %26 = landingpad { ptr, i32 }
          cleanup
  %27 = extractvalue { ptr, i32 } %26, 0
  store ptr %27, ptr %exn.slot, align 8
  %28 = extractvalue { ptr, i32 } %26, 1
  store i32 %28, ptr %ehselector.slot, align 4
  call void @_ZNSaIcED1Ev(ptr noundef nonnull align 1 dereferenceable(1) %ref.tmp49) #10
  br label %eh.resume

sw.bb54:                                          ; preds = %if.end5
  %bHasBG = getelementptr inbounds %"class.Assimp::Discreet3DSImporter", ptr %this1, i32 0, i32 10
  store i8 1, ptr %bHasBG, align 8
  br label %sw.epilog

sw.bb55:                                          ; preds = %if.end5
  %stream56 = getelementptr inbounds %"class.Assimp::Discreet3DSImporter", ptr %this1, i32 0, i32 1
  %29 = load ptr, ptr %stream56, align 8
  %call57 = call noundef float @_ZN6Assimp12StreamReaderILb0ELb0EE5GetF4Ev(ptr noundef nonnull align 8 dereferenceable(49) %29)
  %mMasterScale = getelementptr inbounds %"class.Assimp::Discreet3DSImporter", ptr %this1, i32 0, i32 8
  store float %call57, ptr %mMasterScale, align 4
  br label %sw.epilog

sw.epilog:                                        ; preds = %sw.bb55, %sw.bb54, %invoke.cont51, %if.end34, %invoke.cont23, %while.end, %if.end5
  %stream58 = getelementptr inbounds %"class.Assimp::Discreet3DSImporter", ptr %this1, i32 0, i32 1
  %30 = load ptr, ptr %stream58, align 8
  call void @_ZN6Assimp12StreamReaderILb0ELb0EE15SkipToReadLimitEv(ptr noundef nonnull align 8 dereferenceable(49) %30)
  %stream59 = getelementptr inbounds %"class.Assimp::Discreet3DSImporter", ptr %this1, i32 0, i32 1
  %31 = load ptr, ptr %stream59, align 8
  %32 = load i32, ptr %oldReadLimit, align 4
  %call60 = call noundef i32 @_ZN6Assimp12StreamReaderILb0ELb0EE12SetReadLimitEj(ptr noundef nonnull align 8 dereferenceable(49) %31, i32 noundef %32)
  %stream61 = getelementptr inbounds %"class.Assimp::Discreet3DSImporter", ptr %this1, i32 0, i32 1
  %33 = load ptr, ptr %stream61, align 8
  %call62 = call noundef i64 @_ZNK6Assimp12StreamReaderILb0ELb0EE23GetRemainingSizeToLimitEv(ptr noundef nonnull align 8 dereferenceable(49) %33)
  %cmp63 = icmp eq i64 %call62, 0
  br i1 %cmp63, label %if.then64, label %if.end65

if.then64:                                        ; preds = %sw.epilog
  br label %return

if.end65:                                         ; preds = %sw.epilog
  br label %while.body, !llvm.loop !17

return:                                           ; preds = %if.then64, %if.then
  ret void

eh.resume:                                        ; preds = %lpad50, %ehcleanup
  %exn = load ptr, ptr %exn.slot, align 8
  %sel = load i32, ptr %ehselector.slot, align 4
  %lpad.val = insertvalue { ptr, i32 } poison, ptr %exn, 0
  %lpad.val66 = insertvalue { ptr, i32 } %lpad.val, i32 %sel, 1
  resume { ptr, i32 } %lpad.val66
}

; Function Attrs: mustprogress uwtable
define hidden void @_ZN6Assimp19Discreet3DSImporter18ParseKeyframeChunkEv(ptr noundef nonnull align 8 dereferenceable(162) %this) #3 align 2 {
entry:
  %this.addr = alloca ptr, align 8
  %chunk = alloca %"struct.Assimp::D3DS::Discreet3DS::Chunk", align 1
  %chunkSize = alloca i32, align 4
  %oldReadLimit = alloca i32, align 4
  store ptr %this, ptr %this.addr, align 8
  %this1 = load ptr, ptr %this.addr, align 8
  br label %while.body

while.body:                                       ; preds = %if.end19, %if.then4, %entry
  %stream = getelementptr inbounds %"class.Assimp::Discreet3DSImporter", ptr %this1, i32 0, i32 1
  %0 = load ptr, ptr %stream, align 8
  %call = call noundef i64 @_ZNK6Assimp12StreamReaderILb0ELb0EE23GetRemainingSizeToLimitEv(ptr noundef nonnull align 8 dereferenceable(49) %0)
  %cmp = icmp ult i64 %call, 6
  br i1 %cmp, label %if.then, label %if.end

if.then:                                          ; preds = %while.body
  br label %return

if.end:                                           ; preds = %while.body
  call void @_ZN6Assimp19Discreet3DSImporter9ReadChunkEPNS_4D3DS11Discreet3DS5ChunkE(ptr noundef nonnull align 8 dereferenceable(162) %this1, ptr noundef %chunk)
  %Size = getelementptr inbounds %"struct.Assimp::D3DS::Discreet3DS::Chunk", ptr %chunk, i32 0, i32 1
  %1 = load i32, ptr %Size, align 1
  %conv = zext i32 %1 to i64
  %sub = sub i64 %conv, 6
  %conv2 = trunc i64 %sub to i32
  store i32 %conv2, ptr %chunkSize, align 4
  %2 = load i32, ptr %chunkSize, align 4
  %cmp3 = icmp sle i32 %2, 0
  br i1 %cmp3, label %if.then4, label %if.end5

if.then4:                                         ; preds = %if.end
  br label %while.body, !llvm.loop !20

if.end5:                                          ; preds = %if.end
  %stream6 = getelementptr inbounds %"class.Assimp::Discreet3DSImporter", ptr %this1, i32 0, i32 1
  %3 = load ptr, ptr %stream6, align 8
  %stream7 = getelementptr inbounds %"class.Assimp::Discreet3DSImporter", ptr %this1, i32 0, i32 1
  %4 = load ptr, ptr %stream7, align 8
  %call8 = call noundef i32 @_ZNK6Assimp12StreamReaderILb0ELb0EE13GetCurrentPosEv(ptr noundef nonnull align 8 dereferenceable(49) %4)
  %5 = load i32, ptr %chunkSize, align 4
  %add = add nsw i32 %call8, %5
  %call9 = call noundef i32 @_ZN6Assimp12StreamReaderILb0ELb0EE12SetReadLimitEj(ptr noundef nonnull align 8 dereferenceable(49) %3, i32 noundef %add)
  store i32 %call9, ptr %oldReadLimit, align 4
  %Flag = getelementptr inbounds %"struct.Assimp::D3DS::Discreet3DS::Chunk", ptr %chunk, i32 0, i32 0
  %6 = load i16, ptr %Flag, align 1
  %conv10 = zext i16 %6 to i32
  switch i32 %conv10, label %sw.epilog [
    i32 45060, label %sw.bb
    i32 45063, label %sw.bb
    i32 45059, label %sw.bb
    i32 45058, label %sw.bb
    i32 45061, label %sw.bb
    i32 45062, label %sw.bb
  ]

sw.bb:                                            ; preds = %if.end5, %if.end5, %if.end5, %if.end5, %if.end5, %if.end5
  %Flag11 = getelementptr inbounds %"struct.Assimp::D3DS::Discreet3DS::Chunk", ptr %chunk, i32 0, i32 0
  %7 = load i16, ptr %Flag11, align 1
  call void @_ZN6Assimp19Discreet3DSImporter19ParseHierarchyChunkEt(ptr noundef nonnull align 8 dereferenceable(162) %this1, i16 noundef zeroext %7)
  br label %sw.epilog

sw.epilog:                                        ; preds = %sw.bb, %if.end5
  %stream12 = getelementptr inbounds %"class.Assimp::Discreet3DSImporter", ptr %this1, i32 0, i32 1
  %8 = load ptr, ptr %stream12, align 8
  call void @_ZN6Assimp12StreamReaderILb0ELb0EE15SkipToReadLimitEv(ptr noundef nonnull align 8 dereferenceable(49) %8)
  %stream13 = getelementptr inbounds %"class.Assimp::Discreet3DSImporter", ptr %this1, i32 0, i32 1
  %9 = load ptr, ptr %stream13, align 8
  %10 = load i32, ptr %oldReadLimit, align 4
  %call14 = call noundef i32 @_ZN6Assimp12StreamReaderILb0ELb0EE12SetReadLimitEj(ptr noundef nonnull align 8 dereferenceable(49) %9, i32 noundef %10)
  %stream15 = getelementptr inbounds %"class.Assimp::Discreet3DSImporter", ptr %this1, i32 0, i32 1
  %11 = load ptr, ptr %stream15, align 8
  %call16 = call noundef i64 @_ZNK6Assimp12StreamReaderILb0ELb0EE23GetRemainingSizeToLimitEv(ptr noundef nonnull align 8 dereferenceable(49) %11)
  %cmp17 = icmp eq i64 %call16, 0
  br i1 %cmp17, label %if.then18, label %if.end19

if.then18:                                        ; preds = %sw.epilog
  br label %return

if.end19:                                         ; preds = %sw.epilog
  br label %while.body, !llvm.loop !20

return:                                           ; preds = %if.then18, %if.then
  ret void
}

; Function Attrs: mustprogress uwtable
define linkonce_odr hidden noundef i32 @_ZN6Assimp13ASSIMP_itoa10ILm10EEEjRAT__ci(ptr noundef nonnull align 1 dereferenceable(10) %out, i32 noundef %number) #3 comdat {
entry:
  %out.addr = alloca ptr, align 8
  %number.addr = alloca i32, align 4
  store ptr %out, ptr %out.addr, align 8
  store i32 %number, ptr %number.addr, align 4
  %0 = load ptr, ptr %out.addr, align 8
  %arraydecay = getelementptr inbounds [10 x i8], ptr %0, i64 0, i64 0
  %1 = load i32, ptr %number.addr, align 4
  %call = call noundef i32 @_ZN6Assimp13ASSIMP_itoa10EPcji(ptr noundef %arraydecay, i32 noundef 10, i32 noundef %1)
  ret i32 %call
}

; Function Attrs: mustprogress uwtable
define linkonce_odr void @_ZN6Assimp6Logger4infoIJRA26_KcRA10_cEEEvDpOT_(ptr noundef nonnull align 8 dereferenceable(12) %this, ptr noundef nonnull align 1 dereferenceable(26) %args, ptr noundef nonnull align 1 dereferenceable(10) %args1) #3 comdat align 2 personality ptr @__gxx_personality_v0 {
entry:
  %this.addr = alloca ptr, align 8
  %args.addr = alloca ptr, align 8
  %args.addr2 = alloca ptr, align 8
  %ref.tmp = alloca %"class.std::__cxx11::basic_string", align 8
  %agg.tmp = alloca %"class.Assimp::Formatter::basic_formatter", align 8
  %exn.slot = alloca ptr, align 8
  %ehselector.slot = alloca i32, align 4
  store ptr %this, ptr %this.addr, align 8
  store ptr %args, ptr %args.addr, align 8
  store ptr %args1, ptr %args.addr2, align 8
  %this3 = load ptr, ptr %this.addr, align 8
  %0 = load ptr, ptr %args.addr, align 8
  call void @_ZN6Assimp9Formatter15basic_formatterIcSt11char_traitsIcESaIcEEC2IA26_cEERKT_(ptr noundef nonnull align 8 dereferenceable(376) %agg.tmp, ptr noundef nonnull align 1 dereferenceable(26) %0)
  %1 = load ptr, ptr %args.addr2, align 8
  invoke void @_ZN6Assimp6Logger13formatMessageIJERA10_cEENSt7__cxx1112basic_stringIcSt11char_traitsIcESaIcEEENS_9Formatter15basic_formatterIcS7_S8_EEOT0_DpOT_(ptr sret(%"class.std::__cxx11::basic_string") align 8 %ref.tmp, ptr noundef nonnull align 8 dereferenceable(12) %this3, ptr noundef %agg.tmp, ptr noundef nonnull align 1 dereferenceable(10) %1)
          to label %invoke.cont unwind label %lpad

invoke.cont:                                      ; preds = %entry
  %call = call noundef ptr @_ZNKSt7__cxx1112basic_stringIcSt11char_traitsIcESaIcEE5c_strEv(ptr noundef nonnull align 8 dereferenceable(32) %ref.tmp) #10
  invoke void @_ZN6Assimp6Logger4infoEPKc(ptr noundef nonnull align 8 dereferenceable(12) %this3, ptr noundef %call)
          to label %invoke.cont5 unwind label %lpad4

invoke.cont5:                                     ; preds = %invoke.cont
  call void @_ZNSt7__cxx1112basic_stringIcSt11char_traitsIcESaIcEED1Ev(ptr noundef nonnull align 8 dereferenceable(32) %ref.tmp) #10
  call void @_ZN6Assimp9Formatter15basic_formatterIcSt11char_traitsIcESaIcEED2Ev(ptr noundef nonnull align 8 dereferenceable(376) %agg.tmp) #10
  ret void

lpad:                                             ; preds = %entry
  %2 = landingpad { ptr, i32 }
          cleanup
  %3 = extractvalue { ptr, i32 } %2, 0
  store ptr %3, ptr %exn.slot, align 8
  %4 = extractvalue { ptr, i32 } %2, 1
  store i32 %4, ptr %ehselector.slot, align 4
  br label %ehcleanup

lpad4:                                            ; preds = %invoke.cont
  %5 = landingpad { ptr, i32 }
          cleanup
  %6 = extractvalue { ptr, i32 } %5, 0
  store ptr %6, ptr %exn.slot, align 8
  %7 = extractvalue { ptr, i32 } %5, 1
  store i32 %7, ptr %ehselector.slot, align 4
  call void @_ZNSt7__cxx1112basic_stringIcSt11char_traitsIcESaIcEED1Ev(ptr noundef nonnull align 8 dereferenceable(32) %ref.tmp) #10
  br label %ehcleanup

ehcleanup:                                        ; preds = %lpad4, %lpad
  call void @_ZN6Assimp9Formatter15basic_formatterIcSt11char_traitsIcESaIcEED2Ev(ptr noundef nonnull align 8 dereferenceable(376) %agg.tmp) #10
  br label %eh.resume

eh.resume:                                        ; preds = %ehcleanup
  %exn = load ptr, ptr %exn.slot, align 8
  %sel = load i32, ptr %ehselector.slot, align 4
  %lpad.val = insertvalue { ptr, i32 } poison, ptr %exn, 0
  %lpad.val6 = insertvalue { ptr, i32 } %lpad.val, i32 %sel, 1
  resume { ptr, i32 } %lpad.val6
}

; Function Attrs: mustprogress nounwind uwtable
define linkonce_odr hidden noundef ptr @_ZNK6Assimp12StreamReaderILb0ELb0EE6GetPtrEv(ptr noundef nonnull align 8 dereferenceable(49) %this) #0 comdat align 2 {
entry:
  %this.addr = alloca ptr, align 8
  store ptr %this, ptr %this.addr, align 8
  %this1 = load ptr, ptr %this.addr, align 8
  %mCurrent = getelementptr inbounds %"class.Assimp::StreamReader", ptr %this1, i32 0, i32 2
  %0 = load ptr, ptr %mCurrent, align 8
  ret ptr %0
}

; Function Attrs: mustprogress uwtable
define linkonce_odr hidden noundef signext i8 @_ZN6Assimp12StreamReaderILb0ELb0EE5GetI1Ev(ptr noundef nonnull align 8 dereferenceable(49) %this) #3 comdat align 2 {
entry:
  %this.addr = alloca ptr, align 8
  store ptr %this, ptr %this.addr, align 8
  %this1 = load ptr, ptr %this.addr, align 8
  %call = call noundef signext i8 @_ZN6Assimp12StreamReaderILb0ELb0EE3GetIaEET_v(ptr noundef nonnull align 8 dereferenceable(49) %this1)
  ret i8 %call
}

; Function Attrs: mustprogress uwtable
define hidden void @_ZN6Assimp19Discreet3DSImporter10ParseChunkEPKcj(ptr noundef nonnull align 8 dereferenceable(162) %this, ptr noundef %name, i32 noundef %num) #5 align 2 personality ptr @__gxx_personality_v0 {
entry:
  %this.addr = alloca ptr, align 8
  %name.addr = alloca ptr, align 8
  %num.addr = alloca i32, align 4
  %chunk = alloca %"struct.Assimp::D3DS::Discreet3DS::Chunk", align 1
  %chunkSize = alloca i32, align 4
  %oldReadLimit = alloca i32, align 4
  %ref.tmp = alloca %"class.std::__cxx11::basic_string", align 8
  %ref.tmp12 = alloca %"class.std::allocator.0", align 1
  %exn.slot = alloca ptr, align 8
  %ehselector.slot = alloca i32, align 4
  %light = alloca ptr, align 8
  %ref.tmp19 = alloca %"class.std::__cxx11::basic_string", align 8
  %ref.tmp21 = alloca %"class.std::allocator.0", align 1
  %ref.tmp36 = alloca %struct.aiColor3D, align 4
  %camera = alloca ptr, align 8
  %ref.tmp51 = alloca %"class.std::__cxx11::basic_string", align 8
  %ref.tmp53 = alloca %"class.std::allocator.0", align 1
  %len = alloca float, align 4
  %ref.tmp98 = alloca %class.aiVector3t, align 4
  %angle = alloca float, align 4
  %quat = alloca %class.aiQuaterniont, align 4
  %agg.tmp = alloca %class.aiVector3t, align 4
  %agg.tmp.coerce = alloca { <2 x float>, float }, align 4
  %ref.tmp106 = alloca %class.aiVector3t, align 4
  %ref.tmp107 = alloca %class.aiMatrix3x3t, align 4
  %ref.tmp108 = alloca %class.aiVector3t, align 4
  %tmp.coerce = alloca { <2 x float>, float }, align 8
  store ptr %this, ptr %this.addr, align 8
  store ptr %name, ptr %name.addr, align 8
  store i32 %num, ptr %num.addr, align 4
  %this1 = load ptr, ptr %this.addr, align 8
  br label %while.body

while.body:                                       ; preds = %if.end129, %if.then4, %entry
  %stream = getelementptr inbounds %"class.Assimp::Discreet3DSImporter", ptr %this1, i32 0, i32 1
  %0 = load ptr, ptr %stream, align 8
  %call = call noundef i64 @_ZNK6Assimp12StreamReaderILb0ELb0EE23GetRemainingSizeToLimitEv(ptr noundef nonnull align 8 dereferenceable(49) %0)
  %cmp = icmp ult i64 %call, 6
  br i1 %cmp, label %if.then, label %if.end

if.then:                                          ; preds = %while.body
  br label %return

if.end:                                           ; preds = %while.body
  call void @_ZN6Assimp19Discreet3DSImporter9ReadChunkEPNS_4D3DS11Discreet3DS5ChunkE(ptr noundef nonnull align 8 dereferenceable(162) %this1, ptr noundef %chunk)
  %Size = getelementptr inbounds %"struct.Assimp::D3DS::Discreet3DS::Chunk", ptr %chunk, i32 0, i32 1
  %1 = load i32, ptr %Size, align 1
  %conv = zext i32 %1 to i64
  %sub = sub i64 %conv, 6
  %conv2 = trunc i64 %sub to i32
  store i32 %conv2, ptr %chunkSize, align 4
  %2 = load i32, ptr %chunkSize, align 4
  %cmp3 = icmp sle i32 %2, 0
  br i1 %cmp3, label %if.then4, label %if.end5

if.then4:                                         ; preds = %if.end
  br label %while.body, !llvm.loop !21

if.end5:                                          ; preds = %if.end
  %stream6 = getelementptr inbounds %"class.Assimp::Discreet3DSImporter", ptr %this1, i32 0, i32 1
  %3 = load ptr, ptr %stream6, align 8
  %stream7 = getelementptr inbounds %"class.Assimp::Discreet3DSImporter", ptr %this1, i32 0, i32 1
  %4 = load ptr, ptr %stream7, align 8
  %call8 = call noundef i32 @_ZNK6Assimp12StreamReaderILb0ELb0EE13GetCurrentPosEv(ptr noundef nonnull align 8 dereferenceable(49) %4)
  %5 = load i32, ptr %chunkSize, align 4
  %add = add nsw i32 %call8, %5
  %call9 = call noundef i32 @_ZN6Assimp12StreamReaderILb0ELb0EE12SetReadLimitEj(ptr noundef nonnull align 8 dereferenceable(49) %3, i32 noundef %add)
  store i32 %call9, ptr %oldReadLimit, align 4
  %Flag = getelementptr inbounds %"struct.Assimp::D3DS::Discreet3DS::Chunk", ptr %chunk, i32 0, i32 0
  %6 = load i16, ptr %Flag, align 1
  %conv10 = zext i16 %6 to i32
  switch i32 %conv10, label %sw.epilog [
    i32 16640, label %sw.bb
    i32 17920, label %sw.bb16
    i32 18176, label %sw.bb47
  ]

sw.bb:                                            ; preds = %if.end5
  %mScene = getelementptr inbounds %"class.Assimp::Discreet3DSImporter", ptr %this1, i32 0, i32 6
  %7 = load ptr, ptr %mScene, align 8
  %mMeshes = getelementptr inbounds %"struct.Assimp::D3DS::Scene", ptr %7, i32 0, i32 1
  %8 = load ptr, ptr %name.addr, align 8
  %9 = load i32, ptr %num.addr, align 4
  %conv11 = zext i32 %9 to i64
  call void @_ZNSaIcEC1Ev(ptr noundef nonnull align 1 dereferenceable(1) %ref.tmp12) #10
  invoke void @_ZNSt7__cxx1112basic_stringIcSt11char_traitsIcESaIcEEC1EPKcmRKS3_(ptr noundef nonnull align 8 dereferenceable(32) %ref.tmp, ptr noundef %8, i64 noundef %conv11, ptr noundef nonnull align 1 dereferenceable(1) %ref.tmp12)
          to label %invoke.cont unwind label %lpad

invoke.cont:                                      ; preds = %sw.bb
  %call15 = invoke noundef nonnull align 8 dereferenceable(216) ptr @_ZNSt6vectorIN6Assimp4D3DS4MeshESaIS2_EE12emplace_backIJNSt7__cxx1112basic_stringIcSt11char_traitsIcESaIcEEEEEERS2_DpOT_(ptr noundef nonnull align 8 dereferenceable(24) %mMeshes, ptr noundef nonnull align 8 dereferenceable(32) %ref.tmp)
          to label %invoke.cont14 unwind label %lpad13

invoke.cont14:                                    ; preds = %invoke.cont
  call void @_ZNSt7__cxx1112basic_stringIcSt11char_traitsIcESaIcEED1Ev(ptr noundef nonnull align 8 dereferenceable(32) %ref.tmp) #10
  call void @_ZNSaIcED1Ev(ptr noundef nonnull align 1 dereferenceable(1) %ref.tmp12) #10
  call void @_ZN6Assimp19Discreet3DSImporter14ParseMeshChunkEv(ptr noundef nonnull align 8 dereferenceable(162) %this1)
  br label %sw.epilog

lpad:                                             ; preds = %sw.bb
  %10 = landingpad { ptr, i32 }
          cleanup
  %11 = extractvalue { ptr, i32 } %10, 0
  store ptr %11, ptr %exn.slot, align 8
  %12 = extractvalue { ptr, i32 } %10, 1
  store i32 %12, ptr %ehselector.slot, align 4
  br label %ehcleanup

lpad13:                                           ; preds = %invoke.cont
  %13 = landingpad { ptr, i32 }
          cleanup
  %14 = extractvalue { ptr, i32 } %13, 0
  store ptr %14, ptr %exn.slot, align 8
  %15 = extractvalue { ptr, i32 } %13, 1
  store i32 %15, ptr %ehselector.slot, align 4
  call void @_ZNSt7__cxx1112basic_stringIcSt11char_traitsIcESaIcEED1Ev(ptr noundef nonnull align 8 dereferenceable(32) %ref.tmp) #10
  br label %ehcleanup

ehcleanup:                                        ; preds = %lpad13, %lpad
  call void @_ZNSaIcED1Ev(ptr noundef nonnull align 1 dereferenceable(1) %ref.tmp12) #10
  br label %eh.resume

sw.bb16:                                          ; preds = %if.end5
  %call17 = call noalias noundef nonnull ptr @_Znwm(i64 noundef 1132) #20
  call void @_ZN7aiLightC2Ev(ptr noundef nonnull align 4 dereferenceable(1132) %call17) #10
  store ptr %call17, ptr %light, align 8
  %mScene18 = getelementptr inbounds %"class.Assimp::Discreet3DSImporter", ptr %this1, i32 0, i32 6
  %16 = load ptr, ptr %mScene18, align 8
  %mLights = getelementptr inbounds %"struct.Assimp::D3DS::Scene", ptr %16, i32 0, i32 3
  call void @_ZNSt6vectorIP7aiLightSaIS1_EE9push_backERKS1_(ptr noundef nonnull align 8 dereferenceable(24) %mLights, ptr noundef nonnull align 8 dereferenceable(8) %light)
  %17 = load ptr, ptr %light, align 8
  %mName = getelementptr inbounds %struct.aiLight, ptr %17, i32 0, i32 0
  %18 = load ptr, ptr %name.addr, align 8
  %19 = load i32, ptr %num.addr, align 4
  %conv20 = zext i32 %19 to i64
  call void @_ZNSaIcEC1Ev(ptr noundef nonnull align 1 dereferenceable(1) %ref.tmp21) #10
  invoke void @_ZNSt7__cxx1112basic_stringIcSt11char_traitsIcESaIcEEC1EPKcmRKS3_(ptr noundef nonnull align 8 dereferenceable(32) %ref.tmp19, ptr noundef %18, i64 noundef %conv20, ptr noundef nonnull align 1 dereferenceable(1) %ref.tmp21)
          to label %invoke.cont23 unwind label %lpad22

invoke.cont23:                                    ; preds = %sw.bb16
  invoke void @_ZN8aiString3SetERKNSt7__cxx1112basic_stringIcSt11char_traitsIcESaIcEEE(ptr noundef nonnull align 4 dereferenceable(1028) %mName, ptr noundef nonnull align 8 dereferenceable(32) %ref.tmp19)
          to label %invoke.cont25 unwind label %lpad24

invoke.cont25:                                    ; preds = %invoke.cont23
  call void @_ZNSt7__cxx1112basic_stringIcSt11char_traitsIcESaIcEED1Ev(ptr noundef nonnull align 8 dereferenceable(32) %ref.tmp19) #10
  call void @_ZNSaIcED1Ev(ptr noundef nonnull align 1 dereferenceable(1) %ref.tmp21) #10
  %stream28 = getelementptr inbounds %"class.Assimp::Discreet3DSImporter", ptr %this1, i32 0, i32 1
  %20 = load ptr, ptr %stream28, align 8
  %call29 = call noundef float @_ZN6Assimp12StreamReaderILb0ELb0EE5GetF4Ev(ptr noundef nonnull align 8 dereferenceable(49) %20)
  %21 = load ptr, ptr %light, align 8
  %mPosition = getelementptr inbounds %struct.aiLight, ptr %21, i32 0, i32 2
  %x = getelementptr inbounds %class.aiVector3t, ptr %mPosition, i32 0, i32 0
  store float %call29, ptr %x, align 4
  %stream30 = getelementptr inbounds %"class.Assimp::Discreet3DSImporter", ptr %this1, i32 0, i32 1
  %22 = load ptr, ptr %stream30, align 8
  %call31 = call noundef float @_ZN6Assimp12StreamReaderILb0ELb0EE5GetF4Ev(ptr noundef nonnull align 8 dereferenceable(49) %22)
  %23 = load ptr, ptr %light, align 8
  %mPosition32 = getelementptr inbounds %struct.aiLight, ptr %23, i32 0, i32 2
  %y = getelementptr inbounds %class.aiVector3t, ptr %mPosition32, i32 0, i32 1
  store float %call31, ptr %y, align 4
  %stream33 = getelementptr inbounds %"class.Assimp::Discreet3DSImporter", ptr %this1, i32 0, i32 1
  %24 = load ptr, ptr %stream33, align 8
  %call34 = call noundef float @_ZN6Assimp12StreamReaderILb0ELb0EE5GetF4Ev(ptr noundef nonnull align 8 dereferenceable(49) %24)
  %25 = load ptr, ptr %light, align 8
  %mPosition35 = getelementptr inbounds %struct.aiLight, ptr %25, i32 0, i32 2
  %z = getelementptr inbounds %class.aiVector3t, ptr %mPosition35, i32 0, i32 2
  store float %call34, ptr %z, align 4
  call void @_ZN9aiColor3DC2Efff(ptr noundef nonnull align 4 dereferenceable(12) %ref.tmp36, float noundef 1.000000e+00, float noundef 1.000000e+00, float noundef 1.000000e+00)
  %26 = load ptr, ptr %light, align 8
  %mColorDiffuse = getelementptr inbounds %struct.aiLight, ptr %26, i32 0, i32 8
  %call37 = call noundef nonnull align 4 dereferenceable(12) ptr @_ZN9aiColor3DaSERKS_(ptr noundef nonnull align 4 dereferenceable(12) %mColorDiffuse, ptr noundef nonnull align 4 dereferenceable(12) %ref.tmp36)
  %bIsPrj = getelementptr inbounds %"class.Assimp::Discreet3DSImporter", ptr %this1, i32 0, i32 11
  %27 = load i8, ptr %bIsPrj, align 1
  %tobool = trunc i8 %27 to i1
  br i1 %tobool, label %if.end39, label %if.then38

if.then38:                                        ; preds = %invoke.cont25
  call void @_ZN6Assimp19Discreet3DSImporter15ParseLightChunkEv(ptr noundef nonnull align 8 dereferenceable(162) %this1)
  br label %if.end39

lpad22:                                           ; preds = %sw.bb16
  %28 = landingpad { ptr, i32 }
          cleanup
  %29 = extractvalue { ptr, i32 } %28, 0
  store ptr %29, ptr %exn.slot, align 8
  %30 = extractvalue { ptr, i32 } %28, 1
  store i32 %30, ptr %ehselector.slot, align 4
  br label %ehcleanup27

lpad24:                                           ; preds = %invoke.cont23
  %31 = landingpad { ptr, i32 }
          cleanup
  %32 = extractvalue { ptr, i32 } %31, 0
  store ptr %32, ptr %exn.slot, align 8
  %33 = extractvalue { ptr, i32 } %31, 1
  store i32 %33, ptr %ehselector.slot, align 4
  call void @_ZNSt7__cxx1112basic_stringIcSt11char_traitsIcESaIcEED1Ev(ptr noundef nonnull align 8 dereferenceable(32) %ref.tmp19) #10
  br label %ehcleanup27

ehcleanup27:                                      ; preds = %lpad24, %lpad22
  call void @_ZNSaIcED1Ev(ptr noundef nonnull align 1 dereferenceable(1) %ref.tmp21) #10
  br label %eh.resume

if.end39:                                         ; preds = %if.then38, %invoke.cont25
  %34 = load ptr, ptr %light, align 8
  %mColorDiffuse40 = getelementptr inbounds %struct.aiLight, ptr %34, i32 0, i32 8
  %35 = load ptr, ptr %light, align 8
  %mColorSpecular = getelementptr inbounds %struct.aiLight, ptr %35, i32 0, i32 9
  %call41 = call noundef nonnull align 4 dereferenceable(12) ptr @_ZN9aiColor3DaSERKS_(ptr noundef nonnull align 4 dereferenceable(12) %mColorSpecular, ptr noundef nonnull align 4 dereferenceable(12) %mColorDiffuse40)
  %mClrAmbient = getelementptr inbounds %"class.Assimp::Discreet3DSImporter", ptr %this1, i32 0, i32 7
  %36 = load ptr, ptr %light, align 8
  %mColorAmbient = getelementptr inbounds %struct.aiLight, ptr %36, i32 0, i32 10
  %call42 = call noundef nonnull align 4 dereferenceable(12) ptr @_ZN9aiColor3DaSERKS_(ptr noundef nonnull align 4 dereferenceable(12) %mColorAmbient, ptr noundef nonnull align 4 dereferenceable(12) %mClrAmbient)
  %37 = load ptr, ptr %light, align 8
  %mType = getelementptr inbounds %struct.aiLight, ptr %37, i32 0, i32 1
  %38 = load i32, ptr %mType, align 4
  %cmp43 = icmp eq i32 %38, 0
  br i1 %cmp43, label %if.then44, label %if.end46

if.then44:                                        ; preds = %if.end39
  %39 = load ptr, ptr %light, align 8
  %mType45 = getelementptr inbounds %struct.aiLight, ptr %39, i32 0, i32 1
  store i32 2, ptr %mType45, align 4
  br label %if.end46

if.end46:                                         ; preds = %if.then44, %if.end39
  br label %sw.epilog

sw.bb47:                                          ; preds = %if.end5
  %call48 = call noalias noundef nonnull ptr @_Znwm(i64 noundef 1084) #20
  call void @_ZN8aiCameraC2Ev(ptr noundef nonnull align 4 dereferenceable(1084) %call48) #10
  store ptr %call48, ptr %camera, align 8
  %mScene49 = getelementptr inbounds %"class.Assimp::Discreet3DSImporter", ptr %this1, i32 0, i32 6
  %40 = load ptr, ptr %mScene49, align 8
  %mCameras = getelementptr inbounds %"struct.Assimp::D3DS::Scene", ptr %40, i32 0, i32 2
  call void @_ZNSt6vectorIP8aiCameraSaIS1_EE9push_backERKS1_(ptr noundef nonnull align 8 dereferenceable(24) %mCameras, ptr noundef nonnull align 8 dereferenceable(8) %camera)
  %41 = load ptr, ptr %camera, align 8
  %mName50 = getelementptr inbounds %struct.aiCamera, ptr %41, i32 0, i32 0
  %42 = load ptr, ptr %name.addr, align 8
  %43 = load i32, ptr %num.addr, align 4
  %conv52 = zext i32 %43 to i64
  call void @_ZNSaIcEC1Ev(ptr noundef nonnull align 1 dereferenceable(1) %ref.tmp53) #10
  invoke void @_ZNSt7__cxx1112basic_stringIcSt11char_traitsIcESaIcEEC1EPKcmRKS3_(ptr noundef nonnull align 8 dereferenceable(32) %ref.tmp51, ptr noundef %42, i64 noundef %conv52, ptr noundef nonnull align 1 dereferenceable(1) %ref.tmp53)
          to label %invoke.cont55 unwind label %lpad54

invoke.cont55:                                    ; preds = %sw.bb47
  invoke void @_ZN8aiString3SetERKNSt7__cxx1112basic_stringIcSt11char_traitsIcESaIcEEE(ptr noundef nonnull align 4 dereferenceable(1028) %mName50, ptr noundef nonnull align 8 dereferenceable(32) %ref.tmp51)
          to label %invoke.cont57 unwind label %lpad56

invoke.cont57:                                    ; preds = %invoke.cont55
  call void @_ZNSt7__cxx1112basic_stringIcSt11char_traitsIcESaIcEED1Ev(ptr noundef nonnull align 8 dereferenceable(32) %ref.tmp51) #10
  call void @_ZNSaIcED1Ev(ptr noundef nonnull align 1 dereferenceable(1) %ref.tmp53) #10
  %stream60 = getelementptr inbounds %"class.Assimp::Discreet3DSImporter", ptr %this1, i32 0, i32 1
  %44 = load ptr, ptr %stream60, align 8
  %call61 = call noundef float @_ZN6Assimp12StreamReaderILb0ELb0EE5GetF4Ev(ptr noundef nonnull align 8 dereferenceable(49) %44)
  %45 = load ptr, ptr %camera, align 8
  %mPosition62 = getelementptr inbounds %struct.aiCamera, ptr %45, i32 0, i32 1
  %x63 = getelementptr inbounds %class.aiVector3t, ptr %mPosition62, i32 0, i32 0
  store float %call61, ptr %x63, align 4
  %stream64 = getelementptr inbounds %"class.Assimp::Discreet3DSImporter", ptr %this1, i32 0, i32 1
  %46 = load ptr, ptr %stream64, align 8
  %call65 = call noundef float @_ZN6Assimp12StreamReaderILb0ELb0EE5GetF4Ev(ptr noundef nonnull align 8 dereferenceable(49) %46)
  %47 = load ptr, ptr %camera, align 8
  %mPosition66 = getelementptr inbounds %struct.aiCamera, ptr %47, i32 0, i32 1
  %y67 = getelementptr inbounds %class.aiVector3t, ptr %mPosition66, i32 0, i32 1
  store float %call65, ptr %y67, align 4
  %stream68 = getelementptr inbounds %"class.Assimp::Discreet3DSImporter", ptr %this1, i32 0, i32 1
  %48 = load ptr, ptr %stream68, align 8
  %call69 = call noundef float @_ZN6Assimp12StreamReaderILb0ELb0EE5GetF4Ev(ptr noundef nonnull align 8 dereferenceable(49) %48)
  %49 = load ptr, ptr %camera, align 8
  %mPosition70 = getelementptr inbounds %struct.aiCamera, ptr %49, i32 0, i32 1
  %z71 = getelementptr inbounds %class.aiVector3t, ptr %mPosition70, i32 0, i32 2
  store float %call69, ptr %z71, align 4
  %stream72 = getelementptr inbounds %"class.Assimp::Discreet3DSImporter", ptr %this1, i32 0, i32 1
  %50 = load ptr, ptr %stream72, align 8
  %call73 = call noundef float @_ZN6Assimp12StreamReaderILb0ELb0EE5GetF4Ev(ptr noundef nonnull align 8 dereferenceable(49) %50)
  %51 = load ptr, ptr %camera, align 8
  %mPosition74 = getelementptr inbounds %struct.aiCamera, ptr %51, i32 0, i32 1
  %x75 = getelementptr inbounds %class.aiVector3t, ptr %mPosition74, i32 0, i32 0
  %52 = load float, ptr %x75, align 4
  %sub76 = fsub float %call73, %52
  %53 = load ptr, ptr %camera, align 8
  %mLookAt = getelementptr inbounds %struct.aiCamera, ptr %53, i32 0, i32 3
  %x77 = getelementptr inbounds %class.aiVector3t, ptr %mLookAt, i32 0, i32 0
  store float %sub76, ptr %x77, align 4
  %stream78 = getelementptr inbounds %"class.Assimp::Discreet3DSImporter", ptr %this1, i32 0, i32 1
  %54 = load ptr, ptr %stream78, align 8
  %call79 = call noundef float @_ZN6Assimp12StreamReaderILb0ELb0EE5GetF4Ev(ptr noundef nonnull align 8 dereferenceable(49) %54)
  %55 = load ptr, ptr %camera, align 8
  %mPosition80 = getelementptr inbounds %struct.aiCamera, ptr %55, i32 0, i32 1
  %y81 = getelementptr inbounds %class.aiVector3t, ptr %mPosition80, i32 0, i32 1
  %56 = load float, ptr %y81, align 4
  %sub82 = fsub float %call79, %56
  %57 = load ptr, ptr %camera, align 8
  %mLookAt83 = getelementptr inbounds %struct.aiCamera, ptr %57, i32 0, i32 3
  %y84 = getelementptr inbounds %class.aiVector3t, ptr %mLookAt83, i32 0, i32 1
  store float %sub82, ptr %y84, align 4
  %stream85 = getelementptr inbounds %"class.Assimp::Discreet3DSImporter", ptr %this1, i32 0, i32 1
  %58 = load ptr, ptr %stream85, align 8
  %call86 = call noundef float @_ZN6Assimp12StreamReaderILb0ELb0EE5GetF4Ev(ptr noundef nonnull align 8 dereferenceable(49) %58)
  %59 = load ptr, ptr %camera, align 8
  %mPosition87 = getelementptr inbounds %struct.aiCamera, ptr %59, i32 0, i32 1
  %z88 = getelementptr inbounds %class.aiVector3t, ptr %mPosition87, i32 0, i32 2
  %60 = load float, ptr %z88, align 4
  %sub89 = fsub float %call86, %60
  %61 = load ptr, ptr %camera, align 8
  %mLookAt90 = getelementptr inbounds %struct.aiCamera, ptr %61, i32 0, i32 3
  %z91 = getelementptr inbounds %class.aiVector3t, ptr %mLookAt90, i32 0, i32 2
  store float %sub89, ptr %z91, align 4
  %62 = load ptr, ptr %camera, align 8
  %mLookAt92 = getelementptr inbounds %struct.aiCamera, ptr %62, i32 0, i32 3
  %call93 = call noundef float @_ZNK10aiVector3tIfE6LengthEv(ptr noundef nonnull align 4 dereferenceable(12) %mLookAt92)
  store float %call93, ptr %len, align 4
  %63 = load float, ptr %len, align 4
  %conv94 = fpext float %63 to double
  %cmp95 = fcmp olt double %conv94, 1.000000e-05
  br i1 %cmp95, label %if.then96, label %if.else

if.then96:                                        ; preds = %invoke.cont57
  %call97 = call noundef ptr @_ZN6Assimp13DefaultLogger3getEv()
  call void @_ZN6Assimp6Logger5errorEPKc(ptr noundef nonnull align 8 dereferenceable(12) %call97, ptr noundef @.str.10)
  call void @_ZN10aiVector3tIfEC2Efff(ptr noundef nonnull align 4 dereferenceable(12) %ref.tmp98, float noundef 0.000000e+00, float noundef 1.000000e+00, float noundef 0.000000e+00)
  %64 = load ptr, ptr %camera, align 8
  %mLookAt99 = getelementptr inbounds %struct.aiCamera, ptr %64, i32 0, i32 3
  call void @llvm.memcpy.p0.p0.i64(ptr align 4 %mLookAt99, ptr align 4 %ref.tmp98, i64 12, i1 false)
  br label %if.end102

lpad54:                                           ; preds = %sw.bb47
  %65 = landingpad { ptr, i32 }
          cleanup
  %66 = extractvalue { ptr, i32 } %65, 0
  store ptr %66, ptr %exn.slot, align 8
  %67 = extractvalue { ptr, i32 } %65, 1
  store i32 %67, ptr %ehselector.slot, align 4
  br label %ehcleanup59

lpad56:                                           ; preds = %invoke.cont55
  %68 = landingpad { ptr, i32 }
          cleanup
  %69 = extractvalue { ptr, i32 } %68, 0
  store ptr %69, ptr %exn.slot, align 8
  %70 = extractvalue { ptr, i32 } %68, 1
  store i32 %70, ptr %ehselector.slot, align 4
  call void @_ZNSt7__cxx1112basic_stringIcSt11char_traitsIcESaIcEED1Ev(ptr noundef nonnull align 8 dereferenceable(32) %ref.tmp51) #10
  br label %ehcleanup59

ehcleanup59:                                      ; preds = %lpad56, %lpad54
  call void @_ZNSaIcED1Ev(ptr noundef nonnull align 1 dereferenceable(1) %ref.tmp53) #10
  br label %eh.resume

if.else:                                          ; preds = %invoke.cont57
  %71 = load float, ptr %len, align 4
  %72 = load ptr, ptr %camera, align 8
  %mLookAt100 = getelementptr inbounds %struct.aiCamera, ptr %72, i32 0, i32 3
  %call101 = call noundef nonnull align 4 dereferenceable(12) ptr @_ZN10aiVector3tIfEdVEf(ptr noundef nonnull align 4 dereferenceable(12) %mLookAt100, float noundef %71)
  br label %if.end102

if.end102:                                        ; preds = %if.else, %if.then96
  %stream103 = getelementptr inbounds %"class.Assimp::Discreet3DSImporter", ptr %this1, i32 0, i32 1
  %73 = load ptr, ptr %stream103, align 8
  %call104 = call noundef float @_ZN6Assimp12StreamReaderILb0ELb0EE5GetF4Ev(ptr noundef nonnull align 8 dereferenceable(49) %73)
  %mul = fmul float %call104, 0x3F91DF46A0000000
  store float %mul, ptr %angle, align 4
  %74 = load ptr, ptr %camera, align 8
  %mLookAt105 = getelementptr inbounds %struct.aiCamera, ptr %74, i32 0, i32 3
  call void @llvm.memcpy.p0.p0.i64(ptr align 4 %agg.tmp, ptr align 4 %mLookAt105, i64 12, i1 false)
  %75 = load float, ptr %angle, align 4
  call void @llvm.memcpy.p0.p0.i64(ptr align 4 %agg.tmp.coerce, ptr align 4 %agg.tmp, i64 12, i1 false)
  %76 = getelementptr inbounds { <2 x float>, float }, ptr %agg.tmp.coerce, i32 0, i32 0
  %77 = load <2 x float>, ptr %76, align 4
  %78 = getelementptr inbounds { <2 x float>, float }, ptr %agg.tmp.coerce, i32 0, i32 1
  %79 = load float, ptr %78, align 4
  call void @_ZN13aiQuaterniontIfEC2E10aiVector3tIfEf(ptr noundef nonnull align 4 dereferenceable(16) %quat, <2 x float> %77, float %79, float noundef %75)
  call void @_ZNK13aiQuaterniontIfE9GetMatrixEv(ptr sret(%class.aiMatrix3x3t) align 4 %ref.tmp107, ptr noundef nonnull align 4 dereferenceable(16) %quat)
  call void @_ZN10aiVector3tIfEC2Efff(ptr noundef nonnull align 4 dereferenceable(12) %ref.tmp108, float noundef 0.000000e+00, float noundef 1.000000e+00, float noundef 0.000000e+00)
  %call109 = call { <2 x float>, float } @_ZmlIfE10aiVector3tIT_ERK12aiMatrix3x3tIS1_ERKS2_(ptr noundef nonnull align 4 dereferenceable(36) %ref.tmp107, ptr noundef nonnull align 4 dereferenceable(12) %ref.tmp108)
  store { <2 x float>, float } %call109, ptr %tmp.coerce, align 8
  call void @llvm.memcpy.p0.p0.i64(ptr align 4 %ref.tmp106, ptr align 8 %tmp.coerce, i64 12, i1 false)
  %80 = load ptr, ptr %camera, align 8
  %mUp = getelementptr inbounds %struct.aiCamera, ptr %80, i32 0, i32 2
  call void @llvm.memcpy.p0.p0.i64(ptr align 4 %mUp, ptr align 4 %ref.tmp106, i64 12, i1 false)
  %stream110 = getelementptr inbounds %"class.Assimp::Discreet3DSImporter", ptr %this1, i32 0, i32 1
  %81 = load ptr, ptr %stream110, align 8
  %call111 = call noundef float @_ZN6Assimp12StreamReaderILb0ELb0EE5GetF4Ev(ptr noundef nonnull align 8 dereferenceable(49) %81)
  %mul112 = fmul float %call111, 0x3F91DF46A0000000
  %82 = load ptr, ptr %camera, align 8
  %mHorizontalFOV = getelementptr inbounds %struct.aiCamera, ptr %82, i32 0, i32 4
  store float %mul112, ptr %mHorizontalFOV, align 4
  %83 = load ptr, ptr %camera, align 8
  %mHorizontalFOV113 = getelementptr inbounds %struct.aiCamera, ptr %83, i32 0, i32 4
  %84 = load float, ptr %mHorizontalFOV113, align 4
  %cmp114 = fcmp olt float %84, 0x3F50624DE0000000
  br i1 %cmp114, label %if.then115, label %if.end117

if.then115:                                       ; preds = %if.end102
  %85 = load ptr, ptr %camera, align 8
  %mHorizontalFOV116 = getelementptr inbounds %struct.aiCamera, ptr %85, i32 0, i32 4
  store float 0x3FE921FB60000000, ptr %mHorizontalFOV116, align 4
  br label %if.end117

if.end117:                                        ; preds = %if.then115, %if.end102
  %bIsPrj118 = getelementptr inbounds %"class.Assimp::Discreet3DSImporter", ptr %this1, i32 0, i32 11
  %86 = load i8, ptr %bIsPrj118, align 1
  %tobool119 = trunc i8 %86 to i1
  br i1 %tobool119, label %if.end121, label %if.then120

if.then120:                                       ; preds = %if.end117
  call void @_ZN6Assimp19Discreet3DSImporter16ParseCameraChunkEv(ptr noundef nonnull align 8 dereferenceable(162) %this1)
  br label %if.end121

if.end121:                                        ; preds = %if.then120, %if.end117
  br label %sw.epilog

sw.epilog:                                        ; preds = %if.end121, %if.end46, %invoke.cont14, %if.end5
  %stream122 = getelementptr inbounds %"class.Assimp::Discreet3DSImporter", ptr %this1, i32 0, i32 1
  %87 = load ptr, ptr %stream122, align 8
  call void @_ZN6Assimp12StreamReaderILb0ELb0EE15SkipToReadLimitEv(ptr noundef nonnull align 8 dereferenceable(49) %87)
  %stream123 = getelementptr inbounds %"class.Assimp::Discreet3DSImporter", ptr %this1, i32 0, i32 1
  %88 = load ptr, ptr %stream123, align 8
  %89 = load i32, ptr %oldReadLimit, align 4
  %call124 = call noundef i32 @_ZN6Assimp12StreamReaderILb0ELb0EE12SetReadLimitEj(ptr noundef nonnull align 8 dereferenceable(49) %88, i32 noundef %89)
  %stream125 = getelementptr inbounds %"class.Assimp::Discreet3DSImporter", ptr %this1, i32 0, i32 1
  %90 = load ptr, ptr %stream125, align 8
  %call126 = call noundef i64 @_ZNK6Assimp12StreamReaderILb0ELb0EE23GetRemainingSizeToLimitEv(ptr noundef nonnull align 8 dereferenceable(49) %90)
  %cmp127 = icmp eq i64 %call126, 0
  br i1 %cmp127, label %if.then128, label %if.end129

if.then128:                                       ; preds = %sw.epilog
  br label %return

if.end129:                                        ; preds = %sw.epilog
  br label %while.body, !llvm.loop !21

return:                                           ; preds = %if.then128, %if.then
  ret void

eh.resume:                                        ; preds = %ehcleanup59, %ehcleanup27, %ehcleanup
  %exn = load ptr, ptr %exn.slot, align 8
  %sel = load i32, ptr %ehselector.slot, align 4
  %lpad.val = insertvalue { ptr, i32 } poison, ptr %exn, 0
  %lpad.val130 = insertvalue { ptr, i32 } %lpad.val, i32 %sel, 1
  resume { ptr, i32 } %lpad.val130
}

; Function Attrs: mustprogress uwtable
define linkonce_odr hidden noundef nonnull align 8 dereferenceable(689) ptr @_ZNSt6vectorIN6Assimp4D3DS8MaterialESaIS2_EE12emplace_backIJNSt7__cxx1112basic_stringIcSt11char_traitsIcESaIcEEEEEERS2_DpOT_(ptr noundef nonnull align 8 dereferenceable(24) %this, ptr noundef nonnull align 8 dereferenceable(32) %__args) #3 comdat align 2 {
entry:
  %this.addr = alloca ptr, align 8
  %__args.addr = alloca ptr, align 8
  %agg.tmp = alloca %"class.__gnu_cxx::__normal_iterator.68", align 8
  store ptr %this, ptr %this.addr, align 8
  store ptr %__args, ptr %__args.addr, align 8
  %this1 = load ptr, ptr %this.addr, align 8
  %_M_impl = getelementptr inbounds %"struct.std::_Vector_base.5", ptr %this1, i32 0, i32 0
  %_M_finish = getelementptr inbounds %"struct.std::_Vector_base<Assimp::D3DS::Material, std::allocator<Assimp::D3DS::Material>>::_Vector_impl_data", ptr %_M_impl, i32 0, i32 1
  %0 = load ptr, ptr %_M_finish, align 8
  %_M_impl2 = getelementptr inbounds %"struct.std::_Vector_base.5", ptr %this1, i32 0, i32 0
  %_M_end_of_storage = getelementptr inbounds %"struct.std::_Vector_base<Assimp::D3DS::Material, std::allocator<Assimp::D3DS::Material>>::_Vector_impl_data", ptr %_M_impl2, i32 0, i32 2
  %1 = load ptr, ptr %_M_end_of_storage, align 8
  %cmp = icmp ne ptr %0, %1
  br i1 %cmp, label %if.then, label %if.else

if.then:                                          ; preds = %entry
  %_M_impl3 = getelementptr inbounds %"struct.std::_Vector_base.5", ptr %this1, i32 0, i32 0
  %_M_impl4 = getelementptr inbounds %"struct.std::_Vector_base.5", ptr %this1, i32 0, i32 0
  %_M_finish5 = getelementptr inbounds %"struct.std::_Vector_base<Assimp::D3DS::Material, std::allocator<Assimp::D3DS::Material>>::_Vector_impl_data", ptr %_M_impl4, i32 0, i32 1
  %2 = load ptr, ptr %_M_finish5, align 8
  %3 = load ptr, ptr %__args.addr, align 8
  call void @_ZNSt16allocator_traitsISaIN6Assimp4D3DS8MaterialEEE9constructIS2_JNSt7__cxx1112basic_stringIcSt11char_traitsIcESaIcEEEEEEvRS3_PT_DpOT0_(ptr noundef nonnull align 1 dereferenceable(1) %_M_impl3, ptr noundef %2, ptr noundef nonnull align 8 dereferenceable(32) %3)
  %_M_impl6 = getelementptr inbounds %"struct.std::_Vector_base.5", ptr %this1, i32 0, i32 0
  %_M_finish7 = getelementptr inbounds %"struct.std::_Vector_base<Assimp::D3DS::Material, std::allocator<Assimp::D3DS::Material>>::_Vector_impl_data", ptr %_M_impl6, i32 0, i32 1
  %4 = load ptr, ptr %_M_finish7, align 8
  %incdec.ptr = getelementptr inbounds %"struct.Assimp::D3DS::Material", ptr %4, i32 1
  store ptr %incdec.ptr, ptr %_M_finish7, align 8
  br label %if.end

if.else:                                          ; preds = %entry
  %call = call ptr @_ZNSt6vectorIN6Assimp4D3DS8MaterialESaIS2_EE3endEv(ptr noundef nonnull align 8 dereferenceable(24) %this1) #10
  %coerce.dive = getelementptr inbounds %"class.__gnu_cxx::__normal_iterator.68", ptr %agg.tmp, i32 0, i32 0
  store ptr %call, ptr %coerce.dive, align 8
  %5 = load ptr, ptr %__args.addr, align 8
  %coerce.dive8 = getelementptr inbounds %"class.__gnu_cxx::__normal_iterator.68", ptr %agg.tmp, i32 0, i32 0
  %6 = load ptr, ptr %coerce.dive8, align 8
  call void @_ZNSt6vectorIN6Assimp4D3DS8MaterialESaIS2_EE17_M_realloc_insertIJNSt7__cxx1112basic_stringIcSt11char_traitsIcESaIcEEEEEEvN9__gnu_cxx17__normal_iteratorIPS2_S4_EEDpOT_(ptr noundef nonnull align 8 dereferenceable(24) %this1, ptr %6, ptr noundef nonnull align 8 dereferenceable(32) %5)
  br label %if.end

if.end:                                           ; preds = %if.else, %if.then
  %call9 = call noundef nonnull align 8 dereferenceable(689) ptr @_ZNSt6vectorIN6Assimp4D3DS8MaterialESaIS2_EE4backEv(ptr noundef nonnull align 8 dereferenceable(24) %this1) #10
  ret ptr %call9
}

; Function Attrs: mustprogress uwtable
define linkonce_odr void @_ZStplIcSt11char_traitsIcESaIcEENSt7__cxx1112basic_stringIT_T0_T1_EEPKS5_OS8_(ptr noalias sret(%"class.std::__cxx11::basic_string") align 8 %agg.result, ptr noundef %__lhs, ptr noundef nonnull align 8 dereferenceable(32) %__rhs) #3 comdat {
entry:
  %result.ptr = alloca ptr, align 8
  %__lhs.addr = alloca ptr, align 8
  %__rhs.addr = alloca ptr, align 8
  store ptr %agg.result, ptr %result.ptr, align 8
  store ptr %__lhs, ptr %__lhs.addr, align 8
  store ptr %__rhs, ptr %__rhs.addr, align 8
  %0 = load ptr, ptr %__rhs.addr, align 8
  %1 = load ptr, ptr %__lhs.addr, align 8
  %call = call noundef nonnull align 8 dereferenceable(32) ptr @_ZNSt7__cxx1112basic_stringIcSt11char_traitsIcESaIcEE6insertEmPKc(ptr noundef nonnull align 8 dereferenceable(32) %0, i64 noundef 0, ptr noundef %1)
  call void @_ZNSt7__cxx1112basic_stringIcSt11char_traitsIcESaIcEEC1EOS4_(ptr noundef nonnull align 8 dereferenceable(32) %agg.result, ptr noundef nonnull align 8 dereferenceable(32) %call) #10
  ret void
}

; Function Attrs: mustprogress uwtable
define linkonce_odr hidden void @_Z12ai_to_stringImENSt7__cxx1112basic_stringIcSt11char_traitsIcESaIcEEET_(ptr noalias sret(%"class.std::__cxx11::basic_string") align 8 %agg.result, i64 noundef %value) #3 comdat personality ptr @__gxx_personality_v0 {
entry:
  %result.ptr = alloca ptr, align 8
  %value.addr = alloca i64, align 8
  %os = alloca %"class.std::__cxx11::basic_ostringstream", align 8
  %exn.slot = alloca ptr, align 8
  %ehselector.slot = alloca i32, align 4
  store ptr %agg.result, ptr %result.ptr, align 8
  store i64 %value, ptr %value.addr, align 8
  call void @_ZNSt7__cxx1119basic_ostringstreamIcSt11char_traitsIcESaIcEEC1Ev(ptr noundef nonnull align 8 dereferenceable(112) %os)
  %0 = load i64, ptr %value.addr, align 8
  %call = invoke noundef nonnull align 8 dereferenceable(8) ptr @_ZNSolsEm(ptr noundef nonnull align 8 dereferenceable(8) %os, i64 noundef %0)
          to label %invoke.cont unwind label %lpad

invoke.cont:                                      ; preds = %entry
  invoke void @_ZNKSt7__cxx1119basic_ostringstreamIcSt11char_traitsIcESaIcEE3strEv(ptr sret(%"class.std::__cxx11::basic_string") align 8 %agg.result, ptr noundef nonnull align 8 dereferenceable(112) %os)
          to label %invoke.cont1 unwind label %lpad

invoke.cont1:                                     ; preds = %invoke.cont
  call void @_ZNSt7__cxx1119basic_ostringstreamIcSt11char_traitsIcESaIcEED1Ev(ptr noundef nonnull align 8 dereferenceable(112) %os) #10
  ret void

lpad:                                             ; preds = %invoke.cont, %entry
  %1 = landingpad { ptr, i32 }
          cleanup
  %2 = extractvalue { ptr, i32 } %1, 0
  store ptr %2, ptr %exn.slot, align 8
  %3 = extractvalue { ptr, i32 } %1, 1
  store i32 %3, ptr %ehselector.slot, align 4
  call void @_ZNSt7__cxx1119basic_ostringstreamIcSt11char_traitsIcESaIcEED1Ev(ptr noundef nonnull align 8 dereferenceable(112) %os) #10
  br label %eh.resume

eh.resume:                                        ; preds = %lpad
  %exn = load ptr, ptr %exn.slot, align 8
  %sel = load i32, ptr %ehselector.slot, align 4
  %lpad.val = insertvalue { ptr, i32 } poison, ptr %exn, 0
  %lpad.val2 = insertvalue { ptr, i32 } %lpad.val, i32 %sel, 1
  resume { ptr, i32 } %lpad.val2
}

; Function Attrs: mustprogress nounwind uwtable
define linkonce_odr hidden noundef i64 @_ZNKSt6vectorIN6Assimp4D3DS8MaterialESaIS2_EE4sizeEv(ptr noundef nonnull align 8 dereferenceable(24) %this) #0 comdat align 2 {
entry:
  %this.addr = alloca ptr, align 8
  store ptr %this, ptr %this.addr, align 8
  %this1 = load ptr, ptr %this.addr, align 8
  %_M_impl = getelementptr inbounds %"struct.std::_Vector_base.5", ptr %this1, i32 0, i32 0
  %_M_finish = getelementptr inbounds %"struct.std::_Vector_base<Assimp::D3DS::Material, std::allocator<Assimp::D3DS::Material>>::_Vector_impl_data", ptr %_M_impl, i32 0, i32 1
  %0 = load ptr, ptr %_M_finish, align 8
  %_M_impl2 = getelementptr inbounds %"struct.std::_Vector_base.5", ptr %this1, i32 0, i32 0
  %_M_start = getelementptr inbounds %"struct.std::_Vector_base<Assimp::D3DS::Material, std::allocator<Assimp::D3DS::Material>>::_Vector_impl_data", ptr %_M_impl2, i32 0, i32 0
  %1 = load ptr, ptr %_M_start, align 8
  %sub.ptr.lhs.cast = ptrtoint ptr %0 to i64
  %sub.ptr.rhs.cast = ptrtoint ptr %1 to i64
  %sub.ptr.sub = sub i64 %sub.ptr.lhs.cast, %sub.ptr.rhs.cast
  %sub.ptr.div = sdiv exact i64 %sub.ptr.sub, 696
  ret i64 %sub.ptr.div
}

; Function Attrs: mustprogress uwtable
define hidden void @_ZN6Assimp19Discreet3DSImporter18ParseMaterialChunkEv(ptr noundef nonnull align 8 dereferenceable(162) %this) #3 align 2 personality ptr @__gxx_personality_v0 {
entry:
  %this.addr = alloca ptr, align 8
  %chunk = alloca %"struct.Assimp::D3DS::Discreet3DS::Chunk", align 1
  %chunkSize = alloca i32, align 4
  %oldReadLimit = alloca i32, align 4
  %sz = alloca ptr, align 8
  %cnt = alloca i32, align 4
  %ref.tmp = alloca %"class.std::__cxx11::basic_string", align 8
  %ref.tmp21 = alloca %"class.std::allocator.0", align 1
  %exn.slot = alloca ptr, align 8
  %ehselector.slot = alloca i32, align 4
  %pc = alloca ptr, align 8
  %pc35 = alloca ptr, align 8
  %pc48 = alloca ptr, align 8
  %pc61 = alloca ptr, align 8
  %pcf = alloca ptr, align 8
  %pcf95 = alloca ptr, align 8
  %pcf106 = alloca ptr, align 8
  %f = alloca float, align 4
  %ref.tmp123 = alloca %struct.aiColor3D, align 4
  store ptr %this, ptr %this.addr, align 8
  %this1 = load ptr, ptr %this.addr, align 8
  br label %while.body

while.body:                                       ; preds = %if.end164, %if.then4, %entry
  %stream = getelementptr inbounds %"class.Assimp::Discreet3DSImporter", ptr %this1, i32 0, i32 1
  %0 = load ptr, ptr %stream, align 8
  %call = call noundef i64 @_ZNK6Assimp12StreamReaderILb0ELb0EE23GetRemainingSizeToLimitEv(ptr noundef nonnull align 8 dereferenceable(49) %0)
  %cmp = icmp ult i64 %call, 6
  br i1 %cmp, label %if.then, label %if.end

if.then:                                          ; preds = %while.body
  br label %return

if.end:                                           ; preds = %while.body
  call void @_ZN6Assimp19Discreet3DSImporter9ReadChunkEPNS_4D3DS11Discreet3DS5ChunkE(ptr noundef nonnull align 8 dereferenceable(162) %this1, ptr noundef %chunk)
  %Size = getelementptr inbounds %"struct.Assimp::D3DS::Discreet3DS::Chunk", ptr %chunk, i32 0, i32 1
  %1 = load i32, ptr %Size, align 1
  %conv = zext i32 %1 to i64
  %sub = sub i64 %conv, 6
  %conv2 = trunc i64 %sub to i32
  store i32 %conv2, ptr %chunkSize, align 4
  %2 = load i32, ptr %chunkSize, align 4
  %cmp3 = icmp sle i32 %2, 0
  br i1 %cmp3, label %if.then4, label %if.end5

if.then4:                                         ; preds = %if.end
  br label %while.body, !llvm.loop !22

if.end5:                                          ; preds = %if.end
  %stream6 = getelementptr inbounds %"class.Assimp::Discreet3DSImporter", ptr %this1, i32 0, i32 1
  %3 = load ptr, ptr %stream6, align 8
  %stream7 = getelementptr inbounds %"class.Assimp::Discreet3DSImporter", ptr %this1, i32 0, i32 1
  %4 = load ptr, ptr %stream7, align 8
  %call8 = call noundef i32 @_ZNK6Assimp12StreamReaderILb0ELb0EE13GetCurrentPosEv(ptr noundef nonnull align 8 dereferenceable(49) %4)
  %5 = load i32, ptr %chunkSize, align 4
  %add = add nsw i32 %call8, %5
  %call9 = call noundef i32 @_ZN6Assimp12StreamReaderILb0ELb0EE12SetReadLimitEj(ptr noundef nonnull align 8 dereferenceable(49) %3, i32 noundef %add)
  store i32 %call9, ptr %oldReadLimit, align 4
  %Flag = getelementptr inbounds %"struct.Assimp::D3DS::Discreet3DS::Chunk", ptr %chunk, i32 0, i32 0
  %6 = load i16, ptr %Flag, align 1
  %conv10 = zext i16 %6 to i32
  switch i32 %conv10, label %sw.epilog [
    i32 40960, label %sw.bb
    i32 40992, label %sw.bb25
    i32 41008, label %sw.bb34
    i32 40976, label %sw.bb47
    i32 41088, label %sw.bb60
    i32 41040, label %sw.bb73
    i32 41216, label %sw.bb83
    i32 41089, label %sw.bb90
    i32 41024, label %sw.bb94
    i32 41025, label %sw.bb105
    i32 41092, label %sw.bb116
    i32 41472, label %sw.bb129
    i32 41520, label %sw.bb133
    i32 41488, label %sw.bb137
    i32 41788, label %sw.bb141
    i32 41476, label %sw.bb145
    i32 41789, label %sw.bb149
    i32 41504, label %sw.bb153
  ]

sw.bb:                                            ; preds = %if.end5
  %stream11 = getelementptr inbounds %"class.Assimp::Discreet3DSImporter", ptr %this1, i32 0, i32 1
  %7 = load ptr, ptr %stream11, align 8
  %call12 = call noundef ptr @_ZNK6Assimp12StreamReaderILb0ELb0EE6GetPtrEv(ptr noundef nonnull align 8 dereferenceable(49) %7)
  store ptr %call12, ptr %sz, align 8
  store i32 0, ptr %cnt, align 4
  br label %while.cond13

while.cond13:                                     ; preds = %while.body16, %sw.bb
  %stream14 = getelementptr inbounds %"class.Assimp::Discreet3DSImporter", ptr %this1, i32 0, i32 1
  %8 = load ptr, ptr %stream14, align 8
  %call15 = call noundef signext i8 @_ZN6Assimp12StreamReaderILb0ELb0EE5GetI1Ev(ptr noundef nonnull align 8 dereferenceable(49) %8)
  %tobool = icmp ne i8 %call15, 0
  br i1 %tobool, label %while.body16, label %while.end

while.body16:                                     ; preds = %while.cond13
  %9 = load i32, ptr %cnt, align 4
  %inc = add i32 %9, 1
  store i32 %inc, ptr %cnt, align 4
  br label %while.cond13, !llvm.loop !23

while.end:                                        ; preds = %while.cond13
  %10 = load i32, ptr %cnt, align 4
  %tobool17 = icmp ne i32 %10, 0
  br i1 %tobool17, label %if.else, label %if.then18

if.then18:                                        ; preds = %while.end
  %call19 = call noundef ptr @_ZN6Assimp13DefaultLogger3getEv()
  call void @_ZN6Assimp6Logger5errorEPKc(ptr noundef nonnull align 8 dereferenceable(12) %call19, ptr noundef @.str.19)
  br label %if.end24

if.else:                                          ; preds = %while.end
  %11 = load ptr, ptr %sz, align 8
  %12 = load i32, ptr %cnt, align 4
  %conv20 = zext i32 %12 to i64
  call void @_ZNSaIcEC1Ev(ptr noundef nonnull align 1 dereferenceable(1) %ref.tmp21) #10
  invoke void @_ZNSt7__cxx1112basic_stringIcSt11char_traitsIcESaIcEEC1EPKcmRKS3_(ptr noundef nonnull align 8 dereferenceable(32) %ref.tmp, ptr noundef %11, i64 noundef %conv20, ptr noundef nonnull align 1 dereferenceable(1) %ref.tmp21)
          to label %invoke.cont unwind label %lpad

invoke.cont:                                      ; preds = %if.else
  %mScene = getelementptr inbounds %"class.Assimp::Discreet3DSImporter", ptr %this1, i32 0, i32 6
  %13 = load ptr, ptr %mScene, align 8
  %mMaterials = getelementptr inbounds %"struct.Assimp::D3DS::Scene", ptr %13, i32 0, i32 0
  %call22 = call noundef nonnull align 8 dereferenceable(689) ptr @_ZNSt6vectorIN6Assimp4D3DS8MaterialESaIS2_EE4backEv(ptr noundef nonnull align 8 dereferenceable(24) %mMaterials) #10
  %mName = getelementptr inbounds %"struct.Assimp::D3DS::Material", ptr %call22, i32 0, i32 1
  %call23 = call noundef nonnull align 8 dereferenceable(32) ptr @_ZNSt7__cxx1112basic_stringIcSt11char_traitsIcESaIcEEaSEOS4_(ptr noundef nonnull align 8 dereferenceable(32) %mName, ptr noundef nonnull align 8 dereferenceable(32) %ref.tmp) #10
  call void @_ZNSt7__cxx1112basic_stringIcSt11char_traitsIcESaIcEED1Ev(ptr noundef nonnull align 8 dereferenceable(32) %ref.tmp) #10
  call void @_ZNSaIcED1Ev(ptr noundef nonnull align 1 dereferenceable(1) %ref.tmp21) #10
  br label %if.end24

lpad:                                             ; preds = %if.else
  %14 = landingpad { ptr, i32 }
          cleanup
  %15 = extractvalue { ptr, i32 } %14, 0
  store ptr %15, ptr %exn.slot, align 8
  %16 = extractvalue { ptr, i32 } %14, 1
  store i32 %16, ptr %ehselector.slot, align 4
  call void @_ZNSaIcED1Ev(ptr noundef nonnull align 1 dereferenceable(1) %ref.tmp21) #10
  br label %eh.resume

if.end24:                                         ; preds = %invoke.cont, %if.then18
  br label %sw.epilog

sw.bb25:                                          ; preds = %if.end5
  %mScene26 = getelementptr inbounds %"class.Assimp::Discreet3DSImporter", ptr %this1, i32 0, i32 6
  %17 = load ptr, ptr %mScene26, align 8
  %mMaterials27 = getelementptr inbounds %"struct.Assimp::D3DS::Scene", ptr %17, i32 0, i32 0
  %call28 = call noundef nonnull align 8 dereferenceable(689) ptr @_ZNSt6vectorIN6Assimp4D3DS8MaterialESaIS2_EE4backEv(ptr noundef nonnull align 8 dereferenceable(24) %mMaterials27) #10
  %mDiffuse = getelementptr inbounds %"struct.Assimp::D3DS::Material", ptr %call28, i32 0, i32 2
  store ptr %mDiffuse, ptr %pc, align 8
  %18 = load ptr, ptr %pc, align 8
  call void @_ZN6Assimp19Discreet3DSImporter15ParseColorChunkEP9aiColor3Db(ptr noundef nonnull align 8 dereferenceable(162) %this1, ptr noundef %18, i1 noundef zeroext true)
  %19 = load ptr, ptr %pc, align 8
  %r = getelementptr inbounds %struct.aiColor3D, ptr %19, i32 0, i32 0
  %20 = load float, ptr %r, align 4
  %call29 = call noundef zeroext i1 @_Z7is_qnanf(float noundef %20)
  br i1 %call29, label %if.then30, label %if.end33

if.then30:                                        ; preds = %sw.bb25
  %call31 = call noundef ptr @_ZN6Assimp13DefaultLogger3getEv()
  call void @_ZN6Assimp6Logger5errorEPKc(ptr noundef nonnull align 8 dereferenceable(12) %call31, ptr noundef @.str.20)
  %21 = load ptr, ptr %pc, align 8
  %b = getelementptr inbounds %struct.aiColor3D, ptr %21, i32 0, i32 2
  store float 1.000000e+00, ptr %b, align 4
  %22 = load ptr, ptr %pc, align 8
  %g = getelementptr inbounds %struct.aiColor3D, ptr %22, i32 0, i32 1
  store float 1.000000e+00, ptr %g, align 4
  %23 = load ptr, ptr %pc, align 8
  %r32 = getelementptr inbounds %struct.aiColor3D, ptr %23, i32 0, i32 0
  store float 1.000000e+00, ptr %r32, align 4
  br label %if.end33

if.end33:                                         ; preds = %if.then30, %sw.bb25
  br label %sw.epilog

sw.bb34:                                          ; preds = %if.end5
  %mScene36 = getelementptr inbounds %"class.Assimp::Discreet3DSImporter", ptr %this1, i32 0, i32 6
  %24 = load ptr, ptr %mScene36, align 8
  %mMaterials37 = getelementptr inbounds %"struct.Assimp::D3DS::Scene", ptr %24, i32 0, i32 0
  %call38 = call noundef nonnull align 8 dereferenceable(689) ptr @_ZNSt6vectorIN6Assimp4D3DS8MaterialESaIS2_EE4backEv(ptr noundef nonnull align 8 dereferenceable(24) %mMaterials37) #10
  %mSpecular = getelementptr inbounds %"struct.Assimp::D3DS::Material", ptr %call38, i32 0, i32 5
  store ptr %mSpecular, ptr %pc35, align 8
  %25 = load ptr, ptr %pc35, align 8
  call void @_ZN6Assimp19Discreet3DSImporter15ParseColorChunkEP9aiColor3Db(ptr noundef nonnull align 8 dereferenceable(162) %this1, ptr noundef %25, i1 noundef zeroext true)
  %26 = load ptr, ptr %pc35, align 8
  %r39 = getelementptr inbounds %struct.aiColor3D, ptr %26, i32 0, i32 0
  %27 = load float, ptr %r39, align 4
  %call40 = call noundef zeroext i1 @_Z7is_qnanf(float noundef %27)
  br i1 %call40, label %if.then41, label %if.end46

if.then41:                                        ; preds = %sw.bb34
  %call42 = call noundef ptr @_ZN6Assimp13DefaultLogger3getEv()
  call void @_ZN6Assimp6Logger5errorEPKc(ptr noundef nonnull align 8 dereferenceable(12) %call42, ptr noundef @.str.21)
  %28 = load ptr, ptr %pc35, align 8
  %b43 = getelementptr inbounds %struct.aiColor3D, ptr %28, i32 0, i32 2
  store float 1.000000e+00, ptr %b43, align 4
  %29 = load ptr, ptr %pc35, align 8
  %g44 = getelementptr inbounds %struct.aiColor3D, ptr %29, i32 0, i32 1
  store float 1.000000e+00, ptr %g44, align 4
  %30 = load ptr, ptr %pc35, align 8
  %r45 = getelementptr inbounds %struct.aiColor3D, ptr %30, i32 0, i32 0
  store float 1.000000e+00, ptr %r45, align 4
  br label %if.end46

if.end46:                                         ; preds = %if.then41, %sw.bb34
  br label %sw.epilog

sw.bb47:                                          ; preds = %if.end5
  %mScene49 = getelementptr inbounds %"class.Assimp::Discreet3DSImporter", ptr %this1, i32 0, i32 6
  %31 = load ptr, ptr %mScene49, align 8
  %mMaterials50 = getelementptr inbounds %"struct.Assimp::D3DS::Scene", ptr %31, i32 0, i32 0
  %call51 = call noundef nonnull align 8 dereferenceable(689) ptr @_ZNSt6vectorIN6Assimp4D3DS8MaterialESaIS2_EE4backEv(ptr noundef nonnull align 8 dereferenceable(24) %mMaterials50) #10
  %mAmbient = getelementptr inbounds %"struct.Assimp::D3DS::Material", ptr %call51, i32 0, i32 6
  store ptr %mAmbient, ptr %pc48, align 8
  %32 = load ptr, ptr %pc48, align 8
  call void @_ZN6Assimp19Discreet3DSImporter15ParseColorChunkEP9aiColor3Db(ptr noundef nonnull align 8 dereferenceable(162) %this1, ptr noundef %32, i1 noundef zeroext true)
  %33 = load ptr, ptr %pc48, align 8
  %r52 = getelementptr inbounds %struct.aiColor3D, ptr %33, i32 0, i32 0
  %34 = load float, ptr %r52, align 4
  %call53 = call noundef zeroext i1 @_Z7is_qnanf(float noundef %34)
  br i1 %call53, label %if.then54, label %if.end59

if.then54:                                        ; preds = %sw.bb47
  %call55 = call noundef ptr @_ZN6Assimp13DefaultLogger3getEv()
  call void @_ZN6Assimp6Logger5errorEPKc(ptr noundef nonnull align 8 dereferenceable(12) %call55, ptr noundef @.str.22)
  %35 = load ptr, ptr %pc48, align 8
  %b56 = getelementptr inbounds %struct.aiColor3D, ptr %35, i32 0, i32 2
  store float 0.000000e+00, ptr %b56, align 4
  %36 = load ptr, ptr %pc48, align 8
  %g57 = getelementptr inbounds %struct.aiColor3D, ptr %36, i32 0, i32 1
  store float 0.000000e+00, ptr %g57, align 4
  %37 = load ptr, ptr %pc48, align 8
  %r58 = getelementptr inbounds %struct.aiColor3D, ptr %37, i32 0, i32 0
  store float 0.000000e+00, ptr %r58, align 4
  br label %if.end59

if.end59:                                         ; preds = %if.then54, %sw.bb47
  br label %sw.epilog

sw.bb60:                                          ; preds = %if.end5
  %mScene62 = getelementptr inbounds %"class.Assimp::Discreet3DSImporter", ptr %this1, i32 0, i32 6
  %38 = load ptr, ptr %mScene62, align 8
  %mMaterials63 = getelementptr inbounds %"struct.Assimp::D3DS::Scene", ptr %38, i32 0, i32 0
  %call64 = call noundef nonnull align 8 dereferenceable(689) ptr @_ZNSt6vectorIN6Assimp4D3DS8MaterialESaIS2_EE4backEv(ptr noundef nonnull align 8 dereferenceable(24) %mMaterials63) #10
  %mEmissive = getelementptr inbounds %"struct.Assimp::D3DS::Material", ptr %call64, i32 0, i32 18
  store ptr %mEmissive, ptr %pc61, align 8
  %39 = load ptr, ptr %pc61, align 8
  call void @_ZN6Assimp19Discreet3DSImporter15ParseColorChunkEP9aiColor3Db(ptr noundef nonnull align 8 dereferenceable(162) %this1, ptr noundef %39, i1 noundef zeroext true)
  %40 = load ptr, ptr %pc61, align 8
  %r65 = getelementptr inbounds %struct.aiColor3D, ptr %40, i32 0, i32 0
  %41 = load float, ptr %r65, align 4
  %call66 = call noundef zeroext i1 @_Z7is_qnanf(float noundef %41)
  br i1 %call66, label %if.then67, label %if.end72

if.then67:                                        ; preds = %sw.bb60
  %call68 = call noundef ptr @_ZN6Assimp13DefaultLogger3getEv()
  call void @_ZN6Assimp6Logger5errorEPKc(ptr noundef nonnull align 8 dereferenceable(12) %call68, ptr noundef @.str.23)
  %42 = load ptr, ptr %pc61, align 8
  %b69 = getelementptr inbounds %struct.aiColor3D, ptr %42, i32 0, i32 2
  store float 0.000000e+00, ptr %b69, align 4
  %43 = load ptr, ptr %pc61, align 8
  %g70 = getelementptr inbounds %struct.aiColor3D, ptr %43, i32 0, i32 1
  store float 0.000000e+00, ptr %g70, align 4
  %44 = load ptr, ptr %pc61, align 8
  %r71 = getelementptr inbounds %struct.aiColor3D, ptr %44, i32 0, i32 0
  store float 0.000000e+00, ptr %r71, align 4
  br label %if.end72

if.end72:                                         ; preds = %if.then67, %sw.bb60
  br label %sw.epilog

sw.bb73:                                          ; preds = %if.end5
  %mScene74 = getelementptr inbounds %"class.Assimp::Discreet3DSImporter", ptr %this1, i32 0, i32 6
  %45 = load ptr, ptr %mScene74, align 8
  %mMaterials75 = getelementptr inbounds %"struct.Assimp::D3DS::Scene", ptr %45, i32 0, i32 0
  %call76 = call noundef nonnull align 8 dereferenceable(689) ptr @_ZNSt6vectorIN6Assimp4D3DS8MaterialESaIS2_EE4backEv(ptr noundef nonnull align 8 dereferenceable(24) %mMaterials75) #10
  %mTransparency = getelementptr inbounds %"struct.Assimp::D3DS::Material", ptr %call76, i32 0, i32 8
  store ptr %mTransparency, ptr %pcf, align 8
  %call77 = call noundef float @_ZN6Assimp19Discreet3DSImporter20ParsePercentageChunkEv(ptr noundef nonnull align 8 dereferenceable(162) %this1)
  %46 = load ptr, ptr %pcf, align 8
  store float %call77, ptr %46, align 4
  %47 = load ptr, ptr %pcf, align 8
  %48 = load float, ptr %47, align 4
  %call78 = call noundef zeroext i1 @_Z7is_qnanf(float noundef %48)
  br i1 %call78, label %if.then79, label %if.else80

if.then79:                                        ; preds = %sw.bb73
  %49 = load ptr, ptr %pcf, align 8
  store float 1.000000e+00, ptr %49, align 4
  br label %if.end82

if.else80:                                        ; preds = %sw.bb73
  %50 = load ptr, ptr %pcf, align 8
  %51 = load float, ptr %50, align 4
  %mul = fmul float %51, 6.553500e+04
  %div = fdiv float %mul, 1.000000e+02
  %sub81 = fsub float 1.000000e+00, %div
  %52 = load ptr, ptr %pcf, align 8
  store float %sub81, ptr %52, align 4
  br label %if.end82

if.end82:                                         ; preds = %if.else80, %if.then79
  br label %sw.epilog

sw.bb83:                                          ; preds = %if.end5
  %stream84 = getelementptr inbounds %"class.Assimp::Discreet3DSImporter", ptr %this1, i32 0, i32 1
  %53 = load ptr, ptr %stream84, align 8
  %call85 = call noundef signext i16 @_ZN6Assimp12StreamReaderILb0ELb0EE5GetI2Ev(ptr noundef nonnull align 8 dereferenceable(49) %53)
  %conv86 = sext i16 %call85 to i32
  %mScene87 = getelementptr inbounds %"class.Assimp::Discreet3DSImporter", ptr %this1, i32 0, i32 6
  %54 = load ptr, ptr %mScene87, align 8
  %mMaterials88 = getelementptr inbounds %"struct.Assimp::D3DS::Scene", ptr %54, i32 0, i32 0
  %call89 = call noundef nonnull align 8 dereferenceable(689) ptr @_ZNSt6vectorIN6Assimp4D3DS8MaterialESaIS2_EE4backEv(ptr noundef nonnull align 8 dereferenceable(24) %mMaterials88) #10
  %mShading = getelementptr inbounds %"struct.Assimp::D3DS::Material", ptr %call89, i32 0, i32 7
  store i32 %conv86, ptr %mShading, align 4
  br label %sw.epilog

sw.bb90:                                          ; preds = %if.end5
  %mScene91 = getelementptr inbounds %"class.Assimp::Discreet3DSImporter", ptr %this1, i32 0, i32 6
  %55 = load ptr, ptr %mScene91, align 8
  %mMaterials92 = getelementptr inbounds %"struct.Assimp::D3DS::Scene", ptr %55, i32 0, i32 0
  %call93 = call noundef nonnull align 8 dereferenceable(689) ptr @_ZNSt6vectorIN6Assimp4D3DS8MaterialESaIS2_EE4backEv(ptr noundef nonnull align 8 dereferenceable(24) %mMaterials92) #10
  %mTwoSided = getelementptr inbounds %"struct.Assimp::D3DS::Material", ptr %call93, i32 0, i32 20
  store i8 1, ptr %mTwoSided, align 8
  br label %sw.epilog

sw.bb94:                                          ; preds = %if.end5
  %mScene96 = getelementptr inbounds %"class.Assimp::Discreet3DSImporter", ptr %this1, i32 0, i32 6
  %56 = load ptr, ptr %mScene96, align 8
  %mMaterials97 = getelementptr inbounds %"struct.Assimp::D3DS::Scene", ptr %56, i32 0, i32 0
  %call98 = call noundef nonnull align 8 dereferenceable(689) ptr @_ZNSt6vectorIN6Assimp4D3DS8MaterialESaIS2_EE4backEv(ptr noundef nonnull align 8 dereferenceable(24) %mMaterials97) #10
  %mSpecularExponent = getelementptr inbounds %"struct.Assimp::D3DS::Material", ptr %call98, i32 0, i32 3
  store ptr %mSpecularExponent, ptr %pcf95, align 8
  %call99 = call noundef float @_ZN6Assimp19Discreet3DSImporter20ParsePercentageChunkEv(ptr noundef nonnull align 8 dereferenceable(162) %this1)
  %57 = load ptr, ptr %pcf95, align 8
  store float %call99, ptr %57, align 4
  %58 = load ptr, ptr %pcf95, align 8
  %59 = load float, ptr %58, align 4
  %call100 = call noundef zeroext i1 @_Z7is_qnanf(float noundef %59)
  br i1 %call100, label %if.then101, label %if.else102

if.then101:                                       ; preds = %sw.bb94
  %60 = load ptr, ptr %pcf95, align 8
  store float 0.000000e+00, ptr %60, align 4
  br label %if.end104

if.else102:                                       ; preds = %sw.bb94
  %61 = load ptr, ptr %pcf95, align 8
  %62 = load float, ptr %61, align 4
  %mul103 = fmul float %62, 6.553500e+04
  store float %mul103, ptr %61, align 4
  br label %if.end104

if.end104:                                        ; preds = %if.else102, %if.then101
  br label %sw.epilog

sw.bb105:                                         ; preds = %if.end5
  %mScene107 = getelementptr inbounds %"class.Assimp::Discreet3DSImporter", ptr %this1, i32 0, i32 6
  %63 = load ptr, ptr %mScene107, align 8
  %mMaterials108 = getelementptr inbounds %"struct.Assimp::D3DS::Scene", ptr %63, i32 0, i32 0
  %call109 = call noundef nonnull align 8 dereferenceable(689) ptr @_ZNSt6vectorIN6Assimp4D3DS8MaterialESaIS2_EE4backEv(ptr noundef nonnull align 8 dereferenceable(24) %mMaterials108) #10
  %mShininessStrength = getelementptr inbounds %"struct.Assimp::D3DS::Material", ptr %call109, i32 0, i32 4
  store ptr %mShininessStrength, ptr %pcf106, align 8
  %call110 = call noundef float @_ZN6Assimp19Discreet3DSImporter20ParsePercentageChunkEv(ptr noundef nonnull align 8 dereferenceable(162) %this1)
  %64 = load ptr, ptr %pcf106, align 8
  store float %call110, ptr %64, align 4
  %65 = load ptr, ptr %pcf106, align 8
  %66 = load float, ptr %65, align 4
  %call111 = call noundef zeroext i1 @_Z7is_qnanf(float noundef %66)
  br i1 %call111, label %if.then112, label %if.else113

if.then112:                                       ; preds = %sw.bb105
  %67 = load ptr, ptr %pcf106, align 8
  store float 0.000000e+00, ptr %67, align 4
  br label %if.end115

if.else113:                                       ; preds = %sw.bb105
  %68 = load ptr, ptr %pcf106, align 8
  %69 = load float, ptr %68, align 4
  %mul114 = fmul float %69, 0x40847ACCC0000000
  store float %mul114, ptr %68, align 4
  br label %if.end115

if.end115:                                        ; preds = %if.else113, %if.then112
  br label %sw.epilog

sw.bb116:                                         ; preds = %if.end5
  %call117 = call noundef float @_ZN6Assimp19Discreet3DSImporter20ParsePercentageChunkEv(ptr noundef nonnull align 8 dereferenceable(162) %this1)
  store float %call117, ptr %f, align 4
  %70 = load float, ptr %f, align 4
  %call118 = call noundef zeroext i1 @_Z7is_qnanf(float noundef %70)
  br i1 %call118, label %if.then119, label %if.else120

if.then119:                                       ; preds = %sw.bb116
  store float 0.000000e+00, ptr %f, align 4
  br label %if.end122

if.else120:                                       ; preds = %sw.bb116
  %71 = load float, ptr %f, align 4
  %mul121 = fmul float %71, 0x40847ACCC0000000
  store float %mul121, ptr %f, align 4
  br label %if.end122

if.end122:                                        ; preds = %if.else120, %if.then119
  %72 = load float, ptr %f, align 4
  %73 = load float, ptr %f, align 4
  %74 = load float, ptr %f, align 4
  call void @_ZN9aiColor3DC2Efff(ptr noundef nonnull align 4 dereferenceable(12) %ref.tmp123, float noundef %72, float noundef %73, float noundef %74)
  %mScene124 = getelementptr inbounds %"class.Assimp::Discreet3DSImporter", ptr %this1, i32 0, i32 6
  %75 = load ptr, ptr %mScene124, align 8
  %mMaterials125 = getelementptr inbounds %"struct.Assimp::D3DS::Scene", ptr %75, i32 0, i32 0
  %call126 = call noundef nonnull align 8 dereferenceable(689) ptr @_ZNSt6vectorIN6Assimp4D3DS8MaterialESaIS2_EE4backEv(ptr noundef nonnull align 8 dereferenceable(24) %mMaterials125) #10
  %mEmissive127 = getelementptr inbounds %"struct.Assimp::D3DS::Material", ptr %call126, i32 0, i32 18
  %call128 = call noundef nonnull align 4 dereferenceable(12) ptr @_ZN9aiColor3DaSERKS_(ptr noundef nonnull align 4 dereferenceable(12) %mEmissive127, ptr noundef nonnull align 4 dereferenceable(12) %ref.tmp123)
  br label %sw.epilog

sw.bb129:                                         ; preds = %if.end5
  %mScene130 = getelementptr inbounds %"class.Assimp::Discreet3DSImporter", ptr %this1, i32 0, i32 6
  %76 = load ptr, ptr %mScene130, align 8
  %mMaterials131 = getelementptr inbounds %"struct.Assimp::D3DS::Scene", ptr %76, i32 0, i32 0
  %call132 = call noundef nonnull align 8 dereferenceable(689) ptr @_ZNSt6vectorIN6Assimp4D3DS8MaterialESaIS2_EE4backEv(ptr noundef nonnull align 8 dereferenceable(24) %mMaterials131) #10
  %sTexDiffuse = getelementptr inbounds %"struct.Assimp::D3DS::Material", ptr %call132, i32 0, i32 10
  call void @_ZN6Assimp19Discreet3DSImporter17ParseTextureChunkEPNS_4D3DS7TextureE(ptr noundef nonnull align 8 dereferenceable(162) %this1, ptr noundef %sTexDiffuse)
  br label %sw.epilog

sw.bb133:                                         ; preds = %if.end5
  %mScene134 = getelementptr inbounds %"class.Assimp::Discreet3DSImporter", ptr %this1, i32 0, i32 6
  %77 = load ptr, ptr %mScene134, align 8
  %mMaterials135 = getelementptr inbounds %"struct.Assimp::D3DS::Scene", ptr %77, i32 0, i32 0
  %call136 = call noundef nonnull align 8 dereferenceable(689) ptr @_ZNSt6vectorIN6Assimp4D3DS8MaterialESaIS2_EE4backEv(ptr noundef nonnull align 8 dereferenceable(24) %mMaterials135) #10
  %sTexBump = getelementptr inbounds %"struct.Assimp::D3DS::Material", ptr %call136, i32 0, i32 14
  call void @_ZN6Assimp19Discreet3DSImporter17ParseTextureChunkEPNS_4D3DS7TextureE(ptr noundef nonnull align 8 dereferenceable(162) %this1, ptr noundef %sTexBump)
  br label %sw.epilog

sw.bb137:                                         ; preds = %if.end5
  %mScene138 = getelementptr inbounds %"class.Assimp::Discreet3DSImporter", ptr %this1, i32 0, i32 6
  %78 = load ptr, ptr %mScene138, align 8
  %mMaterials139 = getelementptr inbounds %"struct.Assimp::D3DS::Scene", ptr %78, i32 0, i32 0
  %call140 = call noundef nonnull align 8 dereferenceable(689) ptr @_ZNSt6vectorIN6Assimp4D3DS8MaterialESaIS2_EE4backEv(ptr noundef nonnull align 8 dereferenceable(24) %mMaterials139) #10
  %sTexOpacity = getelementptr inbounds %"struct.Assimp::D3DS::Material", ptr %call140, i32 0, i32 11
  call void @_ZN6Assimp19Discreet3DSImporter17ParseTextureChunkEPNS_4D3DS7TextureE(ptr noundef nonnull align 8 dereferenceable(162) %this1, ptr noundef %sTexOpacity)
  br label %sw.epilog

sw.bb141:                                         ; preds = %if.end5
  %mScene142 = getelementptr inbounds %"class.Assimp::Discreet3DSImporter", ptr %this1, i32 0, i32 6
  %79 = load ptr, ptr %mScene142, align 8
  %mMaterials143 = getelementptr inbounds %"struct.Assimp::D3DS::Scene", ptr %79, i32 0, i32 0
  %call144 = call noundef nonnull align 8 dereferenceable(689) ptr @_ZNSt6vectorIN6Assimp4D3DS8MaterialESaIS2_EE4backEv(ptr noundef nonnull align 8 dereferenceable(24) %mMaterials143) #10
  %sTexShininess = getelementptr inbounds %"struct.Assimp::D3DS::Material", ptr %call144, i32 0, i32 16
  call void @_ZN6Assimp19Discreet3DSImporter17ParseTextureChunkEPNS_4D3DS7TextureE(ptr noundef nonnull align 8 dereferenceable(162) %this1, ptr noundef %sTexShininess)
  br label %sw.epilog

sw.bb145:                                         ; preds = %if.end5
  %mScene146 = getelementptr inbounds %"class.Assimp::Discreet3DSImporter", ptr %this1, i32 0, i32 6
  %80 = load ptr, ptr %mScene146, align 8
  %mMaterials147 = getelementptr inbounds %"struct.Assimp::D3DS::Scene", ptr %80, i32 0, i32 0
  %call148 = call noundef nonnull align 8 dereferenceable(689) ptr @_ZNSt6vectorIN6Assimp4D3DS8MaterialESaIS2_EE4backEv(ptr noundef nonnull align 8 dereferenceable(24) %mMaterials147) #10
  %sTexSpecular = getelementptr inbounds %"struct.Assimp::D3DS::Material", ptr %call148, i32 0, i32 12
  call void @_ZN6Assimp19Discreet3DSImporter17ParseTextureChunkEPNS_4D3DS7TextureE(ptr noundef nonnull align 8 dereferenceable(162) %this1, ptr noundef %sTexSpecular)
  br label %sw.epilog

sw.bb149:                                         ; preds = %if.end5
  %mScene150 = getelementptr inbounds %"class.Assimp::Discreet3DSImporter", ptr %this1, i32 0, i32 6
  %81 = load ptr, ptr %mScene150, align 8
  %mMaterials151 = getelementptr inbounds %"struct.Assimp::D3DS::Scene", ptr %81, i32 0, i32 0
  %call152 = call noundef nonnull align 8 dereferenceable(689) ptr @_ZNSt6vectorIN6Assimp4D3DS8MaterialESaIS2_EE4backEv(ptr noundef nonnull align 8 dereferenceable(24) %mMaterials151) #10
  %sTexEmissive = getelementptr inbounds %"struct.Assimp::D3DS::Material", ptr %call152, i32 0, i32 15
  call void @_ZN6Assimp19Discreet3DSImporter17ParseTextureChunkEPNS_4D3DS7TextureE(ptr noundef nonnull align 8 dereferenceable(162) %this1, ptr noundef %sTexEmissive)
  br label %sw.epilog

sw.bb153:                                         ; preds = %if.end5
  %mScene154 = getelementptr inbounds %"class.Assimp::Discreet3DSImporter", ptr %this1, i32 0, i32 6
  %82 = load ptr, ptr %mScene154, align 8
  %mMaterials155 = getelementptr inbounds %"struct.Assimp::D3DS::Scene", ptr %82, i32 0, i32 0
  %call156 = call noundef nonnull align 8 dereferenceable(689) ptr @_ZNSt6vectorIN6Assimp4D3DS8MaterialESaIS2_EE4backEv(ptr noundef nonnull align 8 dereferenceable(24) %mMaterials155) #10
  %sTexReflective = getelementptr inbounds %"struct.Assimp::D3DS::Material", ptr %call156, i32 0, i32 13
  call void @_ZN6Assimp19Discreet3DSImporter17ParseTextureChunkEPNS_4D3DS7TextureE(ptr noundef nonnull align 8 dereferenceable(162) %this1, ptr noundef %sTexReflective)
  br label %sw.epilog

sw.epilog:                                        ; preds = %sw.bb153, %sw.bb149, %sw.bb145, %sw.bb141, %sw.bb137, %sw.bb133, %sw.bb129, %if.end122, %if.end115, %if.end104, %sw.bb90, %sw.bb83, %if.end82, %if.end72, %if.end59, %if.end46, %if.end33, %if.end24, %if.end5
  %stream157 = getelementptr inbounds %"class.Assimp::Discreet3DSImporter", ptr %this1, i32 0, i32 1
  %83 = load ptr, ptr %stream157, align 8
  call void @_ZN6Assimp12StreamReaderILb0ELb0EE15SkipToReadLimitEv(ptr noundef nonnull align 8 dereferenceable(49) %83)
  %stream158 = getelementptr inbounds %"class.Assimp::Discreet3DSImporter", ptr %this1, i32 0, i32 1
  %84 = load ptr, ptr %stream158, align 8
  %85 = load i32, ptr %oldReadLimit, align 4
  %call159 = call noundef i32 @_ZN6Assimp12StreamReaderILb0ELb0EE12SetReadLimitEj(ptr noundef nonnull align 8 dereferenceable(49) %84, i32 noundef %85)
  %stream160 = getelementptr inbounds %"class.Assimp::Discreet3DSImporter", ptr %this1, i32 0, i32 1
  %86 = load ptr, ptr %stream160, align 8
  %call161 = call noundef i64 @_ZNK6Assimp12StreamReaderILb0ELb0EE23GetRemainingSizeToLimitEv(ptr noundef nonnull align 8 dereferenceable(49) %86)
  %cmp162 = icmp eq i64 %call161, 0
  br i1 %cmp162, label %if.then163, label %if.end164

if.then163:                                       ; preds = %sw.epilog
  br label %return

if.end164:                                        ; preds = %sw.epilog
  br label %while.body, !llvm.loop !22

return:                                           ; preds = %if.then163, %if.then
  ret void

eh.resume:                                        ; preds = %lpad
  %exn = load ptr, ptr %exn.slot, align 8
  %sel = load i32, ptr %ehselector.slot, align 4
  %lpad.val = insertvalue { ptr, i32 } poison, ptr %exn, 0
  %lpad.val165 = insertvalue { ptr, i32 } %lpad.val, i32 %sel, 1
  resume { ptr, i32 } %lpad.val165
}

; Function Attrs: mustprogress uwtable
define hidden void @_ZN6Assimp19Discreet3DSImporter15ParseColorChunkEP9aiColor3Db(ptr noundef nonnull align 8 dereferenceable(162) %this, ptr noundef %out, i1 noundef zeroext %acceptPercent) #3 align 2 personality ptr @__gxx_personality_v0 {
entry:
  %this.addr = alloca ptr, align 8
  %out.addr = alloca ptr, align 8
  %acceptPercent.addr = alloca i8, align 1
  %qnan = alloca float, align 4
  %exn.slot = alloca ptr, align 8
  %ehselector.slot = alloca i32, align 4
  %chunk = alloca %"struct.Assimp::D3DS::Discreet3DS::Chunk", align 1
  %diff = alloca i32, align 4
  %bGamma = alloca i8, align 1
  %invVal = alloca float, align 4
  store ptr %this, ptr %this.addr, align 8
  store ptr %out, ptr %out.addr, align 8
  %frombool = zext i1 %acceptPercent to i8
  store i8 %frombool, ptr %acceptPercent.addr, align 1
  %this1 = load ptr, ptr %this.addr, align 8
  %call = call noundef float @_Z8get_qnanv()
  store float %call, ptr %qnan, align 4
  %0 = load atomic i8, ptr @_ZGVZN6Assimp19Discreet3DSImporter15ParseColorChunkEP9aiColor3DbE8clrError acquire, align 8
  %guard.uninitialized = icmp eq i8 %0, 0
  br i1 %guard.uninitialized, label %init.check, label %init.end, !prof !24

init.check:                                       ; preds = %entry
  %1 = call i32 @__cxa_guard_acquire(ptr @_ZGVZN6Assimp19Discreet3DSImporter15ParseColorChunkEP9aiColor3DbE8clrError) #10
  %tobool = icmp ne i32 %1, 0
  br i1 %tobool, label %init, label %init.end

init:                                             ; preds = %init.check
  %2 = load float, ptr %qnan, align 4
  %3 = load float, ptr %qnan, align 4
  %4 = load float, ptr %qnan, align 4
  invoke void @_ZN9aiColor3DC2Efff(ptr noundef nonnull align 4 dereferenceable(12) @_ZZN6Assimp19Discreet3DSImporter15ParseColorChunkEP9aiColor3DbE8clrError, float noundef %2, float noundef %3, float noundef %4)
          to label %invoke.cont unwind label %lpad

invoke.cont:                                      ; preds = %init
  call void @__cxa_guard_release(ptr @_ZGVZN6Assimp19Discreet3DSImporter15ParseColorChunkEP9aiColor3DbE8clrError) #10
  br label %init.end

init.end:                                         ; preds = %invoke.cont, %init.check, %entry
  call void @_ZN6Assimp19Discreet3DSImporter9ReadChunkEPNS_4D3DS11Discreet3DS5ChunkE(ptr noundef nonnull align 8 dereferenceable(162) %this1, ptr noundef %chunk)
  %Size = getelementptr inbounds %"struct.Assimp::D3DS::Discreet3DS::Chunk", ptr %chunk, i32 0, i32 1
  %5 = load i32, ptr %Size, align 1
  %conv = zext i32 %5 to i64
  %sub = sub i64 %conv, 6
  %conv2 = trunc i64 %sub to i32
  store i32 %conv2, ptr %diff, align 4
  store i8 0, ptr %bGamma, align 1
  %Flag = getelementptr inbounds %"struct.Assimp::D3DS::Discreet3DS::Chunk", ptr %chunk, i32 0, i32 0
  %6 = load i16, ptr %Flag, align 1
  %conv3 = zext i16 %6 to i32
  switch i32 %conv3, label %sw.default [
    i32 19, label %sw.bb
    i32 16, label %sw.bb4
    i32 18, label %sw.bb12
    i32 17, label %sw.bb13
    i32 49, label %sw.bb33
    i32 48, label %sw.bb44
  ]

lpad:                                             ; preds = %init
  %7 = landingpad { ptr, i32 }
          cleanup
  %8 = extractvalue { ptr, i32 } %7, 0
  store ptr %8, ptr %exn.slot, align 8
  %9 = extractvalue { ptr, i32 } %7, 1
  store i32 %9, ptr %ehselector.slot, align 4
  call void @__cxa_guard_abort(ptr @_ZGVZN6Assimp19Discreet3DSImporter15ParseColorChunkEP9aiColor3DbE8clrError) #10
  br label %eh.resume

sw.bb:                                            ; preds = %init.end
  store i8 1, ptr %bGamma, align 1
  br label %sw.bb4

sw.bb4:                                           ; preds = %sw.bb, %init.end
  %10 = load i32, ptr %diff, align 4
  %conv5 = zext i32 %10 to i64
  %cmp = icmp ugt i64 12, %conv5
  br i1 %cmp, label %if.then, label %if.end

if.then:                                          ; preds = %sw.bb4
  %11 = load ptr, ptr %out.addr, align 8
  %call6 = call noundef nonnull align 4 dereferenceable(12) ptr @_ZN9aiColor3DaSERKS_(ptr noundef nonnull align 4 dereferenceable(12) %11, ptr noundef nonnull align 4 dereferenceable(12) @_ZZN6Assimp19Discreet3DSImporter15ParseColorChunkEP9aiColor3DbE8clrError)
  br label %sw.epilog

if.end:                                           ; preds = %sw.bb4
  %stream = getelementptr inbounds %"class.Assimp::Discreet3DSImporter", ptr %this1, i32 0, i32 1
  %12 = load ptr, ptr %stream, align 8
  %call7 = call noundef float @_ZN6Assimp12StreamReaderILb0ELb0EE5GetF4Ev(ptr noundef nonnull align 8 dereferenceable(49) %12)
  %13 = load ptr, ptr %out.addr, align 8
  %r = getelementptr inbounds %struct.aiColor3D, ptr %13, i32 0, i32 0
  store float %call7, ptr %r, align 4
  %stream8 = getelementptr inbounds %"class.Assimp::Discreet3DSImporter", ptr %this1, i32 0, i32 1
  %14 = load ptr, ptr %stream8, align 8
  %call9 = call noundef float @_ZN6Assimp12StreamReaderILb0ELb0EE5GetF4Ev(ptr noundef nonnull align 8 dereferenceable(49) %14)
  %15 = load ptr, ptr %out.addr, align 8
  %g = getelementptr inbounds %struct.aiColor3D, ptr %15, i32 0, i32 1
  store float %call9, ptr %g, align 4
  %stream10 = getelementptr inbounds %"class.Assimp::Discreet3DSImporter", ptr %this1, i32 0, i32 1
  %16 = load ptr, ptr %stream10, align 8
  %call11 = call noundef float @_ZN6Assimp12StreamReaderILb0ELb0EE5GetF4Ev(ptr noundef nonnull align 8 dereferenceable(49) %16)
  %17 = load ptr, ptr %out.addr, align 8
  %b = getelementptr inbounds %struct.aiColor3D, ptr %17, i32 0, i32 2
  store float %call11, ptr %b, align 4
  br label %sw.epilog

sw.bb12:                                          ; preds = %init.end
  store i8 1, ptr %bGamma, align 1
  br label %sw.bb13

sw.bb13:                                          ; preds = %sw.bb12, %init.end
  %18 = load i32, ptr %diff, align 4
  %conv14 = zext i32 %18 to i64
  %cmp15 = icmp ugt i64 3, %conv14
  br i1 %cmp15, label %if.then16, label %if.end18

if.then16:                                        ; preds = %sw.bb13
  %19 = load ptr, ptr %out.addr, align 8
  %call17 = call noundef nonnull align 4 dereferenceable(12) ptr @_ZN9aiColor3DaSERKS_(ptr noundef nonnull align 4 dereferenceable(12) %19, ptr noundef nonnull align 4 dereferenceable(12) @_ZZN6Assimp19Discreet3DSImporter15ParseColorChunkEP9aiColor3DbE8clrError)
  br label %sw.epilog

if.end18:                                         ; preds = %sw.bb13
  store float 0x3F70101020000000, ptr %invVal, align 4
  %stream19 = getelementptr inbounds %"class.Assimp::Discreet3DSImporter", ptr %this1, i32 0, i32 1
  %20 = load ptr, ptr %stream19, align 8
  %call20 = call noundef signext i8 @_ZN6Assimp12StreamReaderILb0ELb0EE5GetI1Ev(ptr noundef nonnull align 8 dereferenceable(49) %20)
  %conv21 = uitofp i8 %call20 to float
  %mul = fmul float %conv21, 0x3F70101020000000
  %21 = load ptr, ptr %out.addr, align 8
  %r22 = getelementptr inbounds %struct.aiColor3D, ptr %21, i32 0, i32 0
  store float %mul, ptr %r22, align 4
  %stream23 = getelementptr inbounds %"class.Assimp::Discreet3DSImporter", ptr %this1, i32 0, i32 1
  %22 = load ptr, ptr %stream23, align 8
  %call24 = call noundef signext i8 @_ZN6Assimp12StreamReaderILb0ELb0EE5GetI1Ev(ptr noundef nonnull align 8 dereferenceable(49) %22)
  %conv25 = uitofp i8 %call24 to float
  %mul26 = fmul float %conv25, 0x3F70101020000000
  %23 = load ptr, ptr %out.addr, align 8
  %g27 = getelementptr inbounds %struct.aiColor3D, ptr %23, i32 0, i32 1
  store float %mul26, ptr %g27, align 4
  %stream28 = getelementptr inbounds %"class.Assimp::Discreet3DSImporter", ptr %this1, i32 0, i32 1
  %24 = load ptr, ptr %stream28, align 8
  %call29 = call noundef signext i8 @_ZN6Assimp12StreamReaderILb0ELb0EE5GetI1Ev(ptr noundef nonnull align 8 dereferenceable(49) %24)
  %conv30 = uitofp i8 %call29 to float
  %mul31 = fmul float %conv30, 0x3F70101020000000
  %25 = load ptr, ptr %out.addr, align 8
  %b32 = getelementptr inbounds %struct.aiColor3D, ptr %25, i32 0, i32 2
  store float %mul31, ptr %b32, align 4
  br label %sw.epilog

sw.bb33:                                          ; preds = %init.end
  %26 = load i8, ptr %acceptPercent.addr, align 1
  %tobool34 = trunc i8 %26 to i1
  br i1 %tobool34, label %land.lhs.true, label %if.end42

land.lhs.true:                                    ; preds = %sw.bb33
  %27 = load i32, ptr %diff, align 4
  %cmp35 = icmp ule i32 4, %27
  br i1 %cmp35, label %if.then36, label %if.end42

if.then36:                                        ; preds = %land.lhs.true
  %stream37 = getelementptr inbounds %"class.Assimp::Discreet3DSImporter", ptr %this1, i32 0, i32 1
  %28 = load ptr, ptr %stream37, align 8
  %call38 = call noundef float @_ZN6Assimp12StreamReaderILb0ELb0EE5GetF4Ev(ptr noundef nonnull align 8 dereferenceable(49) %28)
  %29 = load ptr, ptr %out.addr, align 8
  %r39 = getelementptr inbounds %struct.aiColor3D, ptr %29, i32 0, i32 0
  store float %call38, ptr %r39, align 4
  %30 = load ptr, ptr %out.addr, align 8
  %b40 = getelementptr inbounds %struct.aiColor3D, ptr %30, i32 0, i32 2
  store float %call38, ptr %b40, align 4
  %31 = load ptr, ptr %out.addr, align 8
  %g41 = getelementptr inbounds %struct.aiColor3D, ptr %31, i32 0, i32 1
  store float %call38, ptr %g41, align 4
  br label %sw.epilog

if.end42:                                         ; preds = %land.lhs.true, %sw.bb33
  %32 = load ptr, ptr %out.addr, align 8
  %call43 = call noundef nonnull align 4 dereferenceable(12) ptr @_ZN9aiColor3DaSERKS_(ptr noundef nonnull align 4 dereferenceable(12) %32, ptr noundef nonnull align 4 dereferenceable(12) @_ZZN6Assimp19Discreet3DSImporter15ParseColorChunkEP9aiColor3DbE8clrError)
  br label %sw.epilog

sw.bb44:                                          ; preds = %init.end
  %33 = load i8, ptr %acceptPercent.addr, align 1
  %tobool45 = trunc i8 %33 to i1
  br i1 %tobool45, label %land.lhs.true46, label %if.end55

land.lhs.true46:                                  ; preds = %sw.bb44
  %34 = load i32, ptr %diff, align 4
  %cmp47 = icmp ule i32 1, %34
  br i1 %cmp47, label %if.then48, label %if.end55

if.then48:                                        ; preds = %land.lhs.true46
  %stream49 = getelementptr inbounds %"class.Assimp::Discreet3DSImporter", ptr %this1, i32 0, i32 1
  %35 = load ptr, ptr %stream49, align 8
  %call50 = call noundef signext i8 @_ZN6Assimp12StreamReaderILb0ELb0EE5GetI1Ev(ptr noundef nonnull align 8 dereferenceable(49) %35)
  %conv51 = uitofp i8 %call50 to float
  %div = fdiv float %conv51, 2.550000e+02
  %36 = load ptr, ptr %out.addr, align 8
  %r52 = getelementptr inbounds %struct.aiColor3D, ptr %36, i32 0, i32 0
  store float %div, ptr %r52, align 4
  %37 = load ptr, ptr %out.addr, align 8
  %b53 = getelementptr inbounds %struct.aiColor3D, ptr %37, i32 0, i32 2
  store float %div, ptr %b53, align 4
  %38 = load ptr, ptr %out.addr, align 8
  %g54 = getelementptr inbounds %struct.aiColor3D, ptr %38, i32 0, i32 1
  store float %div, ptr %g54, align 4
  br label %sw.epilog

if.end55:                                         ; preds = %land.lhs.true46, %sw.bb44
  %39 = load ptr, ptr %out.addr, align 8
  %call56 = call noundef nonnull align 4 dereferenceable(12) ptr @_ZN9aiColor3DaSERKS_(ptr noundef nonnull align 4 dereferenceable(12) %39, ptr noundef nonnull align 4 dereferenceable(12) @_ZZN6Assimp19Discreet3DSImporter15ParseColorChunkEP9aiColor3DbE8clrError)
  br label %sw.epilog

sw.default:                                       ; preds = %init.end
  %stream57 = getelementptr inbounds %"class.Assimp::Discreet3DSImporter", ptr %this1, i32 0, i32 1
  %40 = load ptr, ptr %stream57, align 8
  %41 = load i32, ptr %diff, align 4
  %conv58 = zext i32 %41 to i64
  call void @_ZN6Assimp12StreamReaderILb0ELb0EE6IncPtrEl(ptr noundef nonnull align 8 dereferenceable(49) %40, i64 noundef %conv58)
  %42 = load ptr, ptr %out.addr, align 8
  %43 = load i8, ptr %acceptPercent.addr, align 1
  %tobool59 = trunc i8 %43 to i1
  call void @_ZN6Assimp19Discreet3DSImporter15ParseColorChunkEP9aiColor3Db(ptr noundef nonnull align 8 dereferenceable(162) %this1, ptr noundef %42, i1 noundef zeroext %tobool59)
  br label %sw.epilog

sw.epilog:                                        ; preds = %sw.default, %if.end55, %if.then48, %if.end42, %if.then36, %if.end18, %if.then16, %if.end, %if.then
  ret void

eh.resume:                                        ; preds = %lpad
  %exn = load ptr, ptr %exn.slot, align 8
  %sel = load i32, ptr %ehselector.slot, align 4
  %lpad.val = insertvalue { ptr, i32 } poison, ptr %exn, 0
  %lpad.val60 = insertvalue { ptr, i32 } %lpad.val, i32 %sel, 1
  resume { ptr, i32 } %lpad.val60
}

; Function Attrs: mustprogress nounwind uwtable
define linkonce_odr hidden noundef zeroext i1 @_Z7is_qnanf(float noundef %in) #0 comdat {
entry:
  %in.addr = alloca float, align 4
  %temp = alloca %union._IEEESingle, align 4
  store float %in, ptr %in.addr, align 4
  call void @llvm.memcpy.p0.p0.i64(ptr align 4 %temp, ptr align 4 %in.addr, i64 4, i1 false)
  %bf.load = load i32, ptr %temp, align 4
  %bf.lshr = lshr i32 %bf.load, 23
  %bf.clear = and i32 %bf.lshr, 255
  %cmp = icmp eq i32 %bf.clear, 255
  br i1 %cmp, label %land.rhs, label %land.end

land.rhs:                                         ; preds = %entry
  %bf.load1 = load i32, ptr %temp, align 4
  %bf.clear2 = and i32 %bf.load1, 8388607
  %tobool = icmp ne i32 %bf.clear2, 0
  br label %land.end

land.end:                                         ; preds = %land.rhs, %entry
  %0 = phi i1 [ false, %entry ], [ %tobool, %land.rhs ]
  ret i1 %0
}

declare void @_ZNSt7__cxx1112basic_stringIcSt11char_traitsIcESaIcEEC1EPKcmRKS3_(ptr noundef nonnull align 8 dereferenceable(32), ptr noundef, i64 noundef, ptr noundef nonnull align 1 dereferenceable(1)) unnamed_addr #4

; Function Attrs: mustprogress uwtable
define linkonce_odr hidden noundef float @_ZN6Assimp12StreamReaderILb0ELb0EE5GetF4Ev(ptr noundef nonnull align 8 dereferenceable(49) %this) #3 comdat align 2 {
entry:
  %this.addr = alloca ptr, align 8
  store ptr %this, ptr %this.addr, align 8
  %this1 = load ptr, ptr %this.addr, align 8
  %call = call noundef float @_ZN6Assimp12StreamReaderILb0ELb0EE3GetIfEET_v(ptr noundef nonnull align 8 dereferenceable(49) %this1)
  ret float %call
}

; Function Attrs: mustprogress uwtable
define linkonce_odr hidden noundef nonnull align 8 dereferenceable(216) ptr @_ZNSt6vectorIN6Assimp4D3DS4MeshESaIS2_EE12emplace_backIJNSt7__cxx1112basic_stringIcSt11char_traitsIcESaIcEEEEEERS2_DpOT_(ptr noundef nonnull align 8 dereferenceable(24) %this, ptr noundef nonnull align 8 dereferenceable(32) %__args) #3 comdat align 2 {
entry:
  %this.addr = alloca ptr, align 8
  %__args.addr = alloca ptr, align 8
  %agg.tmp = alloca %"class.__gnu_cxx::__normal_iterator", align 8
  store ptr %this, ptr %this.addr, align 8
  store ptr %__args, ptr %__args.addr, align 8
  %this1 = load ptr, ptr %this.addr, align 8
  %_M_impl = getelementptr inbounds %"struct.std::_Vector_base.10", ptr %this1, i32 0, i32 0
  %_M_finish = getelementptr inbounds %"struct.std::_Vector_base<Assimp::D3DS::Mesh, std::allocator<Assimp::D3DS::Mesh>>::_Vector_impl_data", ptr %_M_impl, i32 0, i32 1
  %0 = load ptr, ptr %_M_finish, align 8
  %_M_impl2 = getelementptr inbounds %"struct.std::_Vector_base.10", ptr %this1, i32 0, i32 0
  %_M_end_of_storage = getelementptr inbounds %"struct.std::_Vector_base<Assimp::D3DS::Mesh, std::allocator<Assimp::D3DS::Mesh>>::_Vector_impl_data", ptr %_M_impl2, i32 0, i32 2
  %1 = load ptr, ptr %_M_end_of_storage, align 8
  %cmp = icmp ne ptr %0, %1
  br i1 %cmp, label %if.then, label %if.else

if.then:                                          ; preds = %entry
  %_M_impl3 = getelementptr inbounds %"struct.std::_Vector_base.10", ptr %this1, i32 0, i32 0
  %_M_impl4 = getelementptr inbounds %"struct.std::_Vector_base.10", ptr %this1, i32 0, i32 0
  %_M_finish5 = getelementptr inbounds %"struct.std::_Vector_base<Assimp::D3DS::Mesh, std::allocator<Assimp::D3DS::Mesh>>::_Vector_impl_data", ptr %_M_impl4, i32 0, i32 1
  %2 = load ptr, ptr %_M_finish5, align 8
  %3 = load ptr, ptr %__args.addr, align 8
  call void @_ZNSt16allocator_traitsISaIN6Assimp4D3DS4MeshEEE9constructIS2_JNSt7__cxx1112basic_stringIcSt11char_traitsIcESaIcEEEEEEvRS3_PT_DpOT0_(ptr noundef nonnull align 1 dereferenceable(1) %_M_impl3, ptr noundef %2, ptr noundef nonnull align 8 dereferenceable(32) %3)
  %_M_impl6 = getelementptr inbounds %"struct.std::_Vector_base.10", ptr %this1, i32 0, i32 0
  %_M_finish7 = getelementptr inbounds %"struct.std::_Vector_base<Assimp::D3DS::Mesh, std::allocator<Assimp::D3DS::Mesh>>::_Vector_impl_data", ptr %_M_impl6, i32 0, i32 1
  %4 = load ptr, ptr %_M_finish7, align 8
  %incdec.ptr = getelementptr inbounds %"struct.Assimp::D3DS::Mesh", ptr %4, i32 1
  store ptr %incdec.ptr, ptr %_M_finish7, align 8
  br label %if.end

if.else:                                          ; preds = %entry
  %call = call ptr @_ZNSt6vectorIN6Assimp4D3DS4MeshESaIS2_EE3endEv(ptr noundef nonnull align 8 dereferenceable(24) %this1) #10
  %coerce.dive = getelementptr inbounds %"class.__gnu_cxx::__normal_iterator", ptr %agg.tmp, i32 0, i32 0
  store ptr %call, ptr %coerce.dive, align 8
  %5 = load ptr, ptr %__args.addr, align 8
  %coerce.dive8 = getelementptr inbounds %"class.__gnu_cxx::__normal_iterator", ptr %agg.tmp, i32 0, i32 0
  %6 = load ptr, ptr %coerce.dive8, align 8
  call void @_ZNSt6vectorIN6Assimp4D3DS4MeshESaIS2_EE17_M_realloc_insertIJNSt7__cxx1112basic_stringIcSt11char_traitsIcESaIcEEEEEEvN9__gnu_cxx17__normal_iteratorIPS2_S4_EEDpOT_(ptr noundef nonnull align 8 dereferenceable(24) %this1, ptr %6, ptr noundef nonnull align 8 dereferenceable(32) %5)
  br label %if.end

if.end:                                           ; preds = %if.else, %if.then
  %call9 = call noundef nonnull align 8 dereferenceable(216) ptr @_ZNSt6vectorIN6Assimp4D3DS4MeshESaIS2_EE4backEv(ptr noundef nonnull align 8 dereferenceable(24) %this1) #10
  ret ptr %call9
}

; Function Attrs: mustprogress uwtable
define hidden void @_ZN6Assimp19Discreet3DSImporter14ParseMeshChunkEv(ptr noundef nonnull align 8 dereferenceable(162) %this) #3 align 2 {
entry:
  %this.addr = alloca ptr, align 8
  %chunk = alloca %"struct.Assimp::D3DS::Discreet3DS::Chunk", align 1
  %chunkSize = alloca i32, align 4
  %oldReadLimit = alloca i32, align 4
  %mMesh = alloca ptr, align 8
  %num = alloca i32, align 4
  %v = alloca %class.aiVector3t, align 4
  %num63 = alloca i32, align 4
  %v72 = alloca %class.aiVector3t, align 4
  %num82 = alloca i32, align 4
  %sFace = alloca ptr, align 8
  %ref.tmp = alloca i32, align 4
  store ptr %this, ptr %this.addr, align 8
  %this1 = load ptr, ptr %this.addr, align 8
  br label %while.body

while.body:                                       ; preds = %if.end125, %if.then4, %entry
  %stream = getelementptr inbounds %"class.Assimp::Discreet3DSImporter", ptr %this1, i32 0, i32 1
  %0 = load ptr, ptr %stream, align 8
  %call = call noundef i64 @_ZNK6Assimp12StreamReaderILb0ELb0EE23GetRemainingSizeToLimitEv(ptr noundef nonnull align 8 dereferenceable(49) %0)
  %cmp = icmp ult i64 %call, 6
  br i1 %cmp, label %if.then, label %if.end

if.then:                                          ; preds = %while.body
  br label %return

if.end:                                           ; preds = %while.body
  call void @_ZN6Assimp19Discreet3DSImporter9ReadChunkEPNS_4D3DS11Discreet3DS5ChunkE(ptr noundef nonnull align 8 dereferenceable(162) %this1, ptr noundef %chunk)
  %Size = getelementptr inbounds %"struct.Assimp::D3DS::Discreet3DS::Chunk", ptr %chunk, i32 0, i32 1
  %1 = load i32, ptr %Size, align 1
  %conv = zext i32 %1 to i64
  %sub = sub i64 %conv, 6
  %conv2 = trunc i64 %sub to i32
  store i32 %conv2, ptr %chunkSize, align 4
  %2 = load i32, ptr %chunkSize, align 4
  %cmp3 = icmp sle i32 %2, 0
  br i1 %cmp3, label %if.then4, label %if.end5

if.then4:                                         ; preds = %if.end
  br label %while.body, !llvm.loop !25

if.end5:                                          ; preds = %if.end
  %stream6 = getelementptr inbounds %"class.Assimp::Discreet3DSImporter", ptr %this1, i32 0, i32 1
  %3 = load ptr, ptr %stream6, align 8
  %stream7 = getelementptr inbounds %"class.Assimp::Discreet3DSImporter", ptr %this1, i32 0, i32 1
  %4 = load ptr, ptr %stream7, align 8
  %call8 = call noundef i32 @_ZNK6Assimp12StreamReaderILb0ELb0EE13GetCurrentPosEv(ptr noundef nonnull align 8 dereferenceable(49) %4)
  %5 = load i32, ptr %chunkSize, align 4
  %add = add nsw i32 %call8, %5
  %call9 = call noundef i32 @_ZN6Assimp12StreamReaderILb0ELb0EE12SetReadLimitEj(ptr noundef nonnull align 8 dereferenceable(49) %3, i32 noundef %add)
  store i32 %call9, ptr %oldReadLimit, align 4
  %mScene = getelementptr inbounds %"class.Assimp::Discreet3DSImporter", ptr %this1, i32 0, i32 6
  %6 = load ptr, ptr %mScene, align 8
  %mMeshes = getelementptr inbounds %"struct.Assimp::D3DS::Scene", ptr %6, i32 0, i32 1
  %call10 = call noundef nonnull align 8 dereferenceable(216) ptr @_ZNSt6vectorIN6Assimp4D3DS4MeshESaIS2_EE4backEv(ptr noundef nonnull align 8 dereferenceable(24) %mMeshes) #10
  store ptr %call10, ptr %mMesh, align 8
  %Flag = getelementptr inbounds %"struct.Assimp::D3DS::Discreet3DS::Chunk", ptr %chunk, i32 0, i32 0
  %7 = load i16, ptr %Flag, align 1
  %conv11 = zext i16 %7 to i32
  switch i32 %conv11, label %sw.epilog [
    i32 16656, label %sw.bb
    i32 16736, label %sw.bb26
    i32 16704, label %sw.bb62
    i32 16672, label %sw.bb81
  ]

sw.bb:                                            ; preds = %if.end5
  %stream12 = getelementptr inbounds %"class.Assimp::Discreet3DSImporter", ptr %this1, i32 0, i32 1
  %8 = load ptr, ptr %stream12, align 8
  %call13 = call noundef signext i16 @_ZN6Assimp12StreamReaderILb0ELb0EE5GetI2Ev(ptr noundef nonnull align 8 dereferenceable(49) %8)
  %conv14 = zext i16 %call13 to i32
  store i32 %conv14, ptr %num, align 4
  %9 = load ptr, ptr %mMesh, align 8
  %mPositions = getelementptr inbounds %struct.MeshWithSmoothingGroups, ptr %9, i32 0, i32 0
  %10 = load i32, ptr %num, align 4
  %conv15 = sext i32 %10 to i64
  call void @_ZNSt6vectorI10aiVector3tIfESaIS1_EE7reserveEm(ptr noundef nonnull align 8 dereferenceable(24) %mPositions, i64 noundef %conv15)
  br label %while.cond16

while.cond16:                                     ; preds = %while.body18, %sw.bb
  %11 = load i32, ptr %num, align 4
  %dec = add nsw i32 %11, -1
  store i32 %dec, ptr %num, align 4
  %cmp17 = icmp sgt i32 %11, 0
  br i1 %cmp17, label %while.body18, label %while.end

while.body18:                                     ; preds = %while.cond16
  call void @_ZN10aiVector3tIfEC2Ev(ptr noundef nonnull align 4 dereferenceable(12) %v) #10
  %stream19 = getelementptr inbounds %"class.Assimp::Discreet3DSImporter", ptr %this1, i32 0, i32 1
  %12 = load ptr, ptr %stream19, align 8
  %call20 = call noundef float @_ZN6Assimp12StreamReaderILb0ELb0EE5GetF4Ev(ptr noundef nonnull align 8 dereferenceable(49) %12)
  %x = getelementptr inbounds %class.aiVector3t, ptr %v, i32 0, i32 0
  store float %call20, ptr %x, align 4
  %stream21 = getelementptr inbounds %"class.Assimp::Discreet3DSImporter", ptr %this1, i32 0, i32 1
  %13 = load ptr, ptr %stream21, align 8
  %call22 = call noundef float @_ZN6Assimp12StreamReaderILb0ELb0EE5GetF4Ev(ptr noundef nonnull align 8 dereferenceable(49) %13)
  %y = getelementptr inbounds %class.aiVector3t, ptr %v, i32 0, i32 1
  store float %call22, ptr %y, align 4
  %stream23 = getelementptr inbounds %"class.Assimp::Discreet3DSImporter", ptr %this1, i32 0, i32 1
  %14 = load ptr, ptr %stream23, align 8
  %call24 = call noundef float @_ZN6Assimp12StreamReaderILb0ELb0EE5GetF4Ev(ptr noundef nonnull align 8 dereferenceable(49) %14)
  %z = getelementptr inbounds %class.aiVector3t, ptr %v, i32 0, i32 2
  store float %call24, ptr %z, align 4
  %15 = load ptr, ptr %mMesh, align 8
  %mPositions25 = getelementptr inbounds %struct.MeshWithSmoothingGroups, ptr %15, i32 0, i32 0
  call void @_ZNSt6vectorI10aiVector3tIfESaIS1_EE9push_backERKS1_(ptr noundef nonnull align 8 dereferenceable(24) %mPositions25, ptr noundef nonnull align 4 dereferenceable(12) %v)
  br label %while.cond16, !llvm.loop !26

while.end:                                        ; preds = %while.cond16
  br label %sw.epilog

sw.bb26:                                          ; preds = %if.end5
  %stream27 = getelementptr inbounds %"class.Assimp::Discreet3DSImporter", ptr %this1, i32 0, i32 1
  %16 = load ptr, ptr %stream27, align 8
  %call28 = call noundef float @_ZN6Assimp12StreamReaderILb0ELb0EE5GetF4Ev(ptr noundef nonnull align 8 dereferenceable(49) %16)
  %17 = load ptr, ptr %mMesh, align 8
  %mMat = getelementptr inbounds %"struct.Assimp::D3DS::Mesh", ptr %17, i32 0, i32 4
  %a1 = getelementptr inbounds %class.aiMatrix4x4t, ptr %mMat, i32 0, i32 0
  store float %call28, ptr %a1, align 8
  %stream29 = getelementptr inbounds %"class.Assimp::Discreet3DSImporter", ptr %this1, i32 0, i32 1
  %18 = load ptr, ptr %stream29, align 8
  %call30 = call noundef float @_ZN6Assimp12StreamReaderILb0ELb0EE5GetF4Ev(ptr noundef nonnull align 8 dereferenceable(49) %18)
  %19 = load ptr, ptr %mMesh, align 8
  %mMat31 = getelementptr inbounds %"struct.Assimp::D3DS::Mesh", ptr %19, i32 0, i32 4
  %b1 = getelementptr inbounds %class.aiMatrix4x4t, ptr %mMat31, i32 0, i32 4
  store float %call30, ptr %b1, align 8
  %stream32 = getelementptr inbounds %"class.Assimp::Discreet3DSImporter", ptr %this1, i32 0, i32 1
  %20 = load ptr, ptr %stream32, align 8
  %call33 = call noundef float @_ZN6Assimp12StreamReaderILb0ELb0EE5GetF4Ev(ptr noundef nonnull align 8 dereferenceable(49) %20)
  %21 = load ptr, ptr %mMesh, align 8
  %mMat34 = getelementptr inbounds %"struct.Assimp::D3DS::Mesh", ptr %21, i32 0, i32 4
  %c1 = getelementptr inbounds %class.aiMatrix4x4t, ptr %mMat34, i32 0, i32 8
  store float %call33, ptr %c1, align 8
  %stream35 = getelementptr inbounds %"class.Assimp::Discreet3DSImporter", ptr %this1, i32 0, i32 1
  %22 = load ptr, ptr %stream35, align 8
  %call36 = call noundef float @_ZN6Assimp12StreamReaderILb0ELb0EE5GetF4Ev(ptr noundef nonnull align 8 dereferenceable(49) %22)
  %23 = load ptr, ptr %mMesh, align 8
  %mMat37 = getelementptr inbounds %"struct.Assimp::D3DS::Mesh", ptr %23, i32 0, i32 4
  %a2 = getelementptr inbounds %class.aiMatrix4x4t, ptr %mMat37, i32 0, i32 1
  store float %call36, ptr %a2, align 4
  %stream38 = getelementptr inbounds %"class.Assimp::Discreet3DSImporter", ptr %this1, i32 0, i32 1
  %24 = load ptr, ptr %stream38, align 8
  %call39 = call noundef float @_ZN6Assimp12StreamReaderILb0ELb0EE5GetF4Ev(ptr noundef nonnull align 8 dereferenceable(49) %24)
  %25 = load ptr, ptr %mMesh, align 8
  %mMat40 = getelementptr inbounds %"struct.Assimp::D3DS::Mesh", ptr %25, i32 0, i32 4
  %b2 = getelementptr inbounds %class.aiMatrix4x4t, ptr %mMat40, i32 0, i32 5
  store float %call39, ptr %b2, align 4
  %stream41 = getelementptr inbounds %"class.Assimp::Discreet3DSImporter", ptr %this1, i32 0, i32 1
  %26 = load ptr, ptr %stream41, align 8
  %call42 = call noundef float @_ZN6Assimp12StreamReaderILb0ELb0EE5GetF4Ev(ptr noundef nonnull align 8 dereferenceable(49) %26)
  %27 = load ptr, ptr %mMesh, align 8
  %mMat43 = getelementptr inbounds %"struct.Assimp::D3DS::Mesh", ptr %27, i32 0, i32 4
  %c2 = getelementptr inbounds %class.aiMatrix4x4t, ptr %mMat43, i32 0, i32 9
  store float %call42, ptr %c2, align 4
  %stream44 = getelementptr inbounds %"class.Assimp::Discreet3DSImporter", ptr %this1, i32 0, i32 1
  %28 = load ptr, ptr %stream44, align 8
  %call45 = call noundef float @_ZN6Assimp12StreamReaderILb0ELb0EE5GetF4Ev(ptr noundef nonnull align 8 dereferenceable(49) %28)
  %29 = load ptr, ptr %mMesh, align 8
  %mMat46 = getelementptr inbounds %"struct.Assimp::D3DS::Mesh", ptr %29, i32 0, i32 4
  %a3 = getelementptr inbounds %class.aiMatrix4x4t, ptr %mMat46, i32 0, i32 2
  store float %call45, ptr %a3, align 8
  %stream47 = getelementptr inbounds %"class.Assimp::Discreet3DSImporter", ptr %this1, i32 0, i32 1
  %30 = load ptr, ptr %stream47, align 8
  %call48 = call noundef float @_ZN6Assimp12StreamReaderILb0ELb0EE5GetF4Ev(ptr noundef nonnull align 8 dereferenceable(49) %30)
  %31 = load ptr, ptr %mMesh, align 8
  %mMat49 = getelementptr inbounds %"struct.Assimp::D3DS::Mesh", ptr %31, i32 0, i32 4
  %b3 = getelementptr inbounds %class.aiMatrix4x4t, ptr %mMat49, i32 0, i32 6
  store float %call48, ptr %b3, align 8
  %stream50 = getelementptr inbounds %"class.Assimp::Discreet3DSImporter", ptr %this1, i32 0, i32 1
  %32 = load ptr, ptr %stream50, align 8
  %call51 = call noundef float @_ZN6Assimp12StreamReaderILb0ELb0EE5GetF4Ev(ptr noundef nonnull align 8 dereferenceable(49) %32)
  %33 = load ptr, ptr %mMesh, align 8
  %mMat52 = getelementptr inbounds %"struct.Assimp::D3DS::Mesh", ptr %33, i32 0, i32 4
  %c3 = getelementptr inbounds %class.aiMatrix4x4t, ptr %mMat52, i32 0, i32 10
  store float %call51, ptr %c3, align 8
  %stream53 = getelementptr inbounds %"class.Assimp::Discreet3DSImporter", ptr %this1, i32 0, i32 1
  %34 = load ptr, ptr %stream53, align 8
  %call54 = call noundef float @_ZN6Assimp12StreamReaderILb0ELb0EE5GetF4Ev(ptr noundef nonnull align 8 dereferenceable(49) %34)
  %35 = load ptr, ptr %mMesh, align 8
  %mMat55 = getelementptr inbounds %"struct.Assimp::D3DS::Mesh", ptr %35, i32 0, i32 4
  %a4 = getelementptr inbounds %class.aiMatrix4x4t, ptr %mMat55, i32 0, i32 3
  store float %call54, ptr %a4, align 4
  %stream56 = getelementptr inbounds %"class.Assimp::Discreet3DSImporter", ptr %this1, i32 0, i32 1
  %36 = load ptr, ptr %stream56, align 8
  %call57 = call noundef float @_ZN6Assimp12StreamReaderILb0ELb0EE5GetF4Ev(ptr noundef nonnull align 8 dereferenceable(49) %36)
  %37 = load ptr, ptr %mMesh, align 8
  %mMat58 = getelementptr inbounds %"struct.Assimp::D3DS::Mesh", ptr %37, i32 0, i32 4
  %b4 = getelementptr inbounds %class.aiMatrix4x4t, ptr %mMat58, i32 0, i32 7
  store float %call57, ptr %b4, align 4
  %stream59 = getelementptr inbounds %"class.Assimp::Discreet3DSImporter", ptr %this1, i32 0, i32 1
  %38 = load ptr, ptr %stream59, align 8
  %call60 = call noundef float @_ZN6Assimp12StreamReaderILb0ELb0EE5GetF4Ev(ptr noundef nonnull align 8 dereferenceable(49) %38)
  %39 = load ptr, ptr %mMesh, align 8
  %mMat61 = getelementptr inbounds %"struct.Assimp::D3DS::Mesh", ptr %39, i32 0, i32 4
  %c4 = getelementptr inbounds %class.aiMatrix4x4t, ptr %mMat61, i32 0, i32 11
  store float %call60, ptr %c4, align 4
  br label %sw.epilog

sw.bb62:                                          ; preds = %if.end5
  %stream64 = getelementptr inbounds %"class.Assimp::Discreet3DSImporter", ptr %this1, i32 0, i32 1
  %40 = load ptr, ptr %stream64, align 8
  %call65 = call noundef signext i16 @_ZN6Assimp12StreamReaderILb0ELb0EE5GetI2Ev(ptr noundef nonnull align 8 dereferenceable(49) %40)
  %conv66 = zext i16 %call65 to i32
  store i32 %conv66, ptr %num63, align 4
  %41 = load ptr, ptr %mMesh, align 8
  %mTexCoords = getelementptr inbounds %"struct.Assimp::D3DS::Mesh", ptr %41, i32 0, i32 2
  %42 = load i32, ptr %num63, align 4
  %conv67 = sext i32 %42 to i64
  call void @_ZNSt6vectorI10aiVector3tIfESaIS1_EE7reserveEm(ptr noundef nonnull align 8 dereferenceable(24) %mTexCoords, i64 noundef %conv67)
  br label %while.cond68

while.cond68:                                     ; preds = %while.body71, %sw.bb62
  %43 = load i32, ptr %num63, align 4
  %dec69 = add nsw i32 %43, -1
  store i32 %dec69, ptr %num63, align 4
  %cmp70 = icmp sgt i32 %43, 0
  br i1 %cmp70, label %while.body71, label %while.end80

while.body71:                                     ; preds = %while.cond68
  call void @_ZN10aiVector3tIfEC2Ev(ptr noundef nonnull align 4 dereferenceable(12) %v72) #10
  %stream73 = getelementptr inbounds %"class.Assimp::Discreet3DSImporter", ptr %this1, i32 0, i32 1
  %44 = load ptr, ptr %stream73, align 8
  %call74 = call noundef float @_ZN6Assimp12StreamReaderILb0ELb0EE5GetF4Ev(ptr noundef nonnull align 8 dereferenceable(49) %44)
  %x75 = getelementptr inbounds %class.aiVector3t, ptr %v72, i32 0, i32 0
  store float %call74, ptr %x75, align 4
  %stream76 = getelementptr inbounds %"class.Assimp::Discreet3DSImporter", ptr %this1, i32 0, i32 1
  %45 = load ptr, ptr %stream76, align 8
  %call77 = call noundef float @_ZN6Assimp12StreamReaderILb0ELb0EE5GetF4Ev(ptr noundef nonnull align 8 dereferenceable(49) %45)
  %y78 = getelementptr inbounds %class.aiVector3t, ptr %v72, i32 0, i32 1
  store float %call77, ptr %y78, align 4
  %46 = load ptr, ptr %mMesh, align 8
  %mTexCoords79 = getelementptr inbounds %"struct.Assimp::D3DS::Mesh", ptr %46, i32 0, i32 2
  call void @_ZNSt6vectorI10aiVector3tIfESaIS1_EE9push_backERKS1_(ptr noundef nonnull align 8 dereferenceable(24) %mTexCoords79, ptr noundef nonnull align 4 dereferenceable(12) %v72)
  br label %while.cond68, !llvm.loop !27

while.end80:                                      ; preds = %while.cond68
  br label %sw.epilog

sw.bb81:                                          ; preds = %if.end5
  %stream83 = getelementptr inbounds %"class.Assimp::Discreet3DSImporter", ptr %this1, i32 0, i32 1
  %47 = load ptr, ptr %stream83, align 8
  %call84 = call noundef signext i16 @_ZN6Assimp12StreamReaderILb0ELb0EE5GetI2Ev(ptr noundef nonnull align 8 dereferenceable(49) %47)
  %conv85 = zext i16 %call84 to i32
  store i32 %conv85, ptr %num82, align 4
  %48 = load ptr, ptr %mMesh, align 8
  %mFaces = getelementptr inbounds %struct.MeshWithSmoothingGroups, ptr %48, i32 0, i32 1
  %49 = load i32, ptr %num82, align 4
  %conv86 = sext i32 %49 to i64
  call void @_ZNSt6vectorIN6Assimp4D3DS4FaceESaIS2_EE7reserveEm(ptr noundef nonnull align 8 dereferenceable(24) %mFaces, i64 noundef %conv86)
  br label %while.cond87

while.cond87:                                     ; preds = %while.body90, %sw.bb81
  %50 = load i32, ptr %num82, align 4
  %dec88 = add nsw i32 %50, -1
  store i32 %dec88, ptr %num82, align 4
  %cmp89 = icmp sgt i32 %50, 0
  br i1 %cmp89, label %while.body90, label %while.end109

while.body90:                                     ; preds = %while.cond87
  %51 = load ptr, ptr %mMesh, align 8
  %mFaces91 = getelementptr inbounds %struct.MeshWithSmoothingGroups, ptr %51, i32 0, i32 1
  %call92 = call noundef nonnull align 4 dereferenceable(16) ptr @_ZNSt6vectorIN6Assimp4D3DS4FaceESaIS2_EE12emplace_backIJEEERS2_DpOT_(ptr noundef nonnull align 8 dereferenceable(24) %mFaces91)
  %52 = load ptr, ptr %mMesh, align 8
  %mFaces93 = getelementptr inbounds %struct.MeshWithSmoothingGroups, ptr %52, i32 0, i32 1
  %call94 = call noundef nonnull align 4 dereferenceable(16) ptr @_ZNSt6vectorIN6Assimp4D3DS4FaceESaIS2_EE4backEv(ptr noundef nonnull align 8 dereferenceable(24) %mFaces93) #10
  store ptr %call94, ptr %sFace, align 8
  %stream95 = getelementptr inbounds %"class.Assimp::Discreet3DSImporter", ptr %this1, i32 0, i32 1
  %53 = load ptr, ptr %stream95, align 8
  %call96 = call noundef signext i16 @_ZN6Assimp12StreamReaderILb0ELb0EE5GetI2Ev(ptr noundef nonnull align 8 dereferenceable(49) %53)
  %conv97 = zext i16 %call96 to i32
  %54 = load ptr, ptr %sFace, align 8
  %mIndices = getelementptr inbounds %struct.FaceWithSmoothingGroup, ptr %54, i32 0, i32 0
  %arrayidx = getelementptr inbounds [3 x i32], ptr %mIndices, i64 0, i64 0
  store i32 %conv97, ptr %arrayidx, align 4
  %stream98 = getelementptr inbounds %"class.Assimp::Discreet3DSImporter", ptr %this1, i32 0, i32 1
  %55 = load ptr, ptr %stream98, align 8
  %call99 = call noundef signext i16 @_ZN6Assimp12StreamReaderILb0ELb0EE5GetI2Ev(ptr noundef nonnull align 8 dereferenceable(49) %55)
  %conv100 = zext i16 %call99 to i32
  %56 = load ptr, ptr %sFace, align 8
  %mIndices101 = getelementptr inbounds %struct.FaceWithSmoothingGroup, ptr %56, i32 0, i32 0
  %arrayidx102 = getelementptr inbounds [3 x i32], ptr %mIndices101, i64 0, i64 1
  store i32 %conv100, ptr %arrayidx102, align 4
  %stream103 = getelementptr inbounds %"class.Assimp::Discreet3DSImporter", ptr %this1, i32 0, i32 1
  %57 = load ptr, ptr %stream103, align 8
  %call104 = call noundef signext i16 @_ZN6Assimp12StreamReaderILb0ELb0EE5GetI2Ev(ptr noundef nonnull align 8 dereferenceable(49) %57)
  %conv105 = zext i16 %call104 to i32
  %58 = load ptr, ptr %sFace, align 8
  %mIndices106 = getelementptr inbounds %struct.FaceWithSmoothingGroup, ptr %58, i32 0, i32 0
  %arrayidx107 = getelementptr inbounds [3 x i32], ptr %mIndices106, i64 0, i64 2
  store i32 %conv105, ptr %arrayidx107, align 4
  %stream108 = getelementptr inbounds %"class.Assimp::Discreet3DSImporter", ptr %this1, i32 0, i32 1
  %59 = load ptr, ptr %stream108, align 8
  call void @_ZN6Assimp12StreamReaderILb0ELb0EE6IncPtrEl(ptr noundef nonnull align 8 dereferenceable(49) %59, i64 noundef 2)
  br label %while.cond87, !llvm.loop !28

while.end109:                                     ; preds = %while.cond87
  %60 = load ptr, ptr %mMesh, align 8
  %mFaceMaterials = getelementptr inbounds %"struct.Assimp::D3DS::Mesh", ptr %60, i32 0, i32 3
  %61 = load ptr, ptr %mMesh, align 8
  %mFaces110 = getelementptr inbounds %struct.MeshWithSmoothingGroups, ptr %61, i32 0, i32 1
  %call111 = call noundef i64 @_ZNKSt6vectorIN6Assimp4D3DS4FaceESaIS2_EE4sizeEv(ptr noundef nonnull align 8 dereferenceable(24) %mFaces110) #10
  store i32 -842150451, ptr %ref.tmp, align 4
  call void @_ZNSt6vectorIjSaIjEE6resizeEmRKj(ptr noundef nonnull align 8 dereferenceable(24) %mFaceMaterials, i64 noundef %call111, ptr noundef nonnull align 4 dereferenceable(4) %ref.tmp)
  %stream112 = getelementptr inbounds %"class.Assimp::Discreet3DSImporter", ptr %this1, i32 0, i32 1
  %62 = load ptr, ptr %stream112, align 8
  %call113 = call noundef i64 @_ZNK6Assimp12StreamReaderILb0ELb0EE23GetRemainingSizeToLimitEv(ptr noundef nonnull align 8 dereferenceable(49) %62)
  %conv114 = trunc i64 %call113 to i32
  store i32 %conv114, ptr %chunkSize, align 4
  %63 = load i32, ptr %chunkSize, align 4
  %cmp115 = icmp sgt i32 %63, 6
  br i1 %cmp115, label %if.then116, label %if.end117

if.then116:                                       ; preds = %while.end109
  call void @_ZN6Assimp19Discreet3DSImporter14ParseFaceChunkEv(ptr noundef nonnull align 8 dereferenceable(162) %this1)
  br label %if.end117

if.end117:                                        ; preds = %if.then116, %while.end109
  br label %sw.epilog

sw.epilog:                                        ; preds = %if.end117, %while.end80, %sw.bb26, %while.end, %if.end5
  %stream118 = getelementptr inbounds %"class.Assimp::Discreet3DSImporter", ptr %this1, i32 0, i32 1
  %64 = load ptr, ptr %stream118, align 8
  call void @_ZN6Assimp12StreamReaderILb0ELb0EE15SkipToReadLimitEv(ptr noundef nonnull align 8 dereferenceable(49) %64)
  %stream119 = getelementptr inbounds %"class.Assimp::Discreet3DSImporter", ptr %this1, i32 0, i32 1
  %65 = load ptr, ptr %stream119, align 8
  %66 = load i32, ptr %oldReadLimit, align 4
  %call120 = call noundef i32 @_ZN6Assimp12StreamReaderILb0ELb0EE12SetReadLimitEj(ptr noundef nonnull align 8 dereferenceable(49) %65, i32 noundef %66)
  %stream121 = getelementptr inbounds %"class.Assimp::Discreet3DSImporter", ptr %this1, i32 0, i32 1
  %67 = load ptr, ptr %stream121, align 8
  %call122 = call noundef i64 @_ZNK6Assimp12StreamReaderILb0ELb0EE23GetRemainingSizeToLimitEv(ptr noundef nonnull align 8 dereferenceable(49) %67)
  %cmp123 = icmp eq i64 %call122, 0
  br i1 %cmp123, label %if.then124, label %if.end125

if.then124:                                       ; preds = %sw.epilog
  br label %return

if.end125:                                        ; preds = %sw.epilog
  br label %while.body, !llvm.loop !25

return:                                           ; preds = %if.then124, %if.then
  ret void
}

; Function Attrs: nobuiltin allocsize(0)
declare noundef nonnull ptr @_Znwm(i64 noundef) #6

; Function Attrs: mustprogress nounwind uwtable
define linkonce_odr hidden void @_ZN7aiLightC2Ev(ptr noundef nonnull align 4 dereferenceable(1132) %this) unnamed_addr #0 comdat align 2 personality ptr @__gxx_personality_v0 {
entry:
  %this.addr = alloca ptr, align 8
  store ptr %this, ptr %this.addr, align 8
  %this1 = load ptr, ptr %this.addr, align 8
  %mName = getelementptr inbounds %struct.aiLight, ptr %this1, i32 0, i32 0
  call void @_ZN8aiStringC2Ev(ptr noundef nonnull align 4 dereferenceable(1028) %mName) #10
  %mType = getelementptr inbounds %struct.aiLight, ptr %this1, i32 0, i32 1
  store i32 0, ptr %mType, align 4
  %mPosition = getelementptr inbounds %struct.aiLight, ptr %this1, i32 0, i32 2
  call void @_ZN10aiVector3tIfEC2Ev(ptr noundef nonnull align 4 dereferenceable(12) %mPosition) #10
  %mDirection = getelementptr inbounds %struct.aiLight, ptr %this1, i32 0, i32 3
  call void @_ZN10aiVector3tIfEC2Ev(ptr noundef nonnull align 4 dereferenceable(12) %mDirection) #10
  %mUp = getelementptr inbounds %struct.aiLight, ptr %this1, i32 0, i32 4
  call void @_ZN10aiVector3tIfEC2Ev(ptr noundef nonnull align 4 dereferenceable(12) %mUp) #10
  %mAttenuationConstant = getelementptr inbounds %struct.aiLight, ptr %this1, i32 0, i32 5
  store float 0.000000e+00, ptr %mAttenuationConstant, align 4
  %mAttenuationLinear = getelementptr inbounds %struct.aiLight, ptr %this1, i32 0, i32 6
  store float 1.000000e+00, ptr %mAttenuationLinear, align 4
  %mAttenuationQuadratic = getelementptr inbounds %struct.aiLight, ptr %this1, i32 0, i32 7
  store float 0.000000e+00, ptr %mAttenuationQuadratic, align 4
  %mColorDiffuse = getelementptr inbounds %struct.aiLight, ptr %this1, i32 0, i32 8
  call void @_ZN9aiColor3DC2Ev(ptr noundef nonnull align 4 dereferenceable(12) %mColorDiffuse) #10
  %mColorSpecular = getelementptr inbounds %struct.aiLight, ptr %this1, i32 0, i32 9
  call void @_ZN9aiColor3DC2Ev(ptr noundef nonnull align 4 dereferenceable(12) %mColorSpecular) #10
  %mColorAmbient = getelementptr inbounds %struct.aiLight, ptr %this1, i32 0, i32 10
  call void @_ZN9aiColor3DC2Ev(ptr noundef nonnull align 4 dereferenceable(12) %mColorAmbient) #10
  %mAngleInnerCone = getelementptr inbounds %struct.aiLight, ptr %this1, i32 0, i32 11
  store float 0x401921FB60000000, ptr %mAngleInnerCone, align 4
  %mAngleOuterCone = getelementptr inbounds %struct.aiLight, ptr %this1, i32 0, i32 12
  store float 0x401921FB60000000, ptr %mAngleOuterCone, align 4
  %mSize = getelementptr inbounds %struct.aiLight, ptr %this1, i32 0, i32 13
  invoke void @_ZN10aiVector2tIfEC2Eff(ptr noundef nonnull align 4 dereferenceable(8) %mSize, float noundef 0.000000e+00, float noundef 0.000000e+00)
          to label %invoke.cont unwind label %terminate.lpad

invoke.cont:                                      ; preds = %entry
  ret void

terminate.lpad:                                   ; preds = %entry
  %0 = landingpad { ptr, i32 }
          catch ptr null
  %1 = extractvalue { ptr, i32 } %0, 0
  call void @__clang_call_terminate(ptr %1) #17
  unreachable
}

; Function Attrs: mustprogress uwtable
define linkonce_odr hidden void @_ZNSt6vectorIP7aiLightSaIS1_EE9push_backERKS1_(ptr noundef nonnull align 8 dereferenceable(24) %this, ptr noundef nonnull align 8 dereferenceable(8) %__x) #3 comdat align 2 {
entry:
  %this.addr = alloca ptr, align 8
  %__x.addr = alloca ptr, align 8
  %agg.tmp = alloca %"class.__gnu_cxx::__normal_iterator.93", align 8
  store ptr %this, ptr %this.addr, align 8
  store ptr %__x, ptr %__x.addr, align 8
  %this1 = load ptr, ptr %this.addr, align 8
  %_M_impl = getelementptr inbounds %"struct.std::_Vector_base.20", ptr %this1, i32 0, i32 0
  %_M_finish = getelementptr inbounds %"struct.std::_Vector_base<aiLight *, std::allocator<aiLight *>>::_Vector_impl_data", ptr %_M_impl, i32 0, i32 1
  %0 = load ptr, ptr %_M_finish, align 8
  %_M_impl2 = getelementptr inbounds %"struct.std::_Vector_base.20", ptr %this1, i32 0, i32 0
  %_M_end_of_storage = getelementptr inbounds %"struct.std::_Vector_base<aiLight *, std::allocator<aiLight *>>::_Vector_impl_data", ptr %_M_impl2, i32 0, i32 2
  %1 = load ptr, ptr %_M_end_of_storage, align 8
  %cmp = icmp ne ptr %0, %1
  br i1 %cmp, label %if.then, label %if.else

if.then:                                          ; preds = %entry
  %_M_impl3 = getelementptr inbounds %"struct.std::_Vector_base.20", ptr %this1, i32 0, i32 0
  %_M_impl4 = getelementptr inbounds %"struct.std::_Vector_base.20", ptr %this1, i32 0, i32 0
  %_M_finish5 = getelementptr inbounds %"struct.std::_Vector_base<aiLight *, std::allocator<aiLight *>>::_Vector_impl_data", ptr %_M_impl4, i32 0, i32 1
  %2 = load ptr, ptr %_M_finish5, align 8
  %3 = load ptr, ptr %__x.addr, align 8
  call void @_ZNSt16allocator_traitsISaIP7aiLightEE9constructIS1_JRKS1_EEEvRS2_PT_DpOT0_(ptr noundef nonnull align 1 dereferenceable(1) %_M_impl3, ptr noundef %2, ptr noundef nonnull align 8 dereferenceable(8) %3) #10
  %_M_impl6 = getelementptr inbounds %"struct.std::_Vector_base.20", ptr %this1, i32 0, i32 0
  %_M_finish7 = getelementptr inbounds %"struct.std::_Vector_base<aiLight *, std::allocator<aiLight *>>::_Vector_impl_data", ptr %_M_impl6, i32 0, i32 1
  %4 = load ptr, ptr %_M_finish7, align 8
  %incdec.ptr = getelementptr inbounds ptr, ptr %4, i32 1
  store ptr %incdec.ptr, ptr %_M_finish7, align 8
  br label %if.end

if.else:                                          ; preds = %entry
  %call = call ptr @_ZNSt6vectorIP7aiLightSaIS1_EE3endEv(ptr noundef nonnull align 8 dereferenceable(24) %this1) #10
  %coerce.dive = getelementptr inbounds %"class.__gnu_cxx::__normal_iterator.93", ptr %agg.tmp, i32 0, i32 0
  store ptr %call, ptr %coerce.dive, align 8
  %5 = load ptr, ptr %__x.addr, align 8
  %coerce.dive8 = getelementptr inbounds %"class.__gnu_cxx::__normal_iterator.93", ptr %agg.tmp, i32 0, i32 0
  %6 = load ptr, ptr %coerce.dive8, align 8
  call void @_ZNSt6vectorIP7aiLightSaIS1_EE17_M_realloc_insertIJRKS1_EEEvN9__gnu_cxx17__normal_iteratorIPS1_S3_EEDpOT_(ptr noundef nonnull align 8 dereferenceable(24) %this1, ptr %6, ptr noundef nonnull align 8 dereferenceable(8) %5)
  br label %if.end

if.end:                                           ; preds = %if.else, %if.then
  ret void
}

; Function Attrs: mustprogress nounwind uwtable
define linkonce_odr hidden void @_ZN8aiString3SetERKNSt7__cxx1112basic_stringIcSt11char_traitsIcESaIcEEE(ptr noundef nonnull align 4 dereferenceable(1028) %this, ptr noundef nonnull align 8 dereferenceable(32) %pString) #0 comdat align 2 {
entry:
  %this.addr = alloca ptr, align 8
  %pString.addr = alloca ptr, align 8
  store ptr %this, ptr %this.addr, align 8
  store ptr %pString, ptr %pString.addr, align 8
  %this1 = load ptr, ptr %this.addr, align 8
  %0 = load ptr, ptr %pString.addr, align 8
  %call = call noundef i64 @_ZNKSt7__cxx1112basic_stringIcSt11char_traitsIcESaIcEE6lengthEv(ptr noundef nonnull align 8 dereferenceable(32) %0) #10
  %cmp = icmp ugt i64 %call, 1023
  br i1 %cmp, label %if.then, label %if.end

if.then:                                          ; preds = %entry
  br label %return

if.end:                                           ; preds = %entry
  %1 = load ptr, ptr %pString.addr, align 8
  %call2 = call noundef i64 @_ZNKSt7__cxx1112basic_stringIcSt11char_traitsIcESaIcEE6lengthEv(ptr noundef nonnull align 8 dereferenceable(32) %1) #10
  %conv = trunc i64 %call2 to i32
  %length = getelementptr inbounds %struct.aiString, ptr %this1, i32 0, i32 0
  store i32 %conv, ptr %length, align 4
  %data = getelementptr inbounds %struct.aiString, ptr %this1, i32 0, i32 1
  %arraydecay = getelementptr inbounds [1024 x i8], ptr %data, i64 0, i64 0
  %2 = load ptr, ptr %pString.addr, align 8
  %call3 = call noundef ptr @_ZNKSt7__cxx1112basic_stringIcSt11char_traitsIcESaIcEE5c_strEv(ptr noundef nonnull align 8 dereferenceable(32) %2) #10
  %length4 = getelementptr inbounds %struct.aiString, ptr %this1, i32 0, i32 0
  %3 = load i32, ptr %length4, align 4
  %conv5 = zext i32 %3 to i64
  call void @llvm.memcpy.p0.p0.i64(ptr align 4 %arraydecay, ptr align 1 %call3, i64 %conv5, i1 false)
  %data6 = getelementptr inbounds %struct.aiString, ptr %this1, i32 0, i32 1
  %length7 = getelementptr inbounds %struct.aiString, ptr %this1, i32 0, i32 0
  %4 = load i32, ptr %length7, align 4
  %idxprom = zext i32 %4 to i64
  %arrayidx = getelementptr inbounds [1024 x i8], ptr %data6, i64 0, i64 %idxprom
  store i8 0, ptr %arrayidx, align 1
  br label %return

return:                                           ; preds = %if.end, %if.then
  ret void
}

; Function Attrs: mustprogress nounwind uwtable
define linkonce_odr hidden void @_ZN9aiColor3DC2Efff(ptr noundef nonnull align 4 dereferenceable(12) %this, float noundef %_r, float noundef %_g, float noundef %_b) unnamed_addr #0 comdat align 2 {
entry:
  %this.addr = alloca ptr, align 8
  %_r.addr = alloca float, align 4
  %_g.addr = alloca float, align 4
  %_b.addr = alloca float, align 4
  store ptr %this, ptr %this.addr, align 8
  store float %_r, ptr %_r.addr, align 4
  store float %_g, ptr %_g.addr, align 4
  store float %_b, ptr %_b.addr, align 4
  %this1 = load ptr, ptr %this.addr, align 8
  %r = getelementptr inbounds %struct.aiColor3D, ptr %this1, i32 0, i32 0
  %0 = load float, ptr %_r.addr, align 4
  store float %0, ptr %r, align 4
  %g = getelementptr inbounds %struct.aiColor3D, ptr %this1, i32 0, i32 1
  %1 = load float, ptr %_g.addr, align 4
  store float %1, ptr %g, align 4
  %b = getelementptr inbounds %struct.aiColor3D, ptr %this1, i32 0, i32 2
  %2 = load float, ptr %_b.addr, align 4
  store float %2, ptr %b, align 4
  ret void
}

; Function Attrs: mustprogress nounwind uwtable
define linkonce_odr hidden noundef nonnull align 4 dereferenceable(12) ptr @_ZN9aiColor3DaSERKS_(ptr noundef nonnull align 4 dereferenceable(12) %this, ptr noundef nonnull align 4 dereferenceable(12) %o) #0 comdat align 2 {
entry:
  %this.addr = alloca ptr, align 8
  %o.addr = alloca ptr, align 8
  store ptr %this, ptr %this.addr, align 8
  store ptr %o, ptr %o.addr, align 8
  %this1 = load ptr, ptr %this.addr, align 8
  %0 = load ptr, ptr %o.addr, align 8
  %r = getelementptr inbounds %struct.aiColor3D, ptr %0, i32 0, i32 0
  %1 = load float, ptr %r, align 4
  %r2 = getelementptr inbounds %struct.aiColor3D, ptr %this1, i32 0, i32 0
  store float %1, ptr %r2, align 4
  %2 = load ptr, ptr %o.addr, align 8
  %g = getelementptr inbounds %struct.aiColor3D, ptr %2, i32 0, i32 1
  %3 = load float, ptr %g, align 4
  %g3 = getelementptr inbounds %struct.aiColor3D, ptr %this1, i32 0, i32 1
  store float %3, ptr %g3, align 4
  %4 = load ptr, ptr %o.addr, align 8
  %b = getelementptr inbounds %struct.aiColor3D, ptr %4, i32 0, i32 2
  %5 = load float, ptr %b, align 4
  %b4 = getelementptr inbounds %struct.aiColor3D, ptr %this1, i32 0, i32 2
  store float %5, ptr %b4, align 4
  ret ptr %this1
}

; Function Attrs: mustprogress uwtable
define hidden void @_ZN6Assimp19Discreet3DSImporter15ParseLightChunkEv(ptr noundef nonnull align 8 dereferenceable(162) %this) #3 align 2 {
entry:
  %this.addr = alloca ptr, align 8
  %chunk = alloca %"struct.Assimp::D3DS::Discreet3DS::Chunk", align 1
  %chunkSize = alloca i32, align 4
  %oldReadLimit = alloca i32, align 4
  %light = alloca ptr, align 8
  %ref.tmp = alloca %struct.aiColor3D, align 4
  store ptr %this, ptr %this.addr, align 8
  %this1 = load ptr, ptr %this.addr, align 8
  br label %while.body

while.body:                                       ; preds = %if.end64, %if.then4, %entry
  %stream = getelementptr inbounds %"class.Assimp::Discreet3DSImporter", ptr %this1, i32 0, i32 1
  %0 = load ptr, ptr %stream, align 8
  %call = call noundef i64 @_ZNK6Assimp12StreamReaderILb0ELb0EE23GetRemainingSizeToLimitEv(ptr noundef nonnull align 8 dereferenceable(49) %0)
  %cmp = icmp ult i64 %call, 6
  br i1 %cmp, label %if.then, label %if.end

if.then:                                          ; preds = %while.body
  br label %return

if.end:                                           ; preds = %while.body
  call void @_ZN6Assimp19Discreet3DSImporter9ReadChunkEPNS_4D3DS11Discreet3DS5ChunkE(ptr noundef nonnull align 8 dereferenceable(162) %this1, ptr noundef %chunk)
  %Size = getelementptr inbounds %"struct.Assimp::D3DS::Discreet3DS::Chunk", ptr %chunk, i32 0, i32 1
  %1 = load i32, ptr %Size, align 1
  %conv = zext i32 %1 to i64
  %sub = sub i64 %conv, 6
  %conv2 = trunc i64 %sub to i32
  store i32 %conv2, ptr %chunkSize, align 4
  %2 = load i32, ptr %chunkSize, align 4
  %cmp3 = icmp sle i32 %2, 0
  br i1 %cmp3, label %if.then4, label %if.end5

if.then4:                                         ; preds = %if.end
  br label %while.body, !llvm.loop !29

if.end5:                                          ; preds = %if.end
  %stream6 = getelementptr inbounds %"class.Assimp::Discreet3DSImporter", ptr %this1, i32 0, i32 1
  %3 = load ptr, ptr %stream6, align 8
  %stream7 = getelementptr inbounds %"class.Assimp::Discreet3DSImporter", ptr %this1, i32 0, i32 1
  %4 = load ptr, ptr %stream7, align 8
  %call8 = call noundef i32 @_ZNK6Assimp12StreamReaderILb0ELb0EE13GetCurrentPosEv(ptr noundef nonnull align 8 dereferenceable(49) %4)
  %5 = load i32, ptr %chunkSize, align 4
  %add = add nsw i32 %call8, %5
  %call9 = call noundef i32 @_ZN6Assimp12StreamReaderILb0ELb0EE12SetReadLimitEj(ptr noundef nonnull align 8 dereferenceable(49) %3, i32 noundef %add)
  store i32 %call9, ptr %oldReadLimit, align 4
  %mScene = getelementptr inbounds %"class.Assimp::Discreet3DSImporter", ptr %this1, i32 0, i32 6
  %6 = load ptr, ptr %mScene, align 8
  %mLights = getelementptr inbounds %"struct.Assimp::D3DS::Scene", ptr %6, i32 0, i32 3
  %call10 = call noundef nonnull align 8 dereferenceable(8) ptr @_ZNSt6vectorIP7aiLightSaIS1_EE4backEv(ptr noundef nonnull align 8 dereferenceable(24) %mLights) #10
  %7 = load ptr, ptr %call10, align 8
  store ptr %7, ptr %light, align 8
  %Flag = getelementptr inbounds %"struct.Assimp::D3DS::Discreet3DS::Chunk", ptr %chunk, i32 0, i32 0
  %8 = load i16, ptr %Flag, align 1
  %conv11 = zext i16 %8 to i32
  switch i32 %conv11, label %sw.epilog [
    i32 17936, label %sw.bb
    i32 18011, label %sw.bb36
    i32 16, label %sw.bb41
    i32 19, label %sw.bb41
    i32 17957, label %sw.bb54
  ]

sw.bb:                                            ; preds = %if.end5
  %9 = load ptr, ptr %light, align 8
  %mType = getelementptr inbounds %struct.aiLight, ptr %9, i32 0, i32 1
  store i32 3, ptr %mType, align 4
  %stream12 = getelementptr inbounds %"class.Assimp::Discreet3DSImporter", ptr %this1, i32 0, i32 1
  %10 = load ptr, ptr %stream12, align 8
  %call13 = call noundef float @_ZN6Assimp12StreamReaderILb0ELb0EE5GetF4Ev(ptr noundef nonnull align 8 dereferenceable(49) %10)
  %11 = load ptr, ptr %light, align 8
  %mPosition = getelementptr inbounds %struct.aiLight, ptr %11, i32 0, i32 2
  %x = getelementptr inbounds %class.aiVector3t, ptr %mPosition, i32 0, i32 0
  %12 = load float, ptr %x, align 4
  %sub14 = fsub float %call13, %12
  %13 = load ptr, ptr %light, align 8
  %mDirection = getelementptr inbounds %struct.aiLight, ptr %13, i32 0, i32 3
  %x15 = getelementptr inbounds %class.aiVector3t, ptr %mDirection, i32 0, i32 0
  store float %sub14, ptr %x15, align 4
  %stream16 = getelementptr inbounds %"class.Assimp::Discreet3DSImporter", ptr %this1, i32 0, i32 1
  %14 = load ptr, ptr %stream16, align 8
  %call17 = call noundef float @_ZN6Assimp12StreamReaderILb0ELb0EE5GetF4Ev(ptr noundef nonnull align 8 dereferenceable(49) %14)
  %15 = load ptr, ptr %light, align 8
  %mPosition18 = getelementptr inbounds %struct.aiLight, ptr %15, i32 0, i32 2
  %y = getelementptr inbounds %class.aiVector3t, ptr %mPosition18, i32 0, i32 1
  %16 = load float, ptr %y, align 4
  %sub19 = fsub float %call17, %16
  %17 = load ptr, ptr %light, align 8
  %mDirection20 = getelementptr inbounds %struct.aiLight, ptr %17, i32 0, i32 3
  %y21 = getelementptr inbounds %class.aiVector3t, ptr %mDirection20, i32 0, i32 1
  store float %sub19, ptr %y21, align 4
  %stream22 = getelementptr inbounds %"class.Assimp::Discreet3DSImporter", ptr %this1, i32 0, i32 1
  %18 = load ptr, ptr %stream22, align 8
  %call23 = call noundef float @_ZN6Assimp12StreamReaderILb0ELb0EE5GetF4Ev(ptr noundef nonnull align 8 dereferenceable(49) %18)
  %19 = load ptr, ptr %light, align 8
  %mPosition24 = getelementptr inbounds %struct.aiLight, ptr %19, i32 0, i32 2
  %z = getelementptr inbounds %class.aiVector3t, ptr %mPosition24, i32 0, i32 2
  %20 = load float, ptr %z, align 4
  %sub25 = fsub float %call23, %20
  %21 = load ptr, ptr %light, align 8
  %mDirection26 = getelementptr inbounds %struct.aiLight, ptr %21, i32 0, i32 3
  %z27 = getelementptr inbounds %class.aiVector3t, ptr %mDirection26, i32 0, i32 2
  store float %sub25, ptr %z27, align 4
  %22 = load ptr, ptr %light, align 8
  %mDirection28 = getelementptr inbounds %struct.aiLight, ptr %22, i32 0, i32 3
  %call29 = call noundef nonnull align 4 dereferenceable(12) ptr @_ZN10aiVector3tIfE9NormalizeEv(ptr noundef nonnull align 4 dereferenceable(12) %mDirection28)
  %stream30 = getelementptr inbounds %"class.Assimp::Discreet3DSImporter", ptr %this1, i32 0, i32 1
  %23 = load ptr, ptr %stream30, align 8
  %call31 = call noundef float @_ZN6Assimp12StreamReaderILb0ELb0EE5GetF4Ev(ptr noundef nonnull align 8 dereferenceable(49) %23)
  %mul = fmul float %call31, 0x3F91DF46A0000000
  %24 = load ptr, ptr %light, align 8
  %mAngleInnerCone = getelementptr inbounds %struct.aiLight, ptr %24, i32 0, i32 11
  store float %mul, ptr %mAngleInnerCone, align 4
  %25 = load ptr, ptr %light, align 8
  %mAngleInnerCone32 = getelementptr inbounds %struct.aiLight, ptr %25, i32 0, i32 11
  %26 = load float, ptr %mAngleInnerCone32, align 4
  %stream33 = getelementptr inbounds %"class.Assimp::Discreet3DSImporter", ptr %this1, i32 0, i32 1
  %27 = load ptr, ptr %stream33, align 8
  %call34 = call noundef float @_ZN6Assimp12StreamReaderILb0ELb0EE5GetF4Ev(ptr noundef nonnull align 8 dereferenceable(49) %27)
  %28 = call float @llvm.fmuladd.f32(float %call34, float 0x3F91DF46A0000000, float %26)
  %29 = load ptr, ptr %light, align 8
  %mAngleOuterCone = getelementptr inbounds %struct.aiLight, ptr %29, i32 0, i32 12
  store float %28, ptr %mAngleOuterCone, align 4
  br label %sw.epilog

sw.bb36:                                          ; preds = %if.end5
  %30 = load ptr, ptr %light, align 8
  %mColorDiffuse = getelementptr inbounds %struct.aiLight, ptr %30, i32 0, i32 8
  %stream37 = getelementptr inbounds %"class.Assimp::Discreet3DSImporter", ptr %this1, i32 0, i32 1
  %31 = load ptr, ptr %stream37, align 8
  %call38 = call noundef float @_ZN6Assimp12StreamReaderILb0ELb0EE5GetF4Ev(ptr noundef nonnull align 8 dereferenceable(49) %31)
  call void @_ZNK9aiColor3DmlEf(ptr sret(%struct.aiColor3D) align 4 %ref.tmp, ptr noundef nonnull align 4 dereferenceable(12) %mColorDiffuse, float noundef %call38)
  %32 = load ptr, ptr %light, align 8
  %mColorDiffuse39 = getelementptr inbounds %struct.aiLight, ptr %32, i32 0, i32 8
  %call40 = call noundef nonnull align 4 dereferenceable(12) ptr @_ZN9aiColor3DaSERKS_(ptr noundef nonnull align 4 dereferenceable(12) %mColorDiffuse39, ptr noundef nonnull align 4 dereferenceable(12) %ref.tmp)
  br label %sw.epilog

sw.bb41:                                          ; preds = %if.end5, %if.end5
  %stream42 = getelementptr inbounds %"class.Assimp::Discreet3DSImporter", ptr %this1, i32 0, i32 1
  %33 = load ptr, ptr %stream42, align 8
  %call43 = call noundef float @_ZN6Assimp12StreamReaderILb0ELb0EE5GetF4Ev(ptr noundef nonnull align 8 dereferenceable(49) %33)
  %34 = load ptr, ptr %light, align 8
  %mColorDiffuse44 = getelementptr inbounds %struct.aiLight, ptr %34, i32 0, i32 8
  %r = getelementptr inbounds %struct.aiColor3D, ptr %mColorDiffuse44, i32 0, i32 0
  %35 = load float, ptr %r, align 4
  %mul45 = fmul float %35, %call43
  store float %mul45, ptr %r, align 4
  %stream46 = getelementptr inbounds %"class.Assimp::Discreet3DSImporter", ptr %this1, i32 0, i32 1
  %36 = load ptr, ptr %stream46, align 8
  %call47 = call noundef float @_ZN6Assimp12StreamReaderILb0ELb0EE5GetF4Ev(ptr noundef nonnull align 8 dereferenceable(49) %36)
  %37 = load ptr, ptr %light, align 8
  %mColorDiffuse48 = getelementptr inbounds %struct.aiLight, ptr %37, i32 0, i32 8
  %g = getelementptr inbounds %struct.aiColor3D, ptr %mColorDiffuse48, i32 0, i32 1
  %38 = load float, ptr %g, align 4
  %mul49 = fmul float %38, %call47
  store float %mul49, ptr %g, align 4
  %stream50 = getelementptr inbounds %"class.Assimp::Discreet3DSImporter", ptr %this1, i32 0, i32 1
  %39 = load ptr, ptr %stream50, align 8
  %call51 = call noundef float @_ZN6Assimp12StreamReaderILb0ELb0EE5GetF4Ev(ptr noundef nonnull align 8 dereferenceable(49) %39)
  %40 = load ptr, ptr %light, align 8
  %mColorDiffuse52 = getelementptr inbounds %struct.aiLight, ptr %40, i32 0, i32 8
  %b = getelementptr inbounds %struct.aiColor3D, ptr %mColorDiffuse52, i32 0, i32 2
  %41 = load float, ptr %b, align 4
  %mul53 = fmul float %41, %call51
  store float %mul53, ptr %b, align 4
  br label %sw.epilog

sw.bb54:                                          ; preds = %if.end5
  %stream55 = getelementptr inbounds %"class.Assimp::Discreet3DSImporter", ptr %this1, i32 0, i32 1
  %42 = load ptr, ptr %stream55, align 8
  %call56 = call noundef float @_ZN6Assimp12StreamReaderILb0ELb0EE5GetF4Ev(ptr noundef nonnull align 8 dereferenceable(49) %42)
  %43 = load ptr, ptr %light, align 8
  %mAttenuationLinear = getelementptr inbounds %struct.aiLight, ptr %43, i32 0, i32 6
  store float %call56, ptr %mAttenuationLinear, align 4
  br label %sw.epilog

sw.epilog:                                        ; preds = %sw.bb54, %sw.bb41, %sw.bb36, %sw.bb, %if.end5
  %stream57 = getelementptr inbounds %"class.Assimp::Discreet3DSImporter", ptr %this1, i32 0, i32 1
  %44 = load ptr, ptr %stream57, align 8
  call void @_ZN6Assimp12StreamReaderILb0ELb0EE15SkipToReadLimitEv(ptr noundef nonnull align 8 dereferenceable(49) %44)
  %stream58 = getelementptr inbounds %"class.Assimp::Discreet3DSImporter", ptr %this1, i32 0, i32 1
  %45 = load ptr, ptr %stream58, align 8
  %46 = load i32, ptr %oldReadLimit, align 4
  %call59 = call noundef i32 @_ZN6Assimp12StreamReaderILb0ELb0EE12SetReadLimitEj(ptr noundef nonnull align 8 dereferenceable(49) %45, i32 noundef %46)
  %stream60 = getelementptr inbounds %"class.Assimp::Discreet3DSImporter", ptr %this1, i32 0, i32 1
  %47 = load ptr, ptr %stream60, align 8
  %call61 = call noundef i64 @_ZNK6Assimp12StreamReaderILb0ELb0EE23GetRemainingSizeToLimitEv(ptr noundef nonnull align 8 dereferenceable(49) %47)
  %cmp62 = icmp eq i64 %call61, 0
  br i1 %cmp62, label %if.then63, label %if.end64

if.then63:                                        ; preds = %sw.epilog
  br label %return

if.end64:                                         ; preds = %sw.epilog
  br label %while.body, !llvm.loop !29

return:                                           ; preds = %if.then63, %if.then
  ret void
}

; Function Attrs: mustprogress nounwind uwtable
define linkonce_odr hidden void @_ZN8aiCameraC2Ev(ptr noundef nonnull align 4 dereferenceable(1084) %this) unnamed_addr #0 comdat align 2 personality ptr @__gxx_personality_v0 {
entry:
  %this.addr = alloca ptr, align 8
  store ptr %this, ptr %this.addr, align 8
  %this1 = load ptr, ptr %this.addr, align 8
  %mName = getelementptr inbounds %struct.aiCamera, ptr %this1, i32 0, i32 0
  call void @_ZN8aiStringC2Ev(ptr noundef nonnull align 4 dereferenceable(1028) %mName) #10
  %mPosition = getelementptr inbounds %struct.aiCamera, ptr %this1, i32 0, i32 1
  call void @_ZN10aiVector3tIfEC2Ev(ptr noundef nonnull align 4 dereferenceable(12) %mPosition) #10
  %mUp = getelementptr inbounds %struct.aiCamera, ptr %this1, i32 0, i32 2
  invoke void @_ZN10aiVector3tIfEC2Efff(ptr noundef nonnull align 4 dereferenceable(12) %mUp, float noundef 0.000000e+00, float noundef 1.000000e+00, float noundef 0.000000e+00)
          to label %invoke.cont unwind label %terminate.lpad

invoke.cont:                                      ; preds = %entry
  %mLookAt = getelementptr inbounds %struct.aiCamera, ptr %this1, i32 0, i32 3
  invoke void @_ZN10aiVector3tIfEC2Efff(ptr noundef nonnull align 4 dereferenceable(12) %mLookAt, float noundef 0.000000e+00, float noundef 0.000000e+00, float noundef 1.000000e+00)
          to label %invoke.cont2 unwind label %terminate.lpad

invoke.cont2:                                     ; preds = %invoke.cont
  %mHorizontalFOV = getelementptr inbounds %struct.aiCamera, ptr %this1, i32 0, i32 4
  store float 0x3FE921FB60000000, ptr %mHorizontalFOV, align 4
  %mClipPlaneNear = getelementptr inbounds %struct.aiCamera, ptr %this1, i32 0, i32 5
  store float 0x3FB99999A0000000, ptr %mClipPlaneNear, align 4
  %mClipPlaneFar = getelementptr inbounds %struct.aiCamera, ptr %this1, i32 0, i32 6
  store float 1.000000e+03, ptr %mClipPlaneFar, align 4
  %mAspect = getelementptr inbounds %struct.aiCamera, ptr %this1, i32 0, i32 7
  store float 0.000000e+00, ptr %mAspect, align 4
  %mOrthographicWidth = getelementptr inbounds %struct.aiCamera, ptr %this1, i32 0, i32 8
  store float 0.000000e+00, ptr %mOrthographicWidth, align 4
  ret void

terminate.lpad:                                   ; preds = %invoke.cont, %entry
  %0 = landingpad { ptr, i32 }
          catch ptr null
  %1 = extractvalue { ptr, i32 } %0, 0
  call void @__clang_call_terminate(ptr %1) #17
  unreachable
}

; Function Attrs: mustprogress uwtable
define linkonce_odr hidden void @_ZNSt6vectorIP8aiCameraSaIS1_EE9push_backERKS1_(ptr noundef nonnull align 8 dereferenceable(24) %this, ptr noundef nonnull align 8 dereferenceable(8) %__x) #3 comdat align 2 {
entry:
  %this.addr = alloca ptr, align 8
  %__x.addr = alloca ptr, align 8
  %agg.tmp = alloca %"class.__gnu_cxx::__normal_iterator.94", align 8
  store ptr %this, ptr %this.addr, align 8
  store ptr %__x, ptr %__x.addr, align 8
  %this1 = load ptr, ptr %this.addr, align 8
  %_M_impl = getelementptr inbounds %"struct.std::_Vector_base.15", ptr %this1, i32 0, i32 0
  %_M_finish = getelementptr inbounds %"struct.std::_Vector_base<aiCamera *, std::allocator<aiCamera *>>::_Vector_impl_data", ptr %_M_impl, i32 0, i32 1
  %0 = load ptr, ptr %_M_finish, align 8
  %_M_impl2 = getelementptr inbounds %"struct.std::_Vector_base.15", ptr %this1, i32 0, i32 0
  %_M_end_of_storage = getelementptr inbounds %"struct.std::_Vector_base<aiCamera *, std::allocator<aiCamera *>>::_Vector_impl_data", ptr %_M_impl2, i32 0, i32 2
  %1 = load ptr, ptr %_M_end_of_storage, align 8
  %cmp = icmp ne ptr %0, %1
  br i1 %cmp, label %if.then, label %if.else

if.then:                                          ; preds = %entry
  %_M_impl3 = getelementptr inbounds %"struct.std::_Vector_base.15", ptr %this1, i32 0, i32 0
  %_M_impl4 = getelementptr inbounds %"struct.std::_Vector_base.15", ptr %this1, i32 0, i32 0
  %_M_finish5 = getelementptr inbounds %"struct.std::_Vector_base<aiCamera *, std::allocator<aiCamera *>>::_Vector_impl_data", ptr %_M_impl4, i32 0, i32 1
  %2 = load ptr, ptr %_M_finish5, align 8
  %3 = load ptr, ptr %__x.addr, align 8
  call void @_ZNSt16allocator_traitsISaIP8aiCameraEE9constructIS1_JRKS1_EEEvRS2_PT_DpOT0_(ptr noundef nonnull align 1 dereferenceable(1) %_M_impl3, ptr noundef %2, ptr noundef nonnull align 8 dereferenceable(8) %3) #10
  %_M_impl6 = getelementptr inbounds %"struct.std::_Vector_base.15", ptr %this1, i32 0, i32 0
  %_M_finish7 = getelementptr inbounds %"struct.std::_Vector_base<aiCamera *, std::allocator<aiCamera *>>::_Vector_impl_data", ptr %_M_impl6, i32 0, i32 1
  %4 = load ptr, ptr %_M_finish7, align 8
  %incdec.ptr = getelementptr inbounds ptr, ptr %4, i32 1
  store ptr %incdec.ptr, ptr %_M_finish7, align 8
  br label %if.end

if.else:                                          ; preds = %entry
  %call = call ptr @_ZNSt6vectorIP8aiCameraSaIS1_EE3endEv(ptr noundef nonnull align 8 dereferenceable(24) %this1) #10
  %coerce.dive = getelementptr inbounds %"class.__gnu_cxx::__normal_iterator.94", ptr %agg.tmp, i32 0, i32 0
  store ptr %call, ptr %coerce.dive, align 8
  %5 = load ptr, ptr %__x.addr, align 8
  %coerce.dive8 = getelementptr inbounds %"class.__gnu_cxx::__normal_iterator.94", ptr %agg.tmp, i32 0, i32 0
  %6 = load ptr, ptr %coerce.dive8, align 8
  call void @_ZNSt6vectorIP8aiCameraSaIS1_EE17_M_realloc_insertIJRKS1_EEEvN9__gnu_cxx17__normal_iteratorIPS1_S3_EEDpOT_(ptr noundef nonnull align 8 dereferenceable(24) %this1, ptr %6, ptr noundef nonnull align 8 dereferenceable(8) %5)
  br label %if.end

if.end:                                           ; preds = %if.else, %if.then
  ret void
}

; Function Attrs: mustprogress uwtable
define linkonce_odr hidden noundef float @_ZNK10aiVector3tIfE6LengthEv(ptr noundef nonnull align 4 dereferenceable(12) %this) #3 comdat align 2 {
entry:
  %this.addr = alloca ptr, align 8
  store ptr %this, ptr %this.addr, align 8
  %this1 = load ptr, ptr %this.addr, align 8
  %call = call noundef float @_ZNK10aiVector3tIfE12SquareLengthEv(ptr noundef nonnull align 4 dereferenceable(12) %this1)
  %call2 = call noundef float @_ZSt4sqrtf(float noundef %call)
  ret float %call2
}

; Function Attrs: mustprogress nounwind uwtable
define linkonce_odr hidden void @_ZN10aiVector3tIfEC2Efff(ptr noundef nonnull align 4 dereferenceable(12) %this, float noundef %_x, float noundef %_y, float noundef %_z) unnamed_addr #0 comdat align 2 {
entry:
  %this.addr = alloca ptr, align 8
  %_x.addr = alloca float, align 4
  %_y.addr = alloca float, align 4
  %_z.addr = alloca float, align 4
  store ptr %this, ptr %this.addr, align 8
  store float %_x, ptr %_x.addr, align 4
  store float %_y, ptr %_y.addr, align 4
  store float %_z, ptr %_z.addr, align 4
  %this1 = load ptr, ptr %this.addr, align 8
  %x = getelementptr inbounds %class.aiVector3t, ptr %this1, i32 0, i32 0
  %0 = load float, ptr %_x.addr, align 4
  store float %0, ptr %x, align 4
  %y = getelementptr inbounds %class.aiVector3t, ptr %this1, i32 0, i32 1
  %1 = load float, ptr %_y.addr, align 4
  store float %1, ptr %y, align 4
  %z = getelementptr inbounds %class.aiVector3t, ptr %this1, i32 0, i32 2
  %2 = load float, ptr %_z.addr, align 4
  store float %2, ptr %z, align 4
  ret void
}

; Function Attrs: nocallback nofree nounwind willreturn memory(argmem: readwrite)
declare void @llvm.memcpy.p0.p0.i64(ptr noalias nocapture writeonly, ptr noalias nocapture readonly, i64, i1 immarg) #7

; Function Attrs: mustprogress nounwind uwtable
define linkonce_odr hidden noundef nonnull align 4 dereferenceable(12) ptr @_ZN10aiVector3tIfEdVEf(ptr noundef nonnull align 4 dereferenceable(12) %this, float noundef %f) #0 comdat align 2 {
entry:
  %retval = alloca ptr, align 8
  %this.addr = alloca ptr, align 8
  %f.addr = alloca float, align 4
  %invF = alloca float, align 4
  store ptr %this, ptr %this.addr, align 8
  store float %f, ptr %f.addr, align 4
  %this1 = load ptr, ptr %this.addr, align 8
  %0 = load float, ptr %f.addr, align 4
  %cmp = fcmp oeq float %0, 0.000000e+00
  br i1 %cmp, label %if.then, label %if.end

if.then:                                          ; preds = %entry
  store ptr %this1, ptr %retval, align 8
  br label %return

if.end:                                           ; preds = %entry
  %1 = load float, ptr %f.addr, align 4
  %div = fdiv float 1.000000e+00, %1
  store float %div, ptr %invF, align 4
  %2 = load float, ptr %invF, align 4
  %x = getelementptr inbounds %class.aiVector3t, ptr %this1, i32 0, i32 0
  %3 = load float, ptr %x, align 4
  %mul = fmul float %3, %2
  store float %mul, ptr %x, align 4
  %4 = load float, ptr %invF, align 4
  %y = getelementptr inbounds %class.aiVector3t, ptr %this1, i32 0, i32 1
  %5 = load float, ptr %y, align 4
  %mul2 = fmul float %5, %4
  store float %mul2, ptr %y, align 4
  %6 = load float, ptr %invF, align 4
  %z = getelementptr inbounds %class.aiVector3t, ptr %this1, i32 0, i32 2
  %7 = load float, ptr %z, align 4
  %mul3 = fmul float %7, %6
  store float %mul3, ptr %z, align 4
  store ptr %this1, ptr %retval, align 8
  br label %return

return:                                           ; preds = %if.end, %if.then
  %8 = load ptr, ptr %retval, align 8
  ret ptr %8
}

; Function Attrs: mustprogress uwtable
define linkonce_odr hidden void @_ZN13aiQuaterniontIfEC2E10aiVector3tIfEf(ptr noundef nonnull align 4 dereferenceable(16) %this, <2 x float> %axis.coerce0, float %axis.coerce1, float noundef %angle) unnamed_addr #5 comdat align 2 {
entry:
  %axis = alloca %class.aiVector3t, align 4
  %coerce = alloca { <2 x float>, float }, align 4
  %this.addr = alloca ptr, align 8
  %angle.addr = alloca float, align 4
  %sin_a = alloca float, align 4
  %cos_a = alloca float, align 4
  %0 = getelementptr inbounds { <2 x float>, float }, ptr %coerce, i32 0, i32 0
  store <2 x float> %axis.coerce0, ptr %0, align 4
  %1 = getelementptr inbounds { <2 x float>, float }, ptr %coerce, i32 0, i32 1
  store float %axis.coerce1, ptr %1, align 4
  call void @llvm.memcpy.p0.p0.i64(ptr align 4 %axis, ptr align 4 %coerce, i64 12, i1 false)
  store ptr %this, ptr %this.addr, align 8
  store float %angle, ptr %angle.addr, align 4
  %this1 = load ptr, ptr %this.addr, align 8
  %call = call noundef nonnull align 4 dereferenceable(12) ptr @_ZN10aiVector3tIfE9NormalizeEv(ptr noundef nonnull align 4 dereferenceable(12) %axis)
  %2 = load float, ptr %angle.addr, align 4
  %div = fdiv float %2, 2.000000e+00
  %call2 = call noundef float @_ZSt3sinf(float noundef %div)
  store float %call2, ptr %sin_a, align 4
  %3 = load float, ptr %angle.addr, align 4
  %div3 = fdiv float %3, 2.000000e+00
  %call4 = call noundef float @_ZSt3cosf(float noundef %div3)
  store float %call4, ptr %cos_a, align 4
  %x = getelementptr inbounds %class.aiVector3t, ptr %axis, i32 0, i32 0
  %4 = load float, ptr %x, align 4
  %5 = load float, ptr %sin_a, align 4
  %mul = fmul float %4, %5
  %x5 = getelementptr inbounds %class.aiQuaterniont, ptr %this1, i32 0, i32 1
  store float %mul, ptr %x5, align 4
  %y = getelementptr inbounds %class.aiVector3t, ptr %axis, i32 0, i32 1
  %6 = load float, ptr %y, align 4
  %7 = load float, ptr %sin_a, align 4
  %mul6 = fmul float %6, %7
  %y7 = getelementptr inbounds %class.aiQuaterniont, ptr %this1, i32 0, i32 2
  store float %mul6, ptr %y7, align 4
  %z = getelementptr inbounds %class.aiVector3t, ptr %axis, i32 0, i32 2
  %8 = load float, ptr %z, align 4
  %9 = load float, ptr %sin_a, align 4
  %mul8 = fmul float %8, %9
  %z9 = getelementptr inbounds %class.aiQuaterniont, ptr %this1, i32 0, i32 3
  store float %mul8, ptr %z9, align 4
  %10 = load float, ptr %cos_a, align 4
  %w = getelementptr inbounds %class.aiQuaterniont, ptr %this1, i32 0, i32 0
  store float %10, ptr %w, align 4
  ret void
}

; Function Attrs: mustprogress nounwind uwtable
define linkonce_odr hidden { <2 x float>, float } @_ZmlIfE10aiVector3tIT_ERK12aiMatrix3x3tIS1_ERKS2_(ptr noundef nonnull align 4 dereferenceable(36) %pMatrix, ptr noundef nonnull align 4 dereferenceable(12) %pVector) #0 comdat {
entry:
  %retval = alloca %class.aiVector3t, align 4
  %pMatrix.addr = alloca ptr, align 8
  %pVector.addr = alloca ptr, align 8
  %retval.coerce = alloca { <2 x float>, float }, align 8
  store ptr %pMatrix, ptr %pMatrix.addr, align 8
  store ptr %pVector, ptr %pVector.addr, align 8
  call void @_ZN10aiVector3tIfEC2Ev(ptr noundef nonnull align 4 dereferenceable(12) %retval) #10
  %0 = load ptr, ptr %pMatrix.addr, align 8
  %a1 = getelementptr inbounds %class.aiMatrix3x3t, ptr %0, i32 0, i32 0
  %1 = load float, ptr %a1, align 4
  %2 = load ptr, ptr %pVector.addr, align 8
  %x = getelementptr inbounds %class.aiVector3t, ptr %2, i32 0, i32 0
  %3 = load float, ptr %x, align 4
  %4 = load ptr, ptr %pMatrix.addr, align 8
  %a2 = getelementptr inbounds %class.aiMatrix3x3t, ptr %4, i32 0, i32 1
  %5 = load float, ptr %a2, align 4
  %6 = load ptr, ptr %pVector.addr, align 8
  %y = getelementptr inbounds %class.aiVector3t, ptr %6, i32 0, i32 1
  %7 = load float, ptr %y, align 4
  %mul1 = fmul float %5, %7
  %8 = call float @llvm.fmuladd.f32(float %1, float %3, float %mul1)
  %9 = load ptr, ptr %pMatrix.addr, align 8
  %a3 = getelementptr inbounds %class.aiMatrix3x3t, ptr %9, i32 0, i32 2
  %10 = load float, ptr %a3, align 4
  %11 = load ptr, ptr %pVector.addr, align 8
  %z = getelementptr inbounds %class.aiVector3t, ptr %11, i32 0, i32 2
  %12 = load float, ptr %z, align 4
  %13 = call float @llvm.fmuladd.f32(float %10, float %12, float %8)
  %x2 = getelementptr inbounds %class.aiVector3t, ptr %retval, i32 0, i32 0
  store float %13, ptr %x2, align 4
  %14 = load ptr, ptr %pMatrix.addr, align 8
  %b1 = getelementptr inbounds %class.aiMatrix3x3t, ptr %14, i32 0, i32 3
  %15 = load float, ptr %b1, align 4
  %16 = load ptr, ptr %pVector.addr, align 8
  %x3 = getelementptr inbounds %class.aiVector3t, ptr %16, i32 0, i32 0
  %17 = load float, ptr %x3, align 4
  %18 = load ptr, ptr %pMatrix.addr, align 8
  %b2 = getelementptr inbounds %class.aiMatrix3x3t, ptr %18, i32 0, i32 4
  %19 = load float, ptr %b2, align 4
  %20 = load ptr, ptr %pVector.addr, align 8
  %y4 = getelementptr inbounds %class.aiVector3t, ptr %20, i32 0, i32 1
  %21 = load float, ptr %y4, align 4
  %mul5 = fmul float %19, %21
  %22 = call float @llvm.fmuladd.f32(float %15, float %17, float %mul5)
  %23 = load ptr, ptr %pMatrix.addr, align 8
  %b3 = getelementptr inbounds %class.aiMatrix3x3t, ptr %23, i32 0, i32 5
  %24 = load float, ptr %b3, align 4
  %25 = load ptr, ptr %pVector.addr, align 8
  %z6 = getelementptr inbounds %class.aiVector3t, ptr %25, i32 0, i32 2
  %26 = load float, ptr %z6, align 4
  %27 = call float @llvm.fmuladd.f32(float %24, float %26, float %22)
  %y7 = getelementptr inbounds %class.aiVector3t, ptr %retval, i32 0, i32 1
  store float %27, ptr %y7, align 4
  %28 = load ptr, ptr %pMatrix.addr, align 8
  %c1 = getelementptr inbounds %class.aiMatrix3x3t, ptr %28, i32 0, i32 6
  %29 = load float, ptr %c1, align 4
  %30 = load ptr, ptr %pVector.addr, align 8
  %x8 = getelementptr inbounds %class.aiVector3t, ptr %30, i32 0, i32 0
  %31 = load float, ptr %x8, align 4
  %32 = load ptr, ptr %pMatrix.addr, align 8
  %c2 = getelementptr inbounds %class.aiMatrix3x3t, ptr %32, i32 0, i32 7
  %33 = load float, ptr %c2, align 4
  %34 = load ptr, ptr %pVector.addr, align 8
  %y9 = getelementptr inbounds %class.aiVector3t, ptr %34, i32 0, i32 1
  %35 = load float, ptr %y9, align 4
  %mul10 = fmul float %33, %35
  %36 = call float @llvm.fmuladd.f32(float %29, float %31, float %mul10)
  %37 = load ptr, ptr %pMatrix.addr, align 8
  %c3 = getelementptr inbounds %class.aiMatrix3x3t, ptr %37, i32 0, i32 8
  %38 = load float, ptr %c3, align 4
  %39 = load ptr, ptr %pVector.addr, align 8
  %z11 = getelementptr inbounds %class.aiVector3t, ptr %39, i32 0, i32 2
  %40 = load float, ptr %z11, align 4
  %41 = call float @llvm.fmuladd.f32(float %38, float %40, float %36)
  %z12 = getelementptr inbounds %class.aiVector3t, ptr %retval, i32 0, i32 2
  store float %41, ptr %z12, align 4
  call void @llvm.memcpy.p0.p0.i64(ptr align 8 %retval.coerce, ptr align 4 %retval, i64 12, i1 false)
  %42 = load { <2 x float>, float }, ptr %retval.coerce, align 8
  ret { <2 x float>, float } %42
}

; Function Attrs: mustprogress nounwind uwtable
define linkonce_odr hidden void @_ZNK13aiQuaterniontIfE9GetMatrixEv(ptr noalias sret(%class.aiMatrix3x3t) align 4 %agg.result, ptr noundef nonnull align 4 dereferenceable(16) %this) #0 comdat align 2 {
entry:
  %this.addr = alloca ptr, align 8
  store ptr %this, ptr %this.addr, align 8
  %this1 = load ptr, ptr %this.addr, align 8
  call void @_ZN12aiMatrix3x3tIfEC2Ev(ptr noundef nonnull align 4 dereferenceable(36) %agg.result) #10
  %y = getelementptr inbounds %class.aiQuaterniont, ptr %this1, i32 0, i32 2
  %0 = load float, ptr %y, align 4
  %y2 = getelementptr inbounds %class.aiQuaterniont, ptr %this1, i32 0, i32 2
  %1 = load float, ptr %y2, align 4
  %z = getelementptr inbounds %class.aiQuaterniont, ptr %this1, i32 0, i32 3
  %2 = load float, ptr %z, align 4
  %z3 = getelementptr inbounds %class.aiQuaterniont, ptr %this1, i32 0, i32 3
  %3 = load float, ptr %z3, align 4
  %mul4 = fmul float %2, %3
  %4 = call float @llvm.fmuladd.f32(float %0, float %1, float %mul4)
  %5 = call float @llvm.fmuladd.f32(float -2.000000e+00, float %4, float 1.000000e+00)
  %a1 = getelementptr inbounds %class.aiMatrix3x3t, ptr %agg.result, i32 0, i32 0
  store float %5, ptr %a1, align 4
  %x = getelementptr inbounds %class.aiQuaterniont, ptr %this1, i32 0, i32 1
  %6 = load float, ptr %x, align 4
  %y5 = getelementptr inbounds %class.aiQuaterniont, ptr %this1, i32 0, i32 2
  %7 = load float, ptr %y5, align 4
  %z6 = getelementptr inbounds %class.aiQuaterniont, ptr %this1, i32 0, i32 3
  %8 = load float, ptr %z6, align 4
  %w = getelementptr inbounds %class.aiQuaterniont, ptr %this1, i32 0, i32 0
  %9 = load float, ptr %w, align 4
  %mul7 = fmul float %8, %9
  %neg = fneg float %mul7
  %10 = call float @llvm.fmuladd.f32(float %6, float %7, float %neg)
  %mul = fmul float 2.000000e+00, %10
  %a2 = getelementptr inbounds %class.aiMatrix3x3t, ptr %agg.result, i32 0, i32 1
  store float %mul, ptr %a2, align 4
  %x8 = getelementptr inbounds %class.aiQuaterniont, ptr %this1, i32 0, i32 1
  %11 = load float, ptr %x8, align 4
  %z9 = getelementptr inbounds %class.aiQuaterniont, ptr %this1, i32 0, i32 3
  %12 = load float, ptr %z9, align 4
  %y11 = getelementptr inbounds %class.aiQuaterniont, ptr %this1, i32 0, i32 2
  %13 = load float, ptr %y11, align 4
  %w12 = getelementptr inbounds %class.aiQuaterniont, ptr %this1, i32 0, i32 0
  %14 = load float, ptr %w12, align 4
  %mul13 = fmul float %13, %14
  %15 = call float @llvm.fmuladd.f32(float %11, float %12, float %mul13)
  %mul14 = fmul float 2.000000e+00, %15
  %a3 = getelementptr inbounds %class.aiMatrix3x3t, ptr %agg.result, i32 0, i32 2
  store float %mul14, ptr %a3, align 4
  %x15 = getelementptr inbounds %class.aiQuaterniont, ptr %this1, i32 0, i32 1
  %16 = load float, ptr %x15, align 4
  %y16 = getelementptr inbounds %class.aiQuaterniont, ptr %this1, i32 0, i32 2
  %17 = load float, ptr %y16, align 4
  %z18 = getelementptr inbounds %class.aiQuaterniont, ptr %this1, i32 0, i32 3
  %18 = load float, ptr %z18, align 4
  %w19 = getelementptr inbounds %class.aiQuaterniont, ptr %this1, i32 0, i32 0
  %19 = load float, ptr %w19, align 4
  %mul20 = fmul float %18, %19
  %20 = call float @llvm.fmuladd.f32(float %16, float %17, float %mul20)
  %mul21 = fmul float 2.000000e+00, %20
  %b1 = getelementptr inbounds %class.aiMatrix3x3t, ptr %agg.result, i32 0, i32 3
  store float %mul21, ptr %b1, align 4
  %x22 = getelementptr inbounds %class.aiQuaterniont, ptr %this1, i32 0, i32 1
  %21 = load float, ptr %x22, align 4
  %x23 = getelementptr inbounds %class.aiQuaterniont, ptr %this1, i32 0, i32 1
  %22 = load float, ptr %x23, align 4
  %z25 = getelementptr inbounds %class.aiQuaterniont, ptr %this1, i32 0, i32 3
  %23 = load float, ptr %z25, align 4
  %z26 = getelementptr inbounds %class.aiQuaterniont, ptr %this1, i32 0, i32 3
  %24 = load float, ptr %z26, align 4
  %mul27 = fmul float %23, %24
  %25 = call float @llvm.fmuladd.f32(float %21, float %22, float %mul27)
  %26 = call float @llvm.fmuladd.f32(float -2.000000e+00, float %25, float 1.000000e+00)
  %b2 = getelementptr inbounds %class.aiMatrix3x3t, ptr %agg.result, i32 0, i32 4
  store float %26, ptr %b2, align 4
  %y29 = getelementptr inbounds %class.aiQuaterniont, ptr %this1, i32 0, i32 2
  %27 = load float, ptr %y29, align 4
  %z30 = getelementptr inbounds %class.aiQuaterniont, ptr %this1, i32 0, i32 3
  %28 = load float, ptr %z30, align 4
  %x32 = getelementptr inbounds %class.aiQuaterniont, ptr %this1, i32 0, i32 1
  %29 = load float, ptr %x32, align 4
  %w33 = getelementptr inbounds %class.aiQuaterniont, ptr %this1, i32 0, i32 0
  %30 = load float, ptr %w33, align 4
  %mul34 = fmul float %29, %30
  %neg35 = fneg float %mul34
  %31 = call float @llvm.fmuladd.f32(float %27, float %28, float %neg35)
  %mul36 = fmul float 2.000000e+00, %31
  %b3 = getelementptr inbounds %class.aiMatrix3x3t, ptr %agg.result, i32 0, i32 5
  store float %mul36, ptr %b3, align 4
  %x37 = getelementptr inbounds %class.aiQuaterniont, ptr %this1, i32 0, i32 1
  %32 = load float, ptr %x37, align 4
  %z38 = getelementptr inbounds %class.aiQuaterniont, ptr %this1, i32 0, i32 3
  %33 = load float, ptr %z38, align 4
  %y40 = getelementptr inbounds %class.aiQuaterniont, ptr %this1, i32 0, i32 2
  %34 = load float, ptr %y40, align 4
  %w41 = getelementptr inbounds %class.aiQuaterniont, ptr %this1, i32 0, i32 0
  %35 = load float, ptr %w41, align 4
  %mul42 = fmul float %34, %35
  %neg43 = fneg float %mul42
  %36 = call float @llvm.fmuladd.f32(float %32, float %33, float %neg43)
  %mul44 = fmul float 2.000000e+00, %36
  %c1 = getelementptr inbounds %class.aiMatrix3x3t, ptr %agg.result, i32 0, i32 6
  store float %mul44, ptr %c1, align 4
  %y45 = getelementptr inbounds %class.aiQuaterniont, ptr %this1, i32 0, i32 2
  %37 = load float, ptr %y45, align 4
  %z46 = getelementptr inbounds %class.aiQuaterniont, ptr %this1, i32 0, i32 3
  %38 = load float, ptr %z46, align 4
  %x48 = getelementptr inbounds %class.aiQuaterniont, ptr %this1, i32 0, i32 1
  %39 = load float, ptr %x48, align 4
  %w49 = getelementptr inbounds %class.aiQuaterniont, ptr %this1, i32 0, i32 0
  %40 = load float, ptr %w49, align 4
  %mul50 = fmul float %39, %40
  %41 = call float @llvm.fmuladd.f32(float %37, float %38, float %mul50)
  %mul51 = fmul float 2.000000e+00, %41
  %c2 = getelementptr inbounds %class.aiMatrix3x3t, ptr %agg.result, i32 0, i32 7
  store float %mul51, ptr %c2, align 4
  %x52 = getelementptr inbounds %class.aiQuaterniont, ptr %this1, i32 0, i32 1
  %42 = load float, ptr %x52, align 4
  %x53 = getelementptr inbounds %class.aiQuaterniont, ptr %this1, i32 0, i32 1
  %43 = load float, ptr %x53, align 4
  %y55 = getelementptr inbounds %class.aiQuaterniont, ptr %this1, i32 0, i32 2
  %44 = load float, ptr %y55, align 4
  %y56 = getelementptr inbounds %class.aiQuaterniont, ptr %this1, i32 0, i32 2
  %45 = load float, ptr %y56, align 4
  %mul57 = fmul float %44, %45
  %46 = call float @llvm.fmuladd.f32(float %42, float %43, float %mul57)
  %47 = call float @llvm.fmuladd.f32(float -2.000000e+00, float %46, float 1.000000e+00)
  %c3 = getelementptr inbounds %class.aiMatrix3x3t, ptr %agg.result, i32 0, i32 8
  store float %47, ptr %c3, align 4
  ret void
}

; Function Attrs: mustprogress uwtable
define hidden void @_ZN6Assimp19Discreet3DSImporter16ParseCameraChunkEv(ptr noundef nonnull align 8 dereferenceable(162) %this) #3 align 2 {
entry:
  %this.addr = alloca ptr, align 8
  %chunk = alloca %"struct.Assimp::D3DS::Discreet3DS::Chunk", align 1
  %chunkSize = alloca i32, align 4
  %oldReadLimit = alloca i32, align 4
  %camera = alloca ptr, align 8
  store ptr %this, ptr %this.addr, align 8
  %this1 = load ptr, ptr %this.addr, align 8
  br label %while.body

while.body:                                       ; preds = %if.end23, %if.then4, %entry
  %stream = getelementptr inbounds %"class.Assimp::Discreet3DSImporter", ptr %this1, i32 0, i32 1
  %0 = load ptr, ptr %stream, align 8
  %call = call noundef i64 @_ZNK6Assimp12StreamReaderILb0ELb0EE23GetRemainingSizeToLimitEv(ptr noundef nonnull align 8 dereferenceable(49) %0)
  %cmp = icmp ult i64 %call, 6
  br i1 %cmp, label %if.then, label %if.end

if.then:                                          ; preds = %while.body
  br label %return

if.end:                                           ; preds = %while.body
  call void @_ZN6Assimp19Discreet3DSImporter9ReadChunkEPNS_4D3DS11Discreet3DS5ChunkE(ptr noundef nonnull align 8 dereferenceable(162) %this1, ptr noundef %chunk)
  %Size = getelementptr inbounds %"struct.Assimp::D3DS::Discreet3DS::Chunk", ptr %chunk, i32 0, i32 1
  %1 = load i32, ptr %Size, align 1
  %conv = zext i32 %1 to i64
  %sub = sub i64 %conv, 6
  %conv2 = trunc i64 %sub to i32
  store i32 %conv2, ptr %chunkSize, align 4
  %2 = load i32, ptr %chunkSize, align 4
  %cmp3 = icmp sle i32 %2, 0
  br i1 %cmp3, label %if.then4, label %if.end5

if.then4:                                         ; preds = %if.end
  br label %while.body, !llvm.loop !30

if.end5:                                          ; preds = %if.end
  %stream6 = getelementptr inbounds %"class.Assimp::Discreet3DSImporter", ptr %this1, i32 0, i32 1
  %3 = load ptr, ptr %stream6, align 8
  %stream7 = getelementptr inbounds %"class.Assimp::Discreet3DSImporter", ptr %this1, i32 0, i32 1
  %4 = load ptr, ptr %stream7, align 8
  %call8 = call noundef i32 @_ZNK6Assimp12StreamReaderILb0ELb0EE13GetCurrentPosEv(ptr noundef nonnull align 8 dereferenceable(49) %4)
  %5 = load i32, ptr %chunkSize, align 4
  %add = add nsw i32 %call8, %5
  %call9 = call noundef i32 @_ZN6Assimp12StreamReaderILb0ELb0EE12SetReadLimitEj(ptr noundef nonnull align 8 dereferenceable(49) %3, i32 noundef %add)
  store i32 %call9, ptr %oldReadLimit, align 4
  %mScene = getelementptr inbounds %"class.Assimp::Discreet3DSImporter", ptr %this1, i32 0, i32 6
  %6 = load ptr, ptr %mScene, align 8
  %mCameras = getelementptr inbounds %"struct.Assimp::D3DS::Scene", ptr %6, i32 0, i32 2
  %call10 = call noundef nonnull align 8 dereferenceable(8) ptr @_ZNSt6vectorIP8aiCameraSaIS1_EE4backEv(ptr noundef nonnull align 8 dereferenceable(24) %mCameras) #10
  %7 = load ptr, ptr %call10, align 8
  store ptr %7, ptr %camera, align 8
  %Flag = getelementptr inbounds %"struct.Assimp::D3DS::Discreet3DS::Chunk", ptr %chunk, i32 0, i32 0
  %8 = load i16, ptr %Flag, align 1
  %conv11 = zext i16 %8 to i32
  switch i32 %conv11, label %sw.epilog [
    i32 18208, label %sw.bb
  ]

sw.bb:                                            ; preds = %if.end5
  %stream12 = getelementptr inbounds %"class.Assimp::Discreet3DSImporter", ptr %this1, i32 0, i32 1
  %9 = load ptr, ptr %stream12, align 8
  %call13 = call noundef float @_ZN6Assimp12StreamReaderILb0ELb0EE5GetF4Ev(ptr noundef nonnull align 8 dereferenceable(49) %9)
  %10 = load ptr, ptr %camera, align 8
  %mClipPlaneNear = getelementptr inbounds %struct.aiCamera, ptr %10, i32 0, i32 5
  store float %call13, ptr %mClipPlaneNear, align 4
  %stream14 = getelementptr inbounds %"class.Assimp::Discreet3DSImporter", ptr %this1, i32 0, i32 1
  %11 = load ptr, ptr %stream14, align 8
  %call15 = call noundef float @_ZN6Assimp12StreamReaderILb0ELb0EE5GetF4Ev(ptr noundef nonnull align 8 dereferenceable(49) %11)
  %12 = load ptr, ptr %camera, align 8
  %mClipPlaneFar = getelementptr inbounds %struct.aiCamera, ptr %12, i32 0, i32 6
  store float %call15, ptr %mClipPlaneFar, align 4
  br label %sw.epilog

sw.epilog:                                        ; preds = %sw.bb, %if.end5
  %stream16 = getelementptr inbounds %"class.Assimp::Discreet3DSImporter", ptr %this1, i32 0, i32 1
  %13 = load ptr, ptr %stream16, align 8
  call void @_ZN6Assimp12StreamReaderILb0ELb0EE15SkipToReadLimitEv(ptr noundef nonnull align 8 dereferenceable(49) %13)
  %stream17 = getelementptr inbounds %"class.Assimp::Discreet3DSImporter", ptr %this1, i32 0, i32 1
  %14 = load ptr, ptr %stream17, align 8
  %15 = load i32, ptr %oldReadLimit, align 4
  %call18 = call noundef i32 @_ZN6Assimp12StreamReaderILb0ELb0EE12SetReadLimitEj(ptr noundef nonnull align 8 dereferenceable(49) %14, i32 noundef %15)
  %stream19 = getelementptr inbounds %"class.Assimp::Discreet3DSImporter", ptr %this1, i32 0, i32 1
  %16 = load ptr, ptr %stream19, align 8
  %call20 = call noundef i64 @_ZNK6Assimp12StreamReaderILb0ELb0EE23GetRemainingSizeToLimitEv(ptr noundef nonnull align 8 dereferenceable(49) %16)
  %cmp21 = icmp eq i64 %call20, 0
  br i1 %cmp21, label %if.then22, label %if.end23

if.then22:                                        ; preds = %sw.epilog
  br label %return

if.end23:                                         ; preds = %sw.epilog
  br label %while.body, !llvm.loop !30

return:                                           ; preds = %if.then22, %if.then
  ret void
}

; Function Attrs: mustprogress nounwind uwtable
define linkonce_odr hidden noundef nonnull align 8 dereferenceable(8) ptr @_ZNSt6vectorIP7aiLightSaIS1_EE4backEv(ptr noundef nonnull align 8 dereferenceable(24) %this) #0 comdat align 2 {
entry:
  %this.addr = alloca ptr, align 8
  %ref.tmp = alloca %"class.__gnu_cxx::__normal_iterator.93", align 8
  %ref.tmp2 = alloca %"class.__gnu_cxx::__normal_iterator.93", align 8
  store ptr %this, ptr %this.addr, align 8
  %this1 = load ptr, ptr %this.addr, align 8
  %call = call ptr @_ZNSt6vectorIP7aiLightSaIS1_EE3endEv(ptr noundef nonnull align 8 dereferenceable(24) %this1) #10
  %coerce.dive = getelementptr inbounds %"class.__gnu_cxx::__normal_iterator.93", ptr %ref.tmp2, i32 0, i32 0
  store ptr %call, ptr %coerce.dive, align 8
  %call3 = call ptr @_ZNK9__gnu_cxx17__normal_iteratorIPP7aiLightSt6vectorIS2_SaIS2_EEEmiEl(ptr noundef nonnull align 8 dereferenceable(8) %ref.tmp2, i64 noundef 1) #10
  %coerce.dive4 = getelementptr inbounds %"class.__gnu_cxx::__normal_iterator.93", ptr %ref.tmp, i32 0, i32 0
  store ptr %call3, ptr %coerce.dive4, align 8
  %call5 = call noundef nonnull align 8 dereferenceable(8) ptr @_ZNK9__gnu_cxx17__normal_iteratorIPP7aiLightSt6vectorIS2_SaIS2_EEEdeEv(ptr noundef nonnull align 8 dereferenceable(8) %ref.tmp) #10
  ret ptr %call5
}

; Function Attrs: mustprogress uwtable
define linkonce_odr hidden noundef nonnull align 4 dereferenceable(12) ptr @_ZN10aiVector3tIfE9NormalizeEv(ptr noundef nonnull align 4 dereferenceable(12) %this) #3 comdat align 2 {
entry:
  %retval = alloca ptr, align 8
  %this.addr = alloca ptr, align 8
  %l = alloca float, align 4
  store ptr %this, ptr %this.addr, align 8
  %this1 = load ptr, ptr %this.addr, align 8
  %call = call noundef float @_ZNK10aiVector3tIfE6LengthEv(ptr noundef nonnull align 4 dereferenceable(12) %this1)
  store float %call, ptr %l, align 4
  %0 = load float, ptr %l, align 4
  %cmp = fcmp oeq float %0, 0.000000e+00
  br i1 %cmp, label %if.then, label %if.end

if.then:                                          ; preds = %entry
  store ptr %this1, ptr %retval, align 8
  br label %return

if.end:                                           ; preds = %entry
  %call2 = call noundef float @_ZNK10aiVector3tIfE6LengthEv(ptr noundef nonnull align 4 dereferenceable(12) %this1)
  %call3 = call noundef nonnull align 4 dereferenceable(12) ptr @_ZN10aiVector3tIfEdVEf(ptr noundef nonnull align 4 dereferenceable(12) %this1, float noundef %call2)
  store ptr %this1, ptr %retval, align 8
  br label %return

return:                                           ; preds = %if.end, %if.then
  %1 = load ptr, ptr %retval, align 8
  ret ptr %1
}

; Function Attrs: nocallback nofree nosync nounwind speculatable willreturn memory(none)
declare float @llvm.fmuladd.f32(float, float, float) #8

; Function Attrs: mustprogress uwtable
define linkonce_odr hidden void @_ZNK9aiColor3DmlEf(ptr noalias sret(%struct.aiColor3D) align 4 %agg.result, ptr noundef nonnull align 4 dereferenceable(12) %this, float noundef %f) #3 comdat align 2 {
entry:
  %result.ptr = alloca ptr, align 8
  %this.addr = alloca ptr, align 8
  %f.addr = alloca float, align 4
  store ptr %agg.result, ptr %result.ptr, align 8
  store ptr %this, ptr %this.addr, align 8
  store float %f, ptr %f.addr, align 4
  %this1 = load ptr, ptr %this.addr, align 8
  %r = getelementptr inbounds %struct.aiColor3D, ptr %this1, i32 0, i32 0
  %0 = load float, ptr %r, align 4
  %1 = load float, ptr %f.addr, align 4
  %mul = fmul float %0, %1
  %g = getelementptr inbounds %struct.aiColor3D, ptr %this1, i32 0, i32 1
  %2 = load float, ptr %g, align 4
  %3 = load float, ptr %f.addr, align 4
  %mul2 = fmul float %2, %3
  %b = getelementptr inbounds %struct.aiColor3D, ptr %this1, i32 0, i32 2
  %4 = load float, ptr %b, align 4
  %5 = load float, ptr %f.addr, align 4
  %mul3 = fmul float %4, %5
  call void @_ZN9aiColor3DC2Efff(ptr noundef nonnull align 4 dereferenceable(12) %agg.result, float noundef %mul, float noundef %mul2, float noundef %mul3)
  ret void
}

; Function Attrs: mustprogress nounwind uwtable
define linkonce_odr hidden noundef nonnull align 8 dereferenceable(8) ptr @_ZNSt6vectorIP8aiCameraSaIS1_EE4backEv(ptr noundef nonnull align 8 dereferenceable(24) %this) #0 comdat align 2 {
entry:
  %this.addr = alloca ptr, align 8
  %ref.tmp = alloca %"class.__gnu_cxx::__normal_iterator.94", align 8
  %ref.tmp2 = alloca %"class.__gnu_cxx::__normal_iterator.94", align 8
  store ptr %this, ptr %this.addr, align 8
  %this1 = load ptr, ptr %this.addr, align 8
  %call = call ptr @_ZNSt6vectorIP8aiCameraSaIS1_EE3endEv(ptr noundef nonnull align 8 dereferenceable(24) %this1) #10
  %coerce.dive = getelementptr inbounds %"class.__gnu_cxx::__normal_iterator.94", ptr %ref.tmp2, i32 0, i32 0
  store ptr %call, ptr %coerce.dive, align 8
  %call3 = call ptr @_ZNK9__gnu_cxx17__normal_iteratorIPP8aiCameraSt6vectorIS2_SaIS2_EEEmiEl(ptr noundef nonnull align 8 dereferenceable(8) %ref.tmp2, i64 noundef 1) #10
  %coerce.dive4 = getelementptr inbounds %"class.__gnu_cxx::__normal_iterator.94", ptr %ref.tmp, i32 0, i32 0
  store ptr %call3, ptr %coerce.dive4, align 8
  %call5 = call noundef nonnull align 8 dereferenceable(8) ptr @_ZNK9__gnu_cxx17__normal_iteratorIPP8aiCameraSt6vectorIS2_SaIS2_EEEdeEv(ptr noundef nonnull align 8 dereferenceable(8) %ref.tmp) #10
  ret ptr %call5
}

; Function Attrs: mustprogress uwtable
define hidden void @_ZN6Assimp19Discreet3DSImporter19ParseHierarchyChunkEt(ptr noundef nonnull align 8 dereferenceable(162) %this, i16 noundef zeroext %parent) #5 align 2 personality ptr @__gxx_personality_v0 {
entry:
  %this.addr = alloca ptr, align 8
  %parent.addr = alloca i16, align 2
  %chunk = alloca %"struct.Assimp::D3DS::Discreet3DS::Chunk", align 1
  %chunkSize = alloca i32, align 4
  %oldReadLimit = alloca i32, align 4
  %cnt = alloca i32, align 4
  %sz = alloca ptr, align 8
  %name = alloca %"class.std::__cxx11::basic_string", align 8
  %ref.tmp = alloca %"class.std::allocator.0", align 1
  %exn.slot = alloca ptr, align 8
  %ehselector.slot = alloca i32, align 4
  %pcNode = alloca ptr, align 8
  %instanceNumber = alloca i32, align 4
  %cleanup.dest.slot = alloca i32, align 4
  %hierarchy = alloca i16, align 2
  %sz73 = alloca ptr, align 8
  %ref.tmp85 = alloca %"class.std::__cxx11::basic_string", align 8
  %ref.tmp86 = alloca %"class.std::allocator.0", align 1
  %numFrames = alloca i32, align 4
  %sortKeys = alloca i8, align 1
  %l = alloca ptr, align 8
  %i = alloca i32, align 4
  %fidx = alloca i32, align 4
  %v = alloca %struct.aiVectorKey, align 8
  %agg.tmp = alloca %"class.__gnu_cxx::__normal_iterator.60", align 8
  %agg.tmp152 = alloca %"class.__gnu_cxx::__normal_iterator.60", align 8
  %agg.tmp157 = alloca %"class.__gnu_cxx::__normal_iterator.61", align 8
  %ref.tmp158 = alloca %"class.__gnu_cxx::__normal_iterator.60", align 8
  %agg.tmp159 = alloca %"class.__gnu_cxx::__normal_iterator.60", align 8
  %agg.tmp162 = alloca %"class.__gnu_cxx::__normal_iterator.60", align 8
  %agg.tmp169 = alloca %"class.__gnu_cxx::__normal_iterator.61", align 8
  %ref.tmp170 = alloca %"class.__gnu_cxx::__normal_iterator.60", align 8
  %coerce = alloca %"class.__gnu_cxx::__normal_iterator.60", align 8
  %sortKeys184 = alloca i8, align 1
  %l185 = alloca ptr, align 8
  %numFrames188 = alloca i32, align 4
  %i192 = alloca i32, align 4
  %fidx196 = alloca i32, align 4
  %v199 = alloca %"struct.Assimp::D3DS::aiFloatKey", align 8
  %agg.tmp218 = alloca %"class.__gnu_cxx::__normal_iterator.62", align 8
  %agg.tmp221 = alloca %"class.__gnu_cxx::__normal_iterator.62", align 8
  %agg.tmp226 = alloca %"class.__gnu_cxx::__normal_iterator.63", align 8
  %ref.tmp227 = alloca %"class.__gnu_cxx::__normal_iterator.62", align 8
  %agg.tmp228 = alloca %"class.__gnu_cxx::__normal_iterator.62", align 8
  %agg.tmp231 = alloca %"class.__gnu_cxx::__normal_iterator.62", align 8
  %agg.tmp238 = alloca %"class.__gnu_cxx::__normal_iterator.63", align 8
  %ref.tmp239 = alloca %"class.__gnu_cxx::__normal_iterator.62", align 8
  %coerce245 = alloca %"class.__gnu_cxx::__normal_iterator.62", align 8
  %numFrames252 = alloca i32, align 4
  %sortKeys255 = alloca i8, align 1
  %l256 = alloca ptr, align 8
  %i259 = alloca i32, align 4
  %fidx263 = alloca i32, align 4
  %v266 = alloca %struct.aiQuatKey, align 8
  %rad = alloca float, align 4
  %axis = alloca %class.aiVector3t, align 4
  %ref.tmp291 = alloca %class.aiQuaterniont, align 4
  %agg.tmp292 = alloca %class.aiVector3t, align 4
  %agg.tmp292.coerce = alloca { <2 x float>, float }, align 4
  %agg.tmp307 = alloca %"class.__gnu_cxx::__normal_iterator.64", align 8
  %agg.tmp310 = alloca %"class.__gnu_cxx::__normal_iterator.64", align 8
  %agg.tmp315 = alloca %"class.__gnu_cxx::__normal_iterator.65", align 8
  %ref.tmp316 = alloca %"class.__gnu_cxx::__normal_iterator.64", align 8
  %agg.tmp317 = alloca %"class.__gnu_cxx::__normal_iterator.64", align 8
  %agg.tmp320 = alloca %"class.__gnu_cxx::__normal_iterator.64", align 8
  %agg.tmp327 = alloca %"class.__gnu_cxx::__normal_iterator.65", align 8
  %ref.tmp328 = alloca %"class.__gnu_cxx::__normal_iterator.64", align 8
  %coerce334 = alloca %"class.__gnu_cxx::__normal_iterator.64", align 8
  %numFrames339 = alloca i32, align 4
  %sortKeys344 = alloca i8, align 1
  %l345 = alloca ptr, align 8
  %i348 = alloca i32, align 4
  %fidx352 = alloca i32, align 4
  %v355 = alloca %struct.aiVectorKey, align 8
  %agg.tmp404 = alloca %"class.__gnu_cxx::__normal_iterator.60", align 8
  %agg.tmp407 = alloca %"class.__gnu_cxx::__normal_iterator.60", align 8
  %agg.tmp412 = alloca %"class.__gnu_cxx::__normal_iterator.61", align 8
  %ref.tmp413 = alloca %"class.__gnu_cxx::__normal_iterator.60", align 8
  %agg.tmp414 = alloca %"class.__gnu_cxx::__normal_iterator.60", align 8
  %agg.tmp417 = alloca %"class.__gnu_cxx::__normal_iterator.60", align 8
  %agg.tmp424 = alloca %"class.__gnu_cxx::__normal_iterator.61", align 8
  %ref.tmp425 = alloca %"class.__gnu_cxx::__normal_iterator.60", align 8
  %coerce431 = alloca %"class.__gnu_cxx::__normal_iterator.60", align 8
  store ptr %this, ptr %this.addr, align 8
  store i16 %parent, ptr %parent.addr, align 2
  %this1 = load ptr, ptr %this.addr, align 8
  br label %while.body

while.body:                                       ; preds = %if.end441, %if.then4, %entry
  %stream = getelementptr inbounds %"class.Assimp::Discreet3DSImporter", ptr %this1, i32 0, i32 1
  %0 = load ptr, ptr %stream, align 8
  %call = call noundef i64 @_ZNK6Assimp12StreamReaderILb0ELb0EE23GetRemainingSizeToLimitEv(ptr noundef nonnull align 8 dereferenceable(49) %0)
  %cmp = icmp ult i64 %call, 6
  br i1 %cmp, label %if.then, label %if.end

if.then:                                          ; preds = %while.body
  br label %return

if.end:                                           ; preds = %while.body
  call void @_ZN6Assimp19Discreet3DSImporter9ReadChunkEPNS_4D3DS11Discreet3DS5ChunkE(ptr noundef nonnull align 8 dereferenceable(162) %this1, ptr noundef %chunk)
  %Size = getelementptr inbounds %"struct.Assimp::D3DS::Discreet3DS::Chunk", ptr %chunk, i32 0, i32 1
  %1 = load i32, ptr %Size, align 1
  %conv = zext i32 %1 to i64
  %sub = sub i64 %conv, 6
  %conv2 = trunc i64 %sub to i32
  store i32 %conv2, ptr %chunkSize, align 4
  %2 = load i32, ptr %chunkSize, align 4
  %cmp3 = icmp sle i32 %2, 0
  br i1 %cmp3, label %if.then4, label %if.end5

if.then4:                                         ; preds = %if.end
  br label %while.body, !llvm.loop !31

if.end5:                                          ; preds = %if.end
  %stream6 = getelementptr inbounds %"class.Assimp::Discreet3DSImporter", ptr %this1, i32 0, i32 1
  %3 = load ptr, ptr %stream6, align 8
  %stream7 = getelementptr inbounds %"class.Assimp::Discreet3DSImporter", ptr %this1, i32 0, i32 1
  %4 = load ptr, ptr %stream7, align 8
  %call8 = call noundef i32 @_ZNK6Assimp12StreamReaderILb0ELb0EE13GetCurrentPosEv(ptr noundef nonnull align 8 dereferenceable(49) %4)
  %5 = load i32, ptr %chunkSize, align 4
  %add = add nsw i32 %call8, %5
  %call9 = call noundef i32 @_ZN6Assimp12StreamReaderILb0ELb0EE12SetReadLimitEj(ptr noundef nonnull align 8 dereferenceable(49) %3, i32 noundef %add)
  store i32 %call9, ptr %oldReadLimit, align 4
  %Flag = getelementptr inbounds %"struct.Assimp::D3DS::Discreet3DS::Chunk", ptr %chunk, i32 0, i32 0
  %6 = load i16, ptr %Flag, align 1
  %conv10 = zext i16 %6 to i32
  switch i32 %conv10, label %sw.epilog [
    i32 45072, label %sw.bb
    i32 45073, label %sw.bb72
    i32 45075, label %sw.bb94
    i32 45088, label %sw.bb111
    i32 45092, label %sw.bb178
    i32 45091, label %sw.bb248
    i32 45089, label %sw.bb250
    i32 45090, label %sw.bb337
  ]

sw.bb:                                            ; preds = %if.end5
  store i32 0, ptr %cnt, align 4
  %stream11 = getelementptr inbounds %"class.Assimp::Discreet3DSImporter", ptr %this1, i32 0, i32 1
  %7 = load ptr, ptr %stream11, align 8
  %call12 = call noundef ptr @_ZNK6Assimp12StreamReaderILb0ELb0EE6GetPtrEv(ptr noundef nonnull align 8 dereferenceable(49) %7)
  store ptr %call12, ptr %sz, align 8
  br label %while.cond13

while.cond13:                                     ; preds = %while.body16, %sw.bb
  %stream14 = getelementptr inbounds %"class.Assimp::Discreet3DSImporter", ptr %this1, i32 0, i32 1
  %8 = load ptr, ptr %stream14, align 8
  %call15 = call noundef signext i8 @_ZN6Assimp12StreamReaderILb0ELb0EE5GetI1Ev(ptr noundef nonnull align 8 dereferenceable(49) %8)
  %tobool = icmp ne i8 %call15, 0
  br i1 %tobool, label %while.body16, label %while.end

while.body16:                                     ; preds = %while.cond13
  %9 = load i32, ptr %cnt, align 4
  %inc = add i32 %9, 1
  store i32 %inc, ptr %cnt, align 4
  br label %while.cond13, !llvm.loop !32

while.end:                                        ; preds = %while.cond13
  %10 = load ptr, ptr %sz, align 8
  %11 = load i32, ptr %cnt, align 4
  %conv17 = zext i32 %11 to i64
  call void @_ZNSaIcEC1Ev(ptr noundef nonnull align 1 dereferenceable(1) %ref.tmp) #10
  invoke void @_ZNSt7__cxx1112basic_stringIcSt11char_traitsIcESaIcEEC1EPKcmRKS3_(ptr noundef nonnull align 8 dereferenceable(32) %name, ptr noundef %10, i64 noundef %conv17, ptr noundef nonnull align 1 dereferenceable(1) %ref.tmp)
          to label %invoke.cont unwind label %lpad

invoke.cont:                                      ; preds = %while.end
  call void @_ZNSaIcED1Ev(ptr noundef nonnull align 1 dereferenceable(1) %ref.tmp) #10
  %mRootNode = getelementptr inbounds %"class.Assimp::Discreet3DSImporter", ptr %this1, i32 0, i32 5
  %12 = load ptr, ptr %mRootNode, align 8
