target datalayout = "e-m:e-p270:32:32-p271:32:32-p272:64:64-i64:64-i128:128-f80:128-n8:16:32:64-S128"
target triple = "x86_64-unknown-linux-gnu"

%"struct.std::_Vector_base" = type { %"struct.std::_Vector_base<std::__cxx11::basic_string<char>, std::allocator<std::__cxx11::basic_string<char>>>::_Vector_impl" }
%"struct.std::_Vector_base<std::__cxx11::basic_string<char>, std::allocator<std::__cxx11::basic_string<char>>>::_Vector_impl" = type { %"struct.std::_Vector_base<std::__cxx11::basic_string<char>, std::allocator<std::__cxx11::basic_string<char>>>::_Vector_impl_data" }
%"struct.std::_Vector_base<std::__cxx11::basic_string<char>, std::allocator<std::__cxx11::basic_string<char>>>::_Vector_impl_data" = type { ptr, ptr, ptr }
%"class.Assimp::BaseImporter" = type { ptr, double, double, %"class.std::__cxx11::basic_string", %"class.std::__exception_ptr::exception_ptr", ptr }
%"class.std::__cxx11::basic_string" = type { %"struct.std::__cxx11::basic_string<char>::_Alloc_hider", i64, %union.anon }
%"struct.std::__cxx11::basic_string<char>::_Alloc_hider" = type { ptr }
%union.anon = type { i64, [8 x i8] }
%"class.std::__exception_ptr::exception_ptr" = type { ptr }
%"class.Assimp::Formatter::basic_formatter" = type { %"class.std::__cxx11::basic_ostringstream" }
%"class.std::__cxx11::basic_ostringstream" = type { %"class.std::basic_ostream.base", %"class.std::__cxx11::basic_stringbuf", %"class.std::basic_ios" }
%"class.std::basic_ostream.base" = type { ptr }
%"class.std::__cxx11::basic_stringbuf" = type { %"class.std::basic_streambuf", i32, %"class.std::__cxx11::basic_string" }
%"class.std::basic_streambuf" = type { ptr, ptr, ptr, ptr, ptr, ptr, ptr, %"class.std::locale" }
%"class.std::locale" = type { ptr }
%"class.std::basic_ios" = type { %"class.std::ios_base", ptr, i8, i8, ptr, ptr, ptr, ptr }
%"class.std::ios_base" = type { ptr, i64, i64, i32, i32, i32, ptr, %"struct.std::ios_base::_Words", [8 x %"struct.std::ios_base::_Words"], i32, ptr, %"class.std::locale" }
%"struct.std::ios_base::_Words" = type { ptr, i64 }
%"class.Assimp::FileSystemFilter" = type <{ %"class.Assimp::IOSystem", ptr, %"class.std::__cxx11::basic_string", %"class.std::__cxx11::basic_string", i8, [7 x i8] }>
%"class.Assimp::IOSystem" = type { ptr, %"class.std::vector" }
%"class.std::vector" = type { %"struct.std::_Vector_base" }
%"class.std::unique_ptr" = type { %"struct.std::__uniq_ptr_data" }
%"struct.std::__uniq_ptr_data" = type { %"class.std::__uniq_ptr_impl" }
%"class.std::__uniq_ptr_impl" = type { %"class.std::tuple" }
%"class.std::tuple" = type { %"struct.std::_Tuple_impl" }
%"struct.std::_Tuple_impl" = type { %"struct.std::_Head_base.4" }
%"struct.std::_Head_base.4" = type { ptr }
%"class.__gnu_cxx::__normal_iterator.74" = type { ptr }
%"class.std::allocator.0" = type { i8 }
%"struct.std::pair" = type <{ %"struct.std::_Rb_tree_const_iterator", i8, [7 x i8] }>
%"struct.std::_Rb_tree_const_iterator" = type { ptr }
%struct.aiImporterDesc = type { ptr, ptr, ptr, ptr, i32, i32, i32, i32, i32, ptr }
%"struct.std::pair.108" = type <{ %"struct.std::_Rb_tree_iterator", i8, [7 x i8] }>
%"struct.std::_Rb_tree_iterator" = type { ptr }
%"class.std::set" = type { %"class.std::_Rb_tree" }
%"class.std::_Rb_tree" = type { %"struct.std::_Rb_tree<std::__cxx11::basic_string<char>, std::__cxx11::basic_string<char>, std::_Identity<std::__cxx11::basic_string<char>>, std::less<std::__cxx11::basic_string<char>>>::_Rb_tree_impl" }
%"struct.std::_Rb_tree<std::__cxx11::basic_string<char>, std::__cxx11::basic_string<char>, std::_Identity<std::__cxx11::basic_string<char>>, std::less<std::__cxx11::basic_string<char>>>::_Rb_tree_impl" = type { %"struct.std::_Rb_tree_key_compare", %"struct.std::_Rb_tree_header" }
%"struct.std::_Rb_tree_key_compare" = type { %"struct.std::less" }
%"struct.std::less" = type { i8 }
%"struct.std::_Rb_tree_header" = type { %"struct.std::_Rb_tree_node_base", i64 }
%"struct.std::_Rb_tree_node_base" = type { i32, ptr, ptr, ptr }
%"class.std::unique_ptr.8" = type { %"struct.std::__uniq_ptr_data.9" }
%"struct.std::__uniq_ptr_data.9" = type { %"class.std::__uniq_ptr_impl.10" }
%"class.std::__uniq_ptr_impl.10" = type { %"class.std::tuple.11" }
%"class.std::tuple.11" = type { %"struct.std::_Tuple_impl.12" }
%"struct.std::_Tuple_impl.12" = type { %"struct.std::_Head_base.15" }
%"struct.std::_Head_base.15" = type { ptr }
%"class.std::unique_ptr.16" = type { %"struct.std::__uniq_ptr_data.17" }
%"struct.std::__uniq_ptr_data.17" = type { %"class.std::__uniq_ptr_impl.18" }
%"class.std::__uniq_ptr_impl.18" = type { %"class.std::tuple.19" }
%"class.std::tuple.19" = type { %"struct.std::_Tuple_impl.20" }
%"struct.std::_Tuple_impl.20" = type { %"struct.std::_Head_base.23" }
%"struct.std::_Head_base.23" = type { ptr }
%"class.std::initializer_list" = type { ptr, i64 }
%union.anon.24 = type { [4 x i32] }
%"struct.Assimp::ByteSwap::_swapper" = type { i8 }
%"struct.Assimp::ByteSwap::_swapper.117" = type { i8 }
%"class.__gnu_cxx::__normal_iterator" = type { ptr }
%"class.std::vector.25" = type { %"struct.std::_Vector_base.26" }
%"struct.std::_Vector_base.26" = type { %"struct.std::_Vector_base<char, std::allocator<char>>::_Vector_impl" }
%"struct.std::_Vector_base<char, std::allocator<char>>::_Vector_impl" = type { %"struct.std::_Vector_base<char, std::allocator<char>>::_Vector_impl_data" }
%"struct.std::_Vector_base<char, std::allocator<char>>::_Vector_impl_data" = type { ptr, ptr, ptr }
%"class.std::back_insert_iterator" = type { ptr }
%"class.std::vector.28" = type { %"struct.std::_Vector_base.29" }
%"struct.std::_Vector_base.29" = type { %"struct.std::_Vector_base<unsigned char, std::allocator<unsigned char>>::_Vector_impl" }
%"struct.std::_Vector_base<unsigned char, std::allocator<unsigned char>>::_Vector_impl" = type { %"struct.std::_Vector_base<unsigned char, std::allocator<unsigned char>>::_Vector_impl_data" }
%"struct.std::_Vector_base<unsigned char, std::allocator<unsigned char>>::_Vector_impl_data" = type { ptr, ptr, ptr }
%"class.std::back_insert_iterator.33" = type { ptr }
%"class.std::__cxx11::basic_stringstream" = type { %"class.std::basic_iostream.base", %"class.std::__cxx11::basic_stringbuf", %"class.std::basic_ios" }
%"class.std::basic_iostream.base" = type { %"class.std::basic_istream.base", %"class.std::basic_ostream.base" }
%"class.std::basic_istream.base" = type { ptr, i64 }
%"class.Assimp::BatchLoader" = type { ptr }
%"struct.Assimp::BatchData" = type <{ ptr, ptr, %"class.std::__cxx11::list", %"class.std::__cxx11::basic_string", i32, i8, [3 x i8] }>
%"class.std::__cxx11::list" = type { %"class.std::__cxx11::_List_base" }
%"class.std::__cxx11::_List_base" = type { %"struct.std::__cxx11::_List_base<Assimp::LoadRequest, std::allocator<Assimp::LoadRequest>>::_List_impl" }
%"struct.std::__cxx11::_List_base<Assimp::LoadRequest, std::allocator<Assimp::LoadRequest>>::_List_impl" = type { %"struct.std::__detail::_List_node_header" }
%"struct.std::__detail::_List_node_header" = type { %"struct.std::__detail::_List_node_base", i64 }
%"struct.std::__detail::_List_node_base" = type { ptr, ptr }
%"struct.std::_List_iterator" = type { ptr }
%"struct.Assimp::LoadRequest" = type <{ %"class.std::__cxx11::basic_string", i32, i32, ptr, i8, [7 x i8], %"struct.Assimp::BatchLoader::PropertyMap", i32, [4 x i8] }>
%"struct.Assimp::BatchLoader::PropertyMap" = type { %"class.std::map", %"class.std::map.44", %"class.std::map.49", %"class.std::map.54" }
%"class.std::map" = type { %"class.std::_Rb_tree.37" }
%"class.std::_Rb_tree.37" = type { %"struct.std::_Rb_tree<unsigned int, std::pair<const unsigned int, int>, std::_Select1st<std::pair<const unsigned int, int>>, std::less<unsigned int>>::_Rb_tree_impl" }
%"struct.std::_Rb_tree<unsigned int, std::pair<const unsigned int, int>, std::_Select1st<std::pair<const unsigned int, int>>, std::less<unsigned int>>::_Rb_tree_impl" = type { %"struct.std::_Rb_tree_key_compare.41", %"struct.std::_Rb_tree_header" }
%"struct.std::_Rb_tree_key_compare.41" = type { %"struct.std::less.42" }
%"struct.std::less.42" = type { i8 }
%"class.std::map.44" = type { %"class.std::_Rb_tree.45" }
%"class.std::_Rb_tree.45" = type { %"struct.std::_Rb_tree<unsigned int, std::pair<const unsigned int, float>, std::_Select1st<std::pair<const unsigned int, float>>, std::less<unsigned int>>::_Rb_tree_impl" }
%"struct.std::_Rb_tree<unsigned int, std::pair<const unsigned int, float>, std::_Select1st<std::pair<const unsigned int, float>>, std::less<unsigned int>>::_Rb_tree_impl" = type { %"struct.std::_Rb_tree_key_compare.41", %"struct.std::_Rb_tree_header" }
%"class.std::map.49" = type { %"class.std::_Rb_tree.50" }
%"class.std::_Rb_tree.50" = type { %"struct.std::_Rb_tree<unsigned int, std::pair<const unsigned int, std::__cxx11::basic_string<char>>, std::_Select1st<std::pair<const unsigned int, std::__cxx11::basic_string<char>>>, std::less<unsigned int>>::_Rb_tree_impl" }
%"struct.std::_Rb_tree<unsigned int, std::pair<const unsigned int, std::__cxx11::basic_string<char>>, std::_Select1st<std::pair<const unsigned int, std::__cxx11::basic_string<char>>>, std::less<unsigned int>>::_Rb_tree_impl" = type { %"struct.std::_Rb_tree_key_compare.41", %"struct.std::_Rb_tree_header" }
%"class.std::map.54" = type { %"class.std::_Rb_tree.55" }
%"class.std::_Rb_tree.55" = type { %"struct.std::_Rb_tree<unsigned int, std::pair<const unsigned int, aiMatrix4x4t<float>>, std::_Select1st<std::pair<const unsigned int, aiMatrix4x4t<float>>>, std::less<unsigned int>>::_Rb_tree_impl" }
%"struct.std::_Rb_tree<unsigned int, std::pair<const unsigned int, aiMatrix4x4t<float>>, std::_Select1st<std::pair<const unsigned int, aiMatrix4x4t<float>>>, std::less<unsigned int>>::_Rb_tree_impl" = type { %"struct.std::_Rb_tree_key_compare.41", %"struct.std::_Rb_tree_header" }
%"struct.std::_List_const_iterator" = type { ptr }
%"class.Assimp::ImporterPimpl" = type { ptr, i8, ptr, i8, %"class.std::vector.59", %"class.std::vector.64", ptr, %"class.std::__cxx11::basic_string", %"class.std::__exception_ptr::exception_ptr", %"class.std::map", %"class.std::map.44", %"class.std::map.49", %"class.std::map.54", %"class.std::map.69", i8, ptr }
%"class.std::vector.59" = type { %"struct.std::_Vector_base.60" }
%"struct.std::_Vector_base.60" = type { %"struct.std::_Vector_base<Assimp::BaseImporter *, std::allocator<Assimp::BaseImporter *>>::_Vector_impl" }
%"struct.std::_Vector_base<Assimp::BaseImporter *, std::allocator<Assimp::BaseImporter *>>::_Vector_impl" = type { %"struct.std::_Vector_base<Assimp::BaseImporter *, std::allocator<Assimp::BaseImporter *>>::_Vector_impl_data" }
%"struct.std::_Vector_base<Assimp::BaseImporter *, std::allocator<Assimp::BaseImporter *>>::_Vector_impl_data" = type { ptr, ptr, ptr }
%"class.std::vector.64" = type { %"struct.std::_Vector_base.65" }
%"struct.std::_Vector_base.65" = type { %"struct.std::_Vector_base<Assimp::BaseProcess *, std::allocator<Assimp::BaseProcess *>>::_Vector_impl" }
%"struct.std::_Vector_base<Assimp::BaseProcess *, std::allocator<Assimp::BaseProcess *>>::_Vector_impl" = type { %"struct.std::_Vector_base<Assimp::BaseProcess *, std::allocator<Assimp::BaseProcess *>>::_Vector_impl_data" }
%"struct.std::_Vector_base<Assimp::BaseProcess *, std::allocator<Assimp::BaseProcess *>>::_Vector_impl_data" = type { ptr, ptr, ptr }
%"class.std::map.69" = type { %"class.std::_Rb_tree.70" }
%"class.std::_Rb_tree.70" = type { %"struct.std::_Rb_tree<unsigned int, std::pair<const unsigned int, void *>, std::_Select1st<std::pair<const unsigned int, void *>>, std::less<unsigned int>>::_Rb_tree_impl" }
%"struct.std::_Rb_tree<unsigned int, std::pair<const unsigned int, void *>, std::_Select1st<std::pair<const unsigned int, void *>>, std::less<unsigned int>>::_Rb_tree_impl" = type { %"struct.std::_Rb_tree_key_compare.41", %"struct.std::_Rb_tree_header" }
%"class.Assimp::Importer" = type { ptr }
%"class.__gnu_cxx::__normal_iterator.75" = type { ptr }
%"struct.std::_Rb_tree_node" = type { %"struct.std::_Rb_tree_node_base", %"struct.__gnu_cxx::__aligned_membuf" }
%"struct.__gnu_cxx::__aligned_membuf" = type { [32 x i8] }
%"struct.__gnu_cxx::__ops::_Iter_pred" = type { %class.anon }
%class.anon = type { i8 }
%"struct.__gnu_cxx::__ops::_Iter_negate" = type { %class.anon }
%"class.std::reverse_iterator" = type { %"class.__gnu_cxx::__normal_iterator.74" }
%class.anon.76 = type { i8 }
%"struct.__gnu_cxx::__ops::_Iter_pred.80" = type { %class.anon.78 }
%class.anon.78 = type { i8 }
%"struct.__gnu_cxx::__ops::_Iter_pred.84" = type { %class.anon.82 }
%class.anon.82 = type { i8 }
%"struct.std::_List_node" = type { %"struct.std::__detail::_List_node_base", %"struct.__gnu_cxx::__aligned_membuf.85" }
%"struct.__gnu_cxx::__aligned_membuf.85" = type { [256 x i8] }
%"struct.std::_Rb_tree_node.86" = type <{ %"struct.std::_Rb_tree_node_base", %"struct.__gnu_cxx::__aligned_membuf.87", [4 x i8] }>
%"struct.__gnu_cxx::__aligned_membuf.87" = type { [68 x i8] }
%"struct.std::_Rb_tree_node.90" = type { %"struct.std::_Rb_tree_node_base", %"struct.__gnu_cxx::__aligned_membuf.91" }
%"struct.__gnu_cxx::__aligned_membuf.91" = type { [40 x i8] }
%"struct.std::pair.92" = type { i32, %"class.std::__cxx11::basic_string" }
%"struct.std::_Rb_tree_node.94" = type { %"struct.std::_Rb_tree_node_base", %"struct.__gnu_cxx::__aligned_membuf.95" }
%"struct.__gnu_cxx::__aligned_membuf.95" = type { [8 x i8] }
%"struct.std::_Rb_tree_node.98" = type { %"struct.std::_Rb_tree_node_base", %"struct.__gnu_cxx::__aligned_membuf.99" }
%"struct.__gnu_cxx::__aligned_membuf.99" = type { [8 x i8] }
%"struct.std::_Rb_tree_const_iterator.102" = type { ptr }
%"struct.std::pair.100" = type { i32, i32 }
%"struct.std::_Rb_tree_const_iterator.103" = type { ptr }
%"struct.std::pair.96" = type { i32, float }
%"struct.std::_Rb_tree_const_iterator.104" = type { ptr }
%"struct.std::_Rb_tree_const_iterator.105" = type { ptr }
%"struct.std::pair.88" = type { i32, %class.aiMatrix4x4t }
%class.aiMatrix4x4t = type { float, float, float, float, float, float, float, float, float, float, float, float, float, float, float, float }
%"struct.std::_Rb_tree<unsigned int, std::pair<const unsigned int, float>, std::_Select1st<std::pair<const unsigned int, float>>, std::less<unsigned int>>::_Reuse_or_alloc_node" = type { ptr, ptr, ptr }
%"struct.std::_Rb_tree<unsigned int, std::pair<const unsigned int, int>, std::_Select1st<std::pair<const unsigned int, int>>, std::less<unsigned int>>::_Reuse_or_alloc_node" = type { ptr, ptr, ptr }
%"struct.std::_Rb_tree<unsigned int, std::pair<const unsigned int, std::__cxx11::basic_string<char>>, std::_Select1st<std::pair<const unsigned int, std::__cxx11::basic_string<char>>>, std::less<unsigned int>>::_Reuse_or_alloc_node" = type { ptr, ptr, ptr }
%"struct.std::_Rb_tree<unsigned int, std::pair<const unsigned int, aiMatrix4x4t<float>>, std::_Select1st<std::pair<const unsigned int, aiMatrix4x4t<float>>>, std::less<unsigned int>>::_Reuse_or_alloc_node" = type { ptr, ptr, ptr }
%"class.__gnu_cxx::__normal_iterator.106" = type { ptr }
%"class.__gnu_cxx::__normal_iterator.107" = type { ptr }
%struct._Guard = type { ptr }
%"struct.std::pair.111" = type { ptr, ptr }
%"struct.std::_Identity" = type { i8 }
%"struct.std::_Rb_tree<std::__cxx11::basic_string<char>, std::__cxx11::basic_string<char>, std::_Identity<std::__cxx11::basic_string<char>>, std::less<std::__cxx11::basic_string<char>>>::_Alloc_node" = type { ptr }
%"struct.std::_Rb_tree<std::__cxx11::basic_string<char>, std::__cxx11::basic_string<char>, std::_Identity<std::__cxx11::basic_string<char>>, std::less<std::__cxx11::basic_string<char>>>::_Auto_node" = type { ptr, ptr }
%"class.utf8::invalid_code_point" = type <{ %"class.utf8::exception", i32, [4 x i8] }>
%"class.utf8::exception" = type { %"class.std::exception" }
%"class.std::exception" = type { ptr }
%"class.utf8::invalid_utf16" = type <{ %"class.utf8::exception", i16, [6 x i8] }>
%"class.__gnu_cxx::__normal_iterator.118" = type { ptr }
%"struct.std::__allocated_ptr" = type { ptr, ptr }

$_ZNSt6vectorINSt7__cxx1112basic_stringIcSt11char_traitsIcESaIcEEESaIS5_EED2Ev = comdat any

$_ZN6Assimp8IOSystemD0Ev = comdat any

$_ZN6Assimp9LogStreamD0Ev = comdat any

$_ZN6Assimp6LoggerD0Ev = comdat any

$_ZN6Assimp8IOStreamD0Ev = comdat any

$_ZNSt15__exception_ptr13exception_ptrC2Ev = comdat any

$_ZNSt15__exception_ptr13exception_ptrD2Ev = comdat any

$_ZN6Assimp6Logger5debugIJRA32_KcRdEEEvDpOT_ = comdat any

$_ZN6Assimp16FileSystemFilterC2ERKNSt7__cxx1112basic_stringIcSt11char_traitsIcESaIcEEEPNS_8IOSystemE = comdat any

$_ZNSt10unique_ptrI7aiSceneSt14default_deleteIS0_EEC2IS2_vEEPS0_ = comdat any

$_ZNKSt10unique_ptrI7aiSceneSt14default_deleteIS0_EE3getEv = comdat any

$_ZNSt15__exception_ptr13exception_ptraSEOS0_ = comdat any

$__clang_call_terminate = comdat any

$_ZNSt10unique_ptrI7aiSceneSt14default_deleteIS0_EE7releaseEv = comdat any

$_ZNSt10unique_ptrI7aiSceneSt14default_deleteIS0_EED2Ev = comdat any

$_ZN6Assimp16FileSystemFilterD2Ev = comdat any

$_ZNSt3setINSt7__cxx1112basic_stringIcSt11char_traitsIcESaIcEEESt4lessIS5_ESaIS5_EE6insertEOS5_ = comdat any

$_ZN6Assimp8IOSystem4OpenERKNSt7__cxx1112basic_stringIcSt11char_traitsIcESaIcEEES8_ = comdat any

$_ZNSt7__cxx1112basic_stringIcSt11char_traitsIcESaIcEEC2IS3_EEPKcRKS3_ = comdat any

$_ZNSt10unique_ptrIN6Assimp8IOStreamESt14default_deleteIS1_EEC2IS3_vEEPS1_ = comdat any

$_ZNKSt10unique_ptrIN6Assimp8IOStreamESt14default_deleteIS1_EEcvbEv = comdat any

$_ZNSt10unique_ptrIA_cSt14default_deleteIS0_EEC2IPcS2_vbEET_ = comdat any

$_ZNKSt10unique_ptrIA_cSt14default_deleteIS0_EE3getEv = comdat any

$_ZNKSt10unique_ptrIN6Assimp8IOStreamESt14default_deleteIS1_EEptEv = comdat any

$_ZN6Assimp6Logger5debugIJRA42_KcRPS2_EEEvDpOT_ = comdat any

$_ZNSt10unique_ptrIA_cSt14default_deleteIS0_EED2Ev = comdat any

$_ZNSt10unique_ptrIN6Assimp8IOStreamESt14default_deleteIS1_EED2Ev = comdat any

$_ZNSt3setINSt7__cxx1112basic_stringIcSt11char_traitsIcESaIcEEESt4lessIS5_ESaIS5_EEC2Ev = comdat any

$_ZNKSt16initializer_listIPKcE5beginEv = comdat any

$_ZNKSt16initializer_listIPKcE3endEv = comdat any

$_ZNSt3setINSt7__cxx1112basic_stringIcSt11char_traitsIcESaIcEEESt4lessIS5_ESaIS5_EE7emplaceIJRPKcEEESt4pairISt23_Rb_tree_const_iteratorIS5_EbEDpOT_ = comdat any

$_ZNSt3setINSt7__cxx1112basic_stringIcSt11char_traitsIcESaIcEEESt4lessIS5_ESaIS5_EED2Ev = comdat any

$_ZNKSt3setINSt7__cxx1112basic_stringIcSt11char_traitsIcESaIcEEESt4lessIS5_ESaIS5_EE5beginEv = comdat any

$_ZNKSt3setINSt7__cxx1112basic_stringIcSt11char_traitsIcESaIcEEESt4lessIS5_ESaIS5_EE3endEv = comdat any

$_ZStneRKSt23_Rb_tree_const_iteratorINSt7__cxx1112basic_stringIcSt11char_traitsIcESaIcEEEES8_ = comdat any

$_ZNKSt23_Rb_tree_const_iteratorINSt7__cxx1112basic_stringIcSt11char_traitsIcESaIcEEEEdeEv = comdat any

$_ZStplIcSt11char_traitsIcESaIcEENSt7__cxx1112basic_stringIT_T0_T1_EEPKS5_RKS8_ = comdat any

$_ZN6Assimp14ASSIMP_stricmpEPKcS1_ = comdat any

$_ZNSt23_Rb_tree_const_iteratorINSt7__cxx1112basic_stringIcSt11char_traitsIcESaIcEEEEppEv = comdat any

$_Z10ai_tolowerRKNSt7__cxx1112basic_stringIcSt11char_traitsIcESaIcEEE = comdat any

$_ZN6Assimp8ByteSwap7SwappedItEET_S2_ = comdat any

$_ZN6Assimp8ByteSwap7SwappedIjEET_S2_ = comdat any

$_ZNKSt6vectorIcSaIcEE4sizeEv = comdat any

$_ZN17DeadlyImportErrorC2EPKc = comdat any

$_ZN17DeadlyImportErrorD2Ev = comdat any

$_ZNSt6vectorIcSaIcEEixEm = comdat any

$_ZSt4copyIN9__gnu_cxx17__normal_iteratorIPcSt6vectorIcSaIcEEEES6_ET0_T_S8_S7_ = comdat any

$_ZNSt6vectorIcSaIcEE5beginEv = comdat any

$_ZNK9__gnu_cxx17__normal_iteratorIPcSt6vectorIcSaIcEEEplEl = comdat any

$_ZNSt6vectorIcSaIcEE3endEv = comdat any

$_ZNSt6vectorIcSaIcEE6resizeEm = comdat any

$_ZNSt6vectorIcSaIcEE5frontEv = comdat any

$_ZNSt6vectorIcSaIcEE4backEv = comdat any

$_ZNSt6vectorIcSaIcEEC2Ev = comdat any

$_ZN4utf88utf32to8ISt20back_insert_iteratorISt6vectorIcSaIcEEEPiEET_T0_S8_S7_ = comdat any

$_ZSt13back_inserterISt6vectorIcSaIcEEESt20back_insert_iteratorIT_ERS4_ = comdat any

$_ZNSt6vectorIcSaIcEED2Ev = comdat any

$_ZN6Assimp8ByteSwap5Swap2EPv = comdat any

$_ZNSt6vectorIhSaIhEEC2Ev = comdat any

$_ZN4utf88utf16to8IN9__gnu_cxx17__normal_iteratorIPcSt6vectorIcSaIcEEEESt20back_insert_iteratorIS4_IhSaIhEEEEET0_T_SD_SC_ = comdat any

$_ZSt13back_inserterISt6vectorIhSaIhEEESt20back_insert_iteratorIT_ERS4_ = comdat any

$_ZNSt6vectorIhSaIhEED2Ev = comdat any

$_ZSt3hexRSt8ios_base = comdat any

$_ZN6Assimp6Logger5errorIJNSt7__cxx1112basic_stringIcSt11char_traitsIcESaIcEEEEEEvDpOT_ = comdat any

$_ZNSt6vectorIcSaIcEE7reserveEm = comdat any

$_ZNSt6vectorIcSaIcEE9push_backEOc = comdat any

$_ZN6Assimp9BatchDataC2EPNS_8IOSystemEb = comdat any

$_ZNSt7__cxx114listIN6Assimp11LoadRequestESaIS2_EE5beginEv = comdat any

$_ZStneRKSt14_List_iteratorIN6Assimp11LoadRequestEES4_ = comdat any

$_ZNSt7__cxx114listIN6Assimp11LoadRequestESaIS2_EE3endEv = comdat any

$_ZNKSt14_List_iteratorIN6Assimp11LoadRequestEEdeEv = comdat any

$_ZNSt14_List_iteratorIN6Assimp11LoadRequestEEppEv = comdat any

$_ZN6Assimp9BatchDataD2Ev = comdat any

$_ZNK6Assimp8IOSystem12ComparePathsERKNSt7__cxx1112basic_stringIcSt11char_traitsIcESaIcEEES8_ = comdat any

$_ZNK6Assimp11BatchLoader11PropertyMapeqERKS1_ = comdat any

$_ZNK6Assimp11BatchLoader11PropertyMap5emptyEv = comdat any

$_ZNSt7__cxx114listIN6Assimp11LoadRequestESaIS2_EE12emplace_backIJRKNS_12basic_stringIcSt11char_traitsIcESaIcEEERjRPKNS1_11BatchLoader11PropertyMapESD_EEERS2_DpOT_ = comdat any

$_ZNSt7__cxx114listIN6Assimp11LoadRequestESaIS2_EE5eraseESt20_List_const_iteratorIS2_E = comdat any

$_ZNSt20_List_const_iteratorIN6Assimp11LoadRequestEEC2ERKSt14_List_iteratorIS1_E = comdat any

$_ZN6Assimp8Importer5PimplEv = comdat any

$_ZNSt3mapIjfSt4lessIjESaISt4pairIKjfEEEaSERKS6_ = comdat any

$_ZNSt3mapIjiSt4lessIjESaISt4pairIKjiEEEaSERKS6_ = comdat any

$_ZNSt3mapIjNSt7__cxx1112basic_stringIcSt11char_traitsIcESaIcEEESt4lessIjESaISt4pairIKjS5_EEEaSERKSC_ = comdat any

$_ZNSt3mapIj12aiMatrix4x4tIfESt4lessIjESaISt4pairIKjS1_EEEaSERKS8_ = comdat any

$_ZN6Assimp6Logger4infoIJRA7_KcRKNSt7__cxx1112basic_stringIcSt11char_traitsIcESaIcEEEEEEvDpOT_ = comdat any

$_ZN6Assimp8Importer8ReadFileERKNSt7__cxx1112basic_stringIcSt11char_traitsIcESaIcEEEj = comdat any

$_ZN6Assimp8IOSystemD2Ev = comdat any

$_ZN6Assimp8IOSystem13PushDirectoryERKNSt7__cxx1112basic_stringIcSt11char_traitsIcESaIcEEE = comdat any

$_ZNK6Assimp8IOSystem9StackSizeEv = comdat any

$_ZN6Assimp8IOSystem12PopDirectoryEv = comdat any

$_ZN6Assimp8IOSystem15CreateDirectoryERKNSt7__cxx1112basic_stringIcSt11char_traitsIcESaIcEEE = comdat any

$_ZN6Assimp8IOSystem15ChangeDirectoryERKNSt7__cxx1112basic_stringIcSt11char_traitsIcESaIcEEE = comdat any

$_ZN6Assimp8IOSystem10DeleteFileERKNSt7__cxx1112basic_stringIcSt11char_traitsIcESaIcEEE = comdat any

$_ZN6Assimp9LogStreamD2Ev = comdat any

$_ZN6Assimp6LoggerD2Ev = comdat any

$_ZN6Assimp8IOStreamD2Ev = comdat any

$_ZN6Assimp8IOSystemC2Ev = comdat any

$_ZNK9__gnu_cxx17__normal_iteratorIPcNSt7__cxx1112basic_stringIcSt11char_traitsIcESaIcEEEEmiEl = comdat any

$_ZNK9__gnu_cxx17__normal_iteratorIPcNSt7__cxx1112basic_stringIcSt11char_traitsIcESaIcEEEEdeEv = comdat any

$_ZN6Assimp6Logger4infoIJRA27_KcRNSt7__cxx1112basic_stringIcSt11char_traitsIcESaIcEEERA2_S2_EEEvDpOT_ = comdat any

$_ZN6Assimp16FileSystemFilterD0Ev = comdat any

$_ZNK6Assimp16FileSystemFilter6ExistsEPKc = comdat any

$_ZNK6Assimp16FileSystemFilter14getOsSeparatorEv = comdat any

$_ZN6Assimp16FileSystemFilter4OpenEPKcS2_ = comdat any

$_ZN6Assimp16FileSystemFilter5CloseEPNS_8IOStreamE = comdat any

$_ZNK6Assimp16FileSystemFilter12ComparePathsEPKcS2_ = comdat any

$_ZN6Assimp16FileSystemFilter13PushDirectoryERKNSt7__cxx1112basic_stringIcSt11char_traitsIcESaIcEEE = comdat any

$_ZNK6Assimp16FileSystemFilter16CurrentDirectoryB5cxx11Ev = comdat any

$_ZNK6Assimp16FileSystemFilter9StackSizeEv = comdat any

$_ZN6Assimp16FileSystemFilter12PopDirectoryEv = comdat any

$_ZN6Assimp16FileSystemFilter15CreateDirectoryERKNSt7__cxx1112basic_stringIcSt11char_traitsIcESaIcEEE = comdat any

$_ZN6Assimp16FileSystemFilter15ChangeDirectoryERKNSt7__cxx1112basic_stringIcSt11char_traitsIcESaIcEEE = comdat any

$_ZN6Assimp16FileSystemFilter10DeleteFileERKNSt7__cxx1112basic_stringIcSt11char_traitsIcESaIcEEE = comdat any

$_ZNSt6vectorINSt7__cxx1112basic_stringIcSt11char_traitsIcESaIcEEESaIS5_EEC2Ev = comdat any

$_ZNSt12_Vector_baseINSt7__cxx1112basic_stringIcSt11char_traitsIcESaIcEEESaIS5_EEC2Ev = comdat any

$_ZNSt12_Vector_baseINSt7__cxx1112basic_stringIcSt11char_traitsIcESaIcEEESaIS5_EE12_Vector_implC2Ev = comdat any

$_ZNSaINSt7__cxx1112basic_stringIcSt11char_traitsIcESaIcEEEEC2Ev = comdat any

$_ZNSt12_Vector_baseINSt7__cxx1112basic_stringIcSt11char_traitsIcESaIcEEESaIS5_EE17_Vector_impl_dataC2Ev = comdat any

$_ZNSt15__new_allocatorINSt7__cxx1112basic_stringIcSt11char_traitsIcESaIcEEEEC2Ev = comdat any

$_ZN9__gnu_cxx17__normal_iteratorIPcNSt7__cxx1112basic_stringIcSt11char_traitsIcESaIcEEEEC2ERKS1_ = comdat any

$_ZN6Assimp6Logger13formatMessageIJRA2_KcERNSt7__cxx1112basic_stringIcSt11char_traitsIcESaIcEEEEESA_NS_9Formatter15basic_formatterIcS8_S9_EEOT0_DpOT_ = comdat any

$_ZN6Assimp9Formatter15basic_formatterIcSt11char_traitsIcESaIcEEC2IA27_cEERKT_ = comdat any

$_ZN6Assimp9Formatter15basic_formatterIcSt11char_traitsIcESaIcEED2Ev = comdat any

$_ZN6Assimp6Logger13formatMessageIJERA2_KcEENSt7__cxx1112basic_stringIcSt11char_traitsIcESaIcEEENS_9Formatter15basic_formatterIcS8_S9_EEOT0_DpOT_ = comdat any

$_ZN6Assimp9Formatter15basic_formatterIcSt11char_traitsIcESaIcEElsINSt7__cxx1112basic_stringIcS3_S4_EETnPNSt9enable_ifIXntsr3std10is_base_ofISt9exceptionT_EE5valueEvE4typeELPv0EEERS5_RKSC_ = comdat any

$_ZN6Assimp9Formatter15basic_formatterIcSt11char_traitsIcESaIcEEC2EOS5_ = comdat any

$_ZN6Assimp6Logger13formatMessageB5cxx11ENS_9Formatter15basic_formatterIcSt11char_traitsIcESaIcEEE = comdat any

$_ZN6Assimp9Formatter15basic_formatterIcSt11char_traitsIcESaIcEElsIA2_cTnPNSt9enable_ifIXntsr3std10is_base_ofISt9exceptionT_EE5valueEvE4typeELPv0EEERS5_RKSA_ = comdat any

$_ZNK6Assimp9Formatter15basic_formatterIcSt11char_traitsIcESaIcEEcvNSt7__cxx1112basic_stringIcS3_S4_EEEv = comdat any

$_ZStneIcSt11char_traitsIcESaIcEEbRKNSt7__cxx1112basic_stringIT_T0_T1_EESA_ = comdat any

$_ZNK6Assimp16FileSystemFilter9BuildPathERNSt7__cxx1112basic_stringIcSt11char_traitsIcESaIcEEE = comdat any

$_ZNK6Assimp16FileSystemFilter7CleanupERNSt7__cxx1112basic_stringIcSt11char_traitsIcESaIcEEE = comdat any

$_ZNK6Assimp8IOSystem6ExistsERKNSt7__cxx1112basic_stringIcSt11char_traitsIcESaIcEEE = comdat any

$_ZSteqIcEN9__gnu_cxx11__enable_ifIXsr9__is_charIT_EE7__valueEbE6__typeERKNSt7__cxx1112basic_stringIS2_St11char_traitsIS2_ESaIS2_EEESC_ = comdat any

$_ZNSt11char_traitsIcE7compareEPKcS2_m = comdat any

$_ZStplIcSt11char_traitsIcESaIcEENSt7__cxx1112basic_stringIT_T0_T1_EERKS8_SA_ = comdat any

$_ZN6Assimp16IsSpaceOrNewLineIcEEbT_ = comdat any

$_ZN9__gnu_cxx17__normal_iteratorIPcNSt7__cxx1112basic_stringIcSt11char_traitsIcESaIcEEEEppEv = comdat any

$_ZN9__gnu_cxxneIPcNSt7__cxx1112basic_stringIcSt11char_traitsIcESaIcEEEEEbRKNS_17__normal_iteratorIT_T0_EESD_ = comdat any

$_ZN9__gnu_cxx17__normal_iteratorIPKcNSt7__cxx1112basic_stringIcSt11char_traitsIcESaIcEEEEC2IPcvEERKNS0_IT_S8_EE = comdat any

$_ZNK9__gnu_cxx17__normal_iteratorIPcNSt7__cxx1112basic_stringIcSt11char_traitsIcESaIcEEEEplEl = comdat any

$_ZN9__gnu_cxxltIPcNSt7__cxx1112basic_stringIcSt11char_traitsIcESaIcEEEEEbRKNS_17__normal_iteratorIT_T0_EESD_ = comdat any

$_ZSt8distanceIN9__gnu_cxx17__normal_iteratorIPcNSt7__cxx1112basic_stringIcSt11char_traitsIcESaIcEEEEEENSt15iterator_traitsIT_E15difference_typeESB_SB_ = comdat any

$_ZN9__gnu_cxx17__normal_iteratorIPcNSt7__cxx1112basic_stringIcSt11char_traitsIcESaIcEEEEpLEl = comdat any

$_ZN9__gnu_cxxeqIPcNSt7__cxx1112basic_stringIcSt11char_traitsIcESaIcEEEEEbRKNS_17__normal_iteratorIT_T0_EESD_ = comdat any

$_ZN9__gnu_cxx17__normal_iteratorIPcNSt7__cxx1112basic_stringIcSt11char_traitsIcESaIcEEEEmmEv = comdat any

$_ZN9__gnu_cxxmiIPcNSt7__cxx1112basic_stringIcSt11char_traitsIcESaIcEEEEENS_17__normal_iteratorIT_T0_E15difference_typeERKSB_SE_ = comdat any

$_ZN6Assimp5IsHexEc = comdat any

$_ZN6Assimp17HexOctetToDecimalEPKc = comdat any

$_ZN6Assimp7IsSpaceIcEEbT_ = comdat any

$_ZN6Assimp9IsLineEndIcEEbT_ = comdat any

$_ZNK9__gnu_cxx17__normal_iteratorIPcNSt7__cxx1112basic_stringIcSt11char_traitsIcESaIcEEEE4baseEv = comdat any

$_ZSt10__distanceIN9__gnu_cxx17__normal_iteratorIPcNSt7__cxx1112basic_stringIcSt11char_traitsIcESaIcEEEEEENSt15iterator_traitsIT_E15difference_typeESB_SB_St26random_access_iterator_tag = comdat any

$_ZSt19__iterator_categoryIN9__gnu_cxx17__normal_iteratorIPcNSt7__cxx1112basic_stringIcSt11char_traitsIcESaIcEEEEEENSt15iterator_traitsIT_E17iterator_categoryERKSB_ = comdat any

$_ZN6Assimp17HexDigitToDecimalEc = comdat any

$_ZNSt15__exception_ptr13exception_ptrC2EOS0_ = comdat any

$_ZNSt15__exception_ptr13exception_ptr4swapERS0_ = comdat any

$_ZNSt8_Rb_treeINSt7__cxx1112basic_stringIcSt11char_traitsIcESaIcEEES5_St9_IdentityIS5_ESt4lessIS5_ESaIS5_EEC2Ev = comdat any

$_ZNSt8_Rb_treeINSt7__cxx1112basic_stringIcSt11char_traitsIcESaIcEEES5_St9_IdentityIS5_ESt4lessIS5_ESaIS5_EE13_Rb_tree_implIS9_Lb1EEC2Ev = comdat any

$_ZNSaISt13_Rb_tree_nodeINSt7__cxx1112basic_stringIcSt11char_traitsIcESaIcEEEEEC2Ev = comdat any

$_ZNSt20_Rb_tree_key_compareISt4lessINSt7__cxx1112basic_stringIcSt11char_traitsIcESaIcEEEEEC2Ev = comdat any

$_ZNSt15_Rb_tree_headerC2Ev = comdat any

$_ZNSt15__new_allocatorISt13_Rb_tree_nodeINSt7__cxx1112basic_stringIcSt11char_traitsIcESaIcEEEEEC2Ev = comdat any

$_ZNSt15_Rb_tree_header8_M_resetEv = comdat any

$_ZNKSt16initializer_listIPKcE4sizeEv = comdat any

$_ZNSt8_Rb_treeINSt7__cxx1112basic_stringIcSt11char_traitsIcESaIcEEES5_St9_IdentityIS5_ESt4lessIS5_ESaIS5_EED2Ev = comdat any

$_ZNSt8_Rb_treeINSt7__cxx1112basic_stringIcSt11char_traitsIcESaIcEEES5_St9_IdentityIS5_ESt4lessIS5_ESaIS5_EE8_M_eraseEPSt13_Rb_tree_nodeIS5_E = comdat any

$_ZNSt8_Rb_treeINSt7__cxx1112basic_stringIcSt11char_traitsIcESaIcEEES5_St9_IdentityIS5_ESt4lessIS5_ESaIS5_EE8_M_beginEv = comdat any

$_ZNSt8_Rb_treeINSt7__cxx1112basic_stringIcSt11char_traitsIcESaIcEEES5_St9_IdentityIS5_ESt4lessIS5_ESaIS5_EE13_Rb_tree_implIS9_Lb1EED2Ev = comdat any

$_ZNSt8_Rb_treeINSt7__cxx1112basic_stringIcSt11char_traitsIcESaIcEEES5_St9_IdentityIS5_ESt4lessIS5_ESaIS5_EE8_S_rightEPSt18_Rb_tree_node_base = comdat any

$_ZNSt8_Rb_treeINSt7__cxx1112basic_stringIcSt11char_traitsIcESaIcEEES5_St9_IdentityIS5_ESt4lessIS5_ESaIS5_EE7_S_leftEPSt18_Rb_tree_node_base = comdat any

$_ZNSt8_Rb_treeINSt7__cxx1112basic_stringIcSt11char_traitsIcESaIcEEES5_St9_IdentityIS5_ESt4lessIS5_ESaIS5_EE12_M_drop_nodeEPSt13_Rb_tree_nodeIS5_E = comdat any

$_ZNSt8_Rb_treeINSt7__cxx1112basic_stringIcSt11char_traitsIcESaIcEEES5_St9_IdentityIS5_ESt4lessIS5_ESaIS5_EE15_M_destroy_nodeEPSt13_Rb_tree_nodeIS5_E = comdat any

$_ZNSt8_Rb_treeINSt7__cxx1112basic_stringIcSt11char_traitsIcESaIcEEES5_St9_IdentityIS5_ESt4lessIS5_ESaIS5_EE11_M_put_nodeEPSt13_Rb_tree_nodeIS5_E = comdat any

$_ZNSt16allocator_traitsISaISt13_Rb_tree_nodeINSt7__cxx1112basic_stringIcSt11char_traitsIcESaIcEEEEEE7destroyIS6_EEvRS8_PT_ = comdat any

$_ZNSt8_Rb_treeINSt7__cxx1112basic_stringIcSt11char_traitsIcESaIcEEES5_St9_IdentityIS5_ESt4lessIS5_ESaIS5_EE21_M_get_Node_allocatorEv = comdat any

$_ZNSt13_Rb_tree_nodeINSt7__cxx1112basic_stringIcSt11char_traitsIcESaIcEEEE9_M_valptrEv = comdat any

$_ZNSt15__new_allocatorISt13_Rb_tree_nodeINSt7__cxx1112basic_stringIcSt11char_traitsIcESaIcEEEEE7destroyIS6_EEvPT_ = comdat any

$_ZN9__gnu_cxx16__aligned_membufINSt7__cxx1112basic_stringIcSt11char_traitsIcESaIcEEEE6_M_ptrEv = comdat any

$_ZN9__gnu_cxx16__aligned_membufINSt7__cxx1112basic_stringIcSt11char_traitsIcESaIcEEEE7_M_addrEv = comdat any

$_ZNSt16allocator_traitsISaISt13_Rb_tree_nodeINSt7__cxx1112basic_stringIcSt11char_traitsIcESaIcEEEEEE10deallocateERS8_PS7_m = comdat any

$_ZNSt15__new_allocatorISt13_Rb_tree_nodeINSt7__cxx1112basic_stringIcSt11char_traitsIcESaIcEEEEE10deallocateEPS7_m = comdat any

$_ZNKSt8_Rb_treeINSt7__cxx1112basic_stringIcSt11char_traitsIcESaIcEEES5_St9_IdentityIS5_ESt4lessIS5_ESaIS5_EE9_M_mbeginEv = comdat any

$_ZNSaISt13_Rb_tree_nodeINSt7__cxx1112basic_stringIcSt11char_traitsIcESaIcEEEEED2Ev = comdat any

$_ZNSt15__new_allocatorISt13_Rb_tree_nodeINSt7__cxx1112basic_stringIcSt11char_traitsIcESaIcEEEEED2Ev = comdat any

$_ZN9__gnu_cxxeqIPKcNSt7__cxx1112basic_stringIcSt11char_traitsIcESaIcEEEEEbRKNS_17__normal_iteratorIT_T0_EESE_ = comdat any

$_ZNK9__gnu_cxx17__normal_iteratorIPKcNSt7__cxx1112basic_stringIcSt11char_traitsIcESaIcEEEE4baseEv = comdat any

$_ZSt19__iterator_categoryIN9__gnu_cxx17__normal_iteratorIPKcNSt7__cxx1112basic_stringIcSt11char_traitsIcESaIcEEEEEENSt15iterator_traitsIT_E17iterator_categoryERKSC_ = comdat any

$_ZN9__gnu_cxxmiIPKcNSt7__cxx1112basic_stringIcSt11char_traitsIcESaIcEEEEENS_17__normal_iteratorIT_T0_E15difference_typeERKSC_SF_ = comdat any

$_ZN9__gnu_cxx17__normal_iteratorIPKcNSt7__cxx1112basic_stringIcSt11char_traitsIcESaIcEEEEppEv = comdat any

$_ZNK9__gnu_cxx17__normal_iteratorIPKcNSt7__cxx1112basic_stringIcSt11char_traitsIcESaIcEEEEdeEv = comdat any

$_Z12ai_trim_leftRNSt7__cxx1112basic_stringIcSt11char_traitsIcESaIcEEE = comdat any

$_Z13ai_trim_rightRNSt7__cxx1112basic_stringIcSt11char_traitsIcESaIcEEE = comdat any

$_ZSt9transformIN9__gnu_cxx17__normal_iteratorIPcNSt7__cxx1112basic_stringIcSt11char_traitsIcESaIcEEEEES9_Z10ai_tolowerRKS8_EUlhE_ET0_T_SE_SD_T1_ = comdat any

$_ZSt7find_ifIN9__gnu_cxx17__normal_iteratorIPcNSt7__cxx1112basic_stringIcSt11char_traitsIcESaIcEEEEEZ12ai_trim_leftRS8_EUlhE_ET_SC_SC_T0_ = comdat any

$_ZSt9__find_ifIN9__gnu_cxx17__normal_iteratorIPcNSt7__cxx1112basic_stringIcSt11char_traitsIcESaIcEEEEENS0_5__ops10_Iter_predIZ12ai_trim_leftRS8_EUlhE_EEET_SF_SF_T0_ = comdat any

$_ZN9__gnu_cxx5__ops11__pred_iterIZ12ai_trim_leftRNSt7__cxx1112basic_stringIcSt11char_traitsIcESaIcEEEEUlhE_EENS0_10_Iter_predIT_EESB_ = comdat any

$_ZSt9__find_ifIN9__gnu_cxx17__normal_iteratorIPcNSt7__cxx1112basic_stringIcSt11char_traitsIcESaIcEEEEENS0_5__ops10_Iter_predIZ12ai_trim_leftRS8_EUlhE_EEET_SF_SF_T0_St26random_access_iterator_tag = comdat any

$_ZN9__gnu_cxx5__ops10_Iter_predIZ12ai_trim_leftRNSt7__cxx1112basic_stringIcSt11char_traitsIcESaIcEEEEUlhE_EclINS_17__normal_iteratorIPcS7_EEEEbT_ = comdat any

$_ZZ12ai_trim_leftRNSt7__cxx1112basic_stringIcSt11char_traitsIcESaIcEEEENKUlhE_clEh = comdat any

$_ZN9__gnu_cxx5__ops10_Iter_predIZ12ai_trim_leftRNSt7__cxx1112basic_stringIcSt11char_traitsIcESaIcEEEEUlhE_EC2ES9_ = comdat any

$_ZSt7find_ifISt16reverse_iteratorIN9__gnu_cxx17__normal_iteratorIPcNSt7__cxx1112basic_stringIcSt11char_traitsIcESaIcEEEEEEZ13ai_trim_rightRS9_EUlhE_ET_SE_SE_T0_ = comdat any

$_ZNKSt16reverse_iteratorIN9__gnu_cxx17__normal_iteratorIPcNSt7__cxx1112basic_stringIcSt11char_traitsIcESaIcEEEEEE4baseEv = comdat any

$_ZSt9__find_ifISt16reverse_iteratorIN9__gnu_cxx17__normal_iteratorIPcNSt7__cxx1112basic_stringIcSt11char_traitsIcESaIcEEEEEENS1_5__ops10_Iter_predIZ13ai_trim_rightRS9_EUlhE_EEET_SH_SH_T0_ = comdat any

$_ZNSt16reverse_iteratorIN9__gnu_cxx17__normal_iteratorIPcNSt7__cxx1112basic_stringIcSt11char_traitsIcESaIcEEEEEEC2ERKSA_ = comdat any

$_ZN9__gnu_cxx5__ops11__pred_iterIZ13ai_trim_rightRNSt7__cxx1112basic_stringIcSt11char_traitsIcESaIcEEEEUlhE_EENS0_10_Iter_predIT_EESB_ = comdat any

$_ZSt9__find_ifISt16reverse_iteratorIN9__gnu_cxx17__normal_iteratorIPcNSt7__cxx1112basic_stringIcSt11char_traitsIcESaIcEEEEEENS1_5__ops10_Iter_predIZ13ai_trim_rightRS9_EUlhE_EEET_SH_SH_T0_St26random_access_iterator_tag = comdat any

$_ZSt19__iterator_categoryISt16reverse_iteratorIN9__gnu_cxx17__normal_iteratorIPcNSt7__cxx1112basic_stringIcSt11char_traitsIcESaIcEEEEEEENSt15iterator_traitsIT_E17iterator_categoryERKSD_ = comdat any

$_ZStmiIN9__gnu_cxx17__normal_iteratorIPcNSt7__cxx1112basic_stringIcSt11char_traitsIcESaIcEEEEES9_EDTmicldtfp0_4baseEcldtfp_4baseEERKSt16reverse_iteratorIT_ERKSB_IT0_E = comdat any

$_ZN9__gnu_cxx5__ops10_Iter_predIZ13ai_trim_rightRNSt7__cxx1112basic_stringIcSt11char_traitsIcESaIcEEEEUlhE_EclISt16reverse_iteratorINS_17__normal_iteratorIPcS7_EEEEEbT_ = comdat any

$_ZNSt16reverse_iteratorIN9__gnu_cxx17__normal_iteratorIPcNSt7__cxx1112basic_stringIcSt11char_traitsIcESaIcEEEEEEppEv = comdat any

$_ZZ13ai_trim_rightRNSt7__cxx1112basic_stringIcSt11char_traitsIcESaIcEEEENKUlhE_clEh = comdat any

$_ZNKSt16reverse_iteratorIN9__gnu_cxx17__normal_iteratorIPcNSt7__cxx1112basic_stringIcSt11char_traitsIcESaIcEEEEEEdeEv = comdat any

$_ZN9__gnu_cxx5__ops10_Iter_predIZ13ai_trim_rightRNSt7__cxx1112basic_stringIcSt11char_traitsIcESaIcEEEEUlhE_EC2ES9_ = comdat any

$_ZZ10ai_tolowerRKNSt7__cxx1112basic_stringIcSt11char_traitsIcESaIcEEEENKUlhE_clEh = comdat any

$_Z10ai_tolowerIhET_S0_ = comdat any

$_ZN6Assimp9Formatter15basic_formatterIcSt11char_traitsIcESaIcEEC2Ev = comdat any

$_ZN15DeadlyErrorBaseC2IJEPKcEEN6Assimp9Formatter15basic_formatterIcSt11char_traitsIcESaIcEEEOT0_DpOT_ = comdat any

$_ZN17DeadlyImportErrorD0Ev = comdat any

$_ZN6Assimp9Formatter15basic_formatterIcSt11char_traitsIcESaIcEElsIPKcTnPNSt9enable_ifIXntsr3std10is_base_ofISt9exceptionT_EE5valueEvE4typeELPv0EEERS5_RKSB_ = comdat any

$_ZN15DeadlyErrorBaseD2Ev = comdat any

$_ZNSt12_Vector_baseIcSaIcEEC2Ev = comdat any

$_ZNSt12_Vector_baseIcSaIcEE12_Vector_implC2Ev = comdat any

$_ZNSt12_Vector_baseIcSaIcEE17_Vector_impl_dataC2Ev = comdat any

$_ZSt4swapIhENSt9enable_ifIXsr6__and_ISt6__not_ISt15__is_tuple_likeIT_EESt21is_move_constructibleIS3_ESt18is_move_assignableIS3_EEE5valueEvE4typeERS3_SC_ = comdat any

$_ZNSt12_Vector_baseIhSaIhEEC2Ev = comdat any

$_ZNSt12_Vector_baseIhSaIhEE12_Vector_implC2Ev = comdat any

$_ZNSaIhEC2Ev = comdat any

$_ZNSt12_Vector_baseIhSaIhEE17_Vector_impl_dataC2Ev = comdat any

$_ZNSt15__new_allocatorIhEC2Ev = comdat any

$_ZNSt8ios_base4setfESt13_Ios_FmtflagsS0_ = comdat any

$_ZStaNRSt13_Ios_FmtflagsS_ = comdat any

$_ZStcoSt13_Ios_Fmtflags = comdat any

$_ZStoRRSt13_Ios_FmtflagsS_ = comdat any

$_ZStanSt13_Ios_FmtflagsS_ = comdat any

$_ZStorSt13_Ios_FmtflagsS_ = comdat any

$_ZNSt7__cxx114listIN6Assimp11LoadRequestESaIS2_EEC2Ev = comdat any

$_ZNSt7__cxx114listIN6Assimp11LoadRequestESaIS2_EED2Ev = comdat any

$_ZNSt7__cxx1110_List_baseIN6Assimp11LoadRequestESaIS2_EEC2Ev = comdat any

$_ZNSt7__cxx1110_List_baseIN6Assimp11LoadRequestESaIS2_EE10_List_implC2Ev = comdat any

$_ZNSaISt10_List_nodeIN6Assimp11LoadRequestEEEC2Ev = comdat any

$_ZNSt8__detail17_List_node_headerC2Ev = comdat any

$_ZNSt15__new_allocatorISt10_List_nodeIN6Assimp11LoadRequestEEEC2Ev = comdat any

$_ZNSt8__detail17_List_node_header7_M_initEv = comdat any

$_ZNSt7__cxx1110_List_baseIN6Assimp11LoadRequestESaIS2_EED2Ev = comdat any

$_ZNSt7__cxx1110_List_baseIN6Assimp11LoadRequestESaIS2_EE8_M_clearEv = comdat any

$_ZNSt7__cxx1110_List_baseIN6Assimp11LoadRequestESaIS2_EE10_List_implD2Ev = comdat any

$_ZNSt10_List_nodeIN6Assimp11LoadRequestEE9_M_valptrEv = comdat any

$_ZNSt16allocator_traitsISaISt10_List_nodeIN6Assimp11LoadRequestEEEE7destroyIS2_EEvRS4_PT_ = comdat any

$_ZNSt7__cxx1110_List_baseIN6Assimp11LoadRequestESaIS2_EE21_M_get_Node_allocatorEv = comdat any

$_ZNSt7__cxx1110_List_baseIN6Assimp11LoadRequestESaIS2_EE11_M_put_nodeEPSt10_List_nodeIS2_E = comdat any

$_ZN9__gnu_cxx16__aligned_membufIN6Assimp11LoadRequestEE6_M_ptrEv = comdat any

$_ZN9__gnu_cxx16__aligned_membufIN6Assimp11LoadRequestEE7_M_addrEv = comdat any

$_ZNSt15__new_allocatorISt10_List_nodeIN6Assimp11LoadRequestEEE7destroyIS2_EEvPT_ = comdat any

$_ZN6Assimp11LoadRequestD2Ev = comdat any

$_ZN6Assimp11BatchLoader11PropertyMapD2Ev = comdat any

$_ZNSt3mapIj12aiMatrix4x4tIfESt4lessIjESaISt4pairIKjS1_EEED2Ev = comdat any

$_ZNSt3mapIjNSt7__cxx1112basic_stringIcSt11char_traitsIcESaIcEEESt4lessIjESaISt4pairIKjS5_EEED2Ev = comdat any

$_ZNSt3mapIjfSt4lessIjESaISt4pairIKjfEEED2Ev = comdat any

$_ZNSt3mapIjiSt4lessIjESaISt4pairIKjiEEED2Ev = comdat any

$_ZNSt8_Rb_treeIjSt4pairIKj12aiMatrix4x4tIfEESt10_Select1stIS4_ESt4lessIjESaIS4_EED2Ev = comdat any

$_ZNSt8_Rb_treeIjSt4pairIKj12aiMatrix4x4tIfEESt10_Select1stIS4_ESt4lessIjESaIS4_EE8_M_eraseEPSt13_Rb_tree_nodeIS4_E = comdat any

$_ZNSt8_Rb_treeIjSt4pairIKj12aiMatrix4x4tIfEESt10_Select1stIS4_ESt4lessIjESaIS4_EE8_M_beginEv = comdat any

$_ZNSt8_Rb_treeIjSt4pairIKj12aiMatrix4x4tIfEESt10_Select1stIS4_ESt4lessIjESaIS4_EE13_Rb_tree_implIS8_Lb1EED2Ev = comdat any

$_ZNSt8_Rb_treeIjSt4pairIKj12aiMatrix4x4tIfEESt10_Select1stIS4_ESt4lessIjESaIS4_EE8_S_rightEPSt18_Rb_tree_node_base = comdat any

$_ZNSt8_Rb_treeIjSt4pairIKj12aiMatrix4x4tIfEESt10_Select1stIS4_ESt4lessIjESaIS4_EE7_S_leftEPSt18_Rb_tree_node_base = comdat any

$_ZNSt8_Rb_treeIjSt4pairIKj12aiMatrix4x4tIfEESt10_Select1stIS4_ESt4lessIjESaIS4_EE12_M_drop_nodeEPSt13_Rb_tree_nodeIS4_E = comdat any

$_ZNSt8_Rb_treeIjSt4pairIKj12aiMatrix4x4tIfEESt10_Select1stIS4_ESt4lessIjESaIS4_EE15_M_destroy_nodeEPSt13_Rb_tree_nodeIS4_E = comdat any

$_ZNSt8_Rb_treeIjSt4pairIKj12aiMatrix4x4tIfEESt10_Select1stIS4_ESt4lessIjESaIS4_EE11_M_put_nodeEPSt13_Rb_tree_nodeIS4_E = comdat any

$_ZNSt16allocator_traitsISaISt13_Rb_tree_nodeISt4pairIKj12aiMatrix4x4tIfEEEEE7destroyIS5_EEvRS7_PT_ = comdat any

$_ZNSt8_Rb_treeIjSt4pairIKj12aiMatrix4x4tIfEESt10_Select1stIS4_ESt4lessIjESaIS4_EE21_M_get_Node_allocatorEv = comdat any

$_ZNSt13_Rb_tree_nodeISt4pairIKj12aiMatrix4x4tIfEEE9_M_valptrEv = comdat any

$_ZNSt15__new_allocatorISt13_Rb_tree_nodeISt4pairIKj12aiMatrix4x4tIfEEEE7destroyIS5_EEvPT_ = comdat any

$_ZN9__gnu_cxx16__aligned_membufISt4pairIKj12aiMatrix4x4tIfEEE6_M_ptrEv = comdat any

$_ZN9__gnu_cxx16__aligned_membufISt4pairIKj12aiMatrix4x4tIfEEE7_M_addrEv = comdat any

$_ZNSt16allocator_traitsISaISt13_Rb_tree_nodeISt4pairIKj12aiMatrix4x4tIfEEEEE10deallocateERS7_PS6_m = comdat any

$_ZNSt15__new_allocatorISt13_Rb_tree_nodeISt4pairIKj12aiMatrix4x4tIfEEEE10deallocateEPS6_m = comdat any

$_ZNKSt8_Rb_treeIjSt4pairIKj12aiMatrix4x4tIfEESt10_Select1stIS4_ESt4lessIjESaIS4_EE9_M_mbeginEv = comdat any

$_ZNSaISt13_Rb_tree_nodeISt4pairIKj12aiMatrix4x4tIfEEEED2Ev = comdat any

$_ZNSt15__new_allocatorISt13_Rb_tree_nodeISt4pairIKj12aiMatrix4x4tIfEEEED2Ev = comdat any

$_ZNSt8_Rb_treeIjSt4pairIKjNSt7__cxx1112basic_stringIcSt11char_traitsIcESaIcEEEESt10_Select1stIS8_ESt4lessIjESaIS8_EED2Ev = comdat any

$_ZNSt8_Rb_treeIjSt4pairIKjNSt7__cxx1112basic_stringIcSt11char_traitsIcESaIcEEEESt10_Select1stIS8_ESt4lessIjESaIS8_EE8_M_eraseEPSt13_Rb_tree_nodeIS8_E = comdat any

$_ZNSt8_Rb_treeIjSt4pairIKjNSt7__cxx1112basic_stringIcSt11char_traitsIcESaIcEEEESt10_Select1stIS8_ESt4lessIjESaIS8_EE8_M_beginEv = comdat any

$_ZNSt8_Rb_treeIjSt4pairIKjNSt7__cxx1112basic_stringIcSt11char_traitsIcESaIcEEEESt10_Select1stIS8_ESt4lessIjESaIS8_EE13_Rb_tree_implISC_Lb1EED2Ev = comdat any

$_ZNSt8_Rb_treeIjSt4pairIKjNSt7__cxx1112basic_stringIcSt11char_traitsIcESaIcEEEESt10_Select1stIS8_ESt4lessIjESaIS8_EE8_S_rightEPSt18_Rb_tree_node_base = comdat any

$_ZNSt8_Rb_treeIjSt4pairIKjNSt7__cxx1112basic_stringIcSt11char_traitsIcESaIcEEEESt10_Select1stIS8_ESt4lessIjESaIS8_EE7_S_leftEPSt18_Rb_tree_node_base = comdat any

$_ZNSt8_Rb_treeIjSt4pairIKjNSt7__cxx1112basic_stringIcSt11char_traitsIcESaIcEEEESt10_Select1stIS8_ESt4lessIjESaIS8_EE12_M_drop_nodeEPSt13_Rb_tree_nodeIS8_E = comdat any

$_ZNSt8_Rb_treeIjSt4pairIKjNSt7__cxx1112basic_stringIcSt11char_traitsIcESaIcEEEESt10_Select1stIS8_ESt4lessIjESaIS8_EE15_M_destroy_nodeEPSt13_Rb_tree_nodeIS8_E = comdat any

$_ZNSt8_Rb_treeIjSt4pairIKjNSt7__cxx1112basic_stringIcSt11char_traitsIcESaIcEEEESt10_Select1stIS8_ESt4lessIjESaIS8_EE11_M_put_nodeEPSt13_Rb_tree_nodeIS8_E = comdat any

$_ZNSt16allocator_traitsISaISt13_Rb_tree_nodeISt4pairIKjNSt7__cxx1112basic_stringIcSt11char_traitsIcESaIcEEEEEEE7destroyIS9_EEvRSB_PT_ = comdat any

$_ZNSt8_Rb_treeIjSt4pairIKjNSt7__cxx1112basic_stringIcSt11char_traitsIcESaIcEEEESt10_Select1stIS8_ESt4lessIjESaIS8_EE21_M_get_Node_allocatorEv = comdat any

$_ZNSt13_Rb_tree_nodeISt4pairIKjNSt7__cxx1112basic_stringIcSt11char_traitsIcESaIcEEEEE9_M_valptrEv = comdat any

$_ZNSt15__new_allocatorISt13_Rb_tree_nodeISt4pairIKjNSt7__cxx1112basic_stringIcSt11char_traitsIcESaIcEEEEEE7destroyIS9_EEvPT_ = comdat any

$_ZNSt4pairIKjNSt7__cxx1112basic_stringIcSt11char_traitsIcESaIcEEEED2Ev = comdat any

$_ZN9__gnu_cxx16__aligned_membufISt4pairIKjNSt7__cxx1112basic_stringIcSt11char_traitsIcESaIcEEEEE6_M_ptrEv = comdat any

$_ZN9__gnu_cxx16__aligned_membufISt4pairIKjNSt7__cxx1112basic_stringIcSt11char_traitsIcESaIcEEEEE7_M_addrEv = comdat any

$_ZNSt16allocator_traitsISaISt13_Rb_tree_nodeISt4pairIKjNSt7__cxx1112basic_stringIcSt11char_traitsIcESaIcEEEEEEE10deallocateERSB_PSA_m = comdat any

$_ZNSt15__new_allocatorISt13_Rb_tree_nodeISt4pairIKjNSt7__cxx1112basic_stringIcSt11char_traitsIcESaIcEEEEEE10deallocateEPSA_m = comdat any

$_ZNKSt8_Rb_treeIjSt4pairIKjNSt7__cxx1112basic_stringIcSt11char_traitsIcESaIcEEEESt10_Select1stIS8_ESt4lessIjESaIS8_EE9_M_mbeginEv = comdat any

$_ZNSaISt13_Rb_tree_nodeISt4pairIKjNSt7__cxx1112basic_stringIcSt11char_traitsIcESaIcEEEEEED2Ev = comdat any

$_ZNSt15__new_allocatorISt13_Rb_tree_nodeISt4pairIKjNSt7__cxx1112basic_stringIcSt11char_traitsIcESaIcEEEEEED2Ev = comdat any

$_ZNSt8_Rb_treeIjSt4pairIKjfESt10_Select1stIS2_ESt4lessIjESaIS2_EED2Ev = comdat any

$_ZNSt8_Rb_treeIjSt4pairIKjfESt10_Select1stIS2_ESt4lessIjESaIS2_EE8_M_eraseEPSt13_Rb_tree_nodeIS2_E = comdat any

$_ZNSt8_Rb_treeIjSt4pairIKjfESt10_Select1stIS2_ESt4lessIjESaIS2_EE8_M_beginEv = comdat any

$_ZNSt8_Rb_treeIjSt4pairIKjfESt10_Select1stIS2_ESt4lessIjESaIS2_EE13_Rb_tree_implIS6_Lb1EED2Ev = comdat any

$_ZNSt8_Rb_treeIjSt4pairIKjfESt10_Select1stIS2_ESt4lessIjESaIS2_EE8_S_rightEPSt18_Rb_tree_node_base = comdat any

$_ZNSt8_Rb_treeIjSt4pairIKjfESt10_Select1stIS2_ESt4lessIjESaIS2_EE7_S_leftEPSt18_Rb_tree_node_base = comdat any

$_ZNSt8_Rb_treeIjSt4pairIKjfESt10_Select1stIS2_ESt4lessIjESaIS2_EE12_M_drop_nodeEPSt13_Rb_tree_nodeIS2_E = comdat any

$_ZNSt8_Rb_treeIjSt4pairIKjfESt10_Select1stIS2_ESt4lessIjESaIS2_EE15_M_destroy_nodeEPSt13_Rb_tree_nodeIS2_E = comdat any

$_ZNSt8_Rb_treeIjSt4pairIKjfESt10_Select1stIS2_ESt4lessIjESaIS2_EE11_M_put_nodeEPSt13_Rb_tree_nodeIS2_E = comdat any

$_ZNSt16allocator_traitsISaISt13_Rb_tree_nodeISt4pairIKjfEEEE7destroyIS3_EEvRS5_PT_ = comdat any

$_ZNSt8_Rb_treeIjSt4pairIKjfESt10_Select1stIS2_ESt4lessIjESaIS2_EE21_M_get_Node_allocatorEv = comdat any

$_ZNSt13_Rb_tree_nodeISt4pairIKjfEE9_M_valptrEv = comdat any

$_ZNSt15__new_allocatorISt13_Rb_tree_nodeISt4pairIKjfEEE7destroyIS3_EEvPT_ = comdat any

$_ZN9__gnu_cxx16__aligned_membufISt4pairIKjfEE6_M_ptrEv = comdat any

$_ZN9__gnu_cxx16__aligned_membufISt4pairIKjfEE7_M_addrEv = comdat any

$_ZNSt16allocator_traitsISaISt13_Rb_tree_nodeISt4pairIKjfEEEE10deallocateERS5_PS4_m = comdat any

$_ZNSt15__new_allocatorISt13_Rb_tree_nodeISt4pairIKjfEEE10deallocateEPS4_m = comdat any

$_ZNKSt8_Rb_treeIjSt4pairIKjfESt10_Select1stIS2_ESt4lessIjESaIS2_EE9_M_mbeginEv = comdat any

$_ZNSaISt13_Rb_tree_nodeISt4pairIKjfEEED2Ev = comdat any

$_ZNSt15__new_allocatorISt13_Rb_tree_nodeISt4pairIKjfEEED2Ev = comdat any

$_ZNSt8_Rb_treeIjSt4pairIKjiESt10_Select1stIS2_ESt4lessIjESaIS2_EED2Ev = comdat any

$_ZNSt8_Rb_treeIjSt4pairIKjiESt10_Select1stIS2_ESt4lessIjESaIS2_EE8_M_eraseEPSt13_Rb_tree_nodeIS2_E = comdat any

$_ZNSt8_Rb_treeIjSt4pairIKjiESt10_Select1stIS2_ESt4lessIjESaIS2_EE8_M_beginEv = comdat any

$_ZNSt8_Rb_treeIjSt4pairIKjiESt10_Select1stIS2_ESt4lessIjESaIS2_EE13_Rb_tree_implIS6_Lb1EED2Ev = comdat any

$_ZNSt8_Rb_treeIjSt4pairIKjiESt10_Select1stIS2_ESt4lessIjESaIS2_EE8_S_rightEPSt18_Rb_tree_node_base = comdat any

$_ZNSt8_Rb_treeIjSt4pairIKjiESt10_Select1stIS2_ESt4lessIjESaIS2_EE7_S_leftEPSt18_Rb_tree_node_base = comdat any

$_ZNSt8_Rb_treeIjSt4pairIKjiESt10_Select1stIS2_ESt4lessIjESaIS2_EE12_M_drop_nodeEPSt13_Rb_tree_nodeIS2_E = comdat any

$_ZNSt8_Rb_treeIjSt4pairIKjiESt10_Select1stIS2_ESt4lessIjESaIS2_EE15_M_destroy_nodeEPSt13_Rb_tree_nodeIS2_E = comdat any

$_ZNSt8_Rb_treeIjSt4pairIKjiESt10_Select1stIS2_ESt4lessIjESaIS2_EE11_M_put_nodeEPSt13_Rb_tree_nodeIS2_E = comdat any

$_ZNSt16allocator_traitsISaISt13_Rb_tree_nodeISt4pairIKjiEEEE7destroyIS3_EEvRS5_PT_ = comdat any

$_ZNSt8_Rb_treeIjSt4pairIKjiESt10_Select1stIS2_ESt4lessIjESaIS2_EE21_M_get_Node_allocatorEv = comdat any

$_ZNSt13_Rb_tree_nodeISt4pairIKjiEE9_M_valptrEv = comdat any

$_ZNSt15__new_allocatorISt13_Rb_tree_nodeISt4pairIKjiEEE7destroyIS3_EEvPT_ = comdat any

$_ZN9__gnu_cxx16__aligned_membufISt4pairIKjiEE6_M_ptrEv = comdat any

$_ZN9__gnu_cxx16__aligned_membufISt4pairIKjiEE7_M_addrEv = comdat any

$_ZNSt16allocator_traitsISaISt13_Rb_tree_nodeISt4pairIKjiEEEE10deallocateERS5_PS4_m = comdat any

$_ZNSt15__new_allocatorISt13_Rb_tree_nodeISt4pairIKjiEEE10deallocateEPS4_m = comdat any

$_ZNKSt8_Rb_treeIjSt4pairIKjiESt10_Select1stIS2_ESt4lessIjESaIS2_EE9_M_mbeginEv = comdat any

$_ZNSaISt13_Rb_tree_nodeISt4pairIKjiEEED2Ev = comdat any

$_ZNSt15__new_allocatorISt13_Rb_tree_nodeISt4pairIKjiEEED2Ev = comdat any

$_ZNSt16allocator_traitsISaISt10_List_nodeIN6Assimp11LoadRequestEEEE10deallocateERS4_PS3_m = comdat any

$_ZNSt15__new_allocatorISt10_List_nodeIN6Assimp11LoadRequestEEE10deallocateEPS3_m = comdat any

$_ZNSaISt10_List_nodeIN6Assimp11LoadRequestEEED2Ev = comdat any

$_ZNSt15__new_allocatorISt10_List_nodeIN6Assimp11LoadRequestEEED2Ev = comdat any

$_ZSteqIjiSt4lessIjESaISt4pairIKjiEEEbRKSt3mapIT_T0_T1_T2_ESD_ = comdat any

$_ZSteqIjfSt4lessIjESaISt4pairIKjfEEEbRKSt3mapIT_T0_T1_T2_ESD_ = comdat any

$_ZSteqIjNSt7__cxx1112basic_stringIcSt11char_traitsIcESaIcEEESt4lessIjESaISt4pairIKjS5_EEEbRKSt3mapIT_T0_T1_T2_ESJ_ = comdat any

$_ZSteqIj12aiMatrix4x4tIfESt4lessIjESaISt4pairIKjS1_EEEbRKSt3mapIT_T0_T1_T2_ESF_ = comdat any

$_ZSteqRKSt8_Rb_treeIjSt4pairIKjiESt10_Select1stIS2_ESt4lessIjESaIS2_EESA_ = comdat any

$_ZNKSt8_Rb_treeIjSt4pairIKjiESt10_Select1stIS2_ESt4lessIjESaIS2_EE4sizeEv = comdat any

$_ZSt5equalISt23_Rb_tree_const_iteratorISt4pairIKjiEES4_EbT_S5_T0_ = comdat any

$_ZNKSt8_Rb_treeIjSt4pairIKjiESt10_Select1stIS2_ESt4lessIjESaIS2_EE5beginEv = comdat any

$_ZNKSt8_Rb_treeIjSt4pairIKjiESt10_Select1stIS2_ESt4lessIjESaIS2_EE3endEv = comdat any

$_ZSt11__equal_auxISt23_Rb_tree_const_iteratorISt4pairIKjiEES4_EbT_S5_T0_ = comdat any

$_ZSt12__equal_aux1ISt23_Rb_tree_const_iteratorISt4pairIKjiEES4_EbT_S5_T0_ = comdat any

$_ZSt12__niter_baseISt23_Rb_tree_const_iteratorISt4pairIKjiEEET_S5_ = comdat any

$_ZNSt7__equalILb0EE5equalISt23_Rb_tree_const_iteratorISt4pairIKjiEES6_EEbT_S7_T0_ = comdat any

$_ZStneRKSt23_Rb_tree_const_iteratorISt4pairIKjiEES5_ = comdat any

$_ZSteqIKjiEbRKSt4pairIT_T0_ES6_ = comdat any

$_ZNKSt23_Rb_tree_const_iteratorISt4pairIKjiEEdeEv = comdat any

$_ZNSt23_Rb_tree_const_iteratorISt4pairIKjiEEppEv = comdat any

$_ZNKSt13_Rb_tree_nodeISt4pairIKjiEE9_M_valptrEv = comdat any

$_ZNK9__gnu_cxx16__aligned_membufISt4pairIKjiEE6_M_ptrEv = comdat any

$_ZNK9__gnu_cxx16__aligned_membufISt4pairIKjiEE7_M_addrEv = comdat any

$_ZNSt23_Rb_tree_const_iteratorISt4pairIKjiEEC2EPKSt18_Rb_tree_node_base = comdat any

$_ZSteqRKSt8_Rb_treeIjSt4pairIKjfESt10_Select1stIS2_ESt4lessIjESaIS2_EESA_ = comdat any

$_ZNKSt8_Rb_treeIjSt4pairIKjfESt10_Select1stIS2_ESt4lessIjESaIS2_EE4sizeEv = comdat any

$_ZSt5equalISt23_Rb_tree_const_iteratorISt4pairIKjfEES4_EbT_S5_T0_ = comdat any

$_ZNKSt8_Rb_treeIjSt4pairIKjfESt10_Select1stIS2_ESt4lessIjESaIS2_EE5beginEv = comdat any

$_ZNKSt8_Rb_treeIjSt4pairIKjfESt10_Select1stIS2_ESt4lessIjESaIS2_EE3endEv = comdat any

$_ZSt11__equal_auxISt23_Rb_tree_const_iteratorISt4pairIKjfEES4_EbT_S5_T0_ = comdat any

$_ZSt12__equal_aux1ISt23_Rb_tree_const_iteratorISt4pairIKjfEES4_EbT_S5_T0_ = comdat any

$_ZSt12__niter_baseISt23_Rb_tree_const_iteratorISt4pairIKjfEEET_S5_ = comdat any

$_ZNSt7__equalILb0EE5equalISt23_Rb_tree_const_iteratorISt4pairIKjfEES6_EEbT_S7_T0_ = comdat any

$_ZStneRKSt23_Rb_tree_const_iteratorISt4pairIKjfEES5_ = comdat any

$_ZSteqIKjfEbRKSt4pairIT_T0_ES6_ = comdat any

$_ZNKSt23_Rb_tree_const_iteratorISt4pairIKjfEEdeEv = comdat any

$_ZNSt23_Rb_tree_const_iteratorISt4pairIKjfEEppEv = comdat any

$_ZNKSt13_Rb_tree_nodeISt4pairIKjfEE9_M_valptrEv = comdat any

$_ZNK9__gnu_cxx16__aligned_membufISt4pairIKjfEE6_M_ptrEv = comdat any

$_ZNK9__gnu_cxx16__aligned_membufISt4pairIKjfEE7_M_addrEv = comdat any

$_ZNSt23_Rb_tree_const_iteratorISt4pairIKjfEEC2EPKSt18_Rb_tree_node_base = comdat any

$_ZSteqRKSt8_Rb_treeIjSt4pairIKjNSt7__cxx1112basic_stringIcSt11char_traitsIcESaIcEEEESt10_Select1stIS8_ESt4lessIjESaIS8_EESG_ = comdat any

$_ZNKSt8_Rb_treeIjSt4pairIKjNSt7__cxx1112basic_stringIcSt11char_traitsIcESaIcEEEESt10_Select1stIS8_ESt4lessIjESaIS8_EE4sizeEv = comdat any

$_ZSt5equalISt23_Rb_tree_const_iteratorISt4pairIKjNSt7__cxx1112basic_stringIcSt11char_traitsIcESaIcEEEEESA_EbT_SB_T0_ = comdat any

$_ZNKSt8_Rb_treeIjSt4pairIKjNSt7__cxx1112basic_stringIcSt11char_traitsIcESaIcEEEESt10_Select1stIS8_ESt4lessIjESaIS8_EE5beginEv = comdat any

$_ZNKSt8_Rb_treeIjSt4pairIKjNSt7__cxx1112basic_stringIcSt11char_traitsIcESaIcEEEESt10_Select1stIS8_ESt4lessIjESaIS8_EE3endEv = comdat any

$_ZSt11__equal_auxISt23_Rb_tree_const_iteratorISt4pairIKjNSt7__cxx1112basic_stringIcSt11char_traitsIcESaIcEEEEESA_EbT_SB_T0_ = comdat any

$_ZSt12__equal_aux1ISt23_Rb_tree_const_iteratorISt4pairIKjNSt7__cxx1112basic_stringIcSt11char_traitsIcESaIcEEEEESA_EbT_SB_T0_ = comdat any

$_ZSt12__niter_baseISt23_Rb_tree_const_iteratorISt4pairIKjNSt7__cxx1112basic_stringIcSt11char_traitsIcESaIcEEEEEET_SB_ = comdat any

$_ZNSt7__equalILb0EE5equalISt23_Rb_tree_const_iteratorISt4pairIKjNSt7__cxx1112basic_stringIcSt11char_traitsIcESaIcEEEEESC_EEbT_SD_T0_ = comdat any

$_ZStneRKSt23_Rb_tree_const_iteratorISt4pairIKjNSt7__cxx1112basic_stringIcSt11char_traitsIcESaIcEEEEESB_ = comdat any

$_ZSteqIKjNSt7__cxx1112basic_stringIcSt11char_traitsIcESaIcEEEEbRKSt4pairIT_T0_ESC_ = comdat any

$_ZNKSt23_Rb_tree_const_iteratorISt4pairIKjNSt7__cxx1112basic_stringIcSt11char_traitsIcESaIcEEEEEdeEv = comdat any

$_ZNSt23_Rb_tree_const_iteratorISt4pairIKjNSt7__cxx1112basic_stringIcSt11char_traitsIcESaIcEEEEEppEv = comdat any

$_ZNKSt13_Rb_tree_nodeISt4pairIKjNSt7__cxx1112basic_stringIcSt11char_traitsIcESaIcEEEEE9_M_valptrEv = comdat any

$_ZNK9__gnu_cxx16__aligned_membufISt4pairIKjNSt7__cxx1112basic_stringIcSt11char_traitsIcESaIcEEEEE6_M_ptrEv = comdat any

$_ZNK9__gnu_cxx16__aligned_membufISt4pairIKjNSt7__cxx1112basic_stringIcSt11char_traitsIcESaIcEEEEE7_M_addrEv = comdat any

$_ZNSt23_Rb_tree_const_iteratorISt4pairIKjNSt7__cxx1112basic_stringIcSt11char_traitsIcESaIcEEEEEC2EPKSt18_Rb_tree_node_base = comdat any

$_ZSteqRKSt8_Rb_treeIjSt4pairIKj12aiMatrix4x4tIfEESt10_Select1stIS4_ESt4lessIjESaIS4_EESC_ = comdat any

$_ZNKSt8_Rb_treeIjSt4pairIKj12aiMatrix4x4tIfEESt10_Select1stIS4_ESt4lessIjESaIS4_EE4sizeEv = comdat any

$_ZSt5equalISt23_Rb_tree_const_iteratorISt4pairIKj12aiMatrix4x4tIfEEES6_EbT_S7_T0_ = comdat any

$_ZNKSt8_Rb_treeIjSt4pairIKj12aiMatrix4x4tIfEESt10_Select1stIS4_ESt4lessIjESaIS4_EE5beginEv = comdat any

$_ZNKSt8_Rb_treeIjSt4pairIKj12aiMatrix4x4tIfEESt10_Select1stIS4_ESt4lessIjESaIS4_EE3endEv = comdat any

$_ZSt11__equal_auxISt23_Rb_tree_const_iteratorISt4pairIKj12aiMatrix4x4tIfEEES6_EbT_S7_T0_ = comdat any

$_ZSt12__equal_aux1ISt23_Rb_tree_const_iteratorISt4pairIKj12aiMatrix4x4tIfEEES6_EbT_S7_T0_ = comdat any

$_ZSt12__niter_baseISt23_Rb_tree_const_iteratorISt4pairIKj12aiMatrix4x4tIfEEEET_S7_ = comdat any

$_ZNSt7__equalILb0EE5equalISt23_Rb_tree_const_iteratorISt4pairIKj12aiMatrix4x4tIfEEES8_EEbT_S9_T0_ = comdat any

$_ZStneRKSt23_Rb_tree_const_iteratorISt4pairIKj12aiMatrix4x4tIfEEES7_ = comdat any

$_ZSteqIKj12aiMatrix4x4tIfEEbRKSt4pairIT_T0_ES8_ = comdat any

$_ZNKSt23_Rb_tree_const_iteratorISt4pairIKj12aiMatrix4x4tIfEEEdeEv = comdat any

$_ZNSt23_Rb_tree_const_iteratorISt4pairIKj12aiMatrix4x4tIfEEEppEv = comdat any

$_ZNK12aiMatrix4x4tIfEeqERKS0_ = comdat any

$_ZNKSt13_Rb_tree_nodeISt4pairIKj12aiMatrix4x4tIfEEE9_M_valptrEv = comdat any

$_ZNK9__gnu_cxx16__aligned_membufISt4pairIKj12aiMatrix4x4tIfEEE6_M_ptrEv = comdat any

$_ZNK9__gnu_cxx16__aligned_membufISt4pairIKj12aiMatrix4x4tIfEEE7_M_addrEv = comdat any

$_ZNSt23_Rb_tree_const_iteratorISt4pairIKj12aiMatrix4x4tIfEEEC2EPKSt18_Rb_tree_node_base = comdat any

$_ZNKSt3mapIjiSt4lessIjESaISt4pairIKjiEEE5emptyEv = comdat any

$_ZNKSt3mapIjfSt4lessIjESaISt4pairIKjfEEE5emptyEv = comdat any

$_ZNKSt3mapIjNSt7__cxx1112basic_stringIcSt11char_traitsIcESaIcEEESt4lessIjESaISt4pairIKjS5_EEE5emptyEv = comdat any

$_ZNKSt3mapIj12aiMatrix4x4tIfESt4lessIjESaISt4pairIKjS1_EEE5emptyEv = comdat any

$_ZNKSt8_Rb_treeIjSt4pairIKjiESt10_Select1stIS2_ESt4lessIjESaIS2_EE5emptyEv = comdat any

$_ZNKSt8_Rb_treeIjSt4pairIKjfESt10_Select1stIS2_ESt4lessIjESaIS2_EE5emptyEv = comdat any

$_ZNKSt8_Rb_treeIjSt4pairIKjNSt7__cxx1112basic_stringIcSt11char_traitsIcESaIcEEEESt10_Select1stIS8_ESt4lessIjESaIS8_EE5emptyEv = comdat any

$_ZNKSt8_Rb_treeIjSt4pairIKj12aiMatrix4x4tIfEESt10_Select1stIS4_ESt4lessIjESaIS4_EE5emptyEv = comdat any

$_ZNSt8_Rb_treeIjSt4pairIKjfESt10_Select1stIS2_ESt4lessIjESaIS2_EEaSERKS8_ = comdat any

$_ZNSt8_Rb_treeIjSt4pairIKjfESt10_Select1stIS2_ESt4lessIjESaIS2_EE20_Reuse_or_alloc_nodeC2ERS8_ = comdat any

$_ZNKSt8_Rb_treeIjSt4pairIKjfESt10_Select1stIS2_ESt4lessIjESaIS2_EE7_M_rootEv = comdat any

$_ZNSt8_Rb_treeIjSt4pairIKjfESt10_Select1stIS2_ESt4lessIjESaIS2_EE7_M_copyILb0ENS8_20_Reuse_or_alloc_nodeEEEPSt13_Rb_tree_nodeIS2_ERKS8_RT0_ = comdat any

$_ZNSt8_Rb_treeIjSt4pairIKjfESt10_Select1stIS2_ESt4lessIjESaIS2_EE7_M_rootEv = comdat any

$_ZNSt8_Rb_treeIjSt4pairIKjfESt10_Select1stIS2_ESt4lessIjESaIS2_EE20_Reuse_or_alloc_nodeD2Ev = comdat any

$_ZNSt8_Rb_treeIjSt4pairIKjfESt10_Select1stIS2_ESt4lessIjESaIS2_EE12_M_rightmostEv = comdat any

$_ZNSt8_Rb_treeIjSt4pairIKjfESt10_Select1stIS2_ESt4lessIjESaIS2_EE7_M_copyILb0ENS8_20_Reuse_or_alloc_nodeEEEPSt13_Rb_tree_nodeIS2_ESD_PSt18_Rb_tree_node_baseRT0_ = comdat any

$_ZNSt8_Rb_treeIjSt4pairIKjfESt10_Select1stIS2_ESt4lessIjESaIS2_EE6_M_endEv = comdat any

$_ZNSt8_Rb_treeIjSt4pairIKjfESt10_Select1stIS2_ESt4lessIjESaIS2_EE10_S_minimumEPSt18_Rb_tree_node_base = comdat any

$_ZNSt8_Rb_treeIjSt4pairIKjfESt10_Select1stIS2_ESt4lessIjESaIS2_EE11_M_leftmostEv = comdat any

$_ZNSt8_Rb_treeIjSt4pairIKjfESt10_Select1stIS2_ESt4lessIjESaIS2_EE10_S_maximumEPSt18_Rb_tree_node_base = comdat any

$_ZNSt8_Rb_treeIjSt4pairIKjfESt10_Select1stIS2_ESt4lessIjESaIS2_EE13_M_clone_nodeILb0ENS8_20_Reuse_or_alloc_nodeEEEPSt13_Rb_tree_nodeIS2_ESD_RT0_ = comdat any

$_ZNSt8_Rb_treeIjSt4pairIKjfESt10_Select1stIS2_ESt4lessIjESaIS2_EE20_Reuse_or_alloc_nodeclIRKS2_EEPSt13_Rb_tree_nodeIS2_EOT_ = comdat any

$_ZNSt8_Rb_treeIjSt4pairIKjfESt10_Select1stIS2_ESt4lessIjESaIS2_EE20_Reuse_or_alloc_node10_M_extractEv = comdat any

$_ZNSt8_Rb_treeIjSt4pairIKjfESt10_Select1stIS2_ESt4lessIjESaIS2_EE17_M_construct_nodeIJRKS2_EEEvPSt13_Rb_tree_nodeIS2_EDpOT_ = comdat any

$_ZNSt8_Rb_treeIjSt4pairIKjfESt10_Select1stIS2_ESt4lessIjESaIS2_EE14_M_create_nodeIJRKS2_EEEPSt13_Rb_tree_nodeIS2_EDpOT_ = comdat any

$_ZNSt16allocator_traitsISaISt13_Rb_tree_nodeISt4pairIKjfEEEE9constructIS3_JRKS3_EEEvRS5_PT_DpOT0_ = comdat any

$_ZNSt15__new_allocatorISt13_Rb_tree_nodeISt4pairIKjfEEE9constructIS3_JRKS3_EEEvPT_DpOT0_ = comdat any

$_ZNSt8_Rb_treeIjSt4pairIKjfESt10_Select1stIS2_ESt4lessIjESaIS2_EE11_M_get_nodeEv = comdat any

$_ZNSt16allocator_traitsISaISt13_Rb_tree_nodeISt4pairIKjfEEEE8allocateERS5_m = comdat any

$_ZNSt15__new_allocatorISt13_Rb_tree_nodeISt4pairIKjfEEE8allocateEmPKv = comdat any

$_ZNKSt15__new_allocatorISt13_Rb_tree_nodeISt4pairIKjfEEE11_M_max_sizeEv = comdat any

$_ZNSt18_Rb_tree_node_base10_S_minimumEPS_ = comdat any

$_ZNSt18_Rb_tree_node_base10_S_maximumEPS_ = comdat any

$_ZNSt8_Rb_treeIjSt4pairIKjiESt10_Select1stIS2_ESt4lessIjESaIS2_EEaSERKS8_ = comdat any

$_ZNSt8_Rb_treeIjSt4pairIKjiESt10_Select1stIS2_ESt4lessIjESaIS2_EE20_Reuse_or_alloc_nodeC2ERS8_ = comdat any

$_ZNKSt8_Rb_treeIjSt4pairIKjiESt10_Select1stIS2_ESt4lessIjESaIS2_EE7_M_rootEv = comdat any

$_ZNSt8_Rb_treeIjSt4pairIKjiESt10_Select1stIS2_ESt4lessIjESaIS2_EE7_M_copyILb0ENS8_20_Reuse_or_alloc_nodeEEEPSt13_Rb_tree_nodeIS2_ERKS8_RT0_ = comdat any

$_ZNSt8_Rb_treeIjSt4pairIKjiESt10_Select1stIS2_ESt4lessIjESaIS2_EE7_M_rootEv = comdat any

$_ZNSt8_Rb_treeIjSt4pairIKjiESt10_Select1stIS2_ESt4lessIjESaIS2_EE20_Reuse_or_alloc_nodeD2Ev = comdat any

$_ZNSt8_Rb_treeIjSt4pairIKjiESt10_Select1stIS2_ESt4lessIjESaIS2_EE12_M_rightmostEv = comdat any

$_ZNSt8_Rb_treeIjSt4pairIKjiESt10_Select1stIS2_ESt4lessIjESaIS2_EE7_M_copyILb0ENS8_20_Reuse_or_alloc_nodeEEEPSt13_Rb_tree_nodeIS2_ESD_PSt18_Rb_tree_node_baseRT0_ = comdat any

$_ZNSt8_Rb_treeIjSt4pairIKjiESt10_Select1stIS2_ESt4lessIjESaIS2_EE6_M_endEv = comdat any

$_ZNSt8_Rb_treeIjSt4pairIKjiESt10_Select1stIS2_ESt4lessIjESaIS2_EE10_S_minimumEPSt18_Rb_tree_node_base = comdat any

$_ZNSt8_Rb_treeIjSt4pairIKjiESt10_Select1stIS2_ESt4lessIjESaIS2_EE11_M_leftmostEv = comdat any

$_ZNSt8_Rb_treeIjSt4pairIKjiESt10_Select1stIS2_ESt4lessIjESaIS2_EE10_S_maximumEPSt18_Rb_tree_node_base = comdat any

$_ZNSt8_Rb_treeIjSt4pairIKjiESt10_Select1stIS2_ESt4lessIjESaIS2_EE13_M_clone_nodeILb0ENS8_20_Reuse_or_alloc_nodeEEEPSt13_Rb_tree_nodeIS2_ESD_RT0_ = comdat any

$_ZNSt8_Rb_treeIjSt4pairIKjiESt10_Select1stIS2_ESt4lessIjESaIS2_EE20_Reuse_or_alloc_nodeclIRKS2_EEPSt13_Rb_tree_nodeIS2_EOT_ = comdat any

$_ZNSt8_Rb_treeIjSt4pairIKjiESt10_Select1stIS2_ESt4lessIjESaIS2_EE20_Reuse_or_alloc_node10_M_extractEv = comdat any

$_ZNSt8_Rb_treeIjSt4pairIKjiESt10_Select1stIS2_ESt4lessIjESaIS2_EE17_M_construct_nodeIJRKS2_EEEvPSt13_Rb_tree_nodeIS2_EDpOT_ = comdat any

$_ZNSt8_Rb_treeIjSt4pairIKjiESt10_Select1stIS2_ESt4lessIjESaIS2_EE14_M_create_nodeIJRKS2_EEEPSt13_Rb_tree_nodeIS2_EDpOT_ = comdat any

$_ZNSt16allocator_traitsISaISt13_Rb_tree_nodeISt4pairIKjiEEEE9constructIS3_JRKS3_EEEvRS5_PT_DpOT0_ = comdat any

$_ZNSt15__new_allocatorISt13_Rb_tree_nodeISt4pairIKjiEEE9constructIS3_JRKS3_EEEvPT_DpOT0_ = comdat any

$_ZNSt8_Rb_treeIjSt4pairIKjiESt10_Select1stIS2_ESt4lessIjESaIS2_EE11_M_get_nodeEv = comdat any

$_ZNSt16allocator_traitsISaISt13_Rb_tree_nodeISt4pairIKjiEEEE8allocateERS5_m = comdat any

$_ZNSt15__new_allocatorISt13_Rb_tree_nodeISt4pairIKjiEEE8allocateEmPKv = comdat any

$_ZNKSt15__new_allocatorISt13_Rb_tree_nodeISt4pairIKjiEEE11_M_max_sizeEv = comdat any

$_ZNSt8_Rb_treeIjSt4pairIKjNSt7__cxx1112basic_stringIcSt11char_traitsIcESaIcEEEESt10_Select1stIS8_ESt4lessIjESaIS8_EEaSERKSE_ = comdat any

$_ZNSt8_Rb_treeIjSt4pairIKjNSt7__cxx1112basic_stringIcSt11char_traitsIcESaIcEEEESt10_Select1stIS8_ESt4lessIjESaIS8_EE20_Reuse_or_alloc_nodeC2ERSE_ = comdat any

$_ZNKSt8_Rb_treeIjSt4pairIKjNSt7__cxx1112basic_stringIcSt11char_traitsIcESaIcEEEESt10_Select1stIS8_ESt4lessIjESaIS8_EE7_M_rootEv = comdat any

$_ZNSt8_Rb_treeIjSt4pairIKjNSt7__cxx1112basic_stringIcSt11char_traitsIcESaIcEEEESt10_Select1stIS8_ESt4lessIjESaIS8_EE7_M_copyILb0ENSE_20_Reuse_or_alloc_nodeEEEPSt13_Rb_tree_nodeIS8_ERKSE_RT0_ = comdat any

$_ZNSt8_Rb_treeIjSt4pairIKjNSt7__cxx1112basic_stringIcSt11char_traitsIcESaIcEEEESt10_Select1stIS8_ESt4lessIjESaIS8_EE7_M_rootEv = comdat any

$_ZNSt8_Rb_treeIjSt4pairIKjNSt7__cxx1112basic_stringIcSt11char_traitsIcESaIcEEEESt10_Select1stIS8_ESt4lessIjESaIS8_EE20_Reuse_or_alloc_nodeD2Ev = comdat any

$_ZNSt8_Rb_treeIjSt4pairIKjNSt7__cxx1112basic_stringIcSt11char_traitsIcESaIcEEEESt10_Select1stIS8_ESt4lessIjESaIS8_EE12_M_rightmostEv = comdat any

$_ZNSt8_Rb_treeIjSt4pairIKjNSt7__cxx1112basic_stringIcSt11char_traitsIcESaIcEEEESt10_Select1stIS8_ESt4lessIjESaIS8_EE7_M_copyILb0ENSE_20_Reuse_or_alloc_nodeEEEPSt13_Rb_tree_nodeIS8_ESJ_PSt18_Rb_tree_node_baseRT0_ = comdat any

$_ZNSt8_Rb_treeIjSt4pairIKjNSt7__cxx1112basic_stringIcSt11char_traitsIcESaIcEEEESt10_Select1stIS8_ESt4lessIjESaIS8_EE6_M_endEv = comdat any

$_ZNSt8_Rb_treeIjSt4pairIKjNSt7__cxx1112basic_stringIcSt11char_traitsIcESaIcEEEESt10_Select1stIS8_ESt4lessIjESaIS8_EE10_S_minimumEPSt18_Rb_tree_node_base = comdat any

$_ZNSt8_Rb_treeIjSt4pairIKjNSt7__cxx1112basic_stringIcSt11char_traitsIcESaIcEEEESt10_Select1stIS8_ESt4lessIjESaIS8_EE11_M_leftmostEv = comdat any

$_ZNSt8_Rb_treeIjSt4pairIKjNSt7__cxx1112basic_stringIcSt11char_traitsIcESaIcEEEESt10_Select1stIS8_ESt4lessIjESaIS8_EE10_S_maximumEPSt18_Rb_tree_node_base = comdat any

$_ZNSt8_Rb_treeIjSt4pairIKjNSt7__cxx1112basic_stringIcSt11char_traitsIcESaIcEEEESt10_Select1stIS8_ESt4lessIjESaIS8_EE13_M_clone_nodeILb0ENSE_20_Reuse_or_alloc_nodeEEEPSt13_Rb_tree_nodeIS8_ESJ_RT0_ = comdat any

$_ZNSt8_Rb_treeIjSt4pairIKjNSt7__cxx1112basic_stringIcSt11char_traitsIcESaIcEEEESt10_Select1stIS8_ESt4lessIjESaIS8_EE20_Reuse_or_alloc_nodeclIRKS8_EEPSt13_Rb_tree_nodeIS8_EOT_ = comdat any

$_ZNSt8_Rb_treeIjSt4pairIKjNSt7__cxx1112basic_stringIcSt11char_traitsIcESaIcEEEESt10_Select1stIS8_ESt4lessIjESaIS8_EE20_Reuse_or_alloc_node10_M_extractEv = comdat any

$_ZNSt8_Rb_treeIjSt4pairIKjNSt7__cxx1112basic_stringIcSt11char_traitsIcESaIcEEEESt10_Select1stIS8_ESt4lessIjESaIS8_EE17_M_construct_nodeIJRKS8_EEEvPSt13_Rb_tree_nodeIS8_EDpOT_ = comdat any

$_ZNSt8_Rb_treeIjSt4pairIKjNSt7__cxx1112basic_stringIcSt11char_traitsIcESaIcEEEESt10_Select1stIS8_ESt4lessIjESaIS8_EE14_M_create_nodeIJRKS8_EEEPSt13_Rb_tree_nodeIS8_EDpOT_ = comdat any

$_ZNSt16allocator_traitsISaISt13_Rb_tree_nodeISt4pairIKjNSt7__cxx1112basic_stringIcSt11char_traitsIcESaIcEEEEEEE9constructIS9_JRKS9_EEEvRSB_PT_DpOT0_ = comdat any

$_ZNSt15__new_allocatorISt13_Rb_tree_nodeISt4pairIKjNSt7__cxx1112basic_stringIcSt11char_traitsIcESaIcEEEEEE9constructIS9_JRKS9_EEEvPT_DpOT0_ = comdat any

$_ZNSt4pairIKjNSt7__cxx1112basic_stringIcSt11char_traitsIcESaIcEEEEC2ERKS7_ = comdat any

$_ZNSt8_Rb_treeIjSt4pairIKjNSt7__cxx1112basic_stringIcSt11char_traitsIcESaIcEEEESt10_Select1stIS8_ESt4lessIjESaIS8_EE11_M_get_nodeEv = comdat any

$_ZNSt16allocator_traitsISaISt13_Rb_tree_nodeISt4pairIKjNSt7__cxx1112basic_stringIcSt11char_traitsIcESaIcEEEEEEE8allocateERSB_m = comdat any

$_ZNSt15__new_allocatorISt13_Rb_tree_nodeISt4pairIKjNSt7__cxx1112basic_stringIcSt11char_traitsIcESaIcEEEEEE8allocateEmPKv = comdat any

$_ZNKSt15__new_allocatorISt13_Rb_tree_nodeISt4pairIKjNSt7__cxx1112basic_stringIcSt11char_traitsIcESaIcEEEEEE11_M_max_sizeEv = comdat any

$_ZNSt8_Rb_treeIjSt4pairIKj12aiMatrix4x4tIfEESt10_Select1stIS4_ESt4lessIjESaIS4_EEaSERKSA_ = comdat any

$_ZNSt8_Rb_treeIjSt4pairIKj12aiMatrix4x4tIfEESt10_Select1stIS4_ESt4lessIjESaIS4_EE20_Reuse_or_alloc_nodeC2ERSA_ = comdat any

$_ZNKSt8_Rb_treeIjSt4pairIKj12aiMatrix4x4tIfEESt10_Select1stIS4_ESt4lessIjESaIS4_EE7_M_rootEv = comdat any

$_ZNSt8_Rb_treeIjSt4pairIKj12aiMatrix4x4tIfEESt10_Select1stIS4_ESt4lessIjESaIS4_EE7_M_copyILb0ENSA_20_Reuse_or_alloc_nodeEEEPSt13_Rb_tree_nodeIS4_ERKSA_RT0_ = comdat any

$_ZNSt8_Rb_treeIjSt4pairIKj12aiMatrix4x4tIfEESt10_Select1stIS4_ESt4lessIjESaIS4_EE7_M_rootEv = comdat any

$_ZNSt8_Rb_treeIjSt4pairIKj12aiMatrix4x4tIfEESt10_Select1stIS4_ESt4lessIjESaIS4_EE20_Reuse_or_alloc_nodeD2Ev = comdat any

$_ZNSt8_Rb_treeIjSt4pairIKj12aiMatrix4x4tIfEESt10_Select1stIS4_ESt4lessIjESaIS4_EE12_M_rightmostEv = comdat any

$_ZNSt8_Rb_treeIjSt4pairIKj12aiMatrix4x4tIfEESt10_Select1stIS4_ESt4lessIjESaIS4_EE7_M_copyILb0ENSA_20_Reuse_or_alloc_nodeEEEPSt13_Rb_tree_nodeIS4_ESF_PSt18_Rb_tree_node_baseRT0_ = comdat any

$_ZNSt8_Rb_treeIjSt4pairIKj12aiMatrix4x4tIfEESt10_Select1stIS4_ESt4lessIjESaIS4_EE6_M_endEv = comdat any

$_ZNSt8_Rb_treeIjSt4pairIKj12aiMatrix4x4tIfEESt10_Select1stIS4_ESt4lessIjESaIS4_EE10_S_minimumEPSt18_Rb_tree_node_base = comdat any

$_ZNSt8_Rb_treeIjSt4pairIKj12aiMatrix4x4tIfEESt10_Select1stIS4_ESt4lessIjESaIS4_EE11_M_leftmostEv = comdat any

$_ZNSt8_Rb_treeIjSt4pairIKj12aiMatrix4x4tIfEESt10_Select1stIS4_ESt4lessIjESaIS4_EE10_S_maximumEPSt18_Rb_tree_node_base = comdat any

$_ZNSt8_Rb_treeIjSt4pairIKj12aiMatrix4x4tIfEESt10_Select1stIS4_ESt4lessIjESaIS4_EE13_M_clone_nodeILb0ENSA_20_Reuse_or_alloc_nodeEEEPSt13_Rb_tree_nodeIS4_ESF_RT0_ = comdat any

$_ZNSt8_Rb_treeIjSt4pairIKj12aiMatrix4x4tIfEESt10_Select1stIS4_ESt4lessIjESaIS4_EE20_Reuse_or_alloc_nodeclIRKS4_EEPSt13_Rb_tree_nodeIS4_EOT_ = comdat any

$_ZNSt8_Rb_treeIjSt4pairIKj12aiMatrix4x4tIfEESt10_Select1stIS4_ESt4lessIjESaIS4_EE20_Reuse_or_alloc_node10_M_extractEv = comdat any

$_ZNSt8_Rb_treeIjSt4pairIKj12aiMatrix4x4tIfEESt10_Select1stIS4_ESt4lessIjESaIS4_EE17_M_construct_nodeIJRKS4_EEEvPSt13_Rb_tree_nodeIS4_EDpOT_ = comdat any

$_ZNSt8_Rb_treeIjSt4pairIKj12aiMatrix4x4tIfEESt10_Select1stIS4_ESt4lessIjESaIS4_EE14_M_create_nodeIJRKS4_EEEPSt13_Rb_tree_nodeIS4_EDpOT_ = comdat any

$_ZNSt16allocator_traitsISaISt13_Rb_tree_nodeISt4pairIKj12aiMatrix4x4tIfEEEEE9constructIS5_JRKS5_EEEvRS7_PT_DpOT0_ = comdat any

$_ZNSt15__new_allocatorISt13_Rb_tree_nodeISt4pairIKj12aiMatrix4x4tIfEEEE9constructIS5_JRKS5_EEEvPT_DpOT0_ = comdat any

$_ZNSt8_Rb_treeIjSt4pairIKj12aiMatrix4x4tIfEESt10_Select1stIS4_ESt4lessIjESaIS4_EE11_M_get_nodeEv = comdat any

$_ZNSt16allocator_traitsISaISt13_Rb_tree_nodeISt4pairIKj12aiMatrix4x4tIfEEEEE8allocateERS7_m = comdat any

$_ZNSt15__new_allocatorISt13_Rb_tree_nodeISt4pairIKj12aiMatrix4x4tIfEEEE8allocateEmPKv = comdat any

$_ZNKSt15__new_allocatorISt13_Rb_tree_nodeISt4pairIKj12aiMatrix4x4tIfEEEE11_M_max_sizeEv = comdat any

$_ZNSt6vectorINSt7__cxx1112basic_stringIcSt11char_traitsIcESaIcEEESaIS5_EE9push_backERKS5_ = comdat any

$_ZNSt16allocator_traitsISaINSt7__cxx1112basic_stringIcSt11char_traitsIcESaIcEEEEE9constructIS5_JRKS5_EEEvRS6_PT_DpOT0_ = comdat any

$_ZNSt6vectorINSt7__cxx1112basic_stringIcSt11char_traitsIcESaIcEEESaIS5_EE17_M_realloc_insertIJRKS5_EEEvN9__gnu_cxx17__normal_iteratorIPS5_S7_EEDpOT_ = comdat any

$_ZNSt6vectorINSt7__cxx1112basic_stringIcSt11char_traitsIcESaIcEEESaIS5_EE3endEv = comdat any

$_ZNSt15__new_allocatorINSt7__cxx1112basic_stringIcSt11char_traitsIcESaIcEEEE9constructIS5_JRKS5_EEEvPT_DpOT0_ = comdat any

$_ZNKSt6vectorINSt7__cxx1112basic_stringIcSt11char_traitsIcESaIcEEESaIS5_EE12_M_check_lenEmPKc = comdat any

$_ZN9__gnu_cxxmiIPNSt7__cxx1112basic_stringIcSt11char_traitsIcESaIcEEESt6vectorIS6_SaIS6_EEEENS_17__normal_iteratorIT_T0_E15difference_typeERKSE_SH_ = comdat any

$_ZNSt6vectorINSt7__cxx1112basic_stringIcSt11char_traitsIcESaIcEEESaIS5_EE5beginEv = comdat any

$_ZNSt12_Vector_baseINSt7__cxx1112basic_stringIcSt11char_traitsIcESaIcEEESaIS5_EE11_M_allocateEm = comdat any

$_ZNSt6vectorINSt7__cxx1112basic_stringIcSt11char_traitsIcESaIcEEESaIS5_EE11_S_relocateEPS5_S8_S8_RS6_ = comdat any

$_ZNK9__gnu_cxx17__normal_iteratorIPNSt7__cxx1112basic_stringIcSt11char_traitsIcESaIcEEESt6vectorIS6_SaIS6_EEE4baseEv = comdat any

$_ZNSt12_Vector_baseINSt7__cxx1112basic_stringIcSt11char_traitsIcESaIcEEESaIS5_EE19_M_get_Tp_allocatorEv = comdat any

$_ZNSt16allocator_traitsISaINSt7__cxx1112basic_stringIcSt11char_traitsIcESaIcEEEEE7destroyIS5_EEvRS6_PT_ = comdat any

$_ZSt8_DestroyIPNSt7__cxx1112basic_stringIcSt11char_traitsIcESaIcEEES5_EvT_S7_RSaIT0_E = comdat any

$_ZNSt12_Vector_baseINSt7__cxx1112basic_stringIcSt11char_traitsIcESaIcEEESaIS5_EE13_M_deallocateEPS5_m = comdat any

$_ZNKSt6vectorINSt7__cxx1112basic_stringIcSt11char_traitsIcESaIcEEESaIS5_EE8max_sizeEv = comdat any

$_ZNKSt6vectorINSt7__cxx1112basic_stringIcSt11char_traitsIcESaIcEEESaIS5_EE4sizeEv = comdat any

$_ZSt3maxImERKT_S2_S2_ = comdat any

$_ZNSt6vectorINSt7__cxx1112basic_stringIcSt11char_traitsIcESaIcEEESaIS5_EE11_S_max_sizeERKS6_ = comdat any

$_ZNKSt12_Vector_baseINSt7__cxx1112basic_stringIcSt11char_traitsIcESaIcEEESaIS5_EE19_M_get_Tp_allocatorEv = comdat any

$_ZNSt16allocator_traitsISaINSt7__cxx1112basic_stringIcSt11char_traitsIcESaIcEEEEE8max_sizeERKS6_ = comdat any

$_ZSt3minImERKT_S2_S2_ = comdat any

$_ZNKSt15__new_allocatorINSt7__cxx1112basic_stringIcSt11char_traitsIcESaIcEEEE8max_sizeEv = comdat any

$_ZNKSt15__new_allocatorINSt7__cxx1112basic_stringIcSt11char_traitsIcESaIcEEEE11_M_max_sizeEv = comdat any

$_ZN9__gnu_cxx17__normal_iteratorIPNSt7__cxx1112basic_stringIcSt11char_traitsIcESaIcEEESt6vectorIS6_SaIS6_EEEC2ERKS7_ = comdat any

$_ZNSt16allocator_traitsISaINSt7__cxx1112basic_stringIcSt11char_traitsIcESaIcEEEEE8allocateERS6_m = comdat any

$_ZNSt15__new_allocatorINSt7__cxx1112basic_stringIcSt11char_traitsIcESaIcEEEE8allocateEmPKv = comdat any

$_ZSt12__relocate_aIPNSt7__cxx1112basic_stringIcSt11char_traitsIcESaIcEEES6_SaIS5_EET0_T_S9_S8_RT1_ = comdat any

$_ZSt14__relocate_a_1IPNSt7__cxx1112basic_stringIcSt11char_traitsIcESaIcEEES6_SaIS5_EET0_T_S9_S8_RT1_ = comdat any

$_ZSt12__niter_baseIPNSt7__cxx1112basic_stringIcSt11char_traitsIcESaIcEEEET_S7_ = comdat any

$_ZSt19__relocate_object_aINSt7__cxx1112basic_stringIcSt11char_traitsIcESaIcEEES5_SaIS5_EEvPT_PT0_RT1_ = comdat any

$_ZNSt16allocator_traitsISaINSt7__cxx1112basic_stringIcSt11char_traitsIcESaIcEEEEE9constructIS5_JS5_EEEvRS6_PT_DpOT0_ = comdat any

$_ZNSt15__new_allocatorINSt7__cxx1112basic_stringIcSt11char_traitsIcESaIcEEEE9constructIS5_JS5_EEEvPT_DpOT0_ = comdat any

$_ZNSt15__new_allocatorINSt7__cxx1112basic_stringIcSt11char_traitsIcESaIcEEEE7destroyIS5_EEvPT_ = comdat any

$_ZSt8_DestroyIPNSt7__cxx1112basic_stringIcSt11char_traitsIcESaIcEEEEvT_S7_ = comdat any

$_ZNSt12_Destroy_auxILb0EE9__destroyIPNSt7__cxx1112basic_stringIcSt11char_traitsIcESaIcEEEEEvT_S9_ = comdat any

$_ZSt8_DestroyINSt7__cxx1112basic_stringIcSt11char_traitsIcESaIcEEEEvPT_ = comdat any

$_ZNSt16allocator_traitsISaINSt7__cxx1112basic_stringIcSt11char_traitsIcESaIcEEEEE10deallocateERS6_PS5_m = comdat any

$_ZNSt15__new_allocatorINSt7__cxx1112basic_stringIcSt11char_traitsIcESaIcEEEE10deallocateEPS5_m = comdat any

$_ZNKSt6vectorINSt7__cxx1112basic_stringIcSt11char_traitsIcESaIcEEESaIS5_EE5emptyEv = comdat any

$_ZNSt6vectorINSt7__cxx1112basic_stringIcSt11char_traitsIcESaIcEEESaIS5_EE8pop_backEv = comdat any

$_ZN9__gnu_cxxeqIPKNSt7__cxx1112basic_stringIcSt11char_traitsIcESaIcEEESt6vectorIS6_SaIS6_EEEEbRKNS_17__normal_iteratorIT_T0_EESH_ = comdat any

$_ZNKSt6vectorINSt7__cxx1112basic_stringIcSt11char_traitsIcESaIcEEESaIS5_EE5beginEv = comdat any

$_ZNKSt6vectorINSt7__cxx1112basic_stringIcSt11char_traitsIcESaIcEEESaIS5_EE3endEv = comdat any

$_ZNK9__gnu_cxx17__normal_iteratorIPKNSt7__cxx1112basic_stringIcSt11char_traitsIcESaIcEEESt6vectorIS6_SaIS6_EEE4baseEv = comdat any

$_ZN9__gnu_cxx17__normal_iteratorIPKNSt7__cxx1112basic_stringIcSt11char_traitsIcESaIcEEESt6vectorIS6_SaIS6_EEEC2ERKS8_ = comdat any

$_ZNSt12_Vector_baseINSt7__cxx1112basic_stringIcSt11char_traitsIcESaIcEEESaIS5_EED2Ev = comdat any

$_ZNSt12_Vector_baseINSt7__cxx1112basic_stringIcSt11char_traitsIcESaIcEEESaIS5_EE12_Vector_implD2Ev = comdat any

$_ZNSaINSt7__cxx1112basic_stringIcSt11char_traitsIcESaIcEEEED2Ev = comdat any

$_ZNSt15__new_allocatorINSt7__cxx1112basic_stringIcSt11char_traitsIcESaIcEEEED2Ev = comdat any

$_ZNSt11char_traitsIcE6lengthEPKc = comdat any

$_ZNSt7__cxx1112basic_stringIcSt11char_traitsIcESaIcEE12_M_constructIPKcEEvT_S8_St20forward_iterator_tag = comdat any

$_ZNSt7__cxx1112basic_stringIcSt11char_traitsIcESaIcEE12_Alloc_hiderD2Ev = comdat any

$_ZSt8distanceIPKcENSt15iterator_traitsIT_E15difference_typeES3_S3_ = comdat any

$_ZZNSt7__cxx1112basic_stringIcSt11char_traitsIcESaIcEE12_M_constructIPKcEEvT_S8_St20forward_iterator_tagEN6_GuardC2EPS4_ = comdat any

$_ZZNSt7__cxx1112basic_stringIcSt11char_traitsIcESaIcEE12_M_constructIPKcEEvT_S8_St20forward_iterator_tagEN6_GuardD2Ev = comdat any

$_ZSt10__distanceIPKcENSt15iterator_traitsIT_E15difference_typeES3_S3_St26random_access_iterator_tag = comdat any

$_ZSt19__iterator_categoryIPKcENSt15iterator_traitsIT_E17iterator_categoryERKS3_ = comdat any

$_ZN6Assimp6Logger13formatMessageIJERdEENSt7__cxx1112basic_stringIcSt11char_traitsIcESaIcEEENS_9Formatter15basic_formatterIcS6_S7_EEOT0_DpOT_ = comdat any

$_ZN6Assimp9Formatter15basic_formatterIcSt11char_traitsIcESaIcEEC2IA32_cEERKT_ = comdat any

$_ZN6Assimp9Formatter15basic_formatterIcSt11char_traitsIcESaIcEElsIdTnPNSt9enable_ifIXntsr3std10is_base_ofISt9exceptionT_EE5valueEvE4typeELPv0EEERS5_RKS9_ = comdat any

$_ZNSt15__uniq_ptr_dataI7aiSceneSt14default_deleteIS0_ELb1ELb1EECI2St15__uniq_ptr_implIS0_S2_EEPS0_ = comdat any

$_ZNSt15__uniq_ptr_implI7aiSceneSt14default_deleteIS0_EEC2EPS0_ = comdat any

$_ZNSt5tupleIJP7aiSceneSt14default_deleteIS0_EEEC2ILb1ETnNSt9enable_ifIXclsr17_TupleConstraintsIXT_ES1_S3_EE37__is_implicitly_default_constructibleEEbE4typeELb1EEEv = comdat any

$_ZNSt15__uniq_ptr_implI7aiSceneSt14default_deleteIS0_EE6_M_ptrEv = comdat any

$_ZNSt11_Tuple_implILm0EJP7aiSceneSt14default_deleteIS0_EEEC2Ev = comdat any

$_ZNSt11_Tuple_implILm1EJSt14default_deleteI7aiSceneEEEC2Ev = comdat any

$_ZNSt10_Head_baseILm0EP7aiSceneLb0EEC2Ev = comdat any

$_ZNSt10_Head_baseILm1ESt14default_deleteI7aiSceneELb1EEC2Ev = comdat any

$_ZSt3getILm0EJP7aiSceneSt14default_deleteIS0_EEERNSt13tuple_elementIXT_ESt5tupleIJDpT0_EEE4typeERS8_ = comdat any

$_ZSt12__get_helperILm0EP7aiSceneJSt14default_deleteIS0_EEERT0_RSt11_Tuple_implIXT_EJS4_DpT1_EE = comdat any

$_ZNSt11_Tuple_implILm0EJP7aiSceneSt14default_deleteIS0_EEE7_M_headERS4_ = comdat any

$_ZNSt10_Head_baseILm0EP7aiSceneLb0EE7_M_headERS2_ = comdat any

$_ZNSt10unique_ptrI7aiSceneSt14default_deleteIS0_EE11get_deleterEv = comdat any

$_ZNKSt14default_deleteI7aiSceneEclEPS0_ = comdat any

$_ZNSt15__uniq_ptr_implI7aiSceneSt14default_deleteIS0_EE10_M_deleterEv = comdat any

$_ZSt3getILm1EJP7aiSceneSt14default_deleteIS0_EEERNSt13tuple_elementIXT_ESt5tupleIJDpT0_EEE4typeERS8_ = comdat any

$_ZSt12__get_helperILm1ESt14default_deleteI7aiSceneEJEERT0_RSt11_Tuple_implIXT_EJS3_DpT1_EE = comdat any

$_ZNSt11_Tuple_implILm1EJSt14default_deleteI7aiSceneEEE7_M_headERS3_ = comdat any

$_ZNSt10_Head_baseILm1ESt14default_deleteI7aiSceneELb1EE7_M_headERS3_ = comdat any

$_ZNKSt15__uniq_ptr_implI7aiSceneSt14default_deleteIS0_EE6_M_ptrEv = comdat any

$_ZSt3getILm0EJP7aiSceneSt14default_deleteIS0_EEERKNSt13tuple_elementIXT_ESt5tupleIJDpT0_EEE4typeERKS8_ = comdat any

$_ZSt12__get_helperILm0EP7aiSceneJSt14default_deleteIS0_EEERKT0_RKSt11_Tuple_implIXT_EJS4_DpT1_EE = comdat any

$_ZNSt11_Tuple_implILm0EJP7aiSceneSt14default_deleteIS0_EEE7_M_headERKS4_ = comdat any

$_ZNSt10_Head_baseILm0EP7aiSceneLb0EE7_M_headERKS2_ = comdat any

$_ZNSt15__uniq_ptr_implI7aiSceneSt14default_deleteIS0_EE7releaseEv = comdat any

$_ZNSt8_Rb_treeINSt7__cxx1112basic_stringIcSt11char_traitsIcESaIcEEES5_St9_IdentityIS5_ESt4lessIS5_ESaIS5_EE16_M_insert_uniqueIS5_EESt4pairISt17_Rb_tree_iteratorIS5_EbEOT_ = comdat any

$_ZNSt4pairISt23_Rb_tree_const_iteratorINSt7__cxx1112basic_stringIcSt11char_traitsIcESaIcEEEEbEC2IRSt17_Rb_tree_iteratorIS6_ERbTnNSt9enable_ifIXaaclsr5_PCCPE22_MoveConstructiblePairIT_T0_EEclsr5_PCCPE30_ImplicitlyMoveConvertiblePairISF_SG_EEEbE4typeELb1EEEOSF_OSG_ = comdat any

$_ZNSt8_Rb_treeINSt7__cxx1112basic_stringIcSt11char_traitsIcESaIcEEES5_St9_IdentityIS5_ESt4lessIS5_ESaIS5_EE24_M_get_insert_unique_posERKS5_ = comdat any

$_ZNKSt9_IdentityINSt7__cxx1112basic_stringIcSt11char_traitsIcESaIcEEEEclERS5_ = comdat any

$_ZNSt8_Rb_treeINSt7__cxx1112basic_stringIcSt11char_traitsIcESaIcEEES5_St9_IdentityIS5_ESt4lessIS5_ESaIS5_EE11_Alloc_nodeC2ERSB_ = comdat any

$_ZNSt8_Rb_treeINSt7__cxx1112basic_stringIcSt11char_traitsIcESaIcEEES5_St9_IdentityIS5_ESt4lessIS5_ESaIS5_EE10_M_insert_IS5_NSB_11_Alloc_nodeEEESt17_Rb_tree_iteratorIS5_EPSt18_Rb_tree_node_baseSH_OT_RT0_ = comdat any

$_ZNSt4pairISt17_Rb_tree_iteratorINSt7__cxx1112basic_stringIcSt11char_traitsIcESaIcEEEEbEC2IS7_bTnNSt9enable_ifIXaaclsr5_PCCPE22_MoveConstructiblePairIT_T0_EEclsr5_PCCPE30_ImplicitlyMoveConvertiblePairISB_SC_EEEbE4typeELb1EEEOSB_OSC_ = comdat any

$_ZNSt17_Rb_tree_iteratorINSt7__cxx1112basic_stringIcSt11char_traitsIcESaIcEEEEC2EPSt18_Rb_tree_node_base = comdat any

$_ZNSt8_Rb_treeINSt7__cxx1112basic_stringIcSt11char_traitsIcESaIcEEES5_St9_IdentityIS5_ESt4lessIS5_ESaIS5_EE6_M_endEv = comdat any

$_ZNKSt4lessINSt7__cxx1112basic_stringIcSt11char_traitsIcESaIcEEEEclERKS5_S8_ = comdat any

$_ZNSt8_Rb_treeINSt7__cxx1112basic_stringIcSt11char_traitsIcESaIcEEES5_St9_IdentityIS5_ESt4lessIS5_ESaIS5_EE6_S_keyEPKSt13_Rb_tree_nodeIS5_E = comdat any

$_ZSteqRKSt17_Rb_tree_iteratorINSt7__cxx1112basic_stringIcSt11char_traitsIcESaIcEEEES8_ = comdat any

$_ZNSt8_Rb_treeINSt7__cxx1112basic_stringIcSt11char_traitsIcESaIcEEES5_St9_IdentityIS5_ESt4lessIS5_ESaIS5_EE5beginEv = comdat any

$_ZNSt4pairIPSt18_Rb_tree_node_baseS1_EC2IRPSt13_Rb_tree_nodeINSt7__cxx1112basic_stringIcSt11char_traitsIcESaIcEEEERS1_TnNSt9enable_ifIXaaclsr5_PCCPE22_MoveConstructiblePairIT_T0_EEclsr5_PCCPE30_ImplicitlyMoveConvertiblePairISG_SH_EEEbE4typeELb1EEEOSG_OSH_ = comdat any

$_ZNSt17_Rb_tree_iteratorINSt7__cxx1112basic_stringIcSt11char_traitsIcESaIcEEEEmmEv = comdat any

$_ZNSt8_Rb_treeINSt7__cxx1112basic_stringIcSt11char_traitsIcESaIcEEES5_St9_IdentityIS5_ESt4lessIS5_ESaIS5_EE6_S_keyEPKSt18_Rb_tree_node_base = comdat any

$_ZNSt4pairIPSt18_Rb_tree_node_baseS1_EC2IS1_S1_TnNSt9enable_ifIXaaclsr5_PCCPE18_ConstructiblePairIT_T0_EEclsr5_PCCPE26_ImplicitlyConvertiblePairIS5_S6_EEEbE4typeELb1EEERKS1_SA_ = comdat any

$_ZStltIcSt11char_traitsIcESaIcEEbRKNSt7__cxx1112basic_stringIT_T0_T1_EESA_ = comdat any

$_ZNKSt9_IdentityINSt7__cxx1112basic_stringIcSt11char_traitsIcESaIcEEEEclERKS5_ = comdat any

$_ZNKSt13_Rb_tree_nodeINSt7__cxx1112basic_stringIcSt11char_traitsIcESaIcEEEE9_M_valptrEv = comdat any

$_ZNK9__gnu_cxx16__aligned_membufINSt7__cxx1112basic_stringIcSt11char_traitsIcESaIcEEEE6_M_ptrEv = comdat any

$_ZNK9__gnu_cxx16__aligned_membufINSt7__cxx1112basic_stringIcSt11char_traitsIcESaIcEEEE7_M_addrEv = comdat any

$_ZNKSt8_Rb_treeINSt7__cxx1112basic_stringIcSt11char_traitsIcESaIcEEES5_St9_IdentityIS5_ESt4lessIS5_ESaIS5_EE11_Alloc_nodeclIS5_EEPSt13_Rb_tree_nodeIS5_EOT_ = comdat any

$_ZNSt8_Rb_treeINSt7__cxx1112basic_stringIcSt11char_traitsIcESaIcEEES5_St9_IdentityIS5_ESt4lessIS5_ESaIS5_EE14_M_create_nodeIJS5_EEEPSt13_Rb_tree_nodeIS5_EDpOT_ = comdat any

$_ZNSt8_Rb_treeINSt7__cxx1112basic_stringIcSt11char_traitsIcESaIcEEES5_St9_IdentityIS5_ESt4lessIS5_ESaIS5_EE11_M_get_nodeEv = comdat any

$_ZNSt8_Rb_treeINSt7__cxx1112basic_stringIcSt11char_traitsIcESaIcEEES5_St9_IdentityIS5_ESt4lessIS5_ESaIS5_EE17_M_construct_nodeIJS5_EEEvPSt13_Rb_tree_nodeIS5_EDpOT_ = comdat any

$_ZNSt16allocator_traitsISaISt13_Rb_tree_nodeINSt7__cxx1112basic_stringIcSt11char_traitsIcESaIcEEEEEE8allocateERS8_m = comdat any

$_ZNSt15__new_allocatorISt13_Rb_tree_nodeINSt7__cxx1112basic_stringIcSt11char_traitsIcESaIcEEEEE8allocateEmPKv = comdat any

$_ZNKSt15__new_allocatorISt13_Rb_tree_nodeINSt7__cxx1112basic_stringIcSt11char_traitsIcESaIcEEEEE11_M_max_sizeEv = comdat any

$_ZNSt16allocator_traitsISaISt13_Rb_tree_nodeINSt7__cxx1112basic_stringIcSt11char_traitsIcESaIcEEEEEE9constructIS6_JS6_EEEvRS8_PT_DpOT0_ = comdat any

$_ZNSt15__new_allocatorISt13_Rb_tree_nodeINSt7__cxx1112basic_stringIcSt11char_traitsIcESaIcEEEEE9constructIS6_JS6_EEEvPT_DpOT0_ = comdat any

$_ZNSt23_Rb_tree_const_iteratorINSt7__cxx1112basic_stringIcSt11char_traitsIcESaIcEEEEC2ERKSt17_Rb_tree_iteratorIS5_E = comdat any

$_ZNSt15__uniq_ptr_dataIN6Assimp8IOStreamESt14default_deleteIS1_ELb1ELb1EECI2St15__uniq_ptr_implIS1_S3_EEPS1_ = comdat any

$_ZNSt15__uniq_ptr_implIN6Assimp8IOStreamESt14default_deleteIS1_EEC2EPS1_ = comdat any

$_ZNSt5tupleIJPN6Assimp8IOStreamESt14default_deleteIS1_EEEC2ILb1ETnNSt9enable_ifIXclsr17_TupleConstraintsIXT_ES2_S4_EE37__is_implicitly_default_constructibleEEbE4typeELb1EEEv = comdat any

$_ZNSt15__uniq_ptr_implIN6Assimp8IOStreamESt14default_deleteIS1_EE6_M_ptrEv = comdat any

$_ZNSt11_Tuple_implILm0EJPN6Assimp8IOStreamESt14default_deleteIS1_EEEC2Ev = comdat any

$_ZNSt11_Tuple_implILm1EJSt14default_deleteIN6Assimp8IOStreamEEEEC2Ev = comdat any

$_ZNSt10_Head_baseILm0EPN6Assimp8IOStreamELb0EEC2Ev = comdat any

$_ZNSt10_Head_baseILm1ESt14default_deleteIN6Assimp8IOStreamEELb1EEC2Ev = comdat any

$_ZSt3getILm0EJPN6Assimp8IOStreamESt14default_deleteIS1_EEERNSt13tuple_elementIXT_ESt5tupleIJDpT0_EEE4typeERS9_ = comdat any

$_ZSt12__get_helperILm0EPN6Assimp8IOStreamEJSt14default_deleteIS1_EEERT0_RSt11_Tuple_implIXT_EJS5_DpT1_EE = comdat any

$_ZNSt11_Tuple_implILm0EJPN6Assimp8IOStreamESt14default_deleteIS1_EEE7_M_headERS5_ = comdat any

$_ZNSt10_Head_baseILm0EPN6Assimp8IOStreamELb0EE7_M_headERS3_ = comdat any

$_ZNSt10unique_ptrIN6Assimp8IOStreamESt14default_deleteIS1_EE11get_deleterEv = comdat any

$_ZNKSt14default_deleteIN6Assimp8IOStreamEEclEPS1_ = comdat any

$_ZNSt15__uniq_ptr_implIN6Assimp8IOStreamESt14default_deleteIS1_EE10_M_deleterEv = comdat any

$_ZSt3getILm1EJPN6Assimp8IOStreamESt14default_deleteIS1_EEERNSt13tuple_elementIXT_ESt5tupleIJDpT0_EEE4typeERS9_ = comdat any

$_ZSt12__get_helperILm1ESt14default_deleteIN6Assimp8IOStreamEEJEERT0_RSt11_Tuple_implIXT_EJS4_DpT1_EE = comdat any

$_ZNSt11_Tuple_implILm1EJSt14default_deleteIN6Assimp8IOStreamEEEE7_M_headERS4_ = comdat any

$_ZNSt10_Head_baseILm1ESt14default_deleteIN6Assimp8IOStreamEELb1EE7_M_headERS4_ = comdat any

$_ZNKSt10unique_ptrIN6Assimp8IOStreamESt14default_deleteIS1_EE3getEv = comdat any

$_ZNKSt15__uniq_ptr_implIN6Assimp8IOStreamESt14default_deleteIS1_EE6_M_ptrEv = comdat any

$_ZSt3getILm0EJPN6Assimp8IOStreamESt14default_deleteIS1_EEERKNSt13tuple_elementIXT_ESt5tupleIJDpT0_EEE4typeERKS9_ = comdat any

$_ZSt12__get_helperILm0EPN6Assimp8IOStreamEJSt14default_deleteIS1_EEERKT0_RKSt11_Tuple_implIXT_EJS5_DpT1_EE = comdat any

$_ZNSt11_Tuple_implILm0EJPN6Assimp8IOStreamESt14default_deleteIS1_EEE7_M_headERKS5_ = comdat any

$_ZNSt10_Head_baseILm0EPN6Assimp8IOStreamELb0EE7_M_headERKS3_ = comdat any

$_ZNSt15__uniq_ptr_dataIcSt14default_deleteIA_cELb1ELb1EECI2St15__uniq_ptr_implIcS2_EEPc = comdat any

$_ZNSt15__uniq_ptr_implIcSt14default_deleteIA_cEEC2EPc = comdat any

$_ZNSt5tupleIJPcSt14default_deleteIA_cEEEC2ILb1ETnNSt9enable_ifIXclsr17_TupleConstraintsIXT_ES0_S3_EE37__is_implicitly_default_constructibleEEbE4typeELb1EEEv = comdat any

$_ZNSt15__uniq_ptr_implIcSt14default_deleteIA_cEE6_M_ptrEv = comdat any

$_ZNSt11_Tuple_implILm0EJPcSt14default_deleteIA_cEEEC2Ev = comdat any

$_ZNSt11_Tuple_implILm1EJSt14default_deleteIA_cEEEC2Ev = comdat any

$_ZNSt10_Head_baseILm0EPcLb0EEC2Ev = comdat any

$_ZNSt10_Head_baseILm1ESt14default_deleteIA_cELb1EEC2Ev = comdat any

$_ZSt3getILm0EJPcSt14default_deleteIA_cEEERNSt13tuple_elementIXT_ESt5tupleIJDpT0_EEE4typeERS8_ = comdat any

$_ZSt12__get_helperILm0EPcJSt14default_deleteIA_cEEERT0_RSt11_Tuple_implIXT_EJS4_DpT1_EE = comdat any

$_ZNSt11_Tuple_implILm0EJPcSt14default_deleteIA_cEEE7_M_headERS4_ = comdat any

$_ZNSt10_Head_baseILm0EPcLb0EE7_M_headERS1_ = comdat any

$_ZNSt10unique_ptrIA_cSt14default_deleteIS0_EE11get_deleterEv = comdat any

$_ZNKSt14default_deleteIA_cEclIcEENSt9enable_ifIXsr14is_convertibleIPA_T_PS0_EE5valueEvE4typeEPS4_ = comdat any

$_ZNSt15__uniq_ptr_implIcSt14default_deleteIA_cEE10_M_deleterEv = comdat any

$_ZSt3getILm1EJPcSt14default_deleteIA_cEEERNSt13tuple_elementIXT_ESt5tupleIJDpT0_EEE4typeERS8_ = comdat any

$_ZSt12__get_helperILm1ESt14default_deleteIA_cEJEERT0_RSt11_Tuple_implIXT_EJS3_DpT1_EE = comdat any

$_ZNSt11_Tuple_implILm1EJSt14default_deleteIA_cEEE7_M_headERS3_ = comdat any

$_ZNSt10_Head_baseILm1ESt14default_deleteIA_cELb1EE7_M_headERS3_ = comdat any

$_ZNKSt15__uniq_ptr_implIcSt14default_deleteIA_cEE6_M_ptrEv = comdat any

$_ZSt3getILm0EJPcSt14default_deleteIA_cEEERKNSt13tuple_elementIXT_ESt5tupleIJDpT0_EEE4typeERKS8_ = comdat any

$_ZSt12__get_helperILm0EPcJSt14default_deleteIA_cEEERKT0_RKSt11_Tuple_implIXT_EJS4_DpT1_EE = comdat any

$_ZNSt11_Tuple_implILm0EJPcSt14default_deleteIA_cEEE7_M_headERKS4_ = comdat any

$_ZNSt10_Head_baseILm0EPcLb0EE7_M_headERKS1_ = comdat any

$_ZN6Assimp6Logger13formatMessageIJERPKcEENSt7__cxx1112basic_stringIcSt11char_traitsIcESaIcEEENS_9Formatter15basic_formatterIcS8_S9_EEOT0_DpOT_ = comdat any

$_ZN6Assimp9Formatter15basic_formatterIcSt11char_traitsIcESaIcEEC2IA42_cEERKT_ = comdat any

$_ZNSt8_Rb_treeINSt7__cxx1112basic_stringIcSt11char_traitsIcESaIcEEES5_St9_IdentityIS5_ESt4lessIS5_ESaIS5_EE17_M_emplace_uniqueIJRPKcEEESt4pairISt17_Rb_tree_iteratorIS5_EbEDpOT_ = comdat any

$_ZNSt4pairISt23_Rb_tree_const_iteratorINSt7__cxx1112basic_stringIcSt11char_traitsIcESaIcEEEEbEC2ISt17_Rb_tree_iteratorIS6_EbTnNSt9enable_ifIXaaclsr6_PCCFPIT_T0_EE22_MoveConstructiblePairISD_SE_EEclsr6_PCCFPISD_SE_EE30_ImplicitlyMoveConvertiblePairISD_SE_EEEbE4typeELb1EEEOS_ISD_SE_E = comdat any

$_ZNSt8_Rb_treeINSt7__cxx1112basic_stringIcSt11char_traitsIcESaIcEEES5_St9_IdentityIS5_ESt4lessIS5_ESaIS5_EE10_Auto_nodeC2IJRPKcEEERSB_DpOT_ = comdat any

$_ZNKSt8_Rb_treeINSt7__cxx1112basic_stringIcSt11char_traitsIcESaIcEEES5_St9_IdentityIS5_ESt4lessIS5_ESaIS5_EE10_Auto_node6_M_keyEv = comdat any

$_ZNSt8_Rb_treeINSt7__cxx1112basic_stringIcSt11char_traitsIcESaIcEEES5_St9_IdentityIS5_ESt4lessIS5_ESaIS5_EE10_Auto_node9_M_insertESt4pairIPSt18_Rb_tree_node_baseSF_E = comdat any

$_ZNSt8_Rb_treeINSt7__cxx1112basic_stringIcSt11char_traitsIcESaIcEEES5_St9_IdentityIS5_ESt4lessIS5_ESaIS5_EE10_Auto_nodeD2Ev = comdat any

$_ZNSt8_Rb_treeINSt7__cxx1112basic_stringIcSt11char_traitsIcESaIcEEES5_St9_IdentityIS5_ESt4lessIS5_ESaIS5_EE14_M_create_nodeIJRPKcEEEPSt13_Rb_tree_nodeIS5_EDpOT_ = comdat any

$_ZNSt8_Rb_treeINSt7__cxx1112basic_stringIcSt11char_traitsIcESaIcEEES5_St9_IdentityIS5_ESt4lessIS5_ESaIS5_EE17_M_construct_nodeIJRPKcEEEvPSt13_Rb_tree_nodeIS5_EDpOT_ = comdat any

$_ZNSt16allocator_traitsISaISt13_Rb_tree_nodeINSt7__cxx1112basic_stringIcSt11char_traitsIcESaIcEEEEEE9constructIS6_JRPKcEEEvRS8_PT_DpOT0_ = comdat any

$_ZNSt15__new_allocatorISt13_Rb_tree_nodeINSt7__cxx1112basic_stringIcSt11char_traitsIcESaIcEEEEE9constructIS6_JRPKcEEEvPT_DpOT0_ = comdat any

$_ZNSt8_Rb_treeINSt7__cxx1112basic_stringIcSt11char_traitsIcESaIcEEES5_St9_IdentityIS5_ESt4lessIS5_ESaIS5_EE14_M_insert_nodeEPSt18_Rb_tree_node_baseSD_PSt13_Rb_tree_nodeIS5_E = comdat any

$_ZNKSt8_Rb_treeINSt7__cxx1112basic_stringIcSt11char_traitsIcESaIcEEES5_St9_IdentityIS5_ESt4lessIS5_ESaIS5_EE5beginEv = comdat any

$_ZNSt23_Rb_tree_const_iteratorINSt7__cxx1112basic_stringIcSt11char_traitsIcESaIcEEEEC2EPKSt18_Rb_tree_node_base = comdat any

$_ZNKSt8_Rb_treeINSt7__cxx1112basic_stringIcSt11char_traitsIcESaIcEEES5_St9_IdentityIS5_ESt4lessIS5_ESaIS5_EE3endEv = comdat any

$_ZN9__gnu_cxx14__alloc_traitsISaIcEcE17_S_select_on_copyERKS1_ = comdat any

$_ZNSt16allocator_traitsISaIcEE37select_on_container_copy_constructionERKS0_ = comdat any

$_ZN6Assimp8ByteSwap8_swapperItLm2EEclEt = comdat any

$_ZN6Assimp8ByteSwap8_swapperIjLm4EEclEj = comdat any

$_ZN6Assimp8ByteSwap5Swap4EPv = comdat any

$_ZN9__gnu_cxx17__normal_iteratorIPcSt6vectorIcSaIcEEEC2ERKS1_ = comdat any

$_ZSt13__copy_move_aILb0EN9__gnu_cxx17__normal_iteratorIPcSt6vectorIcSaIcEEEES6_ET1_T0_S8_S7_ = comdat any

$_ZSt12__miter_baseIN9__gnu_cxx17__normal_iteratorIPcSt6vectorIcSaIcEEEEET_S7_ = comdat any

$_ZSt12__niter_wrapIN9__gnu_cxx17__normal_iteratorIPcSt6vectorIcSaIcEEEES2_ET_S7_T0_ = comdat any

$_ZSt14__copy_move_a1ILb0EPcS0_ET1_T0_S2_S1_ = comdat any

$_ZSt12__niter_baseIPcSt6vectorIcSaIcEEET_N9__gnu_cxx17__normal_iteratorIS4_T0_EE = comdat any

$_ZSt14__copy_move_a2ILb0EPcS0_ET1_T0_S2_S1_ = comdat any

$_ZNSt11__copy_moveILb0ELb1ESt26random_access_iterator_tagE8__copy_mIcEEPT_PKS3_S6_S4_ = comdat any

$_ZNK9__gnu_cxx17__normal_iteratorIPcSt6vectorIcSaIcEEE4baseEv = comdat any

$_ZNSt6vectorIcSaIcEE17_M_default_appendEm = comdat any

$_ZNSt6vectorIcSaIcEE15_M_erase_at_endEPc = comdat any

$_ZNKSt6vectorIcSaIcEE8max_sizeEv = comdat any

$_ZSt27__uninitialized_default_n_aIPcmcET_S1_T0_RSaIT1_E = comdat any

$_ZNSt12_Vector_baseIcSaIcEE19_M_get_Tp_allocatorEv = comdat any

$_ZNKSt6vectorIcSaIcEE12_M_check_lenEmPKc = comdat any

$_ZNSt12_Vector_baseIcSaIcEE11_M_allocateEm = comdat any

$_ZNSt12_Vector_baseIcSaIcEE13_M_deallocateEPcm = comdat any

$_ZNSt6vectorIcSaIcEE11_S_relocateEPcS2_S2_RS0_ = comdat any

$_ZNSt6vectorIcSaIcEE11_S_max_sizeERKS0_ = comdat any

$_ZNKSt12_Vector_baseIcSaIcEE19_M_get_Tp_allocatorEv = comdat any

$_ZNSt16allocator_traitsISaIcEE8max_sizeERKS0_ = comdat any

$_ZNKSt15__new_allocatorIcE8max_sizeEv = comdat any

$_ZNKSt15__new_allocatorIcE11_M_max_sizeEv = comdat any

$_ZSt25__uninitialized_default_nIPcmET_S1_T0_ = comdat any

$_ZNSt27__uninitialized_default_n_1ILb1EE18__uninit_default_nIPcmEET_S3_T0_ = comdat any

$_ZSt10_ConstructIcJEEvPT_DpOT0_ = comdat any

$_ZSt6fill_nIPcmcET_S1_T0_RKT1_ = comdat any

$_ZSt10__fill_n_aIPcmcET_S1_T0_RKT1_St26random_access_iterator_tag = comdat any

$_ZSt17__size_to_integerm = comdat any

$_ZSt19__iterator_categoryIPcENSt15iterator_traitsIT_E17iterator_categoryERKS2_ = comdat any

$_ZSt8__fill_aIPccEvT_S1_RKT0_ = comdat any

$_ZSt9__fill_a1IcEN9__gnu_cxx11__enable_ifIXsr9__is_byteIT_EE7__valueEvE6__typeEPS2_S5_RKS2_ = comdat any

$_ZNSt16allocator_traitsISaIcEE8allocateERS0_m = comdat any

$_ZNSt15__new_allocatorIcE8allocateEmPKv = comdat any

$_ZNSt16allocator_traitsISaIcEE10deallocateERS0_Pcm = comdat any

$_ZNSt15__new_allocatorIcE10deallocateEPcm = comdat any

$_ZSt12__relocate_aIPcS0_SaIcEET0_T_S3_S2_RT1_ = comdat any

$_ZSt14__relocate_a_1IccENSt9enable_ifIXsr3std24__is_bitwise_relocatableIT_EE5valueEPS1_E4typeES2_S2_S2_RSaIT0_E = comdat any

$_ZSt12__niter_baseIPcET_S1_ = comdat any

$_ZSt8_DestroyIPccEvT_S1_RSaIT0_E = comdat any

$_ZSt8_DestroyIPcEvT_S1_ = comdat any

$_ZNSt12_Destroy_auxILb1EE9__destroyIPcEEvT_S3_ = comdat any

$_ZNK9__gnu_cxx17__normal_iteratorIPcSt6vectorIcSaIcEEEdeEv = comdat any

$_ZNK9__gnu_cxx17__normal_iteratorIPcSt6vectorIcSaIcEEEmiEl = comdat any

$_ZNSt12_Vector_baseIcSaIcEED2Ev = comdat any

$_ZNSt12_Vector_baseIcSaIcEE12_Vector_implD2Ev = comdat any

$_ZNSt20back_insert_iteratorISt6vectorIcSaIcEEEC2ERS2_ = comdat any

$_ZN4utf86appendISt20back_insert_iteratorISt6vectorIcSaIcEEEEET_jS6_ = comdat any

$_ZN4utf88internal19is_code_point_validIjEEbT_ = comdat any

$_ZN4utf818invalid_code_pointC2Ej = comdat any

$_ZN4utf818invalid_code_pointD2Ev = comdat any

$_ZN4utf88internal6appendISt6vectorIcSaIcEEEESt20back_insert_iteratorIT_EjS7_ = comdat any

$_ZN4utf88internal12is_surrogateIjEEbT_ = comdat any

$_ZN4utf89exceptionC2Ev = comdat any

$_ZN4utf818invalid_code_pointD0Ev = comdat any

$_ZNK4utf818invalid_code_point4whatEv = comdat any

$_ZNSt9exceptionC2Ev = comdat any

$_ZN4utf89exceptionD2Ev = comdat any

$_ZN4utf89exceptionD0Ev = comdat any

$_ZN4utf88internal6appendISt20back_insert_iteratorISt6vectorIcSaIcEEEcEET_jS7_ = comdat any

$_ZNSt20back_insert_iteratorISt6vectorIcSaIcEEEppEi = comdat any

$_ZNSt20back_insert_iteratorISt6vectorIcSaIcEEEdeEv = comdat any

$_ZNSt20back_insert_iteratorISt6vectorIcSaIcEEEaSEOc = comdat any

$_ZSt8_DestroyIPhhEvT_S1_RSaIT0_E = comdat any

$_ZNSt12_Vector_baseIhSaIhEE19_M_get_Tp_allocatorEv = comdat any

$_ZNSt12_Vector_baseIhSaIhEED2Ev = comdat any

$_ZSt8_DestroyIPhEvT_S1_ = comdat any

$_ZNSt12_Destroy_auxILb1EE9__destroyIPhEEvT_S3_ = comdat any

$_ZNSt12_Vector_baseIhSaIhEE13_M_deallocateEPhm = comdat any

$_ZNSt12_Vector_baseIhSaIhEE12_Vector_implD2Ev = comdat any

$_ZNSt16allocator_traitsISaIhEE10deallocateERS0_Phm = comdat any

$_ZNSt15__new_allocatorIhE10deallocateEPhm = comdat any

$_ZNSaIhED2Ev = comdat any

$_ZNSt15__new_allocatorIhED2Ev = comdat any

$_ZNSt20back_insert_iteratorISt6vectorIhSaIhEEEC2ERS2_ = comdat any

$_ZN9__gnu_cxxneIPcSt6vectorIcSaIcEEEEbRKNS_17__normal_iteratorIT_T0_EESA_ = comdat any

$_ZN4utf88internal6mask16IcEEtT_ = comdat any

$_ZN9__gnu_cxx17__normal_iteratorIPcSt6vectorIcSaIcEEEppEi = comdat any

$_ZN4utf88internal17is_lead_surrogateIjEEbT_ = comdat any

$_ZN4utf88internal18is_trail_surrogateIjEEbT_ = comdat any

$_ZN4utf813invalid_utf16C2Et = comdat any

$_ZN4utf813invalid_utf16D2Ev = comdat any

$_ZN4utf86appendISt20back_insert_iteratorISt6vectorIhSaIhEEEEET_jS6_ = comdat any

$_ZN4utf813invalid_utf16D0Ev = comdat any

$_ZNK4utf813invalid_utf164whatEv = comdat any

$_ZN4utf88internal6appendISt6vectorIhSaIhEEEESt20back_insert_iteratorIT_EjS7_ = comdat any

$_ZN4utf88internal6appendISt20back_insert_iteratorISt6vectorIhSaIhEEEhEET_jS7_ = comdat any

$_ZNSt20back_insert_iteratorISt6vectorIhSaIhEEEppEi = comdat any

$_ZNSt20back_insert_iteratorISt6vectorIhSaIhEEEdeEv = comdat any

$_ZNSt20back_insert_iteratorISt6vectorIhSaIhEEEaSEOh = comdat any

$_ZNSt6vectorIhSaIhEE9push_backEOh = comdat any

$_ZNSt6vectorIhSaIhEE12emplace_backIJhEEERhDpOT_ = comdat any

$_ZNSt16allocator_traitsISaIhEE9constructIhJhEEEvRS0_PT_DpOT0_ = comdat any

$_ZNSt6vectorIhSaIhEE17_M_realloc_insertIJhEEEvN9__gnu_cxx17__normal_iteratorIPhS1_EEDpOT_ = comdat any

$_ZNSt6vectorIhSaIhEE3endEv = comdat any

$_ZNSt6vectorIhSaIhEE4backEv = comdat any

$_ZNSt15__new_allocatorIhE9constructIhJhEEEvPT_DpOT0_ = comdat any

$_ZNKSt6vectorIhSaIhEE12_M_check_lenEmPKc = comdat any

$_ZN9__gnu_cxxmiIPhSt6vectorIhSaIhEEEENS_17__normal_iteratorIT_T0_E15difference_typeERKS8_SB_ = comdat any

$_ZNSt6vectorIhSaIhEE5beginEv = comdat any

$_ZNSt12_Vector_baseIhSaIhEE11_M_allocateEm = comdat any

$_ZNSt6vectorIhSaIhEE11_S_relocateEPhS2_S2_RS0_ = comdat any

$_ZNK9__gnu_cxx17__normal_iteratorIPhSt6vectorIhSaIhEEE4baseEv = comdat any

$_ZNKSt6vectorIhSaIhEE8max_sizeEv = comdat any

$_ZNKSt6vectorIhSaIhEE4sizeEv = comdat any

$_ZNSt6vectorIhSaIhEE11_S_max_sizeERKS0_ = comdat any

$_ZNKSt12_Vector_baseIhSaIhEE19_M_get_Tp_allocatorEv = comdat any

$_ZNSt16allocator_traitsISaIhEE8max_sizeERKS0_ = comdat any

$_ZNKSt15__new_allocatorIhE8max_sizeEv = comdat any

$_ZNKSt15__new_allocatorIhE11_M_max_sizeEv = comdat any

$_ZN9__gnu_cxx17__normal_iteratorIPhSt6vectorIhSaIhEEEC2ERKS1_ = comdat any

$_ZNSt16allocator_traitsISaIhEE8allocateERS0_m = comdat any

$_ZNSt15__new_allocatorIhE8allocateEmPKv = comdat any

$_ZSt12__relocate_aIPhS0_SaIhEET0_T_S3_S2_RT1_ = comdat any

$_ZSt14__relocate_a_1IhhENSt9enable_ifIXsr3std24__is_bitwise_relocatableIT_EE5valueEPS1_E4typeES2_S2_S2_RSaIT0_E = comdat any

$_ZSt12__niter_baseIPhET_S1_ = comdat any

$_ZNK9__gnu_cxx17__normal_iteratorIPhSt6vectorIhSaIhEEEmiEl = comdat any

$_ZNK9__gnu_cxx17__normal_iteratorIPhSt6vectorIhSaIhEEEdeEv = comdat any

$_ZN6Assimp9Formatter15basic_formatterIcSt11char_traitsIcESaIcEEC2INSt7__cxx1112basic_stringIcS3_S4_EEEERKT_ = comdat any

$_ZNKSt6vectorIcSaIcEE8capacityEv = comdat any

$_ZNSt6vectorIcSaIcEE12emplace_backIJcEEERcDpOT_ = comdat any

$_ZNSt16allocator_traitsISaIcEE9constructIcJcEEEvRS0_PT_DpOT0_ = comdat any

$_ZNSt6vectorIcSaIcEE17_M_realloc_insertIJcEEEvN9__gnu_cxx17__normal_iteratorIPcS1_EEDpOT_ = comdat any

$_ZNSt15__new_allocatorIcE9constructIcJcEEEvPT_DpOT0_ = comdat any

$_ZN9__gnu_cxxmiIPcSt6vectorIcSaIcEEEENS_17__normal_iteratorIT_T0_E15difference_typeERKS8_SB_ = comdat any

$_ZNSt14_List_iteratorIN6Assimp11LoadRequestEEC2EPNSt8__detail15_List_node_baseE = comdat any

$_ZNSt7__cxx114listIN6Assimp11LoadRequestESaIS2_EE9_M_insertIJRKNS_12basic_stringIcSt11char_traitsIcESaIcEEERjRPKNS1_11BatchLoader11PropertyMapESD_EEEvSt14_List_iteratorIS2_EDpOT_ = comdat any

$_ZNSt7__cxx114listIN6Assimp11LoadRequestESaIS2_EE4backEv = comdat any

$_ZNSt7__cxx114listIN6Assimp11LoadRequestESaIS2_EE14_M_create_nodeIJRKNS_12basic_stringIcSt11char_traitsIcESaIcEEERjRPKNS1_11BatchLoader11PropertyMapESD_EEEPSt10_List_nodeIS2_EDpOT_ = comdat any

$_ZNSt7__cxx1110_List_baseIN6Assimp11LoadRequestESaIS2_EE11_M_inc_sizeEm = comdat any

$_ZNSt7__cxx1110_List_baseIN6Assimp11LoadRequestESaIS2_EE11_M_get_nodeEv = comdat any

$_ZNSt15__allocated_ptrISaISt10_List_nodeIN6Assimp11LoadRequestEEEEC2ERS4_PS3_ = comdat any

$_ZNSt16allocator_traitsISaISt10_List_nodeIN6Assimp11LoadRequestEEEE9constructIS2_JRKNSt7__cxx1112basic_stringIcSt11char_traitsIcESaIcEEERjRPKNS1_11BatchLoader11PropertyMapESF_EEEvRS4_PT_DpOT0_ = comdat any

$_ZNSt15__allocated_ptrISaISt10_List_nodeIN6Assimp11LoadRequestEEEEaSEDn = comdat any

$_ZNSt15__allocated_ptrISaISt10_List_nodeIN6Assimp11LoadRequestEEEED2Ev = comdat any

$_ZNSt16allocator_traitsISaISt10_List_nodeIN6Assimp11LoadRequestEEEE8allocateERS4_m = comdat any

$_ZNSt15__new_allocatorISt10_List_nodeIN6Assimp11LoadRequestEEE8allocateEmPKv = comdat any

$_ZNKSt15__new_allocatorISt10_List_nodeIN6Assimp11LoadRequestEEE11_M_max_sizeEv = comdat any

$_ZNSt15__new_allocatorISt10_List_nodeIN6Assimp11LoadRequestEEE9constructIS2_JRKNSt7__cxx1112basic_stringIcSt11char_traitsIcESaIcEEERjRPKNS1_11BatchLoader11PropertyMapESE_EEEvPT_DpOT0_ = comdat any

$_ZN6Assimp11LoadRequestC2ERKNSt7__cxx1112basic_stringIcSt11char_traitsIcESaIcEEEjPKNS_11BatchLoader11PropertyMapEj = comdat any

$_ZN6Assimp11BatchLoader11PropertyMapC2Ev = comdat any

$_ZN6Assimp11BatchLoader11PropertyMapaSERKS1_ = comdat any

$_ZNSt3mapIjiSt4lessIjESaISt4pairIKjiEEEC2Ev = comdat any

$_ZNSt3mapIjfSt4lessIjESaISt4pairIKjfEEEC2Ev = comdat any

$_ZNSt3mapIjNSt7__cxx1112basic_stringIcSt11char_traitsIcESaIcEEESt4lessIjESaISt4pairIKjS5_EEEC2Ev = comdat any

$_ZNSt3mapIj12aiMatrix4x4tIfESt4lessIjESaISt4pairIKjS1_EEEC2Ev = comdat any

$_ZNSt8_Rb_treeIjSt4pairIKjiESt10_Select1stIS2_ESt4lessIjESaIS2_EEC2Ev = comdat any

$_ZNSt8_Rb_treeIjSt4pairIKjiESt10_Select1stIS2_ESt4lessIjESaIS2_EE13_Rb_tree_implIS6_Lb1EEC2Ev = comdat any

$_ZNSaISt13_Rb_tree_nodeISt4pairIKjiEEEC2Ev = comdat any

$_ZNSt20_Rb_tree_key_compareISt4lessIjEEC2Ev = comdat any

$_ZNSt15__new_allocatorISt13_Rb_tree_nodeISt4pairIKjiEEEC2Ev = comdat any

$_ZNSt8_Rb_treeIjSt4pairIKjfESt10_Select1stIS2_ESt4lessIjESaIS2_EEC2Ev = comdat any

$_ZNSt8_Rb_treeIjSt4pairIKjfESt10_Select1stIS2_ESt4lessIjESaIS2_EE13_Rb_tree_implIS6_Lb1EEC2Ev = comdat any

$_ZNSaISt13_Rb_tree_nodeISt4pairIKjfEEEC2Ev = comdat any

$_ZNSt15__new_allocatorISt13_Rb_tree_nodeISt4pairIKjfEEEC2Ev = comdat any

$_ZNSt8_Rb_treeIjSt4pairIKjNSt7__cxx1112basic_stringIcSt11char_traitsIcESaIcEEEESt10_Select1stIS8_ESt4lessIjESaIS8_EEC2Ev = comdat any

$_ZNSt8_Rb_treeIjSt4pairIKjNSt7__cxx1112basic_stringIcSt11char_traitsIcESaIcEEEESt10_Select1stIS8_ESt4lessIjESaIS8_EE13_Rb_tree_implISC_Lb1EEC2Ev = comdat any

$_ZNSaISt13_Rb_tree_nodeISt4pairIKjNSt7__cxx1112basic_stringIcSt11char_traitsIcESaIcEEEEEEC2Ev = comdat any

$_ZNSt15__new_allocatorISt13_Rb_tree_nodeISt4pairIKjNSt7__cxx1112basic_stringIcSt11char_traitsIcESaIcEEEEEEC2Ev = comdat any

$_ZNSt8_Rb_treeIjSt4pairIKj12aiMatrix4x4tIfEESt10_Select1stIS4_ESt4lessIjESaIS4_EEC2Ev = comdat any

$_ZNSt8_Rb_treeIjSt4pairIKj12aiMatrix4x4tIfEESt10_Select1stIS4_ESt4lessIjESaIS4_EE13_Rb_tree_implIS8_Lb1EEC2Ev = comdat any

$_ZNSaISt13_Rb_tree_nodeISt4pairIKj12aiMatrix4x4tIfEEEEC2Ev = comdat any

$_ZNSt15__new_allocatorISt13_Rb_tree_nodeISt4pairIKj12aiMatrix4x4tIfEEEEC2Ev = comdat any

$_ZNSt14_List_iteratorIN6Assimp11LoadRequestEEmmEv = comdat any

$_ZNSt7__cxx114listIN6Assimp11LoadRequestESaIS2_EE8_M_eraseESt14_List_iteratorIS2_E = comdat any

$_ZNKSt20_List_const_iteratorIN6Assimp11LoadRequestEE13_M_const_castEv = comdat any

$_ZNSt7__cxx1110_List_baseIN6Assimp11LoadRequestESaIS2_EE11_M_dec_sizeEm = comdat any

$_ZN6Assimp6Logger13formatMessageIJERKNSt7__cxx1112basic_stringIcSt11char_traitsIcESaIcEEEEES7_NS_9Formatter15basic_formatterIcS5_S6_EEOT0_DpOT_ = comdat any

$_ZN6Assimp9Formatter15basic_formatterIcSt11char_traitsIcESaIcEEC2IA7_cEERKT_ = comdat any

$_ZTVN6Assimp8IOSystemE = comdat any

$_ZTS17DeadlyImportError = comdat any

$_ZTS15DeadlyErrorBase = comdat any

$_ZTI15DeadlyErrorBase = comdat any

$_ZTI17DeadlyImportError = comdat any

$_ZTSN6Assimp8IOSystemE = comdat any

$_ZTSN6Assimp6Intern22AllocateFromAssimpHeapE = comdat any

$_ZTIN6Assimp6Intern22AllocateFromAssimpHeapE = comdat any

$_ZTIN6Assimp8IOSystemE = comdat any

$_ZTVN6Assimp9LogStreamE = comdat any

$_ZTSN6Assimp9LogStreamE = comdat any

$_ZTIN6Assimp9LogStreamE = comdat any

$_ZTVN6Assimp6LoggerE = comdat any

$_ZTSN6Assimp6LoggerE = comdat any

$_ZTIN6Assimp6LoggerE = comdat any

$_ZTVN6Assimp8IOStreamE = comdat any

$_ZTSN6Assimp8IOStreamE = comdat any

$_ZTIN6Assimp8IOStreamE = comdat any

$_ZTVN6Assimp16FileSystemFilterE = comdat any

$_ZTSN6Assimp16FileSystemFilterE = comdat any

$_ZTIN6Assimp16FileSystemFilterE = comdat any

$_ZTV17DeadlyImportError = comdat any

$_ZTSN4utf818invalid_code_pointE = comdat any

$_ZTSN4utf89exceptionE = comdat any

$_ZTIN4utf89exceptionE = comdat any

$_ZTIN4utf818invalid_code_pointE = comdat any

$_ZTVN4utf818invalid_code_pointE = comdat any

$_ZTVN4utf89exceptionE = comdat any

$_ZTSN4utf813invalid_utf16E = comdat any

$_ZTIN4utf813invalid_utf16E = comdat any

$_ZTVN4utf813invalid_utf16E = comdat any

@_ZTVN6Assimp8IOSystemE = linkonce_odr unnamed_addr constant { [16 x ptr] } { [16 x ptr] [ptr null, ptr @_ZTIN6Assimp8IOSystemE, ptr @_ZN6Assimp8IOSystemD2Ev, ptr @_ZN6Assimp8IOSystemD0Ev, ptr @__cxa_pure_virtual, ptr @__cxa_pure_virtual, ptr @__cxa_pure_virtual, ptr @__cxa_pure_virtual, ptr @_ZNK6Assimp8IOSystem12ComparePathsEPKcS2_, ptr @_ZN6Assimp8IOSystem13PushDirectoryERKNSt7__cxx1112basic_stringIcSt11char_traitsIcESaIcEEE, ptr @_ZNK6Assimp8IOSystem16CurrentDirectoryB5cxx11Ev, ptr @_ZNK6Assimp8IOSystem9StackSizeEv, ptr @_ZN6Assimp8IOSystem12PopDirectoryEv, ptr @_ZN6Assimp8IOSystem15CreateDirectoryERKNSt7__cxx1112basic_stringIcSt11char_traitsIcESaIcEEE, ptr @_ZN6Assimp8IOSystem15ChangeDirectoryERKNSt7__cxx1112basic_stringIcSt11char_traitsIcESaIcEEE, ptr @_ZN6Assimp8IOSystem10DeleteFileERKNSt7__cxx1112basic_stringIcSt11char_traitsIcESaIcEEE] }, comdat, align 8
@_ZTVN6Assimp12BaseImporterE = unnamed_addr constant { [8 x ptr] } { [8 x ptr] [ptr null, ptr @_ZTIN6Assimp12BaseImporterE, ptr @_ZN6Assimp12BaseImporterD1Ev, ptr @_ZN6Assimp12BaseImporterD0Ev, ptr @__cxa_pure_virtual, ptr @_ZN6Assimp12BaseImporter15SetupPropertiesEPKNS_8ImporterE, ptr @__cxa_pure_virtual, ptr @__cxa_pure_virtual] }, align 8
@.str = private unnamed_addr constant [17 x i8] c"APP_SCALE_FACTOR\00", align 1
@.str.1 = private unnamed_addr constant [32 x i8] c"UpdateImporterScale scale set: \00", align 1
@_ZTISt9exception = external constant ptr
@.str.2 = private unnamed_addr constant [3 x i8] c"rb\00", align 1
@.str.3 = private unnamed_addr constant [42 x i8] c"Found positive match for header keyword: \00", align 1
@.str.4 = private unnamed_addr constant [2 x i8] c".\00", align 1
@.str.5 = private unnamed_addr constant [18 x i8] c"File is too small\00", align 1
@_ZTVN10__cxxabiv120__si_class_type_infoE = external global [0 x ptr]
@_ZTS17DeadlyImportError = linkonce_odr constant [20 x i8] c"17DeadlyImportError\00", comdat, align 1
@_ZTS15DeadlyErrorBase = linkonce_odr constant [18 x i8] c"15DeadlyErrorBase\00", comdat, align 1
@_ZTISt13runtime_error = external constant ptr
@_ZTI15DeadlyErrorBase = linkonce_odr constant { ptr, ptr, ptr } { ptr getelementptr inbounds (ptr, ptr @_ZTVN10__cxxabiv120__si_class_type_infoE, i64 2), ptr @_ZTS15DeadlyErrorBase, ptr @_ZTISt13runtime_error }, comdat, align 8
@_ZTI17DeadlyImportError = linkonce_odr constant { ptr, ptr, ptr } { ptr getelementptr inbounds (ptr, ptr @_ZTVN10__cxxabiv120__si_class_type_infoE, i64 2), ptr @_ZTS17DeadlyImportError, ptr @_ZTI15DeadlyErrorBase }, comdat, align 8
@.str.6 = private unnamed_addr constant [20 x i8] c"Found UTF-8 BOM ...\00", align 1
@.str.7 = private unnamed_addr constant [21 x i8] c"Found UTF-32 BOM ...\00", align 1
@.str.8 = private unnamed_addr constant [21 x i8] c"Found UTF-16 BOM ...\00", align 1
@.str.9 = private unnamed_addr constant [11 x i8] c"UTF8 code \00", align 1
@.str.10 = private unnamed_addr constant [39 x i8] c" can not be converted into ISA-8859-1.\00", align 1
@.str.11 = private unnamed_addr constant [43 x i8] c"UTF8 code but only one character remaining\00", align 1
@.str.12 = private unnamed_addr constant [14 x i8] c"File is empty\00", align 1
@.str.13 = private unnamed_addr constant [16 x i8] c"File read error\00", align 1
@.str.14 = private unnamed_addr constant [28 x i8] c"%%% BEGIN EXTERNAL FILE %%%\00", align 1
@.str.15 = private unnamed_addr constant [7 x i8] c"File: \00", align 1
@.str.16 = private unnamed_addr constant [26 x i8] c"%%% END EXTERNAL FILE %%%\00", align 1
@_ZTSN6Assimp8IOSystemE = linkonce_odr constant [19 x i8] c"N6Assimp8IOSystemE\00", comdat, align 1
@_ZTVN10__cxxabiv117__class_type_infoE = external global [0 x ptr]
@_ZTSN6Assimp6Intern22AllocateFromAssimpHeapE = linkonce_odr constant [41 x i8] c"N6Assimp6Intern22AllocateFromAssimpHeapE\00", comdat, align 1
@_ZTIN6Assimp6Intern22AllocateFromAssimpHeapE = linkonce_odr constant { ptr, ptr } { ptr getelementptr inbounds (ptr, ptr @_ZTVN10__cxxabiv117__class_type_infoE, i64 2), ptr @_ZTSN6Assimp6Intern22AllocateFromAssimpHeapE }, comdat, align 8
@_ZTIN6Assimp8IOSystemE = linkonce_odr constant { ptr, ptr, ptr } { ptr getelementptr inbounds (ptr, ptr @_ZTVN10__cxxabiv120__si_class_type_infoE, i64 2), ptr @_ZTSN6Assimp8IOSystemE, ptr @_ZTIN6Assimp6Intern22AllocateFromAssimpHeapE }, comdat, align 8
@_ZTVN6Assimp9LogStreamE = linkonce_odr unnamed_addr constant { [5 x ptr] } { [5 x ptr] [ptr null, ptr @_ZTIN6Assimp9LogStreamE, ptr @_ZN6Assimp9LogStreamD2Ev, ptr @_ZN6Assimp9LogStreamD0Ev, ptr @__cxa_pure_virtual] }, comdat, align 8
@_ZTSN6Assimp9LogStreamE = linkonce_odr constant [20 x i8] c"N6Assimp9LogStreamE\00", comdat, align 1
@_ZTIN6Assimp9LogStreamE = linkonce_odr constant { ptr, ptr, ptr } { ptr getelementptr inbounds (ptr, ptr @_ZTVN10__cxxabiv120__si_class_type_infoE, i64 2), ptr @_ZTSN6Assimp9LogStreamE, ptr @_ZTIN6Assimp6Intern22AllocateFromAssimpHeapE }, comdat, align 8
@_ZTVN6Assimp6LoggerE = linkonce_odr unnamed_addr constant { [11 x ptr] } { [11 x ptr] [ptr null, ptr @_ZTIN6Assimp6LoggerE, ptr @_ZN6Assimp6LoggerD2Ev, ptr @_ZN6Assimp6LoggerD0Ev, ptr @__cxa_pure_virtual, ptr @__cxa_pure_virtual, ptr @__cxa_pure_virtual, ptr @__cxa_pure_virtual, ptr @__cxa_pure_virtual, ptr @__cxa_pure_virtual, ptr @__cxa_pure_virtual] }, comdat, align 8
@_ZTSN6Assimp6LoggerE = linkonce_odr constant [17 x i8] c"N6Assimp6LoggerE\00", comdat, align 1
@_ZTIN6Assimp6LoggerE = linkonce_odr constant { ptr, ptr, ptr } { ptr getelementptr inbounds (ptr, ptr @_ZTVN10__cxxabiv120__si_class_type_infoE, i64 2), ptr @_ZTSN6Assimp6LoggerE, ptr @_ZTIN6Assimp6Intern22AllocateFromAssimpHeapE }, comdat, align 8
@_ZTVN6Assimp8IOStreamE = linkonce_odr unnamed_addr constant { [10 x ptr] } { [10 x ptr] [ptr null, ptr @_ZTIN6Assimp8IOStreamE, ptr @_ZN6Assimp8IOStreamD2Ev, ptr @_ZN6Assimp8IOStreamD0Ev, ptr @__cxa_pure_virtual, ptr @__cxa_pure_virtual, ptr @__cxa_pure_virtual, ptr @__cxa_pure_virtual, ptr @__cxa_pure_virtual, ptr @__cxa_pure_virtual] }, comdat, align 8
@_ZTSN6Assimp8IOStreamE = linkonce_odr constant [19 x i8] c"N6Assimp8IOStreamE\00", comdat, align 1
@_ZTIN6Assimp8IOStreamE = linkonce_odr constant { ptr, ptr, ptr } { ptr getelementptr inbounds (ptr, ptr @_ZTVN10__cxxabiv120__si_class_type_infoE, i64 2), ptr @_ZTSN6Assimp8IOStreamE, ptr @_ZTIN6Assimp6Intern22AllocateFromAssimpHeapE }, comdat, align 8
@_ZTSN6Assimp12BaseImporterE = constant [24 x i8] c"N6Assimp12BaseImporterE\00", align 1
@_ZTIN6Assimp12BaseImporterE = constant { ptr, ptr } { ptr getelementptr inbounds (ptr, ptr @_ZTVN10__cxxabiv117__class_type_infoE, i64 2), ptr @_ZTSN6Assimp12BaseImporterE }, align 8
@_ZTVN6Assimp16FileSystemFilterE = linkonce_odr hidden unnamed_addr constant { [16 x ptr] } { [16 x ptr] [ptr null, ptr @_ZTIN6Assimp16FileSystemFilterE, ptr @_ZN6Assimp16FileSystemFilterD2Ev, ptr @_ZN6Assimp16FileSystemFilterD0Ev, ptr @_ZNK6Assimp16FileSystemFilter6ExistsEPKc, ptr @_ZNK6Assimp16FileSystemFilter14getOsSeparatorEv, ptr @_ZN6Assimp16FileSystemFilter4OpenEPKcS2_, ptr @_ZN6Assimp16FileSystemFilter5CloseEPNS_8IOStreamE, ptr @_ZNK6Assimp16FileSystemFilter12ComparePathsEPKcS2_, ptr @_ZN6Assimp16FileSystemFilter13PushDirectoryERKNSt7__cxx1112basic_stringIcSt11char_traitsIcESaIcEEE, ptr @_ZNK6Assimp16FileSystemFilter16CurrentDirectoryB5cxx11Ev, ptr @_ZNK6Assimp16FileSystemFilter9StackSizeEv, ptr @_ZN6Assimp16FileSystemFilter12PopDirectoryEv, ptr @_ZN6Assimp16FileSystemFilter15CreateDirectoryERKNSt7__cxx1112basic_stringIcSt11char_traitsIcESaIcEEE, ptr @_ZN6Assimp16FileSystemFilter15ChangeDirectoryERKNSt7__cxx1112basic_stringIcSt11char_traitsIcESaIcEEE, ptr @_ZN6Assimp16FileSystemFilter10DeleteFileERKNSt7__cxx1112basic_stringIcSt11char_traitsIcESaIcEEE] }, comdat, align 8
@.str.17 = private unnamed_addr constant [3 x i8] c"\\/\00", align 1
@.str.18 = private unnamed_addr constant [27 x i8] c"Import root directory is '\00", align 1
@.str.19 = private unnamed_addr constant [2 x i8] c"'\00", align 1
@_ZTSN6Assimp16FileSystemFilterE = linkonce_odr hidden constant [28 x i8] c"N6Assimp16FileSystemFilterE\00", comdat, align 1
@_ZTIN6Assimp16FileSystemFilterE = linkonce_odr hidden constant { ptr, ptr, ptr } { ptr getelementptr inbounds (ptr, ptr @_ZTVN10__cxxabiv120__si_class_type_infoE, i64 2), ptr @_ZTSN6Assimp16FileSystemFilterE, ptr @_ZTIN6Assimp8IOSystemE }, comdat, align 8
@.str.20 = private unnamed_addr constant [4 x i8] c"://\00", align 1
@.str.21 = private unnamed_addr constant [3 x i8] c"\\\\\00", align 1
@_ZTV17DeadlyImportError = linkonce_odr unnamed_addr constant { [5 x ptr] } { [5 x ptr] [ptr null, ptr @_ZTI17DeadlyImportError, ptr @_ZN17DeadlyImportErrorD2Ev, ptr @_ZN17DeadlyImportErrorD0Ev, ptr @_ZNKSt13runtime_error4whatEv] }, comdat, align 8
@.str.22 = private unnamed_addr constant [26 x i8] c"vector::_M_realloc_insert\00", align 1
@.str.23 = private unnamed_addr constant [50 x i8] c"basic_string: construction from null is not valid\00", align 1
@.str.24 = private unnamed_addr constant [26 x i8] c"vector::_M_default_append\00", align 1
@_ZTSN4utf818invalid_code_pointE = linkonce_odr hidden constant [28 x i8] c"N4utf818invalid_code_pointE\00", comdat, align 1
@_ZTSN4utf89exceptionE = linkonce_odr hidden constant [18 x i8] c"N4utf89exceptionE\00", comdat, align 1
@_ZTIN4utf89exceptionE = linkonce_odr hidden constant { ptr, ptr, ptr } { ptr getelementptr inbounds (ptr, ptr @_ZTVN10__cxxabiv120__si_class_type_infoE, i64 2), ptr @_ZTSN4utf89exceptionE, ptr @_ZTISt9exception }, comdat, align 8
@_ZTIN4utf818invalid_code_pointE = linkonce_odr hidden constant { ptr, ptr, ptr } { ptr getelementptr inbounds (ptr, ptr @_ZTVN10__cxxabiv120__si_class_type_infoE, i64 2), ptr @_ZTSN4utf818invalid_code_pointE, ptr @_ZTIN4utf89exceptionE }, comdat, align 8
@_ZTVN4utf818invalid_code_pointE = linkonce_odr hidden unnamed_addr constant { [5 x ptr] } { [5 x ptr] [ptr null, ptr @_ZTIN4utf818invalid_code_pointE, ptr @_ZN4utf818invalid_code_pointD2Ev, ptr @_ZN4utf818invalid_code_pointD0Ev, ptr @_ZNK4utf818invalid_code_point4whatEv] }, comdat, align 8
@_ZTVN4utf89exceptionE = linkonce_odr hidden unnamed_addr constant { [5 x ptr] } { [5 x ptr] [ptr null, ptr @_ZTIN4utf89exceptionE, ptr @_ZN4utf89exceptionD2Ev, ptr @_ZN4utf89exceptionD0Ev, ptr @_ZNKSt9exception4whatEv] }, comdat, align 8
@_ZTVSt9exception = external unnamed_addr constant { [5 x ptr] }, align 8
@.str.25 = private unnamed_addr constant [19 x i8] c"Invalid code point\00", align 1
@_ZTSN4utf813invalid_utf16E = linkonce_odr hidden constant [23 x i8] c"N4utf813invalid_utf16E\00", comdat, align 1
@_ZTIN4utf813invalid_utf16E = linkonce_odr hidden constant { ptr, ptr, ptr } { ptr getelementptr inbounds (ptr, ptr @_ZTVN10__cxxabiv120__si_class_type_infoE, i64 2), ptr @_ZTSN4utf813invalid_utf16E, ptr @_ZTIN4utf89exceptionE }, comdat, align 8
@_ZTVN4utf813invalid_utf16E = linkonce_odr hidden unnamed_addr constant { [5 x ptr] } { [5 x ptr] [ptr null, ptr @_ZTIN4utf813invalid_utf16E, ptr @_ZN4utf813invalid_utf16D2Ev, ptr @_ZN4utf813invalid_utf16D0Ev, ptr @_ZNK4utf813invalid_utf164whatEv] }, comdat, align 8
@.str.26 = private unnamed_addr constant [15 x i8] c"Invalid UTF-16\00", align 1
@.str.27 = private unnamed_addr constant [16 x i8] c"vector::reserve\00", align 1

@_ZN6Assimp12BaseImporterD1Ev = unnamed_addr alias void (ptr), ptr @_ZN6Assimp12BaseImporterD2Ev
@_ZN6Assimp11BatchLoaderC1EPNS_8IOSystemEb = unnamed_addr alias void (ptr, ptr, i1), ptr @_ZN6Assimp11BatchLoaderC2EPNS_8IOSystemEb
@_ZN6Assimp11BatchLoaderD1Ev = unnamed_addr alias void (ptr), ptr @_ZN6Assimp11BatchLoaderD2Ev

; Function Attrs: mustprogress nounwind uwtable
define linkonce_odr void @_ZNSt6vectorINSt7__cxx1112basic_stringIcSt11char_traitsIcESaIcEEESaIS5_EED2Ev(ptr noundef nonnull align 8 dereferenceable(24) %this) unnamed_addr #0 comdat align 2 personality ptr @__gxx_personality_v0 {
entry:
  %this.addr = alloca ptr, align 8
  store ptr %this, ptr %this.addr, align 8
  %this1 = load ptr, ptr %this.addr, align 8
  %_M_impl = getelementptr inbounds %"struct.std::_Vector_base", ptr %this1, i32 0, i32 0
  %_M_start = getelementptr inbounds %"struct.std::_Vector_base<std::__cxx11::basic_string<char>, std::allocator<std::__cxx11::basic_string<char>>>::_Vector_impl_data", ptr %_M_impl, i32 0, i32 0
  %0 = load ptr, ptr %_M_start, align 8
  %_M_impl2 = getelementptr inbounds %"struct.std::_Vector_base", ptr %this1, i32 0, i32 0
  %_M_finish = getelementptr inbounds %"struct.std::_Vector_base<std::__cxx11::basic_string<char>, std::allocator<std::__cxx11::basic_string<char>>>::_Vector_impl_data", ptr %_M_impl2, i32 0, i32 1
  %1 = load ptr, ptr %_M_finish, align 8
  %call = call noundef nonnull align 1 dereferenceable(1) ptr @_ZNSt12_Vector_baseINSt7__cxx1112basic_stringIcSt11char_traitsIcESaIcEEESaIS5_EE19_M_get_Tp_allocatorEv(ptr noundef nonnull align 8 dereferenceable(24) %this1) #13
  invoke void @_ZSt8_DestroyIPNSt7__cxx1112basic_stringIcSt11char_traitsIcESaIcEEES5_EvT_S7_RSaIT0_E(ptr noundef %0, ptr noundef %1, ptr noundef nonnull align 1 dereferenceable(1) %call)
          to label %invoke.cont unwind label %terminate.lpad

invoke.cont:                                      ; preds = %entry
  call void @_ZNSt12_Vector_baseINSt7__cxx1112basic_stringIcSt11char_traitsIcESaIcEEESaIS5_EED2Ev(ptr noundef nonnull align 8 dereferenceable(24) %this1) #13
  ret void

terminate.lpad:                                   ; preds = %entry
  %2 = landingpad { ptr, i32 }
          catch ptr null
  %3 = extractvalue { ptr, i32 } %2, 0
  call void @__clang_call_terminate(ptr %3) #14
  unreachable
}

; Function Attrs: mustprogress nounwind uwtable
define linkonce_odr void @_ZN6Assimp8IOSystemD0Ev(ptr noundef nonnull align 8 dereferenceable(32) %this) unnamed_addr #0 comdat align 2 {
entry:
  %this.addr = alloca ptr, align 8
  store ptr %this, ptr %this.addr, align 8
  call void @llvm.trap() #14
  unreachable
}

; Function Attrs: cold noreturn nounwind memory(inaccessiblemem: write)
declare void @llvm.trap() #1

; Function Attrs: mustprogress nounwind uwtable
define linkonce_odr void @_ZN6Assimp9LogStreamD0Ev(ptr noundef nonnull align 8 dereferenceable(8) %this) unnamed_addr #0 comdat align 2 {
entry:
  %this.addr = alloca ptr, align 8
  store ptr %this, ptr %this.addr, align 8
  call void @llvm.trap() #14
  unreachable
}

; Function Attrs: mustprogress nounwind uwtable
define linkonce_odr void @_ZN6Assimp6LoggerD0Ev(ptr noundef nonnull align 8 dereferenceable(12) %this) unnamed_addr #0 comdat align 2 {
entry:
  %this.addr = alloca ptr, align 8
  store ptr %this, ptr %this.addr, align 8
  call void @llvm.trap() #14
  unreachable
}

; Function Attrs: mustprogress nounwind uwtable
define linkonce_odr void @_ZN6Assimp8IOStreamD0Ev(ptr noundef nonnull align 8 dereferenceable(8) %this) unnamed_addr #0 comdat align 2 {
entry:
  %this.addr = alloca ptr, align 8
  store ptr %this, ptr %this.addr, align 8
  call void @llvm.trap() #14
  unreachable
}

; Function Attrs: mustprogress nounwind uwtable
define void @_ZN6Assimp12BaseImporterC2Ev(ptr noundef nonnull align 8 dereferenceable(72) %this) unnamed_addr #0 align 2 {
entry:
  %this.addr = alloca ptr, align 8
  store ptr %this, ptr %this.addr, align 8
  %this1 = load ptr, ptr %this.addr, align 8
  store ptr getelementptr inbounds ({ [8 x ptr] }, ptr @_ZTVN6Assimp12BaseImporterE, i32 0, inrange i32 0, i32 2), ptr %this1, align 8
  %importerScale = getelementptr inbounds %"class.Assimp::BaseImporter", ptr %this1, i32 0, i32 1
  store double 1.000000e+00, ptr %importerScale, align 8
  %fileScale = getelementptr inbounds %"class.Assimp::BaseImporter", ptr %this1, i32 0, i32 2
  store double 1.000000e+00, ptr %fileScale, align 8
  %m_ErrorText = getelementptr inbounds %"class.Assimp::BaseImporter", ptr %this1, i32 0, i32 3
  call void @_ZNSt7__cxx1112basic_stringIcSt11char_traitsIcESaIcEEC1Ev(ptr noundef nonnull align 8 dereferenceable(32) %m_ErrorText) #13
  %m_Exception = getelementptr inbounds %"class.Assimp::BaseImporter", ptr %this1, i32 0, i32 4
  call void @_ZNSt15__exception_ptr13exception_ptrC2Ev(ptr noundef nonnull align 8 dereferenceable(8) %m_Exception) #13
  %m_progress = getelementptr inbounds %"class.Assimp::BaseImporter", ptr %this1, i32 0, i32 5
  store ptr null, ptr %m_progress, align 8
  ret void
}

; Function Attrs: nounwind
declare void @_ZNSt7__cxx1112basic_stringIcSt11char_traitsIcESaIcEEC1Ev(ptr noundef nonnull align 8 dereferenceable(32)) unnamed_addr #2

; Function Attrs: mustprogress nounwind uwtable
define linkonce_odr void @_ZNSt15__exception_ptr13exception_ptrC2Ev(ptr noundef nonnull align 8 dereferenceable(8) %this) unnamed_addr #0 comdat align 2 {
entry:
  %this.addr = alloca ptr, align 8
  store ptr %this, ptr %this.addr, align 8
  %this1 = load ptr, ptr %this.addr, align 8
  %_M_exception_object = getelementptr inbounds %"class.std::__exception_ptr::exception_ptr", ptr %this1, i32 0, i32 0
  store ptr null, ptr %_M_exception_object, align 8
  ret void
}

; Function Attrs: mustprogress nounwind uwtable
define void @_ZN6Assimp12BaseImporterD2Ev(ptr noundef nonnull align 8 dereferenceable(72) %this) unnamed_addr #0 align 2 {
entry:
  %this.addr = alloca ptr, align 8
  store ptr %this, ptr %this.addr, align 8
  %this1 = load ptr, ptr %this.addr, align 8
  store ptr getelementptr inbounds ({ [8 x ptr] }, ptr @_ZTVN6Assimp12BaseImporterE, i32 0, inrange i32 0, i32 2), ptr %this1, align 8
  %m_Exception = getelementptr inbounds %"class.Assimp::BaseImporter", ptr %this1, i32 0, i32 4
  call void @_ZNSt15__exception_ptr13exception_ptrD2Ev(ptr noundef nonnull align 8 dereferenceable(8) %m_Exception) #13
  %m_ErrorText = getelementptr inbounds %"class.Assimp::BaseImporter", ptr %this1, i32 0, i32 3
  call void @_ZNSt7__cxx1112basic_stringIcSt11char_traitsIcESaIcEED1Ev(ptr noundef nonnull align 8 dereferenceable(32) %m_ErrorText) #13
  ret void
}

; Function Attrs: mustprogress nounwind uwtable
define linkonce_odr void @_ZNSt15__exception_ptr13exception_ptrD2Ev(ptr noundef nonnull align 8 dereferenceable(8) %this) unnamed_addr #0 comdat align 2 {
entry:
  %this.addr = alloca ptr, align 8
  store ptr %this, ptr %this.addr, align 8
  %this1 = load ptr, ptr %this.addr, align 8
  %_M_exception_object = getelementptr inbounds %"class.std::__exception_ptr::exception_ptr", ptr %this1, i32 0, i32 0
  %0 = load ptr, ptr %_M_exception_object, align 8
  %tobool = icmp ne ptr %0, null
  br i1 %tobool, label %if.then, label %if.end

if.then:                                          ; preds = %entry
  call void @_ZNSt15__exception_ptr13exception_ptr10_M_releaseEv(ptr noundef nonnull align 8 dereferenceable(8) %this1) #13
  br label %if.end

if.end:                                           ; preds = %if.then, %entry
  ret void
}

; Function Attrs: nounwind
declare void @_ZNSt7__cxx1112basic_stringIcSt11char_traitsIcESaIcEED1Ev(ptr noundef nonnull align 8 dereferenceable(32)) unnamed_addr #2

; Function Attrs: mustprogress nounwind uwtable
define void @_ZN6Assimp12BaseImporterD0Ev(ptr noundef nonnull align 8 dereferenceable(72) %this) unnamed_addr #0 align 2 {
entry:
  %this.addr = alloca ptr, align 8
  store ptr %this, ptr %this.addr, align 8
  call void @llvm.trap() #14
  unreachable
}

; Function Attrs: mustprogress uwtable
define void @_ZN6Assimp12BaseImporter19UpdateImporterScaleEPNS_8ImporterE(ptr noundef nonnull align 8 dereferenceable(72) %this, ptr noundef %pImp) #3 align 2 {
entry:
  %this.addr = alloca ptr, align 8
  %pImp.addr = alloca ptr, align 8
  %activeScale = alloca double, align 8
  store ptr %this, ptr %this.addr, align 8
  store ptr %pImp, ptr %pImp.addr, align 8
  %this1 = load ptr, ptr %this.addr, align 8
  %importerScale = getelementptr inbounds %"class.Assimp::BaseImporter", ptr %this1, i32 0, i32 1
  %0 = load double, ptr %importerScale, align 8
  %fileScale = getelementptr inbounds %"class.Assimp::BaseImporter", ptr %this1, i32 0, i32 2
  %1 = load double, ptr %fileScale, align 8
  %mul = fmul double %0, %1
  store double %mul, ptr %activeScale, align 8
  %2 = load ptr, ptr %pImp.addr, align 8
  %3 = load double, ptr %activeScale, align 8
  %conv = fptrunc double %3 to float
  %call = call noundef zeroext i1 @_ZN6Assimp8Importer16SetPropertyFloatEPKcf(ptr noundef nonnull align 8 dereferenceable(8) %2, ptr noundef @.str, float noundef %conv)
  %call2 = call noundef ptr @_ZN6Assimp13DefaultLogger3getEv()
  call void @_ZN6Assimp6Logger5debugIJRA32_KcRdEEEvDpOT_(ptr noundef nonnull align 8 dereferenceable(12) %call2, ptr noundef nonnull align 1 dereferenceable(32) @.str.1, ptr noundef nonnull align 8 dereferenceable(8) %activeScale)
  ret void
}

declare noundef zeroext i1 @_ZN6Assimp8Importer16SetPropertyFloatEPKcf(ptr noundef nonnull align 8 dereferenceable(8), ptr noundef, float noundef) #4

declare noundef ptr @_ZN6Assimp13DefaultLogger3getEv() #4

; Function Attrs: mustprogress uwtable
define linkonce_odr void @_ZN6Assimp6Logger5debugIJRA32_KcRdEEEvDpOT_(ptr noundef nonnull align 8 dereferenceable(12) %this, ptr noundef nonnull align 1 dereferenceable(32) %args, ptr noundef nonnull align 8 dereferenceable(8) %args1) #3 comdat align 2 personality ptr @__gxx_personality_v0 {
entry:
  %this.addr = alloca ptr, align 8
  %args.addr = alloca ptr, align 8
  %args.addr2 = alloca ptr, align 8
  %ref.tmp = alloca %"class.std::__cxx11::basic_string", align 8
  %agg.tmp = alloca %"class.Assimp::Formatter::basic_formatter", align 8
  %exn.slot = alloca ptr, align 8
  %ehselector.slot = alloca i32, align 4
  store ptr %this, ptr %this.addr, align 8
  store ptr %args, ptr %args.addr, align 8
  store ptr %args1, ptr %args.addr2, align 8
  %this3 = load ptr, ptr %this.addr, align 8
  %0 = load ptr, ptr %args.addr, align 8
  call void @_ZN6Assimp9Formatter15basic_formatterIcSt11char_traitsIcESaIcEEC2IA32_cEERKT_(ptr noundef nonnull align 8 dereferenceable(376) %agg.tmp, ptr noundef nonnull align 1 dereferenceable(32) %0)
  %1 = load ptr, ptr %args.addr2, align 8
  invoke void @_ZN6Assimp6Logger13formatMessageIJERdEENSt7__cxx1112basic_stringIcSt11char_traitsIcESaIcEEENS_9Formatter15basic_formatterIcS6_S7_EEOT0_DpOT_(ptr sret(%"class.std::__cxx11::basic_string") align 8 %ref.tmp, ptr noundef nonnull align 8 dereferenceable(12) %this3, ptr noundef %agg.tmp, ptr noundef nonnull align 8 dereferenceable(8) %1)
          to label %invoke.cont unwind label %lpad

invoke.cont:                                      ; preds = %entry
  %call = call noundef ptr @_ZNKSt7__cxx1112basic_stringIcSt11char_traitsIcESaIcEE5c_strEv(ptr noundef nonnull align 8 dereferenceable(32) %ref.tmp) #13
  invoke void @_ZN6Assimp6Logger5debugEPKc(ptr noundef nonnull align 8 dereferenceable(12) %this3, ptr noundef %call)
          to label %invoke.cont5 unwind label %lpad4

invoke.cont5:                                     ; preds = %invoke.cont
  call void @_ZNSt7__cxx1112basic_stringIcSt11char_traitsIcESaIcEED1Ev(ptr noundef nonnull align 8 dereferenceable(32) %ref.tmp) #13
  call void @_ZN6Assimp9Formatter15basic_formatterIcSt11char_traitsIcESaIcEED2Ev(ptr noundef nonnull align 8 dereferenceable(376) %agg.tmp) #13
  ret void

lpad:                                             ; preds = %entry
  %2 = landingpad { ptr, i32 }
          cleanup
  %3 = extractvalue { ptr, i32 } %2, 0
  store ptr %3, ptr %exn.slot, align 8
  %4 = extractvalue { ptr, i32 } %2, 1
  store i32 %4, ptr %ehselector.slot, align 4
  br label %ehcleanup

lpad4:                                            ; preds = %invoke.cont
  %5 = landingpad { ptr, i32 }
          cleanup
  %6 = extractvalue { ptr, i32 } %5, 0
  store ptr %6, ptr %exn.slot, align 8
  %7 = extractvalue { ptr, i32 } %5, 1
  store i32 %7, ptr %ehselector.slot, align 4
  call void @_ZNSt7__cxx1112basic_stringIcSt11char_traitsIcESaIcEED1Ev(ptr noundef nonnull align 8 dereferenceable(32) %ref.tmp) #13
  br label %ehcleanup

ehcleanup:                                        ; preds = %lpad4, %lpad
  call void @_ZN6Assimp9Formatter15basic_formatterIcSt11char_traitsIcESaIcEED2Ev(ptr noundef nonnull align 8 dereferenceable(376) %agg.tmp) #13
  br label %eh.resume

eh.resume:                                        ; preds = %ehcleanup
  %exn = load ptr, ptr %exn.slot, align 8
  %sel = load i32, ptr %ehselector.slot, align 4
  %lpad.val = insertvalue { ptr, i32 } poison, ptr %exn, 0
  %lpad.val6 = insertvalue { ptr, i32 } %lpad.val, i32 %sel, 1
  resume { ptr, i32 } %lpad.val6
}

; Function Attrs: mustprogress uwtable
define noundef ptr @_ZN6Assimp12BaseImporter8ReadFileEPNS_8ImporterERKNSt7__cxx1112basic_stringIcSt11char_traitsIcESaIcEEEPNS_8IOSystemE(ptr noundef nonnull align 8 dereferenceable(72) %this, ptr noundef %pImp, ptr noundef nonnull align 8 dereferenceable(32) %pFile, ptr noundef %pIOHandler) #3 align 2 personality ptr @__gxx_personality_v0 {
entry:
  %retval = alloca ptr, align 8
  %this.addr = alloca ptr, align 8
  %pImp.addr = alloca ptr, align 8
  %pFile.addr = alloca ptr, align 8
  %pIOHandler.addr = alloca ptr, align 8
  %filter = alloca %"class.Assimp::FileSystemFilter", align 8
  %sc = alloca %"class.std::unique_ptr", align 8
  %exn.slot = alloca ptr, align 8
  %ehselector.slot = alloca i32, align 4
  %err = alloca ptr, align 8
  %ref.tmp = alloca %"class.std::__exception_ptr::exception_ptr", align 8
  %cleanup.dest.slot = alloca i32, align 4
  store ptr %this, ptr %this.addr, align 8
  store ptr %pImp, ptr %pImp.addr, align 8
  store ptr %pFile, ptr %pFile.addr, align 8
  store ptr %pIOHandler, ptr %pIOHandler.addr, align 8
  %this1 = load ptr, ptr %this.addr, align 8
  %0 = load ptr, ptr %pImp.addr, align 8
  %call = call noundef ptr @_ZNK6Assimp8Importer18GetProgressHandlerEv(ptr noundef nonnull align 8 dereferenceable(8) %0)
  %m_progress = getelementptr inbounds %"class.Assimp::BaseImporter", ptr %this1, i32 0, i32 5
  store ptr %call, ptr %m_progress, align 8
  %m_progress2 = getelementptr inbounds %"class.Assimp::BaseImporter", ptr %this1, i32 0, i32 5
  %1 = load ptr, ptr %m_progress2, align 8
  %cmp = icmp eq ptr null, %1
  br i1 %cmp, label %if.then, label %if.end

if.then:                                          ; preds = %entry
  store ptr null, ptr %retval, align 8
  br label %return

if.end:                                           ; preds = %entry
  %2 = load ptr, ptr %pImp.addr, align 8
  %vtable = load ptr, ptr %this1, align 8
  %vfn = getelementptr inbounds ptr, ptr %vtable, i64 3
  %3 = load ptr, ptr %vfn, align 8
  call void %3(ptr noundef nonnull align 8 dereferenceable(72) %this1, ptr noundef %2)
  %4 = load ptr, ptr %pFile.addr, align 8
  %5 = load ptr, ptr %pIOHandler.addr, align 8
  call void @_ZN6Assimp16FileSystemFilterC2ERKNSt7__cxx1112basic_stringIcSt11char_traitsIcESaIcEEEPNS_8IOSystemE(ptr noundef nonnull align 8 dereferenceable(105) %filter, ptr noundef nonnull align 8 dereferenceable(32) %4, ptr noundef %5)
  %call3 = invoke noalias noundef nonnull ptr @_Znwm(i64 noundef 1168) #15
          to label %invoke.cont unwind label %lpad

invoke.cont:                                      ; preds = %if.end
  invoke void @_ZN7aiSceneC1Ev(ptr noundef nonnull align 8 dereferenceable(1168) %call3)
          to label %invoke.cont5 unwind label %lpad4

invoke.cont5:                                     ; preds = %invoke.cont
  call void @_ZNSt10unique_ptrI7aiSceneSt14default_deleteIS0_EEC2IS2_vEEPS0_(ptr noundef nonnull align 8 dereferenceable(8) %sc, ptr noundef %call3) #13
  %6 = load ptr, ptr %pFile.addr, align 8
  %call6 = call noundef ptr @_ZNKSt10unique_ptrI7aiSceneSt14default_deleteIS0_EE3getEv(ptr noundef nonnull align 8 dereferenceable(8) %sc) #13
  %vtable7 = load ptr, ptr %this1, align 8
  %vfn8 = getelementptr inbounds ptr, ptr %vtable7, i64 5
  %7 = load ptr, ptr %vfn8, align 8
  invoke void %7(ptr noundef nonnull align 8 dereferenceable(72) %this1, ptr noundef nonnull align 8 dereferenceable(32) %6, ptr noundef %call6, ptr noundef %filter)
          to label %invoke.cont10 unwind label %lpad9

invoke.cont10:                                    ; preds = %invoke.cont5
  %8 = load ptr, ptr %pImp.addr, align 8
  invoke void @_ZN6Assimp12BaseImporter19UpdateImporterScaleEPNS_8ImporterE(ptr noundef nonnull align 8 dereferenceable(72) %this1, ptr noundef %8)
          to label %invoke.cont11 unwind label %lpad9

invoke.cont11:                                    ; preds = %invoke.cont10
  br label %try.cont

lpad:                                             ; preds = %if.end
  %9 = landingpad { ptr, i32 }
          cleanup
  %10 = extractvalue { ptr, i32 } %9, 0
  store ptr %10, ptr %exn.slot, align 8
  %11 = extractvalue { ptr, i32 } %9, 1
  store i32 %11, ptr %ehselector.slot, align 4
  br label %ehcleanup30

lpad4:                                            ; preds = %invoke.cont
  %12 = landingpad { ptr, i32 }
          cleanup
  %13 = extractvalue { ptr, i32 } %12, 0
  store ptr %13, ptr %exn.slot, align 8
  %14 = extractvalue { ptr, i32 } %12, 1
  store i32 %14, ptr %ehselector.slot, align 4
  call void @_ZdlPv(ptr noundef %call3) #16
  br label %ehcleanup30

lpad9:                                            ; preds = %invoke.cont10, %invoke.cont5
  %15 = landingpad { ptr, i32 }
          cleanup
          catch ptr @_ZTISt9exception
  %16 = extractvalue { ptr, i32 } %15, 0
  store ptr %16, ptr %exn.slot, align 8
  %17 = extractvalue { ptr, i32 } %15, 1
  store i32 %17, ptr %ehselector.slot, align 4
  br label %catch.dispatch

catch.dispatch:                                   ; preds = %lpad9
  %sel = load i32, ptr %ehselector.slot, align 4
  %18 = call i32 @llvm.eh.typeid.for(ptr @_ZTISt9exception) #13
  %matches = icmp eq i32 %sel, %18
  br i1 %matches, label %catch, label %ehcleanup

catch:                                            ; preds = %catch.dispatch
  %exn = load ptr, ptr %exn.slot, align 8
  %19 = call ptr @__cxa_begin_catch(ptr %exn) #13
  store ptr %19, ptr %err, align 8
  %20 = load ptr, ptr %err, align 8
  %vtable12 = load ptr, ptr %20, align 8
  %vfn13 = getelementptr inbounds ptr, ptr %vtable12, i64 2
  %21 = load ptr, ptr %vfn13, align 8
  %call14 = call noundef ptr %21(ptr noundef nonnull align 8 dereferenceable(8) %20) #13
  %m_ErrorText = getelementptr inbounds %"class.Assimp::BaseImporter", ptr %this1, i32 0, i32 3
  %call17 = invoke noundef nonnull align 8 dereferenceable(32) ptr @_ZNSt7__cxx1112basic_stringIcSt11char_traitsIcESaIcEEaSEPKc(ptr noundef nonnull align 8 dereferenceable(32) %m_ErrorText, ptr noundef %call14)
          to label %invoke.cont16 unwind label %lpad15

invoke.cont16:                                    ; preds = %catch
  %call19 = invoke noundef ptr @_ZN6Assimp13DefaultLogger3getEv()
          to label %invoke.cont18 unwind label %lpad15

invoke.cont18:                                    ; preds = %invoke.cont16
  %22 = load ptr, ptr %err, align 8
  %vtable20 = load ptr, ptr %22, align 8
  %vfn21 = getelementptr inbounds ptr, ptr %vtable20, i64 2
  %23 = load ptr, ptr %vfn21, align 8
  %call22 = call noundef ptr %23(ptr noundef nonnull align 8 dereferenceable(8) %22) #13
  invoke void @_ZN6Assimp6Logger5errorEPKc(ptr noundef nonnull align 8 dereferenceable(12) %call19, ptr noundef %call22)
          to label %invoke.cont23 unwind label %lpad15

invoke.cont23:                                    ; preds = %invoke.cont18
  call void @_ZSt17current_exceptionv(ptr sret(%"class.std::__exception_ptr::exception_ptr") align 8 %ref.tmp) #13
  %m_Exception = getelementptr inbounds %"class.Assimp::BaseImporter", ptr %this1, i32 0, i32 4
  %call24 = call noundef nonnull align 8 dereferenceable(8) ptr @_ZNSt15__exception_ptr13exception_ptraSEOS0_(ptr noundef nonnull align 8 dereferenceable(8) %m_Exception, ptr noundef nonnull align 8 dereferenceable(8) %ref.tmp) #13
  call void @_ZNSt15__exception_ptr13exception_ptrD2Ev(ptr noundef nonnull align 8 dereferenceable(8) %ref.tmp) #13
  store ptr null, ptr %retval, align 8
  store i32 1, ptr %cleanup.dest.slot, align 4
  invoke void @__cxa_end_catch()
          to label %invoke.cont26 unwind label %lpad25

lpad15:                                           ; preds = %invoke.cont18, %invoke.cont16, %catch
  %24 = landingpad { ptr, i32 }
          cleanup
  %25 = extractvalue { ptr, i32 } %24, 0
  store ptr %25, ptr %exn.slot, align 8
  %26 = extractvalue { ptr, i32 } %24, 1
  store i32 %26, ptr %ehselector.slot, align 4
  invoke void @__cxa_end_catch()
          to label %invoke.cont27 unwind label %terminate.lpad

invoke.cont26:                                    ; preds = %invoke.cont23
  br label %cleanup

lpad25:                                           ; preds = %invoke.cont23
  %27 = landingpad { ptr, i32 }
          cleanup
  %28 = extractvalue { ptr, i32 } %27, 0
  store ptr %28, ptr %exn.slot, align 8
  %29 = extractvalue { ptr, i32 } %27, 1
  store i32 %29, ptr %ehselector.slot, align 4
  br label %ehcleanup

invoke.cont27:                                    ; preds = %lpad15
  br label %ehcleanup

try.cont:                                         ; preds = %invoke.cont11
  %call28 = call noundef ptr @_ZNSt10unique_ptrI7aiSceneSt14default_deleteIS0_EE7releaseEv(ptr noundef nonnull align 8 dereferenceable(8) %sc) #13
  store ptr %call28, ptr %retval, align 8
  store i32 1, ptr %cleanup.dest.slot, align 4
  br label %cleanup

cleanup:                                          ; preds = %try.cont, %invoke.cont26
  call void @_ZNSt10unique_ptrI7aiSceneSt14default_deleteIS0_EED2Ev(ptr noundef nonnull align 8 dereferenceable(8) %sc) #13
  call void @_ZN6Assimp16FileSystemFilterD2Ev(ptr noundef nonnull align 8 dereferenceable(105) %filter) #13
  br label %return

ehcleanup:                                        ; preds = %invoke.cont27, %lpad25, %catch.dispatch
  call void @_ZNSt10unique_ptrI7aiSceneSt14default_deleteIS0_EED2Ev(ptr noundef nonnull align 8 dereferenceable(8) %sc) #13
  br label %ehcleanup30

ehcleanup30:                                      ; preds = %ehcleanup, %lpad4, %lpad
  call void @_ZN6Assimp16FileSystemFilterD2Ev(ptr noundef nonnull align 8 dereferenceable(105) %filter) #13
  br label %eh.resume

return:                                           ; preds = %cleanup, %if.then
  %30 = load ptr, ptr %retval, align 8
  ret ptr %30

eh.resume:                                        ; preds = %ehcleanup30
  %exn31 = load ptr, ptr %exn.slot, align 8
  %sel32 = load i32, ptr %ehselector.slot, align 4
  %lpad.val = insertvalue { ptr, i32 } poison, ptr %exn31, 0
  %lpad.val33 = insertvalue { ptr, i32 } %lpad.val, i32 %sel32, 1
  resume { ptr, i32 } %lpad.val33

terminate.lpad:                                   ; preds = %lpad15
  %31 = landingpad { ptr, i32 }
          catch ptr null
  %32 = extractvalue { ptr, i32 } %31, 0
  call void @__clang_call_terminate(ptr %32) #14
  unreachable
}

declare noundef ptr @_ZNK6Assimp8Importer18GetProgressHandlerEv(ptr noundef nonnull align 8 dereferenceable(8)) #4

; Function Attrs: mustprogress uwtable
define linkonce_odr hidden void @_ZN6Assimp16FileSystemFilterC2ERKNSt7__cxx1112basic_stringIcSt11char_traitsIcESaIcEEEPNS_8IOSystemE(ptr noundef nonnull align 8 dereferenceable(105) %this, ptr noundef nonnull align 8 dereferenceable(32) %file, ptr noundef %old) unnamed_addr #3 comdat align 2 personality ptr @__gxx_personality_v0 {
entry:
  %this.addr = alloca ptr, align 8
  %file.addr = alloca ptr, align 8
  %old.addr = alloca ptr, align 8
  %exn.slot = alloca ptr, align 8
  %ehselector.slot = alloca i32, align 4
  %ss2 = alloca i64, align 8
  %ref.tmp = alloca %"class.std::__cxx11::basic_string", align 8
  %s = alloca i8, align 1
  %ref.tmp32 = alloca %"class.__gnu_cxx::__normal_iterator.74", align 8
  %ref.tmp33 = alloca %"class.__gnu_cxx::__normal_iterator.74", align 8
  store ptr %this, ptr %this.addr, align 8
  store ptr %file, ptr %file.addr, align 8
  store ptr %old, ptr %old.addr, align 8
  %this1 = load ptr, ptr %this.addr, align 8
  call void @_ZN6Assimp8IOSystemC2Ev(ptr noundef nonnull align 8 dereferenceable(32) %this1) #13
  store ptr getelementptr inbounds ({ [16 x ptr] }, ptr @_ZTVN6Assimp16FileSystemFilterE, i32 0, inrange i32 0, i32 2), ptr %this1, align 8
  %mWrapped = getelementptr inbounds %"class.Assimp::FileSystemFilter", ptr %this1, i32 0, i32 1
  %0 = load ptr, ptr %old.addr, align 8
  store ptr %0, ptr %mWrapped, align 8
  %mSrc_file = getelementptr inbounds %"class.Assimp::FileSystemFilter", ptr %this1, i32 0, i32 2
  %1 = load ptr, ptr %file.addr, align 8
  invoke void @_ZNSt7__cxx1112basic_stringIcSt11char_traitsIcESaIcEEC1ERKS4_(ptr noundef nonnull align 8 dereferenceable(32) %mSrc_file, ptr noundef nonnull align 8 dereferenceable(32) %1)
          to label %invoke.cont unwind label %lpad

invoke.cont:                                      ; preds = %entry
  %mBase = getelementptr inbounds %"class.Assimp::FileSystemFilter", ptr %this1, i32 0, i32 3
  call void @_ZNSt7__cxx1112basic_stringIcSt11char_traitsIcESaIcEEC1Ev(ptr noundef nonnull align 8 dereferenceable(32) %mBase) #13
  %mSep = getelementptr inbounds %"class.Assimp::FileSystemFilter", ptr %this1, i32 0, i32 4
  %mWrapped2 = getelementptr inbounds %"class.Assimp::FileSystemFilter", ptr %this1, i32 0, i32 1
  %2 = load ptr, ptr %mWrapped2, align 8
  %vtable = load ptr, ptr %2, align 8
  %vfn = getelementptr inbounds ptr, ptr %vtable, i64 3
  %3 = load ptr, ptr %vfn, align 8
  %call = invoke noundef signext i8 %3(ptr noundef nonnull align 8 dereferenceable(32) %2)
          to label %invoke.cont4 unwind label %lpad3

invoke.cont4:                                     ; preds = %invoke.cont
  store i8 %call, ptr %mSep, align 8
  %mSrc_file5 = getelementptr inbounds %"class.Assimp::FileSystemFilter", ptr %this1, i32 0, i32 2
  %mBase6 = getelementptr inbounds %"class.Assimp::FileSystemFilter", ptr %this1, i32 0, i32 3
  %call8 = invoke noundef nonnull align 8 dereferenceable(32) ptr @_ZNSt7__cxx1112basic_stringIcSt11char_traitsIcESaIcEEaSERKS4_(ptr noundef nonnull align 8 dereferenceable(32) %mBase6, ptr noundef nonnull align 8 dereferenceable(32) %mSrc_file5)
          to label %invoke.cont7 unwind label %lpad3

invoke.cont7:                                     ; preds = %invoke.cont4
  %mBase9 = getelementptr inbounds %"class.Assimp::FileSystemFilter", ptr %this1, i32 0, i32 3
  %call10 = call noundef i64 @_ZNKSt7__cxx1112basic_stringIcSt11char_traitsIcESaIcEE12find_last_ofEPKcm(ptr noundef nonnull align 8 dereferenceable(32) %mBase9, ptr noundef @.str.17, i64 noundef -1) #13
  store i64 %call10, ptr %ss2, align 8
  %cmp = icmp ne i64 -1, %call10
  br i1 %cmp, label %if.then, label %if.else

if.then:                                          ; preds = %invoke.cont7
  %mBase11 = getelementptr inbounds %"class.Assimp::FileSystemFilter", ptr %this1, i32 0, i32 3
  %4 = load i64, ptr %ss2, align 8
  %mBase12 = getelementptr inbounds %"class.Assimp::FileSystemFilter", ptr %this1, i32 0, i32 3
  %call13 = call noundef i64 @_ZNKSt7__cxx1112basic_stringIcSt11char_traitsIcESaIcEE6lengthEv(ptr noundef nonnull align 8 dereferenceable(32) %mBase12) #13
  %5 = load i64, ptr %ss2, align 8
  %sub = sub i64 %call13, %5
  %call15 = invoke noundef nonnull align 8 dereferenceable(32) ptr @_ZNSt7__cxx1112basic_stringIcSt11char_traitsIcESaIcEE5eraseEmm(ptr noundef nonnull align 8 dereferenceable(32) %mBase11, i64 noundef %4, i64 noundef %sub)
          to label %invoke.cont14 unwind label %lpad3

invoke.cont14:                                    ; preds = %if.then
  br label %if.end

lpad:                                             ; preds = %entry
  %6 = landingpad { ptr, i32 }
          cleanup
  %7 = extractvalue { ptr, i32 } %6, 0
  store ptr %7, ptr %exn.slot, align 8
  %8 = extractvalue { ptr, i32 } %6, 1
  store i32 %8, ptr %ehselector.slot, align 4
  br label %ehcleanup

lpad3:                                            ; preds = %invoke.cont52, %if.end51, %invoke.cont45, %if.then42, %invoke.cont26, %invoke.cont22, %if.then20, %if.then, %invoke.cont4, %invoke.cont
  %9 = landingpad { ptr, i32 }
          cleanup
  %10 = extractvalue { ptr, i32 } %9, 0
  store ptr %10, ptr %exn.slot, align 8
  %11 = extractvalue { ptr, i32 } %9, 1
  store i32 %11, ptr %ehselector.slot, align 4
  call void @_ZNSt7__cxx1112basic_stringIcSt11char_traitsIcESaIcEED1Ev(ptr noundef nonnull align 8 dereferenceable(32) %mBase) #13
  call void @_ZNSt7__cxx1112basic_stringIcSt11char_traitsIcESaIcEED1Ev(ptr noundef nonnull align 8 dereferenceable(32) %mSrc_file) #13
  br label %ehcleanup

if.else:                                          ; preds = %invoke.cont7
  call void @_ZNSt7__cxx1112basic_stringIcSt11char_traitsIcESaIcEEC1Ev(ptr noundef nonnull align 8 dereferenceable(32) %ref.tmp) #13
  %mBase16 = getelementptr inbounds %"class.Assimp::FileSystemFilter", ptr %this1, i32 0, i32 3
  %call17 = call noundef nonnull align 8 dereferenceable(32) ptr @_ZNSt7__cxx1112basic_stringIcSt11char_traitsIcESaIcEEaSEOS4_(ptr noundef nonnull align 8 dereferenceable(32) %mBase16, ptr noundef nonnull align 8 dereferenceable(32) %ref.tmp) #13
  call void @_ZNSt7__cxx1112basic_stringIcSt11char_traitsIcESaIcEED1Ev(ptr noundef nonnull align 8 dereferenceable(32) %ref.tmp) #13
  br label %if.end

if.end:                                           ; preds = %if.else, %invoke.cont14
  %mBase18 = getelementptr inbounds %"class.Assimp::FileSystemFilter", ptr %this1, i32 0, i32 3
  %call19 = call noundef zeroext i1 @_ZNKSt7__cxx1112basic_stringIcSt11char_traitsIcESaIcEE5emptyEv(ptr noundef nonnull align 8 dereferenceable(32) %mBase18) #13
  br i1 %call19, label %if.then20, label %if.else31

if.then20:                                        ; preds = %if.end
  %mBase21 = getelementptr inbounds %"class.Assimp::FileSystemFilter", ptr %this1, i32 0, i32 3
  %call23 = invoke noundef nonnull align 8 dereferenceable(32) ptr @_ZNSt7__cxx1112basic_stringIcSt11char_traitsIcESaIcEEaSEPKc(ptr noundef nonnull align 8 dereferenceable(32) %mBase21, ptr noundef @.str.4)
          to label %invoke.cont22 unwind label %lpad3

invoke.cont22:                                    ; preds = %if.then20
  %vtable24 = load ptr, ptr %this1, align 8
  %vfn25 = getelementptr inbounds ptr, ptr %vtable24, i64 3
  %12 = load ptr, ptr %vfn25, align 8
  %call27 = invoke noundef signext i8 %12(ptr noundef nonnull align 8 dereferenceable(105) %this1)
          to label %invoke.cont26 unwind label %lpad3

invoke.cont26:                                    ; preds = %invoke.cont22
  %mBase28 = getelementptr inbounds %"class.Assimp::FileSystemFilter", ptr %this1, i32 0, i32 3
  %call30 = invoke noundef nonnull align 8 dereferenceable(32) ptr @_ZNSt7__cxx1112basic_stringIcSt11char_traitsIcESaIcEEpLEc(ptr noundef nonnull align 8 dereferenceable(32) %mBase28, i8 noundef signext %call27)
          to label %invoke.cont29 unwind label %lpad3

invoke.cont29:                                    ; preds = %invoke.cont26
  br label %if.end51

if.else31:                                        ; preds = %if.end
  %mBase34 = getelementptr inbounds %"class.Assimp::FileSystemFilter", ptr %this1, i32 0, i32 3
  %call35 = call ptr @_ZNSt7__cxx1112basic_stringIcSt11char_traitsIcESaIcEE3endEv(ptr noundef nonnull align 8 dereferenceable(32) %mBase34) #13
  %coerce.dive = getelementptr inbounds %"class.__gnu_cxx::__normal_iterator.74", ptr %ref.tmp33, i32 0, i32 0
  store ptr %call35, ptr %coerce.dive, align 8
  %call36 = call ptr @_ZNK9__gnu_cxx17__normal_iteratorIPcNSt7__cxx1112basic_stringIcSt11char_traitsIcESaIcEEEEmiEl(ptr noundef nonnull align 8 dereferenceable(8) %ref.tmp33, i64 noundef 1) #13
  %coerce.dive37 = getelementptr inbounds %"class.__gnu_cxx::__normal_iterator.74", ptr %ref.tmp32, i32 0, i32 0
  store ptr %call36, ptr %coerce.dive37, align 8
  %call38 = call noundef nonnull align 1 dereferenceable(1) ptr @_ZNK9__gnu_cxx17__normal_iteratorIPcNSt7__cxx1112basic_stringIcSt11char_traitsIcESaIcEEEEdeEv(ptr noundef nonnull align 8 dereferenceable(8) %ref.tmp32) #13
  %13 = load i8, ptr %call38, align 1
  store i8 %13, ptr %s, align 1
  %conv = sext i8 %13 to i32
  %cmp39 = icmp ne i32 %conv, 92
  br i1 %cmp39, label %land.rhs, label %land.end

land.rhs:                                         ; preds = %if.else31
  %14 = load i8, ptr %s, align 1
  %conv40 = sext i8 %14 to i32
  %cmp41 = icmp ne i32 %conv40, 47
  br label %land.end

land.end:                                         ; preds = %land.rhs, %if.else31
  %15 = phi i1 [ false, %if.else31 ], [ %cmp41, %land.rhs ]
  br i1 %15, label %if.then42, label %if.end50

if.then42:                                        ; preds = %land.end
  %vtable43 = load ptr, ptr %this1, align 8
  %vfn44 = getelementptr inbounds ptr, ptr %vtable43, i64 3
  %16 = load ptr, ptr %vfn44, align 8
  %call46 = invoke noundef signext i8 %16(ptr noundef nonnull align 8 dereferenceable(105) %this1)
          to label %invoke.cont45 unwind label %lpad3

invoke.cont45:                                    ; preds = %if.then42
  %mBase47 = getelementptr inbounds %"class.Assimp::FileSystemFilter", ptr %this1, i32 0, i32 3
  %call49 = invoke noundef nonnull align 8 dereferenceable(32) ptr @_ZNSt7__cxx1112basic_stringIcSt11char_traitsIcESaIcEEpLEc(ptr noundef nonnull align 8 dereferenceable(32) %mBase47, i8 noundef signext %call46)
          to label %invoke.cont48 unwind label %lpad3

invoke.cont48:                                    ; preds = %invoke.cont45
  br label %if.end50

if.end50:                                         ; preds = %invoke.cont48, %land.end
  br label %if.end51

if.end51:                                         ; preds = %if.end50, %invoke.cont29
  %call53 = invoke noundef ptr @_ZN6Assimp13DefaultLogger3getEv()
          to label %invoke.cont52 unwind label %lpad3

invoke.cont52:                                    ; preds = %if.end51
  %mBase54 = getelementptr inbounds %"class.Assimp::FileSystemFilter", ptr %this1, i32 0, i32 3
  invoke void @_ZN6Assimp6Logger4infoIJRA27_KcRNSt7__cxx1112basic_stringIcSt11char_traitsIcESaIcEEERA2_S2_EEEvDpOT_(ptr noundef nonnull align 8 dereferenceable(12) %call53, ptr noundef nonnull align 1 dereferenceable(27) @.str.18, ptr noundef nonnull align 8 dereferenceable(32) %mBase54, ptr noundef nonnull align 1 dereferenceable(2) @.str.19)
          to label %invoke.cont55 unwind label %lpad3

invoke.cont55:                                    ; preds = %invoke.cont52
  ret void

ehcleanup:                                        ; preds = %lpad3, %lpad
  call void @_ZN6Assimp8IOSystemD2Ev(ptr noundef nonnull align 8 dereferenceable(32) %this1) #13
  br label %eh.resume

eh.resume:                                        ; preds = %ehcleanup
  %exn = load ptr, ptr %exn.slot, align 8
  %sel = load i32, ptr %ehselector.slot, align 4
  %lpad.val = insertvalue { ptr, i32 } poison, ptr %exn, 0
  %lpad.val56 = insertvalue { ptr, i32 } %lpad.val, i32 %sel, 1
  resume { ptr, i32 } %lpad.val56
}

; Function Attrs: nobuiltin allocsize(0)
declare noundef nonnull ptr @_Znwm(i64 noundef) #5

declare i32 @__gxx_personality_v0(...)

declare void @_ZN7aiSceneC1Ev(ptr noundef nonnull align 8 dereferenceable(1168)) unnamed_addr #4

; Function Attrs: nobuiltin nounwind
declare void @_ZdlPv(ptr noundef) #6

; Function Attrs: mustprogress nounwind uwtable
define linkonce_odr hidden void @_ZNSt10unique_ptrI7aiSceneSt14default_deleteIS0_EEC2IS2_vEEPS0_(ptr noundef nonnull align 8 dereferenceable(8) %this, ptr noundef %__p) unnamed_addr #0 comdat align 2 personality ptr @__gxx_personality_v0 {
entry:
  %this.addr = alloca ptr, align 8
  %__p.addr = alloca ptr, align 8
  store ptr %this, ptr %this.addr, align 8
  store ptr %__p, ptr %__p.addr, align 8
  %this1 = load ptr, ptr %this.addr, align 8
  %_M_t = getelementptr inbounds %"class.std::unique_ptr", ptr %this1, i32 0, i32 0
  %0 = load ptr, ptr %__p.addr, align 8
  invoke void @_ZNSt15__uniq_ptr_dataI7aiSceneSt14default_deleteIS0_ELb1ELb1EECI2St15__uniq_ptr_implIS0_S2_EEPS0_(ptr noundef nonnull align 8 dereferenceable(8) %_M_t, ptr noundef %0)
          to label %invoke.cont unwind label %terminate.lpad

invoke.cont:                                      ; preds = %entry
  ret void

terminate.lpad:                                   ; preds = %entry
  %1 = landingpad { ptr, i32 }
          catch ptr null
  %2 = extractvalue { ptr, i32 } %1, 0
  call void @__clang_call_terminate(ptr %2) #14
  unreachable
}

; Function Attrs: mustprogress nounwind uwtable
define linkonce_odr hidden noundef ptr @_ZNKSt10unique_ptrI7aiSceneSt14default_deleteIS0_EE3getEv(ptr noundef nonnull align 8 dereferenceable(8) %this) #0 comdat align 2 {
entry:
  %this.addr = alloca ptr, align 8
  store ptr %this, ptr %this.addr, align 8
  %this1 = load ptr, ptr %this.addr, align 8
  %_M_t = getelementptr inbounds %"class.std::unique_ptr", ptr %this1, i32 0, i32 0
  %call = call noundef ptr @_ZNKSt15__uniq_ptr_implI7aiSceneSt14default_deleteIS0_EE6_M_ptrEv(ptr noundef nonnull align 8 dereferenceable(8) %_M_t) #13
  ret ptr %call
}

; Function Attrs: nounwind memory(none)
declare i32 @llvm.eh.typeid.for(ptr) #7

declare ptr @__cxa_begin_catch(ptr)

declare noundef nonnull align 8 dereferenceable(32) ptr @_ZNSt7__cxx1112basic_stringIcSt11char_traitsIcESaIcEEaSEPKc(ptr noundef nonnull align 8 dereferenceable(32), ptr noundef) #4

declare void @_ZN6Assimp6Logger5errorEPKc(ptr noundef nonnull align 8 dereferenceable(12), ptr noundef) #4

; Function Attrs: nounwind
declare void @_ZSt17current_exceptionv(ptr sret(%"class.std::__exception_ptr::exception_ptr") align 8) #2

; Function Attrs: mustprogress nounwind uwtable
define linkonce_odr noundef nonnull align 8 dereferenceable(8) ptr @_ZNSt15__exception_ptr13exception_ptraSEOS0_(ptr noundef nonnull align 8 dereferenceable(8) %this, ptr noundef nonnull align 8 dereferenceable(8) %__o) #0 comdat align 2 {
entry:
  %this.addr = alloca ptr, align 8
  %__o.addr = alloca ptr, align 8
  %ref.tmp = alloca %"class.std::__exception_ptr::exception_ptr", align 8
  store ptr %this, ptr %this.addr, align 8
  store ptr %__o, ptr %__o.addr, align 8
  %this1 = load ptr, ptr %this.addr, align 8
  %0 = load ptr, ptr %__o.addr, align 8
  call void @_ZNSt15__exception_ptr13exception_ptrC2EOS0_(ptr noundef nonnull align 8 dereferenceable(8) %ref.tmp, ptr noundef nonnull align 8 dereferenceable(8) %0) #13
  call void @_ZNSt15__exception_ptr13exception_ptr4swapERS0_(ptr noundef nonnull align 8 dereferenceable(8) %ref.tmp, ptr noundef nonnull align 8 dereferenceable(8) %this1) #13
  call void @_ZNSt15__exception_ptr13exception_ptrD2Ev(ptr noundef nonnull align 8 dereferenceable(8) %ref.tmp) #13
  ret ptr %this1
}

declare void @__cxa_end_catch()

; Function Attrs: noreturn nounwind uwtable
define linkonce_odr hidden void @__clang_call_terminate(ptr noundef %0) #8 comdat {
  %2 = call ptr @__cxa_begin_catch(ptr %0) #13
  call void @_ZSt9terminatev() #14
  unreachable
}

declare void @_ZSt9terminatev()

; Function Attrs: mustprogress nounwind uwtable
define linkonce_odr hidden noundef ptr @_ZNSt10unique_ptrI7aiSceneSt14default_deleteIS0_EE7releaseEv(ptr noundef nonnull align 8 dereferenceable(8) %this) #0 comdat align 2 {
entry:
  %this.addr = alloca ptr, align 8
  store ptr %this, ptr %this.addr, align 8
  %this1 = load ptr, ptr %this.addr, align 8
  %_M_t = getelementptr inbounds %"class.std::unique_ptr", ptr %this1, i32 0, i32 0
  %call = call noundef ptr @_ZNSt15__uniq_ptr_implI7aiSceneSt14default_deleteIS0_EE7releaseEv(ptr noundef nonnull align 8 dereferenceable(8) %_M_t) #13
  ret ptr %call
}

; Function Attrs: mustprogress nounwind uwtable
define linkonce_odr hidden void @_ZNSt10unique_ptrI7aiSceneSt14default_deleteIS0_EED2Ev(ptr noundef nonnull align 8 dereferenceable(8) %this) unnamed_addr #0 comdat align 2 personality ptr @__gxx_personality_v0 {
entry:
  %this.addr = alloca ptr, align 8
  %__ptr = alloca ptr, align 8
  store ptr %this, ptr %this.addr, align 8
  %this1 = load ptr, ptr %this.addr, align 8
  %_M_t = getelementptr inbounds %"class.std::unique_ptr", ptr %this1, i32 0, i32 0
  %call = call noundef nonnull align 8 dereferenceable(8) ptr @_ZNSt15__uniq_ptr_implI7aiSceneSt14default_deleteIS0_EE6_M_ptrEv(ptr noundef nonnull align 8 dereferenceable(8) %_M_t) #13
  store ptr %call, ptr %__ptr, align 8
  %0 = load ptr, ptr %__ptr, align 8
  %1 = load ptr, ptr %0, align 8
  %cmp = icmp ne ptr %1, null
  br i1 %cmp, label %if.then, label %if.end

if.then:                                          ; preds = %entry
  %call2 = call noundef nonnull align 1 dereferenceable(1) ptr @_ZNSt10unique_ptrI7aiSceneSt14default_deleteIS0_EE11get_deleterEv(ptr noundef nonnull align 8 dereferenceable(8) %this1) #13
  %2 = load ptr, ptr %__ptr, align 8
  %3 = load ptr, ptr %2, align 8
  invoke void @_ZNKSt14default_deleteI7aiSceneEclEPS0_(ptr noundef nonnull align 1 dereferenceable(1) %call2, ptr noundef %3)
          to label %invoke.cont unwind label %terminate.lpad

invoke.cont:                                      ; preds = %if.then
  br label %if.end

if.end:                                           ; preds = %invoke.cont, %entry
  %4 = load ptr, ptr %__ptr, align 8
  store ptr null, ptr %4, align 8
  ret void

terminate.lpad:                                   ; preds = %if.then
  %5 = landingpad { ptr, i32 }
          catch ptr null
  %6 = extractvalue { ptr, i32 } %5, 0
  call void @__clang_call_terminate(ptr %6) #14
  unreachable
}

; Function Attrs: mustprogress nounwind uwtable
define linkonce_odr hidden void @_ZN6Assimp16FileSystemFilterD2Ev(ptr noundef nonnull align 8 dereferenceable(105) %this) unnamed_addr #0 comdat align 2 {
entry:
  %this.addr = alloca ptr, align 8
  store ptr %this, ptr %this.addr, align 8
  %this1 = load ptr, ptr %this.addr, align 8
  store ptr getelementptr inbounds ({ [16 x ptr] }, ptr @_ZTVN6Assimp16FileSystemFilterE, i32 0, inrange i32 0, i32 2), ptr %this1, align 8
  %mBase = getelementptr inbounds %"class.Assimp::FileSystemFilter", ptr %this1, i32 0, i32 3
  call void @_ZNSt7__cxx1112basic_stringIcSt11char_traitsIcESaIcEED1Ev(ptr noundef nonnull align 8 dereferenceable(32) %mBase) #13
  %mSrc_file = getelementptr inbounds %"class.Assimp::FileSystemFilter", ptr %this1, i32 0, i32 2
  call void @_ZNSt7__cxx1112basic_stringIcSt11char_traitsIcESaIcEED1Ev(ptr noundef nonnull align 8 dereferenceable(32) %mSrc_file) #13
  call void @_ZN6Assimp8IOSystemD2Ev(ptr noundef nonnull align 8 dereferenceable(32) %this1) #13
  ret void
}

; Function Attrs: mustprogress nounwind uwtable
define void @_ZN6Assimp12BaseImporter15SetupPropertiesEPKNS_8ImporterE(ptr noundef nonnull align 8 dereferenceable(72) %this, ptr noundef %0) unnamed_addr #0 align 2 {
entry:
  %this.addr = alloca ptr, align 8
  %.addr = alloca ptr, align 8
  store ptr %this, ptr %this.addr, align 8
  store ptr %0, ptr %.addr, align 8
  ret void
}

; Function Attrs: mustprogress uwtable
define void @_ZN6Assimp12BaseImporter16GetExtensionListERSt3setINSt7__cxx1112basic_stringIcSt11char_traitsIcESaIcEEESt4lessIS7_ESaIS7_EE(ptr noundef nonnull align 8 dereferenceable(72) %this, ptr noundef nonnull align 8 dereferenceable(48) %extensions) #3 align 2 personality ptr @__gxx_personality_v0 {
entry:
  %this.addr = alloca ptr, align 8
  %extensions.addr = alloca ptr, align 8
  %desc = alloca ptr, align 8
  %ext = alloca ptr, align 8
  %last = alloca ptr, align 8
  %ref.tmp = alloca %"class.std::__cxx11::basic_string", align 8
  %ref.tmp2 = alloca %"class.std::allocator.0", align 1
  %exn.slot = alloca ptr, align 8
  %ehselector.slot = alloca i32, align 4
  %coerce = alloca %"struct.std::pair", align 8
  store ptr %this, ptr %this.addr, align 8
  store ptr %extensions, ptr %extensions.addr, align 8
  %this1 = load ptr, ptr %this.addr, align 8
  %vtable = load ptr, ptr %this1, align 8
  %vfn = getelementptr inbounds ptr, ptr %vtable, i64 4
  %0 = load ptr, ptr %vfn, align 8
  %call = call noundef ptr %0(ptr noundef nonnull align 8 dereferenceable(72) %this1)
  store ptr %call, ptr %desc, align 8
  %1 = load ptr, ptr %desc, align 8
  %mFileExtensions = getelementptr inbounds %struct.aiImporterDesc, ptr %1, i32 0, i32 9
  %2 = load ptr, ptr %mFileExtensions, align 8
  store ptr %2, ptr %ext, align 8
  %3 = load ptr, ptr %ext, align 8
  store ptr %3, ptr %last, align 8
  br label %do.body

do.body:                                          ; preds = %do.cond, %entry
  %4 = load ptr, ptr %ext, align 8
  %5 = load i8, ptr %4, align 1
  %tobool = icmp ne i8 %5, 0
  br i1 %tobool, label %lor.lhs.false, label %if.then

lor.lhs.false:                                    ; preds = %do.body
  %6 = load ptr, ptr %ext, align 8
  %7 = load i8, ptr %6, align 1
  %conv = sext i8 %7 to i32
  %cmp = icmp eq i32 %conv, 32
  br i1 %cmp, label %if.then, label %if.end

if.then:                                          ; preds = %lor.lhs.false, %do.body
  %8 = load ptr, ptr %extensions.addr, align 8
  %9 = load ptr, ptr %last, align 8
  %10 = load ptr, ptr %ext, align 8
  %11 = load ptr, ptr %last, align 8
  %sub.ptr.lhs.cast = ptrtoint ptr %10 to i64
  %sub.ptr.rhs.cast = ptrtoint ptr %11 to i64
  %sub.ptr.sub = sub i64 %sub.ptr.lhs.cast, %sub.ptr.rhs.cast
  call void @_ZNSaIcEC1Ev(ptr noundef nonnull align 1 dereferenceable(1) %ref.tmp2) #13
  invoke void @_ZNSt7__cxx1112basic_stringIcSt11char_traitsIcESaIcEEC1EPKcmRKS3_(ptr noundef nonnull align 8 dereferenceable(32) %ref.tmp, ptr noundef %9, i64 noundef %sub.ptr.sub, ptr noundef nonnull align 1 dereferenceable(1) %ref.tmp2)
          to label %invoke.cont unwind label %lpad

invoke.cont:                                      ; preds = %if.then
  %call5 = invoke { ptr, i8 } @_ZNSt3setINSt7__cxx1112basic_stringIcSt11char_traitsIcESaIcEEESt4lessIS5_ESaIS5_EE6insertEOS5_(ptr noundef nonnull align 8 dereferenceable(48) %8, ptr noundef nonnull align 8 dereferenceable(32) %ref.tmp)
          to label %invoke.cont4 unwind label %lpad3

invoke.cont4:                                     ; preds = %invoke.cont
  %12 = getelementptr inbounds { ptr, i8 }, ptr %coerce, i32 0, i32 0
  %13 = extractvalue { ptr, i8 } %call5, 0
  store ptr %13, ptr %12, align 8
  %14 = getelementptr inbounds { ptr, i8 }, ptr %coerce, i32 0, i32 1
  %15 = extractvalue { ptr, i8 } %call5, 1
  store i8 %15, ptr %14, align 8
  call void @_ZNSt7__cxx1112basic_stringIcSt11char_traitsIcESaIcEED1Ev(ptr noundef nonnull align 8 dereferenceable(32) %ref.tmp) #13
  call void @_ZNSaIcED1Ev(ptr noundef nonnull align 1 dereferenceable(1) %ref.tmp2) #13
  %16 = load ptr, ptr %ext, align 8
  store ptr %16, ptr %last, align 8
  br label %while.cond

while.cond:                                       ; preds = %while.body, %invoke.cont4
  %17 = load ptr, ptr %last, align 8
  %18 = load i8, ptr %17, align 1
  %conv6 = sext i8 %18 to i32
  %cmp7 = icmp eq i32 %conv6, 32
  br i1 %cmp7, label %while.body, label %while.end

while.body:                                       ; preds = %while.cond
  %19 = load ptr, ptr %last, align 8
  %incdec.ptr = getelementptr inbounds i8, ptr %19, i32 1
  store ptr %incdec.ptr, ptr %last, align 8
  br label %while.cond, !llvm.loop !4

lpad:                                             ; preds = %if.then
  %20 = landingpad { ptr, i32 }
          cleanup
  %21 = extractvalue { ptr, i32 } %20, 0
  store ptr %21, ptr %exn.slot, align 8
  %22 = extractvalue { ptr, i32 } %20, 1
  store i32 %22, ptr %ehselector.slot, align 4
  br label %ehcleanup

lpad3:                                            ; preds = %invoke.cont
  %23 = landingpad { ptr, i32 }
          cleanup
  %24 = extractvalue { ptr, i32 } %23, 0
  store ptr %24, ptr %exn.slot, align 8
  %25 = extractvalue { ptr, i32 } %23, 1
  store i32 %25, ptr %ehselector.slot, align 4
  call void @_ZNSt7__cxx1112basic_stringIcSt11char_traitsIcESaIcEED1Ev(ptr noundef nonnull align 8 dereferenceable(32) %ref.tmp) #13
  br label %ehcleanup

ehcleanup:                                        ; preds = %lpad3, %lpad
  call void @_ZNSaIcED1Ev(ptr noundef nonnull align 1 dereferenceable(1) %ref.tmp2) #13
  br label %eh.resume

while.end:                                        ; preds = %while.cond
  br label %if.end

if.end:                                           ; preds = %while.end, %lor.lhs.false
  br label %do.cond

do.cond:                                          ; preds = %if.end
  %26 = load ptr, ptr %ext, align 8
  %incdec.ptr8 = getelementptr inbounds i8, ptr %26, i32 1
  store ptr %incdec.ptr8, ptr %ext, align 8
  %27 = load i8, ptr %26, align 1
  %tobool9 = icmp ne i8 %27, 0
  br i1 %tobool9, label %do.body, label %do.end, !llvm.loop !6

do.end:                                           ; preds = %do.cond
  ret void

eh.resume:                                        ; preds = %ehcleanup
  %exn = load ptr, ptr %exn.slot, align 8
  %sel = load i32, ptr %ehselector.slot, align 4
  %lpad.val = insertvalue { ptr, i32 } poison, ptr %exn, 0
  %lpad.val10 = insertvalue { ptr, i32 } %lpad.val, i32 %sel, 1
  resume { ptr, i32 } %lpad.val10
}

; Function Attrs: mustprogress uwtable
define linkonce_odr { ptr, i8 } @_ZNSt3setINSt7__cxx1112basic_stringIcSt11char_traitsIcESaIcEEESt4lessIS5_ESaIS5_EE6insertEOS5_(ptr noundef nonnull align 8 dereferenceable(48) %this, ptr noundef nonnull align 8 dereferenceable(32) %__x) #3 comdat align 2 {
entry:
  %retval = alloca %"struct.std::pair", align 8
  %this.addr = alloca ptr, align 8
  %__x.addr = alloca ptr, align 8
  %__p = alloca %"struct.std::pair.108", align 8
  store ptr %this, ptr %this.addr, align 8
  store ptr %__x, ptr %__x.addr, align 8
  %this1 = load ptr, ptr %this.addr, align 8
  %_M_t = getelementptr inbounds %"class.std::set", ptr %this1, i32 0, i32 0
  %0 = load ptr, ptr %__x.addr, align 8
  %call = call { ptr, i8 } @_ZNSt8_Rb_treeINSt7__cxx1112basic_stringIcSt11char_traitsIcESaIcEEES5_St9_IdentityIS5_ESt4lessIS5_ESaIS5_EE16_M_insert_uniqueIS5_EESt4pairISt17_Rb_tree_iteratorIS5_EbEOT_(ptr noundef nonnull align 8 dereferenceable(48) %_M_t, ptr noundef nonnull align 8 dereferenceable(32) %0)
  %1 = getelementptr inbounds { ptr, i8 }, ptr %__p, i32 0, i32 0
  %2 = extractvalue { ptr, i8 } %call, 0
  store ptr %2, ptr %1, align 8
  %3 = getelementptr inbounds { ptr, i8 }, ptr %__p, i32 0, i32 1
  %4 = extractvalue { ptr, i8 } %call, 1
  store i8 %4, ptr %3, align 8
  %first = getelementptr inbounds %"struct.std::pair.108", ptr %__p, i32 0, i32 0
  %second = getelementptr inbounds %"struct.std::pair.108", ptr %__p, i32 0, i32 1
  call void @_ZNSt4pairISt23_Rb_tree_const_iteratorINSt7__cxx1112basic_stringIcSt11char_traitsIcESaIcEEEEbEC2IRSt17_Rb_tree_iteratorIS6_ERbTnNSt9enable_ifIXaaclsr5_PCCPE22_MoveConstructiblePairIT_T0_EEclsr5_PCCPE30_ImplicitlyMoveConvertiblePairISF_SG_EEEbE4typeELb1EEEOSF_OSG_(ptr noundef nonnull align 8 dereferenceable(9) %retval, ptr noundef nonnull align 8 dereferenceable(8) %first, ptr noundef nonnull align 1 dereferenceable(1) %second)
  %5 = load { ptr, i8 }, ptr %retval, align 8
  ret { ptr, i8 } %5
}

; Function Attrs: nounwind
declare void @_ZNSaIcEC1Ev(ptr noundef nonnull align 1 dereferenceable(1)) unnamed_addr #2

declare void @_ZNSt7__cxx1112basic_stringIcSt11char_traitsIcESaIcEEC1EPKcmRKS3_(ptr noundef nonnull align 8 dereferenceable(32), ptr noundef, i64 noundef, ptr noundef nonnull align 1 dereferenceable(1)) unnamed_addr #4

; Function Attrs: nounwind
declare void @_ZNSaIcED1Ev(ptr noundef nonnull align 1 dereferenceable(1)) unnamed_addr #2

; Function Attrs: mustprogress uwtable
define noundef zeroext i1 @_ZN6Assimp12BaseImporter24SearchFileHeaderForTokenEPNS_8IOSystemERKNSt7__cxx1112basic_stringIcSt11char_traitsIcESaIcEEEPPKcmjbb(ptr noundef %pIOHandler, ptr noundef nonnull align 8 dereferenceable(32) %pFile, ptr noundef %tokens, i64 noundef %numTokens, i32 noundef %searchBytes, i1 noundef zeroext %tokensSol, i1 noundef zeroext %noGraphBeforeTokens) #3 align 2 personality ptr @__gxx_personality_v0 {
entry:
  %retval = alloca i1, align 1
  %pIOHandler.addr = alloca ptr, align 8
  %pFile.addr = alloca ptr, align 8
  %tokens.addr = alloca ptr, align 8
  %numTokens.addr = alloca i64, align 8
  %searchBytes.addr = alloca i32, align 4
  %tokensSol.addr = alloca i8, align 1
  %noGraphBeforeTokens.addr = alloca i8, align 1
  %pStream = alloca %"class.std::unique_ptr.8", align 8
  %ref.tmp = alloca %"class.std::__cxx11::basic_string", align 8
  %ref.tmp2 = alloca %"class.std::allocator.0", align 1
  %exn.slot = alloca ptr, align 8
  %ehselector.slot = alloca i32, align 4
  %_buffer = alloca %"class.std::unique_ptr.16", align 8
  %buffer = alloca ptr, align 8
  %read = alloca i64, align 8
  %cleanup.dest.slot = alloca i32, align 4
  %i = alloca i64, align 8
  %cur = alloca ptr, align 8
  %cur2 = alloca ptr, align 8
  %end = alloca ptr, align 8
  %token = alloca %"class.std::__cxx11::basic_string", align 8
  %i29 = alloca i32, align 4
  %len = alloca i64, align 8
  %ptr = alloca ptr, align 8
  %tokIdx = alloca i64, align 8
  %r = alloca ptr, align 8
  store ptr %pIOHandler, ptr %pIOHandler.addr, align 8
  store ptr %pFile, ptr %pFile.addr, align 8
  store ptr %tokens, ptr %tokens.addr, align 8
  store i64 %numTokens, ptr %numTokens.addr, align 8
  store i32 %searchBytes, ptr %searchBytes.addr, align 4
  %frombool = zext i1 %tokensSol to i8
  store i8 %frombool, ptr %tokensSol.addr, align 1
  %frombool1 = zext i1 %noGraphBeforeTokens to i8
  store i8 %frombool1, ptr %noGraphBeforeTokens.addr, align 1
  %0 = load ptr, ptr %pIOHandler.addr, align 8
  %cmp = icmp eq ptr null, %0
  br i1 %cmp, label %if.then, label %if.end

if.then:                                          ; preds = %entry
  store i1 false, ptr %retval, align 1
  br label %return

if.end:                                           ; preds = %entry
  %1 = load ptr, ptr %pIOHandler.addr, align 8
  %2 = load ptr, ptr %pFile.addr, align 8
  call void @_ZNSaIcEC1Ev(ptr noundef nonnull align 1 dereferenceable(1) %ref.tmp2) #13
  invoke void @_ZNSt7__cxx1112basic_stringIcSt11char_traitsIcESaIcEEC2IS3_EEPKcRKS3_(ptr noundef nonnull align 8 dereferenceable(32) %ref.tmp, ptr noundef @.str.2, ptr noundef nonnull align 1 dereferenceable(1) %ref.tmp2)
          to label %invoke.cont unwind label %lpad

invoke.cont:                                      ; preds = %if.end
  %call = invoke noundef ptr @_ZN6Assimp8IOSystem4OpenERKNSt7__cxx1112basic_stringIcSt11char_traitsIcESaIcEEES8_(ptr noundef nonnull align 8 dereferenceable(32) %1, ptr noundef nonnull align 8 dereferenceable(32) %2, ptr noundef nonnull align 8 dereferenceable(32) %ref.tmp)
          to label %invoke.cont4 unwind label %lpad3

invoke.cont4:                                     ; preds = %invoke.cont
  call void @_ZNSt10unique_ptrIN6Assimp8IOStreamESt14default_deleteIS1_EEC2IS3_vEEPS1_(ptr noundef nonnull align 8 dereferenceable(8) %pStream, ptr noundef %call) #13
  call void @_ZNSt7__cxx1112basic_stringIcSt11char_traitsIcESaIcEED1Ev(ptr noundef nonnull align 8 dereferenceable(32) %ref.tmp) #13
  call void @_ZNSaIcED1Ev(ptr noundef nonnull align 1 dereferenceable(1) %ref.tmp2) #13
  %call5 = call noundef zeroext i1 @_ZNKSt10unique_ptrIN6Assimp8IOStreamESt14default_deleteIS1_EEcvbEv(ptr noundef nonnull align 8 dereferenceable(8) %pStream) #13
  br i1 %call5, label %if.then6, label %if.end87

if.then6:                                         ; preds = %invoke.cont4
  %3 = load i32, ptr %searchBytes.addr, align 4
  %add = add i32 %3, 1
  %conv = zext i32 %add to i64
  %call9 = invoke noalias noundef nonnull ptr @_Znam(i64 noundef %conv) #15
          to label %invoke.cont8 unwind label %lpad7

invoke.cont8:                                     ; preds = %if.then6
  call void @_ZNSt10unique_ptrIA_cSt14default_deleteIS0_EEC2IPcS2_vbEET_(ptr noundef nonnull align 8 dereferenceable(8) %_buffer, ptr noundef %call9) #13
  %call10 = call noundef ptr @_ZNKSt10unique_ptrIA_cSt14default_deleteIS0_EE3getEv(ptr noundef nonnull align 8 dereferenceable(8) %_buffer) #13
  store ptr %call10, ptr %buffer, align 8
  %call11 = call noundef ptr @_ZNKSt10unique_ptrIN6Assimp8IOStreamESt14default_deleteIS1_EEptEv(ptr noundef nonnull align 8 dereferenceable(8) %pStream) #13
  %4 = load ptr, ptr %buffer, align 8
  %5 = load i32, ptr %searchBytes.addr, align 4
  %conv12 = zext i32 %5 to i64
  %vtable = load ptr, ptr %call11, align 8
  %vfn = getelementptr inbounds ptr, ptr %vtable, i64 2
  %6 = load ptr, ptr %vfn, align 8
  %call15 = invoke noundef i64 %6(ptr noundef nonnull align 8 dereferenceable(8) %call11, ptr noundef %4, i64 noundef 1, i64 noundef %conv12)
          to label %invoke.cont14 unwind label %lpad13

invoke.cont14:                                    ; preds = %invoke.cont8
  store i64 %call15, ptr %read, align 8
  %7 = load i64, ptr %read, align 8
  %cmp16 = icmp eq i64 0, %7
  br i1 %cmp16, label %if.then17, label %if.end18

if.then17:                                        ; preds = %invoke.cont14
  store i1 false, ptr %retval, align 1
  store i32 1, ptr %cleanup.dest.slot, align 4
  br label %cleanup85

lpad:                                             ; preds = %if.end
  %8 = landingpad { ptr, i32 }
          cleanup
  %9 = extractvalue { ptr, i32 } %8, 0
  store ptr %9, ptr %exn.slot, align 8
  %10 = extractvalue { ptr, i32 } %8, 1
  store i32 %10, ptr %ehselector.slot, align 4
  br label %ehcleanup

lpad3:                                            ; preds = %invoke.cont
  %11 = landingpad { ptr, i32 }
          cleanup
  %12 = extractvalue { ptr, i32 } %11, 0
  store ptr %12, ptr %exn.slot, align 8
  %13 = extractvalue { ptr, i32 } %11, 1
  store i32 %13, ptr %ehselector.slot, align 4
  call void @_ZNSt7__cxx1112basic_stringIcSt11char_traitsIcESaIcEED1Ev(ptr noundef nonnull align 8 dereferenceable(32) %ref.tmp) #13
  br label %ehcleanup

ehcleanup:                                        ; preds = %lpad3, %lpad
  call void @_ZNSaIcED1Ev(ptr noundef nonnull align 1 dereferenceable(1) %ref.tmp2) #13
  br label %eh.resume

lpad7:                                            ; preds = %if.then6
  %14 = landingpad { ptr, i32 }
          cleanup
  %15 = extractvalue { ptr, i32 } %14, 0
  store ptr %15, ptr %exn.slot, align 8
  %16 = extractvalue { ptr, i32 } %14, 1
  store i32 %16, ptr %ehselector.slot, align 4
  br label %ehcleanup89

lpad13:                                           ; preds = %invoke.cont8
  %17 = landingpad { ptr, i32 }
          cleanup
  %18 = extractvalue { ptr, i32 } %17, 0
  store ptr %18, ptr %exn.slot, align 8
  %19 = extractvalue { ptr, i32 } %17, 1
  store i32 %19, ptr %ehselector.slot, align 4
  br label %ehcleanup86

if.end18:                                         ; preds = %invoke.cont14
  store i64 0, ptr %i, align 8
  br label %for.cond

for.cond:                                         ; preds = %for.inc, %if.end18
  %20 = load i64, ptr %i, align 8
  %21 = load i64, ptr %read, align 8
  %cmp19 = icmp ult i64 %20, %21
  br i1 %cmp19, label %for.body, label %for.end

for.body:                                         ; preds = %for.cond
  %22 = load ptr, ptr %buffer, align 8
  %23 = load i64, ptr %i, align 8
  %arrayidx = getelementptr inbounds i8, ptr %22, i64 %23
  %24 = load i8, ptr %arrayidx, align 1
  %conv20 = zext i8 %24 to i32
  %call21 = call i32 @tolower(i32 noundef %conv20) #17
  %conv22 = trunc i32 %call21 to i8
  %25 = load ptr, ptr %buffer, align 8
  %26 = load i64, ptr %i, align 8
  %arrayidx23 = getelementptr inbounds i8, ptr %25, i64 %26
  store i8 %conv22, ptr %arrayidx23, align 1
  br label %for.inc

for.inc:                                          ; preds = %for.body
  %27 = load i64, ptr %i, align 8
  %inc = add i64 %27, 1
  store i64 %inc, ptr %i, align 8
  br label %for.cond, !llvm.loop !7

for.end:                                          ; preds = %for.cond
  %28 = load ptr, ptr %buffer, align 8
  store ptr %28, ptr %cur, align 8
  %29 = load ptr, ptr %buffer, align 8
  store ptr %29, ptr %cur2, align 8
  %30 = load ptr, ptr %buffer, align 8
  %31 = load i64, ptr %read, align 8
  %arrayidx24 = getelementptr inbounds i8, ptr %30, i64 %31
  store ptr %arrayidx24, ptr %end, align 8
  br label %while.cond

while.cond:                                       ; preds = %if.end27, %for.end
  %32 = load ptr, ptr %cur, align 8
  %33 = load ptr, ptr %end, align 8
  %cmp25 = icmp ne ptr %32, %33
  br i1 %cmp25, label %while.body, label %while.end

while.body:                                       ; preds = %while.cond
  %34 = load ptr, ptr %cur, align 8
  %35 = load i8, ptr %34, align 1
  %tobool = icmp ne i8 %35, 0
  br i1 %tobool, label %if.then26, label %if.end27

if.then26:                                        ; preds = %while.body
  %36 = load ptr, ptr %cur, align 8
  %37 = load i8, ptr %36, align 1
  %38 = load ptr, ptr %cur2, align 8
  %incdec.ptr = getelementptr inbounds i8, ptr %38, i32 1
  store ptr %incdec.ptr, ptr %cur2, align 8
  store i8 %37, ptr %38, align 1
  br label %if.end27

if.end27:                                         ; preds = %if.then26, %while.body
  %39 = load ptr, ptr %cur, align 8
  %incdec.ptr28 = getelementptr inbounds i8, ptr %39, i32 1
  store ptr %incdec.ptr28, ptr %cur, align 8
  br label %while.cond, !llvm.loop !8

while.end:                                        ; preds = %while.cond
  %40 = load ptr, ptr %cur2, align 8
  store i8 0, ptr %40, align 1
  call void @_ZNSt7__cxx1112basic_stringIcSt11char_traitsIcESaIcEEC1Ev(ptr noundef nonnull align 8 dereferenceable(32) %token) #13
  store i32 0, ptr %i29, align 4
  br label %for.cond30

for.cond30:                                       ; preds = %for.inc81, %while.end
  %41 = load i32, ptr %i29, align 4
  %conv31 = zext i32 %41 to i64
  %42 = load i64, ptr %numTokens.addr, align 8
  %cmp32 = icmp ult i64 %conv31, %42
  br i1 %cmp32, label %for.body33, label %for.end83

for.body33:                                       ; preds = %for.cond30
  %43 = load ptr, ptr %tokens.addr, align 8
  %44 = load i32, ptr %i29, align 4
  %idxprom = zext i32 %44 to i64
  %arrayidx34 = getelementptr inbounds ptr, ptr %43, i64 %idxprom
  %45 = load ptr, ptr %arrayidx34, align 8
  %call35 = call i64 @strlen(ptr noundef %45) #17
  store i64 %call35, ptr %len, align 8
  call void @_ZNSt7__cxx1112basic_stringIcSt11char_traitsIcESaIcEE5clearEv(ptr noundef nonnull align 8 dereferenceable(32) %token) #13
  %46 = load ptr, ptr %tokens.addr, align 8
  %47 = load i32, ptr %i29, align 4
  %idxprom36 = zext i32 %47 to i64
  %arrayidx37 = getelementptr inbounds ptr, ptr %46, i64 %idxprom36
  %48 = load ptr, ptr %arrayidx37, align 8
  store ptr %48, ptr %ptr, align 8
  store i64 0, ptr %tokIdx, align 8
  br label %for.cond38

for.cond38:                                       ; preds = %for.inc47, %for.body33
  %49 = load i64, ptr %tokIdx, align 8
  %50 = load i64, ptr %len, align 8
  %cmp39 = icmp ult i64 %49, %50
  br i1 %cmp39, label %for.body40, label %for.end49

for.body40:                                       ; preds = %for.cond38
  %51 = load ptr, ptr %ptr, align 8
  %52 = load i8, ptr %51, align 1
  %conv41 = zext i8 %52 to i32
  %call42 = call i32 @tolower(i32 noundef %conv41) #17
  %conv43 = trunc i32 %call42 to i8
  invoke void @_ZNSt7__cxx1112basic_stringIcSt11char_traitsIcESaIcEE9push_backEc(ptr noundef nonnull align 8 dereferenceable(32) %token, i8 noundef signext %conv43)
          to label %invoke.cont45 unwind label %lpad44

invoke.cont45:                                    ; preds = %for.body40
  %53 = load ptr, ptr %ptr, align 8
  %incdec.ptr46 = getelementptr inbounds i8, ptr %53, i32 1
  store ptr %incdec.ptr46, ptr %ptr, align 8
  br label %for.inc47

for.inc47:                                        ; preds = %invoke.cont45
  %54 = load i64, ptr %tokIdx, align 8
  %inc48 = add i64 %54, 1
  store i64 %inc48, ptr %tokIdx, align 8
  br label %for.cond38, !llvm.loop !9

lpad44:                                           ; preds = %invoke.cont75, %if.then74, %for.body40
  %55 = landingpad { ptr, i32 }
          cleanup
  %56 = extractvalue { ptr, i32 } %55, 0
  store ptr %56, ptr %exn.slot, align 8
  %57 = extractvalue { ptr, i32 } %55, 1
  store i32 %57, ptr %ehselector.slot, align 4
  call void @_ZNSt7__cxx1112basic_stringIcSt11char_traitsIcESaIcEED1Ev(ptr noundef nonnull align 8 dereferenceable(32) %token) #13
  br label %ehcleanup86

for.end49:                                        ; preds = %for.cond38
  %58 = load ptr, ptr %buffer, align 8
  %call50 = call noundef ptr @_ZNKSt7__cxx1112basic_stringIcSt11char_traitsIcESaIcEE5c_strEv(ptr noundef nonnull align 8 dereferenceable(32) %token) #13
  %call51 = call noundef ptr @strstr(ptr noundef %58, ptr noundef %call50) #17
  store ptr %call51, ptr %r, align 8
  %59 = load ptr, ptr %r, align 8
  %tobool52 = icmp ne ptr %59, null
  br i1 %tobool52, label %if.end54, label %if.then53

if.then53:                                        ; preds = %for.end49
  br label %for.inc81

if.end54:                                         ; preds = %for.end49
  %60 = load i8, ptr %noGraphBeforeTokens.addr, align 1
  %tobool55 = trunc i8 %60 to i1
  br i1 %tobool55, label %land.lhs.true, label %if.end63

land.lhs.true:                                    ; preds = %if.end54
  %61 = load ptr, ptr %r, align 8
  %62 = load ptr, ptr %buffer, align 8
  %cmp56 = icmp ne ptr %61, %62
  br i1 %cmp56, label %land.lhs.true57, label %if.end63

land.lhs.true57:                                  ; preds = %land.lhs.true
  %63 = load ptr, ptr %r, align 8
  %arrayidx58 = getelementptr inbounds i8, ptr %63, i64 -1
  %64 = load i8, ptr %arrayidx58, align 1
  %conv59 = zext i8 %64 to i32
  %call60 = call i32 @isgraph(i32 noundef %conv59) #17
  %tobool61 = icmp ne i32 %call60, 0
  br i1 %tobool61, label %if.then62, label %if.end63

if.then62:                                        ; preds = %land.lhs.true57
  br label %for.inc81

if.end63:                                         ; preds = %land.lhs.true57, %land.lhs.true, %if.end54
  %65 = load i8, ptr %tokensSol.addr, align 1
  %tobool64 = trunc i8 %65 to i1
  br i1 %tobool64, label %lor.lhs.false, label %if.then74

lor.lhs.false:                                    ; preds = %if.end63
  %66 = load ptr, ptr %r, align 8
  %67 = load ptr, ptr %buffer, align 8
  %cmp65 = icmp eq ptr %66, %67
  br i1 %cmp65, label %if.then74, label %lor.lhs.false66

lor.lhs.false66:                                  ; preds = %lor.lhs.false
  %68 = load ptr, ptr %r, align 8
  %arrayidx67 = getelementptr inbounds i8, ptr %68, i64 -1
  %69 = load i8, ptr %arrayidx67, align 1
  %conv68 = sext i8 %69 to i32
  %cmp69 = icmp eq i32 %conv68, 13
  br i1 %cmp69, label %if.then74, label %lor.lhs.false70

lor.lhs.false70:                                  ; preds = %lor.lhs.false66
  %70 = load ptr, ptr %r, align 8
  %arrayidx71 = getelementptr inbounds i8, ptr %70, i64 -1
  %71 = load i8, ptr %arrayidx71, align 1
  %conv72 = sext i8 %71 to i32
  %cmp73 = icmp eq i32 %conv72, 10
  br i1 %cmp73, label %if.then74, label %if.end80

if.then74:                                        ; preds = %lor.lhs.false70, %lor.lhs.false66, %lor.lhs.false, %if.end63
  %call76 = invoke noundef ptr @_ZN6Assimp13DefaultLogger3getEv()
          to label %invoke.cont75 unwind label %lpad44

invoke.cont75:                                    ; preds = %if.then74
  %72 = load ptr, ptr %tokens.addr, align 8
  %73 = load i32, ptr %i29, align 4
  %idxprom77 = zext i32 %73 to i64
  %arrayidx78 = getelementptr inbounds ptr, ptr %72, i64 %idxprom77
  invoke void @_ZN6Assimp6Logger5debugIJRA42_KcRPS2_EEEvDpOT_(ptr noundef nonnull align 8 dereferenceable(12) %call76, ptr noundef nonnull align 1 dereferenceable(42) @.str.3, ptr noundef nonnull align 8 dereferenceable(8) %arrayidx78)
          to label %invoke.cont79 unwind label %lpad44

invoke.cont79:                                    ; preds = %invoke.cont75
  store i1 true, ptr %retval, align 1
  store i32 1, ptr %cleanup.dest.slot, align 4
  br label %cleanup

if.end80:                                         ; preds = %lor.lhs.false70
  br label %for.inc81

for.inc81:                                        ; preds = %if.end80, %if.then62, %if.then53
  %74 = load i32, ptr %i29, align 4
  %inc82 = add i32 %74, 1
  store i32 %inc82, ptr %i29, align 4
  br label %for.cond30, !llvm.loop !10

for.end83:                                        ; preds = %for.cond30
  store i32 0, ptr %cleanup.dest.slot, align 4
  br label %cleanup

cleanup:                                          ; preds = %for.end83, %invoke.cont79
  call void @_ZNSt7__cxx1112basic_stringIcSt11char_traitsIcESaIcEED1Ev(ptr noundef nonnull align 8 dereferenceable(32) %token) #13
  br label %cleanup85

cleanup85:                                        ; preds = %cleanup, %if.then17
  call void @_ZNSt10unique_ptrIA_cSt14default_deleteIS0_EED2Ev(ptr noundef nonnull align 8 dereferenceable(8) %_buffer) #13
  %cleanup.dest = load i32, ptr %cleanup.dest.slot, align 4
  switch i32 %cleanup.dest, label %cleanup88 [
    i32 0, label %cleanup.cont
  ]

cleanup.cont:                                     ; preds = %cleanup85
  br label %if.end87

ehcleanup86:                                      ; preds = %lpad44, %lpad13
  call void @_ZNSt10unique_ptrIA_cSt14default_deleteIS0_EED2Ev(ptr noundef nonnull align 8 dereferenceable(8) %_buffer) #13
  br label %ehcleanup89

if.end87:                                         ; preds = %cleanup.cont, %invoke.cont4
  store i1 false, ptr %retval, align 1
  store i32 1, ptr %cleanup.dest.slot, align 4
  br label %cleanup88

cleanup88:                                        ; preds = %if.end87, %cleanup85
  call void @_ZNSt10unique_ptrIN6Assimp8IOStreamESt14default_deleteIS1_EED2Ev(ptr noundef nonnull align 8 dereferenceable(8) %pStream) #13
  br label %return

ehcleanup89:                                      ; preds = %ehcleanup86, %lpad7
  call void @_ZNSt10unique_ptrIN6Assimp8IOStreamESt14default_deleteIS1_EED2Ev(ptr noundef nonnull align 8 dereferenceable(8) %pStream) #13
  br label %eh.resume

return:                                           ; preds = %cleanup88, %if.then
  %75 = load i1, ptr %retval, align 1
  ret i1 %75

eh.resume:                                        ; preds = %ehcleanup89, %ehcleanup
  %exn = load ptr, ptr %exn.slot, align 8
  %sel = load i32, ptr %ehselector.slot, align 4
  %lpad.val = insertvalue { ptr, i32 } poison, ptr %exn, 0
  %lpad.val90 = insertvalue { ptr, i32 } %lpad.val, i32 %sel, 1
  resume { ptr, i32 } %lpad.val90
}

; Function Attrs: mustprogress uwtable
define linkonce_odr noundef ptr @_ZN6Assimp8IOSystem4OpenERKNSt7__cxx1112basic_stringIcSt11char_traitsIcESaIcEEES8_(ptr noundef nonnull align 8 dereferenceable(32) %this, ptr noundef nonnull align 8 dereferenceable(32) %pFile, ptr noundef nonnull align 8 dereferenceable(32) %pMode) #3 comdat align 2 {
entry:
  %this.addr = alloca ptr, align 8
  %pFile.addr = alloca ptr, align 8
  %pMode.addr = alloca ptr, align 8
  store ptr %this, ptr %this.addr, align 8
  store ptr %pFile, ptr %pFile.addr, align 8
  store ptr %pMode, ptr %pMode.addr, align 8
  %this1 = load ptr, ptr %this.addr, align 8
  %0 = load ptr, ptr %pFile.addr, align 8
  %call = call noundef ptr @_ZNKSt7__cxx1112basic_stringIcSt11char_traitsIcESaIcEE5c_strEv(ptr noundef nonnull align 8 dereferenceable(32) %0) #13
  %1 = load ptr, ptr %pMode.addr, align 8
  %call2 = call noundef ptr @_ZNKSt7__cxx1112basic_stringIcSt11char_traitsIcESaIcEE5c_strEv(ptr noundef nonnull align 8 dereferenceable(32) %1) #13
  %vtable = load ptr, ptr %this1, align 8
  %vfn = getelementptr inbounds ptr, ptr %vtable, i64 4
  %2 = load ptr, ptr %vfn, align 8
  %call3 = call noundef ptr %2(ptr noundef nonnull align 8 dereferenceable(32) %this1, ptr noundef %call, ptr noundef %call2)
  ret ptr %call3
}

; Function Attrs: mustprogress uwtable
define linkonce_odr void @_ZNSt7__cxx1112basic_stringIcSt11char_traitsIcESaIcEEC2IS3_EEPKcRKS3_(ptr noundef nonnull align 8 dereferenceable(32) %this, ptr noundef %__s, ptr noundef nonnull align 1 dereferenceable(1) %__a) unnamed_addr #3 comdat align 2 personality ptr @__gxx_personality_v0 {
entry:
  %this.addr = alloca ptr, align 8
  %__s.addr = alloca ptr, align 8
  %__a.addr = alloca ptr, align 8
  %exn.slot = alloca ptr, align 8
  %ehselector.slot = alloca i32, align 4
  %__end = alloca ptr, align 8
  store ptr %this, ptr %this.addr, align 8
  store ptr %__s, ptr %__s.addr, align 8
  store ptr %__a, ptr %__a.addr, align 8
  %this1 = load ptr, ptr %this.addr, align 8
  %_M_dataplus = getelementptr inbounds %"class.std::__cxx11::basic_string", ptr %this1, i32 0, i32 0
  %call = call noundef ptr @_ZNSt7__cxx1112basic_stringIcSt11char_traitsIcESaIcEE13_M_local_dataEv(ptr noundef nonnull align 8 dereferenceable(32) %this1)
  %0 = load ptr, ptr %__a.addr, align 8
  call void @_ZNSt7__cxx1112basic_stringIcSt11char_traitsIcESaIcEE12_Alloc_hiderC1EPcRKS3_(ptr noundef nonnull align 8 dereferenceable(8) %_M_dataplus, ptr noundef %call, ptr noundef nonnull align 1 dereferenceable(1) %0)
  %1 = load ptr, ptr %__s.addr, align 8
  %cmp = icmp eq ptr %1, null
  br i1 %cmp, label %if.then, label %if.end

if.then:                                          ; preds = %entry
  invoke void @_ZSt19__throw_logic_errorPKc(ptr noundef @.str.23) #18
          to label %invoke.cont unwind label %lpad

invoke.cont:                                      ; preds = %if.then
  unreachable

lpad:                                             ; preds = %invoke.cont2, %if.end, %if.then
  %2 = landingpad { ptr, i32 }
          cleanup
  %3 = extractvalue { ptr, i32 } %2, 0
  store ptr %3, ptr %exn.slot, align 8
  %4 = extractvalue { ptr, i32 } %2, 1
  store i32 %4, ptr %ehselector.slot, align 4
  call void @_ZNSt7__cxx1112basic_stringIcSt11char_traitsIcESaIcEE12_Alloc_hiderD2Ev(ptr noundef nonnull align 8 dereferenceable(8) %_M_dataplus) #13
  br label %eh.resume

if.end:                                           ; preds = %entry
  %5 = load ptr, ptr %__s.addr, align 8
  %6 = load ptr, ptr %__s.addr, align 8
  %call3 = invoke noundef i64 @_ZNSt11char_traitsIcE6lengthEPKc(ptr noundef %6)
          to label %invoke.cont2 unwind label %lpad

invoke.cont2:                                     ; preds = %if.end
  %add.ptr = getelementptr inbounds i8, ptr %5, i64 %call3
  store ptr %add.ptr, ptr %__end, align 8
  %7 = load ptr, ptr %__s.addr, align 8
  %8 = load ptr, ptr %__end, align 8
  invoke void @_ZNSt7__cxx1112basic_stringIcSt11char_traitsIcESaIcEE12_M_constructIPKcEEvT_S8_St20forward_iterator_tag(ptr noundef nonnull align 8 dereferenceable(32) %this1, ptr noundef %7, ptr noundef %8)
          to label %invoke.cont4 unwind label %lpad

invoke.cont4:                                     ; preds = %invoke.cont2
  ret void

eh.resume:                                        ; preds = %lpad
  %exn = load ptr, ptr %exn.slot, align 8
  %sel = load i32, ptr %ehselector.slot, align 4
  %lpad.val = insertvalue { ptr, i32 } poison, ptr %exn, 0
  %lpad.val5 = insertvalue { ptr, i32 } %lpad.val, i32 %sel, 1
  resume { ptr, i32 } %lpad.val5
}

; Function Attrs: mustprogress nounwind uwtable
define linkonce_odr void @_ZNSt10unique_ptrIN6Assimp8IOStreamESt14default_deleteIS1_EEC2IS3_vEEPS1_(ptr noundef nonnull align 8 dereferenceable(8) %this, ptr noundef %__p) unnamed_addr #0 comdat align 2 personality ptr @__gxx_personality_v0 {
entry:
  %this.addr = alloca ptr, align 8
  %__p.addr = alloca ptr, align 8
  store ptr %this, ptr %this.addr, align 8
  store ptr %__p, ptr %__p.addr, align 8
  %this1 = load ptr, ptr %this.addr, align 8
  %_M_t = getelementptr inbounds %"class.std::unique_ptr.8", ptr %this1, i32 0, i32 0
  %0 = load ptr, ptr %__p.addr, align 8
  invoke void @_ZNSt15__uniq_ptr_dataIN6Assimp8IOStreamESt14default_deleteIS1_ELb1ELb1EECI2St15__uniq_ptr_implIS1_S3_EEPS1_(ptr noundef nonnull align 8 dereferenceable(8) %_M_t, ptr noundef %0)
          to label %invoke.cont unwind label %terminate.lpad

invoke.cont:                                      ; preds = %entry
  ret void

terminate.lpad:                                   ; preds = %entry
  %1 = landingpad { ptr, i32 }
          catch ptr null
  %2 = extractvalue { ptr, i32 } %1, 0
  call void @__clang_call_terminate(ptr %2) #14
  unreachable
}

; Function Attrs: mustprogress nounwind uwtable
define linkonce_odr noundef zeroext i1 @_ZNKSt10unique_ptrIN6Assimp8IOStreamESt14default_deleteIS1_EEcvbEv(ptr noundef nonnull align 8 dereferenceable(8) %this) #0 comdat align 2 {
entry:
  %this.addr = alloca ptr, align 8
  store ptr %this, ptr %this.addr, align 8
  %this1 = load ptr, ptr %this.addr, align 8
  %call = call noundef ptr @_ZNKSt10unique_ptrIN6Assimp8IOStreamESt14default_deleteIS1_EE3getEv(ptr noundef nonnull align 8 dereferenceable(8) %this1) #13
  %cmp = icmp eq ptr %call, null
  %cond = select i1 %cmp, i1 false, i1 true
  ret i1 %cond
}

; Function Attrs: nobuiltin allocsize(0)
declare noundef nonnull ptr @_Znam(i64 noundef) #5

; Function Attrs: mustprogress nounwind uwtable
define linkonce_odr void @_ZNSt10unique_ptrIA_cSt14default_deleteIS0_EEC2IPcS2_vbEET_(ptr noundef nonnull align 8 dereferenceable(8) %this, ptr noundef %__p) unnamed_addr #0 comdat align 2 personality ptr @__gxx_personality_v0 {
entry:
  %this.addr = alloca ptr, align 8
  %__p.addr = alloca ptr, align 8
  store ptr %this, ptr %this.addr, align 8
  store ptr %__p, ptr %__p.addr, align 8
  %this1 = load ptr, ptr %this.addr, align 8
  %_M_t = getelementptr inbounds %"class.std::unique_ptr.16", ptr %this1, i32 0, i32 0
  %0 = load ptr, ptr %__p.addr, align 8
  invoke void @_ZNSt15__uniq_ptr_dataIcSt14default_deleteIA_cELb1ELb1EECI2St15__uniq_ptr_implIcS2_EEPc(ptr noundef nonnull align 8 dereferenceable(8) %_M_t, ptr noundef %0)
          to label %invoke.cont unwind label %terminate.lpad

invoke.cont:                                      ; preds = %entry
  ret void

terminate.lpad:                                   ; preds = %entry
  %1 = landingpad { ptr, i32 }
          catch ptr null
  %2 = extractvalue { ptr, i32 } %1, 0
  call void @__clang_call_terminate(ptr %2) #14
  unreachable
}

; Function Attrs: mustprogress nounwind uwtable
define linkonce_odr noundef ptr @_ZNKSt10unique_ptrIA_cSt14default_deleteIS0_EE3getEv(ptr noundef nonnull align 8 dereferenceable(8) %this) #0 comdat align 2 {
entry:
  %this.addr = alloca ptr, align 8
  store ptr %this, ptr %this.addr, align 8
  %this1 = load ptr, ptr %this.addr, align 8
  %_M_t = getelementptr inbounds %"class.std::unique_ptr.16", ptr %this1, i32 0, i32 0
  %call = call noundef ptr @_ZNKSt15__uniq_ptr_implIcSt14default_deleteIA_cEE6_M_ptrEv(ptr noundef nonnull align 8 dereferenceable(8) %_M_t) #13
  ret ptr %call
}

; Function Attrs: mustprogress nounwind uwtable
define linkonce_odr noundef ptr @_ZNKSt10unique_ptrIN6Assimp8IOStreamESt14default_deleteIS1_EEptEv(ptr noundef nonnull align 8 dereferenceable(8) %this) #0 comdat align 2 {
entry:
  %this.addr = alloca ptr, align 8
  store ptr %this, ptr %this.addr, align 8
  %this1 = load ptr, ptr %this.addr, align 8
  %call = call noundef ptr @_ZNKSt10unique_ptrIN6Assimp8IOStreamESt14default_deleteIS1_EE3getEv(ptr noundef nonnull align 8 dereferenceable(8) %this1) #13
  ret ptr %call
}

; Function Attrs: nounwind willreturn memory(read)
declare i32 @tolower(i32 noundef) #9

; Function Attrs: nounwind willreturn memory(read)
declare i64 @strlen(ptr noundef) #9

; Function Attrs: nounwind
declare void @_ZNSt7__cxx1112basic_stringIcSt11char_traitsIcESaIcEE5clearEv(ptr noundef nonnull align 8 dereferenceable(32)) #2

declare void @_ZNSt7__cxx1112basic_stringIcSt11char_traitsIcESaIcEE9push_backEc(ptr noundef nonnull align 8 dereferenceable(32), i8 noundef signext) #4

; Function Attrs: nounwind willreturn memory(read)
declare noundef ptr @strstr(ptr noundef, ptr noundef) #9

; Function Attrs: nounwind
declare noundef ptr @_ZNKSt7__cxx1112basic_stringIcSt11char_traitsIcESaIcEE5c_strEv(ptr noundef nonnull align 8 dereferenceable(32)) #2

; Function Attrs: nounwind willreturn memory(read)
declare i32 @isgraph(i32 noundef) #9

; Function Attrs: mustprogress uwtable
define linkonce_odr void @_ZN6Assimp6Logger5debugIJRA42_KcRPS2_EEEvDpOT_(ptr noundef nonnull align 8 dereferenceable(12) %this, ptr noundef nonnull align 1 dereferenceable(42) %args, ptr noundef nonnull align 8 dereferenceable(8) %args1) #3 comdat align 2 personality ptr @__gxx_personality_v0 {
entry:
  %this.addr = alloca ptr, align 8
  %args.addr = alloca ptr, align 8
  %args.addr2 = alloca ptr, align 8
  %ref.tmp = alloca %"class.std::__cxx11::basic_string", align 8
  %agg.tmp = alloca %"class.Assimp::Formatter::basic_formatter", align 8
  %exn.slot = alloca ptr, align 8
  %ehselector.slot = alloca i32, align 4
  store ptr %this, ptr %this.addr, align 8
  store ptr %args, ptr %args.addr, align 8
  store ptr %args1, ptr %args.addr2, align 8
  %this3 = load ptr, ptr %this.addr, align 8
  %0 = load ptr, ptr %args.addr, align 8
  call void @_ZN6Assimp9Formatter15basic_formatterIcSt11char_traitsIcESaIcEEC2IA42_cEERKT_(ptr noundef nonnull align 8 dereferenceable(376) %agg.tmp, ptr noundef nonnull align 1 dereferenceable(42) %0)
  %1 = load ptr, ptr %args.addr2, align 8
  invoke void @_ZN6Assimp6Logger13formatMessageIJERPKcEENSt7__cxx1112basic_stringIcSt11char_traitsIcESaIcEEENS_9Formatter15basic_formatterIcS8_S9_EEOT0_DpOT_(ptr sret(%"class.std::__cxx11::basic_string") align 8 %ref.tmp, ptr noundef nonnull align 8 dereferenceable(12) %this3, ptr noundef %agg.tmp, ptr noundef nonnull align 8 dereferenceable(8) %1)
          to label %invoke.cont unwind label %lpad

invoke.cont:                                      ; preds = %entry
  %call = call noundef ptr @_ZNKSt7__cxx1112basic_stringIcSt11char_traitsIcESaIcEE5c_strEv(ptr noundef nonnull align 8 dereferenceable(32) %ref.tmp) #13
  invoke void @_ZN6Assimp6Logger5debugEPKc(ptr noundef nonnull align 8 dereferenceable(12) %this3, ptr noundef %call)
          to label %invoke.cont5 unwind label %lpad4

invoke.cont5:                                     ; preds = %invoke.cont
  call void @_ZNSt7__cxx1112basic_stringIcSt11char_traitsIcESaIcEED1Ev(ptr noundef nonnull align 8 dereferenceable(32) %ref.tmp) #13
  call void @_ZN6Assimp9Formatter15basic_formatterIcSt11char_traitsIcESaIcEED2Ev(ptr noundef nonnull align 8 dereferenceable(376) %agg.tmp) #13
  ret void

lpad:                                             ; preds = %entry
  %2 = landingpad { ptr, i32 }
          cleanup
  %3 = extractvalue { ptr, i32 } %2, 0
  store ptr %3, ptr %exn.slot, align 8
  %4 = extractvalue { ptr, i32 } %2, 1
  store i32 %4, ptr %ehselector.slot, align 4
  br label %ehcleanup

lpad4:                                            ; preds = %invoke.cont
  %5 = landingpad { ptr, i32 }
          cleanup
  %6 = extractvalue { ptr, i32 } %5, 0
  store ptr %6, ptr %exn.slot, align 8
  %7 = extractvalue { ptr, i32 } %5, 1
  store i32 %7, ptr %ehselector.slot, align 4
  call void @_ZNSt7__cxx1112basic_stringIcSt11char_traitsIcESaIcEED1Ev(ptr noundef nonnull align 8 dereferenceable(32) %ref.tmp) #13
  br label %ehcleanup

ehcleanup:                                        ; preds = %lpad4, %lpad
  call void @_ZN6Assimp9Formatter15basic_formatterIcSt11char_traitsIcESaIcEED2Ev(ptr noundef nonnull align 8 dereferenceable(376) %agg.tmp) #13
  br label %eh.resume

eh.resume:                                        ; preds = %ehcleanup
  %exn = load ptr, ptr %exn.slot, align 8
  %sel = load i32, ptr %ehselector.slot, align 4
  %lpad.val = insertvalue { ptr, i32 } poison, ptr %exn, 0
  %lpad.val6 = insertvalue { ptr, i32 } %lpad.val, i32 %sel, 1
  resume { ptr, i32 } %lpad.val6
}

; Function Attrs: mustprogress nounwind uwtable
define linkonce_odr void @_ZNSt10unique_ptrIA_cSt14default_deleteIS0_EED2Ev(ptr noundef nonnull align 8 dereferenceable(8) %this) unnamed_addr #0 comdat align 2 personality ptr @__gxx_personality_v0 {
entry:
  %this.addr = alloca ptr, align 8
  %__ptr = alloca ptr, align 8
  store ptr %this, ptr %this.addr, align 8
  %this1 = load ptr, ptr %this.addr, align 8
  %_M_t = getelementptr inbounds %"class.std::unique_ptr.16", ptr %this1, i32 0, i32 0
  %call = call noundef nonnull align 8 dereferenceable(8) ptr @_ZNSt15__uniq_ptr_implIcSt14default_deleteIA_cEE6_M_ptrEv(ptr noundef nonnull align 8 dereferenceable(8) %_M_t) #13
  store ptr %call, ptr %__ptr, align 8
  %0 = load ptr, ptr %__ptr, align 8
  %1 = load ptr, ptr %0, align 8
  %cmp = icmp ne ptr %1, null
  br i1 %cmp, label %if.then, label %if.end

if.then:                                          ; preds = %entry
  %call2 = call noundef nonnull align 1 dereferenceable(1) ptr @_ZNSt10unique_ptrIA_cSt14default_deleteIS0_EE11get_deleterEv(ptr noundef nonnull align 8 dereferenceable(8) %this1) #13
  %2 = load ptr, ptr %__ptr, align 8
  %3 = load ptr, ptr %2, align 8
  invoke void @_ZNKSt14default_deleteIA_cEclIcEENSt9enable_ifIXsr14is_convertibleIPA_T_PS0_EE5valueEvE4typeEPS4_(ptr noundef nonnull align 1 dereferenceable(1) %call2, ptr noundef %3)
          to label %invoke.cont unwind label %terminate.lpad

invoke.cont:                                      ; preds = %if.then
  br label %if.end

if.end:                                           ; preds = %invoke.cont, %entry
  %4 = load ptr, ptr %__ptr, align 8
  store ptr null, ptr %4, align 8
  ret void

terminate.lpad:                                   ; preds = %if.then
  %5 = landingpad { ptr, i32 }
          catch ptr null
  %6 = extractvalue { ptr, i32 } %5, 0
  call void @__clang_call_terminate(ptr %6) #14
  unreachable
}

; Function Attrs: mustprogress nounwind uwtable
define linkonce_odr void @_ZNSt10unique_ptrIN6Assimp8IOStreamESt14default_deleteIS1_EED2Ev(ptr noundef nonnull align 8 dereferenceable(8) %this) unnamed_addr #0 comdat align 2 personality ptr @__gxx_personality_v0 {
entry:
  %this.addr = alloca ptr, align 8
  %__ptr = alloca ptr, align 8
  store ptr %this, ptr %this.addr, align 8
  %this1 = load ptr, ptr %this.addr, align 8
  %_M_t = getelementptr inbounds %"class.std::unique_ptr.8", ptr %this1, i32 0, i32 0
  %call = call noundef nonnull align 8 dereferenceable(8) ptr @_ZNSt15__uniq_ptr_implIN6Assimp8IOStreamESt14default_deleteIS1_EE6_M_ptrEv(ptr noundef nonnull align 8 dereferenceable(8) %_M_t) #13
  store ptr %call, ptr %__ptr, align 8
  %0 = load ptr, ptr %__ptr, align 8
  %1 = load ptr, ptr %0, align 8
  %cmp = icmp ne ptr %1, null
  br i1 %cmp, label %if.then, label %if.end

if.then:                                          ; preds = %entry
  %call2 = call noundef nonnull align 1 dereferenceable(1) ptr @_ZNSt10unique_ptrIN6Assimp8IOStreamESt14default_deleteIS1_EE11get_deleterEv(ptr noundef nonnull align 8 dereferenceable(8) %this1) #13
  %2 = load ptr, ptr %__ptr, align 8
  %3 = load ptr, ptr %2, align 8
  invoke void @_ZNKSt14default_deleteIN6Assimp8IOStreamEEclEPS1_(ptr noundef nonnull align 1 dereferenceable(1) %call2, ptr noundef %3)
          to label %invoke.cont unwind label %terminate.lpad

invoke.cont:                                      ; preds = %if.then
  br label %if.end

if.end:                                           ; preds = %invoke.cont, %entry
  %4 = load ptr, ptr %__ptr, align 8
  store ptr null, ptr %4, align 8
  ret void

terminate.lpad:                                   ; preds = %if.then
  %5 = landingpad { ptr, i32 }
          catch ptr null
  %6 = extractvalue { ptr, i32 } %5, 0
  call void @__clang_call_terminate(ptr %6) #14
  unreachable
}

; Function Attrs: mustprogress uwtable
define noundef zeroext i1 @_ZN6Assimp12BaseImporter20SimpleExtensionCheckERKNSt7__cxx1112basic_stringIcSt11char_traitsIcESaIcEEEPKcSA_SA_(ptr noundef nonnull align 8 dereferenceable(32) %pFile, ptr noundef %ext0, ptr noundef %ext1, ptr noundef %ext2) #3 align 2 personality ptr @__gxx_personality_v0 {
entry:
  %pFile.addr = alloca ptr, align 8
  %ext0.addr = alloca ptr, align 8
  %ext1.addr = alloca ptr, align 8
  %ext2.addr = alloca ptr, align 8
  %extensions = alloca %"class.std::set", align 8
  %__range1 = alloca ptr, align 8
  %ref.tmp = alloca %"class.std::initializer_list", align 8
  %ref.tmp1 = alloca [3 x ptr], align 8
  %__begin1 = alloca ptr, align 8
  %__end1 = alloca ptr, align 8
  %ext = alloca ptr, align 8
  %exn.slot = alloca ptr, align 8
  %ehselector.slot = alloca i32, align 4
  %coerce = alloca %"struct.std::pair", align 8
  store ptr %pFile, ptr %pFile.addr, align 8
  store ptr %ext0, ptr %ext0.addr, align 8
  store ptr %ext1, ptr %ext1.addr, align 8
  store ptr %ext2, ptr %ext2.addr, align 8
  call void @_ZNSt3setINSt7__cxx1112basic_stringIcSt11char_traitsIcESaIcEEESt4lessIS5_ESaIS5_EEC2Ev(ptr noundef nonnull align 8 dereferenceable(48) %extensions) #13
  %arrayinit.begin = getelementptr inbounds [3 x ptr], ptr %ref.tmp1, i64 0, i64 0
  %0 = load ptr, ptr %ext0.addr, align 8
  store ptr %0, ptr %arrayinit.begin, align 8
  %arrayinit.element = getelementptr inbounds ptr, ptr %arrayinit.begin, i64 1
  %1 = load ptr, ptr %ext1.addr, align 8
  store ptr %1, ptr %arrayinit.element, align 8
  %arrayinit.element2 = getelementptr inbounds ptr, ptr %arrayinit.element, i64 1
  %2 = load ptr, ptr %ext2.addr, align 8
  store ptr %2, ptr %arrayinit.element2, align 8
  %_M_array = getelementptr inbounds %"class.std::initializer_list", ptr %ref.tmp, i32 0, i32 0
  %arraystart = getelementptr inbounds [3 x ptr], ptr %ref.tmp1, i64 0, i64 0
  store ptr %arraystart, ptr %_M_array, align 8
  %_M_len = getelementptr inbounds %"class.std::initializer_list", ptr %ref.tmp, i32 0, i32 1
  store i64 3, ptr %_M_len, align 8
  store ptr %ref.tmp, ptr %__range1, align 8
  %3 = load ptr, ptr %__range1, align 8
  %call = call noundef ptr @_ZNKSt16initializer_listIPKcE5beginEv(ptr noundef nonnull align 8 dereferenceable(16) %3) #13
  store ptr %call, ptr %__begin1, align 8
  %4 = load ptr, ptr %__range1, align 8
  %call3 = call noundef ptr @_ZNKSt16initializer_listIPKcE3endEv(ptr noundef nonnull align 8 dereferenceable(16) %4) #13
  store ptr %call3, ptr %__end1, align 8
  br label %for.cond

for.cond:                                         ; preds = %for.inc, %entry
  %5 = load ptr, ptr %__begin1, align 8
  %6 = load ptr, ptr %__end1, align 8
  %cmp = icmp ne ptr %5, %6
  br i1 %cmp, label %for.body, label %for.end

for.body:                                         ; preds = %for.cond
  %7 = load ptr, ptr %__begin1, align 8
  %8 = load ptr, ptr %7, align 8
  store ptr %8, ptr %ext, align 8
  %9 = load ptr, ptr %ext, align 8
  %cmp4 = icmp eq ptr %9, null
  br i1 %cmp4, label %if.then, label %if.end

if.then:                                          ; preds = %for.body
  br label %for.inc

if.end:                                           ; preds = %for.body
  %call5 = invoke { ptr, i8 } @_ZNSt3setINSt7__cxx1112basic_stringIcSt11char_traitsIcESaIcEEESt4lessIS5_ESaIS5_EE7emplaceIJRPKcEEESt4pairISt23_Rb_tree_const_iteratorIS5_EbEDpOT_(ptr noundef nonnull align 8 dereferenceable(48) %extensions, ptr noundef nonnull align 8 dereferenceable(8) %ext)
          to label %invoke.cont unwind label %lpad

invoke.cont:                                      ; preds = %if.end
  %10 = getelementptr inbounds { ptr, i8 }, ptr %coerce, i32 0, i32 0
  %11 = extractvalue { ptr, i8 } %call5, 0
  store ptr %11, ptr %10, align 8
  %12 = getelementptr inbounds { ptr, i8 }, ptr %coerce, i32 0, i32 1
  %13 = extractvalue { ptr, i8 } %call5, 1
  store i8 %13, ptr %12, align 8
  br label %for.inc

for.inc:                                          ; preds = %invoke.cont, %if.then
  %14 = load ptr, ptr %__begin1, align 8
  %incdec.ptr = getelementptr inbounds ptr, ptr %14, i32 1
  store ptr %incdec.ptr, ptr %__begin1, align 8
  br label %for.cond

lpad:                                             ; preds = %for.end, %if.end
  %15 = landingpad { ptr, i32 }
          cleanup
  %16 = extractvalue { ptr, i32 } %15, 0
  store ptr %16, ptr %exn.slot, align 8
  %17 = extractvalue { ptr, i32 } %15, 1
  store i32 %17, ptr %ehselector.slot, align 4
  call void @_ZNSt3setINSt7__cxx1112basic_stringIcSt11char_traitsIcESaIcEEESt4lessIS5_ESaIS5_EED2Ev(ptr noundef nonnull align 8 dereferenceable(48) %extensions) #13
  br label %eh.resume

for.end:                                          ; preds = %for.cond
  %18 = load ptr, ptr %pFile.addr, align 8
  %call7 = invoke noundef zeroext i1 @_ZN6Assimp12BaseImporter12HasExtensionERKNSt7__cxx1112basic_stringIcSt11char_traitsIcESaIcEEERKSt3setIS6_St4lessIS6_ESaIS6_EE(ptr noundef nonnull align 8 dereferenceable(32) %18, ptr noundef nonnull align 8 dereferenceable(48) %extensions)
          to label %invoke.cont6 unwind label %lpad

invoke.cont6:                                     ; preds = %for.end
  call void @_ZNSt3setINSt7__cxx1112basic_stringIcSt11char_traitsIcESaIcEEESt4lessIS5_ESaIS5_EED2Ev(ptr noundef nonnull align 8 dereferenceable(48) %extensions) #13
  ret i1 %call7

eh.resume:                                        ; preds = %lpad
  %exn = load ptr, ptr %exn.slot, align 8
  %sel = load i32, ptr %ehselector.slot, align 4
  %lpad.val = insertvalue { ptr, i32 } poison, ptr %exn, 0
  %lpad.val8 = insertvalue { ptr, i32 } %lpad.val, i32 %sel, 1
  resume { ptr, i32 } %lpad.val8
}

; Function Attrs: mustprogress nounwind uwtable
define linkonce_odr void @_ZNSt3setINSt7__cxx1112basic_stringIcSt11char_traitsIcESaIcEEESt4lessIS5_ESaIS5_EEC2Ev(ptr noundef nonnull align 8 dereferenceable(48) %this) unnamed_addr #0 comdat align 2 {
entry:
  %this.addr = alloca ptr, align 8
  store ptr %this, ptr %this.addr, align 8
  %this1 = load ptr, ptr %this.addr, align 8
  %_M_t = getelementptr inbounds %"class.std::set", ptr %this1, i32 0, i32 0
  call void @_ZNSt8_Rb_treeINSt7__cxx1112basic_stringIcSt11char_traitsIcESaIcEEES5_St9_IdentityIS5_ESt4lessIS5_ESaIS5_EEC2Ev(ptr noundef nonnull align 8 dereferenceable(48) %_M_t) #13
  ret void
}

; Function Attrs: mustprogress nounwind uwtable
define linkonce_odr noundef ptr @_ZNKSt16initializer_listIPKcE5beginEv(ptr noundef nonnull align 8 dereferenceable(16) %this) #0 comdat align 2 {
entry:
  %this.addr = alloca ptr, align 8
  store ptr %this, ptr %this.addr, align 8
  %this1 = load ptr, ptr %this.addr, align 8
  %_M_array = getelementptr inbounds %"class.std::initializer_list", ptr %this1, i32 0, i32 0
  %0 = load ptr, ptr %_M_array, align 8
  ret ptr %0
}

; Function Attrs: mustprogress nounwind uwtable
define linkonce_odr noundef ptr @_ZNKSt16initializer_listIPKcE3endEv(ptr noundef nonnull align 8 dereferenceable(16) %this) #0 comdat align 2 {
entry:
  %this.addr = alloca ptr, align 8
  store ptr %this, ptr %this.addr, align 8
  %this1 = load ptr, ptr %this.addr, align 8
  %call = call noundef ptr @_ZNKSt16initializer_listIPKcE5beginEv(ptr noundef nonnull align 8 dereferenceable(16) %this1) #13
  %call2 = call noundef i64 @_ZNKSt16initializer_listIPKcE4sizeEv(ptr noundef nonnull align 8 dereferenceable(16) %this1) #13
  %add.ptr = getelementptr inbounds ptr, ptr %call, i64 %call2
  ret ptr %add.ptr
}

; Function Attrs: mustprogress uwtable
define linkonce_odr { ptr, i8 } @_ZNSt3setINSt7__cxx1112basic_stringIcSt11char_traitsIcESaIcEEESt4lessIS5_ESaIS5_EE7emplaceIJRPKcEEESt4pairISt23_Rb_tree_const_iteratorIS5_EbEDpOT_(ptr noundef nonnull align 8 dereferenceable(48) %this, ptr noundef nonnull align 8 dereferenceable(8) %__args) #3 comdat align 2 {
entry:
  %retval = alloca %"struct.std::pair", align 8
  %this.addr = alloca ptr, align 8
  %__args.addr = alloca ptr, align 8
  %ref.tmp = alloca %"struct.std::pair.108", align 8
  store ptr %this, ptr %this.addr, align 8
  store ptr %__args, ptr %__args.addr, align 8
  %this1 = load ptr, ptr %this.addr, align 8
  %_M_t = getelementptr inbounds %"class.std::set", ptr %this1, i32 0, i32 0
  %0 = load ptr, ptr %__args.addr, align 8
  %call = call { ptr, i8 } @_ZNSt8_Rb_treeINSt7__cxx1112basic_stringIcSt11char_traitsIcESaIcEEES5_St9_IdentityIS5_ESt4lessIS5_ESaIS5_EE17_M_emplace_uniqueIJRPKcEEESt4pairISt17_Rb_tree_iteratorIS5_EbEDpOT_(ptr noundef nonnull align 8 dereferenceable(48) %_M_t, ptr noundef nonnull align 8 dereferenceable(8) %0)
  %1 = getelementptr inbounds { ptr, i8 }, ptr %ref.tmp, i32 0, i32 0
  %2 = extractvalue { ptr, i8 } %call, 0
  store ptr %2, ptr %1, align 8
  %3 = getelementptr inbounds { ptr, i8 }, ptr %ref.tmp, i32 0, i32 1
  %4 = extractvalue { ptr, i8 } %call, 1
  store i8 %4, ptr %3, align 8
  call void @_ZNSt4pairISt23_Rb_tree_const_iteratorINSt7__cxx1112basic_stringIcSt11char_traitsIcESaIcEEEEbEC2ISt17_Rb_tree_iteratorIS6_EbTnNSt9enable_ifIXaaclsr6_PCCFPIT_T0_EE22_MoveConstructiblePairISD_SE_EEclsr6_PCCFPISD_SE_EE30_ImplicitlyMoveConvertiblePairISD_SE_EEEbE4typeELb1EEEOS_ISD_SE_E(ptr noundef nonnull align 8 dereferenceable(9) %retval, ptr noundef nonnull align 8 dereferenceable(9) %ref.tmp)
  %5 = load { ptr, i8 }, ptr %retval, align 8
  ret { ptr, i8 } %5
}

; Function Attrs: mustprogress uwtable
define noundef zeroext i1 @_ZN6Assimp12BaseImporter12HasExtensionERKNSt7__cxx1112basic_stringIcSt11char_traitsIcESaIcEEERKSt3setIS6_St4lessIS6_ESaIS6_EE(ptr noundef nonnull align 8 dereferenceable(32) %pFile, ptr noundef nonnull align 8 dereferenceable(48) %extensions) #3 align 2 personality ptr @__gxx_personality_v0 {
entry:
  %retval = alloca i1, align 1
  %pFile.addr = alloca ptr, align 8
  %extensions.addr = alloca ptr, align 8
  %file = alloca %"class.std::__cxx11::basic_string", align 8
  %__range1 = alloca ptr, align 8
  %__begin1 = alloca %"struct.std::_Rb_tree_const_iterator", align 8
  %__end1 = alloca %"struct.std::_Rb_tree_const_iterator", align 8
  %ext = alloca ptr, align 8
  %dotExt = alloca %"class.std::__cxx11::basic_string", align 8
  %exn.slot = alloca ptr, align 8
  %ehselector.slot = alloca i32, align 4
  %cleanup.dest.slot = alloca i32, align 4
  store ptr %pFile, ptr %pFile.addr, align 8
  store ptr %extensions, ptr %extensions.addr, align 8
  %0 = load ptr, ptr %pFile.addr, align 8
  call void @_ZN12_GLOBAL__N_116StripVersionHashERKNSt7__cxx1112basic_stringIcSt11char_traitsIcESaIcEEE(ptr sret(%"class.std::__cxx11::basic_string") align 8 %file, ptr noundef nonnull align 8 dereferenceable(32) %0)
  %1 = load ptr, ptr %extensions.addr, align 8
  store ptr %1, ptr %__range1, align 8
  %2 = load ptr, ptr %__range1, align 8
  %call = call ptr @_ZNKSt3setINSt7__cxx1112basic_stringIcSt11char_traitsIcESaIcEEESt4lessIS5_ESaIS5_EE5beginEv(ptr noundef nonnull align 8 dereferenceable(48) %2) #13
  %coerce.dive = getelementptr inbounds %"struct.std::_Rb_tree_const_iterator", ptr %__begin1, i32 0, i32 0
  store ptr %call, ptr %coerce.dive, align 8
  %3 = load ptr, ptr %__range1, align 8
  %call1 = call ptr @_ZNKSt3setINSt7__cxx1112basic_stringIcSt11char_traitsIcESaIcEEESt4lessIS5_ESaIS5_EE3endEv(ptr noundef nonnull align 8 dereferenceable(48) %3) #13
  %coerce.dive2 = getelementptr inbounds %"struct.std::_Rb_tree_const_iterator", ptr %__end1, i32 0, i32 0
  store ptr %call1, ptr %coerce.dive2, align 8
  br label %for.cond

for.cond:                                         ; preds = %for.inc, %entry
  %call3 = call noundef zeroext i1 @_ZStneRKSt23_Rb_tree_const_iteratorINSt7__cxx1112basic_stringIcSt11char_traitsIcESaIcEEEES8_(ptr noundef nonnull align 8 dereferenceable(8) %__begin1, ptr noundef nonnull align 8 dereferenceable(8) %__end1) #13
  br i1 %call3, label %for.body, label %for.end

for.body:                                         ; preds = %for.cond
  %call4 = call noundef nonnull align 8 dereferenceable(32) ptr @_ZNKSt23_Rb_tree_const_iteratorINSt7__cxx1112basic_stringIcSt11char_traitsIcESaIcEEEEdeEv(ptr noundef nonnull align 8 dereferenceable(8) %__begin1) #13
  store ptr %call4, ptr %ext, align 8
  %4 = load ptr, ptr %ext, align 8
  invoke void @_ZStplIcSt11char_traitsIcESaIcEENSt7__cxx1112basic_stringIT_T0_T1_EEPKS5_RKS8_(ptr sret(%"class.std::__cxx11::basic_string") align 8 %dotExt, ptr noundef @.str.4, ptr noundef nonnull align 8 dereferenceable(32) %4)
          to label %invoke.cont unwind label %lpad

invoke.cont:                                      ; preds = %for.body
  %call5 = call noundef i64 @_ZNKSt7__cxx1112basic_stringIcSt11char_traitsIcESaIcEE6lengthEv(ptr noundef nonnull align 8 dereferenceable(32) %dotExt) #13
  %call6 = call noundef i64 @_ZNKSt7__cxx1112basic_stringIcSt11char_traitsIcESaIcEE6lengthEv(ptr noundef nonnull align 8 dereferenceable(32) %file) #13
  %cmp = icmp ugt i64 %call5, %call6
  br i1 %cmp, label %if.then, label %if.end

if.then:                                          ; preds = %invoke.cont
  store i32 3, ptr %cleanup.dest.slot, align 4
  br label %cleanup

lpad:                                             ; preds = %for.body
  %5 = landingpad { ptr, i32 }
          cleanup
  %6 = extractvalue { ptr, i32 } %5, 0
  store ptr %6, ptr %exn.slot, align 8
  %7 = extractvalue { ptr, i32 } %5, 1
  store i32 %7, ptr %ehselector.slot, align 4
  br label %ehcleanup

if.end:                                           ; preds = %invoke.cont
  %call7 = call noundef ptr @_ZNKSt7__cxx1112basic_stringIcSt11char_traitsIcESaIcEE5c_strEv(ptr noundef nonnull align 8 dereferenceable(32) %file) #13
  %call8 = call noundef i64 @_ZNKSt7__cxx1112basic_stringIcSt11char_traitsIcESaIcEE6lengthEv(ptr noundef nonnull align 8 dereferenceable(32) %file) #13
  %add.ptr = getelementptr inbounds i8, ptr %call7, i64 %call8
  %call9 = call noundef i64 @_ZNKSt7__cxx1112basic_stringIcSt11char_traitsIcESaIcEE6lengthEv(ptr noundef nonnull align 8 dereferenceable(32) %dotExt) #13
  %idx.neg = sub i64 0, %call9
  %add.ptr10 = getelementptr inbounds i8, ptr %add.ptr, i64 %idx.neg
  %call11 = call noundef ptr @_ZNKSt7__cxx1112basic_stringIcSt11char_traitsIcESaIcEE5c_strEv(ptr noundef nonnull align 8 dereferenceable(32) %dotExt) #13
  %call14 = invoke noundef i32 @_ZN6Assimp14ASSIMP_stricmpEPKcS1_(ptr noundef %add.ptr10, ptr noundef %call11)
          to label %invoke.cont13 unwind label %lpad12

invoke.cont13:                                    ; preds = %if.end
  %cmp15 = icmp eq i32 0, %call14
  br i1 %cmp15, label %if.then16, label %if.end17

if.then16:                                        ; preds = %invoke.cont13
  store i1 true, ptr %retval, align 1
  store i32 1, ptr %cleanup.dest.slot, align 4
  br label %cleanup

lpad12:                                           ; preds = %if.end
  %8 = landingpad { ptr, i32 }
          cleanup
  %9 = extractvalue { ptr, i32 } %8, 0
  store ptr %9, ptr %exn.slot, align 8
  %10 = extractvalue { ptr, i32 } %8, 1
  store i32 %10, ptr %ehselector.slot, align 4
  call void @_ZNSt7__cxx1112basic_stringIcSt11char_traitsIcESaIcEED1Ev(ptr noundef nonnull align 8 dereferenceable(32) %dotExt) #13
  br label %ehcleanup

if.end17:                                         ; preds = %invoke.cont13
  store i32 0, ptr %cleanup.dest.slot, align 4
  br label %cleanup

cleanup:                                          ; preds = %if.end17, %if.then16, %if.then
  call void @_ZNSt7__cxx1112basic_stringIcSt11char_traitsIcESaIcEED1Ev(ptr noundef nonnull align 8 dereferenceable(32) %dotExt) #13
  %cleanup.dest = load i32, ptr %cleanup.dest.slot, align 4
  switch i32 %cleanup.dest, label %cleanup19 [
    i32 0, label %cleanup.cont
    i32 3, label %for.inc
  ]

cleanup.cont:                                     ; preds = %cleanup
  br label %for.inc

for.inc:                                          ; preds = %cleanup.cont, %cleanup
  %call18 = call noundef nonnull align 8 dereferenceable(8) ptr @_ZNSt23_Rb_tree_const_iteratorINSt7__cxx1112basic_stringIcSt11char_traitsIcESaIcEEEEppEv(ptr noundef nonnull align 8 dereferenceable(8) %__begin1) #13
  br label %for.cond

for.end:                                          ; preds = %for.cond
  store i1 false, ptr %retval, align 1
  store i32 1, ptr %cleanup.dest.slot, align 4
  br label %cleanup19

cleanup19:                                        ; preds = %for.end, %cleanup
  call void @_ZNSt7__cxx1112basic_stringIcSt11char_traitsIcESaIcEED1Ev(ptr noundef nonnull align 8 dereferenceable(32) %file) #13
  %11 = load i1, ptr %retval, align 1
  ret i1 %11

ehcleanup:                                        ; preds = %lpad12, %lpad
  call void @_ZNSt7__cxx1112basic_stringIcSt11char_traitsIcESaIcEED1Ev(ptr noundef nonnull align 8 dereferenceable(32) %file) #13
  br label %eh.resume

eh.resume:                                        ; preds = %ehcleanup
  %exn = load ptr, ptr %exn.slot, align 8
  %sel = load i32, ptr %ehselector.slot, align 4
  %lpad.val = insertvalue { ptr, i32 } poison, ptr %exn, 0
  %lpad.val20 = insertvalue { ptr, i32 } %lpad.val, i32 %sel, 1
  resume { ptr, i32 } %lpad.val20
}

; Function Attrs: mustprogress nounwind uwtable
define linkonce_odr void @_ZNSt3setINSt7__cxx1112basic_stringIcSt11char_traitsIcESaIcEEESt4lessIS5_ESaIS5_EED2Ev(ptr noundef nonnull align 8 dereferenceable(48) %this) unnamed_addr #0 comdat align 2 {
entry:
  %this.addr = alloca ptr, align 8
  store ptr %this, ptr %this.addr, align 8
  %this1 = load ptr, ptr %this.addr, align 8
  %_M_t = getelementptr inbounds %"class.std::set", ptr %this1, i32 0, i32 0
  call void @_ZNSt8_Rb_treeINSt7__cxx1112basic_stringIcSt11char_traitsIcESaIcEEES5_St9_IdentityIS5_ESt4lessIS5_ESaIS5_EED2Ev(ptr noundef nonnull align 8 dereferenceable(48) %_M_t) #13
  ret void
}

; Function Attrs: mustprogress uwtable
define internal void @_ZN12_GLOBAL__N_116StripVersionHashERKNSt7__cxx1112basic_stringIcSt11char_traitsIcESaIcEEE(ptr noalias sret(%"class.std::__cxx11::basic_string") align 8 %agg.result, ptr noundef nonnull align 8 dereferenceable(32) %filename) #3 personality ptr @__gxx_personality_v0 {
entry:
  %result.ptr = alloca ptr, align 8
  %filename.addr = alloca ptr, align 8
  %pos = alloca i64, align 8
  %ref.tmp = alloca %"class.std::__cxx11::basic_string", align 8
  %cleanup.cond = alloca i1, align 1
  %exn.slot = alloca ptr, align 8
  %ehselector.slot = alloca i32, align 4
  store ptr %agg.result, ptr %result.ptr, align 8
  store ptr %filename, ptr %filename.addr, align 8
  %0 = load ptr, ptr %filename.addr, align 8
  %call = call noundef i64 @_ZNKSt7__cxx1112basic_stringIcSt11char_traitsIcESaIcEE12find_last_ofEcm(ptr noundef nonnull align 8 dereferenceable(32) %0, i8 noundef signext 35, i64 noundef -1) #13
  store i64 %call, ptr %pos, align 8
  %1 = load i64, ptr %pos, align 8
  %cmp = icmp ne i64 %1, -1
  store i1 false, ptr %cleanup.cond, align 1
  br i1 %cmp, label %land.lhs.true, label %land.end

land.lhs.true:                                    ; preds = %entry
  %2 = load i64, ptr %pos, align 8
  %3 = load ptr, ptr %filename.addr, align 8
  %call1 = call noundef i64 @_ZNKSt7__cxx1112basic_stringIcSt11char_traitsIcESaIcEE12find_last_ofEcm(ptr noundef nonnull align 8 dereferenceable(32) %3, i8 noundef signext 46, i64 noundef -1) #13
  %cmp2 = icmp ugt i64 %2, %call1
  br i1 %cmp2, label %land.rhs, label %land.end

land.rhs:                                         ; preds = %land.lhs.true
  %4 = load ptr, ptr %filename.addr, align 8
  %5 = load i64, ptr %pos, align 8
  %add = add i64 %5, 1
  call void @_ZNKSt7__cxx1112basic_stringIcSt11char_traitsIcESaIcEE6substrEmm(ptr sret(%"class.std::__cxx11::basic_string") align 8 %ref.tmp, ptr noundef nonnull align 8 dereferenceable(32) %4, i64 noundef %add, i64 noundef -1)
  store i1 true, ptr %cleanup.cond, align 1
  %call3 = invoke noundef zeroext i1 @_ZN12_GLOBAL__N_112IsGcsVersionERKNSt7__cxx1112basic_stringIcSt11char_traitsIcESaIcEEE(ptr noundef nonnull align 8 dereferenceable(32) %ref.tmp)
          to label %invoke.cont unwind label %lpad

invoke.cont:                                      ; preds = %land.rhs
  br label %land.end

land.end:                                         ; preds = %invoke.cont, %land.lhs.true, %entry
  %6 = phi i1 [ false, %land.lhs.true ], [ false, %entry ], [ %call3, %invoke.cont ]
  %cleanup.is_active = load i1, ptr %cleanup.cond, align 1
  br i1 %cleanup.is_active, label %cleanup.action, label %cleanup.done

cleanup.action:                                   ; preds = %land.end
  call void @_ZNSt7__cxx1112basic_stringIcSt11char_traitsIcESaIcEED1Ev(ptr noundef nonnull align 8 dereferenceable(32) %ref.tmp) #13
  br label %cleanup.done

cleanup.done:                                     ; preds = %cleanup.action, %land.end
  br i1 %6, label %if.then, label %if.end

if.then:                                          ; preds = %cleanup.done
  %7 = load ptr, ptr %filename.addr, align 8
  %8 = load i64, ptr %pos, align 8
  call void @_ZNKSt7__cxx1112basic_stringIcSt11char_traitsIcESaIcEE6substrEmm(ptr sret(%"class.std::__cxx11::basic_string") align 8 %agg.result, ptr noundef nonnull align 8 dereferenceable(32) %7, i64 noundef 0, i64 noundef %8)
  br label %return

lpad:                                             ; preds = %land.rhs
  %9 = landingpad { ptr, i32 }
          cleanup
  %10 = extractvalue { ptr, i32 } %9, 0
  store ptr %10, ptr %exn.slot, align 8
  %11 = extractvalue { ptr, i32 } %9, 1
  store i32 %11, ptr %ehselector.slot, align 4
  %cleanup.is_active4 = load i1, ptr %cleanup.cond, align 1
  br i1 %cleanup.is_active4, label %cleanup.action5, label %cleanup.done6

cleanup.action5:                                  ; preds = %lpad
  call void @_ZNSt7__cxx1112basic_stringIcSt11char_traitsIcESaIcEED1Ev(ptr noundef nonnull align 8 dereferenceable(32) %ref.tmp) #13
  br label %cleanup.done6

cleanup.done6:                                    ; preds = %cleanup.action5, %lpad
  br label %eh.resume

if.end:                                           ; preds = %cleanup.done
  %12 = load ptr, ptr %filename.addr, align 8
  call void @_ZNSt7__cxx1112basic_stringIcSt11char_traitsIcESaIcEEC1ERKS4_(ptr noundef nonnull align 8 dereferenceable(32) %agg.result, ptr noundef nonnull align 8 dereferenceable(32) %12)
  br label %return

return:                                           ; preds = %if.end, %if.then
  ret void

eh.resume:                                        ; preds = %cleanup.done6
  %exn = load ptr, ptr %exn.slot, align 8
  %sel = load i32, ptr %ehselector.slot, align 4
  %lpad.val = insertvalue { ptr, i32 } poison, ptr %exn, 0
  %lpad.val7 = insertvalue { ptr, i32 } %lpad.val, i32 %sel, 1
  resume { ptr, i32 } %lpad.val7
}

; Function Attrs: mustprogress nounwind uwtable
define linkonce_odr ptr @_ZNKSt3setINSt7__cxx1112basic_stringIcSt11char_traitsIcESaIcEEESt4lessIS5_ESaIS5_EE5beginEv(ptr noundef nonnull align 8 dereferenceable(48) %this) #0 comdat align 2 {
entry:
  %retval = alloca %"struct.std::_Rb_tree_const_iterator", align 8
  %this.addr = alloca ptr, align 8
  store ptr %this, ptr %this.addr, align 8
  %this1 = load ptr, ptr %this.addr, align 8
  %_M_t = getelementptr inbounds %"class.std::set", ptr %this1, i32 0, i32 0
  %call = call ptr @_ZNKSt8_Rb_treeINSt7__cxx1112basic_stringIcSt11char_traitsIcESaIcEEES5_St9_IdentityIS5_ESt4lessIS5_ESaIS5_EE5beginEv(ptr noundef nonnull align 8 dereferenceable(48) %_M_t) #13
  %coerce.dive = getelementptr inbounds %"struct.std::_Rb_tree_const_iterator", ptr %retval, i32 0, i32 0
  store ptr %call, ptr %coerce.dive, align 8
  %coerce.dive2 = getelementptr inbounds %"struct.std::_Rb_tree_const_iterator", ptr %retval, i32 0, i32 0
  %0 = load ptr, ptr %coerce.dive2, align 8
  ret ptr %0
}

; Function Attrs: mustprogress nounwind uwtable
define linkonce_odr ptr @_ZNKSt3setINSt7__cxx1112basic_stringIcSt11char_traitsIcESaIcEEESt4lessIS5_ESaIS5_EE3endEv(ptr noundef nonnull align 8 dereferenceable(48) %this) #0 comdat align 2 {
entry:
  %retval = alloca %"struct.std::_Rb_tree_const_iterator", align 8
  %this.addr = alloca ptr, align 8
  store ptr %this, ptr %this.addr, align 8
  %this1 = load ptr, ptr %this.addr, align 8
  %_M_t = getelementptr inbounds %"class.std::set", ptr %this1, i32 0, i32 0
  %call = call ptr @_ZNKSt8_Rb_treeINSt7__cxx1112basic_stringIcSt11char_traitsIcESaIcEEES5_St9_IdentityIS5_ESt4lessIS5_ESaIS5_EE3endEv(ptr noundef nonnull align 8 dereferenceable(48) %_M_t) #13
  %coerce.dive = getelementptr inbounds %"struct.std::_Rb_tree_const_iterator", ptr %retval, i32 0, i32 0
  store ptr %call, ptr %coerce.dive, align 8
  %coerce.dive2 = getelementptr inbounds %"struct.std::_Rb_tree_const_iterator", ptr %retval, i32 0, i32 0
  %0 = load ptr, ptr %coerce.dive2, align 8
  ret ptr %0
}

; Function Attrs: mustprogress nounwind uwtable
define linkonce_odr noundef zeroext i1 @_ZStneRKSt23_Rb_tree_const_iteratorINSt7__cxx1112basic_stringIcSt11char_traitsIcESaIcEEEES8_(ptr noundef nonnull align 8 dereferenceable(8) %__x, ptr noundef nonnull align 8 dereferenceable(8) %__y) #0 comdat {
entry:
  %__x.addr = alloca ptr, align 8
  %__y.addr = alloca ptr, align 8
  store ptr %__x, ptr %__x.addr, align 8
  store ptr %__y, ptr %__y.addr, align 8
  %0 = load ptr, ptr %__x.addr, align 8
  %_M_node = getelementptr inbounds %"struct.std::_Rb_tree_const_iterator", ptr %0, i32 0, i32 0
  %1 = load ptr, ptr %_M_node, align 8
  %2 = load ptr, ptr %__y.addr, align 8
  %_M_node1 = getelementptr inbounds %"struct.std::_Rb_tree_const_iterator", ptr %2, i32 0, i32 0
  %3 = load ptr, ptr %_M_node1, align 8
  %cmp = icmp ne ptr %1, %3
  ret i1 %cmp
}

; Function Attrs: mustprogress nounwind uwtable
define linkonce_odr noundef nonnull align 8 dereferenceable(32) ptr @_ZNKSt23_Rb_tree_const_iteratorINSt7__cxx1112basic_stringIcSt11char_traitsIcESaIcEEEEdeEv(ptr noundef nonnull align 8 dereferenceable(8) %this) #0 comdat align 2 {
entry:
  %this.addr = alloca ptr, align 8
  store ptr %this, ptr %this.addr, align 8
  %this1 = load ptr, ptr %this.addr, align 8
  %_M_node = getelementptr inbounds %"struct.std::_Rb_tree_const_iterator", ptr %this1, i32 0, i32 0
  %0 = load ptr, ptr %_M_node, align 8
  %call = call noundef ptr @_ZNKSt13_Rb_tree_nodeINSt7__cxx1112basic_stringIcSt11char_traitsIcESaIcEEEE9_M_valptrEv(ptr noundef nonnull align 8 dereferenceable(64) %0)
  ret ptr %call
}

; Function Attrs: mustprogress uwtable
define linkonce_odr void @_ZStplIcSt11char_traitsIcESaIcEENSt7__cxx1112basic_stringIT_T0_T1_EEPKS5_RKS8_(ptr noalias sret(%"class.std::__cxx11::basic_string") align 8 %agg.result, ptr noundef %__lhs, ptr noundef nonnull align 8 dereferenceable(32) %__rhs) #3 comdat personality ptr @__gxx_personality_v0 {
entry:
  %result.ptr = alloca ptr, align 8
  %__lhs.addr = alloca ptr, align 8
  %__rhs.addr = alloca ptr, align 8
  %__len = alloca i64, align 8
  %nrvo = alloca i1, align 1
  %ref.tmp = alloca %"class.std::allocator.0", align 1
  %ref.tmp1 = alloca %"class.std::allocator.0", align 1
  %exn.slot = alloca ptr, align 8
  %ehselector.slot = alloca i32, align 4
  store ptr %agg.result, ptr %result.ptr, align 8
  store ptr %__lhs, ptr %__lhs.addr, align 8
  store ptr %__rhs, ptr %__rhs.addr, align 8
  %0 = load ptr, ptr %__lhs.addr, align 8
  %call = call noundef i64 @_ZNSt11char_traitsIcE6lengthEPKc(ptr noundef %0)
  store i64 %call, ptr %__len, align 8
  store i1 false, ptr %nrvo, align 1
  %1 = load ptr, ptr %__rhs.addr, align 8
  call void @_ZNKSt7__cxx1112basic_stringIcSt11char_traitsIcESaIcEE13get_allocatorEv(ptr sret(%"class.std::allocator.0") align 1 %ref.tmp1, ptr noundef nonnull align 8 dereferenceable(32) %1) #13
  invoke void @_ZN9__gnu_cxx14__alloc_traitsISaIcEcE17_S_select_on_copyERKS1_(ptr sret(%"class.std::allocator.0") align 1 %ref.tmp, ptr noundef nonnull align 1 dereferenceable(1) %ref.tmp1)
          to label %invoke.cont unwind label %lpad

invoke.cont:                                      ; preds = %entry
  call void @_ZNSt7__cxx1112basic_stringIcSt11char_traitsIcESaIcEEC1ERKS3_(ptr noundef nonnull align 8 dereferenceable(32) %agg.result, ptr noundef nonnull align 1 dereferenceable(1) %ref.tmp) #13
  call void @_ZNSaIcED1Ev(ptr noundef nonnull align 1 dereferenceable(1) %ref.tmp) #13
  call void @_ZNSaIcED1Ev(ptr noundef nonnull align 1 dereferenceable(1) %ref.tmp1) #13
  %2 = load i64, ptr %__len, align 8
  %3 = load ptr, ptr %__rhs.addr, align 8
  %call2 = call noundef i64 @_ZNKSt7__cxx1112basic_stringIcSt11char_traitsIcESaIcEE4sizeEv(ptr noundef nonnull align 8 dereferenceable(32) %3) #13
  %add = add i64 %2, %call2
  invoke void @_ZNSt7__cxx1112basic_stringIcSt11char_traitsIcESaIcEE7reserveEm(ptr noundef nonnull align 8 dereferenceable(32) %agg.result, i64 noundef %add)
          to label %invoke.cont4 unwind label %lpad3

invoke.cont4:                                     ; preds = %invoke.cont
  %4 = load ptr, ptr %__lhs.addr, align 8
  %5 = load i64, ptr %__len, align 8
  %call6 = invoke noundef nonnull align 8 dereferenceable(32) ptr @_ZNSt7__cxx1112basic_stringIcSt11char_traitsIcESaIcEE6appendEPKcm(ptr noundef nonnull align 8 dereferenceable(32) %agg.result, ptr noundef %4, i64 noundef %5)
          to label %invoke.cont5 unwind label %lpad3

invoke.cont5:                                     ; preds = %invoke.cont4
  %6 = load ptr, ptr %__rhs.addr, align 8
  %call8 = invoke noundef nonnull align 8 dereferenceable(32) ptr @_ZNSt7__cxx1112basic_stringIcSt11char_traitsIcESaIcEE6appendERKS4_(ptr noundef nonnull align 8 dereferenceable(32) %agg.result, ptr noundef nonnull align 8 dereferenceable(32) %6)
          to label %invoke.cont7 unwind label %lpad3

invoke.cont7:                                     ; preds = %invoke.cont5
  store i1 true, ptr %nrvo, align 1
  %nrvo.val = load i1, ptr %nrvo, align 1
  br i1 %nrvo.val, label %nrvo.skipdtor, label %nrvo.unused

lpad:                                             ; preds = %entry
  %7 = landingpad { ptr, i32 }
          cleanup
  %8 = extractvalue { ptr, i32 } %7, 0
  store ptr %8, ptr %exn.slot, align 8
  %9 = extractvalue { ptr, i32 } %7, 1
  store i32 %9, ptr %ehselector.slot, align 4
  call void @_ZNSaIcED1Ev(ptr noundef nonnull align 1 dereferenceable(1) %ref.tmp1) #13
  br label %eh.resume

lpad3:                                            ; preds = %invoke.cont5, %invoke.cont4, %invoke.cont
  %10 = landingpad { ptr, i32 }
          cleanup
  %11 = extractvalue { ptr, i32 } %10, 0
  store ptr %11, ptr %exn.slot, align 8
  %12 = extractvalue { ptr, i32 } %10, 1
  store i32 %12, ptr %ehselector.slot, align 4
  call void @_ZNSt7__cxx1112basic_stringIcSt11char_traitsIcESaIcEED1Ev(ptr noundef nonnull align 8 dereferenceable(32) %agg.result) #13
  br label %eh.resume

nrvo.unused:                                      ; preds = %invoke.cont7
  call void @_ZNSt7__cxx1112basic_stringIcSt11char_traitsIcESaIcEED1Ev(ptr noundef nonnull align 8 dereferenceable(32) %agg.result) #13
  br label %nrvo.skipdtor

nrvo.skipdtor:                                    ; preds = %nrvo.unused, %invoke.cont7
  ret void

eh.resume:                                        ; preds = %lpad3, %lpad
  %exn = load ptr, ptr %exn.slot, align 8
  %sel = load i32, ptr %ehselector.slot, align 4
  %lpad.val = insertvalue { ptr, i32 } poison, ptr %exn, 0
  %lpad.val9 = insertvalue { ptr, i32 } %lpad.val, i32 %sel, 1
  resume { ptr, i32 } %lpad.val9
}

; Function Attrs: nounwind
declare noundef i64 @_ZNKSt7__cxx1112basic_stringIcSt11char_traitsIcESaIcEE6lengthEv(ptr noundef nonnull align 8 dereferenceable(32)) #2

; Function Attrs: mustprogress nounwind uwtable
define linkonce_odr hidden noundef i32 @_ZN6Assimp14ASSIMP_stricmpEPKcS1_(ptr noundef %s1, ptr noundef %s2) #0 comdat {
entry:
  %s1.addr = alloca ptr, align 8
  %s2.addr = alloca ptr, align 8
  %c1 = alloca i8, align 1
  %c2 = alloca i8, align 1
  store ptr %s1, ptr %s1.addr, align 8
  store ptr %s2, ptr %s2.addr, align 8
  br label %do.body

do.body:                                          ; preds = %land.end, %entry
  %0 = load ptr, ptr %s1.addr, align 8
  %incdec.ptr = getelementptr inbounds i8, ptr %0, i32 1
  store ptr %incdec.ptr, ptr %s1.addr, align 8
  %1 = load i8, ptr %0, align 1
  %conv = zext i8 %1 to i32
  %call = call i32 @tolower(i32 noundef %conv) #17
  %conv1 = trunc i32 %call to i8
  store i8 %conv1, ptr %c1, align 1
  %2 = load ptr, ptr %s2.addr, align 8
  %incdec.ptr2 = getelementptr inbounds i8, ptr %2, i32 1
  store ptr %incdec.ptr2, ptr %s2.addr, align 8
  %3 = load i8, ptr %2, align 1
  %conv3 = zext i8 %3 to i32
  %call4 = call i32 @tolower(i32 noundef %conv3) #17
  %conv5 = trunc i32 %call4 to i8
  store i8 %conv5, ptr %c2, align 1
  br label %do.cond

do.cond:                                          ; preds = %do.body
  %4 = load i8, ptr %c1, align 1
  %tobool = icmp ne i8 %4, 0
  br i1 %tobool, label %land.rhs, label %land.end

land.rhs:                                         ; preds = %do.cond
  %5 = load i8, ptr %c1, align 1
  %conv6 = sext i8 %5 to i32
  %6 = load i8, ptr %c2, align 1
  %conv7 = sext i8 %6 to i32
  %cmp = icmp eq i32 %conv6, %conv7
  br label %land.end

land.end:                                         ; preds = %land.rhs, %do.cond
  %7 = phi i1 [ false, %do.cond ], [ %cmp, %land.rhs ]
  br i1 %7, label %do.body, label %do.end, !llvm.loop !11

do.end:                                           ; preds = %land.end
  %8 = load i8, ptr %c1, align 1
  %conv8 = sext i8 %8 to i32
  %9 = load i8, ptr %c2, align 1
  %conv9 = sext i8 %9 to i32
  %sub = sub nsw i32 %conv8, %conv9
  ret i32 %sub
}

; Function Attrs: mustprogress nounwind uwtable
define linkonce_odr noundef nonnull align 8 dereferenceable(8) ptr @_ZNSt23_Rb_tree_const_iteratorINSt7__cxx1112basic_stringIcSt11char_traitsIcESaIcEEEEppEv(ptr noundef nonnull align 8 dereferenceable(8) %this) #0 comdat align 2 {
entry:
  %this.addr = alloca ptr, align 8
  store ptr %this, ptr %this.addr, align 8
  %this1 = load ptr, ptr %this.addr, align 8
  %_M_node = getelementptr inbounds %"struct.std::_Rb_tree_const_iterator", ptr %this1, i32 0, i32 0
  %0 = load ptr, ptr %_M_node, align 8
  %call = call noundef ptr @_ZSt18_Rb_tree_incrementPKSt18_Rb_tree_node_base(ptr noundef %0) #17
  %_M_node2 = getelementptr inbounds %"struct.std::_Rb_tree_const_iterator", ptr %this1, i32 0, i32 0
  store ptr %call, ptr %_M_node2, align 8
  ret ptr %this1
}

; Function Attrs: mustprogress uwtable
define void @_ZN6Assimp12BaseImporter12GetExtensionERKNSt7__cxx1112basic_stringIcSt11char_traitsIcESaIcEEE(ptr noalias sret(%"class.std::__cxx11::basic_string") align 8 %agg.result, ptr noundef nonnull align 8 dereferenceable(32) %pFile) #3 align 2 personality ptr @__gxx_personality_v0 {
entry:
  %result.ptr = alloca ptr, align 8
  %pFile.addr = alloca ptr, align 8
  %file = alloca %"class.std::__cxx11::basic_string", align 8
  %pos = alloca i64, align 8
  %cleanup.dest.slot = alloca i32, align 4
  %nrvo = alloca i1, align 1
  %exn.slot = alloca ptr, align 8
  %ehselector.slot = alloca i32, align 4
  %ref.tmp = alloca %"class.std::__cxx11::basic_string", align 8
  store ptr %agg.result, ptr %result.ptr, align 8
  store ptr %pFile, ptr %pFile.addr, align 8
  %0 = load ptr, ptr %pFile.addr, align 8
  call void @_ZN12_GLOBAL__N_116StripVersionHashERKNSt7__cxx1112basic_stringIcSt11char_traitsIcESaIcEEE(ptr sret(%"class.std::__cxx11::basic_string") align 8 %file, ptr noundef nonnull align 8 dereferenceable(32) %0)
  %call = call noundef i64 @_ZNKSt7__cxx1112basic_stringIcSt11char_traitsIcESaIcEE12find_last_ofEcm(ptr noundef nonnull align 8 dereferenceable(32) %file, i8 noundef signext 46, i64 noundef -1) #13
  store i64 %call, ptr %pos, align 8
  %1 = load i64, ptr %pos, align 8
  %cmp = icmp eq i64 %1, -1
  br i1 %cmp, label %if.then, label %if.end

if.then:                                          ; preds = %entry
  call void @_ZNSt7__cxx1112basic_stringIcSt11char_traitsIcESaIcEEC1Ev(ptr noundef nonnull align 8 dereferenceable(32) %agg.result) #13
  store i32 1, ptr %cleanup.dest.slot, align 4
  br label %cleanup

if.end:                                           ; preds = %entry
  store i1 false, ptr %nrvo, align 1
  %2 = load i64, ptr %pos, align 8
  %add = add i64 %2, 1
  invoke void @_ZNKSt7__cxx1112basic_stringIcSt11char_traitsIcESaIcEE6substrEmm(ptr sret(%"class.std::__cxx11::basic_string") align 8 %agg.result, ptr noundef nonnull align 8 dereferenceable(32) %file, i64 noundef %add, i64 noundef -1)
          to label %invoke.cont unwind label %lpad

invoke.cont:                                      ; preds = %if.end
  invoke void @_Z10ai_tolowerRKNSt7__cxx1112basic_stringIcSt11char_traitsIcESaIcEEE(ptr sret(%"class.std::__cxx11::basic_string") align 8 %ref.tmp, ptr noundef nonnull align 8 dereferenceable(32) %agg.result)
          to label %invoke.cont2 unwind label %lpad1

invoke.cont2:                                     ; preds = %invoke.cont
  %call3 = call noundef nonnull align 8 dereferenceable(32) ptr @_ZNSt7__cxx1112basic_stringIcSt11char_traitsIcESaIcEEaSEOS4_(ptr noundef nonnull align 8 dereferenceable(32) %agg.result, ptr noundef nonnull align 8 dereferenceable(32) %ref.tmp) #13
  call void @_ZNSt7__cxx1112basic_stringIcSt11char_traitsIcESaIcEED1Ev(ptr noundef nonnull align 8 dereferenceable(32) %ref.tmp) #13
  store i1 true, ptr %nrvo, align 1
  store i32 1, ptr %cleanup.dest.slot, align 4
  %nrvo.val = load i1, ptr %nrvo, align 1
  br i1 %nrvo.val, label %nrvo.skipdtor, label %nrvo.unused

lpad:                                             ; preds = %if.end
  %3 = landingpad { ptr, i32 }
          cleanup
  %4 = extractvalue { ptr, i32 } %3, 0
  store ptr %4, ptr %exn.slot, align 8
  %5 = extractvalue { ptr, i32 } %3, 1
  store i32 %5, ptr %ehselector.slot, align 4
  br label %ehcleanup

lpad1:                                            ; preds = %invoke.cont
  %6 = landingpad { ptr, i32 }
          cleanup
  %7 = extractvalue { ptr, i32 } %6, 0
  store ptr %7, ptr %exn.slot, align 8
  %8 = extractvalue { ptr, i32 } %6, 1
  store i32 %8, ptr %ehselector.slot, align 4
  call void @_ZNSt7__cxx1112basic_stringIcSt11char_traitsIcESaIcEED1Ev(ptr noundef nonnull align 8 dereferenceable(32) %agg.result) #13
  br label %ehcleanup

nrvo.unused:                                      ; preds = %invoke.cont2
  call void @_ZNSt7__cxx1112basic_stringIcSt11char_traitsIcESaIcEED1Ev(ptr noundef nonnull align 8 dereferenceable(32) %agg.result) #13
  br label %nrvo.skipdtor

nrvo.skipdtor:                                    ; preds = %nrvo.unused, %invoke.cont2
  br label %cleanup

cleanup:                                          ; preds = %nrvo.skipdtor, %if.then
  call void @_ZNSt7__cxx1112basic_stringIcSt11char_traitsIcESaIcEED1Ev(ptr noundef nonnull align 8 dereferenceable(32) %file) #13
  ret void

ehcleanup:                                        ; preds = %lpad1, %lpad
  call void @_ZNSt7__cxx1112basic_stringIcSt11char_traitsIcESaIcEED1Ev(ptr noundef nonnull align 8 dereferenceable(32) %file) #13
  br label %eh.resume

eh.resume:                                        ; preds = %ehcleanup
  %exn = load ptr, ptr %exn.slot, align 8
  %sel = load i32, ptr %ehselector.slot, align 4
  %lpad.val = insertvalue { ptr, i32 } poison, ptr %exn, 0
  %lpad.val4 = insertvalue { ptr, i32 } %lpad.val, i32 %sel, 1
  resume { ptr, i32 } %lpad.val4
}

; Function Attrs: nounwind
declare noundef i64 @_ZNKSt7__cxx1112basic_stringIcSt11char_traitsIcESaIcEE12find_last_ofEcm(ptr noundef nonnull align 8 dereferenceable(32), i8 noundef signext, i64 noundef) #2

declare void @_ZNKSt7__cxx1112basic_stringIcSt11char_traitsIcESaIcEE6substrEmm(ptr sret(%"class.std::__cxx11::basic_string") align 8, ptr noundef nonnull align 8 dereferenceable(32), i64 noundef, i64 noundef) #4

; Function Attrs: mustprogress uwtable
define linkonce_odr hidden void @_Z10ai_tolowerRKNSt7__cxx1112basic_stringIcSt11char_traitsIcESaIcEEE(ptr noalias sret(%"class.std::__cxx11::basic_string") align 8 %agg.result, ptr noundef nonnull align 8 dereferenceable(32) %in) #3 comdat personality ptr @__gxx_personality_v0 {
entry:
  %result.ptr = alloca ptr, align 8
  %in.addr = alloca ptr, align 8
  %nrvo = alloca i1, align 1
  %exn.slot = alloca ptr, align 8
  %ehselector.slot = alloca i32, align 4
  %agg.tmp = alloca %"class.__gnu_cxx::__normal_iterator.74", align 8
  %agg.tmp2 = alloca %"class.__gnu_cxx::__normal_iterator.74", align 8
  %agg.tmp5 = alloca %"class.__gnu_cxx::__normal_iterator.74", align 8
  %coerce = alloca %"class.__gnu_cxx::__normal_iterator.74", align 8
  store ptr %agg.result, ptr %result.ptr, align 8
  store ptr %in, ptr %in.addr, align 8
  store i1 false, ptr %nrvo, align 1
  %0 = load ptr, ptr %in.addr, align 8
  call void @_ZNSt7__cxx1112basic_stringIcSt11char_traitsIcESaIcEEC1ERKS4_(ptr noundef nonnull align 8 dereferenceable(32) %agg.result, ptr noundef nonnull align 8 dereferenceable(32) %0)
  invoke void @_Z12ai_trim_leftRNSt7__cxx1112basic_stringIcSt11char_traitsIcESaIcEEE(ptr noundef nonnull align 8 dereferenceable(32) %agg.result)
          to label %invoke.cont unwind label %lpad

invoke.cont:                                      ; preds = %entry
  invoke void @_Z13ai_trim_rightRNSt7__cxx1112basic_stringIcSt11char_traitsIcESaIcEEE(ptr noundef nonnull align 8 dereferenceable(32) %agg.result)
          to label %invoke.cont1 unwind label %lpad

invoke.cont1:                                     ; preds = %invoke.cont
  %call = call ptr @_ZNSt7__cxx1112basic_stringIcSt11char_traitsIcESaIcEE5beginEv(ptr noundef nonnull align 8 dereferenceable(32) %agg.result) #13
  %coerce.dive = getelementptr inbounds %"class.__gnu_cxx::__normal_iterator.74", ptr %agg.tmp, i32 0, i32 0
  store ptr %call, ptr %coerce.dive, align 8
  %call3 = call ptr @_ZNSt7__cxx1112basic_stringIcSt11char_traitsIcESaIcEE3endEv(ptr noundef nonnull align 8 dereferenceable(32) %agg.result) #13
  %coerce.dive4 = getelementptr inbounds %"class.__gnu_cxx::__normal_iterator.74", ptr %agg.tmp2, i32 0, i32 0
  store ptr %call3, ptr %coerce.dive4, align 8
  %call6 = call ptr @_ZNSt7__cxx1112basic_stringIcSt11char_traitsIcESaIcEE5beginEv(ptr noundef nonnull align 8 dereferenceable(32) %agg.result) #13
  %coerce.dive7 = getelementptr inbounds %"class.__gnu_cxx::__normal_iterator.74", ptr %agg.tmp5, i32 0, i32 0
  store ptr %call6, ptr %coerce.dive7, align 8
  %coerce.dive9 = getelementptr inbounds %"class.__gnu_cxx::__normal_iterator.74", ptr %agg.tmp, i32 0, i32 0
  %1 = load ptr, ptr %coerce.dive9, align 8
  %coerce.dive10 = getelementptr inbounds %"class.__gnu_cxx::__normal_iterator.74", ptr %agg.tmp2, i32 0, i32 0
  %2 = load ptr, ptr %coerce.dive10, align 8
  %coerce.dive11 = getelementptr inbounds %"class.__gnu_cxx::__normal_iterator.74", ptr %agg.tmp5, i32 0, i32 0
  %3 = load ptr, ptr %coerce.dive11, align 8
  %call13 = invoke ptr @_ZSt9transformIN9__gnu_cxx17__normal_iteratorIPcNSt7__cxx1112basic_stringIcSt11char_traitsIcESaIcEEEEES9_Z10ai_tolowerRKS8_EUlhE_ET0_T_SE_SD_T1_(ptr %1, ptr %2, ptr %3)
          to label %invoke.cont12 unwind label %lpad

invoke.cont12:                                    ; preds = %invoke.cont1
  %coerce.dive14 = getelementptr inbounds %"class.__gnu_cxx::__normal_iterator.74", ptr %coerce, i32 0, i32 0
  store ptr %call13, ptr %coerce.dive14, align 8
  store i1 true, ptr %nrvo, align 1
  %nrvo.val = load i1, ptr %nrvo, align 1
  br i1 %nrvo.val, label %nrvo.skipdtor, label %nrvo.unused

lpad:                                             ; preds = %invoke.cont1, %invoke.cont, %entry
  %4 = landingpad { ptr, i32 }
          cleanup
  %5 = extractvalue { ptr, i32 } %4, 0
  store ptr %5, ptr %exn.slot, align 8
  %6 = extractvalue { ptr, i32 } %4, 1
  store i32 %6, ptr %ehselector.slot, align 4
  call void @_ZNSt7__cxx1112basic_stringIcSt11char_traitsIcESaIcEED1Ev(ptr noundef nonnull align 8 dereferenceable(32) %agg.result) #13
  br label %eh.resume

nrvo.unused:                                      ; preds = %invoke.cont12
  call void @_ZNSt7__cxx1112basic_stringIcSt11char_traitsIcESaIcEED1Ev(ptr noundef nonnull align 8 dereferenceable(32) %agg.result) #13
  br label %nrvo.skipdtor

nrvo.skipdtor:                                    ; preds = %nrvo.unused, %invoke.cont12
  ret void

eh.resume:                                        ; preds = %lpad
  %exn = load ptr, ptr %exn.slot, align 8
  %sel = load i32, ptr %ehselector.slot, align 4
  %lpad.val = insertvalue { ptr, i32 } poison, ptr %exn, 0
  %lpad.val15 = insertvalue { ptr, i32 } %lpad.val, i32 %sel, 1
  resume { ptr, i32 } %lpad.val15
}

; Function Attrs: nounwind
declare noundef nonnull align 8 dereferenceable(32) ptr @_ZNSt7__cxx1112basic_stringIcSt11char_traitsIcESaIcEEaSEOS4_(ptr noundef nonnull align 8 dereferenceable(32), ptr noundef nonnull align 8 dereferenceable(32)) #2

; Function Attrs: mustprogress uwtable
define noundef zeroext i1 @_ZN6Assimp12BaseImporter15CheckMagicTokenEPNS_8IOSystemERKNSt7__cxx1112basic_stringIcSt11char_traitsIcESaIcEEEPKvmjj(ptr noundef %pIOHandler, ptr noundef nonnull align 8 dereferenceable(32) %pFile, ptr noundef %_magic, i64 noundef %num, i32 noundef %offset, i32 noundef %size) #3 align 2 personality ptr @__gxx_personality_v0 {
entry:
  %retval = alloca i1, align 1
  %pIOHandler.addr = alloca ptr, align 8
  %pFile.addr = alloca ptr, align 8
  %_magic.addr = alloca ptr, align 8
  %num.addr = alloca i64, align 8
  %offset.addr = alloca i32, align 4
  %size.addr = alloca i32, align 4
  %magic = alloca ptr, align 8
  %pStream = alloca %"class.std::unique_ptr.8", align 8
  %ref.tmp = alloca %"class.std::__cxx11::basic_string", align 8
  %ref.tmp1 = alloca %"class.std::allocator.0", align 1
  %exn.slot = alloca ptr, align 8
  %ehselector.slot = alloca i32, align 4
  %0 = alloca %union.anon.24, align 4
  %cleanup.dest.slot = alloca i32, align 4
  %i = alloca i32, align 4
  %magic_u16 = alloca i16, align 2
  %magic_u32 = alloca i32, align 4
  store ptr %pIOHandler, ptr %pIOHandler.addr, align 8
  store ptr %pFile, ptr %pFile.addr, align 8
  store ptr %_magic, ptr %_magic.addr, align 8
  store i64 %num, ptr %num.addr, align 8
  store i32 %offset, ptr %offset.addr, align 4
  store i32 %size, ptr %size.addr, align 4
  %1 = load ptr, ptr %pIOHandler.addr, align 8
  %tobool = icmp ne ptr %1, null
  br i1 %tobool, label %if.end, label %if.then

if.then:                                          ; preds = %entry
  store i1 false, ptr %retval, align 1
  br label %return

if.end:                                           ; preds = %entry
  %2 = load ptr, ptr %_magic.addr, align 8
  store ptr %2, ptr %magic, align 8
  %3 = load ptr, ptr %pIOHandler.addr, align 8
  %4 = load ptr, ptr %pFile.addr, align 8
  call void @_ZNSaIcEC1Ev(ptr noundef nonnull align 1 dereferenceable(1) %ref.tmp1) #13
  invoke void @_ZNSt7__cxx1112basic_stringIcSt11char_traitsIcESaIcEEC2IS3_EEPKcRKS3_(ptr noundef nonnull align 8 dereferenceable(32) %ref.tmp, ptr noundef @.str.2, ptr noundef nonnull align 1 dereferenceable(1) %ref.tmp1)
          to label %invoke.cont unwind label %lpad

invoke.cont:                                      ; preds = %if.end
  %call = invoke noundef ptr @_ZN6Assimp8IOSystem4OpenERKNSt7__cxx1112basic_stringIcSt11char_traitsIcESaIcEEES8_(ptr noundef nonnull align 8 dereferenceable(32) %3, ptr noundef nonnull align 8 dereferenceable(32) %4, ptr noundef nonnull align 8 dereferenceable(32) %ref.tmp)
          to label %invoke.cont3 unwind label %lpad2

invoke.cont3:                                     ; preds = %invoke.cont
  call void @_ZNSt10unique_ptrIN6Assimp8IOStreamESt14default_deleteIS1_EEC2IS3_vEEPS1_(ptr noundef nonnull align 8 dereferenceable(8) %pStream, ptr noundef %call) #13
  call void @_ZNSt7__cxx1112basic_stringIcSt11char_traitsIcESaIcEED1Ev(ptr noundef nonnull align 8 dereferenceable(32) %ref.tmp) #13
  call void @_ZNSaIcED1Ev(ptr noundef nonnull align 1 dereferenceable(1) %ref.tmp1) #13
  %call4 = call noundef zeroext i1 @_ZNKSt10unique_ptrIN6Assimp8IOStreamESt14default_deleteIS1_EEcvbEv(ptr noundef nonnull align 8 dereferenceable(8) %pStream) #13
  br i1 %call4, label %if.then5, label %if.end54

if.then5:                                         ; preds = %invoke.cont3
  %call6 = call noundef ptr @_ZNKSt10unique_ptrIN6Assimp8IOStreamESt14default_deleteIS1_EEptEv(ptr noundef nonnull align 8 dereferenceable(8) %pStream) #13
  %5 = load i32, ptr %offset.addr, align 4
  %conv = zext i32 %5 to i64
  %vtable = load ptr, ptr %call6, align 8
  %vfn = getelementptr inbounds ptr, ptr %vtable, i64 4
  %6 = load ptr, ptr %vfn, align 8
  %call9 = invoke noundef i32 %6(ptr noundef nonnull align 8 dereferenceable(8) %call6, i64 noundef %conv, i32 noundef 0)
          to label %invoke.cont8 unwind label %lpad7

invoke.cont8:                                     ; preds = %if.then5
  %7 = load i32, ptr %size.addr, align 4
  %conv10 = zext i32 %7 to i64
  %call11 = call noundef ptr @_ZNKSt10unique_ptrIN6Assimp8IOStreamESt14default_deleteIS1_EEptEv(ptr noundef nonnull align 8 dereferenceable(8) %pStream) #13
  %arraydecay = getelementptr inbounds [16 x i8], ptr %0, i64 0, i64 0
  %8 = load i32, ptr %size.addr, align 4
  %conv12 = zext i32 %8 to i64
  %vtable13 = load ptr, ptr %call11, align 8
  %vfn14 = getelementptr inbounds ptr, ptr %vtable13, i64 2
  %9 = load ptr, ptr %vfn14, align 8
  %call16 = invoke noundef i64 %9(ptr noundef nonnull align 8 dereferenceable(8) %call11, ptr noundef %arraydecay, i64 noundef 1, i64 noundef %conv12)
          to label %invoke.cont15 unwind label %lpad7

invoke.cont15:                                    ; preds = %invoke.cont8
  %cmp = icmp ne i64 %conv10, %call16
  br i1 %cmp, label %if.then17, label %if.end18

if.then17:                                        ; preds = %invoke.cont15
  store i1 false, ptr %retval, align 1
  store i32 1, ptr %cleanup.dest.slot, align 4
  br label %cleanup

lpad:                                             ; preds = %if.end
  %10 = landingpad { ptr, i32 }
          cleanup
  %11 = extractvalue { ptr, i32 } %10, 0
  store ptr %11, ptr %exn.slot, align 8
  %12 = extractvalue { ptr, i32 } %10, 1
  store i32 %12, ptr %ehselector.slot, align 4
  br label %ehcleanup

lpad2:                                            ; preds = %invoke.cont
  %13 = landingpad { ptr, i32 }
          cleanup
  %14 = extractvalue { ptr, i32 } %13, 0
  store ptr %14, ptr %exn.slot, align 8
  %15 = extractvalue { ptr, i32 } %13, 1
  store i32 %15, ptr %ehselector.slot, align 4
  call void @_ZNSt7__cxx1112basic_stringIcSt11char_traitsIcESaIcEED1Ev(ptr noundef nonnull align 8 dereferenceable(32) %ref.tmp) #13
  br label %ehcleanup

ehcleanup:                                        ; preds = %lpad2, %lpad
  call void @_ZNSaIcED1Ev(ptr noundef nonnull align 1 dereferenceable(1) %ref.tmp1) #13
  br label %eh.resume

lpad7:                                            ; preds = %lor.lhs.false38, %lor.lhs.false, %invoke.cont8, %if.then5
  %16 = landingpad { ptr, i32 }
          cleanup
  %17 = extractvalue { ptr, i32 } %16, 0
  store ptr %17, ptr %exn.slot, align 8
  %18 = extractvalue { ptr, i32 } %16, 1
  store i32 %18, ptr %ehselector.slot, align 4
  call void @_ZNSt10unique_ptrIN6Assimp8IOStreamESt14default_deleteIS1_EED2Ev(ptr noundef nonnull align 8 dereferenceable(8) %pStream) #13
  br label %eh.resume

if.end18:                                         ; preds = %invoke.cont15
  store i32 0, ptr %i, align 4
  br label %for.cond

for.cond:                                         ; preds = %for.inc, %if.end18
  %19 = load i32, ptr %i, align 4
  %conv19 = zext i32 %19 to i64
  %20 = load i64, ptr %num.addr, align 8
  %cmp20 = icmp ult i64 %conv19, %20
  br i1 %cmp20, label %for.body, label %for.end

for.body:                                         ; preds = %for.cond
  %21 = load i32, ptr %size.addr, align 4
  %cmp21 = icmp eq i32 2, %21
  br i1 %cmp21, label %if.then22, label %if.else

if.then22:                                        ; preds = %for.body
  %22 = load ptr, ptr %magic, align 8
  call void @llvm.memcpy.p0.p0.i64(ptr align 2 %magic_u16, ptr align 1 %22, i64 2, i1 false)
  %arrayidx = getelementptr inbounds [8 x i16], ptr %0, i64 0, i64 0
  %23 = load i16, ptr %arrayidx, align 4
  %conv23 = zext i16 %23 to i32
  %24 = load i16, ptr %magic_u16, align 2
  %conv24 = zext i16 %24 to i32
  %cmp25 = icmp eq i32 %conv23, %conv24
  br i1 %cmp25, label %if.then32, label %lor.lhs.false

lor.lhs.false:                                    ; preds = %if.then22
  %arrayidx26 = getelementptr inbounds [8 x i16], ptr %0, i64 0, i64 0
  %25 = load i16, ptr %arrayidx26, align 4
  %conv27 = zext i16 %25 to i32
  %26 = load i16, ptr %magic_u16, align 2
  %call29 = invoke noundef zeroext i16 @_ZN6Assimp8ByteSwap7SwappedItEET_S2_(i16 noundef zeroext %26)
          to label %invoke.cont28 unwind label %lpad7

invoke.cont28:                                    ; preds = %lor.lhs.false
  %conv30 = zext i16 %call29 to i32
  %cmp31 = icmp eq i32 %conv27, %conv30
  br i1 %cmp31, label %if.then32, label %if.end33

if.then32:                                        ; preds = %invoke.cont28, %if.then22
  store i1 true, ptr %retval, align 1
  store i32 1, ptr %cleanup.dest.slot, align 4
  br label %cleanup

if.end33:                                         ; preds = %invoke.cont28
  br label %if.end53

if.else:                                          ; preds = %for.body
  %27 = load i32, ptr %size.addr, align 4
  %cmp34 = icmp eq i32 4, %27
  br i1 %cmp34, label %if.then35, label %if.else45

if.then35:                                        ; preds = %if.else
  %28 = load ptr, ptr %magic, align 8
  call void @llvm.memcpy.p0.p0.i64(ptr align 4 %magic_u32, ptr align 1 %28, i64 4, i1 false)
  %arrayidx36 = getelementptr inbounds [4 x i32], ptr %0, i64 0, i64 0
  %29 = load i32, ptr %arrayidx36, align 4
  %30 = load i32, ptr %magic_u32, align 4
  %cmp37 = icmp eq i32 %29, %30
  br i1 %cmp37, label %if.then43, label %lor.lhs.false38

lor.lhs.false38:                                  ; preds = %if.then35
  %arrayidx39 = getelementptr inbounds [4 x i32], ptr %0, i64 0, i64 0
  %31 = load i32, ptr %arrayidx39, align 4
  %32 = load i32, ptr %magic_u32, align 4
  %call41 = invoke noundef i32 @_ZN6Assimp8ByteSwap7SwappedIjEET_S2_(i32 noundef %32)
          to label %invoke.cont40 unwind label %lpad7

invoke.cont40:                                    ; preds = %lor.lhs.false38
  %cmp42 = icmp eq i32 %31, %call41
  br i1 %cmp42, label %if.then43, label %if.end44

if.then43:                                        ; preds = %invoke.cont40, %if.then35
  store i1 true, ptr %retval, align 1
  store i32 1, ptr %cleanup.dest.slot, align 4
  br label %cleanup

if.end44:                                         ; preds = %invoke.cont40
  br label %if.end52

if.else45:                                        ; preds = %if.else
  %33 = load ptr, ptr %magic, align 8
  %arraydecay46 = getelementptr inbounds [16 x i8], ptr %0, i64 0, i64 0
  %34 = load i32, ptr %size.addr, align 4
  %conv47 = zext i32 %34 to i64
  %call48 = call i32 @memcmp(ptr noundef %33, ptr noundef %arraydecay46, i64 noundef %conv47) #17
  %tobool49 = icmp ne i32 %call48, 0
  br i1 %tobool49, label %if.end51, label %if.then50

if.then50:                                        ; preds = %if.else45
  store i1 true, ptr %retval, align 1
  store i32 1, ptr %cleanup.dest.slot, align 4
  br label %cleanup

if.end51:                                         ; preds = %if.else45
  br label %if.end52

if.end52:                                         ; preds = %if.end51, %if.end44
  br label %if.end53

if.end53:                                         ; preds = %if.end52, %if.end33
  %35 = load i32, ptr %size.addr, align 4
  %36 = load ptr, ptr %magic, align 8
  %idx.ext = zext i32 %35 to i64
  %add.ptr = getelementptr inbounds i8, ptr %36, i64 %idx.ext
  store ptr %add.ptr, ptr %magic, align 8
  br label %for.inc

for.inc:                                          ; preds = %if.end53
  %37 = load i32, ptr %i, align 4
  %inc = add i32 %37, 1
  store i32 %inc, ptr %i, align 4
  br label %for.cond, !llvm.loop !12

for.end:                                          ; preds = %for.cond
  br label %if.end54

if.end54:                                         ; preds = %for.end, %invoke.cont3
  store i1 false, ptr %retval, align 1
  store i32 1, ptr %cleanup.dest.slot, align 4
  br label %cleanup

cleanup:                                          ; preds = %if.end54, %if.then50, %if.then43, %if.then32, %if.then17
  call void @_ZNSt10unique_ptrIN6Assimp8IOStreamESt14default_deleteIS1_EED2Ev(ptr noundef nonnull align 8 dereferenceable(8) %pStream) #13
  br label %return

return:                                           ; preds = %cleanup, %if.then
  %38 = load i1, ptr %retval, align 1
  ret i1 %38

eh.resume:                                        ; preds = %lpad7, %ehcleanup
  %exn = load ptr, ptr %exn.slot, align 8
  %sel = load i32, ptr %ehselector.slot, align 4
  %lpad.val = insertvalue { ptr, i32 } poison, ptr %exn, 0
  %lpad.val56 = insertvalue { ptr, i32 } %lpad.val, i32 %sel, 1
  resume { ptr, i32 } %lpad.val56
}

; Function Attrs: nocallback nofree nounwind willreturn memory(argmem: readwrite)
declare void @llvm.memcpy.p0.p0.i64(ptr noalias nocapture writeonly, ptr noalias nocapture readonly, i64, i1 immarg) #10

; Function Attrs: mustprogress uwtable
define linkonce_odr hidden noundef zeroext i16 @_ZN6Assimp8ByteSwap7SwappedItEET_S2_(i16 noundef zeroext %tOut) #3 comdat align 2 {
entry:
  %tOut.addr = alloca i16, align 2
  %ref.tmp = alloca %"struct.Assimp::ByteSwap::_swapper", align 1
  store i16 %tOut, ptr %tOut.addr, align 2
  %0 = load i16, ptr %tOut.addr, align 2
  %call = call noundef zeroext i16 @_ZN6Assimp8ByteSwap8_swapperItLm2EEclEt(ptr noundef nonnull align 1 dereferenceable(1) %ref.tmp, i16 noundef zeroext %0)
  ret i16 %call
}

; Function Attrs: mustprogress uwtable
define linkonce_odr hidden noundef i32 @_ZN6Assimp8ByteSwap7SwappedIjEET_S2_(i32 noundef %tOut) #3 comdat align 2 {
entry:
  %tOut.addr = alloca i32, align 4
  %ref.tmp = alloca %"struct.Assimp::ByteSwap::_swapper.117", align 1
  store i32 %tOut, ptr %tOut.addr, align 4
  %0 = load i32, ptr %tOut.addr, align 4
  %call = call noundef i32 @_ZN6Assimp8ByteSwap8_swapperIjLm4EEclEj(ptr noundef nonnull align 1 dereferenceable(1) %ref.tmp, i32 noundef %0)
  ret i32 %call
}

; Function Attrs: nounwind willreturn memory(read)
declare i32 @memcmp(ptr noundef, ptr noundef, i64 noundef) #9

; Function Attrs: mustprogress uwtable
define void @_ZN6Assimp12BaseImporter13ConvertToUTF8ERSt6vectorIcSaIcEE(ptr noundef nonnull align 8 dereferenceable(24) %data) #3 align 2 personality ptr @__gxx_personality_v0 {
entry:
  %data.addr = alloca ptr, align 8
  %exn.slot = alloca ptr, align 8
  %ehselector.slot = alloca i32, align 4
  %agg.tmp = alloca %"class.__gnu_cxx::__normal_iterator", align 8
  %ref.tmp = alloca %"class.__gnu_cxx::__normal_iterator", align 8
  %agg.tmp15 = alloca %"class.__gnu_cxx::__normal_iterator", align 8
  %agg.tmp18 = alloca %"class.__gnu_cxx::__normal_iterator", align 8
  %coerce = alloca %"class.__gnu_cxx::__normal_iterator", align 8
  %p = alloca ptr, align 8
  %end = alloca ptr, align 8
  %output = alloca %"class.std::vector.25", align 8
  %ptr = alloca ptr, align 8
  %end40 = alloca ptr, align 8
  %agg.tmp43 = alloca %"class.std::back_insert_iterator", align 8
  %coerce51 = alloca %"class.std::back_insert_iterator", align 8
  %p62 = alloca ptr, align 8
  %end64 = alloca ptr, align 8
  %output78 = alloca %"class.std::vector.28", align 8
  %agg.tmp79 = alloca %"class.__gnu_cxx::__normal_iterator", align 8
  %agg.tmp82 = alloca %"class.__gnu_cxx::__normal_iterator", align 8
  %agg.tmp85 = alloca %"class.std::back_insert_iterator.33", align 8
  %coerce95 = alloca %"class.std::back_insert_iterator.33", align 8
  store ptr %data, ptr %data.addr, align 8
  %0 = load ptr, ptr %data.addr, align 8
  %call = call noundef i64 @_ZNKSt6vectorIcSaIcEE4sizeEv(ptr noundef nonnull align 8 dereferenceable(24) %0) #13
  %cmp = icmp ult i64 %call, 8
  br i1 %cmp, label %if.then, label %if.end

if.then:                                          ; preds = %entry
  %exception = call ptr @__cxa_allocate_exception(i64 16) #13
  invoke void @_ZN17DeadlyImportErrorC2EPKc(ptr noundef nonnull align 8 dereferenceable(16) %exception, ptr noundef @.str.5)
          to label %invoke.cont unwind label %lpad

invoke.cont:                                      ; preds = %if.then
  call void @__cxa_throw(ptr %exception, ptr @_ZTI17DeadlyImportError, ptr @_ZN17DeadlyImportErrorD2Ev) #18
  unreachable

lpad:                                             ; preds = %if.then
  %1 = landingpad { ptr, i32 }
          cleanup
  %2 = extractvalue { ptr, i32 } %1, 0
  store ptr %2, ptr %exn.slot, align 8
  %3 = extractvalue { ptr, i32 } %1, 1
  store i32 %3, ptr %ehselector.slot, align 4
  call void @__cxa_free_exception(ptr %exception) #13
  br label %eh.resume

if.end:                                           ; preds = %entry
  %4 = load ptr, ptr %data.addr, align 8
  %call1 = call noundef nonnull align 1 dereferenceable(1) ptr @_ZNSt6vectorIcSaIcEEixEm(ptr noundef nonnull align 8 dereferenceable(24) %4, i64 noundef 0) #13
  %5 = load i8, ptr %call1, align 1
  %conv = zext i8 %5 to i32
  %cmp2 = icmp eq i32 %conv, 239
  br i1 %cmp2, label %land.lhs.true, label %if.end27

land.lhs.true:                                    ; preds = %if.end
  %6 = load ptr, ptr %data.addr, align 8
  %call3 = call noundef nonnull align 1 dereferenceable(1) ptr @_ZNSt6vectorIcSaIcEEixEm(ptr noundef nonnull align 8 dereferenceable(24) %6, i64 noundef 1) #13
  %7 = load i8, ptr %call3, align 1
  %conv4 = zext i8 %7 to i32
  %cmp5 = icmp eq i32 %conv4, 187
  br i1 %cmp5, label %land.lhs.true6, label %if.end27

land.lhs.true6:                                   ; preds = %land.lhs.true
  %8 = load ptr, ptr %data.addr, align 8
  %call7 = call noundef nonnull align 1 dereferenceable(1) ptr @_ZNSt6vectorIcSaIcEEixEm(ptr noundef nonnull align 8 dereferenceable(24) %8, i64 noundef 2) #13
  %9 = load i8, ptr %call7, align 1
  %conv8 = zext i8 %9 to i32
  %cmp9 = icmp eq i32 %conv8, 191
  br i1 %cmp9, label %if.then10, label %if.end27

if.then10:                                        ; preds = %land.lhs.true6
  %call11 = call noundef ptr @_ZN6Assimp13DefaultLogger3getEv()
  call void @_ZN6Assimp6Logger5debugEPKc(ptr noundef nonnull align 8 dereferenceable(12) %call11, ptr noundef @.str.6)
  %10 = load ptr, ptr %data.addr, align 8
  %call12 = call ptr @_ZNSt6vectorIcSaIcEE5beginEv(ptr noundef nonnull align 8 dereferenceable(24) %10) #13
  %coerce.dive = getelementptr inbounds %"class.__gnu_cxx::__normal_iterator", ptr %ref.tmp, i32 0, i32 0
  store ptr %call12, ptr %coerce.dive, align 8
  %call13 = call ptr @_ZNK9__gnu_cxx17__normal_iteratorIPcSt6vectorIcSaIcEEEplEl(ptr noundef nonnull align 8 dereferenceable(8) %ref.tmp, i64 noundef 3) #13
  %coerce.dive14 = getelementptr inbounds %"class.__gnu_cxx::__normal_iterator", ptr %agg.tmp, i32 0, i32 0
  store ptr %call13, ptr %coerce.dive14, align 8
  %11 = load ptr, ptr %data.addr, align 8
  %call16 = call ptr @_ZNSt6vectorIcSaIcEE3endEv(ptr noundef nonnull align 8 dereferenceable(24) %11) #13
  %coerce.dive17 = getelementptr inbounds %"class.__gnu_cxx::__normal_iterator", ptr %agg.tmp15, i32 0, i32 0
  store ptr %call16, ptr %coerce.dive17, align 8
  %12 = load ptr, ptr %data.addr, align 8
  %call19 = call ptr @_ZNSt6vectorIcSaIcEE5beginEv(ptr noundef nonnull align 8 dereferenceable(24) %12) #13
  %coerce.dive20 = getelementptr inbounds %"class.__gnu_cxx::__normal_iterator", ptr %agg.tmp18, i32 0, i32 0
  store ptr %call19, ptr %coerce.dive20, align 8
  %coerce.dive21 = getelementptr inbounds %"class.__gnu_cxx::__normal_iterator", ptr %agg.tmp, i32 0, i32 0
  %13 = load ptr, ptr %coerce.dive21, align 8
  %coerce.dive22 = getelementptr inbounds %"class.__gnu_cxx::__normal_iterator", ptr %agg.tmp15, i32 0, i32 0
  %14 = load ptr, ptr %coerce.dive22, align 8
  %coerce.dive23 = getelementptr inbounds %"class.__gnu_cxx::__normal_iterator", ptr %agg.tmp18, i32 0, i32 0
  %15 = load ptr, ptr %coerce.dive23, align 8
  %call24 = call ptr @_ZSt4copyIN9__gnu_cxx17__normal_iteratorIPcSt6vectorIcSaIcEEEES6_ET0_T_S8_S7_(ptr %13, ptr %14, ptr %15)
  %coerce.dive25 = getelementptr inbounds %"class.__gnu_cxx::__normal_iterator", ptr %coerce, i32 0, i32 0
  store ptr %call24, ptr %coerce.dive25, align 8
  %16 = load ptr, ptr %data.addr, align 8
  %17 = load ptr, ptr %data.addr, align 8
  %call26 = call noundef i64 @_ZNKSt6vectorIcSaIcEE4sizeEv(ptr noundef nonnull align 8 dereferenceable(24) %17) #13
  %sub = sub i64 %call26, 3
  call void @_ZNSt6vectorIcSaIcEE6resizeEm(ptr noundef nonnull align 8 dereferenceable(24) %16, i64 noundef %sub)
  br label %if.end97

if.end27:                                         ; preds = %land.lhs.true6, %land.lhs.true, %if.end
  %18 = load ptr, ptr %data.addr, align 8
  %call28 = call noundef nonnull align 1 dereferenceable(1) ptr @_ZNSt6vectorIcSaIcEE5frontEv(ptr noundef nonnull align 8 dereferenceable(24) %18) #13
  %19 = load i32, ptr %call28, align 4
  %cmp29 = icmp eq i32 %19, -131072
  br i1 %cmp29, label %if.then30, label %if.end34

if.then30:                                        ; preds = %if.end27
  %20 = load ptr, ptr %data.addr, align 8
  %call31 = call noundef nonnull align 1 dereferenceable(1) ptr @_ZNSt6vectorIcSaIcEE5frontEv(ptr noundef nonnull align 8 dereferenceable(24) %20) #13
  store ptr %call31, ptr %p, align 8
  %21 = load ptr, ptr %data.addr, align 8
  %call32 = call noundef nonnull align 1 dereferenceable(1) ptr @_ZNSt6vectorIcSaIcEE4backEv(ptr noundef nonnull align 8 dereferenceable(24) %21) #13
  store ptr %call32, ptr %end, align 8
  br label %for.cond

for.cond:                                         ; preds = %for.inc, %if.then30
  %22 = load ptr, ptr %p, align 8
  %23 = load ptr, ptr %end, align 8
  %cmp33 = icmp ule ptr %22, %23
  br i1 %cmp33, label %for.body, label %for.end

for.body:                                         ; preds = %for.cond
  br label %for.inc

for.inc:                                          ; preds = %for.body
  %24 = load ptr, ptr %p, align 8
  %incdec.ptr = getelementptr inbounds i32, ptr %24, i32 1
  store ptr %incdec.ptr, ptr %p, align 8
  br label %for.cond, !llvm.loop !13

for.end:                                          ; preds = %for.cond
  br label %if.end34

if.end34:                                         ; preds = %for.end, %if.end27
  %25 = load ptr, ptr %data.addr, align 8
  %call35 = call noundef nonnull align 1 dereferenceable(1) ptr @_ZNSt6vectorIcSaIcEE5frontEv(ptr noundef nonnull align 8 dereferenceable(24) %25) #13
  %26 = load i32, ptr %call35, align 4
  %cmp36 = icmp eq i32 %26, 65534
  br i1 %cmp36, label %if.then37, label %if.end53

if.then37:                                        ; preds = %if.end34
  %call38 = call noundef ptr @_ZN6Assimp13DefaultLogger3getEv()
  call void @_ZN6Assimp6Logger5debugEPKc(ptr noundef nonnull align 8 dereferenceable(12) %call38, ptr noundef @.str.7)
  call void @_ZNSt6vectorIcSaIcEEC2Ev(ptr noundef nonnull align 8 dereferenceable(24) %output) #13
  %27 = load ptr, ptr %data.addr, align 8
  %call39 = call noundef nonnull align 1 dereferenceable(1) ptr @_ZNSt6vectorIcSaIcEEixEm(ptr noundef nonnull align 8 dereferenceable(24) %27, i64 noundef 0) #13
  store ptr %call39, ptr %ptr, align 8
  %28 = load ptr, ptr %ptr, align 8
  %29 = load ptr, ptr %data.addr, align 8
  %call41 = call noundef i64 @_ZNKSt6vectorIcSaIcEE4sizeEv(ptr noundef nonnull align 8 dereferenceable(24) %29) #13
  %div = udiv i64 %call41, 4
  %add.ptr = getelementptr inbounds i32, ptr %28, i64 %div
  %add.ptr42 = getelementptr inbounds i32, ptr %add.ptr, i64 1
  store ptr %add.ptr42, ptr %end40, align 8
  %30 = load ptr, ptr %ptr, align 8
  %31 = load ptr, ptr %end40, align 8
  %call46 = invoke ptr @_ZSt13back_inserterISt6vectorIcSaIcEEESt20back_insert_iteratorIT_ERS4_(ptr noundef nonnull align 8 dereferenceable(24) %output)
          to label %invoke.cont45 unwind label %lpad44

invoke.cont45:                                    ; preds = %if.then37
  %coerce.dive47 = getelementptr inbounds %"class.std::back_insert_iterator", ptr %agg.tmp43, i32 0, i32 0
  store ptr %call46, ptr %coerce.dive47, align 8
  %coerce.dive48 = getelementptr inbounds %"class.std::back_insert_iterator", ptr %agg.tmp43, i32 0, i32 0
  %32 = load ptr, ptr %coerce.dive48, align 8
  %call50 = invoke ptr @_ZN4utf88utf32to8ISt20back_insert_iteratorISt6vectorIcSaIcEEEPiEET_T0_S8_S7_(ptr noundef %30, ptr noundef %31, ptr %32)
          to label %invoke.cont49 unwind label %lpad44

invoke.cont49:                                    ; preds = %invoke.cont45
  %coerce.dive52 = getelementptr inbounds %"class.std::back_insert_iterator", ptr %coerce51, i32 0, i32 0
  store ptr %call50, ptr %coerce.dive52, align 8
  call void @_ZNSt6vectorIcSaIcEED2Ev(ptr noundef nonnull align 8 dereferenceable(24) %output) #13
  br label %if.end97

lpad44:                                           ; preds = %invoke.cont45, %if.then37
  %33 = landingpad { ptr, i32 }
          cleanup
  %34 = extractvalue { ptr, i32 } %33, 0
  store ptr %34, ptr %exn.slot, align 8
  %35 = extractvalue { ptr, i32 } %33, 1
  store i32 %35, ptr %ehselector.slot, align 4
  call void @_ZNSt6vectorIcSaIcEED2Ev(ptr noundef nonnull align 8 dereferenceable(24) %output) #13
  br label %eh.resume

if.end53:                                         ; preds = %if.end34
  %36 = load ptr, ptr %data.addr, align 8
  %call54 = call noundef nonnull align 1 dereferenceable(1) ptr @_ZNSt6vectorIcSaIcEE5frontEv(ptr noundef nonnull align 8 dereferenceable(24) %36) #13
  %37 = load i16, ptr %call54, align 2
  %conv55 = zext i16 %37 to i32
  %cmp56 = icmp eq i32 %conv55, 65534
  br i1 %cmp56, label %if.then57, label %if.end72

if.then57:                                        ; preds = %if.end53
  %38 = load ptr, ptr %data.addr, align 8
  %call58 = call noundef i64 @_ZNKSt6vectorIcSaIcEE4sizeEv(ptr noundef nonnull align 8 dereferenceable(24) %38) #13
  %rem = urem i64 %call58, 2
  %cmp59 = icmp ne i64 %rem, 0
  br i1 %cmp59, label %if.then60, label %if.end61

if.then60:                                        ; preds = %if.then57
  br label %if.end97

if.end61:                                         ; preds = %if.then57
  %39 = load ptr, ptr %data.addr, align 8
  %call63 = call noundef nonnull align 1 dereferenceable(1) ptr @_ZNSt6vectorIcSaIcEE5frontEv(ptr noundef nonnull align 8 dereferenceable(24) %39) #13
  store ptr %call63, ptr %p62, align 8
  %40 = load ptr, ptr %data.addr, align 8
  %call65 = call noundef nonnull align 1 dereferenceable(1) ptr @_ZNSt6vectorIcSaIcEE4backEv(ptr noundef nonnull align 8 dereferenceable(24) %40) #13
  store ptr %call65, ptr %end64, align 8
  br label %for.cond66

for.cond66:                                       ; preds = %for.inc69, %if.end61
  %41 = load ptr, ptr %p62, align 8
  %42 = load ptr, ptr %end64, align 8
  %cmp67 = icmp ule ptr %41, %42
  br i1 %cmp67, label %for.body68, label %for.end71

for.body68:                                       ; preds = %for.cond66
  %43 = load ptr, ptr %p62, align 8
  call void @_ZN6Assimp8ByteSwap5Swap2EPv(ptr noundef %43)
  br label %for.inc69

for.inc69:                                        ; preds = %for.body68
  %44 = load ptr, ptr %p62, align 8
  %incdec.ptr70 = getelementptr inbounds i16, ptr %44, i32 1
  store ptr %incdec.ptr70, ptr %p62, align 8
  br label %for.cond66, !llvm.loop !14

for.end71:                                        ; preds = %for.cond66
  br label %if.end72

if.end72:                                         ; preds = %for.end71, %if.end53
  %45 = load ptr, ptr %data.addr, align 8
  %call73 = call noundef nonnull align 1 dereferenceable(1) ptr @_ZNSt6vectorIcSaIcEE5frontEv(ptr noundef nonnull align 8 dereferenceable(24) %45) #13
  %46 = load i16, ptr %call73, align 2
  %conv74 = zext i16 %46 to i32
  %cmp75 = icmp eq i32 %conv74, 65279
  br i1 %cmp75, label %if.then76, label %if.end97

if.then76:                                        ; preds = %if.end72
  %call77 = call noundef ptr @_ZN6Assimp13DefaultLogger3getEv()
  call void @_ZN6Assimp6Logger5debugEPKc(ptr noundef nonnull align 8 dereferenceable(12) %call77, ptr noundef @.str.8)
  call void @_ZNSt6vectorIhSaIhEEC2Ev(ptr noundef nonnull align 8 dereferenceable(24) %output78) #13
  %47 = load ptr, ptr %data.addr, align 8
  %call80 = call ptr @_ZNSt6vectorIcSaIcEE5beginEv(ptr noundef nonnull align 8 dereferenceable(24) %47) #13
  %coerce.dive81 = getelementptr inbounds %"class.__gnu_cxx::__normal_iterator", ptr %agg.tmp79, i32 0, i32 0
  store ptr %call80, ptr %coerce.dive81, align 8
  %48 = load ptr, ptr %data.addr, align 8
  %call83 = call ptr @_ZNSt6vectorIcSaIcEE3endEv(ptr noundef nonnull align 8 dereferenceable(24) %48) #13
  %coerce.dive84 = getelementptr inbounds %"class.__gnu_cxx::__normal_iterator", ptr %agg.tmp82, i32 0, i32 0
  store ptr %call83, ptr %coerce.dive84, align 8
  %call88 = invoke ptr @_ZSt13back_inserterISt6vectorIhSaIhEEESt20back_insert_iteratorIT_ERS4_(ptr noundef nonnull align 8 dereferenceable(24) %output78)
          to label %invoke.cont87 unwind label %lpad86

invoke.cont87:                                    ; preds = %if.then76
  %coerce.dive89 = getelementptr inbounds %"class.std::back_insert_iterator.33", ptr %agg.tmp85, i32 0, i32 0
  store ptr %call88, ptr %coerce.dive89, align 8
  %coerce.dive90 = getelementptr inbounds %"class.__gnu_cxx::__normal_iterator", ptr %agg.tmp79, i32 0, i32 0
  %49 = load ptr, ptr %coerce.dive90, align 8
  %coerce.dive91 = getelementptr inbounds %"class.__gnu_cxx::__normal_iterator", ptr %agg.tmp82, i32 0, i32 0
  %50 = load ptr, ptr %coerce.dive91, align 8
  %coerce.dive92 = getelementptr inbounds %"class.std::back_insert_iterator.33", ptr %agg.tmp85, i32 0, i32 0
  %51 = load ptr, ptr %coerce.dive92, align 8
  %call94 = invoke ptr @_ZN4utf88utf16to8IN9__gnu_cxx17__normal_iteratorIPcSt6vectorIcSaIcEEEESt20back_insert_iteratorIS4_IhSaIhEEEEET0_T_SD_SC_(ptr %49, ptr %50, ptr %51)
          to label %invoke.cont93 unwind label %lpad86

invoke.cont93:                                    ; preds = %invoke.cont87
  %coerce.dive96 = getelementptr inbounds %"class.std::back_insert_iterator.33", ptr %coerce95, i32 0, i32 0
  store ptr %call94, ptr %coerce.dive96, align 8
  call void @_ZNSt6vectorIhSaIhEED2Ev(ptr noundef nonnull align 8 dereferenceable(24) %output78) #13
  br label %if.end97

lpad86:                                           ; preds = %invoke.cont87, %if.then76
  %52 = landingpad { ptr, i32 }
          cleanup
  %53 = extractvalue { ptr, i32 } %52, 0
  store ptr %53, ptr %exn.slot, align 8
  %54 = extractvalue { ptr, i32 } %52, 1
  store i32 %54, ptr %ehselector.slot, align 4
  call void @_ZNSt6vectorIhSaIhEED2Ev(ptr noundef nonnull align 8 dereferenceable(24) %output78) #13
  br label %eh.resume

if.end97:                                         ; preds = %invoke.cont93, %if.end72, %if.then60, %invoke.cont49, %if.then10
  ret void

eh.resume:                                        ; preds = %lpad86, %lpad44, %lpad
  %exn = load ptr, ptr %exn.slot, align 8
  %sel = load i32, ptr %ehselector.slot, align 4
  %lpad.val = insertvalue { ptr, i32 } poison, ptr %exn, 0
  %lpad.val98 = insertvalue { ptr, i32 } %lpad.val, i32 %sel, 1
  resume { ptr, i32 } %lpad.val98
}

; Function Attrs: mustprogress nounwind uwtable
define linkonce_odr noundef i64 @_ZNKSt6vectorIcSaIcEE4sizeEv(ptr noundef nonnull align 8 dereferenceable(24) %this) #0 comdat align 2 {
entry:
  %this.addr = alloca ptr, align 8
  store ptr %this, ptr %this.addr, align 8
  %this1 = load ptr, ptr %this.addr, align 8
  %_M_impl = getelementptr inbounds %"struct.std::_Vector_base.26", ptr %this1, i32 0, i32 0
  %_M_finish = getelementptr inbounds %"struct.std::_Vector_base<char, std::allocator<char>>::_Vector_impl_data", ptr %_M_impl, i32 0, i32 1
  %0 = load ptr, ptr %_M_finish, align 8
  %_M_impl2 = getelementptr inbounds %"struct.std::_Vector_base.26", ptr %this1, i32 0, i32 0
  %_M_start = getelementptr inbounds %"struct.std::_Vector_base<char, std::allocator<char>>::_Vector_impl_data", ptr %_M_impl2, i32 0, i32 0
  %1 = load ptr, ptr %_M_start, align 8
  %sub.ptr.lhs.cast = ptrtoint ptr %0 to i64
  %sub.ptr.rhs.cast = ptrtoint ptr %1 to i64
  %sub.ptr.sub = sub i64 %sub.ptr.lhs.cast, %sub.ptr.rhs.cast
  ret i64 %sub.ptr.sub
}

declare ptr @__cxa_allocate_exception(i64)

; Function Attrs: mustprogress uwtable
define linkonce_odr void @_ZN17DeadlyImportErrorC2EPKc(ptr noundef nonnull align 8 dereferenceable(16) %this, ptr noundef %message) unnamed_addr #3 comdat align 2 personality ptr @__gxx_personality_v0 {
entry:
  %this.addr = alloca ptr, align 8
  %message.addr = alloca ptr, align 8
  %agg.tmp = alloca %"class.Assimp::Formatter::basic_formatter", align 8
  %exn.slot = alloca ptr, align 8
  %ehselector.slot = alloca i32, align 4
  store ptr %this, ptr %this.addr, align 8
  store ptr %message, ptr %message.addr, align 8
  %this1 = load ptr, ptr %this.addr, align 8
  call void @_ZN6Assimp9Formatter15basic_formatterIcSt11char_traitsIcESaIcEEC2Ev(ptr noundef nonnull align 8 dereferenceable(376) %agg.tmp)
  invoke void @_ZN15DeadlyErrorBaseC2IJEPKcEEN6Assimp9Formatter15basic_formatterIcSt11char_traitsIcESaIcEEEOT0_DpOT_(ptr noundef nonnull align 8 dereferenceable(16) %this1, ptr noundef %agg.tmp, ptr noundef nonnull align 8 dereferenceable(8) %message.addr)
          to label %invoke.cont unwind label %lpad

invoke.cont:                                      ; preds = %entry
  call void @_ZN6Assimp9Formatter15basic_formatterIcSt11char_traitsIcESaIcEED2Ev(ptr noundef nonnull align 8 dereferenceable(376) %agg.tmp) #13
  store ptr getelementptr inbounds ({ [5 x ptr] }, ptr @_ZTV17DeadlyImportError, i32 0, inrange i32 0, i32 2), ptr %this1, align 8
  ret void

lpad:                                             ; preds = %entry
  %0 = landingpad { ptr, i32 }
          cleanup
  %1 = extractvalue { ptr, i32 } %0, 0
  store ptr %1, ptr %exn.slot, align 8
  %2 = extractvalue { ptr, i32 } %0, 1
  store i32 %2, ptr %ehselector.slot, align 4
  call void @_ZN6Assimp9Formatter15basic_formatterIcSt11char_traitsIcESaIcEED2Ev(ptr noundef nonnull align 8 dereferenceable(376) %agg.tmp) #13
  br label %eh.resume

eh.resume:                                        ; preds = %lpad
  %exn = load ptr, ptr %exn.slot, align 8
  %sel = load i32, ptr %ehselector.slot, align 4
  %lpad.val = insertvalue { ptr, i32 } poison, ptr %exn, 0
  %lpad.val2 = insertvalue { ptr, i32 } %lpad.val, i32 %sel, 1
  resume { ptr, i32 } %lpad.val2
}

declare void @__cxa_free_exception(ptr)

; Function Attrs: mustprogress nounwind uwtable
define linkonce_odr void @_ZN17DeadlyImportErrorD2Ev(ptr noundef nonnull align 8 dereferenceable(16) %this) unnamed_addr #0 comdat align 2 {
entry:
  %this.addr = alloca ptr, align 8
  store ptr %this, ptr %this.addr, align 8
  %this1 = load ptr, ptr %this.addr, align 8
  call void @_ZN15DeadlyErrorBaseD2Ev(ptr noundef nonnull align 8 dereferenceable(16) %this1) #13
  ret void
}

declare void @__cxa_throw(ptr, ptr, ptr)

; Function Attrs: mustprogress nounwind uwtable
define linkonce_odr noundef nonnull align 1 dereferenceable(1) ptr @_ZNSt6vectorIcSaIcEEixEm(ptr noundef nonnull align 8 dereferenceable(24) %this, i64 noundef %__n) #0 comdat align 2 {
entry:
  %this.addr = alloca ptr, align 8
  %__n.addr = alloca i64, align 8
  store ptr %this, ptr %this.addr, align 8
  store i64 %__n, ptr %__n.addr, align 8
  %this1 = load ptr, ptr %this.addr, align 8
  %_M_impl = getelementptr inbounds %"struct.std::_Vector_base.26", ptr %this1, i32 0, i32 0
  %_M_start = getelementptr inbounds %"struct.std::_Vector_base<char, std::allocator<char>>::_Vector_impl_data", ptr %_M_impl, i32 0, i32 0
  %0 = load ptr, ptr %_M_start, align 8
  %1 = load i64, ptr %__n.addr, align 8
  %add.ptr = getelementptr inbounds i8, ptr %0, i64 %1
  ret ptr %add.ptr
}

declare void @_ZN6Assimp6Logger5debugEPKc(ptr noundef nonnull align 8 dereferenceable(12), ptr noundef) #4

; Function Attrs: mustprogress uwtable
define linkonce_odr ptr @_ZSt4copyIN9__gnu_cxx17__normal_iteratorIPcSt6vectorIcSaIcEEEES6_ET0_T_S8_S7_(ptr %__first.coerce, ptr %__last.coerce, ptr %__result.coerce) #3 comdat {
entry:
  %retval = alloca %"class.__gnu_cxx::__normal_iterator", align 8
  %__first = alloca %"class.__gnu_cxx::__normal_iterator", align 8
  %__last = alloca %"class.__gnu_cxx::__normal_iterator", align 8
  %__result = alloca %"class.__gnu_cxx::__normal_iterator", align 8
  %agg.tmp = alloca %"class.__gnu_cxx::__normal_iterator", align 8
  %agg.tmp3 = alloca %"class.__gnu_cxx::__normal_iterator", align 8
  %agg.tmp6 = alloca %"class.__gnu_cxx::__normal_iterator", align 8
  %agg.tmp7 = alloca %"class.__gnu_cxx::__normal_iterator", align 8
  %agg.tmp11 = alloca %"class.__gnu_cxx::__normal_iterator", align 8
  %coerce.dive = getelementptr inbounds %"class.__gnu_cxx::__normal_iterator", ptr %__first, i32 0, i32 0
  store ptr %__first.coerce, ptr %coerce.dive, align 8
  %coerce.dive1 = getelementptr inbounds %"class.__gnu_cxx::__normal_iterator", ptr %__last, i32 0, i32 0
  store ptr %__last.coerce, ptr %coerce.dive1, align 8
  %coerce.dive2 = getelementptr inbounds %"class.__gnu_cxx::__normal_iterator", ptr %__result, i32 0, i32 0
  store ptr %__result.coerce, ptr %coerce.dive2, align 8
  call void @llvm.memcpy.p0.p0.i64(ptr align 8 %agg.tmp3, ptr align 8 %__first, i64 8, i1 false)
  %coerce.dive4 = getelementptr inbounds %"class.__gnu_cxx::__normal_iterator", ptr %agg.tmp3, i32 0, i32 0
  %0 = load ptr, ptr %coerce.dive4, align 8
  %call = call ptr @_ZSt12__miter_baseIN9__gnu_cxx17__normal_iteratorIPcSt6vectorIcSaIcEEEEET_S7_(ptr %0)
  %coerce.dive5 = getelementptr inbounds %"class.__gnu_cxx::__normal_iterator", ptr %agg.tmp, i32 0, i32 0
  store ptr %call, ptr %coerce.dive5, align 8
  call void @llvm.memcpy.p0.p0.i64(ptr align 8 %agg.tmp7, ptr align 8 %__last, i64 8, i1 false)
  %coerce.dive8 = getelementptr inbounds %"class.__gnu_cxx::__normal_iterator", ptr %agg.tmp7, i32 0, i32 0
  %1 = load ptr, ptr %coerce.dive8, align 8
  %call9 = call ptr @_ZSt12__miter_baseIN9__gnu_cxx17__normal_iteratorIPcSt6vectorIcSaIcEEEEET_S7_(ptr %1)
  %coerce.dive10 = getelementptr inbounds %"class.__gnu_cxx::__normal_iterator", ptr %agg.tmp6, i32 0, i32 0
  store ptr %call9, ptr %coerce.dive10, align 8
  call void @llvm.memcpy.p0.p0.i64(ptr align 8 %agg.tmp11, ptr align 8 %__result, i64 8, i1 false)
  %coerce.dive12 = getelementptr inbounds %"class.__gnu_cxx::__normal_iterator", ptr %agg.tmp, i32 0, i32 0
  %2 = load ptr, ptr %coerce.dive12, align 8
  %coerce.dive13 = getelementptr inbounds %"class.__gnu_cxx::__normal_iterator", ptr %agg.tmp6, i32 0, i32 0
  %3 = load ptr, ptr %coerce.dive13, align 8
  %coerce.dive14 = getelementptr inbounds %"class.__gnu_cxx::__normal_iterator", ptr %agg.tmp11, i32 0, i32 0
  %4 = load ptr, ptr %coerce.dive14, align 8
  %call15 = call ptr @_ZSt13__copy_move_aILb0EN9__gnu_cxx17__normal_iteratorIPcSt6vectorIcSaIcEEEES6_ET1_T0_S8_S7_(ptr %2, ptr %3, ptr %4)
  %coerce.dive16 = getelementptr inbounds %"class.__gnu_cxx::__normal_iterator", ptr %retval, i32 0, i32 0
  store ptr %call15, ptr %coerce.dive16, align 8
  %coerce.dive17 = getelementptr inbounds %"class.__gnu_cxx::__normal_iterator", ptr %retval, i32 0, i32 0
  %5 = load ptr, ptr %coerce.dive17, align 8
  ret ptr %5
}

; Function Attrs: mustprogress nounwind uwtable
define linkonce_odr ptr @_ZNSt6vectorIcSaIcEE5beginEv(ptr noundef nonnull align 8 dereferenceable(24) %this) #0 comdat align 2 {
entry:
  %retval = alloca %"class.__gnu_cxx::__normal_iterator", align 8
  %this.addr = alloca ptr, align 8
  store ptr %this, ptr %this.addr, align 8
  %this1 = load ptr, ptr %this.addr, align 8
  %_M_impl = getelementptr inbounds %"struct.std::_Vector_base.26", ptr %this1, i32 0, i32 0
  %_M_start = getelementptr inbounds %"struct.std::_Vector_base<char, std::allocator<char>>::_Vector_impl_data", ptr %_M_impl, i32 0, i32 0
  call void @_ZN9__gnu_cxx17__normal_iteratorIPcSt6vectorIcSaIcEEEC2ERKS1_(ptr noundef nonnull align 8 dereferenceable(8) %retval, ptr noundef nonnull align 8 dereferenceable(8) %_M_start) #13
  %coerce.dive = getelementptr inbounds %"class.__gnu_cxx::__normal_iterator", ptr %retval, i32 0, i32 0
  %0 = load ptr, ptr %coerce.dive, align 8
  ret ptr %0
}

; Function Attrs: mustprogress nounwind uwtable
define linkonce_odr ptr @_ZNK9__gnu_cxx17__normal_iteratorIPcSt6vectorIcSaIcEEEplEl(ptr noundef nonnull align 8 dereferenceable(8) %this, i64 noundef %__n) #0 comdat align 2 {
entry:
  %retval = alloca %"class.__gnu_cxx::__normal_iterator", align 8
  %this.addr = alloca ptr, align 8
  %__n.addr = alloca i64, align 8
  %ref.tmp = alloca ptr, align 8
  store ptr %this, ptr %this.addr, align 8
  store i64 %__n, ptr %__n.addr, align 8
  %this1 = load ptr, ptr %this.addr, align 8
  %_M_current = getelementptr inbounds %"class.__gnu_cxx::__normal_iterator", ptr %this1, i32 0, i32 0
  %0 = load ptr, ptr %_M_current, align 8
  %1 = load i64, ptr %__n.addr, align 8
  %add.ptr = getelementptr inbounds i8, ptr %0, i64 %1
  store ptr %add.ptr, ptr %ref.tmp, align 8
  call void @_ZN9__gnu_cxx17__normal_iteratorIPcSt6vectorIcSaIcEEEC2ERKS1_(ptr noundef nonnull align 8 dereferenceable(8) %retval, ptr noundef nonnull align 8 dereferenceable(8) %ref.tmp) #13
  %coerce.dive = getelementptr inbounds %"class.__gnu_cxx::__normal_iterator", ptr %retval, i32 0, i32 0
  %2 = load ptr, ptr %coerce.dive, align 8
  ret ptr %2
}

; Function Attrs: mustprogress nounwind uwtable
define linkonce_odr ptr @_ZNSt6vectorIcSaIcEE3endEv(ptr noundef nonnull align 8 dereferenceable(24) %this) #0 comdat align 2 {
entry:
  %retval = alloca %"class.__gnu_cxx::__normal_iterator", align 8
  %this.addr = alloca ptr, align 8
  store ptr %this, ptr %this.addr, align 8
  %this1 = load ptr, ptr %this.addr, align 8
  %_M_impl = getelementptr inbounds %"struct.std::_Vector_base.26", ptr %this1, i32 0, i32 0
  %_M_finish = getelementptr inbounds %"struct.std::_Vector_base<char, std::allocator<char>>::_Vector_impl_data", ptr %_M_impl, i32 0, i32 1
  call void @_ZN9__gnu_cxx17__normal_iteratorIPcSt6vectorIcSaIcEEEC2ERKS1_(ptr noundef nonnull align 8 dereferenceable(8) %retval, ptr noundef nonnull align 8 dereferenceable(8) %_M_finish) #13
  %coerce.dive = getelementptr inbounds %"class.__gnu_cxx::__normal_iterator", ptr %retval, i32 0, i32 0
  %0 = load ptr, ptr %coerce.dive, align 8
  ret ptr %0
}

; Function Attrs: mustprogress uwtable
define linkonce_odr void @_ZNSt6vectorIcSaIcEE6resizeEm(ptr noundef nonnull align 8 dereferenceable(24) %this, i64 noundef %__new_size) #3 comdat align 2 {
entry:
  %this.addr = alloca ptr, align 8
  %__new_size.addr = alloca i64, align 8
  store ptr %this, ptr %this.addr, align 8
  store i64 %__new_size, ptr %__new_size.addr, align 8
  %this1 = load ptr, ptr %this.addr, align 8
  %0 = load i64, ptr %__new_size.addr, align 8
  %call = call noundef i64 @_ZNKSt6vectorIcSaIcEE4sizeEv(ptr noundef nonnull align 8 dereferenceable(24) %this1) #13
  %cmp = icmp ugt i64 %0, %call
  br i1 %cmp, label %if.then, label %if.else

if.then:                                          ; preds = %entry
  %1 = load i64, ptr %__new_size.addr, align 8
  %call2 = call noundef i64 @_ZNKSt6vectorIcSaIcEE4sizeEv(ptr noundef nonnull align 8 dereferenceable(24) %this1) #13
  %sub = sub i64 %1, %call2
  call void @_ZNSt6vectorIcSaIcEE17_M_default_appendEm(ptr noundef nonnull align 8 dereferenceable(24) %this1, i64 noundef %sub)
  br label %if.end6

if.else:                                          ; preds = %entry
  %2 = load i64, ptr %__new_size.addr, align 8
  %call3 = call noundef i64 @_ZNKSt6vectorIcSaIcEE4sizeEv(ptr noundef nonnull align 8 dereferenceable(24) %this1) #13
  %cmp4 = icmp ult i64 %2, %call3
  br i1 %cmp4, label %if.then5, label %if.end

if.then5:                                         ; preds = %if.else
  %_M_impl = getelementptr inbounds %"struct.std::_Vector_base.26", ptr %this1, i32 0, i32 0
  %_M_start = getelementptr inbounds %"struct.std::_Vector_base<char, std::allocator<char>>::_Vector_impl_data", ptr %_M_impl, i32 0, i32 0
  %3 = load ptr, ptr %_M_start, align 8
  %4 = load i64, ptr %__new_size.addr, align 8
  %add.ptr = getelementptr inbounds i8, ptr %3, i64 %4
  call void @_ZNSt6vectorIcSaIcEE15_M_erase_at_endEPc(ptr noundef nonnull align 8 dereferenceable(24) %this1, ptr noundef %add.ptr) #13
  br label %if.end

if.end:                                           ; preds = %if.then5, %if.else
  br label %if.end6

if.end6:                                          ; preds = %if.end, %if.then
  ret void
}

; Function Attrs: mustprogress nounwind uwtable
define linkonce_odr noundef nonnull align 1 dereferenceable(1) ptr @_ZNSt6vectorIcSaIcEE5frontEv(ptr noundef nonnull align 8 dereferenceable(24) %this) #0 comdat align 2 {
entry:
  %this.addr = alloca ptr, align 8
  %ref.tmp = alloca %"class.__gnu_cxx::__normal_iterator", align 8
  store ptr %this, ptr %this.addr, align 8
  %this1 = load ptr, ptr %this.addr, align 8
  %call = call ptr @_ZNSt6vectorIcSaIcEE5beginEv(ptr noundef nonnull align 8 dereferenceable(24) %this1) #13
  %coerce.dive = getelementptr inbounds %"class.__gnu_cxx::__normal_iterator", ptr %ref.tmp, i32 0, i32 0
  store ptr %call, ptr %coerce.dive, align 8
  %call2 = call noundef nonnull align 1 dereferenceable(1) ptr @_ZNK9__gnu_cxx17__normal_iteratorIPcSt6vectorIcSaIcEEEdeEv(ptr noundef nonnull align 8 dereferenceable(8) %ref.tmp) #13
  ret ptr %call2
}

; Function Attrs: mustprogress nounwind uwtable
define linkonce_odr noundef nonnull align 1 dereferenceable(1) ptr @_ZNSt6vectorIcSaIcEE4backEv(ptr noundef nonnull align 8 dereferenceable(24) %this) #0 comdat align 2 {
entry:
  %this.addr = alloca ptr, align 8
  %ref.tmp = alloca %"class.__gnu_cxx::__normal_iterator", align 8
  %ref.tmp2 = alloca %"class.__gnu_cxx::__normal_iterator", align 8
  store ptr %this, ptr %this.addr, align 8
  %this1 = load ptr, ptr %this.addr, align 8
  %call = call ptr @_ZNSt6vectorIcSaIcEE3endEv(ptr noundef nonnull align 8 dereferenceable(24) %this1) #13
  %coerce.dive = getelementptr inbounds %"class.__gnu_cxx::__normal_iterator", ptr %ref.tmp2, i32 0, i32 0
  store ptr %call, ptr %coerce.dive, align 8
  %call3 = call ptr @_ZNK9__gnu_cxx17__normal_iteratorIPcSt6vectorIcSaIcEEEmiEl(ptr noundef nonnull align 8 dereferenceable(8) %ref.tmp2, i64 noundef 1) #13
  %coerce.dive4 = getelementptr inbounds %"class.__gnu_cxx::__normal_iterator", ptr %ref.tmp, i32 0, i32 0
  store ptr %call3, ptr %coerce.dive4, align 8
  %call5 = call noundef nonnull align 1 dereferenceable(1) ptr @_ZNK9__gnu_cxx17__normal_iteratorIPcSt6vectorIcSaIcEEEdeEv(ptr noundef nonnull align 8 dereferenceable(8) %ref.tmp) #13
  ret ptr %call5
}

; Function Attrs: mustprogress nounwind uwtable
define linkonce_odr void @_ZNSt6vectorIcSaIcEEC2Ev(ptr noundef nonnull align 8 dereferenceable(24) %this) unnamed_addr #0 comdat align 2 {
entry:
  %this.addr = alloca ptr, align 8
  store ptr %this, ptr %this.addr, align 8
  %this1 = load ptr, ptr %this.addr, align 8
  call void @_ZNSt12_Vector_baseIcSaIcEEC2Ev(ptr noundef nonnull align 8 dereferenceable(24) %this1) #13
  ret void
}

; Function Attrs: mustprogress uwtable
define linkonce_odr hidden ptr @_ZN4utf88utf32to8ISt20back_insert_iteratorISt6vectorIcSaIcEEEPiEET_T0_S8_S7_(ptr noundef %start, ptr noundef %end, ptr %result.coerce) #3 comdat {
entry:
  %retval = alloca %"class.std::back_insert_iterator", align 8
  %result = alloca %"class.std::back_insert_iterator", align 8
  %start.addr = alloca ptr, align 8
  %end.addr = alloca ptr, align 8
  %ref.tmp = alloca %"class.std::back_insert_iterator", align 8
  %agg.tmp = alloca %"class.std::back_insert_iterator", align 8
  %coerce.dive = getelementptr inbounds %"class.std::back_insert_iterator", ptr %result, i32 0, i32 0
  store ptr %result.coerce, ptr %coerce.dive, align 8
  store ptr %start, ptr %start.addr, align 8
  store ptr %end, ptr %end.addr, align 8
  br label %while.cond

while.cond:                                       ; preds = %while.body, %entry
  %0 = load ptr, ptr %start.addr, align 8
  %1 = load ptr, ptr %end.addr, align 8
  %cmp = icmp ne ptr %0, %1
  br i1 %cmp, label %while.body, label %while.end

while.body:                                       ; preds = %while.cond
  %2 = load ptr, ptr %start.addr, align 8
  %incdec.ptr = getelementptr inbounds i32, ptr %2, i32 1
  store ptr %incdec.ptr, ptr %start.addr, align 8
  %3 = load i32, ptr %2, align 4
  call void @llvm.memcpy.p0.p0.i64(ptr align 8 %agg.tmp, ptr align 8 %result, i64 8, i1 false)
  %coerce.dive1 = getelementptr inbounds %"class.std::back_insert_iterator", ptr %agg.tmp, i32 0, i32 0
  %4 = load ptr, ptr %coerce.dive1, align 8
  %call = call ptr @_ZN4utf86appendISt20back_insert_iteratorISt6vectorIcSaIcEEEEET_jS6_(i32 noundef %3, ptr %4)
  %coerce.dive2 = getelementptr inbounds %"class.std::back_insert_iterator", ptr %ref.tmp, i32 0, i32 0
  store ptr %call, ptr %coerce.dive2, align 8
  call void @llvm.memcpy.p0.p0.i64(ptr align 8 %result, ptr align 8 %ref.tmp, i64 8, i1 false)
  br label %while.cond, !llvm.loop !15

while.end:                                        ; preds = %while.cond
  call void @llvm.memcpy.p0.p0.i64(ptr align 8 %retval, ptr align 8 %result, i64 8, i1 false)
  %coerce.dive3 = getelementptr inbounds %"class.std::back_insert_iterator", ptr %retval, i32 0, i32 0
  %5 = load ptr, ptr %coerce.dive3, align 8
  ret ptr %5
}

; Function Attrs: mustprogress uwtable
define linkonce_odr ptr @_ZSt13back_inserterISt6vectorIcSaIcEEESt20back_insert_iteratorIT_ERS4_(ptr noundef nonnull align 8 dereferenceable(24) %__x) #3 comdat {
entry:
  %retval = alloca %"class.std::back_insert_iterator", align 8
  %__x.addr = alloca ptr, align 8
  store ptr %__x, ptr %__x.addr, align 8
  %0 = load ptr, ptr %__x.addr, align 8
  call void @_ZNSt20back_insert_iteratorISt6vectorIcSaIcEEEC2ERS2_(ptr noundef nonnull align 8 dereferenceable(8) %retval, ptr noundef nonnull align 8 dereferenceable(24) %0)
  %coerce.dive = getelementptr inbounds %"class.std::back_insert_iterator", ptr %retval, i32 0, i32 0
  %1 = load ptr, ptr %coerce.dive, align 8
  ret ptr %1
}

; Function Attrs: mustprogress nounwind uwtable
define linkonce_odr void @_ZNSt6vectorIcSaIcEED2Ev(ptr noundef nonnull align 8 dereferenceable(24) %this) unnamed_addr #0 comdat align 2 personality ptr @__gxx_personality_v0 {
entry:
  %this.addr = alloca ptr, align 8
  store ptr %this, ptr %this.addr, align 8
  %this1 = load ptr, ptr %this.addr, align 8
  %_M_impl = getelementptr inbounds %"struct.std::_Vector_base.26", ptr %this1, i32 0, i32 0
  %_M_start = getelementptr inbounds %"struct.std::_Vector_base<char, std::allocator<char>>::_Vector_impl_data", ptr %_M_impl, i32 0, i32 0
  %0 = load ptr, ptr %_M_start, align 8
  %_M_impl2 = getelementptr inbounds %"struct.std::_Vector_base.26", ptr %this1, i32 0, i32 0
  %_M_finish = getelementptr inbounds %"struct.std::_Vector_base<char, std::allocator<char>>::_Vector_impl_data", ptr %_M_impl2, i32 0, i32 1
  %1 = load ptr, ptr %_M_finish, align 8
  %call = call noundef nonnull align 1 dereferenceable(1) ptr @_ZNSt12_Vector_baseIcSaIcEE19_M_get_Tp_allocatorEv(ptr noundef nonnull align 8 dereferenceable(24) %this1) #13
  invoke void @_ZSt8_DestroyIPccEvT_S1_RSaIT0_E(ptr noundef %0, ptr noundef %1, ptr noundef nonnull align 1 dereferenceable(1) %call)
          to label %invoke.cont unwind label %terminate.lpad

invoke.cont:                                      ; preds = %entry
  call void @_ZNSt12_Vector_baseIcSaIcEED2Ev(ptr noundef nonnull align 8 dereferenceable(24) %this1) #13
  ret void

terminate.lpad:                                   ; preds = %entry
  %2 = landingpad { ptr, i32 }
          catch ptr null
  %3 = extractvalue { ptr, i32 } %2, 0
  call void @__clang_call_terminate(ptr %3) #14
  unreachable
}

; Function Attrs: mustprogress nounwind uwtable
define linkonce_odr hidden void @_ZN6Assimp8ByteSwap5Swap2EPv(ptr noundef %_szOut) #0 comdat align 2 {
entry:
  %_szOut.addr = alloca ptr, align 8
  %szOut = alloca ptr, align 8
  store ptr %_szOut, ptr %_szOut.addr, align 8
  %0 = load ptr, ptr %_szOut.addr, align 8
  store ptr %0, ptr %szOut, align 8
  %1 = load ptr, ptr %szOut, align 8
  %arrayidx = getelementptr inbounds i8, ptr %1, i64 0
  %2 = load ptr, ptr %szOut, align 8
  %arrayidx1 = getelementptr inbounds i8, ptr %2, i64 1
  call void @_ZSt4swapIhENSt9enable_ifIXsr6__and_ISt6__not_ISt15__is_tuple_likeIT_EESt21is_move_constructibleIS3_ESt18is_move_assignableIS3_EEE5valueEvE4typeERS3_SC_(ptr noundef nonnull align 1 dereferenceable(1) %arrayidx, ptr noundef nonnull align 1 dereferenceable(1) %arrayidx1) #13
  ret void
}

; Function Attrs: mustprogress nounwind uwtable
define linkonce_odr void @_ZNSt6vectorIhSaIhEEC2Ev(ptr noundef nonnull align 8 dereferenceable(24) %this) unnamed_addr #0 comdat align 2 {
entry:
  %this.addr = alloca ptr, align 8
  store ptr %this, ptr %this.addr, align 8
  %this1 = load ptr, ptr %this.addr, align 8
  call void @_ZNSt12_Vector_baseIhSaIhEEC2Ev(ptr noundef nonnull align 8 dereferenceable(24) %this1) #13
  ret void
}

; Function Attrs: mustprogress uwtable
define linkonce_odr hidden ptr @_ZN4utf88utf16to8IN9__gnu_cxx17__normal_iteratorIPcSt6vectorIcSaIcEEEESt20back_insert_iteratorIS4_IhSaIhEEEEET0_T_SD_SC_(ptr %start.coerce, ptr %end.coerce, ptr %result.coerce) #3 comdat personality ptr @__gxx_personality_v0 {
entry:
  %retval = alloca %"class.std::back_insert_iterator.33", align 8
  %start = alloca %"class.__gnu_cxx::__normal_iterator", align 8
  %end = alloca %"class.__gnu_cxx::__normal_iterator", align 8
  %result = alloca %"class.std::back_insert_iterator.33", align 8
  %cp = alloca i32, align 4
  %ref.tmp = alloca %"class.__gnu_cxx::__normal_iterator", align 8
  %trail_surrogate = alloca i32, align 4
  %ref.tmp10 = alloca %"class.__gnu_cxx::__normal_iterator", align 8
  %exn.slot = alloca ptr, align 8
  %ehselector.slot = alloca i32, align 4
  %ref.tmp35 = alloca %"class.std::back_insert_iterator.33", align 8
  %agg.tmp = alloca %"class.std::back_insert_iterator.33", align 8
  %coerce.dive = getelementptr inbounds %"class.__gnu_cxx::__normal_iterator", ptr %start, i32 0, i32 0
  store ptr %start.coerce, ptr %coerce.dive, align 8
  %coerce.dive1 = getelementptr inbounds %"class.__gnu_cxx::__normal_iterator", ptr %end, i32 0, i32 0
  store ptr %end.coerce, ptr %coerce.dive1, align 8
  %coerce.dive2 = getelementptr inbounds %"class.std::back_insert_iterator.33", ptr %result, i32 0, i32 0
  store ptr %result.coerce, ptr %coerce.dive2, align 8
  br label %while.cond

while.cond:                                       ; preds = %if.end34, %entry
  %call = call noundef zeroext i1 @_ZN9__gnu_cxxneIPcSt6vectorIcSaIcEEEEbRKNS_17__normal_iteratorIT_T0_EESA_(ptr noundef nonnull align 8 dereferenceable(8) %start, ptr noundef nonnull align 8 dereferenceable(8) %end) #13
  br i1 %call, label %while.body, label %while.end

while.body:                                       ; preds = %while.cond
  %call3 = call ptr @_ZN9__gnu_cxx17__normal_iteratorIPcSt6vectorIcSaIcEEEppEi(ptr noundef nonnull align 8 dereferenceable(8) %start, i32 noundef 0) #13
  %coerce.dive4 = getelementptr inbounds %"class.__gnu_cxx::__normal_iterator", ptr %ref.tmp, i32 0, i32 0
  store ptr %call3, ptr %coerce.dive4, align 8
  %call5 = call noundef nonnull align 1 dereferenceable(1) ptr @_ZNK9__gnu_cxx17__normal_iteratorIPcSt6vectorIcSaIcEEEdeEv(ptr noundef nonnull align 8 dereferenceable(8) %ref.tmp) #13
  %0 = load i8, ptr %call5, align 1
  %call6 = call noundef zeroext i16 @_ZN4utf88internal6mask16IcEEtT_(i8 noundef signext %0)
  %conv = zext i16 %call6 to i32
  store i32 %conv, ptr %cp, align 4
  %1 = load i32, ptr %cp, align 4
  %call7 = call noundef zeroext i1 @_ZN4utf88internal17is_lead_surrogateIjEEbT_(i32 noundef %1)
  br i1 %call7, label %if.then, label %if.else26

if.then:                                          ; preds = %while.body
  %call8 = call noundef zeroext i1 @_ZN9__gnu_cxxneIPcSt6vectorIcSaIcEEEEbRKNS_17__normal_iteratorIT_T0_EESA_(ptr noundef nonnull align 8 dereferenceable(8) %start, ptr noundef nonnull align 8 dereferenceable(8) %end) #13
  br i1 %call8, label %if.then9, label %if.else20

if.then9:                                         ; preds = %if.then
  %call11 = call ptr @_ZN9__gnu_cxx17__normal_iteratorIPcSt6vectorIcSaIcEEEppEi(ptr noundef nonnull align 8 dereferenceable(8) %start, i32 noundef 0) #13
  %coerce.dive12 = getelementptr inbounds %"class.__gnu_cxx::__normal_iterator", ptr %ref.tmp10, i32 0, i32 0
  store ptr %call11, ptr %coerce.dive12, align 8
  %call13 = call noundef nonnull align 1 dereferenceable(1) ptr @_ZNK9__gnu_cxx17__normal_iteratorIPcSt6vectorIcSaIcEEEdeEv(ptr noundef nonnull align 8 dereferenceable(8) %ref.tmp10) #13
  %2 = load i8, ptr %call13, align 1
  %call14 = call noundef zeroext i16 @_ZN4utf88internal6mask16IcEEtT_(i8 noundef signext %2)
  %conv15 = zext i16 %call14 to i32
  store i32 %conv15, ptr %trail_surrogate, align 4
  %3 = load i32, ptr %trail_surrogate, align 4
  %call16 = call noundef zeroext i1 @_ZN4utf88internal18is_trail_surrogateIjEEbT_(i32 noundef %3)
  br i1 %call16, label %if.then17, label %if.else

if.then17:                                        ; preds = %if.then9
  %4 = load i32, ptr %cp, align 4
  %shl = shl i32 %4, 10
  %5 = load i32, ptr %trail_surrogate, align 4
  %add = add i32 %shl, %5
  %add18 = add i32 %add, -56613888
  store i32 %add18, ptr %cp, align 4
  br label %if.end

if.else:                                          ; preds = %if.then9
  %exception = call ptr @__cxa_allocate_exception(i64 16) #13
  %6 = load i32, ptr %trail_surrogate, align 4
  %conv19 = trunc i32 %6 to i16
  invoke void @_ZN4utf813invalid_utf16C2Et(ptr noundef nonnull align 8 dereferenceable(10) %exception, i16 noundef zeroext %conv19)
          to label %invoke.cont unwind label %lpad

invoke.cont:                                      ; preds = %if.else
  call void @__cxa_throw(ptr %exception, ptr @_ZTIN4utf813invalid_utf16E, ptr @_ZN4utf813invalid_utf16D2Ev) #18
  unreachable

lpad:                                             ; preds = %if.else
  %7 = landingpad { ptr, i32 }
          cleanup
  %8 = extractvalue { ptr, i32 } %7, 0
  store ptr %8, ptr %exn.slot, align 8
  %9 = extractvalue { ptr, i32 } %7, 1
  store i32 %9, ptr %ehselector.slot, align 4
  call void @__cxa_free_exception(ptr %exception) #13
  br label %eh.resume

if.end:                                           ; preds = %if.then17
  br label %if.end25

if.else20:                                        ; preds = %if.then
  %exception21 = call ptr @__cxa_allocate_exception(i64 16) #13
  %10 = load i32, ptr %cp, align 4
  %conv22 = trunc i32 %10 to i16
  invoke void @_ZN4utf813invalid_utf16C2Et(ptr noundef nonnull align 8 dereferenceable(10) %exception21, i16 noundef zeroext %conv22)
          to label %invoke.cont24 unwind label %lpad23

invoke.cont24:                                    ; preds = %if.else20
  call void @__cxa_throw(ptr %exception21, ptr @_ZTIN4utf813invalid_utf16E, ptr @_ZN4utf813invalid_utf16D2Ev) #18
  unreachable

lpad23:                                           ; preds = %if.else20
  %11 = landingpad { ptr, i32 }
          cleanup
  %12 = extractvalue { ptr, i32 } %11, 0
  store ptr %12, ptr %exn.slot, align 8
  %13 = extractvalue { ptr, i32 } %11, 1
  store i32 %13, ptr %ehselector.slot, align 4
  call void @__cxa_free_exception(ptr %exception21) #13
  br label %eh.resume

if.end25:                                         ; preds = %if.end
  br label %if.end34

if.else26:                                        ; preds = %while.body
  %14 = load i32, ptr %cp, align 4
  %call27 = call noundef zeroext i1 @_ZN4utf88internal18is_trail_surrogateIjEEbT_(i32 noundef %14)
  br i1 %call27, label %if.then28, label %if.end33

if.then28:                                        ; preds = %if.else26
  %exception29 = call ptr @__cxa_allocate_exception(i64 16) #13
  %15 = load i32, ptr %cp, align 4
  %conv30 = trunc i32 %15 to i16
  invoke void @_ZN4utf813invalid_utf16C2Et(ptr noundef nonnull align 8 dereferenceable(10) %exception29, i16 noundef zeroext %conv30)
          to label %invoke.cont32 unwind label %lpad31

invoke.cont32:                                    ; preds = %if.then28
  call void @__cxa_throw(ptr %exception29, ptr @_ZTIN4utf813invalid_utf16E, ptr @_ZN4utf813invalid_utf16D2Ev) #18
  unreachable

lpad31:                                           ; preds = %if.then28
  %16 = landingpad { ptr, i32 }
          cleanup
  %17 = extractvalue { ptr, i32 } %16, 0
  store ptr %17, ptr %exn.slot, align 8
  %18 = extractvalue { ptr, i32 } %16, 1
  store i32 %18, ptr %ehselector.slot, align 4
  call void @__cxa_free_exception(ptr %exception29) #13
  br label %eh.resume

if.end33:                                         ; preds = %if.else26
  br label %if.end34

if.end34:                                         ; preds = %if.end33, %if.end25
  %19 = load i32, ptr %cp, align 4
  call void @llvm.memcpy.p0.p0.i64(ptr align 8 %agg.tmp, ptr align 8 %result, i64 8, i1 false)
  %coerce.dive36 = getelementptr inbounds %"class.std::back_insert_iterator.33", ptr %agg.tmp, i32 0, i32 0
  %20 = load ptr, ptr %coerce.dive36, align 8
  %call37 = call ptr @_ZN4utf86appendISt20back_insert_iteratorISt6vectorIhSaIhEEEEET_jS6_(i32 noundef %19, ptr %20)
  %coerce.dive38 = getelementptr inbounds %"class.std::back_insert_iterator.33", ptr %ref.tmp35, i32 0, i32 0
  store ptr %call37, ptr %coerce.dive38, align 8
  call void @llvm.memcpy.p0.p0.i64(ptr align 8 %result, ptr align 8 %ref.tmp35, i64 8, i1 false)
  br label %while.cond, !llvm.loop !16

while.end:                                        ; preds = %while.cond
  call void @llvm.memcpy.p0.p0.i64(ptr align 8 %retval, ptr align 8 %result, i64 8, i1 false)
  %coerce.dive39 = getelementptr inbounds %"class.std::back_insert_iterator.33", ptr %retval, i32 0, i32 0
  %21 = load ptr, ptr %coerce.dive39, align 8
  ret ptr %21

eh.resume:                                        ; preds = %lpad31, %lpad23, %lpad
  %exn = load ptr, ptr %exn.slot, align 8
  %sel = load i32, ptr %ehselector.slot, align 4
  %lpad.val = insertvalue { ptr, i32 } poison, ptr %exn, 0
  %lpad.val40 = insertvalue { ptr, i32 } %lpad.val, i32 %sel, 1
  resume { ptr, i32 } %lpad.val40
}

; Function Attrs: mustprogress uwtable
define linkonce_odr ptr @_ZSt13back_inserterISt6vectorIhSaIhEEESt20back_insert_iteratorIT_ERS4_(ptr noundef nonnull align 8 dereferenceable(24) %__x) #3 comdat {
entry:
  %retval = alloca %"class.std::back_insert_iterator.33", align 8
  %__x.addr = alloca ptr, align 8
  store ptr %__x, ptr %__x.addr, align 8
  %0 = load ptr, ptr %__x.addr, align 8
  call void @_ZNSt20back_insert_iteratorISt6vectorIhSaIhEEEC2ERS2_(ptr noundef nonnull align 8 dereferenceable(8) %retval, ptr noundef nonnull align 8 dereferenceable(24) %0)
  %coerce.dive = getelementptr inbounds %"class.std::back_insert_iterator.33", ptr %retval, i32 0, i32 0
  %1 = load ptr, ptr %coerce.dive, align 8
  ret ptr %1
}

; Function Attrs: mustprogress nounwind uwtable
define linkonce_odr void @_ZNSt6vectorIhSaIhEED2Ev(ptr noundef nonnull align 8 dereferenceable(24) %this) unnamed_addr #0 comdat align 2 personality ptr @__gxx_personality_v0 {
entry:
  %this.addr = alloca ptr, align 8
  store ptr %this, ptr %this.addr, align 8
  %this1 = load ptr, ptr %this.addr, align 8
  %_M_impl = getelementptr inbounds %"struct.std::_Vector_base.29", ptr %this1, i32 0, i32 0
  %_M_start = getelementptr inbounds %"struct.std::_Vector_base<unsigned char, std::allocator<unsigned char>>::_Vector_impl_data", ptr %_M_impl, i32 0, i32 0
  %0 = load ptr, ptr %_M_start, align 8
  %_M_impl2 = getelementptr inbounds %"struct.std::_Vector_base.29", ptr %this1, i32 0, i32 0
  %_M_finish = getelementptr inbounds %"struct.std::_Vector_base<unsigned char, std::allocator<unsigned char>>::_Vector_impl_data", ptr %_M_impl2, i32 0, i32 1
  %1 = load ptr, ptr %_M_finish, align 8
  %call = call noundef nonnull align 1 dereferenceable(1) ptr @_ZNSt12_Vector_baseIhSaIhEE19_M_get_Tp_allocatorEv(ptr noundef nonnull align 8 dereferenceable(24) %this1) #13
  invoke void @_ZSt8_DestroyIPhhEvT_S1_RSaIT0_E(ptr noundef %0, ptr noundef %1, ptr noundef nonnull align 1 dereferenceable(1) %call)
          to label %invoke.cont unwind label %terminate.lpad

invoke.cont:                                      ; preds = %entry
  call void @_ZNSt12_Vector_baseIhSaIhEED2Ev(ptr noundef nonnull align 8 dereferenceable(24) %this1) #13
  ret void

terminate.lpad:                                   ; preds = %entry
  %2 = landingpad { ptr, i32 }
          catch ptr null
  %3 = extractvalue { ptr, i32 } %2, 0
  call void @__clang_call_terminate(ptr %3) #14
  unreachable
}

; Function Attrs: mustprogress uwtable
define void @_ZN6Assimp12BaseImporter22ConvertUTF8toISO8859_1ERNSt7__cxx1112basic_stringIcSt11char_traitsIcESaIcEEE(ptr noundef nonnull align 8 dereferenceable(32) %data) #3 align 2 personality ptr @__gxx_personality_v0 {
entry:
  %data.addr = alloca ptr, align 8
  %size = alloca i64, align 8
  %i = alloca i64, align 8
  %j = alloca i64, align 8
  %stream = alloca %"class.std::__cxx11::basic_stringstream", align 8
  %exn.slot = alloca ptr, align 8
  %ehselector.slot = alloca i32, align 4
  %ref.tmp = alloca %"class.std::__cxx11::basic_string", align 8
  store ptr %data, ptr %data.addr, align 8
  %0 = load ptr, ptr %data.addr, align 8
  %call = call noundef i64 @_ZNKSt7__cxx1112basic_stringIcSt11char_traitsIcESaIcEE4sizeEv(ptr noundef nonnull align 8 dereferenceable(32) %0) #13
  store i64 %call, ptr %size, align 8
  store i64 0, ptr %i, align 8
  store i64 0, ptr %j, align 8
  br label %while.cond

while.cond:                                       ; preds = %if.end59, %entry
  %1 = load i64, ptr %i, align 8
  %2 = load i64, ptr %size, align 8
  %cmp = icmp ult i64 %1, %2
  br i1 %cmp, label %while.body, label %while.end

while.body:                                       ; preds = %while.cond
  %3 = load ptr, ptr %data.addr, align 8
  %4 = load i64, ptr %i, align 8
  %call1 = call noundef nonnull align 1 dereferenceable(1) ptr @_ZNSt7__cxx1112basic_stringIcSt11char_traitsIcESaIcEEixEm(ptr noundef nonnull align 8 dereferenceable(32) %3, i64 noundef %4)
  %5 = load i8, ptr %call1, align 1
  %conv = zext i8 %5 to i64
  %cmp2 = icmp ult i64 %conv, 128
  br i1 %cmp2, label %if.then, label %if.else

if.then:                                          ; preds = %while.body
  %6 = load ptr, ptr %data.addr, align 8
  %7 = load i64, ptr %i, align 8
  %call3 = call noundef nonnull align 1 dereferenceable(1) ptr @_ZNSt7__cxx1112basic_stringIcSt11char_traitsIcESaIcEEixEm(ptr noundef nonnull align 8 dereferenceable(32) %6, i64 noundef %7)
  %8 = load i8, ptr %call3, align 1
  %9 = load ptr, ptr %data.addr, align 8
  %10 = load i64, ptr %j, align 8
  %call4 = call noundef nonnull align 1 dereferenceable(1) ptr @_ZNSt7__cxx1112basic_stringIcSt11char_traitsIcESaIcEEixEm(ptr noundef nonnull align 8 dereferenceable(32) %9, i64 noundef %10)
  store i8 %8, ptr %call4, align 1
  br label %if.end59

if.else:                                          ; preds = %while.body
  %11 = load i64, ptr %i, align 8
  %12 = load i64, ptr %size, align 8
  %sub = sub i64 %12, 1
  %cmp5 = icmp ult i64 %11, %sub
  br i1 %cmp5, label %if.then6, label %if.else54

if.then6:                                         ; preds = %if.else
  %13 = load ptr, ptr %data.addr, align 8
  %14 = load i64, ptr %i, align 8
  %call7 = call noundef nonnull align 1 dereferenceable(1) ptr @_ZNSt7__cxx1112basic_stringIcSt11char_traitsIcESaIcEEixEm(ptr noundef nonnull align 8 dereferenceable(32) %13, i64 noundef %14)
  %15 = load i8, ptr %call7, align 1
  %conv8 = zext i8 %15 to i32
  %cmp9 = icmp eq i32 %conv8, 194
  br i1 %cmp9, label %if.then10, label %if.else13

if.then10:                                        ; preds = %if.then6
  %16 = load ptr, ptr %data.addr, align 8
  %17 = load i64, ptr %i, align 8
  %inc = add i64 %17, 1
  store i64 %inc, ptr %i, align 8
  %call11 = call noundef nonnull align 1 dereferenceable(1) ptr @_ZNSt7__cxx1112basic_stringIcSt11char_traitsIcESaIcEEixEm(ptr noundef nonnull align 8 dereferenceable(32) %16, i64 noundef %inc)
  %18 = load i8, ptr %call11, align 1
  %19 = load ptr, ptr %data.addr, align 8
  %20 = load i64, ptr %j, align 8
  %call12 = call noundef nonnull align 1 dereferenceable(1) ptr @_ZNSt7__cxx1112basic_stringIcSt11char_traitsIcESaIcEEixEm(ptr noundef nonnull align 8 dereferenceable(32) %19, i64 noundef %20)
  store i8 %18, ptr %call12, align 1
  br label %if.end53

if.else13:                                        ; preds = %if.then6
  %21 = load ptr, ptr %data.addr, align 8
  %22 = load i64, ptr %i, align 8
  %call14 = call noundef nonnull align 1 dereferenceable(1) ptr @_ZNSt7__cxx1112basic_stringIcSt11char_traitsIcESaIcEEixEm(ptr noundef nonnull align 8 dereferenceable(32) %21, i64 noundef %22)
  %23 = load i8, ptr %call14, align 1
  %conv15 = zext i8 %23 to i32
  %cmp16 = icmp eq i32 %conv15, 195
  br i1 %cmp16, label %if.then17, label %if.else23

if.then17:                                        ; preds = %if.else13
  %24 = load ptr, ptr %data.addr, align 8
  %25 = load i64, ptr %i, align 8
  %inc18 = add i64 %25, 1
  store i64 %inc18, ptr %i, align 8
  %call19 = call noundef nonnull align 1 dereferenceable(1) ptr @_ZNSt7__cxx1112basic_stringIcSt11char_traitsIcESaIcEEixEm(ptr noundef nonnull align 8 dereferenceable(32) %24, i64 noundef %inc18)
  %26 = load i8, ptr %call19, align 1
  %conv20 = zext i8 %26 to i32
  %add = add nsw i32 %conv20, 64
  %conv21 = trunc i32 %add to i8
  %27 = load ptr, ptr %data.addr, align 8
  %28 = load i64, ptr %j, align 8
  %call22 = call noundef nonnull align 1 dereferenceable(1) ptr @_ZNSt7__cxx1112basic_stringIcSt11char_traitsIcESaIcEEixEm(ptr noundef nonnull align 8 dereferenceable(32) %27, i64 noundef %28)
  store i8 %conv21, ptr %call22, align 1
  br label %if.end

if.else23:                                        ; preds = %if.else13
  call void @_ZNSt7__cxx1118basic_stringstreamIcSt11char_traitsIcESaIcEEC1Ev(ptr noundef nonnull align 8 dereferenceable(128) %stream)
  %add.ptr = getelementptr inbounds i8, ptr %stream, i64 16
  %call24 = invoke noundef nonnull align 8 dereferenceable(8) ptr @_ZStlsISt11char_traitsIcEERSt13basic_ostreamIcT_ES5_PKc(ptr noundef nonnull align 8 dereferenceable(8) %add.ptr, ptr noundef @.str.9)
          to label %invoke.cont unwind label %lpad

invoke.cont:                                      ; preds = %if.else23
  %call26 = invoke noundef nonnull align 8 dereferenceable(8) ptr @_ZNSolsEPFRSt8ios_baseS0_E(ptr noundef nonnull align 8 dereferenceable(8) %call24, ptr noundef @_ZSt3hexRSt8ios_base)
          to label %invoke.cont25 unwind label %lpad

invoke.cont25:                                    ; preds = %invoke.cont
  %29 = load ptr, ptr %data.addr, align 8
  %30 = load i64, ptr %i, align 8
  %call28 = invoke noundef nonnull align 1 dereferenceable(1) ptr @_ZNSt7__cxx1112basic_stringIcSt11char_traitsIcESaIcEEixEm(ptr noundef nonnull align 8 dereferenceable(32) %29, i64 noundef %30)
          to label %invoke.cont27 unwind label %lpad

invoke.cont27:                                    ; preds = %invoke.cont25
  %31 = load i8, ptr %call28, align 1
  %call30 = invoke noundef nonnull align 8 dereferenceable(8) ptr @_ZStlsISt11char_traitsIcEERSt13basic_ostreamIcT_ES5_c(ptr noundef nonnull align 8 dereferenceable(8) %call26, i8 noundef signext %31)
          to label %invoke.cont29 unwind label %lpad

invoke.cont29:                                    ; preds = %invoke.cont27
  %32 = load ptr, ptr %data.addr, align 8
  %33 = load i64, ptr %i, align 8
  %add31 = add i64 %33, 1
  %call33 = invoke noundef nonnull align 1 dereferenceable(1) ptr @_ZNSt7__cxx1112basic_stringIcSt11char_traitsIcESaIcEEixEm(ptr noundef nonnull align 8 dereferenceable(32) %32, i64 noundef %add31)
          to label %invoke.cont32 unwind label %lpad

invoke.cont32:                                    ; preds = %invoke.cont29
  %34 = load i8, ptr %call33, align 1
  %call35 = invoke noundef nonnull align 8 dereferenceable(8) ptr @_ZStlsISt11char_traitsIcEERSt13basic_ostreamIcT_ES5_c(ptr noundef nonnull align 8 dereferenceable(8) %call30, i8 noundef signext %34)
          to label %invoke.cont34 unwind label %lpad

invoke.cont34:                                    ; preds = %invoke.cont32
  %call37 = invoke noundef nonnull align 8 dereferenceable(8) ptr @_ZStlsISt11char_traitsIcEERSt13basic_ostreamIcT_ES5_PKc(ptr noundef nonnull align 8 dereferenceable(8) %call35, ptr noundef @.str.10)
          to label %invoke.cont36 unwind label %lpad

invoke.cont36:                                    ; preds = %invoke.cont34
  %call39 = invoke noundef ptr @_ZN6Assimp13DefaultLogger3getEv()
          to label %invoke.cont38 unwind label %lpad

invoke.cont38:                                    ; preds = %invoke.cont36
  invoke void @_ZNKSt7__cxx1118basic_stringstreamIcSt11char_traitsIcESaIcEE3strEv(ptr sret(%"class.std::__cxx11::basic_string") align 8 %ref.tmp, ptr noundef nonnull align 8 dereferenceable(128) %stream)
          to label %invoke.cont40 unwind label %lpad

invoke.cont40:                                    ; preds = %invoke.cont38
  invoke void @_ZN6Assimp6Logger5errorIJNSt7__cxx1112basic_stringIcSt11char_traitsIcESaIcEEEEEEvDpOT_(ptr noundef nonnull align 8 dereferenceable(12) %call39, ptr noundef nonnull align 8 dereferenceable(32) %ref.tmp)
          to label %invoke.cont42 unwind label %lpad41

invoke.cont42:                                    ; preds = %invoke.cont40
  call void @_ZNSt7__cxx1112basic_stringIcSt11char_traitsIcESaIcEED1Ev(ptr noundef nonnull align 8 dereferenceable(32) %ref.tmp) #13
  %35 = load ptr, ptr %data.addr, align 8
  %36 = load i64, ptr %i, align 8
  %inc43 = add i64 %36, 1
  store i64 %inc43, ptr %i, align 8
  %call45 = invoke noundef nonnull align 1 dereferenceable(1) ptr @_ZNSt7__cxx1112basic_stringIcSt11char_traitsIcESaIcEEixEm(ptr noundef nonnull align 8 dereferenceable(32) %35, i64 noundef %36)
          to label %invoke.cont44 unwind label %lpad

invoke.cont44:                                    ; preds = %invoke.cont42
  %37 = load i8, ptr %call45, align 1
  %38 = load ptr, ptr %data.addr, align 8
  %39 = load i64, ptr %j, align 8
  %inc46 = add i64 %39, 1
  store i64 %inc46, ptr %j, align 8
  %call48 = invoke noundef nonnull align 1 dereferenceable(1) ptr @_ZNSt7__cxx1112basic_stringIcSt11char_traitsIcESaIcEEixEm(ptr noundef nonnull align 8 dereferenceable(32) %38, i64 noundef %39)
          to label %invoke.cont47 unwind label %lpad

invoke.cont47:                                    ; preds = %invoke.cont44
  store i8 %37, ptr %call48, align 1
  %40 = load ptr, ptr %data.addr, align 8
  %41 = load i64, ptr %i, align 8
  %call50 = invoke noundef nonnull align 1 dereferenceable(1) ptr @_ZNSt7__cxx1112basic_stringIcSt11char_traitsIcESaIcEEixEm(ptr noundef nonnull align 8 dereferenceable(32) %40, i64 noundef %41)
          to label %invoke.cont49 unwind label %lpad

invoke.cont49:                                    ; preds = %invoke.cont47
  %42 = load i8, ptr %call50, align 1
  %43 = load ptr, ptr %data.addr, align 8
  %44 = load i64, ptr %j, align 8
  %call52 = invoke noundef nonnull align 1 dereferenceable(1) ptr @_ZNSt7__cxx1112basic_stringIcSt11char_traitsIcESaIcEEixEm(ptr noundef nonnull align 8 dereferenceable(32) %43, i64 noundef %44)
          to label %invoke.cont51 unwind label %lpad

invoke.cont51:                                    ; preds = %invoke.cont49
  store i8 %42, ptr %call52, align 1
  call void @_ZNSt7__cxx1118basic_stringstreamIcSt11char_traitsIcESaIcEED1Ev(ptr noundef nonnull align 8 dereferenceable(128) %stream) #13
  br label %if.end

lpad:                                             ; preds = %invoke.cont49, %invoke.cont47, %invoke.cont44, %invoke.cont42, %invoke.cont38, %invoke.cont36, %invoke.cont34, %invoke.cont32, %invoke.cont29, %invoke.cont27, %invoke.cont25, %invoke.cont, %if.else23
  %45 = landingpad { ptr, i32 }
          cleanup
  %46 = extractvalue { ptr, i32 } %45, 0
  store ptr %46, ptr %exn.slot, align 8
  %47 = extractvalue { ptr, i32 } %45, 1
  store i32 %47, ptr %ehselector.slot, align 4
  br label %ehcleanup

lpad41:                                           ; preds = %invoke.cont40
  %48 = landingpad { ptr, i32 }
          cleanup
  %49 = extractvalue { ptr, i32 } %48, 0
  store ptr %49, ptr %exn.slot, align 8
  %50 = extractvalue { ptr, i32 } %48, 1
  store i32 %50, ptr %ehselector.slot, align 4
  call void @_ZNSt7__cxx1112basic_stringIcSt11char_traitsIcESaIcEED1Ev(ptr noundef nonnull align 8 dereferenceable(32) %ref.tmp) #13
  br label %ehcleanup

ehcleanup:                                        ; preds = %lpad41, %lpad
  call void @_ZNSt7__cxx1118basic_stringstreamIcSt11char_traitsIcESaIcEED1Ev(ptr noundef nonnull align 8 dereferenceable(128) %stream) #13
  br label %eh.resume

if.end:                                           ; preds = %invoke.cont51, %if.then17
  br label %if.end53

if.end53:                                         ; preds = %if.end, %if.then10
  br label %if.end58

if.else54:                                        ; preds = %if.else
  %call55 = call noundef ptr @_ZN6Assimp13DefaultLogger3getEv()
  call void @_ZN6Assimp6Logger5errorEPKc(ptr noundef nonnull align 8 dereferenceable(12) %call55, ptr noundef @.str.11)
  %51 = load ptr, ptr %data.addr, align 8
  %52 = load i64, ptr %i, align 8
  %call56 = call noundef nonnull align 1 dereferenceable(1) ptr @_ZNSt7__cxx1112basic_stringIcSt11char_traitsIcESaIcEEixEm(ptr noundef nonnull align 8 dereferenceable(32) %51, i64 noundef %52)
  %53 = load i8, ptr %call56, align 1
  %54 = load ptr, ptr %data.addr, align 8
  %55 = load i64, ptr %j, align 8
  %call57 = call noundef nonnull align 1 dereferenceable(1) ptr @_ZNSt7__cxx1112basic_stringIcSt11char_traitsIcESaIcEEixEm(ptr noundef nonnull align 8 dereferenceable(32) %54, i64 noundef %55)
  store i8 %53, ptr %call57, align 1
  br label %if.end58

if.end58:                                         ; preds = %if.else54, %if.end53
  br label %if.end59

if.end59:                                         ; preds = %if.end58, %if.then
  %56 = load i64, ptr %i, align 8
  %inc60 = add i64 %56, 1
  store i64 %inc60, ptr %i, align 8
  %57 = load i64, ptr %j, align 8
  %inc61 = add i64 %57, 1
  store i64 %inc61, ptr %j, align 8
  br label %while.cond, !llvm.loop !17

while.end:                                        ; preds = %while.cond
  %58 = load ptr, ptr %data.addr, align 8
  %59 = load i64, ptr %j, align 8
  call void @_ZNSt7__cxx1112basic_stringIcSt11char_traitsIcESaIcEE6resizeEm(ptr noundef nonnull align 8 dereferenceable(32) %58, i64 noundef %59)
  ret void

eh.resume:                                        ; preds = %ehcleanup
  %exn = load ptr, ptr %exn.slot, align 8
  %sel = load i32, ptr %ehselector.slot, align 4
  %lpad.val = insertvalue { ptr, i32 } poison, ptr %exn, 0
  %lpad.val62 = insertvalue { ptr, i32 } %lpad.val, i32 %sel, 1
  resume { ptr, i32 } %lpad.val62
}

; Function Attrs: nounwind
declare noundef i64 @_ZNKSt7__cxx1112basic_stringIcSt11char_traitsIcESaIcEE4sizeEv(ptr noundef nonnull align 8 dereferenceable(32)) #2

declare noundef nonnull align 1 dereferenceable(1) ptr @_ZNSt7__cxx1112basic_stringIcSt11char_traitsIcESaIcEEixEm(ptr noundef nonnull align 8 dereferenceable(32), i64 noundef) #4

declare void @_ZNSt7__cxx1118basic_stringstreamIcSt11char_traitsIcESaIcEEC1Ev(ptr noundef nonnull align 8 dereferenceable(128)) unnamed_addr #4

declare noundef nonnull align 8 dereferenceable(8) ptr @_ZStlsISt11char_traitsIcEERSt13basic_ostreamIcT_ES5_PKc(ptr noundef nonnull align 8 dereferenceable(8), ptr noundef) #4

declare noundef nonnull align 8 dereferenceable(8) ptr @_ZStlsISt11char_traitsIcEERSt13basic_ostreamIcT_ES5_c(ptr noundef nonnull align 8 dereferenceable(8), i8 noundef signext) #4

declare noundef nonnull align 8 dereferenceable(8) ptr @_ZNSolsEPFRSt8ios_baseS0_E(ptr noundef nonnull align 8 dereferenceable(8), ptr noundef) #4

; Function Attrs: mustprogress uwtable
define linkonce_odr noundef nonnull align 8 dereferenceable(216) ptr @_ZSt3hexRSt8ios_base(ptr noundef nonnull align 8 dereferenceable(216) %__base) #3 comdat {
entry:
  %__base.addr = alloca ptr, align 8
  store ptr %__base, ptr %__base.addr, align 8
  %0 = load ptr, ptr %__base.addr, align 8
  %call = call noundef i32 @_ZNSt8ios_base4setfESt13_Ios_FmtflagsS0_(ptr noundef nonnull align 8 dereferenceable(216) %0, i32 noundef 8, i32 noundef 74)
  %1 = load ptr, ptr %__base.addr, align 8
  ret ptr %1
}

; Function Attrs: mustprogress uwtable
define linkonce_odr void @_ZN6Assimp6Logger5errorIJNSt7__cxx1112basic_stringIcSt11char_traitsIcESaIcEEEEEEvDpOT_(ptr noundef nonnull align 8 dereferenceable(12) %this, ptr noundef nonnull align 8 dereferenceable(32) %args) #3 comdat align 2 personality ptr @__gxx_personality_v0 {
entry:
  %this.addr = alloca ptr, align 8
  %args.addr = alloca ptr, align 8
  %ref.tmp = alloca %"class.std::__cxx11::basic_string", align 8
  %agg.tmp = alloca %"class.Assimp::Formatter::basic_formatter", align 8
  %exn.slot = alloca ptr, align 8
  %ehselector.slot = alloca i32, align 4
  store ptr %this, ptr %this.addr, align 8
  store ptr %args, ptr %args.addr, align 8
  %this1 = load ptr, ptr %this.addr, align 8
  %0 = load ptr, ptr %args.addr, align 8
  call void @_ZN6Assimp9Formatter15basic_formatterIcSt11char_traitsIcESaIcEEC2INSt7__cxx1112basic_stringIcS3_S4_EEEERKT_(ptr noundef nonnull align 8 dereferenceable(376) %agg.tmp, ptr noundef nonnull align 8 dereferenceable(32) %0)
  invoke void @_ZN6Assimp6Logger13formatMessageB5cxx11ENS_9Formatter15basic_formatterIcSt11char_traitsIcESaIcEEE(ptr sret(%"class.std::__cxx11::basic_string") align 8 %ref.tmp, ptr noundef nonnull align 8 dereferenceable(12) %this1, ptr noundef %agg.tmp)
          to label %invoke.cont unwind label %lpad

invoke.cont:                                      ; preds = %entry
  %call = call noundef ptr @_ZNKSt7__cxx1112basic_stringIcSt11char_traitsIcESaIcEE5c_strEv(ptr noundef nonnull align 8 dereferenceable(32) %ref.tmp) #13
  invoke void @_ZN6Assimp6Logger5errorEPKc(ptr noundef nonnull align 8 dereferenceable(12) %this1, ptr noundef %call)
          to label %invoke.cont3 unwind label %lpad2

invoke.cont3:                                     ; preds = %invoke.cont
  call void @_ZNSt7__cxx1112basic_stringIcSt11char_traitsIcESaIcEED1Ev(ptr noundef nonnull align 8 dereferenceable(32) %ref.tmp) #13
  call void @_ZN6Assimp9Formatter15basic_formatterIcSt11char_traitsIcESaIcEED2Ev(ptr noundef nonnull align 8 dereferenceable(376) %agg.tmp) #13
  ret void

lpad:                                             ; preds = %entry
  %1 = landingpad { ptr, i32 }
          cleanup
  %2 = extractvalue { ptr, i32 } %1, 0
  store ptr %2, ptr %exn.slot, align 8
  %3 = extractvalue { ptr, i32 } %1, 1
  store i32 %3, ptr %ehselector.slot, align 4
  br label %ehcleanup

lpad2:                                            ; preds = %invoke.cont
  %4 = landingpad { ptr, i32 }
          cleanup
  %5 = extractvalue { ptr, i32 } %4, 0
  store ptr %5, ptr %exn.slot, align 8
  %6 = extractvalue { ptr, i32 } %4, 1
  store i32 %6, ptr %ehselector.slot, align 4
  call void @_ZNSt7__cxx1112basic_stringIcSt11char_traitsIcESaIcEED1Ev(ptr noundef nonnull align 8 dereferenceable(32) %ref.tmp) #13
  br label %ehcleanup

ehcleanup:                                        ; preds = %lpad2, %lpad
  call void @_ZN6Assimp9Formatter15basic_formatterIcSt11char_traitsIcESaIcEED2Ev(ptr noundef nonnull align 8 dereferenceable(376) %agg.tmp) #13
  br label %eh.resume

eh.resume:                                        ; preds = %ehcleanup
  %exn = load ptr, ptr %exn.slot, align 8
  %sel = load i32, ptr %ehselector.slot, align 4
  %lpad.val = insertvalue { ptr, i32 } poison, ptr %exn, 0
  %lpad.val4 = insertvalue { ptr, i32 } %lpad.val, i32 %sel, 1
  resume { ptr, i32 } %lpad.val4
}

declare void @_ZNKSt7__cxx1118basic_stringstreamIcSt11char_traitsIcESaIcEE3strEv(ptr sret(%"class.std::__cxx11::basic_string") align 8, ptr noundef nonnull align 8 dereferenceable(128)) #4

; Function Attrs: nounwind
declare void @_ZNSt7__cxx1118basic_stringstreamIcSt11char_traitsIcESaIcEED1Ev(ptr noundef nonnull align 8 dereferenceable(128)) unnamed_addr #2

declare void @_ZNSt7__cxx1112basic_stringIcSt11char_traitsIcESaIcEE6resizeEm(ptr noundef nonnull align 8 dereferenceable(32), i64 noundef) #4

; Function Attrs: mustprogress uwtable
define void @_ZN6Assimp12BaseImporter16TextFileToBufferEPNS_8IOStreamERSt6vectorIcSaIcEENS0_12TextFileModeE(ptr noundef %stream, ptr noundef nonnull align 8 dereferenceable(24) %data, i32 noundef %mode) #3 align 2 personality ptr @__gxx_personality_v0 {
entry:
  %stream.addr = alloca ptr, align 8
  %data.addr = alloca ptr, align 8
  %mode.addr = alloca i32, align 4
  %fileSize = alloca i64, align 8
  %exn.slot = alloca ptr, align 8
  %ehselector.slot = alloca i32, align 4
  %ref.tmp = alloca i8, align 1
  store ptr %stream, ptr %stream.addr, align 8
  store ptr %data, ptr %data.addr, align 8
  store i32 %mode, ptr %mode.addr, align 4
  %0 = load ptr, ptr %stream.addr, align 8
  %vtable = load ptr, ptr %0, align 8
  %vfn = getelementptr inbounds ptr, ptr %vtable, i64 6
  %1 = load ptr, ptr %vfn, align 8
  %call = call noundef i64 %1(ptr noundef nonnull align 8 dereferenceable(8) %0)
  store i64 %call, ptr %fileSize, align 8
  %2 = load i32, ptr %mode.addr, align 4
  %cmp = icmp eq i32 %2, 1
  br i1 %cmp, label %if.then, label %if.end2

if.then:                                          ; preds = %entry
  %3 = load i64, ptr %fileSize, align 8
  %tobool = icmp ne i64 %3, 0
  br i1 %tobool, label %if.end, label %if.then1

if.then1:                                         ; preds = %if.then
  %exception = call ptr @__cxa_allocate_exception(i64 16) #13
  invoke void @_ZN17DeadlyImportErrorC2EPKc(ptr noundef nonnull align 8 dereferenceable(16) %exception, ptr noundef @.str.12)
          to label %invoke.cont unwind label %lpad

invoke.cont:                                      ; preds = %if.then1
  call void @__cxa_throw(ptr %exception, ptr @_ZTI17DeadlyImportError, ptr @_ZN17DeadlyImportErrorD2Ev) #18
  unreachable

lpad:                                             ; preds = %if.then1
  %4 = landingpad { ptr, i32 }
          cleanup
  %5 = extractvalue { ptr, i32 } %4, 0
  store ptr %5, ptr %exn.slot, align 8
  %6 = extractvalue { ptr, i32 } %4, 1
  store i32 %6, ptr %ehselector.slot, align 4
  call void @__cxa_free_exception(ptr %exception) #13
  br label %eh.resume

if.end:                                           ; preds = %if.then
  br label %if.end2

if.end2:                                          ; preds = %if.end, %entry
  %7 = load ptr, ptr %data.addr, align 8
  %8 = load i64, ptr %fileSize, align 8
  %add = add i64 %8, 1
  call void @_ZNSt6vectorIcSaIcEE7reserveEm(ptr noundef nonnull align 8 dereferenceable(24) %7, i64 noundef %add)
  %9 = load ptr, ptr %data.addr, align 8
  %10 = load i64, ptr %fileSize, align 8
  call void @_ZNSt6vectorIcSaIcEE6resizeEm(ptr noundef nonnull align 8 dereferenceable(24) %9, i64 noundef %10)
  %11 = load i64, ptr %fileSize, align 8
  %cmp3 = icmp ugt i64 %11, 0
  br i1 %cmp3, label %if.then4, label %if.end15

if.then4:                                         ; preds = %if.end2
  %12 = load i64, ptr %fileSize, align 8
  %13 = load ptr, ptr %stream.addr, align 8
  %14 = load ptr, ptr %data.addr, align 8
  %call5 = call noundef nonnull align 1 dereferenceable(1) ptr @_ZNSt6vectorIcSaIcEEixEm(ptr noundef nonnull align 8 dereferenceable(24) %14, i64 noundef 0) #13
  %15 = load i64, ptr %fileSize, align 8
  %vtable6 = load ptr, ptr %13, align 8
  %vfn7 = getelementptr inbounds ptr, ptr %vtable6, i64 2
  %16 = load ptr, ptr %vfn7, align 8
  %call8 = call noundef i64 %16(ptr noundef nonnull align 8 dereferenceable(8) %13, ptr noundef %call5, i64 noundef 1, i64 noundef %15)
  %cmp9 = icmp ne i64 %12, %call8
  br i1 %cmp9, label %if.then10, label %if.end14

if.then10:                                        ; preds = %if.then4
  %exception11 = call ptr @__cxa_allocate_exception(i64 16) #13
  invoke void @_ZN17DeadlyImportErrorC2EPKc(ptr noundef nonnull align 8 dereferenceable(16) %exception11, ptr noundef @.str.13)
          to label %invoke.cont13 unwind label %lpad12

invoke.cont13:                                    ; preds = %if.then10
  call void @__cxa_throw(ptr %exception11, ptr @_ZTI17DeadlyImportError, ptr @_ZN17DeadlyImportErrorD2Ev) #18
  unreachable

lpad12:                                           ; preds = %if.then10
  %17 = landingpad { ptr, i32 }
          cleanup
  %18 = extractvalue { ptr, i32 } %17, 0
  store ptr %18, ptr %exn.slot, align 8
  %19 = extractvalue { ptr, i32 } %17, 1
  store i32 %19, ptr %ehselector.slot, align 4
  call void @__cxa_free_exception(ptr %exception11) #13
  br label %eh.resume

if.end14:                                         ; preds = %if.then4
  %20 = load ptr, ptr %data.addr, align 8
  call void @_ZN6Assimp12BaseImporter13ConvertToUTF8ERSt6vectorIcSaIcEE(ptr noundef nonnull align 8 dereferenceable(24) %20)
  br label %if.end15

if.end15:                                         ; preds = %if.end14, %if.end2
  %21 = load ptr, ptr %data.addr, align 8
  store i8 0, ptr %ref.tmp, align 1
  call void @_ZNSt6vectorIcSaIcEE9push_backEOc(ptr noundef nonnull align 8 dereferenceable(24) %21, ptr noundef nonnull align 1 dereferenceable(1) %ref.tmp)
  ret void

eh.resume:                                        ; preds = %lpad12, %lpad
  %exn = load ptr, ptr %exn.slot, align 8
  %sel = load i32, ptr %ehselector.slot, align 4
  %lpad.val = insertvalue { ptr, i32 } poison, ptr %exn, 0
  %lpad.val16 = insertvalue { ptr, i32 } %lpad.val, i32 %sel, 1
  resume { ptr, i32 } %lpad.val16
}

; Function Attrs: mustprogress uwtable
define linkonce_odr void @_ZNSt6vectorIcSaIcEE7reserveEm(ptr noundef nonnull align 8 dereferenceable(24) %this, i64 noundef %__n) #3 comdat align 2 {
entry:
  %this.addr = alloca ptr, align 8
  %__n.addr = alloca i64, align 8
  %__old_size = alloca i64, align 8
  %__tmp = alloca ptr, align 8
  store ptr %this, ptr %this.addr, align 8
  store i64 %__n, ptr %__n.addr, align 8
  %this1 = load ptr, ptr %this.addr, align 8
  %0 = load i64, ptr %__n.addr, align 8
  %call = call noundef i64 @_ZNKSt6vectorIcSaIcEE8max_sizeEv(ptr noundef nonnull align 8 dereferenceable(24) %this1) #13
  %cmp = icmp ugt i64 %0, %call
  br i1 %cmp, label %if.then, label %if.end

if.then:                                          ; preds = %entry
  call void @_ZSt20__throw_length_errorPKc(ptr noundef @.str.27) #18
  unreachable

if.end:                                           ; preds = %entry
  %call2 = call noundef i64 @_ZNKSt6vectorIcSaIcEE8capacityEv(ptr noundef nonnull align 8 dereferenceable(24) %this1) #13
  %1 = load i64, ptr %__n.addr, align 8
  %cmp3 = icmp ult i64 %call2, %1
  br i1 %cmp3, label %if.then4, label %if.end24

if.then4:                                         ; preds = %if.end
  %call5 = call noundef i64 @_ZNKSt6vectorIcSaIcEE4sizeEv(ptr noundef nonnull align 8 dereferenceable(24) %this1) #13
  store i64 %call5, ptr %__old_size, align 8
  %2 = load i64, ptr %__n.addr, align 8
  %call6 = call noundef ptr @_ZNSt12_Vector_baseIcSaIcEE11_M_allocateEm(ptr noundef nonnull align 8 dereferenceable(24) %this1, i64 noundef %2)
  store ptr %call6, ptr %__tmp, align 8
  %_M_impl = getelementptr inbounds %"struct.std::_Vector_base.26", ptr %this1, i32 0, i32 0
  %_M_start = getelementptr inbounds %"struct.std::_Vector_base<char, std::allocator<char>>::_Vector_impl_data", ptr %_M_impl, i32 0, i32 0
  %3 = load ptr, ptr %_M_start, align 8
  %_M_impl7 = getelementptr inbounds %"struct.std::_Vector_base.26", ptr %this1, i32 0, i32 0
  %_M_finish = getelementptr inbounds %"struct.std::_Vector_base<char, std::allocator<char>>::_Vector_impl_data", ptr %_M_impl7, i32 0, i32 1
  %4 = load ptr, ptr %_M_finish, align 8
  %5 = load ptr, ptr %__tmp, align 8
  %call8 = call noundef nonnull align 1 dereferenceable(1) ptr @_ZNSt12_Vector_baseIcSaIcEE19_M_get_Tp_allocatorEv(ptr noundef nonnull align 8 dereferenceable(24) %this1) #13
  %call9 = call noundef ptr @_ZNSt6vectorIcSaIcEE11_S_relocateEPcS2_S2_RS0_(ptr noundef %3, ptr noundef %4, ptr noundef %5, ptr noundef nonnull align 1 dereferenceable(1) %call8) #13
  %_M_impl10 = getelementptr inbounds %"struct.std::_Vector_base.26", ptr %this1, i32 0, i32 0
  %_M_start11 = getelementptr inbounds %"struct.std::_Vector_base<char, std::allocator<char>>::_Vector_impl_data", ptr %_M_impl10, i32 0, i32 0
  %6 = load ptr, ptr %_M_start11, align 8
  %_M_impl12 = getelementptr inbounds %"struct.std::_Vector_base.26", ptr %this1, i32 0, i32 0
  %_M_end_of_storage = getelementptr inbounds %"struct.std::_Vector_base<char, std::allocator<char>>::_Vector_impl_data", ptr %_M_impl12, i32 0, i32 2
  %7 = load ptr, ptr %_M_end_of_storage, align 8
  %_M_impl13 = getelementptr inbounds %"struct.std::_Vector_base.26", ptr %this1, i32 0, i32 0
  %_M_start14 = getelementptr inbounds %"struct.std::_Vector_base<char, std::allocator<char>>::_Vector_impl_data", ptr %_M_impl13, i32 0, i32 0
  %8 = load ptr, ptr %_M_start14, align 8
  %sub.ptr.lhs.cast = ptrtoint ptr %7 to i64
  %sub.ptr.rhs.cast = ptrtoint ptr %8 to i64
  %sub.ptr.sub = sub i64 %sub.ptr.lhs.cast, %sub.ptr.rhs.cast
  call void @_ZNSt12_Vector_baseIcSaIcEE13_M_deallocateEPcm(ptr noundef nonnull align 8 dereferenceable(24) %this1, ptr noundef %6, i64 noundef %sub.ptr.sub)
  %9 = load ptr, ptr %__tmp, align 8
  %_M_impl15 = getelementptr inbounds %"struct.std::_Vector_base.26", ptr %this1, i32 0, i32 0
  %_M_start16 = getelementptr inbounds %"struct.std::_Vector_base<char, std::allocator<char>>::_Vector_impl_data", ptr %_M_impl15, i32 0, i32 0
  store ptr %9, ptr %_M_start16, align 8
  %10 = load ptr, ptr %__tmp, align 8
  %11 = load i64, ptr %__old_size, align 8
  %add.ptr = getelementptr inbounds i8, ptr %10, i64 %11
  %_M_impl17 = getelementptr inbounds %"struct.std::_Vector_base.26", ptr %this1, i32 0, i32 0
  %_M_finish18 = getelementptr inbounds %"struct.std::_Vector_base<char, std::allocator<char>>::_Vector_impl_data", ptr %_M_impl17, i32 0, i32 1
  store ptr %add.ptr, ptr %_M_finish18, align 8
  %_M_impl19 = getelementptr inbounds %"struct.std::_Vector_base.26", ptr %this1, i32 0, i32 0
  %_M_start20 = getelementptr inbounds %"struct.std::_Vector_base<char, std::allocator<char>>::_Vector_impl_data", ptr %_M_impl19, i32 0, i32 0
  %12 = load ptr, ptr %_M_start20, align 8
  %13 = load i64, ptr %__n.addr, align 8
  %add.ptr21 = getelementptr inbounds i8, ptr %12, i64 %13
  %_M_impl22 = getelementptr inbounds %"struct.std::_Vector_base.26", ptr %this1, i32 0, i32 0
  %_M_end_of_storage23 = getelementptr inbounds %"struct.std::_Vector_base<char, std::allocator<char>>::_Vector_impl_data", ptr %_M_impl22, i32 0, i32 2
  store ptr %add.ptr21, ptr %_M_end_of_storage23, align 8
  br label %if.end24

if.end24:                                         ; preds = %if.then4, %if.end
  ret void
}

; Function Attrs: mustprogress uwtable
define linkonce_odr void @_ZNSt6vectorIcSaIcEE9push_backEOc(ptr noundef nonnull align 8 dereferenceable(24) %this, ptr noundef nonnull align 1 dereferenceable(1) %__x) #3 comdat align 2 {
entry:
  %this.addr = alloca ptr, align 8
  %__x.addr = alloca ptr, align 8
  store ptr %this, ptr %this.addr, align 8
  store ptr %__x, ptr %__x.addr, align 8
  %this1 = load ptr, ptr %this.addr, align 8
  %0 = load ptr, ptr %__x.addr, align 8
  %call = call noundef nonnull align 1 dereferenceable(1) ptr @_ZNSt6vectorIcSaIcEE12emplace_backIJcEEERcDpOT_(ptr noundef nonnull align 8 dereferenceable(24) %this1, ptr noundef nonnull align 1 dereferenceable(1) %0)
  ret void
}

; Function Attrs: mustprogress uwtable
define void @_ZN6Assimp11BatchLoaderC2EPNS_8IOSystemEb(ptr noundef nonnull align 8 dereferenceable(8) %this, ptr noundef %pIO, i1 noundef zeroext %validate) unnamed_addr #3 align 2 personality ptr @__gxx_personality_v0 {
entry:
  %this.addr = alloca ptr, align 8
  %pIO.addr = alloca ptr, align 8
  %validate.addr = alloca i8, align 1
  %exn.slot = alloca ptr, align 8
  %ehselector.slot = alloca i32, align 4
  store ptr %this, ptr %this.addr, align 8
  store ptr %pIO, ptr %pIO.addr, align 8
  %frombool = zext i1 %validate to i8
  store i8 %frombool, ptr %validate.addr, align 1
  %this1 = load ptr, ptr %this.addr, align 8
  %call = call noalias noundef nonnull ptr @_Znwm(i64 noundef 80) #15
  %0 = load ptr, ptr %pIO.addr, align 8
  %1 = load i8, ptr %validate.addr, align 1
  %tobool = trunc i8 %1 to i1
  invoke void @_ZN6Assimp9BatchDataC2EPNS_8IOSystemEb(ptr noundef nonnull align 8 dereferenceable(77) %call, ptr noundef %0, i1 noundef zeroext %tobool)
          to label %invoke.cont unwind label %lpad

invoke.cont:                                      ; preds = %entry
  %m_data = getelementptr inbounds %"class.Assimp::BatchLoader", ptr %this1, i32 0, i32 0
  store ptr %call, ptr %m_data, align 8
  ret void

lpad:                                             ; preds = %entry
  %2 = landingpad { ptr, i32 }
          cleanup
  %3 = extractvalue { ptr, i32 } %2, 0
  store ptr %3, ptr %exn.slot, align 8
  %4 = extractvalue { ptr, i32 } %2, 1
  store i32 %4, ptr %ehselector.slot, align 4
  call void @_ZdlPv(ptr noundef %call) #16
  br label %eh.resume

eh.resume:                                        ; preds = %lpad
  %exn = load ptr, ptr %exn.slot, align 8
  %sel = load i32, ptr %ehselector.slot, align 4
  %lpad.val = insertvalue { ptr, i32 } poison, ptr %exn, 0
  %lpad.val2 = insertvalue { ptr, i32 } %lpad.val, i32 %sel, 1
  resume { ptr, i32 } %lpad.val2
}

; Function Attrs: mustprogress uwtable
define linkonce_odr hidden void @_ZN6Assimp9BatchDataC2EPNS_8IOSystemEb(ptr noundef nonnull align 8 dereferenceable(77) %this, ptr noundef %pIO, i1 noundef zeroext %validate) unnamed_addr #3 comdat align 2 personality ptr @__gxx_personality_v0 {
entry:
  %this.addr = alloca ptr, align 8
  %pIO.addr = alloca ptr, align 8
  %validate.addr = alloca i8, align 1
  %exn.slot = alloca ptr, align 8
  %ehselector.slot = alloca i32, align 4
  store ptr %this, ptr %this.addr, align 8
  store ptr %pIO, ptr %pIO.addr, align 8
  %frombool = zext i1 %validate to i8
  store i8 %frombool, ptr %validate.addr, align 1
  %this1 = load ptr, ptr %this.addr, align 8
  %pIOSystem = getelementptr inbounds %"struct.Assimp::BatchData", ptr %this1, i32 0, i32 0
  %0 = load ptr, ptr %pIO.addr, align 8
  store ptr %0, ptr %pIOSystem, align 8
  %pImporter = getelementptr inbounds %"struct.Assimp::BatchData", ptr %this1, i32 0, i32 1
  store ptr null, ptr %pImporter, align 8
  %requests = getelementptr inbounds %"struct.Assimp::BatchData", ptr %this1, i32 0, i32 2
  call void @_ZNSt7__cxx114listIN6Assimp11LoadRequestESaIS2_EEC2Ev(ptr noundef nonnull align 8 dereferenceable(24) %requests) #13
  %pathBase = getelementptr inbounds %"struct.Assimp::BatchData", ptr %this1, i32 0, i32 3
  call void @_ZNSt7__cxx1112basic_stringIcSt11char_traitsIcESaIcEEC1Ev(ptr noundef nonnull align 8 dereferenceable(32) %pathBase) #13
  %next_id = getelementptr inbounds %"struct.Assimp::BatchData", ptr %this1, i32 0, i32 4
  store i32 65535, ptr %next_id, align 8
  %validate2 = getelementptr inbounds %"struct.Assimp::BatchData", ptr %this1, i32 0, i32 5
  %1 = load i8, ptr %validate.addr, align 1
  %tobool = trunc i8 %1 to i1
  %frombool3 = zext i1 %tobool to i8
  store i8 %frombool3, ptr %validate2, align 4
  %call = invoke noalias noundef nonnull ptr @_Znwm(i64 noundef 8) #15
          to label %invoke.cont unwind label %lpad

invoke.cont:                                      ; preds = %entry
  invoke void @_ZN6Assimp8ImporterC1Ev(ptr noundef nonnull align 8 dereferenceable(8) %call)
          to label %invoke.cont5 unwind label %lpad4

invoke.cont5:                                     ; preds = %invoke.cont
  %pImporter6 = getelementptr inbounds %"struct.Assimp::BatchData", ptr %this1, i32 0, i32 1
  store ptr %call, ptr %pImporter6, align 8
  %pImporter7 = getelementptr inbounds %"struct.Assimp::BatchData", ptr %this1, i32 0, i32 1
  %2 = load ptr, ptr %pImporter7, align 8
  %3 = load ptr, ptr %pIO.addr, align 8
  invoke void @_ZN6Assimp8Importer12SetIOHandlerEPNS_8IOSystemE(ptr noundef nonnull align 8 dereferenceable(8) %2, ptr noundef %3)
          to label %invoke.cont8 unwind label %lpad

invoke.cont8:                                     ; preds = %invoke.cont5
  ret void

lpad:                                             ; preds = %invoke.cont5, %entry
  %4 = landingpad { ptr, i32 }
          cleanup
  %5 = extractvalue { ptr, i32 } %4, 0
  store ptr %5, ptr %exn.slot, align 8
  %6 = extractvalue { ptr, i32 } %4, 1
  store i32 %6, ptr %ehselector.slot, align 4
  br label %ehcleanup

lpad4:                                            ; preds = %invoke.cont
  %7 = landingpad { ptr, i32 }
          cleanup
  %8 = extractvalue { ptr, i32 } %7, 0
  store ptr %8, ptr %exn.slot, align 8
  %9 = extractvalue { ptr, i32 } %7, 1
  store i32 %9, ptr %ehselector.slot, align 4
  call void @_ZdlPv(ptr noundef %call) #16
  br label %ehcleanup

ehcleanup:                                        ; preds = %lpad4, %lpad
  call void @_ZNSt7__cxx1112basic_stringIcSt11char_traitsIcESaIcEED1Ev(ptr noundef nonnull align 8 dereferenceable(32) %pathBase) #13
  call void @_ZNSt7__cxx114listIN6Assimp11LoadRequestESaIS2_EED2Ev(ptr noundef nonnull align 8 dereferenceable(24) %requests) #13
  br label %eh.resume

eh.resume:                                        ; preds = %ehcleanup
  %exn = load ptr, ptr %exn.slot, align 8
  %sel = load i32, ptr %ehselector.slot, align 4
  %lpad.val = insertvalue { ptr, i32 } poison, ptr %exn, 0
  %lpad.val10 = insertvalue { ptr, i32 } %lpad.val, i32 %sel, 1
  resume { ptr, i32 } %lpad.val10
}

; Function Attrs: mustprogress nounwind uwtable
define void @_ZN6Assimp11BatchLoaderD2Ev(ptr noundef nonnull align 8 dereferenceable(8) %this) unnamed_addr #0 align 2 {
entry:
  %this.addr = alloca ptr, align 8
  %it = alloca %"struct.std::_List_iterator", align 8
  %ref.tmp = alloca %"struct.std::_List_iterator", align 8
  store ptr %this, ptr %this.addr, align 8
  %this1 = load ptr, ptr %this.addr, align 8
  %m_data = getelementptr inbounds %"class.Assimp::BatchLoader", ptr %this1, i32 0, i32 0
  %0 = load ptr, ptr %m_data, align 8
  %requests = getelementptr inbounds %"struct.Assimp::BatchData", ptr %0, i32 0, i32 2
  %call = call ptr @_ZNSt7__cxx114listIN6Assimp11LoadRequestESaIS2_EE5beginEv(ptr noundef nonnull align 8 dereferenceable(24) %requests) #13
  %coerce.dive = getelementptr inbounds %"struct.std::_List_iterator", ptr %it, i32 0, i32 0
  store ptr %call, ptr %coerce.dive, align 8
  br label %for.cond

for.cond:                                         ; preds = %for.inc, %entry
  %m_data2 = getelementptr inbounds %"class.Assimp::BatchLoader", ptr %this1, i32 0, i32 0
  %1 = load ptr, ptr %m_data2, align 8
  %requests3 = getelementptr inbounds %"struct.Assimp::BatchData", ptr %1, i32 0, i32 2
  %call4 = call ptr @_ZNSt7__cxx114listIN6Assimp11LoadRequestESaIS2_EE3endEv(ptr noundef nonnull align 8 dereferenceable(24) %requests3) #13
  %coerce.dive5 = getelementptr inbounds %"struct.std::_List_iterator", ptr %ref.tmp, i32 0, i32 0
  store ptr %call4, ptr %coerce.dive5, align 8
  %call6 = call noundef zeroext i1 @_ZStneRKSt14_List_iteratorIN6Assimp11LoadRequestEES4_(ptr noundef nonnull align 8 dereferenceable(8) %it, ptr noundef nonnull align 8 dereferenceable(8) %ref.tmp) #13
  br i1 %call6, label %for.body, label %for.end

for.body:                                         ; preds = %for.cond
  %call7 = call noundef nonnull align 8 dereferenceable(252) ptr @_ZNKSt14_List_iteratorIN6Assimp11LoadRequestEEdeEv(ptr noundef nonnull align 8 dereferenceable(8) %it) #13
  %scene = getelementptr inbounds %"struct.Assimp::LoadRequest", ptr %call7, i32 0, i32 3
  %2 = load ptr, ptr %scene, align 8
  %isnull = icmp eq ptr %2, null
  br i1 %isnull, label %delete.end, label %delete.notnull

delete.notnull:                                   ; preds = %for.body
  call void @_ZN7aiSceneD1Ev(ptr noundef nonnull align 8 dereferenceable(1168) %2) #13
  call void @_ZdlPv(ptr noundef %2) #16
  br label %delete.end

delete.end:                                       ; preds = %delete.notnull, %for.body
  br label %for.inc

for.inc:                                          ; preds = %delete.end
  %call8 = call noundef nonnull align 8 dereferenceable(8) ptr @_ZNSt14_List_iteratorIN6Assimp11LoadRequestEEppEv(ptr noundef nonnull align 8 dereferenceable(8) %it) #13
  br label %for.cond, !llvm.loop !18

for.end:                                          ; preds = %for.cond
  %m_data9 = getelementptr inbounds %"class.Assimp::BatchLoader", ptr %this1, i32 0, i32 0
  %3 = load ptr, ptr %m_data9, align 8
  %isnull10 = icmp eq ptr %3, null
  br i1 %isnull10, label %delete.end12, label %delete.notnull11

delete.notnull11:                                 ; preds = %for.end
  call void @_ZN6Assimp9BatchDataD2Ev(ptr noundef nonnull align 8 dereferenceable(77) %3) #13
  call void @_ZdlPv(ptr noundef %3) #16
  br label %delete.end12

delete.end12:                                     ; preds = %delete.notnull11, %for.end
  ret void
}

; Function Attrs: mustprogress nounwind uwtable
define linkonce_odr hidden ptr @_ZNSt7__cxx114listIN6Assimp11LoadRequestESaIS2_EE5beginEv(ptr noundef nonnull align 8 dereferenceable(24) %this) #0 comdat align 2 {
entry:
  %retval = alloca %"struct.std::_List_iterator", align 8
  %this.addr = alloca ptr, align 8
  store ptr %this, ptr %this.addr, align 8
  %this1 = load ptr, ptr %this.addr, align 8
  %_M_impl = getelementptr inbounds %"class.std::__cxx11::_List_base", ptr %this1, i32 0, i32 0
  %_M_node = getelementptr inbounds %"struct.std::__cxx11::_List_base<Assimp::LoadRequest, std::allocator<Assimp::LoadRequest>>::_List_impl", ptr %_M_impl, i32 0, i32 0
  %_M_next = getelementptr inbounds %"struct.std::__detail::_List_node_base", ptr %_M_node, i32 0, i32 0
  %0 = load ptr, ptr %_M_next, align 8
  call void @_ZNSt14_List_iteratorIN6Assimp11LoadRequestEEC2EPNSt8__detail15_List_node_baseE(ptr noundef nonnull align 8 dereferenceable(8) %retval, ptr noundef %0) #13
  %coerce.dive = getelementptr inbounds %"struct.std::_List_iterator", ptr %retval, i32 0, i32 0
  %1 = load ptr, ptr %coerce.dive, align 8
  ret ptr %1
}

; Function Attrs: mustprogress nounwind uwtable
define linkonce_odr noundef zeroext i1 @_ZStneRKSt14_List_iteratorIN6Assimp11LoadRequestEES4_(ptr noundef nonnull align 8 dereferenceable(8) %__x, ptr noundef nonnull align 8 dereferenceable(8) %__y) #0 comdat {
entry:
  %__x.addr = alloca ptr, align 8
  %__y.addr = alloca ptr, align 8
  store ptr %__x, ptr %__x.addr, align 8
  store ptr %__y, ptr %__y.addr, align 8
  %0 = load ptr, ptr %__x.addr, align 8
  %_M_node = getelementptr inbounds %"struct.std::_List_iterator", ptr %0, i32 0, i32 0
  %1 = load ptr, ptr %_M_node, align 8
  %2 = load ptr, ptr %__y.addr, align 8
  %_M_node1 = getelementptr inbounds %"struct.std::_List_iterator", ptr %2, i32 0, i32 0
  %3 = load ptr, ptr %_M_node1, align 8
  %cmp = icmp ne ptr %1, %3
  ret i1 %cmp
}

; Function Attrs: mustprogress nounwind uwtable
define linkonce_odr hidden ptr @_ZNSt7__cxx114listIN6Assimp11LoadRequestESaIS2_EE3endEv(ptr noundef nonnull align 8 dereferenceable(24) %this) #0 comdat align 2 {
entry:
  %retval = alloca %"struct.std::_List_iterator", align 8
  %this.addr = alloca ptr, align 8
  store ptr %this, ptr %this.addr, align 8
  %this1 = load ptr, ptr %this.addr, align 8
  %_M_impl = getelementptr inbounds %"class.std::__cxx11::_List_base", ptr %this1, i32 0, i32 0
  %_M_node = getelementptr inbounds %"struct.std::__cxx11::_List_base<Assimp::LoadRequest, std::allocator<Assimp::LoadRequest>>::_List_impl", ptr %_M_impl, i32 0, i32 0
  call void @_ZNSt14_List_iteratorIN6Assimp11LoadRequestEEC2EPNSt8__detail15_List_node_baseE(ptr noundef nonnull align 8 dereferenceable(8) %retval, ptr noundef %_M_node) #13
  %coerce.dive = getelementptr inbounds %"struct.std::_List_iterator", ptr %retval, i32 0, i32 0
  %0 = load ptr, ptr %coerce.dive, align 8
  ret ptr %0
}

; Function Attrs: mustprogress nounwind uwtable
define linkonce_odr hidden noundef nonnull align 8 dereferenceable(252) ptr @_ZNKSt14_List_iteratorIN6Assimp11LoadRequestEEdeEv(ptr noundef nonnull align 8 dereferenceable(8) %this) #0 comdat align 2 {
entry:
  %this.addr = alloca ptr, align 8
  store ptr %this, ptr %this.addr, align 8
  %this1 = load ptr, ptr %this.addr, align 8
  %_M_node = getelementptr inbounds %"struct.std::_List_iterator", ptr %this1, i32 0, i32 0
  %0 = load ptr, ptr %_M_node, align 8
  %call = call noundef ptr @_ZNSt10_List_nodeIN6Assimp11LoadRequestEE9_M_valptrEv(ptr noundef nonnull align 8 dereferenceable(272) %0)
  ret ptr %call
}

; Function Attrs: nounwind
declare void @_ZN7aiSceneD1Ev(ptr noundef nonnull align 8 dereferenceable(1168)) unnamed_addr #2

; Function Attrs: mustprogress nounwind uwtable
define linkonce_odr hidden noundef nonnull align 8 dereferenceable(8) ptr @_ZNSt14_List_iteratorIN6Assimp11LoadRequestEEppEv(ptr noundef nonnull align 8 dereferenceable(8) %this) #0 comdat align 2 {
entry:
  %this.addr = alloca ptr, align 8
  store ptr %this, ptr %this.addr, align 8
  %this1 = load ptr, ptr %this.addr, align 8
  %_M_node = getelementptr inbounds %"struct.std::_List_iterator", ptr %this1, i32 0, i32 0
  %0 = load ptr, ptr %_M_node, align 8
  %_M_next = getelementptr inbounds %"struct.std::__detail::_List_node_base", ptr %0, i32 0, i32 0
  %1 = load ptr, ptr %_M_next, align 8
  %_M_node2 = getelementptr inbounds %"struct.std::_List_iterator", ptr %this1, i32 0, i32 0
  store ptr %1, ptr %_M_node2, align 8
  ret ptr %this1
}

; Function Attrs: mustprogress nounwind uwtable
define linkonce_odr hidden void @_ZN6Assimp9BatchDataD2Ev(ptr noundef nonnull align 8 dereferenceable(77) %this) unnamed_addr #0 comdat align 2 personality ptr @__gxx_personality_v0 {
entry:
  %this.addr = alloca ptr, align 8
  store ptr %this, ptr %this.addr, align 8
  %this1 = load ptr, ptr %this.addr, align 8
  %pImporter = getelementptr inbounds %"struct.Assimp::BatchData", ptr %this1, i32 0, i32 1
  %0 = load ptr, ptr %pImporter, align 8
  invoke void @_ZN6Assimp8Importer12SetIOHandlerEPNS_8IOSystemE(ptr noundef nonnull align 8 dereferenceable(8) %0, ptr noundef null)
          to label %invoke.cont unwind label %terminate.lpad

invoke.cont:                                      ; preds = %entry
  %pImporter2 = getelementptr inbounds %"struct.Assimp::BatchData", ptr %this1, i32 0, i32 1
  %1 = load ptr, ptr %pImporter2, align 8
  %isnull = icmp eq ptr %1, null
  br i1 %isnull, label %delete.end, label %delete.notnull

delete.notnull:                                   ; preds = %invoke.cont
  call void @_ZN6Assimp8ImporterD1Ev(ptr noundef nonnull align 8 dereferenceable(8) %1) #13
  call void @_ZdlPv(ptr noundef %1) #16
  br label %delete.end

delete.end:                                       ; preds = %delete.notnull, %invoke.cont
  %pathBase = getelementptr inbounds %"struct.Assimp::BatchData", ptr %this1, i32 0, i32 3
  call void @_ZNSt7__cxx1112basic_stringIcSt11char_traitsIcESaIcEED1Ev(ptr noundef nonnull align 8 dereferenceable(32) %pathBase) #13
  %requests = getelementptr inbounds %"struct.Assimp::BatchData", ptr %this1, i32 0, i32 2
  call void @_ZNSt7__cxx114listIN6Assimp11LoadRequestESaIS2_EED2Ev(ptr noundef nonnull align 8 dereferenceable(24) %requests) #13
  ret void

terminate.lpad:                                   ; preds = %entry
  %2 = landingpad { ptr, i32 }
          catch ptr null
  %3 = extractvalue { ptr, i32 } %2, 0
  call void @__clang_call_terminate(ptr %3) #14
  unreachable
}

; Function Attrs: mustprogress nounwind uwtable
define void @_ZN6Assimp11BatchLoader13setValidationEb(ptr noundef nonnull align 8 dereferenceable(8) %this, i1 noundef zeroext %enabled) #0 align 2 {
entry:
  %this.addr = alloca ptr, align 8
  %enabled.addr = alloca i8, align 1
  store ptr %this, ptr %this.addr, align 8
  %frombool = zext i1 %enabled to i8
  store i8 %frombool, ptr %enabled.addr, align 1
  %this1 = load ptr, ptr %this.addr, align 8
  %0 = load i8, ptr %enabled.addr, align 1
  %tobool = trunc i8 %0 to i1
  %m_data = getelementptr inbounds %"class.Assimp::BatchLoader", ptr %this1, i32 0, i32 0
  %1 = load ptr, ptr %m_data, align 8
  %validate = getelementptr inbounds %"struct.Assimp::BatchData", ptr %1, i32 0, i32 5
  %frombool2 = zext i1 %tobool to i8
  store i8 %frombool2, ptr %validate, align 4
  ret void
}

; Function Attrs: mustprogress nounwind uwtable
define noundef zeroext i1 @_ZNK6Assimp11BatchLoader13getValidationEv(ptr noundef nonnull align 8 dereferenceable(8) %this) #0 align 2 {
entry:
  %this.addr = alloca ptr, align 8
  store ptr %this, ptr %this.addr, align 8
  %this1 = load ptr, ptr %this.addr, align 8
  %m_data = getelementptr inbounds %"class.Assimp::BatchLoader", ptr %this1, i32 0, i32 0
  %0 = load ptr, ptr %m_data, align 8
  %validate = getelementptr inbounds %"struct.Assimp::BatchData", ptr %0, i32 0, i32 5
  %1 = load i8, ptr %validate, align 4
  %tobool = trunc i8 %1 to i1
  ret i1 %tobool
}

; Function Attrs: mustprogress uwtable
define noundef i32 @_ZN6Assimp11BatchLoader14AddLoadRequestERKNSt7__cxx1112basic_stringIcSt11char_traitsIcESaIcEEEjPKNS0_11PropertyMapE(ptr noundef nonnull align 8 dereferenceable(8) %this, ptr noundef nonnull align 8 dereferenceable(32) %file, i32 noundef %steps, ptr noundef %map) #3 align 2 {
entry:
  %retval = alloca i32, align 4
  %this.addr = alloca ptr, align 8
  %file.addr = alloca ptr, align 8
  %steps.addr = alloca i32, align 4
  %map.addr = alloca ptr, align 8
  %it = alloca %"struct.std::_List_iterator", align 8
  %ref.tmp = alloca %"struct.std::_List_iterator", align 8
  store ptr %this, ptr %this.addr, align 8
  store ptr %file, ptr %file.addr, align 8
  store i32 %steps, ptr %steps.addr, align 4
  store ptr %map, ptr %map.addr, align 8
  %this1 = load ptr, ptr %this.addr, align 8
  %m_data = getelementptr inbounds %"class.Assimp::BatchLoader", ptr %this1, i32 0, i32 0
  %0 = load ptr, ptr %m_data, align 8
  %requests = getelementptr inbounds %"struct.Assimp::BatchData", ptr %0, i32 0, i32 2
  %call = call ptr @_ZNSt7__cxx114listIN6Assimp11LoadRequestESaIS2_EE5beginEv(ptr noundef nonnull align 8 dereferenceable(24) %requests) #13
  %coerce.dive = getelementptr inbounds %"struct.std::_List_iterator", ptr %it, i32 0, i32 0
  store ptr %call, ptr %coerce.dive, align 8
  br label %for.cond

for.cond:                                         ; preds = %for.inc, %entry
  %m_data2 = getelementptr inbounds %"class.Assimp::BatchLoader", ptr %this1, i32 0, i32 0
  %1 = load ptr, ptr %m_data2, align 8
  %requests3 = getelementptr inbounds %"struct.Assimp::BatchData", ptr %1, i32 0, i32 2
  %call4 = call ptr @_ZNSt7__cxx114listIN6Assimp11LoadRequestESaIS2_EE3endEv(ptr noundef nonnull align 8 dereferenceable(24) %requests3) #13
  %coerce.dive5 = getelementptr inbounds %"struct.std::_List_iterator", ptr %ref.tmp, i32 0, i32 0
  store ptr %call4, ptr %coerce.dive5, align 8
  %call6 = call noundef zeroext i1 @_ZStneRKSt14_List_iteratorIN6Assimp11LoadRequestEES4_(ptr noundef nonnull align 8 dereferenceable(8) %it, ptr noundef nonnull align 8 dereferenceable(8) %ref.tmp) #13
  br i1 %call6, label %for.body, label %for.end

for.body:                                         ; preds = %for.cond
  %m_data7 = getelementptr inbounds %"class.Assimp::BatchLoader", ptr %this1, i32 0, i32 0
  %2 = load ptr, ptr %m_data7, align 8
  %pIOSystem = getelementptr inbounds %"struct.Assimp::BatchData", ptr %2, i32 0, i32 0
  %3 = load ptr, ptr %pIOSystem, align 8
  %call8 = call noundef nonnull align 8 dereferenceable(252) ptr @_ZNKSt14_List_iteratorIN6Assimp11LoadRequestEEdeEv(ptr noundef nonnull align 8 dereferenceable(8) %it) #13
  %file9 = getelementptr inbounds %"struct.Assimp::LoadRequest", ptr %call8, i32 0, i32 0
  %4 = load ptr, ptr %file.addr, align 8
  %call10 = call noundef zeroext i1 @_ZNK6Assimp8IOSystem12ComparePathsERKNSt7__cxx1112basic_stringIcSt11char_traitsIcESaIcEEES8_(ptr noundef nonnull align 8 dereferenceable(32) %3, ptr noundef nonnull align 8 dereferenceable(32) %file9, ptr noundef nonnull align 8 dereferenceable(32) %4)
  br i1 %call10, label %if.then, label %if.end24

if.then:                                          ; preds = %for.body
  %5 = load ptr, ptr %map.addr, align 8
  %tobool = icmp ne ptr %5, null
  br i1 %tobool, label %if.then11, label %if.else

if.then11:                                        ; preds = %if.then
  %call12 = call noundef nonnull align 8 dereferenceable(252) ptr @_ZNKSt14_List_iteratorIN6Assimp11LoadRequestEEdeEv(ptr noundef nonnull align 8 dereferenceable(8) %it) #13
  %map13 = getelementptr inbounds %"struct.Assimp::LoadRequest", ptr %call12, i32 0, i32 6
  %6 = load ptr, ptr %map.addr, align 8
  %call14 = call noundef zeroext i1 @_ZNK6Assimp11BatchLoader11PropertyMapeqERKS1_(ptr noundef nonnull align 8 dereferenceable(192) %map13, ptr noundef nonnull align 8 dereferenceable(192) %6)
  br i1 %call14, label %if.end, label %if.then15

if.then15:                                        ; preds = %if.then11
  br label %for.inc

if.end:                                           ; preds = %if.then11
  br label %if.end21

if.else:                                          ; preds = %if.then
  %call16 = call noundef nonnull align 8 dereferenceable(252) ptr @_ZNKSt14_List_iteratorIN6Assimp11LoadRequestEEdeEv(ptr noundef nonnull align 8 dereferenceable(8) %it) #13
  %map17 = getelementptr inbounds %"struct.Assimp::LoadRequest", ptr %call16, i32 0, i32 6
  %call18 = call noundef zeroext i1 @_ZNK6Assimp11BatchLoader11PropertyMap5emptyEv(ptr noundef nonnull align 8 dereferenceable(192) %map17)
  br i1 %call18, label %if.end20, label %if.then19

if.then19:                                        ; preds = %if.else
  br label %for.inc

if.end20:                                         ; preds = %if.else
  br label %if.end21

if.end21:                                         ; preds = %if.end20, %if.end
  %call22 = call noundef nonnull align 8 dereferenceable(252) ptr @_ZNKSt14_List_iteratorIN6Assimp11LoadRequestEEdeEv(ptr noundef nonnull align 8 dereferenceable(8) %it) #13
  %refCnt = getelementptr inbounds %"struct.Assimp::LoadRequest", ptr %call22, i32 0, i32 2
  %7 = load i32, ptr %refCnt, align 4
  %inc = add i32 %7, 1
  store i32 %inc, ptr %refCnt, align 4
  %call23 = call noundef nonnull align 8 dereferenceable(252) ptr @_ZNKSt14_List_iteratorIN6Assimp11LoadRequestEEdeEv(ptr noundef nonnull align 8 dereferenceable(8) %it) #13
  %id = getelementptr inbounds %"struct.Assimp::LoadRequest", ptr %call23, i32 0, i32 7
  %8 = load i32, ptr %id, align 8
  store i32 %8, ptr %retval, align 4
  br label %return

if.end24:                                         ; preds = %for.body
  br label %for.inc

for.inc:                                          ; preds = %if.end24, %if.then19, %if.then15
  %call25 = call noundef nonnull align 8 dereferenceable(8) ptr @_ZNSt14_List_iteratorIN6Assimp11LoadRequestEEppEv(ptr noundef nonnull align 8 dereferenceable(8) %it) #13
  br label %for.cond, !llvm.loop !19

for.end:                                          ; preds = %for.cond
  %m_data26 = getelementptr inbounds %"class.Assimp::BatchLoader", ptr %this1, i32 0, i32 0
  %9 = load ptr, ptr %m_data26, align 8
  %requests27 = getelementptr inbounds %"struct.Assimp::BatchData", ptr %9, i32 0, i32 2
  %10 = load ptr, ptr %file.addr, align 8
  %m_data28 = getelementptr inbounds %"class.Assimp::BatchLoader", ptr %this1, i32 0, i32 0
  %11 = load ptr, ptr %m_data28, align 8
  %next_id = getelementptr inbounds %"struct.Assimp::BatchData", ptr %11, i32 0, i32 4
  %call29 = call noundef nonnull align 8 dereferenceable(252) ptr @_ZNSt7__cxx114listIN6Assimp11LoadRequestESaIS2_EE12emplace_backIJRKNS_12basic_stringIcSt11char_traitsIcESaIcEEERjRPKNS1_11BatchLoader11PropertyMapESD_EEERS2_DpOT_(ptr noundef nonnull align 8 dereferenceable(24) %requests27, ptr noundef nonnull align 8 dereferenceable(32) %10, ptr noundef nonnull align 4 dereferenceable(4) %steps.addr, ptr noundef nonnull align 8 dereferenceable(8) %map.addr, ptr noundef nonnull align 4 dereferenceable(4) %next_id)
  %m_data30 = getelementptr inbounds %"class.Assimp::BatchLoader", ptr %this1, i32 0, i32 0
  %12 = load ptr, ptr %m_data30, align 8
  %next_id31 = getelementptr inbounds %"struct.Assimp::BatchData", ptr %12, i32 0, i32 4
  %13 = load i32, ptr %next_id31, align 8
  %inc32 = add i32 %13, 1
  store i32 %inc32, ptr %next_id31, align 8
  store i32 %13, ptr %retval, align 4
  br label %return

return:                                           ; preds = %for.end, %if.end21
  %14 = load i32, ptr %retval, align 4
  ret i32 %14
}

; Function Attrs: mustprogress uwtable
define linkonce_odr noundef zeroext i1 @_ZNK6Assimp8IOSystem12ComparePathsERKNSt7__cxx1112basic_stringIcSt11char_traitsIcESaIcEEES8_(ptr noundef nonnull align 8 dereferenceable(32) %this, ptr noundef nonnull align 8 dereferenceable(32) %one, ptr noundef nonnull align 8 dereferenceable(32) %second) #3 comdat align 2 {
entry:
  %this.addr = alloca ptr, align 8
  %one.addr = alloca ptr, align 8
  %second.addr = alloca ptr, align 8
  store ptr %this, ptr %this.addr, align 8
  store ptr %one, ptr %one.addr, align 8
  store ptr %second, ptr %second.addr, align 8
  %this1 = load ptr, ptr %this.addr, align 8
  %0 = load ptr, ptr %one.addr, align 8
  %call = call noundef ptr @_ZNKSt7__cxx1112basic_stringIcSt11char_traitsIcESaIcEE5c_strEv(ptr noundef nonnull align 8 dereferenceable(32) %0) #13
  %1 = load ptr, ptr %second.addr, align 8
  %call2 = call noundef ptr @_ZNKSt7__cxx1112basic_stringIcSt11char_traitsIcESaIcEE5c_strEv(ptr noundef nonnull align 8 dereferenceable(32) %1) #13
  %vtable = load ptr, ptr %this1, align 8
  %vfn = getelementptr inbounds ptr, ptr %vtable, i64 6
  %2 = load ptr, ptr %vfn, align 8
  %call3 = call noundef zeroext i1 %2(ptr noundef nonnull align 8 dereferenceable(32) %this1, ptr noundef %call, ptr noundef %call2)
  ret i1 %call3
}

; Function Attrs: mustprogress uwtable
define linkonce_odr noundef zeroext i1 @_ZNK6Assimp11BatchLoader11PropertyMapeqERKS1_(ptr noundef nonnull align 8 dereferenceable(192) %this, ptr noundef nonnull align 8 dereferenceable(192) %prop) #3 comdat align 2 {
entry:
  %this.addr = alloca ptr, align 8
  %prop.addr = alloca ptr, align 8
  store ptr %this, ptr %this.addr, align 8
  store ptr %prop, ptr %prop.addr, align 8
  %this1 = load ptr, ptr %this.addr, align 8
  %ints = getelementptr inbounds %"struct.Assimp::BatchLoader::PropertyMap", ptr %this1, i32 0, i32 0
  %0 = load ptr, ptr %prop.addr, align 8
  %ints2 = getelementptr inbounds %"struct.Assimp::BatchLoader::PropertyMap", ptr %0, i32 0, i32 0
  %call = call noundef zeroext i1 @_ZSteqIjiSt4lessIjESaISt4pairIKjiEEEbRKSt3mapIT_T0_T1_T2_ESD_(ptr noundef nonnull align 8 dereferenceable(48) %ints, ptr noundef nonnull align 8 dereferenceable(48) %ints2)
  br i1 %call, label %land.lhs.true, label %land.end

land.lhs.true:                                    ; preds = %entry
  %floats = getelementptr inbounds %"struct.Assimp::BatchLoader::PropertyMap", ptr %this1, i32 0, i32 1
  %1 = load ptr, ptr %prop.addr, align 8
  %floats3 = getelementptr inbounds %"struct.Assimp::BatchLoader::PropertyMap", ptr %1, i32 0, i32 1
  %call4 = call noundef zeroext i1 @_ZSteqIjfSt4lessIjESaISt4pairIKjfEEEbRKSt3mapIT_T0_T1_T2_ESD_(ptr noundef nonnull align 8 dereferenceable(48) %floats, ptr noundef nonnull align 8 dereferenceable(48) %floats3)
  br i1 %call4, label %land.lhs.true5, label %land.end

land.lhs.true5:                                   ; preds = %land.lhs.true
  %strings = getelementptr inbounds %"struct.Assimp::BatchLoader::PropertyMap", ptr %this1, i32 0, i32 2
  %2 = load ptr, ptr %prop.addr, align 8
  %strings6 = getelementptr inbounds %"struct.Assimp::BatchLoader::PropertyMap", ptr %2, i32 0, i32 2
  %call7 = call noundef zeroext i1 @_ZSteqIjNSt7__cxx1112basic_stringIcSt11char_traitsIcESaIcEEESt4lessIjESaISt4pairIKjS5_EEEbRKSt3mapIT_T0_T1_T2_ESJ_(ptr noundef nonnull align 8 dereferenceable(48) %strings, ptr noundef nonnull align 8 dereferenceable(48) %strings6)
  br i1 %call7, label %land.rhs, label %land.end

land.rhs:                                         ; preds = %land.lhs.true5
  %matrices = getelementptr inbounds %"struct.Assimp::BatchLoader::PropertyMap", ptr %this1, i32 0, i32 3
  %3 = load ptr, ptr %prop.addr, align 8
  %matrices8 = getelementptr inbounds %"struct.Assimp::BatchLoader::PropertyMap", ptr %3, i32 0, i32 3
  %call9 = call noundef zeroext i1 @_ZSteqIj12aiMatrix4x4tIfESt4lessIjESaISt4pairIKjS1_EEEbRKSt3mapIT_T0_T1_T2_ESF_(ptr noundef nonnull align 8 dereferenceable(48) %matrices, ptr noundef nonnull align 8 dereferenceable(48) %matrices8)
  br label %land.end

land.end:                                         ; preds = %land.rhs, %land.lhs.true5, %land.lhs.true, %entry
  %4 = phi i1 [ false, %land.lhs.true5 ], [ false, %land.lhs.true ], [ false, %entry ], [ %call9, %land.rhs ]
  ret i1 %4
}

; Function Attrs: mustprogress nounwind uwtable
define linkonce_odr noundef zeroext i1 @_ZNK6Assimp11BatchLoader11PropertyMap5emptyEv(ptr noundef nonnull align 8 dereferenceable(192) %this) #0 comdat align 2 {
entry:
  %this.addr = alloca ptr, align 8
  store ptr %this, ptr %this.addr, align 8
  %this1 = load ptr, ptr %this.addr, align 8
  %ints = getelementptr inbounds %"struct.Assimp::BatchLoader::PropertyMap", ptr %this1, i32 0, i32 0
  %call = call noundef zeroext i1 @_ZNKSt3mapIjiSt4lessIjESaISt4pairIKjiEEE5emptyEv(ptr noundef nonnull align 8 dereferenceable(48) %ints) #13
  br i1 %call, label %land.lhs.true, label %land.end

land.lhs.true:                                    ; preds = %entry
  %floats = getelementptr inbounds %"struct.Assimp::BatchLoader::PropertyMap", ptr %this1, i32 0, i32 1
  %call2 = call noundef zeroext i1 @_ZNKSt3mapIjfSt4lessIjESaISt4pairIKjfEEE5emptyEv(ptr noundef nonnull align 8 dereferenceable(48) %floats) #13
  br i1 %call2, label %land.lhs.true3, label %land.end

land.lhs.true3:                                   ; preds = %land.lhs.true
  %strings = getelementptr inbounds %"struct.Assimp::BatchLoader::PropertyMap", ptr %this1, i32 0, i32 2
  %call4 = call noundef zeroext i1 @_ZNKSt3mapIjNSt7__cxx1112basic_stringIcSt11char_traitsIcESaIcEEESt4lessIjESaISt4pairIKjS5_EEE5emptyEv(ptr noundef nonnull align 8 dereferenceable(48) %strings) #13
  br i1 %call4, label %land.rhs, label %land.end

land.rhs:                                         ; preds = %land.lhs.true3
  %matrices = getelementptr inbounds %"struct.Assimp::BatchLoader::PropertyMap", ptr %this1, i32 0, i32 3
  %call5 = call noundef zeroext i1 @_ZNKSt3mapIj12aiMatrix4x4tIfESt4lessIjESaISt4pairIKjS1_EEE5emptyEv(ptr noundef nonnull align 8 dereferenceable(48) %matrices) #13
  br label %land.end

land.end:                                         ; preds = %land.rhs, %land.lhs.true3, %land.lhs.true, %entry
  %0 = phi i1 [ false, %land.lhs.true3 ], [ false, %land.lhs.true ], [ false, %entry ], [ %call5, %land.rhs ]
  ret i1 %0
}

; Function Attrs: mustprogress uwtable
define linkonce_odr hidden noundef nonnull align 8 dereferenceable(252) ptr @_ZNSt7__cxx114listIN6Assimp11LoadRequestESaIS2_EE12emplace_backIJRKNS_12basic_stringIcSt11char_traitsIcESaIcEEERjRPKNS1_11BatchLoader11PropertyMapESD_EEERS2_DpOT_(ptr noundef nonnull align 8 dereferenceable(24) %this, ptr noundef nonnull align 8 dereferenceable(32) %__args, ptr noundef nonnull align 4 dereferenceable(4) %__args1, ptr noundef nonnull align 8 dereferenceable(8) %__args3, ptr noundef nonnull align 4 dereferenceable(4) %__args5) #3 comdat align 2 {
entry:
  %this.addr = alloca ptr, align 8
  %__args.addr = alloca ptr, align 8
  %__args.addr2 = alloca ptr, align 8
  %__args.addr4 = alloca ptr, align 8
  %__args.addr6 = alloca ptr, align 8
  %agg.tmp = alloca %"struct.std::_List_iterator", align 8
  store ptr %this, ptr %this.addr, align 8
  store ptr %__args, ptr %__args.addr, align 8
  store ptr %__args1, ptr %__args.addr2, align 8
  store ptr %__args3, ptr %__args.addr4, align 8
  store ptr %__args5, ptr %__args.addr6, align 8
  %this7 = load ptr, ptr %this.addr, align 8
  %call = call ptr @_ZNSt7__cxx114listIN6Assimp11LoadRequestESaIS2_EE3endEv(ptr noundef nonnull align 8 dereferenceable(24) %this7) #13
  %coerce.dive = getelementptr inbounds %"struct.std::_List_iterator", ptr %agg.tmp, i32 0, i32 0
  store ptr %call, ptr %coerce.dive, align 8
  %0 = load ptr, ptr %__args.addr, align 8
  %1 = load ptr, ptr %__args.addr2, align 8
  %2 = load ptr, ptr %__args.addr4, align 8
  %3 = load ptr, ptr %__args.addr6, align 8
  %coerce.dive8 = getelementptr inbounds %"struct.std::_List_iterator", ptr %agg.tmp, i32 0, i32 0
  %4 = load ptr, ptr %coerce.dive8, align 8
  call void @_ZNSt7__cxx114listIN6Assimp11LoadRequestESaIS2_EE9_M_insertIJRKNS_12basic_stringIcSt11char_traitsIcESaIcEEERjRPKNS1_11BatchLoader11PropertyMapESD_EEEvSt14_List_iteratorIS2_EDpOT_(ptr noundef nonnull align 8 dereferenceable(24) %this7, ptr %4, ptr noundef nonnull align 8 dereferenceable(32) %0, ptr noundef nonnull align 4 dereferenceable(4) %1, ptr noundef nonnull align 8 dereferenceable(8) %2, ptr noundef nonnull align 4 dereferenceable(4) %3)
  %call9 = call noundef nonnull align 8 dereferenceable(252) ptr @_ZNSt7__cxx114listIN6Assimp11LoadRequestESaIS2_EE4backEv(ptr noundef nonnull align 8 dereferenceable(24) %this7) #13
  ret ptr %call9
}

; Function Attrs: mustprogress nounwind uwtable
define noundef ptr @_ZN6Assimp11BatchLoader9GetImportEj(ptr noundef nonnull align 8 dereferenceable(8) %this, i32 noundef %which) #0 align 2 {
entry:
  %retval = alloca ptr, align 8
  %this.addr = alloca ptr, align 8
  %which.addr = alloca i32, align 4
  %it = alloca %"struct.std::_List_iterator", align 8
  %ref.tmp = alloca %"struct.std::_List_iterator", align 8
  %sc = alloca ptr, align 8
  %agg.tmp = alloca %"struct.std::_List_const_iterator", align 8
  %coerce = alloca %"struct.std::_List_iterator", align 8
  store ptr %this, ptr %this.addr, align 8
  store i32 %which, ptr %which.addr, align 4
  %this1 = load ptr, ptr %this.addr, align 8
  %m_data = getelementptr inbounds %"class.Assimp::BatchLoader", ptr %this1, i32 0, i32 0
  %0 = load ptr, ptr %m_data, align 8
  %requests = getelementptr inbounds %"struct.Assimp::BatchData", ptr %0, i32 0, i32 2
  %call = call ptr @_ZNSt7__cxx114listIN6Assimp11LoadRequestESaIS2_EE5beginEv(ptr noundef nonnull align 8 dereferenceable(24) %requests) #13
  %coerce.dive = getelementptr inbounds %"struct.std::_List_iterator", ptr %it, i32 0, i32 0
  store ptr %call, ptr %coerce.dive, align 8
  br label %for.cond

for.cond:                                         ; preds = %for.inc, %entry
  %m_data2 = getelementptr inbounds %"class.Assimp::BatchLoader", ptr %this1, i32 0, i32 0
  %1 = load ptr, ptr %m_data2, align 8
  %requests3 = getelementptr inbounds %"struct.Assimp::BatchData", ptr %1, i32 0, i32 2
  %call4 = call ptr @_ZNSt7__cxx114listIN6Assimp11LoadRequestESaIS2_EE3endEv(ptr noundef nonnull align 8 dereferenceable(24) %requests3) #13
  %coerce.dive5 = getelementptr inbounds %"struct.std::_List_iterator", ptr %ref.tmp, i32 0, i32 0
  store ptr %call4, ptr %coerce.dive5, align 8
  %call6 = call noundef zeroext i1 @_ZStneRKSt14_List_iteratorIN6Assimp11LoadRequestEES4_(ptr noundef nonnull align 8 dereferenceable(8) %it, ptr noundef nonnull align 8 dereferenceable(8) %ref.tmp) #13
  br i1 %call6, label %for.body, label %for.end

for.body:                                         ; preds = %for.cond
  %call7 = call noundef nonnull align 8 dereferenceable(252) ptr @_ZNKSt14_List_iteratorIN6Assimp11LoadRequestEEdeEv(ptr noundef nonnull align 8 dereferenceable(8) %it) #13
  %id = getelementptr inbounds %"struct.Assimp::LoadRequest", ptr %call7, i32 0, i32 7
  %2 = load i32, ptr %id, align 8
  %3 = load i32, ptr %which.addr, align 4
  %cmp = icmp eq i32 %2, %3
  br i1 %cmp, label %land.lhs.true, label %if.end18

land.lhs.true:                                    ; preds = %for.body
  %call8 = call noundef nonnull align 8 dereferenceable(252) ptr @_ZNKSt14_List_iteratorIN6Assimp11LoadRequestEEdeEv(ptr noundef nonnull align 8 dereferenceable(8) %it) #13
  %loaded = getelementptr inbounds %"struct.Assimp::LoadRequest", ptr %call8, i32 0, i32 4
  %4 = load i8, ptr %loaded, align 8
  %tobool = trunc i8 %4 to i1
  br i1 %tobool, label %if.then, label %if.end18

if.then:                                          ; preds = %land.lhs.true
  %call9 = call noundef nonnull align 8 dereferenceable(252) ptr @_ZNKSt14_List_iteratorIN6Assimp11LoadRequestEEdeEv(ptr noundef nonnull align 8 dereferenceable(8) %it) #13
  %scene = getelementptr inbounds %"struct.Assimp::LoadRequest", ptr %call9, i32 0, i32 3
  %5 = load ptr, ptr %scene, align 8
  store ptr %5, ptr %sc, align 8
  %call10 = call noundef nonnull align 8 dereferenceable(252) ptr @_ZNKSt14_List_iteratorIN6Assimp11LoadRequestEEdeEv(ptr noundef nonnull align 8 dereferenceable(8) %it) #13
  %refCnt = getelementptr inbounds %"struct.Assimp::LoadRequest", ptr %call10, i32 0, i32 2
  %6 = load i32, ptr %refCnt, align 4
  %dec = add i32 %6, -1
  store i32 %dec, ptr %refCnt, align 4
  %tobool11 = icmp ne i32 %dec, 0
  br i1 %tobool11, label %if.end, label %if.then12

if.then12:                                        ; preds = %if.then
  %m_data13 = getelementptr inbounds %"class.Assimp::BatchLoader", ptr %this1, i32 0, i32 0
  %7 = load ptr, ptr %m_data13, align 8
  %requests14 = getelementptr inbounds %"struct.Assimp::BatchData", ptr %7, i32 0, i32 2
  call void @_ZNSt20_List_const_iteratorIN6Assimp11LoadRequestEEC2ERKSt14_List_iteratorIS1_E(ptr noundef nonnull align 8 dereferenceable(8) %agg.tmp, ptr noundef nonnull align 8 dereferenceable(8) %it) #13
  %coerce.dive15 = getelementptr inbounds %"struct.std::_List_const_iterator", ptr %agg.tmp, i32 0, i32 0
  %8 = load ptr, ptr %coerce.dive15, align 8
  %call16 = call ptr @_ZNSt7__cxx114listIN6Assimp11LoadRequestESaIS2_EE5eraseESt20_List_const_iteratorIS2_E(ptr noundef nonnull align 8 dereferenceable(24) %requests14, ptr %8) #13
  %coerce.dive17 = getelementptr inbounds %"struct.std::_List_iterator", ptr %coerce, i32 0, i32 0
  store ptr %call16, ptr %coerce.dive17, align 8
  br label %if.end

if.end:                                           ; preds = %if.then12, %if.then
  %9 = load ptr, ptr %sc, align 8
  store ptr %9, ptr %retval, align 8
  br label %return

if.end18:                                         ; preds = %land.lhs.true, %for.body
  br label %for.inc

for.inc:                                          ; preds = %if.end18
  %call19 = call noundef nonnull align 8 dereferenceable(8) ptr @_ZNSt14_List_iteratorIN6Assimp11LoadRequestEEppEv(ptr noundef nonnull align 8 dereferenceable(8) %it) #13
  br label %for.cond, !llvm.loop !20

for.end:                                          ; preds = %for.cond
  store ptr null, ptr %retval, align 8
  br label %return

return:                                           ; preds = %for.end, %if.end
  %10 = load ptr, ptr %retval, align 8
  ret ptr %10
}

; Function Attrs: mustprogress nounwind uwtable
define linkonce_odr hidden ptr @_ZNSt7__cxx114listIN6Assimp11LoadRequestESaIS2_EE5eraseESt20_List_const_iteratorIS2_E(ptr noundef nonnull align 8 dereferenceable(24) %this, ptr %__position.coerce) #0 comdat align 2 {
entry:
  %retval = alloca %"struct.std::_List_iterator", align 8
  %__position = alloca %"struct.std::_List_const_iterator", align 8
  %this.addr = alloca ptr, align 8
  %agg.tmp = alloca %"struct.std::_List_iterator", align 8
  %coerce.dive = getelementptr inbounds %"struct.std::_List_const_iterator", ptr %__position, i32 0, i32 0
  store ptr %__position.coerce, ptr %coerce.dive, align 8
  store ptr %this, ptr %this.addr, align 8
  %this1 = load ptr, ptr %this.addr, align 8
  %_M_node = getelementptr inbounds %"struct.std::_List_const_iterator", ptr %__position, i32 0, i32 0
  %0 = load ptr, ptr %_M_node, align 8
  %_M_next = getelementptr inbounds %"struct.std::__detail::_List_node_base", ptr %0, i32 0, i32 0
  %1 = load ptr, ptr %_M_next, align 8
  call void @_ZNSt14_List_iteratorIN6Assimp11LoadRequestEEC2EPNSt8__detail15_List_node_baseE(ptr noundef nonnull align 8 dereferenceable(8) %retval, ptr noundef %1) #13
  %call = call ptr @_ZNKSt20_List_const_iteratorIN6Assimp11LoadRequestEE13_M_const_castEv(ptr noundef nonnull align 8 dereferenceable(8) %__position) #13
  %coerce.dive2 = getelementptr inbounds %"struct.std::_List_iterator", ptr %agg.tmp, i32 0, i32 0
  store ptr %call, ptr %coerce.dive2, align 8
  %coerce.dive3 = getelementptr inbounds %"struct.std::_List_iterator", ptr %agg.tmp, i32 0, i32 0
  %2 = load ptr, ptr %coerce.dive3, align 8
  call void @_ZNSt7__cxx114listIN6Assimp11LoadRequestESaIS2_EE8_M_eraseESt14_List_iteratorIS2_E(ptr noundef nonnull align 8 dereferenceable(24) %this1, ptr %2) #13
  %coerce.dive4 = getelementptr inbounds %"struct.std::_List_iterator", ptr %retval, i32 0, i32 0
  %3 = load ptr, ptr %coerce.dive4, align 8
  ret ptr %3
}

; Function Attrs: mustprogress nounwind uwtable
define linkonce_odr hidden void @_ZNSt20_List_const_iteratorIN6Assimp11LoadRequestEEC2ERKSt14_List_iteratorIS1_E(ptr noundef nonnull align 8 dereferenceable(8) %this, ptr noundef nonnull align 8 dereferenceable(8) %__x) unnamed_addr #0 comdat align 2 {
entry:
  %this.addr = alloca ptr, align 8
  %__x.addr = alloca ptr, align 8
  store ptr %this, ptr %this.addr, align 8
  store ptr %__x, ptr %__x.addr, align 8
  %this1 = load ptr, ptr %this.addr, align 8
  %_M_node = getelementptr inbounds %"struct.std::_List_const_iterator", ptr %this1, i32 0, i32 0
  %0 = load ptr, ptr %__x.addr, align 8
  %_M_node2 = getelementptr inbounds %"struct.std::_List_iterator", ptr %0, i32 0, i32 0
  %1 = load ptr, ptr %_M_node2, align 8
  store ptr %1, ptr %_M_node, align 8
  ret void
}

; Function Attrs: mustprogress uwtable
define void @_ZN6Assimp11BatchLoader7LoadAllEv(ptr noundef nonnull align 8 dereferenceable(8) %this) #3 align 2 {
entry:
  %this.addr = alloca ptr, align 8
  %it = alloca %"struct.std::_List_iterator", align 8
  %ref.tmp = alloca %"struct.std::_List_iterator", align 8
  %pp = alloca i32, align 4
  %pimpl = alloca ptr, align 8
  store ptr %this, ptr %this.addr, align 8
  %this1 = load ptr, ptr %this.addr, align 8
  %m_data = getelementptr inbounds %"class.Assimp::BatchLoader", ptr %this1, i32 0, i32 0
  %0 = load ptr, ptr %m_data, align 8
  %requests = getelementptr inbounds %"struct.Assimp::BatchData", ptr %0, i32 0, i32 2
  %call = call ptr @_ZNSt7__cxx114listIN6Assimp11LoadRequestESaIS2_EE5beginEv(ptr noundef nonnull align 8 dereferenceable(24) %requests) #13
  %coerce.dive = getelementptr inbounds %"struct.std::_List_iterator", ptr %it, i32 0, i32 0
  store ptr %call, ptr %coerce.dive, align 8
  br label %for.cond

for.cond:                                         ; preds = %for.inc, %entry
  %m_data2 = getelementptr inbounds %"class.Assimp::BatchLoader", ptr %this1, i32 0, i32 0
  %1 = load ptr, ptr %m_data2, align 8
  %requests3 = getelementptr inbounds %"struct.Assimp::BatchData", ptr %1, i32 0, i32 2
  %call4 = call ptr @_ZNSt7__cxx114listIN6Assimp11LoadRequestESaIS2_EE3endEv(ptr noundef nonnull align 8 dereferenceable(24) %requests3) #13
  %coerce.dive5 = getelementptr inbounds %"struct.std::_List_iterator", ptr %ref.tmp, i32 0, i32 0
  store ptr %call4, ptr %coerce.dive5, align 8
  %call6 = call noundef zeroext i1 @_ZStneRKSt14_List_iteratorIN6Assimp11LoadRequestEES4_(ptr noundef nonnull align 8 dereferenceable(8) %it, ptr noundef nonnull align 8 dereferenceable(8) %ref.tmp) #13
  br i1 %call6, label %for.body, label %for.end

for.body:                                         ; preds = %for.cond
  %call7 = call noundef nonnull align 8 dereferenceable(252) ptr @_ZNKSt14_List_iteratorIN6Assimp11LoadRequestEEdeEv(ptr noundef nonnull align 8 dereferenceable(8) %it) #13
  %flags = getelementptr inbounds %"struct.Assimp::LoadRequest", ptr %call7, i32 0, i32 1
  %2 = load i32, ptr %flags, align 8
  store i32 %2, ptr %pp, align 4
  %m_data8 = getelementptr inbounds %"class.Assimp::BatchLoader", ptr %this1, i32 0, i32 0
  %3 = load ptr, ptr %m_data8, align 8
  %validate = getelementptr inbounds %"struct.Assimp::BatchData", ptr %3, i32 0, i32 5
  %4 = load i8, ptr %validate, align 4
  %tobool = trunc i8 %4 to i1
  br i1 %tobool, label %if.then, label %if.end

if.then:                                          ; preds = %for.body
  %5 = load i32, ptr %pp, align 4
  %or = or i32 %5, 1024
  store i32 %or, ptr %pp, align 4
  br label %if.end

if.end:                                           ; preds = %if.then, %for.body
  %m_data9 = getelementptr inbounds %"class.Assimp::BatchLoader", ptr %this1, i32 0, i32 0
  %6 = load ptr, ptr %m_data9, align 8
  %pImporter = getelementptr inbounds %"struct.Assimp::BatchData", ptr %6, i32 0, i32 1
  %7 = load ptr, ptr %pImporter, align 8
  %call10 = call noundef ptr @_ZN6Assimp8Importer5PimplEv(ptr noundef nonnull align 8 dereferenceable(8) %7)
  store ptr %call10, ptr %pimpl, align 8
  %call11 = call noundef nonnull align 8 dereferenceable(252) ptr @_ZNKSt14_List_iteratorIN6Assimp11LoadRequestEEdeEv(ptr noundef nonnull align 8 dereferenceable(8) %it) #13
  %map = getelementptr inbounds %"struct.Assimp::LoadRequest", ptr %call11, i32 0, i32 6
  %floats = getelementptr inbounds %"struct.Assimp::BatchLoader::PropertyMap", ptr %map, i32 0, i32 1
  %8 = load ptr, ptr %pimpl, align 8
  %mFloatProperties = getelementptr inbounds %"class.Assimp::ImporterPimpl", ptr %8, i32 0, i32 10
  %call12 = call noundef nonnull align 8 dereferenceable(48) ptr @_ZNSt3mapIjfSt4lessIjESaISt4pairIKjfEEEaSERKS6_(ptr noundef nonnull align 8 dereferenceable(48) %mFloatProperties, ptr noundef nonnull align 8 dereferenceable(48) %floats)
  %call13 = call noundef nonnull align 8 dereferenceable(252) ptr @_ZNKSt14_List_iteratorIN6Assimp11LoadRequestEEdeEv(ptr noundef nonnull align 8 dereferenceable(8) %it) #13
  %map14 = getelementptr inbounds %"struct.Assimp::LoadRequest", ptr %call13, i32 0, i32 6
  %ints = getelementptr inbounds %"struct.Assimp::BatchLoader::PropertyMap", ptr %map14, i32 0, i32 0
  %9 = load ptr, ptr %pimpl, align 8
  %mIntProperties = getelementptr inbounds %"class.Assimp::ImporterPimpl", ptr %9, i32 0, i32 9
  %call15 = call noundef nonnull align 8 dereferenceable(48) ptr @_ZNSt3mapIjiSt4lessIjESaISt4pairIKjiEEEaSERKS6_(ptr noundef nonnull align 8 dereferenceable(48) %mIntProperties, ptr noundef nonnull align 8 dereferenceable(48) %ints)
  %call16 = call noundef nonnull align 8 dereferenceable(252) ptr @_ZNKSt14_List_iteratorIN6Assimp11LoadRequestEEdeEv(ptr noundef nonnull align 8 dereferenceable(8) %it) #13
  %map17 = getelementptr inbounds %"struct.Assimp::LoadRequest", ptr %call16, i32 0, i32 6
  %strings = getelementptr inbounds %"struct.Assimp::BatchLoader::PropertyMap", ptr %map17, i32 0, i32 2
  %10 = load ptr, ptr %pimpl, align 8
  %mStringProperties = getelementptr inbounds %"class.Assimp::ImporterPimpl", ptr %10, i32 0, i32 11
  %call18 = call noundef nonnull align 8 dereferenceable(48) ptr @_ZNSt3mapIjNSt7__cxx1112basic_stringIcSt11char_traitsIcESaIcEEESt4lessIjESaISt4pairIKjS5_EEEaSERKSC_(ptr noundef nonnull align 8 dereferenceable(48) %mStringProperties, ptr noundef nonnull align 8 dereferenceable(48) %strings)
  %call19 = call noundef nonnull align 8 dereferenceable(252) ptr @_ZNKSt14_List_iteratorIN6Assimp11LoadRequestEEdeEv(ptr noundef nonnull align 8 dereferenceable(8) %it) #13
  %map20 = getelementptr inbounds %"struct.Assimp::LoadRequest", ptr %call19, i32 0, i32 6
  %matrices = getelementptr inbounds %"struct.Assimp::BatchLoader::PropertyMap", ptr %map20, i32 0, i32 3
  %11 = load ptr, ptr %pimpl, align 8
  %mMatrixProperties = getelementptr inbounds %"class.Assimp::ImporterPimpl", ptr %11, i32 0, i32 12
  %call21 = call noundef nonnull align 8 dereferenceable(48) ptr @_ZNSt3mapIj12aiMatrix4x4tIfESt4lessIjESaISt4pairIKjS1_EEEaSERKS8_(ptr noundef nonnull align 8 dereferenceable(48) %mMatrixProperties, ptr noundef nonnull align 8 dereferenceable(48) %matrices)
  %call22 = call noundef zeroext i1 @_ZN6Assimp13DefaultLogger12isNullLoggerEv()
  br i1 %call22, label %if.end27, label %if.then23

if.then23:                                        ; preds = %if.end
  %call24 = call noundef ptr @_ZN6Assimp13DefaultLogger3getEv()
  call void @_ZN6Assimp6Logger4infoEPKc(ptr noundef nonnull align 8 dereferenceable(12) %call24, ptr noundef @.str.14)
  %call25 = call noundef ptr @_ZN6Assimp13DefaultLogger3getEv()
  %call26 = call noundef nonnull align 8 dereferenceable(252) ptr @_ZNKSt14_List_iteratorIN6Assimp11LoadRequestEEdeEv(ptr noundef nonnull align 8 dereferenceable(8) %it) #13
  %file = getelementptr inbounds %"struct.Assimp::LoadRequest", ptr %call26, i32 0, i32 0
  call void @_ZN6Assimp6Logger4infoIJRA7_KcRKNSt7__cxx1112basic_stringIcSt11char_traitsIcESaIcEEEEEEvDpOT_(ptr noundef nonnull align 8 dereferenceable(12) %call25, ptr noundef nonnull align 1 dereferenceable(7) @.str.15, ptr noundef nonnull align 8 dereferenceable(32) %file)
  br label %if.end27

if.end27:                                         ; preds = %if.then23, %if.end
  %m_data28 = getelementptr inbounds %"class.Assimp::BatchLoader", ptr %this1, i32 0, i32 0
  %12 = load ptr, ptr %m_data28, align 8
  %pImporter29 = getelementptr inbounds %"struct.Assimp::BatchData", ptr %12, i32 0, i32 1
  %13 = load ptr, ptr %pImporter29, align 8
  %call30 = call noundef nonnull align 8 dereferenceable(252) ptr @_ZNKSt14_List_iteratorIN6Assimp11LoadRequestEEdeEv(ptr noundef nonnull align 8 dereferenceable(8) %it) #13
  %file31 = getelementptr inbounds %"struct.Assimp::LoadRequest", ptr %call30, i32 0, i32 0
  %14 = load i32, ptr %pp, align 4
  %call32 = call noundef ptr @_ZN6Assimp8Importer8ReadFileERKNSt7__cxx1112basic_stringIcSt11char_traitsIcESaIcEEEj(ptr noundef nonnull align 8 dereferenceable(8) %13, ptr noundef nonnull align 8 dereferenceable(32) %file31, i32 noundef %14)
  %m_data33 = getelementptr inbounds %"class.Assimp::BatchLoader", ptr %this1, i32 0, i32 0
  %15 = load ptr, ptr %m_data33, align 8
  %pImporter34 = getelementptr inbounds %"struct.Assimp::BatchData", ptr %15, i32 0, i32 1
  %16 = load ptr, ptr %pImporter34, align 8
  %call35 = call noundef ptr @_ZN6Assimp8Importer16GetOrphanedSceneEv(ptr noundef nonnull align 8 dereferenceable(8) %16)
  %call36 = call noundef nonnull align 8 dereferenceable(252) ptr @_ZNKSt14_List_iteratorIN6Assimp11LoadRequestEEdeEv(ptr noundef nonnull align 8 dereferenceable(8) %it) #13
  %scene = getelementptr inbounds %"struct.Assimp::LoadRequest", ptr %call36, i32 0, i32 3
  store ptr %call35, ptr %scene, align 8
  %call37 = call noundef nonnull align 8 dereferenceable(252) ptr @_ZNKSt14_List_iteratorIN6Assimp11LoadRequestEEdeEv(ptr noundef nonnull align 8 dereferenceable(8) %it) #13
  %loaded = getelementptr inbounds %"struct.Assimp::LoadRequest", ptr %call37, i32 0, i32 4
  store i8 1, ptr %loaded, align 8
  %call38 = call noundef ptr @_ZN6Assimp13DefaultLogger3getEv()
  call void @_ZN6Assimp6Logger4infoEPKc(ptr noundef nonnull align 8 dereferenceable(12) %call38, ptr noundef @.str.16)
  br label %for.inc

for.inc:                                          ; preds = %if.end27
  %call39 = call noundef nonnull align 8 dereferenceable(8) ptr @_ZNSt14_List_iteratorIN6Assimp11LoadRequestEEppEv(ptr noundef nonnull align 8 dereferenceable(8) %it) #13
  br label %for.cond, !llvm.loop !21

for.end:                                          ; preds = %for.cond
  ret void
}

; Function Attrs: mustprogress nounwind uwtable
define linkonce_odr noundef ptr @_ZN6Assimp8Importer5PimplEv(ptr noundef nonnull align 8 dereferenceable(8) %this) #0 comdat align 2 {
entry:
  %this.addr = alloca ptr, align 8
  store ptr %this, ptr %this.addr, align 8
  %this1 = load ptr, ptr %this.addr, align 8
  %pimpl = getelementptr inbounds %"class.Assimp::Importer", ptr %this1, i32 0, i32 0
  %0 = load ptr, ptr %pimpl, align 8
  ret ptr %0
}

; Function Attrs: mustprogress uwtable
define linkonce_odr noundef nonnull align 8 dereferenceable(48) ptr @_ZNSt3mapIjfSt4lessIjESaISt4pairIKjfEEEaSERKS6_(ptr noundef nonnull align 8 dereferenceable(48) %this, ptr noundef nonnull align 8 dereferenceable(48) %0) #3 comdat align 2 {
entry:
  %this.addr = alloca ptr, align 8
  %.addr = alloca ptr, align 8
  store ptr %this, ptr %this.addr, align 8
  store ptr %0, ptr %.addr, align 8
  %this1 = load ptr, ptr %this.addr, align 8
  %_M_t = getelementptr inbounds %"class.std::map.44", ptr %this1, i32 0, i32 0
  %1 = load ptr, ptr %.addr, align 8
  %_M_t2 = getelementptr inbounds %"class.std::map.44", ptr %1, i32 0, i32 0
  %call = call noundef nonnull align 8 dereferenceable(48) ptr @_ZNSt8_Rb_treeIjSt4pairIKjfESt10_Select1stIS2_ESt4lessIjESaIS2_EEaSERKS8_(ptr noundef nonnull align 8 dereferenceable(48) %_M_t, ptr noundef nonnull align 8 dereferenceable(48) %_M_t2)
  ret ptr %this1
}

; Function Attrs: mustprogress uwtable
define linkonce_odr noundef nonnull align 8 dereferenceable(48) ptr @_ZNSt3mapIjiSt4lessIjESaISt4pairIKjiEEEaSERKS6_(ptr noundef nonnull align 8 dereferenceable(48) %this, ptr noundef nonnull align 8 dereferenceable(48) %0) #3 comdat align 2 {
entry:
  %this.addr = alloca ptr, align 8
  %.addr = alloca ptr, align 8
  store ptr %this, ptr %this.addr, align 8
  store ptr %0, ptr %.addr, align 8
  %this1 = load ptr, ptr %this.addr, align 8
  %_M_t = getelementptr inbounds %"class.std::map", ptr %this1, i32 0, i32 0
  %1 = load ptr, ptr %.addr, align 8
  %_M_t2 = getelementptr inbounds %"class.std::map", ptr %1, i32 0, i32 0
  %call = call noundef nonnull align 8 dereferenceable(48) ptr @_ZNSt8_Rb_treeIjSt4pairIKjiESt10_Select1stIS2_ESt4lessIjESaIS2_EEaSERKS8_(ptr noundef nonnull align 8 dereferenceable(48) %_M_t, ptr noundef nonnull align 8 dereferenceable(48) %_M_t2)
  ret ptr %this1
}

; Function Attrs: mustprogress uwtable
define linkonce_odr noundef nonnull align 8 dereferenceable(48) ptr @_ZNSt3mapIjNSt7__cxx1112basic_stringIcSt11char_traitsIcESaIcEEESt4lessIjESaISt4pairIKjS5_EEEaSERKSC_(ptr noundef nonnull align 8 dereferenceable(48) %this, ptr noundef nonnull align 8 dereferenceable(48) %0) #3 comdat align 2 {
entry:
  %this.addr = alloca ptr, align 8
  %.addr = alloca ptr, align 8
  store ptr %this, ptr %this.addr, align 8
  store ptr %0, ptr %.addr, align 8
  %this1 = load ptr, ptr %this.addr, align 8
  %_M_t = getelementptr inbounds %"class.std::map.49", ptr %this1, i32 0, i32 0
  %1 = load ptr, ptr %.addr, align 8
  %_M_t2 = getelementptr inbounds %"class.std::map.49", ptr %1, i32 0, i32 0
  %call = call noundef nonnull align 8 dereferenceable(48) ptr @_ZNSt8_Rb_treeIjSt4pairIKjNSt7__cxx1112basic_stringIcSt11char_traitsIcESaIcEEEESt10_Select1stIS8_ESt4lessIjESaIS8_EEaSERKSE_(ptr noundef nonnull align 8 dereferenceable(48) %_M_t, ptr noundef nonnull align 8 dereferenceable(48) %_M_t2)
  ret ptr %this1
}

; Function Attrs: mustprogress uwtable
define linkonce_odr hidden noundef nonnull align 8 dereferenceable(48) ptr @_ZNSt3mapIj12aiMatrix4x4tIfESt4lessIjESaISt4pairIKjS1_EEEaSERKS8_(ptr noundef nonnull align 8 dereferenceable(48) %this, ptr noundef nonnull align 8 dereferenceable(48) %0) #3 comdat align 2 {
entry:
  %this.addr = alloca ptr, align 8
  %.addr = alloca ptr, align 8
  store ptr %this, ptr %this.addr, align 8
  store ptr %0, ptr %.addr, align 8
  %this1 = load ptr, ptr %this.addr, align 8
  %_M_t = getelementptr inbounds %"class.std::map.54", ptr %this1, i32 0, i32 0
  %1 = load ptr, ptr %.addr, align 8
  %_M_t2 = getelementptr inbounds %"class.std::map.54", ptr %1, i32 0, i32 0
  %call = call noundef nonnull align 8 dereferenceable(48) ptr @_ZNSt8_Rb_treeIjSt4pairIKj12aiMatrix4x4tIfEESt10_Select1stIS4_ESt4lessIjESaIS4_EEaSERKSA_(ptr noundef nonnull align 8 dereferenceable(48) %_M_t, ptr noundef nonnull align 8 dereferenceable(48) %_M_t2)
  ret ptr %this1
}

declare noundef zeroext i1 @_ZN6Assimp13DefaultLogger12isNullLoggerEv() #4

declare void @_ZN6Assimp6Logger4infoEPKc(ptr noundef nonnull align 8 dereferenceable(12), ptr noundef) #4

; Function Attrs: mustprogress uwtable
define linkonce_odr void @_ZN6Assimp6Logger4infoIJRA7_KcRKNSt7__cxx1112basic_stringIcSt11char_traitsIcESaIcEEEEEEvDpOT_(ptr noundef nonnull align 8 dereferenceable(12) %this, ptr noundef nonnull align 1 dereferenceable(7) %args, ptr noundef nonnull align 8 dereferenceable(32) %args1) #3 comdat align 2 personality ptr @__gxx_personality_v0 {
entry:
  %this.addr = alloca ptr, align 8
  %args.addr = alloca ptr, align 8
  %args.addr2 = alloca ptr, align 8
  %ref.tmp = alloca %"class.std::__cxx11::basic_string", align 8
  %agg.tmp = alloca %"class.Assimp::Formatter::basic_formatter", align 8
  %exn.slot = alloca ptr, align 8
  %ehselector.slot = alloca i32, align 4
  store ptr %this, ptr %this.addr, align 8
  store ptr %args, ptr %args.addr, align 8
  store ptr %args1, ptr %args.addr2, align 8
  %this3 = load ptr, ptr %this.addr, align 8
  %0 = load ptr, ptr %args.addr, align 8
  call void @_ZN6Assimp9Formatter15basic_formatterIcSt11char_traitsIcESaIcEEC2IA7_cEERKT_(ptr noundef nonnull align 8 dereferenceable(376) %agg.tmp, ptr noundef nonnull align 1 dereferenceable(7) %0)
  %1 = load ptr, ptr %args.addr2, align 8
  invoke void @_ZN6Assimp6Logger13formatMessageIJERKNSt7__cxx1112basic_stringIcSt11char_traitsIcESaIcEEEEES7_NS_9Formatter15basic_formatterIcS5_S6_EEOT0_DpOT_(ptr sret(%"class.std::__cxx11::basic_string") align 8 %ref.tmp, ptr noundef nonnull align 8 dereferenceable(12) %this3, ptr noundef %agg.tmp, ptr noundef nonnull align 8 dereferenceable(32) %1)
          to label %invoke.cont unwind label %lpad

invoke.cont:                                      ; preds = %entry
  %call = call noundef ptr @_ZNKSt7__cxx1112basic_stringIcSt11char_traitsIcESaIcEE5c_strEv(ptr noundef nonnull align 8 dereferenceable(32) %ref.tmp) #13
  invoke void @_ZN6Assimp6Logger4infoEPKc(ptr noundef nonnull align 8 dereferenceable(12) %this3, ptr noundef %call)
          to label %invoke.cont5 unwind label %lpad4

invoke.cont5:                                     ; preds = %invoke.cont
  call void @_ZNSt7__cxx1112basic_stringIcSt11char_traitsIcESaIcEED1Ev(ptr noundef nonnull align 8 dereferenceable(32) %ref.tmp) #13
  call void @_ZN6Assimp9Formatter15basic_formatterIcSt11char_traitsIcESaIcEED2Ev(ptr noundef nonnull align 8 dereferenceable(376) %agg.tmp) #13
  ret void

lpad:                                             ; preds = %entry
  %2 = landingpad { ptr, i32 }
          cleanup
  %3 = extractvalue { ptr, i32 } %2, 0
  store ptr %3, ptr %exn.slot, align 8
  %4 = extractvalue { ptr, i32 } %2, 1
  store i32 %4, ptr %ehselector.slot, align 4
  br label %ehcleanup

lpad4:                                            ; preds = %invoke.cont
  %5 = landingpad { ptr, i32 }
          cleanup
  %6 = extractvalue { ptr, i32 } %5, 0
  store ptr %6, ptr %exn.slot, align 8
  %7 = extractvalue { ptr, i32 } %5, 1
  store i32 %7, ptr %ehselector.slot, align 4
  call void @_ZNSt7__cxx1112basic_stringIcSt11char_traitsIcESaIcEED1Ev(ptr noundef nonnull align 8 dereferenceable(32) %ref.tmp) #13
  br label %ehcleanup

ehcleanup:                                        ; preds = %lpad4, %lpad
  call void @_ZN6Assimp9Formatter15basic_formatterIcSt11char_traitsIcESaIcEED2Ev(ptr noundef nonnull align 8 dereferenceable(376) %agg.tmp) #13
  br label %eh.resume

eh.resume:                                        ; preds = %ehcleanup
  %exn = load ptr, ptr %exn.slot, align 8
  %sel = load i32, ptr %ehselector.slot, align 4
  %lpad.val = insertvalue { ptr, i32 } poison, ptr %exn, 0
  %lpad.val6 = insertvalue { ptr, i32 } %lpad.val, i32 %sel, 1
  resume { ptr, i32 } %lpad.val6
}

; Function Attrs: mustprogress uwtable
define linkonce_odr noundef ptr @_ZN6Assimp8Importer8ReadFileERKNSt7__cxx1112basic_stringIcSt11char_traitsIcESaIcEEEj(ptr noundef nonnull align 8 dereferenceable(8) %this, ptr noundef nonnull align 8 dereferenceable(32) %pFile, i32 noundef %pFlags) #3 comdat align 2 {
entry:
  %this.addr = alloca ptr, align 8
  %pFile.addr = alloca ptr, align 8
  %pFlags.addr = alloca i32, align 4
  store ptr %this, ptr %this.addr, align 8
  store ptr %pFile, ptr %pFile.addr, align 8
  store i32 %pFlags, ptr %pFlags.addr, align 4
  %this1 = load ptr, ptr %this.addr, align 8
  %0 = load ptr, ptr %pFile.addr, align 8
  %call = call noundef ptr @_ZNKSt7__cxx1112basic_stringIcSt11char_traitsIcESaIcEE5c_strEv(ptr noundef nonnull align 8 dereferenceable(32) %0) #13
  %1 = load i32, ptr %pFlags.addr, align 4
  %call2 = call noundef ptr @_ZN6Assimp8Importer8ReadFileEPKcj(ptr noundef nonnull align 8 dereferenceable(8) %this1, ptr noundef %call, i32 noundef %1)
  ret ptr %call2
}

declare noundef ptr @_ZN6Assimp8Importer16GetOrphanedSceneEv(ptr noundef nonnull align 8 dereferenceable(8)) #4

; Function Attrs: mustprogress nounwind uwtable
define linkonce_odr void @_ZN6Assimp8IOSystemD2Ev(ptr noundef nonnull align 8 dereferenceable(32) %this) unnamed_addr #0 comdat align 2 {
entry:
  %this.addr = alloca ptr, align 8
  store ptr %this, ptr %this.addr, align 8
  %this1 = load ptr, ptr %this.addr, align 8
  store ptr getelementptr inbounds ({ [16 x ptr] }, ptr @_ZTVN6Assimp8IOSystemE, i32 0, inrange i32 0, i32 2), ptr %this1, align 8
  %m_pathStack = getelementptr inbounds %"class.Assimp::IOSystem", ptr %this1, i32 0, i32 1
  call void @_ZNSt6vectorINSt7__cxx1112basic_stringIcSt11char_traitsIcESaIcEEESaIS5_EED2Ev(ptr noundef nonnull align 8 dereferenceable(24) %m_pathStack) #13
  ret void
}

declare void @__cxa_pure_virtual() unnamed_addr

declare noundef zeroext i1 @_ZNK6Assimp8IOSystem12ComparePathsEPKcS2_(ptr noundef nonnull align 8 dereferenceable(32), ptr noundef, ptr noundef) unnamed_addr #4

; Function Attrs: mustprogress uwtable
define linkonce_odr noundef zeroext i1 @_ZN6Assimp8IOSystem13PushDirectoryERKNSt7__cxx1112basic_stringIcSt11char_traitsIcESaIcEEE(ptr noundef nonnull align 8 dereferenceable(32) %this, ptr noundef nonnull align 8 dereferenceable(32) %path) unnamed_addr #3 comdat align 2 {
entry:
  %retval = alloca i1, align 1
  %this.addr = alloca ptr, align 8
  %path.addr = alloca ptr, align 8
  store ptr %this, ptr %this.addr, align 8
  store ptr %path, ptr %path.addr, align 8
  %this1 = load ptr, ptr %this.addr, align 8
  %0 = load ptr, ptr %path.addr, align 8
  %call = call noundef zeroext i1 @_ZNKSt7__cxx1112basic_stringIcSt11char_traitsIcESaIcEE5emptyEv(ptr noundef nonnull align 8 dereferenceable(32) %0) #13
  br i1 %call, label %if.then, label %if.end

if.then:                                          ; preds = %entry
  store i1 false, ptr %retval, align 1
  br label %return

if.end:                                           ; preds = %entry
  %m_pathStack = getelementptr inbounds %"class.Assimp::IOSystem", ptr %this1, i32 0, i32 1
  %1 = load ptr, ptr %path.addr, align 8
  call void @_ZNSt6vectorINSt7__cxx1112basic_stringIcSt11char_traitsIcESaIcEEESaIS5_EE9push_backERKS5_(ptr noundef nonnull align 8 dereferenceable(24) %m_pathStack, ptr noundef nonnull align 8 dereferenceable(32) %1)
  store i1 true, ptr %retval, align 1
  br label %return

return:                                           ; preds = %if.end, %if.then
  %2 = load i1, ptr %retval, align 1
  ret i1 %2
}

declare noundef nonnull align 8 dereferenceable(32) ptr @_ZNK6Assimp8IOSystem16CurrentDirectoryB5cxx11Ev(ptr noundef nonnull align 8 dereferenceable(32)) unnamed_addr #4

; Function Attrs: mustprogress nounwind uwtable
define linkonce_odr noundef i64 @_ZNK6Assimp8IOSystem9StackSizeEv(ptr noundef nonnull align 8 dereferenceable(32) %this) unnamed_addr #0 comdat align 2 {
entry:
  %this.addr = alloca ptr, align 8
  store ptr %this, ptr %this.addr, align 8
  %this1 = load ptr, ptr %this.addr, align 8
  %m_pathStack = getelementptr inbounds %"class.Assimp::IOSystem", ptr %this1, i32 0, i32 1
  %call = call noundef i64 @_ZNKSt6vectorINSt7__cxx1112basic_stringIcSt11char_traitsIcESaIcEEESaIS5_EE4sizeEv(ptr noundef nonnull align 8 dereferenceable(24) %m_pathStack) #13
  ret i64 %call
}

; Function Attrs: mustprogress nounwind uwtable
define linkonce_odr noundef zeroext i1 @_ZN6Assimp8IOSystem12PopDirectoryEv(ptr noundef nonnull align 8 dereferenceable(32) %this) unnamed_addr #0 comdat align 2 {
entry:
  %retval = alloca i1, align 1
  %this.addr = alloca ptr, align 8
  store ptr %this, ptr %this.addr, align 8
  %this1 = load ptr, ptr %this.addr, align 8
  %m_pathStack = getelementptr inbounds %"class.Assimp::IOSystem", ptr %this1, i32 0, i32 1
  %call = call noundef zeroext i1 @_ZNKSt6vectorINSt7__cxx1112basic_stringIcSt11char_traitsIcESaIcEEESaIS5_EE5emptyEv(ptr noundef nonnull align 8 dereferenceable(24) %m_pathStack) #13
  br i1 %call, label %if.then, label %if.end

if.then:                                          ; preds = %entry
  store i1 false, ptr %retval, align 1
  br label %return

if.end:                                           ; preds = %entry
  %m_pathStack2 = getelementptr inbounds %"class.Assimp::IOSystem", ptr %this1, i32 0, i32 1
  call void @_ZNSt6vectorINSt7__cxx1112basic_stringIcSt11char_traitsIcESaIcEEESaIS5_EE8pop_backEv(ptr noundef nonnull align 8 dereferenceable(24) %m_pathStack2) #13
  store i1 true, ptr %retval, align 1
  br label %return

return:                                           ; preds = %if.end, %if.then
  %0 = load i1, ptr %retval, align 1
  ret i1 %0
}

; Function Attrs: mustprogress nounwind uwtable
define linkonce_odr noundef zeroext i1 @_ZN6Assimp8IOSystem15CreateDirectoryERKNSt7__cxx1112basic_stringIcSt11char_traitsIcESaIcEEE(ptr noundef nonnull align 8 dereferenceable(32) %this, ptr noundef nonnull align 8 dereferenceable(32) %path) unnamed_addr #0 comdat align 2 {
entry:
  %retval = alloca i1, align 1
  %this.addr = alloca ptr, align 8
  %path.addr = alloca ptr, align 8
  store ptr %this, ptr %this.addr, align 8
  store ptr %path, ptr %path.addr, align 8
  %0 = load ptr, ptr %path.addr, align 8
  %call = call noundef zeroext i1 @_ZNKSt7__cxx1112basic_stringIcSt11char_traitsIcESaIcEE5emptyEv(ptr noundef nonnull align 8 dereferenceable(32) %0) #13
  br i1 %call, label %if.then, label %if.end

if.then:                                          ; preds = %entry
  store i1 false, ptr %retval, align 1
  br label %return

if.end:                                           ; preds = %entry
  %1 = load ptr, ptr %path.addr, align 8
  %call2 = call noundef ptr @_ZNKSt7__cxx1112basic_stringIcSt11char_traitsIcESaIcEE5c_strEv(ptr noundef nonnull align 8 dereferenceable(32) %1) #13
  %call3 = call i32 @mkdir(ptr noundef %call2, i32 noundef 511) #13
  %cmp = icmp ne i32 0, %call3
  store i1 %cmp, ptr %retval, align 1
  br label %return

return:                                           ; preds = %if.end, %if.then
  %2 = load i1, ptr %retval, align 1
  ret i1 %2
}

; Function Attrs: mustprogress nounwind uwtable
define linkonce_odr noundef zeroext i1 @_ZN6Assimp8IOSystem15ChangeDirectoryERKNSt7__cxx1112basic_stringIcSt11char_traitsIcESaIcEEE(ptr noundef nonnull align 8 dereferenceable(32) %this, ptr noundef nonnull align 8 dereferenceable(32) %path) unnamed_addr #0 comdat align 2 {
entry:
  %retval = alloca i1, align 1
  %this.addr = alloca ptr, align 8
  %path.addr = alloca ptr, align 8
  store ptr %this, ptr %this.addr, align 8
  store ptr %path, ptr %path.addr, align 8
  %0 = load ptr, ptr %path.addr, align 8
  %call = call noundef zeroext i1 @_ZNKSt7__cxx1112basic_stringIcSt11char_traitsIcESaIcEE5emptyEv(ptr noundef nonnull align 8 dereferenceable(32) %0) #13
  br i1 %call, label %if.then, label %if.end

if.then:                                          ; preds = %entry
  store i1 false, ptr %retval, align 1
  br label %return

if.end:                                           ; preds = %entry
  %1 = load ptr, ptr %path.addr, align 8
  %call2 = call noundef ptr @_ZNKSt7__cxx1112basic_stringIcSt11char_traitsIcESaIcEE5c_strEv(ptr noundef nonnull align 8 dereferenceable(32) %1) #13
  %call3 = call i32 @chdir(ptr noundef %call2) #13
  %cmp = icmp ne i32 0, %call3
  store i1 %cmp, ptr %retval, align 1
  br label %return

return:                                           ; preds = %if.end, %if.then
  %2 = load i1, ptr %retval, align 1
  ret i1 %2
}

; Function Attrs: mustprogress nounwind uwtable
define linkonce_odr noundef zeroext i1 @_ZN6Assimp8IOSystem10DeleteFileERKNSt7__cxx1112basic_stringIcSt11char_traitsIcESaIcEEE(ptr noundef nonnull align 8 dereferenceable(32) %this, ptr noundef nonnull align 8 dereferenceable(32) %file) unnamed_addr #0 comdat align 2 {
entry:
  %retval = alloca i1, align 1
  %this.addr = alloca ptr, align 8
  %file.addr = alloca ptr, align 8
  %retCode = alloca i32, align 4
  store ptr %this, ptr %this.addr, align 8
  store ptr %file, ptr %file.addr, align 8
  %0 = load ptr, ptr %file.addr, align 8
  %call = call noundef zeroext i1 @_ZNKSt7__cxx1112basic_stringIcSt11char_traitsIcESaIcEE5emptyEv(ptr noundef nonnull align 8 dereferenceable(32) %0) #13
  br i1 %call, label %if.then, label %if.end

if.then:                                          ; preds = %entry
  store i1 false, ptr %retval, align 1
  br label %return

if.end:                                           ; preds = %entry
  %1 = load ptr, ptr %file.addr, align 8
  %call2 = call noundef ptr @_ZNKSt7__cxx1112basic_stringIcSt11char_traitsIcESaIcEE5c_strEv(ptr noundef nonnull align 8 dereferenceable(32) %1) #13
  %call3 = call i32 @remove(ptr noundef %call2) #13
  store i32 %call3, ptr %retCode, align 4
  %2 = load i32, ptr %retCode, align 4
  %cmp = icmp eq i32 0, %2
  store i1 %cmp, ptr %retval, align 1
  br label %return

return:                                           ; preds = %if.end, %if.then
  %3 = load i1, ptr %retval, align 1
  ret i1 %3
}

; Function Attrs: mustprogress nounwind uwtable
define linkonce_odr void @_ZN6Assimp9LogStreamD2Ev(ptr noundef nonnull align 8 dereferenceable(8) %this) unnamed_addr #0 comdat align 2 {
entry:
  %this.addr = alloca ptr, align 8
  store ptr %this, ptr %this.addr, align 8
  ret void
}

; Function Attrs: mustprogress nounwind uwtable
define linkonce_odr void @_ZN6Assimp6LoggerD2Ev(ptr noundef nonnull align 8 dereferenceable(12) %this) unnamed_addr #0 comdat align 2 {
entry:
  %this.addr = alloca ptr, align 8
  store ptr %this, ptr %this.addr, align 8
  ret void
}

; Function Attrs: mustprogress nounwind uwtable
define linkonce_odr void @_ZN6Assimp8IOStreamD2Ev(ptr noundef nonnull align 8 dereferenceable(8) %this) unnamed_addr #0 comdat align 2 {
entry:
  %this.addr = alloca ptr, align 8
  store ptr %this, ptr %this.addr, align 8
  ret void
}

; Function Attrs: nounwind
declare void @_ZNSt15__exception_ptr13exception_ptr10_M_releaseEv(ptr noundef nonnull align 8 dereferenceable(8)) #2

; Function Attrs: mustprogress nounwind uwtable
define linkonce_odr void @_ZN6Assimp8IOSystemC2Ev(ptr noundef nonnull align 8 dereferenceable(32) %this) unnamed_addr #0 comdat align 2 {
entry:
  %this.addr = alloca ptr, align 8
  store ptr %this, ptr %this.addr, align 8
  %this1 = load ptr, ptr %this.addr, align 8
  store ptr getelementptr inbounds ({ [16 x ptr] }, ptr @_ZTVN6Assimp8IOSystemE, i32 0, inrange i32 0, i32 2), ptr %this1, align 8
  %m_pathStack = getelementptr inbounds %"class.Assimp::IOSystem", ptr %this1, i32 0, i32 1
  call void @_ZNSt6vectorINSt7__cxx1112basic_stringIcSt11char_traitsIcESaIcEEESaIS5_EEC2Ev(ptr noundef nonnull align 8 dereferenceable(24) %m_pathStack) #13
  ret void
}

declare void @_ZNSt7__cxx1112basic_stringIcSt11char_traitsIcESaIcEEC1ERKS4_(ptr noundef nonnull align 8 dereferenceable(32), ptr noundef nonnull align 8 dereferenceable(32)) unnamed_addr #4

declare noundef nonnull align 8 dereferenceable(32) ptr @_ZNSt7__cxx1112basic_stringIcSt11char_traitsIcESaIcEEaSERKS4_(ptr noundef nonnull align 8 dereferenceable(32), ptr noundef nonnull align 8 dereferenceable(32)) #4

; Function Attrs: nounwind
declare noundef i64 @_ZNKSt7__cxx1112basic_stringIcSt11char_traitsIcESaIcEE12find_last_ofEPKcm(ptr noundef nonnull align 8 dereferenceable(32), ptr noundef, i64 noundef) #2

declare noundef nonnull align 8 dereferenceable(32) ptr @_ZNSt7__cxx1112basic_stringIcSt11char_traitsIcESaIcEE5eraseEmm(ptr noundef nonnull align 8 dereferenceable(32), i64 noundef, i64 noundef) #4

; Function Attrs: nounwind
declare noundef zeroext i1 @_ZNKSt7__cxx1112basic_stringIcSt11char_traitsIcESaIcEE5emptyEv(ptr noundef nonnull align 8 dereferenceable(32)) #2

declare noundef nonnull align 8 dereferenceable(32) ptr @_ZNSt7__cxx1112basic_stringIcSt11char_traitsIcESaIcEEpLEc(ptr noundef nonnull align 8 dereferenceable(32), i8 noundef signext) #4

; Function Attrs: nounwind
declare ptr @_ZNSt7__cxx1112basic_stringIcSt11char_traitsIcESaIcEE3endEv(ptr noundef nonnull align 8 dereferenceable(32)) #2

; Function Attrs: mustprogress nounwind uwtable
define linkonce_odr ptr @_ZNK9__gnu_cxx17__normal_iteratorIPcNSt7__cxx1112basic_stringIcSt11char_traitsIcESaIcEEEEmiEl(ptr noundef nonnull align 8 dereferenceable(8) %this, i64 noundef %__n) #0 comdat align 2 {
entry:
  %retval = alloca %"class.__gnu_cxx::__normal_iterator.74", align 8
  %this.addr = alloca ptr, align 8
  %__n.addr = alloca i64, align 8
  %ref.tmp = alloca ptr, align 8
  store ptr %this, ptr %this.addr, align 8
  store i64 %__n, ptr %__n.addr, align 8
  %this1 = load ptr, ptr %this.addr, align 8
  %_M_current = getelementptr inbounds %"class.__gnu_cxx::__normal_iterator.74", ptr %this1, i32 0, i32 0
  %0 = load ptr, ptr %_M_current, align 8
  %1 = load i64, ptr %__n.addr, align 8
  %idx.neg = sub i64 0, %1
  %add.ptr = getelementptr inbounds i8, ptr %0, i64 %idx.neg
  store ptr %add.ptr, ptr %ref.tmp, align 8
  call void @_ZN9__gnu_cxx17__normal_iteratorIPcNSt7__cxx1112basic_stringIcSt11char_traitsIcESaIcEEEEC2ERKS1_(ptr noundef nonnull align 8 dereferenceable(8) %retval, ptr noundef nonnull align 8 dereferenceable(8) %ref.tmp) #13
  %coerce.dive = getelementptr inbounds %"class.__gnu_cxx::__normal_iterator.74", ptr %retval, i32 0, i32 0
  %2 = load ptr, ptr %coerce.dive, align 8
  ret ptr %2
}

; Function Attrs: mustprogress nounwind uwtable
define linkonce_odr noundef nonnull align 1 dereferenceable(1) ptr @_ZNK9__gnu_cxx17__normal_iteratorIPcNSt7__cxx1112basic_stringIcSt11char_traitsIcESaIcEEEEdeEv(ptr noundef nonnull align 8 dereferenceable(8) %this) #0 comdat align 2 {
entry:
  %this.addr = alloca ptr, align 8
  store ptr %this, ptr %this.addr, align 8
  %this1 = load ptr, ptr %this.addr, align 8
  %_M_current = getelementptr inbounds %"class.__gnu_cxx::__normal_iterator.74", ptr %this1, i32 0, i32 0
  %0 = load ptr, ptr %_M_current, align 8
  ret ptr %0
}

; Function Attrs: mustprogress uwtable
define linkonce_odr void @_ZN6Assimp6Logger4infoIJRA27_KcRNSt7__cxx1112basic_stringIcSt11char_traitsIcESaIcEEERA2_S2_EEEvDpOT_(ptr noundef nonnull align 8 dereferenceable(12) %this, ptr noundef nonnull align 1 dereferenceable(27) %args, ptr noundef nonnull align 8 dereferenceable(32) %args1, ptr noundef nonnull align 1 dereferenceable(2) %args3) #3 comdat align 2 personality ptr @__gxx_personality_v0 {
entry:
  %this.addr = alloca ptr, align 8
  %args.addr = alloca ptr, align 8
  %args.addr2 = alloca ptr, align 8
  %args.addr4 = alloca ptr, align 8
  %ref.tmp = alloca %"class.std::__cxx11::basic_string", align 8
  %agg.tmp = alloca %"class.Assimp::Formatter::basic_formatter", align 8
  %exn.slot = alloca ptr, align 8
  %ehselector.slot = alloca i32, align 4
  store ptr %this, ptr %this.addr, align 8
  store ptr %args, ptr %args.addr, align 8
  store ptr %args1, ptr %args.addr2, align 8
  store ptr %args3, ptr %args.addr4, align 8
  %this5 = load ptr, ptr %this.addr, align 8
  %0 = load ptr, ptr %args.addr, align 8
  call void @_ZN6Assimp9Formatter15basic_formatterIcSt11char_traitsIcESaIcEEC2IA27_cEERKT_(ptr noundef nonnull align 8 dereferenceable(376) %agg.tmp, ptr noundef nonnull align 1 dereferenceable(27) %0)
  %1 = load ptr, ptr %args.addr2, align 8
  %2 = load ptr, ptr %args.addr4, align 8
  invoke void @_ZN6Assimp6Logger13formatMessageIJRA2_KcERNSt7__cxx1112basic_stringIcSt11char_traitsIcESaIcEEEEESA_NS_9Formatter15basic_formatterIcS8_S9_EEOT0_DpOT_(ptr sret(%"class.std::__cxx11::basic_string") align 8 %ref.tmp, ptr noundef nonnull align 8 dereferenceable(12) %this5, ptr noundef %agg.tmp, ptr noundef nonnull align 8 dereferenceable(32) %1, ptr noundef nonnull align 1 dereferenceable(2) %2)
          to label %invoke.cont unwind label %lpad

invoke.cont:                                      ; preds = %entry
  %call = call noundef ptr @_ZNKSt7__cxx1112basic_stringIcSt11char_traitsIcESaIcEE5c_strEv(ptr noundef nonnull align 8 dereferenceable(32) %ref.tmp) #13
  invoke void @_ZN6Assimp6Logger4infoEPKc(ptr noundef nonnull align 8 dereferenceable(12) %this5, ptr noundef %call)
          to label %invoke.cont7 unwind label %lpad6

invoke.cont7:                                     ; preds = %invoke.cont
  call void @_ZNSt7__cxx1112basic_stringIcSt11char_traitsIcESaIcEED1Ev(ptr noundef nonnull align 8 dereferenceable(32) %ref.tmp) #13
  call void @_ZN6Assimp9Formatter15basic_formatterIcSt11char_traitsIcESaIcEED2Ev(ptr noundef nonnull align 8 dereferenceable(376) %agg.tmp) #13
  ret void

lpad:                                             ; preds = %entry
  %3 = landingpad { ptr, i32 }
          cleanup
  %4 = extractvalue { ptr, i32 } %3, 0
  store ptr %4, ptr %exn.slot, align 8
  %5 = extractvalue { ptr, i32 } %3, 1
  store i32 %5, ptr %ehselector.slot, align 4
  br label %ehcleanup

lpad6:                                            ; preds = %invoke.cont
  %6 = landingpad { ptr, i32 }
          cleanup
  %7 = extractvalue { ptr, i32 } %6, 0
  store ptr %7, ptr %exn.slot, align 8
  %8 = extractvalue { ptr, i32 } %6, 1
  store i32 %8, ptr %ehselector.slot, align 4
  call void @_ZNSt7__cxx1112basic_stringIcSt11char_traitsIcESaIcEED1Ev(ptr noundef nonnull align 8 dereferenceable(32) %ref.tmp) #13
  br label %ehcleanup

ehcleanup:                                        ; preds = %lpad6, %lpad
  call void @_ZN6Assimp9Formatter15basic_formatterIcSt11char_traitsIcESaIcEED2Ev(ptr noundef nonnull align 8 dereferenceable(376) %agg.tmp) #13
  br label %eh.resume

eh.resume:                                        ; preds = %ehcleanup
  %exn = load ptr, ptr %exn.slot, align 8
  %sel = load i32, ptr %ehselector.slot, align 4
  %lpad.val = insertvalue { ptr, i32 } poison, ptr %exn, 0
  %lpad.val8 = insertvalue { ptr, i32 } %lpad.val, i32 %sel, 1
  resume { ptr, i32 } %lpad.val8
}

; Function Attrs: mustprogress nounwind uwtable
define linkonce_odr hidden void @_ZN6Assimp16FileSystemFilterD0Ev(ptr noundef nonnull align 8 dereferenceable(105) %this) unnamed_addr #0 comdat align 2 {
entry:
  %this.addr = alloca ptr, align 8
  store ptr %this, ptr %this.addr, align 8
  %this1 = load ptr, ptr %this.addr, align 8
  call void @_ZN6Assimp16FileSystemFilterD2Ev(ptr noundef nonnull align 8 dereferenceable(105) %this1) #13
  call void @_ZN6Assimp6Intern22AllocateFromAssimpHeapdlEPv(ptr noundef %this1) #13
  ret void
}

; Function Attrs: mustprogress uwtable
define linkonce_odr hidden noundef zeroext i1 @_ZNK6Assimp16FileSystemFilter6ExistsEPKc(ptr noundef nonnull align 8 dereferenceable(105) %this, ptr noundef %pFile) unnamed_addr #3 comdat align 2 personality ptr @__gxx_personality_v0 {
entry:
  %this.addr = alloca ptr, align 8
  %pFile.addr = alloca ptr, align 8
  %tmp = alloca %"class.std::__cxx11::basic_string", align 8
  %ref.tmp = alloca %"class.std::allocator.0", align 1
  %exn.slot = alloca ptr, align 8
  %ehselector.slot = alloca i32, align 4
  store ptr %this, ptr %this.addr, align 8
  store ptr %pFile, ptr %pFile.addr, align 8
  %this1 = load ptr, ptr %this.addr, align 8
  %0 = load ptr, ptr %pFile.addr, align 8
  call void @_ZNSaIcEC1Ev(ptr noundef nonnull align 1 dereferenceable(1) %ref.tmp) #13
  invoke void @_ZNSt7__cxx1112basic_stringIcSt11char_traitsIcESaIcEEC2IS3_EEPKcRKS3_(ptr noundef nonnull align 8 dereferenceable(32) %tmp, ptr noundef %0, ptr noundef nonnull align 1 dereferenceable(1) %ref.tmp)
          to label %invoke.cont unwind label %lpad

invoke.cont:                                      ; preds = %entry
  call void @_ZNSaIcED1Ev(ptr noundef nonnull align 1 dereferenceable(1) %ref.tmp) #13
  %mSrc_file = getelementptr inbounds %"class.Assimp::FileSystemFilter", ptr %this1, i32 0, i32 2
  %call = call noundef zeroext i1 @_ZStneIcSt11char_traitsIcESaIcEEbRKNSt7__cxx1112basic_stringIT_T0_T1_EESA_(ptr noundef nonnull align 8 dereferenceable(32) %tmp, ptr noundef nonnull align 8 dereferenceable(32) %mSrc_file) #13
  br i1 %call, label %if.then, label %if.end

if.then:                                          ; preds = %invoke.cont
  invoke void @_ZNK6Assimp16FileSystemFilter9BuildPathERNSt7__cxx1112basic_stringIcSt11char_traitsIcESaIcEEE(ptr noundef nonnull align 8 dereferenceable(105) %this1, ptr noundef nonnull align 8 dereferenceable(32) %tmp)
          to label %invoke.cont3 unwind label %lpad2

invoke.cont3:                                     ; preds = %if.then
  invoke void @_ZNK6Assimp16FileSystemFilter7CleanupERNSt7__cxx1112basic_stringIcSt11char_traitsIcESaIcEEE(ptr noundef nonnull align 8 dereferenceable(105) %this1, ptr noundef nonnull align 8 dereferenceable(32) %tmp)
          to label %invoke.cont4 unwind label %lpad2

invoke.cont4:                                     ; preds = %invoke.cont3
  br label %if.end

lpad:                                             ; preds = %entry
  %1 = landingpad { ptr, i32 }
          cleanup
  %2 = extractvalue { ptr, i32 } %1, 0
  store ptr %2, ptr %exn.slot, align 8
  %3 = extractvalue { ptr, i32 } %1, 1
  store i32 %3, ptr %ehselector.slot, align 4
  call void @_ZNSaIcED1Ev(ptr noundef nonnull align 1 dereferenceable(1) %ref.tmp) #13
  br label %eh.resume

lpad2:                                            ; preds = %if.end, %invoke.cont3, %if.then
  %4 = landingpad { ptr, i32 }
          cleanup
  %5 = extractvalue { ptr, i32 } %4, 0
  store ptr %5, ptr %exn.slot, align 8
  %6 = extractvalue { ptr, i32 } %4, 1
  store i32 %6, ptr %ehselector.slot, align 4
  call void @_ZNSt7__cxx1112basic_stringIcSt11char_traitsIcESaIcEED1Ev(ptr noundef nonnull align 8 dereferenceable(32) %tmp) #13
  br label %eh.resume

if.end:                                           ; preds = %invoke.cont4, %invoke.cont
  %mWrapped = getelementptr inbounds %"class.Assimp::FileSystemFilter", ptr %this1, i32 0, i32 1
  %7 = load ptr, ptr %mWrapped, align 8
  %call6 = invoke noundef zeroext i1 @_ZNK6Assimp8IOSystem6ExistsERKNSt7__cxx1112basic_stringIcSt11char_traitsIcESaIcEEE(ptr noundef nonnull align 8 dereferenceable(32) %7, ptr noundef nonnull align 8 dereferenceable(32) %tmp)
          to label %invoke.cont5 unwind label %lpad2

invoke.cont5:                                     ; preds = %if.end
  call void @_ZNSt7__cxx1112basic_stringIcSt11char_traitsIcESaIcEED1Ev(ptr noundef nonnull align 8 dereferenceable(32) %tmp) #13
  ret i1 %call6

eh.resume:                                        ; preds = %lpad2, %lpad
  %exn = load ptr, ptr %exn.slot, align 8
  %sel = load i32, ptr %ehselector.slot, align 4
  %lpad.val = insertvalue { ptr, i32 } poison, ptr %exn, 0
  %lpad.val7 = insertvalue { ptr, i32 } %lpad.val, i32 %sel, 1
  resume { ptr, i32 } %lpad.val7
}

; Function Attrs: mustprogress nounwind uwtable
define linkonce_odr hidden noundef signext i8 @_ZNK6Assimp16FileSystemFilter14getOsSeparatorEv(ptr noundef nonnull align 8 dereferenceable(105) %this) unnamed_addr #0 comdat align 2 {
entry:
  %this.addr = alloca ptr, align 8
  store ptr %this, ptr %this.addr, align 8
  %this1 = load ptr, ptr %this.addr, align 8
  %mSep = getelementptr inbounds %"class.Assimp::FileSystemFilter", ptr %this1, i32 0, i32 4
  %0 = load i8, ptr %mSep, align 8
  ret i8 %0
}

; Function Attrs: mustprogress uwtable
define linkonce_odr hidden noundef ptr @_ZN6Assimp16FileSystemFilter4OpenEPKcS2_(ptr noundef nonnull align 8 dereferenceable(105) %this, ptr noundef %pFile, ptr noundef %pMode) unnamed_addr #3 comdat align 2 personality ptr @__gxx_personality_v0 {
entry:
  %retval = alloca ptr, align 8
  %this.addr = alloca ptr, align 8
  %pFile.addr = alloca ptr, align 8
  %pMode.addr = alloca ptr, align 8
  %s = alloca ptr, align 8
  %tmp = alloca %"class.std::__cxx11::basic_string", align 8
  %ref.tmp = alloca %"class.std::allocator.0", align 1
  %exn.slot = alloca ptr, align 8
  %ehselector.slot = alloca i32, align 4
  %ref.tmp8 = alloca %"class.std::__cxx11::basic_string", align 8
  %ref.tmp9 = alloca %"class.std::allocator.0", align 1
  %ref.tmp22 = alloca %"class.std::__cxx11::basic_string", align 8
  %ref.tmp23 = alloca %"class.std::allocator.0", align 1
  store ptr %this, ptr %this.addr, align 8
  store ptr %pFile, ptr %pFile.addr, align 8
  store ptr %pMode, ptr %pMode.addr, align 8
  %this1 = load ptr, ptr %this.addr, align 8
  %0 = load ptr, ptr %pFile.addr, align 8
  %cmp = icmp eq ptr null, %0
  br i1 %cmp, label %if.then, label %lor.lhs.false

lor.lhs.false:                                    ; preds = %entry
  %1 = load ptr, ptr %pMode.addr, align 8
  %cmp2 = icmp eq ptr null, %1
  br i1 %cmp2, label %if.then, label %if.end

if.then:                                          ; preds = %lor.lhs.false, %entry
  store ptr null, ptr %retval, align 8
  br label %return

if.end:                                           ; preds = %lor.lhs.false
  %mWrapped = getelementptr inbounds %"class.Assimp::FileSystemFilter", ptr %this1, i32 0, i32 1
  %2 = load ptr, ptr %mWrapped, align 8
  %3 = load ptr, ptr %pFile.addr, align 8
  %4 = load ptr, ptr %pMode.addr, align 8
  %vtable = load ptr, ptr %2, align 8
  %vfn = getelementptr inbounds ptr, ptr %vtable, i64 4
  %5 = load ptr, ptr %vfn, align 8
  %call = call noundef ptr %5(ptr noundef nonnull align 8 dereferenceable(32) %2, ptr noundef %3, ptr noundef %4)
  store ptr %call, ptr %s, align 8
  %6 = load ptr, ptr %s, align 8
  %cmp3 = icmp eq ptr null, %6
  br i1 %cmp3, label %if.then4, label %if.end33

if.then4:                                         ; preds = %if.end
  %7 = load ptr, ptr %pFile.addr, align 8
  call void @_ZNSaIcEC1Ev(ptr noundef nonnull align 1 dereferenceable(1) %ref.tmp) #13
  invoke void @_ZNSt7__cxx1112basic_stringIcSt11char_traitsIcESaIcEEC2IS3_EEPKcRKS3_(ptr noundef nonnull align 8 dereferenceable(32) %tmp, ptr noundef %7, ptr noundef nonnull align 1 dereferenceable(1) %ref.tmp)
          to label %invoke.cont unwind label %lpad

invoke.cont:                                      ; preds = %if.then4
  call void @_ZNSaIcED1Ev(ptr noundef nonnull align 1 dereferenceable(1) %ref.tmp) #13
  invoke void @_ZNK6Assimp16FileSystemFilter9BuildPathERNSt7__cxx1112basic_stringIcSt11char_traitsIcESaIcEEE(ptr noundef nonnull align 8 dereferenceable(105) %this1, ptr noundef nonnull align 8 dereferenceable(32) %tmp)
          to label %invoke.cont6 unwind label %lpad5

invoke.cont6:                                     ; preds = %invoke.cont
  %mWrapped7 = getelementptr inbounds %"class.Assimp::FileSystemFilter", ptr %this1, i32 0, i32 1
  %8 = load ptr, ptr %mWrapped7, align 8
  %9 = load ptr, ptr %pMode.addr, align 8
  call void @_ZNSaIcEC1Ev(ptr noundef nonnull align 1 dereferenceable(1) %ref.tmp9) #13
  invoke void @_ZNSt7__cxx1112basic_stringIcSt11char_traitsIcESaIcEEC2IS3_EEPKcRKS3_(ptr noundef nonnull align 8 dereferenceable(32) %ref.tmp8, ptr noundef %9, ptr noundef nonnull align 1 dereferenceable(1) %ref.tmp9)
          to label %invoke.cont11 unwind label %lpad10

invoke.cont11:                                    ; preds = %invoke.cont6
  %call14 = invoke noundef ptr @_ZN6Assimp8IOSystem4OpenERKNSt7__cxx1112basic_stringIcSt11char_traitsIcESaIcEEES8_(ptr noundef nonnull align 8 dereferenceable(32) %8, ptr noundef nonnull align 8 dereferenceable(32) %tmp, ptr noundef nonnull align 8 dereferenceable(32) %ref.tmp8)
          to label %invoke.cont13 unwind label %lpad12

invoke.cont13:                                    ; preds = %invoke.cont11
  store ptr %call14, ptr %s, align 8
  call void @_ZNSt7__cxx1112basic_stringIcSt11char_traitsIcESaIcEED1Ev(ptr noundef nonnull align 8 dereferenceable(32) %ref.tmp8) #13
  call void @_ZNSaIcED1Ev(ptr noundef nonnull align 1 dereferenceable(1) %ref.tmp9) #13
  %10 = load ptr, ptr %s, align 8
  %cmp15 = icmp eq ptr null, %10
  br i1 %cmp15, label %if.then16, label %if.end31

if.then16:                                        ; preds = %invoke.cont13
  %11 = load ptr, ptr %pFile.addr, align 8
  %call18 = invoke noundef nonnull align 8 dereferenceable(32) ptr @_ZNSt7__cxx1112basic_stringIcSt11char_traitsIcESaIcEEaSEPKc(ptr noundef nonnull align 8 dereferenceable(32) %tmp, ptr noundef %11)
          to label %invoke.cont17 unwind label %lpad5

invoke.cont17:                                    ; preds = %if.then16
  invoke void @_ZNK6Assimp16FileSystemFilter7CleanupERNSt7__cxx1112basic_stringIcSt11char_traitsIcESaIcEEE(ptr noundef nonnull align 8 dereferenceable(105) %this1, ptr noundef nonnull align 8 dereferenceable(32) %tmp)
          to label %invoke.cont19 unwind label %lpad5

invoke.cont19:                                    ; preds = %invoke.cont17
  invoke void @_ZNK6Assimp16FileSystemFilter9BuildPathERNSt7__cxx1112basic_stringIcSt11char_traitsIcESaIcEEE(ptr noundef nonnull align 8 dereferenceable(105) %this1, ptr noundef nonnull align 8 dereferenceable(32) %tmp)
          to label %invoke.cont20 unwind label %lpad5

invoke.cont20:                                    ; preds = %invoke.cont19
  %mWrapped21 = getelementptr inbounds %"class.Assimp::FileSystemFilter", ptr %this1, i32 0, i32 1
  %12 = load ptr, ptr %mWrapped21, align 8
  %13 = load ptr, ptr %pMode.addr, align 8
  call void @_ZNSaIcEC1Ev(ptr noundef nonnull align 1 dereferenceable(1) %ref.tmp23) #13
  invoke void @_ZNSt7__cxx1112basic_stringIcSt11char_traitsIcESaIcEEC2IS3_EEPKcRKS3_(ptr noundef nonnull align 8 dereferenceable(32) %ref.tmp22, ptr noundef %13, ptr noundef nonnull align 1 dereferenceable(1) %ref.tmp23)
          to label %invoke.cont25 unwind label %lpad24

invoke.cont25:                                    ; preds = %invoke.cont20
  %call28 = invoke noundef ptr @_ZN6Assimp8IOSystem4OpenERKNSt7__cxx1112basic_stringIcSt11char_traitsIcESaIcEEES8_(ptr noundef nonnull align 8 dereferenceable(32) %12, ptr noundef nonnull align 8 dereferenceable(32) %tmp, ptr noundef nonnull align 8 dereferenceable(32) %ref.tmp22)
          to label %invoke.cont27 unwind label %lpad26

invoke.cont27:                                    ; preds = %invoke.cont25
  store ptr %call28, ptr %s, align 8
  call void @_ZNSt7__cxx1112basic_stringIcSt11char_traitsIcESaIcEED1Ev(ptr noundef nonnull align 8 dereferenceable(32) %ref.tmp22) #13
  call void @_ZNSaIcED1Ev(ptr noundef nonnull align 1 dereferenceable(1) %ref.tmp23) #13
  br label %if.end31

lpad:                                             ; preds = %if.then4
  %14 = landingpad { ptr, i32 }
          cleanup
  %15 = extractvalue { ptr, i32 } %14, 0
  store ptr %15, ptr %exn.slot, align 8
  %16 = extractvalue { ptr, i32 } %14, 1
  store i32 %16, ptr %ehselector.slot, align 4
  call void @_ZNSaIcED1Ev(ptr noundef nonnull align 1 dereferenceable(1) %ref.tmp) #13
  br label %eh.resume

lpad5:                                            ; preds = %invoke.cont19, %invoke.cont17, %if.then16, %invoke.cont
  %17 = landingpad { ptr, i32 }
          cleanup
  %18 = extractvalue { ptr, i32 } %17, 0
  store ptr %18, ptr %exn.slot, align 8
  %19 = extractvalue { ptr, i32 } %17, 1
  store i32 %19, ptr %ehselector.slot, align 4
  br label %ehcleanup32

lpad10:                                           ; preds = %invoke.cont6
  %20 = landingpad { ptr, i32 }
          cleanup
  %21 = extractvalue { ptr, i32 } %20, 0
  store ptr %21, ptr %exn.slot, align 8
  %22 = extractvalue { ptr, i32 } %20, 1
  store i32 %22, ptr %ehselector.slot, align 4
  br label %ehcleanup

lpad12:                                           ; preds = %invoke.cont11
  %23 = landingpad { ptr, i32 }
          cleanup
  %24 = extractvalue { ptr, i32 } %23, 0
  store ptr %24, ptr %exn.slot, align 8
  %25 = extractvalue { ptr, i32 } %23, 1
  store i32 %25, ptr %ehselector.slot, align 4
  call void @_ZNSt7__cxx1112basic_stringIcSt11char_traitsIcESaIcEED1Ev(ptr noundef nonnull align 8 dereferenceable(32) %ref.tmp8) #13
  br label %ehcleanup

ehcleanup:                                        ; preds = %lpad12, %lpad10
  call void @_ZNSaIcED1Ev(ptr noundef nonnull align 1 dereferenceable(1) %ref.tmp9) #13
  br label %ehcleanup32

lpad24:                                           ; preds = %invoke.cont20
  %26 = landingpad { ptr, i32 }
          cleanup
  %27 = extractvalue { ptr, i32 } %26, 0
  store ptr %27, ptr %exn.slot, align 8
  %28 = extractvalue { ptr, i32 } %26, 1
  store i32 %28, ptr %ehselector.slot, align 4
  br label %ehcleanup30

lpad26:                                           ; preds = %invoke.cont25
  %29 = landingpad { ptr, i32 }
          cleanup
  %30 = extractvalue { ptr, i32 } %29, 0
  store ptr %30, ptr %exn.slot, align 8
  %31 = extractvalue { ptr, i32 } %29, 1
  store i32 %31, ptr %ehselector.slot, align 4
  call void @_ZNSt7__cxx1112basic_stringIcSt11char_traitsIcESaIcEED1Ev(ptr noundef nonnull align 8 dereferenceable(32) %ref.tmp22) #13
  br label %ehcleanup30

ehcleanup30:                                      ; preds = %lpad26, %lpad24
  call void @_ZNSaIcED1Ev(ptr noundef nonnull align 1 dereferenceable(1) %ref.tmp23) #13
  br label %ehcleanup32

if.end31:                                         ; preds = %invoke.cont27, %invoke.cont13
  call void @_ZNSt7__cxx1112basic_stringIcSt11char_traitsIcESaIcEED1Ev(ptr noundef nonnull align 8 dereferenceable(32) %tmp) #13
  br label %if.end33

ehcleanup32:                                      ; preds = %ehcleanup30, %ehcleanup, %lpad5
  call void @_ZNSt7__cxx1112basic_stringIcSt11char_traitsIcESaIcEED1Ev(ptr noundef nonnull align 8 dereferenceable(32) %tmp) #13
  br label %eh.resume

if.end33:                                         ; preds = %if.end31, %if.end
  %32 = load ptr, ptr %s, align 8
  store ptr %32, ptr %retval, align 8
  br label %return

return:                                           ; preds = %if.end33, %if.then
  %33 = load ptr, ptr %retval, align 8
  ret ptr %33

eh.resume:                                        ; preds = %ehcleanup32, %lpad
  %exn = load ptr, ptr %exn.slot, align 8
  %sel = load i32, ptr %ehselector.slot, align 4
  %lpad.val = insertvalue { ptr, i32 } poison, ptr %exn, 0
  %lpad.val34 = insertvalue { ptr, i32 } %lpad.val, i32 %sel, 1
  resume { ptr, i32 } %lpad.val34
}

; Function Attrs: mustprogress uwtable
define linkonce_odr hidden void @_ZN6Assimp16FileSystemFilter5CloseEPNS_8IOStreamE(ptr noundef nonnull align 8 dereferenceable(105) %this, ptr noundef %pFile) unnamed_addr #3 comdat align 2 {
entry:
  %this.addr = alloca ptr, align 8
  %pFile.addr = alloca ptr, align 8
  store ptr %this, ptr %this.addr, align 8
  store ptr %pFile, ptr %pFile.addr, align 8
  %this1 = load ptr, ptr %this.addr, align 8
  %mWrapped = getelementptr inbounds %"class.Assimp::FileSystemFilter", ptr %this1, i32 0, i32 1
  %0 = load ptr, ptr %mWrapped, align 8
  %1 = load ptr, ptr %pFile.addr, align 8
  %vtable = load ptr, ptr %0, align 8
  %vfn = getelementptr inbounds ptr, ptr %vtable, i64 5
  %2 = load ptr, ptr %vfn, align 8
  call void %2(ptr noundef nonnull align 8 dereferenceable(32) %0, ptr noundef %1)
  ret void
}

; Function Attrs: mustprogress uwtable
define linkonce_odr hidden noundef zeroext i1 @_ZNK6Assimp16FileSystemFilter12ComparePathsEPKcS2_(ptr noundef nonnull align 8 dereferenceable(105) %this, ptr noundef %one, ptr noundef %second) unnamed_addr #3 comdat align 2 {
entry:
  %this.addr = alloca ptr, align 8
  %one.addr = alloca ptr, align 8
  %second.addr = alloca ptr, align 8
  store ptr %this, ptr %this.addr, align 8
  store ptr %one, ptr %one.addr, align 8
  store ptr %second, ptr %second.addr, align 8
  %this1 = load ptr, ptr %this.addr, align 8
  %mWrapped = getelementptr inbounds %"class.Assimp::FileSystemFilter", ptr %this1, i32 0, i32 1
  %0 = load ptr, ptr %mWrapped, align 8
  %1 = load ptr, ptr %one.addr, align 8
  %2 = load ptr, ptr %second.addr, align 8
  %vtable = load ptr, ptr %0, align 8
  %vfn = getelementptr inbounds ptr, ptr %vtable, i64 6
  %3 = load ptr, ptr %vfn, align 8
  %call = call noundef zeroext i1 %3(ptr noundef nonnull align 8 dereferenceable(32) %0, ptr noundef %1, ptr noundef %2)
  ret i1 %call
}

; Function Attrs: mustprogress uwtable
define linkonce_odr hidden noundef zeroext i1 @_ZN6Assimp16FileSystemFilter13PushDirectoryERKNSt7__cxx1112basic_stringIcSt11char_traitsIcESaIcEEE(ptr noundef nonnull align 8 dereferenceable(105) %this, ptr noundef nonnull align 8 dereferenceable(32) %path) unnamed_addr #3 comdat align 2 {
entry:
  %this.addr = alloca ptr, align 8
  %path.addr = alloca ptr, align 8
  store ptr %this, ptr %this.addr, align 8
  store ptr %path, ptr %path.addr, align 8
  %this1 = load ptr, ptr %this.addr, align 8
  %mWrapped = getelementptr inbounds %"class.Assimp::FileSystemFilter", ptr %this1, i32 0, i32 1
  %0 = load ptr, ptr %mWrapped, align 8
  %1 = load ptr, ptr %path.addr, align 8
  %vtable = load ptr, ptr %0, align 8
  %vfn = getelementptr inbounds ptr, ptr %vtable, i64 7
  %2 = load ptr, ptr %vfn, align 8
  %call = call noundef zeroext i1 %2(ptr noundef nonnull align 8 dereferenceable(32) %0, ptr noundef nonnull align 8 dereferenceable(32) %1)
  ret i1 %call
}

; Function Attrs: mustprogress uwtable
define linkonce_odr hidden noundef nonnull align 8 dereferenceable(32) ptr @_ZNK6Assimp16FileSystemFilter16CurrentDirectoryB5cxx11Ev(ptr noundef nonnull align 8 dereferenceable(105) %this) unnamed_addr #3 comdat align 2 {
entry:
  %this.addr = alloca ptr, align 8
  store ptr %this, ptr %this.addr, align 8
  %this1 = load ptr, ptr %this.addr, align 8
  %mWrapped = getelementptr inbounds %"class.Assimp::FileSystemFilter", ptr %this1, i32 0, i32 1
  %0 = load ptr, ptr %mWrapped, align 8
  %vtable = load ptr, ptr %0, align 8
  %vfn = getelementptr inbounds ptr, ptr %vtable, i64 8
  %1 = load ptr, ptr %vfn, align 8
  %call = call noundef nonnull align 8 dereferenceable(32) ptr %1(ptr noundef nonnull align 8 dereferenceable(32) %0)
  ret ptr %call
}

; Function Attrs: mustprogress uwtable
define linkonce_odr hidden noundef i64 @_ZNK6Assimp16FileSystemFilter9StackSizeEv(ptr noundef nonnull align 8 dereferenceable(105) %this) unnamed_addr #3 comdat align 2 {
entry:
  %this.addr = alloca ptr, align 8
  store ptr %this, ptr %this.addr, align 8
  %this1 = load ptr, ptr %this.addr, align 8
  %mWrapped = getelementptr inbounds %"class.Assimp::FileSystemFilter", ptr %this1, i32 0, i32 1
  %0 = load ptr, ptr %mWrapped, align 8
  %vtable = load ptr, ptr %0, align 8
  %vfn = getelementptr inbounds ptr, ptr %vtable, i64 9
  %1 = load ptr, ptr %vfn, align 8
  %call = call noundef i64 %1(ptr noundef nonnull align 8 dereferenceable(32) %0)
  ret i64 %call
}

; Function Attrs: mustprogress uwtable
define linkonce_odr hidden noundef zeroext i1 @_ZN6Assimp16FileSystemFilter12PopDirectoryEv(ptr noundef nonnull align 8 dereferenceable(105) %this) unnamed_addr #3 comdat align 2 {
entry:
  %this.addr = alloca ptr, align 8
  store ptr %this, ptr %this.addr, align 8
  %this1 = load ptr, ptr %this.addr, align 8
  %mWrapped = getelementptr inbounds %"class.Assimp::FileSystemFilter", ptr %this1, i32 0, i32 1
  %0 = load ptr, ptr %mWrapped, align 8
  %vtable = load ptr, ptr %0, align 8
  %vfn = getelementptr inbounds ptr, ptr %vtable, i64 10
  %1 = load ptr, ptr %vfn, align 8
  %call = call noundef zeroext i1 %1(ptr noundef nonnull align 8 dereferenceable(32) %0)
  ret i1 %call
}

; Function Attrs: mustprogress uwtable
define linkonce_odr hidden noundef zeroext i1 @_ZN6Assimp16FileSystemFilter15CreateDirectoryERKNSt7__cxx1112basic_stringIcSt11char_traitsIcESaIcEEE(ptr noundef nonnull align 8 dereferenceable(105) %this, ptr noundef nonnull align 8 dereferenceable(32) %path) unnamed_addr #3 comdat align 2 {
entry:
  %this.addr = alloca ptr, align 8
  %path.addr = alloca ptr, align 8
  store ptr %this, ptr %this.addr, align 8
  store ptr %path, ptr %path.addr, align 8
  %this1 = load ptr, ptr %this.addr, align 8
  %mWrapped = getelementptr inbounds %"class.Assimp::FileSystemFilter", ptr %this1, i32 0, i32 1
  %0 = load ptr, ptr %mWrapped, align 8
  %1 = load ptr, ptr %path.addr, align 8
  %vtable = load ptr, ptr %0, align 8
  %vfn = getelementptr inbounds ptr, ptr %vtable, i64 11
  %2 = load ptr, ptr %vfn, align 8
  %call = call noundef zeroext i1 %2(ptr noundef nonnull align 8 dereferenceable(32) %0, ptr noundef nonnull align 8 dereferenceable(32) %1)
  ret i1 %call
}

; Function Attrs: mustprogress uwtable
define linkonce_odr hidden noundef zeroext i1 @_ZN6Assimp16FileSystemFilter15ChangeDirectoryERKNSt7__cxx1112basic_stringIcSt11char_traitsIcESaIcEEE(ptr noundef nonnull align 8 dereferenceable(105) %this, ptr noundef nonnull align 8 dereferenceable(32) %path) unnamed_addr #3 comdat align 2 {
entry:
  %this.addr = alloca ptr, align 8
  %path.addr = alloca ptr, align 8
  store ptr %this, ptr %this.addr, align 8
  store ptr %path, ptr %path.addr, align 8
  %this1 = load ptr, ptr %this.addr, align 8
  %mWrapped = getelementptr inbounds %"class.Assimp::FileSystemFilter", ptr %this1, i32 0, i32 1
  %0 = load ptr, ptr %mWrapped, align 8
  %1 = load ptr, ptr %path.addr, align 8
  %vtable = load ptr, ptr %0, align 8
  %vfn = getelementptr inbounds ptr, ptr %vtable, i64 12
  %2 = load ptr, ptr %vfn, align 8
  %call = call noundef zeroext i1 %2(ptr noundef nonnull align 8 dereferenceable(32) %0, ptr noundef nonnull align 8 dereferenceable(32) %1)
  ret i1 %call
}

; Function Attrs: mustprogress uwtable
define linkonce_odr hidden noundef zeroext i1 @_ZN6Assimp16FileSystemFilter10DeleteFileERKNSt7__cxx1112basic_stringIcSt11char_traitsIcESaIcEEE(ptr noundef nonnull align 8 dereferenceable(105) %this, ptr noundef nonnull align 8 dereferenceable(32) %file) unnamed_addr #3 comdat align 2 {
entry:
  %this.addr = alloca ptr, align 8
  %file.addr = alloca ptr, align 8
  store ptr %this, ptr %this.addr, align 8
  store ptr %file, ptr %file.addr, align 8
  %this1 = load ptr, ptr %this.addr, align 8
  %mWrapped = getelementptr inbounds %"class.Assimp::FileSystemFilter", ptr %this1, i32 0, i32 1
  %0 = load ptr, ptr %mWrapped, align 8
  %1 = load ptr, ptr %file.addr, align 8
  %vtable = load ptr, ptr %0, align 8
  %vfn = getelementptr inbounds ptr, ptr %vtable, i64 13
  %2 = load ptr, ptr %vfn, align 8
  %call = call noundef zeroext i1 %2(ptr noundef nonnull align 8 dereferenceable(32) %0, ptr noundef nonnull align 8 dereferenceable(32) %1)
  ret i1 %call
}

; Function Attrs: mustprogress nounwind uwtable
define linkonce_odr void @_ZNSt6vectorINSt7__cxx1112basic_stringIcSt11char_traitsIcESaIcEEESaIS5_EEC2Ev(ptr noundef nonnull align 8 dereferenceable(24) %this) unnamed_addr #0 comdat align 2 {
entry:
  %this.addr = alloca ptr, align 8
  store ptr %this, ptr %this.addr, align 8
  %this1 = load ptr, ptr %this.addr, align 8
  call void @_ZNSt12_Vector_baseINSt7__cxx1112basic_stringIcSt11char_traitsIcESaIcEEESaIS5_EEC2Ev(ptr noundef nonnull align 8 dereferenceable(24) %this1) #13
  ret void
}

; Function Attrs: mustprogress nounwind uwtable
define linkonce_odr void @_ZNSt12_Vector_baseINSt7__cxx1112basic_stringIcSt11char_traitsIcESaIcEEESaIS5_EEC2Ev(ptr noundef nonnull align 8 dereferenceable(24) %this) unnamed_addr #0 comdat align 2 {
entry:
  %this.addr = alloca ptr, align 8
  store ptr %this, ptr %this.addr, align 8
  %this1 = load ptr, ptr %this.addr, align 8
  %_M_impl = getelementptr inbounds %"struct.std::_Vector_base", ptr %this1, i32 0, i32 0
  call void @_ZNSt12_Vector_baseINSt7__cxx1112basic_stringIcSt11char_traitsIcESaIcEEESaIS5_EE12_Vector_implC2Ev(ptr noundef nonnull align 8 dereferenceable(24) %_M_impl) #13
  ret void
}

; Function Attrs: mustprogress nounwind uwtable
define linkonce_odr void @_ZNSt12_Vector_baseINSt7__cxx1112basic_stringIcSt11char_traitsIcESaIcEEESaIS5_EE12_Vector_implC2Ev(ptr noundef nonnull align 8 dereferenceable(24) %this) unnamed_addr #0 comdat align 2 {
entry:
  %this.addr = alloca ptr, align 8
  store ptr %this, ptr %this.addr, align 8
  %this1 = load ptr, ptr %this.addr, align 8
  call void @_ZNSaINSt7__cxx1112basic_stringIcSt11char_traitsIcESaIcEEEEC2Ev(ptr noundef nonnull align 1 dereferenceable(1) %this1) #13
  call void @_ZNSt12_Vector_baseINSt7__cxx1112basic_stringIcSt11char_traitsIcESaIcEEESaIS5_EE17_Vector_impl_dataC2Ev(ptr noundef nonnull align 8 dereferenceable(24) %this1) #13
  ret void
}

; Function Attrs: mustprogress nounwind uwtable
define linkonce_odr void @_ZNSaINSt7__cxx1112basic_stringIcSt11char_traitsIcESaIcEEEEC2Ev(ptr noundef nonnull align 1 dereferenceable(1) %this) unnamed_addr #0 comdat align 2 {
entry:
  %this.addr = alloca ptr, align 8
  store ptr %this, ptr %this.addr, align 8
  %this1 = load ptr, ptr %this.addr, align 8
  call void @_ZNSt15__new_allocatorINSt7__cxx1112basic_stringIcSt11char_traitsIcESaIcEEEEC2Ev(ptr noundef nonnull align 1 dereferenceable(1) %this1) #13
  ret void
}

; Function Attrs: mustprogress nounwind uwtable
define linkonce_odr void @_ZNSt12_Vector_baseINSt7__cxx1112basic_stringIcSt11char_traitsIcESaIcEEESaIS5_EE17_Vector_impl_dataC2Ev(ptr noundef nonnull align 8 dereferenceable(24) %this) unnamed_addr #0 comdat align 2 {
entry:
  %this.addr = alloca ptr, align 8
  store ptr %this, ptr %this.addr, align 8
  %this1 = load ptr, ptr %this.addr, align 8
  %_M_start = getelementptr inbounds %"struct.std::_Vector_base<std::__cxx11::basic_string<char>, std::allocator<std::__cxx11::basic_string<char>>>::_Vector_impl_data", ptr %this1, i32 0, i32 0
  store ptr null, ptr %_M_start, align 8
  %_M_finish = getelementptr inbounds %"struct.std::_Vector_base<std::__cxx11::basic_string<char>, std::allocator<std::__cxx11::basic_string<char>>>::_Vector_impl_data", ptr %this1, i32 0, i32 1
  store ptr null, ptr %_M_finish, align 8
  %_M_end_of_storage = getelementptr inbounds %"struct.std::_Vector_base<std::__cxx11::basic_string<char>, std::allocator<std::__cxx11::basic_string<char>>>::_Vector_impl_data", ptr %this1, i32 0, i32 2
  store ptr null, ptr %_M_end_of_storage, align 8
  ret void
}

; Function Attrs: mustprogress nounwind uwtable
define linkonce_odr void @_ZNSt15__new_allocatorINSt7__cxx1112basic_stringIcSt11char_traitsIcESaIcEEEEC2Ev(ptr noundef nonnull align 1 dereferenceable(1) %this) unnamed_addr #0 comdat align 2 {
entry:
  %this.addr = alloca ptr, align 8
  store ptr %this, ptr %this.addr, align 8
  ret void
}

; Function Attrs: mustprogress nounwind uwtable
define linkonce_odr void @_ZN9__gnu_cxx17__normal_iteratorIPcNSt7__cxx1112basic_stringIcSt11char_traitsIcESaIcEEEEC2ERKS1_(ptr noundef nonnull align 8 dereferenceable(8) %this, ptr noundef nonnull align 8 dereferenceable(8) %__i) unnamed_addr #0 comdat align 2 {
entry:
  %this.addr = alloca ptr, align 8
  %__i.addr = alloca ptr, align 8
  store ptr %this, ptr %this.addr, align 8
  store ptr %__i, ptr %__i.addr, align 8
  %this1 = load ptr, ptr %this.addr, align 8
  %_M_current = getelementptr inbounds %"class.__gnu_cxx::__normal_iterator.74", ptr %this1, i32 0, i32 0
  %0 = load ptr, ptr %__i.addr, align 8
  %1 = load ptr, ptr %0, align 8
  store ptr %1, ptr %_M_current, align 8
  ret void
}

; Function Attrs: mustprogress uwtable
define linkonce_odr void @_ZN6Assimp6Logger13formatMessageIJRA2_KcERNSt7__cxx1112basic_stringIcSt11char_traitsIcESaIcEEEEESA_NS_9Formatter15basic_formatterIcS8_S9_EEOT0_DpOT_(ptr noalias sret(%"class.std::__cxx11::basic_string") align 8 %agg.result, ptr noundef nonnull align 8 dereferenceable(12) %this, ptr noundef %f, ptr noundef nonnull align 8 dereferenceable(32) %u, ptr noundef nonnull align 1 dereferenceable(2) %args) #3 comdat align 2 personality ptr @__gxx_personality_v0 {
entry:
  %result.ptr = alloca ptr, align 8
  %this.addr = alloca ptr, align 8
  %f.indirect_addr = alloca ptr, align 8
  %u.addr = alloca ptr, align 8
  %args.addr = alloca ptr, align 8
  %agg.tmp = alloca %"class.Assimp::Formatter::basic_formatter", align 8
  %exn.slot = alloca ptr, align 8
  %ehselector.slot = alloca i32, align 4
  store ptr %agg.result, ptr %result.ptr, align 8
  store ptr %this, ptr %this.addr, align 8
  store ptr %f, ptr %f.indirect_addr, align 8
  store ptr %u, ptr %u.addr, align 8
  store ptr %args, ptr %args.addr, align 8
  %this1 = load ptr, ptr %this.addr, align 8
  %0 = load ptr, ptr %u.addr, align 8
  %call = call noundef nonnull align 8 dereferenceable(376) ptr @_ZN6Assimp9Formatter15basic_formatterIcSt11char_traitsIcESaIcEElsINSt7__cxx1112basic_stringIcS3_S4_EETnPNSt9enable_ifIXntsr3std10is_base_ofISt9exceptionT_EE5valueEvE4typeELPv0EEERS5_RKSC_(ptr noundef nonnull align 8 dereferenceable(376) %f, ptr noundef nonnull align 8 dereferenceable(32) %0)
  call void @_ZN6Assimp9Formatter15basic_formatterIcSt11char_traitsIcESaIcEEC2EOS5_(ptr noundef nonnull align 8 dereferenceable(376) %agg.tmp, ptr noundef nonnull align 8 dereferenceable(376) %call)
  %1 = load ptr, ptr %args.addr, align 8
  invoke void @_ZN6Assimp6Logger13formatMessageIJERA2_KcEENSt7__cxx1112basic_stringIcSt11char_traitsIcESaIcEEENS_9Formatter15basic_formatterIcS8_S9_EEOT0_DpOT_(ptr sret(%"class.std::__cxx11::basic_string") align 8 %agg.result, ptr noundef nonnull align 8 dereferenceable(12) %this1, ptr noundef %agg.tmp, ptr noundef nonnull align 1 dereferenceable(2) %1)
          to label %invoke.cont unwind label %lpad

invoke.cont:                                      ; preds = %entry
  call void @_ZN6Assimp9Formatter15basic_formatterIcSt11char_traitsIcESaIcEED2Ev(ptr noundef nonnull align 8 dereferenceable(376) %agg.tmp) #13
  ret void

lpad:                                             ; preds = %entry
  %2 = landingpad { ptr, i32 }
          cleanup
  %3 = extractvalue { ptr, i32 } %2, 0
  store ptr %3, ptr %exn.slot, align 8
  %4 = extractvalue { ptr, i32 } %2, 1
  store i32 %4, ptr %ehselector.slot, align 4
  call void @_ZN6Assimp9Formatter15basic_formatterIcSt11char_traitsIcESaIcEED2Ev(ptr noundef nonnull align 8 dereferenceable(376) %agg.tmp) #13
  br label %eh.resume

eh.resume:                                        ; preds = %lpad
  %exn = load ptr, ptr %exn.slot, align 8
  %sel = load i32, ptr %ehselector.slot, align 4
  %lpad.val = insertvalue { ptr, i32 } poison, ptr %exn, 0
  %lpad.val2 = insertvalue { ptr, i32 } %lpad.val, i32 %sel, 1
  resume { ptr, i32 } %lpad.val2
}

; Function Attrs: mustprogress uwtable
define linkonce_odr hidden void @_ZN6Assimp9Formatter15basic_formatterIcSt11char_traitsIcESaIcEEC2IA27_cEERKT_(ptr noundef nonnull align 8 dereferenceable(376) %this, ptr noundef nonnull align 1 dereferenceable(27) %sin) unnamed_addr #3 comdat align 2 personality ptr @__gxx_personality_v0 {
entry:
  %this.addr = alloca ptr, align 8
  %sin.addr = alloca ptr, align 8
  %exn.slot = alloca ptr, align 8
  %ehselector.slot = alloca i32, align 4
  store ptr %this, ptr %this.addr, align 8
  store ptr %sin, ptr %sin.addr, align 8
  %this1 = load ptr, ptr %this.addr, align 8
  %underlying = getelementptr inbounds %"class.Assimp::Formatter::basic_formatter", ptr %this1, i32 0, i32 0
  call void @_ZNSt7__cxx1119basic_ostringstreamIcSt11char_traitsIcESaIcEEC1Ev(ptr noundef nonnull align 8 dereferenceable(112) %underlying)
  %underlying2 = getelementptr inbounds %"class.Assimp::Formatter::basic_formatter", ptr %this1, i32 0, i32 0
  %0 = load ptr, ptr %sin.addr, align 8
  %arraydecay = getelementptr inbounds [27 x i8], ptr %0, i64 0, i64 0
  %call = invoke noundef nonnull align 8 dereferenceable(8) ptr @_ZStlsISt11char_traitsIcEERSt13basic_ostreamIcT_ES5_PKc(ptr noundef nonnull align 8 dereferenceable(8) %underlying2, ptr noundef %arraydecay)
          to label %invoke.cont unwind label %lpad

invoke.cont:                                      ; preds = %entry
  ret void

lpad:                                             ; preds = %entry
  %1 = landingpad { ptr, i32 }
          cleanup
  %2 = extractvalue { ptr, i32 } %1, 0
  store ptr %2, ptr %exn.slot, align 8
  %3 = extractvalue { ptr, i32 } %1, 1
  store i32 %3, ptr %ehselector.slot, align 4
  call void @_ZNSt7__cxx1119basic_ostringstreamIcSt11char_traitsIcESaIcEED1Ev(ptr noundef nonnull align 8 dereferenceable(112) %underlying) #13
  br label %eh.resume

eh.resume:                                        ; preds = %lpad
  %exn = load ptr, ptr %exn.slot, align 8
  %sel = load i32, ptr %ehselector.slot, align 4
  %lpad.val = insertvalue { ptr, i32 } poison, ptr %exn, 0
  %lpad.val3 = insertvalue { ptr, i32 } %lpad.val, i32 %sel, 1
  resume { ptr, i32 } %lpad.val3
}

; Function Attrs: mustprogress nounwind uwtable
define linkonce_odr hidden void @_ZN6Assimp9Formatter15basic_formatterIcSt11char_traitsIcESaIcEED2Ev(ptr noundef nonnull align 8 dereferenceable(376) %this) unnamed_addr #0 comdat align 2 {
entry:
  %this.addr = alloca ptr, align 8
  store ptr %this, ptr %this.addr, align 8
  %this1 = load ptr, ptr %this.addr, align 8
  %underlying = getelementptr inbounds %"class.Assimp::Formatter::basic_formatter", ptr %this1, i32 0, i32 0
  call void @_ZNSt7__cxx1119basic_ostringstreamIcSt11char_traitsIcESaIcEED1Ev(ptr noundef nonnull align 8 dereferenceable(112) %underlying) #13
  ret void
}

; Function Attrs: mustprogress uwtable
define linkonce_odr void @_ZN6Assimp6Logger13formatMessageIJERA2_KcEENSt7__cxx1112basic_stringIcSt11char_traitsIcESaIcEEENS_9Formatter15basic_formatterIcS8_S9_EEOT0_DpOT_(ptr noalias sret(%"class.std::__cxx11::basic_string") align 8 %agg.result, ptr noundef nonnull align 8 dereferenceable(12) %this, ptr noundef %f, ptr noundef nonnull align 1 dereferenceable(2) %u) #3 comdat align 2 personality ptr @__gxx_personality_v0 {
entry:
  %result.ptr = alloca ptr, align 8
  %this.addr = alloca ptr, align 8
  %f.indirect_addr = alloca ptr, align 8
  %u.addr = alloca ptr, align 8
  %agg.tmp = alloca %"class.Assimp::Formatter::basic_formatter", align 8
  %exn.slot = alloca ptr, align 8
  %ehselector.slot = alloca i32, align 4
  store ptr %agg.result, ptr %result.ptr, align 8
  store ptr %this, ptr %this.addr, align 8
  store ptr %f, ptr %f.indirect_addr, align 8
  store ptr %u, ptr %u.addr, align 8
  %this1 = load ptr, ptr %this.addr, align 8
  %0 = load ptr, ptr %u.addr, align 8
  %call = call noundef nonnull align 8 dereferenceable(376) ptr @_ZN6Assimp9Formatter15basic_formatterIcSt11char_traitsIcESaIcEElsIA2_cTnPNSt9enable_ifIXntsr3std10is_base_ofISt9exceptionT_EE5valueEvE4typeELPv0EEERS5_RKSA_(ptr noundef nonnull align 8 dereferenceable(376) %f, ptr noundef nonnull align 1 dereferenceable(2) %0)
  call void @_ZN6Assimp9Formatter15basic_formatterIcSt11char_traitsIcESaIcEEC2EOS5_(ptr noundef nonnull align 8 dereferenceable(376) %agg.tmp, ptr noundef nonnull align 8 dereferenceable(376) %call)
  invoke void @_ZN6Assimp6Logger13formatMessageB5cxx11ENS_9Formatter15basic_formatterIcSt11char_traitsIcESaIcEEE(ptr sret(%"class.std::__cxx11::basic_string") align 8 %agg.result, ptr noundef nonnull align 8 dereferenceable(12) %this1, ptr noundef %agg.tmp)
          to label %invoke.cont unwind label %lpad

invoke.cont:                                      ; preds = %entry
  call void @_ZN6Assimp9Formatter15basic_formatterIcSt11char_traitsIcESaIcEED2Ev(ptr noundef nonnull align 8 dereferenceable(376) %agg.tmp) #13
  ret void

lpad:                                             ; preds = %entry
  %1 = landingpad { ptr, i32 }
          cleanup
  %2 = extractvalue { ptr, i32 } %1, 0
  store ptr %2, ptr %exn.slot, align 8
  %3 = extractvalue { ptr, i32 } %1, 1
  store i32 %3, ptr %ehselector.slot, align 4
  call void @_ZN6Assimp9Formatter15basic_formatterIcSt11char_traitsIcESaIcEED2Ev(ptr noundef nonnull align 8 dereferenceable(376) %agg.tmp) #13
  br label %eh.resume

eh.resume:                                        ; preds = %lpad
  %exn = load ptr, ptr %exn.slot, align 8
  %sel = load i32, ptr %ehselector.slot, align 4
  %lpad.val = insertvalue { ptr, i32 } poison, ptr %exn, 0
  %lpad.val2 = insertvalue { ptr, i32 } %lpad.val, i32 %sel, 1
  resume { ptr, i32 } %lpad.val2
}

; Function Attrs: mustprogress uwtable
define linkonce_odr hidden noundef nonnull align 8 dereferenceable(376) ptr @_ZN6Assimp9Formatter15basic_formatterIcSt11char_traitsIcESaIcEElsINSt7__cxx1112basic_stringIcS3_S4_EETnPNSt9enable_ifIXntsr3std10is_base_ofISt9exceptionT_EE5valueEvE4typeELPv0EEERS5_RKSC_(ptr noundef nonnull align 8 dereferenceable(376) %this, ptr noundef nonnull align 8 dereferenceable(32) %s) #3 comdat align 2 {
entry:
  %this.addr = alloca ptr, align 8
  %s.addr = alloca ptr, align 8
  store ptr %this, ptr %this.addr, align 8
  store ptr %s, ptr %s.addr, align 8
  %this1 = load ptr, ptr %this.addr, align 8
  %underlying = getelementptr inbounds %"class.Assimp::Formatter::basic_formatter", ptr %this1, i32 0, i32 0
  %0 = load ptr, ptr %s.addr, align 8
  %call = call noundef nonnull align 8 dereferenceable(8) ptr @_ZStlsIcSt11char_traitsIcESaIcEERSt13basic_ostreamIT_T0_ES7_RKNSt7__cxx1112basic_stringIS4_S5_T1_EE(ptr noundef nonnull align 8 dereferenceable(8) %underlying, ptr noundef nonnull align 8 dereferenceable(32) %0)
  ret ptr %this1
}

; Function Attrs: mustprogress uwtable
define linkonce_odr hidden void @_ZN6Assimp9Formatter15basic_formatterIcSt11char_traitsIcESaIcEEC2EOS5_(ptr noundef nonnull align 8 dereferenceable(376) %this, ptr noundef nonnull align 8 dereferenceable(376) %other) unnamed_addr #3 comdat align 2 personality ptr @__gxx_personality_v0 {
entry:
  %this.addr = alloca ptr, align 8
  %other.addr = alloca ptr, align 8
  %ref.tmp = alloca %"class.std::__cxx11::basic_string", align 8
  %exn.slot = alloca ptr, align 8
  %ehselector.slot = alloca i32, align 4
  store ptr %this, ptr %this.addr, align 8
  store ptr %other, ptr %other.addr, align 8
  %this1 = load ptr, ptr %this.addr, align 8
  %underlying = getelementptr inbounds %"class.Assimp::Formatter::basic_formatter", ptr %this1, i32 0, i32 0
  call void @_ZNSt7__cxx1119basic_ostringstreamIcSt11char_traitsIcESaIcEEC1Ev(ptr noundef nonnull align 8 dereferenceable(112) %underlying)
  %underlying2 = getelementptr inbounds %"class.Assimp::Formatter::basic_formatter", ptr %this1, i32 0, i32 0
  %0 = load ptr, ptr %other.addr, align 8
  invoke void @_ZNK6Assimp9Formatter15basic_formatterIcSt11char_traitsIcESaIcEEcvNSt7__cxx1112basic_stringIcS3_S4_EEEv(ptr sret(%"class.std::__cxx11::basic_string") align 8 %ref.tmp, ptr noundef nonnull align 8 dereferenceable(376) %0)
          to label %invoke.cont unwind label %lpad

invoke.cont:                                      ; preds = %entry
  %call = invoke noundef nonnull align 8 dereferenceable(8) ptr @_ZStlsIcSt11char_traitsIcESaIcEERSt13basic_ostreamIT_T0_ES7_RKNSt7__cxx1112basic_stringIS4_S5_T1_EE(ptr noundef nonnull align 8 dereferenceable(8) %underlying2, ptr noundef nonnull align 8 dereferenceable(32) %ref.tmp)
          to label %invoke.cont4 unwind label %lpad3

invoke.cont4:                                     ; preds = %invoke.cont
  call void @_ZNSt7__cxx1112basic_stringIcSt11char_traitsIcESaIcEED1Ev(ptr noundef nonnull align 8 dereferenceable(32) %ref.tmp) #13
  ret void

lpad:                                             ; preds = %entry
  %1 = landingpad { ptr, i32 }
          cleanup
  %2 = extractvalue { ptr, i32 } %1, 0
  store ptr %2, ptr %exn.slot, align 8
  %3 = extractvalue { ptr, i32 } %1, 1
  store i32 %3, ptr %ehselector.slot, align 4
  br label %ehcleanup

lpad3:                                            ; preds = %invoke.cont
  %4 = landingpad { ptr, i32 }
          cleanup
  %5 = extractvalue { ptr, i32 } %4, 0
  store ptr %5, ptr %exn.slot, align 8
  %6 = extractvalue { ptr, i32 } %4, 1
  store i32 %6, ptr %ehselector.slot, align 4
  call void @_ZNSt7__cxx1112basic_stringIcSt11char_traitsIcESaIcEED1Ev(ptr noundef nonnull align 8 dereferenceable(32) %ref.tmp) #13
  br label %ehcleanup

ehcleanup:                                        ; preds = %lpad3, %lpad
  call void @_ZNSt7__cxx1119basic_ostringstreamIcSt11char_traitsIcESaIcEED1Ev(ptr noundef nonnull align 8 dereferenceable(112) %underlying) #13
  br label %eh.resume

eh.resume:                                        ; preds = %ehcleanup
  %exn = load ptr, ptr %exn.slot, align 8
  %sel = load i32, ptr %ehselector.slot, align 4
  %lpad.val = insertvalue { ptr, i32 } poison, ptr %exn, 0
  %lpad.val5 = insertvalue { ptr, i32 } %lpad.val, i32 %sel, 1
  resume { ptr, i32 } %lpad.val5
}

; Function Attrs: mustprogress uwtable
define linkonce_odr void @_ZN6Assimp6Logger13formatMessageB5cxx11ENS_9Formatter15basic_formatterIcSt11char_traitsIcESaIcEEE(ptr noalias sret(%"class.std::__cxx11::basic_string") align 8 %agg.result, ptr noundef nonnull align 8 dereferenceable(12) %this, ptr noundef %f) #3 comdat align 2 {
entry:
  %result.ptr = alloca ptr, align 8
  %this.addr = alloca ptr, align 8
  %f.indirect_addr = alloca ptr, align 8
  store ptr %agg.result, ptr %result.ptr, align 8
  store ptr %this, ptr %this.addr, align 8
  store ptr %f, ptr %f.indirect_addr, align 8
  call void @_ZNK6Assimp9Formatter15basic_formatterIcSt11char_traitsIcESaIcEEcvNSt7__cxx1112basic_stringIcS3_S4_EEEv(ptr sret(%"class.std::__cxx11::basic_string") align 8 %agg.result, ptr noundef nonnull align 8 dereferenceable(376) %f)
  ret void
}

; Function Attrs: mustprogress uwtable
define linkonce_odr hidden noundef nonnull align 8 dereferenceable(376) ptr @_ZN6Assimp9Formatter15basic_formatterIcSt11char_traitsIcESaIcEElsIA2_cTnPNSt9enable_ifIXntsr3std10is_base_ofISt9exceptionT_EE5valueEvE4typeELPv0EEERS5_RKSA_(ptr noundef nonnull align 8 dereferenceable(376) %this, ptr noundef nonnull align 1 dereferenceable(2) %s) #3 comdat align 2 {
entry:
  %this.addr = alloca ptr, align 8
  %s.addr = alloca ptr, align 8
  store ptr %this, ptr %this.addr, align 8
  store ptr %s, ptr %s.addr, align 8
  %this1 = load ptr, ptr %this.addr, align 8
  %underlying = getelementptr inbounds %"class.Assimp::Formatter::basic_formatter", ptr %this1, i32 0, i32 0
  %0 = load ptr, ptr %s.addr, align 8
  %arraydecay = getelementptr inbounds [2 x i8], ptr %0, i64 0, i64 0
  %call = call noundef nonnull align 8 dereferenceable(8) ptr @_ZStlsISt11char_traitsIcEERSt13basic_ostreamIcT_ES5_PKc(ptr noundef nonnull align 8 dereferenceable(8) %underlying, ptr noundef %arraydecay)
  ret ptr %this1
}

; Function Attrs: mustprogress uwtable
define linkonce_odr hidden void @_ZNK6Assimp9Formatter15basic_formatterIcSt11char_traitsIcESaIcEEcvNSt7__cxx1112basic_stringIcS3_S4_EEEv(ptr noalias sret(%"class.std::__cxx11::basic_string") align 8 %agg.result, ptr noundef nonnull align 8 dereferenceable(376) %this) #3 comdat align 2 {
entry:
  %result.ptr = alloca ptr, align 8
  %this.addr = alloca ptr, align 8
  store ptr %agg.result, ptr %result.ptr, align 8
  store ptr %this, ptr %this.addr, align 8
  %this1 = load ptr, ptr %this.addr, align 8
  %underlying = getelementptr inbounds %"class.Assimp::Formatter::basic_formatter", ptr %this1, i32 0, i32 0
  call void @_ZNKSt7__cxx1119basic_ostringstreamIcSt11char_traitsIcESaIcEE3strEv(ptr sret(%"class.std::__cxx11::basic_string") align 8 %agg.result, ptr noundef nonnull align 8 dereferenceable(112) %underlying)
  ret void
}

declare void @_ZNKSt7__cxx1119basic_ostringstreamIcSt11char_traitsIcESaIcEE3strEv(ptr sret(%"class.std::__cxx11::basic_string") align 8, ptr noundef nonnull align 8 dereferenceable(112)) #4

declare noundef nonnull align 8 dereferenceable(8) ptr @_ZStlsIcSt11char_traitsIcESaIcEERSt13basic_ostreamIT_T0_ES7_RKNSt7__cxx1112basic_stringIS4_S5_T1_EE(ptr noundef nonnull align 8 dereferenceable(8), ptr noundef nonnull align 8 dereferenceable(32)) #4

declare void @_ZNSt7__cxx1119basic_ostringstreamIcSt11char_traitsIcESaIcEEC1Ev(ptr noundef nonnull align 8 dereferenceable(112)) unnamed_addr #4

; Function Attrs: nounwind
declare void @_ZNSt7__cxx1119basic_ostringstreamIcSt11char_traitsIcESaIcEED1Ev(ptr noundef nonnull align 8 dereferenceable(112)) unnamed_addr #2

; Function Attrs: nounwind
declare void @_ZN6Assimp6Intern22AllocateFromAssimpHeapdlEPv(ptr noundef) #2

; Function Attrs: mustprogress nounwind uwtable
define linkonce_odr noundef zeroext i1 @_ZStneIcSt11char_traitsIcESaIcEEbRKNSt7__cxx1112basic_stringIT_T0_T1_EESA_(ptr noundef nonnull align 8 dereferenceable(32) %__lhs, ptr noundef nonnull align 8 dereferenceable(32) %__rhs) #0 comdat {
entry:
  %__lhs.addr = alloca ptr, align 8
  %__rhs.addr = alloca ptr, align 8
  store ptr %__lhs, ptr %__lhs.addr, align 8
  store ptr %__rhs, ptr %__rhs.addr, align 8
  %0 = load ptr, ptr %__lhs.addr, align 8
  %1 = load ptr, ptr %__rhs.addr, align 8
  %call = call noundef zeroext i1 @_ZSteqIcEN9__gnu_cxx11__enable_ifIXsr9__is_charIT_EE7__valueEbE6__typeERKNSt7__cxx1112basic_stringIS2_St11char_traitsIS2_ESaIS2_EEESC_(ptr noundef nonnull align 8 dereferenceable(32) %0, ptr noundef nonnull align 8 dereferenceable(32) %1) #13
  %lnot = xor i1 %call, true
  ret i1 %lnot
}

; Function Attrs: mustprogress uwtable
define linkonce_odr hidden void @_ZNK6Assimp16FileSystemFilter9BuildPathERNSt7__cxx1112basic_stringIcSt11char_traitsIcESaIcEEE(ptr noundef nonnull align 8 dereferenceable(105) %this, ptr noundef nonnull align 8 dereferenceable(32) %in) #3 comdat align 2 personality ptr @__gxx_personality_v0 {
entry:
  %this.addr = alloca ptr, align 8
  %in.addr = alloca ptr, align 8
  %tmp = alloca %"class.std::__cxx11::basic_string", align 8
  %exn.slot = alloca ptr, align 8
  %ehselector.slot = alloca i32, align 4
  %cleanup.dest.slot = alloca i32, align 4
  %pos = alloca i64, align 8
  %tmp20 = alloca %"class.std::__cxx11::basic_string", align 8
  %last_dirsep = alloca i64, align 8
  %dirsep = alloca i64, align 8
  %ref.tmp = alloca %"class.std::__cxx11::basic_string", align 8
  store ptr %this, ptr %this.addr, align 8
  store ptr %in, ptr %in.addr, align 8
  %this1 = load ptr, ptr %this.addr, align 8
  %0 = load ptr, ptr %in.addr, align 8
  %call = call noundef i64 @_ZNKSt7__cxx1112basic_stringIcSt11char_traitsIcESaIcEE6lengthEv(ptr noundef nonnull align 8 dereferenceable(32) %0) #13
  %cmp = icmp ult i64 %call, 3
  br i1 %cmp, label %if.then, label %lor.lhs.false

lor.lhs.false:                                    ; preds = %entry
  %mWrapped = getelementptr inbounds %"class.Assimp::FileSystemFilter", ptr %this1, i32 0, i32 1
  %1 = load ptr, ptr %mWrapped, align 8
  %2 = load ptr, ptr %in.addr, align 8
  %call2 = call noundef zeroext i1 @_ZNK6Assimp8IOSystem6ExistsERKNSt7__cxx1112basic_stringIcSt11char_traitsIcESaIcEEE(ptr noundef nonnull align 8 dereferenceable(32) %1, ptr noundef nonnull align 8 dereferenceable(32) %2)
  br i1 %call2, label %if.then, label %if.end

if.then:                                          ; preds = %lor.lhs.false, %entry
  br label %if.end53

if.end:                                           ; preds = %lor.lhs.false
  %3 = load ptr, ptr %in.addr, align 8
  %call3 = call noundef nonnull align 1 dereferenceable(1) ptr @_ZNSt7__cxx1112basic_stringIcSt11char_traitsIcESaIcEEixEm(ptr noundef nonnull align 8 dereferenceable(32) %3, i64 noundef 1)
  %4 = load i8, ptr %call3, align 1
  %conv = sext i8 %4 to i32
  %cmp4 = icmp ne i32 %conv, 58
  br i1 %cmp4, label %if.then5, label %if.end12

if.then5:                                         ; preds = %if.end
  %mBase = getelementptr inbounds %"class.Assimp::FileSystemFilter", ptr %this1, i32 0, i32 3
  %5 = load ptr, ptr %in.addr, align 8
  call void @_ZStplIcSt11char_traitsIcESaIcEENSt7__cxx1112basic_stringIT_T0_T1_EERKS8_SA_(ptr sret(%"class.std::__cxx11::basic_string") align 8 %tmp, ptr noundef nonnull align 8 dereferenceable(32) %mBase, ptr noundef nonnull align 8 dereferenceable(32) %5)
  %mWrapped6 = getelementptr inbounds %"class.Assimp::FileSystemFilter", ptr %this1, i32 0, i32 1
  %6 = load ptr, ptr %mWrapped6, align 8
  %call7 = invoke noundef zeroext i1 @_ZNK6Assimp8IOSystem6ExistsERKNSt7__cxx1112basic_stringIcSt11char_traitsIcESaIcEEE(ptr noundef nonnull align 8 dereferenceable(32) %6, ptr noundef nonnull align 8 dereferenceable(32) %tmp)
          to label %invoke.cont unwind label %lpad

invoke.cont:                                      ; preds = %if.then5
  br i1 %call7, label %if.then8, label %if.end11

if.then8:                                         ; preds = %invoke.cont
  %7 = load ptr, ptr %in.addr, align 8
  %call10 = invoke noundef nonnull align 8 dereferenceable(32) ptr @_ZNSt7__cxx1112basic_stringIcSt11char_traitsIcESaIcEEaSERKS4_(ptr noundef nonnull align 8 dereferenceable(32) %7, ptr noundef nonnull align 8 dereferenceable(32) %tmp)
          to label %invoke.cont9 unwind label %lpad

invoke.cont9:                                     ; preds = %if.then8
  store i32 1, ptr %cleanup.dest.slot, align 4
  br label %cleanup

lpad:                                             ; preds = %if.then8, %if.then5
  %8 = landingpad { ptr, i32 }
          cleanup
  %9 = extractvalue { ptr, i32 } %8, 0
  store ptr %9, ptr %exn.slot, align 8
  %10 = extractvalue { ptr, i32 } %8, 1
  store i32 %10, ptr %ehselector.slot, align 4
  call void @_ZNSt7__cxx1112basic_stringIcSt11char_traitsIcESaIcEED1Ev(ptr noundef nonnull align 8 dereferenceable(32) %tmp) #13
  br label %eh.resume

if.end11:                                         ; preds = %invoke.cont
  store i32 0, ptr %cleanup.dest.slot, align 4
  br label %cleanup

cleanup:                                          ; preds = %if.end11, %invoke.cont9
  call void @_ZNSt7__cxx1112basic_stringIcSt11char_traitsIcESaIcEED1Ev(ptr noundef nonnull align 8 dereferenceable(32) %tmp) #13
  %cleanup.dest = load i32, ptr %cleanup.dest.slot, align 4
  switch i32 %cleanup.dest, label %unreachable [
    i32 0, label %cleanup.cont
    i32 1, label %if.end53
  ]

cleanup.cont:                                     ; preds = %cleanup
  br label %if.end12

if.end12:                                         ; preds = %cleanup.cont, %if.end
  %11 = load ptr, ptr %in.addr, align 8
  %call13 = call noundef i64 @_ZNKSt7__cxx1112basic_stringIcSt11char_traitsIcESaIcEE5rfindEcm(ptr noundef nonnull align 8 dereferenceable(32) %11, i8 noundef signext 47, i64 noundef -1) #13
  store i64 %call13, ptr %pos, align 8
  %12 = load i64, ptr %pos, align 8
  %cmp14 = icmp eq i64 -1, %12
  br i1 %cmp14, label %if.then15, label %if.end17

if.then15:                                        ; preds = %if.end12
  %13 = load ptr, ptr %in.addr, align 8
  %call16 = call noundef i64 @_ZNKSt7__cxx1112basic_stringIcSt11char_traitsIcESaIcEE5rfindEcm(ptr noundef nonnull align 8 dereferenceable(32) %13, i8 noundef signext 92, i64 noundef -1) #13
  store i64 %call16, ptr %pos, align 8
  br label %if.end17

if.end17:                                         ; preds = %if.then15, %if.end12
  %14 = load i64, ptr %pos, align 8
  %cmp18 = icmp ne i64 -1, %14
  br i1 %cmp18, label %if.then19, label %if.end53

if.then19:                                        ; preds = %if.end17
  call void @_ZNSt7__cxx1112basic_stringIcSt11char_traitsIcESaIcEEC1Ev(ptr noundef nonnull align 8 dereferenceable(32) %tmp20) #13
  store i64 -1, ptr %last_dirsep, align 8
  br label %while.cond

while.cond:                                       ; preds = %if.end49, %if.then19
  br label %while.body

while.body:                                       ; preds = %while.cond
  %mBase21 = getelementptr inbounds %"class.Assimp::FileSystemFilter", ptr %this1, i32 0, i32 3
  %call24 = invoke noundef nonnull align 8 dereferenceable(32) ptr @_ZNSt7__cxx1112basic_stringIcSt11char_traitsIcESaIcEEaSERKS4_(ptr noundef nonnull align 8 dereferenceable(32) %tmp20, ptr noundef nonnull align 8 dereferenceable(32) %mBase21)
          to label %invoke.cont23 unwind label %lpad22

invoke.cont23:                                    ; preds = %while.body
  %mSep = getelementptr inbounds %"class.Assimp::FileSystemFilter", ptr %this1, i32 0, i32 4
  %15 = load i8, ptr %mSep, align 8
  %call26 = invoke noundef nonnull align 8 dereferenceable(32) ptr @_ZNSt7__cxx1112basic_stringIcSt11char_traitsIcESaIcEEpLEc(ptr noundef nonnull align 8 dereferenceable(32) %tmp20, i8 noundef signext %15)
          to label %invoke.cont25 unwind label %lpad22

invoke.cont25:                                    ; preds = %invoke.cont23
  %16 = load ptr, ptr %in.addr, align 8
  %17 = load i64, ptr %last_dirsep, align 8
  %call27 = call noundef i64 @_ZNKSt7__cxx1112basic_stringIcSt11char_traitsIcESaIcEE5rfindEcm(ptr noundef nonnull align 8 dereferenceable(32) %16, i8 noundef signext 47, i64 noundef %17) #13
  store i64 %call27, ptr %dirsep, align 8
  %18 = load i64, ptr %dirsep, align 8
  %cmp28 = icmp eq i64 -1, %18
  br i1 %cmp28, label %if.then29, label %if.end31

if.then29:                                        ; preds = %invoke.cont25
  %19 = load ptr, ptr %in.addr, align 8
  %20 = load i64, ptr %last_dirsep, align 8
  %call30 = call noundef i64 @_ZNKSt7__cxx1112basic_stringIcSt11char_traitsIcESaIcEE5rfindEcm(ptr noundef nonnull align 8 dereferenceable(32) %19, i8 noundef signext 92, i64 noundef %20) #13
  store i64 %call30, ptr %dirsep, align 8
  br label %if.end31

lpad22:                                           ; preds = %if.then46, %invoke.cont41, %if.end36, %invoke.cont23, %while.body
  %21 = landingpad { ptr, i32 }
          cleanup
  %22 = extractvalue { ptr, i32 } %21, 0
  store ptr %22, ptr %exn.slot, align 8
  %23 = extractvalue { ptr, i32 } %21, 1
  store i32 %23, ptr %ehselector.slot, align 4
  br label %ehcleanup

if.end31:                                         ; preds = %if.then29, %invoke.cont25
  %24 = load i64, ptr %dirsep, align 8
  %cmp32 = icmp eq i64 -1, %24
  br i1 %cmp32, label %if.then35, label %lor.lhs.false33

lor.lhs.false33:                                  ; preds = %if.end31
  %25 = load i64, ptr %dirsep, align 8
  %cmp34 = icmp eq i64 %25, 0
  br i1 %cmp34, label %if.then35, label %if.end36

if.then35:                                        ; preds = %lor.lhs.false33, %if.end31
  br label %while.end

if.end36:                                         ; preds = %lor.lhs.false33
  %26 = load i64, ptr %dirsep, align 8
  %sub = sub i64 %26, 1
  store i64 %sub, ptr %last_dirsep, align 8
  %27 = load ptr, ptr %in.addr, align 8
  %28 = load i64, ptr %dirsep, align 8
  %add = add i64 %28, 1
  %29 = load ptr, ptr %in.addr, align 8
  %call37 = call noundef i64 @_ZNKSt7__cxx1112basic_stringIcSt11char_traitsIcESaIcEE6lengthEv(ptr noundef nonnull align 8 dereferenceable(32) %29) #13
  %30 = load i64, ptr %pos, align 8
  %sub38 = sub i64 %call37, %30
  invoke void @_ZNKSt7__cxx1112basic_stringIcSt11char_traitsIcESaIcEE6substrEmm(ptr sret(%"class.std::__cxx11::basic_string") align 8 %ref.tmp, ptr noundef nonnull align 8 dereferenceable(32) %27, i64 noundef %add, i64 noundef %sub38)
          to label %invoke.cont39 unwind label %lpad22

invoke.cont39:                                    ; preds = %if.end36
  %call42 = invoke noundef nonnull align 8 dereferenceable(32) ptr @_ZNSt7__cxx1112basic_stringIcSt11char_traitsIcESaIcEEpLERKS4_(ptr noundef nonnull align 8 dereferenceable(32) %tmp20, ptr noundef nonnull align 8 dereferenceable(32) %ref.tmp)
          to label %invoke.cont41 unwind label %lpad40

invoke.cont41:                                    ; preds = %invoke.cont39
  call void @_ZNSt7__cxx1112basic_stringIcSt11char_traitsIcESaIcEED1Ev(ptr noundef nonnull align 8 dereferenceable(32) %ref.tmp) #13
  %mWrapped43 = getelementptr inbounds %"class.Assimp::FileSystemFilter", ptr %this1, i32 0, i32 1
  %31 = load ptr, ptr %mWrapped43, align 8
  %call45 = invoke noundef zeroext i1 @_ZNK6Assimp8IOSystem6ExistsERKNSt7__cxx1112basic_stringIcSt11char_traitsIcESaIcEEE(ptr noundef nonnull align 8 dereferenceable(32) %31, ptr noundef nonnull align 8 dereferenceable(32) %tmp20)
          to label %invoke.cont44 unwind label %lpad22

invoke.cont44:                                    ; preds = %invoke.cont41
  br i1 %call45, label %if.then46, label %if.end49

if.then46:                                        ; preds = %invoke.cont44
  %32 = load ptr, ptr %in.addr, align 8
  %call48 = invoke noundef nonnull align 8 dereferenceable(32) ptr @_ZNSt7__cxx1112basic_stringIcSt11char_traitsIcESaIcEEaSERKS4_(ptr noundef nonnull align 8 dereferenceable(32) %32, ptr noundef nonnull align 8 dereferenceable(32) %tmp20)
          to label %invoke.cont47 unwind label %lpad22

invoke.cont47:                                    ; preds = %if.then46
  store i32 1, ptr %cleanup.dest.slot, align 4
  br label %cleanup50

lpad40:                                           ; preds = %invoke.cont39
  %33 = landingpad { ptr, i32 }
          cleanup
  %34 = extractvalue { ptr, i32 } %33, 0
  store ptr %34, ptr %exn.slot, align 8
  %35 = extractvalue { ptr, i32 } %33, 1
  store i32 %35, ptr %ehselector.slot, align 4
  call void @_ZNSt7__cxx1112basic_stringIcSt11char_traitsIcESaIcEED1Ev(ptr noundef nonnull align 8 dereferenceable(32) %ref.tmp) #13
  br label %ehcleanup

if.end49:                                         ; preds = %invoke.cont44
  br label %while.cond, !llvm.loop !22

while.end:                                        ; preds = %if.then35
  store i32 0, ptr %cleanup.dest.slot, align 4
  br label %cleanup50

cleanup50:                                        ; preds = %while.end, %invoke.cont47
  call void @_ZNSt7__cxx1112basic_stringIcSt11char_traitsIcESaIcEED1Ev(ptr noundef nonnull align 8 dereferenceable(32) %tmp20) #13
  %cleanup.dest51 = load i32, ptr %cleanup.dest.slot, align 4
  switch i32 %cleanup.dest51, label %unreachable [
    i32 0, label %cleanup.cont52
    i32 1, label %if.end53
  ]

cleanup.cont52:                                   ; preds = %cleanup50
  br label %if.end53

ehcleanup:                                        ; preds = %lpad40, %lpad22
  call void @_ZNSt7__cxx1112basic_stringIcSt11char_traitsIcESaIcEED1Ev(ptr noundef nonnull align 8 dereferenceable(32) %tmp20) #13
  br label %eh.resume

if.end53:                                         ; preds = %cleanup.cont52, %cleanup50, %if.end17, %cleanup, %if.then
  ret void

eh.resume:                                        ; preds = %ehcleanup, %lpad
  %exn = load ptr, ptr %exn.slot, align 8
  %sel = load i32, ptr %ehselector.slot, align 4
  %lpad.val = insertvalue { ptr, i32 } poison, ptr %exn, 0
  %lpad.val54 = insertvalue { ptr, i32 } %lpad.val, i32 %sel, 1
  resume { ptr, i32 } %lpad.val54

unreachable:                                      ; preds = %cleanup50, %cleanup
  unreachable
}

; Function Attrs: mustprogress uwtable
define linkonce_odr hidden void @_ZNK6Assimp16FileSystemFilter7CleanupERNSt7__cxx1112basic_stringIcSt11char_traitsIcESaIcEEE(ptr noundef nonnull align 8 dereferenceable(105) %this, ptr noundef nonnull align 8 dereferenceable(32) %in) #3 comdat align 2 {
entry:
  %this.addr = alloca ptr, align 8
  %in.addr = alloca ptr, align 8
  %last = alloca i8, align 1
  %it = alloca %"class.__gnu_cxx::__normal_iterator.74", align 8
  %ref.tmp = alloca %"class.__gnu_cxx::__normal_iterator.74", align 8
  %agg.tmp = alloca %"class.__gnu_cxx::__normal_iterator.75", align 8
  %ref.tmp10 = alloca %"class.__gnu_cxx::__normal_iterator.74", align 8
  %agg.tmp13 = alloca %"class.__gnu_cxx::__normal_iterator.75", align 8
  %ref.tmp14 = alloca %"class.__gnu_cxx::__normal_iterator.74", align 8
  %coerce = alloca %"class.__gnu_cxx::__normal_iterator.74", align 8
  %separator = alloca i8, align 1
  %ref.tmp23 = alloca %"class.__gnu_cxx::__normal_iterator.74", align 8
  %ref.tmp26 = alloca %"class.__gnu_cxx::__normal_iterator.74", align 8
  %remaining = alloca i64, align 8
  %agg.tmp30 = alloca %"class.__gnu_cxx::__normal_iterator.74", align 8
  %agg.tmp33 = alloca %"class.__gnu_cxx::__normal_iterator.74", align 8
  %ref.tmp42 = alloca %"class.__gnu_cxx::__normal_iterator.74", align 8
  %ref.tmp66 = alloca %"class.__gnu_cxx::__normal_iterator.74", align 8
  %agg.tmp67 = alloca %"class.__gnu_cxx::__normal_iterator.75", align 8
  %ref.tmp77 = alloca %"class.__gnu_cxx::__normal_iterator.74", align 8
  %ref.tmp94 = alloca %"class.__gnu_cxx::__normal_iterator.74", align 8
  %agg.tmp95 = alloca %"class.__gnu_cxx::__normal_iterator.75", align 8
  %ref.tmp96 = alloca %"class.__gnu_cxx::__normal_iterator.74", align 8
  %agg.tmp99 = alloca %"class.__gnu_cxx::__normal_iterator.75", align 8
  %ref.tmp100 = alloca %"class.__gnu_cxx::__normal_iterator.74", align 8
  store ptr %this, ptr %this.addr, align 8
  store ptr %in, ptr %in.addr, align 8
  %this1 = load ptr, ptr %this.addr, align 8
  %0 = load ptr, ptr %in.addr, align 8
  %call = call noundef zeroext i1 @_ZNKSt7__cxx1112basic_stringIcSt11char_traitsIcESaIcEE5emptyEv(ptr noundef nonnull align 8 dereferenceable(32) %0) #13
  br i1 %call, label %if.then, label %if.end

if.then:                                          ; preds = %entry
  br label %for.end

if.end:                                           ; preds = %entry
  store i8 0, ptr %last, align 1
  %1 = load ptr, ptr %in.addr, align 8
  %call2 = call ptr @_ZNSt7__cxx1112basic_stringIcSt11char_traitsIcESaIcEE5beginEv(ptr noundef nonnull align 8 dereferenceable(32) %1) #13
  %coerce.dive = getelementptr inbounds %"class.__gnu_cxx::__normal_iterator.74", ptr %it, i32 0, i32 0
  store ptr %call2, ptr %coerce.dive, align 8
  br label %while.cond

while.cond:                                       ; preds = %while.body, %if.end
  %call3 = call noundef nonnull align 1 dereferenceable(1) ptr @_ZNK9__gnu_cxx17__normal_iteratorIPcNSt7__cxx1112basic_stringIcSt11char_traitsIcESaIcEEEEdeEv(ptr noundef nonnull align 8 dereferenceable(8) %it) #13
  %2 = load i8, ptr %call3, align 1
  %call4 = call noundef zeroext i1 @_ZN6Assimp16IsSpaceOrNewLineIcEEbT_(i8 noundef signext %2)
  br i1 %call4, label %while.body, label %while.end

while.body:                                       ; preds = %while.cond
  %call5 = call noundef nonnull align 8 dereferenceable(8) ptr @_ZN9__gnu_cxx17__normal_iteratorIPcNSt7__cxx1112basic_stringIcSt11char_traitsIcESaIcEEEEppEv(ptr noundef nonnull align 8 dereferenceable(8) %it) #13
  br label %while.cond, !llvm.loop !23

while.end:                                        ; preds = %while.cond
  %3 = load ptr, ptr %in.addr, align 8
  %call6 = call ptr @_ZNSt7__cxx1112basic_stringIcSt11char_traitsIcESaIcEE5beginEv(ptr noundef nonnull align 8 dereferenceable(32) %3) #13
  %coerce.dive7 = getelementptr inbounds %"class.__gnu_cxx::__normal_iterator.74", ptr %ref.tmp, i32 0, i32 0
  store ptr %call6, ptr %coerce.dive7, align 8
  %call8 = call noundef zeroext i1 @_ZN9__gnu_cxxneIPcNSt7__cxx1112basic_stringIcSt11char_traitsIcESaIcEEEEEbRKNS_17__normal_iteratorIT_T0_EESD_(ptr noundef nonnull align 8 dereferenceable(8) %it, ptr noundef nonnull align 8 dereferenceable(8) %ref.tmp) #13
  br i1 %call8, label %if.then9, label %if.end21

if.then9:                                         ; preds = %while.end
  %4 = load ptr, ptr %in.addr, align 8
  %5 = load ptr, ptr %in.addr, align 8
  %call11 = call ptr @_ZNSt7__cxx1112basic_stringIcSt11char_traitsIcESaIcEE5beginEv(ptr noundef nonnull align 8 dereferenceable(32) %5) #13
  %coerce.dive12 = getelementptr inbounds %"class.__gnu_cxx::__normal_iterator.74", ptr %ref.tmp10, i32 0, i32 0
  store ptr %call11, ptr %coerce.dive12, align 8
  call void @_ZN9__gnu_cxx17__normal_iteratorIPKcNSt7__cxx1112basic_stringIcSt11char_traitsIcESaIcEEEEC2IPcvEERKNS0_IT_S8_EE(ptr noundef nonnull align 8 dereferenceable(8) %agg.tmp, ptr noundef nonnull align 8 dereferenceable(8) %ref.tmp10) #13
  %call15 = call ptr @_ZNK9__gnu_cxx17__normal_iteratorIPcNSt7__cxx1112basic_stringIcSt11char_traitsIcESaIcEEEEplEl(ptr noundef nonnull align 8 dereferenceable(8) %it, i64 noundef 1) #13
  %coerce.dive16 = getelementptr inbounds %"class.__gnu_cxx::__normal_iterator.74", ptr %ref.tmp14, i32 0, i32 0
  store ptr %call15, ptr %coerce.dive16, align 8
  call void @_ZN9__gnu_cxx17__normal_iteratorIPKcNSt7__cxx1112basic_stringIcSt11char_traitsIcESaIcEEEEC2IPcvEERKNS0_IT_S8_EE(ptr noundef nonnull align 8 dereferenceable(8) %agg.tmp13, ptr noundef nonnull align 8 dereferenceable(8) %ref.tmp14) #13
  %coerce.dive17 = getelementptr inbounds %"class.__gnu_cxx::__normal_iterator.75", ptr %agg.tmp, i32 0, i32 0
  %6 = load ptr, ptr %coerce.dive17, align 8
  %coerce.dive18 = getelementptr inbounds %"class.__gnu_cxx::__normal_iterator.75", ptr %agg.tmp13, i32 0, i32 0
  %7 = load ptr, ptr %coerce.dive18, align 8
  %call19 = call ptr @_ZNSt7__cxx1112basic_stringIcSt11char_traitsIcESaIcEE5eraseEN9__gnu_cxx17__normal_iteratorIPKcS4_EES9_(ptr noundef nonnull align 8 dereferenceable(32) %4, ptr %6, ptr %7)
  %coerce.dive20 = getelementptr inbounds %"class.__gnu_cxx::__normal_iterator.74", ptr %coerce, i32 0, i32 0
  store ptr %call19, ptr %coerce.dive20, align 8
  br label %if.end21

if.end21:                                         ; preds = %if.then9, %while.end
  %vtable = load ptr, ptr %this1, align 8
  %vfn = getelementptr inbounds ptr, ptr %vtable, i64 3
  %8 = load ptr, ptr %vfn, align 8
  %call22 = call noundef signext i8 %8(ptr noundef nonnull align 8 dereferenceable(105) %this1)
  store i8 %call22, ptr %separator, align 1
  %9 = load ptr, ptr %in.addr, align 8
  %call24 = call ptr @_ZNSt7__cxx1112basic_stringIcSt11char_traitsIcESaIcEE5beginEv(ptr noundef nonnull align 8 dereferenceable(32) %9) #13
  %coerce.dive25 = getelementptr inbounds %"class.__gnu_cxx::__normal_iterator.74", ptr %ref.tmp23, i32 0, i32 0
  store ptr %call24, ptr %coerce.dive25, align 8
  call void @llvm.memcpy.p0.p0.i64(ptr align 8 %it, ptr align 8 %ref.tmp23, i64 8, i1 false)
  br label %for.cond

for.cond:                                         ; preds = %for.inc, %if.end21
  %10 = load ptr, ptr %in.addr, align 8
  %call27 = call ptr @_ZNSt7__cxx1112basic_stringIcSt11char_traitsIcESaIcEE3endEv(ptr noundef nonnull align 8 dereferenceable(32) %10) #13
  %coerce.dive28 = getelementptr inbounds %"class.__gnu_cxx::__normal_iterator.74", ptr %ref.tmp26, i32 0, i32 0
  store ptr %call27, ptr %coerce.dive28, align 8
  %call29 = call noundef zeroext i1 @_ZN9__gnu_cxxltIPcNSt7__cxx1112basic_stringIcSt11char_traitsIcESaIcEEEEEbRKNS_17__normal_iteratorIT_T0_EESD_(ptr noundef nonnull align 8 dereferenceable(8) %it, ptr noundef nonnull align 8 dereferenceable(8) %ref.tmp26) #13
  br i1 %call29, label %for.body, label %for.end

for.body:                                         ; preds = %for.cond
  %11 = load ptr, ptr %in.addr, align 8
  %call31 = call ptr @_ZNSt7__cxx1112basic_stringIcSt11char_traitsIcESaIcEE3endEv(ptr noundef nonnull align 8 dereferenceable(32) %11) #13
  %coerce.dive32 = getelementptr inbounds %"class.__gnu_cxx::__normal_iterator.74", ptr %agg.tmp30, i32 0, i32 0
  store ptr %call31, ptr %coerce.dive32, align 8
  call void @llvm.memcpy.p0.p0.i64(ptr align 8 %agg.tmp33, ptr align 8 %it, i64 8, i1 false)
  %coerce.dive34 = getelementptr inbounds %"class.__gnu_cxx::__normal_iterator.74", ptr %agg.tmp30, i32 0, i32 0
  %12 = load ptr, ptr %coerce.dive34, align 8
  %coerce.dive35 = getelementptr inbounds %"class.__gnu_cxx::__normal_iterator.74", ptr %agg.tmp33, i32 0, i32 0
  %13 = load ptr, ptr %coerce.dive35, align 8
  %call36 = call noundef i64 @_ZSt8distanceIN9__gnu_cxx17__normal_iteratorIPcNSt7__cxx1112basic_stringIcSt11char_traitsIcESaIcEEEEEENSt15iterator_traitsIT_E15difference_typeESB_SB_(ptr %12, ptr %13)
  store i64 %call36, ptr %remaining, align 8
  %14 = load i64, ptr %remaining, align 8
  %cmp = icmp uge i64 %14, 3
  br i1 %cmp, label %land.lhs.true, label %if.end41

land.lhs.true:                                    ; preds = %for.body
  %call37 = call noundef nonnull align 1 dereferenceable(1) ptr @_ZNK9__gnu_cxx17__normal_iteratorIPcNSt7__cxx1112basic_stringIcSt11char_traitsIcESaIcEEEEdeEv(ptr noundef nonnull align 8 dereferenceable(8) %it) #13
  %call38 = call i32 @strncmp(ptr noundef %call37, ptr noundef @.str.20, i64 noundef 3) #17
  %tobool = icmp ne i32 %call38, 0
  br i1 %tobool, label %if.end41, label %if.then39

if.then39:                                        ; preds = %land.lhs.true
  %call40 = call noundef nonnull align 8 dereferenceable(8) ptr @_ZN9__gnu_cxx17__normal_iteratorIPcNSt7__cxx1112basic_stringIcSt11char_traitsIcESaIcEEEEpLEl(ptr noundef nonnull align 8 dereferenceable(8) %it, i64 noundef 3) #13
  br label %for.inc

if.end41:                                         ; preds = %land.lhs.true, %for.body
  %15 = load ptr, ptr %in.addr, align 8
  %call43 = call ptr @_ZNSt7__cxx1112basic_stringIcSt11char_traitsIcESaIcEE5beginEv(ptr noundef nonnull align 8 dereferenceable(32) %15) #13
  %coerce.dive44 = getelementptr inbounds %"class.__gnu_cxx::__normal_iterator.74", ptr %ref.tmp42, i32 0, i32 0
  store ptr %call43, ptr %coerce.dive44, align 8
  %call45 = call noundef zeroext i1 @_ZN9__gnu_cxxeqIPcNSt7__cxx1112basic_stringIcSt11char_traitsIcESaIcEEEEEbRKNS_17__normal_iteratorIT_T0_EESD_(ptr noundef nonnull align 8 dereferenceable(8) %it, ptr noundef nonnull align 8 dereferenceable(8) %ref.tmp42) #13
  br i1 %call45, label %land.lhs.true46, label %land.end

land.lhs.true46:                                  ; preds = %if.end41
  %16 = load i64, ptr %remaining, align 8
  %cmp47 = icmp uge i64 %16, 2
  br i1 %cmp47, label %land.rhs, label %land.end

land.rhs:                                         ; preds = %land.lhs.true46
  %call48 = call noundef nonnull align 1 dereferenceable(1) ptr @_ZNK9__gnu_cxx17__normal_iteratorIPcNSt7__cxx1112basic_stringIcSt11char_traitsIcESaIcEEEEdeEv(ptr noundef nonnull align 8 dereferenceable(8) %it) #13
  %call49 = call i32 @strncmp(ptr noundef %call48, ptr noundef @.str.21, i64 noundef 2) #17
  %tobool50 = icmp ne i32 %call49, 0
  %lnot = xor i1 %tobool50, true
  br label %land.end

land.end:                                         ; preds = %land.rhs, %land.lhs.true46, %if.end41
  %17 = phi i1 [ false, %land.lhs.true46 ], [ false, %if.end41 ], [ %lnot, %land.rhs ]
  br i1 %17, label %if.then51, label %if.end53

if.then51:                                        ; preds = %land.end
  %call52 = call noundef nonnull align 8 dereferenceable(8) ptr @_ZN9__gnu_cxx17__normal_iteratorIPcNSt7__cxx1112basic_stringIcSt11char_traitsIcESaIcEEEEpLEl(ptr noundef nonnull align 8 dereferenceable(8) %it, i64 noundef 2) #13
  br label %for.inc

if.end53:                                         ; preds = %land.end
  %call54 = call noundef nonnull align 1 dereferenceable(1) ptr @_ZNK9__gnu_cxx17__normal_iteratorIPcNSt7__cxx1112basic_stringIcSt11char_traitsIcESaIcEEEEdeEv(ptr noundef nonnull align 8 dereferenceable(8) %it) #13
  %18 = load i8, ptr %call54, align 1
  %conv = sext i8 %18 to i32
  %cmp55 = icmp eq i32 %conv, 47
  br i1 %cmp55, label %if.then59, label %lor.lhs.false

lor.lhs.false:                                    ; preds = %if.end53
  %call56 = call noundef nonnull align 1 dereferenceable(1) ptr @_ZNK9__gnu_cxx17__normal_iteratorIPcNSt7__cxx1112basic_stringIcSt11char_traitsIcESaIcEEEEdeEv(ptr noundef nonnull align 8 dereferenceable(8) %it) #13
  %19 = load i8, ptr %call56, align 1
  %conv57 = sext i8 %19 to i32
  %cmp58 = icmp eq i32 %conv57, 92
  br i1 %cmp58, label %if.then59, label %if.else

if.then59:                                        ; preds = %lor.lhs.false, %if.end53
  %20 = load i8, ptr %separator, align 1
  %call60 = call noundef nonnull align 1 dereferenceable(1) ptr @_ZNK9__gnu_cxx17__normal_iteratorIPcNSt7__cxx1112basic_stringIcSt11char_traitsIcESaIcEEEEdeEv(ptr noundef nonnull align 8 dereferenceable(8) %it) #13
  store i8 %20, ptr %call60, align 1
  %21 = load i8, ptr %last, align 1
  %conv61 = sext i8 %21 to i32
  %call62 = call noundef nonnull align 1 dereferenceable(1) ptr @_ZNK9__gnu_cxx17__normal_iteratorIPcNSt7__cxx1112basic_stringIcSt11char_traitsIcESaIcEEEEdeEv(ptr noundef nonnull align 8 dereferenceable(8) %it) #13
  %22 = load i8, ptr %call62, align 1
  %conv63 = sext i8 %22 to i32
  %cmp64 = icmp eq i32 %conv61, %conv63
  br i1 %cmp64, label %if.then65, label %if.end72

if.then65:                                        ; preds = %if.then59
  %23 = load ptr, ptr %in.addr, align 8
  call void @_ZN9__gnu_cxx17__normal_iteratorIPKcNSt7__cxx1112basic_stringIcSt11char_traitsIcESaIcEEEEC2IPcvEERKNS0_IT_S8_EE(ptr noundef nonnull align 8 dereferenceable(8) %agg.tmp67, ptr noundef nonnull align 8 dereferenceable(8) %it) #13
  %coerce.dive68 = getelementptr inbounds %"class.__gnu_cxx::__normal_iterator.75", ptr %agg.tmp67, i32 0, i32 0
  %24 = load ptr, ptr %coerce.dive68, align 8
  %call69 = call ptr @_ZNSt7__cxx1112basic_stringIcSt11char_traitsIcESaIcEE5eraseEN9__gnu_cxx17__normal_iteratorIPKcS4_EE(ptr noundef nonnull align 8 dereferenceable(32) %23, ptr %24)
  %coerce.dive70 = getelementptr inbounds %"class.__gnu_cxx::__normal_iterator.74", ptr %ref.tmp66, i32 0, i32 0
  store ptr %call69, ptr %coerce.dive70, align 8
  call void @llvm.memcpy.p0.p0.i64(ptr align 8 %it, ptr align 8 %ref.tmp66, i64 8, i1 false)
  %call71 = call noundef nonnull align 8 dereferenceable(8) ptr @_ZN9__gnu_cxx17__normal_iteratorIPcNSt7__cxx1112basic_stringIcSt11char_traitsIcESaIcEEEEmmEv(ptr noundef nonnull align 8 dereferenceable(8) %it) #13
  br label %if.end72

if.end72:                                         ; preds = %if.then65, %if.then59
  br label %if.end110

if.else:                                          ; preds = %lor.lhs.false
  %call73 = call noundef nonnull align 1 dereferenceable(1) ptr @_ZNK9__gnu_cxx17__normal_iteratorIPcNSt7__cxx1112basic_stringIcSt11char_traitsIcESaIcEEEEdeEv(ptr noundef nonnull align 8 dereferenceable(8) %it) #13
  %25 = load i8, ptr %call73, align 1
  %conv74 = sext i8 %25 to i32
  %cmp75 = icmp eq i32 %conv74, 37
  br i1 %cmp75, label %land.rhs76, label %land.end82

land.rhs76:                                       ; preds = %if.else
  %26 = load ptr, ptr %in.addr, align 8
  %call78 = call ptr @_ZNSt7__cxx1112basic_stringIcSt11char_traitsIcESaIcEE3endEv(ptr noundef nonnull align 8 dereferenceable(32) %26) #13
  %coerce.dive79 = getelementptr inbounds %"class.__gnu_cxx::__normal_iterator.74", ptr %ref.tmp77, i32 0, i32 0
  store ptr %call78, ptr %coerce.dive79, align 8
  %call80 = call noundef i64 @_ZN9__gnu_cxxmiIPcNSt7__cxx1112basic_stringIcSt11char_traitsIcESaIcEEEEENS_17__normal_iteratorIT_T0_E15difference_typeERKSB_SE_(ptr noundef nonnull align 8 dereferenceable(8) %ref.tmp77, ptr noundef nonnull align 8 dereferenceable(8) %it) #13
  %cmp81 = icmp sgt i64 %call80, 2
  br label %land.end82

land.end82:                                       ; preds = %land.rhs76, %if.else
  %27 = phi i1 [ false, %if.else ], [ %cmp81, %land.rhs76 ]
  br i1 %27, label %if.then83, label %if.end109

if.then83:                                        ; preds = %land.end82
  %call84 = call noundef nonnull align 1 dereferenceable(1) ptr @_ZNK9__gnu_cxx17__normal_iteratorIPcNSt7__cxx1112basic_stringIcSt11char_traitsIcESaIcEEEEdeEv(ptr noundef nonnull align 8 dereferenceable(8) %it) #13
  %arrayidx = getelementptr inbounds i8, ptr %call84, i64 0
  %28 = load i8, ptr %arrayidx, align 1
  %call85 = call noundef zeroext i1 @_ZN6Assimp5IsHexEc(i8 noundef signext %28)
  br i1 %call85, label %land.lhs.true86, label %if.end108

land.lhs.true86:                                  ; preds = %if.then83
