target datalayout = "e-m:e-p270:32:32-p271:32:32-p272:64:64-i64:64-i128:128-f80:128-n8:16:32:64-S128"
target triple = "x86_64-unknown-linux-gnu"

%class.aiQuaterniont = type { float, float, float, float }
%"struct.std::_Vector_base" = type { %"struct.std::_Vector_base<std::__cxx11::basic_string<char>, std::allocator<std::__cxx11::basic_string<char>>>::_Vector_impl" }
%"struct.std::_Vector_base<std::__cxx11::basic_string<char>, std::allocator<std::__cxx11::basic_string<char>>>::_Vector_impl" = type { %"struct.std::_Vector_base<std::__cxx11::basic_string<char>, std::allocator<std::__cxx11::basic_string<char>>>::_Vector_impl_data" }
%"struct.std::_Vector_base<std::__cxx11::basic_string<char>, std::allocator<std::__cxx11::basic_string<char>>>::_Vector_impl_data" = type { ptr, ptr, ptr }
%"class.std::__cxx11::basic_string" = type { %"struct.std::__cxx11::basic_string<char>::_Alloc_hider", i64, %union.anon }
%"struct.std::__cxx11::basic_string<char>::_Alloc_hider" = type { ptr }
%union.anon = type { i64, [8 x i8] }
%"class.std::allocator.0" = type { i8 }
%"class.Assimp::ColladaExporter" = type { ptr, %"class.std::__cxx11::basic_string", %"class.std::unordered_set", %"class.std::map", %"struct.std::array", %"struct.std::array", %"class.std::__cxx11::basic_stringstream", ptr, %"class.std::__cxx11::basic_string", %"class.std::__cxx11::basic_string", ptr, %"class.std::__cxx11::basic_string", i8, %"class.std::__cxx11::basic_string", %"class.std::__cxx11::basic_string", %"class.std::map.20" }
%"class.std::unordered_set" = type { %"class.std::_Hashtable" }
%"class.std::_Hashtable" = type { ptr, i64, %"struct.std::__detail::_Hash_node_base", i64, %"struct.std::__detail::_Prime_rehash_policy", ptr }
%"struct.std::__detail::_Hash_node_base" = type { ptr }
%"struct.std::__detail::_Prime_rehash_policy" = type { float, i64 }
%"class.std::map" = type { %"class.std::_Rb_tree" }
%"class.std::_Rb_tree" = type { %"struct.std::_Rb_tree<const void *, std::pair<const void *const, std::__cxx11::basic_string<char>>, std::_Select1st<std::pair<const void *const, std::__cxx11::basic_string<char>>>, std::less<const void *>>::_Rb_tree_impl" }
%"struct.std::_Rb_tree<const void *, std::pair<const void *const, std::__cxx11::basic_string<char>>, std::_Select1st<std::pair<const void *const, std::__cxx11::basic_string<char>>>, std::less<const void *>>::_Rb_tree_impl" = type { %"struct.std::_Rb_tree_key_compare", %"struct.std::_Rb_tree_header" }
%"struct.std::_Rb_tree_key_compare" = type { %"struct.std::less" }
%"struct.std::less" = type { i8 }
%"struct.std::_Rb_tree_header" = type { %"struct.std::_Rb_tree_node_base", i64 }
%"struct.std::_Rb_tree_node_base" = type { i32, ptr, ptr, ptr }
%"struct.std::array" = type { [5 x %"class.std::map.12"] }
%"class.std::map.12" = type { %"class.std::_Rb_tree.13" }
%"class.std::_Rb_tree.13" = type { %"struct.std::_Rb_tree<unsigned long, std::pair<const unsigned long, std::__cxx11::basic_string<char>>, std::_Select1st<std::pair<const unsigned long, std::__cxx11::basic_string<char>>>, std::less<unsigned long>>::_Rb_tree_impl" }
%"struct.std::_Rb_tree<unsigned long, std::pair<const unsigned long, std::__cxx11::basic_string<char>>, std::_Select1st<std::pair<const unsigned long, std::__cxx11::basic_string<char>>>, std::less<unsigned long>>::_Rb_tree_impl" = type { %"struct.std::_Rb_tree_key_compare.17", %"struct.std::_Rb_tree_header" }
%"struct.std::_Rb_tree_key_compare.17" = type { %"struct.std::less.18" }
%"struct.std::less.18" = type { i8 }
%"class.std::__cxx11::basic_stringstream" = type { %"class.std::basic_iostream.base", %"class.std::__cxx11::basic_stringbuf", %"class.std::basic_ios" }
%"class.std::basic_iostream.base" = type { %"class.std::basic_istream.base", %"class.std::basic_ostream.base" }
%"class.std::basic_istream.base" = type { ptr, i64 }
%"class.std::basic_ostream.base" = type { ptr }
%"class.std::__cxx11::basic_stringbuf" = type { %"class.std::basic_streambuf", i32, %"class.std::__cxx11::basic_string" }
%"class.std::basic_streambuf" = type { ptr, ptr, ptr, ptr, ptr, ptr, ptr, %"class.std::locale" }
%"class.std::locale" = type { ptr }
%"class.std::basic_ios" = type { %"class.std::ios_base", ptr, i8, i8, ptr, ptr, ptr, ptr }
%"class.std::ios_base" = type { ptr, i64, i64, i32, i32, i32, ptr, %"struct.std::ios_base::_Words", [8 x %"struct.std::ios_base::_Words"], i32, ptr, %"class.std::locale" }
%"struct.std::ios_base::_Words" = type { ptr, i64 }
%"class.std::map.20" = type { %"class.std::_Rb_tree.21" }
%"class.std::_Rb_tree.21" = type { %"struct.std::_Rb_tree<unsigned int, std::pair<const unsigned int, std::__cxx11::basic_string<char>>, std::_Select1st<std::pair<const unsigned int, std::__cxx11::basic_string<char>>>, std::less<unsigned int>>::_Rb_tree_impl" }
%"struct.std::_Rb_tree<unsigned int, std::pair<const unsigned int, std::__cxx11::basic_string<char>>, std::_Select1st<std::pair<const unsigned int, std::__cxx11::basic_string<char>>>, std::less<unsigned int>>::_Rb_tree_impl" = type { %"struct.std::_Rb_tree_key_compare.25", %"struct.std::_Rb_tree_header" }
%"struct.std::_Rb_tree_key_compare.25" = type { %"struct.std::less.26" }
%"struct.std::less.26" = type { i8 }
%"class.std::unique_ptr" = type { %"struct.std::__uniq_ptr_data" }
%"struct.std::__uniq_ptr_data" = type { %"class.std::__uniq_ptr_impl" }
%"class.std::__uniq_ptr_impl" = type { %"class.std::tuple" }
%"class.std::tuple" = type { %"struct.std::_Tuple_impl" }
%"struct.std::_Tuple_impl" = type { %"struct.std::_Head_base.30" }
%"struct.std::_Head_base.30" = type { ptr }
%"class.std::fpos" = type { i64, %struct.__mbstate_t }
%struct.__mbstate_t = type { i32, %union.anon.31 }
%union.anon.31 = type { i32 }
%"class.Assimp::Formatter::basic_formatter" = type { %"class.std::__cxx11::basic_ostringstream" }
%"class.std::__cxx11::basic_ostringstream" = type { %"class.std::basic_ostream.base", %"class.std::__cxx11::basic_stringbuf", %"class.std::basic_ios" }
%struct.aiScene = type { i32, ptr, i32, ptr, i32, ptr, i32, ptr, i32, ptr, i32, ptr, i32, ptr, ptr, %struct.aiString, i32, ptr, ptr }
%struct.aiString = type { i32, [1024 x i8] }
%"struct.std::pair.32" = type { i32, %"class.std::__cxx11::basic_string" }
%"struct.std::pair" = type <{ %"struct.std::_Rb_tree_iterator", i8, [7 x i8] }>
%"struct.std::_Rb_tree_iterator" = type { ptr }
%struct.aiTexture = type <{ i32, i32, [9 x i8], [7 x i8], ptr, %struct.aiString, [4 x i8] }>
%class.aiMatrix3x3t = type { float, float, float, float, float, float, float, float, float }
%class.aiVector3t = type { float, float, float }
%struct.aiNode = type { %struct.aiString, %class.aiMatrix4x4t, ptr, i32, ptr, i32, ptr, ptr }
%class.aiMatrix4x4t = type { float, float, float, float, float, float, float, float, float, float, float, float, float, float, float, float }
%"class.std::vector.36" = type { %"struct.std::_Vector_base.37" }
%"struct.std::_Vector_base.37" = type { %"struct.std::_Vector_base<Assimp::ColladaExporter::Material, std::allocator<Assimp::ColladaExporter::Material>>::_Vector_impl" }
%"struct.std::_Vector_base<Assimp::ColladaExporter::Material, std::allocator<Assimp::ColladaExporter::Material>>::_Vector_impl" = type { %"struct.std::_Vector_base<Assimp::ColladaExporter::Material, std::allocator<Assimp::ColladaExporter::Material>>::_Vector_impl_data" }
%"struct.std::_Vector_base<Assimp::ColladaExporter::Material, std::allocator<Assimp::ColladaExporter::Material>>::_Vector_impl_data" = type { ptr, ptr, ptr }
%"class.__gnu_cxx::__normal_iterator.41" = type { ptr }
%"class.__gnu_cxx::__normal_iterator.42" = type { ptr }
%"struct.Assimp::ColladaExporter::Material" = type { %"class.std::__cxx11::basic_string", %"class.std::__cxx11::basic_string", %"class.std::__cxx11::basic_string", %"struct.Assimp::ColladaExporter::Surface", %"struct.Assimp::ColladaExporter::Surface", %"struct.Assimp::ColladaExporter::Surface", %"struct.Assimp::ColladaExporter::Surface", %"struct.Assimp::ColladaExporter::Surface", %"struct.Assimp::ColladaExporter::Surface", %"struct.Assimp::ColladaExporter::Surface", %"struct.Assimp::ColladaExporter::Property", %"struct.Assimp::ColladaExporter::Property", %"struct.Assimp::ColladaExporter::Property" }
%"struct.Assimp::ColladaExporter::Surface" = type { i8, %class.aiColor4t, %"class.std::__cxx11::basic_string", i64 }
%class.aiColor4t = type { float, float, float, float }
%"struct.Assimp::ColladaExporter::Property" = type { i8, float }
%"struct.std::pair.60" = type <{ %"struct.std::__detail::_Node_iterator", i8, [7 x i8] }>
%"struct.std::__detail::_Node_iterator" = type { %"struct.std::__detail::_Node_iterator_base" }
%"struct.std::__detail::_Node_iterator_base" = type { ptr }
%"struct.std::_Rb_tree_const_iterator" = type { ptr }
%"struct.std::pair.34" = type { i32, %"class.std::__cxx11::basic_string" }
%struct.aiCamera = type { %struct.aiString, %class.aiVector3t, %class.aiVector3t, %class.aiVector3t, float, float, float, float, float }
%"struct.std::_Rb_tree_iterator.83" = type { ptr }
%"struct.std::_Rb_tree_const_iterator.84" = type { ptr }
%"struct.std::pair.87" = type { %"class.std::__cxx11::basic_string", %"class.std::__cxx11::basic_string" }
%"struct.std::pair.85" = type { i64, %"class.std::__cxx11::basic_string" }
%struct.aiLight = type { %struct.aiString, i32, %class.aiVector3t, %class.aiVector3t, %class.aiVector3t, float, float, float, %struct.aiColor3D, %struct.aiColor3D, %struct.aiColor3D, float, float, %class.aiVector2t }
%struct.aiColor3D = type { float, float, float }
%class.aiVector2t = type { float, float }
%"class.__gnu_cxx::__normal_iterator" = type { ptr }
%struct.aiMaterialProperty = type { %struct.aiString, i32, i32, i32, i32, ptr }
%"class.std::vector.43" = type { %"struct.std::_Vector_base.44" }
%"struct.std::_Vector_base.44" = type { %"struct.std::_Vector_base<float, std::allocator<float>>::_Vector_impl" }
%"struct.std::_Vector_base<float, std::allocator<float>>::_Vector_impl" = type { %"struct.std::_Vector_base<float, std::allocator<float>>::_Vector_impl_data" }
%"struct.std::_Vector_base<float, std::allocator<float>>::_Vector_impl_data" = type { ptr, ptr, ptr }
%"class.__gnu_cxx::__normal_iterator.49" = type { ptr }
%"class.__gnu_cxx::__normal_iterator.48" = type { ptr }
%"class.std::vector.50" = type { %"struct.std::_Vector_base.51" }
%"struct.std::_Vector_base.51" = type { %"struct.std::_Vector_base<unsigned int, std::allocator<unsigned int>>::_Vector_impl" }
%"struct.std::_Vector_base<unsigned int, std::allocator<unsigned int>>::_Vector_impl" = type { %"struct.std::_Vector_base<unsigned int, std::allocator<unsigned int>>::_Vector_impl_data" }
%"struct.std::_Vector_base<unsigned int, std::allocator<unsigned int>>::_Vector_impl_data" = type { ptr, ptr, ptr }
%"class.std::allocator.52" = type { i8 }
%"class.std::vector.55" = type { %"struct.std::_Vector_base.56" }
%"struct.std::_Vector_base.56" = type { %"struct.std::_Vector_base<int, std::allocator<int>>::_Vector_impl" }
%"struct.std::_Vector_base<int, std::allocator<int>>::_Vector_impl" = type { %"struct.std::_Vector_base<int, std::allocator<int>>::_Vector_impl_data" }
%"struct.std::_Vector_base<int, std::allocator<int>>::_Vector_impl_data" = type { ptr, ptr, ptr }
%"class.std::allocator.57" = type { i8 }
%struct.aiMesh = type { i32, i32, i32, ptr, ptr, ptr, ptr, [8 x ptr], [8 x ptr], [8 x i32], ptr, i32, ptr, i32, %struct.aiString, i32, ptr, i32, %struct.aiAABB, ptr }
%struct.aiAABB = type { %class.aiVector3t, %class.aiVector3t }
%struct.aiBone = type { %struct.aiString, i32, ptr, ptr, ptr, %class.aiMatrix4x4t }
%struct.aiVertexWeight = type { i32, float }
%"class.__gnu_cxx::__normal_iterator.108" = type { ptr }
%struct.aiFace = type { i32, ptr }
%"struct.std::_Rb_tree_iterator.74" = type { ptr }
%"struct.std::_Rb_tree_const_iterator.75" = type { ptr }
%"struct.std::pair.81" = type { ptr, %"class.std::__cxx11::basic_string" }
%"struct.std::pair.78" = type <{ %"struct.std::_Rb_tree_iterator.74", i8, [7 x i8] }>
%"struct.std::pair.76" = type { ptr, %"class.std::__cxx11::basic_string" }
%"class.std::vector" = type { %"struct.std::_Vector_base" }
%struct.aiAnimation = type { %struct.aiString, double, double, i32, ptr, i32, ptr, i32, ptr }
%struct.aiNodeAnim = type { %struct.aiString, i32, ptr, i32, ptr, i32, ptr, i32, i32 }
%struct.aiVectorKey = type <{ double, %class.aiVector3t, [4 x i8] }>
%struct.aiQuatKey = type { double, %class.aiQuaterniont }
%"class.__gnu_cxx::__normal_iterator.103" = type { ptr }
%"class.std::set" = type { %"class.std::_Rb_tree.63" }
%"class.std::_Rb_tree.63" = type { %"struct.std::_Rb_tree<const aiNode *, const aiNode *, std::_Identity<const aiNode *>, std::less<const aiNode *>>::_Rb_tree_impl" }
%"struct.std::_Rb_tree<const aiNode *, const aiNode *, std::_Identity<const aiNode *>, std::less<const aiNode *>>::_Rb_tree_impl" = type { %"struct.std::_Rb_tree_key_compare.67", %"struct.std::_Rb_tree_header" }
%"struct.std::_Rb_tree_key_compare.67" = type { %"struct.std::less.68" }
%"struct.std::less.68" = type { i8 }
%"struct.std::pair.70" = type <{ %"struct.std::_Rb_tree_const_iterator.72", i8, [7 x i8] }>
%"struct.std::_Rb_tree_const_iterator.72" = type { ptr }
%"struct.std::pair.111" = type <{ %"struct.std::_Rb_tree_iterator.113", i8, [7 x i8] }>
%"struct.std::_Rb_tree_iterator.113" = type { ptr }
%"struct.std::pair.92" = type { i64, %"class.std::__cxx11::basic_string" }
%"struct.std::pair.89" = type <{ %"struct.std::_Rb_tree_iterator.83", i8, [7 x i8] }>
%"class.Assimp::IOSystem" = type { ptr, %"class.std::vector" }
%"struct.std::_Rb_tree_node" = type { %"struct.std::_Rb_tree_node_base", %"struct.__gnu_cxx::__aligned_membuf" }
%"struct.__gnu_cxx::__aligned_membuf" = type { [40 x i8] }
%"struct.std::_Rb_tree_node.94" = type { %"struct.std::_Rb_tree_node_base", %"struct.__gnu_cxx::__aligned_membuf.95" }
%"struct.__gnu_cxx::__aligned_membuf.95" = type { [40 x i8] }
%"struct.std::_Rb_tree_node.96" = type { %"struct.std::_Rb_tree_node_base", %"struct.__gnu_cxx::__aligned_membuf.97" }
%"struct.__gnu_cxx::__aligned_membuf.97" = type { [40 x i8] }
%"struct.std::__detail::_Hash_node_value_base" = type { %"struct.__gnu_cxx::__aligned_buffer" }
%"struct.__gnu_cxx::__aligned_buffer" = type { %"union.std::aligned_storage<32, 8>::type" }
%"union.std::aligned_storage<32, 8>::type" = type { [32 x i8] }
%"class.std::allocator.98" = type { i8 }
%"struct.std::__detail::_Node_const_iterator" = type { %"struct.std::__detail::_Node_iterator_base" }
%"struct.std::__detail::_Identity" = type { i8 }
%"struct.std::__detail::_Mod_range_hashing" = type { i8 }
%"struct.std::__detail::_Hash_node_code_cache" = type { i64 }
%"struct.std::_Rb_tree_node.101" = type { %"struct.std::_Rb_tree_node_base", %"struct.__gnu_cxx::__aligned_membuf.102" }
%"struct.__gnu_cxx::__aligned_membuf.102" = type { [8 x i8] }
%"class.__gnu_cxx::__normal_iterator.104" = type { ptr }
%struct._Guard = type { ptr }
%struct.aiMetadata = type { i32, ptr, ptr }
%struct.aiMetadataEntry = type { i32, ptr }
%"struct.std::_Select1st" = type { i8 }
%"struct.std::_Rb_tree<unsigned int, std::pair<const unsigned int, std::__cxx11::basic_string<char>>, std::_Select1st<std::pair<const unsigned int, std::__cxx11::basic_string<char>>>, std::less<unsigned int>>::_Auto_node" = type { ptr, ptr }
%"struct.std::pair.105" = type { ptr, ptr }
%"class.__gnu_cxx::__normal_iterator.107" = type { ptr }
%class.anon = type { i8 }
%"class.std::move_iterator" = type { ptr }
%"struct.std::__detail::_AllocNode" = type { ptr }
%"struct.std::_Hashtable<std::__cxx11::basic_string<char>, std::__cxx11::basic_string<char>, std::allocator<std::__cxx11::basic_string<char>>, std::__detail::_Identity, std::equal_to<std::__cxx11::basic_string<char>>, std::hash<string>, std::__detail::_Mod_range_hashing, std::__detail::_Default_ranged_hash, std::__detail::_Prime_rehash_policy, std::__detail::_Hashtable_traits<true, true, true>>::_Scoped_node" = type { ptr, ptr }
%"struct.std::pair.109" = type { i8, i64 }
%"struct.std::_Identity" = type { i8 }
%"struct.std::_Rb_tree<const aiNode *, const aiNode *, std::_Identity<const aiNode *>, std::less<const aiNode *>>::_Alloc_node" = type { ptr }
%"struct.std::_Select1st.116" = type { i8 }
%"struct.std::_Rb_tree<const void *, std::pair<const void *const, std::__cxx11::basic_string<char>>, std::_Select1st<std::pair<const void *const, std::__cxx11::basic_string<char>>>, std::less<const void *>>::_Auto_node" = type { ptr, ptr }
%"struct.std::_Select1st.118" = type { i8 }
%"struct.std::_Rb_tree<unsigned long, std::pair<const unsigned long, std::__cxx11::basic_string<char>>, std::_Select1st<std::pair<const unsigned long, std::__cxx11::basic_string<char>>>, std::less<unsigned long>>::_Auto_node" = type { ptr, ptr }

$_ZNSt6vectorINSt7__cxx1112basic_stringIcSt11char_traitsIcESaIcEEESaIS5_EED2Ev = comdat any

$_ZN6Assimp8IOSystemD0Ev = comdat any

$_ZN6Assimp8IOStreamD0Ev = comdat any

$_ZN6Assimp9LogStreamD0Ev = comdat any

$_ZN6Assimp6LoggerD0Ev = comdat any

$_ZNSt7__cxx1112basic_stringIcSt11char_traitsIcESaIcEEC2IS3_EEPKcRKS3_ = comdat any

$_ZStplIcSt11char_traitsIcESaIcEENSt7__cxx1112basic_stringIT_T0_T1_EEPKS5_OS8_ = comdat any

$_ZN17DeadlyExportErrorC2IJNSt7__cxx1112basic_stringIcSt11char_traitsIcESaIcEEEEEEDpOT_ = comdat any

$_ZN17DeadlyExportErrorD2Ev = comdat any

$_ZNSt10unique_ptrIN6Assimp8IOStreamESt14default_deleteIS1_EEC2IS3_vEEPS1_ = comdat any

$_ZSteqIN6Assimp8IOStreamESt14default_deleteIS1_EEbRKSt10unique_ptrIT_T0_EDn = comdat any

$_ZNKSt10unique_ptrIN6Assimp8IOStreamESt14default_deleteIS1_EEptEv = comdat any

$_ZNKSt4fposI11__mbstate_tEcvlEv = comdat any

$_ZNSt10unique_ptrIN6Assimp8IOStreamESt14default_deleteIS1_EED2Ev = comdat any

$_ZNSt13unordered_setINSt7__cxx1112basic_stringIcSt11char_traitsIcESaIcEEESt4hashIS5_ESt8equal_toIS5_ESaIS5_EEC2Ev = comdat any

$_ZNSt3mapIPKvNSt7__cxx1112basic_stringIcSt11char_traitsIcESaIcEEESt4lessIS1_ESaISt4pairIKS1_S7_EEEC2Ev = comdat any

$_ZNSt5arrayISt3mapImNSt7__cxx1112basic_stringIcSt11char_traitsIcESaIcEEESt4lessImESaISt4pairIKmS6_EEELm5EEC2Ev = comdat any

$_ZNSt3mapIjNSt7__cxx1112basic_stringIcSt11char_traitsIcESaIcEEESt4lessIjESaISt4pairIKjS5_EEEC2Ev = comdat any

$_ZNSt8ios_base9precisionEl = comdat any

$_ZNSt3mapIjNSt7__cxx1112basic_stringIcSt11char_traitsIcESaIcEEESt4lessIjESaISt4pairIKjS5_EEED2Ev = comdat any

$_ZNSt5arrayISt3mapImNSt7__cxx1112basic_stringIcSt11char_traitsIcESaIcEEESt4lessImESaISt4pairIKmS6_EEELm5EED2Ev = comdat any

$_ZNSt3mapIPKvNSt7__cxx1112basic_stringIcSt11char_traitsIcESaIcEEESt4lessIS1_ESaISt4pairIKS1_S7_EEED2Ev = comdat any

$_ZNSt13unordered_setINSt7__cxx1112basic_stringIcSt11char_traitsIcESaIcEEESt4hashIS5_ESt8equal_toIS5_ESaIS5_EED2Ev = comdat any

$_ZN6Assimp15ColladaExporter7PushTagEv = comdat any

$_ZStplIcSt11char_traitsIcESaIcEENSt7__cxx1112basic_stringIT_T0_T1_EEOS8_PKS5_ = comdat any

$_ZStplIcSt11char_traitsIcESaIcEENSt7__cxx1112basic_stringIT_T0_T1_EEPKS5_RKS8_ = comdat any

$_ZN6Assimp15ColladaExporter6PopTagEv = comdat any

$_ZN6Assimp4Math10getEpsilonIfEET_v = comdat any

$_ZN12aiMatrix3x3tIfEC2Efffffffff = comdat any

$_ZN13aiQuaterniontIfEC2ERK12aiMatrix3x3tIfE = comdat any

$_ZN10aiVector3tIfEC2Ev = comdat any

$_ZN13aiQuaterniontIfEC2Ev = comdat any

$_ZNK12aiMatrix4x4tIfE9DecomposeER10aiVector3tIfER13aiQuaterniontIfES3_ = comdat any

$_ZN13aiQuaterniontIfE9NormalizeEv = comdat any

$_ZSt3absf = comdat any

$_ZNK13aiQuaterniontIfE5EqualERKS0_f = comdat any

$_ZNK10aiVector3tIfE5EqualERKS0_f = comdat any

$_ZN10aiVector3tIfEC2Efff = comdat any

$_ZN8aiStringC2Ev = comdat any

$_ZNK10aiMetadata3GetI8aiStringEEbRKNSt7__cxx1112basic_stringIcSt11char_traitsIcESaIcEEERT_ = comdat any

$_ZNK8aiString5C_StrEv = comdat any

$_ZNK7aiScene11HasTexturesEv = comdat any

$_ZN6Assimp13ASSIMP_itoa10EPcji = comdat any

$_ZStplIcSt11char_traitsIcESaIcEENSt7__cxx1112basic_stringIT_T0_T1_EERKS8_PKS5_ = comdat any

$_ZN6Assimp8IOSystem4OpenERKNSt7__cxx1112basic_stringIcSt11char_traitsIcESaIcEEES8_ = comdat any

$_ZStplIcSt11char_traitsIcESaIcEENSt7__cxx1112basic_stringIT_T0_T1_EEOS8_RKS8_ = comdat any

$_ZStplIcSt11char_traitsIcESaIcEENSt7__cxx1112basic_stringIT_T0_T1_EERKS8_S5_ = comdat any

$_ZNKSt10unique_ptrIN6Assimp8IOStreamESt14default_deleteIS1_EE3getEv = comdat any

$_ZNSt3mapIjNSt7__cxx1112basic_stringIcSt11char_traitsIcESaIcEEESt4lessIjESaISt4pairIKjS5_EEE6insertIS8_IjS5_EEENSt9enable_ifIXsr16is_constructibleISA_T_EE5valueES8_ISt17_Rb_tree_iteratorISA_EbEE4typeEOSG_ = comdat any

$_ZSt9make_pairIRjRNSt7__cxx1112basic_stringIcSt11char_traitsIcESaIcEEEESt4pairINSt25__strip_reference_wrapperINSt5decayIT_E4typeEE6__typeENS9_INSA_IT0_E4typeEE6__typeEEOSB_OSG_ = comdat any

$_ZNSt4pairIjNSt7__cxx1112basic_stringIcSt11char_traitsIcESaIcEEEED2Ev = comdat any

$_ZNK7aiScene10HasCamerasEv = comdat any

$_ZNK7aiScene9HasLightsEv = comdat any

$_ZNK10aiMaterial15GetTextureCountE13aiTextureType = comdat any

$_ZNK10aiMaterial10GetTextureE13aiTextureTypejP8aiStringP16aiTextureMappingPjPfP11aiTextureOpP16aiTextureMapMode = comdat any

$_ZN6Assimp12strtoul10_64I17DeadlyExportErrorEEmPKcPS3_Pj = comdat any

$_ZN17DeadlyExportErrorC2IJPKcEEEDpOT_ = comdat any

$__clang_call_terminate = comdat any

$_ZNSt3mapIjNSt7__cxx1112basic_stringIcSt11char_traitsIcESaIcEEESt4lessIjESaISt4pairIKjS5_EEE4findERS9_ = comdat any

$_ZNSt23_Rb_tree_const_iteratorISt4pairIKjNSt7__cxx1112basic_stringIcSt11char_traitsIcESaIcEEEEEC2ERKSt17_Rb_tree_iteratorIS8_E = comdat any

$_ZStneRKSt23_Rb_tree_const_iteratorISt4pairIKjNSt7__cxx1112basic_stringIcSt11char_traitsIcESaIcEEEEESB_ = comdat any

$_ZNSt3mapIjNSt7__cxx1112basic_stringIcSt11char_traitsIcESaIcEEESt4lessIjESaISt4pairIKjS5_EEE3endEv = comdat any

$_ZNKSt23_Rb_tree_const_iteratorISt4pairIKjNSt7__cxx1112basic_stringIcSt11char_traitsIcESaIcEEEEEptEv = comdat any

$_ZNK10aiMaterial3GetEPKcjjR9aiColor4tIfE = comdat any

$_ZN9__gnu_cxxneIPKcNSt7__cxx1112basic_stringIcSt11char_traitsIcESaIcEEEEEbRKNS_17__normal_iteratorIT_T0_EESE_ = comdat any

$_ZNK9__gnu_cxx17__normal_iteratorIPKcNSt7__cxx1112basic_stringIcSt11char_traitsIcESaIcEEEEdeEv = comdat any

$_ZSt3hexRSt8ios_base = comdat any

$_ZSt3decRSt8ios_base = comdat any

$_ZN9__gnu_cxx17__normal_iteratorIPKcNSt7__cxx1112basic_stringIcSt11char_traitsIcESaIcEEEEppEv = comdat any

$_ZNSt6vectorIN6Assimp15ColladaExporter8MaterialESaIS2_EEC2Ev = comdat any

$_ZNSt6vectorIN6Assimp15ColladaExporter8MaterialESaIS2_EE6resizeEm = comdat any

$_ZNSt6vectorIN6Assimp15ColladaExporter8MaterialESaIS2_EEixEm = comdat any

$_ZNK10aiMaterial3GetI13aiShadingModeEE8aiReturnPKcjjRT_ = comdat any

$_ZNK10aiMaterial3GetEPKcjjRf = comdat any

$_ZNSt6vectorIN6Assimp15ColladaExporter8MaterialESaIS2_EE5beginEv = comdat any

$_ZNSt6vectorIN6Assimp15ColladaExporter8MaterialESaIS2_EE3endEv = comdat any

$_ZN9__gnu_cxxneIPN6Assimp15ColladaExporter8MaterialESt6vectorIS3_SaIS3_EEEEbRKNS_17__normal_iteratorIT_T0_EESD_ = comdat any

$_ZNK9__gnu_cxx17__normal_iteratorIPN6Assimp15ColladaExporter8MaterialESt6vectorIS3_SaIS3_EEEdeEv = comdat any

$_ZN9__gnu_cxx17__normal_iteratorIPN6Assimp15ColladaExporter8MaterialESt6vectorIS3_SaIS3_EEEppEv = comdat any

$_ZNKSt6vectorIN6Assimp15ColladaExporter8MaterialESaIS2_EE5emptyEv = comdat any

$_ZN9__gnu_cxx17__normal_iteratorIPKN6Assimp15ColladaExporter8MaterialESt6vectorIS3_SaIS3_EEEC2IPS3_vEERKNS0_IT_S8_EE = comdat any

$_ZN9__gnu_cxxneIPKN6Assimp15ColladaExporter8MaterialEPS3_St6vectorIS3_SaIS3_EEEEbRKNS_17__normal_iteratorIT_T1_EERKNSA_IT0_SC_EE = comdat any

$_ZNK9__gnu_cxx17__normal_iteratorIPKN6Assimp15ColladaExporter8MaterialESt6vectorIS3_SaIS3_EEEdeEv = comdat any

$_ZN9__gnu_cxx17__normal_iteratorIPKN6Assimp15ColladaExporter8MaterialESt6vectorIS3_SaIS3_EEEppEv = comdat any

$_ZNSt6vectorIN6Assimp15ColladaExporter8MaterialESaIS2_EED2Ev = comdat any

$_ZN12aiMatrix4x4tIfEC2Ev = comdat any

$_ZNSt6vectorIfSaIfEEC2Ev = comdat any

$_ZNSt6vectorIfSaIfEE7reserveEm = comdat any

$_ZNSt6vectorIfSaIfEE6insertIPfvEEN9__gnu_cxx17__normal_iteratorIS3_S1_EENS5_IPKfS1_EET_SA_ = comdat any

$_ZNSt6vectorIfSaIfEE3endEv = comdat any

$_ZN9__gnu_cxx17__normal_iteratorIPKfSt6vectorIfSaIfEEEC2IPfvEERKNS0_IT_S5_EE = comdat any

$_ZN12aiMatrix4x4tIfEixEj = comdat any

$_ZNSt6vectorIfSaIfEE4dataEv = comdat any

$_ZNKSt6vectorIfSaIfEE4sizeEv = comdat any

$_ZNSt6vectorIfSaIfEE5clearEv = comdat any

$_ZNSt6vectorIfSaIfEE9push_backERKf = comdat any

$_ZNSaIjEC2Ev = comdat any

$_ZNSt6vectorIjSaIjEEC2EmRKjRKS0_ = comdat any

$_ZNSaIjED2Ev = comdat any

$_ZNSt6vectorIjSaIjEEixEm = comdat any

$_ZNSt6vectorIjSaIjEEC2Ev = comdat any

$_ZNSt6vectorIjSaIjEE7reserveEm = comdat any

$_ZNKSt6vectorIjSaIjEE4sizeEv = comdat any

$_ZNSt6vectorIjSaIjEE9push_backERKj = comdat any

$_ZNSaIiEC2Ev = comdat any

$_ZNSt6vectorIiSaIiEEC2EmRKiRKS0_ = comdat any

$_ZNSaIiED2Ev = comdat any

$_ZNSt6vectorIiSaIiEEixEm = comdat any

$_ZNKSt6vectorIiSaIiEE4sizeEv = comdat any

$_ZNSt6vectorIjSaIjEE5clearEv = comdat any

$_ZNSt6vectorIiSaIiEE5clearEv = comdat any

$_ZNSt6vectorIiSaIiEED2Ev = comdat any

$_ZNSt6vectorIjSaIjEED2Ev = comdat any

$_ZNSt6vectorIfSaIfEED2Ev = comdat any

$_ZNK6aiMesh10HasNormalsEv = comdat any

$_ZNK6aiMesh16HasTextureCoordsEj = comdat any

$_ZStplIcSt11char_traitsIcESaIcEENSt7__cxx1112basic_stringIT_T0_T1_EEOS8_S9_ = comdat any

$_Z12ai_to_stringImENSt7__cxx1112basic_stringIcSt11char_traitsIcESaIcEEET_ = comdat any

$_ZNK6aiMesh15HasVertexColorsEj = comdat any

$_ZN6Assimp12MakeUniqueIdERKSt13unordered_setINSt7__cxx1112basic_stringIcSt11char_traitsIcESaIcEEESt4hashIS6_ESt8equal_toIS6_ESaIS6_EERKS6_SG_ = comdat any

$_ZNSt13unordered_setINSt7__cxx1112basic_stringIcSt11char_traitsIcESaIcEEESt4hashIS5_ESt8equal_toIS5_ESaIS5_EE6insertERKS5_ = comdat any

$_ZNSt6vectorIfSaIfEE9push_backEOf = comdat any

$_ZNK13aiQuaterniontIfE9GetMatrixEv = comdat any

$_ZN12aiMatrix4x4tIfEC2ERK12aiMatrix3x3tIfE = comdat any

$_ZN12aiMatrix4x4tIfEC2Effffffffffffffff = comdat any

$_ZNK12aiMatrix4x4tIfEmlERKS0_ = comdat any

$_ZNSt6vectorINSt7__cxx1112basic_stringIcSt11char_traitsIcESaIcEEESaIS5_EEC2Ev = comdat any

$_ZNSt6vectorINSt7__cxx1112basic_stringIcSt11char_traitsIcESaIcEEESaIS5_EE12emplace_backIJRA7_KcEEERS5_DpOT_ = comdat any

$_ZNSt6vectorINSt7__cxx1112basic_stringIcSt11char_traitsIcESaIcEEESaIS5_EE12emplace_backIJRA5_KcEEERS5_DpOT_ = comdat any

$_ZNKSt6vectorINSt7__cxx1112basic_stringIcSt11char_traitsIcESaIcEEESaIS5_EE4sizeEv = comdat any

$_ZNSt6vectorINSt7__cxx1112basic_stringIcSt11char_traitsIcESaIcEEESaIS5_EEixEm = comdat any

$_ZNK8aiStringeqERKS_ = comdat any

$_ZNSt3setIPK6aiNodeSt4lessIS2_ESaIS2_EEC2Ev = comdat any

$_ZNSt3setIPK6aiNodeSt4lessIS2_ESaIS2_EE6insertERKS2_ = comdat any

$_ZNKSt3setIPK6aiNodeSt4lessIS2_ESaIS2_EE5emptyEv = comdat any

$_ZNKSt3setIPK6aiNodeSt4lessIS2_ESaIS2_EE5beginEv = comdat any

$_ZNKSt23_Rb_tree_const_iteratorIPK6aiNodeEdeEv = comdat any

$_ZNKSt3setIPK6aiNodeSt4lessIS2_ESaIS2_EE4sizeEv = comdat any

$_ZNKSt3setIPK6aiNodeSt4lessIS2_ESaIS2_EE3endEv = comdat any

$_ZStneRKSt23_Rb_tree_const_iteratorIPK6aiNodeES5_ = comdat any

$_ZNSt23_Rb_tree_const_iteratorIPK6aiNodeEppEv = comdat any

$_ZNSt3setIPK6aiNodeSt4lessIS2_ESaIS2_EED2Ev = comdat any

$_ZNK8aiCamera15GetCameraMatrixER12aiMatrix4x4tIfE = comdat any

$_ZN12aiMatrix4x4tIfEmLERKS0_ = comdat any

$_ZNSt3mapIPKvNSt7__cxx1112basic_stringIcSt11char_traitsIcESaIcEEESt4lessIS1_ESaISt4pairIKS1_S7_EEE4findERSB_ = comdat any

$_ZStneRKSt23_Rb_tree_const_iteratorISt4pairIKPKvNSt7__cxx1112basic_stringIcSt11char_traitsIcESaIcEEEEESD_ = comdat any

$_ZNSt23_Rb_tree_const_iteratorISt4pairIKPKvNSt7__cxx1112basic_stringIcSt11char_traitsIcESaIcEEEEEC2ERKSt17_Rb_tree_iteratorISA_E = comdat any

$_ZNKSt3mapIPKvNSt7__cxx1112basic_stringIcSt11char_traitsIcESaIcEEESt4lessIS1_ESaISt4pairIKS1_S7_EEE4cendEv = comdat any

$_ZNKSt17_Rb_tree_iteratorISt4pairIKPKvNSt7__cxx1112basic_stringIcSt11char_traitsIcESaIcEEEEEptEv = comdat any

$_ZNSt3mapIPKvNSt7__cxx1112basic_stringIcSt11char_traitsIcESaIcEEESt4lessIS1_ESaISt4pairIKS1_S7_EEE6insertISA_IPK6aiNodeS7_EEENSt9enable_ifIXsr16is_constructibleISC_T_EE5valueESA_ISt17_Rb_tree_iteratorISC_EbEE4typeEOSL_ = comdat any

$_ZSt9make_pairIRPK6aiNodeRNSt7__cxx1112basic_stringIcSt11char_traitsIcESaIcEEEESt4pairINSt25__strip_reference_wrapperINSt5decayIT_E4typeEE6__typeENSC_INSD_IT0_E4typeEE6__typeEEOSE_OSJ_ = comdat any

$_ZNSt4pairIPK6aiNodeNSt7__cxx1112basic_stringIcSt11char_traitsIcESaIcEEEED2Ev = comdat any

$_ZN6Assimp15ColladaExporter14GetObjectIdMapB5cxx11ENS0_12AiObjectTypeE = comdat any

$_ZNSt3mapImNSt7__cxx1112basic_stringIcSt11char_traitsIcESaIcEEESt4lessImESaISt4pairIKmS5_EEE4findERS9_ = comdat any

$_ZStneRKSt23_Rb_tree_const_iteratorISt4pairIKmNSt7__cxx1112basic_stringIcSt11char_traitsIcESaIcEEEEESB_ = comdat any

$_ZNSt23_Rb_tree_const_iteratorISt4pairIKmNSt7__cxx1112basic_stringIcSt11char_traitsIcESaIcEEEEEC2ERKSt17_Rb_tree_iteratorIS8_E = comdat any

$_ZNKSt3mapImNSt7__cxx1112basic_stringIcSt11char_traitsIcESaIcEEESt4lessImESaISt4pairIKmS5_EEE4cendEv = comdat any

$_ZNKSt17_Rb_tree_iteratorISt4pairIKmNSt7__cxx1112basic_stringIcSt11char_traitsIcESaIcEEEEEptEv = comdat any

$_ZNSt4pairINSt7__cxx1112basic_stringIcSt11char_traitsIcESaIcEEES5_ED2Ev = comdat any

$_ZN6Assimp15ColladaExporter16GetObjectNameMapB5cxx11ENS0_12AiObjectTypeE = comdat any

$_ZNSt3mapImNSt7__cxx1112basic_stringIcSt11char_traitsIcESaIcEEESt4lessImESaISt4pairIKmS5_EEE6insertIS8_ImS5_EEENSt9enable_ifIXsr16is_constructibleISA_T_EE5valueES8_ISt17_Rb_tree_iteratorISA_EbEE4typeEOSG_ = comdat any

$_ZSt9make_pairIRmRNSt7__cxx1112basic_stringIcSt11char_traitsIcESaIcEEEESt4pairINSt25__strip_reference_wrapperINSt5decayIT_E4typeEE6__typeENS9_INSA_IT0_E4typeEE6__typeEEOSB_OSG_ = comdat any

$_ZNSt4pairImNSt7__cxx1112basic_stringIcSt11char_traitsIcESaIcEEEED2Ev = comdat any

$_ZSt9make_pairIRNSt7__cxx1112basic_stringIcSt11char_traitsIcESaIcEEES6_ESt4pairINSt25__strip_reference_wrapperINSt5decayIT_E4typeEE6__typeENS8_INS9_IT0_E4typeEE6__typeEEOSA_OSF_ = comdat any

$_ZN6Assimp8IOSystemD2Ev = comdat any

$_ZN6Assimp8IOSystem13PushDirectoryERKNSt7__cxx1112basic_stringIcSt11char_traitsIcESaIcEEE = comdat any

$_ZNK6Assimp8IOSystem9StackSizeEv = comdat any

$_ZN6Assimp8IOSystem12PopDirectoryEv = comdat any

$_ZN6Assimp8IOSystem15CreateDirectoryERKNSt7__cxx1112basic_stringIcSt11char_traitsIcESaIcEEE = comdat any

$_ZN6Assimp8IOSystem15ChangeDirectoryERKNSt7__cxx1112basic_stringIcSt11char_traitsIcESaIcEEE = comdat any

$_ZN6Assimp8IOSystem10DeleteFileERKNSt7__cxx1112basic_stringIcSt11char_traitsIcESaIcEEE = comdat any

$_ZN6Assimp8IOStreamD2Ev = comdat any

$_ZN6Assimp9LogStreamD2Ev = comdat any

$_ZN6Assimp6LoggerD2Ev = comdat any

$_ZN15DeadlyErrorBaseD2Ev = comdat any

$_ZNSt10_HashtableINSt7__cxx1112basic_stringIcSt11char_traitsIcESaIcEEES5_SaIS5_ENSt8__detail9_IdentityESt8equal_toIS5_ESt4hashIS5_ENS7_18_Mod_range_hashingENS7_20_Default_ranged_hashENS7_20_Prime_rehash_policyENS7_17_Hashtable_traitsILb1ELb1ELb1EEEEC2Ev = comdat any

$_ZNSt8__detail15_Hashtable_baseINSt7__cxx1112basic_stringIcSt11char_traitsIcESaIcEEES6_NS_9_IdentityESt8equal_toIS6_ESt4hashIS6_ENS_18_Mod_range_hashingENS_20_Default_ranged_hashENS_17_Hashtable_traitsILb1ELb1ELb1EEEEC2Ev = comdat any

$_ZNSt8__detail16_Hashtable_allocISaINS_10_Hash_nodeINSt7__cxx1112basic_stringIcSt11char_traitsIcESaIcEEELb1EEEEEC2Ev = comdat any

$_ZNSt8__detail15_Hash_node_baseC2Ev = comdat any

$_ZNSt8__detail20_Prime_rehash_policyC2Ef = comdat any

$_ZNSt8__detail15_Hash_code_baseINSt7__cxx1112basic_stringIcSt11char_traitsIcESaIcEEES6_NS_9_IdentityESt4hashIS6_ENS_18_Mod_range_hashingENS_20_Default_ranged_hashELb1EEC2Ev = comdat any

$_ZNSt8__detail21_Hashtable_ebo_helperILi0ESt8equal_toINSt7__cxx1112basic_stringIcSt11char_traitsIcESaIcEEEELb1EEC2Ev = comdat any

$_ZNSt8__detail21_Hashtable_ebo_helperILi1ESt4hashINSt7__cxx1112basic_stringIcSt11char_traitsIcESaIcEEEELb1EEC2Ev = comdat any

$_ZNSt8__detail21_Hashtable_ebo_helperILi0ESaINS_10_Hash_nodeINSt7__cxx1112basic_stringIcSt11char_traitsIcESaIcEEELb1EEEELb1EEC2Ev = comdat any

$_ZNSaINSt8__detail10_Hash_nodeINSt7__cxx1112basic_stringIcSt11char_traitsIcESaIcEEELb1EEEEC2Ev = comdat any

$_ZNSt15__new_allocatorINSt8__detail10_Hash_nodeINSt7__cxx1112basic_stringIcSt11char_traitsIcESaIcEEELb1EEEEC2Ev = comdat any

$_ZNSt8_Rb_treeIPKvSt4pairIKS1_NSt7__cxx1112basic_stringIcSt11char_traitsIcESaIcEEEESt10_Select1stISA_ESt4lessIS1_ESaISA_EEC2Ev = comdat any

$_ZNSt8_Rb_treeIPKvSt4pairIKS1_NSt7__cxx1112basic_stringIcSt11char_traitsIcESaIcEEEESt10_Select1stISA_ESt4lessIS1_ESaISA_EE13_Rb_tree_implISE_Lb1EEC2Ev = comdat any

$_ZNSaISt13_Rb_tree_nodeISt4pairIKPKvNSt7__cxx1112basic_stringIcSt11char_traitsIcESaIcEEEEEEC2Ev = comdat any

$_ZNSt20_Rb_tree_key_compareISt4lessIPKvEEC2Ev = comdat any

$_ZNSt15_Rb_tree_headerC2Ev = comdat any

$_ZNSt15__new_allocatorISt13_Rb_tree_nodeISt4pairIKPKvNSt7__cxx1112basic_stringIcSt11char_traitsIcESaIcEEEEEEC2Ev = comdat any

$_ZNSt15_Rb_tree_header8_M_resetEv = comdat any

$_ZNSt3mapImNSt7__cxx1112basic_stringIcSt11char_traitsIcESaIcEEESt4lessImESaISt4pairIKmS5_EEEC2Ev = comdat any

$_ZNSt8_Rb_treeImSt4pairIKmNSt7__cxx1112basic_stringIcSt11char_traitsIcESaIcEEEESt10_Select1stIS8_ESt4lessImESaIS8_EEC2Ev = comdat any

$_ZNSt8_Rb_treeImSt4pairIKmNSt7__cxx1112basic_stringIcSt11char_traitsIcESaIcEEEESt10_Select1stIS8_ESt4lessImESaIS8_EE13_Rb_tree_implISC_Lb1EEC2Ev = comdat any

$_ZNSaISt13_Rb_tree_nodeISt4pairIKmNSt7__cxx1112basic_stringIcSt11char_traitsIcESaIcEEEEEEC2Ev = comdat any

$_ZNSt20_Rb_tree_key_compareISt4lessImEEC2Ev = comdat any

$_ZNSt15__new_allocatorISt13_Rb_tree_nodeISt4pairIKmNSt7__cxx1112basic_stringIcSt11char_traitsIcESaIcEEEEEEC2Ev = comdat any

$_ZNSt8_Rb_treeIjSt4pairIKjNSt7__cxx1112basic_stringIcSt11char_traitsIcESaIcEEEESt10_Select1stIS8_ESt4lessIjESaIS8_EEC2Ev = comdat any

$_ZNSt8_Rb_treeIjSt4pairIKjNSt7__cxx1112basic_stringIcSt11char_traitsIcESaIcEEEESt10_Select1stIS8_ESt4lessIjESaIS8_EE13_Rb_tree_implISC_Lb1EEC2Ev = comdat any

$_ZNSaISt13_Rb_tree_nodeISt4pairIKjNSt7__cxx1112basic_stringIcSt11char_traitsIcESaIcEEEEEEC2Ev = comdat any

$_ZNSt20_Rb_tree_key_compareISt4lessIjEEC2Ev = comdat any

$_ZNSt15__new_allocatorISt13_Rb_tree_nodeISt4pairIKjNSt7__cxx1112basic_stringIcSt11char_traitsIcESaIcEEEEEEC2Ev = comdat any

$_ZNSt8_Rb_treeIjSt4pairIKjNSt7__cxx1112basic_stringIcSt11char_traitsIcESaIcEEEESt10_Select1stIS8_ESt4lessIjESaIS8_EED2Ev = comdat any

$_ZNSt8_Rb_treeIjSt4pairIKjNSt7__cxx1112basic_stringIcSt11char_traitsIcESaIcEEEESt10_Select1stIS8_ESt4lessIjESaIS8_EE8_M_eraseEPSt13_Rb_tree_nodeIS8_E = comdat any

$_ZNSt8_Rb_treeIjSt4pairIKjNSt7__cxx1112basic_stringIcSt11char_traitsIcESaIcEEEESt10_Select1stIS8_ESt4lessIjESaIS8_EE8_M_beginEv = comdat any

$_ZNSt8_Rb_treeIjSt4pairIKjNSt7__cxx1112basic_stringIcSt11char_traitsIcESaIcEEEESt10_Select1stIS8_ESt4lessIjESaIS8_EE13_Rb_tree_implISC_Lb1EED2Ev = comdat any

$_ZNSt8_Rb_treeIjSt4pairIKjNSt7__cxx1112basic_stringIcSt11char_traitsIcESaIcEEEESt10_Select1stIS8_ESt4lessIjESaIS8_EE8_S_rightEPSt18_Rb_tree_node_base = comdat any

$_ZNSt8_Rb_treeIjSt4pairIKjNSt7__cxx1112basic_stringIcSt11char_traitsIcESaIcEEEESt10_Select1stIS8_ESt4lessIjESaIS8_EE7_S_leftEPSt18_Rb_tree_node_base = comdat any

$_ZNSt8_Rb_treeIjSt4pairIKjNSt7__cxx1112basic_stringIcSt11char_traitsIcESaIcEEEESt10_Select1stIS8_ESt4lessIjESaIS8_EE12_M_drop_nodeEPSt13_Rb_tree_nodeIS8_E = comdat any

$_ZNSt8_Rb_treeIjSt4pairIKjNSt7__cxx1112basic_stringIcSt11char_traitsIcESaIcEEEESt10_Select1stIS8_ESt4lessIjESaIS8_EE15_M_destroy_nodeEPSt13_Rb_tree_nodeIS8_E = comdat any

$_ZNSt8_Rb_treeIjSt4pairIKjNSt7__cxx1112basic_stringIcSt11char_traitsIcESaIcEEEESt10_Select1stIS8_ESt4lessIjESaIS8_EE11_M_put_nodeEPSt13_Rb_tree_nodeIS8_E = comdat any

$_ZNSt16allocator_traitsISaISt13_Rb_tree_nodeISt4pairIKjNSt7__cxx1112basic_stringIcSt11char_traitsIcESaIcEEEEEEE7destroyIS9_EEvRSB_PT_ = comdat any

$_ZNSt8_Rb_treeIjSt4pairIKjNSt7__cxx1112basic_stringIcSt11char_traitsIcESaIcEEEESt10_Select1stIS8_ESt4lessIjESaIS8_EE21_M_get_Node_allocatorEv = comdat any

$_ZNSt13_Rb_tree_nodeISt4pairIKjNSt7__cxx1112basic_stringIcSt11char_traitsIcESaIcEEEEE9_M_valptrEv = comdat any

$_ZNSt15__new_allocatorISt13_Rb_tree_nodeISt4pairIKjNSt7__cxx1112basic_stringIcSt11char_traitsIcESaIcEEEEEE7destroyIS9_EEvPT_ = comdat any

$_ZNSt4pairIKjNSt7__cxx1112basic_stringIcSt11char_traitsIcESaIcEEEED2Ev = comdat any

$_ZN9__gnu_cxx16__aligned_membufISt4pairIKjNSt7__cxx1112basic_stringIcSt11char_traitsIcESaIcEEEEE6_M_ptrEv = comdat any

$_ZN9__gnu_cxx16__aligned_membufISt4pairIKjNSt7__cxx1112basic_stringIcSt11char_traitsIcESaIcEEEEE7_M_addrEv = comdat any

$_ZNSt16allocator_traitsISaISt13_Rb_tree_nodeISt4pairIKjNSt7__cxx1112basic_stringIcSt11char_traitsIcESaIcEEEEEEE10deallocateERSB_PSA_m = comdat any

$_ZNSt15__new_allocatorISt13_Rb_tree_nodeISt4pairIKjNSt7__cxx1112basic_stringIcSt11char_traitsIcESaIcEEEEEE10deallocateEPSA_m = comdat any

$_ZNKSt8_Rb_treeIjSt4pairIKjNSt7__cxx1112basic_stringIcSt11char_traitsIcESaIcEEEESt10_Select1stIS8_ESt4lessIjESaIS8_EE9_M_mbeginEv = comdat any

$_ZNSaISt13_Rb_tree_nodeISt4pairIKjNSt7__cxx1112basic_stringIcSt11char_traitsIcESaIcEEEEEED2Ev = comdat any

$_ZNSt15__new_allocatorISt13_Rb_tree_nodeISt4pairIKjNSt7__cxx1112basic_stringIcSt11char_traitsIcESaIcEEEEEED2Ev = comdat any

$_ZNSt3mapImNSt7__cxx1112basic_stringIcSt11char_traitsIcESaIcEEESt4lessImESaISt4pairIKmS5_EEED2Ev = comdat any

$_ZNSt8_Rb_treeImSt4pairIKmNSt7__cxx1112basic_stringIcSt11char_traitsIcESaIcEEEESt10_Select1stIS8_ESt4lessImESaIS8_EED2Ev = comdat any

$_ZNSt8_Rb_treeImSt4pairIKmNSt7__cxx1112basic_stringIcSt11char_traitsIcESaIcEEEESt10_Select1stIS8_ESt4lessImESaIS8_EE8_M_eraseEPSt13_Rb_tree_nodeIS8_E = comdat any

$_ZNSt8_Rb_treeImSt4pairIKmNSt7__cxx1112basic_stringIcSt11char_traitsIcESaIcEEEESt10_Select1stIS8_ESt4lessImESaIS8_EE8_M_beginEv = comdat any

$_ZNSt8_Rb_treeImSt4pairIKmNSt7__cxx1112basic_stringIcSt11char_traitsIcESaIcEEEESt10_Select1stIS8_ESt4lessImESaIS8_EE13_Rb_tree_implISC_Lb1EED2Ev = comdat any

$_ZNSt8_Rb_treeImSt4pairIKmNSt7__cxx1112basic_stringIcSt11char_traitsIcESaIcEEEESt10_Select1stIS8_ESt4lessImESaIS8_EE8_S_rightEPSt18_Rb_tree_node_base = comdat any

$_ZNSt8_Rb_treeImSt4pairIKmNSt7__cxx1112basic_stringIcSt11char_traitsIcESaIcEEEESt10_Select1stIS8_ESt4lessImESaIS8_EE7_S_leftEPSt18_Rb_tree_node_base = comdat any

$_ZNSt8_Rb_treeImSt4pairIKmNSt7__cxx1112basic_stringIcSt11char_traitsIcESaIcEEEESt10_Select1stIS8_ESt4lessImESaIS8_EE12_M_drop_nodeEPSt13_Rb_tree_nodeIS8_E = comdat any

$_ZNSt8_Rb_treeImSt4pairIKmNSt7__cxx1112basic_stringIcSt11char_traitsIcESaIcEEEESt10_Select1stIS8_ESt4lessImESaIS8_EE15_M_destroy_nodeEPSt13_Rb_tree_nodeIS8_E = comdat any

$_ZNSt8_Rb_treeImSt4pairIKmNSt7__cxx1112basic_stringIcSt11char_traitsIcESaIcEEEESt10_Select1stIS8_ESt4lessImESaIS8_EE11_M_put_nodeEPSt13_Rb_tree_nodeIS8_E = comdat any

$_ZNSt16allocator_traitsISaISt13_Rb_tree_nodeISt4pairIKmNSt7__cxx1112basic_stringIcSt11char_traitsIcESaIcEEEEEEE7destroyIS9_EEvRSB_PT_ = comdat any

$_ZNSt8_Rb_treeImSt4pairIKmNSt7__cxx1112basic_stringIcSt11char_traitsIcESaIcEEEESt10_Select1stIS8_ESt4lessImESaIS8_EE21_M_get_Node_allocatorEv = comdat any

$_ZNSt13_Rb_tree_nodeISt4pairIKmNSt7__cxx1112basic_stringIcSt11char_traitsIcESaIcEEEEE9_M_valptrEv = comdat any

$_ZNSt15__new_allocatorISt13_Rb_tree_nodeISt4pairIKmNSt7__cxx1112basic_stringIcSt11char_traitsIcESaIcEEEEEE7destroyIS9_EEvPT_ = comdat any

$_ZNSt4pairIKmNSt7__cxx1112basic_stringIcSt11char_traitsIcESaIcEEEED2Ev = comdat any

$_ZN9__gnu_cxx16__aligned_membufISt4pairIKmNSt7__cxx1112basic_stringIcSt11char_traitsIcESaIcEEEEE6_M_ptrEv = comdat any

$_ZN9__gnu_cxx16__aligned_membufISt4pairIKmNSt7__cxx1112basic_stringIcSt11char_traitsIcESaIcEEEEE7_M_addrEv = comdat any

$_ZNSt16allocator_traitsISaISt13_Rb_tree_nodeISt4pairIKmNSt7__cxx1112basic_stringIcSt11char_traitsIcESaIcEEEEEEE10deallocateERSB_PSA_m = comdat any

$_ZNSt15__new_allocatorISt13_Rb_tree_nodeISt4pairIKmNSt7__cxx1112basic_stringIcSt11char_traitsIcESaIcEEEEEE10deallocateEPSA_m = comdat any

$_ZNKSt8_Rb_treeImSt4pairIKmNSt7__cxx1112basic_stringIcSt11char_traitsIcESaIcEEEESt10_Select1stIS8_ESt4lessImESaIS8_EE9_M_mbeginEv = comdat any

$_ZNSaISt13_Rb_tree_nodeISt4pairIKmNSt7__cxx1112basic_stringIcSt11char_traitsIcESaIcEEEEEED2Ev = comdat any

$_ZNSt15__new_allocatorISt13_Rb_tree_nodeISt4pairIKmNSt7__cxx1112basic_stringIcSt11char_traitsIcESaIcEEEEEED2Ev = comdat any

$_ZNSt8_Rb_treeIPKvSt4pairIKS1_NSt7__cxx1112basic_stringIcSt11char_traitsIcESaIcEEEESt10_Select1stISA_ESt4lessIS1_ESaISA_EED2Ev = comdat any

$_ZNSt8_Rb_treeIPKvSt4pairIKS1_NSt7__cxx1112basic_stringIcSt11char_traitsIcESaIcEEEESt10_Select1stISA_ESt4lessIS1_ESaISA_EE8_M_eraseEPSt13_Rb_tree_nodeISA_E = comdat any

$_ZNSt8_Rb_treeIPKvSt4pairIKS1_NSt7__cxx1112basic_stringIcSt11char_traitsIcESaIcEEEESt10_Select1stISA_ESt4lessIS1_ESaISA_EE8_M_beginEv = comdat any

$_ZNSt8_Rb_treeIPKvSt4pairIKS1_NSt7__cxx1112basic_stringIcSt11char_traitsIcESaIcEEEESt10_Select1stISA_ESt4lessIS1_ESaISA_EE13_Rb_tree_implISE_Lb1EED2Ev = comdat any

$_ZNSt8_Rb_treeIPKvSt4pairIKS1_NSt7__cxx1112basic_stringIcSt11char_traitsIcESaIcEEEESt10_Select1stISA_ESt4lessIS1_ESaISA_EE8_S_rightEPSt18_Rb_tree_node_base = comdat any

$_ZNSt8_Rb_treeIPKvSt4pairIKS1_NSt7__cxx1112basic_stringIcSt11char_traitsIcESaIcEEEESt10_Select1stISA_ESt4lessIS1_ESaISA_EE7_S_leftEPSt18_Rb_tree_node_base = comdat any

$_ZNSt8_Rb_treeIPKvSt4pairIKS1_NSt7__cxx1112basic_stringIcSt11char_traitsIcESaIcEEEESt10_Select1stISA_ESt4lessIS1_ESaISA_EE12_M_drop_nodeEPSt13_Rb_tree_nodeISA_E = comdat any

$_ZNSt8_Rb_treeIPKvSt4pairIKS1_NSt7__cxx1112basic_stringIcSt11char_traitsIcESaIcEEEESt10_Select1stISA_ESt4lessIS1_ESaISA_EE15_M_destroy_nodeEPSt13_Rb_tree_nodeISA_E = comdat any

$_ZNSt8_Rb_treeIPKvSt4pairIKS1_NSt7__cxx1112basic_stringIcSt11char_traitsIcESaIcEEEESt10_Select1stISA_ESt4lessIS1_ESaISA_EE11_M_put_nodeEPSt13_Rb_tree_nodeISA_E = comdat any

$_ZNSt16allocator_traitsISaISt13_Rb_tree_nodeISt4pairIKPKvNSt7__cxx1112basic_stringIcSt11char_traitsIcESaIcEEEEEEE7destroyISB_EEvRSD_PT_ = comdat any

$_ZNSt8_Rb_treeIPKvSt4pairIKS1_NSt7__cxx1112basic_stringIcSt11char_traitsIcESaIcEEEESt10_Select1stISA_ESt4lessIS1_ESaISA_EE21_M_get_Node_allocatorEv = comdat any

$_ZNSt13_Rb_tree_nodeISt4pairIKPKvNSt7__cxx1112basic_stringIcSt11char_traitsIcESaIcEEEEE9_M_valptrEv = comdat any

$_ZNSt15__new_allocatorISt13_Rb_tree_nodeISt4pairIKPKvNSt7__cxx1112basic_stringIcSt11char_traitsIcESaIcEEEEEE7destroyISB_EEvPT_ = comdat any

$_ZNSt4pairIKPKvNSt7__cxx1112basic_stringIcSt11char_traitsIcESaIcEEEED2Ev = comdat any

$_ZN9__gnu_cxx16__aligned_membufISt4pairIKPKvNSt7__cxx1112basic_stringIcSt11char_traitsIcESaIcEEEEE6_M_ptrEv = comdat any

$_ZN9__gnu_cxx16__aligned_membufISt4pairIKPKvNSt7__cxx1112basic_stringIcSt11char_traitsIcESaIcEEEEE7_M_addrEv = comdat any

$_ZNSt16allocator_traitsISaISt13_Rb_tree_nodeISt4pairIKPKvNSt7__cxx1112basic_stringIcSt11char_traitsIcESaIcEEEEEEE10deallocateERSD_PSC_m = comdat any

$_ZNSt15__new_allocatorISt13_Rb_tree_nodeISt4pairIKPKvNSt7__cxx1112basic_stringIcSt11char_traitsIcESaIcEEEEEE10deallocateEPSC_m = comdat any

$_ZNKSt8_Rb_treeIPKvSt4pairIKS1_NSt7__cxx1112basic_stringIcSt11char_traitsIcESaIcEEEESt10_Select1stISA_ESt4lessIS1_ESaISA_EE9_M_mbeginEv = comdat any

$_ZNSaISt13_Rb_tree_nodeISt4pairIKPKvNSt7__cxx1112basic_stringIcSt11char_traitsIcESaIcEEEEEED2Ev = comdat any

$_ZNSt15__new_allocatorISt13_Rb_tree_nodeISt4pairIKPKvNSt7__cxx1112basic_stringIcSt11char_traitsIcESaIcEEEEEED2Ev = comdat any

$_ZNSt10_HashtableINSt7__cxx1112basic_stringIcSt11char_traitsIcESaIcEEES5_SaIS5_ENSt8__detail9_IdentityESt8equal_toIS5_ESt4hashIS5_ENS7_18_Mod_range_hashingENS7_20_Default_ranged_hashENS7_20_Prime_rehash_policyENS7_17_Hashtable_traitsILb1ELb1ELb1EEEED2Ev = comdat any

$_ZNSt10_HashtableINSt7__cxx1112basic_stringIcSt11char_traitsIcESaIcEEES5_SaIS5_ENSt8__detail9_IdentityESt8equal_toIS5_ESt4hashIS5_ENS7_18_Mod_range_hashingENS7_20_Default_ranged_hashENS7_20_Prime_rehash_policyENS7_17_Hashtable_traitsILb1ELb1ELb1EEEE5clearEv = comdat any

$_ZNSt10_HashtableINSt7__cxx1112basic_stringIcSt11char_traitsIcESaIcEEES5_SaIS5_ENSt8__detail9_IdentityESt8equal_toIS5_ESt4hashIS5_ENS7_18_Mod_range_hashingENS7_20_Default_ranged_hashENS7_20_Prime_rehash_policyENS7_17_Hashtable_traitsILb1ELb1ELb1EEEE21_M_deallocate_bucketsEv = comdat any

$_ZNSt8__detail16_Hashtable_allocISaINS_10_Hash_nodeINSt7__cxx1112basic_stringIcSt11char_traitsIcESaIcEEELb1EEEEED2Ev = comdat any

$_ZNSt8__detail16_Hashtable_allocISaINS_10_Hash_nodeINSt7__cxx1112basic_stringIcSt11char_traitsIcESaIcEEELb1EEEEE19_M_deallocate_nodesEPS8_ = comdat any

$_ZNKSt10_HashtableINSt7__cxx1112basic_stringIcSt11char_traitsIcESaIcEEES5_SaIS5_ENSt8__detail9_IdentityESt8equal_toIS5_ESt4hashIS5_ENS7_18_Mod_range_hashingENS7_20_Default_ranged_hashENS7_20_Prime_rehash_policyENS7_17_Hashtable_traitsILb1ELb1ELb1EEEE8_M_beginEv = comdat any

$_ZNKSt8__detail10_Hash_nodeINSt7__cxx1112basic_stringIcSt11char_traitsIcESaIcEEELb1EE7_M_nextEv = comdat any

$_ZNSt8__detail16_Hashtable_allocISaINS_10_Hash_nodeINSt7__cxx1112basic_stringIcSt11char_traitsIcESaIcEEELb1EEEEE18_M_deallocate_nodeEPS8_ = comdat any

$_ZNSt16allocator_traitsISaINSt8__detail10_Hash_nodeINSt7__cxx1112basic_stringIcSt11char_traitsIcESaIcEEELb1EEEEE7destroyIS7_EEvRS9_PT_ = comdat any

$_ZNSt8__detail16_Hashtable_allocISaINS_10_Hash_nodeINSt7__cxx1112basic_stringIcSt11char_traitsIcESaIcEEELb1EEEEE17_M_node_allocatorEv = comdat any

$_ZNSt8__detail21_Hash_node_value_baseINSt7__cxx1112basic_stringIcSt11char_traitsIcESaIcEEEE9_M_valptrEv = comdat any

$_ZNSt8__detail16_Hashtable_allocISaINS_10_Hash_nodeINSt7__cxx1112basic_stringIcSt11char_traitsIcESaIcEEELb1EEEEE22_M_deallocate_node_ptrEPS8_ = comdat any

$_ZNSt15__new_allocatorINSt8__detail10_Hash_nodeINSt7__cxx1112basic_stringIcSt11char_traitsIcESaIcEEELb1EEEE7destroyIS7_EEvPT_ = comdat any

$_ZNSt8__detail21_Hashtable_ebo_helperILi0ESaINS_10_Hash_nodeINSt7__cxx1112basic_stringIcSt11char_traitsIcESaIcEEELb1EEEELb1EE6_M_getEv = comdat any

$_ZN9__gnu_cxx16__aligned_bufferINSt7__cxx1112basic_stringIcSt11char_traitsIcESaIcEEEE6_M_ptrEv = comdat any

$_ZN9__gnu_cxx16__aligned_bufferINSt7__cxx1112basic_stringIcSt11char_traitsIcESaIcEEEE7_M_addrEv = comdat any

$_ZNSt19__ptr_traits_ptr_toIPNSt8__detail10_Hash_nodeINSt7__cxx1112basic_stringIcSt11char_traitsIcESaIcEEELb1EEES8_Lb0EE10pointer_toERS8_ = comdat any

$_ZNSt16allocator_traitsISaINSt8__detail10_Hash_nodeINSt7__cxx1112basic_stringIcSt11char_traitsIcESaIcEEELb1EEEEE10deallocateERS9_PS8_m = comdat any

$_ZNSt15__new_allocatorINSt8__detail10_Hash_nodeINSt7__cxx1112basic_stringIcSt11char_traitsIcESaIcEEELb1EEEE10deallocateEPS8_m = comdat any

$_ZNSt10_HashtableINSt7__cxx1112basic_stringIcSt11char_traitsIcESaIcEEES5_SaIS5_ENSt8__detail9_IdentityESt8equal_toIS5_ESt4hashIS5_ENS7_18_Mod_range_hashingENS7_20_Default_ranged_hashENS7_20_Prime_rehash_policyENS7_17_Hashtable_traitsILb1ELb1ELb1EEEE21_M_deallocate_bucketsEPPNS7_15_Hash_node_baseEm = comdat any

$_ZNKSt10_HashtableINSt7__cxx1112basic_stringIcSt11char_traitsIcESaIcEEES5_SaIS5_ENSt8__detail9_IdentityESt8equal_toIS5_ESt4hashIS5_ENS7_18_Mod_range_hashingENS7_20_Default_ranged_hashENS7_20_Prime_rehash_policyENS7_17_Hashtable_traitsILb1ELb1ELb1EEEE21_M_uses_single_bucketEPPNS7_15_Hash_node_baseE = comdat any

$_ZNSt8__detail16_Hashtable_allocISaINS_10_Hash_nodeINSt7__cxx1112basic_stringIcSt11char_traitsIcESaIcEEELb1EEEEE21_M_deallocate_bucketsEPPNS_15_Hash_node_baseEm = comdat any

$_ZNSt19__ptr_traits_ptr_toIPPNSt8__detail15_Hash_node_baseES2_Lb0EE10pointer_toERS2_ = comdat any

$_ZNSaIPNSt8__detail15_Hash_node_baseEEC2INS_10_Hash_nodeINSt7__cxx1112basic_stringIcSt11char_traitsIcESaIcEEELb1EEEEERKSaIT_E = comdat any

$_ZNSt16allocator_traitsISaIPNSt8__detail15_Hash_node_baseEEE10deallocateERS3_PS2_m = comdat any

$_ZNSaIPNSt8__detail15_Hash_node_baseEED2Ev = comdat any

$_ZNSt15__new_allocatorIPNSt8__detail15_Hash_node_baseEEC2Ev = comdat any

$_ZNSt15__new_allocatorIPNSt8__detail15_Hash_node_baseEE10deallocateEPS2_m = comdat any

$_ZNSt15__new_allocatorIPNSt8__detail15_Hash_node_baseEED2Ev = comdat any

$_ZNSt8__detail21_Hashtable_ebo_helperILi0ESaINS_10_Hash_nodeINSt7__cxx1112basic_stringIcSt11char_traitsIcESaIcEEELb1EEEELb1EED2Ev = comdat any

$_ZNSaINSt8__detail10_Hash_nodeINSt7__cxx1112basic_stringIcSt11char_traitsIcESaIcEEELb1EEEED2Ev = comdat any

$_ZNSt15__new_allocatorINSt8__detail10_Hash_nodeINSt7__cxx1112basic_stringIcSt11char_traitsIcESaIcEEELb1EEEED2Ev = comdat any

$_ZNSt4pairIjNSt7__cxx1112basic_stringIcSt11char_traitsIcESaIcEEEEC2IRjRS5_TnNSt9enable_ifIXaaclsr5_PCCPE22_MoveConstructiblePairIT_T0_EEclsr5_PCCPE30_ImplicitlyMoveConvertiblePairISB_SC_EEEbE4typeELb1EEEOSB_OSC_ = comdat any

$_ZNSt8ios_base4setfESt13_Ios_FmtflagsS0_ = comdat any

$_ZStaNRSt13_Ios_FmtflagsS_ = comdat any

$_ZStcoSt13_Ios_Fmtflags = comdat any

$_ZStoRRSt13_Ios_FmtflagsS_ = comdat any

$_ZStanSt13_Ios_FmtflagsS_ = comdat any

$_ZStorSt13_Ios_FmtflagsS_ = comdat any

$_ZNSt12_Vector_baseIN6Assimp15ColladaExporter8MaterialESaIS2_EEC2Ev = comdat any

$_ZNSt12_Vector_baseIN6Assimp15ColladaExporter8MaterialESaIS2_EE12_Vector_implC2Ev = comdat any

$_ZNSaIN6Assimp15ColladaExporter8MaterialEEC2Ev = comdat any

$_ZNSt12_Vector_baseIN6Assimp15ColladaExporter8MaterialESaIS2_EE17_Vector_impl_dataC2Ev = comdat any

$_ZNSt15__new_allocatorIN6Assimp15ColladaExporter8MaterialEEC2Ev = comdat any

$aiGetMaterialFloat = comdat any

$_ZNSt12_Vector_baseIfSaIfEEC2Ev = comdat any

$_ZNSt12_Vector_baseIfSaIfEE12_Vector_implC2Ev = comdat any

$_ZNSaIfEC2Ev = comdat any

$_ZNSt12_Vector_baseIfSaIfEE17_Vector_impl_dataC2Ev = comdat any

$_ZNSt15__new_allocatorIfEC2Ev = comdat any

$_ZNSt12_Vector_baseIjSaIjEEC2Ev = comdat any

$_ZNSt12_Vector_baseIjSaIjEE12_Vector_implC2Ev = comdat any

$_ZNSt12_Vector_baseIjSaIjEE17_Vector_impl_dataC2Ev = comdat any

$_ZNSt15__new_allocatorIjEC2Ev = comdat any

$_ZStplIcSt11char_traitsIcESaIcEENSt7__cxx1112basic_stringIT_T0_T1_EERKS8_SA_ = comdat any

$_ZN6Assimp10IsUniqueIdERKSt13unordered_setINSt7__cxx1112basic_stringIcSt11char_traitsIcESaIcEEESt4hashIS6_ESt8equal_toIS6_ESaIS6_EERKS6_ = comdat any

$_ZNSt8__detaileqERKNS_19_Node_iterator_baseINSt7__cxx1112basic_stringIcSt11char_traitsIcESaIcEEELb1EEES9_ = comdat any

$_ZNKSt13unordered_setINSt7__cxx1112basic_stringIcSt11char_traitsIcESaIcEEESt4hashIS5_ESt8equal_toIS5_ESaIS5_EE4findERKS5_ = comdat any

$_ZNKSt13unordered_setINSt7__cxx1112basic_stringIcSt11char_traitsIcESaIcEEESt4hashIS5_ESt8equal_toIS5_ESaIS5_EE3endEv = comdat any

$_ZNKSt10_HashtableINSt7__cxx1112basic_stringIcSt11char_traitsIcESaIcEEES5_SaIS5_ENSt8__detail9_IdentityESt8equal_toIS5_ESt4hashIS5_ENS7_18_Mod_range_hashingENS7_20_Default_ranged_hashENS7_20_Prime_rehash_policyENS7_17_Hashtable_traitsILb1ELb1ELb1EEEE4findERKS5_ = comdat any

$_ZNKSt10_HashtableINSt7__cxx1112basic_stringIcSt11char_traitsIcESaIcEEES5_SaIS5_ENSt8__detail9_IdentityESt8equal_toIS5_ESt4hashIS5_ENS7_18_Mod_range_hashingENS7_20_Default_ranged_hashENS7_20_Prime_rehash_policyENS7_17_Hashtable_traitsILb1ELb1ELb1EEEE4sizeEv = comdat any

$_ZNSt10_HashtableINSt7__cxx1112basic_stringIcSt11char_traitsIcESaIcEEES5_SaIS5_ENSt8__detail9_IdentityESt8equal_toIS5_ESt4hashIS5_ENS7_18_Mod_range_hashingENS7_20_Default_ranged_hashENS7_20_Prime_rehash_policyENS7_17_Hashtable_traitsILb1ELb1ELb1EEEE22__small_size_thresholdEv = comdat any

$_ZNKSt10_HashtableINSt7__cxx1112basic_stringIcSt11char_traitsIcESaIcEEES5_SaIS5_ENSt8__detail9_IdentityESt8equal_toIS5_ESt4hashIS5_ENS7_18_Mod_range_hashingENS7_20_Default_ranged_hashENS7_20_Prime_rehash_policyENS7_17_Hashtable_traitsILb1ELb1ELb1EEEE5beginEv = comdat any

$_ZNSt8__detailneERKNS_19_Node_iterator_baseINSt7__cxx1112basic_stringIcSt11char_traitsIcESaIcEEELb1EEES9_ = comdat any

$_ZNKSt10_HashtableINSt7__cxx1112basic_stringIcSt11char_traitsIcESaIcEEES5_SaIS5_ENSt8__detail9_IdentityESt8equal_toIS5_ESt4hashIS5_ENS7_18_Mod_range_hashingENS7_20_Default_ranged_hashENS7_20_Prime_rehash_policyENS7_17_Hashtable_traitsILb1ELb1ELb1EEEE3endEv = comdat any

$_ZNKSt8__detail15_Hashtable_baseINSt7__cxx1112basic_stringIcSt11char_traitsIcESaIcEEES6_NS_9_IdentityESt8equal_toIS6_ESt4hashIS6_ENS_18_Mod_range_hashingENS_20_Default_ranged_hashENS_17_Hashtable_traitsILb1ELb1ELb1EEEE13_M_key_equalsERKS6_RKNS_16_Hash_node_valueIS6_Lb1EEE = comdat any

$_ZNSt8__detail20_Node_const_iteratorINSt7__cxx1112basic_stringIcSt11char_traitsIcESaIcEEELb1ELb1EEppEv = comdat any

$_ZNKSt8__detail15_Hash_code_baseINSt7__cxx1112basic_stringIcSt11char_traitsIcESaIcEEES6_NS_9_IdentityESt4hashIS6_ENS_18_Mod_range_hashingENS_20_Default_ranged_hashELb1EE12_M_hash_codeERKS6_ = comdat any

$_ZNKSt10_HashtableINSt7__cxx1112basic_stringIcSt11char_traitsIcESaIcEEES5_SaIS5_ENSt8__detail9_IdentityESt8equal_toIS5_ESt4hashIS5_ENS7_18_Mod_range_hashingENS7_20_Default_ranged_hashENS7_20_Prime_rehash_policyENS7_17_Hashtable_traitsILb1ELb1ELb1EEEE15_M_bucket_indexEm = comdat any

$_ZNKSt10_HashtableINSt7__cxx1112basic_stringIcSt11char_traitsIcESaIcEEES5_SaIS5_ENSt8__detail9_IdentityESt8equal_toIS5_ESt4hashIS5_ENS7_18_Mod_range_hashingENS7_20_Default_ranged_hashENS7_20_Prime_rehash_policyENS7_17_Hashtable_traitsILb1ELb1ELb1EEEE12_M_find_nodeEmRKS5_m = comdat any

$_ZNSt8__detail20_Node_const_iteratorINSt7__cxx1112basic_stringIcSt11char_traitsIcESaIcEEELb1ELb1EEC2EPNS_10_Hash_nodeIS6_Lb1EEE = comdat any

$_ZNSt8__detail22_Hashtable_hash_traitsISt4hashINSt7__cxx1112basic_stringIcSt11char_traitsIcESaIcEEEEE22__small_size_thresholdEv = comdat any

$_ZNKSt8__detail15_Hashtable_baseINSt7__cxx1112basic_stringIcSt11char_traitsIcESaIcEEES6_NS_9_IdentityESt8equal_toIS6_ESt4hashIS6_ENS_18_Mod_range_hashingENS_20_Default_ranged_hashENS_17_Hashtable_traitsILb1ELb1ELb1EEEE5_M_eqEv = comdat any

$_ZNKSt8equal_toINSt7__cxx1112basic_stringIcSt11char_traitsIcESaIcEEEEclERKS5_S8_ = comdat any

$_ZNKSt8__detail9_IdentityclIRKNSt7__cxx1112basic_stringIcSt11char_traitsIcESaIcEEEEEOT_SB_ = comdat any

$_ZNKSt8__detail21_Hash_node_value_baseINSt7__cxx1112basic_stringIcSt11char_traitsIcESaIcEEEE4_M_vEv = comdat any

$_ZNKSt8__detail21_Hashtable_ebo_helperILi0ESt8equal_toINSt7__cxx1112basic_stringIcSt11char_traitsIcESaIcEEEELb1EE7_M_cgetEv = comdat any

$_ZSteqIcEN9__gnu_cxx11__enable_ifIXsr9__is_charIT_EE7__valueEbE6__typeERKNSt7__cxx1112basic_stringIS2_St11char_traitsIS2_ESaIS2_EEESC_ = comdat any

$_ZNSt11char_traitsIcE7compareEPKcS2_m = comdat any

$_ZNKSt8__detail21_Hash_node_value_baseINSt7__cxx1112basic_stringIcSt11char_traitsIcESaIcEEEE9_M_valptrEv = comdat any

$_ZNK9__gnu_cxx16__aligned_bufferINSt7__cxx1112basic_stringIcSt11char_traitsIcESaIcEEEE6_M_ptrEv = comdat any

$_ZNK9__gnu_cxx16__aligned_bufferINSt7__cxx1112basic_stringIcSt11char_traitsIcESaIcEEEE7_M_addrEv = comdat any

$_ZNSt8__detail19_Node_iterator_baseINSt7__cxx1112basic_stringIcSt11char_traitsIcESaIcEEELb1EE7_M_incrEv = comdat any

$_ZNKSt8__detail15_Hash_code_baseINSt7__cxx1112basic_stringIcSt11char_traitsIcESaIcEEES6_NS_9_IdentityESt4hashIS6_ENS_18_Mod_range_hashingENS_20_Default_ranged_hashELb1EE7_M_hashEv = comdat any

$_ZNKSt4hashINSt7__cxx1112basic_stringIcSt11char_traitsIcESaIcEEEEclERKS5_ = comdat any

$_ZNKSt8__detail21_Hashtable_ebo_helperILi1ESt4hashINSt7__cxx1112basic_stringIcSt11char_traitsIcESaIcEEEELb1EE7_M_cgetEv = comdat any

$_ZNSt10_Hash_impl4hashEPKvmm = comdat any

$_ZNKSt8__detail15_Hash_code_baseINSt7__cxx1112basic_stringIcSt11char_traitsIcESaIcEEES6_NS_9_IdentityESt4hashIS6_ENS_18_Mod_range_hashingENS_20_Default_ranged_hashELb1EE15_M_bucket_indexEmm = comdat any

$_ZNKSt8__detail18_Mod_range_hashingclEmm = comdat any

$_ZNKSt10_HashtableINSt7__cxx1112basic_stringIcSt11char_traitsIcESaIcEEES5_SaIS5_ENSt8__detail9_IdentityESt8equal_toIS5_ESt4hashIS5_ENS7_18_Mod_range_hashingENS7_20_Default_ranged_hashENS7_20_Prime_rehash_policyENS7_17_Hashtable_traitsILb1ELb1ELb1EEEE19_M_find_before_nodeEmRKS5_m = comdat any

$_ZNKSt8__detail15_Hashtable_baseINSt7__cxx1112basic_stringIcSt11char_traitsIcESaIcEEES6_NS_9_IdentityESt8equal_toIS6_ESt4hashIS6_ENS_18_Mod_range_hashingENS_20_Default_ranged_hashENS_17_Hashtable_traitsILb1ELb1ELb1EEEE9_M_equalsERKS6_mRKNS_16_Hash_node_valueIS6_Lb1EEE = comdat any

$_ZNKSt10_HashtableINSt7__cxx1112basic_stringIcSt11char_traitsIcESaIcEEES5_SaIS5_ENSt8__detail9_IdentityESt8equal_toIS5_ESt4hashIS5_ENS7_18_Mod_range_hashingENS7_20_Default_ranged_hashENS7_20_Prime_rehash_policyENS7_17_Hashtable_traitsILb1ELb1ELb1EEEE15_M_bucket_indexERKNS7_16_Hash_node_valueIS5_Lb1EEE = comdat any

$_ZNSt8__detail15_Hashtable_baseINSt7__cxx1112basic_stringIcSt11char_traitsIcESaIcEEES6_NS_9_IdentityESt8equal_toIS6_ESt4hashIS6_ENS_18_Mod_range_hashingENS_20_Default_ranged_hashENS_17_Hashtable_traitsILb1ELb1ELb1EEEE9_S_equalsEmRKNS_21_Hash_node_code_cacheILb1EEE = comdat any

$_ZNKSt8__detail15_Hash_code_baseINSt7__cxx1112basic_stringIcSt11char_traitsIcESaIcEEES6_NS_9_IdentityESt4hashIS6_ENS_18_Mod_range_hashingENS_20_Default_ranged_hashELb1EE15_M_bucket_indexERKNS_16_Hash_node_valueIS6_Lb1EEEm = comdat any

$_ZNSt8__detail19_Node_iterator_baseINSt7__cxx1112basic_stringIcSt11char_traitsIcESaIcEEELb1EEC2EPNS_10_Hash_nodeIS6_Lb1EEE = comdat any

$_ZNSt12_Vector_baseINSt7__cxx1112basic_stringIcSt11char_traitsIcESaIcEEESaIS5_EEC2Ev = comdat any

$_ZNSt12_Vector_baseINSt7__cxx1112basic_stringIcSt11char_traitsIcESaIcEEESaIS5_EE12_Vector_implC2Ev = comdat any

$_ZNSaINSt7__cxx1112basic_stringIcSt11char_traitsIcESaIcEEEEC2Ev = comdat any

$_ZNSt12_Vector_baseINSt7__cxx1112basic_stringIcSt11char_traitsIcESaIcEEESaIS5_EE17_Vector_impl_dataC2Ev = comdat any

$_ZNSt15__new_allocatorINSt7__cxx1112basic_stringIcSt11char_traitsIcESaIcEEEEC2Ev = comdat any

$_ZNSt8_Rb_treeIPK6aiNodeS2_St9_IdentityIS2_ESt4lessIS2_ESaIS2_EEC2Ev = comdat any

$_ZNSt8_Rb_treeIPK6aiNodeS2_St9_IdentityIS2_ESt4lessIS2_ESaIS2_EE13_Rb_tree_implIS6_Lb1EEC2Ev = comdat any

$_ZNSaISt13_Rb_tree_nodeIPK6aiNodeEEC2Ev = comdat any

$_ZNSt20_Rb_tree_key_compareISt4lessIPK6aiNodeEEC2Ev = comdat any

$_ZNSt15__new_allocatorISt13_Rb_tree_nodeIPK6aiNodeEEC2Ev = comdat any

$_ZNSt8_Rb_treeIPK6aiNodeS2_St9_IdentityIS2_ESt4lessIS2_ESaIS2_EED2Ev = comdat any

$_ZNSt8_Rb_treeIPK6aiNodeS2_St9_IdentityIS2_ESt4lessIS2_ESaIS2_EE8_M_eraseEPSt13_Rb_tree_nodeIS2_E = comdat any

$_ZNSt8_Rb_treeIPK6aiNodeS2_St9_IdentityIS2_ESt4lessIS2_ESaIS2_EE8_M_beginEv = comdat any

$_ZNSt8_Rb_treeIPK6aiNodeS2_St9_IdentityIS2_ESt4lessIS2_ESaIS2_EE13_Rb_tree_implIS6_Lb1EED2Ev = comdat any

$_ZNSt8_Rb_treeIPK6aiNodeS2_St9_IdentityIS2_ESt4lessIS2_ESaIS2_EE8_S_rightEPSt18_Rb_tree_node_base = comdat any

$_ZNSt8_Rb_treeIPK6aiNodeS2_St9_IdentityIS2_ESt4lessIS2_ESaIS2_EE7_S_leftEPSt18_Rb_tree_node_base = comdat any

$_ZNSt8_Rb_treeIPK6aiNodeS2_St9_IdentityIS2_ESt4lessIS2_ESaIS2_EE12_M_drop_nodeEPSt13_Rb_tree_nodeIS2_E = comdat any

$_ZNSt8_Rb_treeIPK6aiNodeS2_St9_IdentityIS2_ESt4lessIS2_ESaIS2_EE15_M_destroy_nodeEPSt13_Rb_tree_nodeIS2_E = comdat any

$_ZNSt8_Rb_treeIPK6aiNodeS2_St9_IdentityIS2_ESt4lessIS2_ESaIS2_EE11_M_put_nodeEPSt13_Rb_tree_nodeIS2_E = comdat any

$_ZNSt16allocator_traitsISaISt13_Rb_tree_nodeIPK6aiNodeEEE7destroyIS3_EEvRS5_PT_ = comdat any

$_ZNSt8_Rb_treeIPK6aiNodeS2_St9_IdentityIS2_ESt4lessIS2_ESaIS2_EE21_M_get_Node_allocatorEv = comdat any

$_ZNSt13_Rb_tree_nodeIPK6aiNodeE9_M_valptrEv = comdat any

$_ZNSt15__new_allocatorISt13_Rb_tree_nodeIPK6aiNodeEE7destroyIS3_EEvPT_ = comdat any

$_ZN9__gnu_cxx16__aligned_membufIPK6aiNodeE6_M_ptrEv = comdat any

$_ZN9__gnu_cxx16__aligned_membufIPK6aiNodeE7_M_addrEv = comdat any

$_ZNSt16allocator_traitsISaISt13_Rb_tree_nodeIPK6aiNodeEEE10deallocateERS5_PS4_m = comdat any

$_ZNSt15__new_allocatorISt13_Rb_tree_nodeIPK6aiNodeEE10deallocateEPS4_m = comdat any

$_ZNKSt8_Rb_treeIPK6aiNodeS2_St9_IdentityIS2_ESt4lessIS2_ESaIS2_EE9_M_mbeginEv = comdat any

$_ZNSaISt13_Rb_tree_nodeIPK6aiNodeEED2Ev = comdat any

$_ZNSt15__new_allocatorISt13_Rb_tree_nodeIPK6aiNodeEED2Ev = comdat any

$_ZN10aiVector3tIfE9NormalizeEv = comdat any

$_ZeoIfE10aiVector3tIT_ERKS2_S4_ = comdat any

$_ZmlIfET_RK10aiVector3tIS0_ES4_ = comdat any

$_ZNK10aiVector3tIfE6LengthEv = comdat any

$_ZN10aiVector3tIfEdVEf = comdat any

$_ZSt4sqrtf = comdat any

$_ZNK10aiVector3tIfE12SquareLengthEv = comdat any

$_ZNSt4pairIPK6aiNodeNSt7__cxx1112basic_stringIcSt11char_traitsIcESaIcEEEEC2IRS2_RS8_TnNSt9enable_ifIXaaclsr5_PCCPE22_MoveConstructiblePairIT_T0_EEclsr5_PCCPE30_ImplicitlyMoveConvertiblePairISE_SF_EEEbE4typeELb1EEEOSE_OSF_ = comdat any

$_ZNSt5arrayISt3mapImNSt7__cxx1112basic_stringIcSt11char_traitsIcESaIcEEESt4lessImESaISt4pairIKmS6_EEELm5EEixEm = comdat any

$_ZNSt14__array_traitsISt3mapImNSt7__cxx1112basic_stringIcSt11char_traitsIcESaIcEEESt4lessImESaISt4pairIKmS6_EEELm5EE6_S_refERA5_KSD_m = comdat any

$_ZNSt4pairImNSt7__cxx1112basic_stringIcSt11char_traitsIcESaIcEEEEC2IRmRS5_TnNSt9enable_ifIXaaclsr5_PCCPE22_MoveConstructiblePairIT_T0_EEclsr5_PCCPE30_ImplicitlyMoveConvertiblePairISB_SC_EEEbE4typeELb1EEEOSB_OSC_ = comdat any

$_ZNSt4pairINSt7__cxx1112basic_stringIcSt11char_traitsIcESaIcEEES5_EC2IRS5_S8_TnNSt9enable_ifIXaaclsr5_PCCPE22_MoveConstructiblePairIT_T0_EEclsr5_PCCPE30_ImplicitlyMoveConvertiblePairISA_SB_EEEbE4typeELb1EEEOSA_OSB_ = comdat any

$_ZNSt6vectorINSt7__cxx1112basic_stringIcSt11char_traitsIcESaIcEEESaIS5_EE9push_backERKS5_ = comdat any

$_ZNSt16allocator_traitsISaINSt7__cxx1112basic_stringIcSt11char_traitsIcESaIcEEEEE9constructIS5_JRKS5_EEEvRS6_PT_DpOT0_ = comdat any

$_ZNSt6vectorINSt7__cxx1112basic_stringIcSt11char_traitsIcESaIcEEESaIS5_EE17_M_realloc_insertIJRKS5_EEEvN9__gnu_cxx17__normal_iteratorIPS5_S7_EEDpOT_ = comdat any

$_ZNSt6vectorINSt7__cxx1112basic_stringIcSt11char_traitsIcESaIcEEESaIS5_EE3endEv = comdat any

$_ZNSt15__new_allocatorINSt7__cxx1112basic_stringIcSt11char_traitsIcESaIcEEEE9constructIS5_JRKS5_EEEvPT_DpOT0_ = comdat any

$_ZNKSt6vectorINSt7__cxx1112basic_stringIcSt11char_traitsIcESaIcEEESaIS5_EE12_M_check_lenEmPKc = comdat any

$_ZN9__gnu_cxxmiIPNSt7__cxx1112basic_stringIcSt11char_traitsIcESaIcEEESt6vectorIS6_SaIS6_EEEENS_17__normal_iteratorIT_T0_E15difference_typeERKSE_SH_ = comdat any

$_ZNSt6vectorINSt7__cxx1112basic_stringIcSt11char_traitsIcESaIcEEESaIS5_EE5beginEv = comdat any

$_ZNSt12_Vector_baseINSt7__cxx1112basic_stringIcSt11char_traitsIcESaIcEEESaIS5_EE11_M_allocateEm = comdat any

$_ZNSt6vectorINSt7__cxx1112basic_stringIcSt11char_traitsIcESaIcEEESaIS5_EE11_S_relocateEPS5_S8_S8_RS6_ = comdat any

$_ZNK9__gnu_cxx17__normal_iteratorIPNSt7__cxx1112basic_stringIcSt11char_traitsIcESaIcEEESt6vectorIS6_SaIS6_EEE4baseEv = comdat any

$_ZNSt12_Vector_baseINSt7__cxx1112basic_stringIcSt11char_traitsIcESaIcEEESaIS5_EE19_M_get_Tp_allocatorEv = comdat any

$_ZNSt16allocator_traitsISaINSt7__cxx1112basic_stringIcSt11char_traitsIcESaIcEEEEE7destroyIS5_EEvRS6_PT_ = comdat any

$_ZSt8_DestroyIPNSt7__cxx1112basic_stringIcSt11char_traitsIcESaIcEEES5_EvT_S7_RSaIT0_E = comdat any

$_ZNSt12_Vector_baseINSt7__cxx1112basic_stringIcSt11char_traitsIcESaIcEEESaIS5_EE13_M_deallocateEPS5_m = comdat any

$_ZNKSt6vectorINSt7__cxx1112basic_stringIcSt11char_traitsIcESaIcEEESaIS5_EE8max_sizeEv = comdat any

$_ZSt3maxImERKT_S2_S2_ = comdat any

$_ZNSt6vectorINSt7__cxx1112basic_stringIcSt11char_traitsIcESaIcEEESaIS5_EE11_S_max_sizeERKS6_ = comdat any

$_ZNKSt12_Vector_baseINSt7__cxx1112basic_stringIcSt11char_traitsIcESaIcEEESaIS5_EE19_M_get_Tp_allocatorEv = comdat any

$_ZNSt16allocator_traitsISaINSt7__cxx1112basic_stringIcSt11char_traitsIcESaIcEEEEE8max_sizeERKS6_ = comdat any

$_ZSt3minImERKT_S2_S2_ = comdat any

$_ZNKSt15__new_allocatorINSt7__cxx1112basic_stringIcSt11char_traitsIcESaIcEEEE8max_sizeEv = comdat any

$_ZNKSt15__new_allocatorINSt7__cxx1112basic_stringIcSt11char_traitsIcESaIcEEEE11_M_max_sizeEv = comdat any

$_ZN9__gnu_cxx17__normal_iteratorIPNSt7__cxx1112basic_stringIcSt11char_traitsIcESaIcEEESt6vectorIS6_SaIS6_EEEC2ERKS7_ = comdat any

$_ZNSt16allocator_traitsISaINSt7__cxx1112basic_stringIcSt11char_traitsIcESaIcEEEEE8allocateERS6_m = comdat any

$_ZNSt15__new_allocatorINSt7__cxx1112basic_stringIcSt11char_traitsIcESaIcEEEE8allocateEmPKv = comdat any

$_ZSt12__relocate_aIPNSt7__cxx1112basic_stringIcSt11char_traitsIcESaIcEEES6_SaIS5_EET0_T_S9_S8_RT1_ = comdat any

$_ZSt14__relocate_a_1IPNSt7__cxx1112basic_stringIcSt11char_traitsIcESaIcEEES6_SaIS5_EET0_T_S9_S8_RT1_ = comdat any

$_ZSt12__niter_baseIPNSt7__cxx1112basic_stringIcSt11char_traitsIcESaIcEEEET_S7_ = comdat any

$_ZSt19__relocate_object_aINSt7__cxx1112basic_stringIcSt11char_traitsIcESaIcEEES5_SaIS5_EEvPT_PT0_RT1_ = comdat any

$_ZNSt16allocator_traitsISaINSt7__cxx1112basic_stringIcSt11char_traitsIcESaIcEEEEE9constructIS5_JS5_EEEvRS6_PT_DpOT0_ = comdat any

$_ZNSt15__new_allocatorINSt7__cxx1112basic_stringIcSt11char_traitsIcESaIcEEEE9constructIS5_JS5_EEEvPT_DpOT0_ = comdat any

$_ZNSt15__new_allocatorINSt7__cxx1112basic_stringIcSt11char_traitsIcESaIcEEEE7destroyIS5_EEvPT_ = comdat any

$_ZSt8_DestroyIPNSt7__cxx1112basic_stringIcSt11char_traitsIcESaIcEEEEvT_S7_ = comdat any

$_ZNSt12_Destroy_auxILb0EE9__destroyIPNSt7__cxx1112basic_stringIcSt11char_traitsIcESaIcEEEEEvT_S9_ = comdat any

$_ZSt8_DestroyINSt7__cxx1112basic_stringIcSt11char_traitsIcESaIcEEEEvPT_ = comdat any

$_ZNSt16allocator_traitsISaINSt7__cxx1112basic_stringIcSt11char_traitsIcESaIcEEEEE10deallocateERS6_PS5_m = comdat any

$_ZNSt15__new_allocatorINSt7__cxx1112basic_stringIcSt11char_traitsIcESaIcEEEE10deallocateEPS5_m = comdat any

$_ZNKSt6vectorINSt7__cxx1112basic_stringIcSt11char_traitsIcESaIcEEESaIS5_EE5emptyEv = comdat any

$_ZNSt6vectorINSt7__cxx1112basic_stringIcSt11char_traitsIcESaIcEEESaIS5_EE8pop_backEv = comdat any

$_ZN9__gnu_cxxeqIPKNSt7__cxx1112basic_stringIcSt11char_traitsIcESaIcEEESt6vectorIS6_SaIS6_EEEEbRKNS_17__normal_iteratorIT_T0_EESH_ = comdat any

$_ZNKSt6vectorINSt7__cxx1112basic_stringIcSt11char_traitsIcESaIcEEESaIS5_EE5beginEv = comdat any

$_ZNKSt6vectorINSt7__cxx1112basic_stringIcSt11char_traitsIcESaIcEEESaIS5_EE3endEv = comdat any

$_ZNK9__gnu_cxx17__normal_iteratorIPKNSt7__cxx1112basic_stringIcSt11char_traitsIcESaIcEEESt6vectorIS6_SaIS6_EEE4baseEv = comdat any

$_ZN9__gnu_cxx17__normal_iteratorIPKNSt7__cxx1112basic_stringIcSt11char_traitsIcESaIcEEESt6vectorIS6_SaIS6_EEEC2ERKS8_ = comdat any

$_ZNSt12_Vector_baseINSt7__cxx1112basic_stringIcSt11char_traitsIcESaIcEEESaIS5_EED2Ev = comdat any

$_ZNSt12_Vector_baseINSt7__cxx1112basic_stringIcSt11char_traitsIcESaIcEEESaIS5_EE12_Vector_implD2Ev = comdat any

$_ZNSaINSt7__cxx1112basic_stringIcSt11char_traitsIcESaIcEEEED2Ev = comdat any

$_ZNSt15__new_allocatorINSt7__cxx1112basic_stringIcSt11char_traitsIcESaIcEEEED2Ev = comdat any

$_ZNSt11char_traitsIcE6lengthEPKc = comdat any

$_ZNSt7__cxx1112basic_stringIcSt11char_traitsIcESaIcEE12_M_constructIPKcEEvT_S8_St20forward_iterator_tag = comdat any

$_ZNSt7__cxx1112basic_stringIcSt11char_traitsIcESaIcEE12_Alloc_hiderD2Ev = comdat any

$_ZSt8distanceIPKcENSt15iterator_traitsIT_E15difference_typeES3_S3_ = comdat any

$_ZZNSt7__cxx1112basic_stringIcSt11char_traitsIcESaIcEE12_M_constructIPKcEEvT_S8_St20forward_iterator_tagEN6_GuardC2EPS4_ = comdat any

$_ZZNSt7__cxx1112basic_stringIcSt11char_traitsIcESaIcEE12_M_constructIPKcEEvT_S8_St20forward_iterator_tagEN6_GuardD2Ev = comdat any

$_ZSt10__distanceIPKcENSt15iterator_traitsIT_E15difference_typeES3_S3_St26random_access_iterator_tag = comdat any

$_ZSt19__iterator_categoryIPKcENSt15iterator_traitsIT_E17iterator_categoryERKS3_ = comdat any

$_ZN6Assimp9Formatter15basic_formatterIcSt11char_traitsIcESaIcEEC2Ev = comdat any

$_ZN15DeadlyErrorBaseC2IJENSt7__cxx1112basic_stringIcSt11char_traitsIcESaIcEEEEEN6Assimp9Formatter15basic_formatterIcS4_S5_EEOT0_DpOT_ = comdat any

$_ZN6Assimp9Formatter15basic_formatterIcSt11char_traitsIcESaIcEED2Ev = comdat any

$_ZN17DeadlyExportErrorD0Ev = comdat any

$_ZN6Assimp9Formatter15basic_formatterIcSt11char_traitsIcESaIcEElsINSt7__cxx1112basic_stringIcS3_S4_EETnPNSt9enable_ifIXntsr3std10is_base_ofISt9exceptionT_EE5valueEvE4typeELPv0EEERS5_RKSC_ = comdat any

$_ZN6Assimp9Formatter15basic_formatterIcSt11char_traitsIcESaIcEEC2EOS5_ = comdat any

$_ZNK6Assimp9Formatter15basic_formatterIcSt11char_traitsIcESaIcEEcvNSt7__cxx1112basic_stringIcS3_S4_EEEv = comdat any

$_ZNSt15__uniq_ptr_dataIN6Assimp8IOStreamESt14default_deleteIS1_ELb1ELb1EECI2St15__uniq_ptr_implIS1_S3_EEPS1_ = comdat any

$_ZNSt15__uniq_ptr_implIN6Assimp8IOStreamESt14default_deleteIS1_EEC2EPS1_ = comdat any

$_ZNSt5tupleIJPN6Assimp8IOStreamESt14default_deleteIS1_EEEC2ILb1ETnNSt9enable_ifIXclsr17_TupleConstraintsIXT_ES2_S4_EE37__is_implicitly_default_constructibleEEbE4typeELb1EEEv = comdat any

$_ZNSt15__uniq_ptr_implIN6Assimp8IOStreamESt14default_deleteIS1_EE6_M_ptrEv = comdat any

$_ZNSt11_Tuple_implILm0EJPN6Assimp8IOStreamESt14default_deleteIS1_EEEC2Ev = comdat any

$_ZNSt11_Tuple_implILm1EJSt14default_deleteIN6Assimp8IOStreamEEEEC2Ev = comdat any

$_ZNSt10_Head_baseILm0EPN6Assimp8IOStreamELb0EEC2Ev = comdat any

$_ZNSt10_Head_baseILm1ESt14default_deleteIN6Assimp8IOStreamEELb1EEC2Ev = comdat any

$_ZSt3getILm0EJPN6Assimp8IOStreamESt14default_deleteIS1_EEERNSt13tuple_elementIXT_ESt5tupleIJDpT0_EEE4typeERS9_ = comdat any

$_ZSt12__get_helperILm0EPN6Assimp8IOStreamEJSt14default_deleteIS1_EEERT0_RSt11_Tuple_implIXT_EJS5_DpT1_EE = comdat any

$_ZNSt11_Tuple_implILm0EJPN6Assimp8IOStreamESt14default_deleteIS1_EEE7_M_headERS5_ = comdat any

$_ZNSt10_Head_baseILm0EPN6Assimp8IOStreamELb0EE7_M_headERS3_ = comdat any

$_ZNSt10unique_ptrIN6Assimp8IOStreamESt14default_deleteIS1_EE11get_deleterEv = comdat any

$_ZNKSt14default_deleteIN6Assimp8IOStreamEEclEPS1_ = comdat any

$_ZNSt15__uniq_ptr_implIN6Assimp8IOStreamESt14default_deleteIS1_EE10_M_deleterEv = comdat any

$_ZSt3getILm1EJPN6Assimp8IOStreamESt14default_deleteIS1_EEERNSt13tuple_elementIXT_ESt5tupleIJDpT0_EEE4typeERS9_ = comdat any

$_ZSt12__get_helperILm1ESt14default_deleteIN6Assimp8IOStreamEEJEERT0_RSt11_Tuple_implIXT_EJS4_DpT1_EE = comdat any

$_ZNSt11_Tuple_implILm1EJSt14default_deleteIN6Assimp8IOStreamEEEE7_M_headERS4_ = comdat any

$_ZNSt10_Head_baseILm1ESt14default_deleteIN6Assimp8IOStreamEELb1EE7_M_headERS4_ = comdat any

$_ZNKSt10unique_ptrIN6Assimp8IOStreamESt14default_deleteIS1_EEcvbEv = comdat any

$_ZNK9__gnu_cxx17__normal_iteratorIPKcNSt7__cxx1112basic_stringIcSt11char_traitsIcESaIcEEEE4baseEv = comdat any

$_ZN9__gnu_cxx14__alloc_traitsISaIcEcE17_S_select_on_copyERKS1_ = comdat any

$_ZNSt16allocator_traitsISaIcEE37select_on_container_copy_constructionERKS0_ = comdat any

$_ZNSt14numeric_limitsIfE7epsilonEv = comdat any

$_ZNK12aiMatrix4x4tIfEixEj = comdat any

$_ZNK12aiMatrix4x4tIfE11DeterminantEv = comdat any

$_ZngIfE10aiVector3tIT_ERKS2_ = comdat any

$_ZNK10aiMetadata3GetI8aiStringEEbRKS1_RT_ = comdat any

$_ZN8aiStringC2ERKNSt7__cxx1112basic_stringIcSt11char_traitsIcESaIcEEE = comdat any

$_ZNK10aiMetadata3GetI8aiStringEEbjRT_ = comdat any

$_Z9GetAiTypeRK8aiString = comdat any

$_ZN8aiStringaSERKS_ = comdat any

$_ZNKSt15__uniq_ptr_implIN6Assimp8IOStreamESt14default_deleteIS1_EE6_M_ptrEv = comdat any

$_ZSt3getILm0EJPN6Assimp8IOStreamESt14default_deleteIS1_EEERKNSt13tuple_elementIXT_ESt5tupleIJDpT0_EEE4typeERKS9_ = comdat any

$_ZSt12__get_helperILm0EPN6Assimp8IOStreamEJSt14default_deleteIS1_EEERKT0_RKSt11_Tuple_implIXT_EJS5_DpT1_EE = comdat any

$_ZNSt11_Tuple_implILm0EJPN6Assimp8IOStreamESt14default_deleteIS1_EEE7_M_headERKS5_ = comdat any

$_ZNSt10_Head_baseILm0EPN6Assimp8IOStreamELb0EE7_M_headERKS3_ = comdat any

$_ZNSt3mapIjNSt7__cxx1112basic_stringIcSt11char_traitsIcESaIcEEESt4lessIjESaISt4pairIKjS5_EEE11lower_boundERS9_ = comdat any

$_ZSteqRKSt17_Rb_tree_iteratorISt4pairIKjNSt7__cxx1112basic_stringIcSt11char_traitsIcESaIcEEEEESB_ = comdat any

$_ZNKSt3mapIjNSt7__cxx1112basic_stringIcSt11char_traitsIcESaIcEEESt4lessIjESaISt4pairIKjS5_EEE8key_compEv = comdat any

$_ZNKSt4lessIjEclERKjS2_ = comdat any

$_ZNKSt17_Rb_tree_iteratorISt4pairIKjNSt7__cxx1112basic_stringIcSt11char_traitsIcESaIcEEEEEdeEv = comdat any

$_ZNSt3mapIjNSt7__cxx1112basic_stringIcSt11char_traitsIcESaIcEEESt4lessIjESaISt4pairIKjS5_EEE12emplace_hintIJS8_IjS5_EEEESt17_Rb_tree_iteratorISA_ESt23_Rb_tree_const_iteratorISA_EDpOT_ = comdat any

$_ZNSt4pairISt17_Rb_tree_iteratorIS_IKjNSt7__cxx1112basic_stringIcSt11char_traitsIcESaIcEEEEEbEC2IRS9_bTnNSt9enable_ifIXaaclsr5_PCCPE22_MoveConstructiblePairIT_T0_EEclsr5_PCCPE30_ImplicitlyMoveConvertiblePairISE_SF_EEEbE4typeELb1EEEOSE_OSF_ = comdat any

$_ZNSt8_Rb_treeIjSt4pairIKjNSt7__cxx1112basic_stringIcSt11char_traitsIcESaIcEEEESt10_Select1stIS8_ESt4lessIjESaIS8_EE11lower_boundERS1_ = comdat any

$_ZNSt8_Rb_treeIjSt4pairIKjNSt7__cxx1112basic_stringIcSt11char_traitsIcESaIcEEEESt10_Select1stIS8_ESt4lessIjESaIS8_EE14_M_lower_boundEPSt13_Rb_tree_nodeIS8_EPSt18_Rb_tree_node_baseRS1_ = comdat any

$_ZNSt8_Rb_treeIjSt4pairIKjNSt7__cxx1112basic_stringIcSt11char_traitsIcESaIcEEEESt10_Select1stIS8_ESt4lessIjESaIS8_EE6_M_endEv = comdat any

$_ZNSt8_Rb_treeIjSt4pairIKjNSt7__cxx1112basic_stringIcSt11char_traitsIcESaIcEEEESt10_Select1stIS8_ESt4lessIjESaIS8_EE6_S_keyEPKSt13_Rb_tree_nodeIS8_E = comdat any

$_ZNSt17_Rb_tree_iteratorISt4pairIKjNSt7__cxx1112basic_stringIcSt11char_traitsIcESaIcEEEEEC2EPSt18_Rb_tree_node_base = comdat any

$_ZNKSt10_Select1stISt4pairIKjNSt7__cxx1112basic_stringIcSt11char_traitsIcESaIcEEEEEclERKS8_ = comdat any

$_ZNKSt13_Rb_tree_nodeISt4pairIKjNSt7__cxx1112basic_stringIcSt11char_traitsIcESaIcEEEEE9_M_valptrEv = comdat any

$_ZNK9__gnu_cxx16__aligned_membufISt4pairIKjNSt7__cxx1112basic_stringIcSt11char_traitsIcESaIcEEEEE6_M_ptrEv = comdat any

$_ZNK9__gnu_cxx16__aligned_membufISt4pairIKjNSt7__cxx1112basic_stringIcSt11char_traitsIcESaIcEEEEE7_M_addrEv = comdat any

$_ZNKSt8_Rb_treeIjSt4pairIKjNSt7__cxx1112basic_stringIcSt11char_traitsIcESaIcEEEESt10_Select1stIS8_ESt4lessIjESaIS8_EE8key_compEv = comdat any

$_ZNSt8_Rb_treeIjSt4pairIKjNSt7__cxx1112basic_stringIcSt11char_traitsIcESaIcEEEESt10_Select1stIS8_ESt4lessIjESaIS8_EE22_M_emplace_hint_uniqueIJS0_IjS7_EEEESt17_Rb_tree_iteratorIS8_ESt23_Rb_tree_const_iteratorIS8_EDpOT_ = comdat any

$_ZNSt8_Rb_treeIjSt4pairIKjNSt7__cxx1112basic_stringIcSt11char_traitsIcESaIcEEEESt10_Select1stIS8_ESt4lessIjESaIS8_EE10_Auto_nodeC2IJS0_IjS7_EEEERSE_DpOT_ = comdat any

$_ZNSt8_Rb_treeIjSt4pairIKjNSt7__cxx1112basic_stringIcSt11char_traitsIcESaIcEEEESt10_Select1stIS8_ESt4lessIjESaIS8_EE29_M_get_insert_hint_unique_posESt23_Rb_tree_const_iteratorIS8_ERS1_ = comdat any

$_ZNKSt8_Rb_treeIjSt4pairIKjNSt7__cxx1112basic_stringIcSt11char_traitsIcESaIcEEEESt10_Select1stIS8_ESt4lessIjESaIS8_EE10_Auto_node6_M_keyEv = comdat any

$_ZNSt8_Rb_treeIjSt4pairIKjNSt7__cxx1112basic_stringIcSt11char_traitsIcESaIcEEEESt10_Select1stIS8_ESt4lessIjESaIS8_EE10_Auto_node9_M_insertES0_IPSt18_Rb_tree_node_baseSH_E = comdat any

$_ZNSt8_Rb_treeIjSt4pairIKjNSt7__cxx1112basic_stringIcSt11char_traitsIcESaIcEEEESt10_Select1stIS8_ESt4lessIjESaIS8_EE10_Auto_nodeD2Ev = comdat any

$_ZNSt8_Rb_treeIjSt4pairIKjNSt7__cxx1112basic_stringIcSt11char_traitsIcESaIcEEEESt10_Select1stIS8_ESt4lessIjESaIS8_EE14_M_create_nodeIJS0_IjS7_EEEEPSt13_Rb_tree_nodeIS8_EDpOT_ = comdat any

$_ZNSt8_Rb_treeIjSt4pairIKjNSt7__cxx1112basic_stringIcSt11char_traitsIcESaIcEEEESt10_Select1stIS8_ESt4lessIjESaIS8_EE11_M_get_nodeEv = comdat any

$_ZNSt8_Rb_treeIjSt4pairIKjNSt7__cxx1112basic_stringIcSt11char_traitsIcESaIcEEEESt10_Select1stIS8_ESt4lessIjESaIS8_EE17_M_construct_nodeIJS0_IjS7_EEEEvPSt13_Rb_tree_nodeIS8_EDpOT_ = comdat any

$_ZNSt16allocator_traitsISaISt13_Rb_tree_nodeISt4pairIKjNSt7__cxx1112basic_stringIcSt11char_traitsIcESaIcEEEEEEE8allocateERSB_m = comdat any

$_ZNSt15__new_allocatorISt13_Rb_tree_nodeISt4pairIKjNSt7__cxx1112basic_stringIcSt11char_traitsIcESaIcEEEEEE8allocateEmPKv = comdat any

$_ZNKSt15__new_allocatorISt13_Rb_tree_nodeISt4pairIKjNSt7__cxx1112basic_stringIcSt11char_traitsIcESaIcEEEEEE11_M_max_sizeEv = comdat any

$_ZNSt16allocator_traitsISaISt13_Rb_tree_nodeISt4pairIKjNSt7__cxx1112basic_stringIcSt11char_traitsIcESaIcEEEEEEE9constructIS9_JS1_IjS8_EEEEvRSB_PT_DpOT0_ = comdat any

$_ZNSt15__new_allocatorISt13_Rb_tree_nodeISt4pairIKjNSt7__cxx1112basic_stringIcSt11char_traitsIcESaIcEEEEEE9constructIS9_JS1_IjS8_EEEEvPT_DpOT0_ = comdat any

$_ZNSt4pairIKjNSt7__cxx1112basic_stringIcSt11char_traitsIcESaIcEEEEC2IjS6_TnNSt9enable_ifIXaaclsr6_PCCFPIT_T0_EE22_MoveConstructiblePairISA_SB_EEclsr6_PCCFPISA_SB_EE30_ImplicitlyMoveConvertiblePairISA_SB_EEEbE4typeELb1EEEOS_ISA_SB_E = comdat any

$_ZNKSt23_Rb_tree_const_iteratorISt4pairIKjNSt7__cxx1112basic_stringIcSt11char_traitsIcESaIcEEEEE13_M_const_castEv = comdat any

$_ZNKSt8_Rb_treeIjSt4pairIKjNSt7__cxx1112basic_stringIcSt11char_traitsIcESaIcEEEESt10_Select1stIS8_ESt4lessIjESaIS8_EE4sizeEv = comdat any

$_ZNSt8_Rb_treeIjSt4pairIKjNSt7__cxx1112basic_stringIcSt11char_traitsIcESaIcEEEESt10_Select1stIS8_ESt4lessIjESaIS8_EE6_S_keyEPKSt18_Rb_tree_node_base = comdat any

$_ZNSt8_Rb_treeIjSt4pairIKjNSt7__cxx1112basic_stringIcSt11char_traitsIcESaIcEEEESt10_Select1stIS8_ESt4lessIjESaIS8_EE12_M_rightmostEv = comdat any

$_ZNSt4pairIPSt18_Rb_tree_node_baseS1_EC2IS1_S1_TnNSt9enable_ifIXaaclsr5_PCCPE18_ConstructiblePairIT_T0_EEclsr5_PCCPE26_ImplicitlyConvertiblePairIS5_S6_EEEbE4typeELb1EEERKS1_SA_ = comdat any

$_ZNSt8_Rb_treeIjSt4pairIKjNSt7__cxx1112basic_stringIcSt11char_traitsIcESaIcEEEESt10_Select1stIS8_ESt4lessIjESaIS8_EE24_M_get_insert_unique_posERS1_ = comdat any

$_ZNSt8_Rb_treeIjSt4pairIKjNSt7__cxx1112basic_stringIcSt11char_traitsIcESaIcEEEESt10_Select1stIS8_ESt4lessIjESaIS8_EE11_M_leftmostEv = comdat any

$_ZNSt4pairIPSt18_Rb_tree_node_baseS1_EC2IRS1_S4_TnNSt9enable_ifIXaaclsr5_PCCPE22_MoveConstructiblePairIT_T0_EEclsr5_PCCPE30_ImplicitlyMoveConvertiblePairIS6_S7_EEEbE4typeELb1EEEOS6_OS7_ = comdat any

$_ZNSt17_Rb_tree_iteratorISt4pairIKjNSt7__cxx1112basic_stringIcSt11char_traitsIcESaIcEEEEEmmEv = comdat any

$_ZNSt17_Rb_tree_iteratorISt4pairIKjNSt7__cxx1112basic_stringIcSt11char_traitsIcESaIcEEEEEppEv = comdat any

$_ZNSt8_Rb_treeIjSt4pairIKjNSt7__cxx1112basic_stringIcSt11char_traitsIcESaIcEEEESt10_Select1stIS8_ESt4lessIjESaIS8_EE5beginEv = comdat any

$_ZNSt4pairIPSt18_Rb_tree_node_baseS1_EC2IRPSt13_Rb_tree_nodeIS_IKjNSt7__cxx1112basic_stringIcSt11char_traitsIcESaIcEEEEERS1_TnNSt9enable_ifIXaaclsr5_PCCPE22_MoveConstructiblePairIT_T0_EEclsr5_PCCPE30_ImplicitlyMoveConvertiblePairISI_SJ_EEEbE4typeELb1EEEOSI_OSJ_ = comdat any

$_ZNSt8_Rb_treeIjSt4pairIKjNSt7__cxx1112basic_stringIcSt11char_traitsIcESaIcEEEESt10_Select1stIS8_ESt4lessIjESaIS8_EE14_M_insert_nodeEPSt18_Rb_tree_node_baseSG_PSt13_Rb_tree_nodeIS8_E = comdat any

$_Z18ai_str_toprintableB5cxx11PKcic = comdat any

$_ZN17DeadlyExportErrorC2IJRA13_KcNSt7__cxx1112basic_stringIcSt11char_traitsIcESaIcEEERA36_S1_EEEDpOT_ = comdat any

$_ZN6Assimp6Logger4warnIJRA24_KcRPS2_RA37_S2_EEEvDpOT_ = comdat any

$_Z18ai_str_toprintableRKNSt7__cxx1112basic_stringIcSt11char_traitsIcESaIcEEEc = comdat any

$_ZSt9transformIN9__gnu_cxx17__normal_iteratorIPcNSt7__cxx1112basic_stringIcSt11char_traitsIcESaIcEEEEES9_Z18ai_str_toprintableRKS8_cEUlhE_ET0_T_SE_SD_T1_ = comdat any

$_ZN9__gnu_cxxneIPcNSt7__cxx1112basic_stringIcSt11char_traitsIcESaIcEEEEEbRKNS_17__normal_iteratorIT_T0_EESD_ = comdat any

$_ZZ18ai_str_toprintableRKNSt7__cxx1112basic_stringIcSt11char_traitsIcESaIcEEEcENKUlhE_clEh = comdat any

$_ZNK9__gnu_cxx17__normal_iteratorIPcNSt7__cxx1112basic_stringIcSt11char_traitsIcESaIcEEEEdeEv = comdat any

$_ZN9__gnu_cxx17__normal_iteratorIPcNSt7__cxx1112basic_stringIcSt11char_traitsIcESaIcEEEEppEv = comdat any

$_ZNK9__gnu_cxx17__normal_iteratorIPcNSt7__cxx1112basic_stringIcSt11char_traitsIcESaIcEEEE4baseEv = comdat any

$_ZN15DeadlyErrorBaseC2IJNSt7__cxx1112basic_stringIcSt11char_traitsIcESaIcEEERA36_KcERA13_S7_EEN6Assimp9Formatter15basic_formatterIcS4_S5_EEOT0_DpOT_ = comdat any

$_ZN6Assimp9Formatter15basic_formatterIcSt11char_traitsIcESaIcEElsIA13_cTnPNSt9enable_ifIXntsr3std10is_base_ofISt9exceptionT_EE5valueEvE4typeELPv0EEERS5_RKSA_ = comdat any

$_ZN15DeadlyErrorBaseC2IJRA36_KcENSt7__cxx1112basic_stringIcSt11char_traitsIcESaIcEEEEEN6Assimp9Formatter15basic_formatterIcS7_S8_EEOT0_DpOT_ = comdat any

$_ZN15DeadlyErrorBaseC2IJERA36_KcEEN6Assimp9Formatter15basic_formatterIcSt11char_traitsIcESaIcEEEOT0_DpOT_ = comdat any

$_ZN6Assimp9Formatter15basic_formatterIcSt11char_traitsIcESaIcEElsIA36_cTnPNSt9enable_ifIXntsr3std10is_base_ofISt9exceptionT_EE5valueEvE4typeELPv0EEERS5_RKSA_ = comdat any

$_ZN6Assimp6Logger13formatMessageIJRA37_KcERPS2_EENSt7__cxx1112basic_stringIcSt11char_traitsIcESaIcEEENS_9Formatter15basic_formatterIcSA_SB_EEOT0_DpOT_ = comdat any

$_ZN6Assimp9Formatter15basic_formatterIcSt11char_traitsIcESaIcEEC2IA24_cEERKT_ = comdat any

$_ZN6Assimp6Logger13formatMessageIJERA37_KcEENSt7__cxx1112basic_stringIcSt11char_traitsIcESaIcEEENS_9Formatter15basic_formatterIcS8_S9_EEOT0_DpOT_ = comdat any

$_ZN6Assimp9Formatter15basic_formatterIcSt11char_traitsIcESaIcEElsIPKcTnPNSt9enable_ifIXntsr3std10is_base_ofISt9exceptionT_EE5valueEvE4typeELPv0EEERS5_RKSB_ = comdat any

$_ZN6Assimp6Logger13formatMessageB5cxx11ENS_9Formatter15basic_formatterIcSt11char_traitsIcESaIcEEE = comdat any

$_ZN6Assimp9Formatter15basic_formatterIcSt11char_traitsIcESaIcEElsIA37_cTnPNSt9enable_ifIXntsr3std10is_base_ofISt9exceptionT_EE5valueEvE4typeELPv0EEERS5_RKSA_ = comdat any

$_ZN15DeadlyErrorBaseC2IJEPKcEEN6Assimp9Formatter15basic_formatterIcSt11char_traitsIcESaIcEEEOT0_DpOT_ = comdat any

$_ZNSt8_Rb_treeIjSt4pairIKjNSt7__cxx1112basic_stringIcSt11char_traitsIcESaIcEEEESt10_Select1stIS8_ESt4lessIjESaIS8_EE4findERS1_ = comdat any

$_ZNSt8_Rb_treeIjSt4pairIKjNSt7__cxx1112basic_stringIcSt11char_traitsIcESaIcEEEESt10_Select1stIS8_ESt4lessIjESaIS8_EE3endEv = comdat any

$_ZSt8_DestroyIPN6Assimp15ColladaExporter8MaterialES2_EvT_S4_RSaIT0_E = comdat any

$_ZNSt12_Vector_baseIN6Assimp15ColladaExporter8MaterialESaIS2_EE19_M_get_Tp_allocatorEv = comdat any

$_ZNSt12_Vector_baseIN6Assimp15ColladaExporter8MaterialESaIS2_EED2Ev = comdat any

$_ZSt8_DestroyIPN6Assimp15ColladaExporter8MaterialEEvT_S4_ = comdat any

$_ZNSt12_Destroy_auxILb0EE9__destroyIPN6Assimp15ColladaExporter8MaterialEEEvT_S6_ = comdat any

$_ZSt8_DestroyIN6Assimp15ColladaExporter8MaterialEEvPT_ = comdat any

$_ZN6Assimp15ColladaExporter8MaterialD2Ev = comdat any

$_ZN6Assimp15ColladaExporter7SurfaceD2Ev = comdat any

$_ZNSt12_Vector_baseIN6Assimp15ColladaExporter8MaterialESaIS2_EE13_M_deallocateEPS2_m = comdat any

$_ZNSt12_Vector_baseIN6Assimp15ColladaExporter8MaterialESaIS2_EE12_Vector_implD2Ev = comdat any

$_ZNSt16allocator_traitsISaIN6Assimp15ColladaExporter8MaterialEEE10deallocateERS3_PS2_m = comdat any

$_ZNSt15__new_allocatorIN6Assimp15ColladaExporter8MaterialEE10deallocateEPS2_m = comdat any

$_ZNSaIN6Assimp15ColladaExporter8MaterialEED2Ev = comdat any

$_ZNSt15__new_allocatorIN6Assimp15ColladaExporter8MaterialEED2Ev = comdat any

$_ZNKSt6vectorIN6Assimp15ColladaExporter8MaterialESaIS2_EE4sizeEv = comdat any

$_ZNSt6vectorIN6Assimp15ColladaExporter8MaterialESaIS2_EE17_M_default_appendEm = comdat any

$_ZNSt6vectorIN6Assimp15ColladaExporter8MaterialESaIS2_EE15_M_erase_at_endEPS2_ = comdat any

$_ZNKSt6vectorIN6Assimp15ColladaExporter8MaterialESaIS2_EE8max_sizeEv = comdat any

$_ZSt27__uninitialized_default_n_aIPN6Assimp15ColladaExporter8MaterialEmS2_ET_S4_T0_RSaIT1_E = comdat any

$_ZNKSt6vectorIN6Assimp15ColladaExporter8MaterialESaIS2_EE12_M_check_lenEmPKc = comdat any

$_ZNSt12_Vector_baseIN6Assimp15ColladaExporter8MaterialESaIS2_EE11_M_allocateEm = comdat any

$_ZNSt6vectorIN6Assimp15ColladaExporter8MaterialESaIS2_EE11_S_relocateEPS2_S5_S5_RS3_ = comdat any

$_ZNSt6vectorIN6Assimp15ColladaExporter8MaterialESaIS2_EE11_S_max_sizeERKS3_ = comdat any

$_ZNKSt12_Vector_baseIN6Assimp15ColladaExporter8MaterialESaIS2_EE19_M_get_Tp_allocatorEv = comdat any

$_ZNSt16allocator_traitsISaIN6Assimp15ColladaExporter8MaterialEEE8max_sizeERKS3_ = comdat any

$_ZNKSt15__new_allocatorIN6Assimp15ColladaExporter8MaterialEE8max_sizeEv = comdat any

$_ZNKSt15__new_allocatorIN6Assimp15ColladaExporter8MaterialEE11_M_max_sizeEv = comdat any

$_ZSt25__uninitialized_default_nIPN6Assimp15ColladaExporter8MaterialEmET_S4_T0_ = comdat any

$_ZNSt27__uninitialized_default_n_1ILb0EE18__uninit_default_nIPN6Assimp15ColladaExporter8MaterialEmEET_S6_T0_ = comdat any

$_ZSt10_ConstructIN6Assimp15ColladaExporter8MaterialEJEEvPT_DpOT0_ = comdat any

$_ZN6Assimp15ColladaExporter8MaterialC2Ev = comdat any

$_ZN6Assimp15ColladaExporter7SurfaceC2Ev = comdat any

$_ZN6Assimp15ColladaExporter8PropertyC2Ev = comdat any

$_ZN9aiColor4tIfEC2Ev = comdat any

$_ZNSt16allocator_traitsISaIN6Assimp15ColladaExporter8MaterialEEE8allocateERS3_m = comdat any

$_ZNSt15__new_allocatorIN6Assimp15ColladaExporter8MaterialEE8allocateEmPKv = comdat any

$_ZSt12__relocate_aIPN6Assimp15ColladaExporter8MaterialES3_SaIS2_EET0_T_S6_S5_RT1_ = comdat any

$_ZSt14__relocate_a_1IPN6Assimp15ColladaExporter8MaterialES3_SaIS2_EET0_T_S6_S5_RT1_ = comdat any

$_ZSt12__niter_baseIPN6Assimp15ColladaExporter8MaterialEET_S4_ = comdat any

$_ZSt19__relocate_object_aIN6Assimp15ColladaExporter8MaterialES2_SaIS2_EEvPT_PT0_RT1_ = comdat any

$_ZNSt16allocator_traitsISaIN6Assimp15ColladaExporter8MaterialEEE9constructIS2_JS2_EEEvRS3_PT_DpOT0_ = comdat any

$_ZNSt16allocator_traitsISaIN6Assimp15ColladaExporter8MaterialEEE7destroyIS2_EEvRS3_PT_ = comdat any

$_ZNSt15__new_allocatorIN6Assimp15ColladaExporter8MaterialEE9constructIS2_JS2_EEEvPT_DpOT0_ = comdat any

$_ZN6Assimp15ColladaExporter8MaterialC2EOS1_ = comdat any

$_ZN6Assimp15ColladaExporter7SurfaceC2EOS1_ = comdat any

$_ZNSt15__new_allocatorIN6Assimp15ColladaExporter8MaterialEE7destroyIS2_EEvPT_ = comdat any

$_ZN9__gnu_cxx17__normal_iteratorIPN6Assimp15ColladaExporter8MaterialESt6vectorIS3_SaIS3_EEEC2ERKS4_ = comdat any

$_ZNK9__gnu_cxx17__normal_iteratorIPN6Assimp15ColladaExporter8MaterialESt6vectorIS3_SaIS3_EEE4baseEv = comdat any

$_ZN9__gnu_cxxeqIPKN6Assimp15ColladaExporter8MaterialESt6vectorIS3_SaIS3_EEEEbRKNS_17__normal_iteratorIT_T0_EESE_ = comdat any

$_ZNKSt6vectorIN6Assimp15ColladaExporter8MaterialESaIS2_EE5beginEv = comdat any

$_ZNKSt6vectorIN6Assimp15ColladaExporter8MaterialESaIS2_EE3endEv = comdat any

$_ZNK9__gnu_cxx17__normal_iteratorIPKN6Assimp15ColladaExporter8MaterialESt6vectorIS3_SaIS3_EEE4baseEv = comdat any

$_ZN9__gnu_cxx17__normal_iteratorIPKN6Assimp15ColladaExporter8MaterialESt6vectorIS3_SaIS3_EEEC2ERKS5_ = comdat any

$_ZSt8_DestroyIPffEvT_S1_RSaIT0_E = comdat any

$_ZNSt12_Vector_baseIfSaIfEE19_M_get_Tp_allocatorEv = comdat any

$_ZNSt12_Vector_baseIfSaIfEED2Ev = comdat any

$_ZSt8_DestroyIPfEvT_S1_ = comdat any

$_ZNSt12_Destroy_auxILb1EE9__destroyIPfEEvT_S3_ = comdat any

$_ZNSt12_Vector_baseIfSaIfEE13_M_deallocateEPfm = comdat any

$_ZNSt12_Vector_baseIfSaIfEE12_Vector_implD2Ev = comdat any

$_ZNSt16allocator_traitsISaIfEE10deallocateERS0_Pfm = comdat any

$_ZNSt15__new_allocatorIfE10deallocateEPfm = comdat any

$_ZNSaIfED2Ev = comdat any

$_ZNSt15__new_allocatorIfED2Ev = comdat any

$_ZNKSt6vectorIfSaIfEE8max_sizeEv = comdat any

$_ZNKSt6vectorIfSaIfEE8capacityEv = comdat any

$_ZNSt12_Vector_baseIfSaIfEE11_M_allocateEm = comdat any

$_ZNSt6vectorIfSaIfEE11_S_relocateEPfS2_S2_RS0_ = comdat any

$_ZNSt6vectorIfSaIfEE11_S_max_sizeERKS0_ = comdat any

$_ZNKSt12_Vector_baseIfSaIfEE19_M_get_Tp_allocatorEv = comdat any

$_ZNSt16allocator_traitsISaIfEE8max_sizeERKS0_ = comdat any

$_ZNKSt15__new_allocatorIfE8max_sizeEv = comdat any

$_ZNKSt15__new_allocatorIfE11_M_max_sizeEv = comdat any

$_ZNSt16allocator_traitsISaIfEE8allocateERS0_m = comdat any

$_ZNSt15__new_allocatorIfE8allocateEmPKv = comdat any

$_ZSt12__relocate_aIPfS0_SaIfEET0_T_S3_S2_RT1_ = comdat any

$_ZSt14__relocate_a_1IffENSt9enable_ifIXsr3std24__is_bitwise_relocatableIT_EE5valueEPS1_E4typeES2_S2_S2_RSaIT0_E = comdat any

$_ZSt12__niter_baseIPfET_S1_ = comdat any

$_ZN9__gnu_cxx17__normal_iteratorIPfSt6vectorIfSaIfEEEC2ERKS1_ = comdat any

$_ZN9__gnu_cxxmiIPKfSt6vectorIfSaIfEEEENS_17__normal_iteratorIT_T0_E15difference_typeERKS9_SC_ = comdat any

$_ZNKSt6vectorIfSaIfEE6cbeginEv = comdat any

$_ZNSt6vectorIfSaIfEE18_M_insert_dispatchIPfEEvN9__gnu_cxx17__normal_iteratorIS3_S1_EET_S7_St12__false_type = comdat any

$_ZNSt6vectorIfSaIfEE5beginEv = comdat any

$_ZNK9__gnu_cxx17__normal_iteratorIPfSt6vectorIfSaIfEEEplEl = comdat any

$_ZNK9__gnu_cxx17__normal_iteratorIPKfSt6vectorIfSaIfEEE4baseEv = comdat any

$_ZN9__gnu_cxx17__normal_iteratorIPKfSt6vectorIfSaIfEEEC2ERKS2_ = comdat any

$_ZNSt6vectorIfSaIfEE15_M_range_insertIPfEEvN9__gnu_cxx17__normal_iteratorIS3_S1_EET_S7_St20forward_iterator_tag = comdat any

$_ZSt19__iterator_categoryIPfENSt15iterator_traitsIT_E17iterator_categoryERKS2_ = comdat any

$_ZSt8distanceIPfENSt15iterator_traitsIT_E15difference_typeES2_S2_ = comdat any

$_ZN9__gnu_cxxmiIPfSt6vectorIfSaIfEEEENS_17__normal_iteratorIT_T0_E15difference_typeERKS8_SB_ = comdat any

$_ZSt22__uninitialized_move_aIPfS0_SaIfEET0_T_S3_S2_RT1_ = comdat any

$_ZSt13move_backwardIPfS0_ET0_T_S2_S1_ = comdat any

$_ZNK9__gnu_cxx17__normal_iteratorIPfSt6vectorIfSaIfEEE4baseEv = comdat any

$_ZSt4copyIPfN9__gnu_cxx17__normal_iteratorIS0_St6vectorIfSaIfEEEEET0_T_S8_S7_ = comdat any

$_ZSt7advanceIPfmEvRT_T0_ = comdat any

$_ZSt22__uninitialized_copy_aIPfS0_fET0_T_S2_S1_RSaIT1_E = comdat any

$_ZNKSt6vectorIfSaIfEE12_M_check_lenEmPKc = comdat any

$_ZSt34__uninitialized_move_if_noexcept_aIPfS0_SaIfEET0_T_S3_S2_RT1_ = comdat any

$_ZSt10__distanceIPfENSt15iterator_traitsIT_E15difference_typeES2_S2_St26random_access_iterator_tag = comdat any

$_ZSt22__uninitialized_copy_aISt13move_iteratorIPfES1_fET0_T_S4_S3_RSaIT1_E = comdat any

$_ZSt18make_move_iteratorIPfESt13move_iteratorIT_ES2_ = comdat any

$_ZSt18uninitialized_copyISt13move_iteratorIPfES1_ET0_T_S4_S3_ = comdat any

$_ZNSt20__uninitialized_copyILb1EE13__uninit_copyISt13move_iteratorIPfES3_EET0_T_S6_S5_ = comdat any

$_ZSt4copyISt13move_iteratorIPfES1_ET0_T_S4_S3_ = comdat any

$_ZSt13__copy_move_aILb1EPfS0_ET1_T0_S2_S1_ = comdat any

$_ZSt12__miter_baseIPfEDTcl12__miter_basecldtfp_4baseEEESt13move_iteratorIT_E = comdat any

$_ZSt12__niter_wrapIPfET_RKS1_S1_ = comdat any

$_ZSt14__copy_move_a1ILb1EPfS0_ET1_T0_S2_S1_ = comdat any

$_ZSt14__copy_move_a2ILb1EPfS0_ET1_T0_S2_S1_ = comdat any

$_ZNSt11__copy_moveILb1ELb1ESt26random_access_iterator_tagE8__copy_mIfEEPT_PKS3_S6_S4_ = comdat any

$_ZSt12__miter_baseIPfET_S1_ = comdat any

$_ZNKSt13move_iteratorIPfE4baseEv = comdat any

$_ZNSt13move_iteratorIPfEC2ES0_ = comdat any

$_ZSt22__copy_move_backward_aILb1EPfS0_ET1_T0_S2_S1_ = comdat any

$_ZSt23__copy_move_backward_a1ILb1EPfS0_ET1_T0_S2_S1_ = comdat any

$_ZSt23__copy_move_backward_a2ILb1EPfS0_ET1_T0_S2_S1_ = comdat any

$_ZNSt20__copy_move_backwardILb1ELb1ESt26random_access_iterator_tagE13__copy_move_bIfEEPT_PKS3_S6_S4_ = comdat any

$_ZSt13__copy_move_aILb0EPfN9__gnu_cxx17__normal_iteratorIS0_St6vectorIfSaIfEEEEET1_T0_S8_S7_ = comdat any

$_ZSt12__niter_wrapIN9__gnu_cxx17__normal_iteratorIPfSt6vectorIfSaIfEEEES2_ET_S7_T0_ = comdat any

$_ZSt14__copy_move_a1ILb0EPfS0_ET1_T0_S2_S1_ = comdat any

$_ZSt12__niter_baseIPfSt6vectorIfSaIfEEET_N9__gnu_cxx17__normal_iteratorIS4_T0_EE = comdat any

$_ZSt14__copy_move_a2ILb0EPfS0_ET1_T0_S2_S1_ = comdat any

$_ZNSt11__copy_moveILb0ELb1ESt26random_access_iterator_tagE8__copy_mIfEEPT_PKS3_S6_S4_ = comdat any

$_ZSt9__advanceIPflEvRT_T0_St26random_access_iterator_tag = comdat any

$_ZSt18uninitialized_copyIPfS0_ET0_T_S2_S1_ = comdat any

$_ZNSt20__uninitialized_copyILb1EE13__uninit_copyIPfS2_EET0_T_S4_S3_ = comdat any

$_ZSt4copyIPfS0_ET0_T_S2_S1_ = comdat any

$_ZSt13__copy_move_aILb0EPfS0_ET1_T0_S2_S1_ = comdat any

$_ZSt32__make_move_if_noexcept_iteratorIfSt13move_iteratorIPfEET0_PT_ = comdat any

$_ZNKSt6vectorIfSaIfEE11_M_data_ptrIfEEPT_S4_ = comdat any

$_ZNSt6vectorIfSaIfEE15_M_erase_at_endEPf = comdat any

$_ZNSt16allocator_traitsISaIfEE9constructIfJRKfEEEvRS0_PT_DpOT0_ = comdat any

$_ZNSt6vectorIfSaIfEE17_M_realloc_insertIJRKfEEEvN9__gnu_cxx17__normal_iteratorIPfS1_EEDpOT_ = comdat any

$_ZNSt15__new_allocatorIfE9constructIfJRKfEEEvPT_DpOT0_ = comdat any

$_ZNSt15__new_allocatorIjED2Ev = comdat any

$_ZNSt6vectorIjSaIjEE17_S_check_init_lenEmRKS0_ = comdat any

$_ZNSt12_Vector_baseIjSaIjEEC2EmRKS0_ = comdat any

$_ZNSt6vectorIjSaIjEE18_M_fill_initializeEmRKj = comdat any

$_ZNSt12_Vector_baseIjSaIjEED2Ev = comdat any

$_ZNSt6vectorIjSaIjEE11_S_max_sizeERKS0_ = comdat any

$_ZNSaIjEC2ERKS_ = comdat any

$_ZNSt16allocator_traitsISaIjEE8max_sizeERKS0_ = comdat any

$_ZNKSt15__new_allocatorIjE8max_sizeEv = comdat any

$_ZNKSt15__new_allocatorIjE11_M_max_sizeEv = comdat any

$_ZNSt15__new_allocatorIjEC2ERKS0_ = comdat any

$_ZNSt12_Vector_baseIjSaIjEE12_Vector_implC2ERKS0_ = comdat any

$_ZNSt12_Vector_baseIjSaIjEE17_M_create_storageEm = comdat any

$_ZNSt12_Vector_baseIjSaIjEE12_Vector_implD2Ev = comdat any

$_ZNSt12_Vector_baseIjSaIjEE11_M_allocateEm = comdat any

$_ZNSt16allocator_traitsISaIjEE8allocateERS0_m = comdat any

$_ZNSt15__new_allocatorIjE8allocateEmPKv = comdat any

$_ZSt24__uninitialized_fill_n_aIPjmjjET_S1_T0_RKT1_RSaIT2_E = comdat any

$_ZNSt12_Vector_baseIjSaIjEE19_M_get_Tp_allocatorEv = comdat any

$_ZSt20uninitialized_fill_nIPjmjET_S1_T0_RKT1_ = comdat any

$_ZNSt22__uninitialized_fill_nILb1EE15__uninit_fill_nIPjmjEET_S3_T0_RKT1_ = comdat any

$_ZSt6fill_nIPjmjET_S1_T0_RKT1_ = comdat any

$_ZSt10__fill_n_aIPjmjET_S1_T0_RKT1_St26random_access_iterator_tag = comdat any

$_ZSt17__size_to_integerm = comdat any

$_ZSt19__iterator_categoryIPjENSt15iterator_traitsIT_E17iterator_categoryERKS2_ = comdat any

$_ZSt8__fill_aIPjjEvT_S1_RKT0_ = comdat any

$_ZSt9__fill_a1IPjjEN9__gnu_cxx11__enable_ifIXsr11__is_scalarIT0_EE7__valueEvE6__typeET_S6_RKS3_ = comdat any

$_ZNSt12_Vector_baseIjSaIjEE13_M_deallocateEPjm = comdat any

$_ZNSt16allocator_traitsISaIjEE10deallocateERS0_Pjm = comdat any

$_ZNSt15__new_allocatorIjE10deallocateEPjm = comdat any

$_ZSt8_DestroyIPjjEvT_S1_RSaIT0_E = comdat any

$_ZSt8_DestroyIPjEvT_S1_ = comdat any

$_ZNSt12_Destroy_auxILb1EE9__destroyIPjEEvT_S3_ = comdat any

$_ZNKSt6vectorIjSaIjEE8max_sizeEv = comdat any

$_ZNKSt6vectorIjSaIjEE8capacityEv = comdat any

$_ZNSt6vectorIjSaIjEE11_S_relocateEPjS2_S2_RS0_ = comdat any

$_ZNKSt12_Vector_baseIjSaIjEE19_M_get_Tp_allocatorEv = comdat any

$_ZSt12__relocate_aIPjS0_SaIjEET0_T_S3_S2_RT1_ = comdat any

$_ZSt14__relocate_a_1IjjENSt9enable_ifIXsr3std24__is_bitwise_relocatableIT_EE5valueEPS1_E4typeES2_S2_S2_RSaIT0_E = comdat any

$_ZSt12__niter_baseIPjET_S1_ = comdat any

$_ZNSt16allocator_traitsISaIjEE9constructIjJRKjEEEvRS0_PT_DpOT0_ = comdat any

$_ZNSt6vectorIjSaIjEE17_M_realloc_insertIJRKjEEEvN9__gnu_cxx17__normal_iteratorIPjS1_EEDpOT_ = comdat any

$_ZNSt6vectorIjSaIjEE3endEv = comdat any

$_ZNSt15__new_allocatorIjE9constructIjJRKjEEEvPT_DpOT0_ = comdat any

$_ZNKSt6vectorIjSaIjEE12_M_check_lenEmPKc = comdat any

$_ZN9__gnu_cxxmiIPjSt6vectorIjSaIjEEEENS_17__normal_iteratorIT_T0_E15difference_typeERKS8_SB_ = comdat any

$_ZNSt6vectorIjSaIjEE5beginEv = comdat any

$_ZNK9__gnu_cxx17__normal_iteratorIPjSt6vectorIjSaIjEEE4baseEv = comdat any

$_ZN9__gnu_cxx17__normal_iteratorIPjSt6vectorIjSaIjEEEC2ERKS1_ = comdat any

$_ZNSt15__new_allocatorIiEC2Ev = comdat any

$_ZNSt15__new_allocatorIiED2Ev = comdat any

$_ZNSt6vectorIiSaIiEE17_S_check_init_lenEmRKS0_ = comdat any

$_ZNSt12_Vector_baseIiSaIiEEC2EmRKS0_ = comdat any

$_ZNSt6vectorIiSaIiEE18_M_fill_initializeEmRKi = comdat any

$_ZNSt12_Vector_baseIiSaIiEED2Ev = comdat any

$_ZNSt6vectorIiSaIiEE11_S_max_sizeERKS0_ = comdat any

$_ZNSaIiEC2ERKS_ = comdat any

$_ZNSt16allocator_traitsISaIiEE8max_sizeERKS0_ = comdat any

$_ZNKSt15__new_allocatorIiE8max_sizeEv = comdat any

$_ZNKSt15__new_allocatorIiE11_M_max_sizeEv = comdat any

$_ZNSt15__new_allocatorIiEC2ERKS0_ = comdat any

$_ZNSt12_Vector_baseIiSaIiEE12_Vector_implC2ERKS0_ = comdat any

$_ZNSt12_Vector_baseIiSaIiEE17_M_create_storageEm = comdat any

$_ZNSt12_Vector_baseIiSaIiEE12_Vector_implD2Ev = comdat any

$_ZNSt12_Vector_baseIiSaIiEE17_Vector_impl_dataC2Ev = comdat any

$_ZNSt12_Vector_baseIiSaIiEE11_M_allocateEm = comdat any

$_ZNSt16allocator_traitsISaIiEE8allocateERS0_m = comdat any

$_ZNSt15__new_allocatorIiE8allocateEmPKv = comdat any

$_ZSt24__uninitialized_fill_n_aIPimiiET_S1_T0_RKT1_RSaIT2_E = comdat any

$_ZNSt12_Vector_baseIiSaIiEE19_M_get_Tp_allocatorEv = comdat any

$_ZSt20uninitialized_fill_nIPimiET_S1_T0_RKT1_ = comdat any

$_ZNSt22__uninitialized_fill_nILb1EE15__uninit_fill_nIPimiEET_S3_T0_RKT1_ = comdat any

$_ZSt6fill_nIPimiET_S1_T0_RKT1_ = comdat any

$_ZSt10__fill_n_aIPimiET_S1_T0_RKT1_St26random_access_iterator_tag = comdat any

$_ZSt19__iterator_categoryIPiENSt15iterator_traitsIT_E17iterator_categoryERKS2_ = comdat any

$_ZSt8__fill_aIPiiEvT_S1_RKT0_ = comdat any

$_ZSt9__fill_a1IPiiEN9__gnu_cxx11__enable_ifIXsr11__is_scalarIT0_EE7__valueEvE6__typeET_S6_RKS3_ = comdat any

$_ZNSt12_Vector_baseIiSaIiEE13_M_deallocateEPim = comdat any

$_ZNSt16allocator_traitsISaIiEE10deallocateERS0_Pim = comdat any

$_ZNSt15__new_allocatorIiE10deallocateEPim = comdat any

$_ZSt8_DestroyIPiiEvT_S1_RSaIT0_E = comdat any

$_ZSt8_DestroyIPiEvT_S1_ = comdat any

$_ZNSt12_Destroy_auxILb1EE9__destroyIPiEEvT_S3_ = comdat any

$_ZNSt6vectorIjSaIjEE15_M_erase_at_endEPj = comdat any

$_ZNSt6vectorIiSaIiEE15_M_erase_at_endEPi = comdat any

$_ZNSt8__detail12_Insert_baseINSt7__cxx1112basic_stringIcSt11char_traitsIcESaIcEEES6_SaIS6_ENS_9_IdentityESt8equal_toIS6_ESt4hashIS6_ENS_18_Mod_range_hashingENS_20_Default_ranged_hashENS_20_Prime_rehash_policyENS_17_Hashtable_traitsILb1ELb1ELb1EEEE6insertERKS6_ = comdat any

$_ZNSt8__detail12_Insert_baseINSt7__cxx1112basic_stringIcSt11char_traitsIcESaIcEEES6_SaIS6_ENS_9_IdentityESt8equal_toIS6_ESt4hashIS6_ENS_18_Mod_range_hashingENS_20_Default_ranged_hashENS_20_Prime_rehash_policyENS_17_Hashtable_traitsILb1ELb1ELb1EEEE20_M_conjure_hashtableEv = comdat any

$_ZNSt8__detail10_AllocNodeISaINS_10_Hash_nodeINSt7__cxx1112basic_stringIcSt11char_traitsIcESaIcEEELb1EEEEEC2ERNS_16_Hashtable_allocIS9_EE = comdat any

$_ZNSt10_HashtableINSt7__cxx1112basic_stringIcSt11char_traitsIcESaIcEEES5_SaIS5_ENSt8__detail9_IdentityESt8equal_toIS5_ESt4hashIS5_ENS7_18_Mod_range_hashingENS7_20_Default_ranged_hashENS7_20_Prime_rehash_policyENS7_17_Hashtable_traitsILb1ELb1ELb1EEEE9_M_insertIRKS5_NS7_10_AllocNodeISaINS7_10_Hash_nodeIS5_Lb1EEEEEEEESt4pairINS7_14_Node_iteratorIS5_Lb1ELb1EEEbEOT_RKT0_St17integral_constantIbLb1EE = comdat any

$_ZNSt10_HashtableINSt7__cxx1112basic_stringIcSt11char_traitsIcESaIcEEES5_SaIS5_ENSt8__detail9_IdentityESt8equal_toIS5_ESt4hashIS5_ENS7_18_Mod_range_hashingENS7_20_Default_ranged_hashENS7_20_Prime_rehash_policyENS7_17_Hashtable_traitsILb1ELb1ELb1EEEE16_M_insert_uniqueIRKS5_SL_NS7_10_AllocNodeISaINS7_10_Hash_nodeIS5_Lb1EEEEEEEESt4pairINS7_14_Node_iteratorIS5_Lb1ELb1EEEbEOT_OT0_RKT1_ = comdat any

$_ZNSt10_HashtableINSt7__cxx1112basic_stringIcSt11char_traitsIcESaIcEEES5_SaIS5_ENSt8__detail9_IdentityESt8equal_toIS5_ESt4hashIS5_ENS7_18_Mod_range_hashingENS7_20_Default_ranged_hashENS7_20_Prime_rehash_policyENS7_17_Hashtable_traitsILb1ELb1ELb1EEEE14_S_forward_keyERKS5_ = comdat any

$_ZNSt10_HashtableINSt7__cxx1112basic_stringIcSt11char_traitsIcESaIcEEES5_SaIS5_ENSt8__detail9_IdentityESt8equal_toIS5_ESt4hashIS5_ENS7_18_Mod_range_hashingENS7_20_Default_ranged_hashENS7_20_Prime_rehash_policyENS7_17_Hashtable_traitsILb1ELb1ELb1EEEE5beginEv = comdat any

$_ZNSt10_HashtableINSt7__cxx1112basic_stringIcSt11char_traitsIcESaIcEEES5_SaIS5_ENSt8__detail9_IdentityESt8equal_toIS5_ESt4hashIS5_ENS7_18_Mod_range_hashingENS7_20_Default_ranged_hashENS7_20_Prime_rehash_policyENS7_17_Hashtable_traitsILb1ELb1ELb1EEEE3endEv = comdat any

$_ZNKSt8__detail15_Hashtable_baseINSt7__cxx1112basic_stringIcSt11char_traitsIcESaIcEEES6_NS_9_IdentityESt8equal_toIS6_ESt4hashIS6_ENS_18_Mod_range_hashingENS_20_Default_ranged_hashENS_17_Hashtable_traitsILb1ELb1ELb1EEEE16_M_key_equals_trIS6_EEbRKT_RKNS_16_Hash_node_valueIS6_Lb1EEE = comdat any

$_ZNSt4pairINSt8__detail14_Node_iteratorINSt7__cxx1112basic_stringIcSt11char_traitsIcESaIcEEELb1ELb1EEEbEC2IRS8_bTnNSt9enable_ifIXaaclsr5_PCCPE22_MoveConstructiblePairIT_T0_EEclsr5_PCCPE30_ImplicitlyMoveConvertiblePairISD_SE_EEEbE4typeELb1EEEOSD_OSE_ = comdat any

$_ZNSt8__detail14_Node_iteratorINSt7__cxx1112basic_stringIcSt11char_traitsIcESaIcEEELb1ELb1EEppEv = comdat any

$_ZNKSt8__detail15_Hash_code_baseINSt7__cxx1112basic_stringIcSt11char_traitsIcESaIcEEES6_NS_9_IdentityESt4hashIS6_ENS_18_Mod_range_hashingENS_20_Default_ranged_hashELb1EE15_M_hash_code_trIS6_EEmRKT_ = comdat any

$_ZNKSt10_HashtableINSt7__cxx1112basic_stringIcSt11char_traitsIcESaIcEEES5_SaIS5_ENSt8__detail9_IdentityESt8equal_toIS5_ESt4hashIS5_ENS7_18_Mod_range_hashingENS7_20_Default_ranged_hashENS7_20_Prime_rehash_policyENS7_17_Hashtable_traitsILb1ELb1ELb1EEEE15_M_find_node_trIS5_EEPNS7_10_Hash_nodeIS5_Lb1EEEmRKT_m = comdat any

$_ZNSt8__detail14_Node_iteratorINSt7__cxx1112basic_stringIcSt11char_traitsIcESaIcEEELb1ELb1EEC2EPNS_10_Hash_nodeIS6_Lb1EEE = comdat any

$_ZNSt4pairINSt8__detail14_Node_iteratorINSt7__cxx1112basic_stringIcSt11char_traitsIcESaIcEEELb1ELb1EEEbEC2IS8_bTnNSt9enable_ifIXaaclsr5_PCCPE22_MoveConstructiblePairIT_T0_EEclsr5_PCCPE30_ImplicitlyMoveConvertiblePairISC_SD_EEEbE4typeELb1EEEOSC_OSD_ = comdat any

$_ZNSt8__detail12_NodeBuilderINS_9_IdentityEE8_S_buildIRKNSt7__cxx1112basic_stringIcSt11char_traitsIcESaIcEEESB_NS_10_AllocNodeISaINS_10_Hash_nodeIS9_Lb1EEEEEEEEPNT1_11__node_typeEOT_OT0_RKSH_ = comdat any

$_ZNSt10_HashtableINSt7__cxx1112basic_stringIcSt11char_traitsIcESaIcEEES5_SaIS5_ENSt8__detail9_IdentityESt8equal_toIS5_ESt4hashIS5_ENS7_18_Mod_range_hashingENS7_20_Default_ranged_hashENS7_20_Prime_rehash_policyENS7_17_Hashtable_traitsILb1ELb1ELb1EEEE12_Scoped_nodeC2EPNS7_10_Hash_nodeIS5_Lb1EEEPNS7_16_Hashtable_allocISaISL_EEE = comdat any

$_ZNSt10_HashtableINSt7__cxx1112basic_stringIcSt11char_traitsIcESaIcEEES5_SaIS5_ENSt8__detail9_IdentityESt8equal_toIS5_ESt4hashIS5_ENS7_18_Mod_range_hashingENS7_20_Default_ranged_hashENS7_20_Prime_rehash_policyENS7_17_Hashtable_traitsILb1ELb1ELb1EEEE21_M_insert_unique_nodeEmmPNS7_10_Hash_nodeIS5_Lb1EEEm = comdat any

$_ZNSt10_HashtableINSt7__cxx1112basic_stringIcSt11char_traitsIcESaIcEEES5_SaIS5_ENSt8__detail9_IdentityESt8equal_toIS5_ESt4hashIS5_ENS7_18_Mod_range_hashingENS7_20_Default_ranged_hashENS7_20_Prime_rehash_policyENS7_17_Hashtable_traitsILb1ELb1ELb1EEEE12_Scoped_nodeD2Ev = comdat any

$_ZNKSt10_HashtableINSt7__cxx1112basic_stringIcSt11char_traitsIcESaIcEEES5_SaIS5_ENSt8__detail9_IdentityESt8equal_toIS5_ESt4hashIS5_ENS7_18_Mod_range_hashingENS7_20_Default_ranged_hashENS7_20_Prime_rehash_policyENS7_17_Hashtable_traitsILb1ELb1ELb1EEEE22_M_find_before_node_trIS5_EEPNS7_15_Hash_node_baseEmRKT_m = comdat any

$_ZNKSt8__detail15_Hashtable_baseINSt7__cxx1112basic_stringIcSt11char_traitsIcESaIcEEES6_NS_9_IdentityESt8equal_toIS6_ESt4hashIS6_ENS_18_Mod_range_hashingENS_20_Default_ranged_hashENS_17_Hashtable_traitsILb1ELb1ELb1EEEE12_M_equals_trIS6_EEbRKT_mRKNS_16_Hash_node_valueIS6_Lb1EEE = comdat any

$_ZNKSt8__detail10_AllocNodeISaINS_10_Hash_nodeINSt7__cxx1112basic_stringIcSt11char_traitsIcESaIcEEELb1EEEEEclIJRKS7_EEEPS8_DpOT_ = comdat any

$_ZNSt8__detail16_Hashtable_allocISaINS_10_Hash_nodeINSt7__cxx1112basic_stringIcSt11char_traitsIcESaIcEEELb1EEEEE16_M_allocate_nodeIJRKS7_EEEPS8_DpOT_ = comdat any

$_ZNSt16allocator_traitsISaINSt8__detail10_Hash_nodeINSt7__cxx1112basic_stringIcSt11char_traitsIcESaIcEEELb1EEEEE8allocateERS9_m = comdat any

$_ZSt12__to_addressINSt8__detail10_Hash_nodeINSt7__cxx1112basic_stringIcSt11char_traitsIcESaIcEEELb1EEEEPT_SA_ = comdat any

$_ZNSt8__detail10_Hash_nodeINSt7__cxx1112basic_stringIcSt11char_traitsIcESaIcEEELb1EEC2Ev = comdat any

$_ZNSt16allocator_traitsISaINSt8__detail10_Hash_nodeINSt7__cxx1112basic_stringIcSt11char_traitsIcESaIcEEELb1EEEEE9constructIS7_JRKS7_EEEvRS9_PT_DpOT0_ = comdat any

$_ZNSt15__new_allocatorINSt8__detail10_Hash_nodeINSt7__cxx1112basic_stringIcSt11char_traitsIcESaIcEEELb1EEEE8allocateEmPKv = comdat any

$_ZNKSt15__new_allocatorINSt8__detail10_Hash_nodeINSt7__cxx1112basic_stringIcSt11char_traitsIcESaIcEEELb1EEEE11_M_max_sizeEv = comdat any

$_ZNSt15__new_allocatorINSt8__detail10_Hash_nodeINSt7__cxx1112basic_stringIcSt11char_traitsIcESaIcEEELb1EEEE9constructIS7_JRKS7_EEEvPT_DpOT0_ = comdat any

$_ZNKSt8__detail20_Prime_rehash_policy8_M_stateEv = comdat any

$_ZNSt10_HashtableINSt7__cxx1112basic_stringIcSt11char_traitsIcESaIcEEES5_SaIS5_ENSt8__detail9_IdentityESt8equal_toIS5_ESt4hashIS5_ENS7_18_Mod_range_hashingENS7_20_Default_ranged_hashENS7_20_Prime_rehash_policyENS7_17_Hashtable_traitsILb1ELb1ELb1EEEE9_M_rehashEmRKm = comdat any

$_ZNKSt8__detail15_Hash_code_baseINSt7__cxx1112basic_stringIcSt11char_traitsIcESaIcEEES6_NS_9_IdentityESt4hashIS6_ENS_18_Mod_range_hashingENS_20_Default_ranged_hashELb1EE13_M_store_codeERNS_21_Hash_node_code_cacheILb1EEEm = comdat any

$_ZNSt10_HashtableINSt7__cxx1112basic_stringIcSt11char_traitsIcESaIcEEES5_SaIS5_ENSt8__detail9_IdentityESt8equal_toIS5_ESt4hashIS5_ENS7_18_Mod_range_hashingENS7_20_Default_ranged_hashENS7_20_Prime_rehash_policyENS7_17_Hashtable_traitsILb1ELb1ELb1EEEE22_M_insert_bucket_beginEmPNS7_10_Hash_nodeIS5_Lb1EEE = comdat any

$_ZNSt10_HashtableINSt7__cxx1112basic_stringIcSt11char_traitsIcESaIcEEES5_SaIS5_ENSt8__detail9_IdentityESt8equal_toIS5_ESt4hashIS5_ENS7_18_Mod_range_hashingENS7_20_Default_ranged_hashENS7_20_Prime_rehash_policyENS7_17_Hashtable_traitsILb1ELb1ELb1EEEE13_M_rehash_auxEmSt17integral_constantIbLb1EE = comdat any

$_ZNSt8__detail20_Prime_rehash_policy8_M_resetEm = comdat any

$_ZNSt10_HashtableINSt7__cxx1112basic_stringIcSt11char_traitsIcESaIcEEES5_SaIS5_ENSt8__detail9_IdentityESt8equal_toIS5_ESt4hashIS5_ENS7_18_Mod_range_hashingENS7_20_Default_ranged_hashENS7_20_Prime_rehash_policyENS7_17_Hashtable_traitsILb1ELb1ELb1EEEE19_M_allocate_bucketsEm = comdat any

$_ZNSt8__detail16_Hashtable_allocISaINS_10_Hash_nodeINSt7__cxx1112basic_stringIcSt11char_traitsIcESaIcEEELb1EEEEE19_M_allocate_bucketsEm = comdat any

$_ZNSt16allocator_traitsISaIPNSt8__detail15_Hash_node_baseEEE8allocateERS3_m = comdat any

$_ZSt12__to_addressIPNSt8__detail15_Hash_node_baseEEPT_S4_ = comdat any

$_ZNSt15__new_allocatorIPNSt8__detail15_Hash_node_baseEE8allocateEmPKv = comdat any

$_ZNKSt15__new_allocatorIPNSt8__detail15_Hash_node_baseEE11_M_max_sizeEv = comdat any

$_ZNSt6vectorIfSaIfEE12emplace_backIJfEEERfDpOT_ = comdat any

$_ZNSt16allocator_traitsISaIfEE9constructIfJfEEEvRS0_PT_DpOT0_ = comdat any

$_ZNSt6vectorIfSaIfEE17_M_realloc_insertIJfEEEvN9__gnu_cxx17__normal_iteratorIPfS1_EEDpOT_ = comdat any

$_ZNSt6vectorIfSaIfEE4backEv = comdat any

$_ZNSt15__new_allocatorIfE9constructIfJfEEEvPT_DpOT0_ = comdat any

$_ZNK9__gnu_cxx17__normal_iteratorIPfSt6vectorIfSaIfEEEmiEl = comdat any

$_ZNK9__gnu_cxx17__normal_iteratorIPfSt6vectorIfSaIfEEEdeEv = comdat any

$_ZN12aiMatrix3x3tIfEC2Ev = comdat any

$_ZNSt16allocator_traitsISaINSt7__cxx1112basic_stringIcSt11char_traitsIcESaIcEEEEE9constructIS5_JRA7_KcEEEvRS6_PT_DpOT0_ = comdat any

$_ZNSt6vectorINSt7__cxx1112basic_stringIcSt11char_traitsIcESaIcEEESaIS5_EE17_M_realloc_insertIJRA7_KcEEEvN9__gnu_cxx17__normal_iteratorIPS5_S7_EEDpOT_ = comdat any

$_ZNSt6vectorINSt7__cxx1112basic_stringIcSt11char_traitsIcESaIcEEESaIS5_EE4backEv = comdat any

$_ZNSt15__new_allocatorINSt7__cxx1112basic_stringIcSt11char_traitsIcESaIcEEEE9constructIS5_JRA7_KcEEEvPT_DpOT0_ = comdat any

$_ZNK9__gnu_cxx17__normal_iteratorIPNSt7__cxx1112basic_stringIcSt11char_traitsIcESaIcEEESt6vectorIS6_SaIS6_EEEmiEl = comdat any

$_ZNK9__gnu_cxx17__normal_iteratorIPNSt7__cxx1112basic_stringIcSt11char_traitsIcESaIcEEESt6vectorIS6_SaIS6_EEEdeEv = comdat any

$_ZNSt16allocator_traitsISaINSt7__cxx1112basic_stringIcSt11char_traitsIcESaIcEEEEE9constructIS5_JRA5_KcEEEvRS6_PT_DpOT0_ = comdat any

$_ZNSt6vectorINSt7__cxx1112basic_stringIcSt11char_traitsIcESaIcEEESaIS5_EE17_M_realloc_insertIJRA5_KcEEEvN9__gnu_cxx17__normal_iteratorIPS5_S7_EEDpOT_ = comdat any

$_ZNSt15__new_allocatorINSt7__cxx1112basic_stringIcSt11char_traitsIcESaIcEEEE9constructIS5_JRA5_KcEEEvPT_DpOT0_ = comdat any

$_ZNSt8_Rb_treeIPK6aiNodeS2_St9_IdentityIS2_ESt4lessIS2_ESaIS2_EE16_M_insert_uniqueIRKS2_EESt4pairISt17_Rb_tree_iteratorIS2_EbEOT_ = comdat any

$_ZNSt4pairISt23_Rb_tree_const_iteratorIPK6aiNodeEbEC2IRSt17_Rb_tree_iteratorIS3_ERbTnNSt9enable_ifIXaaclsr5_PCCPE22_MoveConstructiblePairIT_T0_EEclsr5_PCCPE30_ImplicitlyMoveConvertiblePairISC_SD_EEEbE4typeELb1EEEOSC_OSD_ = comdat any

$_ZNSt8_Rb_treeIPK6aiNodeS2_St9_IdentityIS2_ESt4lessIS2_ESaIS2_EE24_M_get_insert_unique_posERKS2_ = comdat any

$_ZNKSt9_IdentityIPK6aiNodeEclERKS2_ = comdat any

$_ZNSt8_Rb_treeIPK6aiNodeS2_St9_IdentityIS2_ESt4lessIS2_ESaIS2_EE11_Alloc_nodeC2ERS8_ = comdat any

$_ZNSt8_Rb_treeIPK6aiNodeS2_St9_IdentityIS2_ESt4lessIS2_ESaIS2_EE10_M_insert_IRKS2_NS8_11_Alloc_nodeEEESt17_Rb_tree_iteratorIS2_EPSt18_Rb_tree_node_baseSG_OT_RT0_ = comdat any

$_ZNSt4pairISt17_Rb_tree_iteratorIPK6aiNodeEbEC2IS4_bTnNSt9enable_ifIXaaclsr5_PCCPE22_MoveConstructiblePairIT_T0_EEclsr5_PCCPE30_ImplicitlyMoveConvertiblePairIS8_S9_EEEbE4typeELb1EEEOS8_OS9_ = comdat any

$_ZNSt17_Rb_tree_iteratorIPK6aiNodeEC2EPSt18_Rb_tree_node_base = comdat any

$_ZNSt8_Rb_treeIPK6aiNodeS2_St9_IdentityIS2_ESt4lessIS2_ESaIS2_EE6_M_endEv = comdat any

$_ZNKSt4lessIPK6aiNodeEclES2_S2_ = comdat any

$_ZNSt8_Rb_treeIPK6aiNodeS2_St9_IdentityIS2_ESt4lessIS2_ESaIS2_EE6_S_keyEPKSt13_Rb_tree_nodeIS2_E = comdat any

$_ZSteqRKSt17_Rb_tree_iteratorIPK6aiNodeES5_ = comdat any

$_ZNSt8_Rb_treeIPK6aiNodeS2_St9_IdentityIS2_ESt4lessIS2_ESaIS2_EE5beginEv = comdat any

$_ZNSt4pairIPSt18_Rb_tree_node_baseS1_EC2IRPSt13_Rb_tree_nodeIPK6aiNodeERS1_TnNSt9enable_ifIXaaclsr5_PCCPE22_MoveConstructiblePairIT_T0_EEclsr5_PCCPE30_ImplicitlyMoveConvertiblePairISD_SE_EEEbE4typeELb1EEEOSD_OSE_ = comdat any

$_ZNSt17_Rb_tree_iteratorIPK6aiNodeEmmEv = comdat any

$_ZNSt8_Rb_treeIPK6aiNodeS2_St9_IdentityIS2_ESt4lessIS2_ESaIS2_EE6_S_keyEPKSt18_Rb_tree_node_base = comdat any

$_ZNKSt13_Rb_tree_nodeIPK6aiNodeE9_M_valptrEv = comdat any

$_ZNK9__gnu_cxx16__aligned_membufIPK6aiNodeE6_M_ptrEv = comdat any

$_ZNK9__gnu_cxx16__aligned_membufIPK6aiNodeE7_M_addrEv = comdat any

$_ZNKSt8_Rb_treeIPK6aiNodeS2_St9_IdentityIS2_ESt4lessIS2_ESaIS2_EE11_Alloc_nodeclIRKS2_EEPSt13_Rb_tree_nodeIS2_EOT_ = comdat any

$_ZNSt8_Rb_treeIPK6aiNodeS2_St9_IdentityIS2_ESt4lessIS2_ESaIS2_EE14_M_create_nodeIJRKS2_EEEPSt13_Rb_tree_nodeIS2_EDpOT_ = comdat any

$_ZNSt8_Rb_treeIPK6aiNodeS2_St9_IdentityIS2_ESt4lessIS2_ESaIS2_EE11_M_get_nodeEv = comdat any

$_ZNSt8_Rb_treeIPK6aiNodeS2_St9_IdentityIS2_ESt4lessIS2_ESaIS2_EE17_M_construct_nodeIJRKS2_EEEvPSt13_Rb_tree_nodeIS2_EDpOT_ = comdat any

$_ZNSt16allocator_traitsISaISt13_Rb_tree_nodeIPK6aiNodeEEE8allocateERS5_m = comdat any

$_ZNSt15__new_allocatorISt13_Rb_tree_nodeIPK6aiNodeEE8allocateEmPKv = comdat any

$_ZNKSt15__new_allocatorISt13_Rb_tree_nodeIPK6aiNodeEE11_M_max_sizeEv = comdat any

$_ZNSt16allocator_traitsISaISt13_Rb_tree_nodeIPK6aiNodeEEE9constructIS3_JRKS3_EEEvRS5_PT_DpOT0_ = comdat any

$_ZNSt15__new_allocatorISt13_Rb_tree_nodeIPK6aiNodeEE9constructIS3_JRKS3_EEEvPT_DpOT0_ = comdat any

$_ZNSt23_Rb_tree_const_iteratorIPK6aiNodeEC2ERKSt17_Rb_tree_iteratorIS2_E = comdat any

$_ZNKSt8_Rb_treeIPK6aiNodeS2_St9_IdentityIS2_ESt4lessIS2_ESaIS2_EE5emptyEv = comdat any

$_ZNKSt8_Rb_treeIPK6aiNodeS2_St9_IdentityIS2_ESt4lessIS2_ESaIS2_EE5beginEv = comdat any

$_ZNSt23_Rb_tree_const_iteratorIPK6aiNodeEC2EPKSt18_Rb_tree_node_base = comdat any

$_ZNKSt8_Rb_treeIPK6aiNodeS2_St9_IdentityIS2_ESt4lessIS2_ESaIS2_EE4sizeEv = comdat any

$_ZNKSt8_Rb_treeIPK6aiNodeS2_St9_IdentityIS2_ESt4lessIS2_ESaIS2_EE3endEv = comdat any

$_ZNSt8_Rb_treeIPKvSt4pairIKS1_NSt7__cxx1112basic_stringIcSt11char_traitsIcESaIcEEEESt10_Select1stISA_ESt4lessIS1_ESaISA_EE4findERS3_ = comdat any

$_ZNSt8_Rb_treeIPKvSt4pairIKS1_NSt7__cxx1112basic_stringIcSt11char_traitsIcESaIcEEEESt10_Select1stISA_ESt4lessIS1_ESaISA_EE14_M_lower_boundEPSt13_Rb_tree_nodeISA_EPSt18_Rb_tree_node_baseRS3_ = comdat any

$_ZNSt8_Rb_treeIPKvSt4pairIKS1_NSt7__cxx1112basic_stringIcSt11char_traitsIcESaIcEEEESt10_Select1stISA_ESt4lessIS1_ESaISA_EE6_M_endEv = comdat any

$_ZSteqRKSt17_Rb_tree_iteratorISt4pairIKPKvNSt7__cxx1112basic_stringIcSt11char_traitsIcESaIcEEEEESD_ = comdat any

$_ZNSt8_Rb_treeIPKvSt4pairIKS1_NSt7__cxx1112basic_stringIcSt11char_traitsIcESaIcEEEESt10_Select1stISA_ESt4lessIS1_ESaISA_EE3endEv = comdat any

$_ZNKSt4lessIPKvEclES1_S1_ = comdat any

$_ZNSt8_Rb_treeIPKvSt4pairIKS1_NSt7__cxx1112basic_stringIcSt11char_traitsIcESaIcEEEESt10_Select1stISA_ESt4lessIS1_ESaISA_EE6_S_keyEPKSt18_Rb_tree_node_base = comdat any

$_ZNSt8_Rb_treeIPKvSt4pairIKS1_NSt7__cxx1112basic_stringIcSt11char_traitsIcESaIcEEEESt10_Select1stISA_ESt4lessIS1_ESaISA_EE6_S_keyEPKSt13_Rb_tree_nodeISA_E = comdat any

$_ZNSt17_Rb_tree_iteratorISt4pairIKPKvNSt7__cxx1112basic_stringIcSt11char_traitsIcESaIcEEEEEC2EPSt18_Rb_tree_node_base = comdat any

$_ZNKSt10_Select1stISt4pairIKPKvNSt7__cxx1112basic_stringIcSt11char_traitsIcESaIcEEEEEclERKSA_ = comdat any

$_ZNKSt13_Rb_tree_nodeISt4pairIKPKvNSt7__cxx1112basic_stringIcSt11char_traitsIcESaIcEEEEE9_M_valptrEv = comdat any

$_ZNK9__gnu_cxx16__aligned_membufISt4pairIKPKvNSt7__cxx1112basic_stringIcSt11char_traitsIcESaIcEEEEE6_M_ptrEv = comdat any

$_ZNK9__gnu_cxx16__aligned_membufISt4pairIKPKvNSt7__cxx1112basic_stringIcSt11char_traitsIcESaIcEEEEE7_M_addrEv = comdat any

$_ZNKSt8_Rb_treeIPKvSt4pairIKS1_NSt7__cxx1112basic_stringIcSt11char_traitsIcESaIcEEEESt10_Select1stISA_ESt4lessIS1_ESaISA_EE3endEv = comdat any

$_ZNSt23_Rb_tree_const_iteratorISt4pairIKPKvNSt7__cxx1112basic_stringIcSt11char_traitsIcESaIcEEEEEC2EPKSt18_Rb_tree_node_base = comdat any

$_ZNSt3mapIPKvNSt7__cxx1112basic_stringIcSt11char_traitsIcESaIcEEESt4lessIS1_ESaISt4pairIKS1_S7_EEE11lower_boundERSB_ = comdat any

$_ZNSt3mapIPKvNSt7__cxx1112basic_stringIcSt11char_traitsIcESaIcEEESt4lessIS1_ESaISt4pairIKS1_S7_EEE3endEv = comdat any

$_ZNKSt3mapIPKvNSt7__cxx1112basic_stringIcSt11char_traitsIcESaIcEEESt4lessIS1_ESaISt4pairIKS1_S7_EEE8key_compEv = comdat any

$_ZNKSt17_Rb_tree_iteratorISt4pairIKPKvNSt7__cxx1112basic_stringIcSt11char_traitsIcESaIcEEEEEdeEv = comdat any

$_ZNSt3mapIPKvNSt7__cxx1112basic_stringIcSt11char_traitsIcESaIcEEESt4lessIS1_ESaISt4pairIKS1_S7_EEE12emplace_hintIJSA_IPK6aiNodeS7_EEEESt17_Rb_tree_iteratorISC_ESt23_Rb_tree_const_iteratorISC_EDpOT_ = comdat any

$_ZNSt4pairISt17_Rb_tree_iteratorIS_IKPKvNSt7__cxx1112basic_stringIcSt11char_traitsIcESaIcEEEEEbEC2IRSB_bTnNSt9enable_ifIXaaclsr5_PCCPE22_MoveConstructiblePairIT_T0_EEclsr5_PCCPE30_ImplicitlyMoveConvertiblePairISG_SH_EEEbE4typeELb1EEEOSG_OSH_ = comdat any

$_ZNSt8_Rb_treeIPKvSt4pairIKS1_NSt7__cxx1112basic_stringIcSt11char_traitsIcESaIcEEEESt10_Select1stISA_ESt4lessIS1_ESaISA_EE11lower_boundERS3_ = comdat any

$_ZNKSt8_Rb_treeIPKvSt4pairIKS1_NSt7__cxx1112basic_stringIcSt11char_traitsIcESaIcEEEESt10_Select1stISA_ESt4lessIS1_ESaISA_EE8key_compEv = comdat any

$_ZNSt8_Rb_treeIPKvSt4pairIKS1_NSt7__cxx1112basic_stringIcSt11char_traitsIcESaIcEEEESt10_Select1stISA_ESt4lessIS1_ESaISA_EE22_M_emplace_hint_uniqueIJS2_IPK6aiNodeS9_EEEESt17_Rb_tree_iteratorISA_ESt23_Rb_tree_const_iteratorISA_EDpOT_ = comdat any

$_ZNSt8_Rb_treeIPKvSt4pairIKS1_NSt7__cxx1112basic_stringIcSt11char_traitsIcESaIcEEEESt10_Select1stISA_ESt4lessIS1_ESaISA_EE10_Auto_nodeC2IJS2_IPK6aiNodeS9_EEEERSG_DpOT_ = comdat any

$_ZNSt8_Rb_treeIPKvSt4pairIKS1_NSt7__cxx1112basic_stringIcSt11char_traitsIcESaIcEEEESt10_Select1stISA_ESt4lessIS1_ESaISA_EE29_M_get_insert_hint_unique_posESt23_Rb_tree_const_iteratorISA_ERS3_ = comdat any

$_ZNKSt8_Rb_treeIPKvSt4pairIKS1_NSt7__cxx1112basic_stringIcSt11char_traitsIcESaIcEEEESt10_Select1stISA_ESt4lessIS1_ESaISA_EE10_Auto_node6_M_keyEv = comdat any

$_ZNSt8_Rb_treeIPKvSt4pairIKS1_NSt7__cxx1112basic_stringIcSt11char_traitsIcESaIcEEEESt10_Select1stISA_ESt4lessIS1_ESaISA_EE10_Auto_node9_M_insertES2_IPSt18_Rb_tree_node_baseSJ_E = comdat any

$_ZNSt8_Rb_treeIPKvSt4pairIKS1_NSt7__cxx1112basic_stringIcSt11char_traitsIcESaIcEEEESt10_Select1stISA_ESt4lessIS1_ESaISA_EE10_Auto_nodeD2Ev = comdat any

$_ZNSt8_Rb_treeIPKvSt4pairIKS1_NSt7__cxx1112basic_stringIcSt11char_traitsIcESaIcEEEESt10_Select1stISA_ESt4lessIS1_ESaISA_EE14_M_create_nodeIJS2_IPK6aiNodeS9_EEEEPSt13_Rb_tree_nodeISA_EDpOT_ = comdat any

$_ZNSt8_Rb_treeIPKvSt4pairIKS1_NSt7__cxx1112basic_stringIcSt11char_traitsIcESaIcEEEESt10_Select1stISA_ESt4lessIS1_ESaISA_EE11_M_get_nodeEv = comdat any

$_ZNSt8_Rb_treeIPKvSt4pairIKS1_NSt7__cxx1112basic_stringIcSt11char_traitsIcESaIcEEEESt10_Select1stISA_ESt4lessIS1_ESaISA_EE17_M_construct_nodeIJS2_IPK6aiNodeS9_EEEEvPSt13_Rb_tree_nodeISA_EDpOT_ = comdat any

$_ZNSt16allocator_traitsISaISt13_Rb_tree_nodeISt4pairIKPKvNSt7__cxx1112basic_stringIcSt11char_traitsIcESaIcEEEEEEE8allocateERSD_m = comdat any

$_ZNSt15__new_allocatorISt13_Rb_tree_nodeISt4pairIKPKvNSt7__cxx1112basic_stringIcSt11char_traitsIcESaIcEEEEEE8allocateEmS3_ = comdat any

$_ZNKSt15__new_allocatorISt13_Rb_tree_nodeISt4pairIKPKvNSt7__cxx1112basic_stringIcSt11char_traitsIcESaIcEEEEEE11_M_max_sizeEv = comdat any

$_ZNSt16allocator_traitsISaISt13_Rb_tree_nodeISt4pairIKPKvNSt7__cxx1112basic_stringIcSt11char_traitsIcESaIcEEEEEEE9constructISB_JS1_IPK6aiNodeSA_EEEEvRSD_PT_DpOT0_ = comdat any

$_ZNSt15__new_allocatorISt13_Rb_tree_nodeISt4pairIKPKvNSt7__cxx1112basic_stringIcSt11char_traitsIcESaIcEEEEEE9constructISB_JS1_IPK6aiNodeSA_EEEEvPT_DpOT0_ = comdat any

$_ZNSt4pairIKPKvNSt7__cxx1112basic_stringIcSt11char_traitsIcESaIcEEEEC2IPK6aiNodeS8_TnNSt9enable_ifIXaaclsr6_PCCFPIT_T0_EE22_MoveConstructiblePairISF_SG_EEclsr6_PCCFPISF_SG_EE30_ImplicitlyMoveConvertiblePairISF_SG_EEEbE4typeELb1EEEOS_ISF_SG_E = comdat any

$_ZNKSt23_Rb_tree_const_iteratorISt4pairIKPKvNSt7__cxx1112basic_stringIcSt11char_traitsIcESaIcEEEEE13_M_const_castEv = comdat any

$_ZNKSt8_Rb_treeIPKvSt4pairIKS1_NSt7__cxx1112basic_stringIcSt11char_traitsIcESaIcEEEESt10_Select1stISA_ESt4lessIS1_ESaISA_EE4sizeEv = comdat any

$_ZNSt8_Rb_treeIPKvSt4pairIKS1_NSt7__cxx1112basic_stringIcSt11char_traitsIcESaIcEEEESt10_Select1stISA_ESt4lessIS1_ESaISA_EE12_M_rightmostEv = comdat any

$_ZNSt8_Rb_treeIPKvSt4pairIKS1_NSt7__cxx1112basic_stringIcSt11char_traitsIcESaIcEEEESt10_Select1stISA_ESt4lessIS1_ESaISA_EE24_M_get_insert_unique_posERS3_ = comdat any

$_ZNSt8_Rb_treeIPKvSt4pairIKS1_NSt7__cxx1112basic_stringIcSt11char_traitsIcESaIcEEEESt10_Select1stISA_ESt4lessIS1_ESaISA_EE11_M_leftmostEv = comdat any

$_ZNSt17_Rb_tree_iteratorISt4pairIKPKvNSt7__cxx1112basic_stringIcSt11char_traitsIcESaIcEEEEEmmEv = comdat any

$_ZNSt17_Rb_tree_iteratorISt4pairIKPKvNSt7__cxx1112basic_stringIcSt11char_traitsIcESaIcEEEEEppEv = comdat any

$_ZNSt8_Rb_treeIPKvSt4pairIKS1_NSt7__cxx1112basic_stringIcSt11char_traitsIcESaIcEEEESt10_Select1stISA_ESt4lessIS1_ESaISA_EE5beginEv = comdat any

$_ZNSt4pairIPSt18_Rb_tree_node_baseS1_EC2IRPSt13_Rb_tree_nodeIS_IKPKvNSt7__cxx1112basic_stringIcSt11char_traitsIcESaIcEEEEERS1_TnNSt9enable_ifIXaaclsr5_PCCPE22_MoveConstructiblePairIT_T0_EEclsr5_PCCPE30_ImplicitlyMoveConvertiblePairISK_SL_EEEbE4typeELb1EEEOSK_OSL_ = comdat any

$_ZNSt8_Rb_treeIPKvSt4pairIKS1_NSt7__cxx1112basic_stringIcSt11char_traitsIcESaIcEEEESt10_Select1stISA_ESt4lessIS1_ESaISA_EE14_M_insert_nodeEPSt18_Rb_tree_node_baseSI_PSt13_Rb_tree_nodeISA_E = comdat any

$_ZNSt8_Rb_treeImSt4pairIKmNSt7__cxx1112basic_stringIcSt11char_traitsIcESaIcEEEESt10_Select1stIS8_ESt4lessImESaIS8_EE4findERS1_ = comdat any

$_ZNSt8_Rb_treeImSt4pairIKmNSt7__cxx1112basic_stringIcSt11char_traitsIcESaIcEEEESt10_Select1stIS8_ESt4lessImESaIS8_EE14_M_lower_boundEPSt13_Rb_tree_nodeIS8_EPSt18_Rb_tree_node_baseRS1_ = comdat any

$_ZNSt8_Rb_treeImSt4pairIKmNSt7__cxx1112basic_stringIcSt11char_traitsIcESaIcEEEESt10_Select1stIS8_ESt4lessImESaIS8_EE6_M_endEv = comdat any

$_ZSteqRKSt17_Rb_tree_iteratorISt4pairIKmNSt7__cxx1112basic_stringIcSt11char_traitsIcESaIcEEEEESB_ = comdat any

$_ZNSt8_Rb_treeImSt4pairIKmNSt7__cxx1112basic_stringIcSt11char_traitsIcESaIcEEEESt10_Select1stIS8_ESt4lessImESaIS8_EE3endEv = comdat any

$_ZNKSt4lessImEclERKmS2_ = comdat any

$_ZNSt8_Rb_treeImSt4pairIKmNSt7__cxx1112basic_stringIcSt11char_traitsIcESaIcEEEESt10_Select1stIS8_ESt4lessImESaIS8_EE6_S_keyEPKSt18_Rb_tree_node_base = comdat any

$_ZNSt8_Rb_treeImSt4pairIKmNSt7__cxx1112basic_stringIcSt11char_traitsIcESaIcEEEESt10_Select1stIS8_ESt4lessImESaIS8_EE6_S_keyEPKSt13_Rb_tree_nodeIS8_E = comdat any

$_ZNSt17_Rb_tree_iteratorISt4pairIKmNSt7__cxx1112basic_stringIcSt11char_traitsIcESaIcEEEEEC2EPSt18_Rb_tree_node_base = comdat any

$_ZNKSt10_Select1stISt4pairIKmNSt7__cxx1112basic_stringIcSt11char_traitsIcESaIcEEEEEclERKS8_ = comdat any

$_ZNKSt13_Rb_tree_nodeISt4pairIKmNSt7__cxx1112basic_stringIcSt11char_traitsIcESaIcEEEEE9_M_valptrEv = comdat any

$_ZNK9__gnu_cxx16__aligned_membufISt4pairIKmNSt7__cxx1112basic_stringIcSt11char_traitsIcESaIcEEEEE6_M_ptrEv = comdat any

$_ZNK9__gnu_cxx16__aligned_membufISt4pairIKmNSt7__cxx1112basic_stringIcSt11char_traitsIcESaIcEEEEE7_M_addrEv = comdat any

$_ZNKSt8_Rb_treeImSt4pairIKmNSt7__cxx1112basic_stringIcSt11char_traitsIcESaIcEEEESt10_Select1stIS8_ESt4lessImESaIS8_EE3endEv = comdat any

$_ZNSt23_Rb_tree_const_iteratorISt4pairIKmNSt7__cxx1112basic_stringIcSt11char_traitsIcESaIcEEEEEC2EPKSt18_Rb_tree_node_base = comdat any

$_ZNSt3mapImNSt7__cxx1112basic_stringIcSt11char_traitsIcESaIcEEESt4lessImESaISt4pairIKmS5_EEE11lower_boundERS9_ = comdat any

$_ZNSt3mapImNSt7__cxx1112basic_stringIcSt11char_traitsIcESaIcEEESt4lessImESaISt4pairIKmS5_EEE3endEv = comdat any

$_ZNKSt3mapImNSt7__cxx1112basic_stringIcSt11char_traitsIcESaIcEEESt4lessImESaISt4pairIKmS5_EEE8key_compEv = comdat any

$_ZNKSt17_Rb_tree_iteratorISt4pairIKmNSt7__cxx1112basic_stringIcSt11char_traitsIcESaIcEEEEEdeEv = comdat any

$_ZNSt3mapImNSt7__cxx1112basic_stringIcSt11char_traitsIcESaIcEEESt4lessImESaISt4pairIKmS5_EEE12emplace_hintIJS8_ImS5_EEEESt17_Rb_tree_iteratorISA_ESt23_Rb_tree_const_iteratorISA_EDpOT_ = comdat any

$_ZNSt4pairISt17_Rb_tree_iteratorIS_IKmNSt7__cxx1112basic_stringIcSt11char_traitsIcESaIcEEEEEbEC2IRS9_bTnNSt9enable_ifIXaaclsr5_PCCPE22_MoveConstructiblePairIT_T0_EEclsr5_PCCPE30_ImplicitlyMoveConvertiblePairISE_SF_EEEbE4typeELb1EEEOSE_OSF_ = comdat any

$_ZNSt8_Rb_treeImSt4pairIKmNSt7__cxx1112basic_stringIcSt11char_traitsIcESaIcEEEESt10_Select1stIS8_ESt4lessImESaIS8_EE11lower_boundERS1_ = comdat any

$_ZNKSt8_Rb_treeImSt4pairIKmNSt7__cxx1112basic_stringIcSt11char_traitsIcESaIcEEEESt10_Select1stIS8_ESt4lessImESaIS8_EE8key_compEv = comdat any

$_ZNSt8_Rb_treeImSt4pairIKmNSt7__cxx1112basic_stringIcSt11char_traitsIcESaIcEEEESt10_Select1stIS8_ESt4lessImESaIS8_EE22_M_emplace_hint_uniqueIJS0_ImS7_EEEESt17_Rb_tree_iteratorIS8_ESt23_Rb_tree_const_iteratorIS8_EDpOT_ = comdat any

$_ZNSt8_Rb_treeImSt4pairIKmNSt7__cxx1112basic_stringIcSt11char_traitsIcESaIcEEEESt10_Select1stIS8_ESt4lessImESaIS8_EE10_Auto_nodeC2IJS0_ImS7_EEEERSE_DpOT_ = comdat any

$_ZNSt8_Rb_treeImSt4pairIKmNSt7__cxx1112basic_stringIcSt11char_traitsIcESaIcEEEESt10_Select1stIS8_ESt4lessImESaIS8_EE29_M_get_insert_hint_unique_posESt23_Rb_tree_const_iteratorIS8_ERS1_ = comdat any

$_ZNKSt8_Rb_treeImSt4pairIKmNSt7__cxx1112basic_stringIcSt11char_traitsIcESaIcEEEESt10_Select1stIS8_ESt4lessImESaIS8_EE10_Auto_node6_M_keyEv = comdat any

$_ZNSt8_Rb_treeImSt4pairIKmNSt7__cxx1112basic_stringIcSt11char_traitsIcESaIcEEEESt10_Select1stIS8_ESt4lessImESaIS8_EE10_Auto_node9_M_insertES0_IPSt18_Rb_tree_node_baseSH_E = comdat any

$_ZNSt8_Rb_treeImSt4pairIKmNSt7__cxx1112basic_stringIcSt11char_traitsIcESaIcEEEESt10_Select1stIS8_ESt4lessImESaIS8_EE10_Auto_nodeD2Ev = comdat any

$_ZNSt8_Rb_treeImSt4pairIKmNSt7__cxx1112basic_stringIcSt11char_traitsIcESaIcEEEESt10_Select1stIS8_ESt4lessImESaIS8_EE14_M_create_nodeIJS0_ImS7_EEEEPSt13_Rb_tree_nodeIS8_EDpOT_ = comdat any

$_ZNSt8_Rb_treeImSt4pairIKmNSt7__cxx1112basic_stringIcSt11char_traitsIcESaIcEEEESt10_Select1stIS8_ESt4lessImESaIS8_EE11_M_get_nodeEv = comdat any

$_ZNSt8_Rb_treeImSt4pairIKmNSt7__cxx1112basic_stringIcSt11char_traitsIcESaIcEEEESt10_Select1stIS8_ESt4lessImESaIS8_EE17_M_construct_nodeIJS0_ImS7_EEEEvPSt13_Rb_tree_nodeIS8_EDpOT_ = comdat any

$_ZNSt16allocator_traitsISaISt13_Rb_tree_nodeISt4pairIKmNSt7__cxx1112basic_stringIcSt11char_traitsIcESaIcEEEEEEE8allocateERSB_m = comdat any

$_ZNSt15__new_allocatorISt13_Rb_tree_nodeISt4pairIKmNSt7__cxx1112basic_stringIcSt11char_traitsIcESaIcEEEEEE8allocateEmPKv = comdat any

$_ZNKSt15__new_allocatorISt13_Rb_tree_nodeISt4pairIKmNSt7__cxx1112basic_stringIcSt11char_traitsIcESaIcEEEEEE11_M_max_sizeEv = comdat any

$_ZNSt16allocator_traitsISaISt13_Rb_tree_nodeISt4pairIKmNSt7__cxx1112basic_stringIcSt11char_traitsIcESaIcEEEEEEE9constructIS9_JS1_ImS8_EEEEvRSB_PT_DpOT0_ = comdat any

$_ZNSt15__new_allocatorISt13_Rb_tree_nodeISt4pairIKmNSt7__cxx1112basic_stringIcSt11char_traitsIcESaIcEEEEEE9constructIS9_JS1_ImS8_EEEEvPT_DpOT0_ = comdat any

$_ZNSt4pairIKmNSt7__cxx1112basic_stringIcSt11char_traitsIcESaIcEEEEC2ImS6_TnNSt9enable_ifIXaaclsr6_PCCFPIT_T0_EE22_MoveConstructiblePairISA_SB_EEclsr6_PCCFPISA_SB_EE30_ImplicitlyMoveConvertiblePairISA_SB_EEEbE4typeELb1EEEOS_ISA_SB_E = comdat any

$_ZNKSt23_Rb_tree_const_iteratorISt4pairIKmNSt7__cxx1112basic_stringIcSt11char_traitsIcESaIcEEEEE13_M_const_castEv = comdat any

$_ZNKSt8_Rb_treeImSt4pairIKmNSt7__cxx1112basic_stringIcSt11char_traitsIcESaIcEEEESt10_Select1stIS8_ESt4lessImESaIS8_EE4sizeEv = comdat any

$_ZNSt8_Rb_treeImSt4pairIKmNSt7__cxx1112basic_stringIcSt11char_traitsIcESaIcEEEESt10_Select1stIS8_ESt4lessImESaIS8_EE12_M_rightmostEv = comdat any

$_ZNSt8_Rb_treeImSt4pairIKmNSt7__cxx1112basic_stringIcSt11char_traitsIcESaIcEEEESt10_Select1stIS8_ESt4lessImESaIS8_EE24_M_get_insert_unique_posERS1_ = comdat any

$_ZNSt8_Rb_treeImSt4pairIKmNSt7__cxx1112basic_stringIcSt11char_traitsIcESaIcEEEESt10_Select1stIS8_ESt4lessImESaIS8_EE11_M_leftmostEv = comdat any

$_ZNSt17_Rb_tree_iteratorISt4pairIKmNSt7__cxx1112basic_stringIcSt11char_traitsIcESaIcEEEEEmmEv = comdat any

$_ZNSt17_Rb_tree_iteratorISt4pairIKmNSt7__cxx1112basic_stringIcSt11char_traitsIcESaIcEEEEEppEv = comdat any

$_ZNSt8_Rb_treeImSt4pairIKmNSt7__cxx1112basic_stringIcSt11char_traitsIcESaIcEEEESt10_Select1stIS8_ESt4lessImESaIS8_EE5beginEv = comdat any

$_ZNSt4pairIPSt18_Rb_tree_node_baseS1_EC2IRPSt13_Rb_tree_nodeIS_IKmNSt7__cxx1112basic_stringIcSt11char_traitsIcESaIcEEEEERS1_TnNSt9enable_ifIXaaclsr5_PCCPE22_MoveConstructiblePairIT_T0_EEclsr5_PCCPE30_ImplicitlyMoveConvertiblePairISI_SJ_EEEbE4typeELb1EEEOSI_OSJ_ = comdat any

$_ZNSt8_Rb_treeImSt4pairIKmNSt7__cxx1112basic_stringIcSt11char_traitsIcESaIcEEEESt10_Select1stIS8_ESt4lessImESaIS8_EE14_M_insert_nodeEPSt18_Rb_tree_node_baseSG_PSt13_Rb_tree_nodeIS8_E = comdat any

$_ZTVN6Assimp8IOSystemE = comdat any

$_ZTS17DeadlyExportError = comdat any

$_ZTS15DeadlyErrorBase = comdat any

$_ZTI15DeadlyErrorBase = comdat any

$_ZTI17DeadlyExportError = comdat any

$_ZTSN6Assimp8IOSystemE = comdat any

$_ZTSN6Assimp6Intern22AllocateFromAssimpHeapE = comdat any

$_ZTIN6Assimp6Intern22AllocateFromAssimpHeapE = comdat any

$_ZTIN6Assimp8IOSystemE = comdat any

$_ZTVN6Assimp8IOStreamE = comdat any

$_ZTSN6Assimp8IOStreamE = comdat any

$_ZTIN6Assimp8IOStreamE = comdat any

$_ZTVN6Assimp9LogStreamE = comdat any

$_ZTSN6Assimp9LogStreamE = comdat any

$_ZTIN6Assimp9LogStreamE = comdat any

$_ZTVN6Assimp6LoggerE = comdat any

$_ZTSN6Assimp6LoggerE = comdat any

$_ZTIN6Assimp6LoggerE = comdat any

$_ZTV17DeadlyExportError = comdat any

@_ZTVN6Assimp8IOSystemE = linkonce_odr unnamed_addr constant { [16 x ptr] } { [16 x ptr] [ptr null, ptr @_ZTIN6Assimp8IOSystemE, ptr @_ZN6Assimp8IOSystemD2Ev, ptr @_ZN6Assimp8IOSystemD0Ev, ptr @__cxa_pure_virtual, ptr @__cxa_pure_virtual, ptr @__cxa_pure_virtual, ptr @__cxa_pure_virtual, ptr @_ZNK6Assimp8IOSystem12ComparePathsEPKcS2_, ptr @_ZN6Assimp8IOSystem13PushDirectoryERKNSt7__cxx1112basic_stringIcSt11char_traitsIcESaIcEEE, ptr @_ZNK6Assimp8IOSystem16CurrentDirectoryB5cxx11Ev, ptr @_ZNK6Assimp8IOSystem9StackSizeEv, ptr @_ZN6Assimp8IOSystem12PopDirectoryEv, ptr @_ZN6Assimp8IOSystem15CreateDirectoryERKNSt7__cxx1112basic_stringIcSt11char_traitsIcESaIcEEE, ptr @_ZN6Assimp8IOSystem15ChangeDirectoryERKNSt7__cxx1112basic_stringIcSt11char_traitsIcESaIcEEE, ptr @_ZN6Assimp8IOSystem10DeleteFileERKNSt7__cxx1112basic_stringIcSt11char_traitsIcESaIcEEE] }, comdat, align 8
@.str = private unnamed_addr constant [6 x i8] c"&amp;\00", align 1
@.str.1 = private unnamed_addr constant [7 x i8] c"&quot;\00", align 1
@.str.2 = private unnamed_addr constant [7 x i8] c"&apos;\00", align 1
@.str.3 = private unnamed_addr constant [5 x i8] c"&lt;\00", align 1
@.str.4 = private unnamed_addr constant [5 x i8] c"&gt;\00", align 1
@.str.5 = private unnamed_addr constant [69 x i8] c"output data creation failed. Most likely the file became too large: \00", align 1
@_ZTVN10__cxxabiv120__si_class_type_infoE = external global [0 x ptr]
@_ZTS17DeadlyExportError = linkonce_odr constant [20 x i8] c"17DeadlyExportError\00", comdat, align 1
@_ZTS15DeadlyErrorBase = linkonce_odr constant [18 x i8] c"15DeadlyErrorBase\00", comdat, align 1
@_ZTISt13runtime_error = external constant ptr
@_ZTI15DeadlyErrorBase = linkonce_odr constant { ptr, ptr, ptr } { ptr getelementptr inbounds (ptr, ptr @_ZTVN10__cxxabiv120__si_class_type_infoE, i64 2), ptr @_ZTS15DeadlyErrorBase, ptr @_ZTISt13runtime_error }, comdat, align 8
@_ZTI17DeadlyExportError = linkonce_odr constant { ptr, ptr, ptr } { ptr getelementptr inbounds (ptr, ptr @_ZTVN10__cxxabiv120__si_class_type_infoE, i64 2), ptr @_ZTS17DeadlyExportError, ptr @_ZTI15DeadlyErrorBase }, comdat, align 8
@.str.6 = private unnamed_addr constant [3 x i8] c"wt\00", align 1
@.str.7 = private unnamed_addr constant [34 x i8] c"could not open output .dae file: \00", align 1
@_ZTVN6Assimp15ColladaExporterE = hidden unnamed_addr constant { [4 x ptr] } { [4 x ptr] [ptr null, ptr @_ZTIN6Assimp15ColladaExporterE, ptr @_ZN6Assimp15ColladaExporterD1Ev, ptr @_ZN6Assimp15ColladaExporterD0Ev] }, align 8
@.str.8 = private unnamed_addr constant [14 x i8] c"skeleton_root\00", align 1
@.str.9 = private unnamed_addr constant [2 x i8] c"\0A\00", align 1
@.str.10 = private unnamed_addr constant [2 x i8] c"C\00", align 1
@.str.11 = private unnamed_addr constant [56 x i8] c"<?xml version=\221.0\22 encoding=\22UTF-8\22 standalone=\22no\22 ?>\00", align 1
@.str.12 = private unnamed_addr constant [79 x i8] c"<COLLADA xmlns=\22http://www.collada.org/2005/11/COLLADASchema\22 version=\221.4.1\22>\00", align 1
@.str.13 = private unnamed_addr constant [8 x i8] c"<scene>\00", align 1
@.str.14 = private unnamed_addr constant [30 x i8] c"<instance_visual_scene url=\22#\00", align 1
@.str.15 = private unnamed_addr constant [5 x i8] c"\22 />\00", align 1
@.str.16 = private unnamed_addr constant [9 x i8] c"</scene>\00", align 1
@.str.17 = private unnamed_addr constant [11 x i8] c"</COLLADA>\00", align 1
@_ZZN6Assimp15ColladaExporter11WriteHeaderEvE7epsilon = internal global float 0.000000e+00, align 4
@_ZGVZN6Assimp15ColladaExporter11WriteHeaderEvE7epsilon = internal global i64 0, align 8
@_ZZN6Assimp15ColladaExporter11WriteHeaderEvE5x_rot = internal global %class.aiQuaterniont zeroinitializer, align 4
@_ZGVZN6Assimp15ColladaExporter11WriteHeaderEvE5x_rot = internal global i64 0, align 8
@_ZZN6Assimp15ColladaExporter11WriteHeaderEvE5y_rot = internal global %class.aiQuaterniont zeroinitializer, align 4
@_ZGVZN6Assimp15ColladaExporter11WriteHeaderEvE5y_rot = internal global i64 0, align 8
@_ZZN6Assimp15ColladaExporter11WriteHeaderEvE5z_rot = internal global %class.aiQuaterniont zeroinitializer, align 4
@_ZGVZN6Assimp15ColladaExporter11WriteHeaderEvE5z_rot = internal global i64 0, align 8
@_ZZN6Assimp15ColladaExporter11WriteHeaderEvE13date_nb_chars = internal constant i32 20, align 4
@.str.18 = private unnamed_addr constant [18 x i8] c"%Y-%m-%dT%H:%M:%S\00", align 1
@.str.19 = private unnamed_addr constant [5 x i8] c"Y_UP\00", align 1
@.str.20 = private unnamed_addr constant [5 x i8] c"X_UP\00", align 1
@.str.21 = private unnamed_addr constant [5 x i8] c"Z_UP\00", align 1
@.str.22 = private unnamed_addr constant [8 x i8] c"<asset>\00", align 1
@.str.23 = private unnamed_addr constant [14 x i8] c"<contributor>\00", align 1
@.str.24 = private unnamed_addr constant [7 x i8] c"Author\00", align 1
@.str.25 = private unnamed_addr constant [9 x i8] c"<author>\00", align 1
@.str.26 = private unnamed_addr constant [7 x i8] c"Assimp\00", align 1
@.str.27 = private unnamed_addr constant [10 x i8] c"</author>\00", align 1
@.str.28 = private unnamed_addr constant [22 x i8] c"SourceAsset_Generator\00", align 1
@.str.29 = private unnamed_addr constant [17 x i8] c"<authoring_tool>\00", align 1
@.str.30 = private unnamed_addr constant [16 x i8] c"Assimp Exporter\00", align 1
@.str.31 = private unnamed_addr constant [18 x i8] c"</authoring_tool>\00", align 1
@.str.32 = private unnamed_addr constant [9 x i8] c"Comments\00", align 1
@.str.33 = private unnamed_addr constant [11 x i8] c"<comments>\00", align 1
@.str.34 = private unnamed_addr constant [12 x i8] c"</comments>\00", align 1
@.str.35 = private unnamed_addr constant [22 x i8] c"SourceAsset_Copyright\00", align 1
@.str.36 = private unnamed_addr constant [12 x i8] c"<copyright>\00", align 1
@.str.37 = private unnamed_addr constant [13 x i8] c"</copyright>\00", align 1
@.str.38 = private unnamed_addr constant [11 x i8] c"SourceData\00", align 1
@.str.39 = private unnamed_addr constant [14 x i8] c"<source_data>\00", align 1
@.str.40 = private unnamed_addr constant [15 x i8] c"</source_data>\00", align 1
@.str.41 = private unnamed_addr constant [15 x i8] c"</contributor>\00", align 1
@.str.42 = private unnamed_addr constant [8 x i8] c"Created\00", align 1
@.str.43 = private unnamed_addr constant [10 x i8] c"<created>\00", align 1
@.str.44 = private unnamed_addr constant [11 x i8] c"</created>\00", align 1
@.str.45 = private unnamed_addr constant [11 x i8] c"<modified>\00", align 1
@.str.46 = private unnamed_addr constant [12 x i8] c"</modified>\00", align 1
@.str.47 = private unnamed_addr constant [9 x i8] c"Keywords\00", align 1
@.str.48 = private unnamed_addr constant [11 x i8] c"<keywords>\00", align 1
@.str.49 = private unnamed_addr constant [12 x i8] c"</keywords>\00", align 1
@.str.50 = private unnamed_addr constant [9 x i8] c"Revision\00", align 1
@.str.51 = private unnamed_addr constant [11 x i8] c"<revision>\00", align 1
@.str.52 = private unnamed_addr constant [12 x i8] c"</revision>\00", align 1
@.str.53 = private unnamed_addr constant [8 x i8] c"Subject\00", align 1
@.str.54 = private unnamed_addr constant [10 x i8] c"<subject>\00", align 1
@.str.55 = private unnamed_addr constant [11 x i8] c"</subject>\00", align 1
@.str.56 = private unnamed_addr constant [6 x i8] c"Title\00", align 1
@.str.57 = private unnamed_addr constant [8 x i8] c"<title>\00", align 1
@.str.58 = private unnamed_addr constant [9 x i8] c"</title>\00", align 1
@.str.59 = private unnamed_addr constant [27 x i8] c"<unit name=\22meter\22 meter=\22\00", align 1
@.str.60 = private unnamed_addr constant [10 x i8] c"<up_axis>\00", align 1
@.str.61 = private unnamed_addr constant [11 x i8] c"</up_axis>\00", align 1
@.str.62 = private unnamed_addr constant [9 x i8] c"</asset>\00", align 1
@_ZZN6Assimp15ColladaExporter13WriteTexturesEvE11buffer_size = internal constant i32 1024, align 4
@.str.63 = private unnamed_addr constant [10 x i8] c"_texture_\00", align 1
@.str.64 = private unnamed_addr constant [2 x i8] c"0\00", align 1
@.str.65 = private unnamed_addr constant [1 x i8] zeroinitializer, align 1
@.str.66 = private unnamed_addr constant [2 x i8] c".\00", align 1
@.str.67 = private unnamed_addr constant [3 x i8] c"wb\00", align 1
@.str.68 = private unnamed_addr constant [37 x i8] c"could not open output texture file: \00", align 1
@.str.69 = private unnamed_addr constant [18 x i8] c"<library_cameras>\00", align 1
@.str.70 = private unnamed_addr constant [19 x i8] c"</library_cameras>\00", align 1
@.str.71 = private unnamed_addr constant [13 x i8] c"<camera id=\22\00", align 1
@.str.72 = private unnamed_addr constant [9 x i8] c"\22 name=\22\00", align 1
@.str.73 = private unnamed_addr constant [4 x i8] c"\22 >\00", align 1
@.str.74 = private unnamed_addr constant [9 x i8] c"<optics>\00", align 1
@.str.75 = private unnamed_addr constant [19 x i8] c"<technique_common>\00", align 1
@.str.76 = private unnamed_addr constant [14 x i8] c"<perspective>\00", align 1
@.str.77 = private unnamed_addr constant [18 x i8] c"<xfov sid=\22xfov\22>\00", align 1
@.str.78 = private unnamed_addr constant [8 x i8] c"</xfov>\00", align 1
@.str.79 = private unnamed_addr constant [15 x i8] c"<aspect_ratio>\00", align 1
@.str.80 = private unnamed_addr constant [16 x i8] c"</aspect_ratio>\00", align 1
@.str.81 = private unnamed_addr constant [20 x i8] c"<znear sid=\22znear\22>\00", align 1
@.str.82 = private unnamed_addr constant [9 x i8] c"</znear>\00", align 1
@.str.83 = private unnamed_addr constant [18 x i8] c"<zfar sid=\22zfar\22>\00", align 1
@.str.84 = private unnamed_addr constant [8 x i8] c"</zfar>\00", align 1
@.str.85 = private unnamed_addr constant [15 x i8] c"</perspective>\00", align 1
@.str.86 = private unnamed_addr constant [20 x i8] c"</technique_common>\00", align 1
@.str.87 = private unnamed_addr constant [10 x i8] c"</optics>\00", align 1
@.str.88 = private unnamed_addr constant [10 x i8] c"</camera>\00", align 1
@.str.89 = private unnamed_addr constant [17 x i8] c"<library_lights>\00", align 1
@.str.90 = private unnamed_addr constant [18 x i8] c"</library_lights>\00", align 1
@.str.91 = private unnamed_addr constant [12 x i8] c"<light id=\22\00", align 1
@.str.92 = private unnamed_addr constant [9 x i8] c"</light>\00", align 1
@.str.93 = private unnamed_addr constant [8 x i8] c"<point>\00", align 1
@.str.94 = private unnamed_addr constant [20 x i8] c"<color sid=\22color\22>\00", align 1
@.str.95 = private unnamed_addr constant [2 x i8] c" \00", align 1
@.str.96 = private unnamed_addr constant [9 x i8] c"</color>\00", align 1
@.str.97 = private unnamed_addr constant [23 x i8] c"<constant_attenuation>\00", align 1
@.str.98 = private unnamed_addr constant [24 x i8] c"</constant_attenuation>\00", align 1
@.str.99 = private unnamed_addr constant [21 x i8] c"<linear_attenuation>\00", align 1
@.str.100 = private unnamed_addr constant [22 x i8] c"</linear_attenuation>\00", align 1
@.str.101 = private unnamed_addr constant [24 x i8] c"<quadratic_attenuation>\00", align 1
@.str.102 = private unnamed_addr constant [25 x i8] c"</quadratic_attenuation>\00", align 1
@.str.103 = private unnamed_addr constant [9 x i8] c"</point>\00", align 1
@.str.104 = private unnamed_addr constant [14 x i8] c"<directional>\00", align 1
@.str.105 = private unnamed_addr constant [15 x i8] c"</directional>\00", align 1
@.str.106 = private unnamed_addr constant [7 x i8] c"<spot>\00", align 1
@.str.107 = private unnamed_addr constant [37 x i8] c"<falloff_angle sid=\22fall_off_angle\22>\00", align 1
@.str.108 = private unnamed_addr constant [17 x i8] c"</falloff_angle>\00", align 1
@.str.109 = private unnamed_addr constant [43 x i8] c"<falloff_exponent sid=\22fall_off_exponent\22>\00", align 1
@.str.110 = private unnamed_addr constant [20 x i8] c"</falloff_exponent>\00", align 1
@.str.111 = private unnamed_addr constant [8 x i8] c"</spot>\00", align 1
@.str.112 = private unnamed_addr constant [10 x i8] c"<ambient>\00", align 1
@.str.113 = private unnamed_addr constant [11 x i8] c"</ambient>\00", align 1
@_ZTISt9exception = external constant ptr
@.str.114 = private unnamed_addr constant [42 x i8] c"could not find embedded texture at index \00", align 1
@.str.115 = private unnamed_addr constant [12 x i8] c"<image id=\22\00", align 1
@.str.116 = private unnamed_addr constant [3 x i8] c"\22>\00", align 1
@.str.117 = private unnamed_addr constant [12 x i8] c"<init_from>\00", align 1
@.str.118 = private unnamed_addr constant [13 x i8] c"</init_from>\00", align 1
@.str.119 = private unnamed_addr constant [9 x i8] c"</image>\00", align 1
@.str.120 = private unnamed_addr constant [2 x i8] c"<\00", align 1
@.str.121 = private unnamed_addr constant [2 x i8] c">\00", align 1
@.str.122 = private unnamed_addr constant [13 x i8] c"<color sid=\22\00", align 1
@.str.123 = private unnamed_addr constant [4 x i8] c"   \00", align 1
@.str.124 = private unnamed_addr constant [19 x i8] c"<texture texture=\22\00", align 1
@.str.125 = private unnamed_addr constant [20 x i8] c"\22 texcoord=\22CHANNEL\00", align 1
@.str.126 = private unnamed_addr constant [3 x i8] c"</\00", align 1
@.str.127 = private unnamed_addr constant [16 x i8] c"<newparam sid=\22\00", align 1
@.str.128 = private unnamed_addr constant [2 x i8] c"-\00", align 1
@.str.129 = private unnamed_addr constant [11 x i8] c"-surface\22>\00", align 1
@.str.130 = private unnamed_addr constant [20 x i8] c"<surface type=\222D\22>\00", align 1
@.str.131 = private unnamed_addr constant [19 x i8] c"-image</init_from>\00", align 1
@.str.132 = private unnamed_addr constant [11 x i8] c"</surface>\00", align 1
@.str.133 = private unnamed_addr constant [12 x i8] c"</newparam>\00", align 1
@.str.134 = private unnamed_addr constant [11 x i8] c"-sampler\22>\00", align 1
@.str.135 = private unnamed_addr constant [12 x i8] c"<sampler2D>\00", align 1
@.str.136 = private unnamed_addr constant [9 x i8] c"<source>\00", align 1
@.str.137 = private unnamed_addr constant [18 x i8] c"-surface</source>\00", align 1
@.str.138 = private unnamed_addr constant [13 x i8] c"</sampler2D>\00", align 1
@.str.139 = private unnamed_addr constant [13 x i8] c"<float sid=\22\00", align 1
@.str.140 = private unnamed_addr constant [9 x i8] c"</float>\00", align 1
@.str.141 = private unnamed_addr constant [6 x i8] c"phong\00", align 1
@.str.142 = private unnamed_addr constant [14 x i8] c"$mat.shadingm\00", align 1
@.str.143 = private unnamed_addr constant [6 x i8] c"blinn\00", align 1
@.str.144 = private unnamed_addr constant [9 x i8] c"constant\00", align 1
@.str.145 = private unnamed_addr constant [8 x i8] c"lambert\00", align 1
@.str.146 = private unnamed_addr constant [13 x i8] c"$clr.ambient\00", align 1
@.str.147 = private unnamed_addr constant [13 x i8] c"$clr.diffuse\00", align 1
@.str.148 = private unnamed_addr constant [14 x i8] c"$clr.specular\00", align 1
@.str.149 = private unnamed_addr constant [14 x i8] c"$clr.emissive\00", align 1
@.str.150 = private unnamed_addr constant [16 x i8] c"$clr.reflective\00", align 1
@.str.151 = private unnamed_addr constant [17 x i8] c"$clr.transparent\00", align 1
@.str.152 = private unnamed_addr constant [15 x i8] c"$mat.shininess\00", align 1
@.str.153 = private unnamed_addr constant [13 x i8] c"$mat.opacity\00", align 1
@.str.154 = private unnamed_addr constant [14 x i8] c"$mat.refracti\00", align 1
@.str.155 = private unnamed_addr constant [17 x i8] c"<library_images>\00", align 1
@.str.156 = private unnamed_addr constant [15 x i8] c"-ambient-image\00", align 1
@.str.157 = private unnamed_addr constant [15 x i8] c"-diffuse-image\00", align 1
@.str.158 = private unnamed_addr constant [16 x i8] c"-specular-image\00", align 1
@.str.159 = private unnamed_addr constant [16 x i8] c"-emission-image\00", align 1
@.str.160 = private unnamed_addr constant [18 x i8] c"-reflective-image\00", align 1
@.str.161 = private unnamed_addr constant [19 x i8] c"-transparent-image\00", align 1
@.str.162 = private unnamed_addr constant [14 x i8] c"-normal-image\00", align 1
@.str.163 = private unnamed_addr constant [18 x i8] c"</library_images>\00", align 1
@.str.164 = private unnamed_addr constant [18 x i8] c"<library_effects>\00", align 1
@.str.165 = private unnamed_addr constant [13 x i8] c"<effect id=\22\00", align 1
@.str.166 = private unnamed_addr constant [12 x i8] c"-fx\22 name=\22\00", align 1
@.str.167 = private unnamed_addr constant [17 x i8] c"<profile_COMMON>\00", align 1
@.str.168 = private unnamed_addr constant [9 x i8] c"emission\00", align 1
@.str.169 = private unnamed_addr constant [8 x i8] c"ambient\00", align 1
@.str.170 = private unnamed_addr constant [8 x i8] c"diffuse\00", align 1
@.str.171 = private unnamed_addr constant [9 x i8] c"specular\00", align 1
@.str.172 = private unnamed_addr constant [11 x i8] c"reflective\00", align 1
@.str.173 = private unnamed_addr constant [12 x i8] c"transparent\00", align 1
@.str.174 = private unnamed_addr constant [7 x i8] c"normal\00", align 1
@.str.175 = private unnamed_addr constant [27 x i8] c"<technique sid=\22standard\22>\00", align 1
@.str.176 = private unnamed_addr constant [18 x i8] c"-emission-sampler\00", align 1
@.str.177 = private unnamed_addr constant [17 x i8] c"-ambient-sampler\00", align 1
@.str.178 = private unnamed_addr constant [17 x i8] c"-diffuse-sampler\00", align 1
@.str.179 = private unnamed_addr constant [18 x i8] c"-specular-sampler\00", align 1
@.str.180 = private unnamed_addr constant [10 x i8] c"shininess\00", align 1
@.str.181 = private unnamed_addr constant [20 x i8] c"-reflective-sampler\00", align 1
@.str.182 = private unnamed_addr constant [21 x i8] c"-transparent-sampler\00", align 1
@.str.183 = private unnamed_addr constant [13 x i8] c"transparency\00", align 1
@.str.184 = private unnamed_addr constant [20 x i8] c"index_of_refraction\00", align 1
@.str.185 = private unnamed_addr constant [5 x i8] c"bump\00", align 1
@.str.186 = private unnamed_addr constant [16 x i8] c"-normal-sampler\00", align 1
@.str.187 = private unnamed_addr constant [13 x i8] c"</technique>\00", align 1
@.str.188 = private unnamed_addr constant [18 x i8] c"</profile_COMMON>\00", align 1
@.str.189 = private unnamed_addr constant [10 x i8] c"</effect>\00", align 1
@.str.190 = private unnamed_addr constant [19 x i8] c"</library_effects>\00", align 1
@.str.191 = private unnamed_addr constant [20 x i8] c"<library_materials>\00", align 1
@.str.192 = private unnamed_addr constant [15 x i8] c"<material id=\22\00", align 1
@.str.193 = private unnamed_addr constant [24 x i8] c"<instance_effect url=\22#\00", align 1
@.str.194 = private unnamed_addr constant [7 x i8] c"-fx\22/>\00", align 1
@.str.195 = private unnamed_addr constant [12 x i8] c"</material>\00", align 1
@.str.196 = private unnamed_addr constant [21 x i8] c"</library_materials>\00", align 1
@.str.197 = private unnamed_addr constant [22 x i8] c"<library_controllers>\00", align 1
@.str.198 = private unnamed_addr constant [23 x i8] c"</library_controllers>\00", align 1
@.str.199 = private unnamed_addr constant [17 x i8] c"<controller id=\22\00", align 1
@.str.200 = private unnamed_addr constant [8 x i8] c"-skin\22 \00", align 1
@.str.201 = private unnamed_addr constant [18 x i8] c"name=\22skinCluster\00", align 1
@.str.202 = private unnamed_addr constant [16 x i8] c"<skin source=\22#\00", align 1
@.str.203 = private unnamed_addr constant [20 x i8] c"<bind_shape_matrix>\00", align 1
@.str.204 = private unnamed_addr constant [21 x i8] c"</bind_shape_matrix>\00", align 1
@.str.205 = private unnamed_addr constant [13 x i8] c"<source id=\22\00", align 1
@.str.206 = private unnamed_addr constant [21 x i8] c"-skin-joints\22 name=\22\00", align 1
@.str.207 = private unnamed_addr constant [15 x i8] c"-skin-joints\22>\00", align 1
@.str.208 = private unnamed_addr constant [17 x i8] c"<Name_array id=\22\00", align 1
@.str.209 = private unnamed_addr constant [28 x i8] c"-skin-joints-array\22 count=\22\00", align 1
@.str.210 = private unnamed_addr constant [14 x i8] c"</Name_array>\00", align 1
@.str.211 = private unnamed_addr constant [20 x i8] c"<accessor source=\22#\00", align 1
@.str.212 = private unnamed_addr constant [11 x i8] c"\22 stride=\22\00", align 1
@.str.213 = private unnamed_addr constant [41 x i8] c"<param name=\22JOINT\22 type=\22Name\22></param>\00", align 1
@.str.214 = private unnamed_addr constant [12 x i8] c"</accessor>\00", align 1
@.str.215 = private unnamed_addr constant [10 x i8] c"</source>\00", align 1
@.str.216 = private unnamed_addr constant [17 x i8] c"-skin-bind_poses\00", align 1
@.str.217 = private unnamed_addr constant [14 x i8] c"-skin-weights\00", align 1
@.str.218 = private unnamed_addr constant [9 x i8] c"<joints>\00", align 1
@.str.219 = private unnamed_addr constant [34 x i8] c"<input semantic=\22JOINT\22 source=\22#\00", align 1
@.str.220 = private unnamed_addr constant [23 x i8] c"-skin-joints\22></input>\00", align 1
@.str.221 = private unnamed_addr constant [44 x i8] c"<input semantic=\22INV_BIND_MATRIX\22 source=\22#\00", align 1
@.str.222 = private unnamed_addr constant [27 x i8] c"-skin-bind_poses\22></input>\00", align 1
@.str.223 = private unnamed_addr constant [10 x i8] c"</joints>\00", align 1
@.str.224 = private unnamed_addr constant [24 x i8] c"<vertex_weights count=\22\00", align 1
@.str.225 = private unnamed_addr constant [34 x i8] c"-skin-joints\22 offset=\220\22></input>\00", align 1
@.str.226 = private unnamed_addr constant [35 x i8] c"<input semantic=\22WEIGHT\22 source=\22#\00", align 1
@.str.227 = private unnamed_addr constant [35 x i8] c"-skin-weights\22 offset=\221\22></input>\00", align 1
@.str.228 = private unnamed_addr constant [9 x i8] c"<vcount>\00", align 1
@.str.229 = private unnamed_addr constant [10 x i8] c"</vcount>\00", align 1
@.str.230 = private unnamed_addr constant [4 x i8] c"<v>\00", align 1
@.str.231 = private unnamed_addr constant [5 x i8] c"</v>\00", align 1
@.str.232 = private unnamed_addr constant [18 x i8] c"</vertex_weights>\00", align 1
@.str.233 = private unnamed_addr constant [8 x i8] c"</skin>\00", align 1
@.str.234 = private unnamed_addr constant [14 x i8] c"</controller>\00", align 1
@.str.235 = private unnamed_addr constant [21 x i8] c"<library_geometries>\00", align 1
@.str.236 = private unnamed_addr constant [22 x i8] c"</library_geometries>\00", align 1
@.str.237 = private unnamed_addr constant [15 x i8] c"<geometry id=\22\00", align 1
@.str.238 = private unnamed_addr constant [7 x i8] c"<mesh>\00", align 1
@.str.239 = private unnamed_addr constant [11 x i8] c"-positions\00", align 1
@.str.240 = private unnamed_addr constant [9 x i8] c"-normals\00", align 1
@.str.241 = private unnamed_addr constant [5 x i8] c"-tex\00", align 1
@.str.242 = private unnamed_addr constant [7 x i8] c"-color\00", align 1
@.str.243 = private unnamed_addr constant [15 x i8] c"<vertices id=\22\00", align 1
@.str.244 = private unnamed_addr constant [10 x i8] c"-vertices\00", align 1
@.str.245 = private unnamed_addr constant [37 x i8] c"<input semantic=\22POSITION\22 source=\22#\00", align 1
@.str.246 = private unnamed_addr constant [15 x i8] c"-positions\22 />\00", align 1
@.str.247 = private unnamed_addr constant [12 x i8] c"</vertices>\00", align 1
@.str.248 = private unnamed_addr constant [15 x i8] c"<lines count=\22\00", align 1
@.str.249 = private unnamed_addr constant [30 x i8] c"\22 material=\22defaultMaterial\22>\00", align 1
@.str.250 = private unnamed_addr constant [46 x i8] c"<input offset=\220\22 semantic=\22VERTEX\22 source=\22#\00", align 1
@.str.251 = private unnamed_addr constant [14 x i8] c"-vertices\22 />\00", align 1
@.str.252 = private unnamed_addr constant [35 x i8] c"<input semantic=\22NORMAL\22 source=\22#\00", align 1
@.str.253 = private unnamed_addr constant [13 x i8] c"-normals\22 />\00", align 1
@.str.254 = private unnamed_addr constant [37 x i8] c"<input semantic=\22TEXCOORD\22 source=\22#\00", align 1
@.str.255 = private unnamed_addr constant [3 x i8] c"\22 \00", align 1
@.str.256 = private unnamed_addr constant [6 x i8] c"set=\22\00", align 1
@.str.257 = private unnamed_addr constant [2 x i8] c"\22\00", align 1
@.str.258 = private unnamed_addr constant [4 x i8] c" />\00", align 1
@.str.259 = private unnamed_addr constant [34 x i8] c"<input semantic=\22COLOR\22 source=\22#\00", align 1
@.str.260 = private unnamed_addr constant [4 x i8] c"<p>\00", align 1
@.str.261 = private unnamed_addr constant [5 x i8] c"</p>\00", align 1
@.str.262 = private unnamed_addr constant [9 x i8] c"</lines>\00", align 1
@.str.263 = private unnamed_addr constant [18 x i8] c"<polylist count=\22\00", align 1
@.str.264 = private unnamed_addr constant [46 x i8] c"<input offset=\220\22 semantic=\22NORMAL\22 source=\22#\00", align 1
@.str.265 = private unnamed_addr constant [48 x i8] c"<input offset=\220\22 semantic=\22TEXCOORD\22 source=\22#\00", align 1
@.str.266 = private unnamed_addr constant [45 x i8] c"<input offset=\220\22 semantic=\22COLOR\22 source=\22#\00", align 1
@.str.267 = private unnamed_addr constant [12 x i8] c"</polylist>\00", align 1
@.str.268 = private unnamed_addr constant [8 x i8] c"</mesh>\00", align 1
@.str.269 = private unnamed_addr constant [12 x i8] c"</geometry>\00", align 1
@.str.270 = private unnamed_addr constant [7 x i8] c"-array\00", align 1
@.str.271 = private unnamed_addr constant [18 x i8] c"<float_array id=\22\00", align 1
@.str.272 = private unnamed_addr constant [10 x i8] c"\22 count=\22\00", align 1
@.str.273 = private unnamed_addr constant [4 x i8] c"\22> \00", align 1
@.str.274 = private unnamed_addr constant [15 x i8] c"</float_array>\00", align 1
@.str.275 = private unnamed_addr constant [18 x i8] c"<accessor count=\22\00", align 1
@.str.276 = private unnamed_addr constant [23 x i8] c"\22 offset=\220\22 source=\22#\00", align 1
@.str.277 = private unnamed_addr constant [32 x i8] c"<param name=\22X\22 type=\22float\22 />\00", align 1
@.str.278 = private unnamed_addr constant [32 x i8] c"<param name=\22Y\22 type=\22float\22 />\00", align 1
@.str.279 = private unnamed_addr constant [32 x i8] c"<param name=\22Z\22 type=\22float\22 />\00", align 1
@.str.280 = private unnamed_addr constant [32 x i8] c"<param name=\22S\22 type=\22float\22 />\00", align 1
@.str.281 = private unnamed_addr constant [32 x i8] c"<param name=\22T\22 type=\22float\22 />\00", align 1
@.str.282 = private unnamed_addr constant [32 x i8] c"<param name=\22P\22 type=\22float\22 />\00", align 1
@.str.283 = private unnamed_addr constant [32 x i8] c"<param name=\22R\22 type=\22float\22 />\00", align 1
@.str.284 = private unnamed_addr constant [32 x i8] c"<param name=\22G\22 type=\22float\22 />\00", align 1
@.str.285 = private unnamed_addr constant [32 x i8] c"<param name=\22B\22 type=\22float\22 />\00", align 1
@.str.286 = private unnamed_addr constant [43 x i8] c"<param name=\22TRANSFORM\22 type=\22float4x4\22 />\00", align 1
@.str.287 = private unnamed_addr constant [37 x i8] c"<param name=\22WEIGHT\22 type=\22float\22 />\00", align 1
@.str.288 = private unnamed_addr constant [35 x i8] c"<param name=\22TIME\22 type=\22float\22 />\00", align 1
@.str.289 = private unnamed_addr constant [6 x i8] c"Scene\00", align 1
@.str.290 = private unnamed_addr constant [24 x i8] c"<library_visual_scenes>\00", align 1
@.str.291 = private unnamed_addr constant [19 x i8] c"<visual_scene id=\22\00", align 1
@.str.292 = private unnamed_addr constant [16 x i8] c"</visual_scene>\00", align 1
@.str.293 = private unnamed_addr constant [25 x i8] c"</library_visual_scenes>\00", align 1
@.str.294 = private unnamed_addr constant [16 x i8] c"<animation id=\22\00", align 1
@.str.295 = private unnamed_addr constant [14 x i8] c"_matrix-input\00", align 1
@.str.296 = private unnamed_addr constant [15 x i8] c"_matrix-output\00", align 1
@.str.297 = private unnamed_addr constant [7 x i8] c"LINEAR\00", align 1
@.str.298 = private unnamed_addr constant [5 x i8] c"STEP\00", align 1
@.str.299 = private unnamed_addr constant [22 x i8] c"_matrix-interpolation\00", align 1
@.str.300 = private unnamed_addr constant [49 x i8] c"<param name=\22INTERPOLATION\22 type=\22name\22></param>\00", align 1
@.str.301 = private unnamed_addr constant [16 x i8] c"_matrix-sampler\00", align 1
@.str.302 = private unnamed_addr constant [14 x i8] c"<sampler id=\22\00", align 1
@.str.303 = private unnamed_addr constant [34 x i8] c"<input semantic=\22INPUT\22 source=\22#\00", align 1
@.str.304 = private unnamed_addr constant [4 x i8] c"\22/>\00", align 1
@.str.305 = private unnamed_addr constant [35 x i8] c"<input semantic=\22OUTPUT\22 source=\22#\00", align 1
@.str.306 = private unnamed_addr constant [42 x i8] c"<input semantic=\22INTERPOLATION\22 source=\22#\00", align 1
@.str.307 = private unnamed_addr constant [11 x i8] c"</sampler>\00", align 1
@.str.308 = private unnamed_addr constant [19 x i8] c"<channel source=\22#\00", align 1
@.str.309 = private unnamed_addr constant [11 x i8] c"\22 target=\22\00", align 1
@.str.310 = private unnamed_addr constant [11 x i8] c"/matrix\22/>\00", align 1
@.str.311 = private unnamed_addr constant [13 x i8] c"</animation>\00", align 1
@.str.312 = private unnamed_addr constant [21 x i8] c"<library_animations>\00", align 1
@.str.313 = private unnamed_addr constant [22 x i8] c"</library_animations>\00", align 1
@.str.314 = private unnamed_addr constant [5 x i8] c"NODE\00", align 1
@.str.315 = private unnamed_addr constant [6 x i8] c"JOINT\00", align 1
@.str.316 = private unnamed_addr constant [7 x i8] c"<node \00", align 1
@.str.317 = private unnamed_addr constant [5 x i8] c"id=\22\00", align 1
@.str.318 = private unnamed_addr constant [6 x i8] c"sid=\22\00", align 1
@.str.319 = private unnamed_addr constant [7 x i8] c"name=\22\00", align 1
@.str.320 = private unnamed_addr constant [9 x i8] c"\22 type=\22\00", align 1
@.str.321 = private unnamed_addr constant [22 x i8] c"<matrix sid=\22matrix\22>\00", align 1
@.str.322 = private unnamed_addr constant [10 x i8] c"</matrix>\00", align 1
@.str.323 = private unnamed_addr constant [24 x i8] c"<instance_camera url=\22#\00", align 1
@.str.324 = private unnamed_addr constant [23 x i8] c"<instance_light url=\22#\00", align 1
@.str.325 = private unnamed_addr constant [26 x i8] c"<instance_geometry url=\22#\00", align 1
@.str.326 = private unnamed_addr constant [28 x i8] c"<instance_controller url=\22#\00", align 1
@.str.327 = private unnamed_addr constant [8 x i8] c"-skin\22>\00", align 1
@.str.328 = private unnamed_addr constant [12 x i8] c"<skeleton>#\00", align 1
@.str.329 = private unnamed_addr constant [12 x i8] c"</skeleton>\00", align 1
@.str.330 = private unnamed_addr constant [16 x i8] c"<bind_material>\00", align 1
@.str.331 = private unnamed_addr constant [54 x i8] c"<instance_material symbol=\22defaultMaterial\22 target=\22#\00", align 1
@.str.332 = private unnamed_addr constant [37 x i8] c"<bind_vertex_input semantic=\22CHANNEL\00", align 1
@.str.333 = private unnamed_addr constant [40 x i8] c"\22 input_semantic=\22TEXCOORD\22 input_set=\22\00", align 1
@.str.334 = private unnamed_addr constant [21 x i8] c"</instance_material>\00", align 1
@.str.335 = private unnamed_addr constant [17 x i8] c"</bind_material>\00", align 1
@.str.336 = private unnamed_addr constant [21 x i8] c"</instance_geometry>\00", align 1
@.str.337 = private unnamed_addr constant [23 x i8] c"</instance_controller>\00", align 1
@.str.338 = private unnamed_addr constant [8 x i8] c"</node>\00", align 1
@.str.339 = private unnamed_addr constant [11 x i8] c"Collada_id\00", align 1
@.str.340 = private unnamed_addr constant [5 x i8] c"node\00", align 1
@.str.341 = private unnamed_addr constant [7 x i8] c"-light\00", align 1
@.str.342 = private unnamed_addr constant [8 x i8] c"-camera\00", align 1
@.str.343 = private unnamed_addr constant [59 x i8] c"ColladaExporter::AiObjectType::Count is not an object type\00", align 1
@_ZTISt11logic_error = external constant ptr
@.str.344 = private unnamed_addr constant [6 x i8] c"mesh_\00", align 1
@.str.345 = private unnamed_addr constant [10 x i8] c"material_\00", align 1
@.str.346 = private unnamed_addr constant [11 x i8] c"animation_\00", align 1
@.str.347 = private unnamed_addr constant [7 x i8] c"light_\00", align 1
@.str.348 = private unnamed_addr constant [8 x i8] c"camera_\00", align 1
@_ZTSN6Assimp8IOSystemE = linkonce_odr constant [19 x i8] c"N6Assimp8IOSystemE\00", comdat, align 1
@_ZTVN10__cxxabiv117__class_type_infoE = external global [0 x ptr]
@_ZTSN6Assimp6Intern22AllocateFromAssimpHeapE = linkonce_odr constant [41 x i8] c"N6Assimp6Intern22AllocateFromAssimpHeapE\00", comdat, align 1
@_ZTIN6Assimp6Intern22AllocateFromAssimpHeapE = linkonce_odr constant { ptr, ptr } { ptr getelementptr inbounds (ptr, ptr @_ZTVN10__cxxabiv117__class_type_infoE, i64 2), ptr @_ZTSN6Assimp6Intern22AllocateFromAssimpHeapE }, comdat, align 8
@_ZTIN6Assimp8IOSystemE = linkonce_odr constant { ptr, ptr, ptr } { ptr getelementptr inbounds (ptr, ptr @_ZTVN10__cxxabiv120__si_class_type_infoE, i64 2), ptr @_ZTSN6Assimp8IOSystemE, ptr @_ZTIN6Assimp6Intern22AllocateFromAssimpHeapE }, comdat, align 8
@_ZTVN6Assimp8IOStreamE = linkonce_odr unnamed_addr constant { [10 x ptr] } { [10 x ptr] [ptr null, ptr @_ZTIN6Assimp8IOStreamE, ptr @_ZN6Assimp8IOStreamD2Ev, ptr @_ZN6Assimp8IOStreamD0Ev, ptr @__cxa_pure_virtual, ptr @__cxa_pure_virtual, ptr @__cxa_pure_virtual, ptr @__cxa_pure_virtual, ptr @__cxa_pure_virtual, ptr @__cxa_pure_virtual] }, comdat, align 8
@_ZTSN6Assimp8IOStreamE = linkonce_odr constant [19 x i8] c"N6Assimp8IOStreamE\00", comdat, align 1
@_ZTIN6Assimp8IOStreamE = linkonce_odr constant { ptr, ptr, ptr } { ptr getelementptr inbounds (ptr, ptr @_ZTVN10__cxxabiv120__si_class_type_infoE, i64 2), ptr @_ZTSN6Assimp8IOStreamE, ptr @_ZTIN6Assimp6Intern22AllocateFromAssimpHeapE }, comdat, align 8
@_ZTVN6Assimp9LogStreamE = linkonce_odr unnamed_addr constant { [5 x ptr] } { [5 x ptr] [ptr null, ptr @_ZTIN6Assimp9LogStreamE, ptr @_ZN6Assimp9LogStreamD2Ev, ptr @_ZN6Assimp9LogStreamD0Ev, ptr @__cxa_pure_virtual] }, comdat, align 8
@_ZTSN6Assimp9LogStreamE = linkonce_odr constant [20 x i8] c"N6Assimp9LogStreamE\00", comdat, align 1
@_ZTIN6Assimp9LogStreamE = linkonce_odr constant { ptr, ptr, ptr } { ptr getelementptr inbounds (ptr, ptr @_ZTVN10__cxxabiv120__si_class_type_infoE, i64 2), ptr @_ZTSN6Assimp9LogStreamE, ptr @_ZTIN6Assimp6Intern22AllocateFromAssimpHeapE }, comdat, align 8
@_ZTVN6Assimp6LoggerE = linkonce_odr unnamed_addr constant { [11 x ptr] } { [11 x ptr] [ptr null, ptr @_ZTIN6Assimp6LoggerE, ptr @_ZN6Assimp6LoggerD2Ev, ptr @_ZN6Assimp6LoggerD0Ev, ptr @__cxa_pure_virtual, ptr @__cxa_pure_virtual, ptr @__cxa_pure_virtual, ptr @__cxa_pure_virtual, ptr @__cxa_pure_virtual, ptr @__cxa_pure_virtual, ptr @__cxa_pure_virtual] }, comdat, align 8
@_ZTSN6Assimp6LoggerE = linkonce_odr constant [17 x i8] c"N6Assimp6LoggerE\00", comdat, align 1
@_ZTIN6Assimp6LoggerE = linkonce_odr constant { ptr, ptr, ptr } { ptr getelementptr inbounds (ptr, ptr @_ZTVN10__cxxabiv120__si_class_type_infoE, i64 2), ptr @_ZTSN6Assimp6LoggerE, ptr @_ZTIN6Assimp6Intern22AllocateFromAssimpHeapE }, comdat, align 8
@_ZTSN6Assimp15ColladaExporterE = hidden constant [27 x i8] c"N6Assimp15ColladaExporterE\00", align 1
@_ZTIN6Assimp15ColladaExporterE = hidden constant { ptr, ptr } { ptr getelementptr inbounds (ptr, ptr @_ZTVN10__cxxabiv117__class_type_infoE, i64 2), ptr @_ZTSN6Assimp15ColladaExporterE }, align 8
@.str.349 = private unnamed_addr constant [3 x i8] c"  \00", align 1
@.str.350 = private unnamed_addr constant [63 x i8] c"0123456789ABCDEFGHIJKLMNOPQRSTUVWXYZabcdefghijklmnopqrstuvwxyz\00", align 1
@__const._ZN6AssimpL11XMLIDEncodeERKNSt7__cxx1112basic_stringIcSt11char_traitsIcESaIcEEE.XML_ID_CHARS = private unnamed_addr constant [66 x i8] c"0123456789ABCDEFGHIJKLMNOPQRSTUVWXYZabcdefghijklmnopqrstuvwxyz_-.\00", align 16
@.str.351 = private unnamed_addr constant [26 x i8] c"vector::_M_realloc_insert\00", align 1
@.str.352 = private unnamed_addr constant [50 x i8] c"basic_string: construction from null is not valid\00", align 1
@_ZTV17DeadlyExportError = linkonce_odr unnamed_addr constant { [5 x ptr] } { [5 x ptr] [ptr null, ptr @_ZTI17DeadlyExportError, ptr @_ZN17DeadlyExportErrorD2Ev, ptr @_ZN17DeadlyExportErrorD0Ev, ptr @_ZNKSt13runtime_error4whatEv] }, comdat, align 8
@.str.353 = private unnamed_addr constant [13 x i8] c"The string \22\00", align 1
@.str.354 = private unnamed_addr constant [36 x i8] c"\22 cannot be converted into a value.\00", align 1
@.str.355 = private unnamed_addr constant [24 x i8] c"Converting the string \22\00", align 1
@.str.356 = private unnamed_addr constant [37 x i8] c"\22 into a value resulted in overflow.\00", align 1
@.str.357 = private unnamed_addr constant [26 x i8] c"vector::_M_default_append\00", align 1
@.str.358 = private unnamed_addr constant [16 x i8] c"vector::reserve\00", align 1
@.str.359 = private unnamed_addr constant [24 x i8] c"vector::_M_range_insert\00", align 1
@.str.360 = private unnamed_addr constant [49 x i8] c"cannot create std::vector larger than max_size()\00", align 1

@_ZN6Assimp15ColladaExporterC1EPK7aiScenePNS_8IOSystemERKNSt7__cxx1112basic_stringIcSt11char_traitsIcESaIcEEESD_ = hidden unnamed_addr alias void (ptr, ptr, ptr, ptr, ptr), ptr @_ZN6Assimp15ColladaExporterC2EPK7aiScenePNS_8IOSystemERKNSt7__cxx1112basic_stringIcSt11char_traitsIcESaIcEEESD_
@_ZN6Assimp15ColladaExporterD1Ev = hidden unnamed_addr alias void (ptr), ptr @_ZN6Assimp15ColladaExporterD2Ev

; Function Attrs: mustprogress nounwind uwtable
define linkonce_odr void @_ZNSt6vectorINSt7__cxx1112basic_stringIcSt11char_traitsIcESaIcEEESaIS5_EED2Ev(ptr noundef nonnull align 8 dereferenceable(24) %this) unnamed_addr #0 comdat align 2 personality ptr @__gxx_personality_v0 {
entry:
  %this.addr = alloca ptr, align 8
  store ptr %this, ptr %this.addr, align 8
  %this1 = load ptr, ptr %this.addr, align 8
  %_M_impl = getelementptr inbounds %"struct.std::_Vector_base", ptr %this1, i32 0, i32 0
  %_M_start = getelementptr inbounds %"struct.std::_Vector_base<std::__cxx11::basic_string<char>, std::allocator<std::__cxx11::basic_string<char>>>::_Vector_impl_data", ptr %_M_impl, i32 0, i32 0
  %0 = load ptr, ptr %_M_start, align 8
  %_M_impl2 = getelementptr inbounds %"struct.std::_Vector_base", ptr %this1, i32 0, i32 0
  %_M_finish = getelementptr inbounds %"struct.std::_Vector_base<std::__cxx11::basic_string<char>, std::allocator<std::__cxx11::basic_string<char>>>::_Vector_impl_data", ptr %_M_impl2, i32 0, i32 1
  %1 = load ptr, ptr %_M_finish, align 8
  %call = call noundef nonnull align 1 dereferenceable(1) ptr @_ZNSt12_Vector_baseINSt7__cxx1112basic_stringIcSt11char_traitsIcESaIcEEESaIS5_EE19_M_get_Tp_allocatorEv(ptr noundef nonnull align 8 dereferenceable(24) %this1) #6
  invoke void @_ZSt8_DestroyIPNSt7__cxx1112basic_stringIcSt11char_traitsIcESaIcEEES5_EvT_S7_RSaIT0_E(ptr noundef %0, ptr noundef %1, ptr noundef nonnull align 1 dereferenceable(1) %call)
          to label %invoke.cont unwind label %terminate.lpad

invoke.cont:                                      ; preds = %entry
  call void @_ZNSt12_Vector_baseINSt7__cxx1112basic_stringIcSt11char_traitsIcESaIcEEESaIS5_EED2Ev(ptr noundef nonnull align 8 dereferenceable(24) %this1) #6
  ret void

terminate.lpad:                                   ; preds = %entry
  %2 = landingpad { ptr, i32 }
          catch ptr null
  %3 = extractvalue { ptr, i32 } %2, 0
  call void @__clang_call_terminate(ptr %3) #17
  unreachable
}

; Function Attrs: mustprogress nounwind uwtable
define linkonce_odr void @_ZN6Assimp8IOSystemD0Ev(ptr noundef nonnull align 8 dereferenceable(32) %this) unnamed_addr #0 comdat align 2 {
entry:
  %this.addr = alloca ptr, align 8
  store ptr %this, ptr %this.addr, align 8
  call void @llvm.trap() #17
  unreachable
}

; Function Attrs: cold noreturn nounwind memory(inaccessiblemem: write)
declare void @llvm.trap() #1

; Function Attrs: mustprogress nounwind uwtable
define linkonce_odr void @_ZN6Assimp8IOStreamD0Ev(ptr noundef nonnull align 8 dereferenceable(8) %this) unnamed_addr #0 comdat align 2 {
entry:
  %this.addr = alloca ptr, align 8
  store ptr %this, ptr %this.addr, align 8
  call void @llvm.trap() #17
  unreachable
}

; Function Attrs: mustprogress uwtable
define hidden void @_ZN6Assimp9XMLEscapeERKNSt7__cxx1112basic_stringIcSt11char_traitsIcESaIcEEE(ptr noalias sret(%"class.std::__cxx11::basic_string") align 8 %agg.result, ptr noundef nonnull align 8 dereferenceable(32) %data) #2 personality ptr @__gxx_personality_v0 {
entry:
  %result.ptr = alloca ptr, align 8
  %data.addr = alloca ptr, align 8
  %nrvo = alloca i1, align 1
  %size = alloca i64, align 8
  %exn.slot = alloca ptr, align 8
  %ehselector.slot = alloca i32, align 4
  %i = alloca i64, align 8
  %c = alloca i8, align 1
  store ptr %agg.result, ptr %result.ptr, align 8
  store ptr %data, ptr %data.addr, align 8
  store i1 false, ptr %nrvo, align 1
  call void @_ZNSt7__cxx1112basic_stringIcSt11char_traitsIcESaIcEEC1Ev(ptr noundef nonnull align 8 dereferenceable(32) %agg.result) #6
  %0 = load ptr, ptr %data.addr, align 8
  %call = call noundef i64 @_ZNKSt7__cxx1112basic_stringIcSt11char_traitsIcESaIcEE4sizeEv(ptr noundef nonnull align 8 dereferenceable(32) %0) #6
  store i64 %call, ptr %size, align 8
  %1 = load i64, ptr %size, align 8
  %2 = load i64, ptr %size, align 8
  %div = udiv i64 %2, 8
  %add = add i64 %1, %div
  invoke void @_ZNSt7__cxx1112basic_stringIcSt11char_traitsIcESaIcEE7reserveEm(ptr noundef nonnull align 8 dereferenceable(32) %agg.result, i64 noundef %add)
          to label %invoke.cont unwind label %lpad

invoke.cont:                                      ; preds = %entry
  store i64 0, ptr %i, align 8
  br label %for.cond

for.cond:                                         ; preds = %for.inc, %invoke.cont
  %3 = load i64, ptr %i, align 8
  %4 = load i64, ptr %size, align 8
  %cmp = icmp ult i64 %3, %4
  br i1 %cmp, label %for.body, label %for.end

for.body:                                         ; preds = %for.cond
  %5 = load ptr, ptr %data.addr, align 8
  %6 = load i64, ptr %i, align 8
  %call1 = call noundef nonnull align 1 dereferenceable(1) ptr @_ZNKSt7__cxx1112basic_stringIcSt11char_traitsIcESaIcEEixEm(ptr noundef nonnull align 8 dereferenceable(32) %5, i64 noundef %6) #6
  %7 = load i8, ptr %call1, align 1
  store i8 %7, ptr %c, align 1
  %8 = load i8, ptr %c, align 1
  %conv = sext i8 %8 to i32
  switch i32 %conv, label %sw.default [
    i32 38, label %sw.bb
    i32 34, label %sw.bb4
    i32 39, label %sw.bb7
    i32 60, label %sw.bb10
    i32 62, label %sw.bb13
  ]

lpad:                                             ; preds = %sw.default, %sw.bb13, %sw.bb10, %sw.bb7, %sw.bb4, %sw.bb, %entry
  %9 = landingpad { ptr, i32 }
          cleanup
  %10 = extractvalue { ptr, i32 } %9, 0
  store ptr %10, ptr %exn.slot, align 8
  %11 = extractvalue { ptr, i32 } %9, 1
  store i32 %11, ptr %ehselector.slot, align 4
  call void @_ZNSt7__cxx1112basic_stringIcSt11char_traitsIcESaIcEED1Ev(ptr noundef nonnull align 8 dereferenceable(32) %agg.result) #6
  br label %eh.resume

sw.bb:                                            ; preds = %for.body
  %call3 = invoke noundef nonnull align 8 dereferenceable(32) ptr @_ZNSt7__cxx1112basic_stringIcSt11char_traitsIcESaIcEE6appendEPKc(ptr noundef nonnull align 8 dereferenceable(32) %agg.result, ptr noundef @.str)
          to label %invoke.cont2 unwind label %lpad

invoke.cont2:                                     ; preds = %sw.bb
  br label %sw.epilog

sw.bb4:                                           ; preds = %for.body
  %call6 = invoke noundef nonnull align 8 dereferenceable(32) ptr @_ZNSt7__cxx1112basic_stringIcSt11char_traitsIcESaIcEE6appendEPKc(ptr noundef nonnull align 8 dereferenceable(32) %agg.result, ptr noundef @.str.1)
          to label %invoke.cont5 unwind label %lpad

invoke.cont5:                                     ; preds = %sw.bb4
  br label %sw.epilog

sw.bb7:                                           ; preds = %for.body
  %call9 = invoke noundef nonnull align 8 dereferenceable(32) ptr @_ZNSt7__cxx1112basic_stringIcSt11char_traitsIcESaIcEE6appendEPKc(ptr noundef nonnull align 8 dereferenceable(32) %agg.result, ptr noundef @.str.2)
          to label %invoke.cont8 unwind label %lpad

invoke.cont8:                                     ; preds = %sw.bb7
  br label %sw.epilog

sw.bb10:                                          ; preds = %for.body
  %call12 = invoke noundef nonnull align 8 dereferenceable(32) ptr @_ZNSt7__cxx1112basic_stringIcSt11char_traitsIcESaIcEE6appendEPKc(ptr noundef nonnull align 8 dereferenceable(32) %agg.result, ptr noundef @.str.3)
          to label %invoke.cont11 unwind label %lpad

invoke.cont11:                                    ; preds = %sw.bb10
  br label %sw.epilog

sw.bb13:                                          ; preds = %for.body
  %call15 = invoke noundef nonnull align 8 dereferenceable(32) ptr @_ZNSt7__cxx1112basic_stringIcSt11char_traitsIcESaIcEE6appendEPKc(ptr noundef nonnull align 8 dereferenceable(32) %agg.result, ptr noundef @.str.4)
          to label %invoke.cont14 unwind label %lpad

invoke.cont14:                                    ; preds = %sw.bb13
  br label %sw.epilog

sw.default:                                       ; preds = %for.body
  %call17 = invoke noundef nonnull align 8 dereferenceable(32) ptr @_ZNSt7__cxx1112basic_stringIcSt11char_traitsIcESaIcEE6appendEPKcm(ptr noundef nonnull align 8 dereferenceable(32) %agg.result, ptr noundef %c, i64 noundef 1)
          to label %invoke.cont16 unwind label %lpad

invoke.cont16:                                    ; preds = %sw.default
  br label %sw.epilog

sw.epilog:                                        ; preds = %invoke.cont16, %invoke.cont14, %invoke.cont11, %invoke.cont8, %invoke.cont5, %invoke.cont2
  br label %for.inc

for.inc:                                          ; preds = %sw.epilog
  %12 = load i64, ptr %i, align 8
  %inc = add i64 %12, 1
  store i64 %inc, ptr %i, align 8
  br label %for.cond, !llvm.loop !4

for.end:                                          ; preds = %for.cond
  store i1 true, ptr %nrvo, align 1
  %nrvo.val = load i1, ptr %nrvo, align 1
  br i1 %nrvo.val, label %nrvo.skipdtor, label %nrvo.unused

nrvo.unused:                                      ; preds = %for.end
  call void @_ZNSt7__cxx1112basic_stringIcSt11char_traitsIcESaIcEED1Ev(ptr noundef nonnull align 8 dereferenceable(32) %agg.result) #6
  br label %nrvo.skipdtor

nrvo.skipdtor:                                    ; preds = %nrvo.unused, %for.end
  ret void

eh.resume:                                        ; preds = %lpad
  %exn = load ptr, ptr %exn.slot, align 8
  %sel = load i32, ptr %ehselector.slot, align 4
  %lpad.val = insertvalue { ptr, i32 } poison, ptr %exn, 0
  %lpad.val18 = insertvalue { ptr, i32 } %lpad.val, i32 %sel, 1
  resume { ptr, i32 } %lpad.val18
}

; Function Attrs: nounwind
declare void @_ZNSt7__cxx1112basic_stringIcSt11char_traitsIcESaIcEEC1Ev(ptr noundef nonnull align 8 dereferenceable(32)) unnamed_addr #3

; Function Attrs: nounwind
declare noundef i64 @_ZNKSt7__cxx1112basic_stringIcSt11char_traitsIcESaIcEE4sizeEv(ptr noundef nonnull align 8 dereferenceable(32)) #3

declare void @_ZNSt7__cxx1112basic_stringIcSt11char_traitsIcESaIcEE7reserveEm(ptr noundef nonnull align 8 dereferenceable(32), i64 noundef) #4

declare i32 @__gxx_personality_v0(...)

; Function Attrs: nounwind
declare noundef nonnull align 1 dereferenceable(1) ptr @_ZNKSt7__cxx1112basic_stringIcSt11char_traitsIcESaIcEEixEm(ptr noundef nonnull align 8 dereferenceable(32), i64 noundef) #3

declare noundef nonnull align 8 dereferenceable(32) ptr @_ZNSt7__cxx1112basic_stringIcSt11char_traitsIcESaIcEE6appendEPKc(ptr noundef nonnull align 8 dereferenceable(32), ptr noundef) #4

declare noundef nonnull align 8 dereferenceable(32) ptr @_ZNSt7__cxx1112basic_stringIcSt11char_traitsIcESaIcEE6appendEPKcm(ptr noundef nonnull align 8 dereferenceable(32), ptr noundef, i64 noundef) #4

; Function Attrs: nounwind
declare void @_ZNSt7__cxx1112basic_stringIcSt11char_traitsIcESaIcEED1Ev(ptr noundef nonnull align 8 dereferenceable(32)) unnamed_addr #3

; Function Attrs: mustprogress nounwind uwtable
define linkonce_odr void @_ZN6Assimp9LogStreamD0Ev(ptr noundef nonnull align 8 dereferenceable(8) %this) unnamed_addr #0 comdat align 2 {
entry:
  %this.addr = alloca ptr, align 8
  store ptr %this, ptr %this.addr, align 8
  call void @llvm.trap() #17
  unreachable
}

; Function Attrs: mustprogress nounwind uwtable
define linkonce_odr void @_ZN6Assimp6LoggerD0Ev(ptr noundef nonnull align 8 dereferenceable(12) %this) unnamed_addr #0 comdat align 2 {
entry:
  %this.addr = alloca ptr, align 8
  store ptr %this, ptr %this.addr, align 8
  call void @llvm.trap() #17
  unreachable
}

; Function Attrs: mustprogress uwtable
define hidden void @_ZN6Assimp18ExportSceneColladaEPKcPNS_8IOSystemEPK7aiScenePKNS_16ExportPropertiesE(ptr noundef %pFile, ptr noundef %pIOSystem, ptr noundef %pScene, ptr noundef %0) #2 personality ptr @__gxx_personality_v0 {
entry:
  %pFile.addr = alloca ptr, align 8
  %pIOSystem.addr = alloca ptr, align 8
  %pScene.addr = alloca ptr, align 8
  %.addr = alloca ptr, align 8
  %path = alloca %"class.std::__cxx11::basic_string", align 8
  %ref.tmp = alloca %"class.std::__cxx11::basic_string", align 8
  %ref.tmp1 = alloca %"class.std::allocator.0", align 1
  %exn.slot = alloca ptr, align 8
  %ehselector.slot = alloca i32, align 4
  %file = alloca %"class.std::__cxx11::basic_string", align 8
  %ref.tmp4 = alloca %"class.std::__cxx11::basic_string", align 8
  %ref.tmp5 = alloca %"class.std::allocator.0", align 1
  %iDoTheExportThing = alloca %"class.Assimp::ColladaExporter", align 8
  %ref.tmp16 = alloca %"class.std::__cxx11::basic_string", align 8
  %ref.tmp17 = alloca %"class.std::__cxx11::basic_string", align 8
  %ref.tmp18 = alloca %"class.std::allocator.0", align 1
  %cleanup.isactive = alloca i1, align 1
  %outfile = alloca %"class.std::unique_ptr", align 8
  %ref.tmp35 = alloca %"class.std::__cxx11::basic_string", align 8
  %ref.tmp36 = alloca %"class.std::__cxx11::basic_string", align 8
  %ref.tmp37 = alloca %"class.std::allocator.0", align 1
  %cleanup.isactive44 = alloca i1, align 1
  %ref.tmp54 = alloca %"class.std::__cxx11::basic_string", align 8
  %ref.tmp59 = alloca %"class.std::fpos", align 8
  store ptr %pFile, ptr %pFile.addr, align 8
  store ptr %pIOSystem, ptr %pIOSystem.addr, align 8
  store ptr %pScene, ptr %pScene.addr, align 8
  store ptr %0, ptr %.addr, align 8
  %1 = load ptr, ptr %pFile.addr, align 8
  call void @_ZNSaIcEC1Ev(ptr noundef nonnull align 1 dereferenceable(1) %ref.tmp1) #6
  invoke void @_ZNSt7__cxx1112basic_stringIcSt11char_traitsIcESaIcEEC2IS3_EEPKcRKS3_(ptr noundef nonnull align 8 dereferenceable(32) %ref.tmp, ptr noundef %1, ptr noundef nonnull align 1 dereferenceable(1) %ref.tmp1)
          to label %invoke.cont unwind label %lpad

invoke.cont:                                      ; preds = %entry
  invoke void @_ZN6Assimp15DefaultIOSystem12absolutePathERKNSt7__cxx1112basic_stringIcSt11char_traitsIcESaIcEEE(ptr sret(%"class.std::__cxx11::basic_string") align 8 %path, ptr noundef nonnull align 8 dereferenceable(32) %ref.tmp)
          to label %invoke.cont3 unwind label %lpad2

invoke.cont3:                                     ; preds = %invoke.cont
  call void @_ZNSt7__cxx1112basic_stringIcSt11char_traitsIcESaIcEED1Ev(ptr noundef nonnull align 8 dereferenceable(32) %ref.tmp) #6
  call void @_ZNSaIcED1Ev(ptr noundef nonnull align 1 dereferenceable(1) %ref.tmp1) #6
  %2 = load ptr, ptr %pFile.addr, align 8
  call void @_ZNSaIcEC1Ev(ptr noundef nonnull align 1 dereferenceable(1) %ref.tmp5) #6
  invoke void @_ZNSt7__cxx1112basic_stringIcSt11char_traitsIcESaIcEEC2IS3_EEPKcRKS3_(ptr noundef nonnull align 8 dereferenceable(32) %ref.tmp4, ptr noundef %2, ptr noundef nonnull align 1 dereferenceable(1) %ref.tmp5)
          to label %invoke.cont7 unwind label %lpad6

invoke.cont7:                                     ; preds = %invoke.cont3
  invoke void @_ZN6Assimp15DefaultIOSystem16completeBaseNameERKNSt7__cxx1112basic_stringIcSt11char_traitsIcESaIcEEE(ptr sret(%"class.std::__cxx11::basic_string") align 8 %file, ptr noundef nonnull align 8 dereferenceable(32) %ref.tmp4)
          to label %invoke.cont9 unwind label %lpad8

invoke.cont9:                                     ; preds = %invoke.cont7
  call void @_ZNSt7__cxx1112basic_stringIcSt11char_traitsIcESaIcEED1Ev(ptr noundef nonnull align 8 dereferenceable(32) %ref.tmp4) #6
  call void @_ZNSaIcED1Ev(ptr noundef nonnull align 1 dereferenceable(1) %ref.tmp5) #6
  %3 = load ptr, ptr %pScene.addr, align 8
  %4 = load ptr, ptr %pIOSystem.addr, align 8
  invoke void @_ZN6Assimp15ColladaExporterC1EPK7aiScenePNS_8IOSystemERKNSt7__cxx1112basic_stringIcSt11char_traitsIcESaIcEEESD_(ptr noundef nonnull align 8 dereferenceable(1248) %iDoTheExportThing, ptr noundef %3, ptr noundef %4, ptr noundef nonnull align 8 dereferenceable(32) %path, ptr noundef nonnull align 8 dereferenceable(32) %file)
          to label %invoke.cont13 unwind label %lpad12

invoke.cont13:                                    ; preds = %invoke.cont9
  %mOutput = getelementptr inbounds %"class.Assimp::ColladaExporter", ptr %iDoTheExportThing, i32 0, i32 6
  %vtable = load ptr, ptr %mOutput, align 8
  %vbase.offset.ptr = getelementptr i8, ptr %vtable, i64 -24
  %vbase.offset = load i64, ptr %vbase.offset.ptr, align 8
  %add.ptr = getelementptr inbounds i8, ptr %mOutput, i64 %vbase.offset
  %call = invoke noundef zeroext i1 @_ZNKSt9basic_iosIcSt11char_traitsIcEE4failEv(ptr noundef nonnull align 8 dereferenceable(264) %add.ptr)
          to label %invoke.cont15 unwind label %lpad14

invoke.cont15:                                    ; preds = %invoke.cont13
  br i1 %call, label %if.then, label %if.end

if.then:                                          ; preds = %invoke.cont15
  store i1 true, ptr %cleanup.isactive, align 1
  %exception = call ptr @__cxa_allocate_exception(i64 16) #6
  %5 = load ptr, ptr %pFile.addr, align 8
  call void @_ZNSaIcEC1Ev(ptr noundef nonnull align 1 dereferenceable(1) %ref.tmp18) #6
  invoke void @_ZNSt7__cxx1112basic_stringIcSt11char_traitsIcESaIcEEC2IS3_EEPKcRKS3_(ptr noundef nonnull align 8 dereferenceable(32) %ref.tmp17, ptr noundef %5, ptr noundef nonnull align 1 dereferenceable(1) %ref.tmp18)
          to label %invoke.cont20 unwind label %lpad19

invoke.cont20:                                    ; preds = %if.then
  invoke void @_ZStplIcSt11char_traitsIcESaIcEENSt7__cxx1112basic_stringIT_T0_T1_EEPKS5_OS8_(ptr sret(%"class.std::__cxx11::basic_string") align 8 %ref.tmp16, ptr noundef @.str.5, ptr noundef nonnull align 8 dereferenceable(32) %ref.tmp17)
          to label %invoke.cont22 unwind label %lpad21

invoke.cont22:                                    ; preds = %invoke.cont20
  invoke void @_ZN17DeadlyExportErrorC2IJNSt7__cxx1112basic_stringIcSt11char_traitsIcESaIcEEEEEEDpOT_(ptr noundef nonnull align 8 dereferenceable(16) %exception, ptr noundef nonnull align 8 dereferenceable(32) %ref.tmp16)
          to label %invoke.cont24 unwind label %lpad23

invoke.cont24:                                    ; preds = %invoke.cont22
  store i1 false, ptr %cleanup.isactive, align 1
  invoke void @__cxa_throw(ptr %exception, ptr @_ZTI17DeadlyExportError, ptr @_ZN17DeadlyExportErrorD2Ev) #18
          to label %unreachable unwind label %lpad23

lpad:                                             ; preds = %entry
  %6 = landingpad { ptr, i32 }
          cleanup
  %7 = extractvalue { ptr, i32 } %6, 0
  store ptr %7, ptr %exn.slot, align 8
  %8 = extractvalue { ptr, i32 } %6, 1
  store i32 %8, ptr %ehselector.slot, align 4
  br label %ehcleanup

lpad2:                                            ; preds = %invoke.cont
  %9 = landingpad { ptr, i32 }
          cleanup
  %10 = extractvalue { ptr, i32 } %9, 0
  store ptr %10, ptr %exn.slot, align 8
  %11 = extractvalue { ptr, i32 } %9, 1
  store i32 %11, ptr %ehselector.slot, align 4
  call void @_ZNSt7__cxx1112basic_stringIcSt11char_traitsIcESaIcEED1Ev(ptr noundef nonnull align 8 dereferenceable(32) %ref.tmp) #6
  br label %ehcleanup

ehcleanup:                                        ; preds = %lpad2, %lpad
  call void @_ZNSaIcED1Ev(ptr noundef nonnull align 1 dereferenceable(1) %ref.tmp1) #6
  br label %eh.resume

lpad6:                                            ; preds = %invoke.cont3
  %12 = landingpad { ptr, i32 }
          cleanup
  %13 = extractvalue { ptr, i32 } %12, 0
  store ptr %13, ptr %exn.slot, align 8
  %14 = extractvalue { ptr, i32 } %12, 1
  store i32 %14, ptr %ehselector.slot, align 4
  br label %ehcleanup11

lpad8:                                            ; preds = %invoke.cont7
  %15 = landingpad { ptr, i32 }
          cleanup
  %16 = extractvalue { ptr, i32 } %15, 0
  store ptr %16, ptr %exn.slot, align 8
  %17 = extractvalue { ptr, i32 } %15, 1
  store i32 %17, ptr %ehselector.slot, align 4
  call void @_ZNSt7__cxx1112basic_stringIcSt11char_traitsIcESaIcEED1Ev(ptr noundef nonnull align 8 dereferenceable(32) %ref.tmp4) #6
  br label %ehcleanup11

ehcleanup11:                                      ; preds = %lpad8, %lpad6
  call void @_ZNSaIcED1Ev(ptr noundef nonnull align 1 dereferenceable(1) %ref.tmp5) #6
  br label %ehcleanup75

lpad12:                                           ; preds = %invoke.cont9
  %18 = landingpad { ptr, i32 }
          cleanup
  %19 = extractvalue { ptr, i32 } %18, 0
  store ptr %19, ptr %exn.slot, align 8
  %20 = extractvalue { ptr, i32 } %18, 1
  store i32 %20, ptr %ehselector.slot, align 4
  br label %ehcleanup74

lpad14:                                           ; preds = %if.end, %invoke.cont13
  %21 = landingpad { ptr, i32 }
          cleanup
  %22 = extractvalue { ptr, i32 } %21, 0
  store ptr %22, ptr %exn.slot, align 8
  %23 = extractvalue { ptr, i32 } %21, 1
  store i32 %23, ptr %ehselector.slot, align 4
  br label %ehcleanup73

lpad19:                                           ; preds = %if.then
  %24 = landingpad { ptr, i32 }
          cleanup
  %25 = extractvalue { ptr, i32 } %24, 0
  store ptr %25, ptr %exn.slot, align 8
  %26 = extractvalue { ptr, i32 } %24, 1
  store i32 %26, ptr %ehselector.slot, align 4
  br label %ehcleanup27

lpad21:                                           ; preds = %invoke.cont20
  %27 = landingpad { ptr, i32 }
          cleanup
  %28 = extractvalue { ptr, i32 } %27, 0
  store ptr %28, ptr %exn.slot, align 8
  %29 = extractvalue { ptr, i32 } %27, 1
  store i32 %29, ptr %ehselector.slot, align 4
  br label %ehcleanup26

lpad23:                                           ; preds = %invoke.cont24, %invoke.cont22
  %30 = landingpad { ptr, i32 }
          cleanup
  %31 = extractvalue { ptr, i32 } %30, 0
  store ptr %31, ptr %exn.slot, align 8
  %32 = extractvalue { ptr, i32 } %30, 1
  store i32 %32, ptr %ehselector.slot, align 4
  call void @_ZNSt7__cxx1112basic_stringIcSt11char_traitsIcESaIcEED1Ev(ptr noundef nonnull align 8 dereferenceable(32) %ref.tmp16) #6
  br label %ehcleanup26

ehcleanup26:                                      ; preds = %lpad23, %lpad21
  call void @_ZNSt7__cxx1112basic_stringIcSt11char_traitsIcESaIcEED1Ev(ptr noundef nonnull align 8 dereferenceable(32) %ref.tmp17) #6
  br label %ehcleanup27

ehcleanup27:                                      ; preds = %ehcleanup26, %lpad19
  call void @_ZNSaIcED1Ev(ptr noundef nonnull align 1 dereferenceable(1) %ref.tmp18) #6
  %cleanup.is_active = load i1, ptr %cleanup.isactive, align 1
  br i1 %cleanup.is_active, label %cleanup.action, label %cleanup.done

cleanup.action:                                   ; preds = %ehcleanup27
  call void @__cxa_free_exception(ptr %exception) #6
  br label %cleanup.done

cleanup.done:                                     ; preds = %cleanup.action, %ehcleanup27
  br label %ehcleanup73

if.end:                                           ; preds = %invoke.cont15
  %33 = load ptr, ptr %pIOSystem.addr, align 8
  %34 = load ptr, ptr %pFile.addr, align 8
  %vtable29 = load ptr, ptr %33, align 8
  %vfn = getelementptr inbounds ptr, ptr %vtable29, i64 4
  %35 = load ptr, ptr %vfn, align 8
  %call31 = invoke noundef ptr %35(ptr noundef nonnull align 8 dereferenceable(32) %33, ptr noundef %34, ptr noundef @.str.6)
          to label %invoke.cont30 unwind label %lpad14

invoke.cont30:                                    ; preds = %if.end
  call void @_ZNSt10unique_ptrIN6Assimp8IOStreamESt14default_deleteIS1_EEC2IS3_vEEPS1_(ptr noundef nonnull align 8 dereferenceable(8) %outfile, ptr noundef %call31) #6
  %call32 = call noundef zeroext i1 @_ZSteqIN6Assimp8IOStreamESt14default_deleteIS1_EEbRKSt10unique_ptrIT_T0_EDn(ptr noundef nonnull align 8 dereferenceable(8) %outfile, ptr null) #6
  br i1 %call32, label %if.then33, label %if.end52

if.then33:                                        ; preds = %invoke.cont30
  store i1 true, ptr %cleanup.isactive44, align 1
  %exception34 = call ptr @__cxa_allocate_exception(i64 16) #6
  %36 = load ptr, ptr %pFile.addr, align 8
  call void @_ZNSaIcEC1Ev(ptr noundef nonnull align 1 dereferenceable(1) %ref.tmp37) #6
  invoke void @_ZNSt7__cxx1112basic_stringIcSt11char_traitsIcESaIcEEC2IS3_EEPKcRKS3_(ptr noundef nonnull align 8 dereferenceable(32) %ref.tmp36, ptr noundef %36, ptr noundef nonnull align 1 dereferenceable(1) %ref.tmp37)
          to label %invoke.cont39 unwind label %lpad38

invoke.cont39:                                    ; preds = %if.then33
  invoke void @_ZStplIcSt11char_traitsIcESaIcEENSt7__cxx1112basic_stringIT_T0_T1_EEPKS5_OS8_(ptr sret(%"class.std::__cxx11::basic_string") align 8 %ref.tmp35, ptr noundef @.str.7, ptr noundef nonnull align 8 dereferenceable(32) %ref.tmp36)
          to label %invoke.cont41 unwind label %lpad40

invoke.cont41:                                    ; preds = %invoke.cont39
  invoke void @_ZN17DeadlyExportErrorC2IJNSt7__cxx1112basic_stringIcSt11char_traitsIcESaIcEEEEEEDpOT_(ptr noundef nonnull align 8 dereferenceable(16) %exception34, ptr noundef nonnull align 8 dereferenceable(32) %ref.tmp35)
          to label %invoke.cont43 unwind label %lpad42

invoke.cont43:                                    ; preds = %invoke.cont41
  store i1 false, ptr %cleanup.isactive44, align 1
  invoke void @__cxa_throw(ptr %exception34, ptr @_ZTI17DeadlyExportError, ptr @_ZN17DeadlyExportErrorD2Ev) #18
          to label %unreachable unwind label %lpad42

lpad38:                                           ; preds = %if.then33
  %37 = landingpad { ptr, i32 }
          cleanup
  %38 = extractvalue { ptr, i32 } %37, 0
  store ptr %38, ptr %exn.slot, align 8
  %39 = extractvalue { ptr, i32 } %37, 1
  store i32 %39, ptr %ehselector.slot, align 4
  br label %ehcleanup47

lpad40:                                           ; preds = %invoke.cont39
  %40 = landingpad { ptr, i32 }
          cleanup
  %41 = extractvalue { ptr, i32 } %40, 0
  store ptr %41, ptr %exn.slot, align 8
  %42 = extractvalue { ptr, i32 } %40, 1
  store i32 %42, ptr %ehselector.slot, align 4
  br label %ehcleanup46

lpad42:                                           ; preds = %invoke.cont43, %invoke.cont41
  %43 = landingpad { ptr, i32 }
          cleanup
  %44 = extractvalue { ptr, i32 } %43, 0
  store ptr %44, ptr %exn.slot, align 8
  %45 = extractvalue { ptr, i32 } %43, 1
  store i32 %45, ptr %ehselector.slot, align 4
  call void @_ZNSt7__cxx1112basic_stringIcSt11char_traitsIcESaIcEED1Ev(ptr noundef nonnull align 8 dereferenceable(32) %ref.tmp35) #6
  br label %ehcleanup46

ehcleanup46:                                      ; preds = %lpad42, %lpad40
  call void @_ZNSt7__cxx1112basic_stringIcSt11char_traitsIcESaIcEED1Ev(ptr noundef nonnull align 8 dereferenceable(32) %ref.tmp36) #6
  br label %ehcleanup47

ehcleanup47:                                      ; preds = %ehcleanup46, %lpad38
  call void @_ZNSaIcED1Ev(ptr noundef nonnull align 1 dereferenceable(1) %ref.tmp37) #6
  %cleanup.is_active49 = load i1, ptr %cleanup.isactive44, align 1
  br i1 %cleanup.is_active49, label %cleanup.action50, label %cleanup.done51

cleanup.action50:                                 ; preds = %ehcleanup47
  call void @__cxa_free_exception(ptr %exception34) #6
  br label %cleanup.done51

cleanup.done51:                                   ; preds = %cleanup.action50, %ehcleanup47
  br label %ehcleanup72

if.end52:                                         ; preds = %invoke.cont30
  %call53 = call noundef ptr @_ZNKSt10unique_ptrIN6Assimp8IOStreamESt14default_deleteIS1_EEptEv(ptr noundef nonnull align 8 dereferenceable(8) %outfile) #6
  %mOutput55 = getelementptr inbounds %"class.Assimp::ColladaExporter", ptr %iDoTheExportThing, i32 0, i32 6
  invoke void @_ZNKSt7__cxx1118basic_stringstreamIcSt11char_traitsIcESaIcEE3strEv(ptr sret(%"class.std::__cxx11::basic_string") align 8 %ref.tmp54, ptr noundef nonnull align 8 dereferenceable(128) %mOutput55)
          to label %invoke.cont57 unwind label %lpad56

invoke.cont57:                                    ; preds = %if.end52
  %call58 = call noundef ptr @_ZNKSt7__cxx1112basic_stringIcSt11char_traitsIcESaIcEE5c_strEv(ptr noundef nonnull align 8 dereferenceable(32) %ref.tmp54) #6
  %mOutput60 = getelementptr inbounds %"class.Assimp::ColladaExporter", ptr %iDoTheExportThing, i32 0, i32 6
  %add.ptr61 = getelementptr inbounds i8, ptr %mOutput60, i64 16
  %call64 = invoke { i64, i64 } @_ZNSo5tellpEv(ptr noundef nonnull align 8 dereferenceable(8) %add.ptr61)
          to label %invoke.cont63 unwind label %lpad62

invoke.cont63:                                    ; preds = %invoke.cont57
  %46 = getelementptr inbounds { i64, i64 }, ptr %ref.tmp59, i32 0, i32 0
  %47 = extractvalue { i64, i64 } %call64, 0
  store i64 %47, ptr %46, align 8
  %48 = getelementptr inbounds { i64, i64 }, ptr %ref.tmp59, i32 0, i32 1
  %49 = extractvalue { i64, i64 } %call64, 1
  store i64 %49, ptr %48, align 8
  %call66 = invoke noundef i64 @_ZNKSt4fposI11__mbstate_tEcvlEv(ptr noundef nonnull align 8 dereferenceable(16) %ref.tmp59)
          to label %invoke.cont65 unwind label %lpad62

invoke.cont65:                                    ; preds = %invoke.cont63
  %vtable67 = load ptr, ptr %call53, align 8
  %vfn68 = getelementptr inbounds ptr, ptr %vtable67, i64 3
  %50 = load ptr, ptr %vfn68, align 8
  %call70 = invoke noundef i64 %50(ptr noundef nonnull align 8 dereferenceable(8) %call53, ptr noundef %call58, i64 noundef %call66, i64 noundef 1)
          to label %invoke.cont69 unwind label %lpad62

invoke.cont69:                                    ; preds = %invoke.cont65
  call void @_ZNSt7__cxx1112basic_stringIcSt11char_traitsIcESaIcEED1Ev(ptr noundef nonnull align 8 dereferenceable(32) %ref.tmp54) #6
  call void @_ZNSt10unique_ptrIN6Assimp8IOStreamESt14default_deleteIS1_EED2Ev(ptr noundef nonnull align 8 dereferenceable(8) %outfile) #6
  call void @_ZN6Assimp15ColladaExporterD1Ev(ptr noundef nonnull align 8 dereferenceable(1248) %iDoTheExportThing) #6
  call void @_ZNSt7__cxx1112basic_stringIcSt11char_traitsIcESaIcEED1Ev(ptr noundef nonnull align 8 dereferenceable(32) %file) #6
  call void @_ZNSt7__cxx1112basic_stringIcSt11char_traitsIcESaIcEED1Ev(ptr noundef nonnull align 8 dereferenceable(32) %path) #6
  ret void

lpad56:                                           ; preds = %if.end52
  %51 = landingpad { ptr, i32 }
          cleanup
  %52 = extractvalue { ptr, i32 } %51, 0
  store ptr %52, ptr %exn.slot, align 8
  %53 = extractvalue { ptr, i32 } %51, 1
  store i32 %53, ptr %ehselector.slot, align 4
  br label %ehcleanup72

lpad62:                                           ; preds = %invoke.cont65, %invoke.cont63, %invoke.cont57
  %54 = landingpad { ptr, i32 }
          cleanup
  %55 = extractvalue { ptr, i32 } %54, 0
  store ptr %55, ptr %exn.slot, align 8
  %56 = extractvalue { ptr, i32 } %54, 1
  store i32 %56, ptr %ehselector.slot, align 4
  call void @_ZNSt7__cxx1112basic_stringIcSt11char_traitsIcESaIcEED1Ev(ptr noundef nonnull align 8 dereferenceable(32) %ref.tmp54) #6
  br label %ehcleanup72

ehcleanup72:                                      ; preds = %lpad62, %lpad56, %cleanup.done51
  call void @_ZNSt10unique_ptrIN6Assimp8IOStreamESt14default_deleteIS1_EED2Ev(ptr noundef nonnull align 8 dereferenceable(8) %outfile) #6
  br label %ehcleanup73

ehcleanup73:                                      ; preds = %ehcleanup72, %cleanup.done, %lpad14
  call void @_ZN6Assimp15ColladaExporterD1Ev(ptr noundef nonnull align 8 dereferenceable(1248) %iDoTheExportThing) #6
  br label %ehcleanup74

ehcleanup74:                                      ; preds = %ehcleanup73, %lpad12
  call void @_ZNSt7__cxx1112basic_stringIcSt11char_traitsIcESaIcEED1Ev(ptr noundef nonnull align 8 dereferenceable(32) %file) #6
  br label %ehcleanup75

ehcleanup75:                                      ; preds = %ehcleanup74, %ehcleanup11
  call void @_ZNSt7__cxx1112basic_stringIcSt11char_traitsIcESaIcEED1Ev(ptr noundef nonnull align 8 dereferenceable(32) %path) #6
  br label %eh.resume

eh.resume:                                        ; preds = %ehcleanup75, %ehcleanup
  %exn = load ptr, ptr %exn.slot, align 8
  %sel = load i32, ptr %ehselector.slot, align 4
  %lpad.val = insertvalue { ptr, i32 } poison, ptr %exn, 0
  %lpad.val76 = insertvalue { ptr, i32 } %lpad.val, i32 %sel, 1
  resume { ptr, i32 } %lpad.val76

unreachable:                                      ; preds = %invoke.cont43, %invoke.cont24
  unreachable
}

declare void @_ZN6Assimp15DefaultIOSystem12absolutePathERKNSt7__cxx1112basic_stringIcSt11char_traitsIcESaIcEEE(ptr sret(%"class.std::__cxx11::basic_string") align 8, ptr noundef nonnull align 8 dereferenceable(32)) #4

; Function Attrs: nounwind
declare void @_ZNSaIcEC1Ev(ptr noundef nonnull align 1 dereferenceable(1)) unnamed_addr #3

; Function Attrs: mustprogress uwtable
define linkonce_odr void @_ZNSt7__cxx1112basic_stringIcSt11char_traitsIcESaIcEEC2IS3_EEPKcRKS3_(ptr noundef nonnull align 8 dereferenceable(32) %this, ptr noundef %__s, ptr noundef nonnull align 1 dereferenceable(1) %__a) unnamed_addr #2 comdat align 2 personality ptr @__gxx_personality_v0 {
entry:
  %this.addr = alloca ptr, align 8
  %__s.addr = alloca ptr, align 8
  %__a.addr = alloca ptr, align 8
  %exn.slot = alloca ptr, align 8
  %ehselector.slot = alloca i32, align 4
  %__end = alloca ptr, align 8
  store ptr %this, ptr %this.addr, align 8
  store ptr %__s, ptr %__s.addr, align 8
  store ptr %__a, ptr %__a.addr, align 8
  %this1 = load ptr, ptr %this.addr, align 8
  %_M_dataplus = getelementptr inbounds %"class.std::__cxx11::basic_string", ptr %this1, i32 0, i32 0
  %call = call noundef ptr @_ZNSt7__cxx1112basic_stringIcSt11char_traitsIcESaIcEE13_M_local_dataEv(ptr noundef nonnull align 8 dereferenceable(32) %this1)
  %0 = load ptr, ptr %__a.addr, align 8
  call void @_ZNSt7__cxx1112basic_stringIcSt11char_traitsIcESaIcEE12_Alloc_hiderC1EPcRKS3_(ptr noundef nonnull align 8 dereferenceable(8) %_M_dataplus, ptr noundef %call, ptr noundef nonnull align 1 dereferenceable(1) %0)
  %1 = load ptr, ptr %__s.addr, align 8
  %cmp = icmp eq ptr %1, null
  br i1 %cmp, label %if.then, label %if.end

if.then:                                          ; preds = %entry
  invoke void @_ZSt19__throw_logic_errorPKc(ptr noundef @.str.352) #18
          to label %invoke.cont unwind label %lpad

invoke.cont:                                      ; preds = %if.then
  unreachable

lpad:                                             ; preds = %invoke.cont2, %if.end, %if.then
  %2 = landingpad { ptr, i32 }
          cleanup
  %3 = extractvalue { ptr, i32 } %2, 0
  store ptr %3, ptr %exn.slot, align 8
  %4 = extractvalue { ptr, i32 } %2, 1
  store i32 %4, ptr %ehselector.slot, align 4
  call void @_ZNSt7__cxx1112basic_stringIcSt11char_traitsIcESaIcEE12_Alloc_hiderD2Ev(ptr noundef nonnull align 8 dereferenceable(8) %_M_dataplus) #6
  br label %eh.resume

if.end:                                           ; preds = %entry
  %5 = load ptr, ptr %__s.addr, align 8
  %6 = load ptr, ptr %__s.addr, align 8
  %call3 = invoke noundef i64 @_ZNSt11char_traitsIcE6lengthEPKc(ptr noundef %6)
          to label %invoke.cont2 unwind label %lpad

invoke.cont2:                                     ; preds = %if.end
  %add.ptr = getelementptr inbounds i8, ptr %5, i64 %call3
  store ptr %add.ptr, ptr %__end, align 8
  %7 = load ptr, ptr %__s.addr, align 8
  %8 = load ptr, ptr %__end, align 8
  invoke void @_ZNSt7__cxx1112basic_stringIcSt11char_traitsIcESaIcEE12_M_constructIPKcEEvT_S8_St20forward_iterator_tag(ptr noundef nonnull align 8 dereferenceable(32) %this1, ptr noundef %7, ptr noundef %8)
          to label %invoke.cont4 unwind label %lpad

invoke.cont4:                                     ; preds = %invoke.cont2
  ret void

eh.resume:                                        ; preds = %lpad
  %exn = load ptr, ptr %exn.slot, align 8
  %sel = load i32, ptr %ehselector.slot, align 4
  %lpad.val = insertvalue { ptr, i32 } poison, ptr %exn, 0
  %lpad.val5 = insertvalue { ptr, i32 } %lpad.val, i32 %sel, 1
  resume { ptr, i32 } %lpad.val5
}

; Function Attrs: nounwind
declare void @_ZNSaIcED1Ev(ptr noundef nonnull align 1 dereferenceable(1)) unnamed_addr #3

declare void @_ZN6Assimp15DefaultIOSystem16completeBaseNameERKNSt7__cxx1112basic_stringIcSt11char_traitsIcESaIcEEE(ptr sret(%"class.std::__cxx11::basic_string") align 8, ptr noundef nonnull align 8 dereferenceable(32)) #4

declare noundef zeroext i1 @_ZNKSt9basic_iosIcSt11char_traitsIcEE4failEv(ptr noundef nonnull align 8 dereferenceable(264)) #4

declare ptr @__cxa_allocate_exception(i64)

; Function Attrs: mustprogress uwtable
define linkonce_odr void @_ZStplIcSt11char_traitsIcESaIcEENSt7__cxx1112basic_stringIT_T0_T1_EEPKS5_OS8_(ptr noalias sret(%"class.std::__cxx11::basic_string") align 8 %agg.result, ptr noundef %__lhs, ptr noundef nonnull align 8 dereferenceable(32) %__rhs) #2 comdat {
entry:
  %result.ptr = alloca ptr, align 8
  %__lhs.addr = alloca ptr, align 8
  %__rhs.addr = alloca ptr, align 8
  store ptr %agg.result, ptr %result.ptr, align 8
  store ptr %__lhs, ptr %__lhs.addr, align 8
  store ptr %__rhs, ptr %__rhs.addr, align 8
  %0 = load ptr, ptr %__rhs.addr, align 8
  %1 = load ptr, ptr %__lhs.addr, align 8
  %call = call noundef nonnull align 8 dereferenceable(32) ptr @_ZNSt7__cxx1112basic_stringIcSt11char_traitsIcESaIcEE6insertEmPKc(ptr noundef nonnull align 8 dereferenceable(32) %0, i64 noundef 0, ptr noundef %1)
  call void @_ZNSt7__cxx1112basic_stringIcSt11char_traitsIcESaIcEEC1EOS4_(ptr noundef nonnull align 8 dereferenceable(32) %agg.result, ptr noundef nonnull align 8 dereferenceable(32) %call) #6
  ret void
}

; Function Attrs: mustprogress uwtable
define linkonce_odr void @_ZN17DeadlyExportErrorC2IJNSt7__cxx1112basic_stringIcSt11char_traitsIcESaIcEEEEEEDpOT_(ptr noundef nonnull align 8 dereferenceable(16) %this, ptr noundef nonnull align 8 dereferenceable(32) %args) unnamed_addr #2 comdat align 2 personality ptr @__gxx_personality_v0 {
entry:
  %this.addr = alloca ptr, align 8
  %args.addr = alloca ptr, align 8
  %agg.tmp = alloca %"class.Assimp::Formatter::basic_formatter", align 8
  %exn.slot = alloca ptr, align 8
  %ehselector.slot = alloca i32, align 4
  store ptr %this, ptr %this.addr, align 8
  store ptr %args, ptr %args.addr, align 8
  %this1 = load ptr, ptr %this.addr, align 8
  call void @_ZN6Assimp9Formatter15basic_formatterIcSt11char_traitsIcESaIcEEC2Ev(ptr noundef nonnull align 8 dereferenceable(376) %agg.tmp)
  %0 = load ptr, ptr %args.addr, align 8
  invoke void @_ZN15DeadlyErrorBaseC2IJENSt7__cxx1112basic_stringIcSt11char_traitsIcESaIcEEEEEN6Assimp9Formatter15basic_formatterIcS4_S5_EEOT0_DpOT_(ptr noundef nonnull align 8 dereferenceable(16) %this1, ptr noundef %agg.tmp, ptr noundef nonnull align 8 dereferenceable(32) %0)
          to label %invoke.cont unwind label %lpad

invoke.cont:                                      ; preds = %entry
  call void @_ZN6Assimp9Formatter15basic_formatterIcSt11char_traitsIcESaIcEED2Ev(ptr noundef nonnull align 8 dereferenceable(376) %agg.tmp) #6
  store ptr getelementptr inbounds ({ [5 x ptr] }, ptr @_ZTV17DeadlyExportError, i32 0, inrange i32 0, i32 2), ptr %this1, align 8
  ret void

lpad:                                             ; preds = %entry
  %1 = landingpad { ptr, i32 }
          cleanup
  %2 = extractvalue { ptr, i32 } %1, 0
  store ptr %2, ptr %exn.slot, align 8
  %3 = extractvalue { ptr, i32 } %1, 1
  store i32 %3, ptr %ehselector.slot, align 4
  call void @_ZN6Assimp9Formatter15basic_formatterIcSt11char_traitsIcESaIcEED2Ev(ptr noundef nonnull align 8 dereferenceable(376) %agg.tmp) #6
  br label %eh.resume

eh.resume:                                        ; preds = %lpad
  %exn = load ptr, ptr %exn.slot, align 8
  %sel = load i32, ptr %ehselector.slot, align 4
  %lpad.val = insertvalue { ptr, i32 } poison, ptr %exn, 0
  %lpad.val2 = insertvalue { ptr, i32 } %lpad.val, i32 %sel, 1
  resume { ptr, i32 } %lpad.val2
}

; Function Attrs: mustprogress nounwind uwtable
define linkonce_odr void @_ZN17DeadlyExportErrorD2Ev(ptr noundef nonnull align 8 dereferenceable(16) %this) unnamed_addr #0 comdat align 2 {
entry:
  %this.addr = alloca ptr, align 8
  store ptr %this, ptr %this.addr, align 8
  %this1 = load ptr, ptr %this.addr, align 8
  call void @_ZN15DeadlyErrorBaseD2Ev(ptr noundef nonnull align 8 dereferenceable(16) %this1) #6
  ret void
}

declare void @__cxa_throw(ptr, ptr, ptr)

declare void @__cxa_free_exception(ptr)

; Function Attrs: mustprogress nounwind uwtable
define linkonce_odr void @_ZNSt10unique_ptrIN6Assimp8IOStreamESt14default_deleteIS1_EEC2IS3_vEEPS1_(ptr noundef nonnull align 8 dereferenceable(8) %this, ptr noundef %__p) unnamed_addr #0 comdat align 2 personality ptr @__gxx_personality_v0 {
entry:
  %this.addr = alloca ptr, align 8
  %__p.addr = alloca ptr, align 8
  store ptr %this, ptr %this.addr, align 8
  store ptr %__p, ptr %__p.addr, align 8
  %this1 = load ptr, ptr %this.addr, align 8
  %_M_t = getelementptr inbounds %"class.std::unique_ptr", ptr %this1, i32 0, i32 0
  %0 = load ptr, ptr %__p.addr, align 8
  invoke void @_ZNSt15__uniq_ptr_dataIN6Assimp8IOStreamESt14default_deleteIS1_ELb1ELb1EECI2St15__uniq_ptr_implIS1_S3_EEPS1_(ptr noundef nonnull align 8 dereferenceable(8) %_M_t, ptr noundef %0)
          to label %invoke.cont unwind label %terminate.lpad

invoke.cont:                                      ; preds = %entry
  ret void

terminate.lpad:                                   ; preds = %entry
  %1 = landingpad { ptr, i32 }
          catch ptr null
  %2 = extractvalue { ptr, i32 } %1, 0
  call void @__clang_call_terminate(ptr %2) #17
  unreachable
}

; Function Attrs: mustprogress nounwind uwtable
define linkonce_odr noundef zeroext i1 @_ZSteqIN6Assimp8IOStreamESt14default_deleteIS1_EEbRKSt10unique_ptrIT_T0_EDn(ptr noundef nonnull align 8 dereferenceable(8) %__x, ptr %0) #0 comdat {
entry:
  %__x.addr = alloca ptr, align 8
  %.addr = alloca ptr, align 8
  store ptr %__x, ptr %__x.addr, align 8
  store ptr %0, ptr %.addr, align 8
  %1 = load ptr, ptr %__x.addr, align 8
  %call = call noundef zeroext i1 @_ZNKSt10unique_ptrIN6Assimp8IOStreamESt14default_deleteIS1_EEcvbEv(ptr noundef nonnull align 8 dereferenceable(8) %1) #6
  %lnot = xor i1 %call, true
  ret i1 %lnot
}

; Function Attrs: mustprogress nounwind uwtable
define linkonce_odr noundef ptr @_ZNKSt10unique_ptrIN6Assimp8IOStreamESt14default_deleteIS1_EEptEv(ptr noundef nonnull align 8 dereferenceable(8) %this) #0 comdat align 2 {
entry:
  %this.addr = alloca ptr, align 8
  store ptr %this, ptr %this.addr, align 8
  %this1 = load ptr, ptr %this.addr, align 8
  %call = call noundef ptr @_ZNKSt10unique_ptrIN6Assimp8IOStreamESt14default_deleteIS1_EE3getEv(ptr noundef nonnull align 8 dereferenceable(8) %this1) #6
  ret ptr %call
}

declare void @_ZNKSt7__cxx1118basic_stringstreamIcSt11char_traitsIcESaIcEE3strEv(ptr sret(%"class.std::__cxx11::basic_string") align 8, ptr noundef nonnull align 8 dereferenceable(128)) #4

; Function Attrs: nounwind
declare noundef ptr @_ZNKSt7__cxx1112basic_stringIcSt11char_traitsIcESaIcEE5c_strEv(ptr noundef nonnull align 8 dereferenceable(32)) #3

declare { i64, i64 } @_ZNSo5tellpEv(ptr noundef nonnull align 8 dereferenceable(8)) #4

; Function Attrs: mustprogress nounwind uwtable
define linkonce_odr hidden noundef i64 @_ZNKSt4fposI11__mbstate_tEcvlEv(ptr noundef nonnull align 8 dereferenceable(16) %this) #0 comdat align 2 {
entry:
  %this.addr = alloca ptr, align 8
  store ptr %this, ptr %this.addr, align 8
  %this1 = load ptr, ptr %this.addr, align 8
  %_M_off = getelementptr inbounds %"class.std::fpos", ptr %this1, i32 0, i32 0
  %0 = load i64, ptr %_M_off, align 8
  ret i64 %0
}

; Function Attrs: mustprogress nounwind uwtable
define linkonce_odr void @_ZNSt10unique_ptrIN6Assimp8IOStreamESt14default_deleteIS1_EED2Ev(ptr noundef nonnull align 8 dereferenceable(8) %this) unnamed_addr #0 comdat align 2 personality ptr @__gxx_personality_v0 {
entry:
  %this.addr = alloca ptr, align 8
  %__ptr = alloca ptr, align 8
  store ptr %this, ptr %this.addr, align 8
  %this1 = load ptr, ptr %this.addr, align 8
  %_M_t = getelementptr inbounds %"class.std::unique_ptr", ptr %this1, i32 0, i32 0
  %call = call noundef nonnull align 8 dereferenceable(8) ptr @_ZNSt15__uniq_ptr_implIN6Assimp8IOStreamESt14default_deleteIS1_EE6_M_ptrEv(ptr noundef nonnull align 8 dereferenceable(8) %_M_t) #6
  store ptr %call, ptr %__ptr, align 8
  %0 = load ptr, ptr %__ptr, align 8
  %1 = load ptr, ptr %0, align 8
  %cmp = icmp ne ptr %1, null
  br i1 %cmp, label %if.then, label %if.end

if.then:                                          ; preds = %entry
  %call2 = call noundef nonnull align 1 dereferenceable(1) ptr @_ZNSt10unique_ptrIN6Assimp8IOStreamESt14default_deleteIS1_EE11get_deleterEv(ptr noundef nonnull align 8 dereferenceable(8) %this1) #6
  %2 = load ptr, ptr %__ptr, align 8
  %3 = load ptr, ptr %2, align 8
  invoke void @_ZNKSt14default_deleteIN6Assimp8IOStreamEEclEPS1_(ptr noundef nonnull align 1 dereferenceable(1) %call2, ptr noundef %3)
          to label %invoke.cont unwind label %terminate.lpad

invoke.cont:                                      ; preds = %if.then
  br label %if.end

if.end:                                           ; preds = %invoke.cont, %entry
  %4 = load ptr, ptr %__ptr, align 8
  store ptr null, ptr %4, align 8
  ret void

terminate.lpad:                                   ; preds = %if.then
  %5 = landingpad { ptr, i32 }
          catch ptr null
  %6 = extractvalue { ptr, i32 } %5, 0
  call void @__clang_call_terminate(ptr %6) #17
  unreachable
}

; Function Attrs: mustprogress uwtable
define hidden void @_ZN6Assimp15ColladaExporterC2EPK7aiScenePNS_8IOSystemERKNSt7__cxx1112basic_stringIcSt11char_traitsIcESaIcEEESD_(ptr noundef nonnull align 8 dereferenceable(1248) %this, ptr noundef %pScene, ptr noundef %pIOSystem, ptr noundef nonnull align 8 dereferenceable(32) %path, ptr noundef nonnull align 8 dereferenceable(32) %file) unnamed_addr #2 align 2 personality ptr @__gxx_personality_v0 {
entry:
  %this.addr = alloca ptr, align 8
  %pScene.addr = alloca ptr, align 8
  %pIOSystem.addr = alloca ptr, align 8
  %path.addr = alloca ptr, align 8
  %file.addr = alloca ptr, align 8
  %ref.tmp = alloca %"class.std::allocator.0", align 1
  %exn.slot = alloca ptr, align 8
  %ehselector.slot = alloca i32, align 4
  %ref.tmp8 = alloca %"class.std::allocator.0", align 1
  %agg.tmp.ensured = alloca %"class.std::locale", align 8
  %ref.tmp12 = alloca %"class.std::locale", align 8
  store ptr %this, ptr %this.addr, align 8
  store ptr %pScene, ptr %pScene.addr, align 8
  store ptr %pIOSystem, ptr %pIOSystem.addr, align 8
  store ptr %path, ptr %path.addr, align 8
  store ptr %file, ptr %file.addr, align 8
  %this1 = load ptr, ptr %this.addr, align 8
  store ptr getelementptr inbounds ({ [4 x ptr] }, ptr @_ZTVN6Assimp15ColladaExporterE, i32 0, inrange i32 0, i32 2), ptr %this1, align 8
  %mFoundSkeletonRootNodeID = getelementptr inbounds %"class.Assimp::ColladaExporter", ptr %this1, i32 0, i32 1
  call void @_ZNSaIcEC1Ev(ptr noundef nonnull align 1 dereferenceable(1) %ref.tmp) #6
  invoke void @_ZNSt7__cxx1112basic_stringIcSt11char_traitsIcESaIcEEC2IS3_EEPKcRKS3_(ptr noundef nonnull align 8 dereferenceable(32) %mFoundSkeletonRootNodeID, ptr noundef @.str.8, ptr noundef nonnull align 1 dereferenceable(1) %ref.tmp)
          to label %invoke.cont unwind label %lpad

invoke.cont:                                      ; preds = %entry
  call void @_ZNSaIcED1Ev(ptr noundef nonnull align 1 dereferenceable(1) %ref.tmp) #6
  %mUniqueIds = getelementptr inbounds %"class.Assimp::ColladaExporter", ptr %this1, i32 0, i32 2
  call void @_ZNSt13unordered_setINSt7__cxx1112basic_stringIcSt11char_traitsIcESaIcEEESt4hashIS5_ESt8equal_toIS5_ESaIS5_EEC2Ev(ptr noundef nonnull align 8 dereferenceable(56) %mUniqueIds) #6
  %mNodeIdMap = getelementptr inbounds %"class.Assimp::ColladaExporter", ptr %this1, i32 0, i32 3
  call void @_ZNSt3mapIPKvNSt7__cxx1112basic_stringIcSt11char_traitsIcESaIcEEESt4lessIS1_ESaISt4pairIKS1_S7_EEEC2Ev(ptr noundef nonnull align 8 dereferenceable(48) %mNodeIdMap) #6
  %mObjectIdMap = getelementptr inbounds %"class.Assimp::ColladaExporter", ptr %this1, i32 0, i32 4
  call void @_ZNSt5arrayISt3mapImNSt7__cxx1112basic_stringIcSt11char_traitsIcESaIcEEESt4lessImESaISt4pairIKmS6_EEELm5EEC2Ev(ptr noundef nonnull align 8 dereferenceable(240) %mObjectIdMap) #6
  %mObjectNameMap = getelementptr inbounds %"class.Assimp::ColladaExporter", ptr %this1, i32 0, i32 5
  call void @_ZNSt5arrayISt3mapImNSt7__cxx1112basic_stringIcSt11char_traitsIcESaIcEEESt4lessImESaISt4pairIKmS6_EEELm5EEC2Ev(ptr noundef nonnull align 8 dereferenceable(240) %mObjectNameMap) #6
  %mOutput = getelementptr inbounds %"class.Assimp::ColladaExporter", ptr %this1, i32 0, i32 6
  invoke void @_ZNSt7__cxx1118basic_stringstreamIcSt11char_traitsIcESaIcEEC1Ev(ptr noundef nonnull align 8 dereferenceable(128) %mOutput)
          to label %invoke.cont3 unwind label %lpad2

invoke.cont3:                                     ; preds = %invoke.cont
  %mIOSystem = getelementptr inbounds %"class.Assimp::ColladaExporter", ptr %this1, i32 0, i32 7
  %0 = load ptr, ptr %pIOSystem.addr, align 8
  store ptr %0, ptr %mIOSystem, align 8
  %mPath = getelementptr inbounds %"class.Assimp::ColladaExporter", ptr %this1, i32 0, i32 8
  %1 = load ptr, ptr %path.addr, align 8
  invoke void @_ZNSt7__cxx1112basic_stringIcSt11char_traitsIcESaIcEEC1ERKS4_(ptr noundef nonnull align 8 dereferenceable(32) %mPath, ptr noundef nonnull align 8 dereferenceable(32) %1)
          to label %invoke.cont5 unwind label %lpad4

invoke.cont5:                                     ; preds = %invoke.cont3
  %mFile = getelementptr inbounds %"class.Assimp::ColladaExporter", ptr %this1, i32 0, i32 9
  %2 = load ptr, ptr %file.addr, align 8
  invoke void @_ZNSt7__cxx1112basic_stringIcSt11char_traitsIcESaIcEEC1ERKS4_(ptr noundef nonnull align 8 dereferenceable(32) %mFile, ptr noundef nonnull align 8 dereferenceable(32) %2)
          to label %invoke.cont7 unwind label %lpad6

invoke.cont7:                                     ; preds = %invoke.cont5
  %mScene = getelementptr inbounds %"class.Assimp::ColladaExporter", ptr %this1, i32 0, i32 10
  %3 = load ptr, ptr %pScene.addr, align 8
  store ptr %3, ptr %mScene, align 8
  %mSceneId = getelementptr inbounds %"class.Assimp::ColladaExporter", ptr %this1, i32 0, i32 11
  call void @_ZNSt7__cxx1112basic_stringIcSt11char_traitsIcESaIcEEC1Ev(ptr noundef nonnull align 8 dereferenceable(32) %mSceneId) #6
  %mAdd_root_node = getelementptr inbounds %"class.Assimp::ColladaExporter", ptr %this1, i32 0, i32 12
  store i8 0, ptr %mAdd_root_node, align 8
  %startstr = getelementptr inbounds %"class.Assimp::ColladaExporter", ptr %this1, i32 0, i32 13
  call void @_ZNSt7__cxx1112basic_stringIcSt11char_traitsIcESaIcEEC1Ev(ptr noundef nonnull align 8 dereferenceable(32) %startstr) #6
  %endstr = getelementptr inbounds %"class.Assimp::ColladaExporter", ptr %this1, i32 0, i32 14
  call void @_ZNSaIcEC1Ev(ptr noundef nonnull align 1 dereferenceable(1) %ref.tmp8) #6
  invoke void @_ZNSt7__cxx1112basic_stringIcSt11char_traitsIcESaIcEEC2IS3_EEPKcRKS3_(ptr noundef nonnull align 8 dereferenceable(32) %endstr, ptr noundef @.str.9, ptr noundef nonnull align 1 dereferenceable(1) %ref.tmp8)
          to label %invoke.cont10 unwind label %lpad9

invoke.cont10:                                    ; preds = %invoke.cont7
  call void @_ZNSaIcED1Ev(ptr noundef nonnull align 1 dereferenceable(1) %ref.tmp8) #6
  %textures = getelementptr inbounds %"class.Assimp::ColladaExporter", ptr %this1, i32 0, i32 15
  call void @_ZNSt3mapIjNSt7__cxx1112basic_stringIcSt11char_traitsIcESaIcEEESt4lessIjESaISt4pairIKjS5_EEEC2Ev(ptr noundef nonnull align 8 dereferenceable(48) %textures) #6
  %mOutput11 = getelementptr inbounds %"class.Assimp::ColladaExporter", ptr %this1, i32 0, i32 6
  %vtable = load ptr, ptr %mOutput11, align 8
  %vbase.offset.ptr = getelementptr i8, ptr %vtable, i64 -24
  %vbase.offset = load i64, ptr %vbase.offset.ptr, align 8
  %add.ptr = getelementptr inbounds i8, ptr %mOutput11, i64 %vbase.offset
  invoke void @_ZNSt6localeC1EPKc(ptr noundef nonnull align 8 dereferenceable(8) %ref.tmp12, ptr noundef @.str.10)
          to label %invoke.cont14 unwind label %lpad13

invoke.cont14:                                    ; preds = %invoke.cont10
  invoke void @_ZNSt9basic_iosIcSt11char_traitsIcEE5imbueERKSt6locale(ptr sret(%"class.std::locale") align 8 %agg.tmp.ensured, ptr noundef nonnull align 8 dereferenceable(264) %add.ptr, ptr noundef nonnull align 8 dereferenceable(8) %ref.tmp12)
          to label %invoke.cont16 unwind label %lpad15

invoke.cont16:                                    ; preds = %invoke.cont14
  call void @_ZNSt6localeD1Ev(ptr noundef nonnull align 8 dereferenceable(8) %agg.tmp.ensured) #6
  call void @_ZNSt6localeD1Ev(ptr noundef nonnull align 8 dereferenceable(8) %ref.tmp12) #6
  %mOutput17 = getelementptr inbounds %"class.Assimp::ColladaExporter", ptr %this1, i32 0, i32 6
  %vtable18 = load ptr, ptr %mOutput17, align 8
  %vbase.offset.ptr19 = getelementptr i8, ptr %vtable18, i64 -24
  %vbase.offset20 = load i64, ptr %vbase.offset.ptr19, align 8
  %add.ptr21 = getelementptr inbounds i8, ptr %mOutput17, i64 %vbase.offset20
  %call = invoke noundef i64 @_ZNSt8ios_base9precisionEl(ptr noundef nonnull align 8 dereferenceable(216) %add.ptr21, i64 noundef 9)
          to label %invoke.cont22 unwind label %lpad13

invoke.cont22:                                    ; preds = %invoke.cont16
  invoke void @_ZN6Assimp15ColladaExporter9WriteFileEv(ptr noundef nonnull align 8 dereferenceable(1248) %this1)
          to label %invoke.cont23 unwind label %lpad13

invoke.cont23:                                    ; preds = %invoke.cont22
  ret void

lpad:                                             ; preds = %entry
  %4 = landingpad { ptr, i32 }
          cleanup
  %5 = extractvalue { ptr, i32 } %4, 0
  store ptr %5, ptr %exn.slot, align 8
  %6 = extractvalue { ptr, i32 } %4, 1
  store i32 %6, ptr %ehselector.slot, align 4
  call void @_ZNSaIcED1Ev(ptr noundef nonnull align 1 dereferenceable(1) %ref.tmp) #6
  br label %eh.resume

lpad2:                                            ; preds = %invoke.cont
  %7 = landingpad { ptr, i32 }
          cleanup
  %8 = extractvalue { ptr, i32 } %7, 0
  store ptr %8, ptr %exn.slot, align 8
  %9 = extractvalue { ptr, i32 } %7, 1
  store i32 %9, ptr %ehselector.slot, align 4
  br label %ehcleanup30

lpad4:                                            ; preds = %invoke.cont3
  %10 = landingpad { ptr, i32 }
          cleanup
  %11 = extractvalue { ptr, i32 } %10, 0
  store ptr %11, ptr %exn.slot, align 8
  %12 = extractvalue { ptr, i32 } %10, 1
  store i32 %12, ptr %ehselector.slot, align 4
  br label %ehcleanup29

lpad6:                                            ; preds = %invoke.cont5
  %13 = landingpad { ptr, i32 }
          cleanup
  %14 = extractvalue { ptr, i32 } %13, 0
  store ptr %14, ptr %exn.slot, align 8
  %15 = extractvalue { ptr, i32 } %13, 1
  store i32 %15, ptr %ehselector.slot, align 4
  br label %ehcleanup28

lpad9:                                            ; preds = %invoke.cont7
  %16 = landingpad { ptr, i32 }
          cleanup
  %17 = extractvalue { ptr, i32 } %16, 0
  store ptr %17, ptr %exn.slot, align 8
  %18 = extractvalue { ptr, i32 } %16, 1
  store i32 %18, ptr %ehselector.slot, align 4
  call void @_ZNSaIcED1Ev(ptr noundef nonnull align 1 dereferenceable(1) %ref.tmp8) #6
  br label %ehcleanup25

lpad13:                                           ; preds = %invoke.cont22, %invoke.cont16, %invoke.cont10
  %19 = landingpad { ptr, i32 }
          cleanup
  %20 = extractvalue { ptr, i32 } %19, 0
  store ptr %20, ptr %exn.slot, align 8
  %21 = extractvalue { ptr, i32 } %19, 1
  store i32 %21, ptr %ehselector.slot, align 4
  br label %ehcleanup

lpad15:                                           ; preds = %invoke.cont14
  %22 = landingpad { ptr, i32 }
          cleanup
  %23 = extractvalue { ptr, i32 } %22, 0
  store ptr %23, ptr %exn.slot, align 8
  %24 = extractvalue { ptr, i32 } %22, 1
  store i32 %24, ptr %ehselector.slot, align 4
  call void @_ZNSt6localeD1Ev(ptr noundef nonnull align 8 dereferenceable(8) %ref.tmp12) #6
  br label %ehcleanup

ehcleanup:                                        ; preds = %lpad15, %lpad13
  call void @_ZNSt3mapIjNSt7__cxx1112basic_stringIcSt11char_traitsIcESaIcEEESt4lessIjESaISt4pairIKjS5_EEED2Ev(ptr noundef nonnull align 8 dereferenceable(48) %textures) #6
  call void @_ZNSt7__cxx1112basic_stringIcSt11char_traitsIcESaIcEED1Ev(ptr noundef nonnull align 8 dereferenceable(32) %endstr) #6
  br label %ehcleanup25

ehcleanup25:                                      ; preds = %ehcleanup, %lpad9
  call void @_ZNSt7__cxx1112basic_stringIcSt11char_traitsIcESaIcEED1Ev(ptr noundef nonnull align 8 dereferenceable(32) %startstr) #6
  call void @_ZNSt7__cxx1112basic_stringIcSt11char_traitsIcESaIcEED1Ev(ptr noundef nonnull align 8 dereferenceable(32) %mSceneId) #6
  call void @_ZNSt7__cxx1112basic_stringIcSt11char_traitsIcESaIcEED1Ev(ptr noundef nonnull align 8 dereferenceable(32) %mFile) #6
  br label %ehcleanup28

ehcleanup28:                                      ; preds = %ehcleanup25, %lpad6
  call void @_ZNSt7__cxx1112basic_stringIcSt11char_traitsIcESaIcEED1Ev(ptr noundef nonnull align 8 dereferenceable(32) %mPath) #6
  br label %ehcleanup29

ehcleanup29:                                      ; preds = %ehcleanup28, %lpad4
  call void @_ZNSt7__cxx1118basic_stringstreamIcSt11char_traitsIcESaIcEED1Ev(ptr noundef nonnull align 8 dereferenceable(128) %mOutput) #6
  br label %ehcleanup30

ehcleanup30:                                      ; preds = %ehcleanup29, %lpad2
  call void @_ZNSt5arrayISt3mapImNSt7__cxx1112basic_stringIcSt11char_traitsIcESaIcEEESt4lessImESaISt4pairIKmS6_EEELm5EED2Ev(ptr noundef nonnull align 8 dereferenceable(240) %mObjectNameMap) #6
  call void @_ZNSt5arrayISt3mapImNSt7__cxx1112basic_stringIcSt11char_traitsIcESaIcEEESt4lessImESaISt4pairIKmS6_EEELm5EED2Ev(ptr noundef nonnull align 8 dereferenceable(240) %mObjectIdMap) #6
  call void @_ZNSt3mapIPKvNSt7__cxx1112basic_stringIcSt11char_traitsIcESaIcEEESt4lessIS1_ESaISt4pairIKS1_S7_EEED2Ev(ptr noundef nonnull align 8 dereferenceable(48) %mNodeIdMap) #6
  call void @_ZNSt13unordered_setINSt7__cxx1112basic_stringIcSt11char_traitsIcESaIcEEESt4hashIS5_ESt8equal_toIS5_ESaIS5_EED2Ev(ptr noundef nonnull align 8 dereferenceable(56) %mUniqueIds) #6
  call void @_ZNSt7__cxx1112basic_stringIcSt11char_traitsIcESaIcEED1Ev(ptr noundef nonnull align 8 dereferenceable(32) %mFoundSkeletonRootNodeID) #6
  br label %eh.resume

eh.resume:                                        ; preds = %ehcleanup30, %lpad
  %exn = load ptr, ptr %exn.slot, align 8
  %sel = load i32, ptr %ehselector.slot, align 4
  %lpad.val = insertvalue { ptr, i32 } poison, ptr %exn, 0
  %lpad.val35 = insertvalue { ptr, i32 } %lpad.val, i32 %sel, 1
  resume { ptr, i32 } %lpad.val35
}

; Function Attrs: mustprogress nounwind uwtable
define linkonce_odr void @_ZNSt13unordered_setINSt7__cxx1112basic_stringIcSt11char_traitsIcESaIcEEESt4hashIS5_ESt8equal_toIS5_ESaIS5_EEC2Ev(ptr noundef nonnull align 8 dereferenceable(56) %this) unnamed_addr #0 comdat align 2 {
entry:
  %this.addr = alloca ptr, align 8
  store ptr %this, ptr %this.addr, align 8
  %this1 = load ptr, ptr %this.addr, align 8
  %_M_h = getelementptr inbounds %"class.std::unordered_set", ptr %this1, i32 0, i32 0
  call void @_ZNSt10_HashtableINSt7__cxx1112basic_stringIcSt11char_traitsIcESaIcEEES5_SaIS5_ENSt8__detail9_IdentityESt8equal_toIS5_ESt4hashIS5_ENS7_18_Mod_range_hashingENS7_20_Default_ranged_hashENS7_20_Prime_rehash_policyENS7_17_Hashtable_traitsILb1ELb1ELb1EEEEC2Ev(ptr noundef nonnull align 8 dereferenceable(56) %_M_h) #6
  ret void
}

; Function Attrs: mustprogress nounwind uwtable
define linkonce_odr void @_ZNSt3mapIPKvNSt7__cxx1112basic_stringIcSt11char_traitsIcESaIcEEESt4lessIS1_ESaISt4pairIKS1_S7_EEEC2Ev(ptr noundef nonnull align 8 dereferenceable(48) %this) unnamed_addr #0 comdat align 2 {
entry:
  %this.addr = alloca ptr, align 8
  store ptr %this, ptr %this.addr, align 8
  %this1 = load ptr, ptr %this.addr, align 8
  %_M_t = getelementptr inbounds %"class.std::map", ptr %this1, i32 0, i32 0
  call void @_ZNSt8_Rb_treeIPKvSt4pairIKS1_NSt7__cxx1112basic_stringIcSt11char_traitsIcESaIcEEEESt10_Select1stISA_ESt4lessIS1_ESaISA_EEC2Ev(ptr noundef nonnull align 8 dereferenceable(48) %_M_t) #6
  ret void
}

; Function Attrs: mustprogress nounwind uwtable
define linkonce_odr void @_ZNSt5arrayISt3mapImNSt7__cxx1112basic_stringIcSt11char_traitsIcESaIcEEESt4lessImESaISt4pairIKmS6_EEELm5EEC2Ev(ptr noundef nonnull align 8 dereferenceable(240) %this) unnamed_addr #0 comdat align 2 {
entry:
  %this.addr = alloca ptr, align 8
  store ptr %this, ptr %this.addr, align 8
  %this1 = load ptr, ptr %this.addr, align 8
  %_M_elems = getelementptr inbounds %"struct.std::array", ptr %this1, i32 0, i32 0
  %array.begin = getelementptr inbounds [5 x %"class.std::map.12"], ptr %_M_elems, i32 0, i32 0
  %arrayctor.end = getelementptr inbounds %"class.std::map.12", ptr %array.begin, i64 5
  br label %arrayctor.loop

arrayctor.loop:                                   ; preds = %arrayctor.loop, %entry
  %arrayctor.cur = phi ptr [ %array.begin, %entry ], [ %arrayctor.next, %arrayctor.loop ]
  call void @_ZNSt3mapImNSt7__cxx1112basic_stringIcSt11char_traitsIcESaIcEEESt4lessImESaISt4pairIKmS5_EEEC2Ev(ptr noundef nonnull align 8 dereferenceable(48) %arrayctor.cur) #6
  %arrayctor.next = getelementptr inbounds %"class.std::map.12", ptr %arrayctor.cur, i64 1
  %arrayctor.done = icmp eq ptr %arrayctor.next, %arrayctor.end
  br i1 %arrayctor.done, label %arrayctor.cont, label %arrayctor.loop

arrayctor.cont:                                   ; preds = %arrayctor.loop
  ret void
}

declare void @_ZNSt7__cxx1118basic_stringstreamIcSt11char_traitsIcESaIcEEC1Ev(ptr noundef nonnull align 8 dereferenceable(128)) unnamed_addr #4

declare void @_ZNSt7__cxx1112basic_stringIcSt11char_traitsIcESaIcEEC1ERKS4_(ptr noundef nonnull align 8 dereferenceable(32), ptr noundef nonnull align 8 dereferenceable(32)) unnamed_addr #4

; Function Attrs: mustprogress nounwind uwtable
define linkonce_odr void @_ZNSt3mapIjNSt7__cxx1112basic_stringIcSt11char_traitsIcESaIcEEESt4lessIjESaISt4pairIKjS5_EEEC2Ev(ptr noundef nonnull align 8 dereferenceable(48) %this) unnamed_addr #0 comdat align 2 {
entry:
  %this.addr = alloca ptr, align 8
  store ptr %this, ptr %this.addr, align 8
  %this1 = load ptr, ptr %this.addr, align 8
  %_M_t = getelementptr inbounds %"class.std::map.20", ptr %this1, i32 0, i32 0
  call void @_ZNSt8_Rb_treeIjSt4pairIKjNSt7__cxx1112basic_stringIcSt11char_traitsIcESaIcEEEESt10_Select1stIS8_ESt4lessIjESaIS8_EEC2Ev(ptr noundef nonnull align 8 dereferenceable(48) %_M_t) #6
  ret void
}

declare void @_ZNSt9basic_iosIcSt11char_traitsIcEE5imbueERKSt6locale(ptr sret(%"class.std::locale") align 8, ptr noundef nonnull align 8 dereferenceable(264), ptr noundef nonnull align 8 dereferenceable(8)) #4

declare void @_ZNSt6localeC1EPKc(ptr noundef nonnull align 8 dereferenceable(8), ptr noundef) unnamed_addr #4

; Function Attrs: nounwind
declare void @_ZNSt6localeD1Ev(ptr noundef nonnull align 8 dereferenceable(8)) unnamed_addr #3

; Function Attrs: mustprogress nounwind uwtable
define linkonce_odr noundef i64 @_ZNSt8ios_base9precisionEl(ptr noundef nonnull align 8 dereferenceable(216) %this, i64 noundef %__prec) #0 comdat align 2 {
entry:
  %this.addr = alloca ptr, align 8
  %__prec.addr = alloca i64, align 8
  %__old = alloca i64, align 8
  store ptr %this, ptr %this.addr, align 8
  store i64 %__prec, ptr %__prec.addr, align 8
  %this1 = load ptr, ptr %this.addr, align 8
  %_M_precision = getelementptr inbounds %"class.std::ios_base", ptr %this1, i32 0, i32 1
  %0 = load i64, ptr %_M_precision, align 8
  store i64 %0, ptr %__old, align 8
  %1 = load i64, ptr %__prec.addr, align 8
  %_M_precision2 = getelementptr inbounds %"class.std::ios_base", ptr %this1, i32 0, i32 1
  store i64 %1, ptr %_M_precision2, align 8
  %2 = load i64, ptr %__old, align 8
  ret i64 %2
}

; Function Attrs: mustprogress uwtable
define hidden void @_ZN6Assimp15ColladaExporter9WriteFileEv(ptr noundef nonnull align 8 dereferenceable(1248) %this) #2 align 2 personality ptr @__gxx_personality_v0 {
entry:
  %this.addr = alloca ptr, align 8
  %ref.tmp = alloca %"class.std::__cxx11::basic_string", align 8
  %ref.tmp18 = alloca %"class.std::__cxx11::basic_string", align 8
  %exn.slot = alloca ptr, align 8
  %ehselector.slot = alloca i32, align 4
  store ptr %this, ptr %this.addr, align 8
  %this1 = load ptr, ptr %this.addr, align 8
  %mOutput = getelementptr inbounds %"class.Assimp::ColladaExporter", ptr %this1, i32 0, i32 6
  %add.ptr = getelementptr inbounds i8, ptr %mOutput, i64 16
  %call = call noundef nonnull align 8 dereferenceable(8) ptr @_ZStlsISt11char_traitsIcEERSt13basic_ostreamIcT_ES5_PKc(ptr noundef nonnull align 8 dereferenceable(8) %add.ptr, ptr noundef @.str.11)
  %endstr = getelementptr inbounds %"class.Assimp::ColladaExporter", ptr %this1, i32 0, i32 14
  %call2 = call noundef nonnull align 8 dereferenceable(8) ptr @_ZStlsIcSt11char_traitsIcESaIcEERSt13basic_ostreamIT_T0_ES7_RKNSt7__cxx1112basic_stringIS4_S5_T1_EE(ptr noundef nonnull align 8 dereferenceable(8) %call, ptr noundef nonnull align 8 dereferenceable(32) %endstr)
  %mOutput3 = getelementptr inbounds %"class.Assimp::ColladaExporter", ptr %this1, i32 0, i32 6
  %add.ptr4 = getelementptr inbounds i8, ptr %mOutput3, i64 16
  %call5 = call noundef nonnull align 8 dereferenceable(8) ptr @_ZStlsISt11char_traitsIcEERSt13basic_ostreamIcT_ES5_PKc(ptr noundef nonnull align 8 dereferenceable(8) %add.ptr4, ptr noundef @.str.12)
  %endstr6 = getelementptr inbounds %"class.Assimp::ColladaExporter", ptr %this1, i32 0, i32 14
  %call7 = call noundef nonnull align 8 dereferenceable(8) ptr @_ZStlsIcSt11char_traitsIcESaIcEERSt13basic_ostreamIT_T0_ES7_RKNSt7__cxx1112basic_stringIS4_S5_T1_EE(ptr noundef nonnull align 8 dereferenceable(8) %call5, ptr noundef nonnull align 8 dereferenceable(32) %endstr6)
  call void @_ZN6Assimp15ColladaExporter7PushTagEv(ptr noundef nonnull align 8 dereferenceable(1248) %this1)
  call void @_ZN6Assimp15ColladaExporter13WriteTexturesEv(ptr noundef nonnull align 8 dereferenceable(1248) %this1)
  call void @_ZN6Assimp15ColladaExporter11WriteHeaderEv(ptr noundef nonnull align 8 dereferenceable(1248) %this1)
  %mScene = getelementptr inbounds %"class.Assimp::ColladaExporter", ptr %this1, i32 0, i32 10
  %0 = load ptr, ptr %mScene, align 8
  %mRootNode = getelementptr inbounds %struct.aiScene, ptr %0, i32 0, i32 1
  %1 = load ptr, ptr %mRootNode, align 8
  call void @_ZN6Assimp15ColladaExporter13CreateNodeIdsEPK6aiNode(ptr noundef nonnull align 8 dereferenceable(1248) %this1, ptr noundef %1)
  call void @_ZN6Assimp15ColladaExporter19WriteCamerasLibraryEv(ptr noundef nonnull align 8 dereferenceable(1248) %this1)
  call void @_ZN6Assimp15ColladaExporter18WriteLightsLibraryEv(ptr noundef nonnull align 8 dereferenceable(1248) %this1)
  call void @_ZN6Assimp15ColladaExporter14WriteMaterialsEv(ptr noundef nonnull align 8 dereferenceable(1248) %this1)
  call void @_ZN6Assimp15ColladaExporter20WriteGeometryLibraryEv(ptr noundef nonnull align 8 dereferenceable(1248) %this1)
  call void @_ZN6Assimp15ColladaExporter22WriteControllerLibraryEv(ptr noundef nonnull align 8 dereferenceable(1248) %this1)
  call void @_ZN6Assimp15ColladaExporter17WriteSceneLibraryEv(ptr noundef nonnull align 8 dereferenceable(1248) %this1)
  call void @_ZN6Assimp15ColladaExporter22WriteAnimationsLibraryEv(ptr noundef nonnull align 8 dereferenceable(1248) %this1)
  %mOutput8 = getelementptr inbounds %"class.Assimp::ColladaExporter", ptr %this1, i32 0, i32 6
  %add.ptr9 = getelementptr inbounds i8, ptr %mOutput8, i64 16
  %startstr = getelementptr inbounds %"class.Assimp::ColladaExporter", ptr %this1, i32 0, i32 13
  %call10 = call noundef nonnull align 8 dereferenceable(8) ptr @_ZStlsIcSt11char_traitsIcESaIcEERSt13basic_ostreamIT_T0_ES7_RKNSt7__cxx1112basic_stringIS4_S5_T1_EE(ptr noundef nonnull align 8 dereferenceable(8) %add.ptr9, ptr noundef nonnull align 8 dereferenceable(32) %startstr)
  %call11 = call noundef nonnull align 8 dereferenceable(8) ptr @_ZStlsISt11char_traitsIcEERSt13basic_ostreamIcT_ES5_PKc(ptr noundef nonnull align 8 dereferenceable(8) %call10, ptr noundef @.str.13)
  %endstr12 = getelementptr inbounds %"class.Assimp::ColladaExporter", ptr %this1, i32 0, i32 14
  %call13 = call noundef nonnull align 8 dereferenceable(8) ptr @_ZStlsIcSt11char_traitsIcESaIcEERSt13basic_ostreamIT_T0_ES7_RKNSt7__cxx1112basic_stringIS4_S5_T1_EE(ptr noundef nonnull align 8 dereferenceable(8) %call11, ptr noundef nonnull align 8 dereferenceable(32) %endstr12)
  call void @_ZN6Assimp15ColladaExporter7PushTagEv(ptr noundef nonnull align 8 dereferenceable(1248) %this1)
  %mOutput14 = getelementptr inbounds %"class.Assimp::ColladaExporter", ptr %this1, i32 0, i32 6
  %add.ptr15 = getelementptr inbounds i8, ptr %mOutput14, i64 16
  %startstr16 = getelementptr inbounds %"class.Assimp::ColladaExporter", ptr %this1, i32 0, i32 13
  %call17 = call noundef nonnull align 8 dereferenceable(8) ptr @_ZStlsIcSt11char_traitsIcESaIcEERSt13basic_ostreamIT_T0_ES7_RKNSt7__cxx1112basic_stringIS4_S5_T1_EE(ptr noundef nonnull align 8 dereferenceable(8) %add.ptr15, ptr noundef nonnull align 8 dereferenceable(32) %startstr16)
  %mSceneId = getelementptr inbounds %"class.Assimp::ColladaExporter", ptr %this1, i32 0, i32 11
  call void @_ZStplIcSt11char_traitsIcESaIcEENSt7__cxx1112basic_stringIT_T0_T1_EEPKS5_RKS8_(ptr sret(%"class.std::__cxx11::basic_string") align 8 %ref.tmp18, ptr noundef @.str.14, ptr noundef nonnull align 8 dereferenceable(32) %mSceneId)
  invoke void @_ZStplIcSt11char_traitsIcESaIcEENSt7__cxx1112basic_stringIT_T0_T1_EEOS8_PKS5_(ptr sret(%"class.std::__cxx11::basic_string") align 8 %ref.tmp, ptr noundef nonnull align 8 dereferenceable(32) %ref.tmp18, ptr noundef @.str.15)
          to label %invoke.cont unwind label %lpad

invoke.cont:                                      ; preds = %entry
  %call21 = invoke noundef nonnull align 8 dereferenceable(8) ptr @_ZStlsIcSt11char_traitsIcESaIcEERSt13basic_ostreamIT_T0_ES7_RKNSt7__cxx1112basic_stringIS4_S5_T1_EE(ptr noundef nonnull align 8 dereferenceable(8) %call17, ptr noundef nonnull align 8 dereferenceable(32) %ref.tmp)
          to label %invoke.cont20 unwind label %lpad19

invoke.cont20:                                    ; preds = %invoke.cont
  %endstr22 = getelementptr inbounds %"class.Assimp::ColladaExporter", ptr %this1, i32 0, i32 14
  %call24 = invoke noundef nonnull align 8 dereferenceable(8) ptr @_ZStlsIcSt11char_traitsIcESaIcEERSt13basic_ostreamIT_T0_ES7_RKNSt7__cxx1112basic_stringIS4_S5_T1_EE(ptr noundef nonnull align 8 dereferenceable(8) %call21, ptr noundef nonnull align 8 dereferenceable(32) %endstr22)
          to label %invoke.cont23 unwind label %lpad19

invoke.cont23:                                    ; preds = %invoke.cont20
  call void @_ZNSt7__cxx1112basic_stringIcSt11char_traitsIcESaIcEED1Ev(ptr noundef nonnull align 8 dereferenceable(32) %ref.tmp) #6
  call void @_ZNSt7__cxx1112basic_stringIcSt11char_traitsIcESaIcEED1Ev(ptr noundef nonnull align 8 dereferenceable(32) %ref.tmp18) #6
  call void @_ZN6Assimp15ColladaExporter6PopTagEv(ptr noundef nonnull align 8 dereferenceable(1248) %this1)
  %mOutput25 = getelementptr inbounds %"class.Assimp::ColladaExporter", ptr %this1, i32 0, i32 6
  %add.ptr26 = getelementptr inbounds i8, ptr %mOutput25, i64 16
  %startstr27 = getelementptr inbounds %"class.Assimp::ColladaExporter", ptr %this1, i32 0, i32 13
  %call28 = call noundef nonnull align 8 dereferenceable(8) ptr @_ZStlsIcSt11char_traitsIcESaIcEERSt13basic_ostreamIT_T0_ES7_RKNSt7__cxx1112basic_stringIS4_S5_T1_EE(ptr noundef nonnull align 8 dereferenceable(8) %add.ptr26, ptr noundef nonnull align 8 dereferenceable(32) %startstr27)
  %call29 = call noundef nonnull align 8 dereferenceable(8) ptr @_ZStlsISt11char_traitsIcEERSt13basic_ostreamIcT_ES5_PKc(ptr noundef nonnull align 8 dereferenceable(8) %call28, ptr noundef @.str.16)
  %endstr30 = getelementptr inbounds %"class.Assimp::ColladaExporter", ptr %this1, i32 0, i32 14
  %call31 = call noundef nonnull align 8 dereferenceable(8) ptr @_ZStlsIcSt11char_traitsIcESaIcEERSt13basic_ostreamIT_T0_ES7_RKNSt7__cxx1112basic_stringIS4_S5_T1_EE(ptr noundef nonnull align 8 dereferenceable(8) %call29, ptr noundef nonnull align 8 dereferenceable(32) %endstr30)
  call void @_ZN6Assimp15ColladaExporter6PopTagEv(ptr noundef nonnull align 8 dereferenceable(1248) %this1)
  %mOutput32 = getelementptr inbounds %"class.Assimp::ColladaExporter", ptr %this1, i32 0, i32 6
  %add.ptr33 = getelementptr inbounds i8, ptr %mOutput32, i64 16
  %call34 = call noundef nonnull align 8 dereferenceable(8) ptr @_ZStlsISt11char_traitsIcEERSt13basic_ostreamIcT_ES5_PKc(ptr noundef nonnull align 8 dereferenceable(8) %add.ptr33, ptr noundef @.str.17)
  %endstr35 = getelementptr inbounds %"class.Assimp::ColladaExporter", ptr %this1, i32 0, i32 14
  %call36 = call noundef nonnull align 8 dereferenceable(8) ptr @_ZStlsIcSt11char_traitsIcESaIcEERSt13basic_ostreamIT_T0_ES7_RKNSt7__cxx1112basic_stringIS4_S5_T1_EE(ptr noundef nonnull align 8 dereferenceable(8) %call34, ptr noundef nonnull align 8 dereferenceable(32) %endstr35)
  ret void

lpad:                                             ; preds = %entry
  %2 = landingpad { ptr, i32 }
          cleanup
  %3 = extractvalue { ptr, i32 } %2, 0
  store ptr %3, ptr %exn.slot, align 8
  %4 = extractvalue { ptr, i32 } %2, 1
  store i32 %4, ptr %ehselector.slot, align 4
  br label %ehcleanup

lpad19:                                           ; preds = %invoke.cont20, %invoke.cont
  %5 = landingpad { ptr, i32 }
          cleanup
  %6 = extractvalue { ptr, i32 } %5, 0
  store ptr %6, ptr %exn.slot, align 8
  %7 = extractvalue { ptr, i32 } %5, 1
  store i32 %7, ptr %ehselector.slot, align 4
  call void @_ZNSt7__cxx1112basic_stringIcSt11char_traitsIcESaIcEED1Ev(ptr noundef nonnull align 8 dereferenceable(32) %ref.tmp) #6
  br label %ehcleanup

ehcleanup:                                        ; preds = %lpad19, %lpad
  call void @_ZNSt7__cxx1112basic_stringIcSt11char_traitsIcESaIcEED1Ev(ptr noundef nonnull align 8 dereferenceable(32) %ref.tmp18) #6
  br label %eh.resume

eh.resume:                                        ; preds = %ehcleanup
  %exn = load ptr, ptr %exn.slot, align 8
  %sel = load i32, ptr %ehselector.slot, align 4
  %lpad.val = insertvalue { ptr, i32 } poison, ptr %exn, 0
  %lpad.val37 = insertvalue { ptr, i32 } %lpad.val, i32 %sel, 1
  resume { ptr, i32 } %lpad.val37
}

; Function Attrs: mustprogress nounwind uwtable
define linkonce_odr void @_ZNSt3mapIjNSt7__cxx1112basic_stringIcSt11char_traitsIcESaIcEEESt4lessIjESaISt4pairIKjS5_EEED2Ev(ptr noundef nonnull align 8 dereferenceable(48) %this) unnamed_addr #0 comdat align 2 {
entry:
  %this.addr = alloca ptr, align 8
  store ptr %this, ptr %this.addr, align 8
  %this1 = load ptr, ptr %this.addr, align 8
  %_M_t = getelementptr inbounds %"class.std::map.20", ptr %this1, i32 0, i32 0
  call void @_ZNSt8_Rb_treeIjSt4pairIKjNSt7__cxx1112basic_stringIcSt11char_traitsIcESaIcEEEESt10_Select1stIS8_ESt4lessIjESaIS8_EED2Ev(ptr noundef nonnull align 8 dereferenceable(48) %_M_t) #6
  ret void
}

; Function Attrs: nounwind
declare void @_ZNSt7__cxx1118basic_stringstreamIcSt11char_traitsIcESaIcEED1Ev(ptr noundef nonnull align 8 dereferenceable(128)) unnamed_addr #3

; Function Attrs: mustprogress nounwind uwtable
define linkonce_odr void @_ZNSt5arrayISt3mapImNSt7__cxx1112basic_stringIcSt11char_traitsIcESaIcEEESt4lessImESaISt4pairIKmS6_EEELm5EED2Ev(ptr noundef nonnull align 8 dereferenceable(240) %this) unnamed_addr #0 comdat align 2 {
entry:
  %this.addr = alloca ptr, align 8
  store ptr %this, ptr %this.addr, align 8
  %this1 = load ptr, ptr %this.addr, align 8
  %_M_elems = getelementptr inbounds %"struct.std::array", ptr %this1, i32 0, i32 0
  %array.begin = getelementptr inbounds [5 x %"class.std::map.12"], ptr %_M_elems, i32 0, i32 0
  %0 = getelementptr inbounds %"class.std::map.12", ptr %array.begin, i64 5
  br label %arraydestroy.body

arraydestroy.body:                                ; preds = %arraydestroy.body, %entry
  %arraydestroy.elementPast = phi ptr [ %0, %entry ], [ %arraydestroy.element, %arraydestroy.body ]
  %arraydestroy.element = getelementptr inbounds %"class.std::map.12", ptr %arraydestroy.elementPast, i64 -1
  call void @_ZNSt3mapImNSt7__cxx1112basic_stringIcSt11char_traitsIcESaIcEEESt4lessImESaISt4pairIKmS5_EEED2Ev(ptr noundef nonnull align 8 dereferenceable(48) %arraydestroy.element) #6
  %arraydestroy.done = icmp eq ptr %arraydestroy.element, %array.begin
  br i1 %arraydestroy.done, label %arraydestroy.done2, label %arraydestroy.body

arraydestroy.done2:                               ; preds = %arraydestroy.body
  ret void
}

; Function Attrs: mustprogress nounwind uwtable
define linkonce_odr void @_ZNSt3mapIPKvNSt7__cxx1112basic_stringIcSt11char_traitsIcESaIcEEESt4lessIS1_ESaISt4pairIKS1_S7_EEED2Ev(ptr noundef nonnull align 8 dereferenceable(48) %this) unnamed_addr #0 comdat align 2 {
entry:
  %this.addr = alloca ptr, align 8
  store ptr %this, ptr %this.addr, align 8
  %this1 = load ptr, ptr %this.addr, align 8
  %_M_t = getelementptr inbounds %"class.std::map", ptr %this1, i32 0, i32 0
  call void @_ZNSt8_Rb_treeIPKvSt4pairIKS1_NSt7__cxx1112basic_stringIcSt11char_traitsIcESaIcEEEESt10_Select1stISA_ESt4lessIS1_ESaISA_EED2Ev(ptr noundef nonnull align 8 dereferenceable(48) %_M_t) #6
  ret void
}

; Function Attrs: mustprogress nounwind uwtable
define linkonce_odr void @_ZNSt13unordered_setINSt7__cxx1112basic_stringIcSt11char_traitsIcESaIcEEESt4hashIS5_ESt8equal_toIS5_ESaIS5_EED2Ev(ptr noundef nonnull align 8 dereferenceable(56) %this) unnamed_addr #0 comdat align 2 {
entry:
  %this.addr = alloca ptr, align 8
  store ptr %this, ptr %this.addr, align 8
  %this1 = load ptr, ptr %this.addr, align 8
  %_M_h = getelementptr inbounds %"class.std::unordered_set", ptr %this1, i32 0, i32 0
  call void @_ZNSt10_HashtableINSt7__cxx1112basic_stringIcSt11char_traitsIcESaIcEEES5_SaIS5_ENSt8__detail9_IdentityESt8equal_toIS5_ESt4hashIS5_ENS7_18_Mod_range_hashingENS7_20_Default_ranged_hashENS7_20_Prime_rehash_policyENS7_17_Hashtable_traitsILb1ELb1ELb1EEEED2Ev(ptr noundef nonnull align 8 dereferenceable(56) %_M_h) #6
  ret void
}

; Function Attrs: mustprogress nounwind uwtable
define hidden void @_ZN6Assimp15ColladaExporterD2Ev(ptr noundef nonnull align 8 dereferenceable(1248) %this) unnamed_addr #0 align 2 {
entry:
  %this.addr = alloca ptr, align 8
  store ptr %this, ptr %this.addr, align 8
  %this1 = load ptr, ptr %this.addr, align 8
  store ptr getelementptr inbounds ({ [4 x ptr] }, ptr @_ZTVN6Assimp15ColladaExporterE, i32 0, inrange i32 0, i32 2), ptr %this1, align 8
  %textures = getelementptr inbounds %"class.Assimp::ColladaExporter", ptr %this1, i32 0, i32 15
  call void @_ZNSt3mapIjNSt7__cxx1112basic_stringIcSt11char_traitsIcESaIcEEESt4lessIjESaISt4pairIKjS5_EEED2Ev(ptr noundef nonnull align 8 dereferenceable(48) %textures) #6
  %endstr = getelementptr inbounds %"class.Assimp::ColladaExporter", ptr %this1, i32 0, i32 14
  call void @_ZNSt7__cxx1112basic_stringIcSt11char_traitsIcESaIcEED1Ev(ptr noundef nonnull align 8 dereferenceable(32) %endstr) #6
  %startstr = getelementptr inbounds %"class.Assimp::ColladaExporter", ptr %this1, i32 0, i32 13
  call void @_ZNSt7__cxx1112basic_stringIcSt11char_traitsIcESaIcEED1Ev(ptr noundef nonnull align 8 dereferenceable(32) %startstr) #6
  %mSceneId = getelementptr inbounds %"class.Assimp::ColladaExporter", ptr %this1, i32 0, i32 11
  call void @_ZNSt7__cxx1112basic_stringIcSt11char_traitsIcESaIcEED1Ev(ptr noundef nonnull align 8 dereferenceable(32) %mSceneId) #6
  %mFile = getelementptr inbounds %"class.Assimp::ColladaExporter", ptr %this1, i32 0, i32 9
  call void @_ZNSt7__cxx1112basic_stringIcSt11char_traitsIcESaIcEED1Ev(ptr noundef nonnull align 8 dereferenceable(32) %mFile) #6
  %mPath = getelementptr inbounds %"class.Assimp::ColladaExporter", ptr %this1, i32 0, i32 8
  call void @_ZNSt7__cxx1112basic_stringIcSt11char_traitsIcESaIcEED1Ev(ptr noundef nonnull align 8 dereferenceable(32) %mPath) #6
  %mOutput = getelementptr inbounds %"class.Assimp::ColladaExporter", ptr %this1, i32 0, i32 6
  call void @_ZNSt7__cxx1118basic_stringstreamIcSt11char_traitsIcESaIcEED1Ev(ptr noundef nonnull align 8 dereferenceable(128) %mOutput) #6
  %mObjectNameMap = getelementptr inbounds %"class.Assimp::ColladaExporter", ptr %this1, i32 0, i32 5
  call void @_ZNSt5arrayISt3mapImNSt7__cxx1112basic_stringIcSt11char_traitsIcESaIcEEESt4lessImESaISt4pairIKmS6_EEELm5EED2Ev(ptr noundef nonnull align 8 dereferenceable(240) %mObjectNameMap) #6
  %mObjectIdMap = getelementptr inbounds %"class.Assimp::ColladaExporter", ptr %this1, i32 0, i32 4
  call void @_ZNSt5arrayISt3mapImNSt7__cxx1112basic_stringIcSt11char_traitsIcESaIcEEESt4lessImESaISt4pairIKmS6_EEELm5EED2Ev(ptr noundef nonnull align 8 dereferenceable(240) %mObjectIdMap) #6
  %mNodeIdMap = getelementptr inbounds %"class.Assimp::ColladaExporter", ptr %this1, i32 0, i32 3
  call void @_ZNSt3mapIPKvNSt7__cxx1112basic_stringIcSt11char_traitsIcESaIcEEESt4lessIS1_ESaISt4pairIKS1_S7_EEED2Ev(ptr noundef nonnull align 8 dereferenceable(48) %mNodeIdMap) #6
  %mUniqueIds = getelementptr inbounds %"class.Assimp::ColladaExporter", ptr %this1, i32 0, i32 2
  call void @_ZNSt13unordered_setINSt7__cxx1112basic_stringIcSt11char_traitsIcESaIcEEESt4hashIS5_ESt8equal_toIS5_ESaIS5_EED2Ev(ptr noundef nonnull align 8 dereferenceable(56) %mUniqueIds) #6
  %mFoundSkeletonRootNodeID = getelementptr inbounds %"class.Assimp::ColladaExporter", ptr %this1, i32 0, i32 1
  call void @_ZNSt7__cxx1112basic_stringIcSt11char_traitsIcESaIcEED1Ev(ptr noundef nonnull align 8 dereferenceable(32) %mFoundSkeletonRootNodeID) #6
  ret void
}

; Function Attrs: mustprogress nounwind uwtable
define hidden void @_ZN6Assimp15ColladaExporterD0Ev(ptr noundef nonnull align 8 dereferenceable(1248) %this) unnamed_addr #0 align 2 {
entry:
  %this.addr = alloca ptr, align 8
  store ptr %this, ptr %this.addr, align 8
  %this1 = load ptr, ptr %this.addr, align 8
  call void @_ZN6Assimp15ColladaExporterD1Ev(ptr noundef nonnull align 8 dereferenceable(1248) %this1) #6
  call void @_ZdlPv(ptr noundef %this1) #19
  ret void
}

; Function Attrs: nobuiltin nounwind
declare void @_ZdlPv(ptr noundef) #5

declare noundef nonnull align 8 dereferenceable(8) ptr @_ZStlsIcSt11char_traitsIcESaIcEERSt13basic_ostreamIT_T0_ES7_RKNSt7__cxx1112basic_stringIS4_S5_T1_EE(ptr noundef nonnull align 8 dereferenceable(8), ptr noundef nonnull align 8 dereferenceable(32)) #4

declare noundef nonnull align 8 dereferenceable(8) ptr @_ZStlsISt11char_traitsIcEERSt13basic_ostreamIcT_ES5_PKc(ptr noundef nonnull align 8 dereferenceable(8), ptr noundef) #4

; Function Attrs: mustprogress uwtable
define linkonce_odr hidden void @_ZN6Assimp15ColladaExporter7PushTagEv(ptr noundef nonnull align 8 dereferenceable(1248) %this) #2 comdat align 2 {
entry:
  %this.addr = alloca ptr, align 8
  store ptr %this, ptr %this.addr, align 8
  %this1 = load ptr, ptr %this.addr, align 8
  %startstr = getelementptr inbounds %"class.Assimp::ColladaExporter", ptr %this1, i32 0, i32 13
  %call = call noundef nonnull align 8 dereferenceable(32) ptr @_ZNSt7__cxx1112basic_stringIcSt11char_traitsIcESaIcEE6appendEPKc(ptr noundef nonnull align 8 dereferenceable(32) %startstr, ptr noundef @.str.349)
  ret void
}

; Function Attrs: mustprogress uwtable
define hidden void @_ZN6Assimp15ColladaExporter13WriteTexturesEv(ptr noundef nonnull align 8 dereferenceable(1248) %this) #2 align 2 personality ptr @__gxx_personality_v0 {
entry:
  %this.addr = alloca ptr, align 8
  %str = alloca [1024 x i8], align 16
  %i = alloca i32, align 4
  %texture = alloca ptr, align 8
  %name = alloca %"class.std::__cxx11::basic_string", align 8
  %ref.tmp = alloca %"class.std::__cxx11::basic_string", align 8
  %ref.tmp7 = alloca %"class.std::__cxx11::basic_string", align 8
  %ref.tmp8 = alloca %"class.std::__cxx11::basic_string", align 8
  %ref.tmp9 = alloca %"class.std::__cxx11::basic_string", align 8
  %ref.tmp10 = alloca %"class.std::__cxx11::basic_string", align 8
  %ref.tmp11 = alloca %"class.std::__cxx11::basic_string", align 8
  %exn.slot = alloca ptr, align 8
  %ehselector.slot = alloca i32, align 4
  %outfile = alloca %"class.std::unique_ptr", align 8
  %ref.tmp33 = alloca %"class.std::__cxx11::basic_string", align 8
  %ref.tmp34 = alloca %"class.std::__cxx11::basic_string", align 8
  %ref.tmp42 = alloca %"class.std::__cxx11::basic_string", align 8
  %ref.tmp43 = alloca %"class.std::allocator.0", align 1
  %ref.tmp55 = alloca %"class.std::__cxx11::basic_string", align 8
  %ref.tmp56 = alloca %"class.std::__cxx11::basic_string", align 8
  %cleanup.isactive = alloca i1, align 1
  %ref.tmp84 = alloca %"struct.std::pair.32", align 8
  %coerce = alloca %"struct.std::pair", align 8
  store ptr %this, ptr %this.addr, align 8
  %this1 = load ptr, ptr %this.addr, align 8
  %mScene = getelementptr inbounds %"class.Assimp::ColladaExporter", ptr %this1, i32 0, i32 10
  %0 = load ptr, ptr %mScene, align 8
  %call = call noundef zeroext i1 @_ZNK7aiScene11HasTexturesEv(ptr noundef nonnull align 8 dereferenceable(1168) %0)
  br i1 %call, label %if.then, label %if.end92

if.then:                                          ; preds = %entry
  store i32 0, ptr %i, align 4
  br label %for.cond

for.cond:                                         ; preds = %for.inc, %if.then
  %1 = load i32, ptr %i, align 4
  %mScene2 = getelementptr inbounds %"class.Assimp::ColladaExporter", ptr %this1, i32 0, i32 10
  %2 = load ptr, ptr %mScene2, align 8
  %mNumTextures = getelementptr inbounds %struct.aiScene, ptr %2, i32 0, i32 8
  %3 = load i32, ptr %mNumTextures, align 8
  %cmp = icmp ult i32 %1, %3
  br i1 %cmp, label %for.body, label %for.end

for.body:                                         ; preds = %for.cond
  %mScene3 = getelementptr inbounds %"class.Assimp::ColladaExporter", ptr %this1, i32 0, i32 10
  %4 = load ptr, ptr %mScene3, align 8
  %mTextures = getelementptr inbounds %struct.aiScene, ptr %4, i32 0, i32 9
  %5 = load ptr, ptr %mTextures, align 8
  %6 = load i32, ptr %i, align 4
  %idxprom = zext i32 %6 to i64
  %arrayidx = getelementptr inbounds ptr, ptr %5, i64 %idxprom
  %7 = load ptr, ptr %arrayidx, align 8
  store ptr %7, ptr %texture, align 8
  %8 = load ptr, ptr %texture, align 8
  %cmp4 = icmp eq ptr null, %8
  br i1 %cmp4, label %if.then5, label %if.end

if.then5:                                         ; preds = %for.body
  br label %for.inc

if.end:                                           ; preds = %for.body
  %arraydecay = getelementptr inbounds [1024 x i8], ptr %str, i64 0, i64 0
  %9 = load i32, ptr %i, align 4
  %add = add i32 %9, 1
  %call6 = call noundef i32 @_ZN6Assimp13ASSIMP_itoa10EPcji(ptr noundef %arraydecay, i32 noundef 1024, i32 noundef %add)
  %mFile = getelementptr inbounds %"class.Assimp::ColladaExporter", ptr %this1, i32 0, i32 9
  call void @_ZStplIcSt11char_traitsIcESaIcEENSt7__cxx1112basic_stringIT_T0_T1_EERKS8_PKS5_(ptr sret(%"class.std::__cxx11::basic_string") align 8 %ref.tmp11, ptr noundef nonnull align 8 dereferenceable(32) %mFile, ptr noundef @.str.63)
  %10 = load i32, ptr %i, align 4
  %cmp12 = icmp ult i32 %10, 1000
  %cond = select i1 %cmp12, ptr @.str.64, ptr @.str.65
  invoke void @_ZStplIcSt11char_traitsIcESaIcEENSt7__cxx1112basic_stringIT_T0_T1_EEOS8_PKS5_(ptr sret(%"class.std::__cxx11::basic_string") align 8 %ref.tmp10, ptr noundef nonnull align 8 dereferenceable(32) %ref.tmp11, ptr noundef %cond)
          to label %invoke.cont unwind label %lpad

invoke.cont:                                      ; preds = %if.end
  %11 = load i32, ptr %i, align 4
  %cmp13 = icmp ult i32 %11, 100
  %cond14 = select i1 %cmp13, ptr @.str.64, ptr @.str.65
  invoke void @_ZStplIcSt11char_traitsIcESaIcEENSt7__cxx1112basic_stringIT_T0_T1_EEOS8_PKS5_(ptr sret(%"class.std::__cxx11::basic_string") align 8 %ref.tmp9, ptr noundef nonnull align 8 dereferenceable(32) %ref.tmp10, ptr noundef %cond14)
          to label %invoke.cont16 unwind label %lpad15

invoke.cont16:                                    ; preds = %invoke.cont
  %12 = load i32, ptr %i, align 4
  %cmp17 = icmp ult i32 %12, 10
  %cond18 = select i1 %cmp17, ptr @.str.64, ptr @.str.65
  invoke void @_ZStplIcSt11char_traitsIcESaIcEENSt7__cxx1112basic_stringIT_T0_T1_EEOS8_PKS5_(ptr sret(%"class.std::__cxx11::basic_string") align 8 %ref.tmp8, ptr noundef nonnull align 8 dereferenceable(32) %ref.tmp9, ptr noundef %cond18)
          to label %invoke.cont20 unwind label %lpad19

invoke.cont20:                                    ; preds = %invoke.cont16
  %arraydecay21 = getelementptr inbounds [1024 x i8], ptr %str, i64 0, i64 0
  invoke void @_ZStplIcSt11char_traitsIcESaIcEENSt7__cxx1112basic_stringIT_T0_T1_EEOS8_PKS5_(ptr sret(%"class.std::__cxx11::basic_string") align 8 %ref.tmp7, ptr noundef nonnull align 8 dereferenceable(32) %ref.tmp8, ptr noundef %arraydecay21)
          to label %invoke.cont23 unwind label %lpad22

invoke.cont23:                                    ; preds = %invoke.cont20
  invoke void @_ZStplIcSt11char_traitsIcESaIcEENSt7__cxx1112basic_stringIT_T0_T1_EEOS8_PKS5_(ptr sret(%"class.std::__cxx11::basic_string") align 8 %ref.tmp, ptr noundef nonnull align 8 dereferenceable(32) %ref.tmp7, ptr noundef @.str.66)
          to label %invoke.cont25 unwind label %lpad24

invoke.cont25:                                    ; preds = %invoke.cont23
  %13 = load ptr, ptr %texture, align 8
  %achFormatHint = getelementptr inbounds %struct.aiTexture, ptr %13, i32 0, i32 2
  %arraydecay26 = getelementptr inbounds [9 x i8], ptr %achFormatHint, i64 0, i64 0
  invoke void @_ZStplIcSt11char_traitsIcESaIcEENSt7__cxx1112basic_stringIT_T0_T1_EEOS8_PKS5_(ptr sret(%"class.std::__cxx11::basic_string") align 8 %name, ptr noundef nonnull align 8 dereferenceable(32) %ref.tmp, ptr noundef %arraydecay26)
          to label %invoke.cont28 unwind label %lpad27

invoke.cont28:                                    ; preds = %invoke.cont25
  call void @_ZNSt7__cxx1112basic_stringIcSt11char_traitsIcESaIcEED1Ev(ptr noundef nonnull align 8 dereferenceable(32) %ref.tmp) #6
  call void @_ZNSt7__cxx1112basic_stringIcSt11char_traitsIcESaIcEED1Ev(ptr noundef nonnull align 8 dereferenceable(32) %ref.tmp7) #6
  call void @_ZNSt7__cxx1112basic_stringIcSt11char_traitsIcESaIcEED1Ev(ptr noundef nonnull align 8 dereferenceable(32) %ref.tmp8) #6
  call void @_ZNSt7__cxx1112basic_stringIcSt11char_traitsIcESaIcEED1Ev(ptr noundef nonnull align 8 dereferenceable(32) %ref.tmp9) #6
  call void @_ZNSt7__cxx1112basic_stringIcSt11char_traitsIcESaIcEED1Ev(ptr noundef nonnull align 8 dereferenceable(32) %ref.tmp10) #6
  call void @_ZNSt7__cxx1112basic_stringIcSt11char_traitsIcESaIcEED1Ev(ptr noundef nonnull align 8 dereferenceable(32) %ref.tmp11) #6
  %mIOSystem = getelementptr inbounds %"class.Assimp::ColladaExporter", ptr %this1, i32 0, i32 7
  %14 = load ptr, ptr %mIOSystem, align 8
  %mPath = getelementptr inbounds %"class.Assimp::ColladaExporter", ptr %this1, i32 0, i32 8
  %mIOSystem35 = getelementptr inbounds %"class.Assimp::ColladaExporter", ptr %this1, i32 0, i32 7
  %15 = load ptr, ptr %mIOSystem35, align 8
  %vtable = load ptr, ptr %15, align 8
  %vfn = getelementptr inbounds ptr, ptr %vtable, i64 3
  %16 = load ptr, ptr %vfn, align 8
  %call38 = invoke noundef signext i8 %16(ptr noundef nonnull align 8 dereferenceable(32) %15)
          to label %invoke.cont37 unwind label %lpad36

invoke.cont37:                                    ; preds = %invoke.cont28
  invoke void @_ZStplIcSt11char_traitsIcESaIcEENSt7__cxx1112basic_stringIT_T0_T1_EERKS8_S5_(ptr sret(%"class.std::__cxx11::basic_string") align 8 %ref.tmp34, ptr noundef nonnull align 8 dereferenceable(32) %mPath, i8 noundef signext %call38)
          to label %invoke.cont39 unwind label %lpad36

invoke.cont39:                                    ; preds = %invoke.cont37
  invoke void @_ZStplIcSt11char_traitsIcESaIcEENSt7__cxx1112basic_stringIT_T0_T1_EEOS8_RKS8_(ptr sret(%"class.std::__cxx11::basic_string") align 8 %ref.tmp33, ptr noundef nonnull align 8 dereferenceable(32) %ref.tmp34, ptr noundef nonnull align 8 dereferenceable(32) %name)
          to label %invoke.cont41 unwind label %lpad40

invoke.cont41:                                    ; preds = %invoke.cont39
  call void @_ZNSaIcEC1Ev(ptr noundef nonnull align 1 dereferenceable(1) %ref.tmp43) #6
  invoke void @_ZNSt7__cxx1112basic_stringIcSt11char_traitsIcESaIcEEC2IS3_EEPKcRKS3_(ptr noundef nonnull align 8 dereferenceable(32) %ref.tmp42, ptr noundef @.str.67, ptr noundef nonnull align 1 dereferenceable(1) %ref.tmp43)
          to label %invoke.cont45 unwind label %lpad44

invoke.cont45:                                    ; preds = %invoke.cont41
  %call48 = invoke noundef ptr @_ZN6Assimp8IOSystem4OpenERKNSt7__cxx1112basic_stringIcSt11char_traitsIcESaIcEEES8_(ptr noundef nonnull align 8 dereferenceable(32) %14, ptr noundef nonnull align 8 dereferenceable(32) %ref.tmp33, ptr noundef nonnull align 8 dereferenceable(32) %ref.tmp42)
          to label %invoke.cont47 unwind label %lpad46

invoke.cont47:                                    ; preds = %invoke.cont45
  call void @_ZNSt10unique_ptrIN6Assimp8IOStreamESt14default_deleteIS1_EEC2IS3_vEEPS1_(ptr noundef nonnull align 8 dereferenceable(8) %outfile, ptr noundef %call48) #6
  call void @_ZNSt7__cxx1112basic_stringIcSt11char_traitsIcESaIcEED1Ev(ptr noundef nonnull align 8 dereferenceable(32) %ref.tmp42) #6
  call void @_ZNSaIcED1Ev(ptr noundef nonnull align 1 dereferenceable(1) %ref.tmp43) #6
  call void @_ZNSt7__cxx1112basic_stringIcSt11char_traitsIcESaIcEED1Ev(ptr noundef nonnull align 8 dereferenceable(32) %ref.tmp33) #6
  call void @_ZNSt7__cxx1112basic_stringIcSt11char_traitsIcESaIcEED1Ev(ptr noundef nonnull align 8 dereferenceable(32) %ref.tmp34) #6
  %call53 = call noundef zeroext i1 @_ZSteqIN6Assimp8IOStreamESt14default_deleteIS1_EEbRKSt10unique_ptrIT_T0_EDn(ptr noundef nonnull align 8 dereferenceable(8) %outfile, ptr null) #6
  br i1 %call53, label %if.then54, label %if.end67

if.then54:                                        ; preds = %invoke.cont47
  store i1 true, ptr %cleanup.isactive, align 1
  %exception = call ptr @__cxa_allocate_exception(i64 16) #6
  %mPath57 = getelementptr inbounds %"class.Assimp::ColladaExporter", ptr %this1, i32 0, i32 8
  invoke void @_ZStplIcSt11char_traitsIcESaIcEENSt7__cxx1112basic_stringIT_T0_T1_EEPKS5_RKS8_(ptr sret(%"class.std::__cxx11::basic_string") align 8 %ref.tmp56, ptr noundef @.str.68, ptr noundef nonnull align 8 dereferenceable(32) %mPath57)
          to label %invoke.cont59 unwind label %lpad58

invoke.cont59:                                    ; preds = %if.then54
  invoke void @_ZStplIcSt11char_traitsIcESaIcEENSt7__cxx1112basic_stringIT_T0_T1_EEOS8_RKS8_(ptr sret(%"class.std::__cxx11::basic_string") align 8 %ref.tmp55, ptr noundef nonnull align 8 dereferenceable(32) %ref.tmp56, ptr noundef nonnull align 8 dereferenceable(32) %name)
          to label %invoke.cont61 unwind label %lpad60

invoke.cont61:                                    ; preds = %invoke.cont59
  invoke void @_ZN17DeadlyExportErrorC2IJNSt7__cxx1112basic_stringIcSt11char_traitsIcESaIcEEEEEEDpOT_(ptr noundef nonnull align 8 dereferenceable(16) %exception, ptr noundef nonnull align 8 dereferenceable(32) %ref.tmp55)
          to label %invoke.cont63 unwind label %lpad62

invoke.cont63:                                    ; preds = %invoke.cont61
  store i1 false, ptr %cleanup.isactive, align 1
  invoke void @__cxa_throw(ptr %exception, ptr @_ZTI17DeadlyExportError, ptr @_ZN17DeadlyExportErrorD2Ev) #18
          to label %unreachable unwind label %lpad62

lpad:                                             ; preds = %if.end
  %17 = landingpad { ptr, i32 }
          cleanup
  %18 = extractvalue { ptr, i32 } %17, 0
  store ptr %18, ptr %exn.slot, align 8
  %19 = extractvalue { ptr, i32 } %17, 1
  store i32 %19, ptr %ehselector.slot, align 4
  br label %ehcleanup32

lpad15:                                           ; preds = %invoke.cont
  %20 = landingpad { ptr, i32 }
          cleanup
  %21 = extractvalue { ptr, i32 } %20, 0
  store ptr %21, ptr %exn.slot, align 8
  %22 = extractvalue { ptr, i32 } %20, 1
  store i32 %22, ptr %ehselector.slot, align 4
  br label %ehcleanup31

lpad19:                                           ; preds = %invoke.cont16
  %23 = landingpad { ptr, i32 }
          cleanup
  %24 = extractvalue { ptr, i32 } %23, 0
  store ptr %24, ptr %exn.slot, align 8
  %25 = extractvalue { ptr, i32 } %23, 1
  store i32 %25, ptr %ehselector.slot, align 4
  br label %ehcleanup30

lpad22:                                           ; preds = %invoke.cont20
  %26 = landingpad { ptr, i32 }
          cleanup
  %27 = extractvalue { ptr, i32 } %26, 0
  store ptr %27, ptr %exn.slot, align 8
  %28 = extractvalue { ptr, i32 } %26, 1
  store i32 %28, ptr %ehselector.slot, align 4
  br label %ehcleanup29

lpad24:                                           ; preds = %invoke.cont23
  %29 = landingpad { ptr, i32 }
          cleanup
  %30 = extractvalue { ptr, i32 } %29, 0
  store ptr %30, ptr %exn.slot, align 8
  %31 = extractvalue { ptr, i32 } %29, 1
  store i32 %31, ptr %ehselector.slot, align 4
  br label %ehcleanup

lpad27:                                           ; preds = %invoke.cont25
  %32 = landingpad { ptr, i32 }
          cleanup
  %33 = extractvalue { ptr, i32 } %32, 0
  store ptr %33, ptr %exn.slot, align 8
  %34 = extractvalue { ptr, i32 } %32, 1
  store i32 %34, ptr %ehselector.slot, align 4
  call void @_ZNSt7__cxx1112basic_stringIcSt11char_traitsIcESaIcEED1Ev(ptr noundef nonnull align 8 dereferenceable(32) %ref.tmp) #6
  br label %ehcleanup

ehcleanup:                                        ; preds = %lpad27, %lpad24
  call void @_ZNSt7__cxx1112basic_stringIcSt11char_traitsIcESaIcEED1Ev(ptr noundef nonnull align 8 dereferenceable(32) %ref.tmp7) #6
  br label %ehcleanup29

ehcleanup29:                                      ; preds = %ehcleanup, %lpad22
  call void @_ZNSt7__cxx1112basic_stringIcSt11char_traitsIcESaIcEED1Ev(ptr noundef nonnull align 8 dereferenceable(32) %ref.tmp8) #6
  br label %ehcleanup30

ehcleanup30:                                      ; preds = %ehcleanup29, %lpad19
  call void @_ZNSt7__cxx1112basic_stringIcSt11char_traitsIcESaIcEED1Ev(ptr noundef nonnull align 8 dereferenceable(32) %ref.tmp9) #6
  br label %ehcleanup31

ehcleanup31:                                      ; preds = %ehcleanup30, %lpad15
  call void @_ZNSt7__cxx1112basic_stringIcSt11char_traitsIcESaIcEED1Ev(ptr noundef nonnull align 8 dereferenceable(32) %ref.tmp10) #6
  br label %ehcleanup32

ehcleanup32:                                      ; preds = %ehcleanup31, %lpad
  call void @_ZNSt7__cxx1112basic_stringIcSt11char_traitsIcESaIcEED1Ev(ptr noundef nonnull align 8 dereferenceable(32) %ref.tmp11) #6
  br label %eh.resume

lpad36:                                           ; preds = %invoke.cont37, %invoke.cont28
  %35 = landingpad { ptr, i32 }
          cleanup
  %36 = extractvalue { ptr, i32 } %35, 0
  store ptr %36, ptr %exn.slot, align 8
  %37 = extractvalue { ptr, i32 } %35, 1
  store i32 %37, ptr %ehselector.slot, align 4
  br label %ehcleanup91

lpad40:                                           ; preds = %invoke.cont39
  %38 = landingpad { ptr, i32 }
          cleanup
  %39 = extractvalue { ptr, i32 } %38, 0
  store ptr %39, ptr %exn.slot, align 8
  %40 = extractvalue { ptr, i32 } %38, 1
  store i32 %40, ptr %ehselector.slot, align 4
  br label %ehcleanup52

lpad44:                                           ; preds = %invoke.cont41
  %41 = landingpad { ptr, i32 }
          cleanup
  %42 = extractvalue { ptr, i32 } %41, 0
  store ptr %42, ptr %exn.slot, align 8
  %43 = extractvalue { ptr, i32 } %41, 1
  store i32 %43, ptr %ehselector.slot, align 4
  br label %ehcleanup50

lpad46:                                           ; preds = %invoke.cont45
  %44 = landingpad { ptr, i32 }
          cleanup
  %45 = extractvalue { ptr, i32 } %44, 0
  store ptr %45, ptr %exn.slot, align 8
  %46 = extractvalue { ptr, i32 } %44, 1
  store i32 %46, ptr %ehselector.slot, align 4
  call void @_ZNSt7__cxx1112basic_stringIcSt11char_traitsIcESaIcEED1Ev(ptr noundef nonnull align 8 dereferenceable(32) %ref.tmp42) #6
  br label %ehcleanup50

ehcleanup50:                                      ; preds = %lpad46, %lpad44
  call void @_ZNSaIcED1Ev(ptr noundef nonnull align 1 dereferenceable(1) %ref.tmp43) #6
  call void @_ZNSt7__cxx1112basic_stringIcSt11char_traitsIcESaIcEED1Ev(ptr noundef nonnull align 8 dereferenceable(32) %ref.tmp33) #6
  br label %ehcleanup52

ehcleanup52:                                      ; preds = %ehcleanup50, %lpad40
  call void @_ZNSt7__cxx1112basic_stringIcSt11char_traitsIcESaIcEED1Ev(ptr noundef nonnull align 8 dereferenceable(32) %ref.tmp34) #6
  br label %ehcleanup91

lpad58:                                           ; preds = %if.then54
  %47 = landingpad { ptr, i32 }
          cleanup
  %48 = extractvalue { ptr, i32 } %47, 0
  store ptr %48, ptr %exn.slot, align 8
  %49 = extractvalue { ptr, i32 } %47, 1
  store i32 %49, ptr %ehselector.slot, align 4
  br label %ehcleanup66

lpad60:                                           ; preds = %invoke.cont59
  %50 = landingpad { ptr, i32 }
          cleanup
  %51 = extractvalue { ptr, i32 } %50, 0
  store ptr %51, ptr %exn.slot, align 8
  %52 = extractvalue { ptr, i32 } %50, 1
  store i32 %52, ptr %ehselector.slot, align 4
  br label %ehcleanup65

lpad62:                                           ; preds = %invoke.cont63, %invoke.cont61
  %53 = landingpad { ptr, i32 }
          cleanup
  %54 = extractvalue { ptr, i32 } %53, 0
  store ptr %54, ptr %exn.slot, align 8
  %55 = extractvalue { ptr, i32 } %53, 1
  store i32 %55, ptr %ehselector.slot, align 4
  call void @_ZNSt7__cxx1112basic_stringIcSt11char_traitsIcESaIcEED1Ev(ptr noundef nonnull align 8 dereferenceable(32) %ref.tmp55) #6
  br label %ehcleanup65

ehcleanup65:                                      ; preds = %lpad62, %lpad60
  call void @_ZNSt7__cxx1112basic_stringIcSt11char_traitsIcESaIcEED1Ev(ptr noundef nonnull align 8 dereferenceable(32) %ref.tmp56) #6
  br label %ehcleanup66

ehcleanup66:                                      ; preds = %ehcleanup65, %lpad58
  %cleanup.is_active = load i1, ptr %cleanup.isactive, align 1
  br i1 %cleanup.is_active, label %cleanup.action, label %cleanup.done

cleanup.action:                                   ; preds = %ehcleanup66
  call void @__cxa_free_exception(ptr %exception) #6
  br label %cleanup.done

cleanup.done:                                     ; preds = %cleanup.action, %ehcleanup66
  br label %ehcleanup90

if.end67:                                         ; preds = %invoke.cont47
  %56 = load ptr, ptr %texture, align 8
  %mHeight = getelementptr inbounds %struct.aiTexture, ptr %56, i32 0, i32 1
  %57 = load i32, ptr %mHeight, align 4
  %cmp68 = icmp eq i32 %57, 0
  br i1 %cmp68, label %if.then69, label %if.else

if.then69:                                        ; preds = %if.end67
  %call70 = call noundef ptr @_ZNKSt10unique_ptrIN6Assimp8IOStreamESt14default_deleteIS1_EEptEv(ptr noundef nonnull align 8 dereferenceable(8) %outfile) #6
  %58 = load ptr, ptr %texture, align 8
  %pcData = getelementptr inbounds %struct.aiTexture, ptr %58, i32 0, i32 4
  %59 = load ptr, ptr %pcData, align 8
  %60 = load ptr, ptr %texture, align 8
  %mWidth = getelementptr inbounds %struct.aiTexture, ptr %60, i32 0, i32 0
  %61 = load i32, ptr %mWidth, align 8
  %conv = zext i32 %61 to i64
  %vtable71 = load ptr, ptr %call70, align 8
  %vfn72 = getelementptr inbounds ptr, ptr %vtable71, i64 3
  %62 = load ptr, ptr %vfn72, align 8
  %call75 = invoke noundef i64 %62(ptr noundef nonnull align 8 dereferenceable(8) %call70, ptr noundef %59, i64 noundef %conv, i64 noundef 1)
          to label %invoke.cont74 unwind label %lpad73

invoke.cont74:                                    ; preds = %if.then69
  br label %if.end79

lpad73:                                           ; preds = %invoke.cont83, %if.end79, %if.else, %if.then69
  %63 = landingpad { ptr, i32 }
          cleanup
  %64 = extractvalue { ptr, i32 } %63, 0
  store ptr %64, ptr %exn.slot, align 8
  %65 = extractvalue { ptr, i32 } %63, 1
  store i32 %65, ptr %ehselector.slot, align 4
  br label %ehcleanup90

if.else:                                          ; preds = %if.end67
  %66 = load ptr, ptr %texture, align 8
  %call76 = call noundef ptr @_ZNKSt10unique_ptrIN6Assimp8IOStreamESt14default_deleteIS1_EE3getEv(ptr noundef nonnull align 8 dereferenceable(8) %outfile) #6
  %call78 = invoke noundef zeroext i1 @_ZN6Assimp6Bitmap4SaveEP9aiTexturePNS_8IOStreamE(ptr noundef %66, ptr noundef %call76)
          to label %invoke.cont77 unwind label %lpad73

invoke.cont77:                                    ; preds = %if.else
  br label %if.end79

if.end79:                                         ; preds = %invoke.cont77, %invoke.cont74
  %call80 = call noundef ptr @_ZNKSt10unique_ptrIN6Assimp8IOStreamESt14default_deleteIS1_EEptEv(ptr noundef nonnull align 8 dereferenceable(8) %outfile) #6
  %vtable81 = load ptr, ptr %call80, align 8
  %vfn82 = getelementptr inbounds ptr, ptr %vtable81, i64 7
  %67 = load ptr, ptr %vfn82, align 8
  invoke void %67(ptr noundef nonnull align 8 dereferenceable(8) %call80)
          to label %invoke.cont83 unwind label %lpad73

invoke.cont83:                                    ; preds = %if.end79
  %textures = getelementptr inbounds %"class.Assimp::ColladaExporter", ptr %this1, i32 0, i32 15
  invoke void @_ZSt9make_pairIRjRNSt7__cxx1112basic_stringIcSt11char_traitsIcESaIcEEEESt4pairINSt25__strip_reference_wrapperINSt5decayIT_E4typeEE6__typeENS9_INSA_IT0_E4typeEE6__typeEEOSB_OSG_(ptr sret(%"struct.std::pair.32") align 8 %ref.tmp84, ptr noundef nonnull align 4 dereferenceable(4) %i, ptr noundef nonnull align 8 dereferenceable(32) %name)
          to label %invoke.cont85 unwind label %lpad73

invoke.cont85:                                    ; preds = %invoke.cont83
  %call88 = invoke { ptr, i8 } @_ZNSt3mapIjNSt7__cxx1112basic_stringIcSt11char_traitsIcESaIcEEESt4lessIjESaISt4pairIKjS5_EEE6insertIS8_IjS5_EEENSt9enable_ifIXsr16is_constructibleISA_T_EE5valueES8_ISt17_Rb_tree_iteratorISA_EbEE4typeEOSG_(ptr noundef nonnull align 8 dereferenceable(48) %textures, ptr noundef nonnull align 8 dereferenceable(40) %ref.tmp84)
          to label %invoke.cont87 unwind label %lpad86

invoke.cont87:                                    ; preds = %invoke.cont85
  %68 = getelementptr inbounds { ptr, i8 }, ptr %coerce, i32 0, i32 0
  %69 = extractvalue { ptr, i8 } %call88, 0
  store ptr %69, ptr %68, align 8
  %70 = getelementptr inbounds { ptr, i8 }, ptr %coerce, i32 0, i32 1
  %71 = extractvalue { ptr, i8 } %call88, 1
  store i8 %71, ptr %70, align 8
  call void @_ZNSt4pairIjNSt7__cxx1112basic_stringIcSt11char_traitsIcESaIcEEEED2Ev(ptr noundef nonnull align 8 dereferenceable(40) %ref.tmp84) #6
  call void @_ZNSt10unique_ptrIN6Assimp8IOStreamESt14default_deleteIS1_EED2Ev(ptr noundef nonnull align 8 dereferenceable(8) %outfile) #6
  call void @_ZNSt7__cxx1112basic_stringIcSt11char_traitsIcESaIcEED1Ev(ptr noundef nonnull align 8 dereferenceable(32) %name) #6
  br label %for.inc

for.inc:                                          ; preds = %invoke.cont87, %if.then5
  %72 = load i32, ptr %i, align 4
  %inc = add i32 %72, 1
  store i32 %inc, ptr %i, align 4
  br label %for.cond, !llvm.loop !6

lpad86:                                           ; preds = %invoke.cont85
  %73 = landingpad { ptr, i32 }
          cleanup
  %74 = extractvalue { ptr, i32 } %73, 0
  store ptr %74, ptr %exn.slot, align 8
  %75 = extractvalue { ptr, i32 } %73, 1
  store i32 %75, ptr %ehselector.slot, align 4
  call void @_ZNSt4pairIjNSt7__cxx1112basic_stringIcSt11char_traitsIcESaIcEEEED2Ev(ptr noundef nonnull align 8 dereferenceable(40) %ref.tmp84) #6
  br label %ehcleanup90

ehcleanup90:                                      ; preds = %lpad86, %lpad73, %cleanup.done
  call void @_ZNSt10unique_ptrIN6Assimp8IOStreamESt14default_deleteIS1_EED2Ev(ptr noundef nonnull align 8 dereferenceable(8) %outfile) #6
  br label %ehcleanup91

ehcleanup91:                                      ; preds = %ehcleanup90, %ehcleanup52, %lpad36
  call void @_ZNSt7__cxx1112basic_stringIcSt11char_traitsIcESaIcEED1Ev(ptr noundef nonnull align 8 dereferenceable(32) %name) #6
  br label %eh.resume

for.end:                                          ; preds = %for.cond
  br label %if.end92

if.end92:                                         ; preds = %for.end, %entry
  ret void

eh.resume:                                        ; preds = %ehcleanup91, %ehcleanup32
  %exn = load ptr, ptr %exn.slot, align 8
  %sel = load i32, ptr %ehselector.slot, align 4
  %lpad.val = insertvalue { ptr, i32 } poison, ptr %exn, 0
  %lpad.val93 = insertvalue { ptr, i32 } %lpad.val, i32 %sel, 1
  resume { ptr, i32 } %lpad.val93

unreachable:                                      ; preds = %invoke.cont63
  unreachable
}

; Function Attrs: mustprogress uwtable
define hidden void @_ZN6Assimp15ColladaExporter11WriteHeaderEv(ptr noundef nonnull align 8 dereferenceable(1248) %this) #2 align 2 personality ptr @__gxx_personality_v0 {
entry:
  %this.addr = alloca ptr, align 8
  %exn.slot = alloca ptr, align 8
  %ehselector.slot = alloca i32, align 4
  %ref.tmp = alloca %class.aiMatrix3x3t, align 4
  %ref.tmp14 = alloca %class.aiMatrix3x3t, align 4
  %ref.tmp23 = alloca %class.aiMatrix3x3t, align 4
  %date_str = alloca [20 x i8], align 16
  %date = alloca i64, align 8
  %scaling = alloca %class.aiVector3t, align 4
  %rotation = alloca %class.aiQuaterniont, align 4
  %position = alloca %class.aiVector3t, align 4
  %scale = alloca float, align 4
  %up_axis = alloca %"class.std::__cxx11::basic_string", align 8
  %ref.tmp51 = alloca %"class.std::allocator.0", align 1
  %ref.tmp77 = alloca %class.aiVector3t, align 4
  %meta = alloca ptr, align 8
  %value = alloca %struct.aiString, align 4
  %ref.tmp125 = alloca %"class.std::__cxx11::basic_string", align 8
  %ref.tmp126 = alloca %"class.std::allocator.0", align 1
  %cleanup.cond = alloca i1, align 1
  %cleanup.cond129 = alloca i1, align 1
  %ref.tmp166 = alloca %"class.std::__cxx11::basic_string", align 8
  %ref.tmp167 = alloca %"class.std::__cxx11::basic_string", align 8
  %ref.tmp170 = alloca %"class.std::allocator.0", align 1
  %ref.tmp189 = alloca %"class.std::__cxx11::basic_string", align 8
  %ref.tmp190 = alloca %"class.std::allocator.0", align 1
  %cleanup.cond191 = alloca i1, align 1
  %cleanup.cond194 = alloca i1, align 1
  %ref.tmp237 = alloca %"class.std::__cxx11::basic_string", align 8
  %ref.tmp238 = alloca %"class.std::__cxx11::basic_string", align 8
  %ref.tmp241 = alloca %"class.std::allocator.0", align 1
  %ref.tmp260 = alloca %"class.std::__cxx11::basic_string", align 8
  %ref.tmp261 = alloca %"class.std::allocator.0", align 1
  %ref.tmp277 = alloca %"class.std::__cxx11::basic_string", align 8
  %ref.tmp278 = alloca %"class.std::__cxx11::basic_string", align 8
  %ref.tmp281 = alloca %"class.std::allocator.0", align 1
  %ref.tmp298 = alloca %"class.std::__cxx11::basic_string", align 8
  %ref.tmp299 = alloca %"class.std::allocator.0", align 1
  %ref.tmp315 = alloca %"class.std::__cxx11::basic_string", align 8
  %ref.tmp316 = alloca %"class.std::__cxx11::basic_string", align 8
  %ref.tmp319 = alloca %"class.std::allocator.0", align 1
  %ref.tmp336 = alloca %"class.std::__cxx11::basic_string", align 8
  %ref.tmp337 = alloca %"class.std::allocator.0", align 1
  %ref.tmp353 = alloca %"class.std::__cxx11::basic_string", align 8
  %ref.tmp354 = alloca %"class.std::__cxx11::basic_string", align 8
  %ref.tmp357 = alloca %"class.std::allocator.0", align 1
  %ref.tmp388 = alloca %"class.std::__cxx11::basic_string", align 8
  %ref.tmp389 = alloca %"class.std::allocator.0", align 1
  %cleanup.cond390 = alloca i1, align 1
  %cleanup.cond393 = alloca i1, align 1
  %ref.tmp437 = alloca %"class.std::__cxx11::basic_string", align 8
  %ref.tmp438 = alloca %"class.std::__cxx11::basic_string", align 8
  %ref.tmp441 = alloca %"class.std::allocator.0", align 1
  %ref.tmp475 = alloca %"class.std::__cxx11::basic_string", align 8
  %ref.tmp476 = alloca %"class.std::allocator.0", align 1
  %ref.tmp492 = alloca %"class.std::__cxx11::basic_string", align 8
  %ref.tmp493 = alloca %"class.std::__cxx11::basic_string", align 8
  %ref.tmp496 = alloca %"class.std::allocator.0", align 1
  %ref.tmp513 = alloca %"class.std::__cxx11::basic_string", align 8
  %ref.tmp514 = alloca %"class.std::allocator.0", align 1
  %ref.tmp530 = alloca %"class.std::__cxx11::basic_string", align 8
  %ref.tmp531 = alloca %"class.std::__cxx11::basic_string", align 8
  %ref.tmp534 = alloca %"class.std::allocator.0", align 1
  %ref.tmp551 = alloca %"class.std::__cxx11::basic_string", align 8
  %ref.tmp552 = alloca %"class.std::allocator.0", align 1
  %ref.tmp568 = alloca %"class.std::__cxx11::basic_string", align 8
  %ref.tmp569 = alloca %"class.std::__cxx11::basic_string", align 8
  %ref.tmp572 = alloca %"class.std::allocator.0", align 1
  %ref.tmp589 = alloca %"class.std::__cxx11::basic_string", align 8
  %ref.tmp590 = alloca %"class.std::allocator.0", align 1
  %ref.tmp606 = alloca %"class.std::__cxx11::basic_string", align 8
  %ref.tmp607 = alloca %"class.std::__cxx11::basic_string", align 8
  %ref.tmp610 = alloca %"class.std::allocator.0", align 1
  store ptr %this, ptr %this.addr, align 8
  %this1 = load ptr, ptr %this.addr, align 8
  %0 = load atomic i8, ptr @_ZGVZN6Assimp15ColladaExporter11WriteHeaderEvE7epsilon acquire, align 8
  %guard.uninitialized = icmp eq i8 %0, 0
  br i1 %guard.uninitialized, label %init.check, label %init.end, !prof !7

init.check:                                       ; preds = %entry
  %1 = call i32 @__cxa_guard_acquire(ptr @_ZGVZN6Assimp15ColladaExporter11WriteHeaderEvE7epsilon) #6
  %tobool = icmp ne i32 %1, 0
  br i1 %tobool, label %init, label %init.end

init:                                             ; preds = %init.check
  %call = invoke noundef float @_ZN6Assimp4Math10getEpsilonIfEET_v()
          to label %invoke.cont unwind label %lpad

invoke.cont:                                      ; preds = %init
  store float %call, ptr @_ZZN6Assimp15ColladaExporter11WriteHeaderEvE7epsilon, align 4
  call void @__cxa_guard_release(ptr @_ZGVZN6Assimp15ColladaExporter11WriteHeaderEvE7epsilon) #6
  br label %init.end

init.end:                                         ; preds = %invoke.cont, %init.check, %entry
  %2 = load atomic i8, ptr @_ZGVZN6Assimp15ColladaExporter11WriteHeaderEvE5x_rot acquire, align 8
  %guard.uninitialized2 = icmp eq i8 %2, 0
  br i1 %guard.uninitialized2, label %init.check3, label %init.end9, !prof !7

init.check3:                                      ; preds = %init.end
  %3 = call i32 @__cxa_guard_acquire(ptr @_ZGVZN6Assimp15ColladaExporter11WriteHeaderEvE5x_rot) #6
  %tobool4 = icmp ne i32 %3, 0
  br i1 %tobool4, label %init5, label %init.end9

init5:                                            ; preds = %init.check3
  invoke void @_ZN12aiMatrix3x3tIfEC2Efffffffff(ptr noundef nonnull align 4 dereferenceable(36) %ref.tmp, float noundef 0.000000e+00, float noundef -1.000000e+00, float noundef 0.000000e+00, float noundef 1.000000e+00, float noundef 0.000000e+00, float noundef 0.000000e+00, float noundef 0.000000e+00, float noundef 0.000000e+00, float noundef 1.000000e+00)
          to label %invoke.cont7 unwind label %lpad6

invoke.cont7:                                     ; preds = %init5
  invoke void @_ZN13aiQuaterniontIfEC2ERK12aiMatrix3x3tIfE(ptr noundef nonnull align 4 dereferenceable(16) @_ZZN6Assimp15ColladaExporter11WriteHeaderEvE5x_rot, ptr noundef nonnull align 4 dereferenceable(36) %ref.tmp)
          to label %invoke.cont8 unwind label %lpad6

invoke.cont8:                                     ; preds = %invoke.cont7
  call void @__cxa_guard_release(ptr @_ZGVZN6Assimp15ColladaExporter11WriteHeaderEvE5x_rot) #6
  br label %init.end9

init.end9:                                        ; preds = %invoke.cont8, %init.check3, %init.end
  %4 = load atomic i8, ptr @_ZGVZN6Assimp15ColladaExporter11WriteHeaderEvE5y_rot acquire, align 8
  %guard.uninitialized10 = icmp eq i8 %4, 0
  br i1 %guard.uninitialized10, label %init.check11, label %init.end18, !prof !7

init.check11:                                     ; preds = %init.end9
  %5 = call i32 @__cxa_guard_acquire(ptr @_ZGVZN6Assimp15ColladaExporter11WriteHeaderEvE5y_rot) #6
  %tobool12 = icmp ne i32 %5, 0
  br i1 %tobool12, label %init13, label %init.end18

init13:                                           ; preds = %init.check11
  invoke void @_ZN12aiMatrix3x3tIfEC2Efffffffff(ptr noundef nonnull align 4 dereferenceable(36) %ref.tmp14, float noundef 1.000000e+00, float noundef 0.000000e+00, float noundef 0.000000e+00, float noundef 0.000000e+00, float noundef 1.000000e+00, float noundef 0.000000e+00, float noundef 0.000000e+00, float noundef 0.000000e+00, float noundef 1.000000e+00)
          to label %invoke.cont16 unwind label %lpad15

invoke.cont16:                                    ; preds = %init13
  invoke void @_ZN13aiQuaterniontIfEC2ERK12aiMatrix3x3tIfE(ptr noundef nonnull align 4 dereferenceable(16) @_ZZN6Assimp15ColladaExporter11WriteHeaderEvE5y_rot, ptr noundef nonnull align 4 dereferenceable(36) %ref.tmp14)
          to label %invoke.cont17 unwind label %lpad15

invoke.cont17:                                    ; preds = %invoke.cont16
  call void @__cxa_guard_release(ptr @_ZGVZN6Assimp15ColladaExporter11WriteHeaderEvE5y_rot) #6
  br label %init.end18

init.end18:                                       ; preds = %invoke.cont17, %init.check11, %init.end9
  %6 = load atomic i8, ptr @_ZGVZN6Assimp15ColladaExporter11WriteHeaderEvE5z_rot acquire, align 8
  %guard.uninitialized19 = icmp eq i8 %6, 0
  br i1 %guard.uninitialized19, label %init.check20, label %init.end27, !prof !7

init.check20:                                     ; preds = %init.end18
  %7 = call i32 @__cxa_guard_acquire(ptr @_ZGVZN6Assimp15ColladaExporter11WriteHeaderEvE5z_rot) #6
  %tobool21 = icmp ne i32 %7, 0
  br i1 %tobool21, label %init22, label %init.end27

init22:                                           ; preds = %init.check20
  invoke void @_ZN12aiMatrix3x3tIfEC2Efffffffff(ptr noundef nonnull align 4 dereferenceable(36) %ref.tmp23, float noundef 1.000000e+00, float noundef 0.000000e+00, float noundef 0.000000e+00, float noundef 0.000000e+00, float noundef 0.000000e+00, float noundef 1.000000e+00, float noundef 0.000000e+00, float noundef -1.000000e+00, float noundef 0.000000e+00)
          to label %invoke.cont25 unwind label %lpad24

invoke.cont25:                                    ; preds = %init22
  invoke void @_ZN13aiQuaterniontIfEC2ERK12aiMatrix3x3tIfE(ptr noundef nonnull align 4 dereferenceable(16) @_ZZN6Assimp15ColladaExporter11WriteHeaderEvE5z_rot, ptr noundef nonnull align 4 dereferenceable(36) %ref.tmp23)
          to label %invoke.cont26 unwind label %lpad24

invoke.cont26:                                    ; preds = %invoke.cont25
  call void @__cxa_guard_release(ptr @_ZGVZN6Assimp15ColladaExporter11WriteHeaderEvE5z_rot) #6
  br label %init.end27

init.end27:                                       ; preds = %invoke.cont26, %init.check20, %init.end18
  %call28 = call i64 @time(ptr noundef null) #6
  store i64 %call28, ptr %date, align 8
  %arraydecay = getelementptr inbounds [20 x i8], ptr %date_str, i64 0, i64 0
  %call29 = call ptr @localtime(ptr noundef %date) #6
  %call30 = call i64 @strftime(ptr noundef %arraydecay, i64 noundef 20, ptr noundef @.str.18, ptr noundef %call29) #6
  call void @_ZN10aiVector3tIfEC2Ev(ptr noundef nonnull align 4 dereferenceable(12) %scaling) #6
  call void @_ZN13aiQuaterniontIfEC2Ev(ptr noundef nonnull align 4 dereferenceable(16) %rotation) #6
  call void @_ZN10aiVector3tIfEC2Ev(ptr noundef nonnull align 4 dereferenceable(12) %position) #6
  %mScene = getelementptr inbounds %"class.Assimp::ColladaExporter", ptr %this1, i32 0, i32 10
  %8 = load ptr, ptr %mScene, align 8
  %mRootNode = getelementptr inbounds %struct.aiScene, ptr %8, i32 0, i32 1
  %9 = load ptr, ptr %mRootNode, align 8
  %mTransformation = getelementptr inbounds %struct.aiNode, ptr %9, i32 0, i32 1
  call void @_ZNK12aiMatrix4x4tIfE9DecomposeER10aiVector3tIfER13aiQuaterniontIfES3_(ptr noundef nonnull align 4 dereferenceable(64) %mTransformation, ptr noundef nonnull align 4 dereferenceable(12) %scaling, ptr noundef nonnull align 4 dereferenceable(16) %rotation, ptr noundef nonnull align 4 dereferenceable(12) %position)
  %call31 = call noundef nonnull align 4 dereferenceable(16) ptr @_ZN13aiQuaterniontIfE9NormalizeEv(ptr noundef nonnull align 4 dereferenceable(16) %rotation)
  %mAdd_root_node = getelementptr inbounds %"class.Assimp::ColladaExporter", ptr %this1, i32 0, i32 12
  store i8 0, ptr %mAdd_root_node, align 8
  store float 1.000000e+00, ptr %scale, align 4
  %x = getelementptr inbounds %class.aiVector3t, ptr %scaling, i32 0, i32 0
  %10 = load float, ptr %x, align 4
  %y = getelementptr inbounds %class.aiVector3t, ptr %scaling, i32 0, i32 1
  %11 = load float, ptr %y, align 4
  %sub = fsub float %10, %11
  %call32 = call noundef float @_ZSt3absf(float noundef %sub)
  %12 = load float, ptr @_ZZN6Assimp15ColladaExporter11WriteHeaderEvE7epsilon, align 4
  %cmp = fcmp ole float %call32, %12
  br i1 %cmp, label %land.lhs.true, label %if.else

land.lhs.true:                                    ; preds = %init.end27
  %x33 = getelementptr inbounds %class.aiVector3t, ptr %scaling, i32 0, i32 0
  %13 = load float, ptr %x33, align 4
  %z = getelementptr inbounds %class.aiVector3t, ptr %scaling, i32 0, i32 2
  %14 = load float, ptr %z, align 4
  %sub34 = fsub float %13, %14
  %call35 = call noundef float @_ZSt3absf(float noundef %sub34)
  %15 = load float, ptr @_ZZN6Assimp15ColladaExporter11WriteHeaderEvE7epsilon, align 4
  %cmp36 = fcmp ole float %call35, %15
  br i1 %cmp36, label %land.lhs.true37, label %if.else

land.lhs.true37:                                  ; preds = %land.lhs.true
  %y38 = getelementptr inbounds %class.aiVector3t, ptr %scaling, i32 0, i32 1
  %16 = load float, ptr %y38, align 4
  %z39 = getelementptr inbounds %class.aiVector3t, ptr %scaling, i32 0, i32 2
  %17 = load float, ptr %z39, align 4
  %sub40 = fsub float %16, %17
  %call41 = call noundef float @_ZSt3absf(float noundef %sub40)
  %18 = load float, ptr @_ZZN6Assimp15ColladaExporter11WriteHeaderEvE7epsilon, align 4
  %cmp42 = fcmp ole float %call41, %18
  br i1 %cmp42, label %if.then, label %if.else

if.then:                                          ; preds = %land.lhs.true37
  %x43 = getelementptr inbounds %class.aiVector3t, ptr %scaling, i32 0, i32 0
  %19 = load float, ptr %x43, align 4
  %conv = fpext float %19 to double
  %y44 = getelementptr inbounds %class.aiVector3t, ptr %scaling, i32 0, i32 1
  %20 = load float, ptr %y44, align 4
  %conv45 = fpext float %20 to double
  %add = fadd double %conv, %conv45
  %z46 = getelementptr inbounds %class.aiVector3t, ptr %scaling, i32 0, i32 2
  %21 = load float, ptr %z46, align 4
  %conv47 = fpext float %21 to double
  %add48 = fadd double %add, %conv47
  %div = fdiv double %add48, 3.000000e+00
  %conv49 = fptrunc double %div to float
  store float %conv49, ptr %scale, align 4
  br label %if.end

lpad:                                             ; preds = %init
  %22 = landingpad { ptr, i32 }
          cleanup
  %23 = extractvalue { ptr, i32 } %22, 0
  store ptr %23, ptr %exn.slot, align 8
  %24 = extractvalue { ptr, i32 } %22, 1
  store i32 %24, ptr %ehselector.slot, align 4
  call void @__cxa_guard_abort(ptr @_ZGVZN6Assimp15ColladaExporter11WriteHeaderEvE7epsilon) #6
  br label %eh.resume

lpad6:                                            ; preds = %invoke.cont7, %init5
  %25 = landingpad { ptr, i32 }
          cleanup
  %26 = extractvalue { ptr, i32 } %25, 0
  store ptr %26, ptr %exn.slot, align 8
  %27 = extractvalue { ptr, i32 } %25, 1
  store i32 %27, ptr %ehselector.slot, align 4
  call void @__cxa_guard_abort(ptr @_ZGVZN6Assimp15ColladaExporter11WriteHeaderEvE5x_rot) #6
  br label %eh.resume

lpad15:                                           ; preds = %invoke.cont16, %init13
  %28 = landingpad { ptr, i32 }
          cleanup
  %29 = extractvalue { ptr, i32 } %28, 0
  store ptr %29, ptr %exn.slot, align 8
  %30 = extractvalue { ptr, i32 } %28, 1
  store i32 %30, ptr %ehselector.slot, align 4
  call void @__cxa_guard_abort(ptr @_ZGVZN6Assimp15ColladaExporter11WriteHeaderEvE5y_rot) #6
  br label %eh.resume

lpad24:                                           ; preds = %invoke.cont25, %init22
  %31 = landingpad { ptr, i32 }
          cleanup
  %32 = extractvalue { ptr, i32 } %31, 0
  store ptr %32, ptr %exn.slot, align 8
  %33 = extractvalue { ptr, i32 } %31, 1
  store i32 %33, ptr %ehselector.slot, align 4
  call void @__cxa_guard_abort(ptr @_ZGVZN6Assimp15ColladaExporter11WriteHeaderEvE5z_rot) #6
  br label %eh.resume

if.else:                                          ; preds = %land.lhs.true37, %land.lhs.true, %init.end27
  %mAdd_root_node50 = getelementptr inbounds %"class.Assimp::ColladaExporter", ptr %this1, i32 0, i32 12
  store i8 1, ptr %mAdd_root_node50, align 8
  br label %if.end

if.end:                                           ; preds = %if.else, %if.then
  call void @_ZNSaIcEC1Ev(ptr noundef nonnull align 1 dereferenceable(1) %ref.tmp51) #6
  invoke void @_ZNSt7__cxx1112basic_stringIcSt11char_traitsIcESaIcEEC2IS3_EEPKcRKS3_(ptr noundef nonnull align 8 dereferenceable(32) %up_axis, ptr noundef @.str.19, ptr noundef nonnull align 1 dereferenceable(1) %ref.tmp51)
          to label %invoke.cont53 unwind label %lpad52

invoke.cont53:                                    ; preds = %if.end
  call void @_ZNSaIcED1Ev(ptr noundef nonnull align 1 dereferenceable(1) %ref.tmp51) #6
  %34 = load float, ptr @_ZZN6Assimp15ColladaExporter11WriteHeaderEvE7epsilon, align 4
  %call56 = invoke noundef zeroext i1 @_ZNK13aiQuaterniontIfE5EqualERKS0_f(ptr noundef nonnull align 4 dereferenceable(16) %rotation, ptr noundef nonnull align 4 dereferenceable(16) @_ZZN6Assimp15ColladaExporter11WriteHeaderEvE5x_rot, float noundef %34)
          to label %invoke.cont55 unwind label %lpad54

invoke.cont55:                                    ; preds = %invoke.cont53
  br i1 %call56, label %if.then57, label %if.else60

if.then57:                                        ; preds = %invoke.cont55
  %call59 = invoke noundef nonnull align 8 dereferenceable(32) ptr @_ZNSt7__cxx1112basic_stringIcSt11char_traitsIcESaIcEEaSEPKc(ptr noundef nonnull align 8 dereferenceable(32) %up_axis, ptr noundef @.str.20)
          to label %invoke.cont58 unwind label %lpad54

invoke.cont58:                                    ; preds = %if.then57
  br label %if.end76

lpad52:                                           ; preds = %if.end
  %35 = landingpad { ptr, i32 }
          cleanup
  %36 = extractvalue { ptr, i32 } %35, 0
  store ptr %36, ptr %exn.slot, align 8
  %37 = extractvalue { ptr, i32 } %35, 1
  store i32 %37, ptr %ehselector.slot, align 4
  call void @_ZNSaIcED1Ev(ptr noundef nonnull align 1 dereferenceable(1) %ref.tmp51) #6
  br label %eh.resume

lpad54:                                           ; preds = %invoke.cont662, %invoke.cont660, %invoke.cont656, %invoke.cont654, %invoke.cont651, %invoke.cont649, %invoke.cont647, %invoke.cont645, %invoke.cont640, %invoke.cont637, %invoke.cont635, %invoke.cont633, %invoke.cont631, %if.end627, %invoke.cont604, %invoke.cont602, %if.then598, %invoke.cont566, %invoke.cont564, %if.then560, %invoke.cont528, %invoke.cont526, %if.then522, %invoke.cont490, %invoke.cont488, %if.then484, %invoke.cont468, %invoke.cont466, %invoke.cont463, %invoke.cont461, %if.end457, %invoke.cont435, %invoke.cont433, %if.else429, %invoke.cont424, %invoke.cont422, %invoke.cont419, %invoke.cont417, %if.then413, %invoke.cont381, %invoke.cont379, %invoke.cont375, %if.end374, %invoke.cont351, %invoke.cont349, %if.then345, %invoke.cont313, %invoke.cont311, %if.then307, %invoke.cont275, %invoke.cont273, %if.then269, %invoke.cont235, %invoke.cont233, %if.else229, %invoke.cont224, %invoke.cont222, %invoke.cont220, %invoke.cont218, %if.then214, %invoke.cont164, %invoke.cont162, %if.else158, %invoke.cont153, %invoke.cont151, %invoke.cont149, %invoke.cont147, %if.then143, %invoke.cont114, %invoke.cont111, %invoke.cont109, %invoke.cont105, %invoke.cont103, %invoke.cont101, %invoke.cont99, %if.end98, %if.then95, %invoke.cont78, %if.end76, %if.then69, %if.else66, %if.then63, %if.else60, %if.then57, %invoke.cont53
  %38 = landingpad { ptr, i32 }
          cleanup
  %39 = extractvalue { ptr, i32 } %38, 0
  store ptr %39, ptr %exn.slot, align 8
  %40 = extractvalue { ptr, i32 } %38, 1
  store i32 %40, ptr %ehselector.slot, align 4
  br label %ehcleanup667

if.else60:                                        ; preds = %invoke.cont55
  %41 = load float, ptr @_ZZN6Assimp15ColladaExporter11WriteHeaderEvE7epsilon, align 4
  %call62 = invoke noundef zeroext i1 @_ZNK13aiQuaterniontIfE5EqualERKS0_f(ptr noundef nonnull align 4 dereferenceable(16) %rotation, ptr noundef nonnull align 4 dereferenceable(16) @_ZZN6Assimp15ColladaExporter11WriteHeaderEvE5y_rot, float noundef %41)
          to label %invoke.cont61 unwind label %lpad54

invoke.cont61:                                    ; preds = %if.else60
  br i1 %call62, label %if.then63, label %if.else66

if.then63:                                        ; preds = %invoke.cont61
  %call65 = invoke noundef nonnull align 8 dereferenceable(32) ptr @_ZNSt7__cxx1112basic_stringIcSt11char_traitsIcESaIcEEaSEPKc(ptr noundef nonnull align 8 dereferenceable(32) %up_axis, ptr noundef @.str.19)
          to label %invoke.cont64 unwind label %lpad54

invoke.cont64:                                    ; preds = %if.then63
  br label %if.end75

if.else66:                                        ; preds = %invoke.cont61
  %42 = load float, ptr @_ZZN6Assimp15ColladaExporter11WriteHeaderEvE7epsilon, align 4
  %call68 = invoke noundef zeroext i1 @_ZNK13aiQuaterniontIfE5EqualERKS0_f(ptr noundef nonnull align 4 dereferenceable(16) %rotation, ptr noundef nonnull align 4 dereferenceable(16) @_ZZN6Assimp15ColladaExporter11WriteHeaderEvE5z_rot, float noundef %42)
          to label %invoke.cont67 unwind label %lpad54

invoke.cont67:                                    ; preds = %if.else66
  br i1 %call68, label %if.then69, label %if.else72

if.then69:                                        ; preds = %invoke.cont67
  %call71 = invoke noundef nonnull align 8 dereferenceable(32) ptr @_ZNSt7__cxx1112basic_stringIcSt11char_traitsIcESaIcEEaSEPKc(ptr noundef nonnull align 8 dereferenceable(32) %up_axis, ptr noundef @.str.21)
          to label %invoke.cont70 unwind label %lpad54

invoke.cont70:                                    ; preds = %if.then69
  br label %if.end74

if.else72:                                        ; preds = %invoke.cont67
  %mAdd_root_node73 = getelementptr inbounds %"class.Assimp::ColladaExporter", ptr %this1, i32 0, i32 12
  store i8 1, ptr %mAdd_root_node73, align 8
  br label %if.end74

if.end74:                                         ; preds = %if.else72, %invoke.cont70
  br label %if.end75

if.end75:                                         ; preds = %if.end74, %invoke.cont64
  br label %if.end76

if.end76:                                         ; preds = %if.end75, %invoke.cont58
  invoke void @_ZN10aiVector3tIfEC2Efff(ptr noundef nonnull align 4 dereferenceable(12) %ref.tmp77, float noundef 0.000000e+00, float noundef 0.000000e+00, float noundef 0.000000e+00)
          to label %invoke.cont78 unwind label %lpad54

invoke.cont78:                                    ; preds = %if.end76
  %call80 = invoke noundef zeroext i1 @_ZNK10aiVector3tIfE5EqualERKS0_f(ptr noundef nonnull align 4 dereferenceable(12) %position, ptr noundef nonnull align 4 dereferenceable(12) %ref.tmp77, float noundef 0x3EB0C6F7A0000000)
          to label %invoke.cont79 unwind label %lpad54

invoke.cont79:                                    ; preds = %invoke.cont78
  %lnot = xor i1 %call80, true
  br i1 %lnot, label %if.then81, label %if.end83

if.then81:                                        ; preds = %invoke.cont79
  %mAdd_root_node82 = getelementptr inbounds %"class.Assimp::ColladaExporter", ptr %this1, i32 0, i32 12
  store i8 1, ptr %mAdd_root_node82, align 8
  br label %if.end83

if.end83:                                         ; preds = %if.then81, %invoke.cont79
  %mScene84 = getelementptr inbounds %"class.Assimp::ColladaExporter", ptr %this1, i32 0, i32 10
  %43 = load ptr, ptr %mScene84, align 8
  %mRootNode85 = getelementptr inbounds %struct.aiScene, ptr %43, i32 0, i32 1
  %44 = load ptr, ptr %mRootNode85, align 8
  %mNumChildren = getelementptr inbounds %struct.aiNode, ptr %44, i32 0, i32 3
  %45 = load i32, ptr %mNumChildren, align 8
  %cmp86 = icmp eq i32 %45, 0
  br i1 %cmp86, label %if.then90, label %lor.lhs.false

lor.lhs.false:                                    ; preds = %if.end83
  %mScene87 = getelementptr inbounds %"class.Assimp::ColladaExporter", ptr %this1, i32 0, i32 10
  %46 = load ptr, ptr %mScene87, align 8
  %mRootNode88 = getelementptr inbounds %struct.aiScene, ptr %46, i32 0, i32 1
  %47 = load ptr, ptr %mRootNode88, align 8
  %mMeshes = getelementptr inbounds %struct.aiNode, ptr %47, i32 0, i32 6
  %48 = load ptr, ptr %mMeshes, align 8
  %cmp89 = icmp ne ptr %48, null
  br i1 %cmp89, label %if.then90, label %if.end92

if.then90:                                        ; preds = %lor.lhs.false, %if.end83
  %mAdd_root_node91 = getelementptr inbounds %"class.Assimp::ColladaExporter", ptr %this1, i32 0, i32 12
  store i8 1, ptr %mAdd_root_node91, align 8
  br label %if.end92

if.end92:                                         ; preds = %if.then90, %lor.lhs.false
  %mAdd_root_node93 = getelementptr inbounds %"class.Assimp::ColladaExporter", ptr %this1, i32 0, i32 12
  %49 = load i8, ptr %mAdd_root_node93, align 8
  %tobool94 = trunc i8 %49 to i1
  br i1 %tobool94, label %if.then95, label %if.end98

if.then95:                                        ; preds = %if.end92
  %call97 = invoke noundef nonnull align 8 dereferenceable(32) ptr @_ZNSt7__cxx1112basic_stringIcSt11char_traitsIcESaIcEEaSEPKc(ptr noundef nonnull align 8 dereferenceable(32) %up_axis, ptr noundef @.str.19)
          to label %invoke.cont96 unwind label %lpad54

invoke.cont96:                                    ; preds = %if.then95
  store float 1.000000e+00, ptr %scale, align 4
  br label %if.end98

if.end98:                                         ; preds = %invoke.cont96, %if.end92
  %mOutput = getelementptr inbounds %"class.Assimp::ColladaExporter", ptr %this1, i32 0, i32 6
  %add.ptr = getelementptr inbounds i8, ptr %mOutput, i64 16
  %startstr = getelementptr inbounds %"class.Assimp::ColladaExporter", ptr %this1, i32 0, i32 13
  %call100 = invoke noundef nonnull align 8 dereferenceable(8) ptr @_ZStlsIcSt11char_traitsIcESaIcEERSt13basic_ostreamIT_T0_ES7_RKNSt7__cxx1112basic_stringIS4_S5_T1_EE(ptr noundef nonnull align 8 dereferenceable(8) %add.ptr, ptr noundef nonnull align 8 dereferenceable(32) %startstr)
          to label %invoke.cont99 unwind label %lpad54

invoke.cont99:                                    ; preds = %if.end98
  %call102 = invoke noundef nonnull align 8 dereferenceable(8) ptr @_ZStlsISt11char_traitsIcEERSt13basic_ostreamIcT_ES5_PKc(ptr noundef nonnull align 8 dereferenceable(8) %call100, ptr noundef @.str.22)
          to label %invoke.cont101 unwind label %lpad54

invoke.cont101:                                   ; preds = %invoke.cont99
  %endstr = getelementptr inbounds %"class.Assimp::ColladaExporter", ptr %this1, i32 0, i32 14
  %call104 = invoke noundef nonnull align 8 dereferenceable(8) ptr @_ZStlsIcSt11char_traitsIcESaIcEERSt13basic_ostreamIT_T0_ES7_RKNSt7__cxx1112basic_stringIS4_S5_T1_EE(ptr noundef nonnull align 8 dereferenceable(8) %call102, ptr noundef nonnull align 8 dereferenceable(32) %endstr)
          to label %invoke.cont103 unwind label %lpad54

invoke.cont103:                                   ; preds = %invoke.cont101
  invoke void @_ZN6Assimp15ColladaExporter7PushTagEv(ptr noundef nonnull align 8 dereferenceable(1248) %this1)
          to label %invoke.cont105 unwind label %lpad54

invoke.cont105:                                   ; preds = %invoke.cont103
  %mOutput106 = getelementptr inbounds %"class.Assimp::ColladaExporter", ptr %this1, i32 0, i32 6
  %add.ptr107 = getelementptr inbounds i8, ptr %mOutput106, i64 16
  %startstr108 = getelementptr inbounds %"class.Assimp::ColladaExporter", ptr %this1, i32 0, i32 13
  %call110 = invoke noundef nonnull align 8 dereferenceable(8) ptr @_ZStlsIcSt11char_traitsIcESaIcEERSt13basic_ostreamIT_T0_ES7_RKNSt7__cxx1112basic_stringIS4_S5_T1_EE(ptr noundef nonnull align 8 dereferenceable(8) %add.ptr107, ptr noundef nonnull align 8 dereferenceable(32) %startstr108)
          to label %invoke.cont109 unwind label %lpad54

invoke.cont109:                                   ; preds = %invoke.cont105
  %call112 = invoke noundef nonnull align 8 dereferenceable(8) ptr @_ZStlsISt11char_traitsIcEERSt13basic_ostreamIcT_ES5_PKc(ptr noundef nonnull align 8 dereferenceable(8) %call110, ptr noundef @.str.23)
          to label %invoke.cont111 unwind label %lpad54

invoke.cont111:                                   ; preds = %invoke.cont109
  %endstr113 = getelementptr inbounds %"class.Assimp::ColladaExporter", ptr %this1, i32 0, i32 14
  %call115 = invoke noundef nonnull align 8 dereferenceable(8) ptr @_ZStlsIcSt11char_traitsIcESaIcEERSt13basic_ostreamIT_T0_ES7_RKNSt7__cxx1112basic_stringIS4_S5_T1_EE(ptr noundef nonnull align 8 dereferenceable(8) %call112, ptr noundef nonnull align 8 dereferenceable(32) %endstr113)
          to label %invoke.cont114 unwind label %lpad54

invoke.cont114:                                   ; preds = %invoke.cont111
  invoke void @_ZN6Assimp15ColladaExporter7PushTagEv(ptr noundef nonnull align 8 dereferenceable(1248) %this1)
          to label %invoke.cont116 unwind label %lpad54

invoke.cont116:                                   ; preds = %invoke.cont114
  %mScene117 = getelementptr inbounds %"class.Assimp::ColladaExporter", ptr %this1, i32 0, i32 10
  %50 = load ptr, ptr %mScene117, align 8
  %mMetaData = getelementptr inbounds %struct.aiScene, ptr %50, i32 0, i32 14
  %51 = load ptr, ptr %mMetaData, align 8
  store ptr %51, ptr %meta, align 8
  %52 = load ptr, ptr %meta, align 8
  %cmp118 = icmp eq ptr null, %52
  br i1 %cmp118, label %if.then119, label %if.end123

if.then119:                                       ; preds = %invoke.cont116
  %mScene120 = getelementptr inbounds %"class.Assimp::ColladaExporter", ptr %this1, i32 0, i32 10
  %53 = load ptr, ptr %mScene120, align 8
  %mRootNode121 = getelementptr inbounds %struct.aiScene, ptr %53, i32 0, i32 1
  %54 = load ptr, ptr %mRootNode121, align 8
  %mMetaData122 = getelementptr inbounds %struct.aiNode, ptr %54, i32 0, i32 7
  %55 = load ptr, ptr %mMetaData122, align 8
  store ptr %55, ptr %meta, align 8
  br label %if.end123

if.end123:                                        ; preds = %if.then119, %invoke.cont116
  call void @_ZN8aiStringC2Ev(ptr noundef nonnull align 4 dereferenceable(1028) %value) #6
  %56 = load ptr, ptr %meta, align 8
  %tobool124 = icmp ne ptr %56, null
  store i1 false, ptr %cleanup.cond, align 1
  store i1 false, ptr %cleanup.cond129, align 1
  br i1 %tobool124, label %lor.rhs, label %lor.end

lor.rhs:                                          ; preds = %if.end123
  %57 = load ptr, ptr %meta, align 8
  call void @_ZNSaIcEC1Ev(ptr noundef nonnull align 1 dereferenceable(1) %ref.tmp126) #6
  store i1 true, ptr %cleanup.cond, align 1
  invoke void @_ZNSt7__cxx1112basic_stringIcSt11char_traitsIcESaIcEEC2IS3_EEPKcRKS3_(ptr noundef nonnull align 8 dereferenceable(32) %ref.tmp125, ptr noundef @.str.24, ptr noundef nonnull align 1 dereferenceable(1) %ref.tmp126)
          to label %invoke.cont128 unwind label %lpad127

invoke.cont128:                                   ; preds = %lor.rhs
  store i1 true, ptr %cleanup.cond129, align 1
  %call132 = invoke noundef zeroext i1 @_ZNK10aiMetadata3GetI8aiStringEEbRKNSt7__cxx1112basic_stringIcSt11char_traitsIcESaIcEEERT_(ptr noundef nonnull align 8 dereferenceable(24) %57, ptr noundef nonnull align 8 dereferenceable(32) %ref.tmp125, ptr noundef nonnull align 4 dereferenceable(1028) %value)
          to label %invoke.cont131 unwind label %lpad130

invoke.cont131:                                   ; preds = %invoke.cont128
  %lnot133 = xor i1 %call132, true
  br label %lor.end

lor.end:                                          ; preds = %invoke.cont131, %if.end123
  %58 = phi i1 [ true, %if.end123 ], [ %lnot133, %invoke.cont131 ]
  %cleanup.is_active = load i1, ptr %cleanup.cond129, align 1
  br i1 %cleanup.is_active, label %cleanup.action, label %cleanup.done

cleanup.action:                                   ; preds = %lor.end
  call void @_ZNSt7__cxx1112basic_stringIcSt11char_traitsIcESaIcEED1Ev(ptr noundef nonnull align 8 dereferenceable(32) %ref.tmp125) #6
  br label %cleanup.done

cleanup.done:                                     ; preds = %cleanup.action, %lor.end
  %cleanup.is_active137 = load i1, ptr %cleanup.cond, align 1
  br i1 %cleanup.is_active137, label %cleanup.action138, label %cleanup.done139

cleanup.action138:                                ; preds = %cleanup.done
  call void @_ZNSaIcED1Ev(ptr noundef nonnull align 1 dereferenceable(1) %ref.tmp126) #6
  br label %cleanup.done139

cleanup.done139:                                  ; preds = %cleanup.action138, %cleanup.done
  br i1 %58, label %if.then143, label %if.else158

if.then143:                                       ; preds = %cleanup.done139
  %mOutput144 = getelementptr inbounds %"class.Assimp::ColladaExporter", ptr %this1, i32 0, i32 6
  %add.ptr145 = getelementptr inbounds i8, ptr %mOutput144, i64 16
  %startstr146 = getelementptr inbounds %"class.Assimp::ColladaExporter", ptr %this1, i32 0, i32 13
  %call148 = invoke noundef nonnull align 8 dereferenceable(8) ptr @_ZStlsIcSt11char_traitsIcESaIcEERSt13basic_ostreamIT_T0_ES7_RKNSt7__cxx1112basic_stringIS4_S5_T1_EE(ptr noundef nonnull align 8 dereferenceable(8) %add.ptr145, ptr noundef nonnull align 8 dereferenceable(32) %startstr146)
          to label %invoke.cont147 unwind label %lpad54

invoke.cont147:                                   ; preds = %if.then143
  %call150 = invoke noundef nonnull align 8 dereferenceable(8) ptr @_ZStlsISt11char_traitsIcEERSt13basic_ostreamIcT_ES5_PKc(ptr noundef nonnull align 8 dereferenceable(8) %call148, ptr noundef @.str.25)
          to label %invoke.cont149 unwind label %lpad54

invoke.cont149:                                   ; preds = %invoke.cont147
  %call152 = invoke noundef nonnull align 8 dereferenceable(8) ptr @_ZStlsISt11char_traitsIcEERSt13basic_ostreamIcT_ES5_PKc(ptr noundef nonnull align 8 dereferenceable(8) %call150, ptr noundef @.str.26)
          to label %invoke.cont151 unwind label %lpad54

invoke.cont151:                                   ; preds = %invoke.cont149
  %call154 = invoke noundef nonnull align 8 dereferenceable(8) ptr @_ZStlsISt11char_traitsIcEERSt13basic_ostreamIcT_ES5_PKc(ptr noundef nonnull align 8 dereferenceable(8) %call152, ptr noundef @.str.27)
          to label %invoke.cont153 unwind label %lpad54

invoke.cont153:                                   ; preds = %invoke.cont151
  %endstr155 = getelementptr inbounds %"class.Assimp::ColladaExporter", ptr %this1, i32 0, i32 14
  %call157 = invoke noundef nonnull align 8 dereferenceable(8) ptr @_ZStlsIcSt11char_traitsIcESaIcEERSt13basic_ostreamIT_T0_ES7_RKNSt7__cxx1112basic_stringIS4_S5_T1_EE(ptr noundef nonnull align 8 dereferenceable(8) %call154, ptr noundef nonnull align 8 dereferenceable(32) %endstr155)
          to label %invoke.cont156 unwind label %lpad54

invoke.cont156:                                   ; preds = %invoke.cont153
  br label %if.end186

lpad127:                                          ; preds = %lor.rhs
  %59 = landingpad { ptr, i32 }
          cleanup
  %60 = extractvalue { ptr, i32 } %59, 0
  store ptr %60, ptr %exn.slot, align 8
  %61 = extractvalue { ptr, i32 } %59, 1
  store i32 %61, ptr %ehselector.slot, align 4
  br label %ehcleanup

lpad130:                                          ; preds = %invoke.cont128
  %62 = landingpad { ptr, i32 }
          cleanup
  %63 = extractvalue { ptr, i32 } %62, 0
  store ptr %63, ptr %exn.slot, align 8
  %64 = extractvalue { ptr, i32 } %62, 1
  store i32 %64, ptr %ehselector.slot, align 4
  %cleanup.is_active134 = load i1, ptr %cleanup.cond129, align 1
  br i1 %cleanup.is_active134, label %cleanup.action135, label %cleanup.done136

cleanup.action135:                                ; preds = %lpad130
  call void @_ZNSt7__cxx1112basic_stringIcSt11char_traitsIcESaIcEED1Ev(ptr noundef nonnull align 8 dereferenceable(32) %ref.tmp125) #6
  br label %cleanup.done136

cleanup.done136:                                  ; preds = %cleanup.action135, %lpad130
  br label %ehcleanup

ehcleanup:                                        ; preds = %cleanup.done136, %lpad127
  %cleanup.is_active140 = load i1, ptr %cleanup.cond, align 1
  br i1 %cleanup.is_active140, label %cleanup.action141, label %cleanup.done142

cleanup.action141:                                ; preds = %ehcleanup
  call void @_ZNSaIcED1Ev(ptr noundef nonnull align 1 dereferenceable(1) %ref.tmp126) #6
  br label %cleanup.done142

cleanup.done142:                                  ; preds = %cleanup.action141, %ehcleanup
  br label %ehcleanup667

if.else158:                                       ; preds = %cleanup.done139
  %mOutput159 = getelementptr inbounds %"class.Assimp::ColladaExporter", ptr %this1, i32 0, i32 6
  %add.ptr160 = getelementptr inbounds i8, ptr %mOutput159, i64 16
  %startstr161 = getelementptr inbounds %"class.Assimp::ColladaExporter", ptr %this1, i32 0, i32 13
  %call163 = invoke noundef nonnull align 8 dereferenceable(8) ptr @_ZStlsIcSt11char_traitsIcESaIcEERSt13basic_ostreamIT_T0_ES7_RKNSt7__cxx1112basic_stringIS4_S5_T1_EE(ptr noundef nonnull align 8 dereferenceable(8) %add.ptr160, ptr noundef nonnull align 8 dereferenceable(32) %startstr161)
          to label %invoke.cont162 unwind label %lpad54

invoke.cont162:                                   ; preds = %if.else158
  %call165 = invoke noundef nonnull align 8 dereferenceable(8) ptr @_ZStlsISt11char_traitsIcEERSt13basic_ostreamIcT_ES5_PKc(ptr noundef nonnull align 8 dereferenceable(8) %call163, ptr noundef @.str.25)
          to label %invoke.cont164 unwind label %lpad54

invoke.cont164:                                   ; preds = %invoke.cont162
  %call169 = invoke noundef ptr @_ZNK8aiString5C_StrEv(ptr noundef nonnull align 4 dereferenceable(1028) %value)
          to label %invoke.cont168 unwind label %lpad54

invoke.cont168:                                   ; preds = %invoke.cont164
  call void @_ZNSaIcEC1Ev(ptr noundef nonnull align 1 dereferenceable(1) %ref.tmp170) #6
  invoke void @_ZNSt7__cxx1112basic_stringIcSt11char_traitsIcESaIcEEC2IS3_EEPKcRKS3_(ptr noundef nonnull align 8 dereferenceable(32) %ref.tmp167, ptr noundef %call169, ptr noundef nonnull align 1 dereferenceable(1) %ref.tmp170)
          to label %invoke.cont172 unwind label %lpad171

invoke.cont172:                                   ; preds = %invoke.cont168
  invoke void @_ZN6Assimp9XMLEscapeERKNSt7__cxx1112basic_stringIcSt11char_traitsIcESaIcEEE(ptr sret(%"class.std::__cxx11::basic_string") align 8 %ref.tmp166, ptr noundef nonnull align 8 dereferenceable(32) %ref.tmp167)
          to label %invoke.cont174 unwind label %lpad173

invoke.cont174:                                   ; preds = %invoke.cont172
  %call177 = invoke noundef nonnull align 8 dereferenceable(8) ptr @_ZStlsIcSt11char_traitsIcESaIcEERSt13basic_ostreamIT_T0_ES7_RKNSt7__cxx1112basic_stringIS4_S5_T1_EE(ptr noundef nonnull align 8 dereferenceable(8) %call165, ptr noundef nonnull align 8 dereferenceable(32) %ref.tmp166)
          to label %invoke.cont176 unwind label %lpad175

invoke.cont176:                                   ; preds = %invoke.cont174
  %call179 = invoke noundef nonnull align 8 dereferenceable(8) ptr @_ZStlsISt11char_traitsIcEERSt13basic_ostreamIcT_ES5_PKc(ptr noundef nonnull align 8 dereferenceable(8) %call177, ptr noundef @.str.27)
          to label %invoke.cont178 unwind label %lpad175

invoke.cont178:                                   ; preds = %invoke.cont176
  %endstr180 = getelementptr inbounds %"class.Assimp::ColladaExporter", ptr %this1, i32 0, i32 14
  %call182 = invoke noundef nonnull align 8 dereferenceable(8) ptr @_ZStlsIcSt11char_traitsIcESaIcEERSt13basic_ostreamIT_T0_ES7_RKNSt7__cxx1112basic_stringIS4_S5_T1_EE(ptr noundef nonnull align 8 dereferenceable(8) %call179, ptr noundef nonnull align 8 dereferenceable(32) %endstr180)
          to label %invoke.cont181 unwind label %lpad175

invoke.cont181:                                   ; preds = %invoke.cont178
  call void @_ZNSt7__cxx1112basic_stringIcSt11char_traitsIcESaIcEED1Ev(ptr noundef nonnull align 8 dereferenceable(32) %ref.tmp166) #6
  call void @_ZNSt7__cxx1112basic_stringIcSt11char_traitsIcESaIcEED1Ev(ptr noundef nonnull align 8 dereferenceable(32) %ref.tmp167) #6
  call void @_ZNSaIcED1Ev(ptr noundef nonnull align 1 dereferenceable(1) %ref.tmp170) #6
  br label %if.end186

lpad171:                                          ; preds = %invoke.cont168
  %65 = landingpad { ptr, i32 }
          cleanup
  %66 = extractvalue { ptr, i32 } %65, 0
  store ptr %66, ptr %exn.slot, align 8
  %67 = extractvalue { ptr, i32 } %65, 1
  store i32 %67, ptr %ehselector.slot, align 4
  br label %ehcleanup185

lpad173:                                          ; preds = %invoke.cont172
  %68 = landingpad { ptr, i32 }
          cleanup
  %69 = extractvalue { ptr, i32 } %68, 0
  store ptr %69, ptr %exn.slot, align 8
  %70 = extractvalue { ptr, i32 } %68, 1
  store i32 %70, ptr %ehselector.slot, align 4
  br label %ehcleanup184

lpad175:                                          ; preds = %invoke.cont178, %invoke.cont176, %invoke.cont174
  %71 = landingpad { ptr, i32 }
          cleanup
  %72 = extractvalue { ptr, i32 } %71, 0
  store ptr %72, ptr %exn.slot, align 8
  %73 = extractvalue { ptr, i32 } %71, 1
  store i32 %73, ptr %ehselector.slot, align 4
  call void @_ZNSt7__cxx1112basic_stringIcSt11char_traitsIcESaIcEED1Ev(ptr noundef nonnull align 8 dereferenceable(32) %ref.tmp166) #6
  br label %ehcleanup184

ehcleanup184:                                     ; preds = %lpad175, %lpad173
  call void @_ZNSt7__cxx1112basic_stringIcSt11char_traitsIcESaIcEED1Ev(ptr noundef nonnull align 8 dereferenceable(32) %ref.tmp167) #6
  br label %ehcleanup185

ehcleanup185:                                     ; preds = %ehcleanup184, %lpad171
  call void @_ZNSaIcED1Ev(ptr noundef nonnull align 1 dereferenceable(1) %ref.tmp170) #6
  br label %ehcleanup667

if.end186:                                        ; preds = %invoke.cont181, %invoke.cont156
  %74 = load ptr, ptr %meta, align 8
  %cmp187 = icmp eq ptr null, %74
  store i1 false, ptr %cleanup.cond191, align 1
  store i1 false, ptr %cleanup.cond194, align 1
  br i1 %cmp187, label %lor.end199, label %lor.rhs188

lor.rhs188:                                       ; preds = %if.end186
  %75 = load ptr, ptr %meta, align 8
  call void @_ZNSaIcEC1Ev(ptr noundef nonnull align 1 dereferenceable(1) %ref.tmp190) #6
  store i1 true, ptr %cleanup.cond191, align 1
  invoke void @_ZNSt7__cxx1112basic_stringIcSt11char_traitsIcESaIcEEC2IS3_EEPKcRKS3_(ptr noundef nonnull align 8 dereferenceable(32) %ref.tmp189, ptr noundef @.str.28, ptr noundef nonnull align 1 dereferenceable(1) %ref.tmp190)
          to label %invoke.cont193 unwind label %lpad192

invoke.cont193:                                   ; preds = %lor.rhs188
  store i1 true, ptr %cleanup.cond194, align 1
  %call197 = invoke noundef zeroext i1 @_ZNK10aiMetadata3GetI8aiStringEEbRKNSt7__cxx1112basic_stringIcSt11char_traitsIcESaIcEEERT_(ptr noundef nonnull align 8 dereferenceable(24) %75, ptr noundef nonnull align 8 dereferenceable(32) %ref.tmp189, ptr noundef nonnull align 4 dereferenceable(1028) %value)
          to label %invoke.cont196 unwind label %lpad195

invoke.cont196:                                   ; preds = %invoke.cont193
  %lnot198 = xor i1 %call197, true
  br label %lor.end199

lor.end199:                                       ; preds = %invoke.cont196, %if.end186
  %76 = phi i1 [ true, %if.end186 ], [ %lnot198, %invoke.cont196 ]
  %cleanup.is_active200 = load i1, ptr %cleanup.cond194, align 1
  br i1 %cleanup.is_active200, label %cleanup.action201, label %cleanup.done202

cleanup.action201:                                ; preds = %lor.end199
  call void @_ZNSt7__cxx1112basic_stringIcSt11char_traitsIcESaIcEED1Ev(ptr noundef nonnull align 8 dereferenceable(32) %ref.tmp189) #6
  br label %cleanup.done202

cleanup.done202:                                  ; preds = %cleanup.action201, %lor.end199
  %cleanup.is_active207 = load i1, ptr %cleanup.cond191, align 1
  br i1 %cleanup.is_active207, label %cleanup.action208, label %cleanup.done209

cleanup.action208:                                ; preds = %cleanup.done202
  call void @_ZNSaIcED1Ev(ptr noundef nonnull align 1 dereferenceable(1) %ref.tmp190) #6
  br label %cleanup.done209

cleanup.done209:                                  ; preds = %cleanup.action208, %cleanup.done202
  br i1 %76, label %if.then214, label %if.else229

if.then214:                                       ; preds = %cleanup.done209
  %mOutput215 = getelementptr inbounds %"class.Assimp::ColladaExporter", ptr %this1, i32 0, i32 6
  %add.ptr216 = getelementptr inbounds i8, ptr %mOutput215, i64 16
  %startstr217 = getelementptr inbounds %"class.Assimp::ColladaExporter", ptr %this1, i32 0, i32 13
  %call219 = invoke noundef nonnull align 8 dereferenceable(8) ptr @_ZStlsIcSt11char_traitsIcESaIcEERSt13basic_ostreamIT_T0_ES7_RKNSt7__cxx1112basic_stringIS4_S5_T1_EE(ptr noundef nonnull align 8 dereferenceable(8) %add.ptr216, ptr noundef nonnull align 8 dereferenceable(32) %startstr217)
          to label %invoke.cont218 unwind label %lpad54

invoke.cont218:                                   ; preds = %if.then214
  %call221 = invoke noundef nonnull align 8 dereferenceable(8) ptr @_ZStlsISt11char_traitsIcEERSt13basic_ostreamIcT_ES5_PKc(ptr noundef nonnull align 8 dereferenceable(8) %call219, ptr noundef @.str.29)
          to label %invoke.cont220 unwind label %lpad54

invoke.cont220:                                   ; preds = %invoke.cont218
  %call223 = invoke noundef nonnull align 8 dereferenceable(8) ptr @_ZStlsISt11char_traitsIcEERSt13basic_ostreamIcT_ES5_PKc(ptr noundef nonnull align 8 dereferenceable(8) %call221, ptr noundef @.str.30)
          to label %invoke.cont222 unwind label %lpad54

invoke.cont222:                                   ; preds = %invoke.cont220
  %call225 = invoke noundef nonnull align 8 dereferenceable(8) ptr @_ZStlsISt11char_traitsIcEERSt13basic_ostreamIcT_ES5_PKc(ptr noundef nonnull align 8 dereferenceable(8) %call223, ptr noundef @.str.31)
          to label %invoke.cont224 unwind label %lpad54

invoke.cont224:                                   ; preds = %invoke.cont222
  %endstr226 = getelementptr inbounds %"class.Assimp::ColladaExporter", ptr %this1, i32 0, i32 14
  %call228 = invoke noundef nonnull align 8 dereferenceable(8) ptr @_ZStlsIcSt11char_traitsIcESaIcEERSt13basic_ostreamIT_T0_ES7_RKNSt7__cxx1112basic_stringIS4_S5_T1_EE(ptr noundef nonnull align 8 dereferenceable(8) %call225, ptr noundef nonnull align 8 dereferenceable(32) %endstr226)
          to label %invoke.cont227 unwind label %lpad54

invoke.cont227:                                   ; preds = %invoke.cont224
  br label %if.end257

lpad192:                                          ; preds = %lor.rhs188
  %77 = landingpad { ptr, i32 }
          cleanup
  %78 = extractvalue { ptr, i32 } %77, 0
  store ptr %78, ptr %exn.slot, align 8
  %79 = extractvalue { ptr, i32 } %77, 1
  store i32 %79, ptr %ehselector.slot, align 4
  br label %ehcleanup210

lpad195:                                          ; preds = %invoke.cont193
  %80 = landingpad { ptr, i32 }
          cleanup
  %81 = extractvalue { ptr, i32 } %80, 0
  store ptr %81, ptr %exn.slot, align 8
  %82 = extractvalue { ptr, i32 } %80, 1
  store i32 %82, ptr %ehselector.slot, align 4
  %cleanup.is_active204 = load i1, ptr %cleanup.cond194, align 1
  br i1 %cleanup.is_active204, label %cleanup.action205, label %cleanup.done206

cleanup.action205:                                ; preds = %lpad195
  call void @_ZNSt7__cxx1112basic_stringIcSt11char_traitsIcESaIcEED1Ev(ptr noundef nonnull align 8 dereferenceable(32) %ref.tmp189) #6
  br label %cleanup.done206

cleanup.done206:                                  ; preds = %cleanup.action205, %lpad195
  br label %ehcleanup210

ehcleanup210:                                     ; preds = %cleanup.done206, %lpad192
  %cleanup.is_active211 = load i1, ptr %cleanup.cond191, align 1
  br i1 %cleanup.is_active211, label %cleanup.action212, label %cleanup.done213

cleanup.action212:                                ; preds = %ehcleanup210
  call void @_ZNSaIcED1Ev(ptr noundef nonnull align 1 dereferenceable(1) %ref.tmp190) #6
  br label %cleanup.done213

cleanup.done213:                                  ; preds = %cleanup.action212, %ehcleanup210
  br label %ehcleanup667

if.else229:                                       ; preds = %cleanup.done209
  %mOutput230 = getelementptr inbounds %"class.Assimp::ColladaExporter", ptr %this1, i32 0, i32 6
  %add.ptr231 = getelementptr inbounds i8, ptr %mOutput230, i64 16
  %startstr232 = getelementptr inbounds %"class.Assimp::ColladaExporter", ptr %this1, i32 0, i32 13
  %call234 = invoke noundef nonnull align 8 dereferenceable(8) ptr @_ZStlsIcSt11char_traitsIcESaIcEERSt13basic_ostreamIT_T0_ES7_RKNSt7__cxx1112basic_stringIS4_S5_T1_EE(ptr noundef nonnull align 8 dereferenceable(8) %add.ptr231, ptr noundef nonnull align 8 dereferenceable(32) %startstr232)
          to label %invoke.cont233 unwind label %lpad54

invoke.cont233:                                   ; preds = %if.else229
  %call236 = invoke noundef nonnull align 8 dereferenceable(8) ptr @_ZStlsISt11char_traitsIcEERSt13basic_ostreamIcT_ES5_PKc(ptr noundef nonnull align 8 dereferenceable(8) %call234, ptr noundef @.str.29)
          to label %invoke.cont235 unwind label %lpad54

invoke.cont235:                                   ; preds = %invoke.cont233
  %call240 = invoke noundef ptr @_ZNK8aiString5C_StrEv(ptr noundef nonnull align 4 dereferenceable(1028) %value)
          to label %invoke.cont239 unwind label %lpad54

invoke.cont239:                                   ; preds = %invoke.cont235
  call void @_ZNSaIcEC1Ev(ptr noundef nonnull align 1 dereferenceable(1) %ref.tmp241) #6
  invoke void @_ZNSt7__cxx1112basic_stringIcSt11char_traitsIcESaIcEEC2IS3_EEPKcRKS3_(ptr noundef nonnull align 8 dereferenceable(32) %ref.tmp238, ptr noundef %call240, ptr noundef nonnull align 1 dereferenceable(1) %ref.tmp241)
          to label %invoke.cont243 unwind label %lpad242

invoke.cont243:                                   ; preds = %invoke.cont239
  invoke void @_ZN6Assimp9XMLEscapeERKNSt7__cxx1112basic_stringIcSt11char_traitsIcESaIcEEE(ptr sret(%"class.std::__cxx11::basic_string") align 8 %ref.tmp237, ptr noundef nonnull align 8 dereferenceable(32) %ref.tmp238)
          to label %invoke.cont245 unwind label %lpad244

invoke.cont245:                                   ; preds = %invoke.cont243
  %call248 = invoke noundef nonnull align 8 dereferenceable(8) ptr @_ZStlsIcSt11char_traitsIcESaIcEERSt13basic_ostreamIT_T0_ES7_RKNSt7__cxx1112basic_stringIS4_S5_T1_EE(ptr noundef nonnull align 8 dereferenceable(8) %call236, ptr noundef nonnull align 8 dereferenceable(32) %ref.tmp237)
          to label %invoke.cont247 unwind label %lpad246

invoke.cont247:                                   ; preds = %invoke.cont245
  %call250 = invoke noundef nonnull align 8 dereferenceable(8) ptr @_ZStlsISt11char_traitsIcEERSt13basic_ostreamIcT_ES5_PKc(ptr noundef nonnull align 8 dereferenceable(8) %call248, ptr noundef @.str.31)
          to label %invoke.cont249 unwind label %lpad246

invoke.cont249:                                   ; preds = %invoke.cont247
  %endstr251 = getelementptr inbounds %"class.Assimp::ColladaExporter", ptr %this1, i32 0, i32 14
  %call253 = invoke noundef nonnull align 8 dereferenceable(8) ptr @_ZStlsIcSt11char_traitsIcESaIcEERSt13basic_ostreamIT_T0_ES7_RKNSt7__cxx1112basic_stringIS4_S5_T1_EE(ptr noundef nonnull align 8 dereferenceable(8) %call250, ptr noundef nonnull align 8 dereferenceable(32) %endstr251)
          to label %invoke.cont252 unwind label %lpad246

invoke.cont252:                                   ; preds = %invoke.cont249
  call void @_ZNSt7__cxx1112basic_stringIcSt11char_traitsIcESaIcEED1Ev(ptr noundef nonnull align 8 dereferenceable(32) %ref.tmp237) #6
  call void @_ZNSt7__cxx1112basic_stringIcSt11char_traitsIcESaIcEED1Ev(ptr noundef nonnull align 8 dereferenceable(32) %ref.tmp238) #6
  call void @_ZNSaIcED1Ev(ptr noundef nonnull align 1 dereferenceable(1) %ref.tmp241) #6
  br label %if.end257

lpad242:                                          ; preds = %invoke.cont239
  %83 = landingpad { ptr, i32 }
          cleanup
  %84 = extractvalue { ptr, i32 } %83, 0
  store ptr %84, ptr %exn.slot, align 8
  %85 = extractvalue { ptr, i32 } %83, 1
  store i32 %85, ptr %ehselector.slot, align 4
  br label %ehcleanup256

lpad244:                                          ; preds = %invoke.cont243
  %86 = landingpad { ptr, i32 }
          cleanup
  %87 = extractvalue { ptr, i32 } %86, 0
  store ptr %87, ptr %exn.slot, align 8
  %88 = extractvalue { ptr, i32 } %86, 1
  store i32 %88, ptr %ehselector.slot, align 4
  br label %ehcleanup255

lpad246:                                          ; preds = %invoke.cont249, %invoke.cont247, %invoke.cont245
  %89 = landingpad { ptr, i32 }
          cleanup
  %90 = extractvalue { ptr, i32 } %89, 0
  store ptr %90, ptr %exn.slot, align 8
  %91 = extractvalue { ptr, i32 } %89, 1
  store i32 %91, ptr %ehselector.slot, align 4
  call void @_ZNSt7__cxx1112basic_stringIcSt11char_traitsIcESaIcEED1Ev(ptr noundef nonnull align 8 dereferenceable(32) %ref.tmp237) #6
  br label %ehcleanup255

ehcleanup255:                                     ; preds = %lpad246, %lpad244
  call void @_ZNSt7__cxx1112basic_stringIcSt11char_traitsIcESaIcEED1Ev(ptr noundef nonnull align 8 dereferenceable(32) %ref.tmp238) #6
  br label %ehcleanup256

ehcleanup256:                                     ; preds = %ehcleanup255, %lpad242
  call void @_ZNSaIcED1Ev(ptr noundef nonnull align 1 dereferenceable(1) %ref.tmp241) #6
  br label %ehcleanup667

if.end257:                                        ; preds = %invoke.cont252, %invoke.cont227
  %92 = load ptr, ptr %meta, align 8
  %tobool258 = icmp ne ptr %92, null
  br i1 %tobool258, label %if.then259, label %if.end374

if.then259:                                       ; preds = %if.end257
  %93 = load ptr, ptr %meta, align 8
  call void @_ZNSaIcEC1Ev(ptr noundef nonnull align 1 dereferenceable(1) %ref.tmp261) #6
  invoke void @_ZNSt7__cxx1112basic_stringIcSt11char_traitsIcESaIcEEC2IS3_EEPKcRKS3_(ptr noundef nonnull align 8 dereferenceable(32) %ref.tmp260, ptr noundef @.str.32, ptr noundef nonnull align 1 dereferenceable(1) %ref.tmp261)
          to label %invoke.cont263 unwind label %lpad262

invoke.cont263:                                   ; preds = %if.then259
  %call266 = invoke noundef zeroext i1 @_ZNK10aiMetadata3GetI8aiStringEEbRKNSt7__cxx1112basic_stringIcSt11char_traitsIcESaIcEEERT_(ptr noundef nonnull align 8 dereferenceable(24) %93, ptr noundef nonnull align 8 dereferenceable(32) %ref.tmp260, ptr noundef nonnull align 4 dereferenceable(1028) %value)
          to label %invoke.cont265 unwind label %lpad264

invoke.cont265:                                   ; preds = %invoke.cont263
  call void @_ZNSt7__cxx1112basic_stringIcSt11char_traitsIcESaIcEED1Ev(ptr noundef nonnull align 8 dereferenceable(32) %ref.tmp260) #6
  call void @_ZNSaIcED1Ev(ptr noundef nonnull align 1 dereferenceable(1) %ref.tmp261) #6
  br i1 %call266, label %if.then269, label %if.end297

if.then269:                                       ; preds = %invoke.cont265
  %mOutput270 = getelementptr inbounds %"class.Assimp::ColladaExporter", ptr %this1, i32 0, i32 6
  %add.ptr271 = getelementptr inbounds i8, ptr %mOutput270, i64 16
  %startstr272 = getelementptr inbounds %"class.Assimp::ColladaExporter", ptr %this1, i32 0, i32 13
  %call274 = invoke noundef nonnull align 8 dereferenceable(8) ptr @_ZStlsIcSt11char_traitsIcESaIcEERSt13basic_ostreamIT_T0_ES7_RKNSt7__cxx1112basic_stringIS4_S5_T1_EE(ptr noundef nonnull align 8 dereferenceable(8) %add.ptr271, ptr noundef nonnull align 8 dereferenceable(32) %startstr272)
          to label %invoke.cont273 unwind label %lpad54

invoke.cont273:                                   ; preds = %if.then269
  %call276 = invoke noundef nonnull align 8 dereferenceable(8) ptr @_ZStlsISt11char_traitsIcEERSt13basic_ostreamIcT_ES5_PKc(ptr noundef nonnull align 8 dereferenceable(8) %call274, ptr noundef @.str.33)
          to label %invoke.cont275 unwind label %lpad54

invoke.cont275:                                   ; preds = %invoke.cont273
  %call280 = invoke noundef ptr @_ZNK8aiString5C_StrEv(ptr noundef nonnull align 4 dereferenceable(1028) %value)
          to label %invoke.cont279 unwind label %lpad54

invoke.cont279:                                   ; preds = %invoke.cont275
  call void @_ZNSaIcEC1Ev(ptr noundef nonnull align 1 dereferenceable(1) %ref.tmp281) #6
  invoke void @_ZNSt7__cxx1112basic_stringIcSt11char_traitsIcESaIcEEC2IS3_EEPKcRKS3_(ptr noundef nonnull align 8 dereferenceable(32) %ref.tmp278, ptr noundef %call280, ptr noundef nonnull align 1 dereferenceable(1) %ref.tmp281)
          to label %invoke.cont283 unwind label %lpad282

invoke.cont283:                                   ; preds = %invoke.cont279
  invoke void @_ZN6Assimp9XMLEscapeERKNSt7__cxx1112basic_stringIcSt11char_traitsIcESaIcEEE(ptr sret(%"class.std::__cxx11::basic_string") align 8 %ref.tmp277, ptr noundef nonnull align 8 dereferenceable(32) %ref.tmp278)
          to label %invoke.cont285 unwind label %lpad284

invoke.cont285:                                   ; preds = %invoke.cont283
  %call288 = invoke noundef nonnull align 8 dereferenceable(8) ptr @_ZStlsIcSt11char_traitsIcESaIcEERSt13basic_ostreamIT_T0_ES7_RKNSt7__cxx1112basic_stringIS4_S5_T1_EE(ptr noundef nonnull align 8 dereferenceable(8) %call276, ptr noundef nonnull align 8 dereferenceable(32) %ref.tmp277)
          to label %invoke.cont287 unwind label %lpad286

invoke.cont287:                                   ; preds = %invoke.cont285
  %call290 = invoke noundef nonnull align 8 dereferenceable(8) ptr @_ZStlsISt11char_traitsIcEERSt13basic_ostreamIcT_ES5_PKc(ptr noundef nonnull align 8 dereferenceable(8) %call288, ptr noundef @.str.34)
          to label %invoke.cont289 unwind label %lpad286

invoke.cont289:                                   ; preds = %invoke.cont287
  %endstr291 = getelementptr inbounds %"class.Assimp::ColladaExporter", ptr %this1, i32 0, i32 14
  %call293 = invoke noundef nonnull align 8 dereferenceable(8) ptr @_ZStlsIcSt11char_traitsIcESaIcEERSt13basic_ostreamIT_T0_ES7_RKNSt7__cxx1112basic_stringIS4_S5_T1_EE(ptr noundef nonnull align 8 dereferenceable(8) %call290, ptr noundef nonnull align 8 dereferenceable(32) %endstr291)
          to label %invoke.cont292 unwind label %lpad286

invoke.cont292:                                   ; preds = %invoke.cont289
  call void @_ZNSt7__cxx1112basic_stringIcSt11char_traitsIcESaIcEED1Ev(ptr noundef nonnull align 8 dereferenceable(32) %ref.tmp277) #6
  call void @_ZNSt7__cxx1112basic_stringIcSt11char_traitsIcESaIcEED1Ev(ptr noundef nonnull align 8 dereferenceable(32) %ref.tmp278) #6
  call void @_ZNSaIcED1Ev(ptr noundef nonnull align 1 dereferenceable(1) %ref.tmp281) #6
  br label %if.end297

lpad262:                                          ; preds = %if.then259
  %94 = landingpad { ptr, i32 }
          cleanup
  %95 = extractvalue { ptr, i32 } %94, 0
  store ptr %95, ptr %exn.slot, align 8
  %96 = extractvalue { ptr, i32 } %94, 1
  store i32 %96, ptr %ehselector.slot, align 4
  br label %ehcleanup268

lpad264:                                          ; preds = %invoke.cont263
  %97 = landingpad { ptr, i32 }
          cleanup
  %98 = extractvalue { ptr, i32 } %97, 0
  store ptr %98, ptr %exn.slot, align 8
  %99 = extractvalue { ptr, i32 } %97, 1
  store i32 %99, ptr %ehselector.slot, align 4
  call void @_ZNSt7__cxx1112basic_stringIcSt11char_traitsIcESaIcEED1Ev(ptr noundef nonnull align 8 dereferenceable(32) %ref.tmp260) #6
  br label %ehcleanup268

ehcleanup268:                                     ; preds = %lpad264, %lpad262
  call void @_ZNSaIcED1Ev(ptr noundef nonnull align 1 dereferenceable(1) %ref.tmp261) #6
  br label %ehcleanup667

lpad282:                                          ; preds = %invoke.cont279
  %100 = landingpad { ptr, i32 }
          cleanup
  %101 = extractvalue { ptr, i32 } %100, 0
  store ptr %101, ptr %exn.slot, align 8
  %102 = extractvalue { ptr, i32 } %100, 1
  store i32 %102, ptr %ehselector.slot, align 4
  br label %ehcleanup296

lpad284:                                          ; preds = %invoke.cont283
  %103 = landingpad { ptr, i32 }
          cleanup
  %104 = extractvalue { ptr, i32 } %103, 0
  store ptr %104, ptr %exn.slot, align 8
  %105 = extractvalue { ptr, i32 } %103, 1
  store i32 %105, ptr %ehselector.slot, align 4
  br label %ehcleanup295

lpad286:                                          ; preds = %invoke.cont289, %invoke.cont287, %invoke.cont285
  %106 = landingpad { ptr, i32 }
          cleanup
  %107 = extractvalue { ptr, i32 } %106, 0
  store ptr %107, ptr %exn.slot, align 8
  %108 = extractvalue { ptr, i32 } %106, 1
  store i32 %108, ptr %ehselector.slot, align 4
  call void @_ZNSt7__cxx1112basic_stringIcSt11char_traitsIcESaIcEED1Ev(ptr noundef nonnull align 8 dereferenceable(32) %ref.tmp277) #6
  br label %ehcleanup295

ehcleanup295:                                     ; preds = %lpad286, %lpad284
  call void @_ZNSt7__cxx1112basic_stringIcSt11char_traitsIcESaIcEED1Ev(ptr noundef nonnull align 8 dereferenceable(32) %ref.tmp278) #6
  br label %ehcleanup296

ehcleanup296:                                     ; preds = %ehcleanup295, %lpad282
  call void @_ZNSaIcED1Ev(ptr noundef nonnull align 1 dereferenceable(1) %ref.tmp281) #6
  br label %ehcleanup667

if.end297:                                        ; preds = %invoke.cont292, %invoke.cont265
  %109 = load ptr, ptr %meta, align 8
  call void @_ZNSaIcEC1Ev(ptr noundef nonnull align 1 dereferenceable(1) %ref.tmp299) #6
  invoke void @_ZNSt7__cxx1112basic_stringIcSt11char_traitsIcESaIcEEC2IS3_EEPKcRKS3_(ptr noundef nonnull align 8 dereferenceable(32) %ref.tmp298, ptr noundef @.str.35, ptr noundef nonnull align 1 dereferenceable(1) %ref.tmp299)
          to label %invoke.cont301 unwind label %lpad300

invoke.cont301:                                   ; preds = %if.end297
  %call304 = invoke noundef zeroext i1 @_ZNK10aiMetadata3GetI8aiStringEEbRKNSt7__cxx1112basic_stringIcSt11char_traitsIcESaIcEEERT_(ptr noundef nonnull align 8 dereferenceable(24) %109, ptr noundef nonnull align 8 dereferenceable(32) %ref.tmp298, ptr noundef nonnull align 4 dereferenceable(1028) %value)
          to label %invoke.cont303 unwind label %lpad302

invoke.cont303:                                   ; preds = %invoke.cont301
  call void @_ZNSt7__cxx1112basic_stringIcSt11char_traitsIcESaIcEED1Ev(ptr noundef nonnull align 8 dereferenceable(32) %ref.tmp298) #6
  call void @_ZNSaIcED1Ev(ptr noundef nonnull align 1 dereferenceable(1) %ref.tmp299) #6
  br i1 %call304, label %if.then307, label %if.end335

if.then307:                                       ; preds = %invoke.cont303
  %mOutput308 = getelementptr inbounds %"class.Assimp::ColladaExporter", ptr %this1, i32 0, i32 6
  %add.ptr309 = getelementptr inbounds i8, ptr %mOutput308, i64 16
  %startstr310 = getelementptr inbounds %"class.Assimp::ColladaExporter", ptr %this1, i32 0, i32 13
  %call312 = invoke noundef nonnull align 8 dereferenceable(8) ptr @_ZStlsIcSt11char_traitsIcESaIcEERSt13basic_ostreamIT_T0_ES7_RKNSt7__cxx1112basic_stringIS4_S5_T1_EE(ptr noundef nonnull align 8 dereferenceable(8) %add.ptr309, ptr noundef nonnull align 8 dereferenceable(32) %startstr310)
          to label %invoke.cont311 unwind label %lpad54

invoke.cont311:                                   ; preds = %if.then307
  %call314 = invoke noundef nonnull align 8 dereferenceable(8) ptr @_ZStlsISt11char_traitsIcEERSt13basic_ostreamIcT_ES5_PKc(ptr noundef nonnull align 8 dereferenceable(8) %call312, ptr noundef @.str.36)
          to label %invoke.cont313 unwind label %lpad54

invoke.cont313:                                   ; preds = %invoke.cont311
  %call318 = invoke noundef ptr @_ZNK8aiString5C_StrEv(ptr noundef nonnull align 4 dereferenceable(1028) %value)
          to label %invoke.cont317 unwind label %lpad54

invoke.cont317:                                   ; preds = %invoke.cont313
  call void @_ZNSaIcEC1Ev(ptr noundef nonnull align 1 dereferenceable(1) %ref.tmp319) #6
  invoke void @_ZNSt7__cxx1112basic_stringIcSt11char_traitsIcESaIcEEC2IS3_EEPKcRKS3_(ptr noundef nonnull align 8 dereferenceable(32) %ref.tmp316, ptr noundef %call318, ptr noundef nonnull align 1 dereferenceable(1) %ref.tmp319)
          to label %invoke.cont321 unwind label %lpad320

invoke.cont321:                                   ; preds = %invoke.cont317
  invoke void @_ZN6Assimp9XMLEscapeERKNSt7__cxx1112basic_stringIcSt11char_traitsIcESaIcEEE(ptr sret(%"class.std::__cxx11::basic_string") align 8 %ref.tmp315, ptr noundef nonnull align 8 dereferenceable(32) %ref.tmp316)
          to label %invoke.cont323 unwind label %lpad322

invoke.cont323:                                   ; preds = %invoke.cont321
  %call326 = invoke noundef nonnull align 8 dereferenceable(8) ptr @_ZStlsIcSt11char_traitsIcESaIcEERSt13basic_ostreamIT_T0_ES7_RKNSt7__cxx1112basic_stringIS4_S5_T1_EE(ptr noundef nonnull align 8 dereferenceable(8) %call314, ptr noundef nonnull align 8 dereferenceable(32) %ref.tmp315)
          to label %invoke.cont325 unwind label %lpad324

invoke.cont325:                                   ; preds = %invoke.cont323
  %call328 = invoke noundef nonnull align 8 dereferenceable(8) ptr @_ZStlsISt11char_traitsIcEERSt13basic_ostreamIcT_ES5_PKc(ptr noundef nonnull align 8 dereferenceable(8) %call326, ptr noundef @.str.37)
          to label %invoke.cont327 unwind label %lpad324

invoke.cont327:                                   ; preds = %invoke.cont325
  %endstr329 = getelementptr inbounds %"class.Assimp::ColladaExporter", ptr %this1, i32 0, i32 14
  %call331 = invoke noundef nonnull align 8 dereferenceable(8) ptr @_ZStlsIcSt11char_traitsIcESaIcEERSt13basic_ostreamIT_T0_ES7_RKNSt7__cxx1112basic_stringIS4_S5_T1_EE(ptr noundef nonnull align 8 dereferenceable(8) %call328, ptr noundef nonnull align 8 dereferenceable(32) %endstr329)
          to label %invoke.cont330 unwind label %lpad324

invoke.cont330:                                   ; preds = %invoke.cont327
  call void @_ZNSt7__cxx1112basic_stringIcSt11char_traitsIcESaIcEED1Ev(ptr noundef nonnull align 8 dereferenceable(32) %ref.tmp315) #6
  call void @_ZNSt7__cxx1112basic_stringIcSt11char_traitsIcESaIcEED1Ev(ptr noundef nonnull align 8 dereferenceable(32) %ref.tmp316) #6
  call void @_ZNSaIcED1Ev(ptr noundef nonnull align 1 dereferenceable(1) %ref.tmp319) #6
  br label %if.end335

lpad300:                                          ; preds = %if.end297
  %110 = landingpad { ptr, i32 }
          cleanup
  %111 = extractvalue { ptr, i32 } %110, 0
  store ptr %111, ptr %exn.slot, align 8
  %112 = extractvalue { ptr, i32 } %110, 1
  store i32 %112, ptr %ehselector.slot, align 4
  br label %ehcleanup306

lpad302:                                          ; preds = %invoke.cont301
  %113 = landingpad { ptr, i32 }
          cleanup
  %114 = extractvalue { ptr, i32 } %113, 0
  store ptr %114, ptr %exn.slot, align 8
  %115 = extractvalue { ptr, i32 } %113, 1
  store i32 %115, ptr %ehselector.slot, align 4
  call void @_ZNSt7__cxx1112basic_stringIcSt11char_traitsIcESaIcEED1Ev(ptr noundef nonnull align 8 dereferenceable(32) %ref.tmp298) #6
  br label %ehcleanup306

ehcleanup306:                                     ; preds = %lpad302, %lpad300
  call void @_ZNSaIcED1Ev(ptr noundef nonnull align 1 dereferenceable(1) %ref.tmp299) #6
  br label %ehcleanup667

lpad320:                                          ; preds = %invoke.cont317
  %116 = landingpad { ptr, i32 }
          cleanup
  %117 = extractvalue { ptr, i32 } %116, 0
  store ptr %117, ptr %exn.slot, align 8
  %118 = extractvalue { ptr, i32 } %116, 1
  store i32 %118, ptr %ehselector.slot, align 4
  br label %ehcleanup334

lpad322:                                          ; preds = %invoke.cont321
  %119 = landingpad { ptr, i32 }
          cleanup
  %120 = extractvalue { ptr, i32 } %119, 0
  store ptr %120, ptr %exn.slot, align 8
  %121 = extractvalue { ptr, i32 } %119, 1
  store i32 %121, ptr %ehselector.slot, align 4
  br label %ehcleanup333

lpad324:                                          ; preds = %invoke.cont327, %invoke.cont325, %invoke.cont323
  %122 = landingpad { ptr, i32 }
          cleanup
  %123 = extractvalue { ptr, i32 } %122, 0
  store ptr %123, ptr %exn.slot, align 8
  %124 = extractvalue { ptr, i32 } %122, 1
  store i32 %124, ptr %ehselector.slot, align 4
  call void @_ZNSt7__cxx1112basic_stringIcSt11char_traitsIcESaIcEED1Ev(ptr noundef nonnull align 8 dereferenceable(32) %ref.tmp315) #6
  br label %ehcleanup333

ehcleanup333:                                     ; preds = %lpad324, %lpad322
  call void @_ZNSt7__cxx1112basic_stringIcSt11char_traitsIcESaIcEED1Ev(ptr noundef nonnull align 8 dereferenceable(32) %ref.tmp316) #6
  br label %ehcleanup334

ehcleanup334:                                     ; preds = %ehcleanup333, %lpad320
  call void @_ZNSaIcED1Ev(ptr noundef nonnull align 1 dereferenceable(1) %ref.tmp319) #6
  br label %ehcleanup667

if.end335:                                        ; preds = %invoke.cont330, %invoke.cont303
  %125 = load ptr, ptr %meta, align 8
  call void @_ZNSaIcEC1Ev(ptr noundef nonnull align 1 dereferenceable(1) %ref.tmp337) #6
  invoke void @_ZNSt7__cxx1112basic_stringIcSt11char_traitsIcESaIcEEC2IS3_EEPKcRKS3_(ptr noundef nonnull align 8 dereferenceable(32) %ref.tmp336, ptr noundef @.str.38, ptr noundef nonnull align 1 dereferenceable(1) %ref.tmp337)
          to label %invoke.cont339 unwind label %lpad338

invoke.cont339:                                   ; preds = %if.end335
  %call342 = invoke noundef zeroext i1 @_ZNK10aiMetadata3GetI8aiStringEEbRKNSt7__cxx1112basic_stringIcSt11char_traitsIcESaIcEEERT_(ptr noundef nonnull align 8 dereferenceable(24) %125, ptr noundef nonnull align 8 dereferenceable(32) %ref.tmp336, ptr noundef nonnull align 4 dereferenceable(1028) %value)
          to label %invoke.cont341 unwind label %lpad340

invoke.cont341:                                   ; preds = %invoke.cont339
  call void @_ZNSt7__cxx1112basic_stringIcSt11char_traitsIcESaIcEED1Ev(ptr noundef nonnull align 8 dereferenceable(32) %ref.tmp336) #6
  call void @_ZNSaIcED1Ev(ptr noundef nonnull align 1 dereferenceable(1) %ref.tmp337) #6
  br i1 %call342, label %if.then345, label %if.end373

if.then345:                                       ; preds = %invoke.cont341
  %mOutput346 = getelementptr inbounds %"class.Assimp::ColladaExporter", ptr %this1, i32 0, i32 6
  %add.ptr347 = getelementptr inbounds i8, ptr %mOutput346, i64 16
  %startstr348 = getelementptr inbounds %"class.Assimp::ColladaExporter", ptr %this1, i32 0, i32 13
  %call350 = invoke noundef nonnull align 8 dereferenceable(8) ptr @_ZStlsIcSt11char_traitsIcESaIcEERSt13basic_ostreamIT_T0_ES7_RKNSt7__cxx1112basic_stringIS4_S5_T1_EE(ptr noundef nonnull align 8 dereferenceable(8) %add.ptr347, ptr noundef nonnull align 8 dereferenceable(32) %startstr348)
          to label %invoke.cont349 unwind label %lpad54

invoke.cont349:                                   ; preds = %if.then345
  %call352 = invoke noundef nonnull align 8 dereferenceable(8) ptr @_ZStlsISt11char_traitsIcEERSt13basic_ostreamIcT_ES5_PKc(ptr noundef nonnull align 8 dereferenceable(8) %call350, ptr noundef @.str.39)
          to label %invoke.cont351 unwind label %lpad54

invoke.cont351:                                   ; preds = %invoke.cont349
  %call356 = invoke noundef ptr @_ZNK8aiString5C_StrEv(ptr noundef nonnull align 4 dereferenceable(1028) %value)
          to label %invoke.cont355 unwind label %lpad54

invoke.cont355:                                   ; preds = %invoke.cont351
  call void @_ZNSaIcEC1Ev(ptr noundef nonnull align 1 dereferenceable(1) %ref.tmp357) #6
  invoke void @_ZNSt7__cxx1112basic_stringIcSt11char_traitsIcESaIcEEC2IS3_EEPKcRKS3_(ptr noundef nonnull align 8 dereferenceable(32) %ref.tmp354, ptr noundef %call356, ptr noundef nonnull align 1 dereferenceable(1) %ref.tmp357)
          to label %invoke.cont359 unwind label %lpad358

invoke.cont359:                                   ; preds = %invoke.cont355
  invoke void @_ZN6Assimp9XMLEscapeERKNSt7__cxx1112basic_stringIcSt11char_traitsIcESaIcEEE(ptr sret(%"class.std::__cxx11::basic_string") align 8 %ref.tmp353, ptr noundef nonnull align 8 dereferenceable(32) %ref.tmp354)
          to label %invoke.cont361 unwind label %lpad360

invoke.cont361:                                   ; preds = %invoke.cont359
  %call364 = invoke noundef nonnull align 8 dereferenceable(8) ptr @_ZStlsIcSt11char_traitsIcESaIcEERSt13basic_ostreamIT_T0_ES7_RKNSt7__cxx1112basic_stringIS4_S5_T1_EE(ptr noundef nonnull align 8 dereferenceable(8) %call352, ptr noundef nonnull align 8 dereferenceable(32) %ref.tmp353)
          to label %invoke.cont363 unwind label %lpad362

invoke.cont363:                                   ; preds = %invoke.cont361
  %call366 = invoke noundef nonnull align 8 dereferenceable(8) ptr @_ZStlsISt11char_traitsIcEERSt13basic_ostreamIcT_ES5_PKc(ptr noundef nonnull align 8 dereferenceable(8) %call364, ptr noundef @.str.40)
          to label %invoke.cont365 unwind label %lpad362

invoke.cont365:                                   ; preds = %invoke.cont363
  %endstr367 = getelementptr inbounds %"class.Assimp::ColladaExporter", ptr %this1, i32 0, i32 14
  %call369 = invoke noundef nonnull align 8 dereferenceable(8) ptr @_ZStlsIcSt11char_traitsIcESaIcEERSt13basic_ostreamIT_T0_ES7_RKNSt7__cxx1112basic_stringIS4_S5_T1_EE(ptr noundef nonnull align 8 dereferenceable(8) %call366, ptr noundef nonnull align 8 dereferenceable(32) %endstr367)
          to label %invoke.cont368 unwind label %lpad362

invoke.cont368:                                   ; preds = %invoke.cont365
  call void @_ZNSt7__cxx1112basic_stringIcSt11char_traitsIcESaIcEED1Ev(ptr noundef nonnull align 8 dereferenceable(32) %ref.tmp353) #6
  call void @_ZNSt7__cxx1112basic_stringIcSt11char_traitsIcESaIcEED1Ev(ptr noundef nonnull align 8 dereferenceable(32) %ref.tmp354) #6
  call void @_ZNSaIcED1Ev(ptr noundef nonnull align 1 dereferenceable(1) %ref.tmp357) #6
  br label %if.end373

lpad338:                                          ; preds = %if.end335
  %126 = landingpad { ptr, i32 }
          cleanup
  %127 = extractvalue { ptr, i32 } %126, 0
  store ptr %127, ptr %exn.slot, align 8
  %128 = extractvalue { ptr, i32 } %126, 1
  store i32 %128, ptr %ehselector.slot, align 4
  br label %ehcleanup344

lpad340:                                          ; preds = %invoke.cont339
  %129 = landingpad { ptr, i32 }
          cleanup
  %130 = extractvalue { ptr, i32 } %129, 0
  store ptr %130, ptr %exn.slot, align 8
  %131 = extractvalue { ptr, i32 } %129, 1
  store i32 %131, ptr %ehselector.slot, align 4
  call void @_ZNSt7__cxx1112basic_stringIcSt11char_traitsIcESaIcEED1Ev(ptr noundef nonnull align 8 dereferenceable(32) %ref.tmp336) #6
  br label %ehcleanup344

ehcleanup344:                                     ; preds = %lpad340, %lpad338
  call void @_ZNSaIcED1Ev(ptr noundef nonnull align 1 dereferenceable(1) %ref.tmp337) #6
  br label %ehcleanup667

lpad358:                                          ; preds = %invoke.cont355
  %132 = landingpad { ptr, i32 }
          cleanup
  %133 = extractvalue { ptr, i32 } %132, 0
  store ptr %133, ptr %exn.slot, align 8
  %134 = extractvalue { ptr, i32 } %132, 1
  store i32 %134, ptr %ehselector.slot, align 4
  br label %ehcleanup372

lpad360:                                          ; preds = %invoke.cont359
  %135 = landingpad { ptr, i32 }
          cleanup
  %136 = extractvalue { ptr, i32 } %135, 0
  store ptr %136, ptr %exn.slot, align 8
  %137 = extractvalue { ptr, i32 } %135, 1
  store i32 %137, ptr %ehselector.slot, align 4
  br label %ehcleanup371

lpad362:                                          ; preds = %invoke.cont365, %invoke.cont363, %invoke.cont361
  %138 = landingpad { ptr, i32 }
          cleanup
  %139 = extractvalue { ptr, i32 } %138, 0
  store ptr %139, ptr %exn.slot, align 8
  %140 = extractvalue { ptr, i32 } %138, 1
  store i32 %140, ptr %ehselector.slot, align 4
  call void @_ZNSt7__cxx1112basic_stringIcSt11char_traitsIcESaIcEED1Ev(ptr noundef nonnull align 8 dereferenceable(32) %ref.tmp353) #6
  br label %ehcleanup371

ehcleanup371:                                     ; preds = %lpad362, %lpad360
  call void @_ZNSt7__cxx1112basic_stringIcSt11char_traitsIcESaIcEED1Ev(ptr noundef nonnull align 8 dereferenceable(32) %ref.tmp354) #6
  br label %ehcleanup372

ehcleanup372:                                     ; preds = %ehcleanup371, %lpad358
  call void @_ZNSaIcED1Ev(ptr noundef nonnull align 1 dereferenceable(1) %ref.tmp357) #6
  br label %ehcleanup667

if.end373:                                        ; preds = %invoke.cont368, %invoke.cont341
  br label %if.end374

if.end374:                                        ; preds = %if.end373, %if.end257
  invoke void @_ZN6Assimp15ColladaExporter6PopTagEv(ptr noundef nonnull align 8 dereferenceable(1248) %this1)
          to label %invoke.cont375 unwind label %lpad54

invoke.cont375:                                   ; preds = %if.end374
  %mOutput376 = getelementptr inbounds %"class.Assimp::ColladaExporter", ptr %this1, i32 0, i32 6
  %add.ptr377 = getelementptr inbounds i8, ptr %mOutput376, i64 16
  %startstr378 = getelementptr inbounds %"class.Assimp::ColladaExporter", ptr %this1, i32 0, i32 13
  %call380 = invoke noundef nonnull align 8 dereferenceable(8) ptr @_ZStlsIcSt11char_traitsIcESaIcEERSt13basic_ostreamIT_T0_ES7_RKNSt7__cxx1112basic_stringIS4_S5_T1_EE(ptr noundef nonnull align 8 dereferenceable(8) %add.ptr377, ptr noundef nonnull align 8 dereferenceable(32) %startstr378)
          to label %invoke.cont379 unwind label %lpad54

invoke.cont379:                                   ; preds = %invoke.cont375
  %call382 = invoke noundef nonnull align 8 dereferenceable(8) ptr @_ZStlsISt11char_traitsIcEERSt13basic_ostreamIcT_ES5_PKc(ptr noundef nonnull align 8 dereferenceable(8) %call380, ptr noundef @.str.41)
          to label %invoke.cont381 unwind label %lpad54

invoke.cont381:                                   ; preds = %invoke.cont379
  %endstr383 = getelementptr inbounds %"class.Assimp::ColladaExporter", ptr %this1, i32 0, i32 14
  %call385 = invoke noundef nonnull align 8 dereferenceable(8) ptr @_ZStlsIcSt11char_traitsIcESaIcEERSt13basic_ostreamIT_T0_ES7_RKNSt7__cxx1112basic_stringIS4_S5_T1_EE(ptr noundef nonnull align 8 dereferenceable(8) %call382, ptr noundef nonnull align 8 dereferenceable(32) %endstr383)
          to label %invoke.cont384 unwind label %lpad54

invoke.cont384:                                   ; preds = %invoke.cont381
  %141 = load ptr, ptr %meta, align 8
  %cmp386 = icmp eq ptr null, %141
  store i1 false, ptr %cleanup.cond390, align 1
  store i1 false, ptr %cleanup.cond393, align 1
  br i1 %cmp386, label %lor.end398, label %lor.rhs387

lor.rhs387:                                       ; preds = %invoke.cont384
  %142 = load ptr, ptr %meta, align 8
  call void @_ZNSaIcEC1Ev(ptr noundef nonnull align 1 dereferenceable(1) %ref.tmp389) #6
  store i1 true, ptr %cleanup.cond390, align 1
  invoke void @_ZNSt7__cxx1112basic_stringIcSt11char_traitsIcESaIcEEC2IS3_EEPKcRKS3_(ptr noundef nonnull align 8 dereferenceable(32) %ref.tmp388, ptr noundef @.str.42, ptr noundef nonnull align 1 dereferenceable(1) %ref.tmp389)
          to label %invoke.cont392 unwind label %lpad391

invoke.cont392:                                   ; preds = %lor.rhs387
  store i1 true, ptr %cleanup.cond393, align 1
  %call396 = invoke noundef zeroext i1 @_ZNK10aiMetadata3GetI8aiStringEEbRKNSt7__cxx1112basic_stringIcSt11char_traitsIcESaIcEEERT_(ptr noundef nonnull align 8 dereferenceable(24) %142, ptr noundef nonnull align 8 dereferenceable(32) %ref.tmp388, ptr noundef nonnull align 4 dereferenceable(1028) %value)
          to label %invoke.cont395 unwind label %lpad394

invoke.cont395:                                   ; preds = %invoke.cont392
  %lnot397 = xor i1 %call396, true
  br label %lor.end398

lor.end398:                                       ; preds = %invoke.cont395, %invoke.cont384
  %143 = phi i1 [ true, %invoke.cont384 ], [ %lnot397, %invoke.cont395 ]
  %cleanup.is_active399 = load i1, ptr %cleanup.cond393, align 1
  br i1 %cleanup.is_active399, label %cleanup.action400, label %cleanup.done401

cleanup.action400:                                ; preds = %lor.end398
  call void @_ZNSt7__cxx1112basic_stringIcSt11char_traitsIcESaIcEED1Ev(ptr noundef nonnull align 8 dereferenceable(32) %ref.tmp388) #6
  br label %cleanup.done401

cleanup.done401:                                  ; preds = %cleanup.action400, %lor.end398
  %cleanup.is_active406 = load i1, ptr %cleanup.cond390, align 1
  br i1 %cleanup.is_active406, label %cleanup.action407, label %cleanup.done408

cleanup.action407:                                ; preds = %cleanup.done401
  call void @_ZNSaIcED1Ev(ptr noundef nonnull align 1 dereferenceable(1) %ref.tmp389) #6
  br label %cleanup.done408

cleanup.done408:                                  ; preds = %cleanup.action407, %cleanup.done401
  br i1 %143, label %if.then413, label %if.else429

if.then413:                                       ; preds = %cleanup.done408
  %mOutput414 = getelementptr inbounds %"class.Assimp::ColladaExporter", ptr %this1, i32 0, i32 6
  %add.ptr415 = getelementptr inbounds i8, ptr %mOutput414, i64 16
  %startstr416 = getelementptr inbounds %"class.Assimp::ColladaExporter", ptr %this1, i32 0, i32 13
  %call418 = invoke noundef nonnull align 8 dereferenceable(8) ptr @_ZStlsIcSt11char_traitsIcESaIcEERSt13basic_ostreamIT_T0_ES7_RKNSt7__cxx1112basic_stringIS4_S5_T1_EE(ptr noundef nonnull align 8 dereferenceable(8) %add.ptr415, ptr noundef nonnull align 8 dereferenceable(32) %startstr416)
          to label %invoke.cont417 unwind label %lpad54

invoke.cont417:                                   ; preds = %if.then413
  %call420 = invoke noundef nonnull align 8 dereferenceable(8) ptr @_ZStlsISt11char_traitsIcEERSt13basic_ostreamIcT_ES5_PKc(ptr noundef nonnull align 8 dereferenceable(8) %call418, ptr noundef @.str.43)
          to label %invoke.cont419 unwind label %lpad54

invoke.cont419:                                   ; preds = %invoke.cont417
  %arraydecay421 = getelementptr inbounds [20 x i8], ptr %date_str, i64 0, i64 0
  %call423 = invoke noundef nonnull align 8 dereferenceable(8) ptr @_ZStlsISt11char_traitsIcEERSt13basic_ostreamIcT_ES5_PKc(ptr noundef nonnull align 8 dereferenceable(8) %call420, ptr noundef %arraydecay421)
          to label %invoke.cont422 unwind label %lpad54

invoke.cont422:                                   ; preds = %invoke.cont419
  %call425 = invoke noundef nonnull align 8 dereferenceable(8) ptr @_ZStlsISt11char_traitsIcEERSt13basic_ostreamIcT_ES5_PKc(ptr noundef nonnull align 8 dereferenceable(8) %call423, ptr noundef @.str.44)
          to label %invoke.cont424 unwind label %lpad54

invoke.cont424:                                   ; preds = %invoke.cont422
  %endstr426 = getelementptr inbounds %"class.Assimp::ColladaExporter", ptr %this1, i32 0, i32 14
  %call428 = invoke noundef nonnull align 8 dereferenceable(8) ptr @_ZStlsIcSt11char_traitsIcESaIcEERSt13basic_ostreamIT_T0_ES7_RKNSt7__cxx1112basic_stringIS4_S5_T1_EE(ptr noundef nonnull align 8 dereferenceable(8) %call425, ptr noundef nonnull align 8 dereferenceable(32) %endstr426)
          to label %invoke.cont427 unwind label %lpad54

invoke.cont427:                                   ; preds = %invoke.cont424
  br label %if.end457

lpad391:                                          ; preds = %lor.rhs387
  %144 = landingpad { ptr, i32 }
          cleanup
  %145 = extractvalue { ptr, i32 } %144, 0
  store ptr %145, ptr %exn.slot, align 8
  %146 = extractvalue { ptr, i32 } %144, 1
  store i32 %146, ptr %ehselector.slot, align 4
  br label %ehcleanup409

lpad394:                                          ; preds = %invoke.cont392
  %147 = landingpad { ptr, i32 }
          cleanup
  %148 = extractvalue { ptr, i32 } %147, 0
  store ptr %148, ptr %exn.slot, align 8
  %149 = extractvalue { ptr, i32 } %147, 1
  store i32 %149, ptr %ehselector.slot, align 4
  %cleanup.is_active403 = load i1, ptr %cleanup.cond393, align 1
  br i1 %cleanup.is_active403, label %cleanup.action404, label %cleanup.done405

cleanup.action404:                                ; preds = %lpad394
  call void @_ZNSt7__cxx1112basic_stringIcSt11char_traitsIcESaIcEED1Ev(ptr noundef nonnull align 8 dereferenceable(32) %ref.tmp388) #6
  br label %cleanup.done405

cleanup.done405:                                  ; preds = %cleanup.action404, %lpad394
  br label %ehcleanup409

ehcleanup409:                                     ; preds = %cleanup.done405, %lpad391
  %cleanup.is_active410 = load i1, ptr %cleanup.cond390, align 1
  br i1 %cleanup.is_active410, label %cleanup.action411, label %cleanup.done412

cleanup.action411:                                ; preds = %ehcleanup409
  call void @_ZNSaIcED1Ev(ptr noundef nonnull align 1 dereferenceable(1) %ref.tmp389) #6
  br label %cleanup.done412

cleanup.done412:                                  ; preds = %cleanup.action411, %ehcleanup409
  br label %ehcleanup667

if.else429:                                       ; preds = %cleanup.done408
  %mOutput430 = getelementptr inbounds %"class.Assimp::ColladaExporter", ptr %this1, i32 0, i32 6
  %add.ptr431 = getelementptr inbounds i8, ptr %mOutput430, i64 16
  %startstr432 = getelementptr inbounds %"class.Assimp::ColladaExporter", ptr %this1, i32 0, i32 13
  %call434 = invoke noundef nonnull align 8 dereferenceable(8) ptr @_ZStlsIcSt11char_traitsIcESaIcEERSt13basic_ostreamIT_T0_ES7_RKNSt7__cxx1112basic_stringIS4_S5_T1_EE(ptr noundef nonnull align 8 dereferenceable(8) %add.ptr431, ptr noundef nonnull align 8 dereferenceable(32) %startstr432)
          to label %invoke.cont433 unwind label %lpad54

invoke.cont433:                                   ; preds = %if.else429
  %call436 = invoke noundef nonnull align 8 dereferenceable(8) ptr @_ZStlsISt11char_traitsIcEERSt13basic_ostreamIcT_ES5_PKc(ptr noundef nonnull align 8 dereferenceable(8) %call434, ptr noundef @.str.43)
          to label %invoke.cont435 unwind label %lpad54

invoke.cont435:                                   ; preds = %invoke.cont433
  %call440 = invoke noundef ptr @_ZNK8aiString5C_StrEv(ptr noundef nonnull align 4 dereferenceable(1028) %value)
          to label %invoke.cont439 unwind label %lpad54

invoke.cont439:                                   ; preds = %invoke.cont435
  call void @_ZNSaIcEC1Ev(ptr noundef nonnull align 1 dereferenceable(1) %ref.tmp441) #6
  invoke void @_ZNSt7__cxx1112basic_stringIcSt11char_traitsIcESaIcEEC2IS3_EEPKcRKS3_(ptr noundef nonnull align 8 dereferenceable(32) %ref.tmp438, ptr noundef %call440, ptr noundef nonnull align 1 dereferenceable(1) %ref.tmp441)
          to label %invoke.cont443 unwind label %lpad442

invoke.cont443:                                   ; preds = %invoke.cont439
  invoke void @_ZN6Assimp9XMLEscapeERKNSt7__cxx1112basic_stringIcSt11char_traitsIcESaIcEEE(ptr sret(%"class.std::__cxx11::basic_string") align 8 %ref.tmp437, ptr noundef nonnull align 8 dereferenceable(32) %ref.tmp438)
          to label %invoke.cont445 unwind label %lpad444

invoke.cont445:                                   ; preds = %invoke.cont443
  %call448 = invoke noundef nonnull align 8 dereferenceable(8) ptr @_ZStlsIcSt11char_traitsIcESaIcEERSt13basic_ostreamIT_T0_ES7_RKNSt7__cxx1112basic_stringIS4_S5_T1_EE(ptr noundef nonnull align 8 dereferenceable(8) %call436, ptr noundef nonnull align 8 dereferenceable(32) %ref.tmp437)
          to label %invoke.cont447 unwind label %lpad446

invoke.cont447:                                   ; preds = %invoke.cont445
  %call450 = invoke noundef nonnull align 8 dereferenceable(8) ptr @_ZStlsISt11char_traitsIcEERSt13basic_ostreamIcT_ES5_PKc(ptr noundef nonnull align 8 dereferenceable(8) %call448, ptr noundef @.str.44)
          to label %invoke.cont449 unwind label %lpad446

invoke.cont449:                                   ; preds = %invoke.cont447
  %endstr451 = getelementptr inbounds %"class.Assimp::ColladaExporter", ptr %this1, i32 0, i32 14
  %call453 = invoke noundef nonnull align 8 dereferenceable(8) ptr @_ZStlsIcSt11char_traitsIcESaIcEERSt13basic_ostreamIT_T0_ES7_RKNSt7__cxx1112basic_stringIS4_S5_T1_EE(ptr noundef nonnull align 8 dereferenceable(8) %call450, ptr noundef nonnull align 8 dereferenceable(32) %endstr451)
          to label %invoke.cont452 unwind label %lpad446

invoke.cont452:                                   ; preds = %invoke.cont449
  call void @_ZNSt7__cxx1112basic_stringIcSt11char_traitsIcESaIcEED1Ev(ptr noundef nonnull align 8 dereferenceable(32) %ref.tmp437) #6
  call void @_ZNSt7__cxx1112basic_stringIcSt11char_traitsIcESaIcEED1Ev(ptr noundef nonnull align 8 dereferenceable(32) %ref.tmp438) #6
  call void @_ZNSaIcED1Ev(ptr noundef nonnull align 1 dereferenceable(1) %ref.tmp441) #6
  br label %if.end457

lpad442:                                          ; preds = %invoke.cont439
  %150 = landingpad { ptr, i32 }
          cleanup
  %151 = extractvalue { ptr, i32 } %150, 0
  store ptr %151, ptr %exn.slot, align 8
  %152 = extractvalue { ptr, i32 } %150, 1
  store i32 %152, ptr %ehselector.slot, align 4
  br label %ehcleanup456

lpad444:                                          ; preds = %invoke.cont443
  %153 = landingpad { ptr, i32 }
          cleanup
  %154 = extractvalue { ptr, i32 } %153, 0
  store ptr %154, ptr %exn.slot, align 8
  %155 = extractvalue { ptr, i32 } %153, 1
  store i32 %155, ptr %ehselector.slot, align 4
  br label %ehcleanup455

lpad446:                                          ; preds = %invoke.cont449, %invoke.cont447, %invoke.cont445
  %156 = landingpad { ptr, i32 }
          cleanup
  %157 = extractvalue { ptr, i32 } %156, 0
  store ptr %157, ptr %exn.slot, align 8
  %158 = extractvalue { ptr, i32 } %156, 1
  store i32 %158, ptr %ehselector.slot, align 4
  call void @_ZNSt7__cxx1112basic_stringIcSt11char_traitsIcESaIcEED1Ev(ptr noundef nonnull align 8 dereferenceable(32) %ref.tmp437) #6
  br label %ehcleanup455

ehcleanup455:                                     ; preds = %lpad446, %lpad444
  call void @_ZNSt7__cxx1112basic_stringIcSt11char_traitsIcESaIcEED1Ev(ptr noundef nonnull align 8 dereferenceable(32) %ref.tmp438) #6
  br label %ehcleanup456

ehcleanup456:                                     ; preds = %ehcleanup455, %lpad442
  call void @_ZNSaIcED1Ev(ptr noundef nonnull align 1 dereferenceable(1) %ref.tmp441) #6
  br label %ehcleanup667

if.end457:                                        ; preds = %invoke.cont452, %invoke.cont427
  %mOutput458 = getelementptr inbounds %"class.Assimp::ColladaExporter", ptr %this1, i32 0, i32 6
  %add.ptr459 = getelementptr inbounds i8, ptr %mOutput458, i64 16
  %startstr460 = getelementptr inbounds %"class.Assimp::ColladaExporter", ptr %this1, i32 0, i32 13
  %call462 = invoke noundef nonnull align 8 dereferenceable(8) ptr @_ZStlsIcSt11char_traitsIcESaIcEERSt13basic_ostreamIT_T0_ES7_RKNSt7__cxx1112basic_stringIS4_S5_T1_EE(ptr noundef nonnull align 8 dereferenceable(8) %add.ptr459, ptr noundef nonnull align 8 dereferenceable(32) %startstr460)
          to label %invoke.cont461 unwind label %lpad54

invoke.cont461:                                   ; preds = %if.end457
  %call464 = invoke noundef nonnull align 8 dereferenceable(8) ptr @_ZStlsISt11char_traitsIcEERSt13basic_ostreamIcT_ES5_PKc(ptr noundef nonnull align 8 dereferenceable(8) %call462, ptr noundef @.str.45)
          to label %invoke.cont463 unwind label %lpad54

invoke.cont463:                                   ; preds = %invoke.cont461
  %arraydecay465 = getelementptr inbounds [20 x i8], ptr %date_str, i64 0, i64 0
  %call467 = invoke noundef nonnull align 8 dereferenceable(8) ptr @_ZStlsISt11char_traitsIcEERSt13basic_ostreamIcT_ES5_PKc(ptr noundef nonnull align 8 dereferenceable(8) %call464, ptr noundef %arraydecay465)
          to label %invoke.cont466 unwind label %lpad54

invoke.cont466:                                   ; preds = %invoke.cont463
  %call469 = invoke noundef nonnull align 8 dereferenceable(8) ptr @_ZStlsISt11char_traitsIcEERSt13basic_ostreamIcT_ES5_PKc(ptr noundef nonnull align 8 dereferenceable(8) %call467, ptr noundef @.str.46)
          to label %invoke.cont468 unwind label %lpad54

invoke.cont468:                                   ; preds = %invoke.cont466
  %endstr470 = getelementptr inbounds %"class.Assimp::ColladaExporter", ptr %this1, i32 0, i32 14
  %call472 = invoke noundef nonnull align 8 dereferenceable(8) ptr @_ZStlsIcSt11char_traitsIcESaIcEERSt13basic_ostreamIT_T0_ES7_RKNSt7__cxx1112basic_stringIS4_S5_T1_EE(ptr noundef nonnull align 8 dereferenceable(8) %call469, ptr noundef nonnull align 8 dereferenceable(32) %endstr470)
          to label %invoke.cont471 unwind label %lpad54

invoke.cont471:                                   ; preds = %invoke.cont468
  %159 = load ptr, ptr %meta, align 8
  %tobool473 = icmp ne ptr %159, null
  br i1 %tobool473, label %if.then474, label %if.end627

if.then474:                                       ; preds = %invoke.cont471
  %160 = load ptr, ptr %meta, align 8
  call void @_ZNSaIcEC1Ev(ptr noundef nonnull align 1 dereferenceable(1) %ref.tmp476) #6
  invoke void @_ZNSt7__cxx1112basic_stringIcSt11char_traitsIcESaIcEEC2IS3_EEPKcRKS3_(ptr noundef nonnull align 8 dereferenceable(32) %ref.tmp475, ptr noundef @.str.47, ptr noundef nonnull align 1 dereferenceable(1) %ref.tmp476)
          to label %invoke.cont478 unwind label %lpad477

invoke.cont478:                                   ; preds = %if.then474
  %call481 = invoke noundef zeroext i1 @_ZNK10aiMetadata3GetI8aiStringEEbRKNSt7__cxx1112basic_stringIcSt11char_traitsIcESaIcEEERT_(ptr noundef nonnull align 8 dereferenceable(24) %160, ptr noundef nonnull align 8 dereferenceable(32) %ref.tmp475, ptr noundef nonnull align 4 dereferenceable(1028) %value)
          to label %invoke.cont480 unwind label %lpad479

invoke.cont480:                                   ; preds = %invoke.cont478
  call void @_ZNSt7__cxx1112basic_stringIcSt11char_traitsIcESaIcEED1Ev(ptr noundef nonnull align 8 dereferenceable(32) %ref.tmp475) #6
  call void @_ZNSaIcED1Ev(ptr noundef nonnull align 1 dereferenceable(1) %ref.tmp476) #6
  br i1 %call481, label %if.then484, label %if.end512

if.then484:                                       ; preds = %invoke.cont480
  %mOutput485 = getelementptr inbounds %"class.Assimp::ColladaExporter", ptr %this1, i32 0, i32 6
  %add.ptr486 = getelementptr inbounds i8, ptr %mOutput485, i64 16
  %startstr487 = getelementptr inbounds %"class.Assimp::ColladaExporter", ptr %this1, i32 0, i32 13
  %call489 = invoke noundef nonnull align 8 dereferenceable(8) ptr @_ZStlsIcSt11char_traitsIcESaIcEERSt13basic_ostreamIT_T0_ES7_RKNSt7__cxx1112basic_stringIS4_S5_T1_EE(ptr noundef nonnull align 8 dereferenceable(8) %add.ptr486, ptr noundef nonnull align 8 dereferenceable(32) %startstr487)
          to label %invoke.cont488 unwind label %lpad54

invoke.cont488:                                   ; preds = %if.then484
  %call491 = invoke noundef nonnull align 8 dereferenceable(8) ptr @_ZStlsISt11char_traitsIcEERSt13basic_ostreamIcT_ES5_PKc(ptr noundef nonnull align 8 dereferenceable(8) %call489, ptr noundef @.str.48)
          to label %invoke.cont490 unwind label %lpad54

invoke.cont490:                                   ; preds = %invoke.cont488
  %call495 = invoke noundef ptr @_ZNK8aiString5C_StrEv(ptr noundef nonnull align 4 dereferenceable(1028) %value)
          to label %invoke.cont494 unwind label %lpad54

invoke.cont494:                                   ; preds = %invoke.cont490
  call void @_ZNSaIcEC1Ev(ptr noundef nonnull align 1 dereferenceable(1) %ref.tmp496) #6
  invoke void @_ZNSt7__cxx1112basic_stringIcSt11char_traitsIcESaIcEEC2IS3_EEPKcRKS3_(ptr noundef nonnull align 8 dereferenceable(32) %ref.tmp493, ptr noundef %call495, ptr noundef nonnull align 1 dereferenceable(1) %ref.tmp496)
          to label %invoke.cont498 unwind label %lpad497

invoke.cont498:                                   ; preds = %invoke.cont494
  invoke void @_ZN6Assimp9XMLEscapeERKNSt7__cxx1112basic_stringIcSt11char_traitsIcESaIcEEE(ptr sret(%"class.std::__cxx11::basic_string") align 8 %ref.tmp492, ptr noundef nonnull align 8 dereferenceable(32) %ref.tmp493)
          to label %invoke.cont500 unwind label %lpad499

invoke.cont500:                                   ; preds = %invoke.cont498
  %call503 = invoke noundef nonnull align 8 dereferenceable(8) ptr @_ZStlsIcSt11char_traitsIcESaIcEERSt13basic_ostreamIT_T0_ES7_RKNSt7__cxx1112basic_stringIS4_S5_T1_EE(ptr noundef nonnull align 8 dereferenceable(8) %call491, ptr noundef nonnull align 8 dereferenceable(32) %ref.tmp492)
          to label %invoke.cont502 unwind label %lpad501

invoke.cont502:                                   ; preds = %invoke.cont500
  %call505 = invoke noundef nonnull align 8 dereferenceable(8) ptr @_ZStlsISt11char_traitsIcEERSt13basic_ostreamIcT_ES5_PKc(ptr noundef nonnull align 8 dereferenceable(8) %call503, ptr noundef @.str.49)
          to label %invoke.cont504 unwind label %lpad501

invoke.cont504:                                   ; preds = %invoke.cont502
  %endstr506 = getelementptr inbounds %"class.Assimp::ColladaExporter", ptr %this1, i32 0, i32 14
  %call508 = invoke noundef nonnull align 8 dereferenceable(8) ptr @_ZStlsIcSt11char_traitsIcESaIcEERSt13basic_ostreamIT_T0_ES7_RKNSt7__cxx1112basic_stringIS4_S5_T1_EE(ptr noundef nonnull align 8 dereferenceable(8) %call505, ptr noundef nonnull align 8 dereferenceable(32) %endstr506)
          to label %invoke.cont507 unwind label %lpad501

invoke.cont507:                                   ; preds = %invoke.cont504
  call void @_ZNSt7__cxx1112basic_stringIcSt11char_traitsIcESaIcEED1Ev(ptr noundef nonnull align 8 dereferenceable(32) %ref.tmp492) #6
  call void @_ZNSt7__cxx1112basic_stringIcSt11char_traitsIcESaIcEED1Ev(ptr noundef nonnull align 8 dereferenceable(32) %ref.tmp493) #6
  call void @_ZNSaIcED1Ev(ptr noundef nonnull align 1 dereferenceable(1) %ref.tmp496) #6
  br label %if.end512

lpad477:                                          ; preds = %if.then474
  %161 = landingpad { ptr, i32 }
          cleanup
  %162 = extractvalue { ptr, i32 } %161, 0
  store ptr %162, ptr %exn.slot, align 8
  %163 = extractvalue { ptr, i32 } %161, 1
  store i32 %163, ptr %ehselector.slot, align 4
  br label %ehcleanup483

lpad479:                                          ; preds = %invoke.cont478
  %164 = landingpad { ptr, i32 }
          cleanup
  %165 = extractvalue { ptr, i32 } %164, 0
  store ptr %165, ptr %exn.slot, align 8
  %166 = extractvalue { ptr, i32 } %164, 1
  store i32 %166, ptr %ehselector.slot, align 4
  call void @_ZNSt7__cxx1112basic_stringIcSt11char_traitsIcESaIcEED1Ev(ptr noundef nonnull align 8 dereferenceable(32) %ref.tmp475) #6
  br label %ehcleanup483

ehcleanup483:                                     ; preds = %lpad479, %lpad477
  call void @_ZNSaIcED1Ev(ptr noundef nonnull align 1 dereferenceable(1) %ref.tmp476) #6
  br label %ehcleanup667

lpad497:                                          ; preds = %invoke.cont494
  %167 = landingpad { ptr, i32 }
          cleanup
  %168 = extractvalue { ptr, i32 } %167, 0
  store ptr %168, ptr %exn.slot, align 8
  %169 = extractvalue { ptr, i32 } %167, 1
  store i32 %169, ptr %ehselector.slot, align 4
  br label %ehcleanup511

lpad499:                                          ; preds = %invoke.cont498
  %170 = landingpad { ptr, i32 }
          cleanup
  %171 = extractvalue { ptr, i32 } %170, 0
  store ptr %171, ptr %exn.slot, align 8
  %172 = extractvalue { ptr, i32 } %170, 1
  store i32 %172, ptr %ehselector.slot, align 4
  br label %ehcleanup510

lpad501:                                          ; preds = %invoke.cont504, %invoke.cont502, %invoke.cont500
  %173 = landingpad { ptr, i32 }
          cleanup
  %174 = extractvalue { ptr, i32 } %173, 0
  store ptr %174, ptr %exn.slot, align 8
  %175 = extractvalue { ptr, i32 } %173, 1
  store i32 %175, ptr %ehselector.slot, align 4
  call void @_ZNSt7__cxx1112basic_stringIcSt11char_traitsIcESaIcEED1Ev(ptr noundef nonnull align 8 dereferenceable(32) %ref.tmp492) #6
  br label %ehcleanup510

ehcleanup510:                                     ; preds = %lpad501, %lpad499
  call void @_ZNSt7__cxx1112basic_stringIcSt11char_traitsIcESaIcEED1Ev(ptr noundef nonnull align 8 dereferenceable(32) %ref.tmp493) #6
  br label %ehcleanup511

ehcleanup511:                                     ; preds = %ehcleanup510, %lpad497
  call void @_ZNSaIcED1Ev(ptr noundef nonnull align 1 dereferenceable(1) %ref.tmp496) #6
  br label %ehcleanup667

if.end512:                                        ; preds = %invoke.cont507, %invoke.cont480
  %176 = load ptr, ptr %meta, align 8
  call void @_ZNSaIcEC1Ev(ptr noundef nonnull align 1 dereferenceable(1) %ref.tmp514) #6
  invoke void @_ZNSt7__cxx1112basic_stringIcSt11char_traitsIcESaIcEEC2IS3_EEPKcRKS3_(ptr noundef nonnull align 8 dereferenceable(32) %ref.tmp513, ptr noundef @.str.50, ptr noundef nonnull align 1 dereferenceable(1) %ref.tmp514)
          to label %invoke.cont516 unwind label %lpad515

invoke.cont516:                                   ; preds = %if.end512
  %call519 = invoke noundef zeroext i1 @_ZNK10aiMetadata3GetI8aiStringEEbRKNSt7__cxx1112basic_stringIcSt11char_traitsIcESaIcEEERT_(ptr noundef nonnull align 8 dereferenceable(24) %176, ptr noundef nonnull align 8 dereferenceable(32) %ref.tmp513, ptr noundef nonnull align 4 dereferenceable(1028) %value)
          to label %invoke.cont518 unwind label %lpad517

invoke.cont518:                                   ; preds = %invoke.cont516
  call void @_ZNSt7__cxx1112basic_stringIcSt11char_traitsIcESaIcEED1Ev(ptr noundef nonnull align 8 dereferenceable(32) %ref.tmp513) #6
  call void @_ZNSaIcED1Ev(ptr noundef nonnull align 1 dereferenceable(1) %ref.tmp514) #6
  br i1 %call519, label %if.then522, label %if.end550

if.then522:                                       ; preds = %invoke.cont518
  %mOutput523 = getelementptr inbounds %"class.Assimp::ColladaExporter", ptr %this1, i32 0, i32 6
  %add.ptr524 = getelementptr inbounds i8, ptr %mOutput523, i64 16
  %startstr525 = getelementptr inbounds %"class.Assimp::ColladaExporter", ptr %this1, i32 0, i32 13
  %call527 = invoke noundef nonnull align 8 dereferenceable(8) ptr @_ZStlsIcSt11char_traitsIcESaIcEERSt13basic_ostreamIT_T0_ES7_RKNSt7__cxx1112basic_stringIS4_S5_T1_EE(ptr noundef nonnull align 8 dereferenceable(8) %add.ptr524, ptr noundef nonnull align 8 dereferenceable(32) %startstr525)
          to label %invoke.cont526 unwind label %lpad54

invoke.cont526:                                   ; preds = %if.then522
  %call529 = invoke noundef nonnull align 8 dereferenceable(8) ptr @_ZStlsISt11char_traitsIcEERSt13basic_ostreamIcT_ES5_PKc(ptr noundef nonnull align 8 dereferenceable(8) %call527, ptr noundef @.str.51)
          to label %invoke.cont528 unwind label %lpad54

invoke.cont528:                                   ; preds = %invoke.cont526
  %call533 = invoke noundef ptr @_ZNK8aiString5C_StrEv(ptr noundef nonnull align 4 dereferenceable(1028) %value)
          to label %invoke.cont532 unwind label %lpad54

invoke.cont532:                                   ; preds = %invoke.cont528
  call void @_ZNSaIcEC1Ev(ptr noundef nonnull align 1 dereferenceable(1) %ref.tmp534) #6
  invoke void @_ZNSt7__cxx1112basic_stringIcSt11char_traitsIcESaIcEEC2IS3_EEPKcRKS3_(ptr noundef nonnull align 8 dereferenceable(32) %ref.tmp531, ptr noundef %call533, ptr noundef nonnull align 1 dereferenceable(1) %ref.tmp534)
          to label %invoke.cont536 unwind label %lpad535

invoke.cont536:                                   ; preds = %invoke.cont532
  invoke void @_ZN6Assimp9XMLEscapeERKNSt7__cxx1112basic_stringIcSt11char_traitsIcESaIcEEE(ptr sret(%"class.std::__cxx11::basic_string") align 8 %ref.tmp530, ptr noundef nonnull align 8 dereferenceable(32) %ref.tmp531)
          to label %invoke.cont538 unwind label %lpad537

invoke.cont538:                                   ; preds = %invoke.cont536
  %call541 = invoke noundef nonnull align 8 dereferenceable(8) ptr @_ZStlsIcSt11char_traitsIcESaIcEERSt13basic_ostreamIT_T0_ES7_RKNSt7__cxx1112basic_stringIS4_S5_T1_EE(ptr noundef nonnull align 8 dereferenceable(8) %call529, ptr noundef nonnull align 8 dereferenceable(32) %ref.tmp530)
          to label %invoke.cont540 unwind label %lpad539

invoke.cont540:                                   ; preds = %invoke.cont538
  %call543 = invoke noundef nonnull align 8 dereferenceable(8) ptr @_ZStlsISt11char_traitsIcEERSt13basic_ostreamIcT_ES5_PKc(ptr noundef nonnull align 8 dereferenceable(8) %call541, ptr noundef @.str.52)
          to label %invoke.cont542 unwind label %lpad539

invoke.cont542:                                   ; preds = %invoke.cont540
  %endstr544 = getelementptr inbounds %"class.Assimp::ColladaExporter", ptr %this1, i32 0, i32 14
  %call546 = invoke noundef nonnull align 8 dereferenceable(8) ptr @_ZStlsIcSt11char_traitsIcESaIcEERSt13basic_ostreamIT_T0_ES7_RKNSt7__cxx1112basic_stringIS4_S5_T1_EE(ptr noundef nonnull align 8 dereferenceable(8) %call543, ptr noundef nonnull align 8 dereferenceable(32) %endstr544)
          to label %invoke.cont545 unwind label %lpad539

invoke.cont545:                                   ; preds = %invoke.cont542
  call void @_ZNSt7__cxx1112basic_stringIcSt11char_traitsIcESaIcEED1Ev(ptr noundef nonnull align 8 dereferenceable(32) %ref.tmp530) #6
  call void @_ZNSt7__cxx1112basic_stringIcSt11char_traitsIcESaIcEED1Ev(ptr noundef nonnull align 8 dereferenceable(32) %ref.tmp531) #6
  call void @_ZNSaIcED1Ev(ptr noundef nonnull align 1 dereferenceable(1) %ref.tmp534) #6
  br label %if.end550

lpad515:                                          ; preds = %if.end512
  %177 = landingpad { ptr, i32 }
          cleanup
  %178 = extractvalue { ptr, i32 } %177, 0
  store ptr %178, ptr %exn.slot, align 8
  %179 = extractvalue { ptr, i32 } %177, 1
  store i32 %179, ptr %ehselector.slot, align 4
  br label %ehcleanup521

lpad517:                                          ; preds = %invoke.cont516
  %180 = landingpad { ptr, i32 }
          cleanup
  %181 = extractvalue { ptr, i32 } %180, 0
  store ptr %181, ptr %exn.slot, align 8
  %182 = extractvalue { ptr, i32 } %180, 1
  store i32 %182, ptr %ehselector.slot, align 4
  call void @_ZNSt7__cxx1112basic_stringIcSt11char_traitsIcESaIcEED1Ev(ptr noundef nonnull align 8 dereferenceable(32) %ref.tmp513) #6
  br label %ehcleanup521

ehcleanup521:                                     ; preds = %lpad517, %lpad515
  call void @_ZNSaIcED1Ev(ptr noundef nonnull align 1 dereferenceable(1) %ref.tmp514) #6
  br label %ehcleanup667

lpad535:                                          ; preds = %invoke.cont532
  %183 = landingpad { ptr, i32 }
          cleanup
  %184 = extractvalue { ptr, i32 } %183, 0
  store ptr %184, ptr %exn.slot, align 8
  %185 = extractvalue { ptr, i32 } %183, 1
  store i32 %185, ptr %ehselector.slot, align 4
  br label %ehcleanup549

lpad537:                                          ; preds = %invoke.cont536
  %186 = landingpad { ptr, i32 }
          cleanup
  %187 = extractvalue { ptr, i32 } %186, 0
  store ptr %187, ptr %exn.slot, align 8
  %188 = extractvalue { ptr, i32 } %186, 1
  store i32 %188, ptr %ehselector.slot, align 4
  br label %ehcleanup548

lpad539:                                          ; preds = %invoke.cont542, %invoke.cont540, %invoke.cont538
  %189 = landingpad { ptr, i32 }
          cleanup
  %190 = extractvalue { ptr, i32 } %189, 0
  store ptr %190, ptr %exn.slot, align 8
  %191 = extractvalue { ptr, i32 } %189, 1
  store i32 %191, ptr %ehselector.slot, align 4
  call void @_ZNSt7__cxx1112basic_stringIcSt11char_traitsIcESaIcEED1Ev(ptr noundef nonnull align 8 dereferenceable(32) %ref.tmp530) #6
  br label %ehcleanup548

ehcleanup548:                                     ; preds = %lpad539, %lpad537
  call void @_ZNSt7__cxx1112basic_stringIcSt11char_traitsIcESaIcEED1Ev(ptr noundef nonnull align 8 dereferenceable(32) %ref.tmp531) #6
  br label %ehcleanup549

ehcleanup549:                                     ; preds = %ehcleanup548, %lpad535
  call void @_ZNSaIcED1Ev(ptr noundef nonnull align 1 dereferenceable(1) %ref.tmp534) #6
  br label %ehcleanup667

if.end550:                                        ; preds = %invoke.cont545, %invoke.cont518
  %192 = load ptr, ptr %meta, align 8
  call void @_ZNSaIcEC1Ev(ptr noundef nonnull align 1 dereferenceable(1) %ref.tmp552) #6
  invoke void @_ZNSt7__cxx1112basic_stringIcSt11char_traitsIcESaIcEEC2IS3_EEPKcRKS3_(ptr noundef nonnull align 8 dereferenceable(32) %ref.tmp551, ptr noundef @.str.53, ptr noundef nonnull align 1 dereferenceable(1) %ref.tmp552)
          to label %invoke.cont554 unwind label %lpad553

invoke.cont554:                                   ; preds = %if.end550
  %call557 = invoke noundef zeroext i1 @_ZNK10aiMetadata3GetI8aiStringEEbRKNSt7__cxx1112basic_stringIcSt11char_traitsIcESaIcEEERT_(ptr noundef nonnull align 8 dereferenceable(24) %192, ptr noundef nonnull align 8 dereferenceable(32) %ref.tmp551, ptr noundef nonnull align 4 dereferenceable(1028) %value)
          to label %invoke.cont556 unwind label %lpad555

invoke.cont556:                                   ; preds = %invoke.cont554
  call void @_ZNSt7__cxx1112basic_stringIcSt11char_traitsIcESaIcEED1Ev(ptr noundef nonnull align 8 dereferenceable(32) %ref.tmp551) #6
  call void @_ZNSaIcED1Ev(ptr noundef nonnull align 1 dereferenceable(1) %ref.tmp552) #6
  br i1 %call557, label %if.then560, label %if.end588

if.then560:                                       ; preds = %invoke.cont556
  %mOutput561 = getelementptr inbounds %"class.Assimp::ColladaExporter", ptr %this1, i32 0, i32 6
  %add.ptr562 = getelementptr inbounds i8, ptr %mOutput561, i64 16
  %startstr563 = getelementptr inbounds %"class.Assimp::ColladaExporter", ptr %this1, i32 0, i32 13
  %call565 = invoke noundef nonnull align 8 dereferenceable(8) ptr @_ZStlsIcSt11char_traitsIcESaIcEERSt13basic_ostreamIT_T0_ES7_RKNSt7__cxx1112basic_stringIS4_S5_T1_EE(ptr noundef nonnull align 8 dereferenceable(8) %add.ptr562, ptr noundef nonnull align 8 dereferenceable(32) %startstr563)
          to label %invoke.cont564 unwind label %lpad54

invoke.cont564:                                   ; preds = %if.then560
  %call567 = invoke noundef nonnull align 8 dereferenceable(8) ptr @_ZStlsISt11char_traitsIcEERSt13basic_ostreamIcT_ES5_PKc(ptr noundef nonnull align 8 dereferenceable(8) %call565, ptr noundef @.str.54)
          to label %invoke.cont566 unwind label %lpad54

invoke.cont566:                                   ; preds = %invoke.cont564
  %call571 = invoke noundef ptr @_ZNK8aiString5C_StrEv(ptr noundef nonnull align 4 dereferenceable(1028) %value)
          to label %invoke.cont570 unwind label %lpad54

invoke.cont570:                                   ; preds = %invoke.cont566
  call void @_ZNSaIcEC1Ev(ptr noundef nonnull align 1 dereferenceable(1) %ref.tmp572) #6
  invoke void @_ZNSt7__cxx1112basic_stringIcSt11char_traitsIcESaIcEEC2IS3_EEPKcRKS3_(ptr noundef nonnull align 8 dereferenceable(32) %ref.tmp569, ptr noundef %call571, ptr noundef nonnull align 1 dereferenceable(1) %ref.tmp572)
          to label %invoke.cont574 unwind label %lpad573

invoke.cont574:                                   ; preds = %invoke.cont570
  invoke void @_ZN6Assimp9XMLEscapeERKNSt7__cxx1112basic_stringIcSt11char_traitsIcESaIcEEE(ptr sret(%"class.std::__cxx11::basic_string") align 8 %ref.tmp568, ptr noundef nonnull align 8 dereferenceable(32) %ref.tmp569)
          to label %invoke.cont576 unwind label %lpad575

invoke.cont576:                                   ; preds = %invoke.cont574
  %call579 = invoke noundef nonnull align 8 dereferenceable(8) ptr @_ZStlsIcSt11char_traitsIcESaIcEERSt13basic_ostreamIT_T0_ES7_RKNSt7__cxx1112basic_stringIS4_S5_T1_EE(ptr noundef nonnull align 8 dereferenceable(8) %call567, ptr noundef nonnull align 8 dereferenceable(32) %ref.tmp568)
          to label %invoke.cont578 unwind label %lpad577

invoke.cont578:                                   ; preds = %invoke.cont576
  %call581 = invoke noundef nonnull align 8 dereferenceable(8) ptr @_ZStlsISt11char_traitsIcEERSt13basic_ostreamIcT_ES5_PKc(ptr noundef nonnull align 8 dereferenceable(8) %call579, ptr noundef @.str.55)
          to label %invoke.cont580 unwind label %lpad577

invoke.cont580:                                   ; preds = %invoke.cont578
  %endstr582 = getelementptr inbounds %"class.Assimp::ColladaExporter", ptr %this1, i32 0, i32 14
  %call584 = invoke noundef nonnull align 8 dereferenceable(8) ptr @_ZStlsIcSt11char_traitsIcESaIcEERSt13basic_ostreamIT_T0_ES7_RKNSt7__cxx1112basic_stringIS4_S5_T1_EE(ptr noundef nonnull align 8 dereferenceable(8) %call581, ptr noundef nonnull align 8 dereferenceable(32) %endstr582)
          to label %invoke.cont583 unwind label %lpad577

invoke.cont583:                                   ; preds = %invoke.cont580
  call void @_ZNSt7__cxx1112basic_stringIcSt11char_traitsIcESaIcEED1Ev(ptr noundef nonnull align 8 dereferenceable(32) %ref.tmp568) #6
  call void @_ZNSt7__cxx1112basic_stringIcSt11char_traitsIcESaIcEED1Ev(ptr noundef nonnull align 8 dereferenceable(32) %ref.tmp569) #6
  call void @_ZNSaIcED1Ev(ptr noundef nonnull align 1 dereferenceable(1) %ref.tmp572) #6
  br label %if.end588

lpad553:                                          ; preds = %if.end550
  %193 = landingpad { ptr, i32 }
          cleanup
  %194 = extractvalue { ptr, i32 } %193, 0
  store ptr %194, ptr %exn.slot, align 8
  %195 = extractvalue { ptr, i32 } %193, 1
  store i32 %195, ptr %ehselector.slot, align 4
  br label %ehcleanup559

lpad555:                                          ; preds = %invoke.cont554
  %196 = landingpad { ptr, i32 }
          cleanup
  %197 = extractvalue { ptr, i32 } %196, 0
  store ptr %197, ptr %exn.slot, align 8
  %198 = extractvalue { ptr, i32 } %196, 1
  store i32 %198, ptr %ehselector.slot, align 4
  call void @_ZNSt7__cxx1112basic_stringIcSt11char_traitsIcESaIcEED1Ev(ptr noundef nonnull align 8 dereferenceable(32) %ref.tmp551) #6
  br label %ehcleanup559

ehcleanup559:                                     ; preds = %lpad555, %lpad553
  call void @_ZNSaIcED1Ev(ptr noundef nonnull align 1 dereferenceable(1) %ref.tmp552) #6
  br label %ehcleanup667

lpad573:                                          ; preds = %invoke.cont570
  %199 = landingpad { ptr, i32 }
          cleanup
  %200 = extractvalue { ptr, i32 } %199, 0
  store ptr %200, ptr %exn.slot, align 8
  %201 = extractvalue { ptr, i32 } %199, 1
  store i32 %201, ptr %ehselector.slot, align 4
  br label %ehcleanup587

lpad575:                                          ; preds = %invoke.cont574
  %202 = landingpad { ptr, i32 }
          cleanup
  %203 = extractvalue { ptr, i32 } %202, 0
  store ptr %203, ptr %exn.slot, align 8
  %204 = extractvalue { ptr, i32 } %202, 1
  store i32 %204, ptr %ehselector.slot, align 4
  br label %ehcleanup586

lpad577:                                          ; preds = %invoke.cont580, %invoke.cont578, %invoke.cont576
  %205 = landingpad { ptr, i32 }
          cleanup
  %206 = extractvalue { ptr, i32 } %205, 0
  store ptr %206, ptr %exn.slot, align 8
  %207 = extractvalue { ptr, i32 } %205, 1
  store i32 %207, ptr %ehselector.slot, align 4
  call void @_ZNSt7__cxx1112basic_stringIcSt11char_traitsIcESaIcEED1Ev(ptr noundef nonnull align 8 dereferenceable(32) %ref.tmp568) #6
  br label %ehcleanup586

ehcleanup586:                                     ; preds = %lpad577, %lpad575
  call void @_ZNSt7__cxx1112basic_stringIcSt11char_traitsIcESaIcEED1Ev(ptr noundef nonnull align 8 dereferenceable(32) %ref.tmp569) #6
  br label %ehcleanup587

ehcleanup587:                                     ; preds = %ehcleanup586, %lpad573
  call void @_ZNSaIcED1Ev(ptr noundef nonnull align 1 dereferenceable(1) %ref.tmp572) #6
  br label %ehcleanup667

if.end588:                                        ; preds = %invoke.cont583, %invoke.cont556
  %208 = load ptr, ptr %meta, align 8
  call void @_ZNSaIcEC1Ev(ptr noundef nonnull align 1 dereferenceable(1) %ref.tmp590) #6
  invoke void @_ZNSt7__cxx1112basic_stringIcSt11char_traitsIcESaIcEEC2IS3_EEPKcRKS3_(ptr noundef nonnull align 8 dereferenceable(32) %ref.tmp589, ptr noundef @.str.56, ptr noundef nonnull align 1 dereferenceable(1) %ref.tmp590)
          to label %invoke.cont592 unwind label %lpad591

invoke.cont592:                                   ; preds = %if.end588
  %call595 = invoke noundef zeroext i1 @_ZNK10aiMetadata3GetI8aiStringEEbRKNSt7__cxx1112basic_stringIcSt11char_traitsIcESaIcEEERT_(ptr noundef nonnull align 8 dereferenceable(24) %208, ptr noundef nonnull align 8 dereferenceable(32) %ref.tmp589, ptr noundef nonnull align 4 dereferenceable(1028) %value)
          to label %invoke.cont594 unwind label %lpad593

invoke.cont594:                                   ; preds = %invoke.cont592
  call void @_ZNSt7__cxx1112basic_stringIcSt11char_traitsIcESaIcEED1Ev(ptr noundef nonnull align 8 dereferenceable(32) %ref.tmp589) #6
  call void @_ZNSaIcED1Ev(ptr noundef nonnull align 1 dereferenceable(1) %ref.tmp590) #6
  br i1 %call595, label %if.then598, label %if.end626

if.then598:                                       ; preds = %invoke.cont594
  %mOutput599 = getelementptr inbounds %"class.Assimp::ColladaExporter", ptr %this1, i32 0, i32 6
  %add.ptr600 = getelementptr inbounds i8, ptr %mOutput599, i64 16
  %startstr601 = getelementptr inbounds %"class.Assimp::ColladaExporter", ptr %this1, i32 0, i32 13
  %call603 = invoke noundef nonnull align 8 dereferenceable(8) ptr @_ZStlsIcSt11char_traitsIcESaIcEERSt13basic_ostreamIT_T0_ES7_RKNSt7__cxx1112basic_stringIS4_S5_T1_EE(ptr noundef nonnull align 8 dereferenceable(8) %add.ptr600, ptr noundef nonnull align 8 dereferenceable(32) %startstr601)
          to label %invoke.cont602 unwind label %lpad54

invoke.cont602:                                   ; preds = %if.then598
  %call605 = invoke noundef nonnull align 8 dereferenceable(8) ptr @_ZStlsISt11char_traitsIcEERSt13basic_ostreamIcT_ES5_PKc(ptr noundef nonnull align 8 dereferenceable(8) %call603, ptr noundef @.str.57)
          to label %invoke.cont604 unwind label %lpad54

invoke.cont604:                                   ; preds = %invoke.cont602
  %call609 = invoke noundef ptr @_ZNK8aiString5C_StrEv(ptr noundef nonnull align 4 dereferenceable(1028) %value)
          to label %invoke.cont608 unwind label %lpad54

invoke.cont608:                                   ; preds = %invoke.cont604
  call void @_ZNSaIcEC1Ev(ptr noundef nonnull align 1 dereferenceable(1) %ref.tmp610) #6
  invoke void @_ZNSt7__cxx1112basic_stringIcSt11char_traitsIcESaIcEEC2IS3_EEPKcRKS3_(ptr noundef nonnull align 8 dereferenceable(32) %ref.tmp607, ptr noundef %call609, ptr noundef nonnull align 1 dereferenceable(1) %ref.tmp610)
          to label %invoke.cont612 unwind label %lpad611

invoke.cont612:                                   ; preds = %invoke.cont608
  invoke void @_ZN6Assimp9XMLEscapeERKNSt7__cxx1112basic_stringIcSt11char_traitsIcESaIcEEE(ptr sret(%"class.std::__cxx11::basic_string") align 8 %ref.tmp606, ptr noundef nonnull align 8 dereferenceable(32) %ref.tmp607)
          to label %invoke.cont614 unwind label %lpad613

invoke.cont614:                                   ; preds = %invoke.cont612
  %call617 = invoke noundef nonnull align 8 dereferenceable(8) ptr @_ZStlsIcSt11char_traitsIcESaIcEERSt13basic_ostreamIT_T0_ES7_RKNSt7__cxx1112basic_stringIS4_S5_T1_EE(ptr noundef nonnull align 8 dereferenceable(8) %call605, ptr noundef nonnull align 8 dereferenceable(32) %ref.tmp606)
          to label %invoke.cont616 unwind label %lpad615

invoke.cont616:                                   ; preds = %invoke.cont614
  %call619 = invoke noundef nonnull align 8 dereferenceable(8) ptr @_ZStlsISt11char_traitsIcEERSt13basic_ostreamIcT_ES5_PKc(ptr noundef nonnull align 8 dereferenceable(8) %call617, ptr noundef @.str.58)
          to label %invoke.cont618 unwind label %lpad615

invoke.cont618:                                   ; preds = %invoke.cont616
  %endstr620 = getelementptr inbounds %"class.Assimp::ColladaExporter", ptr %this1, i32 0, i32 14
  %call622 = invoke noundef nonnull align 8 dereferenceable(8) ptr @_ZStlsIcSt11char_traitsIcESaIcEERSt13basic_ostreamIT_T0_ES7_RKNSt7__cxx1112basic_stringIS4_S5_T1_EE(ptr noundef nonnull align 8 dereferenceable(8) %call619, ptr noundef nonnull align 8 dereferenceable(32) %endstr620)
          to label %invoke.cont621 unwind label %lpad615

invoke.cont621:                                   ; preds = %invoke.cont618
  call void @_ZNSt7__cxx1112basic_stringIcSt11char_traitsIcESaIcEED1Ev(ptr noundef nonnull align 8 dereferenceable(32) %ref.tmp606) #6
  call void @_ZNSt7__cxx1112basic_stringIcSt11char_traitsIcESaIcEED1Ev(ptr noundef nonnull align 8 dereferenceable(32) %ref.tmp607) #6
  call void @_ZNSaIcED1Ev(ptr noundef nonnull align 1 dereferenceable(1) %ref.tmp610) #6
  br label %if.end626

lpad591:                                          ; preds = %if.end588
  %209 = landingpad { ptr, i32 }
          cleanup
  %210 = extractvalue { ptr, i32 } %209, 0
  store ptr %210, ptr %exn.slot, align 8
  %211 = extractvalue { ptr, i32 } %209, 1
  store i32 %211, ptr %ehselector.slot, align 4
  br label %ehcleanup597

lpad593:                                          ; preds = %invoke.cont592
  %212 = landingpad { ptr, i32 }
          cleanup
  %213 = extractvalue { ptr, i32 } %212, 0
  store ptr %213, ptr %exn.slot, align 8
  %214 = extractvalue { ptr, i32 } %212, 1
  store i32 %214, ptr %ehselector.slot, align 4
  call void @_ZNSt7__cxx1112basic_stringIcSt11char_traitsIcESaIcEED1Ev(ptr noundef nonnull align 8 dereferenceable(32) %ref.tmp589) #6
  br label %ehcleanup597

ehcleanup597:                                     ; preds = %lpad593, %lpad591
  call void @_ZNSaIcED1Ev(ptr noundef nonnull align 1 dereferenceable(1) %ref.tmp590) #6
  br label %ehcleanup667

lpad611:                                          ; preds = %invoke.cont608
  %215 = landingpad { ptr, i32 }
          cleanup
  %216 = extractvalue { ptr, i32 } %215, 0
  store ptr %216, ptr %exn.slot, align 8
  %217 = extractvalue { ptr, i32 } %215, 1
  store i32 %217, ptr %ehselector.slot, align 4
  br label %ehcleanup625

lpad613:                                          ; preds = %invoke.cont612
  %218 = landingpad { ptr, i32 }
          cleanup
  %219 = extractvalue { ptr, i32 } %218, 0
  store ptr %219, ptr %exn.slot, align 8
  %220 = extractvalue { ptr, i32 } %218, 1
  store i32 %220, ptr %ehselector.slot, align 4
  br label %ehcleanup624

lpad615:                                          ; preds = %invoke.cont618, %invoke.cont616, %invoke.cont614
  %221 = landingpad { ptr, i32 }
          cleanup
  %222 = extractvalue { ptr, i32 } %221, 0
  store ptr %222, ptr %exn.slot, align 8
  %223 = extractvalue { ptr, i32 } %221, 1
  store i32 %223, ptr %ehselector.slot, align 4
  call void @_ZNSt7__cxx1112basic_stringIcSt11char_traitsIcESaIcEED1Ev(ptr noundef nonnull align 8 dereferenceable(32) %ref.tmp606) #6
  br label %ehcleanup624

ehcleanup624:                                     ; preds = %lpad615, %lpad613
  call void @_ZNSt7__cxx1112basic_stringIcSt11char_traitsIcESaIcEED1Ev(ptr noundef nonnull align 8 dereferenceable(32) %ref.tmp607) #6
  br label %ehcleanup625

ehcleanup625:                                     ; preds = %ehcleanup624, %lpad611
  call void @_ZNSaIcED1Ev(ptr noundef nonnull align 1 dereferenceable(1) %ref.tmp610) #6
  br label %ehcleanup667

if.end626:                                        ; preds = %invoke.cont621, %invoke.cont594
  br label %if.end627

if.end627:                                        ; preds = %if.end626, %invoke.cont471
  %mOutput628 = getelementptr inbounds %"class.Assimp::ColladaExporter", ptr %this1, i32 0, i32 6
  %add.ptr629 = getelementptr inbounds i8, ptr %mOutput628, i64 16
  %startstr630 = getelementptr inbounds %"class.Assimp::ColladaExporter", ptr %this1, i32 0, i32 13
  %call632 = invoke noundef nonnull align 8 dereferenceable(8) ptr @_ZStlsIcSt11char_traitsIcESaIcEERSt13basic_ostreamIT_T0_ES7_RKNSt7__cxx1112basic_stringIS4_S5_T1_EE(ptr noundef nonnull align 8 dereferenceable(8) %add.ptr629, ptr noundef nonnull align 8 dereferenceable(32) %startstr630)
          to label %invoke.cont631 unwind label %lpad54

invoke.cont631:                                   ; preds = %if.end627
  %call634 = invoke noundef nonnull align 8 dereferenceable(8) ptr @_ZStlsISt11char_traitsIcEERSt13basic_ostreamIcT_ES5_PKc(ptr noundef nonnull align 8 dereferenceable(8) %call632, ptr noundef @.str.59)
          to label %invoke.cont633 unwind label %lpad54

invoke.cont633:                                   ; preds = %invoke.cont631
  %224 = load float, ptr %scale, align 4
  %call636 = invoke noundef nonnull align 8 dereferenceable(8) ptr @_ZNSolsEf(ptr noundef nonnull align 8 dereferenceable(8) %call634, float noundef %224)
          to label %invoke.cont635 unwind label %lpad54

invoke.cont635:                                   ; preds = %invoke.cont633
  %call638 = invoke noundef nonnull align 8 dereferenceable(8) ptr @_ZStlsISt11char_traitsIcEERSt13basic_ostreamIcT_ES5_PKc(ptr noundef nonnull align 8 dereferenceable(8) %call636, ptr noundef @.str.15)
          to label %invoke.cont637 unwind label %lpad54

invoke.cont637:                                   ; preds = %invoke.cont635
  %endstr639 = getelementptr inbounds %"class.Assimp::ColladaExporter", ptr %this1, i32 0, i32 14
  %call641 = invoke noundef nonnull align 8 dereferenceable(8) ptr @_ZStlsIcSt11char_traitsIcESaIcEERSt13basic_ostreamIT_T0_ES7_RKNSt7__cxx1112basic_stringIS4_S5_T1_EE(ptr noundef nonnull align 8 dereferenceable(8) %call638, ptr noundef nonnull align 8 dereferenceable(32) %endstr639)
          to label %invoke.cont640 unwind label %lpad54

invoke.cont640:                                   ; preds = %invoke.cont637
  %mOutput642 = getelementptr inbounds %"class.Assimp::ColladaExporter", ptr %this1, i32 0, i32 6
  %add.ptr643 = getelementptr inbounds i8, ptr %mOutput642, i64 16
  %startstr644 = getelementptr inbounds %"class.Assimp::ColladaExporter", ptr %this1, i32 0, i32 13
  %call646 = invoke noundef nonnull align 8 dereferenceable(8) ptr @_ZStlsIcSt11char_traitsIcESaIcEERSt13basic_ostreamIT_T0_ES7_RKNSt7__cxx1112basic_stringIS4_S5_T1_EE(ptr noundef nonnull align 8 dereferenceable(8) %add.ptr643, ptr noundef nonnull align 8 dereferenceable(32) %startstr644)
          to label %invoke.cont645 unwind label %lpad54

invoke.cont645:                                   ; preds = %invoke.cont640
  %call648 = invoke noundef nonnull align 8 dereferenceable(8) ptr @_ZStlsISt11char_traitsIcEERSt13basic_ostreamIcT_ES5_PKc(ptr noundef nonnull align 8 dereferenceable(8) %call646, ptr noundef @.str.60)
          to label %invoke.cont647 unwind label %lpad54

invoke.cont647:                                   ; preds = %invoke.cont645
  %call650 = invoke noundef nonnull align 8 dereferenceable(8) ptr @_ZStlsIcSt11char_traitsIcESaIcEERSt13basic_ostreamIT_T0_ES7_RKNSt7__cxx1112basic_stringIS4_S5_T1_EE(ptr noundef nonnull align 8 dereferenceable(8) %call648, ptr noundef nonnull align 8 dereferenceable(32) %up_axis)
          to label %invoke.cont649 unwind label %lpad54

invoke.cont649:                                   ; preds = %invoke.cont647
  %call652 = invoke noundef nonnull align 8 dereferenceable(8) ptr @_ZStlsISt11char_traitsIcEERSt13basic_ostreamIcT_ES5_PKc(ptr noundef nonnull align 8 dereferenceable(8) %call650, ptr noundef @.str.61)
          to label %invoke.cont651 unwind label %lpad54

invoke.cont651:                                   ; preds = %invoke.cont649
  %endstr653 = getelementptr inbounds %"class.Assimp::ColladaExporter", ptr %this1, i32 0, i32 14
  %call655 = invoke noundef nonnull align 8 dereferenceable(8) ptr @_ZStlsIcSt11char_traitsIcESaIcEERSt13basic_ostreamIT_T0_ES7_RKNSt7__cxx1112basic_stringIS4_S5_T1_EE(ptr noundef nonnull align 8 dereferenceable(8) %call652, ptr noundef nonnull align 8 dereferenceable(32) %endstr653)
          to label %invoke.cont654 unwind label %lpad54

invoke.cont654:                                   ; preds = %invoke.cont651
  invoke void @_ZN6Assimp15ColladaExporter6PopTagEv(ptr noundef nonnull align 8 dereferenceable(1248) %this1)
          to label %invoke.cont656 unwind label %lpad54

invoke.cont656:                                   ; preds = %invoke.cont654
  %mOutput657 = getelementptr inbounds %"class.Assimp::ColladaExporter", ptr %this1, i32 0, i32 6
  %add.ptr658 = getelementptr inbounds i8, ptr %mOutput657, i64 16
  %startstr659 = getelementptr inbounds %"class.Assimp::ColladaExporter", ptr %this1, i32 0, i32 13
  %call661 = invoke noundef nonnull align 8 dereferenceable(8) ptr @_ZStlsIcSt11char_traitsIcESaIcEERSt13basic_ostreamIT_T0_ES7_RKNSt7__cxx1112basic_stringIS4_S5_T1_EE(ptr noundef nonnull align 8 dereferenceable(8) %add.ptr658, ptr noundef nonnull align 8 dereferenceable(32) %startstr659)
          to label %invoke.cont660 unwind label %lpad54

invoke.cont660:                                   ; preds = %invoke.cont656
  %call663 = invoke noundef nonnull align 8 dereferenceable(8) ptr @_ZStlsISt11char_traitsIcEERSt13basic_ostreamIcT_ES5_PKc(ptr noundef nonnull align 8 dereferenceable(8) %call661, ptr noundef @.str.62)
          to label %invoke.cont662 unwind label %lpad54

invoke.cont662:                                   ; preds = %invoke.cont660
  %endstr664 = getelementptr inbounds %"class.Assimp::ColladaExporter", ptr %this1, i32 0, i32 14
  %call666 = invoke noundef nonnull align 8 dereferenceable(8) ptr @_ZStlsIcSt11char_traitsIcESaIcEERSt13basic_ostreamIT_T0_ES7_RKNSt7__cxx1112basic_stringIS4_S5_T1_EE(ptr noundef nonnull align 8 dereferenceable(8) %call663, ptr noundef nonnull align 8 dereferenceable(32) %endstr664)
          to label %invoke.cont665 unwind label %lpad54

invoke.cont665:                                   ; preds = %invoke.cont662
  call void @_ZNSt7__cxx1112basic_stringIcSt11char_traitsIcESaIcEED1Ev(ptr noundef nonnull align 8 dereferenceable(32) %up_axis) #6
  ret void

ehcleanup667:                                     ; preds = %ehcleanup625, %ehcleanup597, %ehcleanup587, %ehcleanup559, %ehcleanup549, %ehcleanup521, %ehcleanup511, %ehcleanup483, %ehcleanup456, %cleanup.done412, %ehcleanup372, %ehcleanup344, %ehcleanup334, %ehcleanup306, %ehcleanup296, %ehcleanup268, %ehcleanup256, %cleanup.done213, %ehcleanup185, %cleanup.done142, %lpad54
  call void @_ZNSt7__cxx1112basic_stringIcSt11char_traitsIcESaIcEED1Ev(ptr noundef nonnull align 8 dereferenceable(32) %up_axis) #6
  br label %eh.resume

eh.resume:                                        ; preds = %ehcleanup667, %lpad52, %lpad24, %lpad15, %lpad6, %lpad
  %exn = load ptr, ptr %exn.slot, align 8
  %sel = load i32, ptr %ehselector.slot, align 4
  %lpad.val = insertvalue { ptr, i32 } poison, ptr %exn, 0
  %lpad.val668 = insertvalue { ptr, i32 } %lpad.val, i32 %sel, 1
  resume { ptr, i32 } %lpad.val668
}

; Function Attrs: mustprogress uwtable
define hidden void @_ZN6Assimp15ColladaExporter13CreateNodeIdsEPK6aiNode(ptr noundef nonnull align 8 dereferenceable(1248) %this, ptr noundef %node) #2 align 2 {
entry:
  %this.addr = alloca ptr, align 8
  %node.addr = alloca ptr, align 8
  %agg.tmp.ensured = alloca %"class.std::__cxx11::basic_string", align 8
  %a = alloca i64, align 8
  store ptr %this, ptr %this.addr, align 8
  store ptr %node, ptr %node.addr, align 8
  %this1 = load ptr, ptr %this.addr, align 8
  %0 = load ptr, ptr %node.addr, align 8
  call void @_ZN6Assimp15ColladaExporter15GetNodeUniqueIdB5cxx11EPK6aiNode(ptr sret(%"class.std::__cxx11::basic_string") align 8 %agg.tmp.ensured, ptr noundef nonnull align 8 dereferenceable(1248) %this1, ptr noundef %0)
  call void @_ZNSt7__cxx1112basic_stringIcSt11char_traitsIcESaIcEED1Ev(ptr noundef nonnull align 8 dereferenceable(32) %agg.tmp.ensured) #6
  store i64 0, ptr %a, align 8
  br label %for.cond

for.cond:                                         ; preds = %for.inc, %entry
  %1 = load i64, ptr %a, align 8
  %2 = load ptr, ptr %node.addr, align 8
  %mNumChildren = getelementptr inbounds %struct.aiNode, ptr %2, i32 0, i32 3
  %3 = load i32, ptr %mNumChildren, align 8
  %conv = zext i32 %3 to i64
  %cmp = icmp ult i64 %1, %conv
  br i1 %cmp, label %for.body, label %for.end

for.body:                                         ; preds = %for.cond
  %4 = load ptr, ptr %node.addr, align 8
  %mChildren = getelementptr inbounds %struct.aiNode, ptr %4, i32 0, i32 4
  %5 = load ptr, ptr %mChildren, align 8
  %6 = load i64, ptr %a, align 8
  %arrayidx = getelementptr inbounds ptr, ptr %5, i64 %6
  %7 = load ptr, ptr %arrayidx, align 8
  call void @_ZN6Assimp15ColladaExporter13CreateNodeIdsEPK6aiNode(ptr noundef nonnull align 8 dereferenceable(1248) %this1, ptr noundef %7)
  br label %for.inc

for.inc:                                          ; preds = %for.body
  %8 = load i64, ptr %a, align 8
  %inc = add i64 %8, 1
  store i64 %inc, ptr %a, align 8
  br label %for.cond, !llvm.loop !8

for.end:                                          ; preds = %for.cond
  ret void
}

; Function Attrs: mustprogress uwtable
define hidden void @_ZN6Assimp15ColladaExporter19WriteCamerasLibraryEv(ptr noundef nonnull align 8 dereferenceable(1248) %this) #2 align 2 {
entry:
  %this.addr = alloca ptr, align 8
  %a = alloca i64, align 8
  store ptr %this, ptr %this.addr, align 8
  %this1 = load ptr, ptr %this.addr, align 8
  %mScene = getelementptr inbounds %"class.Assimp::ColladaExporter", ptr %this1, i32 0, i32 10
  %0 = load ptr, ptr %mScene, align 8
  %call = call noundef zeroext i1 @_ZNK7aiScene10HasCamerasEv(ptr noundef nonnull align 8 dereferenceable(1168) %0)
  br i1 %call, label %if.then, label %if.end

if.then:                                          ; preds = %entry
  %mOutput = getelementptr inbounds %"class.Assimp::ColladaExporter", ptr %this1, i32 0, i32 6
  %add.ptr = getelementptr inbounds i8, ptr %mOutput, i64 16
  %startstr = getelementptr inbounds %"class.Assimp::ColladaExporter", ptr %this1, i32 0, i32 13
  %call2 = call noundef nonnull align 8 dereferenceable(8) ptr @_ZStlsIcSt11char_traitsIcESaIcEERSt13basic_ostreamIT_T0_ES7_RKNSt7__cxx1112basic_stringIS4_S5_T1_EE(ptr noundef nonnull align 8 dereferenceable(8) %add.ptr, ptr noundef nonnull align 8 dereferenceable(32) %startstr)
  %call3 = call noundef nonnull align 8 dereferenceable(8) ptr @_ZStlsISt11char_traitsIcEERSt13basic_ostreamIcT_ES5_PKc(ptr noundef nonnull align 8 dereferenceable(8) %call2, ptr noundef @.str.69)
  %endstr = getelementptr inbounds %"class.Assimp::ColladaExporter", ptr %this1, i32 0, i32 14
  %call4 = call noundef nonnull align 8 dereferenceable(8) ptr @_ZStlsIcSt11char_traitsIcESaIcEERSt13basic_ostreamIT_T0_ES7_RKNSt7__cxx1112basic_stringIS4_S5_T1_EE(ptr noundef nonnull align 8 dereferenceable(8) %call3, ptr noundef nonnull align 8 dereferenceable(32) %endstr)
  call void @_ZN6Assimp15ColladaExporter7PushTagEv(ptr noundef nonnull align 8 dereferenceable(1248) %this1)
  store i64 0, ptr %a, align 8
  br label %for.cond

for.cond:                                         ; preds = %for.inc, %if.then
  %1 = load i64, ptr %a, align 8
  %mScene5 = getelementptr inbounds %"class.Assimp::ColladaExporter", ptr %this1, i32 0, i32 10
  %2 = load ptr, ptr %mScene5, align 8
  %mNumCameras = getelementptr inbounds %struct.aiScene, ptr %2, i32 0, i32 12
  %3 = load i32, ptr %mNumCameras, align 8
  %conv = zext i32 %3 to i64
  %cmp = icmp ult i64 %1, %conv
  br i1 %cmp, label %for.body, label %for.end

for.body:                                         ; preds = %for.cond
  %4 = load i64, ptr %a, align 8
  call void @_ZN6Assimp15ColladaExporter11WriteCameraEm(ptr noundef nonnull align 8 dereferenceable(1248) %this1, i64 noundef %4)
  br label %for.inc

for.inc:                                          ; preds = %for.body
  %5 = load i64, ptr %a, align 8
  %inc = add i64 %5, 1
  store i64 %inc, ptr %a, align 8
  br label %for.cond, !llvm.loop !9

for.end:                                          ; preds = %for.cond
  call void @_ZN6Assimp15ColladaExporter6PopTagEv(ptr noundef nonnull align 8 dereferenceable(1248) %this1)
  %mOutput6 = getelementptr inbounds %"class.Assimp::ColladaExporter", ptr %this1, i32 0, i32 6
  %add.ptr7 = getelementptr inbounds i8, ptr %mOutput6, i64 16
  %startstr8 = getelementptr inbounds %"class.Assimp::ColladaExporter", ptr %this1, i32 0, i32 13
  %call9 = call noundef nonnull align 8 dereferenceable(8) ptr @_ZStlsIcSt11char_traitsIcESaIcEERSt13basic_ostreamIT_T0_ES7_RKNSt7__cxx1112basic_stringIS4_S5_T1_EE(ptr noundef nonnull align 8 dereferenceable(8) %add.ptr7, ptr noundef nonnull align 8 dereferenceable(32) %startstr8)
  %call10 = call noundef nonnull align 8 dereferenceable(8) ptr @_ZStlsISt11char_traitsIcEERSt13basic_ostreamIcT_ES5_PKc(ptr noundef nonnull align 8 dereferenceable(8) %call9, ptr noundef @.str.70)
  %endstr11 = getelementptr inbounds %"class.Assimp::ColladaExporter", ptr %this1, i32 0, i32 14
  %call12 = call noundef nonnull align 8 dereferenceable(8) ptr @_ZStlsIcSt11char_traitsIcESaIcEERSt13basic_ostreamIT_T0_ES7_RKNSt7__cxx1112basic_stringIS4_S5_T1_EE(ptr noundef nonnull align 8 dereferenceable(8) %call10, ptr noundef nonnull align 8 dereferenceable(32) %endstr11)
  br label %if.end

if.end:                                           ; preds = %for.end, %entry
  ret void
}

; Function Attrs: mustprogress uwtable
define hidden void @_ZN6Assimp15ColladaExporter18WriteLightsLibraryEv(ptr noundef nonnull align 8 dereferenceable(1248) %this) #2 align 2 {
entry:
  %this.addr = alloca ptr, align 8
  %a = alloca i64, align 8
  store ptr %this, ptr %this.addr, align 8
  %this1 = load ptr, ptr %this.addr, align 8
  %mScene = getelementptr inbounds %"class.Assimp::ColladaExporter", ptr %this1, i32 0, i32 10
  %0 = load ptr, ptr %mScene, align 8
  %call = call noundef zeroext i1 @_ZNK7aiScene9HasLightsEv(ptr noundef nonnull align 8 dereferenceable(1168) %0)
  br i1 %call, label %if.then, label %if.end

if.then:                                          ; preds = %entry
  %mOutput = getelementptr inbounds %"class.Assimp::ColladaExporter", ptr %this1, i32 0, i32 6
  %add.ptr = getelementptr inbounds i8, ptr %mOutput, i64 16
  %startstr = getelementptr inbounds %"class.Assimp::ColladaExporter", ptr %this1, i32 0, i32 13
  %call2 = call noundef nonnull align 8 dereferenceable(8) ptr @_ZStlsIcSt11char_traitsIcESaIcEERSt13basic_ostreamIT_T0_ES7_RKNSt7__cxx1112basic_stringIS4_S5_T1_EE(ptr noundef nonnull align 8 dereferenceable(8) %add.ptr, ptr noundef nonnull align 8 dereferenceable(32) %startstr)
  %call3 = call noundef nonnull align 8 dereferenceable(8) ptr @_ZStlsISt11char_traitsIcEERSt13basic_ostreamIcT_ES5_PKc(ptr noundef nonnull align 8 dereferenceable(8) %call2, ptr noundef @.str.89)
  %endstr = getelementptr inbounds %"class.Assimp::ColladaExporter", ptr %this1, i32 0, i32 14
  %call4 = call noundef nonnull align 8 dereferenceable(8) ptr @_ZStlsIcSt11char_traitsIcESaIcEERSt13basic_ostreamIT_T0_ES7_RKNSt7__cxx1112basic_stringIS4_S5_T1_EE(ptr noundef nonnull align 8 dereferenceable(8) %call3, ptr noundef nonnull align 8 dereferenceable(32) %endstr)
  call void @_ZN6Assimp15ColladaExporter7PushTagEv(ptr noundef nonnull align 8 dereferenceable(1248) %this1)
  store i64 0, ptr %a, align 8
  br label %for.cond

for.cond:                                         ; preds = %for.inc, %if.then
  %1 = load i64, ptr %a, align 8
  %mScene5 = getelementptr inbounds %"class.Assimp::ColladaExporter", ptr %this1, i32 0, i32 10
  %2 = load ptr, ptr %mScene5, align 8
  %mNumLights = getelementptr inbounds %struct.aiScene, ptr %2, i32 0, i32 10
  %3 = load i32, ptr %mNumLights, align 8
  %conv = zext i32 %3 to i64
  %cmp = icmp ult i64 %1, %conv
  br i1 %cmp, label %for.body, label %for.end

for.body:                                         ; preds = %for.cond
  %4 = load i64, ptr %a, align 8
  call void @_ZN6Assimp15ColladaExporter10WriteLightEm(ptr noundef nonnull align 8 dereferenceable(1248) %this1, i64 noundef %4)
  br label %for.inc

for.inc:                                          ; preds = %for.body
  %5 = load i64, ptr %a, align 8
  %inc = add i64 %5, 1
  store i64 %inc, ptr %a, align 8
  br label %for.cond, !llvm.loop !10

for.end:                                          ; preds = %for.cond
  call void @_ZN6Assimp15ColladaExporter6PopTagEv(ptr noundef nonnull align 8 dereferenceable(1248) %this1)
  %mOutput6 = getelementptr inbounds %"class.Assimp::ColladaExporter", ptr %this1, i32 0, i32 6
  %add.ptr7 = getelementptr inbounds i8, ptr %mOutput6, i64 16
  %startstr8 = getelementptr inbounds %"class.Assimp::ColladaExporter", ptr %this1, i32 0, i32 13
  %call9 = call noundef nonnull align 8 dereferenceable(8) ptr @_ZStlsIcSt11char_traitsIcESaIcEERSt13basic_ostreamIT_T0_ES7_RKNSt7__cxx1112basic_stringIS4_S5_T1_EE(ptr noundef nonnull align 8 dereferenceable(8) %add.ptr7, ptr noundef nonnull align 8 dereferenceable(32) %startstr8)
  %call10 = call noundef nonnull align 8 dereferenceable(8) ptr @_ZStlsISt11char_traitsIcEERSt13basic_ostreamIcT_ES5_PKc(ptr noundef nonnull align 8 dereferenceable(8) %call9, ptr noundef @.str.90)
  %endstr11 = getelementptr inbounds %"class.Assimp::ColladaExporter", ptr %this1, i32 0, i32 14
  %call12 = call noundef nonnull align 8 dereferenceable(8) ptr @_ZStlsIcSt11char_traitsIcESaIcEERSt13basic_ostreamIT_T0_ES7_RKNSt7__cxx1112basic_stringIS4_S5_T1_EE(ptr noundef nonnull align 8 dereferenceable(8) %call10, ptr noundef nonnull align 8 dereferenceable(32) %endstr11)
  br label %if.end

if.end:                                           ; preds = %for.end, %entry
  ret void
}

; Function Attrs: mustprogress uwtable
define hidden void @_ZN6Assimp15ColladaExporter14WriteMaterialsEv(ptr noundef nonnull align 8 dereferenceable(1248) %this) #2 align 2 personality ptr @__gxx_personality_v0 {
entry:
  %this.addr = alloca ptr, align 8
  %materials = alloca %"class.std::vector.36", align 8
  %exn.slot = alloca ptr, align 8
  %ehselector.slot = alloca i32, align 4
  %numTextures = alloca i64, align 8
  %a = alloca i64, align 8
  %material = alloca ptr, align 8
  %ref.tmp = alloca %"class.std::__cxx11::basic_string", align 8
  %ref.tmp7 = alloca %"class.std::__cxx11::basic_string", align 8
  %mat = alloca ptr, align 8
  %shading = alloca i32, align 4
  %__range2 = alloca ptr, align 8
  %__begin2 = alloca %"class.__gnu_cxx::__normal_iterator.41", align 8
  %__end2 = alloca %"class.__gnu_cxx::__normal_iterator.41", align 8
  %mat110 = alloca ptr, align 8
  %ref.tmp113 = alloca %"class.std::__cxx11::basic_string", align 8
  %ref.tmp119 = alloca %"class.std::__cxx11::basic_string", align 8
  %ref.tmp125 = alloca %"class.std::__cxx11::basic_string", align 8
  %ref.tmp131 = alloca %"class.std::__cxx11::basic_string", align 8
  %ref.tmp137 = alloca %"class.std::__cxx11::basic_string", align 8
  %ref.tmp143 = alloca %"class.std::__cxx11::basic_string", align 8
  %ref.tmp149 = alloca %"class.std::__cxx11::basic_string", align 8
  %__range2182 = alloca ptr, align 8
  %__begin2183 = alloca %"class.__gnu_cxx::__normal_iterator.41", align 8
  %__end2186 = alloca %"class.__gnu_cxx::__normal_iterator.41", align 8
  %mat192 = alloca ptr, align 8
  %ref.tmp227 = alloca %"class.std::__cxx11::basic_string", align 8
  %ref.tmp228 = alloca %"class.std::allocator.0", align 1
  %ref.tmp235 = alloca %"class.std::__cxx11::basic_string", align 8
  %ref.tmp236 = alloca %"class.std::allocator.0", align 1
  %ref.tmp245 = alloca %"class.std::__cxx11::basic_string", align 8
  %ref.tmp246 = alloca %"class.std::allocator.0", align 1
  %ref.tmp255 = alloca %"class.std::__cxx11::basic_string", align 8
  %ref.tmp256 = alloca %"class.std::allocator.0", align 1
  %ref.tmp265 = alloca %"class.std::__cxx11::basic_string", align 8
  %ref.tmp266 = alloca %"class.std::allocator.0", align 1
  %ref.tmp275 = alloca %"class.std::__cxx11::basic_string", align 8
  %ref.tmp276 = alloca %"class.std::allocator.0", align 1
  %ref.tmp285 = alloca %"class.std::__cxx11::basic_string", align 8
  %ref.tmp286 = alloca %"class.std::allocator.0", align 1
  %ref.tmp322 = alloca %"class.std::__cxx11::basic_string", align 8
  %ref.tmp323 = alloca %"class.std::allocator.0", align 1
  %ref.tmp326 = alloca %"class.std::__cxx11::basic_string", align 8
  %ref.tmp336 = alloca %"class.std::__cxx11::basic_string", align 8
  %ref.tmp337 = alloca %"class.std::allocator.0", align 1
  %ref.tmp340 = alloca %"class.std::__cxx11::basic_string", align 8
  %ref.tmp350 = alloca %"class.std::__cxx11::basic_string", align 8
  %ref.tmp351 = alloca %"class.std::allocator.0", align 1
  %ref.tmp354 = alloca %"class.std::__cxx11::basic_string", align 8
  %ref.tmp364 = alloca %"class.std::__cxx11::basic_string", align 8
  %ref.tmp365 = alloca %"class.std::allocator.0", align 1
  %ref.tmp368 = alloca %"class.std::__cxx11::basic_string", align 8
  %ref.tmp378 = alloca %"class.std::__cxx11::basic_string", align 8
  %ref.tmp379 = alloca %"class.std::allocator.0", align 1
  %ref.tmp387 = alloca %"class.std::__cxx11::basic_string", align 8
  %ref.tmp388 = alloca %"class.std::allocator.0", align 1
  %ref.tmp391 = alloca %"class.std::__cxx11::basic_string", align 8
  %ref.tmp401 = alloca %"class.std::__cxx11::basic_string", align 8
  %ref.tmp402 = alloca %"class.std::allocator.0", align 1
  %ref.tmp405 = alloca %"class.std::__cxx11::basic_string", align 8
  %ref.tmp415 = alloca %"class.std::__cxx11::basic_string", align 8
  %ref.tmp416 = alloca %"class.std::allocator.0", align 1
  %ref.tmp424 = alloca %"class.std::__cxx11::basic_string", align 8
  %ref.tmp425 = alloca %"class.std::allocator.0", align 1
  %ref.tmp436 = alloca %"class.std::__cxx11::basic_string", align 8
  %ref.tmp437 = alloca %"class.std::allocator.0", align 1
  %ref.tmp440 = alloca %"class.std::__cxx11::basic_string", align 8
  %it = alloca %"class.__gnu_cxx::__normal_iterator.42", align 8
  %ref.tmp524 = alloca %"class.__gnu_cxx::__normal_iterator.41", align 8
  %ref.tmp528 = alloca %"class.__gnu_cxx::__normal_iterator.41", align 8
  %mat533 = alloca ptr, align 8
  store ptr %this, ptr %this.addr, align 8
  %this1 = load ptr, ptr %this.addr, align 8
  call void @_ZNSt6vectorIN6Assimp15ColladaExporter8MaterialESaIS2_EEC2Ev(ptr noundef nonnull align 8 dereferenceable(24) %materials) #6
  %mScene = getelementptr inbounds %"class.Assimp::ColladaExporter", ptr %this1, i32 0, i32 10
  %0 = load ptr, ptr %mScene, align 8
  %mNumMaterials = getelementptr inbounds %struct.aiScene, ptr %0, i32 0, i32 4
  %1 = load i32, ptr %mNumMaterials, align 8
  %conv = zext i32 %1 to i64
  invoke void @_ZNSt6vectorIN6Assimp15ColladaExporter8MaterialESaIS2_EE6resizeEm(ptr noundef nonnull align 8 dereferenceable(24) %materials, i64 noundef %conv)
          to label %invoke.cont unwind label %lpad

invoke.cont:                                      ; preds = %entry
  store i64 0, ptr %numTextures, align 8
  store i64 0, ptr %a, align 8
  br label %for.cond

for.cond:                                         ; preds = %for.inc, %invoke.cont
  %2 = load i64, ptr %a, align 8
  %mScene2 = getelementptr inbounds %"class.Assimp::ColladaExporter", ptr %this1, i32 0, i32 10
  %3 = load ptr, ptr %mScene2, align 8
  %mNumMaterials3 = getelementptr inbounds %struct.aiScene, ptr %3, i32 0, i32 4
  %4 = load i32, ptr %mNumMaterials3, align 8
  %conv4 = zext i32 %4 to i64
  %cmp = icmp ult i64 %2, %conv4
  br i1 %cmp, label %for.body, label %for.end

for.body:                                         ; preds = %for.cond
  %5 = load i64, ptr %a, align 8
  %call = call noundef nonnull align 8 dereferenceable(568) ptr @_ZNSt6vectorIN6Assimp15ColladaExporter8MaterialESaIS2_EEixEm(ptr noundef nonnull align 8 dereferenceable(24) %materials, i64 noundef %5) #6
  store ptr %call, ptr %material, align 8
  %6 = load i64, ptr %a, align 8
  invoke void @_ZN6Assimp15ColladaExporter17GetObjectUniqueIdB5cxx11ENS0_12AiObjectTypeEm(ptr sret(%"class.std::__cxx11::basic_string") align 8 %ref.tmp, ptr noundef nonnull align 8 dereferenceable(1248) %this1, i32 noundef 1, i64 noundef %6)
          to label %invoke.cont5 unwind label %lpad

invoke.cont5:                                     ; preds = %for.body
  %7 = load ptr, ptr %material, align 8
  %id = getelementptr inbounds %"struct.Assimp::ColladaExporter::Material", ptr %7, i32 0, i32 0
  %call6 = call noundef nonnull align 8 dereferenceable(32) ptr @_ZNSt7__cxx1112basic_stringIcSt11char_traitsIcESaIcEEaSEOS4_(ptr noundef nonnull align 8 dereferenceable(32) %id, ptr noundef nonnull align 8 dereferenceable(32) %ref.tmp) #6
  call void @_ZNSt7__cxx1112basic_stringIcSt11char_traitsIcESaIcEED1Ev(ptr noundef nonnull align 8 dereferenceable(32) %ref.tmp) #6
  %8 = load i64, ptr %a, align 8
  invoke void @_ZN6Assimp15ColladaExporter13GetObjectNameB5cxx11ENS0_12AiObjectTypeEm(ptr sret(%"class.std::__cxx11::basic_string") align 8 %ref.tmp7, ptr noundef nonnull align 8 dereferenceable(1248) %this1, i32 noundef 1, i64 noundef %8)
          to label %invoke.cont8 unwind label %lpad

invoke.cont8:                                     ; preds = %invoke.cont5
  %9 = load ptr, ptr %material, align 8
  %name = getelementptr inbounds %"struct.Assimp::ColladaExporter::Material", ptr %9, i32 0, i32 1
  %call9 = call noundef nonnull align 8 dereferenceable(32) ptr @_ZNSt7__cxx1112basic_stringIcSt11char_traitsIcESaIcEEaSEOS4_(ptr noundef nonnull align 8 dereferenceable(32) %name, ptr noundef nonnull align 8 dereferenceable(32) %ref.tmp7) #6
  call void @_ZNSt7__cxx1112basic_stringIcSt11char_traitsIcESaIcEED1Ev(ptr noundef nonnull align 8 dereferenceable(32) %ref.tmp7) #6
  %mScene10 = getelementptr inbounds %"class.Assimp::ColladaExporter", ptr %this1, i32 0, i32 10
  %10 = load ptr, ptr %mScene10, align 8
  %mMaterials = getelementptr inbounds %struct.aiScene, ptr %10, i32 0, i32 5
  %11 = load ptr, ptr %mMaterials, align 8
  %12 = load i64, ptr %a, align 8
  %arrayidx = getelementptr inbounds ptr, ptr %11, i64 %12
  %13 = load ptr, ptr %arrayidx, align 8
  store ptr %13, ptr %mat, align 8
  store i32 1, ptr %shading, align 4
  %14 = load ptr, ptr %material, align 8
  %shading_model = getelementptr inbounds %"struct.Assimp::ColladaExporter::Material", ptr %14, i32 0, i32 2
  %call12 = invoke noundef nonnull align 8 dereferenceable(32) ptr @_ZNSt7__cxx1112basic_stringIcSt11char_traitsIcESaIcEEaSEPKc(ptr noundef nonnull align 8 dereferenceable(32) %shading_model, ptr noundef @.str.141)
          to label %invoke.cont11 unwind label %lpad

invoke.cont11:                                    ; preds = %invoke.cont8
  %15 = load ptr, ptr %mat, align 8
  %call14 = invoke noundef i32 @_ZNK10aiMaterial3GetI13aiShadingModeEE8aiReturnPKcjjRT_(ptr noundef nonnull align 8 dereferenceable(16) %15, ptr noundef @.str.142, i32 noundef 0, i32 noundef 0, ptr noundef nonnull align 4 dereferenceable(4) %shading)
          to label %invoke.cont13 unwind label %lpad

invoke.cont13:                                    ; preds = %invoke.cont11
  %cmp15 = icmp eq i32 %call14, 0
  br i1 %cmp15, label %if.then, label %if.end41

if.then:                                          ; preds = %invoke.cont13
  %16 = load i32, ptr %shading, align 4
  %cmp16 = icmp eq i32 %16, 3
  br i1 %cmp16, label %if.then17, label %if.else

if.then17:                                        ; preds = %if.then
  %17 = load ptr, ptr %material, align 8
  %shading_model18 = getelementptr inbounds %"struct.Assimp::ColladaExporter::Material", ptr %17, i32 0, i32 2
  %call20 = invoke noundef nonnull align 8 dereferenceable(32) ptr @_ZNSt7__cxx1112basic_stringIcSt11char_traitsIcESaIcEEaSEPKc(ptr noundef nonnull align 8 dereferenceable(32) %shading_model18, ptr noundef @.str.141)
          to label %invoke.cont19 unwind label %lpad

invoke.cont19:                                    ; preds = %if.then17
  br label %if.end40

lpad:                                             ; preds = %invoke.cont591, %invoke.cont589, %invoke.cont585, %for.end584, %invoke.cont577, %invoke.cont575, %invoke.cont571, %invoke.cont569, %invoke.cont566, %invoke.cont564, %invoke.cont561, %invoke.cont559, %invoke.cont555, %invoke.cont553, %invoke.cont550, %invoke.cont548, %invoke.cont545, %invoke.cont543, %invoke.cont540, %invoke.cont538, %for.body532, %invoke.cont521, %invoke.cont518, %invoke.cont516, %invoke.cont511, %invoke.cont508, %invoke.cont506, %invoke.cont502, %for.end501, %invoke.cont494, %invoke.cont492, %invoke.cont488, %invoke.cont486, %invoke.cont483, %invoke.cont481, %invoke.cont477, %invoke.cont475, %invoke.cont472, %invoke.cont470, %invoke.cont466, %invoke.cont464, %invoke.cont461, %invoke.cont459, %invoke.cont456, %invoke.cont454, %invoke.cont450, %if.end449, %invoke.cont318, %invoke.cont315, %invoke.cont313, %invoke.cont310, %invoke.cont308, %invoke.cont304, %invoke.cont302, %invoke.cont299, %invoke.cont297, %invoke.cont291, %invoke.cont223, %invoke.cont220, %invoke.cont218, %invoke.cont214, %invoke.cont212, %invoke.cont209, %invoke.cont207, %invoke.cont204, %invoke.cont202, %invoke.cont199, %invoke.cont197, %for.body191, %invoke.cont179, %invoke.cont176, %invoke.cont174, %if.then170, %invoke.cont163, %invoke.cont161, %invoke.cont157, %for.end156, %invoke.cont147, %invoke.cont141, %invoke.cont135, %invoke.cont129, %invoke.cont123, %invoke.cont117, %for.body109, %invoke.cont101, %invoke.cont99, %invoke.cont97, %if.then96, %invoke.cont81, %invoke.cont76, %if.end75, %if.end70, %if.end65, %if.end60, %if.end55, %if.end50, %if.end45, %if.end41, %if.then34, %if.then28, %if.then22, %if.then17, %invoke.cont11, %invoke.cont8, %invoke.cont5, %for.body, %entry
  %18 = landingpad { ptr, i32 }
          cleanup
  %19 = extractvalue { ptr, i32 } %18, 0
  store ptr %19, ptr %exn.slot, align 8
  %20 = extractvalue { ptr, i32 } %18, 1
  store i32 %20, ptr %ehselector.slot, align 4
  br label %ehcleanup597

if.else:                                          ; preds = %if.then
  %21 = load i32, ptr %shading, align 4
  %cmp21 = icmp eq i32 %21, 4
  br i1 %cmp21, label %if.then22, label %if.else26

if.then22:                                        ; preds = %if.else
  %22 = load ptr, ptr %material, align 8
  %shading_model23 = getelementptr inbounds %"struct.Assimp::ColladaExporter::Material", ptr %22, i32 0, i32 2
  %call25 = invoke noundef nonnull align 8 dereferenceable(32) ptr @_ZNSt7__cxx1112basic_stringIcSt11char_traitsIcESaIcEEaSEPKc(ptr noundef nonnull align 8 dereferenceable(32) %shading_model23, ptr noundef @.str.143)
          to label %invoke.cont24 unwind label %lpad

invoke.cont24:                                    ; preds = %if.then22
  br label %if.end39

if.else26:                                        ; preds = %if.else
  %23 = load i32, ptr %shading, align 4
  %cmp27 = icmp eq i32 %23, 9
  br i1 %cmp27, label %if.then28, label %if.else32

if.then28:                                        ; preds = %if.else26
  %24 = load ptr, ptr %material, align 8
  %shading_model29 = getelementptr inbounds %"struct.Assimp::ColladaExporter::Material", ptr %24, i32 0, i32 2
  %call31 = invoke noundef nonnull align 8 dereferenceable(32) ptr @_ZNSt7__cxx1112basic_stringIcSt11char_traitsIcESaIcEEaSEPKc(ptr noundef nonnull align 8 dereferenceable(32) %shading_model29, ptr noundef @.str.144)
          to label %invoke.cont30 unwind label %lpad

invoke.cont30:                                    ; preds = %if.then28
  br label %if.end38

if.else32:                                        ; preds = %if.else26
  %25 = load i32, ptr %shading, align 4
  %cmp33 = icmp eq i32 %25, 2
  br i1 %cmp33, label %if.then34, label %if.end

if.then34:                                        ; preds = %if.else32
  %26 = load ptr, ptr %material, align 8
  %shading_model35 = getelementptr inbounds %"struct.Assimp::ColladaExporter::Material", ptr %26, i32 0, i32 2
  %call37 = invoke noundef nonnull align 8 dereferenceable(32) ptr @_ZNSt7__cxx1112basic_stringIcSt11char_traitsIcESaIcEEaSEPKc(ptr noundef nonnull align 8 dereferenceable(32) %shading_model35, ptr noundef @.str.145)
          to label %invoke.cont36 unwind label %lpad

invoke.cont36:                                    ; preds = %if.then34
  br label %if.end

if.end:                                           ; preds = %invoke.cont36, %if.else32
  br label %if.end38

if.end38:                                         ; preds = %if.end, %invoke.cont30
  br label %if.end39

if.end39:                                         ; preds = %if.end38, %invoke.cont24
  br label %if.end40

if.end40:                                         ; preds = %if.end39, %invoke.cont19
  br label %if.end41

if.end41:                                         ; preds = %if.end40, %invoke.cont13
  %27 = load ptr, ptr %material, align 8
  %ambient = getelementptr inbounds %"struct.Assimp::ColladaExporter::Material", ptr %27, i32 0, i32 3
  %28 = load ptr, ptr %mat, align 8
  %call43 = invoke noundef zeroext i1 @_ZN6Assimp15ColladaExporter19ReadMaterialSurfaceERNS0_7SurfaceERK10aiMaterial13aiTextureTypePKcmm(ptr noundef nonnull align 8 dereferenceable(1248) %this1, ptr noundef nonnull align 8 dereferenceable(64) %ambient, ptr noundef nonnull align 8 dereferenceable(16) %28, i32 noundef 3, ptr noundef @.str.146, i64 noundef 0, i64 noundef 0)
          to label %invoke.cont42 unwind label %lpad

invoke.cont42:                                    ; preds = %if.end41
  br i1 %call43, label %if.then44, label %if.end45

if.then44:                                        ; preds = %invoke.cont42
  %29 = load i64, ptr %numTextures, align 8
  %inc = add i64 %29, 1
  store i64 %inc, ptr %numTextures, align 8
  br label %if.end45

if.end45:                                         ; preds = %if.then44, %invoke.cont42
  %30 = load ptr, ptr %material, align 8
  %diffuse = getelementptr inbounds %"struct.Assimp::ColladaExporter::Material", ptr %30, i32 0, i32 4
  %31 = load ptr, ptr %mat, align 8
  %call47 = invoke noundef zeroext i1 @_ZN6Assimp15ColladaExporter19ReadMaterialSurfaceERNS0_7SurfaceERK10aiMaterial13aiTextureTypePKcmm(ptr noundef nonnull align 8 dereferenceable(1248) %this1, ptr noundef nonnull align 8 dereferenceable(64) %diffuse, ptr noundef nonnull align 8 dereferenceable(16) %31, i32 noundef 1, ptr noundef @.str.147, i64 noundef 0, i64 noundef 0)
          to label %invoke.cont46 unwind label %lpad

invoke.cont46:                                    ; preds = %if.end45
  br i1 %call47, label %if.then48, label %if.end50

if.then48:                                        ; preds = %invoke.cont46
  %32 = load i64, ptr %numTextures, align 8
  %inc49 = add i64 %32, 1
  store i64 %inc49, ptr %numTextures, align 8
  br label %if.end50

if.end50:                                         ; preds = %if.then48, %invoke.cont46
  %33 = load ptr, ptr %material, align 8
  %specular = getelementptr inbounds %"struct.Assimp::ColladaExporter::Material", ptr %33, i32 0, i32 5
  %34 = load ptr, ptr %mat, align 8
  %call52 = invoke noundef zeroext i1 @_ZN6Assimp15ColladaExporter19ReadMaterialSurfaceERNS0_7SurfaceERK10aiMaterial13aiTextureTypePKcmm(ptr noundef nonnull align 8 dereferenceable(1248) %this1, ptr noundef nonnull align 8 dereferenceable(64) %specular, ptr noundef nonnull align 8 dereferenceable(16) %34, i32 noundef 2, ptr noundef @.str.148, i64 noundef 0, i64 noundef 0)
          to label %invoke.cont51 unwind label %lpad

invoke.cont51:                                    ; preds = %if.end50
  br i1 %call52, label %if.then53, label %if.end55

if.then53:                                        ; preds = %invoke.cont51
  %35 = load i64, ptr %numTextures, align 8
  %inc54 = add i64 %35, 1
  store i64 %inc54, ptr %numTextures, align 8
  br label %if.end55

if.end55:                                         ; preds = %if.then53, %invoke.cont51
  %36 = load ptr, ptr %material, align 8
  %emissive = getelementptr inbounds %"struct.Assimp::ColladaExporter::Material", ptr %36, i32 0, i32 6
  %37 = load ptr, ptr %mat, align 8
  %call57 = invoke noundef zeroext i1 @_ZN6Assimp15ColladaExporter19ReadMaterialSurfaceERNS0_7SurfaceERK10aiMaterial13aiTextureTypePKcmm(ptr noundef nonnull align 8 dereferenceable(1248) %this1, ptr noundef nonnull align 8 dereferenceable(64) %emissive, ptr noundef nonnull align 8 dereferenceable(16) %37, i32 noundef 4, ptr noundef @.str.149, i64 noundef 0, i64 noundef 0)
          to label %invoke.cont56 unwind label %lpad

invoke.cont56:                                    ; preds = %if.end55
  br i1 %call57, label %if.then58, label %if.end60

if.then58:                                        ; preds = %invoke.cont56
  %38 = load i64, ptr %numTextures, align 8
  %inc59 = add i64 %38, 1
  store i64 %inc59, ptr %numTextures, align 8
  br label %if.end60

if.end60:                                         ; preds = %if.then58, %invoke.cont56
  %39 = load ptr, ptr %material, align 8
  %reflective = getelementptr inbounds %"struct.Assimp::ColladaExporter::Material", ptr %39, i32 0, i32 7
  %40 = load ptr, ptr %mat, align 8
  %call62 = invoke noundef zeroext i1 @_ZN6Assimp15ColladaExporter19ReadMaterialSurfaceERNS0_7SurfaceERK10aiMaterial13aiTextureTypePKcmm(ptr noundef nonnull align 8 dereferenceable(1248) %this1, ptr noundef nonnull align 8 dereferenceable(64) %reflective, ptr noundef nonnull align 8 dereferenceable(16) %40, i32 noundef 11, ptr noundef @.str.150, i64 noundef 0, i64 noundef 0)
          to label %invoke.cont61 unwind label %lpad

invoke.cont61:                                    ; preds = %if.end60
  br i1 %call62, label %if.then63, label %if.end65

if.then63:                                        ; preds = %invoke.cont61
  %41 = load i64, ptr %numTextures, align 8
  %inc64 = add i64 %41, 1
  store i64 %inc64, ptr %numTextures, align 8
  br label %if.end65

if.end65:                                         ; preds = %if.then63, %invoke.cont61
  %42 = load ptr, ptr %material, align 8
  %transparent = getelementptr inbounds %"struct.Assimp::ColladaExporter::Material", ptr %42, i32 0, i32 8
  %43 = load ptr, ptr %mat, align 8
  %call67 = invoke noundef zeroext i1 @_ZN6Assimp15ColladaExporter19ReadMaterialSurfaceERNS0_7SurfaceERK10aiMaterial13aiTextureTypePKcmm(ptr noundef nonnull align 8 dereferenceable(1248) %this1, ptr noundef nonnull align 8 dereferenceable(64) %transparent, ptr noundef nonnull align 8 dereferenceable(16) %43, i32 noundef 8, ptr noundef @.str.151, i64 noundef 0, i64 noundef 0)
          to label %invoke.cont66 unwind label %lpad

invoke.cont66:                                    ; preds = %if.end65
  br i1 %call67, label %if.then68, label %if.end70

if.then68:                                        ; preds = %invoke.cont66
  %44 = load i64, ptr %numTextures, align 8
  %inc69 = add i64 %44, 1
  store i64 %inc69, ptr %numTextures, align 8
  br label %if.end70

if.end70:                                         ; preds = %if.then68, %invoke.cont66
  %45 = load ptr, ptr %material, align 8
  %normal = getelementptr inbounds %"struct.Assimp::ColladaExporter::Material", ptr %45, i32 0, i32 9
  %46 = load ptr, ptr %mat, align 8
  %call72 = invoke noundef zeroext i1 @_ZN6Assimp15ColladaExporter19ReadMaterialSurfaceERNS0_7SurfaceERK10aiMaterial13aiTextureTypePKcmm(ptr noundef nonnull align 8 dereferenceable(1248) %this1, ptr noundef nonnull align 8 dereferenceable(64) %normal, ptr noundef nonnull align 8 dereferenceable(16) %46, i32 noundef 6, ptr noundef null, i64 noundef 0, i64 noundef 0)
          to label %invoke.cont71 unwind label %lpad

invoke.cont71:                                    ; preds = %if.end70
  br i1 %call72, label %if.then73, label %if.end75

if.then73:                                        ; preds = %invoke.cont71
  %47 = load i64, ptr %numTextures, align 8
  %inc74 = add i64 %47, 1
  store i64 %inc74, ptr %numTextures, align 8
  br label %if.end75

if.end75:                                         ; preds = %if.then73, %invoke.cont71
  %48 = load ptr, ptr %mat, align 8
  %49 = load ptr, ptr %material, align 8
  %shininess = getelementptr inbounds %"struct.Assimp::ColladaExporter::Material", ptr %49, i32 0, i32 10
  %value = getelementptr inbounds %"struct.Assimp::ColladaExporter::Property", ptr %shininess, i32 0, i32 1
  %call77 = invoke noundef i32 @_ZNK10aiMaterial3GetEPKcjjRf(ptr noundef nonnull align 8 dereferenceable(16) %48, ptr noundef @.str.152, i32 noundef 0, i32 noundef 0, ptr noundef nonnull align 4 dereferenceable(4) %value)
          to label %invoke.cont76 unwind label %lpad

invoke.cont76:                                    ; preds = %if.end75
  %cmp78 = icmp eq i32 %call77, 0
  %50 = load ptr, ptr %material, align 8
  %shininess79 = getelementptr inbounds %"struct.Assimp::ColladaExporter::Material", ptr %50, i32 0, i32 10
  %exist = getelementptr inbounds %"struct.Assimp::ColladaExporter::Property", ptr %shininess79, i32 0, i32 0
  %frombool = zext i1 %cmp78 to i8
  store i8 %frombool, ptr %exist, align 8
  %51 = load ptr, ptr %mat, align 8
  %52 = load ptr, ptr %material, align 8
  %transparency = getelementptr inbounds %"struct.Assimp::ColladaExporter::Material", ptr %52, i32 0, i32 11
  %value80 = getelementptr inbounds %"struct.Assimp::ColladaExporter::Property", ptr %transparency, i32 0, i32 1
  %call82 = invoke noundef i32 @_ZNK10aiMaterial3GetEPKcjjRf(ptr noundef nonnull align 8 dereferenceable(16) %51, ptr noundef @.str.153, i32 noundef 0, i32 noundef 0, ptr noundef nonnull align 4 dereferenceable(4) %value80)
          to label %invoke.cont81 unwind label %lpad

invoke.cont81:                                    ; preds = %invoke.cont76
  %cmp83 = icmp eq i32 %call82, 0
  %53 = load ptr, ptr %material, align 8
  %transparency84 = getelementptr inbounds %"struct.Assimp::ColladaExporter::Material", ptr %53, i32 0, i32 11
  %exist85 = getelementptr inbounds %"struct.Assimp::ColladaExporter::Property", ptr %transparency84, i32 0, i32 0
  %frombool86 = zext i1 %cmp83 to i8
  store i8 %frombool86, ptr %exist85, align 8
  %54 = load ptr, ptr %mat, align 8
  %55 = load ptr, ptr %material, align 8
  %index_refraction = getelementptr inbounds %"struct.Assimp::ColladaExporter::Material", ptr %55, i32 0, i32 12
  %value87 = getelementptr inbounds %"struct.Assimp::ColladaExporter::Property", ptr %index_refraction, i32 0, i32 1
  %call89 = invoke noundef i32 @_ZNK10aiMaterial3GetEPKcjjRf(ptr noundef nonnull align 8 dereferenceable(16) %54, ptr noundef @.str.154, i32 noundef 0, i32 noundef 0, ptr noundef nonnull align 4 dereferenceable(4) %value87)
          to label %invoke.cont88 unwind label %lpad

invoke.cont88:                                    ; preds = %invoke.cont81
  %cmp90 = icmp eq i32 %call89, 0
  %56 = load ptr, ptr %material, align 8
  %index_refraction91 = getelementptr inbounds %"struct.Assimp::ColladaExporter::Material", ptr %56, i32 0, i32 12
  %exist92 = getelementptr inbounds %"struct.Assimp::ColladaExporter::Property", ptr %index_refraction91, i32 0, i32 0
  %frombool93 = zext i1 %cmp90 to i8
  store i8 %frombool93, ptr %exist92, align 8
  br label %for.inc

for.inc:                                          ; preds = %invoke.cont88
  %57 = load i64, ptr %a, align 8
  %inc94 = add i64 %57, 1
  store i64 %inc94, ptr %a, align 8
  br label %for.cond, !llvm.loop !11

for.end:                                          ; preds = %for.cond
  %58 = load i64, ptr %numTextures, align 8
  %cmp95 = icmp ugt i64 %58, 0
  br i1 %cmp95, label %if.then96, label %if.end168

if.then96:                                        ; preds = %for.end
  %mOutput = getelementptr inbounds %"class.Assimp::ColladaExporter", ptr %this1, i32 0, i32 6
  %add.ptr = getelementptr inbounds i8, ptr %mOutput, i64 16
  %startstr = getelementptr inbounds %"class.Assimp::ColladaExporter", ptr %this1, i32 0, i32 13
  %call98 = invoke noundef nonnull align 8 dereferenceable(8) ptr @_ZStlsIcSt11char_traitsIcESaIcEERSt13basic_ostreamIT_T0_ES7_RKNSt7__cxx1112basic_stringIS4_S5_T1_EE(ptr noundef nonnull align 8 dereferenceable(8) %add.ptr, ptr noundef nonnull align 8 dereferenceable(32) %startstr)
          to label %invoke.cont97 unwind label %lpad

invoke.cont97:                                    ; preds = %if.then96
  %call100 = invoke noundef nonnull align 8 dereferenceable(8) ptr @_ZStlsISt11char_traitsIcEERSt13basic_ostreamIcT_ES5_PKc(ptr noundef nonnull align 8 dereferenceable(8) %call98, ptr noundef @.str.155)
          to label %invoke.cont99 unwind label %lpad

invoke.cont99:                                    ; preds = %invoke.cont97
  %endstr = getelementptr inbounds %"class.Assimp::ColladaExporter", ptr %this1, i32 0, i32 14
  %call102 = invoke noundef nonnull align 8 dereferenceable(8) ptr @_ZStlsIcSt11char_traitsIcESaIcEERSt13basic_ostreamIT_T0_ES7_RKNSt7__cxx1112basic_stringIS4_S5_T1_EE(ptr noundef nonnull align 8 dereferenceable(8) %call100, ptr noundef nonnull align 8 dereferenceable(32) %endstr)
          to label %invoke.cont101 unwind label %lpad

invoke.cont101:                                   ; preds = %invoke.cont99
  invoke void @_ZN6Assimp15ColladaExporter7PushTagEv(ptr noundef nonnull align 8 dereferenceable(1248) %this1)
          to label %invoke.cont103 unwind label %lpad

invoke.cont103:                                   ; preds = %invoke.cont101
  store ptr %materials, ptr %__range2, align 8
  %59 = load ptr, ptr %__range2, align 8
  %call104 = call ptr @_ZNSt6vectorIN6Assimp15ColladaExporter8MaterialESaIS2_EE5beginEv(ptr noundef nonnull align 8 dereferenceable(24) %59) #6
  %coerce.dive = getelementptr inbounds %"class.__gnu_cxx::__normal_iterator.41", ptr %__begin2, i32 0, i32 0
  store ptr %call104, ptr %coerce.dive, align 8
  %60 = load ptr, ptr %__range2, align 8
  %call105 = call ptr @_ZNSt6vectorIN6Assimp15ColladaExporter8MaterialESaIS2_EE3endEv(ptr noundef nonnull align 8 dereferenceable(24) %60) #6
  %coerce.dive106 = getelementptr inbounds %"class.__gnu_cxx::__normal_iterator.41", ptr %__end2, i32 0, i32 0
  store ptr %call105, ptr %coerce.dive106, align 8
  br label %for.cond107

for.cond107:                                      ; preds = %for.inc154, %invoke.cont103
  %call108 = call noundef zeroext i1 @_ZN9__gnu_cxxneIPN6Assimp15ColladaExporter8MaterialESt6vectorIS3_SaIS3_EEEEbRKNS_17__normal_iteratorIT_T0_EESD_(ptr noundef nonnull align 8 dereferenceable(8) %__begin2, ptr noundef nonnull align 8 dereferenceable(8) %__end2) #6
  br i1 %call108, label %for.body109, label %for.end156

for.body109:                                      ; preds = %for.cond107
  %call111 = call noundef nonnull align 8 dereferenceable(568) ptr @_ZNK9__gnu_cxx17__normal_iteratorIPN6Assimp15ColladaExporter8MaterialESt6vectorIS3_SaIS3_EEEdeEv(ptr noundef nonnull align 8 dereferenceable(8) %__begin2) #6
  store ptr %call111, ptr %mat110, align 8
  %61 = load ptr, ptr %mat110, align 8
  %ambient112 = getelementptr inbounds %"struct.Assimp::ColladaExporter::Material", ptr %61, i32 0, i32 3
  %62 = load ptr, ptr %mat110, align 8
  %id114 = getelementptr inbounds %"struct.Assimp::ColladaExporter::Material", ptr %62, i32 0, i32 0
  invoke void @_ZStplIcSt11char_traitsIcESaIcEENSt7__cxx1112basic_stringIT_T0_T1_EERKS8_PKS5_(ptr sret(%"class.std::__cxx11::basic_string") align 8 %ref.tmp113, ptr noundef nonnull align 8 dereferenceable(32) %id114, ptr noundef @.str.156)
          to label %invoke.cont115 unwind label %lpad

invoke.cont115:                                   ; preds = %for.body109
  invoke void @_ZN6Assimp15ColladaExporter15WriteImageEntryERKNS0_7SurfaceERKNSt7__cxx1112basic_stringIcSt11char_traitsIcESaIcEEE(ptr noundef nonnull align 8 dereferenceable(1248) %this1, ptr noundef nonnull align 8 dereferenceable(64) %ambient112, ptr noundef nonnull align 8 dereferenceable(32) %ref.tmp113)
          to label %invoke.cont117 unwind label %lpad116

invoke.cont117:                                   ; preds = %invoke.cont115
  call void @_ZNSt7__cxx1112basic_stringIcSt11char_traitsIcESaIcEED1Ev(ptr noundef nonnull align 8 dereferenceable(32) %ref.tmp113) #6
  %63 = load ptr, ptr %mat110, align 8
  %diffuse118 = getelementptr inbounds %"struct.Assimp::ColladaExporter::Material", ptr %63, i32 0, i32 4
  %64 = load ptr, ptr %mat110, align 8
  %id120 = getelementptr inbounds %"struct.Assimp::ColladaExporter::Material", ptr %64, i32 0, i32 0
  invoke void @_ZStplIcSt11char_traitsIcESaIcEENSt7__cxx1112basic_stringIT_T0_T1_EERKS8_PKS5_(ptr sret(%"class.std::__cxx11::basic_string") align 8 %ref.tmp119, ptr noundef nonnull align 8 dereferenceable(32) %id120, ptr noundef @.str.157)
          to label %invoke.cont121 unwind label %lpad

invoke.cont121:                                   ; preds = %invoke.cont117
  invoke void @_ZN6Assimp15ColladaExporter15WriteImageEntryERKNS0_7SurfaceERKNSt7__cxx1112basic_stringIcSt11char_traitsIcESaIcEEE(ptr noundef nonnull align 8 dereferenceable(1248) %this1, ptr noundef nonnull align 8 dereferenceable(64) %diffuse118, ptr noundef nonnull align 8 dereferenceable(32) %ref.tmp119)
          to label %invoke.cont123 unwind label %lpad122

invoke.cont123:                                   ; preds = %invoke.cont121
  call void @_ZNSt7__cxx1112basic_stringIcSt11char_traitsIcESaIcEED1Ev(ptr noundef nonnull align 8 dereferenceable(32) %ref.tmp119) #6
  %65 = load ptr, ptr %mat110, align 8
  %specular124 = getelementptr inbounds %"struct.Assimp::ColladaExporter::Material", ptr %65, i32 0, i32 5
  %66 = load ptr, ptr %mat110, align 8
  %id126 = getelementptr inbounds %"struct.Assimp::ColladaExporter::Material", ptr %66, i32 0, i32 0
  invoke void @_ZStplIcSt11char_traitsIcESaIcEENSt7__cxx1112basic_stringIT_T0_T1_EERKS8_PKS5_(ptr sret(%"class.std::__cxx11::basic_string") align 8 %ref.tmp125, ptr noundef nonnull align 8 dereferenceable(32) %id126, ptr noundef @.str.158)
          to label %invoke.cont127 unwind label %lpad

invoke.cont127:                                   ; preds = %invoke.cont123
  invoke void @_ZN6Assimp15ColladaExporter15WriteImageEntryERKNS0_7SurfaceERKNSt7__cxx1112basic_stringIcSt11char_traitsIcESaIcEEE(ptr noundef nonnull align 8 dereferenceable(1248) %this1, ptr noundef nonnull align 8 dereferenceable(64) %specular124, ptr noundef nonnull align 8 dereferenceable(32) %ref.tmp125)
          to label %invoke.cont129 unwind label %lpad128

invoke.cont129:                                   ; preds = %invoke.cont127
  call void @_ZNSt7__cxx1112basic_stringIcSt11char_traitsIcESaIcEED1Ev(ptr noundef nonnull align 8 dereferenceable(32) %ref.tmp125) #6
  %67 = load ptr, ptr %mat110, align 8
  %emissive130 = getelementptr inbounds %"struct.Assimp::ColladaExporter::Material", ptr %67, i32 0, i32 6
  %68 = load ptr, ptr %mat110, align 8
  %id132 = getelementptr inbounds %"struct.Assimp::ColladaExporter::Material", ptr %68, i32 0, i32 0
  invoke void @_ZStplIcSt11char_traitsIcESaIcEENSt7__cxx1112basic_stringIT_T0_T1_EERKS8_PKS5_(ptr sret(%"class.std::__cxx11::basic_string") align 8 %ref.tmp131, ptr noundef nonnull align 8 dereferenceable(32) %id132, ptr noundef @.str.159)
          to label %invoke.cont133 unwind label %lpad

invoke.cont133:                                   ; preds = %invoke.cont129
  invoke void @_ZN6Assimp15ColladaExporter15WriteImageEntryERKNS0_7SurfaceERKNSt7__cxx1112basic_stringIcSt11char_traitsIcESaIcEEE(ptr noundef nonnull align 8 dereferenceable(1248) %this1, ptr noundef nonnull align 8 dereferenceable(64) %emissive130, ptr noundef nonnull align 8 dereferenceable(32) %ref.tmp131)
          to label %invoke.cont135 unwind label %lpad134

invoke.cont135:                                   ; preds = %invoke.cont133
  call void @_ZNSt7__cxx1112basic_stringIcSt11char_traitsIcESaIcEED1Ev(ptr noundef nonnull align 8 dereferenceable(32) %ref.tmp131) #6
  %69 = load ptr, ptr %mat110, align 8
  %reflective136 = getelementptr inbounds %"struct.Assimp::ColladaExporter::Material", ptr %69, i32 0, i32 7
  %70 = load ptr, ptr %mat110, align 8
  %id138 = getelementptr inbounds %"struct.Assimp::ColladaExporter::Material", ptr %70, i32 0, i32 0
  invoke void @_ZStplIcSt11char_traitsIcESaIcEENSt7__cxx1112basic_stringIT_T0_T1_EERKS8_PKS5_(ptr sret(%"class.std::__cxx11::basic_string") align 8 %ref.tmp137, ptr noundef nonnull align 8 dereferenceable(32) %id138, ptr noundef @.str.160)
          to label %invoke.cont139 unwind label %lpad

invoke.cont139:                                   ; preds = %invoke.cont135
  invoke void @_ZN6Assimp15ColladaExporter15WriteImageEntryERKNS0_7SurfaceERKNSt7__cxx1112basic_stringIcSt11char_traitsIcESaIcEEE(ptr noundef nonnull align 8 dereferenceable(1248) %this1, ptr noundef nonnull align 8 dereferenceable(64) %reflective136, ptr noundef nonnull align 8 dereferenceable(32) %ref.tmp137)
          to label %invoke.cont141 unwind label %lpad140

invoke.cont141:                                   ; preds = %invoke.cont139
  call void @_ZNSt7__cxx1112basic_stringIcSt11char_traitsIcESaIcEED1Ev(ptr noundef nonnull align 8 dereferenceable(32) %ref.tmp137) #6
  %71 = load ptr, ptr %mat110, align 8
  %transparent142 = getelementptr inbounds %"struct.Assimp::ColladaExporter::Material", ptr %71, i32 0, i32 8
  %72 = load ptr, ptr %mat110, align 8
  %id144 = getelementptr inbounds %"struct.Assimp::ColladaExporter::Material", ptr %72, i32 0, i32 0
  invoke void @_ZStplIcSt11char_traitsIcESaIcEENSt7__cxx1112basic_stringIT_T0_T1_EERKS8_PKS5_(ptr sret(%"class.std::__cxx11::basic_string") align 8 %ref.tmp143, ptr noundef nonnull align 8 dereferenceable(32) %id144, ptr noundef @.str.161)
          to label %invoke.cont145 unwind label %lpad

invoke.cont145:                                   ; preds = %invoke.cont141
  invoke void @_ZN6Assimp15ColladaExporter15WriteImageEntryERKNS0_7SurfaceERKNSt7__cxx1112basic_stringIcSt11char_traitsIcESaIcEEE(ptr noundef nonnull align 8 dereferenceable(1248) %this1, ptr noundef nonnull align 8 dereferenceable(64) %transparent142, ptr noundef nonnull align 8 dereferenceable(32) %ref.tmp143)
          to label %invoke.cont147 unwind label %lpad146

invoke.cont147:                                   ; preds = %invoke.cont145
  call void @_ZNSt7__cxx1112basic_stringIcSt11char_traitsIcESaIcEED1Ev(ptr noundef nonnull align 8 dereferenceable(32) %ref.tmp143) #6
  %73 = load ptr, ptr %mat110, align 8
  %normal148 = getelementptr inbounds %"struct.Assimp::ColladaExporter::Material", ptr %73, i32 0, i32 9
  %74 = load ptr, ptr %mat110, align 8
  %id150 = getelementptr inbounds %"struct.Assimp::ColladaExporter::Material", ptr %74, i32 0, i32 0
  invoke void @_ZStplIcSt11char_traitsIcESaIcEENSt7__cxx1112basic_stringIT_T0_T1_EERKS8_PKS5_(ptr sret(%"class.std::__cxx11::basic_string") align 8 %ref.tmp149, ptr noundef nonnull align 8 dereferenceable(32) %id150, ptr noundef @.str.162)
          to label %invoke.cont151 unwind label %lpad

invoke.cont151:                                   ; preds = %invoke.cont147
  invoke void @_ZN6Assimp15ColladaExporter15WriteImageEntryERKNS0_7SurfaceERKNSt7__cxx1112basic_stringIcSt11char_traitsIcESaIcEEE(ptr noundef nonnull align 8 dereferenceable(1248) %this1, ptr noundef nonnull align 8 dereferenceable(64) %normal148, ptr noundef nonnull align 8 dereferenceable(32) %ref.tmp149)
          to label %invoke.cont153 unwind label %lpad152

invoke.cont153:                                   ; preds = %invoke.cont151
  call void @_ZNSt7__cxx1112basic_stringIcSt11char_traitsIcESaIcEED1Ev(ptr noundef nonnull align 8 dereferenceable(32) %ref.tmp149) #6
  br label %for.inc154

for.inc154:                                       ; preds = %invoke.cont153
  %call155 = call noundef nonnull align 8 dereferenceable(8) ptr @_ZN9__gnu_cxx17__normal_iteratorIPN6Assimp15ColladaExporter8MaterialESt6vectorIS3_SaIS3_EEEppEv(ptr noundef nonnull align 8 dereferenceable(8) %__begin2) #6
  br label %for.cond107

lpad116:                                          ; preds = %invoke.cont115
  %75 = landingpad { ptr, i32 }
          cleanup
  %76 = extractvalue { ptr, i32 } %75, 0
  store ptr %76, ptr %exn.slot, align 8
  %77 = extractvalue { ptr, i32 } %75, 1
  store i32 %77, ptr %ehselector.slot, align 4
  call void @_ZNSt7__cxx1112basic_stringIcSt11char_traitsIcESaIcEED1Ev(ptr noundef nonnull align 8 dereferenceable(32) %ref.tmp113) #6
  br label %ehcleanup597

lpad122:                                          ; preds = %invoke.cont121
  %78 = landingpad { ptr, i32 }
          cleanup
  %79 = extractvalue { ptr, i32 } %78, 0
  store ptr %79, ptr %exn.slot, align 8
  %80 = extractvalue { ptr, i32 } %78, 1
  store i32 %80, ptr %ehselector.slot, align 4
  call void @_ZNSt7__cxx1112basic_stringIcSt11char_traitsIcESaIcEED1Ev(ptr noundef nonnull align 8 dereferenceable(32) %ref.tmp119) #6
  br label %ehcleanup597

lpad128:                                          ; preds = %invoke.cont127
  %81 = landingpad { ptr, i32 }
          cleanup
  %82 = extractvalue { ptr, i32 } %81, 0
  store ptr %82, ptr %exn.slot, align 8
  %83 = extractvalue { ptr, i32 } %81, 1
  store i32 %83, ptr %ehselector.slot, align 4
  call void @_ZNSt7__cxx1112basic_stringIcSt11char_traitsIcESaIcEED1Ev(ptr noundef nonnull align 8 dereferenceable(32) %ref.tmp125) #6
  br label %ehcleanup597

lpad134:                                          ; preds = %invoke.cont133
  %84 = landingpad { ptr, i32 }
          cleanup
  %85 = extractvalue { ptr, i32 } %84, 0
  store ptr %85, ptr %exn.slot, align 8
  %86 = extractvalue { ptr, i32 } %84, 1
  store i32 %86, ptr %ehselector.slot, align 4
  call void @_ZNSt7__cxx1112basic_stringIcSt11char_traitsIcESaIcEED1Ev(ptr noundef nonnull align 8 dereferenceable(32) %ref.tmp131) #6
  br label %ehcleanup597

lpad140:                                          ; preds = %invoke.cont139
  %87 = landingpad { ptr, i32 }
          cleanup
  %88 = extractvalue { ptr, i32 } %87, 0
  store ptr %88, ptr %exn.slot, align 8
  %89 = extractvalue { ptr, i32 } %87, 1
  store i32 %89, ptr %ehselector.slot, align 4
  call void @_ZNSt7__cxx1112basic_stringIcSt11char_traitsIcESaIcEED1Ev(ptr noundef nonnull align 8 dereferenceable(32) %ref.tmp137) #6
  br label %ehcleanup597

lpad146:                                          ; preds = %invoke.cont145
  %90 = landingpad { ptr, i32 }
          cleanup
  %91 = extractvalue { ptr, i32 } %90, 0
  store ptr %91, ptr %exn.slot, align 8
  %92 = extractvalue { ptr, i32 } %90, 1
  store i32 %92, ptr %ehselector.slot, align 4
  call void @_ZNSt7__cxx1112basic_stringIcSt11char_traitsIcESaIcEED1Ev(ptr noundef nonnull align 8 dereferenceable(32) %ref.tmp143) #6
  br label %ehcleanup597

lpad152:                                          ; preds = %invoke.cont151
  %93 = landingpad { ptr, i32 }
          cleanup
  %94 = extractvalue { ptr, i32 } %93, 0
  store ptr %94, ptr %exn.slot, align 8
  %95 = extractvalue { ptr, i32 } %93, 1
  store i32 %95, ptr %ehselector.slot, align 4
  call void @_ZNSt7__cxx1112basic_stringIcSt11char_traitsIcESaIcEED1Ev(ptr noundef nonnull align 8 dereferenceable(32) %ref.tmp149) #6
  br label %ehcleanup597

for.end156:                                       ; preds = %for.cond107
  invoke void @_ZN6Assimp15ColladaExporter6PopTagEv(ptr noundef nonnull align 8 dereferenceable(1248) %this1)
          to label %invoke.cont157 unwind label %lpad

invoke.cont157:                                   ; preds = %for.end156
  %mOutput158 = getelementptr inbounds %"class.Assimp::ColladaExporter", ptr %this1, i32 0, i32 6
  %add.ptr159 = getelementptr inbounds i8, ptr %mOutput158, i64 16
  %startstr160 = getelementptr inbounds %"class.Assimp::ColladaExporter", ptr %this1, i32 0, i32 13
  %call162 = invoke noundef nonnull align 8 dereferenceable(8) ptr @_ZStlsIcSt11char_traitsIcESaIcEERSt13basic_ostreamIT_T0_ES7_RKNSt7__cxx1112basic_stringIS4_S5_T1_EE(ptr noundef nonnull align 8 dereferenceable(8) %add.ptr159, ptr noundef nonnull align 8 dereferenceable(32) %startstr160)
          to label %invoke.cont161 unwind label %lpad

invoke.cont161:                                   ; preds = %invoke.cont157
  %call164 = invoke noundef nonnull align 8 dereferenceable(8) ptr @_ZStlsISt11char_traitsIcEERSt13basic_ostreamIcT_ES5_PKc(ptr noundef nonnull align 8 dereferenceable(8) %call162, ptr noundef @.str.163)
          to label %invoke.cont163 unwind label %lpad

invoke.cont163:                                   ; preds = %invoke.cont161
  %endstr165 = getelementptr inbounds %"class.Assimp::ColladaExporter", ptr %this1, i32 0, i32 14
  %call167 = invoke noundef nonnull align 8 dereferenceable(8) ptr @_ZStlsIcSt11char_traitsIcESaIcEERSt13basic_ostreamIT_T0_ES7_RKNSt7__cxx1112basic_stringIS4_S5_T1_EE(ptr noundef nonnull align 8 dereferenceable(8) %call164, ptr noundef nonnull align 8 dereferenceable(32) %endstr165)
          to label %invoke.cont166 unwind label %lpad

invoke.cont166:                                   ; preds = %invoke.cont163
  br label %if.end168

if.end168:                                        ; preds = %invoke.cont166, %for.end
  %call169 = call noundef zeroext i1 @_ZNKSt6vectorIN6Assimp15ColladaExporter8MaterialESaIS2_EE5emptyEv(ptr noundef nonnull align 8 dereferenceable(24) %materials) #6
  br i1 %call169, label %if.end596, label %if.then170

if.then170:                                       ; preds = %if.end168
  %mOutput171 = getelementptr inbounds %"class.Assimp::ColladaExporter", ptr %this1, i32 0, i32 6
  %add.ptr172 = getelementptr inbounds i8, ptr %mOutput171, i64 16
  %startstr173 = getelementptr inbounds %"class.Assimp::ColladaExporter", ptr %this1, i32 0, i32 13
  %call175 = invoke noundef nonnull align 8 dereferenceable(8) ptr @_ZStlsIcSt11char_traitsIcESaIcEERSt13basic_ostreamIT_T0_ES7_RKNSt7__cxx1112basic_stringIS4_S5_T1_EE(ptr noundef nonnull align 8 dereferenceable(8) %add.ptr172, ptr noundef nonnull align 8 dereferenceable(32) %startstr173)
          to label %invoke.cont174 unwind label %lpad

invoke.cont174:                                   ; preds = %if.then170
  %call177 = invoke noundef nonnull align 8 dereferenceable(8) ptr @_ZStlsISt11char_traitsIcEERSt13basic_ostreamIcT_ES5_PKc(ptr noundef nonnull align 8 dereferenceable(8) %call175, ptr noundef @.str.164)
          to label %invoke.cont176 unwind label %lpad

invoke.cont176:                                   ; preds = %invoke.cont174
  %endstr178 = getelementptr inbounds %"class.Assimp::ColladaExporter", ptr %this1, i32 0, i32 14
  %call180 = invoke noundef nonnull align 8 dereferenceable(8) ptr @_ZStlsIcSt11char_traitsIcESaIcEERSt13basic_ostreamIT_T0_ES7_RKNSt7__cxx1112basic_stringIS4_S5_T1_EE(ptr noundef nonnull align 8 dereferenceable(8) %call177, ptr noundef nonnull align 8 dereferenceable(32) %endstr178)
          to label %invoke.cont179 unwind label %lpad

invoke.cont179:                                   ; preds = %invoke.cont176
  invoke void @_ZN6Assimp15ColladaExporter7PushTagEv(ptr noundef nonnull align 8 dereferenceable(1248) %this1)
          to label %invoke.cont181 unwind label %lpad

invoke.cont181:                                   ; preds = %invoke.cont179
  store ptr %materials, ptr %__range2182, align 8
  %96 = load ptr, ptr %__range2182, align 8
  %call184 = call ptr @_ZNSt6vectorIN6Assimp15ColladaExporter8MaterialESaIS2_EE5beginEv(ptr noundef nonnull align 8 dereferenceable(24) %96) #6
  %coerce.dive185 = getelementptr inbounds %"class.__gnu_cxx::__normal_iterator.41", ptr %__begin2183, i32 0, i32 0
  store ptr %call184, ptr %coerce.dive185, align 8
  %97 = load ptr, ptr %__range2182, align 8
  %call187 = call ptr @_ZNSt6vectorIN6Assimp15ColladaExporter8MaterialESaIS2_EE3endEv(ptr noundef nonnull align 8 dereferenceable(24) %97) #6
  %coerce.dive188 = getelementptr inbounds %"class.__gnu_cxx::__normal_iterator.41", ptr %__end2186, i32 0, i32 0
  store ptr %call187, ptr %coerce.dive188, align 8
  br label %for.cond189

for.cond189:                                      ; preds = %for.inc499, %invoke.cont181
  %call190 = call noundef zeroext i1 @_ZN9__gnu_cxxneIPN6Assimp15ColladaExporter8MaterialESt6vectorIS3_SaIS3_EEEEbRKNS_17__normal_iteratorIT_T0_EESD_(ptr noundef nonnull align 8 dereferenceable(8) %__begin2183, ptr noundef nonnull align 8 dereferenceable(8) %__end2186) #6
  br i1 %call190, label %for.body191, label %for.end501

for.body191:                                      ; preds = %for.cond189
  %call193 = call noundef nonnull align 8 dereferenceable(568) ptr @_ZNK9__gnu_cxx17__normal_iteratorIPN6Assimp15ColladaExporter8MaterialESt6vectorIS3_SaIS3_EEEdeEv(ptr noundef nonnull align 8 dereferenceable(8) %__begin2183) #6
  store ptr %call193, ptr %mat192, align 8
  %mOutput194 = getelementptr inbounds %"class.Assimp::ColladaExporter", ptr %this1, i32 0, i32 6
  %add.ptr195 = getelementptr inbounds i8, ptr %mOutput194, i64 16
  %startstr196 = getelementptr inbounds %"class.Assimp::ColladaExporter", ptr %this1, i32 0, i32 13
  %call198 = invoke noundef nonnull align 8 dereferenceable(8) ptr @_ZStlsIcSt11char_traitsIcESaIcEERSt13basic_ostreamIT_T0_ES7_RKNSt7__cxx1112basic_stringIS4_S5_T1_EE(ptr noundef nonnull align 8 dereferenceable(8) %add.ptr195, ptr noundef nonnull align 8 dereferenceable(32) %startstr196)
          to label %invoke.cont197 unwind label %lpad

invoke.cont197:                                   ; preds = %for.body191
  %call200 = invoke noundef nonnull align 8 dereferenceable(8) ptr @_ZStlsISt11char_traitsIcEERSt13basic_ostreamIcT_ES5_PKc(ptr noundef nonnull align 8 dereferenceable(8) %call198, ptr noundef @.str.165)
          to label %invoke.cont199 unwind label %lpad

invoke.cont199:                                   ; preds = %invoke.cont197
  %98 = load ptr, ptr %mat192, align 8
  %id201 = getelementptr inbounds %"struct.Assimp::ColladaExporter::Material", ptr %98, i32 0, i32 0
  %call203 = invoke noundef nonnull align 8 dereferenceable(8) ptr @_ZStlsIcSt11char_traitsIcESaIcEERSt13basic_ostreamIT_T0_ES7_RKNSt7__cxx1112basic_stringIS4_S5_T1_EE(ptr noundef nonnull align 8 dereferenceable(8) %call200, ptr noundef nonnull align 8 dereferenceable(32) %id201)
          to label %invoke.cont202 unwind label %lpad

invoke.cont202:                                   ; preds = %invoke.cont199
  %call205 = invoke noundef nonnull align 8 dereferenceable(8) ptr @_ZStlsISt11char_traitsIcEERSt13basic_ostreamIcT_ES5_PKc(ptr noundef nonnull align 8 dereferenceable(8) %call203, ptr noundef @.str.166)
          to label %invoke.cont204 unwind label %lpad

invoke.cont204:                                   ; preds = %invoke.cont202
  %99 = load ptr, ptr %mat192, align 8
  %name206 = getelementptr inbounds %"struct.Assimp::ColladaExporter::Material", ptr %99, i32 0, i32 1
  %call208 = invoke noundef nonnull align 8 dereferenceable(8) ptr @_ZStlsIcSt11char_traitsIcESaIcEERSt13basic_ostreamIT_T0_ES7_RKNSt7__cxx1112basic_stringIS4_S5_T1_EE(ptr noundef nonnull align 8 dereferenceable(8) %call205, ptr noundef nonnull align 8 dereferenceable(32) %name206)
          to label %invoke.cont207 unwind label %lpad

invoke.cont207:                                   ; preds = %invoke.cont204
  %call210 = invoke noundef nonnull align 8 dereferenceable(8) ptr @_ZStlsISt11char_traitsIcEERSt13basic_ostreamIcT_ES5_PKc(ptr noundef nonnull align 8 dereferenceable(8) %call208, ptr noundef @.str.116)
          to label %invoke.cont209 unwind label %lpad

invoke.cont209:                                   ; preds = %invoke.cont207
  %endstr211 = getelementptr inbounds %"class.Assimp::ColladaExporter", ptr %this1, i32 0, i32 14
  %call213 = invoke noundef nonnull align 8 dereferenceable(8) ptr @_ZStlsIcSt11char_traitsIcESaIcEERSt13basic_ostreamIT_T0_ES7_RKNSt7__cxx1112basic_stringIS4_S5_T1_EE(ptr noundef nonnull align 8 dereferenceable(8) %call210, ptr noundef nonnull align 8 dereferenceable(32) %endstr211)
          to label %invoke.cont212 unwind label %lpad

invoke.cont212:                                   ; preds = %invoke.cont209
  invoke void @_ZN6Assimp15ColladaExporter7PushTagEv(ptr noundef nonnull align 8 dereferenceable(1248) %this1)
          to label %invoke.cont214 unwind label %lpad

invoke.cont214:                                   ; preds = %invoke.cont212
  %mOutput215 = getelementptr inbounds %"class.Assimp::ColladaExporter", ptr %this1, i32 0, i32 6
  %add.ptr216 = getelementptr inbounds i8, ptr %mOutput215, i64 16
  %startstr217 = getelementptr inbounds %"class.Assimp::ColladaExporter", ptr %this1, i32 0, i32 13
  %call219 = invoke noundef nonnull align 8 dereferenceable(8) ptr @_ZStlsIcSt11char_traitsIcESaIcEERSt13basic_ostreamIT_T0_ES7_RKNSt7__cxx1112basic_stringIS4_S5_T1_EE(ptr noundef nonnull align 8 dereferenceable(8) %add.ptr216, ptr noundef nonnull align 8 dereferenceable(32) %startstr217)
          to label %invoke.cont218 unwind label %lpad

invoke.cont218:                                   ; preds = %invoke.cont214
  %call221 = invoke noundef nonnull align 8 dereferenceable(8) ptr @_ZStlsISt11char_traitsIcEERSt13basic_ostreamIcT_ES5_PKc(ptr noundef nonnull align 8 dereferenceable(8) %call219, ptr noundef @.str.167)
          to label %invoke.cont220 unwind label %lpad

invoke.cont220:                                   ; preds = %invoke.cont218
  %endstr222 = getelementptr inbounds %"class.Assimp::ColladaExporter", ptr %this1, i32 0, i32 14
  %call224 = invoke noundef nonnull align 8 dereferenceable(8) ptr @_ZStlsIcSt11char_traitsIcESaIcEERSt13basic_ostreamIT_T0_ES7_RKNSt7__cxx1112basic_stringIS4_S5_T1_EE(ptr noundef nonnull align 8 dereferenceable(8) %call221, ptr noundef nonnull align 8 dereferenceable(32) %endstr222)
          to label %invoke.cont223 unwind label %lpad

invoke.cont223:                                   ; preds = %invoke.cont220
  invoke void @_ZN6Assimp15ColladaExporter7PushTagEv(ptr noundef nonnull align 8 dereferenceable(1248) %this1)
          to label %invoke.cont225 unwind label %lpad

invoke.cont225:                                   ; preds = %invoke.cont223
  %100 = load ptr, ptr %mat192, align 8
  %emissive226 = getelementptr inbounds %"struct.Assimp::ColladaExporter::Material", ptr %100, i32 0, i32 6
  call void @_ZNSaIcEC1Ev(ptr noundef nonnull align 1 dereferenceable(1) %ref.tmp228) #6
  invoke void @_ZNSt7__cxx1112basic_stringIcSt11char_traitsIcESaIcEEC2IS3_EEPKcRKS3_(ptr noundef nonnull align 8 dereferenceable(32) %ref.tmp227, ptr noundef @.str.168, ptr noundef nonnull align 1 dereferenceable(1) %ref.tmp228)
          to label %invoke.cont230 unwind label %lpad229

invoke.cont230:                                   ; preds = %invoke.cont225
  %101 = load ptr, ptr %mat192, align 8
  %id231 = getelementptr inbounds %"struct.Assimp::ColladaExporter::Material", ptr %101, i32 0, i32 0
  invoke void @_ZN6Assimp15ColladaExporter22WriteTextureParamEntryERKNS0_7SurfaceERKNSt7__cxx1112basic_stringIcSt11char_traitsIcESaIcEEESB_(ptr noundef nonnull align 8 dereferenceable(1248) %this1, ptr noundef nonnull align 8 dereferenceable(64) %emissive226, ptr noundef nonnull align 8 dereferenceable(32) %ref.tmp227, ptr noundef nonnull align 8 dereferenceable(32) %id231)
          to label %invoke.cont233 unwind label %lpad232

invoke.cont233:                                   ; preds = %invoke.cont230
  call void @_ZNSt7__cxx1112basic_stringIcSt11char_traitsIcESaIcEED1Ev(ptr noundef nonnull align 8 dereferenceable(32) %ref.tmp227) #6
  call void @_ZNSaIcED1Ev(ptr noundef nonnull align 1 dereferenceable(1) %ref.tmp228) #6
  %102 = load ptr, ptr %mat192, align 8
  %ambient234 = getelementptr inbounds %"struct.Assimp::ColladaExporter::Material", ptr %102, i32 0, i32 3
  call void @_ZNSaIcEC1Ev(ptr noundef nonnull align 1 dereferenceable(1) %ref.tmp236) #6
  invoke void @_ZNSt7__cxx1112basic_stringIcSt11char_traitsIcESaIcEEC2IS3_EEPKcRKS3_(ptr noundef nonnull align 8 dereferenceable(32) %ref.tmp235, ptr noundef @.str.169, ptr noundef nonnull align 1 dereferenceable(1) %ref.tmp236)
          to label %invoke.cont238 unwind label %lpad237

invoke.cont238:                                   ; preds = %invoke.cont233
  %103 = load ptr, ptr %mat192, align 8
  %id239 = getelementptr inbounds %"struct.Assimp::ColladaExporter::Material", ptr %103, i32 0, i32 0
  invoke void @_ZN6Assimp15ColladaExporter22WriteTextureParamEntryERKNS0_7SurfaceERKNSt7__cxx1112basic_stringIcSt11char_traitsIcESaIcEEESB_(ptr noundef nonnull align 8 dereferenceable(1248) %this1, ptr noundef nonnull align 8 dereferenceable(64) %ambient234, ptr noundef nonnull align 8 dereferenceable(32) %ref.tmp235, ptr noundef nonnull align 8 dereferenceable(32) %id239)
          to label %invoke.cont241 unwind label %lpad240

invoke.cont241:                                   ; preds = %invoke.cont238
  call void @_ZNSt7__cxx1112basic_stringIcSt11char_traitsIcESaIcEED1Ev(ptr noundef nonnull align 8 dereferenceable(32) %ref.tmp235) #6
  call void @_ZNSaIcED1Ev(ptr noundef nonnull align 1 dereferenceable(1) %ref.tmp236) #6
  %104 = load ptr, ptr %mat192, align 8
  %diffuse244 = getelementptr inbounds %"struct.Assimp::ColladaExporter::Material", ptr %104, i32 0, i32 4
  call void @_ZNSaIcEC1Ev(ptr noundef nonnull align 1 dereferenceable(1) %ref.tmp246) #6
  invoke void @_ZNSt7__cxx1112basic_stringIcSt11char_traitsIcESaIcEEC2IS3_EEPKcRKS3_(ptr noundef nonnull align 8 dereferenceable(32) %ref.tmp245, ptr noundef @.str.170, ptr noundef nonnull align 1 dereferenceable(1) %ref.tmp246)
          to label %invoke.cont248 unwind label %lpad247

invoke.cont248:                                   ; preds = %invoke.cont241
  %105 = load ptr, ptr %mat192, align 8
  %id249 = getelementptr inbounds %"struct.Assimp::ColladaExporter::Material", ptr %105, i32 0, i32 0
  invoke void @_ZN6Assimp15ColladaExporter22WriteTextureParamEntryERKNS0_7SurfaceERKNSt7__cxx1112basic_stringIcSt11char_traitsIcESaIcEEESB_(ptr noundef nonnull align 8 dereferenceable(1248) %this1, ptr noundef nonnull align 8 dereferenceable(64) %diffuse244, ptr noundef nonnull align 8 dereferenceable(32) %ref.tmp245, ptr noundef nonnull align 8 dereferenceable(32) %id249)
          to label %invoke.cont251 unwind label %lpad250

invoke.cont251:                                   ; preds = %invoke.cont248
  call void @_ZNSt7__cxx1112basic_stringIcSt11char_traitsIcESaIcEED1Ev(ptr noundef nonnull align 8 dereferenceable(32) %ref.tmp245) #6
  call void @_ZNSaIcED1Ev(ptr noundef nonnull align 1 dereferenceable(1) %ref.tmp246) #6
  %106 = load ptr, ptr %mat192, align 8
  %specular254 = getelementptr inbounds %"struct.Assimp::ColladaExporter::Material", ptr %106, i32 0, i32 5
  call void @_ZNSaIcEC1Ev(ptr noundef nonnull align 1 dereferenceable(1) %ref.tmp256) #6
  invoke void @_ZNSt7__cxx1112basic_stringIcSt11char_traitsIcESaIcEEC2IS3_EEPKcRKS3_(ptr noundef nonnull align 8 dereferenceable(32) %ref.tmp255, ptr noundef @.str.171, ptr noundef nonnull align 1 dereferenceable(1) %ref.tmp256)
          to label %invoke.cont258 unwind label %lpad257

invoke.cont258:                                   ; preds = %invoke.cont251
  %107 = load ptr, ptr %mat192, align 8
  %id259 = getelementptr inbounds %"struct.Assimp::ColladaExporter::Material", ptr %107, i32 0, i32 0
  invoke void @_ZN6Assimp15ColladaExporter22WriteTextureParamEntryERKNS0_7SurfaceERKNSt7__cxx1112basic_stringIcSt11char_traitsIcESaIcEEESB_(ptr noundef nonnull align 8 dereferenceable(1248) %this1, ptr noundef nonnull align 8 dereferenceable(64) %specular254, ptr noundef nonnull align 8 dereferenceable(32) %ref.tmp255, ptr noundef nonnull align 8 dereferenceable(32) %id259)
          to label %invoke.cont261 unwind label %lpad260

invoke.cont261:                                   ; preds = %invoke.cont258
  call void @_ZNSt7__cxx1112basic_stringIcSt11char_traitsIcESaIcEED1Ev(ptr noundef nonnull align 8 dereferenceable(32) %ref.tmp255) #6
  call void @_ZNSaIcED1Ev(ptr noundef nonnull align 1 dereferenceable(1) %ref.tmp256) #6
  %108 = load ptr, ptr %mat192, align 8
  %reflective264 = getelementptr inbounds %"struct.Assimp::ColladaExporter::Material", ptr %108, i32 0, i32 7
  call void @_ZNSaIcEC1Ev(ptr noundef nonnull align 1 dereferenceable(1) %ref.tmp266) #6
  invoke void @_ZNSt7__cxx1112basic_stringIcSt11char_traitsIcESaIcEEC2IS3_EEPKcRKS3_(ptr noundef nonnull align 8 dereferenceable(32) %ref.tmp265, ptr noundef @.str.172, ptr noundef nonnull align 1 dereferenceable(1) %ref.tmp266)
          to label %invoke.cont268 unwind label %lpad267

invoke.cont268:                                   ; preds = %invoke.cont261
  %109 = load ptr, ptr %mat192, align 8
  %id269 = getelementptr inbounds %"struct.Assimp::ColladaExporter::Material", ptr %109, i32 0, i32 0
  invoke void @_ZN6Assimp15ColladaExporter22WriteTextureParamEntryERKNS0_7SurfaceERKNSt7__cxx1112basic_stringIcSt11char_traitsIcESaIcEEESB_(ptr noundef nonnull align 8 dereferenceable(1248) %this1, ptr noundef nonnull align 8 dereferenceable(64) %reflective264, ptr noundef nonnull align 8 dereferenceable(32) %ref.tmp265, ptr noundef nonnull align 8 dereferenceable(32) %id269)
          to label %invoke.cont271 unwind label %lpad270

invoke.cont271:                                   ; preds = %invoke.cont268
  call void @_ZNSt7__cxx1112basic_stringIcSt11char_traitsIcESaIcEED1Ev(ptr noundef nonnull align 8 dereferenceable(32) %ref.tmp265) #6
  call void @_ZNSaIcED1Ev(ptr noundef nonnull align 1 dereferenceable(1) %ref.tmp266) #6
  %110 = load ptr, ptr %mat192, align 8
  %transparent274 = getelementptr inbounds %"struct.Assimp::ColladaExporter::Material", ptr %110, i32 0, i32 8
  call void @_ZNSaIcEC1Ev(ptr noundef nonnull align 1 dereferenceable(1) %ref.tmp276) #6
  invoke void @_ZNSt7__cxx1112basic_stringIcSt11char_traitsIcESaIcEEC2IS3_EEPKcRKS3_(ptr noundef nonnull align 8 dereferenceable(32) %ref.tmp275, ptr noundef @.str.173, ptr noundef nonnull align 1 dereferenceable(1) %ref.tmp276)
          to label %invoke.cont278 unwind label %lpad277

invoke.cont278:                                   ; preds = %invoke.cont271
  %111 = load ptr, ptr %mat192, align 8
  %id279 = getelementptr inbounds %"struct.Assimp::ColladaExporter::Material", ptr %111, i32 0, i32 0
  invoke void @_ZN6Assimp15ColladaExporter22WriteTextureParamEntryERKNS0_7SurfaceERKNSt7__cxx1112basic_stringIcSt11char_traitsIcESaIcEEESB_(ptr noundef nonnull align 8 dereferenceable(1248) %this1, ptr noundef nonnull align 8 dereferenceable(64) %transparent274, ptr noundef nonnull align 8 dereferenceable(32) %ref.tmp275, ptr noundef nonnull align 8 dereferenceable(32) %id279)
          to label %invoke.cont281 unwind label %lpad280

invoke.cont281:                                   ; preds = %invoke.cont278
  call void @_ZNSt7__cxx1112basic_stringIcSt11char_traitsIcESaIcEED1Ev(ptr noundef nonnull align 8 dereferenceable(32) %ref.tmp275) #6
  call void @_ZNSaIcED1Ev(ptr noundef nonnull align 1 dereferenceable(1) %ref.tmp276) #6
  %112 = load ptr, ptr %mat192, align 8
  %normal284 = getelementptr inbounds %"struct.Assimp::ColladaExporter::Material", ptr %112, i32 0, i32 9
  call void @_ZNSaIcEC1Ev(ptr noundef nonnull align 1 dereferenceable(1) %ref.tmp286) #6
  invoke void @_ZNSt7__cxx1112basic_stringIcSt11char_traitsIcESaIcEEC2IS3_EEPKcRKS3_(ptr noundef nonnull align 8 dereferenceable(32) %ref.tmp285, ptr noundef @.str.174, ptr noundef nonnull align 1 dereferenceable(1) %ref.tmp286)
          to label %invoke.cont288 unwind label %lpad287

invoke.cont288:                                   ; preds = %invoke.cont281
  %113 = load ptr, ptr %mat192, align 8
  %id289 = getelementptr inbounds %"struct.Assimp::ColladaExporter::Material", ptr %113, i32 0, i32 0
  invoke void @_ZN6Assimp15ColladaExporter22WriteTextureParamEntryERKNS0_7SurfaceERKNSt7__cxx1112basic_stringIcSt11char_traitsIcESaIcEEESB_(ptr noundef nonnull align 8 dereferenceable(1248) %this1, ptr noundef nonnull align 8 dereferenceable(64) %normal284, ptr noundef nonnull align 8 dereferenceable(32) %ref.tmp285, ptr noundef nonnull align 8 dereferenceable(32) %id289)
          to label %invoke.cont291 unwind label %lpad290

invoke.cont291:                                   ; preds = %invoke.cont288
  call void @_ZNSt7__cxx1112basic_stringIcSt11char_traitsIcESaIcEED1Ev(ptr noundef nonnull align 8 dereferenceable(32) %ref.tmp285) #6
  call void @_ZNSaIcED1Ev(ptr noundef nonnull align 1 dereferenceable(1) %ref.tmp286) #6
  %mOutput294 = getelementptr inbounds %"class.Assimp::ColladaExporter", ptr %this1, i32 0, i32 6
  %add.ptr295 = getelementptr inbounds i8, ptr %mOutput294, i64 16
  %startstr296 = getelementptr inbounds %"class.Assimp::ColladaExporter", ptr %this1, i32 0, i32 13
  %call298 = invoke noundef nonnull align 8 dereferenceable(8) ptr @_ZStlsIcSt11char_traitsIcESaIcEERSt13basic_ostreamIT_T0_ES7_RKNSt7__cxx1112basic_stringIS4_S5_T1_EE(ptr noundef nonnull align 8 dereferenceable(8) %add.ptr295, ptr noundef nonnull align 8 dereferenceable(32) %startstr296)
          to label %invoke.cont297 unwind label %lpad

invoke.cont297:                                   ; preds = %invoke.cont291
  %call300 = invoke noundef nonnull align 8 dereferenceable(8) ptr @_ZStlsISt11char_traitsIcEERSt13basic_ostreamIcT_ES5_PKc(ptr noundef nonnull align 8 dereferenceable(8) %call298, ptr noundef @.str.175)
          to label %invoke.cont299 unwind label %lpad

invoke.cont299:                                   ; preds = %invoke.cont297
  %endstr301 = getelementptr inbounds %"class.Assimp::ColladaExporter", ptr %this1, i32 0, i32 14
  %call303 = invoke noundef nonnull align 8 dereferenceable(8) ptr @_ZStlsIcSt11char_traitsIcESaIcEERSt13basic_ostreamIT_T0_ES7_RKNSt7__cxx1112basic_stringIS4_S5_T1_EE(ptr noundef nonnull align 8 dereferenceable(8) %call300, ptr noundef nonnull align 8 dereferenceable(32) %endstr301)
          to label %invoke.cont302 unwind label %lpad

invoke.cont302:                                   ; preds = %invoke.cont299
  invoke void @_ZN6Assimp15ColladaExporter7PushTagEv(ptr noundef nonnull align 8 dereferenceable(1248) %this1)
          to label %invoke.cont304 unwind label %lpad

invoke.cont304:                                   ; preds = %invoke.cont302
  %mOutput305 = getelementptr inbounds %"class.Assimp::ColladaExporter", ptr %this1, i32 0, i32 6
  %add.ptr306 = getelementptr inbounds i8, ptr %mOutput305, i64 16
  %startstr307 = getelementptr inbounds %"class.Assimp::ColladaExporter", ptr %this1, i32 0, i32 13
  %call309 = invoke noundef nonnull align 8 dereferenceable(8) ptr @_ZStlsIcSt11char_traitsIcESaIcEERSt13basic_ostreamIT_T0_ES7_RKNSt7__cxx1112basic_stringIS4_S5_T1_EE(ptr noundef nonnull align 8 dereferenceable(8) %add.ptr306, ptr noundef nonnull align 8 dereferenceable(32) %startstr307)
          to label %invoke.cont308 unwind label %lpad

invoke.cont308:                                   ; preds = %invoke.cont304
  %call311 = invoke noundef nonnull align 8 dereferenceable(8) ptr @_ZStlsISt11char_traitsIcEERSt13basic_ostreamIcT_ES5_PKc(ptr noundef nonnull align 8 dereferenceable(8) %call309, ptr noundef @.str.120)
          to label %invoke.cont310 unwind label %lpad

invoke.cont310:                                   ; preds = %invoke.cont308
  %114 = load ptr, ptr %mat192, align 8
  %shading_model312 = getelementptr inbounds %"struct.Assimp::ColladaExporter::Material", ptr %114, i32 0, i32 2
  %call314 = invoke noundef nonnull align 8 dereferenceable(8) ptr @_ZStlsIcSt11char_traitsIcESaIcEERSt13basic_ostreamIT_T0_ES7_RKNSt7__cxx1112basic_stringIS4_S5_T1_EE(ptr noundef nonnull align 8 dereferenceable(8) %call311, ptr noundef nonnull align 8 dereferenceable(32) %shading_model312)
          to label %invoke.cont313 unwind label %lpad

invoke.cont313:                                   ; preds = %invoke.cont310
  %call316 = invoke noundef nonnull align 8 dereferenceable(8) ptr @_ZStlsISt11char_traitsIcEERSt13basic_ostreamIcT_ES5_PKc(ptr noundef nonnull align 8 dereferenceable(8) %call314, ptr noundef @.str.121)
          to label %invoke.cont315 unwind label %lpad

invoke.cont315:                                   ; preds = %invoke.cont313
  %endstr317 = getelementptr inbounds %"class.Assimp::ColladaExporter", ptr %this1, i32 0, i32 14
  %call319 = invoke noundef nonnull align 8 dereferenceable(8) ptr @_ZStlsIcSt11char_traitsIcESaIcEERSt13basic_ostreamIT_T0_ES7_RKNSt7__cxx1112basic_stringIS4_S5_T1_EE(ptr noundef nonnull align 8 dereferenceable(8) %call316, ptr noundef nonnull align 8 dereferenceable(32) %endstr317)
          to label %invoke.cont318 unwind label %lpad

invoke.cont318:                                   ; preds = %invoke.cont315
  invoke void @_ZN6Assimp15ColladaExporter7PushTagEv(ptr noundef nonnull align 8 dereferenceable(1248) %this1)
          to label %invoke.cont320 unwind label %lpad

invoke.cont320:                                   ; preds = %invoke.cont318
  %115 = load ptr, ptr %mat192, align 8
  %emissive321 = getelementptr inbounds %"struct.Assimp::ColladaExporter::Material", ptr %115, i32 0, i32 6
  call void @_ZNSaIcEC1Ev(ptr noundef nonnull align 1 dereferenceable(1) %ref.tmp323) #6
  invoke void @_ZNSt7__cxx1112basic_stringIcSt11char_traitsIcESaIcEEC2IS3_EEPKcRKS3_(ptr noundef nonnull align 8 dereferenceable(32) %ref.tmp322, ptr noundef @.str.168, ptr noundef nonnull align 1 dereferenceable(1) %ref.tmp323)
          to label %invoke.cont325 unwind label %lpad324

invoke.cont325:                                   ; preds = %invoke.cont320
  %116 = load ptr, ptr %mat192, align 8
  %id327 = getelementptr inbounds %"struct.Assimp::ColladaExporter::Material", ptr %116, i32 0, i32 0
  invoke void @_ZStplIcSt11char_traitsIcESaIcEENSt7__cxx1112basic_stringIT_T0_T1_EERKS8_PKS5_(ptr sret(%"class.std::__cxx11::basic_string") align 8 %ref.tmp326, ptr noundef nonnull align 8 dereferenceable(32) %id327, ptr noundef @.str.176)
          to label %invoke.cont329 unwind label %lpad328

invoke.cont329:                                   ; preds = %invoke.cont325
  invoke void @_ZN6Assimp15ColladaExporter22WriteTextureColorEntryERKNS0_7SurfaceERKNSt7__cxx1112basic_stringIcSt11char_traitsIcESaIcEEESB_(ptr noundef nonnull align 8 dereferenceable(1248) %this1, ptr noundef nonnull align 8 dereferenceable(64) %emissive321, ptr noundef nonnull align 8 dereferenceable(32) %ref.tmp322, ptr noundef nonnull align 8 dereferenceable(32) %ref.tmp326)
          to label %invoke.cont331 unwind label %lpad330

invoke.cont331:                                   ; preds = %invoke.cont329
  call void @_ZNSt7__cxx1112basic_stringIcSt11char_traitsIcESaIcEED1Ev(ptr noundef nonnull align 8 dereferenceable(32) %ref.tmp326) #6
  call void @_ZNSt7__cxx1112basic_stringIcSt11char_traitsIcESaIcEED1Ev(ptr noundef nonnull align 8 dereferenceable(32) %ref.tmp322) #6
  call void @_ZNSaIcED1Ev(ptr noundef nonnull align 1 dereferenceable(1) %ref.tmp323) #6
  %117 = load ptr, ptr %mat192, align 8
  %ambient335 = getelementptr inbounds %"struct.Assimp::ColladaExporter::Material", ptr %117, i32 0, i32 3
  call void @_ZNSaIcEC1Ev(ptr noundef nonnull align 1 dereferenceable(1) %ref.tmp337) #6
  invoke void @_ZNSt7__cxx1112basic_stringIcSt11char_traitsIcESaIcEEC2IS3_EEPKcRKS3_(ptr noundef nonnull align 8 dereferenceable(32) %ref.tmp336, ptr noundef @.str.169, ptr noundef nonnull align 1 dereferenceable(1) %ref.tmp337)
          to label %invoke.cont339 unwind label %lpad338

invoke.cont339:                                   ; preds = %invoke.cont331
  %118 = load ptr, ptr %mat192, align 8
  %id341 = getelementptr inbounds %"struct.Assimp::ColladaExporter::Material", ptr %118, i32 0, i32 0
  invoke void @_ZStplIcSt11char_traitsIcESaIcEENSt7__cxx1112basic_stringIT_T0_T1_EERKS8_PKS5_(ptr sret(%"class.std::__cxx11::basic_string") align 8 %ref.tmp340, ptr noundef nonnull align 8 dereferenceable(32) %id341, ptr noundef @.str.177)
          to label %invoke.cont343 unwind label %lpad342

invoke.cont343:                                   ; preds = %invoke.cont339
  invoke void @_ZN6Assimp15ColladaExporter22WriteTextureColorEntryERKNS0_7SurfaceERKNSt7__cxx1112basic_stringIcSt11char_traitsIcESaIcEEESB_(ptr noundef nonnull align 8 dereferenceable(1248) %this1, ptr noundef nonnull align 8 dereferenceable(64) %ambient335, ptr noundef nonnull align 8 dereferenceable(32) %ref.tmp336, ptr noundef nonnull align 8 dereferenceable(32) %ref.tmp340)
          to label %invoke.cont345 unwind label %lpad344

invoke.cont345:                                   ; preds = %invoke.cont343
  call void @_ZNSt7__cxx1112basic_stringIcSt11char_traitsIcESaIcEED1Ev(ptr noundef nonnull align 8 dereferenceable(32) %ref.tmp340) #6
  call void @_ZNSt7__cxx1112basic_stringIcSt11char_traitsIcESaIcEED1Ev(ptr noundef nonnull align 8 dereferenceable(32) %ref.tmp336) #6
  call void @_ZNSaIcED1Ev(ptr noundef nonnull align 1 dereferenceable(1) %ref.tmp337) #6
  %119 = load ptr, ptr %mat192, align 8
  %diffuse349 = getelementptr inbounds %"struct.Assimp::ColladaExporter::Material", ptr %119, i32 0, i32 4
  call void @_ZNSaIcEC1Ev(ptr noundef nonnull align 1 dereferenceable(1) %ref.tmp351) #6
  invoke void @_ZNSt7__cxx1112basic_stringIcSt11char_traitsIcESaIcEEC2IS3_EEPKcRKS3_(ptr noundef nonnull align 8 dereferenceable(32) %ref.tmp350, ptr noundef @.str.170, ptr noundef nonnull align 1 dereferenceable(1) %ref.tmp351)
          to label %invoke.cont353 unwind label %lpad352

invoke.cont353:                                   ; preds = %invoke.cont345
  %120 = load ptr, ptr %mat192, align 8
  %id355 = getelementptr inbounds %"struct.Assimp::ColladaExporter::Material", ptr %120, i32 0, i32 0
  invoke void @_ZStplIcSt11char_traitsIcESaIcEENSt7__cxx1112basic_stringIT_T0_T1_EERKS8_PKS5_(ptr sret(%"class.std::__cxx11::basic_string") align 8 %ref.tmp354, ptr noundef nonnull align 8 dereferenceable(32) %id355, ptr noundef @.str.178)
          to label %invoke.cont357 unwind label %lpad356

invoke.cont357:                                   ; preds = %invoke.cont353
  invoke void @_ZN6Assimp15ColladaExporter22WriteTextureColorEntryERKNS0_7SurfaceERKNSt7__cxx1112basic_stringIcSt11char_traitsIcESaIcEEESB_(ptr noundef nonnull align 8 dereferenceable(1248) %this1, ptr noundef nonnull align 8 dereferenceable(64) %diffuse349, ptr noundef nonnull align 8 dereferenceable(32) %ref.tmp350, ptr noundef nonnull align 8 dereferenceable(32) %ref.tmp354)
          to label %invoke.cont359 unwind label %lpad358

invoke.cont359:                                   ; preds = %invoke.cont357
  call void @_ZNSt7__cxx1112basic_stringIcSt11char_traitsIcESaIcEED1Ev(ptr noundef nonnull align 8 dereferenceable(32) %ref.tmp354) #6
  call void @_ZNSt7__cxx1112basic_stringIcSt11char_traitsIcESaIcEED1Ev(ptr noundef nonnull align 8 dereferenceable(32) %ref.tmp350) #6
  call void @_ZNSaIcED1Ev(ptr noundef nonnull align 1 dereferenceable(1) %ref.tmp351) #6
  %121 = load ptr, ptr %mat192, align 8
  %specular363 = getelementptr inbounds %"struct.Assimp::ColladaExporter::Material", ptr %121, i32 0, i32 5
  call void @_ZNSaIcEC1Ev(ptr noundef nonnull align 1 dereferenceable(1) %ref.tmp365) #6
  invoke void @_ZNSt7__cxx1112basic_stringIcSt11char_traitsIcESaIcEEC2IS3_EEPKcRKS3_(ptr noundef nonnull align 8 dereferenceable(32) %ref.tmp364, ptr noundef @.str.171, ptr noundef nonnull align 1 dereferenceable(1) %ref.tmp365)
          to label %invoke.cont367 unwind label %lpad366

invoke.cont367:                                   ; preds = %invoke.cont359
  %122 = load ptr, ptr %mat192, align 8
  %id369 = getelementptr inbounds %"struct.Assimp::ColladaExporter::Material", ptr %122, i32 0, i32 0
  invoke void @_ZStplIcSt11char_traitsIcESaIcEENSt7__cxx1112basic_stringIT_T0_T1_EERKS8_PKS5_(ptr sret(%"class.std::__cxx11::basic_string") align 8 %ref.tmp368, ptr noundef nonnull align 8 dereferenceable(32) %id369, ptr noundef @.str.179)
          to label %invoke.cont371 unwind label %lpad370

invoke.cont371:                                   ; preds = %invoke.cont367
  invoke void @_ZN6Assimp15ColladaExporter22WriteTextureColorEntryERKNS0_7SurfaceERKNSt7__cxx1112basic_stringIcSt11char_traitsIcESaIcEEESB_(ptr noundef nonnull align 8 dereferenceable(1248) %this1, ptr noundef nonnull align 8 dereferenceable(64) %specular363, ptr noundef nonnull align 8 dereferenceable(32) %ref.tmp364, ptr noundef nonnull align 8 dereferenceable(32) %ref.tmp368)
          to label %invoke.cont373 unwind label %lpad372

invoke.cont373:                                   ; preds = %invoke.cont371
  call void @_ZNSt7__cxx1112basic_stringIcSt11char_traitsIcESaIcEED1Ev(ptr noundef nonnull align 8 dereferenceable(32) %ref.tmp368) #6
  call void @_ZNSt7__cxx1112basic_stringIcSt11char_traitsIcESaIcEED1Ev(ptr noundef nonnull align 8 dereferenceable(32) %ref.tmp364) #6
  call void @_ZNSaIcED1Ev(ptr noundef nonnull align 1 dereferenceable(1) %ref.tmp365) #6
  %123 = load ptr, ptr %mat192, align 8
  %shininess377 = getelementptr inbounds %"struct.Assimp::ColladaExporter::Material", ptr %123, i32 0, i32 10
  call void @_ZNSaIcEC1Ev(ptr noundef nonnull align 1 dereferenceable(1) %ref.tmp379) #6
  invoke void @_ZNSt7__cxx1112basic_stringIcSt11char_traitsIcESaIcEEC2IS3_EEPKcRKS3_(ptr noundef nonnull align 8 dereferenceable(32) %ref.tmp378, ptr noundef @.str.180, ptr noundef nonnull align 1 dereferenceable(1) %ref.tmp379)
          to label %invoke.cont381 unwind label %lpad380

invoke.cont381:                                   ; preds = %invoke.cont373
  invoke void @_ZN6Assimp15ColladaExporter15WriteFloatEntryERKNS0_8PropertyERKNSt7__cxx1112basic_stringIcSt11char_traitsIcESaIcEEE(ptr noundef nonnull align 8 dereferenceable(1248) %this1, ptr noundef nonnull align 4 dereferenceable(8) %shininess377, ptr noundef nonnull align 8 dereferenceable(32) %ref.tmp378)
          to label %invoke.cont383 unwind label %lpad382

invoke.cont383:                                   ; preds = %invoke.cont381
  call void @_ZNSt7__cxx1112basic_stringIcSt11char_traitsIcESaIcEED1Ev(ptr noundef nonnull align 8 dereferenceable(32) %ref.tmp378) #6
  call void @_ZNSaIcED1Ev(ptr noundef nonnull align 1 dereferenceable(1) %ref.tmp379) #6
  %124 = load ptr, ptr %mat192, align 8
  %reflective386 = getelementptr inbounds %"struct.Assimp::ColladaExporter::Material", ptr %124, i32 0, i32 7
  call void @_ZNSaIcEC1Ev(ptr noundef nonnull align 1 dereferenceable(1) %ref.tmp388) #6
  invoke void @_ZNSt7__cxx1112basic_stringIcSt11char_traitsIcESaIcEEC2IS3_EEPKcRKS3_(ptr noundef nonnull align 8 dereferenceable(32) %ref.tmp387, ptr noundef @.str.172, ptr noundef nonnull align 1 dereferenceable(1) %ref.tmp388)
          to label %invoke.cont390 unwind label %lpad389

invoke.cont390:                                   ; preds = %invoke.cont383
  %125 = load ptr, ptr %mat192, align 8
  %id392 = getelementptr inbounds %"struct.Assimp::ColladaExporter::Material", ptr %125, i32 0, i32 0
  invoke void @_ZStplIcSt11char_traitsIcESaIcEENSt7__cxx1112basic_stringIT_T0_T1_EERKS8_PKS5_(ptr sret(%"class.std::__cxx11::basic_string") align 8 %ref.tmp391, ptr noundef nonnull align 8 dereferenceable(32) %id392, ptr noundef @.str.181)
          to label %invoke.cont394 unwind label %lpad393

invoke.cont394:                                   ; preds = %invoke.cont390
  invoke void @_ZN6Assimp15ColladaExporter22WriteTextureColorEntryERKNS0_7SurfaceERKNSt7__cxx1112basic_stringIcSt11char_traitsIcESaIcEEESB_(ptr noundef nonnull align 8 dereferenceable(1248) %this1, ptr noundef nonnull align 8 dereferenceable(64) %reflective386, ptr noundef nonnull align 8 dereferenceable(32) %ref.tmp387, ptr noundef nonnull align 8 dereferenceable(32) %ref.tmp391)
          to label %invoke.cont396 unwind label %lpad395

invoke.cont396:                                   ; preds = %invoke.cont394
  call void @_ZNSt7__cxx1112basic_stringIcSt11char_traitsIcESaIcEED1Ev(ptr noundef nonnull align 8 dereferenceable(32) %ref.tmp391) #6
  call void @_ZNSt7__cxx1112basic_stringIcSt11char_traitsIcESaIcEED1Ev(ptr noundef nonnull align 8 dereferenceable(32) %ref.tmp387) #6
  call void @_ZNSaIcED1Ev(ptr noundef nonnull align 1 dereferenceable(1) %ref.tmp388) #6
  %126 = load ptr, ptr %mat192, align 8
  %transparent400 = getelementptr inbounds %"struct.Assimp::ColladaExporter::Material", ptr %126, i32 0, i32 8
  call void @_ZNSaIcEC1Ev(ptr noundef nonnull align 1 dereferenceable(1) %ref.tmp402) #6
  invoke void @_ZNSt7__cxx1112basic_stringIcSt11char_traitsIcESaIcEEC2IS3_EEPKcRKS3_(ptr noundef nonnull align 8 dereferenceable(32) %ref.tmp401, ptr noundef @.str.173, ptr noundef nonnull align 1 dereferenceable(1) %ref.tmp402)
          to label %invoke.cont404 unwind label %lpad403

invoke.cont404:                                   ; preds = %invoke.cont396
  %127 = load ptr, ptr %mat192, align 8
  %id406 = getelementptr inbounds %"struct.Assimp::ColladaExporter::Material", ptr %127, i32 0, i32 0
  invoke void @_ZStplIcSt11char_traitsIcESaIcEENSt7__cxx1112basic_stringIT_T0_T1_EERKS8_PKS5_(ptr sret(%"class.std::__cxx11::basic_string") align 8 %ref.tmp405, ptr noundef nonnull align 8 dereferenceable(32) %id406, ptr noundef @.str.182)
          to label %invoke.cont408 unwind label %lpad407

invoke.cont408:                                   ; preds = %invoke.cont404
  invoke void @_ZN6Assimp15ColladaExporter22WriteTextureColorEntryERKNS0_7SurfaceERKNSt7__cxx1112basic_stringIcSt11char_traitsIcESaIcEEESB_(ptr noundef nonnull align 8 dereferenceable(1248) %this1, ptr noundef nonnull align 8 dereferenceable(64) %transparent400, ptr noundef nonnull align 8 dereferenceable(32) %ref.tmp401, ptr noundef nonnull align 8 dereferenceable(32) %ref.tmp405)
          to label %invoke.cont410 unwind label %lpad409

invoke.cont410:                                   ; preds = %invoke.cont408
  call void @_ZNSt7__cxx1112basic_stringIcSt11char_traitsIcESaIcEED1Ev(ptr noundef nonnull align 8 dereferenceable(32) %ref.tmp405) #6
  call void @_ZNSt7__cxx1112basic_stringIcSt11char_traitsIcESaIcEED1Ev(ptr noundef nonnull align 8 dereferenceable(32) %ref.tmp401) #6
  call void @_ZNSaIcED1Ev(ptr noundef nonnull align 1 dereferenceable(1) %ref.tmp402) #6
  %128 = load ptr, ptr %mat192, align 8
  %transparency414 = getelementptr inbounds %"struct.Assimp::ColladaExporter::Material", ptr %128, i32 0, i32 11
  call void @_ZNSaIcEC1Ev(ptr noundef nonnull align 1 dereferenceable(1) %ref.tmp416) #6
  invoke void @_ZNSt7__cxx1112basic_stringIcSt11char_traitsIcESaIcEEC2IS3_EEPKcRKS3_(ptr noundef nonnull align 8 dereferenceable(32) %ref.tmp415, ptr noundef @.str.183, ptr noundef nonnull align 1 dereferenceable(1) %ref.tmp416)
          to label %invoke.cont418 unwind label %lpad417

invoke.cont418:                                   ; preds = %invoke.cont410
  invoke void @_ZN6Assimp15ColladaExporter15WriteFloatEntryERKNS0_8PropertyERKNSt7__cxx1112basic_stringIcSt11char_traitsIcESaIcEEE(ptr noundef nonnull align 8 dereferenceable(1248) %this1, ptr noundef nonnull align 4 dereferenceable(8) %transparency414, ptr noundef nonnull align 8 dereferenceable(32) %ref.tmp415)
          to label %invoke.cont420 unwind label %lpad419

invoke.cont420:                                   ; preds = %invoke.cont418
  call void @_ZNSt7__cxx1112basic_stringIcSt11char_traitsIcESaIcEED1Ev(ptr noundef nonnull align 8 dereferenceable(32) %ref.tmp415) #6
  call void @_ZNSaIcED1Ev(ptr noundef nonnull align 1 dereferenceable(1) %ref.tmp416) #6
  %129 = load ptr, ptr %mat192, align 8
  %index_refraction423 = getelementptr inbounds %"struct.Assimp::ColladaExporter::Material", ptr %129, i32 0, i32 12
  call void @_ZNSaIcEC1Ev(ptr noundef nonnull align 1 dereferenceable(1) %ref.tmp425) #6
  invoke void @_ZNSt7__cxx1112basic_stringIcSt11char_traitsIcESaIcEEC2IS3_EEPKcRKS3_(ptr noundef nonnull align 8 dereferenceable(32) %ref.tmp424, ptr noundef @.str.184, ptr noundef nonnull align 1 dereferenceable(1) %ref.tmp425)
          to label %invoke.cont427 unwind label %lpad426

invoke.cont427:                                   ; preds = %invoke.cont420
  invoke void @_ZN6Assimp15ColladaExporter15WriteFloatEntryERKNS0_8PropertyERKNSt7__cxx1112basic_stringIcSt11char_traitsIcESaIcEEE(ptr noundef nonnull align 8 dereferenceable(1248) %this1, ptr noundef nonnull align 4 dereferenceable(8) %index_refraction423, ptr noundef nonnull align 8 dereferenceable(32) %ref.tmp424)
          to label %invoke.cont429 unwind label %lpad428

invoke.cont429:                                   ; preds = %invoke.cont427
  call void @_ZNSt7__cxx1112basic_stringIcSt11char_traitsIcESaIcEED1Ev(ptr noundef nonnull align 8 dereferenceable(32) %ref.tmp424) #6
  call void @_ZNSaIcED1Ev(ptr noundef nonnull align 1 dereferenceable(1) %ref.tmp425) #6
  %130 = load ptr, ptr %mat192, align 8
  %normal432 = getelementptr inbounds %"struct.Assimp::ColladaExporter::Material", ptr %130, i32 0, i32 9
  %texture = getelementptr inbounds %"struct.Assimp::ColladaExporter::Surface", ptr %normal432, i32 0, i32 2
  %call433 = call noundef zeroext i1 @_ZNKSt7__cxx1112basic_stringIcSt11char_traitsIcESaIcEE5emptyEv(ptr noundef nonnull align 8 dereferenceable(32) %texture) #6
  br i1 %call433, label %if.end449, label %if.then434

if.then434:                                       ; preds = %invoke.cont429
  %131 = load ptr, ptr %mat192, align 8
