target datalayout = "e-m:e-p270:32:32-p271:32:32-p272:64:64-i64:64-i128:128-f80:128-n8:16:32:64-S128"
target triple = "x86_64-unknown-linux-gnu"

%"struct.std::_Vector_base" = type { %"struct.std::_Vector_base<std::__cxx11::basic_string<char>, std::allocator<std::__cxx11::basic_string<char>>>::_Vector_impl" }
%"struct.std::_Vector_base<std::__cxx11::basic_string<char>, std::allocator<std::__cxx11::basic_string<char>>>::_Vector_impl" = type { %"struct.std::_Vector_base<std::__cxx11::basic_string<char>, std::allocator<std::__cxx11::basic_string<char>>>::_Vector_impl_data" }
%"struct.std::_Vector_base<std::__cxx11::basic_string<char>, std::allocator<std::__cxx11::basic_string<char>>>::_Vector_impl_data" = type { ptr, ptr, ptr }
%"class.Assimp::BlobIOStream" = type { %"class.Assimp::IOStream", ptr, i64, i64, i64, i64, %"class.std::__cxx11::basic_string", ptr }
%"class.Assimp::IOStream" = type { ptr }
%"class.std::__cxx11::basic_string" = type { %"struct.std::__cxx11::basic_string<char>::_Alloc_hider", i64, %union.anon }
%"struct.std::__cxx11::basic_string<char>::_Alloc_hider" = type { ptr }
%union.anon = type { i64, [8 x i8] }
%"class.Assimp::BlobIOSystem" = type { %"class.Assimp::IOSystem", %"class.std::__cxx11::basic_string", %"class.std::set", %"class.std::vector.6" }
%"class.Assimp::IOSystem" = type { ptr, %"class.std::vector" }
%"class.std::vector" = type { %"struct.std::_Vector_base" }
%"class.std::set" = type { %"class.std::_Rb_tree" }
%"class.std::_Rb_tree" = type { %"struct.std::_Rb_tree<std::__cxx11::basic_string<char>, std::__cxx11::basic_string<char>, std::_Identity<std::__cxx11::basic_string<char>>, std::less<std::__cxx11::basic_string<char>>>::_Rb_tree_impl" }
%"struct.std::_Rb_tree<std::__cxx11::basic_string<char>, std::__cxx11::basic_string<char>, std::_Identity<std::__cxx11::basic_string<char>>, std::less<std::__cxx11::basic_string<char>>>::_Rb_tree_impl" = type { %"struct.std::_Rb_tree_key_compare", %"struct.std::_Rb_tree_header" }
%"struct.std::_Rb_tree_key_compare" = type { %"struct.std::less" }
%"struct.std::less" = type { i8 }
%"struct.std::_Rb_tree_header" = type { %"struct.std::_Rb_tree_node_base", i64 }
%"struct.std::_Rb_tree_node_base" = type { i32, ptr, ptr, ptr }
%"class.std::vector.6" = type { %"struct.std::_Vector_base.7" }
%"struct.std::_Vector_base.7" = type { %"struct.std::_Vector_base<std::pair<std::__cxx11::basic_string<char>, aiExportDataBlob *>, std::allocator<std::pair<std::__cxx11::basic_string<char>, aiExportDataBlob *>>>::_Vector_impl" }
%"struct.std::_Vector_base<std::pair<std::__cxx11::basic_string<char>, aiExportDataBlob *>, std::allocator<std::pair<std::__cxx11::basic_string<char>, aiExportDataBlob *>>>::_Vector_impl" = type { %"struct.std::_Vector_base<std::pair<std::__cxx11::basic_string<char>, aiExportDataBlob *>, std::allocator<std::pair<std::__cxx11::basic_string<char>, aiExportDataBlob *>>>::_Vector_impl_data" }
%"struct.std::_Vector_base<std::pair<std::__cxx11::basic_string<char>, aiExportDataBlob *>, std::allocator<std::pair<std::__cxx11::basic_string<char>, aiExportDataBlob *>>>::_Vector_impl_data" = type { ptr, ptr, ptr }
%"class.Assimp::Exporter" = type { ptr }
%"class.Assimp::ExporterPimpl" = type { ptr, %"class.std::shared_ptr", i8, ptr, i8, %"class.std::vector.11", %"class.std::__cxx11::basic_string", %"class.std::vector.16" }
%"class.std::shared_ptr" = type { %"class.std::__shared_ptr" }
%"class.std::__shared_ptr" = type { ptr, %"class.std::__shared_count" }
%"class.std::__shared_count" = type { ptr }
%"class.std::vector.11" = type { %"struct.std::_Vector_base.12" }
%"struct.std::_Vector_base.12" = type { %"struct.std::_Vector_base<Assimp::BaseProcess *, std::allocator<Assimp::BaseProcess *>>::_Vector_impl" }
%"struct.std::_Vector_base<Assimp::BaseProcess *, std::allocator<Assimp::BaseProcess *>>::_Vector_impl" = type { %"struct.std::_Vector_base<Assimp::BaseProcess *, std::allocator<Assimp::BaseProcess *>>::_Vector_impl_data" }
%"struct.std::_Vector_base<Assimp::BaseProcess *, std::allocator<Assimp::BaseProcess *>>::_Vector_impl_data" = type { ptr, ptr, ptr }
%"class.std::vector.16" = type { %"struct.std::_Vector_base.17" }
%"struct.std::_Vector_base.17" = type { %"struct.std::_Vector_base<Assimp::Exporter::ExportFormatEntry, std::allocator<Assimp::Exporter::ExportFormatEntry>>::_Vector_impl" }
%"struct.std::_Vector_base<Assimp::Exporter::ExportFormatEntry, std::allocator<Assimp::Exporter::ExportFormatEntry>>::_Vector_impl" = type { %"struct.std::_Vector_base<Assimp::Exporter::ExportFormatEntry, std::allocator<Assimp::Exporter::ExportFormatEntry>>::_Vector_impl_data" }
%"struct.std::_Vector_base<Assimp::Exporter::ExportFormatEntry, std::allocator<Assimp::Exporter::ExportFormatEntry>>::_Vector_impl_data" = type { ptr, ptr, ptr }
%"class.std::allocator.0" = type { i8 }
%struct.aiExportDataBlob = type { i64, ptr, %struct.aiString, ptr }
%struct.aiString = type { i32, [1024 x i8] }
%"class.Assimp::ExportProperties" = type { %"class.std::map", %"class.std::map.28", %"class.std::map.33", %"class.std::map.38", %"class.std::map.43" }
%"class.std::map" = type { %"class.std::_Rb_tree.21" }
%"class.std::_Rb_tree.21" = type { %"struct.std::_Rb_tree<unsigned int, std::pair<const unsigned int, int>, std::_Select1st<std::pair<const unsigned int, int>>, std::less<unsigned int>>::_Rb_tree_impl" }
%"struct.std::_Rb_tree<unsigned int, std::pair<const unsigned int, int>, std::_Select1st<std::pair<const unsigned int, int>>, std::less<unsigned int>>::_Rb_tree_impl" = type { %"struct.std::_Rb_tree_key_compare.25", %"struct.std::_Rb_tree_header" }
%"struct.std::_Rb_tree_key_compare.25" = type { %"struct.std::less.26" }
%"struct.std::less.26" = type { i8 }
%"class.std::map.28" = type { %"class.std::_Rb_tree.29" }
%"class.std::_Rb_tree.29" = type { %"struct.std::_Rb_tree<unsigned int, std::pair<const unsigned int, float>, std::_Select1st<std::pair<const unsigned int, float>>, std::less<unsigned int>>::_Rb_tree_impl" }
%"struct.std::_Rb_tree<unsigned int, std::pair<const unsigned int, float>, std::_Select1st<std::pair<const unsigned int, float>>, std::less<unsigned int>>::_Rb_tree_impl" = type { %"struct.std::_Rb_tree_key_compare.25", %"struct.std::_Rb_tree_header" }
%"class.std::map.33" = type { %"class.std::_Rb_tree.34" }
%"class.std::_Rb_tree.34" = type { %"struct.std::_Rb_tree<unsigned int, std::pair<const unsigned int, std::__cxx11::basic_string<char>>, std::_Select1st<std::pair<const unsigned int, std::__cxx11::basic_string<char>>>, std::less<unsigned int>>::_Rb_tree_impl" }
%"struct.std::_Rb_tree<unsigned int, std::pair<const unsigned int, std::__cxx11::basic_string<char>>, std::_Select1st<std::pair<const unsigned int, std::__cxx11::basic_string<char>>>, std::less<unsigned int>>::_Rb_tree_impl" = type { %"struct.std::_Rb_tree_key_compare.25", %"struct.std::_Rb_tree_header" }
%"class.std::map.38" = type { %"class.std::_Rb_tree.39" }
%"class.std::_Rb_tree.39" = type { %"struct.std::_Rb_tree<unsigned int, std::pair<const unsigned int, aiMatrix4x4t<float>>, std::_Select1st<std::pair<const unsigned int, aiMatrix4x4t<float>>>, std::less<unsigned int>>::_Rb_tree_impl" }
%"struct.std::_Rb_tree<unsigned int, std::pair<const unsigned int, aiMatrix4x4t<float>>, std::_Select1st<std::pair<const unsigned int, aiMatrix4x4t<float>>>, std::less<unsigned int>>::_Rb_tree_impl" = type { %"struct.std::_Rb_tree_key_compare.25", %"struct.std::_Rb_tree_header" }
%"class.std::map.43" = type { %"class.std::_Rb_tree.44" }
%"class.std::_Rb_tree.44" = type { %"struct.std::_Rb_tree<unsigned int, std::pair<const unsigned int, std::function<void *(void *)>>, std::_Select1st<std::pair<const unsigned int, std::function<void *(void *)>>>, std::less<unsigned int>>::_Rb_tree_impl" }
%"struct.std::_Rb_tree<unsigned int, std::pair<const unsigned int, std::function<void *(void *)>>, std::_Select1st<std::pair<const unsigned int, std::function<void *(void *)>>>, std::less<unsigned int>>::_Rb_tree_impl" = type { %"struct.std::_Rb_tree_key_compare.25", %"struct.std::_Rb_tree_header" }
%"class.std::unique_ptr" = type { %"struct.std::__uniq_ptr_data" }
%"struct.std::__uniq_ptr_data" = type { %"class.std::__uniq_ptr_impl" }
%"class.std::__uniq_ptr_impl" = type { %"class.std::tuple" }
%"class.std::tuple" = type { %"struct.std::_Tuple_impl" }
%"struct.std::_Tuple_impl" = type { %"struct.std::_Head_base.49" }
%"struct.std::_Head_base.49" = type { ptr }
%"class.Assimp::MakeVerboseFormatProcess" = type { %"class.Assimp::BaseProcess" }
%"class.Assimp::BaseProcess" = type { ptr, ptr, ptr }
%"class.Assimp::FlipWindingOrderProcess" = type { %"class.Assimp::BaseProcess" }
%"class.Assimp::FlipUVsProcess" = type { %"class.Assimp::BaseProcess" }
%"class.Assimp::MakeLeftHandedProcess" = type { %"class.Assimp::BaseProcess" }
%"class.Assimp::JoinVerticesProcess" = type { %"class.Assimp::BaseProcess" }
%struct.ExceptionSwallower = type { i8 }
%struct.aiScene = type { i32, ptr, i32, ptr, i32, ptr, i32, ptr, i32, ptr, i32, ptr, i32, ptr, ptr, %struct.aiString, i32, ptr, ptr }
%"struct.Assimp::Exporter::ExportFormatEntry" = type <{ %struct.aiExportFormatDesc, ptr, i32, [4 x i8] }>
%struct.aiExportFormatDesc = type { ptr, ptr, ptr }
%"struct.Assimp::ScenePrivateData" = type <{ ptr, i32, i8, [3 x i8] }>
%"class.__gnu_cxx::__normal_iterator.52" = type { ptr }
%"struct.std::pair" = type { %"class.std::__cxx11::basic_string", ptr }
%"class.__gnu_cxx::__normal_iterator" = type { ptr }
%"class.__gnu_cxx::__normal_iterator.51" = type { ptr }
%"struct.std::_Rb_tree_iterator.85" = type { ptr }
%"struct.std::pair.89" = type { i32, %"class.std::function" }
%"class.std::function" = type { %"class.std::_Function_base", ptr }
%"class.std::_Function_base" = type { %"union.std::_Any_data", ptr }
%"union.std::_Any_data" = type { %"union.std::_Nocopy_types" }
%"union.std::_Nocopy_types" = type { { i64, i64 } }
%"struct.std::pair.86" = type <{ %"struct.std::_Rb_tree_iterator.85", i8, [7 x i8] }>
%"struct.std::pair.63" = type { i32, %"class.std::function" }
%"struct.std::_Rb_tree_const_iterator.92" = type { ptr }
%"struct.std::_Rb_tree_iterator.93" = type { ptr }
%"struct.std::pair.97" = type { i32, i32 }
%"struct.std::pair.94" = type <{ %"struct.std::_Rb_tree_iterator.93", i8, [7 x i8] }>
%"struct.std::pair.67" = type { i32, i32 }
%"struct.std::_Rb_tree_iterator.102" = type { ptr }
%"struct.std::pair.106" = type { i32, float }
%"struct.std::pair.103" = type <{ %"struct.std::_Rb_tree_iterator.102", i8, [7 x i8] }>
%"struct.std::pair.71" = type { i32, float }
%"struct.std::_Rb_tree_iterator.111" = type { ptr }
%"struct.std::pair.115" = type { i32, %"class.std::__cxx11::basic_string" }
%"struct.std::pair.112" = type <{ %"struct.std::_Rb_tree_iterator.111", i8, [7 x i8] }>
%"struct.std::pair.75" = type { i32, %"class.std::__cxx11::basic_string" }
%"struct.std::_Rb_tree_iterator.120" = type { ptr }
%"struct.std::pair.124" = type { i32, %class.aiMatrix4x4t }
%class.aiMatrix4x4t = type { float, float, float, float, float, float, float, float, float, float, float, float, float, float, float, float }
%"struct.std::pair.121" = type <{ %"struct.std::_Rb_tree_iterator.120", i8, [7 x i8] }>
%"struct.std::pair.79" = type { i32, %class.aiMatrix4x4t }
%"struct.std::_Rb_tree_const_iterator.101" = type { ptr }
%"struct.std::_Rb_tree_const_iterator.110" = type { ptr }
%"struct.std::_Rb_tree_const_iterator.119" = type { ptr }
%"struct.std::_Rb_tree_const_iterator.128" = type { ptr }
%"class.std::_Sp_counted_ptr" = type { %"class.std::_Sp_counted_base", ptr }
%"class.std::_Sp_counted_base" = type { ptr, i32, i32 }
%"struct.std::_Rb_tree_const_iterator" = type { ptr }
%"struct.std::pair.54" = type <{ %"struct.std::_Rb_tree_const_iterator", i8, [7 x i8] }>
%"struct.std::_Rb_tree_node" = type { %"struct.std::_Rb_tree_node_base", %"struct.__gnu_cxx::__aligned_membuf" }
%"struct.__gnu_cxx::__aligned_membuf" = type { [32 x i8] }
%"struct.std::_Identity" = type { i8 }
%"struct.std::pair.56" = type <{ %"struct.std::_Rb_tree_iterator", i8, [7 x i8] }>
%"struct.std::_Rb_tree_iterator" = type { ptr }
%"struct.std::pair.59" = type { ptr, ptr }
%"struct.std::_Rb_tree<std::__cxx11::basic_string<char>, std::__cxx11::basic_string<char>, std::_Identity<std::__cxx11::basic_string<char>>, std::less<std::__cxx11::basic_string<char>>>::_Alloc_node" = type { ptr }
%"struct.std::_Rb_tree_node.61" = type { %"struct.std::_Rb_tree_node_base", %"struct.__gnu_cxx::__aligned_membuf.62" }
%"struct.__gnu_cxx::__aligned_membuf.62" = type { [40 x i8] }
%"class.std::allocator.22" = type { i8 }
%"struct.std::_Rb_tree<unsigned int, std::pair<const unsigned int, int>, std::_Select1st<std::pair<const unsigned int, int>>, std::less<unsigned int>>::_Alloc_node" = type { ptr }
%"struct.std::_Rb_tree_node.65" = type { %"struct.std::_Rb_tree_node_base", %"struct.__gnu_cxx::__aligned_membuf.66" }
%"struct.__gnu_cxx::__aligned_membuf.66" = type { [8 x i8] }
%"class.std::allocator.30" = type { i8 }
%"struct.std::_Rb_tree<unsigned int, std::pair<const unsigned int, float>, std::_Select1st<std::pair<const unsigned int, float>>, std::less<unsigned int>>::_Alloc_node" = type { ptr }
%"struct.std::_Rb_tree_node.69" = type { %"struct.std::_Rb_tree_node_base", %"struct.__gnu_cxx::__aligned_membuf.70" }
%"struct.__gnu_cxx::__aligned_membuf.70" = type { [8 x i8] }
%"class.std::allocator.35" = type { i8 }
%"struct.std::_Rb_tree<unsigned int, std::pair<const unsigned int, std::__cxx11::basic_string<char>>, std::_Select1st<std::pair<const unsigned int, std::__cxx11::basic_string<char>>>, std::less<unsigned int>>::_Alloc_node" = type { ptr }
%"struct.std::_Rb_tree_node.73" = type { %"struct.std::_Rb_tree_node_base", %"struct.__gnu_cxx::__aligned_membuf.74" }
%"struct.__gnu_cxx::__aligned_membuf.74" = type { [40 x i8] }
%"class.std::allocator.40" = type { i8 }
%"struct.std::_Rb_tree<unsigned int, std::pair<const unsigned int, aiMatrix4x4t<float>>, std::_Select1st<std::pair<const unsigned int, aiMatrix4x4t<float>>>, std::less<unsigned int>>::_Alloc_node" = type { ptr }
%"struct.std::_Rb_tree_node.77" = type <{ %"struct.std::_Rb_tree_node_base", %"struct.__gnu_cxx::__aligned_membuf.78", [4 x i8] }>
%"struct.__gnu_cxx::__aligned_membuf.78" = type { [68 x i8] }
%"class.std::allocator.45" = type { i8 }
%"struct.std::_Rb_tree<unsigned int, std::pair<const unsigned int, std::function<void *(void *)>>, std::_Select1st<std::pair<const unsigned int, std::function<void *(void *)>>>, std::less<unsigned int>>::_Alloc_node" = type { ptr }
%"class.__gnu_cxx::__normal_iterator.81" = type { ptr }
%"class.__gnu_cxx::__normal_iterator.82" = type { ptr }
%struct._Guard = type { ptr }
%"class.std::_Sp_counted_ptr.83" = type { %"class.std::_Sp_counted_base", ptr }
%"class.std::_Sp_counted_ptr.84" = type { %"class.std::_Sp_counted_base", ptr }
%"struct.std::_Select1st" = type { i8 }
%"struct.std::_Rb_tree<unsigned int, std::pair<const unsigned int, std::function<void *(void *)>>, std::_Select1st<std::pair<const unsigned int, std::function<void *(void *)>>>, std::less<unsigned int>>::_Auto_node" = type { ptr, ptr }
%"struct.std::_Select1st.99" = type { i8 }
%"struct.std::_Rb_tree<unsigned int, std::pair<const unsigned int, int>, std::_Select1st<std::pair<const unsigned int, int>>, std::less<unsigned int>>::_Auto_node" = type { ptr, ptr }
%"struct.std::_Select1st.108" = type { i8 }
%"struct.std::_Rb_tree<unsigned int, std::pair<const unsigned int, float>, std::_Select1st<std::pair<const unsigned int, float>>, std::less<unsigned int>>::_Auto_node" = type { ptr, ptr }
%"struct.std::_Select1st.117" = type { i8 }
%"struct.std::_Rb_tree<unsigned int, std::pair<const unsigned int, std::__cxx11::basic_string<char>>, std::_Select1st<std::pair<const unsigned int, std::__cxx11::basic_string<char>>>, std::less<unsigned int>>::_Auto_node" = type { ptr, ptr }
%"struct.std::_Select1st.126" = type { i8 }
%"struct.std::_Rb_tree<unsigned int, std::pair<const unsigned int, aiMatrix4x4t<float>>, std::_Select1st<std::pair<const unsigned int, aiMatrix4x4t<float>>>, std::less<unsigned int>>::_Auto_node" = type { ptr, ptr }

$_ZN6Assimp9LogStreamD0Ev = comdat any

$_ZN6Assimp6LoggerD0Ev = comdat any

$_ZN6Assimp8IOStreamD0Ev = comdat any

$_ZNSt6vectorINSt7__cxx1112basic_stringIcSt11char_traitsIcESaIcEEESaIS5_EED2Ev = comdat any

$_ZN6Assimp8IOSystemD0Ev = comdat any

$_ZN6Assimp12BlobIOSystem10OnDestructERKNSt7__cxx1112basic_stringIcSt11char_traitsIcESaIcEEEPNS_12BlobIOStreamE = comdat any

$__clang_call_terminate = comdat any

$_ZN6Assimp13ExporterPimplC2Ev = comdat any

$_ZN6Assimp22DefaultProgressHandlerC2Ev = comdat any

$_ZN6Assimp13ExporterPimplD2Ev = comdat any

$_ZNSt12__shared_ptrIN6Assimp8IOSystemELN9__gnu_cxx12_Lock_policyE2EE5resetIS1_EENSt9enable_ifIXsr21__sp_is_constructibleIS1_T_EE5valueEvE4typeEPS7_ = comdat any

$_ZNKSt12__shared_ptrIN6Assimp8IOSystemELN9__gnu_cxx12_Lock_policyE2EE3getEv = comdat any

$_ZN16aiExportDataBlobD2Ev = comdat any

$_ZNSt7__cxx1112basic_stringIcSt11char_traitsIcESaIcEEC2IS3_EEPKcRKS3_ = comdat any

$_ZNSt10shared_ptrIN6Assimp8IOSystemEEC2ERKS2_ = comdat any

$_ZN6Assimp12BlobIOSystemC2ERKNSt7__cxx1112basic_stringIcSt11char_traitsIcESaIcEEE = comdat any

$_ZNSt10shared_ptrIN6Assimp8IOSystemEEC2INS0_12BlobIOSystemEvEEPT_ = comdat any

$_ZNSt10shared_ptrIN6Assimp8IOSystemEEaSEOS2_ = comdat any

$_ZNSt10shared_ptrIN6Assimp8IOSystemEED2Ev = comdat any

$_ZNK6Assimp12BlobIOSystem16GetMagicFileNameEv = comdat any

$_ZNSt10shared_ptrIN6Assimp8IOSystemEEaSERKS2_ = comdat any

$_ZN6Assimp12BlobIOSystem12GetBlobChainEv = comdat any

$_ZNKSt6vectorIN6Assimp8Exporter17ExportFormatEntryESaIS2_EE4sizeEv = comdat any

$_ZNSt6vectorIN6Assimp8Exporter17ExportFormatEntryESaIS2_EEixEm = comdat any

$_ZNSt10unique_ptrI7aiSceneSt14default_deleteIS0_EEC2IS2_vEEPS0_ = comdat any

$_ZN6Assimp9ScenePrivEPK7aiScene = comdat any

$_ZNKSt6vectorIPN6Assimp11BaseProcessESaIS2_EE4sizeEv = comdat any

$_ZNSt6vectorIPN6Assimp11BaseProcessESaIS2_EEixEm = comdat any

$_ZN6Assimp24MakeVerboseFormatProcessC2Ev = comdat any

$_ZNKSt10unique_ptrI7aiSceneSt14default_deleteIS0_EE3getEv = comdat any

$_ZN6Assimp24MakeVerboseFormatProcessD2Ev = comdat any

$_ZN6Assimp23FlipWindingOrderProcessC2Ev = comdat any

$_ZN6Assimp23FlipWindingOrderProcessD2Ev = comdat any

$_ZN6Assimp21MakeLeftHandedProcessC2Ev = comdat any

$_ZN6Assimp21MakeLeftHandedProcessD2Ev = comdat any

$_ZNK6Assimp16ExportProperties15GetPropertyBoolEPKcb = comdat any

$_ZN6Assimp9ScenePrivEP7aiScene = comdat any

$_ZN6Assimp19JoinVerticesProcessC2Ev = comdat any

$_ZN6Assimp19JoinVerticesProcessD2Ev = comdat any

$_ZN6Assimp16ExportProperties15SetPropertyBoolEPKcb = comdat any

$_ZN6Assimp16ExportPropertiesD2Ev = comdat any

$_ZNSt10unique_ptrI7aiSceneSt14default_deleteIS0_EED2Ev = comdat any

$_ZStplIcSt11char_traitsIcESaIcEENSt7__cxx1112basic_stringIT_T0_T1_EEOS8_PKS5_ = comdat any

$_ZNK18ExceptionSwallowerI8aiReturnEclEv = comdat any

$_ZNSt6vectorIN6Assimp8Exporter17ExportFormatEntryESaIS2_EE5beginEv = comdat any

$_ZNSt6vectorIN6Assimp8Exporter17ExportFormatEntryESaIS2_EE3endEv = comdat any

$_ZN9__gnu_cxxneIPN6Assimp8Exporter17ExportFormatEntryESt6vectorIS3_SaIS3_EEEEbRKNS_17__normal_iteratorIT_T0_EESD_ = comdat any

$_ZNK9__gnu_cxx17__normal_iteratorIPN6Assimp8Exporter17ExportFormatEntryESt6vectorIS3_SaIS3_EEEdeEv = comdat any

$_ZN9__gnu_cxx17__normal_iteratorIPN6Assimp8Exporter17ExportFormatEntryESt6vectorIS3_SaIS3_EEEppEv = comdat any

$_ZNSt6vectorIN6Assimp8Exporter17ExportFormatEntryESaIS2_EE9push_backERKS2_ = comdat any

$_ZNSt6vectorIN6Assimp8Exporter17ExportFormatEntryESaIS2_EE5eraseEN9__gnu_cxx17__normal_iteratorIPKS2_S4_EE = comdat any

$_ZN9__gnu_cxx17__normal_iteratorIPKN6Assimp8Exporter17ExportFormatEntryESt6vectorIS3_SaIS3_EEEC2IPS3_vEERKNS0_IT_S8_EE = comdat any

$_ZNSt3mapIjiSt4lessIjESaISt4pairIKjiEEEC2Ev = comdat any

$_ZNSt3mapIjfSt4lessIjESaISt4pairIKjfEEEC2Ev = comdat any

$_ZNSt3mapIjNSt7__cxx1112basic_stringIcSt11char_traitsIcESaIcEEESt4lessIjESaISt4pairIKjS5_EEEC2Ev = comdat any

$_ZNSt3mapIj12aiMatrix4x4tIfESt4lessIjESaISt4pairIKjS1_EEEC2Ev = comdat any

$_ZNSt3mapIjSt8functionIFPvS1_EESt4lessIjESaISt4pairIKjS3_EEEC2Ev = comdat any

$_ZNSt3mapIjiSt4lessIjESaISt4pairIKjiEEEC2ERKS6_ = comdat any

$_ZNSt3mapIjfSt4lessIjESaISt4pairIKjfEEEC2ERKS6_ = comdat any

$_ZNSt3mapIjNSt7__cxx1112basic_stringIcSt11char_traitsIcESaIcEEESt4lessIjESaISt4pairIKjS5_EEEC2ERKSC_ = comdat any

$_ZNSt3mapIj12aiMatrix4x4tIfESt4lessIjESaISt4pairIKjS1_EEEC2ERKS8_ = comdat any

$_ZNSt3mapIjSt8functionIFPvS1_EESt4lessIjESaISt4pairIKjS3_EEEC2ERKSA_ = comdat any

$_ZNSt3mapIj12aiMatrix4x4tIfESt4lessIjESaISt4pairIKjS1_EEED2Ev = comdat any

$_ZNSt3mapIjNSt7__cxx1112basic_stringIcSt11char_traitsIcESaIcEEESt4lessIjESaISt4pairIKjS5_EEED2Ev = comdat any

$_ZNSt3mapIjfSt4lessIjESaISt4pairIKjfEEED2Ev = comdat any

$_ZNSt3mapIjiSt4lessIjESaISt4pairIKjiEEED2Ev = comdat any

$_Z18SetGenericPropertyISt8functionIFPvS1_EEEbRSt3mapIjT_St4lessIjESaISt4pairIKjS5_EEEPKcRKS5_ = comdat any

$_Z18GetGenericPropertyISt8functionIFPvS1_EEERKT_RKSt3mapIjS4_St4lessIjESaISt4pairIKjS4_EEEPKcS6_ = comdat any

$_ZNSt8functionIFPvS0_EEC2EDn = comdat any

$_ZNSt8functionIFPvS0_EEC2ERKS2_ = comdat any

$_ZNSt8functionIFPvS0_EED2Ev = comdat any

$_Z18HasGenericPropertyISt8functionIFPvS1_EEEbRKSt3mapIjT_St4lessIjESaISt4pairIKjS5_EEEPKc = comdat any

$_Z18SetGenericPropertyIiEbRSt3mapIjT_St4lessIjESaISt4pairIKjS1_EEEPKcRKS1_ = comdat any

$_Z18SetGenericPropertyIfEbRSt3mapIjT_St4lessIjESaISt4pairIKjS1_EEEPKcRKS1_ = comdat any

$_Z18SetGenericPropertyINSt7__cxx1112basic_stringIcSt11char_traitsIcESaIcEEEEbRSt3mapIjT_St4lessIjESaISt4pairIKjS7_EEEPKcRKS7_ = comdat any

$_Z18SetGenericPropertyI12aiMatrix4x4tIfEEbRSt3mapIjT_St4lessIjESaISt4pairIKjS3_EEEPKcRKS3_ = comdat any

$_Z18GetGenericPropertyIiERKT_RKSt3mapIjS0_St4lessIjESaISt4pairIKjS0_EEEPKcS2_ = comdat any

$_Z18GetGenericPropertyIfERKT_RKSt3mapIjS0_St4lessIjESaISt4pairIKjS0_EEEPKcS2_ = comdat any

$_Z18GetGenericPropertyINSt7__cxx1112basic_stringIcSt11char_traitsIcESaIcEEEERKT_RKSt3mapIjS6_St4lessIjESaISt4pairIKjS6_EEEPKcS8_ = comdat any

$_Z18GetGenericPropertyI12aiMatrix4x4tIfEERKT_RKSt3mapIjS2_St4lessIjESaISt4pairIKjS2_EEEPKcS4_ = comdat any

$_Z18HasGenericPropertyIiEbRKSt3mapIjT_St4lessIjESaISt4pairIKjS1_EEEPKc = comdat any

$_Z18HasGenericPropertyIfEbRKSt3mapIjT_St4lessIjESaISt4pairIKjS1_EEEPKc = comdat any

$_Z18HasGenericPropertyINSt7__cxx1112basic_stringIcSt11char_traitsIcESaIcEEEEbRKSt3mapIjT_St4lessIjESaISt4pairIKjS7_EEEPKc = comdat any

$_Z18HasGenericPropertyI12aiMatrix4x4tIfEEbRKSt3mapIjT_St4lessIjESaISt4pairIKjS3_EEEPKc = comdat any

$_ZN6Assimp9LogStreamD2Ev = comdat any

$_ZN6Assimp6LoggerD2Ev = comdat any

$_ZN6Assimp8IOStreamD2Ev = comdat any

$_ZN6Assimp8IOSystemD2Ev = comdat any

$_ZN6Assimp8IOSystem13PushDirectoryERKNSt7__cxx1112basic_stringIcSt11char_traitsIcESaIcEEE = comdat any

$_ZNK6Assimp8IOSystem9StackSizeEv = comdat any

$_ZN6Assimp8IOSystem12PopDirectoryEv = comdat any

$_ZN6Assimp8IOSystem15CreateDirectoryERKNSt7__cxx1112basic_stringIcSt11char_traitsIcESaIcEEE = comdat any

$_ZN6Assimp8IOSystem15ChangeDirectoryERKNSt7__cxx1112basic_stringIcSt11char_traitsIcESaIcEEE = comdat any

$_ZN6Assimp8IOSystem10DeleteFileERKNSt7__cxx1112basic_stringIcSt11char_traitsIcESaIcEEE = comdat any

$_ZN6Assimp12BlobIOStream4ReadEPvmm = comdat any

$_ZN6Assimp12BlobIOStream5WriteEPKvmm = comdat any

$_ZN6Assimp12BlobIOStream4SeekEm8aiOrigin = comdat any

$_ZNK6Assimp12BlobIOStream4TellEv = comdat any

$_ZNK6Assimp12BlobIOStream8FileSizeEv = comdat any

$_ZN6Assimp12BlobIOStream5FlushEv = comdat any

$_ZNSt6vectorISt4pairINSt7__cxx1112basic_stringIcSt11char_traitsIcESaIcEEEP16aiExportDataBlobESaIS9_EE12emplace_backIJRKS6_S8_EEERS9_DpOT_ = comdat any

$_ZN6Assimp12BlobIOStream7GetBlobEv = comdat any

$_ZNSt16allocator_traitsISaISt4pairINSt7__cxx1112basic_stringIcSt11char_traitsIcESaIcEEEP16aiExportDataBlobEEE9constructIS9_JRKS6_S8_EEEvRSA_PT_DpOT0_ = comdat any

$_ZNSt6vectorISt4pairINSt7__cxx1112basic_stringIcSt11char_traitsIcESaIcEEEP16aiExportDataBlobESaIS9_EE17_M_realloc_insertIJRKS6_S8_EEEvN9__gnu_cxx17__normal_iteratorIPS9_SB_EEDpOT_ = comdat any

$_ZNSt6vectorISt4pairINSt7__cxx1112basic_stringIcSt11char_traitsIcESaIcEEEP16aiExportDataBlobESaIS9_EE3endEv = comdat any

$_ZNSt6vectorISt4pairINSt7__cxx1112basic_stringIcSt11char_traitsIcESaIcEEEP16aiExportDataBlobESaIS9_EE4backEv = comdat any

$_ZNSt15__new_allocatorISt4pairINSt7__cxx1112basic_stringIcSt11char_traitsIcESaIcEEEP16aiExportDataBlobEE9constructIS9_JRKS6_S8_EEEvPT_DpOT0_ = comdat any

$_ZNSt4pairINSt7__cxx1112basic_stringIcSt11char_traitsIcESaIcEEEP16aiExportDataBlobEC2IRKS5_S7_TnNSt9enable_ifIXaaclsr5_PCCPE22_MoveConstructiblePairIT_T0_EEclsr5_PCCPE30_ImplicitlyMoveConvertiblePairISD_SE_EEEbE4typeELb1EEEOSD_OSE_ = comdat any

$_ZNKSt6vectorISt4pairINSt7__cxx1112basic_stringIcSt11char_traitsIcESaIcEEEP16aiExportDataBlobESaIS9_EE12_M_check_lenEmPKc = comdat any

$_ZN9__gnu_cxxmiIPSt4pairINSt7__cxx1112basic_stringIcSt11char_traitsIcESaIcEEEP16aiExportDataBlobESt6vectorISA_SaISA_EEEENS_17__normal_iteratorIT_T0_E15difference_typeERKSI_SL_ = comdat any

$_ZNSt6vectorISt4pairINSt7__cxx1112basic_stringIcSt11char_traitsIcESaIcEEEP16aiExportDataBlobESaIS9_EE5beginEv = comdat any

$_ZNSt12_Vector_baseISt4pairINSt7__cxx1112basic_stringIcSt11char_traitsIcESaIcEEEP16aiExportDataBlobESaIS9_EE11_M_allocateEm = comdat any

$_ZNSt6vectorISt4pairINSt7__cxx1112basic_stringIcSt11char_traitsIcESaIcEEEP16aiExportDataBlobESaIS9_EE11_S_relocateEPS9_SC_SC_RSA_ = comdat any

$_ZNK9__gnu_cxx17__normal_iteratorIPSt4pairINSt7__cxx1112basic_stringIcSt11char_traitsIcESaIcEEEP16aiExportDataBlobESt6vectorISA_SaISA_EEE4baseEv = comdat any

$_ZNSt12_Vector_baseISt4pairINSt7__cxx1112basic_stringIcSt11char_traitsIcESaIcEEEP16aiExportDataBlobESaIS9_EE19_M_get_Tp_allocatorEv = comdat any

$_ZNSt16allocator_traitsISaISt4pairINSt7__cxx1112basic_stringIcSt11char_traitsIcESaIcEEEP16aiExportDataBlobEEE7destroyIS9_EEvRSA_PT_ = comdat any

$_ZSt8_DestroyIPSt4pairINSt7__cxx1112basic_stringIcSt11char_traitsIcESaIcEEEP16aiExportDataBlobES9_EvT_SB_RSaIT0_E = comdat any

$_ZNSt12_Vector_baseISt4pairINSt7__cxx1112basic_stringIcSt11char_traitsIcESaIcEEEP16aiExportDataBlobESaIS9_EE13_M_deallocateEPS9_m = comdat any

$_ZNKSt6vectorISt4pairINSt7__cxx1112basic_stringIcSt11char_traitsIcESaIcEEEP16aiExportDataBlobESaIS9_EE8max_sizeEv = comdat any

$_ZNKSt6vectorISt4pairINSt7__cxx1112basic_stringIcSt11char_traitsIcESaIcEEEP16aiExportDataBlobESaIS9_EE4sizeEv = comdat any

$_ZSt3maxImERKT_S2_S2_ = comdat any

$_ZNSt6vectorISt4pairINSt7__cxx1112basic_stringIcSt11char_traitsIcESaIcEEEP16aiExportDataBlobESaIS9_EE11_S_max_sizeERKSA_ = comdat any

$_ZNKSt12_Vector_baseISt4pairINSt7__cxx1112basic_stringIcSt11char_traitsIcESaIcEEEP16aiExportDataBlobESaIS9_EE19_M_get_Tp_allocatorEv = comdat any

$_ZNSt16allocator_traitsISaISt4pairINSt7__cxx1112basic_stringIcSt11char_traitsIcESaIcEEEP16aiExportDataBlobEEE8max_sizeERKSA_ = comdat any

$_ZSt3minImERKT_S2_S2_ = comdat any

$_ZNKSt15__new_allocatorISt4pairINSt7__cxx1112basic_stringIcSt11char_traitsIcESaIcEEEP16aiExportDataBlobEE8max_sizeEv = comdat any

$_ZNKSt15__new_allocatorISt4pairINSt7__cxx1112basic_stringIcSt11char_traitsIcESaIcEEEP16aiExportDataBlobEE11_M_max_sizeEv = comdat any

$_ZN9__gnu_cxx17__normal_iteratorIPSt4pairINSt7__cxx1112basic_stringIcSt11char_traitsIcESaIcEEEP16aiExportDataBlobESt6vectorISA_SaISA_EEEC2ERKSB_ = comdat any

$_ZNSt16allocator_traitsISaISt4pairINSt7__cxx1112basic_stringIcSt11char_traitsIcESaIcEEEP16aiExportDataBlobEEE8allocateERSA_m = comdat any

$_ZNSt15__new_allocatorISt4pairINSt7__cxx1112basic_stringIcSt11char_traitsIcESaIcEEEP16aiExportDataBlobEE8allocateEmPKv = comdat any

$_ZSt12__relocate_aIPSt4pairINSt7__cxx1112basic_stringIcSt11char_traitsIcESaIcEEEP16aiExportDataBlobESA_SaIS9_EET0_T_SD_SC_RT1_ = comdat any

$_ZSt14__relocate_a_1IPSt4pairINSt7__cxx1112basic_stringIcSt11char_traitsIcESaIcEEEP16aiExportDataBlobESA_SaIS9_EET0_T_SD_SC_RT1_ = comdat any

$_ZSt12__niter_baseIPSt4pairINSt7__cxx1112basic_stringIcSt11char_traitsIcESaIcEEEP16aiExportDataBlobEET_SB_ = comdat any

$_ZSt19__relocate_object_aISt4pairINSt7__cxx1112basic_stringIcSt11char_traitsIcESaIcEEEP16aiExportDataBlobES9_SaIS9_EEvPT_PT0_RT1_ = comdat any

$_ZNSt16allocator_traitsISaISt4pairINSt7__cxx1112basic_stringIcSt11char_traitsIcESaIcEEEP16aiExportDataBlobEEE9constructIS9_JS9_EEEvRSA_PT_DpOT0_ = comdat any

$_ZNSt15__new_allocatorISt4pairINSt7__cxx1112basic_stringIcSt11char_traitsIcESaIcEEEP16aiExportDataBlobEE9constructIS9_JS9_EEEvPT_DpOT0_ = comdat any

$_ZNSt4pairINSt7__cxx1112basic_stringIcSt11char_traitsIcESaIcEEEP16aiExportDataBlobEC2EOS8_ = comdat any

$_ZNSt15__new_allocatorISt4pairINSt7__cxx1112basic_stringIcSt11char_traitsIcESaIcEEEP16aiExportDataBlobEE7destroyIS9_EEvPT_ = comdat any

$_ZNSt4pairINSt7__cxx1112basic_stringIcSt11char_traitsIcESaIcEEEP16aiExportDataBlobED2Ev = comdat any

$_ZSt8_DestroyIPSt4pairINSt7__cxx1112basic_stringIcSt11char_traitsIcESaIcEEEP16aiExportDataBlobEEvT_SB_ = comdat any

$_ZNSt12_Destroy_auxILb0EE9__destroyIPSt4pairINSt7__cxx1112basic_stringIcSt11char_traitsIcESaIcEEEP16aiExportDataBlobEEEvT_SD_ = comdat any

$_ZSt8_DestroyISt4pairINSt7__cxx1112basic_stringIcSt11char_traitsIcESaIcEEEP16aiExportDataBlobEEvPT_ = comdat any

$_ZNSt16allocator_traitsISaISt4pairINSt7__cxx1112basic_stringIcSt11char_traitsIcESaIcEEEP16aiExportDataBlobEEE10deallocateERSA_PS9_m = comdat any

$_ZNSt15__new_allocatorISt4pairINSt7__cxx1112basic_stringIcSt11char_traitsIcESaIcEEEP16aiExportDataBlobEE10deallocateEPS9_m = comdat any

$_ZNK9__gnu_cxx17__normal_iteratorIPSt4pairINSt7__cxx1112basic_stringIcSt11char_traitsIcESaIcEEEP16aiExportDataBlobESt6vectorISA_SaISA_EEEmiEl = comdat any

$_ZNK9__gnu_cxx17__normal_iteratorIPSt4pairINSt7__cxx1112basic_stringIcSt11char_traitsIcESaIcEEEP16aiExportDataBlobESt6vectorISA_SaISA_EEEdeEv = comdat any

$_ZN16aiExportDataBlobC2Ev = comdat any

$_ZN8aiStringC2Ev = comdat any

$_ZN6Assimp15DefaultIOSystemC2Ev = comdat any

$_ZNSt10shared_ptrIN6Assimp8IOSystemEEC2INS0_15DefaultIOSystemEvEEPT_ = comdat any

$_ZNSt6vectorIPN6Assimp11BaseProcessESaIS2_EEC2Ev = comdat any

$_ZNSt6vectorIN6Assimp8Exporter17ExportFormatEntryESaIS2_EEC2Ev = comdat any

$_ZNSt6vectorIN6Assimp8Exporter17ExportFormatEntryESaIS2_EED2Ev = comdat any

$_ZNSt6vectorIPN6Assimp11BaseProcessESaIS2_EED2Ev = comdat any

$_ZN6Assimp8IOSystemC2Ev = comdat any

$_ZNSt6vectorINSt7__cxx1112basic_stringIcSt11char_traitsIcESaIcEEESaIS5_EEC2Ev = comdat any

$_ZNSt12_Vector_baseINSt7__cxx1112basic_stringIcSt11char_traitsIcESaIcEEESaIS5_EEC2Ev = comdat any

$_ZNSt12_Vector_baseINSt7__cxx1112basic_stringIcSt11char_traitsIcESaIcEEESaIS5_EE12_Vector_implC2Ev = comdat any

$_ZNSaINSt7__cxx1112basic_stringIcSt11char_traitsIcESaIcEEEEC2Ev = comdat any

$_ZNSt12_Vector_baseINSt7__cxx1112basic_stringIcSt11char_traitsIcESaIcEEESaIS5_EE17_Vector_impl_dataC2Ev = comdat any

$_ZNSt15__new_allocatorINSt7__cxx1112basic_stringIcSt11char_traitsIcESaIcEEEEC2Ev = comdat any

$_ZNSt12__shared_ptrIN6Assimp8IOSystemELN9__gnu_cxx12_Lock_policyE2EEC2INS0_15DefaultIOSystemEvEEPT_ = comdat any

$_ZNSt14__shared_countILN9__gnu_cxx12_Lock_policyE2EEC2IPN6Assimp15DefaultIOSystemEEET_St17integral_constantIbLb0EE = comdat any

$_ZNSt12__shared_ptrIN6Assimp8IOSystemELN9__gnu_cxx12_Lock_policyE2EE31_M_enable_shared_from_this_withINS0_15DefaultIOSystemES6_EENSt9enable_ifIXntsr15__has_esft_baseIT0_EE5valueEvE4typeEPT_ = comdat any

$_ZNSt14__shared_countILN9__gnu_cxx12_Lock_policyE2EEC2IPN6Assimp15DefaultIOSystemEEET_ = comdat any

$_ZNSt15_Sp_counted_ptrIPN6Assimp15DefaultIOSystemELN9__gnu_cxx12_Lock_policyE2EEC2ES2_ = comdat any

$_ZNSt16_Sp_counted_baseILN9__gnu_cxx12_Lock_policyE2EEC2Ev = comdat any

$_ZNSt15_Sp_counted_ptrIPN6Assimp15DefaultIOSystemELN9__gnu_cxx12_Lock_policyE2EED2Ev = comdat any

$_ZNSt15_Sp_counted_ptrIPN6Assimp15DefaultIOSystemELN9__gnu_cxx12_Lock_policyE2EED0Ev = comdat any

$_ZNSt15_Sp_counted_ptrIPN6Assimp15DefaultIOSystemELN9__gnu_cxx12_Lock_policyE2EE10_M_disposeEv = comdat any

$_ZNSt15_Sp_counted_ptrIPN6Assimp15DefaultIOSystemELN9__gnu_cxx12_Lock_policyE2EE10_M_destroyEv = comdat any

$_ZNSt15_Sp_counted_ptrIPN6Assimp15DefaultIOSystemELN9__gnu_cxx12_Lock_policyE2EE14_M_get_deleterERKSt9type_info = comdat any

$_ZNSt16_Sp_counted_baseILN9__gnu_cxx12_Lock_policyE2EED2Ev = comdat any

$_ZNSt16_Sp_counted_baseILN9__gnu_cxx12_Lock_policyE2EED0Ev = comdat any

$_ZNSt16_Sp_counted_baseILN9__gnu_cxx12_Lock_policyE2EE10_M_destroyEv = comdat any

$_ZNSt12_Vector_baseIPN6Assimp11BaseProcessESaIS2_EEC2Ev = comdat any

$_ZNSt12_Vector_baseIPN6Assimp11BaseProcessESaIS2_EE12_Vector_implC2Ev = comdat any

$_ZNSaIPN6Assimp11BaseProcessEEC2Ev = comdat any

$_ZNSt12_Vector_baseIPN6Assimp11BaseProcessESaIS2_EE17_Vector_impl_dataC2Ev = comdat any

$_ZNSt15__new_allocatorIPN6Assimp11BaseProcessEEC2Ev = comdat any

$_ZNSt12_Vector_baseIN6Assimp8Exporter17ExportFormatEntryESaIS2_EEC2Ev = comdat any

$_ZNSt12_Vector_baseIN6Assimp8Exporter17ExportFormatEntryESaIS2_EE12_Vector_implC2Ev = comdat any

$_ZNSaIN6Assimp8Exporter17ExportFormatEntryEEC2Ev = comdat any

$_ZNSt12_Vector_baseIN6Assimp8Exporter17ExportFormatEntryESaIS2_EE17_Vector_impl_dataC2Ev = comdat any

$_ZNSt15__new_allocatorIN6Assimp8Exporter17ExportFormatEntryEEC2Ev = comdat any

$_ZNSt6vectorIN6Assimp8Exporter17ExportFormatEntryESaIS2_EE12emplace_backIJRA8_KcRA40_S6_RA4_S6_PFvPS6_PNS0_8IOSystemEPK7aiScenePKNS0_16ExportPropertiesEEEEERS2_DpOT_ = comdat any

$_ZNSt6vectorIN6Assimp8Exporter17ExportFormatEntryESaIS2_EE12emplace_backIJRA2_KcRA8_S6_S8_PFvPS6_PNS0_8IOSystemEPK7aiScenePKNS0_16ExportPropertiesEEjEEERS2_DpOT_ = comdat any

$_ZNSt6vectorIN6Assimp8Exporter17ExportFormatEntryESaIS2_EE12emplace_backIJRA4_KcRA11_S6_S8_PFvPS6_PNS0_8IOSystemEPK7aiScenePKNS0_16ExportPropertiesEEiEEERS2_DpOT_ = comdat any

$_ZNSt6vectorIN6Assimp8Exporter17ExportFormatEntryESaIS2_EE12emplace_backIJRA4_KcRA21_S6_S8_PFvPS6_PNS0_8IOSystemEPK7aiScenePKNS0_16ExportPropertiesEE18aiPostProcessStepsEEERS2_DpOT_ = comdat any

$_ZNSt6vectorIN6Assimp8Exporter17ExportFormatEntryESaIS2_EE12emplace_backIJRA9_KcRA43_S6_RA4_S6_PFvPS6_PNS0_8IOSystemEPK7aiScenePKNS0_16ExportPropertiesEE18aiPostProcessStepsEEERS2_DpOT_ = comdat any

$_ZNSt6vectorIN6Assimp8Exporter17ExportFormatEntryESaIS2_EE12emplace_backIJRA4_KcRA18_S6_S8_PFvPS6_PNS0_8IOSystemEPK7aiScenePKNS0_16ExportPropertiesEEjEEERS2_DpOT_ = comdat any

$_ZNSt6vectorIN6Assimp8Exporter17ExportFormatEntryESaIS2_EE12emplace_backIJRA5_KcRA27_S6_RA4_S6_PFvPS6_PNS0_8IOSystemEPK7aiScenePKNS0_16ExportPropertiesEEjEEERS2_DpOT_ = comdat any

$_ZNSt6vectorIN6Assimp8Exporter17ExportFormatEntryESaIS2_EE12emplace_backIJRA4_KcRA25_S6_S8_PFvPS6_PNS0_8IOSystemEPK7aiScenePKNS0_16ExportPropertiesEE18aiPostProcessStepsEEERS2_DpOT_ = comdat any

$_ZNSt6vectorIN6Assimp8Exporter17ExportFormatEntryESaIS2_EE12emplace_backIJRA5_KcRA34_S6_RA4_S6_PFvPS6_PNS0_8IOSystemEPK7aiScenePKNS0_16ExportPropertiesEE18aiPostProcessStepsEEERS2_DpOT_ = comdat any

$_ZNSt6vectorIN6Assimp8Exporter17ExportFormatEntryESaIS2_EE12emplace_backIJRA4_KcRA22_S6_S8_PFvPS6_PNS0_8IOSystemEPK7aiScenePKNS0_16ExportPropertiesEEjEEERS2_DpOT_ = comdat any

$_ZNSt6vectorIN6Assimp8Exporter17ExportFormatEntryESaIS2_EE12emplace_backIJRA6_KcRA28_S6_RA5_S6_PFvPS6_PNS0_8IOSystemEPK7aiScenePKNS0_16ExportPropertiesEEjEEERS2_DpOT_ = comdat any

$_ZNSt6vectorIN6Assimp8Exporter17ExportFormatEntryESaIS2_EE12emplace_backIJRA5_KcRA37_S6_RA4_S6_PFvPS6_PNS0_8IOSystemEPK7aiScenePKNS0_16ExportPropertiesEEjEEERS2_DpOT_ = comdat any

$_ZNSt6vectorIN6Assimp8Exporter17ExportFormatEntryESaIS2_EE12emplace_backIJRA5_KcRA23_S6_S8_PFvPS6_PNS0_8IOSystemEPK7aiScenePKNS0_16ExportPropertiesEEjEEERS2_DpOT_ = comdat any

$_ZNSt6vectorIN6Assimp8Exporter17ExportFormatEntryESaIS2_EE12emplace_backIJRA4_KcRA32_S6_S8_PFvPS6_PNS0_8IOSystemEPK7aiScenePKNS0_16ExportPropertiesEEjEEERS2_DpOT_ = comdat any

$_ZNSt6vectorIN6Assimp8Exporter17ExportFormatEntryESaIS2_EE12emplace_backIJRA7_KcRA19_S6_S8_PFvPS6_PNS0_8IOSystemEPK7aiScenePKNS0_16ExportPropertiesEEiEEERS2_DpOT_ = comdat any

$_ZNSt6vectorIN6Assimp8Exporter17ExportFormatEntryESaIS2_EE12emplace_backIJRA7_KcRA20_S6_S8_PFvPS6_PNS0_8IOSystemEPK7aiScenePKNS0_16ExportPropertiesEEiEEERS2_DpOT_ = comdat any

$_ZNSt6vectorIN6Assimp8Exporter17ExportFormatEntryESaIS2_EE12emplace_backIJRA4_KcRA14_S6_S8_PFvPS6_PNS0_8IOSystemEPK7aiScenePKNS0_16ExportPropertiesEEiEEERS2_DpOT_ = comdat any

$_ZNSt6vectorIN6Assimp8Exporter17ExportFormatEntryESaIS2_EE12emplace_backIJRA4_KcRA22_S6_S8_PFvPS6_PNS0_8IOSystemEPK7aiScenePKNS0_16ExportPropertiesEEiEEERS2_DpOT_ = comdat any

$_ZNSt6vectorIN6Assimp8Exporter17ExportFormatEntryESaIS2_EE12emplace_backIJRA5_KcRA21_S6_RA4_S6_PFvPS6_PNS0_8IOSystemEPK7aiScenePKNS0_16ExportPropertiesEEiEEERS2_DpOT_ = comdat any

$_ZNSt6vectorIN6Assimp8Exporter17ExportFormatEntryESaIS2_EE12emplace_backIJRA4_KcRA20_S6_S8_PFvPS6_PNS0_8IOSystemEPK7aiScenePKNS0_16ExportPropertiesEEiEEERS2_DpOT_ = comdat any

$_ZNSt6vectorIN6Assimp8Exporter17ExportFormatEntryESaIS2_EE12emplace_backIJRA5_KcRA31_S6_S8_PFvPS6_PNS0_8IOSystemEPK7aiScenePKNS0_16ExportPropertiesEEjEEERS2_DpOT_ = comdat any

$_ZNSt6vectorIN6Assimp8Exporter17ExportFormatEntryESaIS2_EE12emplace_backIJRA8_KcRA21_S6_RA5_S6_PFvPS6_PNS0_8IOSystemEPK7aiScenePKNS0_16ExportPropertiesEEiEEERS2_DpOT_ = comdat any

$_ZNSt16allocator_traitsISaIN6Assimp8Exporter17ExportFormatEntryEEE9constructIS2_JRA8_KcRA40_S6_RA4_S6_PFvPS6_PNS0_8IOSystemEPK7aiScenePKNS0_16ExportPropertiesEEEEEvRS3_PT_DpOT0_ = comdat any

$_ZNSt6vectorIN6Assimp8Exporter17ExportFormatEntryESaIS2_EE17_M_realloc_insertIJRA8_KcRA40_S6_RA4_S6_PFvPS6_PNS0_8IOSystemEPK7aiScenePKNS0_16ExportPropertiesEEEEEvN9__gnu_cxx17__normal_iteratorIPS2_S4_EEDpOT_ = comdat any

$_ZNSt6vectorIN6Assimp8Exporter17ExportFormatEntryESaIS2_EE4backEv = comdat any

$_ZNSt15__new_allocatorIN6Assimp8Exporter17ExportFormatEntryEE9constructIS2_JRA8_KcRA40_S5_RA4_S5_PFvPS5_PNS0_8IOSystemEPK7aiScenePKNS0_16ExportPropertiesEEEEEvPT_DpOT0_ = comdat any

$_ZN6Assimp8Exporter17ExportFormatEntryC2EPKcS3_S3_PFvS3_PNS_8IOSystemEPK7aiScenePKNS_16ExportPropertiesEEj = comdat any

$_ZNKSt6vectorIN6Assimp8Exporter17ExportFormatEntryESaIS2_EE12_M_check_lenEmPKc = comdat any

$_ZN9__gnu_cxxmiIPN6Assimp8Exporter17ExportFormatEntryESt6vectorIS3_SaIS3_EEEENS_17__normal_iteratorIT_T0_E15difference_typeERKSB_SE_ = comdat any

$_ZNSt12_Vector_baseIN6Assimp8Exporter17ExportFormatEntryESaIS2_EE11_M_allocateEm = comdat any

$_ZNSt6vectorIN6Assimp8Exporter17ExportFormatEntryESaIS2_EE11_S_relocateEPS2_S5_S5_RS3_ = comdat any

$_ZNK9__gnu_cxx17__normal_iteratorIPN6Assimp8Exporter17ExportFormatEntryESt6vectorIS3_SaIS3_EEE4baseEv = comdat any

$_ZNSt12_Vector_baseIN6Assimp8Exporter17ExportFormatEntryESaIS2_EE19_M_get_Tp_allocatorEv = comdat any

$_ZNSt16allocator_traitsISaIN6Assimp8Exporter17ExportFormatEntryEEE7destroyIS2_EEvRS3_PT_ = comdat any

$_ZSt8_DestroyIPN6Assimp8Exporter17ExportFormatEntryES2_EvT_S4_RSaIT0_E = comdat any

$_ZNSt12_Vector_baseIN6Assimp8Exporter17ExportFormatEntryESaIS2_EE13_M_deallocateEPS2_m = comdat any

$_ZNKSt6vectorIN6Assimp8Exporter17ExportFormatEntryESaIS2_EE8max_sizeEv = comdat any

$_ZNSt6vectorIN6Assimp8Exporter17ExportFormatEntryESaIS2_EE11_S_max_sizeERKS3_ = comdat any

$_ZNKSt12_Vector_baseIN6Assimp8Exporter17ExportFormatEntryESaIS2_EE19_M_get_Tp_allocatorEv = comdat any

$_ZNSt16allocator_traitsISaIN6Assimp8Exporter17ExportFormatEntryEEE8max_sizeERKS3_ = comdat any

$_ZNKSt15__new_allocatorIN6Assimp8Exporter17ExportFormatEntryEE8max_sizeEv = comdat any

$_ZNKSt15__new_allocatorIN6Assimp8Exporter17ExportFormatEntryEE11_M_max_sizeEv = comdat any

$_ZNSt16allocator_traitsISaIN6Assimp8Exporter17ExportFormatEntryEEE8allocateERS3_m = comdat any

$_ZNSt15__new_allocatorIN6Assimp8Exporter17ExportFormatEntryEE8allocateEmPKv = comdat any

$_ZSt12__relocate_aIPN6Assimp8Exporter17ExportFormatEntryES3_SaIS2_EET0_T_S6_S5_RT1_ = comdat any

$_ZSt14__relocate_a_1IPN6Assimp8Exporter17ExportFormatEntryES3_SaIS2_EET0_T_S6_S5_RT1_ = comdat any

$_ZSt12__niter_baseIPN6Assimp8Exporter17ExportFormatEntryEET_S4_ = comdat any

$_ZSt19__relocate_object_aIN6Assimp8Exporter17ExportFormatEntryES2_SaIS2_EEvPT_PT0_RT1_ = comdat any

$_ZNSt16allocator_traitsISaIN6Assimp8Exporter17ExportFormatEntryEEE9constructIS2_JS2_EEEvRS3_PT_DpOT0_ = comdat any

$_ZNSt15__new_allocatorIN6Assimp8Exporter17ExportFormatEntryEE9constructIS2_JS2_EEEvPT_DpOT0_ = comdat any

$_ZNSt15__new_allocatorIN6Assimp8Exporter17ExportFormatEntryEE7destroyIS2_EEvPT_ = comdat any

$_ZSt8_DestroyIPN6Assimp8Exporter17ExportFormatEntryEEvT_S4_ = comdat any

$_ZNSt12_Destroy_auxILb1EE9__destroyIPN6Assimp8Exporter17ExportFormatEntryEEEvT_S6_ = comdat any

$_ZNSt16allocator_traitsISaIN6Assimp8Exporter17ExportFormatEntryEEE10deallocateERS3_PS2_m = comdat any

$_ZNSt15__new_allocatorIN6Assimp8Exporter17ExportFormatEntryEE10deallocateEPS2_m = comdat any

$_ZNK9__gnu_cxx17__normal_iteratorIPN6Assimp8Exporter17ExportFormatEntryESt6vectorIS3_SaIS3_EEEmiEl = comdat any

$_ZN9__gnu_cxx17__normal_iteratorIPN6Assimp8Exporter17ExportFormatEntryESt6vectorIS3_SaIS3_EEEC2ERKS4_ = comdat any

$_ZNSt16allocator_traitsISaIN6Assimp8Exporter17ExportFormatEntryEEE9constructIS2_JRA2_KcRA8_S6_S8_PFvPS6_PNS0_8IOSystemEPK7aiScenePKNS0_16ExportPropertiesEEjEEEvRS3_PT_DpOT0_ = comdat any

$_ZNSt6vectorIN6Assimp8Exporter17ExportFormatEntryESaIS2_EE17_M_realloc_insertIJRA2_KcRA8_S6_S8_PFvPS6_PNS0_8IOSystemEPK7aiScenePKNS0_16ExportPropertiesEEjEEEvN9__gnu_cxx17__normal_iteratorIPS2_S4_EEDpOT_ = comdat any

$_ZNSt15__new_allocatorIN6Assimp8Exporter17ExportFormatEntryEE9constructIS2_JRA2_KcRA8_S5_S7_PFvPS5_PNS0_8IOSystemEPK7aiScenePKNS0_16ExportPropertiesEEjEEEvPT_DpOT0_ = comdat any

$_ZNSt16allocator_traitsISaIN6Assimp8Exporter17ExportFormatEntryEEE9constructIS2_JRA4_KcRA11_S6_S8_PFvPS6_PNS0_8IOSystemEPK7aiScenePKNS0_16ExportPropertiesEEiEEEvRS3_PT_DpOT0_ = comdat any

$_ZNSt6vectorIN6Assimp8Exporter17ExportFormatEntryESaIS2_EE17_M_realloc_insertIJRA4_KcRA11_S6_S8_PFvPS6_PNS0_8IOSystemEPK7aiScenePKNS0_16ExportPropertiesEEiEEEvN9__gnu_cxx17__normal_iteratorIPS2_S4_EEDpOT_ = comdat any

$_ZNSt15__new_allocatorIN6Assimp8Exporter17ExportFormatEntryEE9constructIS2_JRA4_KcRA11_S5_S7_PFvPS5_PNS0_8IOSystemEPK7aiScenePKNS0_16ExportPropertiesEEiEEEvPT_DpOT0_ = comdat any

$_ZNSt16allocator_traitsISaIN6Assimp8Exporter17ExportFormatEntryEEE9constructIS2_JRA4_KcRA21_S6_S8_PFvPS6_PNS0_8IOSystemEPK7aiScenePKNS0_16ExportPropertiesEE18aiPostProcessStepsEEEvRS3_PT_DpOT0_ = comdat any

$_ZNSt6vectorIN6Assimp8Exporter17ExportFormatEntryESaIS2_EE17_M_realloc_insertIJRA4_KcRA21_S6_S8_PFvPS6_PNS0_8IOSystemEPK7aiScenePKNS0_16ExportPropertiesEE18aiPostProcessStepsEEEvN9__gnu_cxx17__normal_iteratorIPS2_S4_EEDpOT_ = comdat any

$_ZNSt15__new_allocatorIN6Assimp8Exporter17ExportFormatEntryEE9constructIS2_JRA4_KcRA21_S5_S7_PFvPS5_PNS0_8IOSystemEPK7aiScenePKNS0_16ExportPropertiesEE18aiPostProcessStepsEEEvPT_DpOT0_ = comdat any

$_ZNSt16allocator_traitsISaIN6Assimp8Exporter17ExportFormatEntryEEE9constructIS2_JRA9_KcRA43_S6_RA4_S6_PFvPS6_PNS0_8IOSystemEPK7aiScenePKNS0_16ExportPropertiesEE18aiPostProcessStepsEEEvRS3_PT_DpOT0_ = comdat any

$_ZNSt6vectorIN6Assimp8Exporter17ExportFormatEntryESaIS2_EE17_M_realloc_insertIJRA9_KcRA43_S6_RA4_S6_PFvPS6_PNS0_8IOSystemEPK7aiScenePKNS0_16ExportPropertiesEE18aiPostProcessStepsEEEvN9__gnu_cxx17__normal_iteratorIPS2_S4_EEDpOT_ = comdat any

$_ZNSt15__new_allocatorIN6Assimp8Exporter17ExportFormatEntryEE9constructIS2_JRA9_KcRA43_S5_RA4_S5_PFvPS5_PNS0_8IOSystemEPK7aiScenePKNS0_16ExportPropertiesEE18aiPostProcessStepsEEEvPT_DpOT0_ = comdat any

$_ZNSt16allocator_traitsISaIN6Assimp8Exporter17ExportFormatEntryEEE9constructIS2_JRA4_KcRA18_S6_S8_PFvPS6_PNS0_8IOSystemEPK7aiScenePKNS0_16ExportPropertiesEEjEEEvRS3_PT_DpOT0_ = comdat any

$_ZNSt6vectorIN6Assimp8Exporter17ExportFormatEntryESaIS2_EE17_M_realloc_insertIJRA4_KcRA18_S6_S8_PFvPS6_PNS0_8IOSystemEPK7aiScenePKNS0_16ExportPropertiesEEjEEEvN9__gnu_cxx17__normal_iteratorIPS2_S4_EEDpOT_ = comdat any

$_ZNSt15__new_allocatorIN6Assimp8Exporter17ExportFormatEntryEE9constructIS2_JRA4_KcRA18_S5_S7_PFvPS5_PNS0_8IOSystemEPK7aiScenePKNS0_16ExportPropertiesEEjEEEvPT_DpOT0_ = comdat any

$_ZNSt16allocator_traitsISaIN6Assimp8Exporter17ExportFormatEntryEEE9constructIS2_JRA5_KcRA27_S6_RA4_S6_PFvPS6_PNS0_8IOSystemEPK7aiScenePKNS0_16ExportPropertiesEEjEEEvRS3_PT_DpOT0_ = comdat any

$_ZNSt6vectorIN6Assimp8Exporter17ExportFormatEntryESaIS2_EE17_M_realloc_insertIJRA5_KcRA27_S6_RA4_S6_PFvPS6_PNS0_8IOSystemEPK7aiScenePKNS0_16ExportPropertiesEEjEEEvN9__gnu_cxx17__normal_iteratorIPS2_S4_EEDpOT_ = comdat any

$_ZNSt15__new_allocatorIN6Assimp8Exporter17ExportFormatEntryEE9constructIS2_JRA5_KcRA27_S5_RA4_S5_PFvPS5_PNS0_8IOSystemEPK7aiScenePKNS0_16ExportPropertiesEEjEEEvPT_DpOT0_ = comdat any

$_ZNSt16allocator_traitsISaIN6Assimp8Exporter17ExportFormatEntryEEE9constructIS2_JRA4_KcRA25_S6_S8_PFvPS6_PNS0_8IOSystemEPK7aiScenePKNS0_16ExportPropertiesEE18aiPostProcessStepsEEEvRS3_PT_DpOT0_ = comdat any

$_ZNSt6vectorIN6Assimp8Exporter17ExportFormatEntryESaIS2_EE17_M_realloc_insertIJRA4_KcRA25_S6_S8_PFvPS6_PNS0_8IOSystemEPK7aiScenePKNS0_16ExportPropertiesEE18aiPostProcessStepsEEEvN9__gnu_cxx17__normal_iteratorIPS2_S4_EEDpOT_ = comdat any

$_ZNSt15__new_allocatorIN6Assimp8Exporter17ExportFormatEntryEE9constructIS2_JRA4_KcRA25_S5_S7_PFvPS5_PNS0_8IOSystemEPK7aiScenePKNS0_16ExportPropertiesEE18aiPostProcessStepsEEEvPT_DpOT0_ = comdat any

$_ZNSt16allocator_traitsISaIN6Assimp8Exporter17ExportFormatEntryEEE9constructIS2_JRA5_KcRA34_S6_RA4_S6_PFvPS6_PNS0_8IOSystemEPK7aiScenePKNS0_16ExportPropertiesEE18aiPostProcessStepsEEEvRS3_PT_DpOT0_ = comdat any

$_ZNSt6vectorIN6Assimp8Exporter17ExportFormatEntryESaIS2_EE17_M_realloc_insertIJRA5_KcRA34_S6_RA4_S6_PFvPS6_PNS0_8IOSystemEPK7aiScenePKNS0_16ExportPropertiesEE18aiPostProcessStepsEEEvN9__gnu_cxx17__normal_iteratorIPS2_S4_EEDpOT_ = comdat any

$_ZNSt15__new_allocatorIN6Assimp8Exporter17ExportFormatEntryEE9constructIS2_JRA5_KcRA34_S5_RA4_S5_PFvPS5_PNS0_8IOSystemEPK7aiScenePKNS0_16ExportPropertiesEE18aiPostProcessStepsEEEvPT_DpOT0_ = comdat any

$_ZNSt16allocator_traitsISaIN6Assimp8Exporter17ExportFormatEntryEEE9constructIS2_JRA4_KcRA22_S6_S8_PFvPS6_PNS0_8IOSystemEPK7aiScenePKNS0_16ExportPropertiesEEjEEEvRS3_PT_DpOT0_ = comdat any

$_ZNSt6vectorIN6Assimp8Exporter17ExportFormatEntryESaIS2_EE17_M_realloc_insertIJRA4_KcRA22_S6_S8_PFvPS6_PNS0_8IOSystemEPK7aiScenePKNS0_16ExportPropertiesEEjEEEvN9__gnu_cxx17__normal_iteratorIPS2_S4_EEDpOT_ = comdat any

$_ZNSt15__new_allocatorIN6Assimp8Exporter17ExportFormatEntryEE9constructIS2_JRA4_KcRA22_S5_S7_PFvPS5_PNS0_8IOSystemEPK7aiScenePKNS0_16ExportPropertiesEEjEEEvPT_DpOT0_ = comdat any

$_ZNSt16allocator_traitsISaIN6Assimp8Exporter17ExportFormatEntryEEE9constructIS2_JRA6_KcRA28_S6_RA5_S6_PFvPS6_PNS0_8IOSystemEPK7aiScenePKNS0_16ExportPropertiesEEjEEEvRS3_PT_DpOT0_ = comdat any

$_ZNSt6vectorIN6Assimp8Exporter17ExportFormatEntryESaIS2_EE17_M_realloc_insertIJRA6_KcRA28_S6_RA5_S6_PFvPS6_PNS0_8IOSystemEPK7aiScenePKNS0_16ExportPropertiesEEjEEEvN9__gnu_cxx17__normal_iteratorIPS2_S4_EEDpOT_ = comdat any

$_ZNSt15__new_allocatorIN6Assimp8Exporter17ExportFormatEntryEE9constructIS2_JRA6_KcRA28_S5_RA5_S5_PFvPS5_PNS0_8IOSystemEPK7aiScenePKNS0_16ExportPropertiesEEjEEEvPT_DpOT0_ = comdat any

$_ZNSt16allocator_traitsISaIN6Assimp8Exporter17ExportFormatEntryEEE9constructIS2_JRA5_KcRA37_S6_RA4_S6_PFvPS6_PNS0_8IOSystemEPK7aiScenePKNS0_16ExportPropertiesEEjEEEvRS3_PT_DpOT0_ = comdat any

$_ZNSt6vectorIN6Assimp8Exporter17ExportFormatEntryESaIS2_EE17_M_realloc_insertIJRA5_KcRA37_S6_RA4_S6_PFvPS6_PNS0_8IOSystemEPK7aiScenePKNS0_16ExportPropertiesEEjEEEvN9__gnu_cxx17__normal_iteratorIPS2_S4_EEDpOT_ = comdat any

$_ZNSt15__new_allocatorIN6Assimp8Exporter17ExportFormatEntryEE9constructIS2_JRA5_KcRA37_S5_RA4_S5_PFvPS5_PNS0_8IOSystemEPK7aiScenePKNS0_16ExportPropertiesEEjEEEvPT_DpOT0_ = comdat any

$_ZNSt16allocator_traitsISaIN6Assimp8Exporter17ExportFormatEntryEEE9constructIS2_JRA5_KcRA23_S6_S8_PFvPS6_PNS0_8IOSystemEPK7aiScenePKNS0_16ExportPropertiesEEjEEEvRS3_PT_DpOT0_ = comdat any

$_ZNSt6vectorIN6Assimp8Exporter17ExportFormatEntryESaIS2_EE17_M_realloc_insertIJRA5_KcRA23_S6_S8_PFvPS6_PNS0_8IOSystemEPK7aiScenePKNS0_16ExportPropertiesEEjEEEvN9__gnu_cxx17__normal_iteratorIPS2_S4_EEDpOT_ = comdat any

$_ZNSt15__new_allocatorIN6Assimp8Exporter17ExportFormatEntryEE9constructIS2_JRA5_KcRA23_S5_S7_PFvPS5_PNS0_8IOSystemEPK7aiScenePKNS0_16ExportPropertiesEEjEEEvPT_DpOT0_ = comdat any

$_ZNSt16allocator_traitsISaIN6Assimp8Exporter17ExportFormatEntryEEE9constructIS2_JRA4_KcRA32_S6_S8_PFvPS6_PNS0_8IOSystemEPK7aiScenePKNS0_16ExportPropertiesEEjEEEvRS3_PT_DpOT0_ = comdat any

$_ZNSt6vectorIN6Assimp8Exporter17ExportFormatEntryESaIS2_EE17_M_realloc_insertIJRA4_KcRA32_S6_S8_PFvPS6_PNS0_8IOSystemEPK7aiScenePKNS0_16ExportPropertiesEEjEEEvN9__gnu_cxx17__normal_iteratorIPS2_S4_EEDpOT_ = comdat any

$_ZNSt15__new_allocatorIN6Assimp8Exporter17ExportFormatEntryEE9constructIS2_JRA4_KcRA32_S5_S7_PFvPS5_PNS0_8IOSystemEPK7aiScenePKNS0_16ExportPropertiesEEjEEEvPT_DpOT0_ = comdat any

$_ZNSt16allocator_traitsISaIN6Assimp8Exporter17ExportFormatEntryEEE9constructIS2_JRA7_KcRA19_S6_S8_PFvPS6_PNS0_8IOSystemEPK7aiScenePKNS0_16ExportPropertiesEEiEEEvRS3_PT_DpOT0_ = comdat any

$_ZNSt6vectorIN6Assimp8Exporter17ExportFormatEntryESaIS2_EE17_M_realloc_insertIJRA7_KcRA19_S6_S8_PFvPS6_PNS0_8IOSystemEPK7aiScenePKNS0_16ExportPropertiesEEiEEEvN9__gnu_cxx17__normal_iteratorIPS2_S4_EEDpOT_ = comdat any

$_ZNSt15__new_allocatorIN6Assimp8Exporter17ExportFormatEntryEE9constructIS2_JRA7_KcRA19_S5_S7_PFvPS5_PNS0_8IOSystemEPK7aiScenePKNS0_16ExportPropertiesEEiEEEvPT_DpOT0_ = comdat any

$_ZNSt16allocator_traitsISaIN6Assimp8Exporter17ExportFormatEntryEEE9constructIS2_JRA7_KcRA20_S6_S8_PFvPS6_PNS0_8IOSystemEPK7aiScenePKNS0_16ExportPropertiesEEiEEEvRS3_PT_DpOT0_ = comdat any

$_ZNSt6vectorIN6Assimp8Exporter17ExportFormatEntryESaIS2_EE17_M_realloc_insertIJRA7_KcRA20_S6_S8_PFvPS6_PNS0_8IOSystemEPK7aiScenePKNS0_16ExportPropertiesEEiEEEvN9__gnu_cxx17__normal_iteratorIPS2_S4_EEDpOT_ = comdat any

$_ZNSt15__new_allocatorIN6Assimp8Exporter17ExportFormatEntryEE9constructIS2_JRA7_KcRA20_S5_S7_PFvPS5_PNS0_8IOSystemEPK7aiScenePKNS0_16ExportPropertiesEEiEEEvPT_DpOT0_ = comdat any

$_ZNSt16allocator_traitsISaIN6Assimp8Exporter17ExportFormatEntryEEE9constructIS2_JRA4_KcRA14_S6_S8_PFvPS6_PNS0_8IOSystemEPK7aiScenePKNS0_16ExportPropertiesEEiEEEvRS3_PT_DpOT0_ = comdat any

$_ZNSt6vectorIN6Assimp8Exporter17ExportFormatEntryESaIS2_EE17_M_realloc_insertIJRA4_KcRA14_S6_S8_PFvPS6_PNS0_8IOSystemEPK7aiScenePKNS0_16ExportPropertiesEEiEEEvN9__gnu_cxx17__normal_iteratorIPS2_S4_EEDpOT_ = comdat any

$_ZNSt15__new_allocatorIN6Assimp8Exporter17ExportFormatEntryEE9constructIS2_JRA4_KcRA14_S5_S7_PFvPS5_PNS0_8IOSystemEPK7aiScenePKNS0_16ExportPropertiesEEiEEEvPT_DpOT0_ = comdat any

$_ZNSt16allocator_traitsISaIN6Assimp8Exporter17ExportFormatEntryEEE9constructIS2_JRA4_KcRA22_S6_S8_PFvPS6_PNS0_8IOSystemEPK7aiScenePKNS0_16ExportPropertiesEEiEEEvRS3_PT_DpOT0_ = comdat any

$_ZNSt6vectorIN6Assimp8Exporter17ExportFormatEntryESaIS2_EE17_M_realloc_insertIJRA4_KcRA22_S6_S8_PFvPS6_PNS0_8IOSystemEPK7aiScenePKNS0_16ExportPropertiesEEiEEEvN9__gnu_cxx17__normal_iteratorIPS2_S4_EEDpOT_ = comdat any

$_ZNSt15__new_allocatorIN6Assimp8Exporter17ExportFormatEntryEE9constructIS2_JRA4_KcRA22_S5_S7_PFvPS5_PNS0_8IOSystemEPK7aiScenePKNS0_16ExportPropertiesEEiEEEvPT_DpOT0_ = comdat any

$_ZNSt16allocator_traitsISaIN6Assimp8Exporter17ExportFormatEntryEEE9constructIS2_JRA5_KcRA21_S6_RA4_S6_PFvPS6_PNS0_8IOSystemEPK7aiScenePKNS0_16ExportPropertiesEEiEEEvRS3_PT_DpOT0_ = comdat any

$_ZNSt6vectorIN6Assimp8Exporter17ExportFormatEntryESaIS2_EE17_M_realloc_insertIJRA5_KcRA21_S6_RA4_S6_PFvPS6_PNS0_8IOSystemEPK7aiScenePKNS0_16ExportPropertiesEEiEEEvN9__gnu_cxx17__normal_iteratorIPS2_S4_EEDpOT_ = comdat any

$_ZNSt15__new_allocatorIN6Assimp8Exporter17ExportFormatEntryEE9constructIS2_JRA5_KcRA21_S5_RA4_S5_PFvPS5_PNS0_8IOSystemEPK7aiScenePKNS0_16ExportPropertiesEEiEEEvPT_DpOT0_ = comdat any

$_ZNSt16allocator_traitsISaIN6Assimp8Exporter17ExportFormatEntryEEE9constructIS2_JRA4_KcRA20_S6_S8_PFvPS6_PNS0_8IOSystemEPK7aiScenePKNS0_16ExportPropertiesEEiEEEvRS3_PT_DpOT0_ = comdat any

$_ZNSt6vectorIN6Assimp8Exporter17ExportFormatEntryESaIS2_EE17_M_realloc_insertIJRA4_KcRA20_S6_S8_PFvPS6_PNS0_8IOSystemEPK7aiScenePKNS0_16ExportPropertiesEEiEEEvN9__gnu_cxx17__normal_iteratorIPS2_S4_EEDpOT_ = comdat any

$_ZNSt15__new_allocatorIN6Assimp8Exporter17ExportFormatEntryEE9constructIS2_JRA4_KcRA20_S5_S7_PFvPS5_PNS0_8IOSystemEPK7aiScenePKNS0_16ExportPropertiesEEiEEEvPT_DpOT0_ = comdat any

$_ZNSt16allocator_traitsISaIN6Assimp8Exporter17ExportFormatEntryEEE9constructIS2_JRA5_KcRA31_S6_S8_PFvPS6_PNS0_8IOSystemEPK7aiScenePKNS0_16ExportPropertiesEEjEEEvRS3_PT_DpOT0_ = comdat any

$_ZNSt6vectorIN6Assimp8Exporter17ExportFormatEntryESaIS2_EE17_M_realloc_insertIJRA5_KcRA31_S6_S8_PFvPS6_PNS0_8IOSystemEPK7aiScenePKNS0_16ExportPropertiesEEjEEEvN9__gnu_cxx17__normal_iteratorIPS2_S4_EEDpOT_ = comdat any

$_ZNSt15__new_allocatorIN6Assimp8Exporter17ExportFormatEntryEE9constructIS2_JRA5_KcRA31_S5_S7_PFvPS5_PNS0_8IOSystemEPK7aiScenePKNS0_16ExportPropertiesEEjEEEvPT_DpOT0_ = comdat any

$_ZNSt16allocator_traitsISaIN6Assimp8Exporter17ExportFormatEntryEEE9constructIS2_JRA8_KcRA21_S6_RA5_S6_PFvPS6_PNS0_8IOSystemEPK7aiScenePKNS0_16ExportPropertiesEEiEEEvRS3_PT_DpOT0_ = comdat any

$_ZNSt6vectorIN6Assimp8Exporter17ExportFormatEntryESaIS2_EE17_M_realloc_insertIJRA8_KcRA21_S6_RA5_S6_PFvPS6_PNS0_8IOSystemEPK7aiScenePKNS0_16ExportPropertiesEEiEEEvN9__gnu_cxx17__normal_iteratorIPS2_S4_EEDpOT_ = comdat any

$_ZNSt15__new_allocatorIN6Assimp8Exporter17ExportFormatEntryEE9constructIS2_JRA8_KcRA21_S5_RA5_S5_PFvPS5_PNS0_8IOSystemEPK7aiScenePKNS0_16ExportPropertiesEEiEEEvPT_DpOT0_ = comdat any

$_ZNSt12_Vector_baseIN6Assimp8Exporter17ExportFormatEntryESaIS2_EED2Ev = comdat any

$_ZNSt12_Vector_baseIN6Assimp8Exporter17ExportFormatEntryESaIS2_EE12_Vector_implD2Ev = comdat any

$_ZNSaIN6Assimp8Exporter17ExportFormatEntryEED2Ev = comdat any

$_ZNSt15__new_allocatorIN6Assimp8Exporter17ExportFormatEntryEED2Ev = comdat any

$_ZSt8_DestroyIPPN6Assimp11BaseProcessES2_EvT_S4_RSaIT0_E = comdat any

$_ZNSt12_Vector_baseIPN6Assimp11BaseProcessESaIS2_EE19_M_get_Tp_allocatorEv = comdat any

$_ZNSt12_Vector_baseIPN6Assimp11BaseProcessESaIS2_EED2Ev = comdat any

$_ZSt8_DestroyIPPN6Assimp11BaseProcessEEvT_S4_ = comdat any

$_ZNSt12_Destroy_auxILb1EE9__destroyIPPN6Assimp11BaseProcessEEEvT_S6_ = comdat any

$_ZNSt12_Vector_baseIPN6Assimp11BaseProcessESaIS2_EE13_M_deallocateEPS2_m = comdat any

$_ZNSt12_Vector_baseIPN6Assimp11BaseProcessESaIS2_EE12_Vector_implD2Ev = comdat any

$_ZNSt16allocator_traitsISaIPN6Assimp11BaseProcessEEE10deallocateERS3_PS2_m = comdat any

$_ZNSt15__new_allocatorIPN6Assimp11BaseProcessEE10deallocateEPS2_m = comdat any

$_ZNSaIPN6Assimp11BaseProcessEED2Ev = comdat any

$_ZNSt15__new_allocatorIPN6Assimp11BaseProcessEED2Ev = comdat any

$_ZN6Assimp15ProgressHandlerC2Ev = comdat any

$_ZN6Assimp22DefaultProgressHandlerD2Ev = comdat any

$_ZN6Assimp22DefaultProgressHandlerD0Ev = comdat any

$_ZN6Assimp22DefaultProgressHandler6UpdateEf = comdat any

$_ZN6Assimp15ProgressHandler14UpdateFileReadEii = comdat any

$_ZN6Assimp15ProgressHandler17UpdatePostProcessEii = comdat any

$_ZN6Assimp15ProgressHandler15UpdateFileWriteEii = comdat any

$_ZN6Assimp15ProgressHandlerD2Ev = comdat any

$_ZN6Assimp15ProgressHandlerD0Ev = comdat any

$_ZNSt12__shared_ptrIN6Assimp8IOSystemELN9__gnu_cxx12_Lock_policyE2EEC2ERKS4_ = comdat any

$_ZNSt14__shared_countILN9__gnu_cxx12_Lock_policyE2EEC2ERKS2_ = comdat any

$_ZNSt16_Sp_counted_baseILN9__gnu_cxx12_Lock_policyE2EE15_M_add_ref_copyEv = comdat any

$_ZNSt3setINSt7__cxx1112basic_stringIcSt11char_traitsIcESaIcEEESt4lessIS5_ESaIS5_EEC2Ev = comdat any

$_ZNSt6vectorISt4pairINSt7__cxx1112basic_stringIcSt11char_traitsIcESaIcEEEP16aiExportDataBlobESaIS9_EEC2Ev = comdat any

$_ZN6Assimp12BlobIOSystemD2Ev = comdat any

$_ZN6Assimp12BlobIOSystemD0Ev = comdat any

$_ZNK6Assimp12BlobIOSystem6ExistsEPKc = comdat any

$_ZNK6Assimp12BlobIOSystem14getOsSeparatorEv = comdat any

$_ZN6Assimp12BlobIOSystem4OpenEPKcS2_ = comdat any

$_ZN6Assimp12BlobIOSystem5CloseEPNS_8IOStreamE = comdat any

$_ZNSt8_Rb_treeINSt7__cxx1112basic_stringIcSt11char_traitsIcESaIcEEES5_St9_IdentityIS5_ESt4lessIS5_ESaIS5_EEC2Ev = comdat any

$_ZNSt8_Rb_treeINSt7__cxx1112basic_stringIcSt11char_traitsIcESaIcEEES5_St9_IdentityIS5_ESt4lessIS5_ESaIS5_EE13_Rb_tree_implIS9_Lb1EEC2Ev = comdat any

$_ZNSaISt13_Rb_tree_nodeINSt7__cxx1112basic_stringIcSt11char_traitsIcESaIcEEEEEC2Ev = comdat any

$_ZNSt20_Rb_tree_key_compareISt4lessINSt7__cxx1112basic_stringIcSt11char_traitsIcESaIcEEEEEC2Ev = comdat any

$_ZNSt15_Rb_tree_headerC2Ev = comdat any

$_ZNSt15__new_allocatorISt13_Rb_tree_nodeINSt7__cxx1112basic_stringIcSt11char_traitsIcESaIcEEEEEC2Ev = comdat any

$_ZNSt15_Rb_tree_header8_M_resetEv = comdat any

$_ZNSt12_Vector_baseISt4pairINSt7__cxx1112basic_stringIcSt11char_traitsIcESaIcEEEP16aiExportDataBlobESaIS9_EEC2Ev = comdat any

$_ZNSt12_Vector_baseISt4pairINSt7__cxx1112basic_stringIcSt11char_traitsIcESaIcEEEP16aiExportDataBlobESaIS9_EE12_Vector_implC2Ev = comdat any

$_ZNSaISt4pairINSt7__cxx1112basic_stringIcSt11char_traitsIcESaIcEEEP16aiExportDataBlobEEC2Ev = comdat any

$_ZNSt12_Vector_baseISt4pairINSt7__cxx1112basic_stringIcSt11char_traitsIcESaIcEEEP16aiExportDataBlobESaIS9_EE17_Vector_impl_dataC2Ev = comdat any

$_ZNSt15__new_allocatorISt4pairINSt7__cxx1112basic_stringIcSt11char_traitsIcESaIcEEEP16aiExportDataBlobEEC2Ev = comdat any

$_ZN9__gnu_cxxneIPSt4pairINSt7__cxx1112basic_stringIcSt11char_traitsIcESaIcEEEP16aiExportDataBlobESt6vectorISA_SaISA_EEEEbRKNS_17__normal_iteratorIT_T0_EESK_ = comdat any

$_ZN9__gnu_cxx17__normal_iteratorIPSt4pairINSt7__cxx1112basic_stringIcSt11char_traitsIcESaIcEEEP16aiExportDataBlobESt6vectorISA_SaISA_EEEppEv = comdat any

$_ZNSt6vectorISt4pairINSt7__cxx1112basic_stringIcSt11char_traitsIcESaIcEEEP16aiExportDataBlobESaIS9_EED2Ev = comdat any

$_ZNSt3setINSt7__cxx1112basic_stringIcSt11char_traitsIcESaIcEEESt4lessIS5_ESaIS5_EED2Ev = comdat any

$_ZNSt12_Vector_baseISt4pairINSt7__cxx1112basic_stringIcSt11char_traitsIcESaIcEEEP16aiExportDataBlobESaIS9_EED2Ev = comdat any

$_ZNSt12_Vector_baseISt4pairINSt7__cxx1112basic_stringIcSt11char_traitsIcESaIcEEEP16aiExportDataBlobESaIS9_EE12_Vector_implD2Ev = comdat any

$_ZNSaISt4pairINSt7__cxx1112basic_stringIcSt11char_traitsIcESaIcEEEP16aiExportDataBlobEED2Ev = comdat any

$_ZNSt15__new_allocatorISt4pairINSt7__cxx1112basic_stringIcSt11char_traitsIcESaIcEEEP16aiExportDataBlobEED2Ev = comdat any

$_ZNSt8_Rb_treeINSt7__cxx1112basic_stringIcSt11char_traitsIcESaIcEEES5_St9_IdentityIS5_ESt4lessIS5_ESaIS5_EED2Ev = comdat any

$_ZNSt8_Rb_treeINSt7__cxx1112basic_stringIcSt11char_traitsIcESaIcEEES5_St9_IdentityIS5_ESt4lessIS5_ESaIS5_EE8_M_eraseEPSt13_Rb_tree_nodeIS5_E = comdat any

$_ZNSt8_Rb_treeINSt7__cxx1112basic_stringIcSt11char_traitsIcESaIcEEES5_St9_IdentityIS5_ESt4lessIS5_ESaIS5_EE8_M_beginEv = comdat any

$_ZNSt8_Rb_treeINSt7__cxx1112basic_stringIcSt11char_traitsIcESaIcEEES5_St9_IdentityIS5_ESt4lessIS5_ESaIS5_EE13_Rb_tree_implIS9_Lb1EED2Ev = comdat any

$_ZNSt8_Rb_treeINSt7__cxx1112basic_stringIcSt11char_traitsIcESaIcEEES5_St9_IdentityIS5_ESt4lessIS5_ESaIS5_EE8_S_rightEPSt18_Rb_tree_node_base = comdat any

$_ZNSt8_Rb_treeINSt7__cxx1112basic_stringIcSt11char_traitsIcESaIcEEES5_St9_IdentityIS5_ESt4lessIS5_ESaIS5_EE7_S_leftEPSt18_Rb_tree_node_base = comdat any

$_ZNSt8_Rb_treeINSt7__cxx1112basic_stringIcSt11char_traitsIcESaIcEEES5_St9_IdentityIS5_ESt4lessIS5_ESaIS5_EE12_M_drop_nodeEPSt13_Rb_tree_nodeIS5_E = comdat any

$_ZNSt8_Rb_treeINSt7__cxx1112basic_stringIcSt11char_traitsIcESaIcEEES5_St9_IdentityIS5_ESt4lessIS5_ESaIS5_EE15_M_destroy_nodeEPSt13_Rb_tree_nodeIS5_E = comdat any

$_ZNSt8_Rb_treeINSt7__cxx1112basic_stringIcSt11char_traitsIcESaIcEEES5_St9_IdentityIS5_ESt4lessIS5_ESaIS5_EE11_M_put_nodeEPSt13_Rb_tree_nodeIS5_E = comdat any

$_ZNSt16allocator_traitsISaISt13_Rb_tree_nodeINSt7__cxx1112basic_stringIcSt11char_traitsIcESaIcEEEEEE7destroyIS6_EEvRS8_PT_ = comdat any

$_ZNSt8_Rb_treeINSt7__cxx1112basic_stringIcSt11char_traitsIcESaIcEEES5_St9_IdentityIS5_ESt4lessIS5_ESaIS5_EE21_M_get_Node_allocatorEv = comdat any

$_ZNSt13_Rb_tree_nodeINSt7__cxx1112basic_stringIcSt11char_traitsIcESaIcEEEE9_M_valptrEv = comdat any

$_ZNSt15__new_allocatorISt13_Rb_tree_nodeINSt7__cxx1112basic_stringIcSt11char_traitsIcESaIcEEEEE7destroyIS6_EEvPT_ = comdat any

$_ZN9__gnu_cxx16__aligned_membufINSt7__cxx1112basic_stringIcSt11char_traitsIcESaIcEEEE6_M_ptrEv = comdat any

$_ZN9__gnu_cxx16__aligned_membufINSt7__cxx1112basic_stringIcSt11char_traitsIcESaIcEEEE7_M_addrEv = comdat any

$_ZNSt16allocator_traitsISaISt13_Rb_tree_nodeINSt7__cxx1112basic_stringIcSt11char_traitsIcESaIcEEEEEE10deallocateERS8_PS7_m = comdat any

$_ZNSt15__new_allocatorISt13_Rb_tree_nodeINSt7__cxx1112basic_stringIcSt11char_traitsIcESaIcEEEEE10deallocateEPS7_m = comdat any

$_ZNKSt8_Rb_treeINSt7__cxx1112basic_stringIcSt11char_traitsIcESaIcEEES5_St9_IdentityIS5_ESt4lessIS5_ESaIS5_EE9_M_mbeginEv = comdat any

$_ZNSaISt13_Rb_tree_nodeINSt7__cxx1112basic_stringIcSt11char_traitsIcESaIcEEEEED2Ev = comdat any

$_ZNSt15__new_allocatorISt13_Rb_tree_nodeINSt7__cxx1112basic_stringIcSt11char_traitsIcESaIcEEEEED2Ev = comdat any

$_ZStneRKSt23_Rb_tree_const_iteratorINSt7__cxx1112basic_stringIcSt11char_traitsIcESaIcEEEES8_ = comdat any

$_ZNKSt3setINSt7__cxx1112basic_stringIcSt11char_traitsIcESaIcEEESt4lessIS5_ESaIS5_EE4findERKS5_ = comdat any

$_ZNKSt3setINSt7__cxx1112basic_stringIcSt11char_traitsIcESaIcEEESt4lessIS5_ESaIS5_EE3endEv = comdat any

$_ZNKSt8_Rb_treeINSt7__cxx1112basic_stringIcSt11char_traitsIcESaIcEEES5_St9_IdentityIS5_ESt4lessIS5_ESaIS5_EE4findERKS5_ = comdat any

$_ZNKSt8_Rb_treeINSt7__cxx1112basic_stringIcSt11char_traitsIcESaIcEEES5_St9_IdentityIS5_ESt4lessIS5_ESaIS5_EE14_M_lower_boundEPKSt13_Rb_tree_nodeIS5_EPKSt18_Rb_tree_node_baseRKS5_ = comdat any

$_ZNKSt8_Rb_treeINSt7__cxx1112basic_stringIcSt11char_traitsIcESaIcEEES5_St9_IdentityIS5_ESt4lessIS5_ESaIS5_EE8_M_beginEv = comdat any

$_ZNKSt8_Rb_treeINSt7__cxx1112basic_stringIcSt11char_traitsIcESaIcEEES5_St9_IdentityIS5_ESt4lessIS5_ESaIS5_EE6_M_endEv = comdat any

$_ZSteqRKSt23_Rb_tree_const_iteratorINSt7__cxx1112basic_stringIcSt11char_traitsIcESaIcEEEES8_ = comdat any

$_ZNKSt8_Rb_treeINSt7__cxx1112basic_stringIcSt11char_traitsIcESaIcEEES5_St9_IdentityIS5_ESt4lessIS5_ESaIS5_EE3endEv = comdat any

$_ZNKSt4lessINSt7__cxx1112basic_stringIcSt11char_traitsIcESaIcEEEEclERKS5_S8_ = comdat any

$_ZNSt8_Rb_treeINSt7__cxx1112basic_stringIcSt11char_traitsIcESaIcEEES5_St9_IdentityIS5_ESt4lessIS5_ESaIS5_EE6_S_keyEPKSt18_Rb_tree_node_base = comdat any

$_ZNSt8_Rb_treeINSt7__cxx1112basic_stringIcSt11char_traitsIcESaIcEEES5_St9_IdentityIS5_ESt4lessIS5_ESaIS5_EE6_S_keyEPKSt13_Rb_tree_nodeIS5_E = comdat any

$_ZNSt8_Rb_treeINSt7__cxx1112basic_stringIcSt11char_traitsIcESaIcEEES5_St9_IdentityIS5_ESt4lessIS5_ESaIS5_EE7_S_leftEPKSt18_Rb_tree_node_base = comdat any

$_ZNSt8_Rb_treeINSt7__cxx1112basic_stringIcSt11char_traitsIcESaIcEEES5_St9_IdentityIS5_ESt4lessIS5_ESaIS5_EE8_S_rightEPKSt18_Rb_tree_node_base = comdat any

$_ZNSt23_Rb_tree_const_iteratorINSt7__cxx1112basic_stringIcSt11char_traitsIcESaIcEEEEC2EPKSt18_Rb_tree_node_base = comdat any

$_ZNKSt9_IdentityINSt7__cxx1112basic_stringIcSt11char_traitsIcESaIcEEEEclERKS5_ = comdat any

$_ZNKSt13_Rb_tree_nodeINSt7__cxx1112basic_stringIcSt11char_traitsIcESaIcEEEE9_M_valptrEv = comdat any

$_ZNK9__gnu_cxx16__aligned_membufINSt7__cxx1112basic_stringIcSt11char_traitsIcESaIcEEEE6_M_ptrEv = comdat any

$_ZNK9__gnu_cxx16__aligned_membufINSt7__cxx1112basic_stringIcSt11char_traitsIcESaIcEEEE7_M_addrEv = comdat any

$_ZStltIcSt11char_traitsIcESaIcEEbRKNSt7__cxx1112basic_stringIT_T0_T1_EESA_ = comdat any

$_ZNSt3setINSt7__cxx1112basic_stringIcSt11char_traitsIcESaIcEEESt4lessIS5_ESaIS5_EE6insertEOS5_ = comdat any

$_ZN6Assimp12BlobIOStreamC2EPNS_12BlobIOSystemERKNSt7__cxx1112basic_stringIcSt11char_traitsIcESaIcEEEm = comdat any

$_ZNSt8_Rb_treeINSt7__cxx1112basic_stringIcSt11char_traitsIcESaIcEEES5_St9_IdentityIS5_ESt4lessIS5_ESaIS5_EE16_M_insert_uniqueIS5_EESt4pairISt17_Rb_tree_iteratorIS5_EbEOT_ = comdat any

$_ZNSt4pairISt23_Rb_tree_const_iteratorINSt7__cxx1112basic_stringIcSt11char_traitsIcESaIcEEEEbEC2IRSt17_Rb_tree_iteratorIS6_ERbTnNSt9enable_ifIXaaclsr5_PCCPE22_MoveConstructiblePairIT_T0_EEclsr5_PCCPE30_ImplicitlyMoveConvertiblePairISF_SG_EEEbE4typeELb1EEEOSF_OSG_ = comdat any

$_ZNSt8_Rb_treeINSt7__cxx1112basic_stringIcSt11char_traitsIcESaIcEEES5_St9_IdentityIS5_ESt4lessIS5_ESaIS5_EE24_M_get_insert_unique_posERKS5_ = comdat any

$_ZNKSt9_IdentityINSt7__cxx1112basic_stringIcSt11char_traitsIcESaIcEEEEclERS5_ = comdat any

$_ZNSt8_Rb_treeINSt7__cxx1112basic_stringIcSt11char_traitsIcESaIcEEES5_St9_IdentityIS5_ESt4lessIS5_ESaIS5_EE11_Alloc_nodeC2ERSB_ = comdat any

$_ZNSt8_Rb_treeINSt7__cxx1112basic_stringIcSt11char_traitsIcESaIcEEES5_St9_IdentityIS5_ESt4lessIS5_ESaIS5_EE10_M_insert_IS5_NSB_11_Alloc_nodeEEESt17_Rb_tree_iteratorIS5_EPSt18_Rb_tree_node_baseSH_OT_RT0_ = comdat any

$_ZNSt4pairISt17_Rb_tree_iteratorINSt7__cxx1112basic_stringIcSt11char_traitsIcESaIcEEEEbEC2IS7_bTnNSt9enable_ifIXaaclsr5_PCCPE22_MoveConstructiblePairIT_T0_EEclsr5_PCCPE30_ImplicitlyMoveConvertiblePairISB_SC_EEEbE4typeELb1EEEOSB_OSC_ = comdat any

$_ZNSt17_Rb_tree_iteratorINSt7__cxx1112basic_stringIcSt11char_traitsIcESaIcEEEEC2EPSt18_Rb_tree_node_base = comdat any

$_ZNSt8_Rb_treeINSt7__cxx1112basic_stringIcSt11char_traitsIcESaIcEEES5_St9_IdentityIS5_ESt4lessIS5_ESaIS5_EE6_M_endEv = comdat any

$_ZSteqRKSt17_Rb_tree_iteratorINSt7__cxx1112basic_stringIcSt11char_traitsIcESaIcEEEES8_ = comdat any

$_ZNSt8_Rb_treeINSt7__cxx1112basic_stringIcSt11char_traitsIcESaIcEEES5_St9_IdentityIS5_ESt4lessIS5_ESaIS5_EE5beginEv = comdat any

$_ZNSt4pairIPSt18_Rb_tree_node_baseS1_EC2IRPSt13_Rb_tree_nodeINSt7__cxx1112basic_stringIcSt11char_traitsIcESaIcEEEERS1_TnNSt9enable_ifIXaaclsr5_PCCPE22_MoveConstructiblePairIT_T0_EEclsr5_PCCPE30_ImplicitlyMoveConvertiblePairISG_SH_EEEbE4typeELb1EEEOSG_OSH_ = comdat any

$_ZNSt17_Rb_tree_iteratorINSt7__cxx1112basic_stringIcSt11char_traitsIcESaIcEEEEmmEv = comdat any

$_ZNSt4pairIPSt18_Rb_tree_node_baseS1_EC2IS1_S1_TnNSt9enable_ifIXaaclsr5_PCCPE18_ConstructiblePairIT_T0_EEclsr5_PCCPE26_ImplicitlyConvertiblePairIS5_S6_EEEbE4typeELb1EEERKS1_SA_ = comdat any

$_ZNKSt8_Rb_treeINSt7__cxx1112basic_stringIcSt11char_traitsIcESaIcEEES5_St9_IdentityIS5_ESt4lessIS5_ESaIS5_EE11_Alloc_nodeclIS5_EEPSt13_Rb_tree_nodeIS5_EOT_ = comdat any

$_ZNSt8_Rb_treeINSt7__cxx1112basic_stringIcSt11char_traitsIcESaIcEEES5_St9_IdentityIS5_ESt4lessIS5_ESaIS5_EE14_M_create_nodeIJS5_EEEPSt13_Rb_tree_nodeIS5_EDpOT_ = comdat any

$_ZNSt8_Rb_treeINSt7__cxx1112basic_stringIcSt11char_traitsIcESaIcEEES5_St9_IdentityIS5_ESt4lessIS5_ESaIS5_EE11_M_get_nodeEv = comdat any

$_ZNSt8_Rb_treeINSt7__cxx1112basic_stringIcSt11char_traitsIcESaIcEEES5_St9_IdentityIS5_ESt4lessIS5_ESaIS5_EE17_M_construct_nodeIJS5_EEEvPSt13_Rb_tree_nodeIS5_EDpOT_ = comdat any

$_ZNSt16allocator_traitsISaISt13_Rb_tree_nodeINSt7__cxx1112basic_stringIcSt11char_traitsIcESaIcEEEEEE8allocateERS8_m = comdat any

$_ZNSt15__new_allocatorISt13_Rb_tree_nodeINSt7__cxx1112basic_stringIcSt11char_traitsIcESaIcEEEEE8allocateEmPKv = comdat any

$_ZNKSt15__new_allocatorISt13_Rb_tree_nodeINSt7__cxx1112basic_stringIcSt11char_traitsIcESaIcEEEEE11_M_max_sizeEv = comdat any

$_ZNSt16allocator_traitsISaISt13_Rb_tree_nodeINSt7__cxx1112basic_stringIcSt11char_traitsIcESaIcEEEEEE9constructIS6_JS6_EEEvRS8_PT_DpOT0_ = comdat any

$_ZNSt15__new_allocatorISt13_Rb_tree_nodeINSt7__cxx1112basic_stringIcSt11char_traitsIcESaIcEEEEE9constructIS6_JS6_EEEvPT_DpOT0_ = comdat any

$_ZNSt23_Rb_tree_const_iteratorINSt7__cxx1112basic_stringIcSt11char_traitsIcESaIcEEEEC2ERKSt17_Rb_tree_iteratorIS5_E = comdat any

$_ZN6Assimp8IOStreamC2Ev = comdat any

$_ZNSt14__shared_countILN9__gnu_cxx12_Lock_policyE2EED2Ev = comdat any

$_ZNSt16_Sp_counted_baseILN9__gnu_cxx12_Lock_policyE2EE10_M_releaseEv = comdat any

$_ZNSt16_Sp_counted_baseILN9__gnu_cxx12_Lock_policyE2EE24_M_release_last_use_coldEv = comdat any

$_ZNSt16_Sp_counted_baseILN9__gnu_cxx12_Lock_policyE2EE19_M_release_last_useEv = comdat any

$_ZNSt12__shared_ptrIN6Assimp8IOSystemELN9__gnu_cxx12_Lock_policyE2EEaSERKS4_ = comdat any

$_ZNSt14__shared_countILN9__gnu_cxx12_Lock_policyE2EEaSERKS2_ = comdat any

$_ZStneIcSt11char_traitsIcESaIcEEbRKNSt7__cxx1112basic_stringIT_T0_T1_EEPKS5_ = comdat any

$_ZSteqIcEN9__gnu_cxx11__enable_ifIXsr9__is_charIT_EE7__valueEbE6__typeERKNSt7__cxx1112basic_stringIS2_St11char_traitsIS2_ESaIS2_EEESC_ = comdat any

$_ZN8aiString3SetERKNSt7__cxx1112basic_stringIcSt11char_traitsIcESaIcEEE = comdat any

$_ZNSt6vectorISt4pairINSt7__cxx1112basic_stringIcSt11char_traitsIcESaIcEEEP16aiExportDataBlobESaIS9_EE5clearEv = comdat any

$_ZSteqIcSt11char_traitsIcESaIcEEbRKNSt7__cxx1112basic_stringIT_T0_T1_EEPKS5_ = comdat any

$_ZNSt11char_traitsIcE7compareEPKcS2_m = comdat any

$_ZNSt6vectorISt4pairINSt7__cxx1112basic_stringIcSt11char_traitsIcESaIcEEEP16aiExportDataBlobESaIS9_EE15_M_erase_at_endEPS9_ = comdat any

$_ZNSt3mapIjSt8functionIFPvS1_EESt4lessIjESaISt4pairIKjS3_EEED2Ev = comdat any

$_ZNSt8_Rb_treeIjSt4pairIKjSt8functionIFPvS3_EEESt10_Select1stIS6_ESt4lessIjESaIS6_EED2Ev = comdat any

$_ZNSt8_Rb_treeIjSt4pairIKjSt8functionIFPvS3_EEESt10_Select1stIS6_ESt4lessIjESaIS6_EE8_M_eraseEPSt13_Rb_tree_nodeIS6_E = comdat any

$_ZNSt8_Rb_treeIjSt4pairIKjSt8functionIFPvS3_EEESt10_Select1stIS6_ESt4lessIjESaIS6_EE8_M_beginEv = comdat any

$_ZNSt8_Rb_treeIjSt4pairIKjSt8functionIFPvS3_EEESt10_Select1stIS6_ESt4lessIjESaIS6_EE13_Rb_tree_implISA_Lb1EED2Ev = comdat any

$_ZNSt8_Rb_treeIjSt4pairIKjSt8functionIFPvS3_EEESt10_Select1stIS6_ESt4lessIjESaIS6_EE8_S_rightEPSt18_Rb_tree_node_base = comdat any

$_ZNSt8_Rb_treeIjSt4pairIKjSt8functionIFPvS3_EEESt10_Select1stIS6_ESt4lessIjESaIS6_EE7_S_leftEPSt18_Rb_tree_node_base = comdat any

$_ZNSt8_Rb_treeIjSt4pairIKjSt8functionIFPvS3_EEESt10_Select1stIS6_ESt4lessIjESaIS6_EE12_M_drop_nodeEPSt13_Rb_tree_nodeIS6_E = comdat any

$_ZNSt8_Rb_treeIjSt4pairIKjSt8functionIFPvS3_EEESt10_Select1stIS6_ESt4lessIjESaIS6_EE15_M_destroy_nodeEPSt13_Rb_tree_nodeIS6_E = comdat any

$_ZNSt8_Rb_treeIjSt4pairIKjSt8functionIFPvS3_EEESt10_Select1stIS6_ESt4lessIjESaIS6_EE11_M_put_nodeEPSt13_Rb_tree_nodeIS6_E = comdat any

$_ZNSt16allocator_traitsISaISt13_Rb_tree_nodeISt4pairIKjSt8functionIFPvS4_EEEEEE7destroyIS7_EEvRS9_PT_ = comdat any

$_ZNSt8_Rb_treeIjSt4pairIKjSt8functionIFPvS3_EEESt10_Select1stIS6_ESt4lessIjESaIS6_EE21_M_get_Node_allocatorEv = comdat any

$_ZNSt13_Rb_tree_nodeISt4pairIKjSt8functionIFPvS3_EEEE9_M_valptrEv = comdat any

$_ZNSt15__new_allocatorISt13_Rb_tree_nodeISt4pairIKjSt8functionIFPvS4_EEEEE7destroyIS7_EEvPT_ = comdat any

$_ZNSt4pairIKjSt8functionIFPvS2_EEED2Ev = comdat any

$_ZN9__gnu_cxx16__aligned_membufISt4pairIKjSt8functionIFPvS4_EEEE6_M_ptrEv = comdat any

$_ZN9__gnu_cxx16__aligned_membufISt4pairIKjSt8functionIFPvS4_EEEE7_M_addrEv = comdat any

$_ZNSt16allocator_traitsISaISt13_Rb_tree_nodeISt4pairIKjSt8functionIFPvS4_EEEEEE10deallocateERS9_PS8_m = comdat any

$_ZNSt15__new_allocatorISt13_Rb_tree_nodeISt4pairIKjSt8functionIFPvS4_EEEEE10deallocateEPS8_m = comdat any

$_ZNKSt8_Rb_treeIjSt4pairIKjSt8functionIFPvS3_EEESt10_Select1stIS6_ESt4lessIjESaIS6_EE9_M_mbeginEv = comdat any

$_ZNSt15__new_allocatorISt13_Rb_tree_nodeISt4pairIKjSt8functionIFPvS4_EEEEED2Ev = comdat any

$_ZNSt8_Rb_treeIjSt4pairIKjiESt10_Select1stIS2_ESt4lessIjESaIS2_EEC2Ev = comdat any

$_ZNSt8_Rb_treeIjSt4pairIKjiESt10_Select1stIS2_ESt4lessIjESaIS2_EE13_Rb_tree_implIS6_Lb1EEC2Ev = comdat any

$_ZNSaISt13_Rb_tree_nodeISt4pairIKjiEEEC2Ev = comdat any

$_ZNSt20_Rb_tree_key_compareISt4lessIjEEC2Ev = comdat any

$_ZNSt15__new_allocatorISt13_Rb_tree_nodeISt4pairIKjiEEEC2Ev = comdat any

$_ZNSt8_Rb_treeIjSt4pairIKjfESt10_Select1stIS2_ESt4lessIjESaIS2_EEC2Ev = comdat any

$_ZNSt8_Rb_treeIjSt4pairIKjfESt10_Select1stIS2_ESt4lessIjESaIS2_EE13_Rb_tree_implIS6_Lb1EEC2Ev = comdat any

$_ZNSaISt13_Rb_tree_nodeISt4pairIKjfEEEC2Ev = comdat any

$_ZNSt15__new_allocatorISt13_Rb_tree_nodeISt4pairIKjfEEEC2Ev = comdat any

$_ZNSt8_Rb_treeIjSt4pairIKjNSt7__cxx1112basic_stringIcSt11char_traitsIcESaIcEEEESt10_Select1stIS8_ESt4lessIjESaIS8_EEC2Ev = comdat any

$_ZNSt8_Rb_treeIjSt4pairIKjNSt7__cxx1112basic_stringIcSt11char_traitsIcESaIcEEEESt10_Select1stIS8_ESt4lessIjESaIS8_EE13_Rb_tree_implISC_Lb1EEC2Ev = comdat any

$_ZNSaISt13_Rb_tree_nodeISt4pairIKjNSt7__cxx1112basic_stringIcSt11char_traitsIcESaIcEEEEEEC2Ev = comdat any

$_ZNSt15__new_allocatorISt13_Rb_tree_nodeISt4pairIKjNSt7__cxx1112basic_stringIcSt11char_traitsIcESaIcEEEEEEC2Ev = comdat any

$_ZNSt8_Rb_treeIjSt4pairIKj12aiMatrix4x4tIfEESt10_Select1stIS4_ESt4lessIjESaIS4_EEC2Ev = comdat any

$_ZNSt8_Rb_treeIjSt4pairIKj12aiMatrix4x4tIfEESt10_Select1stIS4_ESt4lessIjESaIS4_EE13_Rb_tree_implIS8_Lb1EEC2Ev = comdat any

$_ZNSaISt13_Rb_tree_nodeISt4pairIKj12aiMatrix4x4tIfEEEEC2Ev = comdat any

$_ZNSt15__new_allocatorISt13_Rb_tree_nodeISt4pairIKj12aiMatrix4x4tIfEEEEC2Ev = comdat any

$_ZNSt8_Rb_treeIjSt4pairIKjSt8functionIFPvS3_EEESt10_Select1stIS6_ESt4lessIjESaIS6_EEC2Ev = comdat any

$_ZNSt8_Rb_treeIjSt4pairIKjSt8functionIFPvS3_EEESt10_Select1stIS6_ESt4lessIjESaIS6_EE13_Rb_tree_implISA_Lb1EEC2Ev = comdat any

$_ZNSaISt13_Rb_tree_nodeISt4pairIKjSt8functionIFPvS3_EEEEEC2Ev = comdat any

$_ZNSt15__new_allocatorISt13_Rb_tree_nodeISt4pairIKjSt8functionIFPvS4_EEEEEC2Ev = comdat any

$_ZNSt8_Rb_treeIjSt4pairIKjiESt10_Select1stIS2_ESt4lessIjESaIS2_EEC2ERKS8_ = comdat any

$_ZNSt8_Rb_treeIjSt4pairIKjiESt10_Select1stIS2_ESt4lessIjESaIS2_EE13_Rb_tree_implIS6_Lb1EEC2ERKSA_ = comdat any

$_ZNKSt8_Rb_treeIjSt4pairIKjiESt10_Select1stIS2_ESt4lessIjESaIS2_EE7_M_rootEv = comdat any

$_ZNSt8_Rb_treeIjSt4pairIKjiESt10_Select1stIS2_ESt4lessIjESaIS2_EE7_M_copyERKS8_ = comdat any

$_ZNSt8_Rb_treeIjSt4pairIKjiESt10_Select1stIS2_ESt4lessIjESaIS2_EE7_M_rootEv = comdat any

$_ZNSt8_Rb_treeIjSt4pairIKjiESt10_Select1stIS2_ESt4lessIjESaIS2_EE13_Rb_tree_implIS6_Lb1EED2Ev = comdat any

$_ZN9__gnu_cxx14__alloc_traitsISaISt13_Rb_tree_nodeISt4pairIKjiEEES5_E17_S_select_on_copyERKS6_ = comdat any

$_ZNSaISt13_Rb_tree_nodeISt4pairIKjiEEED2Ev = comdat any

$_ZNSt20_Rb_tree_key_compareISt4lessIjEEC2ERKS1_ = comdat any

$_ZNSt16allocator_traitsISaISt13_Rb_tree_nodeISt4pairIKjiEEEE37select_on_container_copy_constructionERKS5_ = comdat any

$_ZNSaISt13_Rb_tree_nodeISt4pairIKjiEEEC2ERKS4_ = comdat any

$_ZNSt15__new_allocatorISt13_Rb_tree_nodeISt4pairIKjiEEEC2ERKS5_ = comdat any

$_ZNSt15__new_allocatorISt13_Rb_tree_nodeISt4pairIKjiEEED2Ev = comdat any

$_ZNSt8_Rb_treeIjSt4pairIKjiESt10_Select1stIS2_ESt4lessIjESaIS2_EE11_Alloc_nodeC2ERS8_ = comdat any

$_ZNSt8_Rb_treeIjSt4pairIKjiESt10_Select1stIS2_ESt4lessIjESaIS2_EE7_M_copyILb0ENS8_11_Alloc_nodeEEEPSt13_Rb_tree_nodeIS2_ERKS8_RT0_ = comdat any

$_ZNSt8_Rb_treeIjSt4pairIKjiESt10_Select1stIS2_ESt4lessIjESaIS2_EE7_M_copyILb0ENS8_11_Alloc_nodeEEEPSt13_Rb_tree_nodeIS2_ESD_PSt18_Rb_tree_node_baseRT0_ = comdat any

$_ZNKSt8_Rb_treeIjSt4pairIKjiESt10_Select1stIS2_ESt4lessIjESaIS2_EE9_M_mbeginEv = comdat any

$_ZNSt8_Rb_treeIjSt4pairIKjiESt10_Select1stIS2_ESt4lessIjESaIS2_EE6_M_endEv = comdat any

$_ZNSt8_Rb_treeIjSt4pairIKjiESt10_Select1stIS2_ESt4lessIjESaIS2_EE10_S_minimumEPSt18_Rb_tree_node_base = comdat any

$_ZNSt8_Rb_treeIjSt4pairIKjiESt10_Select1stIS2_ESt4lessIjESaIS2_EE11_M_leftmostEv = comdat any

$_ZNSt8_Rb_treeIjSt4pairIKjiESt10_Select1stIS2_ESt4lessIjESaIS2_EE10_S_maximumEPSt18_Rb_tree_node_base = comdat any

$_ZNSt8_Rb_treeIjSt4pairIKjiESt10_Select1stIS2_ESt4lessIjESaIS2_EE12_M_rightmostEv = comdat any

$_ZNSt8_Rb_treeIjSt4pairIKjiESt10_Select1stIS2_ESt4lessIjESaIS2_EE13_M_clone_nodeILb0ENS8_11_Alloc_nodeEEEPSt13_Rb_tree_nodeIS2_ESD_RT0_ = comdat any

$_ZNSt8_Rb_treeIjSt4pairIKjiESt10_Select1stIS2_ESt4lessIjESaIS2_EE8_S_rightEPSt18_Rb_tree_node_base = comdat any

$_ZNSt8_Rb_treeIjSt4pairIKjiESt10_Select1stIS2_ESt4lessIjESaIS2_EE7_S_leftEPSt18_Rb_tree_node_base = comdat any

$_ZNSt8_Rb_treeIjSt4pairIKjiESt10_Select1stIS2_ESt4lessIjESaIS2_EE8_M_eraseEPSt13_Rb_tree_nodeIS2_E = comdat any

$_ZNKSt8_Rb_treeIjSt4pairIKjiESt10_Select1stIS2_ESt4lessIjESaIS2_EE11_Alloc_nodeclIRKS2_EEPSt13_Rb_tree_nodeIS2_EOT_ = comdat any

$_ZNSt13_Rb_tree_nodeISt4pairIKjiEE9_M_valptrEv = comdat any

$_ZNSt8_Rb_treeIjSt4pairIKjiESt10_Select1stIS2_ESt4lessIjESaIS2_EE14_M_create_nodeIJRKS2_EEEPSt13_Rb_tree_nodeIS2_EDpOT_ = comdat any

$_ZNSt8_Rb_treeIjSt4pairIKjiESt10_Select1stIS2_ESt4lessIjESaIS2_EE11_M_get_nodeEv = comdat any

$_ZNSt8_Rb_treeIjSt4pairIKjiESt10_Select1stIS2_ESt4lessIjESaIS2_EE17_M_construct_nodeIJRKS2_EEEvPSt13_Rb_tree_nodeIS2_EDpOT_ = comdat any

$_ZNSt16allocator_traitsISaISt13_Rb_tree_nodeISt4pairIKjiEEEE8allocateERS5_m = comdat any

$_ZNSt8_Rb_treeIjSt4pairIKjiESt10_Select1stIS2_ESt4lessIjESaIS2_EE21_M_get_Node_allocatorEv = comdat any

$_ZNSt15__new_allocatorISt13_Rb_tree_nodeISt4pairIKjiEEE8allocateEmPKv = comdat any

$_ZNKSt15__new_allocatorISt13_Rb_tree_nodeISt4pairIKjiEEE11_M_max_sizeEv = comdat any

$_ZNSt16allocator_traitsISaISt13_Rb_tree_nodeISt4pairIKjiEEEE9constructIS3_JRKS3_EEEvRS5_PT_DpOT0_ = comdat any

$_ZNSt8_Rb_treeIjSt4pairIKjiESt10_Select1stIS2_ESt4lessIjESaIS2_EE11_M_put_nodeEPSt13_Rb_tree_nodeIS2_E = comdat any

$_ZNSt15__new_allocatorISt13_Rb_tree_nodeISt4pairIKjiEEE9constructIS3_JRKS3_EEEvPT_DpOT0_ = comdat any

$_ZNSt16allocator_traitsISaISt13_Rb_tree_nodeISt4pairIKjiEEEE10deallocateERS5_PS4_m = comdat any

$_ZNSt15__new_allocatorISt13_Rb_tree_nodeISt4pairIKjiEEE10deallocateEPS4_m = comdat any

$_ZN9__gnu_cxx16__aligned_membufISt4pairIKjiEE6_M_ptrEv = comdat any

$_ZN9__gnu_cxx16__aligned_membufISt4pairIKjiEE7_M_addrEv = comdat any

$_ZNSt8_Rb_treeIjSt4pairIKjiESt10_Select1stIS2_ESt4lessIjESaIS2_EE12_M_drop_nodeEPSt13_Rb_tree_nodeIS2_E = comdat any

$_ZNSt8_Rb_treeIjSt4pairIKjiESt10_Select1stIS2_ESt4lessIjESaIS2_EE15_M_destroy_nodeEPSt13_Rb_tree_nodeIS2_E = comdat any

$_ZNSt16allocator_traitsISaISt13_Rb_tree_nodeISt4pairIKjiEEEE7destroyIS3_EEvRS5_PT_ = comdat any

$_ZNSt15__new_allocatorISt13_Rb_tree_nodeISt4pairIKjiEEE7destroyIS3_EEvPT_ = comdat any

$_ZNSt18_Rb_tree_node_base10_S_minimumEPS_ = comdat any

$_ZNSt18_Rb_tree_node_base10_S_maximumEPS_ = comdat any

$_ZNSt8_Rb_treeIjSt4pairIKjfESt10_Select1stIS2_ESt4lessIjESaIS2_EEC2ERKS8_ = comdat any

$_ZNSt8_Rb_treeIjSt4pairIKjfESt10_Select1stIS2_ESt4lessIjESaIS2_EE13_Rb_tree_implIS6_Lb1EEC2ERKSA_ = comdat any

$_ZNKSt8_Rb_treeIjSt4pairIKjfESt10_Select1stIS2_ESt4lessIjESaIS2_EE7_M_rootEv = comdat any

$_ZNSt8_Rb_treeIjSt4pairIKjfESt10_Select1stIS2_ESt4lessIjESaIS2_EE7_M_copyERKS8_ = comdat any

$_ZNSt8_Rb_treeIjSt4pairIKjfESt10_Select1stIS2_ESt4lessIjESaIS2_EE7_M_rootEv = comdat any

$_ZNSt8_Rb_treeIjSt4pairIKjfESt10_Select1stIS2_ESt4lessIjESaIS2_EE13_Rb_tree_implIS6_Lb1EED2Ev = comdat any

$_ZN9__gnu_cxx14__alloc_traitsISaISt13_Rb_tree_nodeISt4pairIKjfEEES5_E17_S_select_on_copyERKS6_ = comdat any

$_ZNSaISt13_Rb_tree_nodeISt4pairIKjfEEED2Ev = comdat any

$_ZNSt16allocator_traitsISaISt13_Rb_tree_nodeISt4pairIKjfEEEE37select_on_container_copy_constructionERKS5_ = comdat any

$_ZNSaISt13_Rb_tree_nodeISt4pairIKjfEEEC2ERKS4_ = comdat any

$_ZNSt15__new_allocatorISt13_Rb_tree_nodeISt4pairIKjfEEEC2ERKS5_ = comdat any

$_ZNSt15__new_allocatorISt13_Rb_tree_nodeISt4pairIKjfEEED2Ev = comdat any

$_ZNSt8_Rb_treeIjSt4pairIKjfESt10_Select1stIS2_ESt4lessIjESaIS2_EE11_Alloc_nodeC2ERS8_ = comdat any

$_ZNSt8_Rb_treeIjSt4pairIKjfESt10_Select1stIS2_ESt4lessIjESaIS2_EE7_M_copyILb0ENS8_11_Alloc_nodeEEEPSt13_Rb_tree_nodeIS2_ERKS8_RT0_ = comdat any

$_ZNSt8_Rb_treeIjSt4pairIKjfESt10_Select1stIS2_ESt4lessIjESaIS2_EE7_M_copyILb0ENS8_11_Alloc_nodeEEEPSt13_Rb_tree_nodeIS2_ESD_PSt18_Rb_tree_node_baseRT0_ = comdat any

$_ZNKSt8_Rb_treeIjSt4pairIKjfESt10_Select1stIS2_ESt4lessIjESaIS2_EE9_M_mbeginEv = comdat any

$_ZNSt8_Rb_treeIjSt4pairIKjfESt10_Select1stIS2_ESt4lessIjESaIS2_EE6_M_endEv = comdat any

$_ZNSt8_Rb_treeIjSt4pairIKjfESt10_Select1stIS2_ESt4lessIjESaIS2_EE10_S_minimumEPSt18_Rb_tree_node_base = comdat any

$_ZNSt8_Rb_treeIjSt4pairIKjfESt10_Select1stIS2_ESt4lessIjESaIS2_EE11_M_leftmostEv = comdat any

$_ZNSt8_Rb_treeIjSt4pairIKjfESt10_Select1stIS2_ESt4lessIjESaIS2_EE10_S_maximumEPSt18_Rb_tree_node_base = comdat any

$_ZNSt8_Rb_treeIjSt4pairIKjfESt10_Select1stIS2_ESt4lessIjESaIS2_EE12_M_rightmostEv = comdat any

$_ZNSt8_Rb_treeIjSt4pairIKjfESt10_Select1stIS2_ESt4lessIjESaIS2_EE13_M_clone_nodeILb0ENS8_11_Alloc_nodeEEEPSt13_Rb_tree_nodeIS2_ESD_RT0_ = comdat any

$_ZNSt8_Rb_treeIjSt4pairIKjfESt10_Select1stIS2_ESt4lessIjESaIS2_EE8_S_rightEPSt18_Rb_tree_node_base = comdat any

$_ZNSt8_Rb_treeIjSt4pairIKjfESt10_Select1stIS2_ESt4lessIjESaIS2_EE7_S_leftEPSt18_Rb_tree_node_base = comdat any

$_ZNSt8_Rb_treeIjSt4pairIKjfESt10_Select1stIS2_ESt4lessIjESaIS2_EE8_M_eraseEPSt13_Rb_tree_nodeIS2_E = comdat any

$_ZNKSt8_Rb_treeIjSt4pairIKjfESt10_Select1stIS2_ESt4lessIjESaIS2_EE11_Alloc_nodeclIRKS2_EEPSt13_Rb_tree_nodeIS2_EOT_ = comdat any

$_ZNSt13_Rb_tree_nodeISt4pairIKjfEE9_M_valptrEv = comdat any

$_ZNSt8_Rb_treeIjSt4pairIKjfESt10_Select1stIS2_ESt4lessIjESaIS2_EE14_M_create_nodeIJRKS2_EEEPSt13_Rb_tree_nodeIS2_EDpOT_ = comdat any

$_ZNSt8_Rb_treeIjSt4pairIKjfESt10_Select1stIS2_ESt4lessIjESaIS2_EE11_M_get_nodeEv = comdat any

$_ZNSt8_Rb_treeIjSt4pairIKjfESt10_Select1stIS2_ESt4lessIjESaIS2_EE17_M_construct_nodeIJRKS2_EEEvPSt13_Rb_tree_nodeIS2_EDpOT_ = comdat any

$_ZNSt16allocator_traitsISaISt13_Rb_tree_nodeISt4pairIKjfEEEE8allocateERS5_m = comdat any

$_ZNSt8_Rb_treeIjSt4pairIKjfESt10_Select1stIS2_ESt4lessIjESaIS2_EE21_M_get_Node_allocatorEv = comdat any

$_ZNSt15__new_allocatorISt13_Rb_tree_nodeISt4pairIKjfEEE8allocateEmPKv = comdat any

$_ZNKSt15__new_allocatorISt13_Rb_tree_nodeISt4pairIKjfEEE11_M_max_sizeEv = comdat any

$_ZNSt16allocator_traitsISaISt13_Rb_tree_nodeISt4pairIKjfEEEE9constructIS3_JRKS3_EEEvRS5_PT_DpOT0_ = comdat any

$_ZNSt8_Rb_treeIjSt4pairIKjfESt10_Select1stIS2_ESt4lessIjESaIS2_EE11_M_put_nodeEPSt13_Rb_tree_nodeIS2_E = comdat any

$_ZNSt15__new_allocatorISt13_Rb_tree_nodeISt4pairIKjfEEE9constructIS3_JRKS3_EEEvPT_DpOT0_ = comdat any

$_ZNSt16allocator_traitsISaISt13_Rb_tree_nodeISt4pairIKjfEEEE10deallocateERS5_PS4_m = comdat any

$_ZNSt15__new_allocatorISt13_Rb_tree_nodeISt4pairIKjfEEE10deallocateEPS4_m = comdat any

$_ZN9__gnu_cxx16__aligned_membufISt4pairIKjfEE6_M_ptrEv = comdat any

$_ZN9__gnu_cxx16__aligned_membufISt4pairIKjfEE7_M_addrEv = comdat any

$_ZNSt8_Rb_treeIjSt4pairIKjfESt10_Select1stIS2_ESt4lessIjESaIS2_EE12_M_drop_nodeEPSt13_Rb_tree_nodeIS2_E = comdat any

$_ZNSt8_Rb_treeIjSt4pairIKjfESt10_Select1stIS2_ESt4lessIjESaIS2_EE15_M_destroy_nodeEPSt13_Rb_tree_nodeIS2_E = comdat any

$_ZNSt16allocator_traitsISaISt13_Rb_tree_nodeISt4pairIKjfEEEE7destroyIS3_EEvRS5_PT_ = comdat any

$_ZNSt15__new_allocatorISt13_Rb_tree_nodeISt4pairIKjfEEE7destroyIS3_EEvPT_ = comdat any

$_ZNSt8_Rb_treeIjSt4pairIKjNSt7__cxx1112basic_stringIcSt11char_traitsIcESaIcEEEESt10_Select1stIS8_ESt4lessIjESaIS8_EEC2ERKSE_ = comdat any

$_ZNSt8_Rb_treeIjSt4pairIKjNSt7__cxx1112basic_stringIcSt11char_traitsIcESaIcEEEESt10_Select1stIS8_ESt4lessIjESaIS8_EE13_Rb_tree_implISC_Lb1EEC2ERKSG_ = comdat any

$_ZNKSt8_Rb_treeIjSt4pairIKjNSt7__cxx1112basic_stringIcSt11char_traitsIcESaIcEEEESt10_Select1stIS8_ESt4lessIjESaIS8_EE7_M_rootEv = comdat any

$_ZNSt8_Rb_treeIjSt4pairIKjNSt7__cxx1112basic_stringIcSt11char_traitsIcESaIcEEEESt10_Select1stIS8_ESt4lessIjESaIS8_EE7_M_copyERKSE_ = comdat any

$_ZNSt8_Rb_treeIjSt4pairIKjNSt7__cxx1112basic_stringIcSt11char_traitsIcESaIcEEEESt10_Select1stIS8_ESt4lessIjESaIS8_EE7_M_rootEv = comdat any

$_ZNSt8_Rb_treeIjSt4pairIKjNSt7__cxx1112basic_stringIcSt11char_traitsIcESaIcEEEESt10_Select1stIS8_ESt4lessIjESaIS8_EE13_Rb_tree_implISC_Lb1EED2Ev = comdat any

$_ZN9__gnu_cxx14__alloc_traitsISaISt13_Rb_tree_nodeISt4pairIKjNSt7__cxx1112basic_stringIcSt11char_traitsIcESaIcEEEEEESB_E17_S_select_on_copyERKSC_ = comdat any

$_ZNSaISt13_Rb_tree_nodeISt4pairIKjNSt7__cxx1112basic_stringIcSt11char_traitsIcESaIcEEEEEED2Ev = comdat any

$_ZNSt16allocator_traitsISaISt13_Rb_tree_nodeISt4pairIKjNSt7__cxx1112basic_stringIcSt11char_traitsIcESaIcEEEEEEE37select_on_container_copy_constructionERKSB_ = comdat any

$_ZNSaISt13_Rb_tree_nodeISt4pairIKjNSt7__cxx1112basic_stringIcSt11char_traitsIcESaIcEEEEEEC2ERKSA_ = comdat any

$_ZNSt15__new_allocatorISt13_Rb_tree_nodeISt4pairIKjNSt7__cxx1112basic_stringIcSt11char_traitsIcESaIcEEEEEEC2ERKSB_ = comdat any

$_ZNSt15__new_allocatorISt13_Rb_tree_nodeISt4pairIKjNSt7__cxx1112basic_stringIcSt11char_traitsIcESaIcEEEEEED2Ev = comdat any

$_ZNSt8_Rb_treeIjSt4pairIKjNSt7__cxx1112basic_stringIcSt11char_traitsIcESaIcEEEESt10_Select1stIS8_ESt4lessIjESaIS8_EE11_Alloc_nodeC2ERSE_ = comdat any

$_ZNSt8_Rb_treeIjSt4pairIKjNSt7__cxx1112basic_stringIcSt11char_traitsIcESaIcEEEESt10_Select1stIS8_ESt4lessIjESaIS8_EE7_M_copyILb0ENSE_11_Alloc_nodeEEEPSt13_Rb_tree_nodeIS8_ERKSE_RT0_ = comdat any

$_ZNSt8_Rb_treeIjSt4pairIKjNSt7__cxx1112basic_stringIcSt11char_traitsIcESaIcEEEESt10_Select1stIS8_ESt4lessIjESaIS8_EE7_M_copyILb0ENSE_11_Alloc_nodeEEEPSt13_Rb_tree_nodeIS8_ESJ_PSt18_Rb_tree_node_baseRT0_ = comdat any

$_ZNKSt8_Rb_treeIjSt4pairIKjNSt7__cxx1112basic_stringIcSt11char_traitsIcESaIcEEEESt10_Select1stIS8_ESt4lessIjESaIS8_EE9_M_mbeginEv = comdat any

$_ZNSt8_Rb_treeIjSt4pairIKjNSt7__cxx1112basic_stringIcSt11char_traitsIcESaIcEEEESt10_Select1stIS8_ESt4lessIjESaIS8_EE6_M_endEv = comdat any

$_ZNSt8_Rb_treeIjSt4pairIKjNSt7__cxx1112basic_stringIcSt11char_traitsIcESaIcEEEESt10_Select1stIS8_ESt4lessIjESaIS8_EE10_S_minimumEPSt18_Rb_tree_node_base = comdat any

$_ZNSt8_Rb_treeIjSt4pairIKjNSt7__cxx1112basic_stringIcSt11char_traitsIcESaIcEEEESt10_Select1stIS8_ESt4lessIjESaIS8_EE11_M_leftmostEv = comdat any

$_ZNSt8_Rb_treeIjSt4pairIKjNSt7__cxx1112basic_stringIcSt11char_traitsIcESaIcEEEESt10_Select1stIS8_ESt4lessIjESaIS8_EE10_S_maximumEPSt18_Rb_tree_node_base = comdat any

$_ZNSt8_Rb_treeIjSt4pairIKjNSt7__cxx1112basic_stringIcSt11char_traitsIcESaIcEEEESt10_Select1stIS8_ESt4lessIjESaIS8_EE12_M_rightmostEv = comdat any

$_ZNSt8_Rb_treeIjSt4pairIKjNSt7__cxx1112basic_stringIcSt11char_traitsIcESaIcEEEESt10_Select1stIS8_ESt4lessIjESaIS8_EE13_M_clone_nodeILb0ENSE_11_Alloc_nodeEEEPSt13_Rb_tree_nodeIS8_ESJ_RT0_ = comdat any

$_ZNSt8_Rb_treeIjSt4pairIKjNSt7__cxx1112basic_stringIcSt11char_traitsIcESaIcEEEESt10_Select1stIS8_ESt4lessIjESaIS8_EE8_S_rightEPSt18_Rb_tree_node_base = comdat any

$_ZNSt8_Rb_treeIjSt4pairIKjNSt7__cxx1112basic_stringIcSt11char_traitsIcESaIcEEEESt10_Select1stIS8_ESt4lessIjESaIS8_EE7_S_leftEPSt18_Rb_tree_node_base = comdat any

$_ZNSt8_Rb_treeIjSt4pairIKjNSt7__cxx1112basic_stringIcSt11char_traitsIcESaIcEEEESt10_Select1stIS8_ESt4lessIjESaIS8_EE8_M_eraseEPSt13_Rb_tree_nodeIS8_E = comdat any

$_ZNKSt8_Rb_treeIjSt4pairIKjNSt7__cxx1112basic_stringIcSt11char_traitsIcESaIcEEEESt10_Select1stIS8_ESt4lessIjESaIS8_EE11_Alloc_nodeclIRKS8_EEPSt13_Rb_tree_nodeIS8_EOT_ = comdat any

$_ZNSt13_Rb_tree_nodeISt4pairIKjNSt7__cxx1112basic_stringIcSt11char_traitsIcESaIcEEEEE9_M_valptrEv = comdat any

$_ZNSt8_Rb_treeIjSt4pairIKjNSt7__cxx1112basic_stringIcSt11char_traitsIcESaIcEEEESt10_Select1stIS8_ESt4lessIjESaIS8_EE14_M_create_nodeIJRKS8_EEEPSt13_Rb_tree_nodeIS8_EDpOT_ = comdat any

$_ZNSt8_Rb_treeIjSt4pairIKjNSt7__cxx1112basic_stringIcSt11char_traitsIcESaIcEEEESt10_Select1stIS8_ESt4lessIjESaIS8_EE11_M_get_nodeEv = comdat any

$_ZNSt8_Rb_treeIjSt4pairIKjNSt7__cxx1112basic_stringIcSt11char_traitsIcESaIcEEEESt10_Select1stIS8_ESt4lessIjESaIS8_EE17_M_construct_nodeIJRKS8_EEEvPSt13_Rb_tree_nodeIS8_EDpOT_ = comdat any

$_ZNSt16allocator_traitsISaISt13_Rb_tree_nodeISt4pairIKjNSt7__cxx1112basic_stringIcSt11char_traitsIcESaIcEEEEEEE8allocateERSB_m = comdat any

$_ZNSt8_Rb_treeIjSt4pairIKjNSt7__cxx1112basic_stringIcSt11char_traitsIcESaIcEEEESt10_Select1stIS8_ESt4lessIjESaIS8_EE21_M_get_Node_allocatorEv = comdat any

$_ZNSt15__new_allocatorISt13_Rb_tree_nodeISt4pairIKjNSt7__cxx1112basic_stringIcSt11char_traitsIcESaIcEEEEEE8allocateEmPKv = comdat any

$_ZNKSt15__new_allocatorISt13_Rb_tree_nodeISt4pairIKjNSt7__cxx1112basic_stringIcSt11char_traitsIcESaIcEEEEEE11_M_max_sizeEv = comdat any

$_ZNSt16allocator_traitsISaISt13_Rb_tree_nodeISt4pairIKjNSt7__cxx1112basic_stringIcSt11char_traitsIcESaIcEEEEEEE9constructIS9_JRKS9_EEEvRSB_PT_DpOT0_ = comdat any

$_ZNSt8_Rb_treeIjSt4pairIKjNSt7__cxx1112basic_stringIcSt11char_traitsIcESaIcEEEESt10_Select1stIS8_ESt4lessIjESaIS8_EE11_M_put_nodeEPSt13_Rb_tree_nodeIS8_E = comdat any

$_ZNSt15__new_allocatorISt13_Rb_tree_nodeISt4pairIKjNSt7__cxx1112basic_stringIcSt11char_traitsIcESaIcEEEEEE9constructIS9_JRKS9_EEEvPT_DpOT0_ = comdat any

$_ZNSt4pairIKjNSt7__cxx1112basic_stringIcSt11char_traitsIcESaIcEEEEC2ERKS7_ = comdat any

$_ZNSt16allocator_traitsISaISt13_Rb_tree_nodeISt4pairIKjNSt7__cxx1112basic_stringIcSt11char_traitsIcESaIcEEEEEEE10deallocateERSB_PSA_m = comdat any

$_ZNSt15__new_allocatorISt13_Rb_tree_nodeISt4pairIKjNSt7__cxx1112basic_stringIcSt11char_traitsIcESaIcEEEEEE10deallocateEPSA_m = comdat any

$_ZN9__gnu_cxx16__aligned_membufISt4pairIKjNSt7__cxx1112basic_stringIcSt11char_traitsIcESaIcEEEEE6_M_ptrEv = comdat any

$_ZN9__gnu_cxx16__aligned_membufISt4pairIKjNSt7__cxx1112basic_stringIcSt11char_traitsIcESaIcEEEEE7_M_addrEv = comdat any

$_ZNSt8_Rb_treeIjSt4pairIKjNSt7__cxx1112basic_stringIcSt11char_traitsIcESaIcEEEESt10_Select1stIS8_ESt4lessIjESaIS8_EE12_M_drop_nodeEPSt13_Rb_tree_nodeIS8_E = comdat any

$_ZNSt8_Rb_treeIjSt4pairIKjNSt7__cxx1112basic_stringIcSt11char_traitsIcESaIcEEEESt10_Select1stIS8_ESt4lessIjESaIS8_EE15_M_destroy_nodeEPSt13_Rb_tree_nodeIS8_E = comdat any

$_ZNSt16allocator_traitsISaISt13_Rb_tree_nodeISt4pairIKjNSt7__cxx1112basic_stringIcSt11char_traitsIcESaIcEEEEEEE7destroyIS9_EEvRSB_PT_ = comdat any

$_ZNSt15__new_allocatorISt13_Rb_tree_nodeISt4pairIKjNSt7__cxx1112basic_stringIcSt11char_traitsIcESaIcEEEEEE7destroyIS9_EEvPT_ = comdat any

$_ZNSt4pairIKjNSt7__cxx1112basic_stringIcSt11char_traitsIcESaIcEEEED2Ev = comdat any

$_ZNSt8_Rb_treeIjSt4pairIKj12aiMatrix4x4tIfEESt10_Select1stIS4_ESt4lessIjESaIS4_EEC2ERKSA_ = comdat any

$_ZNSt8_Rb_treeIjSt4pairIKj12aiMatrix4x4tIfEESt10_Select1stIS4_ESt4lessIjESaIS4_EE13_Rb_tree_implIS8_Lb1EEC2ERKSC_ = comdat any

$_ZNKSt8_Rb_treeIjSt4pairIKj12aiMatrix4x4tIfEESt10_Select1stIS4_ESt4lessIjESaIS4_EE7_M_rootEv = comdat any

$_ZNSt8_Rb_treeIjSt4pairIKj12aiMatrix4x4tIfEESt10_Select1stIS4_ESt4lessIjESaIS4_EE7_M_copyERKSA_ = comdat any

$_ZNSt8_Rb_treeIjSt4pairIKj12aiMatrix4x4tIfEESt10_Select1stIS4_ESt4lessIjESaIS4_EE7_M_rootEv = comdat any

$_ZNSt8_Rb_treeIjSt4pairIKj12aiMatrix4x4tIfEESt10_Select1stIS4_ESt4lessIjESaIS4_EE13_Rb_tree_implIS8_Lb1EED2Ev = comdat any

$_ZN9__gnu_cxx14__alloc_traitsISaISt13_Rb_tree_nodeISt4pairIKj12aiMatrix4x4tIfEEEES7_E17_S_select_on_copyERKS8_ = comdat any

$_ZNSaISt13_Rb_tree_nodeISt4pairIKj12aiMatrix4x4tIfEEEED2Ev = comdat any

$_ZNSt16allocator_traitsISaISt13_Rb_tree_nodeISt4pairIKj12aiMatrix4x4tIfEEEEE37select_on_container_copy_constructionERKS7_ = comdat any

$_ZNSaISt13_Rb_tree_nodeISt4pairIKj12aiMatrix4x4tIfEEEEC2ERKS6_ = comdat any

$_ZNSt15__new_allocatorISt13_Rb_tree_nodeISt4pairIKj12aiMatrix4x4tIfEEEEC2ERKS7_ = comdat any

$_ZNSt15__new_allocatorISt13_Rb_tree_nodeISt4pairIKj12aiMatrix4x4tIfEEEED2Ev = comdat any

$_ZNSt8_Rb_treeIjSt4pairIKj12aiMatrix4x4tIfEESt10_Select1stIS4_ESt4lessIjESaIS4_EE11_Alloc_nodeC2ERSA_ = comdat any

$_ZNSt8_Rb_treeIjSt4pairIKj12aiMatrix4x4tIfEESt10_Select1stIS4_ESt4lessIjESaIS4_EE7_M_copyILb0ENSA_11_Alloc_nodeEEEPSt13_Rb_tree_nodeIS4_ERKSA_RT0_ = comdat any

$_ZNSt8_Rb_treeIjSt4pairIKj12aiMatrix4x4tIfEESt10_Select1stIS4_ESt4lessIjESaIS4_EE7_M_copyILb0ENSA_11_Alloc_nodeEEEPSt13_Rb_tree_nodeIS4_ESF_PSt18_Rb_tree_node_baseRT0_ = comdat any

$_ZNKSt8_Rb_treeIjSt4pairIKj12aiMatrix4x4tIfEESt10_Select1stIS4_ESt4lessIjESaIS4_EE9_M_mbeginEv = comdat any

$_ZNSt8_Rb_treeIjSt4pairIKj12aiMatrix4x4tIfEESt10_Select1stIS4_ESt4lessIjESaIS4_EE6_M_endEv = comdat any

$_ZNSt8_Rb_treeIjSt4pairIKj12aiMatrix4x4tIfEESt10_Select1stIS4_ESt4lessIjESaIS4_EE10_S_minimumEPSt18_Rb_tree_node_base = comdat any

$_ZNSt8_Rb_treeIjSt4pairIKj12aiMatrix4x4tIfEESt10_Select1stIS4_ESt4lessIjESaIS4_EE11_M_leftmostEv = comdat any

$_ZNSt8_Rb_treeIjSt4pairIKj12aiMatrix4x4tIfEESt10_Select1stIS4_ESt4lessIjESaIS4_EE10_S_maximumEPSt18_Rb_tree_node_base = comdat any

$_ZNSt8_Rb_treeIjSt4pairIKj12aiMatrix4x4tIfEESt10_Select1stIS4_ESt4lessIjESaIS4_EE12_M_rightmostEv = comdat any

$_ZNSt8_Rb_treeIjSt4pairIKj12aiMatrix4x4tIfEESt10_Select1stIS4_ESt4lessIjESaIS4_EE13_M_clone_nodeILb0ENSA_11_Alloc_nodeEEEPSt13_Rb_tree_nodeIS4_ESF_RT0_ = comdat any

$_ZNSt8_Rb_treeIjSt4pairIKj12aiMatrix4x4tIfEESt10_Select1stIS4_ESt4lessIjESaIS4_EE8_S_rightEPSt18_Rb_tree_node_base = comdat any

$_ZNSt8_Rb_treeIjSt4pairIKj12aiMatrix4x4tIfEESt10_Select1stIS4_ESt4lessIjESaIS4_EE7_S_leftEPSt18_Rb_tree_node_base = comdat any

$_ZNSt8_Rb_treeIjSt4pairIKj12aiMatrix4x4tIfEESt10_Select1stIS4_ESt4lessIjESaIS4_EE8_M_eraseEPSt13_Rb_tree_nodeIS4_E = comdat any

$_ZNKSt8_Rb_treeIjSt4pairIKj12aiMatrix4x4tIfEESt10_Select1stIS4_ESt4lessIjESaIS4_EE11_Alloc_nodeclIRKS4_EEPSt13_Rb_tree_nodeIS4_EOT_ = comdat any

$_ZNSt13_Rb_tree_nodeISt4pairIKj12aiMatrix4x4tIfEEE9_M_valptrEv = comdat any

$_ZNSt8_Rb_treeIjSt4pairIKj12aiMatrix4x4tIfEESt10_Select1stIS4_ESt4lessIjESaIS4_EE14_M_create_nodeIJRKS4_EEEPSt13_Rb_tree_nodeIS4_EDpOT_ = comdat any

$_ZNSt8_Rb_treeIjSt4pairIKj12aiMatrix4x4tIfEESt10_Select1stIS4_ESt4lessIjESaIS4_EE11_M_get_nodeEv = comdat any

$_ZNSt8_Rb_treeIjSt4pairIKj12aiMatrix4x4tIfEESt10_Select1stIS4_ESt4lessIjESaIS4_EE17_M_construct_nodeIJRKS4_EEEvPSt13_Rb_tree_nodeIS4_EDpOT_ = comdat any

$_ZNSt16allocator_traitsISaISt13_Rb_tree_nodeISt4pairIKj12aiMatrix4x4tIfEEEEE8allocateERS7_m = comdat any

$_ZNSt8_Rb_treeIjSt4pairIKj12aiMatrix4x4tIfEESt10_Select1stIS4_ESt4lessIjESaIS4_EE21_M_get_Node_allocatorEv = comdat any

$_ZNSt15__new_allocatorISt13_Rb_tree_nodeISt4pairIKj12aiMatrix4x4tIfEEEE8allocateEmPKv = comdat any

$_ZNKSt15__new_allocatorISt13_Rb_tree_nodeISt4pairIKj12aiMatrix4x4tIfEEEE11_M_max_sizeEv = comdat any

$_ZNSt16allocator_traitsISaISt13_Rb_tree_nodeISt4pairIKj12aiMatrix4x4tIfEEEEE9constructIS5_JRKS5_EEEvRS7_PT_DpOT0_ = comdat any

$_ZNSt8_Rb_treeIjSt4pairIKj12aiMatrix4x4tIfEESt10_Select1stIS4_ESt4lessIjESaIS4_EE11_M_put_nodeEPSt13_Rb_tree_nodeIS4_E = comdat any

$_ZNSt15__new_allocatorISt13_Rb_tree_nodeISt4pairIKj12aiMatrix4x4tIfEEEE9constructIS5_JRKS5_EEEvPT_DpOT0_ = comdat any

$_ZNSt16allocator_traitsISaISt13_Rb_tree_nodeISt4pairIKj12aiMatrix4x4tIfEEEEE10deallocateERS7_PS6_m = comdat any

$_ZNSt15__new_allocatorISt13_Rb_tree_nodeISt4pairIKj12aiMatrix4x4tIfEEEE10deallocateEPS6_m = comdat any

$_ZN9__gnu_cxx16__aligned_membufISt4pairIKj12aiMatrix4x4tIfEEE6_M_ptrEv = comdat any

$_ZN9__gnu_cxx16__aligned_membufISt4pairIKj12aiMatrix4x4tIfEEE7_M_addrEv = comdat any

$_ZNSt8_Rb_treeIjSt4pairIKj12aiMatrix4x4tIfEESt10_Select1stIS4_ESt4lessIjESaIS4_EE12_M_drop_nodeEPSt13_Rb_tree_nodeIS4_E = comdat any

$_ZNSt8_Rb_treeIjSt4pairIKj12aiMatrix4x4tIfEESt10_Select1stIS4_ESt4lessIjESaIS4_EE15_M_destroy_nodeEPSt13_Rb_tree_nodeIS4_E = comdat any

$_ZNSt16allocator_traitsISaISt13_Rb_tree_nodeISt4pairIKj12aiMatrix4x4tIfEEEEE7destroyIS5_EEvRS7_PT_ = comdat any

$_ZNSt15__new_allocatorISt13_Rb_tree_nodeISt4pairIKj12aiMatrix4x4tIfEEEE7destroyIS5_EEvPT_ = comdat any

$_ZNSt8_Rb_treeIjSt4pairIKjSt8functionIFPvS3_EEESt10_Select1stIS6_ESt4lessIjESaIS6_EEC2ERKSC_ = comdat any

$_ZNSt8_Rb_treeIjSt4pairIKjSt8functionIFPvS3_EEESt10_Select1stIS6_ESt4lessIjESaIS6_EE13_Rb_tree_implISA_Lb1EEC2ERKSE_ = comdat any

$_ZNKSt8_Rb_treeIjSt4pairIKjSt8functionIFPvS3_EEESt10_Select1stIS6_ESt4lessIjESaIS6_EE7_M_rootEv = comdat any

$_ZNSt8_Rb_treeIjSt4pairIKjSt8functionIFPvS3_EEESt10_Select1stIS6_ESt4lessIjESaIS6_EE7_M_copyERKSC_ = comdat any

$_ZNSt8_Rb_treeIjSt4pairIKjSt8functionIFPvS3_EEESt10_Select1stIS6_ESt4lessIjESaIS6_EE7_M_rootEv = comdat any

$_ZN9__gnu_cxx14__alloc_traitsISaISt13_Rb_tree_nodeISt4pairIKjSt8functionIFPvS5_EEEEES9_E17_S_select_on_copyERKSA_ = comdat any

$_ZNSaISt13_Rb_tree_nodeISt4pairIKjSt8functionIFPvS3_EEEEED2Ev = comdat any

$_ZNSt16allocator_traitsISaISt13_Rb_tree_nodeISt4pairIKjSt8functionIFPvS4_EEEEEE37select_on_container_copy_constructionERKS9_ = comdat any

$_ZNSaISt13_Rb_tree_nodeISt4pairIKjSt8functionIFPvS3_EEEEEC2ERKS8_ = comdat any

$_ZNSt15__new_allocatorISt13_Rb_tree_nodeISt4pairIKjSt8functionIFPvS4_EEEEEC2ERKS9_ = comdat any

$_ZNSt8_Rb_treeIjSt4pairIKjSt8functionIFPvS3_EEESt10_Select1stIS6_ESt4lessIjESaIS6_EE11_Alloc_nodeC2ERSC_ = comdat any

$_ZNSt8_Rb_treeIjSt4pairIKjSt8functionIFPvS3_EEESt10_Select1stIS6_ESt4lessIjESaIS6_EE7_M_copyILb0ENSC_11_Alloc_nodeEEEPSt13_Rb_tree_nodeIS6_ERKSC_RT0_ = comdat any

$_ZNSt8_Rb_treeIjSt4pairIKjSt8functionIFPvS3_EEESt10_Select1stIS6_ESt4lessIjESaIS6_EE7_M_copyILb0ENSC_11_Alloc_nodeEEEPSt13_Rb_tree_nodeIS6_ESH_PSt18_Rb_tree_node_baseRT0_ = comdat any

$_ZNSt8_Rb_treeIjSt4pairIKjSt8functionIFPvS3_EEESt10_Select1stIS6_ESt4lessIjESaIS6_EE6_M_endEv = comdat any

$_ZNSt8_Rb_treeIjSt4pairIKjSt8functionIFPvS3_EEESt10_Select1stIS6_ESt4lessIjESaIS6_EE10_S_minimumEPSt18_Rb_tree_node_base = comdat any

$_ZNSt8_Rb_treeIjSt4pairIKjSt8functionIFPvS3_EEESt10_Select1stIS6_ESt4lessIjESaIS6_EE11_M_leftmostEv = comdat any

$_ZNSt8_Rb_treeIjSt4pairIKjSt8functionIFPvS3_EEESt10_Select1stIS6_ESt4lessIjESaIS6_EE10_S_maximumEPSt18_Rb_tree_node_base = comdat any

$_ZNSt8_Rb_treeIjSt4pairIKjSt8functionIFPvS3_EEESt10_Select1stIS6_ESt4lessIjESaIS6_EE12_M_rightmostEv = comdat any

$_ZNSt8_Rb_treeIjSt4pairIKjSt8functionIFPvS3_EEESt10_Select1stIS6_ESt4lessIjESaIS6_EE13_M_clone_nodeILb0ENSC_11_Alloc_nodeEEEPSt13_Rb_tree_nodeIS6_ESH_RT0_ = comdat any

$_ZNKSt8_Rb_treeIjSt4pairIKjSt8functionIFPvS3_EEESt10_Select1stIS6_ESt4lessIjESaIS6_EE11_Alloc_nodeclIRKS6_EEPSt13_Rb_tree_nodeIS6_EOT_ = comdat any

$_ZNSt8_Rb_treeIjSt4pairIKjSt8functionIFPvS3_EEESt10_Select1stIS6_ESt4lessIjESaIS6_EE14_M_create_nodeIJRKS6_EEEPSt13_Rb_tree_nodeIS6_EDpOT_ = comdat any

$_ZNSt8_Rb_treeIjSt4pairIKjSt8functionIFPvS3_EEESt10_Select1stIS6_ESt4lessIjESaIS6_EE11_M_get_nodeEv = comdat any

$_ZNSt8_Rb_treeIjSt4pairIKjSt8functionIFPvS3_EEESt10_Select1stIS6_ESt4lessIjESaIS6_EE17_M_construct_nodeIJRKS6_EEEvPSt13_Rb_tree_nodeIS6_EDpOT_ = comdat any

$_ZNSt16allocator_traitsISaISt13_Rb_tree_nodeISt4pairIKjSt8functionIFPvS4_EEEEEE8allocateERS9_m = comdat any

$_ZNSt15__new_allocatorISt13_Rb_tree_nodeISt4pairIKjSt8functionIFPvS4_EEEEE8allocateEmPKv = comdat any

$_ZNKSt15__new_allocatorISt13_Rb_tree_nodeISt4pairIKjSt8functionIFPvS4_EEEEE11_M_max_sizeEv = comdat any

$_ZNSt16allocator_traitsISaISt13_Rb_tree_nodeISt4pairIKjSt8functionIFPvS4_EEEEEE9constructIS7_JRKS7_EEEvRS9_PT_DpOT0_ = comdat any

$_ZNSt15__new_allocatorISt13_Rb_tree_nodeISt4pairIKjSt8functionIFPvS4_EEEEE9constructIS7_JRKS7_EEEvPT_DpOT0_ = comdat any

$_ZNSt4pairIKjSt8functionIFPvS2_EEEC2ERKS5_ = comdat any

$_ZNSt8_Rb_treeIjSt4pairIKj12aiMatrix4x4tIfEESt10_Select1stIS4_ESt4lessIjESaIS4_EED2Ev = comdat any

$_ZNSt8_Rb_treeIjSt4pairIKj12aiMatrix4x4tIfEESt10_Select1stIS4_ESt4lessIjESaIS4_EE8_M_beginEv = comdat any

$_ZNSt8_Rb_treeIjSt4pairIKjNSt7__cxx1112basic_stringIcSt11char_traitsIcESaIcEEEESt10_Select1stIS8_ESt4lessIjESaIS8_EED2Ev = comdat any

$_ZNSt8_Rb_treeIjSt4pairIKjNSt7__cxx1112basic_stringIcSt11char_traitsIcESaIcEEEESt10_Select1stIS8_ESt4lessIjESaIS8_EE8_M_beginEv = comdat any

$_ZNSt8_Rb_treeIjSt4pairIKjfESt10_Select1stIS2_ESt4lessIjESaIS2_EED2Ev = comdat any

$_ZNSt8_Rb_treeIjSt4pairIKjfESt10_Select1stIS2_ESt4lessIjESaIS2_EE8_M_beginEv = comdat any

$_ZNSt8_Rb_treeIjSt4pairIKjiESt10_Select1stIS2_ESt4lessIjESaIS2_EED2Ev = comdat any

$_ZNSt8_Rb_treeIjSt4pairIKjiESt10_Select1stIS2_ESt4lessIjESaIS2_EE8_M_beginEv = comdat any

$_ZNSt14_Function_baseD2Ev = comdat any

$_ZNSt6vectorINSt7__cxx1112basic_stringIcSt11char_traitsIcESaIcEEESaIS5_EE9push_backERKS5_ = comdat any

$_ZNSt16allocator_traitsISaINSt7__cxx1112basic_stringIcSt11char_traitsIcESaIcEEEEE9constructIS5_JRKS5_EEEvRS6_PT_DpOT0_ = comdat any

$_ZNSt6vectorINSt7__cxx1112basic_stringIcSt11char_traitsIcESaIcEEESaIS5_EE17_M_realloc_insertIJRKS5_EEEvN9__gnu_cxx17__normal_iteratorIPS5_S7_EEDpOT_ = comdat any

$_ZNSt6vectorINSt7__cxx1112basic_stringIcSt11char_traitsIcESaIcEEESaIS5_EE3endEv = comdat any

$_ZNSt15__new_allocatorINSt7__cxx1112basic_stringIcSt11char_traitsIcESaIcEEEE9constructIS5_JRKS5_EEEvPT_DpOT0_ = comdat any

$_ZNKSt6vectorINSt7__cxx1112basic_stringIcSt11char_traitsIcESaIcEEESaIS5_EE12_M_check_lenEmPKc = comdat any

$_ZN9__gnu_cxxmiIPNSt7__cxx1112basic_stringIcSt11char_traitsIcESaIcEEESt6vectorIS6_SaIS6_EEEENS_17__normal_iteratorIT_T0_E15difference_typeERKSE_SH_ = comdat any

$_ZNSt6vectorINSt7__cxx1112basic_stringIcSt11char_traitsIcESaIcEEESaIS5_EE5beginEv = comdat any

$_ZNSt12_Vector_baseINSt7__cxx1112basic_stringIcSt11char_traitsIcESaIcEEESaIS5_EE11_M_allocateEm = comdat any

$_ZNSt6vectorINSt7__cxx1112basic_stringIcSt11char_traitsIcESaIcEEESaIS5_EE11_S_relocateEPS5_S8_S8_RS6_ = comdat any

$_ZNK9__gnu_cxx17__normal_iteratorIPNSt7__cxx1112basic_stringIcSt11char_traitsIcESaIcEEESt6vectorIS6_SaIS6_EEE4baseEv = comdat any

$_ZNSt12_Vector_baseINSt7__cxx1112basic_stringIcSt11char_traitsIcESaIcEEESaIS5_EE19_M_get_Tp_allocatorEv = comdat any

$_ZNSt16allocator_traitsISaINSt7__cxx1112basic_stringIcSt11char_traitsIcESaIcEEEEE7destroyIS5_EEvRS6_PT_ = comdat any

$_ZSt8_DestroyIPNSt7__cxx1112basic_stringIcSt11char_traitsIcESaIcEEES5_EvT_S7_RSaIT0_E = comdat any

$_ZNSt12_Vector_baseINSt7__cxx1112basic_stringIcSt11char_traitsIcESaIcEEESaIS5_EE13_M_deallocateEPS5_m = comdat any

$_ZNKSt6vectorINSt7__cxx1112basic_stringIcSt11char_traitsIcESaIcEEESaIS5_EE8max_sizeEv = comdat any

$_ZNKSt6vectorINSt7__cxx1112basic_stringIcSt11char_traitsIcESaIcEEESaIS5_EE4sizeEv = comdat any

$_ZNSt6vectorINSt7__cxx1112basic_stringIcSt11char_traitsIcESaIcEEESaIS5_EE11_S_max_sizeERKS6_ = comdat any

$_ZNKSt12_Vector_baseINSt7__cxx1112basic_stringIcSt11char_traitsIcESaIcEEESaIS5_EE19_M_get_Tp_allocatorEv = comdat any

$_ZNSt16allocator_traitsISaINSt7__cxx1112basic_stringIcSt11char_traitsIcESaIcEEEEE8max_sizeERKS6_ = comdat any

$_ZNKSt15__new_allocatorINSt7__cxx1112basic_stringIcSt11char_traitsIcESaIcEEEE8max_sizeEv = comdat any

$_ZNKSt15__new_allocatorINSt7__cxx1112basic_stringIcSt11char_traitsIcESaIcEEEE11_M_max_sizeEv = comdat any

$_ZN9__gnu_cxx17__normal_iteratorIPNSt7__cxx1112basic_stringIcSt11char_traitsIcESaIcEEESt6vectorIS6_SaIS6_EEEC2ERKS7_ = comdat any

$_ZNSt16allocator_traitsISaINSt7__cxx1112basic_stringIcSt11char_traitsIcESaIcEEEEE8allocateERS6_m = comdat any

$_ZNSt15__new_allocatorINSt7__cxx1112basic_stringIcSt11char_traitsIcESaIcEEEE8allocateEmPKv = comdat any

$_ZSt12__relocate_aIPNSt7__cxx1112basic_stringIcSt11char_traitsIcESaIcEEES6_SaIS5_EET0_T_S9_S8_RT1_ = comdat any

$_ZSt14__relocate_a_1IPNSt7__cxx1112basic_stringIcSt11char_traitsIcESaIcEEES6_SaIS5_EET0_T_S9_S8_RT1_ = comdat any

$_ZSt12__niter_baseIPNSt7__cxx1112basic_stringIcSt11char_traitsIcESaIcEEEET_S7_ = comdat any

$_ZSt19__relocate_object_aINSt7__cxx1112basic_stringIcSt11char_traitsIcESaIcEEES5_SaIS5_EEvPT_PT0_RT1_ = comdat any

$_ZNSt16allocator_traitsISaINSt7__cxx1112basic_stringIcSt11char_traitsIcESaIcEEEEE9constructIS5_JS5_EEEvRS6_PT_DpOT0_ = comdat any

$_ZNSt15__new_allocatorINSt7__cxx1112basic_stringIcSt11char_traitsIcESaIcEEEE9constructIS5_JS5_EEEvPT_DpOT0_ = comdat any

$_ZNSt15__new_allocatorINSt7__cxx1112basic_stringIcSt11char_traitsIcESaIcEEEE7destroyIS5_EEvPT_ = comdat any

$_ZSt8_DestroyIPNSt7__cxx1112basic_stringIcSt11char_traitsIcESaIcEEEEvT_S7_ = comdat any

$_ZNSt12_Destroy_auxILb0EE9__destroyIPNSt7__cxx1112basic_stringIcSt11char_traitsIcESaIcEEEEEvT_S9_ = comdat any

$_ZSt8_DestroyINSt7__cxx1112basic_stringIcSt11char_traitsIcESaIcEEEEvPT_ = comdat any

$_ZNSt16allocator_traitsISaINSt7__cxx1112basic_stringIcSt11char_traitsIcESaIcEEEEE10deallocateERS6_PS5_m = comdat any

$_ZNSt15__new_allocatorINSt7__cxx1112basic_stringIcSt11char_traitsIcESaIcEEEE10deallocateEPS5_m = comdat any

$_ZNKSt6vectorINSt7__cxx1112basic_stringIcSt11char_traitsIcESaIcEEESaIS5_EE5emptyEv = comdat any

$_ZNSt6vectorINSt7__cxx1112basic_stringIcSt11char_traitsIcESaIcEEESaIS5_EE8pop_backEv = comdat any

$_ZN9__gnu_cxxeqIPKNSt7__cxx1112basic_stringIcSt11char_traitsIcESaIcEEESt6vectorIS6_SaIS6_EEEEbRKNS_17__normal_iteratorIT_T0_EESH_ = comdat any

$_ZNKSt6vectorINSt7__cxx1112basic_stringIcSt11char_traitsIcESaIcEEESaIS5_EE5beginEv = comdat any

$_ZNKSt6vectorINSt7__cxx1112basic_stringIcSt11char_traitsIcESaIcEEESaIS5_EE3endEv = comdat any

$_ZNK9__gnu_cxx17__normal_iteratorIPKNSt7__cxx1112basic_stringIcSt11char_traitsIcESaIcEEESt6vectorIS6_SaIS6_EEE4baseEv = comdat any

$_ZN9__gnu_cxx17__normal_iteratorIPKNSt7__cxx1112basic_stringIcSt11char_traitsIcESaIcEEESt6vectorIS6_SaIS6_EEEC2ERKS8_ = comdat any

$_ZN6Assimp12BlobIOStream4GrowEm = comdat any

$_ZNSt12_Vector_baseINSt7__cxx1112basic_stringIcSt11char_traitsIcESaIcEEESaIS5_EED2Ev = comdat any

$_ZNSt12_Vector_baseINSt7__cxx1112basic_stringIcSt11char_traitsIcESaIcEEESaIS5_EE12_Vector_implD2Ev = comdat any

$_ZNSaINSt7__cxx1112basic_stringIcSt11char_traitsIcESaIcEEEED2Ev = comdat any

$_ZNSt15__new_allocatorINSt7__cxx1112basic_stringIcSt11char_traitsIcESaIcEEEED2Ev = comdat any

$_ZNSt11char_traitsIcE6lengthEPKc = comdat any

$_ZNSt7__cxx1112basic_stringIcSt11char_traitsIcESaIcEE12_M_constructIPKcEEvT_S8_St20forward_iterator_tag = comdat any

$_ZNSt7__cxx1112basic_stringIcSt11char_traitsIcESaIcEE12_Alloc_hiderD2Ev = comdat any

$_ZSt8distanceIPKcENSt15iterator_traitsIT_E15difference_typeES3_S3_ = comdat any

$_ZZNSt7__cxx1112basic_stringIcSt11char_traitsIcESaIcEE12_M_constructIPKcEEvT_S8_St20forward_iterator_tagEN6_GuardC2EPS4_ = comdat any

$_ZZNSt7__cxx1112basic_stringIcSt11char_traitsIcESaIcEE12_M_constructIPKcEEvT_S8_St20forward_iterator_tagEN6_GuardD2Ev = comdat any

$_ZSt10__distanceIPKcENSt15iterator_traitsIT_E15difference_typeES3_S3_St26random_access_iterator_tag = comdat any

$_ZSt19__iterator_categoryIPKcENSt15iterator_traitsIT_E17iterator_categoryERKS3_ = comdat any

$_ZNSt12__shared_ptrIN6Assimp8IOSystemELN9__gnu_cxx12_Lock_policyE2EEC2IS1_vEEPT_ = comdat any

$_ZNSt12__shared_ptrIN6Assimp8IOSystemELN9__gnu_cxx12_Lock_policyE2EE4swapERS4_ = comdat any

$_ZNSt12__shared_ptrIN6Assimp8IOSystemELN9__gnu_cxx12_Lock_policyE2EED2Ev = comdat any

$_ZNSt14__shared_countILN9__gnu_cxx12_Lock_policyE2EEC2IPN6Assimp8IOSystemEEET_St17integral_constantIbLb0EE = comdat any

$_ZNSt12__shared_ptrIN6Assimp8IOSystemELN9__gnu_cxx12_Lock_policyE2EE31_M_enable_shared_from_this_withIS1_S1_EENSt9enable_ifIXntsr15__has_esft_baseIT0_EE5valueEvE4typeEPT_ = comdat any

$_ZNSt14__shared_countILN9__gnu_cxx12_Lock_policyE2EEC2IPN6Assimp8IOSystemEEET_ = comdat any

$_ZNSt15_Sp_counted_ptrIPN6Assimp8IOSystemELN9__gnu_cxx12_Lock_policyE2EEC2ES2_ = comdat any

$_ZNSt15_Sp_counted_ptrIPN6Assimp8IOSystemELN9__gnu_cxx12_Lock_policyE2EED2Ev = comdat any

$_ZNSt15_Sp_counted_ptrIPN6Assimp8IOSystemELN9__gnu_cxx12_Lock_policyE2EED0Ev = comdat any

$_ZNSt15_Sp_counted_ptrIPN6Assimp8IOSystemELN9__gnu_cxx12_Lock_policyE2EE10_M_disposeEv = comdat any

$_ZNSt15_Sp_counted_ptrIPN6Assimp8IOSystemELN9__gnu_cxx12_Lock_policyE2EE10_M_destroyEv = comdat any

$_ZNSt15_Sp_counted_ptrIPN6Assimp8IOSystemELN9__gnu_cxx12_Lock_policyE2EE14_M_get_deleterERKSt9type_info = comdat any

$_ZSt4swapIPN6Assimp8IOSystemEENSt9enable_ifIXsr6__and_ISt6__not_ISt15__is_tuple_likeIT_EESt21is_move_constructibleIS6_ESt18is_move_assignableIS6_EEE5valueEvE4typeERS6_SF_ = comdat any

$_ZNSt14__shared_countILN9__gnu_cxx12_Lock_policyE2EE7_M_swapERS2_ = comdat any

$_ZNSt12__shared_ptrIN6Assimp8IOSystemELN9__gnu_cxx12_Lock_policyE2EEC2INS0_12BlobIOSystemEvEEPT_ = comdat any

$_ZNSt14__shared_countILN9__gnu_cxx12_Lock_policyE2EEC2IPN6Assimp12BlobIOSystemEEET_St17integral_constantIbLb0EE = comdat any

$_ZNSt12__shared_ptrIN6Assimp8IOSystemELN9__gnu_cxx12_Lock_policyE2EE31_M_enable_shared_from_this_withINS0_12BlobIOSystemES6_EENSt9enable_ifIXntsr15__has_esft_baseIT0_EE5valueEvE4typeEPT_ = comdat any

$_ZNSt14__shared_countILN9__gnu_cxx12_Lock_policyE2EEC2IPN6Assimp12BlobIOSystemEEET_ = comdat any

$_ZNSt15_Sp_counted_ptrIPN6Assimp12BlobIOSystemELN9__gnu_cxx12_Lock_policyE2EEC2ES2_ = comdat any

$_ZNSt15_Sp_counted_ptrIPN6Assimp12BlobIOSystemELN9__gnu_cxx12_Lock_policyE2EED2Ev = comdat any

$_ZNSt15_Sp_counted_ptrIPN6Assimp12BlobIOSystemELN9__gnu_cxx12_Lock_policyE2EED0Ev = comdat any

$_ZNSt15_Sp_counted_ptrIPN6Assimp12BlobIOSystemELN9__gnu_cxx12_Lock_policyE2EE10_M_disposeEv = comdat any

$_ZNSt15_Sp_counted_ptrIPN6Assimp12BlobIOSystemELN9__gnu_cxx12_Lock_policyE2EE10_M_destroyEv = comdat any

$_ZNSt15_Sp_counted_ptrIPN6Assimp12BlobIOSystemELN9__gnu_cxx12_Lock_policyE2EE14_M_get_deleterERKSt9type_info = comdat any

$_ZNSt12__shared_ptrIN6Assimp8IOSystemELN9__gnu_cxx12_Lock_policyE2EEaSEOS4_ = comdat any

$_ZNSt12__shared_ptrIN6Assimp8IOSystemELN9__gnu_cxx12_Lock_policyE2EEC2EOS4_ = comdat any

$_ZNSt14__shared_countILN9__gnu_cxx12_Lock_policyE2EEC2Ev = comdat any

$_ZNSt15__uniq_ptr_dataI7aiSceneSt14default_deleteIS0_ELb1ELb1EECI2St15__uniq_ptr_implIS0_S2_EEPS0_ = comdat any

$_ZNSt15__uniq_ptr_implI7aiSceneSt14default_deleteIS0_EEC2EPS0_ = comdat any

$_ZNSt5tupleIJP7aiSceneSt14default_deleteIS0_EEEC2ILb1ETnNSt9enable_ifIXclsr17_TupleConstraintsIXT_ES1_S3_EE37__is_implicitly_default_constructibleEEbE4typeELb1EEEv = comdat any

$_ZNSt15__uniq_ptr_implI7aiSceneSt14default_deleteIS0_EE6_M_ptrEv = comdat any

$_ZNSt11_Tuple_implILm0EJP7aiSceneSt14default_deleteIS0_EEEC2Ev = comdat any

$_ZNSt11_Tuple_implILm1EJSt14default_deleteI7aiSceneEEEC2Ev = comdat any

$_ZNSt10_Head_baseILm0EP7aiSceneLb0EEC2Ev = comdat any

$_ZNSt10_Head_baseILm1ESt14default_deleteI7aiSceneELb1EEC2Ev = comdat any

$_ZSt3getILm0EJP7aiSceneSt14default_deleteIS0_EEERNSt13tuple_elementIXT_ESt5tupleIJDpT0_EEE4typeERS8_ = comdat any

$_ZSt12__get_helperILm0EP7aiSceneJSt14default_deleteIS0_EEERT0_RSt11_Tuple_implIXT_EJS4_DpT1_EE = comdat any

$_ZNSt11_Tuple_implILm0EJP7aiSceneSt14default_deleteIS0_EEE7_M_headERS4_ = comdat any

$_ZNSt10_Head_baseILm0EP7aiSceneLb0EE7_M_headERS2_ = comdat any

$_ZNSt10unique_ptrI7aiSceneSt14default_deleteIS0_EE11get_deleterEv = comdat any

$_ZNKSt14default_deleteI7aiSceneEclEPS0_ = comdat any

$_ZNSt15__uniq_ptr_implI7aiSceneSt14default_deleteIS0_EE10_M_deleterEv = comdat any

$_ZSt3getILm1EJP7aiSceneSt14default_deleteIS0_EEERNSt13tuple_elementIXT_ESt5tupleIJDpT0_EEE4typeERS8_ = comdat any

$_ZSt12__get_helperILm1ESt14default_deleteI7aiSceneEJEERT0_RSt11_Tuple_implIXT_EJS3_DpT1_EE = comdat any

$_ZNSt11_Tuple_implILm1EJSt14default_deleteI7aiSceneEEE7_M_headERS3_ = comdat any

$_ZNSt10_Head_baseILm1ESt14default_deleteI7aiSceneELb1EE7_M_headERS3_ = comdat any

$_ZNKSt15__uniq_ptr_implI7aiSceneSt14default_deleteIS0_EE6_M_ptrEv = comdat any

$_ZSt3getILm0EJP7aiSceneSt14default_deleteIS0_EEERKNSt13tuple_elementIXT_ESt5tupleIJDpT0_EEE4typeERKS8_ = comdat any

$_ZSt12__get_helperILm0EP7aiSceneJSt14default_deleteIS0_EEERKT0_RKSt11_Tuple_implIXT_EJS4_DpT1_EE = comdat any

$_ZNSt11_Tuple_implILm0EJP7aiSceneSt14default_deleteIS0_EEE7_M_headERKS4_ = comdat any

$_ZNSt10_Head_baseILm0EP7aiSceneLb0EE7_M_headERKS2_ = comdat any

$_ZNSt16allocator_traitsISaIN6Assimp8Exporter17ExportFormatEntryEEE9constructIS2_JRKS2_EEEvRS3_PT_DpOT0_ = comdat any

$_ZNSt6vectorIN6Assimp8Exporter17ExportFormatEntryESaIS2_EE17_M_realloc_insertIJRKS2_EEEvN9__gnu_cxx17__normal_iteratorIPS2_S4_EEDpOT_ = comdat any

$_ZNSt15__new_allocatorIN6Assimp8Exporter17ExportFormatEntryEE9constructIS2_JRKS2_EEEvPT_DpOT0_ = comdat any

$_ZNSt6vectorIN6Assimp8Exporter17ExportFormatEntryESaIS2_EE8_M_eraseEN9__gnu_cxx17__normal_iteratorIPS2_S4_EE = comdat any

$_ZNK9__gnu_cxx17__normal_iteratorIPN6Assimp8Exporter17ExportFormatEntryESt6vectorIS3_SaIS3_EEEplEl = comdat any

$_ZN9__gnu_cxxmiIPKN6Assimp8Exporter17ExportFormatEntryESt6vectorIS3_SaIS3_EEEENS_17__normal_iteratorIT_T0_E15difference_typeERKSC_SF_ = comdat any

$_ZNKSt6vectorIN6Assimp8Exporter17ExportFormatEntryESaIS2_EE6cbeginEv = comdat any

$_ZSt4moveIN9__gnu_cxx17__normal_iteratorIPN6Assimp8Exporter17ExportFormatEntryESt6vectorIS4_SaIS4_EEEES9_ET0_T_SB_SA_ = comdat any

$_ZSt13__copy_move_aILb1EN9__gnu_cxx17__normal_iteratorIPN6Assimp8Exporter17ExportFormatEntryESt6vectorIS4_SaIS4_EEEES9_ET1_T0_SB_SA_ = comdat any

$_ZSt12__miter_baseIN9__gnu_cxx17__normal_iteratorIPN6Assimp8Exporter17ExportFormatEntryESt6vectorIS4_SaIS4_EEEEET_SA_ = comdat any

$_ZSt12__niter_wrapIN9__gnu_cxx17__normal_iteratorIPN6Assimp8Exporter17ExportFormatEntryESt6vectorIS4_SaIS4_EEEES5_ET_SA_T0_ = comdat any

$_ZSt14__copy_move_a1ILb1EPN6Assimp8Exporter17ExportFormatEntryES3_ET1_T0_S5_S4_ = comdat any

$_ZSt12__niter_baseIPN6Assimp8Exporter17ExportFormatEntryESt6vectorIS2_SaIS2_EEET_N9__gnu_cxx17__normal_iteratorIS7_T0_EE = comdat any

$_ZSt14__copy_move_a2ILb1EPN6Assimp8Exporter17ExportFormatEntryES3_ET1_T0_S5_S4_ = comdat any

$_ZNSt11__copy_moveILb1ELb1ESt26random_access_iterator_tagE8__copy_mIN6Assimp8Exporter17ExportFormatEntryEEEPT_PKS6_S9_S7_ = comdat any

$_ZNK9__gnu_cxx17__normal_iteratorIPKN6Assimp8Exporter17ExportFormatEntryESt6vectorIS3_SaIS3_EEE4baseEv = comdat any

$_ZN9__gnu_cxx17__normal_iteratorIPKN6Assimp8Exporter17ExportFormatEntryESt6vectorIS3_SaIS3_EEEC2ERKS5_ = comdat any

$_Z13SuperFastHashPKcjj = comdat any

$_ZNSt3mapIjSt8functionIFPvS1_EESt4lessIjESaISt4pairIKjS3_EEE4findERS7_ = comdat any

$_ZSteqRKSt17_Rb_tree_iteratorISt4pairIKjSt8functionIFPvS3_EEEES9_ = comdat any

$_ZNSt3mapIjSt8functionIFPvS1_EESt4lessIjESaISt4pairIKjS3_EEE3endEv = comdat any

$_ZNSt3mapIjSt8functionIFPvS1_EESt4lessIjESaISt4pairIKjS3_EEE6insertIS6_IjS3_EEENSt9enable_ifIXsr16is_constructibleIS8_T_EE5valueES6_ISt17_Rb_tree_iteratorIS8_EbEE4typeEOSE_ = comdat any

$_ZNSt4pairIjSt8functionIFPvS1_EEEC2IjS3_TnNSt9enable_ifIXaaclsr5_PCCPE18_ConstructiblePairIT_T0_EEclsr5_PCCPE26_ImplicitlyConvertiblePairIS7_S8_EEEbE4typeELb1EEERKjRKS3_ = comdat any

$_ZNSt4pairIjSt8functionIFPvS1_EEED2Ev = comdat any

$_ZNKSt17_Rb_tree_iteratorISt4pairIKjSt8functionIFPvS3_EEEEdeEv = comdat any

$_ZNSt8functionIFPvS0_EEaSERKS2_ = comdat any

$_ZNSt8_Rb_treeIjSt4pairIKjSt8functionIFPvS3_EEESt10_Select1stIS6_ESt4lessIjESaIS6_EE4findERS1_ = comdat any

$_ZNSt8_Rb_treeIjSt4pairIKjSt8functionIFPvS3_EEESt10_Select1stIS6_ESt4lessIjESaIS6_EE14_M_lower_boundEPSt13_Rb_tree_nodeIS6_EPSt18_Rb_tree_node_baseRS1_ = comdat any

$_ZNSt8_Rb_treeIjSt4pairIKjSt8functionIFPvS3_EEESt10_Select1stIS6_ESt4lessIjESaIS6_EE3endEv = comdat any

$_ZNKSt4lessIjEclERKjS2_ = comdat any

$_ZNSt8_Rb_treeIjSt4pairIKjSt8functionIFPvS3_EEESt10_Select1stIS6_ESt4lessIjESaIS6_EE6_S_keyEPKSt18_Rb_tree_node_base = comdat any

$_ZNSt8_Rb_treeIjSt4pairIKjSt8functionIFPvS3_EEESt10_Select1stIS6_ESt4lessIjESaIS6_EE6_S_keyEPKSt13_Rb_tree_nodeIS6_E = comdat any

$_ZNSt17_Rb_tree_iteratorISt4pairIKjSt8functionIFPvS3_EEEEC2EPSt18_Rb_tree_node_base = comdat any

$_ZNKSt10_Select1stISt4pairIKjSt8functionIFPvS3_EEEEclERKS6_ = comdat any

$_ZNKSt13_Rb_tree_nodeISt4pairIKjSt8functionIFPvS3_EEEE9_M_valptrEv = comdat any

$_ZNK9__gnu_cxx16__aligned_membufISt4pairIKjSt8functionIFPvS4_EEEE6_M_ptrEv = comdat any

$_ZNK9__gnu_cxx16__aligned_membufISt4pairIKjSt8functionIFPvS4_EEEE7_M_addrEv = comdat any

$_ZNSt3mapIjSt8functionIFPvS1_EESt4lessIjESaISt4pairIKjS3_EEE11lower_boundERS7_ = comdat any

$_ZNKSt3mapIjSt8functionIFPvS1_EESt4lessIjESaISt4pairIKjS3_EEE8key_compEv = comdat any

$_ZNSt3mapIjSt8functionIFPvS1_EESt4lessIjESaISt4pairIKjS3_EEE12emplace_hintIJS6_IjS3_EEEESt17_Rb_tree_iteratorIS8_ESt23_Rb_tree_const_iteratorIS8_EDpOT_ = comdat any

$_ZNSt23_Rb_tree_const_iteratorISt4pairIKjSt8functionIFPvS3_EEEEC2ERKSt17_Rb_tree_iteratorIS6_E = comdat any

$_ZNSt4pairISt17_Rb_tree_iteratorIS_IKjSt8functionIFPvS3_EEEEbEC2IRS7_bTnNSt9enable_ifIXaaclsr5_PCCPE22_MoveConstructiblePairIT_T0_EEclsr5_PCCPE30_ImplicitlyMoveConvertiblePairISC_SD_EEEbE4typeELb1EEEOSC_OSD_ = comdat any

$_ZNSt8_Rb_treeIjSt4pairIKjSt8functionIFPvS3_EEESt10_Select1stIS6_ESt4lessIjESaIS6_EE11lower_boundERS1_ = comdat any

$_ZNKSt8_Rb_treeIjSt4pairIKjSt8functionIFPvS3_EEESt10_Select1stIS6_ESt4lessIjESaIS6_EE8key_compEv = comdat any

$_ZNSt8_Rb_treeIjSt4pairIKjSt8functionIFPvS3_EEESt10_Select1stIS6_ESt4lessIjESaIS6_EE22_M_emplace_hint_uniqueIJS0_IjS5_EEEESt17_Rb_tree_iteratorIS6_ESt23_Rb_tree_const_iteratorIS6_EDpOT_ = comdat any

$_ZNSt8_Rb_treeIjSt4pairIKjSt8functionIFPvS3_EEESt10_Select1stIS6_ESt4lessIjESaIS6_EE10_Auto_nodeC2IJS0_IjS5_EEEERSC_DpOT_ = comdat any

$_ZNSt8_Rb_treeIjSt4pairIKjSt8functionIFPvS3_EEESt10_Select1stIS6_ESt4lessIjESaIS6_EE29_M_get_insert_hint_unique_posESt23_Rb_tree_const_iteratorIS6_ERS1_ = comdat any

$_ZNKSt8_Rb_treeIjSt4pairIKjSt8functionIFPvS3_EEESt10_Select1stIS6_ESt4lessIjESaIS6_EE10_Auto_node6_M_keyEv = comdat any

$_ZNSt8_Rb_treeIjSt4pairIKjSt8functionIFPvS3_EEESt10_Select1stIS6_ESt4lessIjESaIS6_EE10_Auto_node9_M_insertES0_IPSt18_Rb_tree_node_baseSF_E = comdat any

$_ZNSt8_Rb_treeIjSt4pairIKjSt8functionIFPvS3_EEESt10_Select1stIS6_ESt4lessIjESaIS6_EE10_Auto_nodeD2Ev = comdat any

$_ZNSt8_Rb_treeIjSt4pairIKjSt8functionIFPvS3_EEESt10_Select1stIS6_ESt4lessIjESaIS6_EE14_M_create_nodeIJS0_IjS5_EEEEPSt13_Rb_tree_nodeIS6_EDpOT_ = comdat any

$_ZNSt8_Rb_treeIjSt4pairIKjSt8functionIFPvS3_EEESt10_Select1stIS6_ESt4lessIjESaIS6_EE17_M_construct_nodeIJS0_IjS5_EEEEvPSt13_Rb_tree_nodeIS6_EDpOT_ = comdat any

$_ZNSt16allocator_traitsISaISt13_Rb_tree_nodeISt4pairIKjSt8functionIFPvS4_EEEEEE9constructIS7_JS1_IjS6_EEEEvRS9_PT_DpOT0_ = comdat any

$_ZNSt15__new_allocatorISt13_Rb_tree_nodeISt4pairIKjSt8functionIFPvS4_EEEEE9constructIS7_JS1_IjS6_EEEEvPT_DpOT0_ = comdat any

$_ZNSt4pairIKjSt8functionIFPvS2_EEEC2IjS4_TnNSt9enable_ifIXaaclsr6_PCCFPIT_T0_EE22_MoveConstructiblePairIS8_S9_EEclsr6_PCCFPIS8_S9_EE30_ImplicitlyMoveConvertiblePairIS8_S9_EEEbE4typeELb1EEEOS_IS8_S9_E = comdat any

$_ZNSt8functionIFPvS0_EEC2EOS2_ = comdat any

$_ZNSt14_Function_baseC2Ev = comdat any

$_ZNKSt8functionIFPvS0_EEcvbEv = comdat any

$_ZNKSt14_Function_base8_M_emptyEv = comdat any

$_ZNKSt23_Rb_tree_const_iteratorISt4pairIKjSt8functionIFPvS3_EEEE13_M_const_castEv = comdat any

$_ZNKSt8_Rb_treeIjSt4pairIKjSt8functionIFPvS3_EEESt10_Select1stIS6_ESt4lessIjESaIS6_EE4sizeEv = comdat any

$_ZNSt8_Rb_treeIjSt4pairIKjSt8functionIFPvS3_EEESt10_Select1stIS6_ESt4lessIjESaIS6_EE24_M_get_insert_unique_posERS1_ = comdat any

$_ZNSt4pairIPSt18_Rb_tree_node_baseS1_EC2IRS1_S4_TnNSt9enable_ifIXaaclsr5_PCCPE22_MoveConstructiblePairIT_T0_EEclsr5_PCCPE30_ImplicitlyMoveConvertiblePairIS6_S7_EEEbE4typeELb1EEEOS6_OS7_ = comdat any

$_ZNSt17_Rb_tree_iteratorISt4pairIKjSt8functionIFPvS3_EEEEmmEv = comdat any

$_ZNSt17_Rb_tree_iteratorISt4pairIKjSt8functionIFPvS3_EEEEppEv = comdat any

$_ZNSt8_Rb_treeIjSt4pairIKjSt8functionIFPvS3_EEESt10_Select1stIS6_ESt4lessIjESaIS6_EE5beginEv = comdat any

$_ZNSt4pairIPSt18_Rb_tree_node_baseS1_EC2IRPSt13_Rb_tree_nodeIS_IKjSt8functionIFPvS7_EEEERS1_TnNSt9enable_ifIXaaclsr5_PCCPE22_MoveConstructiblePairIT_T0_EEclsr5_PCCPE30_ImplicitlyMoveConvertiblePairISG_SH_EEEbE4typeELb1EEEOSG_OSH_ = comdat any

$_ZNSt8_Rb_treeIjSt4pairIKjSt8functionIFPvS3_EEESt10_Select1stIS6_ESt4lessIjESaIS6_EE14_M_insert_nodeEPSt18_Rb_tree_node_baseSE_PSt13_Rb_tree_nodeIS6_E = comdat any

$_ZNSt8functionIFPvS0_EE4swapERS2_ = comdat any

$_ZSt4swapISt9_Any_dataENSt9enable_ifIXsr6__and_ISt6__not_ISt15__is_tuple_likeIT_EESt21is_move_constructibleIS4_ESt18is_move_assignableIS4_EEE5valueEvE4typeERS4_SD_ = comdat any

$_ZSt4swapIPFbRSt9_Any_dataRKS0_St18_Manager_operationEENSt9enable_ifIXsr6__and_ISt6__not_ISt15__is_tuple_likeIT_EESt21is_move_constructibleISA_ESt18is_move_assignableISA_EEE5valueEvE4typeERSA_SJ_ = comdat any

$_ZSt4swapIPFPvRKSt9_Any_dataOS0_EENSt9enable_ifIXsr6__and_ISt6__not_ISt15__is_tuple_likeIT_EESt21is_move_constructibleISA_ESt18is_move_assignableISA_EEE5valueEvE4typeERSA_SJ_ = comdat any

$_ZNKSt3mapIjSt8functionIFPvS1_EESt4lessIjESaISt4pairIKjS3_EEE4findERS7_ = comdat any

$_ZSteqRKSt23_Rb_tree_const_iteratorISt4pairIKjSt8functionIFPvS3_EEEES9_ = comdat any

$_ZNKSt3mapIjSt8functionIFPvS1_EESt4lessIjESaISt4pairIKjS3_EEE3endEv = comdat any

$_ZNKSt23_Rb_tree_const_iteratorISt4pairIKjSt8functionIFPvS3_EEEEdeEv = comdat any

$_ZNKSt8_Rb_treeIjSt4pairIKjSt8functionIFPvS3_EEESt10_Select1stIS6_ESt4lessIjESaIS6_EE4findERS1_ = comdat any

$_ZNKSt8_Rb_treeIjSt4pairIKjSt8functionIFPvS3_EEESt10_Select1stIS6_ESt4lessIjESaIS6_EE14_M_lower_boundEPKSt13_Rb_tree_nodeIS6_EPKSt18_Rb_tree_node_baseRS1_ = comdat any

$_ZNKSt8_Rb_treeIjSt4pairIKjSt8functionIFPvS3_EEESt10_Select1stIS6_ESt4lessIjESaIS6_EE8_M_beginEv = comdat any

$_ZNKSt8_Rb_treeIjSt4pairIKjSt8functionIFPvS3_EEESt10_Select1stIS6_ESt4lessIjESaIS6_EE6_M_endEv = comdat any

$_ZNKSt8_Rb_treeIjSt4pairIKjSt8functionIFPvS3_EEESt10_Select1stIS6_ESt4lessIjESaIS6_EE3endEv = comdat any

$_ZNSt8_Rb_treeIjSt4pairIKjSt8functionIFPvS3_EEESt10_Select1stIS6_ESt4lessIjESaIS6_EE7_S_leftEPKSt18_Rb_tree_node_base = comdat any

$_ZNSt8_Rb_treeIjSt4pairIKjSt8functionIFPvS3_EEESt10_Select1stIS6_ESt4lessIjESaIS6_EE8_S_rightEPKSt18_Rb_tree_node_base = comdat any

$_ZNSt23_Rb_tree_const_iteratorISt4pairIKjSt8functionIFPvS3_EEEEC2EPKSt18_Rb_tree_node_base = comdat any

$_ZNSt3mapIjiSt4lessIjESaISt4pairIKjiEEE4findERS3_ = comdat any

$_ZSteqRKSt17_Rb_tree_iteratorISt4pairIKjiEES5_ = comdat any

$_ZNSt3mapIjiSt4lessIjESaISt4pairIKjiEEE3endEv = comdat any

$_ZNSt3mapIjiSt4lessIjESaISt4pairIKjiEEE6insertIS2_IjiEEENSt9enable_ifIXsr16is_constructibleIS4_T_EE5valueES2_ISt17_Rb_tree_iteratorIS4_EbEE4typeEOSA_ = comdat any

$_ZNSt4pairIjiEC2IjiTnNSt9enable_ifIXaaclsr5_PCCPE18_ConstructiblePairIT_T0_EEclsr5_PCCPE26_ImplicitlyConvertiblePairIS3_S4_EEEbE4typeELb1EEERKjRKi = comdat any

$_ZNKSt17_Rb_tree_iteratorISt4pairIKjiEEdeEv = comdat any

$_ZNSt8_Rb_treeIjSt4pairIKjiESt10_Select1stIS2_ESt4lessIjESaIS2_EE4findERS1_ = comdat any

$_ZNSt8_Rb_treeIjSt4pairIKjiESt10_Select1stIS2_ESt4lessIjESaIS2_EE14_M_lower_boundEPSt13_Rb_tree_nodeIS2_EPSt18_Rb_tree_node_baseRS1_ = comdat any

$_ZNSt8_Rb_treeIjSt4pairIKjiESt10_Select1stIS2_ESt4lessIjESaIS2_EE3endEv = comdat any

$_ZNSt8_Rb_treeIjSt4pairIKjiESt10_Select1stIS2_ESt4lessIjESaIS2_EE6_S_keyEPKSt18_Rb_tree_node_base = comdat any

$_ZNSt8_Rb_treeIjSt4pairIKjiESt10_Select1stIS2_ESt4lessIjESaIS2_EE6_S_keyEPKSt13_Rb_tree_nodeIS2_E = comdat any

$_ZNSt17_Rb_tree_iteratorISt4pairIKjiEEC2EPSt18_Rb_tree_node_base = comdat any

$_ZNKSt10_Select1stISt4pairIKjiEEclERKS2_ = comdat any

$_ZNKSt13_Rb_tree_nodeISt4pairIKjiEE9_M_valptrEv = comdat any

$_ZNK9__gnu_cxx16__aligned_membufISt4pairIKjiEE6_M_ptrEv = comdat any

$_ZNK9__gnu_cxx16__aligned_membufISt4pairIKjiEE7_M_addrEv = comdat any

$_ZNSt3mapIjiSt4lessIjESaISt4pairIKjiEEE11lower_boundERS3_ = comdat any

$_ZNKSt3mapIjiSt4lessIjESaISt4pairIKjiEEE8key_compEv = comdat any

$_ZNSt3mapIjiSt4lessIjESaISt4pairIKjiEEE12emplace_hintIJS2_IjiEEEESt17_Rb_tree_iteratorIS4_ESt23_Rb_tree_const_iteratorIS4_EDpOT_ = comdat any

$_ZNSt23_Rb_tree_const_iteratorISt4pairIKjiEEC2ERKSt17_Rb_tree_iteratorIS2_E = comdat any

$_ZNSt4pairISt17_Rb_tree_iteratorIS_IKjiEEbEC2IRS3_bTnNSt9enable_ifIXaaclsr5_PCCPE22_MoveConstructiblePairIT_T0_EEclsr5_PCCPE30_ImplicitlyMoveConvertiblePairIS8_S9_EEEbE4typeELb1EEEOS8_OS9_ = comdat any

$_ZNSt8_Rb_treeIjSt4pairIKjiESt10_Select1stIS2_ESt4lessIjESaIS2_EE11lower_boundERS1_ = comdat any

$_ZNKSt8_Rb_treeIjSt4pairIKjiESt10_Select1stIS2_ESt4lessIjESaIS2_EE8key_compEv = comdat any

$_ZNSt8_Rb_treeIjSt4pairIKjiESt10_Select1stIS2_ESt4lessIjESaIS2_EE22_M_emplace_hint_uniqueIJS0_IjiEEEESt17_Rb_tree_iteratorIS2_ESt23_Rb_tree_const_iteratorIS2_EDpOT_ = comdat any

$_ZNSt8_Rb_treeIjSt4pairIKjiESt10_Select1stIS2_ESt4lessIjESaIS2_EE10_Auto_nodeC2IJS0_IjiEEEERS8_DpOT_ = comdat any

$_ZNSt8_Rb_treeIjSt4pairIKjiESt10_Select1stIS2_ESt4lessIjESaIS2_EE29_M_get_insert_hint_unique_posESt23_Rb_tree_const_iteratorIS2_ERS1_ = comdat any

$_ZNKSt8_Rb_treeIjSt4pairIKjiESt10_Select1stIS2_ESt4lessIjESaIS2_EE10_Auto_node6_M_keyEv = comdat any

$_ZNSt8_Rb_treeIjSt4pairIKjiESt10_Select1stIS2_ESt4lessIjESaIS2_EE10_Auto_node9_M_insertES0_IPSt18_Rb_tree_node_baseSB_E = comdat any

$_ZNSt8_Rb_treeIjSt4pairIKjiESt10_Select1stIS2_ESt4lessIjESaIS2_EE10_Auto_nodeD2Ev = comdat any

$_ZNSt8_Rb_treeIjSt4pairIKjiESt10_Select1stIS2_ESt4lessIjESaIS2_EE14_M_create_nodeIJS0_IjiEEEEPSt13_Rb_tree_nodeIS2_EDpOT_ = comdat any

$_ZNSt8_Rb_treeIjSt4pairIKjiESt10_Select1stIS2_ESt4lessIjESaIS2_EE17_M_construct_nodeIJS0_IjiEEEEvPSt13_Rb_tree_nodeIS2_EDpOT_ = comdat any

$_ZNSt16allocator_traitsISaISt13_Rb_tree_nodeISt4pairIKjiEEEE9constructIS3_JS1_IjiEEEEvRS5_PT_DpOT0_ = comdat any

$_ZNSt15__new_allocatorISt13_Rb_tree_nodeISt4pairIKjiEEE9constructIS3_JS1_IjiEEEEvPT_DpOT0_ = comdat any

$_ZNSt4pairIKjiEC2IjiTnNSt9enable_ifIXaaclsr6_PCCFPIT_T0_EE22_MoveConstructiblePairIS4_S5_EEclsr6_PCCFPIS4_S5_EE30_ImplicitlyMoveConvertiblePairIS4_S5_EEEbE4typeELb1EEEOS_IS4_S5_E = comdat any

$_ZNKSt23_Rb_tree_const_iteratorISt4pairIKjiEE13_M_const_castEv = comdat any

$_ZNKSt8_Rb_treeIjSt4pairIKjiESt10_Select1stIS2_ESt4lessIjESaIS2_EE4sizeEv = comdat any

$_ZNSt8_Rb_treeIjSt4pairIKjiESt10_Select1stIS2_ESt4lessIjESaIS2_EE24_M_get_insert_unique_posERS1_ = comdat any

$_ZNSt17_Rb_tree_iteratorISt4pairIKjiEEmmEv = comdat any

$_ZNSt17_Rb_tree_iteratorISt4pairIKjiEEppEv = comdat any

$_ZNSt8_Rb_treeIjSt4pairIKjiESt10_Select1stIS2_ESt4lessIjESaIS2_EE5beginEv = comdat any

$_ZNSt4pairIPSt18_Rb_tree_node_baseS1_EC2IRPSt13_Rb_tree_nodeIS_IKjiEERS1_TnNSt9enable_ifIXaaclsr5_PCCPE22_MoveConstructiblePairIT_T0_EEclsr5_PCCPE30_ImplicitlyMoveConvertiblePairISC_SD_EEEbE4typeELb1EEEOSC_OSD_ = comdat any

$_ZNSt8_Rb_treeIjSt4pairIKjiESt10_Select1stIS2_ESt4lessIjESaIS2_EE14_M_insert_nodeEPSt18_Rb_tree_node_baseSA_PSt13_Rb_tree_nodeIS2_E = comdat any

$_ZNSt3mapIjfSt4lessIjESaISt4pairIKjfEEE4findERS3_ = comdat any

$_ZSteqRKSt17_Rb_tree_iteratorISt4pairIKjfEES5_ = comdat any

$_ZNSt3mapIjfSt4lessIjESaISt4pairIKjfEEE3endEv = comdat any

$_ZNSt3mapIjfSt4lessIjESaISt4pairIKjfEEE6insertIS2_IjfEEENSt9enable_ifIXsr16is_constructibleIS4_T_EE5valueES2_ISt17_Rb_tree_iteratorIS4_EbEE4typeEOSA_ = comdat any

$_ZNSt4pairIjfEC2IjfTnNSt9enable_ifIXaaclsr5_PCCPE18_ConstructiblePairIT_T0_EEclsr5_PCCPE26_ImplicitlyConvertiblePairIS3_S4_EEEbE4typeELb1EEERKjRKf = comdat any

$_ZNKSt17_Rb_tree_iteratorISt4pairIKjfEEdeEv = comdat any

$_ZNSt8_Rb_treeIjSt4pairIKjfESt10_Select1stIS2_ESt4lessIjESaIS2_EE4findERS1_ = comdat any

$_ZNSt8_Rb_treeIjSt4pairIKjfESt10_Select1stIS2_ESt4lessIjESaIS2_EE14_M_lower_boundEPSt13_Rb_tree_nodeIS2_EPSt18_Rb_tree_node_baseRS1_ = comdat any

$_ZNSt8_Rb_treeIjSt4pairIKjfESt10_Select1stIS2_ESt4lessIjESaIS2_EE3endEv = comdat any

$_ZNSt8_Rb_treeIjSt4pairIKjfESt10_Select1stIS2_ESt4lessIjESaIS2_EE6_S_keyEPKSt18_Rb_tree_node_base = comdat any

$_ZNSt8_Rb_treeIjSt4pairIKjfESt10_Select1stIS2_ESt4lessIjESaIS2_EE6_S_keyEPKSt13_Rb_tree_nodeIS2_E = comdat any

$_ZNSt17_Rb_tree_iteratorISt4pairIKjfEEC2EPSt18_Rb_tree_node_base = comdat any

$_ZNKSt10_Select1stISt4pairIKjfEEclERKS2_ = comdat any

$_ZNKSt13_Rb_tree_nodeISt4pairIKjfEE9_M_valptrEv = comdat any

$_ZNK9__gnu_cxx16__aligned_membufISt4pairIKjfEE6_M_ptrEv = comdat any

$_ZNK9__gnu_cxx16__aligned_membufISt4pairIKjfEE7_M_addrEv = comdat any

$_ZNSt3mapIjfSt4lessIjESaISt4pairIKjfEEE11lower_boundERS3_ = comdat any

$_ZNKSt3mapIjfSt4lessIjESaISt4pairIKjfEEE8key_compEv = comdat any

$_ZNSt3mapIjfSt4lessIjESaISt4pairIKjfEEE12emplace_hintIJS2_IjfEEEESt17_Rb_tree_iteratorIS4_ESt23_Rb_tree_const_iteratorIS4_EDpOT_ = comdat any

$_ZNSt23_Rb_tree_const_iteratorISt4pairIKjfEEC2ERKSt17_Rb_tree_iteratorIS2_E = comdat any

$_ZNSt4pairISt17_Rb_tree_iteratorIS_IKjfEEbEC2IRS3_bTnNSt9enable_ifIXaaclsr5_PCCPE22_MoveConstructiblePairIT_T0_EEclsr5_PCCPE30_ImplicitlyMoveConvertiblePairIS8_S9_EEEbE4typeELb1EEEOS8_OS9_ = comdat any

$_ZNSt8_Rb_treeIjSt4pairIKjfESt10_Select1stIS2_ESt4lessIjESaIS2_EE11lower_boundERS1_ = comdat any

$_ZNKSt8_Rb_treeIjSt4pairIKjfESt10_Select1stIS2_ESt4lessIjESaIS2_EE8key_compEv = comdat any

$_ZNSt8_Rb_treeIjSt4pairIKjfESt10_Select1stIS2_ESt4lessIjESaIS2_EE22_M_emplace_hint_uniqueIJS0_IjfEEEESt17_Rb_tree_iteratorIS2_ESt23_Rb_tree_const_iteratorIS2_EDpOT_ = comdat any

$_ZNSt8_Rb_treeIjSt4pairIKjfESt10_Select1stIS2_ESt4lessIjESaIS2_EE10_Auto_nodeC2IJS0_IjfEEEERS8_DpOT_ = comdat any

$_ZNSt8_Rb_treeIjSt4pairIKjfESt10_Select1stIS2_ESt4lessIjESaIS2_EE29_M_get_insert_hint_unique_posESt23_Rb_tree_const_iteratorIS2_ERS1_ = comdat any

$_ZNKSt8_Rb_treeIjSt4pairIKjfESt10_Select1stIS2_ESt4lessIjESaIS2_EE10_Auto_node6_M_keyEv = comdat any

$_ZNSt8_Rb_treeIjSt4pairIKjfESt10_Select1stIS2_ESt4lessIjESaIS2_EE10_Auto_node9_M_insertES0_IPSt18_Rb_tree_node_baseSB_E = comdat any

$_ZNSt8_Rb_treeIjSt4pairIKjfESt10_Select1stIS2_ESt4lessIjESaIS2_EE10_Auto_nodeD2Ev = comdat any

$_ZNSt8_Rb_treeIjSt4pairIKjfESt10_Select1stIS2_ESt4lessIjESaIS2_EE14_M_create_nodeIJS0_IjfEEEEPSt13_Rb_tree_nodeIS2_EDpOT_ = comdat any

$_ZNSt8_Rb_treeIjSt4pairIKjfESt10_Select1stIS2_ESt4lessIjESaIS2_EE17_M_construct_nodeIJS0_IjfEEEEvPSt13_Rb_tree_nodeIS2_EDpOT_ = comdat any

$_ZNSt16allocator_traitsISaISt13_Rb_tree_nodeISt4pairIKjfEEEE9constructIS3_JS1_IjfEEEEvRS5_PT_DpOT0_ = comdat any

$_ZNSt15__new_allocatorISt13_Rb_tree_nodeISt4pairIKjfEEE9constructIS3_JS1_IjfEEEEvPT_DpOT0_ = comdat any

$_ZNSt4pairIKjfEC2IjfTnNSt9enable_ifIXaaclsr6_PCCFPIT_T0_EE22_MoveConstructiblePairIS4_S5_EEclsr6_PCCFPIS4_S5_EE30_ImplicitlyMoveConvertiblePairIS4_S5_EEEbE4typeELb1EEEOS_IS4_S5_E = comdat any

$_ZNKSt23_Rb_tree_const_iteratorISt4pairIKjfEE13_M_const_castEv = comdat any

$_ZNKSt8_Rb_treeIjSt4pairIKjfESt10_Select1stIS2_ESt4lessIjESaIS2_EE4sizeEv = comdat any

$_ZNSt8_Rb_treeIjSt4pairIKjfESt10_Select1stIS2_ESt4lessIjESaIS2_EE24_M_get_insert_unique_posERS1_ = comdat any

$_ZNSt17_Rb_tree_iteratorISt4pairIKjfEEmmEv = comdat any

$_ZNSt17_Rb_tree_iteratorISt4pairIKjfEEppEv = comdat any

$_ZNSt8_Rb_treeIjSt4pairIKjfESt10_Select1stIS2_ESt4lessIjESaIS2_EE5beginEv = comdat any

$_ZNSt4pairIPSt18_Rb_tree_node_baseS1_EC2IRPSt13_Rb_tree_nodeIS_IKjfEERS1_TnNSt9enable_ifIXaaclsr5_PCCPE22_MoveConstructiblePairIT_T0_EEclsr5_PCCPE30_ImplicitlyMoveConvertiblePairISC_SD_EEEbE4typeELb1EEEOSC_OSD_ = comdat any

$_ZNSt8_Rb_treeIjSt4pairIKjfESt10_Select1stIS2_ESt4lessIjESaIS2_EE14_M_insert_nodeEPSt18_Rb_tree_node_baseSA_PSt13_Rb_tree_nodeIS2_E = comdat any

$_ZNSt3mapIjNSt7__cxx1112basic_stringIcSt11char_traitsIcESaIcEEESt4lessIjESaISt4pairIKjS5_EEE4findERS9_ = comdat any

$_ZSteqRKSt17_Rb_tree_iteratorISt4pairIKjNSt7__cxx1112basic_stringIcSt11char_traitsIcESaIcEEEEESB_ = comdat any

$_ZNSt3mapIjNSt7__cxx1112basic_stringIcSt11char_traitsIcESaIcEEESt4lessIjESaISt4pairIKjS5_EEE3endEv = comdat any

$_ZNSt3mapIjNSt7__cxx1112basic_stringIcSt11char_traitsIcESaIcEEESt4lessIjESaISt4pairIKjS5_EEE6insertIS8_IjS5_EEENSt9enable_ifIXsr16is_constructibleISA_T_EE5valueES8_ISt17_Rb_tree_iteratorISA_EbEE4typeEOSG_ = comdat any

$_ZNSt4pairIjNSt7__cxx1112basic_stringIcSt11char_traitsIcESaIcEEEEC2IjS5_TnNSt9enable_ifIXaaclsr5_PCCPE18_ConstructiblePairIT_T0_EEclsr5_PCCPE26_ImplicitlyConvertiblePairIS9_SA_EEEbE4typeELb1EEERKjRKS5_ = comdat any

$_ZNSt4pairIjNSt7__cxx1112basic_stringIcSt11char_traitsIcESaIcEEEED2Ev = comdat any

$_ZNKSt17_Rb_tree_iteratorISt4pairIKjNSt7__cxx1112basic_stringIcSt11char_traitsIcESaIcEEEEEdeEv = comdat any

$_ZNSt8_Rb_treeIjSt4pairIKjNSt7__cxx1112basic_stringIcSt11char_traitsIcESaIcEEEESt10_Select1stIS8_ESt4lessIjESaIS8_EE4findERS1_ = comdat any

$_ZNSt8_Rb_treeIjSt4pairIKjNSt7__cxx1112basic_stringIcSt11char_traitsIcESaIcEEEESt10_Select1stIS8_ESt4lessIjESaIS8_EE14_M_lower_boundEPSt13_Rb_tree_nodeIS8_EPSt18_Rb_tree_node_baseRS1_ = comdat any

$_ZNSt8_Rb_treeIjSt4pairIKjNSt7__cxx1112basic_stringIcSt11char_traitsIcESaIcEEEESt10_Select1stIS8_ESt4lessIjESaIS8_EE3endEv = comdat any

$_ZNSt8_Rb_treeIjSt4pairIKjNSt7__cxx1112basic_stringIcSt11char_traitsIcESaIcEEEESt10_Select1stIS8_ESt4lessIjESaIS8_EE6_S_keyEPKSt18_Rb_tree_node_base = comdat any

$_ZNSt8_Rb_treeIjSt4pairIKjNSt7__cxx1112basic_stringIcSt11char_traitsIcESaIcEEEESt10_Select1stIS8_ESt4lessIjESaIS8_EE6_S_keyEPKSt13_Rb_tree_nodeIS8_E = comdat any

$_ZNSt17_Rb_tree_iteratorISt4pairIKjNSt7__cxx1112basic_stringIcSt11char_traitsIcESaIcEEEEEC2EPSt18_Rb_tree_node_base = comdat any

$_ZNKSt10_Select1stISt4pairIKjNSt7__cxx1112basic_stringIcSt11char_traitsIcESaIcEEEEEclERKS8_ = comdat any

$_ZNKSt13_Rb_tree_nodeISt4pairIKjNSt7__cxx1112basic_stringIcSt11char_traitsIcESaIcEEEEE9_M_valptrEv = comdat any

$_ZNK9__gnu_cxx16__aligned_membufISt4pairIKjNSt7__cxx1112basic_stringIcSt11char_traitsIcESaIcEEEEE6_M_ptrEv = comdat any

$_ZNK9__gnu_cxx16__aligned_membufISt4pairIKjNSt7__cxx1112basic_stringIcSt11char_traitsIcESaIcEEEEE7_M_addrEv = comdat any

$_ZNSt3mapIjNSt7__cxx1112basic_stringIcSt11char_traitsIcESaIcEEESt4lessIjESaISt4pairIKjS5_EEE11lower_boundERS9_ = comdat any

$_ZNKSt3mapIjNSt7__cxx1112basic_stringIcSt11char_traitsIcESaIcEEESt4lessIjESaISt4pairIKjS5_EEE8key_compEv = comdat any

$_ZNSt3mapIjNSt7__cxx1112basic_stringIcSt11char_traitsIcESaIcEEESt4lessIjESaISt4pairIKjS5_EEE12emplace_hintIJS8_IjS5_EEEESt17_Rb_tree_iteratorISA_ESt23_Rb_tree_const_iteratorISA_EDpOT_ = comdat any

$_ZNSt23_Rb_tree_const_iteratorISt4pairIKjNSt7__cxx1112basic_stringIcSt11char_traitsIcESaIcEEEEEC2ERKSt17_Rb_tree_iteratorIS8_E = comdat any

$_ZNSt4pairISt17_Rb_tree_iteratorIS_IKjNSt7__cxx1112basic_stringIcSt11char_traitsIcESaIcEEEEEbEC2IRS9_bTnNSt9enable_ifIXaaclsr5_PCCPE22_MoveConstructiblePairIT_T0_EEclsr5_PCCPE30_ImplicitlyMoveConvertiblePairISE_SF_EEEbE4typeELb1EEEOSE_OSF_ = comdat any

$_ZNSt8_Rb_treeIjSt4pairIKjNSt7__cxx1112basic_stringIcSt11char_traitsIcESaIcEEEESt10_Select1stIS8_ESt4lessIjESaIS8_EE11lower_boundERS1_ = comdat any

$_ZNKSt8_Rb_treeIjSt4pairIKjNSt7__cxx1112basic_stringIcSt11char_traitsIcESaIcEEEESt10_Select1stIS8_ESt4lessIjESaIS8_EE8key_compEv = comdat any

$_ZNSt8_Rb_treeIjSt4pairIKjNSt7__cxx1112basic_stringIcSt11char_traitsIcESaIcEEEESt10_Select1stIS8_ESt4lessIjESaIS8_EE22_M_emplace_hint_uniqueIJS0_IjS7_EEEESt17_Rb_tree_iteratorIS8_ESt23_Rb_tree_const_iteratorIS8_EDpOT_ = comdat any

$_ZNSt8_Rb_treeIjSt4pairIKjNSt7__cxx1112basic_stringIcSt11char_traitsIcESaIcEEEESt10_Select1stIS8_ESt4lessIjESaIS8_EE10_Auto_nodeC2IJS0_IjS7_EEEERSE_DpOT_ = comdat any

$_ZNSt8_Rb_treeIjSt4pairIKjNSt7__cxx1112basic_stringIcSt11char_traitsIcESaIcEEEESt10_Select1stIS8_ESt4lessIjESaIS8_EE29_M_get_insert_hint_unique_posESt23_Rb_tree_const_iteratorIS8_ERS1_ = comdat any

$_ZNKSt8_Rb_treeIjSt4pairIKjNSt7__cxx1112basic_stringIcSt11char_traitsIcESaIcEEEESt10_Select1stIS8_ESt4lessIjESaIS8_EE10_Auto_node6_M_keyEv = comdat any

$_ZNSt8_Rb_treeIjSt4pairIKjNSt7__cxx1112basic_stringIcSt11char_traitsIcESaIcEEEESt10_Select1stIS8_ESt4lessIjESaIS8_EE10_Auto_node9_M_insertES0_IPSt18_Rb_tree_node_baseSH_E = comdat any

$_ZNSt8_Rb_treeIjSt4pairIKjNSt7__cxx1112basic_stringIcSt11char_traitsIcESaIcEEEESt10_Select1stIS8_ESt4lessIjESaIS8_EE10_Auto_nodeD2Ev = comdat any

$_ZNSt8_Rb_treeIjSt4pairIKjNSt7__cxx1112basic_stringIcSt11char_traitsIcESaIcEEEESt10_Select1stIS8_ESt4lessIjESaIS8_EE14_M_create_nodeIJS0_IjS7_EEEEPSt13_Rb_tree_nodeIS8_EDpOT_ = comdat any

$_ZNSt8_Rb_treeIjSt4pairIKjNSt7__cxx1112basic_stringIcSt11char_traitsIcESaIcEEEESt10_Select1stIS8_ESt4lessIjESaIS8_EE17_M_construct_nodeIJS0_IjS7_EEEEvPSt13_Rb_tree_nodeIS8_EDpOT_ = comdat any

$_ZNSt16allocator_traitsISaISt13_Rb_tree_nodeISt4pairIKjNSt7__cxx1112basic_stringIcSt11char_traitsIcESaIcEEEEEEE9constructIS9_JS1_IjS8_EEEEvRSB_PT_DpOT0_ = comdat any

$_ZNSt15__new_allocatorISt13_Rb_tree_nodeISt4pairIKjNSt7__cxx1112basic_stringIcSt11char_traitsIcESaIcEEEEEE9constructIS9_JS1_IjS8_EEEEvPT_DpOT0_ = comdat any

$_ZNSt4pairIKjNSt7__cxx1112basic_stringIcSt11char_traitsIcESaIcEEEEC2IjS6_TnNSt9enable_ifIXaaclsr6_PCCFPIT_T0_EE22_MoveConstructiblePairISA_SB_EEclsr6_PCCFPISA_SB_EE30_ImplicitlyMoveConvertiblePairISA_SB_EEEbE4typeELb1EEEOS_ISA_SB_E = comdat any

$_ZNKSt23_Rb_tree_const_iteratorISt4pairIKjNSt7__cxx1112basic_stringIcSt11char_traitsIcESaIcEEEEE13_M_const_castEv = comdat any

$_ZNKSt8_Rb_treeIjSt4pairIKjNSt7__cxx1112basic_stringIcSt11char_traitsIcESaIcEEEESt10_Select1stIS8_ESt4lessIjESaIS8_EE4sizeEv = comdat any

$_ZNSt8_Rb_treeIjSt4pairIKjNSt7__cxx1112basic_stringIcSt11char_traitsIcESaIcEEEESt10_Select1stIS8_ESt4lessIjESaIS8_EE24_M_get_insert_unique_posERS1_ = comdat any

$_ZNSt17_Rb_tree_iteratorISt4pairIKjNSt7__cxx1112basic_stringIcSt11char_traitsIcESaIcEEEEEmmEv = comdat any

$_ZNSt17_Rb_tree_iteratorISt4pairIKjNSt7__cxx1112basic_stringIcSt11char_traitsIcESaIcEEEEEppEv = comdat any

$_ZNSt8_Rb_treeIjSt4pairIKjNSt7__cxx1112basic_stringIcSt11char_traitsIcESaIcEEEESt10_Select1stIS8_ESt4lessIjESaIS8_EE5beginEv = comdat any

$_ZNSt4pairIPSt18_Rb_tree_node_baseS1_EC2IRPSt13_Rb_tree_nodeIS_IKjNSt7__cxx1112basic_stringIcSt11char_traitsIcESaIcEEEEERS1_TnNSt9enable_ifIXaaclsr5_PCCPE22_MoveConstructiblePairIT_T0_EEclsr5_PCCPE30_ImplicitlyMoveConvertiblePairISI_SJ_EEEbE4typeELb1EEEOSI_OSJ_ = comdat any

$_ZNSt8_Rb_treeIjSt4pairIKjNSt7__cxx1112basic_stringIcSt11char_traitsIcESaIcEEEESt10_Select1stIS8_ESt4lessIjESaIS8_EE14_M_insert_nodeEPSt18_Rb_tree_node_baseSG_PSt13_Rb_tree_nodeIS8_E = comdat any

$_ZNSt3mapIj12aiMatrix4x4tIfESt4lessIjESaISt4pairIKjS1_EEE4findERS5_ = comdat any

$_ZSteqRKSt17_Rb_tree_iteratorISt4pairIKj12aiMatrix4x4tIfEEES7_ = comdat any

$_ZNSt3mapIj12aiMatrix4x4tIfESt4lessIjESaISt4pairIKjS1_EEE3endEv = comdat any

$_ZNSt3mapIj12aiMatrix4x4tIfESt4lessIjESaISt4pairIKjS1_EEE6insertIS4_IjS1_EEENSt9enable_ifIXsr16is_constructibleIS6_T_EE5valueES4_ISt17_Rb_tree_iteratorIS6_EbEE4typeEOSC_ = comdat any

$_ZNSt4pairIj12aiMatrix4x4tIfEEC2IjS1_TnNSt9enable_ifIXaaclsr5_PCCPE18_ConstructiblePairIT_T0_EEclsr5_PCCPE26_ImplicitlyConvertiblePairIS5_S6_EEEbE4typeELb1EEERKjRKS1_ = comdat any

$_ZNKSt17_Rb_tree_iteratorISt4pairIKj12aiMatrix4x4tIfEEEdeEv = comdat any

$_ZNSt8_Rb_treeIjSt4pairIKj12aiMatrix4x4tIfEESt10_Select1stIS4_ESt4lessIjESaIS4_EE4findERS1_ = comdat any

$_ZNSt8_Rb_treeIjSt4pairIKj12aiMatrix4x4tIfEESt10_Select1stIS4_ESt4lessIjESaIS4_EE14_M_lower_boundEPSt13_Rb_tree_nodeIS4_EPSt18_Rb_tree_node_baseRS1_ = comdat any

$_ZNSt8_Rb_treeIjSt4pairIKj12aiMatrix4x4tIfEESt10_Select1stIS4_ESt4lessIjESaIS4_EE3endEv = comdat any

$_ZNSt8_Rb_treeIjSt4pairIKj12aiMatrix4x4tIfEESt10_Select1stIS4_ESt4lessIjESaIS4_EE6_S_keyEPKSt18_Rb_tree_node_base = comdat any

$_ZNSt8_Rb_treeIjSt4pairIKj12aiMatrix4x4tIfEESt10_Select1stIS4_ESt4lessIjESaIS4_EE6_S_keyEPKSt13_Rb_tree_nodeIS4_E = comdat any

$_ZNSt17_Rb_tree_iteratorISt4pairIKj12aiMatrix4x4tIfEEEC2EPSt18_Rb_tree_node_base = comdat any

$_ZNKSt10_Select1stISt4pairIKj12aiMatrix4x4tIfEEEclERKS4_ = comdat any

$_ZNKSt13_Rb_tree_nodeISt4pairIKj12aiMatrix4x4tIfEEE9_M_valptrEv = comdat any

$_ZNK9__gnu_cxx16__aligned_membufISt4pairIKj12aiMatrix4x4tIfEEE6_M_ptrEv = comdat any

$_ZNK9__gnu_cxx16__aligned_membufISt4pairIKj12aiMatrix4x4tIfEEE7_M_addrEv = comdat any

$_ZNSt3mapIj12aiMatrix4x4tIfESt4lessIjESaISt4pairIKjS1_EEE11lower_boundERS5_ = comdat any

$_ZNKSt3mapIj12aiMatrix4x4tIfESt4lessIjESaISt4pairIKjS1_EEE8key_compEv = comdat any

$_ZNSt3mapIj12aiMatrix4x4tIfESt4lessIjESaISt4pairIKjS1_EEE12emplace_hintIJS4_IjS1_EEEESt17_Rb_tree_iteratorIS6_ESt23_Rb_tree_const_iteratorIS6_EDpOT_ = comdat any

$_ZNSt23_Rb_tree_const_iteratorISt4pairIKj12aiMatrix4x4tIfEEEC2ERKSt17_Rb_tree_iteratorIS4_E = comdat any

$_ZNSt4pairISt17_Rb_tree_iteratorIS_IKj12aiMatrix4x4tIfEEEbEC2IRS5_bTnNSt9enable_ifIXaaclsr5_PCCPE22_MoveConstructiblePairIT_T0_EEclsr5_PCCPE30_ImplicitlyMoveConvertiblePairISA_SB_EEEbE4typeELb1EEEOSA_OSB_ = comdat any

$_ZNSt8_Rb_treeIjSt4pairIKj12aiMatrix4x4tIfEESt10_Select1stIS4_ESt4lessIjESaIS4_EE11lower_boundERS1_ = comdat any

$_ZNKSt8_Rb_treeIjSt4pairIKj12aiMatrix4x4tIfEESt10_Select1stIS4_ESt4lessIjESaIS4_EE8key_compEv = comdat any

$_ZNSt8_Rb_treeIjSt4pairIKj12aiMatrix4x4tIfEESt10_Select1stIS4_ESt4lessIjESaIS4_EE22_M_emplace_hint_uniqueIJS0_IjS3_EEEESt17_Rb_tree_iteratorIS4_ESt23_Rb_tree_const_iteratorIS4_EDpOT_ = comdat any

$_ZNSt8_Rb_treeIjSt4pairIKj12aiMatrix4x4tIfEESt10_Select1stIS4_ESt4lessIjESaIS4_EE10_Auto_nodeC2IJS0_IjS3_EEEERSA_DpOT_ = comdat any

$_ZNSt8_Rb_treeIjSt4pairIKj12aiMatrix4x4tIfEESt10_Select1stIS4_ESt4lessIjESaIS4_EE29_M_get_insert_hint_unique_posESt23_Rb_tree_const_iteratorIS4_ERS1_ = comdat any

$_ZNKSt8_Rb_treeIjSt4pairIKj12aiMatrix4x4tIfEESt10_Select1stIS4_ESt4lessIjESaIS4_EE10_Auto_node6_M_keyEv = comdat any

$_ZNSt8_Rb_treeIjSt4pairIKj12aiMatrix4x4tIfEESt10_Select1stIS4_ESt4lessIjESaIS4_EE10_Auto_node9_M_insertES0_IPSt18_Rb_tree_node_baseSD_E = comdat any

$_ZNSt8_Rb_treeIjSt4pairIKj12aiMatrix4x4tIfEESt10_Select1stIS4_ESt4lessIjESaIS4_EE10_Auto_nodeD2Ev = comdat any

$_ZNSt8_Rb_treeIjSt4pairIKj12aiMatrix4x4tIfEESt10_Select1stIS4_ESt4lessIjESaIS4_EE14_M_create_nodeIJS0_IjS3_EEEEPSt13_Rb_tree_nodeIS4_EDpOT_ = comdat any

$_ZNSt8_Rb_treeIjSt4pairIKj12aiMatrix4x4tIfEESt10_Select1stIS4_ESt4lessIjESaIS4_EE17_M_construct_nodeIJS0_IjS3_EEEEvPSt13_Rb_tree_nodeIS4_EDpOT_ = comdat any

$_ZNSt16allocator_traitsISaISt13_Rb_tree_nodeISt4pairIKj12aiMatrix4x4tIfEEEEE9constructIS5_JS1_IjS4_EEEEvRS7_PT_DpOT0_ = comdat any

$_ZNSt15__new_allocatorISt13_Rb_tree_nodeISt4pairIKj12aiMatrix4x4tIfEEEE9constructIS5_JS1_IjS4_EEEEvPT_DpOT0_ = comdat any

$_ZNSt4pairIKj12aiMatrix4x4tIfEEC2IjS2_TnNSt9enable_ifIXaaclsr6_PCCFPIT_T0_EE22_MoveConstructiblePairIS6_S7_EEclsr6_PCCFPIS6_S7_EE30_ImplicitlyMoveConvertiblePairIS6_S7_EEEbE4typeELb1EEEOS_IS6_S7_E = comdat any

$_ZNKSt23_Rb_tree_const_iteratorISt4pairIKj12aiMatrix4x4tIfEEE13_M_const_castEv = comdat any

$_ZNKSt8_Rb_treeIjSt4pairIKj12aiMatrix4x4tIfEESt10_Select1stIS4_ESt4lessIjESaIS4_EE4sizeEv = comdat any

$_ZNSt8_Rb_treeIjSt4pairIKj12aiMatrix4x4tIfEESt10_Select1stIS4_ESt4lessIjESaIS4_EE24_M_get_insert_unique_posERS1_ = comdat any

$_ZNSt17_Rb_tree_iteratorISt4pairIKj12aiMatrix4x4tIfEEEmmEv = comdat any

$_ZNSt17_Rb_tree_iteratorISt4pairIKj12aiMatrix4x4tIfEEEppEv = comdat any

$_ZNSt8_Rb_treeIjSt4pairIKj12aiMatrix4x4tIfEESt10_Select1stIS4_ESt4lessIjESaIS4_EE5beginEv = comdat any

$_ZNSt4pairIPSt18_Rb_tree_node_baseS1_EC2IRPSt13_Rb_tree_nodeIS_IKj12aiMatrix4x4tIfEEERS1_TnNSt9enable_ifIXaaclsr5_PCCPE22_MoveConstructiblePairIT_T0_EEclsr5_PCCPE30_ImplicitlyMoveConvertiblePairISE_SF_EEEbE4typeELb1EEEOSE_OSF_ = comdat any

$_ZNSt8_Rb_treeIjSt4pairIKj12aiMatrix4x4tIfEESt10_Select1stIS4_ESt4lessIjESaIS4_EE14_M_insert_nodeEPSt18_Rb_tree_node_baseSC_PSt13_Rb_tree_nodeIS4_E = comdat any

$_ZNKSt3mapIjiSt4lessIjESaISt4pairIKjiEEE4findERS3_ = comdat any

$_ZSteqRKSt23_Rb_tree_const_iteratorISt4pairIKjiEES5_ = comdat any

$_ZNKSt3mapIjiSt4lessIjESaISt4pairIKjiEEE3endEv = comdat any

$_ZNKSt23_Rb_tree_const_iteratorISt4pairIKjiEEdeEv = comdat any

$_ZNKSt8_Rb_treeIjSt4pairIKjiESt10_Select1stIS2_ESt4lessIjESaIS2_EE4findERS1_ = comdat any

$_ZNKSt8_Rb_treeIjSt4pairIKjiESt10_Select1stIS2_ESt4lessIjESaIS2_EE14_M_lower_boundEPKSt13_Rb_tree_nodeIS2_EPKSt18_Rb_tree_node_baseRS1_ = comdat any

$_ZNKSt8_Rb_treeIjSt4pairIKjiESt10_Select1stIS2_ESt4lessIjESaIS2_EE8_M_beginEv = comdat any

$_ZNKSt8_Rb_treeIjSt4pairIKjiESt10_Select1stIS2_ESt4lessIjESaIS2_EE6_M_endEv = comdat any

$_ZNKSt8_Rb_treeIjSt4pairIKjiESt10_Select1stIS2_ESt4lessIjESaIS2_EE3endEv = comdat any

$_ZNSt8_Rb_treeIjSt4pairIKjiESt10_Select1stIS2_ESt4lessIjESaIS2_EE7_S_leftEPKSt18_Rb_tree_node_base = comdat any

$_ZNSt8_Rb_treeIjSt4pairIKjiESt10_Select1stIS2_ESt4lessIjESaIS2_EE8_S_rightEPKSt18_Rb_tree_node_base = comdat any

$_ZNSt23_Rb_tree_const_iteratorISt4pairIKjiEEC2EPKSt18_Rb_tree_node_base = comdat any

$_ZNKSt3mapIjfSt4lessIjESaISt4pairIKjfEEE4findERS3_ = comdat any

$_ZSteqRKSt23_Rb_tree_const_iteratorISt4pairIKjfEES5_ = comdat any

$_ZNKSt3mapIjfSt4lessIjESaISt4pairIKjfEEE3endEv = comdat any

$_ZNKSt23_Rb_tree_const_iteratorISt4pairIKjfEEdeEv = comdat any

$_ZNKSt8_Rb_treeIjSt4pairIKjfESt10_Select1stIS2_ESt4lessIjESaIS2_EE4findERS1_ = comdat any

$_ZNKSt8_Rb_treeIjSt4pairIKjfESt10_Select1stIS2_ESt4lessIjESaIS2_EE14_M_lower_boundEPKSt13_Rb_tree_nodeIS2_EPKSt18_Rb_tree_node_baseRS1_ = comdat any

$_ZNKSt8_Rb_treeIjSt4pairIKjfESt10_Select1stIS2_ESt4lessIjESaIS2_EE8_M_beginEv = comdat any

$_ZNKSt8_Rb_treeIjSt4pairIKjfESt10_Select1stIS2_ESt4lessIjESaIS2_EE6_M_endEv = comdat any

$_ZNKSt8_Rb_treeIjSt4pairIKjfESt10_Select1stIS2_ESt4lessIjESaIS2_EE3endEv = comdat any

$_ZNSt8_Rb_treeIjSt4pairIKjfESt10_Select1stIS2_ESt4lessIjESaIS2_EE7_S_leftEPKSt18_Rb_tree_node_base = comdat any

$_ZNSt8_Rb_treeIjSt4pairIKjfESt10_Select1stIS2_ESt4lessIjESaIS2_EE8_S_rightEPKSt18_Rb_tree_node_base = comdat any

$_ZNSt23_Rb_tree_const_iteratorISt4pairIKjfEEC2EPKSt18_Rb_tree_node_base = comdat any

$_ZNKSt3mapIjNSt7__cxx1112basic_stringIcSt11char_traitsIcESaIcEEESt4lessIjESaISt4pairIKjS5_EEE4findERS9_ = comdat any

$_ZSteqRKSt23_Rb_tree_const_iteratorISt4pairIKjNSt7__cxx1112basic_stringIcSt11char_traitsIcESaIcEEEEESB_ = comdat any

$_ZNKSt3mapIjNSt7__cxx1112basic_stringIcSt11char_traitsIcESaIcEEESt4lessIjESaISt4pairIKjS5_EEE3endEv = comdat any

$_ZNKSt23_Rb_tree_const_iteratorISt4pairIKjNSt7__cxx1112basic_stringIcSt11char_traitsIcESaIcEEEEEdeEv = comdat any

$_ZNKSt8_Rb_treeIjSt4pairIKjNSt7__cxx1112basic_stringIcSt11char_traitsIcESaIcEEEESt10_Select1stIS8_ESt4lessIjESaIS8_EE4findERS1_ = comdat any

$_ZNKSt8_Rb_treeIjSt4pairIKjNSt7__cxx1112basic_stringIcSt11char_traitsIcESaIcEEEESt10_Select1stIS8_ESt4lessIjESaIS8_EE14_M_lower_boundEPKSt13_Rb_tree_nodeIS8_EPKSt18_Rb_tree_node_baseRS1_ = comdat any

$_ZNKSt8_Rb_treeIjSt4pairIKjNSt7__cxx1112basic_stringIcSt11char_traitsIcESaIcEEEESt10_Select1stIS8_ESt4lessIjESaIS8_EE8_M_beginEv = comdat any

$_ZNKSt8_Rb_treeIjSt4pairIKjNSt7__cxx1112basic_stringIcSt11char_traitsIcESaIcEEEESt10_Select1stIS8_ESt4lessIjESaIS8_EE6_M_endEv = comdat any

$_ZNKSt8_Rb_treeIjSt4pairIKjNSt7__cxx1112basic_stringIcSt11char_traitsIcESaIcEEEESt10_Select1stIS8_ESt4lessIjESaIS8_EE3endEv = comdat any

$_ZNSt8_Rb_treeIjSt4pairIKjNSt7__cxx1112basic_stringIcSt11char_traitsIcESaIcEEEESt10_Select1stIS8_ESt4lessIjESaIS8_EE7_S_leftEPKSt18_Rb_tree_node_base = comdat any

$_ZNSt8_Rb_treeIjSt4pairIKjNSt7__cxx1112basic_stringIcSt11char_traitsIcESaIcEEEESt10_Select1stIS8_ESt4lessIjESaIS8_EE8_S_rightEPKSt18_Rb_tree_node_base = comdat any

$_ZNSt23_Rb_tree_const_iteratorISt4pairIKjNSt7__cxx1112basic_stringIcSt11char_traitsIcESaIcEEEEEC2EPKSt18_Rb_tree_node_base = comdat any

$_ZNKSt3mapIj12aiMatrix4x4tIfESt4lessIjESaISt4pairIKjS1_EEE4findERS5_ = comdat any

$_ZSteqRKSt23_Rb_tree_const_iteratorISt4pairIKj12aiMatrix4x4tIfEEES7_ = comdat any

$_ZNKSt3mapIj12aiMatrix4x4tIfESt4lessIjESaISt4pairIKjS1_EEE3endEv = comdat any

$_ZNKSt23_Rb_tree_const_iteratorISt4pairIKj12aiMatrix4x4tIfEEEdeEv = comdat any

$_ZNKSt8_Rb_treeIjSt4pairIKj12aiMatrix4x4tIfEESt10_Select1stIS4_ESt4lessIjESaIS4_EE4findERS1_ = comdat any

$_ZNKSt8_Rb_treeIjSt4pairIKj12aiMatrix4x4tIfEESt10_Select1stIS4_ESt4lessIjESaIS4_EE14_M_lower_boundEPKSt13_Rb_tree_nodeIS4_EPKSt18_Rb_tree_node_baseRS1_ = comdat any

$_ZNKSt8_Rb_treeIjSt4pairIKj12aiMatrix4x4tIfEESt10_Select1stIS4_ESt4lessIjESaIS4_EE8_M_beginEv = comdat any

$_ZNKSt8_Rb_treeIjSt4pairIKj12aiMatrix4x4tIfEESt10_Select1stIS4_ESt4lessIjESaIS4_EE6_M_endEv = comdat any

$_ZNKSt8_Rb_treeIjSt4pairIKj12aiMatrix4x4tIfEESt10_Select1stIS4_ESt4lessIjESaIS4_EE3endEv = comdat any

$_ZNSt8_Rb_treeIjSt4pairIKj12aiMatrix4x4tIfEESt10_Select1stIS4_ESt4lessIjESaIS4_EE7_S_leftEPKSt18_Rb_tree_node_base = comdat any

$_ZNSt8_Rb_treeIjSt4pairIKj12aiMatrix4x4tIfEESt10_Select1stIS4_ESt4lessIjESaIS4_EE8_S_rightEPKSt18_Rb_tree_node_base = comdat any

$_ZNSt23_Rb_tree_const_iteratorISt4pairIKj12aiMatrix4x4tIfEEEC2EPKSt18_Rb_tree_node_base = comdat any

$_ZTVN6Assimp8IOSystemE = comdat any

$_ZTS17DeadlyExportError = comdat any

$_ZTS15DeadlyErrorBase = comdat any

$_ZTI15DeadlyErrorBase = comdat any

$_ZTI17DeadlyExportError = comdat any

$_ZTVN6Assimp9LogStreamE = comdat any

$_ZTSN6Assimp9LogStreamE = comdat any

$_ZTSN6Assimp6Intern22AllocateFromAssimpHeapE = comdat any

$_ZTIN6Assimp6Intern22AllocateFromAssimpHeapE = comdat any

$_ZTIN6Assimp9LogStreamE = comdat any

$_ZTVN6Assimp6LoggerE = comdat any

$_ZTSN6Assimp6LoggerE = comdat any

$_ZTIN6Assimp6LoggerE = comdat any

$_ZTVN6Assimp8IOStreamE = comdat any

$_ZTSN6Assimp8IOStreamE = comdat any

$_ZTIN6Assimp8IOStreamE = comdat any

$_ZTSN6Assimp8IOSystemE = comdat any

$_ZTIN6Assimp8IOSystemE = comdat any

$_ZTVSt15_Sp_counted_ptrIPN6Assimp15DefaultIOSystemELN9__gnu_cxx12_Lock_policyE2EE = comdat any

$_ZTSSt15_Sp_counted_ptrIPN6Assimp15DefaultIOSystemELN9__gnu_cxx12_Lock_policyE2EE = comdat any

$_ZTSSt16_Sp_counted_baseILN9__gnu_cxx12_Lock_policyE2EE = comdat any

$_ZTSSt11_Mutex_baseILN9__gnu_cxx12_Lock_policyE2EE = comdat any

$_ZTISt11_Mutex_baseILN9__gnu_cxx12_Lock_policyE2EE = comdat any

$_ZTISt16_Sp_counted_baseILN9__gnu_cxx12_Lock_policyE2EE = comdat any

$_ZTISt15_Sp_counted_ptrIPN6Assimp15DefaultIOSystemELN9__gnu_cxx12_Lock_policyE2EE = comdat any

$_ZTVSt16_Sp_counted_baseILN9__gnu_cxx12_Lock_policyE2EE = comdat any

$_ZTVN6Assimp22DefaultProgressHandlerE = comdat any

$_ZTSN6Assimp22DefaultProgressHandlerE = comdat any

$_ZTSN6Assimp15ProgressHandlerE = comdat any

$_ZTIN6Assimp15ProgressHandlerE = comdat any

$_ZTIN6Assimp22DefaultProgressHandlerE = comdat any

$_ZTVN6Assimp15ProgressHandlerE = comdat any

$_ZTVN6Assimp12BlobIOSystemE = comdat any

$_ZTSN6Assimp12BlobIOSystemE = comdat any

$_ZTIN6Assimp12BlobIOSystemE = comdat any

$_ZTVSt15_Sp_counted_ptrIPN6Assimp8IOSystemELN9__gnu_cxx12_Lock_policyE2EE = comdat any

$_ZTSSt15_Sp_counted_ptrIPN6Assimp8IOSystemELN9__gnu_cxx12_Lock_policyE2EE = comdat any

$_ZTISt15_Sp_counted_ptrIPN6Assimp8IOSystemELN9__gnu_cxx12_Lock_policyE2EE = comdat any

$_ZTVSt15_Sp_counted_ptrIPN6Assimp12BlobIOSystemELN9__gnu_cxx12_Lock_policyE2EE = comdat any

$_ZTSSt15_Sp_counted_ptrIPN6Assimp12BlobIOSystemELN9__gnu_cxx12_Lock_policyE2EE = comdat any

$_ZTISt15_Sp_counted_ptrIPN6Assimp12BlobIOSystemELN9__gnu_cxx12_Lock_policyE2EE = comdat any

@_ZTVN6Assimp8IOSystemE = linkonce_odr unnamed_addr constant { [16 x ptr] } { [16 x ptr] [ptr null, ptr @_ZTIN6Assimp8IOSystemE, ptr @_ZN6Assimp8IOSystemD2Ev, ptr @_ZN6Assimp8IOSystemD0Ev, ptr @__cxa_pure_virtual, ptr @__cxa_pure_virtual, ptr @__cxa_pure_virtual, ptr @__cxa_pure_virtual, ptr @_ZNK6Assimp8IOSystem12ComparePathsEPKcS2_, ptr @_ZN6Assimp8IOSystem13PushDirectoryERKNSt7__cxx1112basic_stringIcSt11char_traitsIcESaIcEEE, ptr @_ZNK6Assimp8IOSystem16CurrentDirectoryB5cxx11Ev, ptr @_ZNK6Assimp8IOSystem9StackSizeEv, ptr @_ZN6Assimp8IOSystem12PopDirectoryEv, ptr @_ZN6Assimp8IOSystem15CreateDirectoryERKNSt7__cxx1112basic_stringIcSt11char_traitsIcESaIcEEE, ptr @_ZN6Assimp8IOSystem15ChangeDirectoryERKNSt7__cxx1112basic_stringIcSt11char_traitsIcESaIcEEE, ptr @_ZN6Assimp8IOSystem10DeleteFileERKNSt7__cxx1112basic_stringIcSt11char_traitsIcESaIcEEE] }, comdat, align 8
@_ZTVN6Assimp12BlobIOStreamE = hidden unnamed_addr constant { [10 x ptr] } { [10 x ptr] [ptr null, ptr @_ZTIN6Assimp12BlobIOStreamE, ptr @_ZN6Assimp12BlobIOStreamD1Ev, ptr @_ZN6Assimp12BlobIOStreamD0Ev, ptr @_ZN6Assimp12BlobIOStream4ReadEPvmm, ptr @_ZN6Assimp12BlobIOStream5WriteEPKvmm, ptr @_ZN6Assimp12BlobIOStream4SeekEm8aiOrigin, ptr @_ZNK6Assimp12BlobIOStream4TellEv, ptr @_ZNK6Assimp12BlobIOStream8FileSizeEv, ptr @_ZN6Assimp12BlobIOStream5FlushEv] }, align 8
@.str = private unnamed_addr constant [17 x i8] c"EXPORT_BLOB_NAME\00", align 1
@.str.1 = private unnamed_addr constant [10 x i8] c"$blobfile\00", align 1
@.str.2 = private unnamed_addr constant [1 x i8] zeroinitializer, align 1
@_ZTVN10__cxxabiv120__si_class_type_infoE = external global [0 x ptr]
@_ZTS17DeadlyExportError = linkonce_odr constant [20 x i8] c"17DeadlyExportError\00", comdat, align 1
@_ZTS15DeadlyErrorBase = linkonce_odr constant [18 x i8] c"15DeadlyErrorBase\00", comdat, align 1
@_ZTISt13runtime_error = external constant ptr
@_ZTI15DeadlyErrorBase = linkonce_odr constant { ptr, ptr, ptr } { ptr getelementptr inbounds (ptr, ptr @_ZTVN10__cxxabiv120__si_class_type_infoE, i64 2), ptr @_ZTS15DeadlyErrorBase, ptr @_ZTISt13runtime_error }, comdat, align 8
@_ZTI17DeadlyExportError = linkonce_odr constant { ptr, ptr, ptr } { ptr getelementptr inbounds (ptr, ptr @_ZTVN10__cxxabiv120__si_class_type_infoE, i64 2), ptr @_ZTS17DeadlyExportError, ptr @_ZTI15DeadlyErrorBase }, comdat, align 8
@.str.3 = private unnamed_addr constant [80 x i8] c"export: Scene data not in verbose format, applying MakeVerboseFormat step first\00", align 1
@.str.4 = private unnamed_addr constant [20 x i8] c"EXPORT_POINT_CLOUDS\00", align 1
@_ZTIN6Assimp11BaseProcessE = external constant ptr
@_ZTIN6Assimp14FlipUVsProcessE = external constant ptr
@_ZTIN6Assimp23FlipWindingOrderProcessE = external constant ptr
@_ZTIN6Assimp21MakeLeftHandedProcessE = external constant ptr
@_ZTIN6Assimp20PretransformVerticesE = external constant ptr
@.str.5 = private unnamed_addr constant [23 x i8] c"bJoinIdenticalVertices\00", align 1
@.str.6 = private unnamed_addr constant [47 x i8] c"Found no exporter to handle this file format: \00", align 1
@_ZTVN6Assimp9LogStreamE = linkonce_odr unnamed_addr constant { [5 x ptr] } { [5 x ptr] [ptr null, ptr @_ZTIN6Assimp9LogStreamE, ptr @_ZN6Assimp9LogStreamD2Ev, ptr @_ZN6Assimp9LogStreamD0Ev, ptr @__cxa_pure_virtual] }, comdat, align 8
@_ZTSN6Assimp9LogStreamE = linkonce_odr constant [20 x i8] c"N6Assimp9LogStreamE\00", comdat, align 1
@_ZTVN10__cxxabiv117__class_type_infoE = external global [0 x ptr]
@_ZTSN6Assimp6Intern22AllocateFromAssimpHeapE = linkonce_odr constant [41 x i8] c"N6Assimp6Intern22AllocateFromAssimpHeapE\00", comdat, align 1
@_ZTIN6Assimp6Intern22AllocateFromAssimpHeapE = linkonce_odr constant { ptr, ptr } { ptr getelementptr inbounds (ptr, ptr @_ZTVN10__cxxabiv117__class_type_infoE, i64 2), ptr @_ZTSN6Assimp6Intern22AllocateFromAssimpHeapE }, comdat, align 8
@_ZTIN6Assimp9LogStreamE = linkonce_odr constant { ptr, ptr, ptr } { ptr getelementptr inbounds (ptr, ptr @_ZTVN10__cxxabiv120__si_class_type_infoE, i64 2), ptr @_ZTSN6Assimp9LogStreamE, ptr @_ZTIN6Assimp6Intern22AllocateFromAssimpHeapE }, comdat, align 8
@_ZTVN6Assimp6LoggerE = linkonce_odr unnamed_addr constant { [11 x ptr] } { [11 x ptr] [ptr null, ptr @_ZTIN6Assimp6LoggerE, ptr @_ZN6Assimp6LoggerD2Ev, ptr @_ZN6Assimp6LoggerD0Ev, ptr @__cxa_pure_virtual, ptr @__cxa_pure_virtual, ptr @__cxa_pure_virtual, ptr @__cxa_pure_virtual, ptr @__cxa_pure_virtual, ptr @__cxa_pure_virtual, ptr @__cxa_pure_virtual] }, comdat, align 8
@_ZTSN6Assimp6LoggerE = linkonce_odr constant [17 x i8] c"N6Assimp6LoggerE\00", comdat, align 1
@_ZTIN6Assimp6LoggerE = linkonce_odr constant { ptr, ptr, ptr } { ptr getelementptr inbounds (ptr, ptr @_ZTVN10__cxxabiv120__si_class_type_infoE, i64 2), ptr @_ZTSN6Assimp6LoggerE, ptr @_ZTIN6Assimp6Intern22AllocateFromAssimpHeapE }, comdat, align 8
@_ZTVN6Assimp8IOStreamE = linkonce_odr unnamed_addr constant { [10 x ptr] } { [10 x ptr] [ptr null, ptr @_ZTIN6Assimp8IOStreamE, ptr @_ZN6Assimp8IOStreamD2Ev, ptr @_ZN6Assimp8IOStreamD0Ev, ptr @__cxa_pure_virtual, ptr @__cxa_pure_virtual, ptr @__cxa_pure_virtual, ptr @__cxa_pure_virtual, ptr @__cxa_pure_virtual, ptr @__cxa_pure_virtual] }, comdat, align 8
@_ZTSN6Assimp8IOStreamE = linkonce_odr constant [19 x i8] c"N6Assimp8IOStreamE\00", comdat, align 1
@_ZTIN6Assimp8IOStreamE = linkonce_odr constant { ptr, ptr, ptr } { ptr getelementptr inbounds (ptr, ptr @_ZTVN10__cxxabiv120__si_class_type_infoE, i64 2), ptr @_ZTSN6Assimp8IOStreamE, ptr @_ZTIN6Assimp6Intern22AllocateFromAssimpHeapE }, comdat, align 8
@_ZTSN6Assimp8IOSystemE = linkonce_odr constant [19 x i8] c"N6Assimp8IOSystemE\00", comdat, align 1
@_ZTIN6Assimp8IOSystemE = linkonce_odr constant { ptr, ptr, ptr } { ptr getelementptr inbounds (ptr, ptr @_ZTVN10__cxxabiv120__si_class_type_infoE, i64 2), ptr @_ZTSN6Assimp8IOSystemE, ptr @_ZTIN6Assimp6Intern22AllocateFromAssimpHeapE }, comdat, align 8
@_ZTSN6Assimp12BlobIOStreamE = hidden constant [24 x i8] c"N6Assimp12BlobIOStreamE\00", align 1
@_ZTIN6Assimp12BlobIOStreamE = hidden constant { ptr, ptr, ptr } { ptr getelementptr inbounds (ptr, ptr @_ZTVN10__cxxabiv120__si_class_type_infoE, i64 2), ptr @_ZTSN6Assimp12BlobIOStreamE, ptr @_ZTIN6Assimp8IOStreamE }, align 8
@.str.7 = private unnamed_addr constant [26 x i8] c"vector::_M_realloc_insert\00", align 1
@_ZTVN6Assimp15DefaultIOSystemE = external unnamed_addr constant { [16 x ptr] }, align 8
@_ZTVSt15_Sp_counted_ptrIPN6Assimp15DefaultIOSystemELN9__gnu_cxx12_Lock_policyE2EE = linkonce_odr unnamed_addr constant { [7 x ptr] } { [7 x ptr] [ptr null, ptr @_ZTISt15_Sp_counted_ptrIPN6Assimp15DefaultIOSystemELN9__gnu_cxx12_Lock_policyE2EE, ptr @_ZNSt15_Sp_counted_ptrIPN6Assimp15DefaultIOSystemELN9__gnu_cxx12_Lock_policyE2EED2Ev, ptr @_ZNSt15_Sp_counted_ptrIPN6Assimp15DefaultIOSystemELN9__gnu_cxx12_Lock_policyE2EED0Ev, ptr @_ZNSt15_Sp_counted_ptrIPN6Assimp15DefaultIOSystemELN9__gnu_cxx12_Lock_policyE2EE10_M_disposeEv, ptr @_ZNSt15_Sp_counted_ptrIPN6Assimp15DefaultIOSystemELN9__gnu_cxx12_Lock_policyE2EE10_M_destroyEv, ptr @_ZNSt15_Sp_counted_ptrIPN6Assimp15DefaultIOSystemELN9__gnu_cxx12_Lock_policyE2EE14_M_get_deleterERKSt9type_info] }, comdat, align 8
@_ZTSSt15_Sp_counted_ptrIPN6Assimp15DefaultIOSystemELN9__gnu_cxx12_Lock_policyE2EE = linkonce_odr constant [78 x i8] c"St15_Sp_counted_ptrIPN6Assimp15DefaultIOSystemELN9__gnu_cxx12_Lock_policyE2EE\00", comdat, align 1
@_ZTSSt16_Sp_counted_baseILN9__gnu_cxx12_Lock_policyE2EE = linkonce_odr constant [52 x i8] c"St16_Sp_counted_baseILN9__gnu_cxx12_Lock_policyE2EE\00", comdat, align 1
@_ZTSSt11_Mutex_baseILN9__gnu_cxx12_Lock_policyE2EE = linkonce_odr constant [47 x i8] c"St11_Mutex_baseILN9__gnu_cxx12_Lock_policyE2EE\00", comdat, align 1
@_ZTISt11_Mutex_baseILN9__gnu_cxx12_Lock_policyE2EE = linkonce_odr constant { ptr, ptr } { ptr getelementptr inbounds (ptr, ptr @_ZTVN10__cxxabiv117__class_type_infoE, i64 2), ptr @_ZTSSt11_Mutex_baseILN9__gnu_cxx12_Lock_policyE2EE }, comdat, align 8
@_ZTISt16_Sp_counted_baseILN9__gnu_cxx12_Lock_policyE2EE = linkonce_odr constant { ptr, ptr, ptr } { ptr getelementptr inbounds (ptr, ptr @_ZTVN10__cxxabiv120__si_class_type_infoE, i64 2), ptr @_ZTSSt16_Sp_counted_baseILN9__gnu_cxx12_Lock_policyE2EE, ptr @_ZTISt11_Mutex_baseILN9__gnu_cxx12_Lock_policyE2EE }, comdat, align 8
@_ZTISt15_Sp_counted_ptrIPN6Assimp15DefaultIOSystemELN9__gnu_cxx12_Lock_policyE2EE = linkonce_odr constant { ptr, ptr, ptr } { ptr getelementptr inbounds (ptr, ptr @_ZTVN10__cxxabiv120__si_class_type_infoE, i64 2), ptr @_ZTSSt15_Sp_counted_ptrIPN6Assimp15DefaultIOSystemELN9__gnu_cxx12_Lock_policyE2EE, ptr @_ZTISt16_Sp_counted_baseILN9__gnu_cxx12_Lock_policyE2EE }, comdat, align 8
@_ZTVSt16_Sp_counted_baseILN9__gnu_cxx12_Lock_policyE2EE = linkonce_odr unnamed_addr constant { [7 x ptr] } { [7 x ptr] [ptr null, ptr @_ZTISt16_Sp_counted_baseILN9__gnu_cxx12_Lock_policyE2EE, ptr @_ZNSt16_Sp_counted_baseILN9__gnu_cxx12_Lock_policyE2EED2Ev, ptr @_ZNSt16_Sp_counted_baseILN9__gnu_cxx12_Lock_policyE2EED0Ev, ptr @__cxa_pure_virtual, ptr @_ZNSt16_Sp_counted_baseILN9__gnu_cxx12_Lock_policyE2EE10_M_destroyEv, ptr @__cxa_pure_virtual] }, comdat, align 8
@.str.8 = private unnamed_addr constant [8 x i8] c"collada\00", align 1
@.str.9 = private unnamed_addr constant [40 x i8] c"COLLADA - Digital Asset Exchange Schema\00", align 1
@.str.10 = private unnamed_addr constant [4 x i8] c"dae\00", align 1
@.str.11 = private unnamed_addr constant [2 x i8] c"x\00", align 1
@.str.12 = private unnamed_addr constant [8 x i8] c"X Files\00", align 1
@.str.13 = private unnamed_addr constant [4 x i8] c"stp\00", align 1
@.str.14 = private unnamed_addr constant [11 x i8] c"Step Files\00", align 1
@.str.15 = private unnamed_addr constant [4 x i8] c"obj\00", align 1
@.str.16 = private unnamed_addr constant [21 x i8] c"Wavefront OBJ format\00", align 1
@.str.17 = private unnamed_addr constant [9 x i8] c"objnomtl\00", align 1
@.str.18 = private unnamed_addr constant [43 x i8] c"Wavefront OBJ format without material file\00", align 1
@.str.19 = private unnamed_addr constant [4 x i8] c"stl\00", align 1
@.str.20 = private unnamed_addr constant [18 x i8] c"Stereolithography\00", align 1
@.str.21 = private unnamed_addr constant [5 x i8] c"stlb\00", align 1
@.str.22 = private unnamed_addr constant [27 x i8] c"Stereolithography (binary)\00", align 1
@.str.23 = private unnamed_addr constant [4 x i8] c"ply\00", align 1
@.str.24 = private unnamed_addr constant [25 x i8] c"Stanford Polygon Library\00", align 1
@.str.25 = private unnamed_addr constant [5 x i8] c"plyb\00", align 1
@.str.26 = private unnamed_addr constant [34 x i8] c"Stanford Polygon Library (binary)\00", align 1
@.str.27 = private unnamed_addr constant [4 x i8] c"3ds\00", align 1
@.str.28 = private unnamed_addr constant [22 x i8] c"Autodesk 3DS (legacy)\00", align 1
@.str.29 = private unnamed_addr constant [6 x i8] c"gltf2\00", align 1
@.str.30 = private unnamed_addr constant [28 x i8] c"GL Transmission Format v. 2\00", align 1
@.str.31 = private unnamed_addr constant [5 x i8] c"gltf\00", align 1
@.str.32 = private unnamed_addr constant [5 x i8] c"glb2\00", align 1
@.str.33 = private unnamed_addr constant [37 x i8] c"GL Transmission Format v. 2 (binary)\00", align 1
@.str.34 = private unnamed_addr constant [4 x i8] c"glb\00", align 1
@.str.35 = private unnamed_addr constant [23 x i8] c"GL Transmission Format\00", align 1
@.str.36 = private unnamed_addr constant [32 x i8] c"GL Transmission Format (binary)\00", align 1
@.str.37 = private unnamed_addr constant [7 x i8] c"assbin\00", align 1
@.str.38 = private unnamed_addr constant [19 x i8] c"Assimp Binary File\00", align 1
@.str.39 = private unnamed_addr constant [7 x i8] c"assxml\00", align 1
@.str.40 = private unnamed_addr constant [20 x i8] c"Assimp XML Document\00", align 1
@.str.41 = private unnamed_addr constant [4 x i8] c"x3d\00", align 1
@.str.42 = private unnamed_addr constant [14 x i8] c"Extensible 3D\00", align 1
@.str.43 = private unnamed_addr constant [4 x i8] c"fbx\00", align 1
@.str.44 = private unnamed_addr constant [22 x i8] c"Autodesk FBX (binary)\00", align 1
@.str.45 = private unnamed_addr constant [5 x i8] c"fbxa\00", align 1
@.str.46 = private unnamed_addr constant [21 x i8] c"Autodesk FBX (ascii)\00", align 1
@.str.47 = private unnamed_addr constant [4 x i8] c"3mf\00", align 1
@.str.48 = private unnamed_addr constant [20 x i8] c"The 3MF-File-Format\00", align 1
@.str.49 = private unnamed_addr constant [5 x i8] c"pbrt\00", align 1
@.str.50 = private unnamed_addr constant [31 x i8] c"pbrt-v4 scene description file\00", align 1
@.str.51 = private unnamed_addr constant [8 x i8] c"assjson\00", align 1
@.str.52 = private unnamed_addr constant [21 x i8] c"Assimp JSON Document\00", align 1
@.str.53 = private unnamed_addr constant [5 x i8] c"json\00", align 1
@_ZTVN6Assimp22DefaultProgressHandlerE = linkonce_odr hidden unnamed_addr constant { [8 x ptr] } { [8 x ptr] [ptr null, ptr @_ZTIN6Assimp22DefaultProgressHandlerE, ptr @_ZN6Assimp22DefaultProgressHandlerD2Ev, ptr @_ZN6Assimp22DefaultProgressHandlerD0Ev, ptr @_ZN6Assimp22DefaultProgressHandler6UpdateEf, ptr @_ZN6Assimp15ProgressHandler14UpdateFileReadEii, ptr @_ZN6Assimp15ProgressHandler17UpdatePostProcessEii, ptr @_ZN6Assimp15ProgressHandler15UpdateFileWriteEii] }, comdat, align 8
@_ZTSN6Assimp22DefaultProgressHandlerE = linkonce_odr hidden constant [34 x i8] c"N6Assimp22DefaultProgressHandlerE\00", comdat, align 1
@_ZTSN6Assimp15ProgressHandlerE = linkonce_odr constant [27 x i8] c"N6Assimp15ProgressHandlerE\00", comdat, align 1
@_ZTIN6Assimp15ProgressHandlerE = linkonce_odr constant { ptr, ptr, ptr } { ptr getelementptr inbounds (ptr, ptr @_ZTVN10__cxxabiv120__si_class_type_infoE, i64 2), ptr @_ZTSN6Assimp15ProgressHandlerE, ptr @_ZTIN6Assimp6Intern22AllocateFromAssimpHeapE }, comdat, align 8
@_ZTIN6Assimp22DefaultProgressHandlerE = linkonce_odr hidden constant { ptr, ptr, ptr } { ptr getelementptr inbounds (ptr, ptr @_ZTVN10__cxxabiv120__si_class_type_infoE, i64 2), ptr @_ZTSN6Assimp22DefaultProgressHandlerE, ptr @_ZTIN6Assimp15ProgressHandlerE }, comdat, align 8
@_ZTVN6Assimp15ProgressHandlerE = linkonce_odr unnamed_addr constant { [8 x ptr] } { [8 x ptr] [ptr null, ptr @_ZTIN6Assimp15ProgressHandlerE, ptr @_ZN6Assimp15ProgressHandlerD2Ev, ptr @_ZN6Assimp15ProgressHandlerD0Ev, ptr @__cxa_pure_virtual, ptr @_ZN6Assimp15ProgressHandler14UpdateFileReadEii, ptr @_ZN6Assimp15ProgressHandler17UpdatePostProcessEii, ptr @_ZN6Assimp15ProgressHandler15UpdateFileWriteEii] }, comdat, align 8
@__libc_single_threaded = external global i8, align 1
@_ZTVN6Assimp12BlobIOSystemE = linkonce_odr hidden unnamed_addr constant { [16 x ptr] } { [16 x ptr] [ptr null, ptr @_ZTIN6Assimp12BlobIOSystemE, ptr @_ZN6Assimp12BlobIOSystemD2Ev, ptr @_ZN6Assimp12BlobIOSystemD0Ev, ptr @_ZNK6Assimp12BlobIOSystem6ExistsEPKc, ptr @_ZNK6Assimp12BlobIOSystem14getOsSeparatorEv, ptr @_ZN6Assimp12BlobIOSystem4OpenEPKcS2_, ptr @_ZN6Assimp12BlobIOSystem5CloseEPNS_8IOStreamE, ptr @_ZNK6Assimp8IOSystem12ComparePathsEPKcS2_, ptr @_ZN6Assimp8IOSystem13PushDirectoryERKNSt7__cxx1112basic_stringIcSt11char_traitsIcESaIcEEE, ptr @_ZNK6Assimp8IOSystem16CurrentDirectoryB5cxx11Ev, ptr @_ZNK6Assimp8IOSystem9StackSizeEv, ptr @_ZN6Assimp8IOSystem12PopDirectoryEv, ptr @_ZN6Assimp8IOSystem15CreateDirectoryERKNSt7__cxx1112basic_stringIcSt11char_traitsIcESaIcEEE, ptr @_ZN6Assimp8IOSystem15ChangeDirectoryERKNSt7__cxx1112basic_stringIcSt11char_traitsIcESaIcEEE, ptr @_ZN6Assimp8IOSystem10DeleteFileERKNSt7__cxx1112basic_stringIcSt11char_traitsIcESaIcEEE] }, comdat, align 8
@_ZTSN6Assimp12BlobIOSystemE = linkonce_odr hidden constant [24 x i8] c"N6Assimp12BlobIOSystemE\00", comdat, align 1
@_ZTIN6Assimp12BlobIOSystemE = linkonce_odr hidden constant { ptr, ptr, ptr } { ptr getelementptr inbounds (ptr, ptr @_ZTVN10__cxxabiv120__si_class_type_infoE, i64 2), ptr @_ZTSN6Assimp12BlobIOSystemE, ptr @_ZTIN6Assimp8IOSystemE }, comdat, align 8
@.str.54 = private unnamed_addr constant [70 x i8] c"BlobIOSystem: no data written or master file was not closed properly.\00", align 1
@_ZTVN6Assimp24MakeVerboseFormatProcessE = external unnamed_addr constant { [8 x ptr] }, align 8
@_ZTVN6Assimp23FlipWindingOrderProcessE = external unnamed_addr constant { [8 x ptr] }, align 8
@_ZTVN6Assimp21MakeLeftHandedProcessE = external unnamed_addr constant { [8 x ptr] }, align 8
@_ZTVN6Assimp19JoinVerticesProcessE = external unnamed_addr constant { [8 x ptr] }, align 8
@_ZTISt9bad_alloc = external constant ptr
@.str.55 = private unnamed_addr constant [50 x i8] c"basic_string: construction from null is not valid\00", align 1
@_ZTVSt15_Sp_counted_ptrIPN6Assimp8IOSystemELN9__gnu_cxx12_Lock_policyE2EE = linkonce_odr unnamed_addr constant { [7 x ptr] } { [7 x ptr] [ptr null, ptr @_ZTISt15_Sp_counted_ptrIPN6Assimp8IOSystemELN9__gnu_cxx12_Lock_policyE2EE, ptr @_ZNSt15_Sp_counted_ptrIPN6Assimp8IOSystemELN9__gnu_cxx12_Lock_policyE2EED2Ev, ptr @_ZNSt15_Sp_counted_ptrIPN6Assimp8IOSystemELN9__gnu_cxx12_Lock_policyE2EED0Ev, ptr @_ZNSt15_Sp_counted_ptrIPN6Assimp8IOSystemELN9__gnu_cxx12_Lock_policyE2EE10_M_disposeEv, ptr @_ZNSt15_Sp_counted_ptrIPN6Assimp8IOSystemELN9__gnu_cxx12_Lock_policyE2EE10_M_destroyEv, ptr @_ZNSt15_Sp_counted_ptrIPN6Assimp8IOSystemELN9__gnu_cxx12_Lock_policyE2EE14_M_get_deleterERKSt9type_info] }, comdat, align 8
@_ZTSSt15_Sp_counted_ptrIPN6Assimp8IOSystemELN9__gnu_cxx12_Lock_policyE2EE = linkonce_odr constant [70 x i8] c"St15_Sp_counted_ptrIPN6Assimp8IOSystemELN9__gnu_cxx12_Lock_policyE2EE\00", comdat, align 1
@_ZTISt15_Sp_counted_ptrIPN6Assimp8IOSystemELN9__gnu_cxx12_Lock_policyE2EE = linkonce_odr constant { ptr, ptr, ptr } { ptr getelementptr inbounds (ptr, ptr @_ZTVN10__cxxabiv120__si_class_type_infoE, i64 2), ptr @_ZTSSt15_Sp_counted_ptrIPN6Assimp8IOSystemELN9__gnu_cxx12_Lock_policyE2EE, ptr @_ZTISt16_Sp_counted_baseILN9__gnu_cxx12_Lock_policyE2EE }, comdat, align 8
@_ZTVSt15_Sp_counted_ptrIPN6Assimp12BlobIOSystemELN9__gnu_cxx12_Lock_policyE2EE = linkonce_odr hidden unnamed_addr constant { [7 x ptr] } { [7 x ptr] [ptr null, ptr @_ZTISt15_Sp_counted_ptrIPN6Assimp12BlobIOSystemELN9__gnu_cxx12_Lock_policyE2EE, ptr @_ZNSt15_Sp_counted_ptrIPN6Assimp12BlobIOSystemELN9__gnu_cxx12_Lock_policyE2EED2Ev, ptr @_ZNSt15_Sp_counted_ptrIPN6Assimp12BlobIOSystemELN9__gnu_cxx12_Lock_policyE2EED0Ev, ptr @_ZNSt15_Sp_counted_ptrIPN6Assimp12BlobIOSystemELN9__gnu_cxx12_Lock_policyE2EE10_M_disposeEv, ptr @_ZNSt15_Sp_counted_ptrIPN6Assimp12BlobIOSystemELN9__gnu_cxx12_Lock_policyE2EE10_M_destroyEv, ptr @_ZNSt15_Sp_counted_ptrIPN6Assimp12BlobIOSystemELN9__gnu_cxx12_Lock_policyE2EE14_M_get_deleterERKSt9type_info] }, comdat, align 8
@_ZTSSt15_Sp_counted_ptrIPN6Assimp12BlobIOSystemELN9__gnu_cxx12_Lock_policyE2EE = linkonce_odr hidden constant [75 x i8] c"St15_Sp_counted_ptrIPN6Assimp12BlobIOSystemELN9__gnu_cxx12_Lock_policyE2EE\00", comdat, align 1
@_ZTISt15_Sp_counted_ptrIPN6Assimp12BlobIOSystemELN9__gnu_cxx12_Lock_policyE2EE = linkonce_odr hidden constant { ptr, ptr, ptr } { ptr getelementptr inbounds (ptr, ptr @_ZTVN10__cxxabiv120__si_class_type_infoE, i64 2), ptr @_ZTSSt15_Sp_counted_ptrIPN6Assimp12BlobIOSystemELN9__gnu_cxx12_Lock_policyE2EE, ptr @_ZTISt16_Sp_counted_baseILN9__gnu_cxx12_Lock_policyE2EE }, comdat, align 8

@_ZN6Assimp12BlobIOStreamD1Ev = hidden unnamed_addr alias void (ptr), ptr @_ZN6Assimp12BlobIOStreamD2Ev
@_ZN6Assimp8ExporterC1Ev = unnamed_addr alias void (ptr), ptr @_ZN6Assimp8ExporterC2Ev
@_ZN6Assimp8ExporterD1Ev = unnamed_addr alias void (ptr), ptr @_ZN6Assimp8ExporterD2Ev
@_ZN6Assimp16ExportPropertiesC1Ev = unnamed_addr alias void (ptr), ptr @_ZN6Assimp16ExportPropertiesC2Ev
@_ZN6Assimp16ExportPropertiesC1ERKS0_ = unnamed_addr alias void (ptr, ptr), ptr @_ZN6Assimp16ExportPropertiesC2ERKS0_

; Function Attrs: mustprogress nounwind uwtable
define linkonce_odr void @_ZN6Assimp9LogStreamD0Ev(ptr noundef nonnull align 8 dereferenceable(8) %this) unnamed_addr #0 comdat align 2 {
entry:
  %this.addr = alloca ptr, align 8
  store ptr %this, ptr %this.addr, align 8
  call void @llvm.trap() #15
  unreachable
}

; Function Attrs: cold noreturn nounwind memory(inaccessiblemem: write)
declare void @llvm.trap() #1

; Function Attrs: mustprogress nounwind uwtable
define linkonce_odr void @_ZN6Assimp6LoggerD0Ev(ptr noundef nonnull align 8 dereferenceable(12) %this) unnamed_addr #0 comdat align 2 {
entry:
  %this.addr = alloca ptr, align 8
  store ptr %this, ptr %this.addr, align 8
  call void @llvm.trap() #15
  unreachable
}

; Function Attrs: mustprogress nounwind uwtable
define linkonce_odr void @_ZN6Assimp8IOStreamD0Ev(ptr noundef nonnull align 8 dereferenceable(8) %this) unnamed_addr #0 comdat align 2 {
entry:
  %this.addr = alloca ptr, align 8
  store ptr %this, ptr %this.addr, align 8
  call void @llvm.trap() #15
  unreachable
}

; Function Attrs: mustprogress nounwind uwtable
define linkonce_odr void @_ZNSt6vectorINSt7__cxx1112basic_stringIcSt11char_traitsIcESaIcEEESaIS5_EED2Ev(ptr noundef nonnull align 8 dereferenceable(24) %this) unnamed_addr #0 comdat align 2 personality ptr @__gxx_personality_v0 {
entry:
  %this.addr = alloca ptr, align 8
  store ptr %this, ptr %this.addr, align 8
  %this1 = load ptr, ptr %this.addr, align 8
  %_M_impl = getelementptr inbounds %"struct.std::_Vector_base", ptr %this1, i32 0, i32 0
  %_M_start = getelementptr inbounds %"struct.std::_Vector_base<std::__cxx11::basic_string<char>, std::allocator<std::__cxx11::basic_string<char>>>::_Vector_impl_data", ptr %_M_impl, i32 0, i32 0
  %0 = load ptr, ptr %_M_start, align 8
  %_M_impl2 = getelementptr inbounds %"struct.std::_Vector_base", ptr %this1, i32 0, i32 0
  %_M_finish = getelementptr inbounds %"struct.std::_Vector_base<std::__cxx11::basic_string<char>, std::allocator<std::__cxx11::basic_string<char>>>::_Vector_impl_data", ptr %_M_impl2, i32 0, i32 1
  %1 = load ptr, ptr %_M_finish, align 8
  %call = call noundef nonnull align 1 dereferenceable(1) ptr @_ZNSt12_Vector_baseINSt7__cxx1112basic_stringIcSt11char_traitsIcESaIcEEESaIS5_EE19_M_get_Tp_allocatorEv(ptr noundef nonnull align 8 dereferenceable(24) %this1) #16
  invoke void @_ZSt8_DestroyIPNSt7__cxx1112basic_stringIcSt11char_traitsIcESaIcEEES5_EvT_S7_RSaIT0_E(ptr noundef %0, ptr noundef %1, ptr noundef nonnull align 1 dereferenceable(1) %call)
          to label %invoke.cont unwind label %terminate.lpad

invoke.cont:                                      ; preds = %entry
  call void @_ZNSt12_Vector_baseINSt7__cxx1112basic_stringIcSt11char_traitsIcESaIcEEESaIS5_EED2Ev(ptr noundef nonnull align 8 dereferenceable(24) %this1) #16
  ret void

terminate.lpad:                                   ; preds = %entry
  %2 = landingpad { ptr, i32 }
          catch ptr null
  %3 = extractvalue { ptr, i32 } %2, 0
  call void @__clang_call_terminate(ptr %3) #15
  unreachable
}

; Function Attrs: mustprogress nounwind uwtable
define linkonce_odr void @_ZN6Assimp8IOSystemD0Ev(ptr noundef nonnull align 8 dereferenceable(32) %this) unnamed_addr #0 comdat align 2 {
entry:
  %this.addr = alloca ptr, align 8
  store ptr %this, ptr %this.addr, align 8
  call void @llvm.trap() #15
  unreachable
}

; Function Attrs: mustprogress nounwind uwtable
define hidden void @_ZN6Assimp12BlobIOStreamD2Ev(ptr noundef nonnull align 8 dereferenceable(88) %this) unnamed_addr #0 align 2 personality ptr @__gxx_personality_v0 {
entry:
  %this.addr = alloca ptr, align 8
  store ptr %this, ptr %this.addr, align 8
  %this1 = load ptr, ptr %this.addr, align 8
  store ptr getelementptr inbounds ({ [10 x ptr] }, ptr @_ZTVN6Assimp12BlobIOStreamE, i32 0, inrange i32 0, i32 2), ptr %this1, align 8
  %creator = getelementptr inbounds %"class.Assimp::BlobIOStream", ptr %this1, i32 0, i32 7
  %0 = load ptr, ptr %creator, align 8
  %cmp = icmp ne ptr null, %0
  br i1 %cmp, label %if.then, label %if.end

if.then:                                          ; preds = %entry
  %creator2 = getelementptr inbounds %"class.Assimp::BlobIOStream", ptr %this1, i32 0, i32 7
  %1 = load ptr, ptr %creator2, align 8
  %file = getelementptr inbounds %"class.Assimp::BlobIOStream", ptr %this1, i32 0, i32 6
  invoke void @_ZN6Assimp12BlobIOSystem10OnDestructERKNSt7__cxx1112basic_stringIcSt11char_traitsIcESaIcEEEPNS_12BlobIOStreamE(ptr noundef nonnull align 8 dereferenceable(136) %1, ptr noundef nonnull align 8 dereferenceable(32) %file, ptr noundef %this1)
          to label %invoke.cont unwind label %terminate.lpad

invoke.cont:                                      ; preds = %if.then
  br label %if.end

if.end:                                           ; preds = %invoke.cont, %entry
  %buffer = getelementptr inbounds %"class.Assimp::BlobIOStream", ptr %this1, i32 0, i32 1
  %2 = load ptr, ptr %buffer, align 8
  %isnull = icmp eq ptr %2, null
  br i1 %isnull, label %delete.end, label %delete.notnull

delete.notnull:                                   ; preds = %if.end
  call void @_ZdaPv(ptr noundef %2) #17
  br label %delete.end

delete.end:                                       ; preds = %delete.notnull, %if.end
  %file3 = getelementptr inbounds %"class.Assimp::BlobIOStream", ptr %this1, i32 0, i32 6
  call void @_ZNSt7__cxx1112basic_stringIcSt11char_traitsIcESaIcEED1Ev(ptr noundef nonnull align 8 dereferenceable(32) %file3) #16
  call void @_ZN6Assimp8IOStreamD2Ev(ptr noundef nonnull align 8 dereferenceable(8) %this1) #16
  ret void

terminate.lpad:                                   ; preds = %if.then
  %3 = landingpad { ptr, i32 }
          catch ptr null
  %4 = extractvalue { ptr, i32 } %3, 0
  call void @__clang_call_terminate(ptr %4) #15
  unreachable
}

; Function Attrs: mustprogress uwtable
define linkonce_odr hidden void @_ZN6Assimp12BlobIOSystem10OnDestructERKNSt7__cxx1112basic_stringIcSt11char_traitsIcESaIcEEEPNS_12BlobIOStreamE(ptr noundef nonnull align 8 dereferenceable(136) %this, ptr noundef nonnull align 8 dereferenceable(32) %filename, ptr noundef %child) #2 comdat align 2 {
entry:
  %this.addr = alloca ptr, align 8
  %filename.addr = alloca ptr, align 8
  %child.addr = alloca ptr, align 8
  %ref.tmp = alloca ptr, align 8
  store ptr %this, ptr %this.addr, align 8
  store ptr %filename, ptr %filename.addr, align 8
  store ptr %child, ptr %child.addr, align 8
  %this1 = load ptr, ptr %this.addr, align 8
  %blobs = getelementptr inbounds %"class.Assimp::BlobIOSystem", ptr %this1, i32 0, i32 3
  %0 = load ptr, ptr %filename.addr, align 8
  %1 = load ptr, ptr %child.addr, align 8
  %call = call noundef ptr @_ZN6Assimp12BlobIOStream7GetBlobEv(ptr noundef nonnull align 8 dereferenceable(88) %1)
  store ptr %call, ptr %ref.tmp, align 8
  %call2 = call noundef nonnull align 8 dereferenceable(40) ptr @_ZNSt6vectorISt4pairINSt7__cxx1112basic_stringIcSt11char_traitsIcESaIcEEEP16aiExportDataBlobESaIS9_EE12emplace_backIJRKS6_S8_EEERS9_DpOT_(ptr noundef nonnull align 8 dereferenceable(24) %blobs, ptr noundef nonnull align 8 dereferenceable(32) %0, ptr noundef nonnull align 8 dereferenceable(8) %ref.tmp)
  ret void
}

declare i32 @__gxx_personality_v0(...)

; Function Attrs: noreturn nounwind uwtable
define linkonce_odr hidden void @__clang_call_terminate(ptr noundef %0) #3 comdat {
  %2 = call ptr @__cxa_begin_catch(ptr %0) #16
  call void @_ZSt9terminatev() #15
  unreachable
}

declare ptr @__cxa_begin_catch(ptr)

declare void @_ZSt9terminatev()

; Function Attrs: nobuiltin nounwind
declare void @_ZdaPv(ptr noundef) #4

; Function Attrs: nounwind
declare void @_ZNSt7__cxx1112basic_stringIcSt11char_traitsIcESaIcEED1Ev(ptr noundef nonnull align 8 dereferenceable(32)) unnamed_addr #5

; Function Attrs: mustprogress nounwind uwtable
define hidden void @_ZN6Assimp12BlobIOStreamD0Ev(ptr noundef nonnull align 8 dereferenceable(88) %this) unnamed_addr #0 align 2 {
entry:
  %this.addr = alloca ptr, align 8
  store ptr %this, ptr %this.addr, align 8
  %this1 = load ptr, ptr %this.addr, align 8
  call void @_ZN6Assimp12BlobIOStreamD1Ev(ptr noundef nonnull align 8 dereferenceable(88) %this1) #16
  call void @_ZN6Assimp6Intern22AllocateFromAssimpHeapdlEPv(ptr noundef %this1) #16
  ret void
}

; Function Attrs: nounwind
declare void @_ZN6Assimp6Intern22AllocateFromAssimpHeapdlEPv(ptr noundef) #5

; Function Attrs: mustprogress uwtable
define void @_ZN6Assimp8ExporterC2Ev(ptr noundef nonnull align 8 dereferenceable(8) %this) unnamed_addr #2 align 2 personality ptr @__gxx_personality_v0 {
entry:
  %this.addr = alloca ptr, align 8
  %exn.slot = alloca ptr, align 8
  %ehselector.slot = alloca i32, align 4
  store ptr %this, ptr %this.addr, align 8
  %this1 = load ptr, ptr %this.addr, align 8
  %pimpl = getelementptr inbounds %"class.Assimp::Exporter", ptr %this1, i32 0, i32 0
  %call = call noalias noundef nonnull ptr @_Znwm(i64 noundef 128) #18
  invoke void @_ZN6Assimp13ExporterPimplC2Ev(ptr noundef nonnull align 8 dereferenceable(128) %call)
          to label %invoke.cont unwind label %lpad

invoke.cont:                                      ; preds = %entry
  store ptr %call, ptr %pimpl, align 8
  %call2 = call noundef ptr @_ZN6Assimp6Intern22AllocateFromAssimpHeapnwEm(i64 noundef 8)
  call void @llvm.memset.p0.i64(ptr align 8 %call2, i8 0, i64 8, i1 false)
  call void @_ZN6Assimp22DefaultProgressHandlerC2Ev(ptr noundef nonnull align 8 dereferenceable(8) %call2) #16
  %pimpl3 = getelementptr inbounds %"class.Assimp::Exporter", ptr %this1, i32 0, i32 0
  %0 = load ptr, ptr %pimpl3, align 8
  %mProgressHandler = getelementptr inbounds %"class.Assimp::ExporterPimpl", ptr %0, i32 0, i32 3
  store ptr %call2, ptr %mProgressHandler, align 8
  ret void

lpad:                                             ; preds = %entry
  %1 = landingpad { ptr, i32 }
          cleanup
  %2 = extractvalue { ptr, i32 } %1, 0
  store ptr %2, ptr %exn.slot, align 8
  %3 = extractvalue { ptr, i32 } %1, 1
  store i32 %3, ptr %ehselector.slot, align 4
  call void @_ZdlPv(ptr noundef %call) #17
  br label %eh.resume

eh.resume:                                        ; preds = %lpad
  %exn = load ptr, ptr %exn.slot, align 8
  %sel = load i32, ptr %ehselector.slot, align 4
  %lpad.val = insertvalue { ptr, i32 } poison, ptr %exn, 0
  %lpad.val4 = insertvalue { ptr, i32 } %lpad.val, i32 %sel, 1
  resume { ptr, i32 } %lpad.val4
}

; Function Attrs: nobuiltin allocsize(0)
declare noundef nonnull ptr @_Znwm(i64 noundef) #6

; Function Attrs: mustprogress uwtable
define linkonce_odr hidden void @_ZN6Assimp13ExporterPimplC2Ev(ptr noundef nonnull align 8 dereferenceable(128) %this) unnamed_addr #2 comdat align 2 personality ptr @__gxx_personality_v0 {
entry:
  %this.addr = alloca ptr, align 8
  %exn.slot = alloca ptr, align 8
  %ehselector.slot = alloca i32, align 4
  store ptr %this, ptr %this.addr, align 8
  %this1 = load ptr, ptr %this.addr, align 8
  %blob = getelementptr inbounds %"class.Assimp::ExporterPimpl", ptr %this1, i32 0, i32 0
  store ptr null, ptr %blob, align 8
  %mIOSystem = getelementptr inbounds %"class.Assimp::ExporterPimpl", ptr %this1, i32 0, i32 1
  %call = call noundef ptr @_ZN6Assimp6Intern22AllocateFromAssimpHeapnwEm(i64 noundef 32)
  call void @llvm.memset.p0.i64(ptr align 8 %call, i8 0, i64 32, i1 false)
  call void @_ZN6Assimp15DefaultIOSystemC2Ev(ptr noundef nonnull align 8 dereferenceable(32) %call) #16
  call void @_ZNSt10shared_ptrIN6Assimp8IOSystemEEC2INS0_15DefaultIOSystemEvEEPT_(ptr noundef nonnull align 8 dereferenceable(16) %mIOSystem, ptr noundef %call)
  %mIsDefaultIOHandler = getelementptr inbounds %"class.Assimp::ExporterPimpl", ptr %this1, i32 0, i32 2
  store i8 1, ptr %mIsDefaultIOHandler, align 8
  %mProgressHandler = getelementptr inbounds %"class.Assimp::ExporterPimpl", ptr %this1, i32 0, i32 3
  store ptr null, ptr %mProgressHandler, align 8
  %mIsDefaultProgressHandler = getelementptr inbounds %"class.Assimp::ExporterPimpl", ptr %this1, i32 0, i32 4
  store i8 1, ptr %mIsDefaultProgressHandler, align 8
  %mPostProcessingSteps = getelementptr inbounds %"class.Assimp::ExporterPimpl", ptr %this1, i32 0, i32 5
  call void @llvm.memset.p0.i64(ptr align 8 %mPostProcessingSteps, i8 0, i64 24, i1 false)
  call void @_ZNSt6vectorIPN6Assimp11BaseProcessESaIS2_EEC2Ev(ptr noundef nonnull align 8 dereferenceable(24) %mPostProcessingSteps) #16
  %mError = getelementptr inbounds %"class.Assimp::ExporterPimpl", ptr %this1, i32 0, i32 6
  call void @_ZNSt7__cxx1112basic_stringIcSt11char_traitsIcESaIcEEC1Ev(ptr noundef nonnull align 8 dereferenceable(32) %mError) #16
  %mExporters = getelementptr inbounds %"class.Assimp::ExporterPimpl", ptr %this1, i32 0, i32 7
  call void @llvm.memset.p0.i64(ptr align 8 %mExporters, i8 0, i64 24, i1 false)
  call void @_ZNSt6vectorIN6Assimp8Exporter17ExportFormatEntryESaIS2_EEC2Ev(ptr noundef nonnull align 8 dereferenceable(24) %mExporters) #16
  %mPostProcessingSteps2 = getelementptr inbounds %"class.Assimp::ExporterPimpl", ptr %this1, i32 0, i32 5
  invoke void @_ZN6Assimp33GetPostProcessingStepInstanceListERSt6vectorIPNS_11BaseProcessESaIS2_EE(ptr noundef nonnull align 8 dereferenceable(24) %mPostProcessingSteps2)
          to label %invoke.cont unwind label %lpad

invoke.cont:                                      ; preds = %entry
  %mExporters3 = getelementptr inbounds %"class.Assimp::ExporterPimpl", ptr %this1, i32 0, i32 7
  invoke void @_ZN6AssimpL18setupExporterArrayERSt6vectorINS_8Exporter17ExportFormatEntryESaIS2_EE(ptr noundef nonnull align 8 dereferenceable(24) %mExporters3)
          to label %invoke.cont4 unwind label %lpad

invoke.cont4:                                     ; preds = %invoke.cont
  ret void

lpad:                                             ; preds = %invoke.cont, %entry
  %0 = landingpad { ptr, i32 }
          cleanup
  %1 = extractvalue { ptr, i32 } %0, 0
  store ptr %1, ptr %exn.slot, align 8
  %2 = extractvalue { ptr, i32 } %0, 1
  store i32 %2, ptr %ehselector.slot, align 4
  call void @_ZNSt6vectorIN6Assimp8Exporter17ExportFormatEntryESaIS2_EED2Ev(ptr noundef nonnull align 8 dereferenceable(24) %mExporters) #16
  call void @_ZNSt7__cxx1112basic_stringIcSt11char_traitsIcESaIcEED1Ev(ptr noundef nonnull align 8 dereferenceable(32) %mError) #16
  call void @_ZNSt6vectorIPN6Assimp11BaseProcessESaIS2_EED2Ev(ptr noundef nonnull align 8 dereferenceable(24) %mPostProcessingSteps) #16
  call void @_ZNSt10shared_ptrIN6Assimp8IOSystemEED2Ev(ptr noundef nonnull align 8 dereferenceable(16) %mIOSystem) #16
  br label %eh.resume

eh.resume:                                        ; preds = %lpad
  %exn = load ptr, ptr %exn.slot, align 8
  %sel = load i32, ptr %ehselector.slot, align 4
  %lpad.val = insertvalue { ptr, i32 } poison, ptr %exn, 0
  %lpad.val5 = insertvalue { ptr, i32 } %lpad.val, i32 %sel, 1
  resume { ptr, i32 } %lpad.val5
}

; Function Attrs: nobuiltin nounwind
declare void @_ZdlPv(ptr noundef) #4

declare noundef ptr @_ZN6Assimp6Intern22AllocateFromAssimpHeapnwEm(i64 noundef) #7

; Function Attrs: nocallback nofree nounwind willreturn memory(argmem: write)
declare void @llvm.memset.p0.i64(ptr nocapture writeonly, i8, i64, i1 immarg) #8

; Function Attrs: mustprogress nounwind uwtable
define linkonce_odr hidden void @_ZN6Assimp22DefaultProgressHandlerC2Ev(ptr noundef nonnull align 8 dereferenceable(8) %this) unnamed_addr #0 comdat align 2 {
entry:
  %this.addr = alloca ptr, align 8
  store ptr %this, ptr %this.addr, align 8
  %this1 = load ptr, ptr %this.addr, align 8
  call void @_ZN6Assimp15ProgressHandlerC2Ev(ptr noundef nonnull align 8 dereferenceable(8) %this1) #16
  store ptr getelementptr inbounds ({ [8 x ptr] }, ptr @_ZTVN6Assimp22DefaultProgressHandlerE, i32 0, inrange i32 0, i32 2), ptr %this1, align 8
  ret void
}

; Function Attrs: mustprogress nounwind uwtable
define void @_ZN6Assimp8ExporterD2Ev(ptr noundef nonnull align 8 dereferenceable(8) %this) unnamed_addr #0 align 2 personality ptr @__gxx_personality_v0 {
entry:
  %this.addr = alloca ptr, align 8
  store ptr %this, ptr %this.addr, align 8
  %this1 = load ptr, ptr %this.addr, align 8
  invoke void @_ZN6Assimp8Exporter8FreeBlobEv(ptr noundef nonnull align 8 dereferenceable(8) %this1)
          to label %invoke.cont unwind label %terminate.lpad

invoke.cont:                                      ; preds = %entry
  %pimpl = getelementptr inbounds %"class.Assimp::Exporter", ptr %this1, i32 0, i32 0
  %0 = load ptr, ptr %pimpl, align 8
  %isnull = icmp eq ptr %0, null
  br i1 %isnull, label %delete.end, label %delete.notnull

delete.notnull:                                   ; preds = %invoke.cont
  call void @_ZN6Assimp13ExporterPimplD2Ev(ptr noundef nonnull align 8 dereferenceable(128) %0) #16
  call void @_ZdlPv(ptr noundef %0) #17
  br label %delete.end

delete.end:                                       ; preds = %delete.notnull, %invoke.cont
  ret void

terminate.lpad:                                   ; preds = %entry
  %1 = landingpad { ptr, i32 }
          catch ptr null
  %2 = extractvalue { ptr, i32 } %1, 0
  call void @__clang_call_terminate(ptr %2) #15
  unreachable
}

; Function Attrs: mustprogress uwtable
define void @_ZN6Assimp8Exporter8FreeBlobEv(ptr noundef nonnull align 8 dereferenceable(8) %this) #2 align 2 {
entry:
  %this.addr = alloca ptr, align 8
  store ptr %this, ptr %this.addr, align 8
  %this1 = load ptr, ptr %this.addr, align 8
  %pimpl = getelementptr inbounds %"class.Assimp::Exporter", ptr %this1, i32 0, i32 0
  %0 = load ptr, ptr %pimpl, align 8
  %blob = getelementptr inbounds %"class.Assimp::ExporterPimpl", ptr %0, i32 0, i32 0
  %1 = load ptr, ptr %blob, align 8
  %isnull = icmp eq ptr %1, null
  br i1 %isnull, label %delete.end, label %delete.notnull

delete.notnull:                                   ; preds = %entry
  call void @_ZN16aiExportDataBlobD2Ev(ptr noundef nonnull align 8 dereferenceable(1056) %1) #16
  call void @_ZdlPv(ptr noundef %1) #17
  br label %delete.end

delete.end:                                       ; preds = %delete.notnull, %entry
  %pimpl2 = getelementptr inbounds %"class.Assimp::Exporter", ptr %this1, i32 0, i32 0
  %2 = load ptr, ptr %pimpl2, align 8
  %blob3 = getelementptr inbounds %"class.Assimp::ExporterPimpl", ptr %2, i32 0, i32 0
  store ptr null, ptr %blob3, align 8
  %pimpl4 = getelementptr inbounds %"class.Assimp::Exporter", ptr %this1, i32 0, i32 0
  %3 = load ptr, ptr %pimpl4, align 8
  %mError = getelementptr inbounds %"class.Assimp::ExporterPimpl", ptr %3, i32 0, i32 6
  %call = call noundef nonnull align 8 dereferenceable(32) ptr @_ZNSt7__cxx1112basic_stringIcSt11char_traitsIcESaIcEEaSEPKc(ptr noundef nonnull align 8 dereferenceable(32) %mError, ptr noundef @.str.2)
  ret void
}

; Function Attrs: mustprogress nounwind uwtable
define linkonce_odr hidden void @_ZN6Assimp13ExporterPimplD2Ev(ptr noundef nonnull align 8 dereferenceable(128) %this) unnamed_addr #0 comdat align 2 {
entry:
  %this.addr = alloca ptr, align 8
  %a = alloca i32, align 4
  store ptr %this, ptr %this.addr, align 8
  %this1 = load ptr, ptr %this.addr, align 8
  %blob = getelementptr inbounds %"class.Assimp::ExporterPimpl", ptr %this1, i32 0, i32 0
  %0 = load ptr, ptr %blob, align 8
  %isnull = icmp eq ptr %0, null
  br i1 %isnull, label %delete.end, label %delete.notnull

delete.notnull:                                   ; preds = %entry
  call void @_ZN16aiExportDataBlobD2Ev(ptr noundef nonnull align 8 dereferenceable(1056) %0) #16
  call void @_ZdlPv(ptr noundef %0) #17
  br label %delete.end

delete.end:                                       ; preds = %delete.notnull, %entry
  store i32 0, ptr %a, align 4
  br label %for.cond

for.cond:                                         ; preds = %for.inc, %delete.end
  %1 = load i32, ptr %a, align 4
  %conv = zext i32 %1 to i64
  %mPostProcessingSteps = getelementptr inbounds %"class.Assimp::ExporterPimpl", ptr %this1, i32 0, i32 5
  %call = call noundef i64 @_ZNKSt6vectorIPN6Assimp11BaseProcessESaIS2_EE4sizeEv(ptr noundef nonnull align 8 dereferenceable(24) %mPostProcessingSteps) #16
  %cmp = icmp ult i64 %conv, %call
  br i1 %cmp, label %for.body, label %for.end

for.body:                                         ; preds = %for.cond
  %mPostProcessingSteps2 = getelementptr inbounds %"class.Assimp::ExporterPimpl", ptr %this1, i32 0, i32 5
  %2 = load i32, ptr %a, align 4
  %conv3 = zext i32 %2 to i64
  %call4 = call noundef nonnull align 8 dereferenceable(8) ptr @_ZNSt6vectorIPN6Assimp11BaseProcessESaIS2_EEixEm(ptr noundef nonnull align 8 dereferenceable(24) %mPostProcessingSteps2, i64 noundef %conv3) #16
  %3 = load ptr, ptr %call4, align 8
  %isnull5 = icmp eq ptr %3, null
  br i1 %isnull5, label %delete.end7, label %delete.notnull6

delete.notnull6:                                  ; preds = %for.body
  %vtable = load ptr, ptr %3, align 8
  %vfn = getelementptr inbounds ptr, ptr %vtable, i64 1
  %4 = load ptr, ptr %vfn, align 8
  call void %4(ptr noundef nonnull align 8 dereferenceable(24) %3) #16
  br label %delete.end7

delete.end7:                                      ; preds = %delete.notnull6, %for.body
  br label %for.inc

for.inc:                                          ; preds = %delete.end7
  %5 = load i32, ptr %a, align 4
  %inc = add i32 %5, 1
  store i32 %inc, ptr %a, align 4
  br label %for.cond, !llvm.loop !4

for.end:                                          ; preds = %for.cond
  %mProgressHandler = getelementptr inbounds %"class.Assimp::ExporterPimpl", ptr %this1, i32 0, i32 3
  %6 = load ptr, ptr %mProgressHandler, align 8
  %isnull8 = icmp eq ptr %6, null
  br i1 %isnull8, label %delete.end12, label %delete.notnull9

delete.notnull9:                                  ; preds = %for.end
  %vtable10 = load ptr, ptr %6, align 8
  %vfn11 = getelementptr inbounds ptr, ptr %vtable10, i64 1
  %7 = load ptr, ptr %vfn11, align 8
  call void %7(ptr noundef nonnull align 8 dereferenceable(8) %6) #16
  br label %delete.end12

delete.end12:                                     ; preds = %delete.notnull9, %for.end
  %mExporters = getelementptr inbounds %"class.Assimp::ExporterPimpl", ptr %this1, i32 0, i32 7
  call void @_ZNSt6vectorIN6Assimp8Exporter17ExportFormatEntryESaIS2_EED2Ev(ptr noundef nonnull align 8 dereferenceable(24) %mExporters) #16
  %mError = getelementptr inbounds %"class.Assimp::ExporterPimpl", ptr %this1, i32 0, i32 6
  call void @_ZNSt7__cxx1112basic_stringIcSt11char_traitsIcESaIcEED1Ev(ptr noundef nonnull align 8 dereferenceable(32) %mError) #16
  %mPostProcessingSteps13 = getelementptr inbounds %"class.Assimp::ExporterPimpl", ptr %this1, i32 0, i32 5
  call void @_ZNSt6vectorIPN6Assimp11BaseProcessESaIS2_EED2Ev(ptr noundef nonnull align 8 dereferenceable(24) %mPostProcessingSteps13) #16
  %mIOSystem = getelementptr inbounds %"class.Assimp::ExporterPimpl", ptr %this1, i32 0, i32 1
  call void @_ZNSt10shared_ptrIN6Assimp8IOSystemEED2Ev(ptr noundef nonnull align 8 dereferenceable(16) %mIOSystem) #16
  ret void
}

; Function Attrs: mustprogress uwtable
define void @_ZN6Assimp8Exporter12SetIOHandlerEPNS_8IOSystemE(ptr noundef nonnull align 8 dereferenceable(8) %this, ptr noundef %pIOHandler) #2 align 2 {
entry:
  %this.addr = alloca ptr, align 8
  %pIOHandler.addr = alloca ptr, align 8
  store ptr %this, ptr %this.addr, align 8
  store ptr %pIOHandler, ptr %pIOHandler.addr, align 8
  %this1 = load ptr, ptr %this.addr, align 8
  %0 = load ptr, ptr %pIOHandler.addr, align 8
  %tobool = icmp ne ptr %0, null
  %lnot = xor i1 %tobool, true
  %pimpl = getelementptr inbounds %"class.Assimp::Exporter", ptr %this1, i32 0, i32 0
  %1 = load ptr, ptr %pimpl, align 8
  %mIsDefaultIOHandler = getelementptr inbounds %"class.Assimp::ExporterPimpl", ptr %1, i32 0, i32 2
  %frombool = zext i1 %lnot to i8
  store i8 %frombool, ptr %mIsDefaultIOHandler, align 8
  %pimpl2 = getelementptr inbounds %"class.Assimp::Exporter", ptr %this1, i32 0, i32 0
  %2 = load ptr, ptr %pimpl2, align 8
  %mIOSystem = getelementptr inbounds %"class.Assimp::ExporterPimpl", ptr %2, i32 0, i32 1
  %3 = load ptr, ptr %pIOHandler.addr, align 8
  call void @_ZNSt12__shared_ptrIN6Assimp8IOSystemELN9__gnu_cxx12_Lock_policyE2EE5resetIS1_EENSt9enable_ifIXsr21__sp_is_constructibleIS1_T_EE5valueEvE4typeEPS7_(ptr noundef nonnull align 8 dereferenceable(16) %mIOSystem, ptr noundef %3)
  ret void
}

; Function Attrs: mustprogress uwtable
define linkonce_odr void @_ZNSt12__shared_ptrIN6Assimp8IOSystemELN9__gnu_cxx12_Lock_policyE2EE5resetIS1_EENSt9enable_ifIXsr21__sp_is_constructibleIS1_T_EE5valueEvE4typeEPS7_(ptr noundef nonnull align 8 dereferenceable(16) %this, ptr noundef %__p) #2 comdat align 2 {
entry:
  %this.addr = alloca ptr, align 8
  %__p.addr = alloca ptr, align 8
  %ref.tmp = alloca %"class.std::__shared_ptr", align 8
  store ptr %this, ptr %this.addr, align 8
  store ptr %__p, ptr %__p.addr, align 8
  %this1 = load ptr, ptr %this.addr, align 8
  br label %do.body

do.body:                                          ; preds = %entry
  br label %do.end

do.end:                                           ; preds = %do.body
  %0 = load ptr, ptr %__p.addr, align 8
  call void @_ZNSt12__shared_ptrIN6Assimp8IOSystemELN9__gnu_cxx12_Lock_policyE2EEC2IS1_vEEPT_(ptr noundef nonnull align 8 dereferenceable(16) %ref.tmp, ptr noundef %0)
  call void @_ZNSt12__shared_ptrIN6Assimp8IOSystemELN9__gnu_cxx12_Lock_policyE2EE4swapERS4_(ptr noundef nonnull align 8 dereferenceable(16) %ref.tmp, ptr noundef nonnull align 8 dereferenceable(16) %this1) #16
  call void @_ZNSt12__shared_ptrIN6Assimp8IOSystemELN9__gnu_cxx12_Lock_policyE2EED2Ev(ptr noundef nonnull align 8 dereferenceable(16) %ref.tmp) #16
  ret void
}

; Function Attrs: mustprogress nounwind uwtable
define noundef ptr @_ZNK6Assimp8Exporter12GetIOHandlerEv(ptr noundef nonnull align 8 dereferenceable(8) %this) #0 align 2 {
entry:
  %this.addr = alloca ptr, align 8
  store ptr %this, ptr %this.addr, align 8
  %this1 = load ptr, ptr %this.addr, align 8
  %pimpl = getelementptr inbounds %"class.Assimp::Exporter", ptr %this1, i32 0, i32 0
  %0 = load ptr, ptr %pimpl, align 8
  %mIOSystem = getelementptr inbounds %"class.Assimp::ExporterPimpl", ptr %0, i32 0, i32 1
  %call = call noundef ptr @_ZNKSt12__shared_ptrIN6Assimp8IOSystemELN9__gnu_cxx12_Lock_policyE2EE3getEv(ptr noundef nonnull align 8 dereferenceable(16) %mIOSystem) #16
  ret ptr %call
}

; Function Attrs: mustprogress nounwind uwtable
define linkonce_odr noundef ptr @_ZNKSt12__shared_ptrIN6Assimp8IOSystemELN9__gnu_cxx12_Lock_policyE2EE3getEv(ptr noundef nonnull align 8 dereferenceable(16) %this) #0 comdat align 2 {
entry:
  %this.addr = alloca ptr, align 8
  store ptr %this, ptr %this.addr, align 8
  %this1 = load ptr, ptr %this.addr, align 8
  %_M_ptr = getelementptr inbounds %"class.std::__shared_ptr", ptr %this1, i32 0, i32 0
  %0 = load ptr, ptr %_M_ptr, align 8
  ret ptr %0
}

; Function Attrs: mustprogress nounwind uwtable
define noundef zeroext i1 @_ZNK6Assimp8Exporter18IsDefaultIOHandlerEv(ptr noundef nonnull align 8 dereferenceable(8) %this) #0 align 2 {
entry:
  %this.addr = alloca ptr, align 8
  store ptr %this, ptr %this.addr, align 8
  %this1 = load ptr, ptr %this.addr, align 8
  %pimpl = getelementptr inbounds %"class.Assimp::Exporter", ptr %this1, i32 0, i32 0
  %0 = load ptr, ptr %pimpl, align 8
  %mIsDefaultIOHandler = getelementptr inbounds %"class.Assimp::ExporterPimpl", ptr %0, i32 0, i32 2
  %1 = load i8, ptr %mIsDefaultIOHandler, align 8
  %tobool = trunc i8 %1 to i1
  ret i1 %tobool
}

; Function Attrs: mustprogress uwtable
define void @_ZN6Assimp8Exporter18SetProgressHandlerEPNS_15ProgressHandlerE(ptr noundef nonnull align 8 dereferenceable(8) %this, ptr noundef %pHandler) #2 align 2 {
entry:
  %this.addr = alloca ptr, align 8
  %pHandler.addr = alloca ptr, align 8
  store ptr %this, ptr %this.addr, align 8
  store ptr %pHandler, ptr %pHandler.addr, align 8
  %this1 = load ptr, ptr %this.addr, align 8
  %0 = load ptr, ptr %pHandler.addr, align 8
  %cmp = icmp eq ptr null, %0
  br i1 %cmp, label %if.then, label %if.end

if.then:                                          ; preds = %entry
  %call = call noundef ptr @_ZN6Assimp6Intern22AllocateFromAssimpHeapnwEm(i64 noundef 8)
  call void @llvm.memset.p0.i64(ptr align 8 %call, i8 0, i64 8, i1 false)
  call void @_ZN6Assimp22DefaultProgressHandlerC2Ev(ptr noundef nonnull align 8 dereferenceable(8) %call) #16
  %pimpl = getelementptr inbounds %"class.Assimp::Exporter", ptr %this1, i32 0, i32 0
  %1 = load ptr, ptr %pimpl, align 8
  %mProgressHandler = getelementptr inbounds %"class.Assimp::ExporterPimpl", ptr %1, i32 0, i32 3
  store ptr %call, ptr %mProgressHandler, align 8
  %pimpl2 = getelementptr inbounds %"class.Assimp::Exporter", ptr %this1, i32 0, i32 0
  %2 = load ptr, ptr %pimpl2, align 8
  %mIsDefaultProgressHandler = getelementptr inbounds %"class.Assimp::ExporterPimpl", ptr %2, i32 0, i32 4
  store i8 1, ptr %mIsDefaultProgressHandler, align 8
  br label %return

if.end:                                           ; preds = %entry
  %pimpl3 = getelementptr inbounds %"class.Assimp::Exporter", ptr %this1, i32 0, i32 0
  %3 = load ptr, ptr %pimpl3, align 8
  %mProgressHandler4 = getelementptr inbounds %"class.Assimp::ExporterPimpl", ptr %3, i32 0, i32 3
  %4 = load ptr, ptr %mProgressHandler4, align 8
  %5 = load ptr, ptr %pHandler.addr, align 8
  %cmp5 = icmp eq ptr %4, %5
  br i1 %cmp5, label %if.then6, label %if.end7

if.then6:                                         ; preds = %if.end
  br label %return

if.end7:                                          ; preds = %if.end
  %pimpl8 = getelementptr inbounds %"class.Assimp::Exporter", ptr %this1, i32 0, i32 0
  %6 = load ptr, ptr %pimpl8, align 8
  %mProgressHandler9 = getelementptr inbounds %"class.Assimp::ExporterPimpl", ptr %6, i32 0, i32 3
  %7 = load ptr, ptr %mProgressHandler9, align 8
  %isnull = icmp eq ptr %7, null
  br i1 %isnull, label %delete.end, label %delete.notnull

delete.notnull:                                   ; preds = %if.end7
  %vtable = load ptr, ptr %7, align 8
  %vfn = getelementptr inbounds ptr, ptr %vtable, i64 1
  %8 = load ptr, ptr %vfn, align 8
  call void %8(ptr noundef nonnull align 8 dereferenceable(8) %7) #16
  br label %delete.end

delete.end:                                       ; preds = %delete.notnull, %if.end7
  %9 = load ptr, ptr %pHandler.addr, align 8
  %pimpl10 = getelementptr inbounds %"class.Assimp::Exporter", ptr %this1, i32 0, i32 0
  %10 = load ptr, ptr %pimpl10, align 8
  %mProgressHandler11 = getelementptr inbounds %"class.Assimp::ExporterPimpl", ptr %10, i32 0, i32 3
  store ptr %9, ptr %mProgressHandler11, align 8
  %pimpl12 = getelementptr inbounds %"class.Assimp::Exporter", ptr %this1, i32 0, i32 0
  %11 = load ptr, ptr %pimpl12, align 8
  %mIsDefaultProgressHandler13 = getelementptr inbounds %"class.Assimp::ExporterPimpl", ptr %11, i32 0, i32 4
  store i8 0, ptr %mIsDefaultProgressHandler13, align 8
  br label %return

return:                                           ; preds = %delete.end, %if.then6, %if.then
  ret void
}

; Function Attrs: mustprogress uwtable
define noundef ptr @_ZN6Assimp8Exporter12ExportToBlobEPK7aiScenePKcjPKNS_16ExportPropertiesE(ptr noundef nonnull align 8 dereferenceable(8) %this, ptr noundef %pScene, ptr noundef %pFormatId, i32 noundef %pPreprocessing, ptr noundef %pProperties) #2 align 2 personality ptr @__gxx_personality_v0 {
entry:
  %retval = alloca ptr, align 8
  %this.addr = alloca ptr, align 8
  %pScene.addr = alloca ptr, align 8
  %pFormatId.addr = alloca ptr, align 8
  %pPreprocessing.addr = alloca i32, align 4
  %pProperties.addr = alloca ptr, align 8
  %baseName = alloca %"class.std::__cxx11::basic_string", align 8
  %ref.tmp = alloca %"class.std::__cxx11::basic_string", align 8
  %ref.tmp7 = alloca %"class.std::allocator.0", align 1
  %cleanup.cond = alloca i1, align 1
  %exn.slot = alloca ptr, align 8
  %ehselector.slot = alloca i32, align 4
  %cleanup.cond8 = alloca i1, align 1
  %ref.tmp11 = alloca %"class.std::allocator.0", align 1
  %cleanup.cond12 = alloca i1, align 1
  %old = alloca %"class.std::shared_ptr", align 8
  %blobio = alloca ptr, align 8
  %ref.tmp37 = alloca %"class.std::shared_ptr", align 8
  %cleanup.dest.slot = alloca i32, align 4
  store ptr %this, ptr %this.addr, align 8
  store ptr %pScene, ptr %pScene.addr, align 8
  store ptr %pFormatId, ptr %pFormatId.addr, align 8
  store i32 %pPreprocessing, ptr %pPreprocessing.addr, align 4
  store ptr %pProperties, ptr %pProperties.addr, align 8
  %this1 = load ptr, ptr %this.addr, align 8
  %pimpl = getelementptr inbounds %"class.Assimp::Exporter", ptr %this1, i32 0, i32 0
  %0 = load ptr, ptr %pimpl, align 8
  %blob = getelementptr inbounds %"class.Assimp::ExporterPimpl", ptr %0, i32 0, i32 0
  %1 = load ptr, ptr %blob, align 8
  %tobool = icmp ne ptr %1, null
  br i1 %tobool, label %if.then, label %if.end

if.then:                                          ; preds = %entry
  %pimpl2 = getelementptr inbounds %"class.Assimp::Exporter", ptr %this1, i32 0, i32 0
  %2 = load ptr, ptr %pimpl2, align 8
  %blob3 = getelementptr inbounds %"class.Assimp::ExporterPimpl", ptr %2, i32 0, i32 0
  %3 = load ptr, ptr %blob3, align 8
  %isnull = icmp eq ptr %3, null
  br i1 %isnull, label %delete.end, label %delete.notnull

delete.notnull:                                   ; preds = %if.then
  call void @_ZN16aiExportDataBlobD2Ev(ptr noundef nonnull align 8 dereferenceable(1056) %3) #16
  call void @_ZdlPv(ptr noundef %3) #17
  br label %delete.end

delete.end:                                       ; preds = %delete.notnull, %if.then
  %pimpl4 = getelementptr inbounds %"class.Assimp::Exporter", ptr %this1, i32 0, i32 0
  %4 = load ptr, ptr %pimpl4, align 8
  %blob5 = getelementptr inbounds %"class.Assimp::ExporterPimpl", ptr %4, i32 0, i32 0
  store ptr null, ptr %blob5, align 8
  br label %if.end

if.end:                                           ; preds = %delete.end, %entry
  %5 = load ptr, ptr %pProperties.addr, align 8
  %tobool6 = icmp ne ptr %5, null
  store i1 false, ptr %cleanup.cond, align 1
  store i1 false, ptr %cleanup.cond8, align 1
  store i1 false, ptr %cleanup.cond12, align 1
  br i1 %tobool6, label %cond.true, label %cond.false

cond.true:                                        ; preds = %if.end
  %6 = load ptr, ptr %pProperties.addr, align 8
  call void @_ZNSaIcEC1Ev(ptr noundef nonnull align 1 dereferenceable(1) %ref.tmp7) #16
  store i1 true, ptr %cleanup.cond, align 1
  invoke void @_ZNSt7__cxx1112basic_stringIcSt11char_traitsIcESaIcEEC2IS3_EEPKcRKS3_(ptr noundef nonnull align 8 dereferenceable(32) %ref.tmp, ptr noundef @.str.1, ptr noundef nonnull align 1 dereferenceable(1) %ref.tmp7)
          to label %invoke.cont unwind label %lpad

invoke.cont:                                      ; preds = %cond.true
  store i1 true, ptr %cleanup.cond8, align 1
  invoke void @_ZNK6Assimp16ExportProperties17GetPropertyStringEPKcRKNSt7__cxx1112basic_stringIcSt11char_traitsIcESaIcEEE(ptr sret(%"class.std::__cxx11::basic_string") align 8 %baseName, ptr noundef nonnull align 8 dereferenceable(240) %6, ptr noundef @.str, ptr noundef nonnull align 8 dereferenceable(32) %ref.tmp)
          to label %invoke.cont10 unwind label %lpad9

invoke.cont10:                                    ; preds = %invoke.cont
  br label %cond.end

cond.false:                                       ; preds = %if.end
  call void @_ZNSaIcEC1Ev(ptr noundef nonnull align 1 dereferenceable(1) %ref.tmp11) #16
  store i1 true, ptr %cleanup.cond12, align 1
  invoke void @_ZNSt7__cxx1112basic_stringIcSt11char_traitsIcESaIcEEC2IS3_EEPKcRKS3_(ptr noundef nonnull align 8 dereferenceable(32) %baseName, ptr noundef @.str.1, ptr noundef nonnull align 1 dereferenceable(1) %ref.tmp11)
          to label %invoke.cont14 unwind label %lpad13

invoke.cont14:                                    ; preds = %cond.false
  br label %cond.end

cond.end:                                         ; preds = %invoke.cont14, %invoke.cont10
  %cleanup.is_active = load i1, ptr %cleanup.cond12, align 1
  br i1 %cleanup.is_active, label %cleanup.action, label %cleanup.done

cleanup.action:                                   ; preds = %cond.end
  call void @_ZNSaIcED1Ev(ptr noundef nonnull align 1 dereferenceable(1) %ref.tmp11) #16
  br label %cleanup.done

cleanup.done:                                     ; preds = %cleanup.action, %cond.end
  %cleanup.is_active18 = load i1, ptr %cleanup.cond8, align 1
  br i1 %cleanup.is_active18, label %cleanup.action19, label %cleanup.done20

cleanup.action19:                                 ; preds = %cleanup.done
  call void @_ZNSt7__cxx1112basic_stringIcSt11char_traitsIcESaIcEED1Ev(ptr noundef nonnull align 8 dereferenceable(32) %ref.tmp) #16
  br label %cleanup.done20

cleanup.done20:                                   ; preds = %cleanup.action19, %cleanup.done
  %cleanup.is_active24 = load i1, ptr %cleanup.cond, align 1
  br i1 %cleanup.is_active24, label %cleanup.action25, label %cleanup.done26

cleanup.action25:                                 ; preds = %cleanup.done20
  call void @_ZNSaIcED1Ev(ptr noundef nonnull align 1 dereferenceable(1) %ref.tmp7) #16
  br label %cleanup.done26

cleanup.done26:                                   ; preds = %cleanup.action25, %cleanup.done20
  %pimpl31 = getelementptr inbounds %"class.Assimp::Exporter", ptr %this1, i32 0, i32 0
  %7 = load ptr, ptr %pimpl31, align 8
  %mIOSystem = getelementptr inbounds %"class.Assimp::ExporterPimpl", ptr %7, i32 0, i32 1
  call void @_ZNSt10shared_ptrIN6Assimp8IOSystemEEC2ERKS2_(ptr noundef nonnull align 8 dereferenceable(16) %old, ptr noundef nonnull align 8 dereferenceable(16) %mIOSystem) #16
  %call = invoke noundef ptr @_ZN6Assimp6Intern22AllocateFromAssimpHeapnwEm(i64 noundef 136)
          to label %invoke.cont33 unwind label %lpad32

invoke.cont33:                                    ; preds = %cleanup.done26
  invoke void @_ZN6Assimp12BlobIOSystemC2ERKNSt7__cxx1112basic_stringIcSt11char_traitsIcESaIcEEE(ptr noundef nonnull align 8 dereferenceable(136) %call, ptr noundef nonnull align 8 dereferenceable(32) %baseName)
          to label %invoke.cont35 unwind label %lpad34

invoke.cont35:                                    ; preds = %invoke.cont33
  store ptr %call, ptr %blobio, align 8
  %8 = load ptr, ptr %blobio, align 8
  invoke void @_ZNSt10shared_ptrIN6Assimp8IOSystemEEC2INS0_12BlobIOSystemEvEEPT_(ptr noundef nonnull align 8 dereferenceable(16) %ref.tmp37, ptr noundef %8)
          to label %invoke.cont38 unwind label %lpad32

invoke.cont38:                                    ; preds = %invoke.cont35
  %pimpl39 = getelementptr inbounds %"class.Assimp::Exporter", ptr %this1, i32 0, i32 0
  %9 = load ptr, ptr %pimpl39, align 8
  %mIOSystem40 = getelementptr inbounds %"class.Assimp::ExporterPimpl", ptr %9, i32 0, i32 1
  %call41 = call noundef nonnull align 8 dereferenceable(16) ptr @_ZNSt10shared_ptrIN6Assimp8IOSystemEEaSEOS2_(ptr noundef nonnull align 8 dereferenceable(16) %mIOSystem40, ptr noundef nonnull align 8 dereferenceable(16) %ref.tmp37) #16
  call void @_ZNSt10shared_ptrIN6Assimp8IOSystemEED2Ev(ptr noundef nonnull align 8 dereferenceable(16) %ref.tmp37) #16
  %10 = load ptr, ptr %pScene.addr, align 8
  %11 = load ptr, ptr %pFormatId.addr, align 8
  %12 = load ptr, ptr %blobio, align 8
  %call43 = invoke noundef ptr @_ZNK6Assimp12BlobIOSystem16GetMagicFileNameEv(ptr noundef nonnull align 8 dereferenceable(136) %12)
          to label %invoke.cont42 unwind label %lpad32

invoke.cont42:                                    ; preds = %invoke.cont38
  %13 = load i32, ptr %pPreprocessing.addr, align 4
  %14 = load ptr, ptr %pProperties.addr, align 8
  %call45 = invoke noundef i32 @_ZN6Assimp8Exporter6ExportEPK7aiScenePKcS5_jPKNS_16ExportPropertiesE(ptr noundef nonnull align 8 dereferenceable(8) %this1, ptr noundef %10, ptr noundef %11, ptr noundef %call43, i32 noundef %13, ptr noundef %14)
          to label %invoke.cont44 unwind label %lpad32

invoke.cont44:                                    ; preds = %invoke.cont42
  %cmp = icmp ne i32 0, %call45
  br i1 %cmp, label %if.then46, label %if.end50

if.then46:                                        ; preds = %invoke.cont44
  %pimpl47 = getelementptr inbounds %"class.Assimp::Exporter", ptr %this1, i32 0, i32 0
  %15 = load ptr, ptr %pimpl47, align 8
  %mIOSystem48 = getelementptr inbounds %"class.Assimp::ExporterPimpl", ptr %15, i32 0, i32 1
  %call49 = call noundef nonnull align 8 dereferenceable(16) ptr @_ZNSt10shared_ptrIN6Assimp8IOSystemEEaSERKS2_(ptr noundef nonnull align 8 dereferenceable(16) %mIOSystem48, ptr noundef nonnull align 8 dereferenceable(16) %old) #16
  store ptr null, ptr %retval, align 8
  store i32 1, ptr %cleanup.dest.slot, align 4
  br label %cleanup

lpad:                                             ; preds = %cond.true
  %16 = landingpad { ptr, i32 }
          cleanup
  %17 = extractvalue { ptr, i32 } %16, 0
  store ptr %17, ptr %exn.slot, align 8
  %18 = extractvalue { ptr, i32 } %16, 1
  store i32 %18, ptr %ehselector.slot, align 4
  br label %ehcleanup27

lpad9:                                            ; preds = %invoke.cont
  %19 = landingpad { ptr, i32 }
          cleanup
  %20 = extractvalue { ptr, i32 } %19, 0
  store ptr %20, ptr %exn.slot, align 8
  %21 = extractvalue { ptr, i32 } %19, 1
  store i32 %21, ptr %ehselector.slot, align 4
  br label %ehcleanup

lpad13:                                           ; preds = %cond.false
  %22 = landingpad { ptr, i32 }
          cleanup
  %23 = extractvalue { ptr, i32 } %22, 0
  store ptr %23, ptr %exn.slot, align 8
  %24 = extractvalue { ptr, i32 } %22, 1
  store i32 %24, ptr %ehselector.slot, align 4
  %cleanup.is_active15 = load i1, ptr %cleanup.cond12, align 1
  br i1 %cleanup.is_active15, label %cleanup.action16, label %cleanup.done17

cleanup.action16:                                 ; preds = %lpad13
  call void @_ZNSaIcED1Ev(ptr noundef nonnull align 1 dereferenceable(1) %ref.tmp11) #16
  br label %cleanup.done17

cleanup.done17:                                   ; preds = %cleanup.action16, %lpad13
  br label %ehcleanup

ehcleanup:                                        ; preds = %cleanup.done17, %lpad9
  %cleanup.is_active21 = load i1, ptr %cleanup.cond8, align 1
  br i1 %cleanup.is_active21, label %cleanup.action22, label %cleanup.done23

cleanup.action22:                                 ; preds = %ehcleanup
  call void @_ZNSt7__cxx1112basic_stringIcSt11char_traitsIcESaIcEED1Ev(ptr noundef nonnull align 8 dereferenceable(32) %ref.tmp) #16
  br label %cleanup.done23

cleanup.done23:                                   ; preds = %cleanup.action22, %ehcleanup
  br label %ehcleanup27

ehcleanup27:                                      ; preds = %cleanup.done23, %lpad
  %cleanup.is_active28 = load i1, ptr %cleanup.cond, align 1
  br i1 %cleanup.is_active28, label %cleanup.action29, label %cleanup.done30

cleanup.action29:                                 ; preds = %ehcleanup27
  call void @_ZNSaIcED1Ev(ptr noundef nonnull align 1 dereferenceable(1) %ref.tmp7) #16
  br label %cleanup.done30

cleanup.done30:                                   ; preds = %cleanup.action29, %ehcleanup27
  br label %eh.resume

lpad32:                                           ; preds = %if.end50, %invoke.cont42, %invoke.cont38, %invoke.cont35, %cleanup.done26
  %25 = landingpad { ptr, i32 }
          cleanup
  %26 = extractvalue { ptr, i32 } %25, 0
  store ptr %26, ptr %exn.slot, align 8
  %27 = extractvalue { ptr, i32 } %25, 1
  store i32 %27, ptr %ehselector.slot, align 4
  br label %ehcleanup60

lpad34:                                           ; preds = %invoke.cont33
  %28 = landingpad { ptr, i32 }
          cleanup
  %29 = extractvalue { ptr, i32 } %28, 0
  store ptr %29, ptr %exn.slot, align 8
  %30 = extractvalue { ptr, i32 } %28, 1
  store i32 %30, ptr %ehselector.slot, align 4
  call void @_ZN6Assimp6Intern22AllocateFromAssimpHeapdlEPv(ptr noundef %call) #16
  br label %ehcleanup60

if.end50:                                         ; preds = %invoke.cont44
  %31 = load ptr, ptr %blobio, align 8
  %call52 = invoke noundef ptr @_ZN6Assimp12BlobIOSystem12GetBlobChainEv(ptr noundef nonnull align 8 dereferenceable(136) %31)
          to label %invoke.cont51 unwind label %lpad32

invoke.cont51:                                    ; preds = %if.end50
  %pimpl53 = getelementptr inbounds %"class.Assimp::Exporter", ptr %this1, i32 0, i32 0
  %32 = load ptr, ptr %pimpl53, align 8
  %blob54 = getelementptr inbounds %"class.Assimp::ExporterPimpl", ptr %32, i32 0, i32 0
  store ptr %call52, ptr %blob54, align 8
  %pimpl55 = getelementptr inbounds %"class.Assimp::Exporter", ptr %this1, i32 0, i32 0
  %33 = load ptr, ptr %pimpl55, align 8
  %mIOSystem56 = getelementptr inbounds %"class.Assimp::ExporterPimpl", ptr %33, i32 0, i32 1
  %call57 = call noundef nonnull align 8 dereferenceable(16) ptr @_ZNSt10shared_ptrIN6Assimp8IOSystemEEaSERKS2_(ptr noundef nonnull align 8 dereferenceable(16) %mIOSystem56, ptr noundef nonnull align 8 dereferenceable(16) %old) #16
  %pimpl58 = getelementptr inbounds %"class.Assimp::Exporter", ptr %this1, i32 0, i32 0
  %34 = load ptr, ptr %pimpl58, align 8
  %blob59 = getelementptr inbounds %"class.Assimp::ExporterPimpl", ptr %34, i32 0, i32 0
  %35 = load ptr, ptr %blob59, align 8
  store ptr %35, ptr %retval, align 8
  store i32 1, ptr %cleanup.dest.slot, align 4
  br label %cleanup

cleanup:                                          ; preds = %invoke.cont51, %if.then46
  call void @_ZNSt10shared_ptrIN6Assimp8IOSystemEED2Ev(ptr noundef nonnull align 8 dereferenceable(16) %old) #16
  call void @_ZNSt7__cxx1112basic_stringIcSt11char_traitsIcESaIcEED1Ev(ptr noundef nonnull align 8 dereferenceable(32) %baseName) #16
  %36 = load ptr, ptr %retval, align 8
  ret ptr %36

ehcleanup60:                                      ; preds = %lpad34, %lpad32
  call void @_ZNSt10shared_ptrIN6Assimp8IOSystemEED2Ev(ptr noundef nonnull align 8 dereferenceable(16) %old) #16
  call void @_ZNSt7__cxx1112basic_stringIcSt11char_traitsIcESaIcEED1Ev(ptr noundef nonnull align 8 dereferenceable(32) %baseName) #16
  br label %eh.resume

eh.resume:                                        ; preds = %ehcleanup60, %cleanup.done30
  %exn = load ptr, ptr %exn.slot, align 8
  %sel = load i32, ptr %ehselector.slot, align 4
  %lpad.val = insertvalue { ptr, i32 } poison, ptr %exn, 0
  %lpad.val63 = insertvalue { ptr, i32 } %lpad.val, i32 %sel, 1
  resume { ptr, i32 } %lpad.val63
}

; Function Attrs: mustprogress nounwind uwtable
define linkonce_odr hidden void @_ZN16aiExportDataBlobD2Ev(ptr noundef nonnull align 8 dereferenceable(1056) %this) unnamed_addr #0 comdat align 2 {
entry:
  %this.addr = alloca ptr, align 8
  store ptr %this, ptr %this.addr, align 8
  %this1 = load ptr, ptr %this.addr, align 8
  %data = getelementptr inbounds %struct.aiExportDataBlob, ptr %this1, i32 0, i32 1
  %0 = load ptr, ptr %data, align 8
  %isnull = icmp eq ptr %0, null
  br i1 %isnull, label %delete.end, label %delete.notnull

delete.notnull:                                   ; preds = %entry
  call void @_ZdaPv(ptr noundef %0) #17
  br label %delete.end

delete.end:                                       ; preds = %delete.notnull, %entry
  %next = getelementptr inbounds %struct.aiExportDataBlob, ptr %this1, i32 0, i32 3
  %1 = load ptr, ptr %next, align 8
  %isnull2 = icmp eq ptr %1, null
  br i1 %isnull2, label %delete.end4, label %delete.notnull3

delete.notnull3:                                  ; preds = %delete.end
  call void @_ZN16aiExportDataBlobD2Ev(ptr noundef nonnull align 8 dereferenceable(1056) %1) #16
  call void @_ZdlPv(ptr noundef %1) #17
  br label %delete.end4

delete.end4:                                      ; preds = %delete.notnull3, %delete.end
  ret void
}

; Function Attrs: mustprogress uwtable
define void @_ZNK6Assimp16ExportProperties17GetPropertyStringEPKcRKNSt7__cxx1112basic_stringIcSt11char_traitsIcESaIcEEE(ptr noalias sret(%"class.std::__cxx11::basic_string") align 8 %agg.result, ptr noundef nonnull align 8 dereferenceable(240) %this, ptr noundef %szName, ptr noundef nonnull align 8 dereferenceable(32) %iErrorReturn) #2 align 2 {
entry:
  %result.ptr = alloca ptr, align 8
  %this.addr = alloca ptr, align 8
  %szName.addr = alloca ptr, align 8
  %iErrorReturn.addr = alloca ptr, align 8
  store ptr %agg.result, ptr %result.ptr, align 8
  store ptr %this, ptr %this.addr, align 8
  store ptr %szName, ptr %szName.addr, align 8
  store ptr %iErrorReturn, ptr %iErrorReturn.addr, align 8
  %this1 = load ptr, ptr %this.addr, align 8
  %mStringProperties = getelementptr inbounds %"class.Assimp::ExportProperties", ptr %this1, i32 0, i32 2
  %0 = load ptr, ptr %szName.addr, align 8
  %1 = load ptr, ptr %iErrorReturn.addr, align 8
  %call = call noundef nonnull align 8 dereferenceable(32) ptr @_Z18GetGenericPropertyINSt7__cxx1112basic_stringIcSt11char_traitsIcESaIcEEEERKT_RKSt3mapIjS6_St4lessIjESaISt4pairIKjS6_EEEPKcS8_(ptr noundef nonnull align 8 dereferenceable(48) %mStringProperties, ptr noundef %0, ptr noundef nonnull align 8 dereferenceable(32) %1)
  call void @_ZNSt7__cxx1112basic_stringIcSt11char_traitsIcESaIcEEC1ERKS4_(ptr noundef nonnull align 8 dereferenceable(32) %agg.result, ptr noundef nonnull align 8 dereferenceable(32) %call)
  ret void
}

; Function Attrs: nounwind
declare void @_ZNSaIcEC1Ev(ptr noundef nonnull align 1 dereferenceable(1)) unnamed_addr #5

; Function Attrs: mustprogress uwtable
define linkonce_odr void @_ZNSt7__cxx1112basic_stringIcSt11char_traitsIcESaIcEEC2IS3_EEPKcRKS3_(ptr noundef nonnull align 8 dereferenceable(32) %this, ptr noundef %__s, ptr noundef nonnull align 1 dereferenceable(1) %__a) unnamed_addr #2 comdat align 2 personality ptr @__gxx_personality_v0 {
entry:
  %this.addr = alloca ptr, align 8
  %__s.addr = alloca ptr, align 8
  %__a.addr = alloca ptr, align 8
  %exn.slot = alloca ptr, align 8
  %ehselector.slot = alloca i32, align 4
  %__end = alloca ptr, align 8
  store ptr %this, ptr %this.addr, align 8
  store ptr %__s, ptr %__s.addr, align 8
  store ptr %__a, ptr %__a.addr, align 8
  %this1 = load ptr, ptr %this.addr, align 8
  %_M_dataplus = getelementptr inbounds %"class.std::__cxx11::basic_string", ptr %this1, i32 0, i32 0
  %call = call noundef ptr @_ZNSt7__cxx1112basic_stringIcSt11char_traitsIcESaIcEE13_M_local_dataEv(ptr noundef nonnull align 8 dereferenceable(32) %this1)
  %0 = load ptr, ptr %__a.addr, align 8
  call void @_ZNSt7__cxx1112basic_stringIcSt11char_traitsIcESaIcEE12_Alloc_hiderC1EPcRKS3_(ptr noundef nonnull align 8 dereferenceable(8) %_M_dataplus, ptr noundef %call, ptr noundef nonnull align 1 dereferenceable(1) %0)
  %1 = load ptr, ptr %__s.addr, align 8
  %cmp = icmp eq ptr %1, null
  br i1 %cmp, label %if.then, label %if.end

if.then:                                          ; preds = %entry
  invoke void @_ZSt19__throw_logic_errorPKc(ptr noundef @.str.55) #19
          to label %invoke.cont unwind label %lpad

invoke.cont:                                      ; preds = %if.then
  unreachable

lpad:                                             ; preds = %invoke.cont2, %if.end, %if.then
  %2 = landingpad { ptr, i32 }
          cleanup
  %3 = extractvalue { ptr, i32 } %2, 0
  store ptr %3, ptr %exn.slot, align 8
  %4 = extractvalue { ptr, i32 } %2, 1
  store i32 %4, ptr %ehselector.slot, align 4
  call void @_ZNSt7__cxx1112basic_stringIcSt11char_traitsIcESaIcEE12_Alloc_hiderD2Ev(ptr noundef nonnull align 8 dereferenceable(8) %_M_dataplus) #16
  br label %eh.resume

if.end:                                           ; preds = %entry
  %5 = load ptr, ptr %__s.addr, align 8
  %6 = load ptr, ptr %__s.addr, align 8
  %call3 = invoke noundef i64 @_ZNSt11char_traitsIcE6lengthEPKc(ptr noundef %6)
          to label %invoke.cont2 unwind label %lpad

invoke.cont2:                                     ; preds = %if.end
  %add.ptr = getelementptr inbounds i8, ptr %5, i64 %call3
  store ptr %add.ptr, ptr %__end, align 8
  %7 = load ptr, ptr %__s.addr, align 8
  %8 = load ptr, ptr %__end, align 8
  invoke void @_ZNSt7__cxx1112basic_stringIcSt11char_traitsIcESaIcEE12_M_constructIPKcEEvT_S8_St20forward_iterator_tag(ptr noundef nonnull align 8 dereferenceable(32) %this1, ptr noundef %7, ptr noundef %8)
          to label %invoke.cont4 unwind label %lpad

invoke.cont4:                                     ; preds = %invoke.cont2
  ret void

eh.resume:                                        ; preds = %lpad
  %exn = load ptr, ptr %exn.slot, align 8
  %sel = load i32, ptr %ehselector.slot, align 4
  %lpad.val = insertvalue { ptr, i32 } poison, ptr %exn, 0
  %lpad.val5 = insertvalue { ptr, i32 } %lpad.val, i32 %sel, 1
  resume { ptr, i32 } %lpad.val5
}

; Function Attrs: nounwind
declare void @_ZNSaIcED1Ev(ptr noundef nonnull align 1 dereferenceable(1)) unnamed_addr #5

; Function Attrs: mustprogress nounwind uwtable
define linkonce_odr void @_ZNSt10shared_ptrIN6Assimp8IOSystemEEC2ERKS2_(ptr noundef nonnull align 8 dereferenceable(16) %this, ptr noundef nonnull align 8 dereferenceable(16) %0) unnamed_addr #0 comdat align 2 {
entry:
  %this.addr = alloca ptr, align 8
  %.addr = alloca ptr, align 8
  store ptr %this, ptr %this.addr, align 8
  store ptr %0, ptr %.addr, align 8
  %this1 = load ptr, ptr %this.addr, align 8
  %1 = load ptr, ptr %.addr, align 8
  call void @_ZNSt12__shared_ptrIN6Assimp8IOSystemELN9__gnu_cxx12_Lock_policyE2EEC2ERKS4_(ptr noundef nonnull align 8 dereferenceable(16) %this1, ptr noundef nonnull align 8 dereferenceable(16) %1) #16
  ret void
}

; Function Attrs: mustprogress uwtable
define linkonce_odr hidden void @_ZN6Assimp12BlobIOSystemC2ERKNSt7__cxx1112basic_stringIcSt11char_traitsIcESaIcEEE(ptr noundef nonnull align 8 dereferenceable(136) %this, ptr noundef nonnull align 8 dereferenceable(32) %baseName) unnamed_addr #2 comdat align 2 personality ptr @__gxx_personality_v0 {
entry:
  %this.addr = alloca ptr, align 8
  %baseName.addr = alloca ptr, align 8
  %exn.slot = alloca ptr, align 8
  %ehselector.slot = alloca i32, align 4
  store ptr %this, ptr %this.addr, align 8
  store ptr %baseName, ptr %baseName.addr, align 8
  %this1 = load ptr, ptr %this.addr, align 8
  call void @_ZN6Assimp8IOSystemC2Ev(ptr noundef nonnull align 8 dereferenceable(32) %this1) #16
  store ptr getelementptr inbounds ({ [16 x ptr] }, ptr @_ZTVN6Assimp12BlobIOSystemE, i32 0, inrange i32 0, i32 2), ptr %this1, align 8
  %baseName2 = getelementptr inbounds %"class.Assimp::BlobIOSystem", ptr %this1, i32 0, i32 1
  %0 = load ptr, ptr %baseName.addr, align 8
  invoke void @_ZNSt7__cxx1112basic_stringIcSt11char_traitsIcESaIcEEC1ERKS4_(ptr noundef nonnull align 8 dereferenceable(32) %baseName2, ptr noundef nonnull align 8 dereferenceable(32) %0)
          to label %invoke.cont unwind label %lpad

invoke.cont:                                      ; preds = %entry
  %created = getelementptr inbounds %"class.Assimp::BlobIOSystem", ptr %this1, i32 0, i32 2
  call void @_ZNSt3setINSt7__cxx1112basic_stringIcSt11char_traitsIcESaIcEEESt4lessIS5_ESaIS5_EEC2Ev(ptr noundef nonnull align 8 dereferenceable(48) %created) #16
  %blobs = getelementptr inbounds %"class.Assimp::BlobIOSystem", ptr %this1, i32 0, i32 3
  call void @_ZNSt6vectorISt4pairINSt7__cxx1112basic_stringIcSt11char_traitsIcESaIcEEEP16aiExportDataBlobESaIS9_EEC2Ev(ptr noundef nonnull align 8 dereferenceable(24) %blobs) #16
  ret void

lpad:                                             ; preds = %entry
  %1 = landingpad { ptr, i32 }
          cleanup
  %2 = extractvalue { ptr, i32 } %1, 0
  store ptr %2, ptr %exn.slot, align 8
  %3 = extractvalue { ptr, i32 } %1, 1
  store i32 %3, ptr %ehselector.slot, align 4
  call void @_ZN6Assimp8IOSystemD2Ev(ptr noundef nonnull align 8 dereferenceable(32) %this1) #16
  br label %eh.resume

eh.resume:                                        ; preds = %lpad
  %exn = load ptr, ptr %exn.slot, align 8
  %sel = load i32, ptr %ehselector.slot, align 4
  %lpad.val = insertvalue { ptr, i32 } poison, ptr %exn, 0
  %lpad.val3 = insertvalue { ptr, i32 } %lpad.val, i32 %sel, 1
  resume { ptr, i32 } %lpad.val3
}

; Function Attrs: mustprogress uwtable
define linkonce_odr hidden void @_ZNSt10shared_ptrIN6Assimp8IOSystemEEC2INS0_12BlobIOSystemEvEEPT_(ptr noundef nonnull align 8 dereferenceable(16) %this, ptr noundef %__p) unnamed_addr #2 comdat align 2 {
entry:
  %this.addr = alloca ptr, align 8
  %__p.addr = alloca ptr, align 8
  store ptr %this, ptr %this.addr, align 8
  store ptr %__p, ptr %__p.addr, align 8
  %this1 = load ptr, ptr %this.addr, align 8
  %0 = load ptr, ptr %__p.addr, align 8
  call void @_ZNSt12__shared_ptrIN6Assimp8IOSystemELN9__gnu_cxx12_Lock_policyE2EEC2INS0_12BlobIOSystemEvEEPT_(ptr noundef nonnull align 8 dereferenceable(16) %this1, ptr noundef %0)
  ret void
}

; Function Attrs: mustprogress nounwind uwtable
define linkonce_odr noundef nonnull align 8 dereferenceable(16) ptr @_ZNSt10shared_ptrIN6Assimp8IOSystemEEaSEOS2_(ptr noundef nonnull align 8 dereferenceable(16) %this, ptr noundef nonnull align 8 dereferenceable(16) %__r) #0 comdat align 2 {
entry:
  %this.addr = alloca ptr, align 8
  %__r.addr = alloca ptr, align 8
  store ptr %this, ptr %this.addr, align 8
  store ptr %__r, ptr %__r.addr, align 8
  %this1 = load ptr, ptr %this.addr, align 8
  %0 = load ptr, ptr %__r.addr, align 8
  %call = call noundef nonnull align 8 dereferenceable(16) ptr @_ZNSt12__shared_ptrIN6Assimp8IOSystemELN9__gnu_cxx12_Lock_policyE2EEaSEOS4_(ptr noundef nonnull align 8 dereferenceable(16) %this1, ptr noundef nonnull align 8 dereferenceable(16) %0) #16
  ret ptr %this1
}

; Function Attrs: mustprogress nounwind uwtable
define linkonce_odr void @_ZNSt10shared_ptrIN6Assimp8IOSystemEED2Ev(ptr noundef nonnull align 8 dereferenceable(16) %this) unnamed_addr #0 comdat align 2 {
entry:
  %this.addr = alloca ptr, align 8
  store ptr %this, ptr %this.addr, align 8
  %this1 = load ptr, ptr %this.addr, align 8
  call void @_ZNSt12__shared_ptrIN6Assimp8IOSystemELN9__gnu_cxx12_Lock_policyE2EED2Ev(ptr noundef nonnull align 8 dereferenceable(16) %this1) #16
  ret void
}

; Function Attrs: mustprogress uwtable
define noundef i32 @_ZN6Assimp8Exporter6ExportEPK7aiScenePKcS5_jPKNS_16ExportPropertiesE(ptr noundef nonnull align 8 dereferenceable(8) %this, ptr noundef %pScene, ptr noundef %pFormatId, ptr noundef %pPath, i32 noundef %pPreprocessing, ptr noundef %pProperties) #2 align 2 personality ptr @__gxx_personality_v0 {
entry:
  %retval = alloca i32, align 4
  %this.addr = alloca ptr, align 8
  %pScene.addr = alloca ptr, align 8
  %pFormatId.addr = alloca ptr, align 8
  %pPath.addr = alloca ptr, align 8
  %pPreprocessing.addr = alloca i32, align 4
  %pProperties.addr = alloca ptr, align 8
  %is_verbose_format = alloca i8, align 1
  %exn.slot = alloca ptr, align 8
  %ehselector.slot = alloca i32, align 4
  %i = alloca i64, align 8
  %exp = alloca ptr, align 8
  %scenecopy_tmp = alloca ptr, align 8
  %scenecopy = alloca %"class.std::unique_ptr", align 8
  %priv = alloca ptr, align 8
  %nonIdempotentSteps = alloca i32, align 4
  %pp = alloca i32, align 4
  %must_join_again = alloca i8, align 1
  %verbosify = alloca i8, align 1
  %a = alloca i32, align 4
  %p = alloca ptr, align 8
  %proc = alloca %"class.Assimp::MakeVerboseFormatProcess", align 8
  %step = alloca %"class.Assimp::FlipWindingOrderProcess", align 8
  %step80 = alloca %"class.Assimp::FlipUVsProcess", align 8
  %step89 = alloca %"class.Assimp::MakeLeftHandedProcess", align 8
  %exportPointCloud = alloca i8, align 1
  %a103 = alloca i32, align 4
  %p111 = alloca ptr, align 8
  %privOut = alloca ptr, align 8
  %proc162 = alloca %"class.Assimp::JoinVerticesProcess", align 8
  %emptyProperties = alloca %"class.Assimp::ExportProperties", align 8
  %pProp = alloca ptr, align 8
  %err = alloca ptr, align 8
  %ref.tmp = alloca %"class.std::__cxx11::basic_string", align 8
  %ref.tmp202 = alloca %"class.std::__cxx11::basic_string", align 8
  %ref.tmp203 = alloca %"class.std::allocator.0", align 1
  %ref.tmp215 = alloca %struct.ExceptionSwallower, align 1
  store ptr %this, ptr %this.addr, align 8
  store ptr %pScene, ptr %pScene.addr, align 8
  store ptr %pFormatId, ptr %pFormatId.addr, align 8
  store ptr %pPath, ptr %pPath.addr, align 8
  store i32 %pPreprocessing, ptr %pPreprocessing.addr, align 4
  store ptr %pProperties, ptr %pProperties.addr, align 8
  %this1 = load ptr, ptr %this.addr, align 8
  %0 = load ptr, ptr %pScene.addr, align 8
  %mFlags = getelementptr inbounds %struct.aiScene, ptr %0, i32 0, i32 0
  %1 = load i32, ptr %mFlags, align 8
  %and = and i32 %1, 8
  %tobool = icmp ne i32 %and, 0
  br i1 %tobool, label %lor.rhs, label %lor.end

lor.rhs:                                          ; preds = %entry
  %2 = load ptr, ptr %pScene.addr, align 8
  %call = invoke noundef zeroext i1 @_ZN6Assimp24MakeVerboseFormatProcess15IsVerboseFormatEPK7aiScene(ptr noundef %2)
          to label %invoke.cont unwind label %lpad

invoke.cont:                                      ; preds = %lor.rhs
  br label %lor.end

lor.end:                                          ; preds = %invoke.cont, %entry
  %3 = phi i1 [ true, %entry ], [ %call, %invoke.cont ]
  %frombool = zext i1 %3 to i8
  store i8 %frombool, ptr %is_verbose_format, align 1
  %pimpl = getelementptr inbounds %"class.Assimp::Exporter", ptr %this1, i32 0, i32 0
  %4 = load ptr, ptr %pimpl, align 8
  %mProgressHandler = getelementptr inbounds %"class.Assimp::ExporterPimpl", ptr %4, i32 0, i32 3
  %5 = load ptr, ptr %mProgressHandler, align 8
  %vtable = load ptr, ptr %5, align 8
  %vfn = getelementptr inbounds ptr, ptr %vtable, i64 5
  %6 = load ptr, ptr %vfn, align 8
  invoke void %6(ptr noundef nonnull align 8 dereferenceable(8) %5, i32 noundef 0, i32 noundef 4)
          to label %invoke.cont2 unwind label %lpad

invoke.cont2:                                     ; preds = %lor.end
  %pimpl3 = getelementptr inbounds %"class.Assimp::Exporter", ptr %this1, i32 0, i32 0
  %7 = load ptr, ptr %pimpl3, align 8
  %mError = getelementptr inbounds %"class.Assimp::ExporterPimpl", ptr %7, i32 0, i32 6
  %call5 = invoke noundef nonnull align 8 dereferenceable(32) ptr @_ZNSt7__cxx1112basic_stringIcSt11char_traitsIcESaIcEEaSEPKc(ptr noundef nonnull align 8 dereferenceable(32) %mError, ptr noundef @.str.2)
          to label %invoke.cont4 unwind label %lpad

invoke.cont4:                                     ; preds = %invoke.cont2
  store i64 0, ptr %i, align 8
  br label %for.cond

for.cond:                                         ; preds = %for.inc199, %invoke.cont4
  %8 = load i64, ptr %i, align 8
  %pimpl6 = getelementptr inbounds %"class.Assimp::Exporter", ptr %this1, i32 0, i32 0
  %9 = load ptr, ptr %pimpl6, align 8
  %mExporters = getelementptr inbounds %"class.Assimp::ExporterPimpl", ptr %9, i32 0, i32 7
  %call7 = call noundef i64 @_ZNKSt6vectorIN6Assimp8Exporter17ExportFormatEntryESaIS2_EE4sizeEv(ptr noundef nonnull align 8 dereferenceable(24) %mExporters) #16
  %cmp = icmp ult i64 %8, %call7
  br i1 %cmp, label %for.body, label %for.end201

for.body:                                         ; preds = %for.cond
  %pimpl8 = getelementptr inbounds %"class.Assimp::Exporter", ptr %this1, i32 0, i32 0
  %10 = load ptr, ptr %pimpl8, align 8
  %mExporters9 = getelementptr inbounds %"class.Assimp::ExporterPimpl", ptr %10, i32 0, i32 7
  %11 = load i64, ptr %i, align 8
  %call10 = call noundef nonnull align 8 dereferenceable(36) ptr @_ZNSt6vectorIN6Assimp8Exporter17ExportFormatEntryESaIS2_EEixEm(ptr noundef nonnull align 8 dereferenceable(24) %mExporters9, i64 noundef %11) #16
  store ptr %call10, ptr %exp, align 8
  %12 = load ptr, ptr %exp, align 8
  %mDescription = getelementptr inbounds %"struct.Assimp::Exporter::ExportFormatEntry", ptr %12, i32 0, i32 0
  %id = getelementptr inbounds %struct.aiExportFormatDesc, ptr %mDescription, i32 0, i32 0
  %13 = load ptr, ptr %id, align 8
  %14 = load ptr, ptr %pFormatId.addr, align 8
  %call11 = call i32 @strcmp(ptr noundef %13, ptr noundef %14) #20
  %tobool12 = icmp ne i32 %call11, 0
  br i1 %tobool12, label %if.end198, label %if.then

if.then:                                          ; preds = %for.body
  store ptr null, ptr %scenecopy_tmp, align 8
  %15 = load ptr, ptr %pScene.addr, align 8
  invoke void @_ZN6Assimp13SceneCombiner9CopySceneEPP7aiScenePKS1_b(ptr noundef %scenecopy_tmp, ptr noundef %15, i1 noundef zeroext true)
          to label %invoke.cont14 unwind label %lpad13

invoke.cont14:                                    ; preds = %if.then
  %pimpl15 = getelementptr inbounds %"class.Assimp::Exporter", ptr %this1, i32 0, i32 0
  %16 = load ptr, ptr %pimpl15, align 8
  %mProgressHandler16 = getelementptr inbounds %"class.Assimp::ExporterPimpl", ptr %16, i32 0, i32 3
  %17 = load ptr, ptr %mProgressHandler16, align 8
  %vtable17 = load ptr, ptr %17, align 8
  %vfn18 = getelementptr inbounds ptr, ptr %vtable17, i64 5
  %18 = load ptr, ptr %vfn18, align 8
  invoke void %18(ptr noundef nonnull align 8 dereferenceable(8) %17, i32 noundef 1, i32 noundef 4)
          to label %invoke.cont19 unwind label %lpad13

invoke.cont19:                                    ; preds = %invoke.cont14
  %19 = load ptr, ptr %scenecopy_tmp, align 8
  call void @_ZNSt10unique_ptrI7aiSceneSt14default_deleteIS0_EEC2IS2_vEEPS0_(ptr noundef nonnull align 8 dereferenceable(8) %scenecopy, ptr noundef %19) #16
  %20 = load ptr, ptr %pScene.addr, align 8
  %call22 = invoke noundef ptr @_ZN6Assimp9ScenePrivEPK7aiScene(ptr noundef %20)
          to label %invoke.cont21 unwind label %lpad20

invoke.cont21:                                    ; preds = %invoke.cont19
  store ptr %call22, ptr %priv, align 8
  store i32 25165828, ptr %nonIdempotentSteps, align 4
  %21 = load ptr, ptr %exp, align 8
  %mEnforcePP = getelementptr inbounds %"struct.Assimp::Exporter::ExportFormatEntry", ptr %21, i32 0, i32 2
  %22 = load i32, ptr %mEnforcePP, align 8
  %23 = load i32, ptr %pPreprocessing.addr, align 4
  %or = or i32 %22, %23
  %24 = load ptr, ptr %priv, align 8
  %tobool23 = icmp ne ptr %24, null
  br i1 %tobool23, label %land.lhs.true, label %cond.false

land.lhs.true:                                    ; preds = %invoke.cont21
  %25 = load ptr, ptr %priv, align 8
  %mIsCopy = getelementptr inbounds %"struct.Assimp::ScenePrivateData", ptr %25, i32 0, i32 2
  %26 = load i8, ptr %mIsCopy, align 4
  %tobool24 = trunc i8 %26 to i1
  br i1 %tobool24, label %cond.false, label %cond.true

cond.true:                                        ; preds = %land.lhs.true
  %27 = load ptr, ptr %priv, align 8
  %mPPStepsApplied = getelementptr inbounds %"struct.Assimp::ScenePrivateData", ptr %27, i32 0, i32 1
  %28 = load i32, ptr %mPPStepsApplied, align 8
  %and25 = and i32 %28, -25165829
  br label %cond.end

cond.false:                                       ; preds = %land.lhs.true, %invoke.cont21
  br label %cond.end

cond.end:                                         ; preds = %cond.false, %cond.true
  %cond = phi i32 [ %and25, %cond.true ], [ 0, %cond.false ]
  %not = xor i32 %cond, -1
  %and26 = and i32 %or, %not
  store i32 %and26, ptr %pp, align 4
  store i8 0, ptr %must_join_again, align 1
  %29 = load i8, ptr %is_verbose_format, align 1
  %tobool27 = trunc i8 %29 to i1
  br i1 %tobool27, label %if.end65, label %if.then28

if.then28:                                        ; preds = %cond.end
  store i8 0, ptr %verbosify, align 1
  store i32 0, ptr %a, align 4
  br label %for.cond29

for.cond29:                                       ; preds = %for.inc, %if.then28
  %30 = load i32, ptr %a, align 4
  %conv = zext i32 %30 to i64
  %pimpl30 = getelementptr inbounds %"class.Assimp::Exporter", ptr %this1, i32 0, i32 0
  %31 = load ptr, ptr %pimpl30, align 8
  %mPostProcessingSteps = getelementptr inbounds %"class.Assimp::ExporterPimpl", ptr %31, i32 0, i32 5
  %call31 = call noundef i64 @_ZNKSt6vectorIPN6Assimp11BaseProcessESaIS2_EE4sizeEv(ptr noundef nonnull align 8 dereferenceable(24) %mPostProcessingSteps) #16
  %cmp32 = icmp ult i64 %conv, %call31
  br i1 %cmp32, label %for.body33, label %for.end

for.body33:                                       ; preds = %for.cond29
  %pimpl34 = getelementptr inbounds %"class.Assimp::Exporter", ptr %this1, i32 0, i32 0
  %32 = load ptr, ptr %pimpl34, align 8
  %mPostProcessingSteps35 = getelementptr inbounds %"class.Assimp::ExporterPimpl", ptr %32, i32 0, i32 5
  %33 = load i32, ptr %a, align 4
  %conv36 = zext i32 %33 to i64
  %call37 = call noundef nonnull align 8 dereferenceable(8) ptr @_ZNSt6vectorIPN6Assimp11BaseProcessESaIS2_EEixEm(ptr noundef nonnull align 8 dereferenceable(24) %mPostProcessingSteps35, i64 noundef %conv36) #16
  %34 = load ptr, ptr %call37, align 8
  store ptr %34, ptr %p, align 8
  %35 = load ptr, ptr %p, align 8
  %36 = load i32, ptr %pp, align 4
  %vtable38 = load ptr, ptr %35, align 8
  %vfn39 = getelementptr inbounds ptr, ptr %vtable38, i64 2
  %37 = load ptr, ptr %vfn39, align 8
  %call41 = invoke noundef zeroext i1 %37(ptr noundef nonnull align 8 dereferenceable(24) %35, i32 noundef %36)
          to label %invoke.cont40 unwind label %lpad20

invoke.cont40:                                    ; preds = %for.body33
  br i1 %call41, label %land.lhs.true42, label %if.end

land.lhs.true42:                                  ; preds = %invoke.cont40
  %38 = load ptr, ptr %p, align 8
  %vtable43 = load ptr, ptr %38, align 8
  %vfn44 = getelementptr inbounds ptr, ptr %vtable43, i64 3
  %39 = load ptr, ptr %vfn44, align 8
  %call46 = invoke noundef zeroext i1 %39(ptr noundef nonnull align 8 dereferenceable(24) %38)
          to label %invoke.cont45 unwind label %lpad20

invoke.cont45:                                    ; preds = %land.lhs.true42
  br i1 %call46, label %if.then47, label %if.end

if.then47:                                        ; preds = %invoke.cont45
  store i8 1, ptr %verbosify, align 1
  br label %for.end

lpad:                                             ; preds = %invoke.cont193, %invoke.cont2, %lor.end, %lor.rhs
  %40 = landingpad { ptr, i32 }
          catch ptr null
  %41 = extractvalue { ptr, i32 } %40, 0
  store ptr %41, ptr %exn.slot, align 8
  %42 = extractvalue { ptr, i32 } %40, 1
  store i32 %42, ptr %ehselector.slot, align 4
  br label %catch213

lpad13:                                           ; preds = %invoke.cont14, %if.then
  %43 = landingpad { ptr, i32 }
          catch ptr @_ZTI17DeadlyExportError
          catch ptr null
  %44 = extractvalue { ptr, i32 } %43, 0
  store ptr %44, ptr %exn.slot, align 8
  %45 = extractvalue { ptr, i32 } %43, 1
  store i32 %45, ptr %ehselector.slot, align 4
  br label %catch.dispatch

lpad20:                                           ; preds = %if.end166, %if.end154, %for.end148, %if.end140, %for.body110, %if.then98, %if.end79, %if.end65, %invoke.cont53, %if.then52, %land.lhs.true42, %for.body33, %invoke.cont19
  %46 = landingpad { ptr, i32 }
          catch ptr @_ZTI17DeadlyExportError
          catch ptr null
  %47 = extractvalue { ptr, i32 } %46, 0
  store ptr %47, ptr %exn.slot, align 8
  %48 = extractvalue { ptr, i32 } %46, 1
  store i32 %48, ptr %ehselector.slot, align 4
  br label %ehcleanup

if.end:                                           ; preds = %invoke.cont45, %invoke.cont40
  br label %for.inc

for.inc:                                          ; preds = %if.end
  %49 = load i32, ptr %a, align 4
  %inc = add i32 %49, 1
  store i32 %inc, ptr %a, align 4
  br label %for.cond29, !llvm.loop !6

for.end:                                          ; preds = %if.then47, %for.cond29
  %50 = load i8, ptr %verbosify, align 1
  %tobool48 = trunc i8 %50 to i1
  br i1 %tobool48, label %if.then52, label %lor.lhs.false

lor.lhs.false:                                    ; preds = %for.end
  %51 = load ptr, ptr %exp, align 8
  %mEnforcePP49 = getelementptr inbounds %"struct.Assimp::Exporter::ExportFormatEntry", ptr %51, i32 0, i32 2
  %52 = load i32, ptr %mEnforcePP49, align 8
  %and50 = and i32 %52, 2
  %tobool51 = icmp ne i32 %and50, 0
  br i1 %tobool51, label %if.then52, label %if.end64

if.then52:                                        ; preds = %lor.lhs.false, %for.end
  %call54 = invoke noundef ptr @_ZN6Assimp13DefaultLogger3getEv()
          to label %invoke.cont53 unwind label %lpad20

invoke.cont53:                                    ; preds = %if.then52
  invoke void @_ZN6Assimp6Logger5debugEPKc(ptr noundef nonnull align 8 dereferenceable(12) %call54, ptr noundef @.str.3)
          to label %invoke.cont55 unwind label %lpad20

invoke.cont55:                                    ; preds = %invoke.cont53
  call void @_ZN6Assimp24MakeVerboseFormatProcessC2Ev(ptr noundef nonnull align 8 dereferenceable(24) %proc) #16
  %call56 = call noundef ptr @_ZNKSt10unique_ptrI7aiSceneSt14default_deleteIS0_EE3getEv(ptr noundef nonnull align 8 dereferenceable(8) %scenecopy) #16
  invoke void @_ZN6Assimp24MakeVerboseFormatProcess7ExecuteEP7aiScene(ptr noundef nonnull align 8 dereferenceable(24) %proc, ptr noundef %call56)
          to label %invoke.cont58 unwind label %lpad57

invoke.cont58:                                    ; preds = %invoke.cont55
  %53 = load ptr, ptr %exp, align 8
  %mEnforcePP59 = getelementptr inbounds %"struct.Assimp::Exporter::ExportFormatEntry", ptr %53, i32 0, i32 2
  %54 = load i32, ptr %mEnforcePP59, align 8
  %and60 = and i32 %54, 2
  %tobool61 = icmp ne i32 %and60, 0
  br i1 %tobool61, label %if.end63, label %if.then62

if.then62:                                        ; preds = %invoke.cont58
  store i8 1, ptr %must_join_again, align 1
  br label %if.end63

lpad57:                                           ; preds = %invoke.cont55
  %55 = landingpad { ptr, i32 }
          catch ptr @_ZTI17DeadlyExportError
          catch ptr null
  %56 = extractvalue { ptr, i32 } %55, 0
  store ptr %56, ptr %exn.slot, align 8
  %57 = extractvalue { ptr, i32 } %55, 1
  store i32 %57, ptr %ehselector.slot, align 4
  call void @_ZN6Assimp24MakeVerboseFormatProcessD2Ev(ptr noundef nonnull align 8 dereferenceable(24) %proc) #16
  br label %ehcleanup

if.end63:                                         ; preds = %if.then62, %invoke.cont58
  call void @_ZN6Assimp24MakeVerboseFormatProcessD2Ev(ptr noundef nonnull align 8 dereferenceable(24) %proc) #16
  br label %if.end64

if.end64:                                         ; preds = %if.end63, %lor.lhs.false
  br label %if.end65

if.end65:                                         ; preds = %if.end64, %cond.end
  %pimpl66 = getelementptr inbounds %"class.Assimp::Exporter", ptr %this1, i32 0, i32 0
  %58 = load ptr, ptr %pimpl66, align 8
  %mProgressHandler67 = getelementptr inbounds %"class.Assimp::ExporterPimpl", ptr %58, i32 0, i32 3
  %59 = load ptr, ptr %mProgressHandler67, align 8
  %vtable68 = load ptr, ptr %59, align 8
  %vfn69 = getelementptr inbounds ptr, ptr %vtable68, i64 5
  %60 = load ptr, ptr %vfn69, align 8
  invoke void %60(ptr noundef nonnull align 8 dereferenceable(8) %59, i32 noundef 2, i32 noundef 4)
          to label %invoke.cont70 unwind label %lpad20

invoke.cont70:                                    ; preds = %if.end65
  %61 = load i32, ptr %pp, align 4
  %tobool71 = icmp ne i32 %61, 0
  br i1 %tobool71, label %if.then72, label %if.end154

if.then72:                                        ; preds = %invoke.cont70
  call void @_ZN6Assimp23FlipWindingOrderProcessC2Ev(ptr noundef nonnull align 8 dereferenceable(24) %step) #16
  %62 = load i32, ptr %pp, align 4
  %call75 = invoke noundef zeroext i1 @_ZNK6Assimp23FlipWindingOrderProcess8IsActiveEj(ptr noundef nonnull align 8 dereferenceable(24) %step, i32 noundef %62)
          to label %invoke.cont74 unwind label %lpad73

invoke.cont74:                                    ; preds = %if.then72
  br i1 %call75, label %if.then76, label %if.end79

if.then76:                                        ; preds = %invoke.cont74
  %call77 = call noundef ptr @_ZNKSt10unique_ptrI7aiSceneSt14default_deleteIS0_EE3getEv(ptr noundef nonnull align 8 dereferenceable(8) %scenecopy) #16
  invoke void @_ZN6Assimp23FlipWindingOrderProcess7ExecuteEP7aiScene(ptr noundef nonnull align 8 dereferenceable(24) %step, ptr noundef %call77)
          to label %invoke.cont78 unwind label %lpad73

invoke.cont78:                                    ; preds = %if.then76
  br label %if.end79

lpad73:                                           ; preds = %if.then76, %if.then72
  %63 = landingpad { ptr, i32 }
          catch ptr @_ZTI17DeadlyExportError
          catch ptr null
  %64 = extractvalue { ptr, i32 } %63, 0
  store ptr %64, ptr %exn.slot, align 8
  %65 = extractvalue { ptr, i32 } %63, 1
  store i32 %65, ptr %ehselector.slot, align 4
  call void @_ZN6Assimp23FlipWindingOrderProcessD2Ev(ptr noundef nonnull align 8 dereferenceable(24) %step) #16
  br label %ehcleanup

if.end79:                                         ; preds = %invoke.cont78, %invoke.cont74
  call void @_ZN6Assimp23FlipWindingOrderProcessD2Ev(ptr noundef nonnull align 8 dereferenceable(24) %step) #16
  invoke void @_ZN6Assimp14FlipUVsProcessC1Ev(ptr noundef nonnull align 8 dereferenceable(24) %step80)
          to label %invoke.cont81 unwind label %lpad20

invoke.cont81:                                    ; preds = %if.end79
  %66 = load i32, ptr %pp, align 4
  %call84 = invoke noundef zeroext i1 @_ZNK6Assimp14FlipUVsProcess8IsActiveEj(ptr noundef nonnull align 8 dereferenceable(24) %step80, i32 noundef %66)
          to label %invoke.cont83 unwind label %lpad82

invoke.cont83:                                    ; preds = %invoke.cont81
  br i1 %call84, label %if.then85, label %if.end88

if.then85:                                        ; preds = %invoke.cont83
  %call86 = call noundef ptr @_ZNKSt10unique_ptrI7aiSceneSt14default_deleteIS0_EE3getEv(ptr noundef nonnull align 8 dereferenceable(8) %scenecopy) #16
  invoke void @_ZN6Assimp14FlipUVsProcess7ExecuteEP7aiScene(ptr noundef nonnull align 8 dereferenceable(24) %step80, ptr noundef %call86)
          to label %invoke.cont87 unwind label %lpad82

invoke.cont87:                                    ; preds = %if.then85
  br label %if.end88

lpad82:                                           ; preds = %if.then85, %invoke.cont81
  %67 = landingpad { ptr, i32 }
          catch ptr @_ZTI17DeadlyExportError
          catch ptr null
  %68 = extractvalue { ptr, i32 } %67, 0
  store ptr %68, ptr %exn.slot, align 8
  %69 = extractvalue { ptr, i32 } %67, 1
  store i32 %69, ptr %ehselector.slot, align 4
  call void @_ZN6Assimp14FlipUVsProcessD1Ev(ptr noundef nonnull align 8 dereferenceable(24) %step80) #16
  br label %ehcleanup

if.end88:                                         ; preds = %invoke.cont87, %invoke.cont83
  call void @_ZN6Assimp14FlipUVsProcessD1Ev(ptr noundef nonnull align 8 dereferenceable(24) %step80) #16
  call void @_ZN6Assimp21MakeLeftHandedProcessC2Ev(ptr noundef nonnull align 8 dereferenceable(24) %step89) #16
  %70 = load i32, ptr %pp, align 4
  %call92 = invoke noundef zeroext i1 @_ZNK6Assimp21MakeLeftHandedProcess8IsActiveEj(ptr noundef nonnull align 8 dereferenceable(24) %step89, i32 noundef %70)
          to label %invoke.cont91 unwind label %lpad90

invoke.cont91:                                    ; preds = %if.end88
  br i1 %call92, label %if.then93, label %if.end96

if.then93:                                        ; preds = %invoke.cont91
  %call94 = call noundef ptr @_ZNKSt10unique_ptrI7aiSceneSt14default_deleteIS0_EE3getEv(ptr noundef nonnull align 8 dereferenceable(8) %scenecopy) #16
  invoke void @_ZN6Assimp21MakeLeftHandedProcess7ExecuteEP7aiScene(ptr noundef nonnull align 8 dereferenceable(24) %step89, ptr noundef %call94)
          to label %invoke.cont95 unwind label %lpad90

invoke.cont95:                                    ; preds = %if.then93
  br label %if.end96

lpad90:                                           ; preds = %if.then93, %if.end88
  %71 = landingpad { ptr, i32 }
          catch ptr @_ZTI17DeadlyExportError
          catch ptr null
  %72 = extractvalue { ptr, i32 } %71, 0
  store ptr %72, ptr %exn.slot, align 8
  %73 = extractvalue { ptr, i32 } %71, 1
  store i32 %73, ptr %ehselector.slot, align 4
  call void @_ZN6Assimp21MakeLeftHandedProcessD2Ev(ptr noundef nonnull align 8 dereferenceable(24) %step89) #16
  br label %ehcleanup

if.end96:                                         ; preds = %invoke.cont95, %invoke.cont91
  call void @_ZN6Assimp21MakeLeftHandedProcessD2Ev(ptr noundef nonnull align 8 dereferenceable(24) %step89) #16
  store i8 0, ptr %exportPointCloud, align 1
  %74 = load ptr, ptr %pProperties.addr, align 8
  %cmp97 = icmp ne ptr null, %74
  br i1 %cmp97, label %if.then98, label %if.end102

if.then98:                                        ; preds = %if.end96
  %75 = load ptr, ptr %pProperties.addr, align 8
  %call100 = invoke noundef zeroext i1 @_ZNK6Assimp16ExportProperties15GetPropertyBoolEPKcb(ptr noundef nonnull align 8 dereferenceable(240) %75, ptr noundef @.str.4, i1 noundef zeroext false)
          to label %invoke.cont99 unwind label %lpad20

invoke.cont99:                                    ; preds = %if.then98
  %frombool101 = zext i1 %call100 to i8
  store i8 %frombool101, ptr %exportPointCloud, align 1
  br label %if.end102

if.end102:                                        ; preds = %invoke.cont99, %if.end96
  store i32 0, ptr %a103, align 4
  br label %for.cond104

for.cond104:                                      ; preds = %for.inc146, %if.end102
  %76 = load i32, ptr %a103, align 4
  %conv105 = zext i32 %76 to i64
  %pimpl106 = getelementptr inbounds %"class.Assimp::Exporter", ptr %this1, i32 0, i32 0
  %77 = load ptr, ptr %pimpl106, align 8
  %mPostProcessingSteps107 = getelementptr inbounds %"class.Assimp::ExporterPimpl", ptr %77, i32 0, i32 5
  %call108 = call noundef i64 @_ZNKSt6vectorIPN6Assimp11BaseProcessESaIS2_EE4sizeEv(ptr noundef nonnull align 8 dereferenceable(24) %mPostProcessingSteps107) #16
  %cmp109 = icmp ult i64 %conv105, %call108
  br i1 %cmp109, label %for.body110, label %for.end148

for.body110:                                      ; preds = %for.cond104
  %pimpl112 = getelementptr inbounds %"class.Assimp::Exporter", ptr %this1, i32 0, i32 0
  %78 = load ptr, ptr %pimpl112, align 8
  %mPostProcessingSteps113 = getelementptr inbounds %"class.Assimp::ExporterPimpl", ptr %78, i32 0, i32 5
  %79 = load i32, ptr %a103, align 4
  %conv114 = zext i32 %79 to i64
  %call115 = call noundef nonnull align 8 dereferenceable(8) ptr @_ZNSt6vectorIPN6Assimp11BaseProcessESaIS2_EEixEm(ptr noundef nonnull align 8 dereferenceable(24) %mPostProcessingSteps113, i64 noundef %conv114) #16
  %80 = load ptr, ptr %call115, align 8
  store ptr %80, ptr %p111, align 8
  %81 = load ptr, ptr %p111, align 8
  %82 = load i32, ptr %pp, align 4
  %vtable116 = load ptr, ptr %81, align 8
  %vfn117 = getelementptr inbounds ptr, ptr %vtable116, i64 2
  %83 = load ptr, ptr %vfn117, align 8
  %call119 = invoke noundef zeroext i1 %83(ptr noundef nonnull align 8 dereferenceable(24) %81, i32 noundef %82)
          to label %invoke.cont118 unwind label %lpad20

invoke.cont118:                                   ; preds = %for.body110
  br i1 %call119, label %land.lhs.true120, label %if.end145

land.lhs.true120:                                 ; preds = %invoke.cont118
  %84 = load ptr, ptr %p111, align 8
  %85 = icmp eq ptr %84, null
  br i1 %85, label %dynamic_cast.null, label %dynamic_cast.notnull

dynamic_cast.notnull:                             ; preds = %land.lhs.true120
  %86 = call ptr @__dynamic_cast(ptr %84, ptr @_ZTIN6Assimp11BaseProcessE, ptr @_ZTIN6Assimp14FlipUVsProcessE, i64 0) #16
  br label %dynamic_cast.end

dynamic_cast.null:                                ; preds = %land.lhs.true120
  br label %dynamic_cast.end

dynamic_cast.end:                                 ; preds = %dynamic_cast.null, %dynamic_cast.notnull
  %87 = phi ptr [ %86, %dynamic_cast.notnull ], [ null, %dynamic_cast.null ]
  %tobool121 = icmp ne ptr %87, null
  br i1 %tobool121, label %if.end145, label %land.lhs.true122

land.lhs.true122:                                 ; preds = %dynamic_cast.end
  %88 = load ptr, ptr %p111, align 8
  %89 = icmp eq ptr %88, null
  br i1 %89, label %dynamic_cast.null124, label %dynamic_cast.notnull123

dynamic_cast.notnull123:                          ; preds = %land.lhs.true122
  %90 = call ptr @__dynamic_cast(ptr %88, ptr @_ZTIN6Assimp11BaseProcessE, ptr @_ZTIN6Assimp23FlipWindingOrderProcessE, i64 0) #16
  br label %dynamic_cast.end125

dynamic_cast.null124:                             ; preds = %land.lhs.true122
  br label %dynamic_cast.end125

dynamic_cast.end125:                              ; preds = %dynamic_cast.null124, %dynamic_cast.notnull123
  %91 = phi ptr [ %90, %dynamic_cast.notnull123 ], [ null, %dynamic_cast.null124 ]
  %tobool126 = icmp ne ptr %91, null
  br i1 %tobool126, label %if.end145, label %land.lhs.true127

land.lhs.true127:                                 ; preds = %dynamic_cast.end125
  %92 = load ptr, ptr %p111, align 8
  %93 = icmp eq ptr %92, null
  br i1 %93, label %dynamic_cast.null129, label %dynamic_cast.notnull128

dynamic_cast.notnull128:                          ; preds = %land.lhs.true127
  %94 = call ptr @__dynamic_cast(ptr %92, ptr @_ZTIN6Assimp11BaseProcessE, ptr @_ZTIN6Assimp21MakeLeftHandedProcessE, i64 0) #16
  br label %dynamic_cast.end130

dynamic_cast.null129:                             ; preds = %land.lhs.true127
  br label %dynamic_cast.end130

dynamic_cast.end130:                              ; preds = %dynamic_cast.null129, %dynamic_cast.notnull128
  %95 = phi ptr [ %94, %dynamic_cast.notnull128 ], [ null, %dynamic_cast.null129 ]
  %tobool131 = icmp ne ptr %95, null
  br i1 %tobool131, label %if.end145, label %if.then132

if.then132:                                       ; preds = %dynamic_cast.end130
  %96 = load ptr, ptr %p111, align 8
  %97 = icmp eq ptr %96, null
  br i1 %97, label %dynamic_cast.null134, label %dynamic_cast.notnull133

dynamic_cast.notnull133:                          ; preds = %if.then132
  %98 = call ptr @__dynamic_cast(ptr %96, ptr @_ZTIN6Assimp11BaseProcessE, ptr @_ZTIN6Assimp20PretransformVerticesE, i64 0) #16
  br label %dynamic_cast.end135

dynamic_cast.null134:                             ; preds = %if.then132
  br label %dynamic_cast.end135

dynamic_cast.end135:                              ; preds = %dynamic_cast.null134, %dynamic_cast.notnull133
  %99 = phi ptr [ %98, %dynamic_cast.notnull133 ], [ null, %dynamic_cast.null134 ]
  %tobool136 = icmp ne ptr %99, null
  br i1 %tobool136, label %land.lhs.true137, label %if.end140

land.lhs.true137:                                 ; preds = %dynamic_cast.end135
  %100 = load i8, ptr %exportPointCloud, align 1
  %tobool138 = trunc i8 %100 to i1
  br i1 %tobool138, label %if.then139, label %if.end140

if.then139:                                       ; preds = %land.lhs.true137
  br label %for.inc146

if.end140:                                        ; preds = %land.lhs.true137, %dynamic_cast.end135
  %101 = load ptr, ptr %p111, align 8
  %call141 = call noundef ptr @_ZNKSt10unique_ptrI7aiSceneSt14default_deleteIS0_EE3getEv(ptr noundef nonnull align 8 dereferenceable(8) %scenecopy) #16
  %vtable142 = load ptr, ptr %101, align 8
  %vfn143 = getelementptr inbounds ptr, ptr %vtable142, i64 5
  %102 = load ptr, ptr %vfn143, align 8
  invoke void %102(ptr noundef nonnull align 8 dereferenceable(24) %101, ptr noundef %call141)
          to label %invoke.cont144 unwind label %lpad20

invoke.cont144:                                   ; preds = %if.end140
  br label %if.end145

if.end145:                                        ; preds = %invoke.cont144, %dynamic_cast.end130, %dynamic_cast.end125, %dynamic_cast.end, %invoke.cont118
  br label %for.inc146

for.inc146:                                       ; preds = %if.end145, %if.then139
  %103 = load i32, ptr %a103, align 4
  %inc147 = add i32 %103, 1
  store i32 %inc147, ptr %a103, align 4
  br label %for.cond104, !llvm.loop !7

for.end148:                                       ; preds = %for.cond104
  %call149 = call noundef ptr @_ZNKSt10unique_ptrI7aiSceneSt14default_deleteIS0_EE3getEv(ptr noundef nonnull align 8 dereferenceable(8) %scenecopy) #16
  %call151 = invoke noundef ptr @_ZN6Assimp9ScenePrivEP7aiScene(ptr noundef %call149)
          to label %invoke.cont150 unwind label %lpad20

invoke.cont150:                                   ; preds = %for.end148
  store ptr %call151, ptr %privOut, align 8
  %104 = load i32, ptr %pp, align 4
  %105 = load ptr, ptr %privOut, align 8
  %mPPStepsApplied152 = getelementptr inbounds %"struct.Assimp::ScenePrivateData", ptr %105, i32 0, i32 1
  %106 = load i32, ptr %mPPStepsApplied152, align 8
  %or153 = or i32 %106, %104
  store i32 %or153, ptr %mPPStepsApplied152, align 8
  br label %if.end154

if.end154:                                        ; preds = %invoke.cont150, %invoke.cont70
  %pimpl155 = getelementptr inbounds %"class.Assimp::Exporter", ptr %this1, i32 0, i32 0
  %107 = load ptr, ptr %pimpl155, align 8
  %mProgressHandler156 = getelementptr inbounds %"class.Assimp::ExporterPimpl", ptr %107, i32 0, i32 3
  %108 = load ptr, ptr %mProgressHandler156, align 8
  %vtable157 = load ptr, ptr %108, align 8
  %vfn158 = getelementptr inbounds ptr, ptr %vtable157, i64 5
  %109 = load ptr, ptr %vfn158, align 8
  invoke void %109(ptr noundef nonnull align 8 dereferenceable(8) %108, i32 noundef 3, i32 noundef 4)
          to label %invoke.cont159 unwind label %lpad20

invoke.cont159:                                   ; preds = %if.end154
  %110 = load i8, ptr %must_join_again, align 1
  %tobool160 = trunc i8 %110 to i1
  br i1 %tobool160, label %if.then161, label %if.end166

if.then161:                                       ; preds = %invoke.cont159
  call void @_ZN6Assimp19JoinVerticesProcessC2Ev(ptr noundef nonnull align 8 dereferenceable(24) %proc162) #16
  %call163 = call noundef ptr @_ZNKSt10unique_ptrI7aiSceneSt14default_deleteIS0_EE3getEv(ptr noundef nonnull align 8 dereferenceable(8) %scenecopy) #16
  invoke void @_ZN6Assimp19JoinVerticesProcess7ExecuteEP7aiScene(ptr noundef nonnull align 8 dereferenceable(24) %proc162, ptr noundef %call163)
          to label %invoke.cont165 unwind label %lpad164

invoke.cont165:                                   ; preds = %if.then161
  call void @_ZN6Assimp19JoinVerticesProcessD2Ev(ptr noundef nonnull align 8 dereferenceable(24) %proc162) #16
  br label %if.end166

lpad164:                                          ; preds = %if.then161
  %111 = landingpad { ptr, i32 }
          catch ptr @_ZTI17DeadlyExportError
          catch ptr null
  %112 = extractvalue { ptr, i32 } %111, 0
  store ptr %112, ptr %exn.slot, align 8
  %113 = extractvalue { ptr, i32 } %111, 1
  store i32 %113, ptr %ehselector.slot, align 4
  call void @_ZN6Assimp19JoinVerticesProcessD2Ev(ptr noundef nonnull align 8 dereferenceable(24) %proc162) #16
  br label %ehcleanup

if.end166:                                        ; preds = %invoke.cont165, %invoke.cont159
  invoke void @_ZN6Assimp16ExportPropertiesC1Ev(ptr noundef nonnull align 8 dereferenceable(240) %emptyProperties)
          to label %invoke.cont167 unwind label %lpad20

invoke.cont167:                                   ; preds = %if.end166
  %114 = load ptr, ptr %pProperties.addr, align 8
  %tobool168 = icmp ne ptr %114, null
  br i1 %tobool168, label %cond.true169, label %cond.false170

cond.true169:                                     ; preds = %invoke.cont167
  %115 = load ptr, ptr %pProperties.addr, align 8
  br label %cond.end171

cond.false170:                                    ; preds = %invoke.cont167
  br label %cond.end171

cond.end171:                                      ; preds = %cond.false170, %cond.true169
  %cond172 = phi ptr [ %115, %cond.true169 ], [ %emptyProperties, %cond.false170 ]
  store ptr %cond172, ptr %pProp, align 8
  %116 = load ptr, ptr %pProp, align 8
  %117 = load i32, ptr %pp, align 4
  %and173 = and i32 %117, 2
  %tobool174 = icmp ne i32 %and173, 0
  %call177 = invoke noundef zeroext i1 @_ZN6Assimp16ExportProperties15SetPropertyBoolEPKcb(ptr noundef nonnull align 8 dereferenceable(240) %116, ptr noundef @.str.5, i1 noundef zeroext %tobool174)
          to label %invoke.cont176 unwind label %lpad175

invoke.cont176:                                   ; preds = %cond.end171
  %118 = load ptr, ptr %exp, align 8
  %mExportFunction = getelementptr inbounds %"struct.Assimp::Exporter::ExportFormatEntry", ptr %118, i32 0, i32 1
  %119 = load ptr, ptr %mExportFunction, align 8
  %120 = load ptr, ptr %pPath.addr, align 8
  %pimpl178 = getelementptr inbounds %"class.Assimp::Exporter", ptr %this1, i32 0, i32 0
  %121 = load ptr, ptr %pimpl178, align 8
  %mIOSystem = getelementptr inbounds %"class.Assimp::ExporterPimpl", ptr %121, i32 0, i32 1
  %call179 = call noundef ptr @_ZNKSt12__shared_ptrIN6Assimp8IOSystemELN9__gnu_cxx12_Lock_policyE2EE3getEv(ptr noundef nonnull align 8 dereferenceable(16) %mIOSystem) #16
  %call180 = call noundef ptr @_ZNKSt10unique_ptrI7aiSceneSt14default_deleteIS0_EE3getEv(ptr noundef nonnull align 8 dereferenceable(8) %scenecopy) #16
  %122 = load ptr, ptr %pProp, align 8
  invoke void %119(ptr noundef %120, ptr noundef %call179, ptr noundef %call180, ptr noundef %122)
          to label %invoke.cont181 unwind label %lpad175

invoke.cont181:                                   ; preds = %invoke.cont176
  %pimpl182 = getelementptr inbounds %"class.Assimp::Exporter", ptr %this1, i32 0, i32 0
  %123 = load ptr, ptr %pimpl182, align 8
  %mProgressHandler183 = getelementptr inbounds %"class.Assimp::ExporterPimpl", ptr %123, i32 0, i32 3
  %124 = load ptr, ptr %mProgressHandler183, align 8
  %vtable184 = load ptr, ptr %124, align 8
  %vfn185 = getelementptr inbounds ptr, ptr %vtable184, i64 5
  %125 = load ptr, ptr %vfn185, align 8
  invoke void %125(ptr noundef nonnull align 8 dereferenceable(8) %124, i32 noundef 4, i32 noundef 4)
          to label %invoke.cont186 unwind label %lpad175

invoke.cont186:                                   ; preds = %invoke.cont181
  call void @_ZN6Assimp16ExportPropertiesD2Ev(ptr noundef nonnull align 8 dereferenceable(240) %emptyProperties) #16
  call void @_ZNSt10unique_ptrI7aiSceneSt14default_deleteIS0_EED2Ev(ptr noundef nonnull align 8 dereferenceable(8) %scenecopy) #16
  br label %try.cont

lpad175:                                          ; preds = %invoke.cont181, %invoke.cont176, %cond.end171
  %126 = landingpad { ptr, i32 }
          catch ptr @_ZTI17DeadlyExportError
          catch ptr null
  %127 = extractvalue { ptr, i32 } %126, 0
  store ptr %127, ptr %exn.slot, align 8
  %128 = extractvalue { ptr, i32 } %126, 1
  store i32 %128, ptr %ehselector.slot, align 4
  call void @_ZN6Assimp16ExportPropertiesD2Ev(ptr noundef nonnull align 8 dereferenceable(240) %emptyProperties) #16
  br label %ehcleanup

ehcleanup:                                        ; preds = %lpad175, %lpad164, %lpad90, %lpad82, %lpad73, %lpad57, %lpad20
  call void @_ZNSt10unique_ptrI7aiSceneSt14default_deleteIS0_EED2Ev(ptr noundef nonnull align 8 dereferenceable(8) %scenecopy) #16
  br label %catch.dispatch

catch.dispatch:                                   ; preds = %ehcleanup, %lpad13
  %sel = load i32, ptr %ehselector.slot, align 4
  %129 = call i32 @llvm.eh.typeid.for(ptr @_ZTI17DeadlyExportError) #16
  %matches = icmp eq i32 %sel, %129
  br i1 %matches, label %catch, label %catch213

catch:                                            ; preds = %catch.dispatch
  %exn = load ptr, ptr %exn.slot, align 8
  %130 = call ptr @__cxa_begin_catch(ptr %exn) #16
  store ptr %130, ptr %err, align 8
  %131 = load ptr, ptr %err, align 8
  %vtable187 = load ptr, ptr %131, align 8
  %vfn188 = getelementptr inbounds ptr, ptr %vtable187, i64 2
  %132 = load ptr, ptr %vfn188, align 8
  %call189 = call noundef ptr %132(ptr noundef nonnull align 8 dereferenceable(16) %131) #16
  %pimpl190 = getelementptr inbounds %"class.Assimp::Exporter", ptr %this1, i32 0, i32 0
  %133 = load ptr, ptr %pimpl190, align 8
  %mError191 = getelementptr inbounds %"class.Assimp::ExporterPimpl", ptr %133, i32 0, i32 6
  %call194 = invoke noundef nonnull align 8 dereferenceable(32) ptr @_ZNSt7__cxx1112basic_stringIcSt11char_traitsIcESaIcEEaSEPKc(ptr noundef nonnull align 8 dereferenceable(32) %mError191, ptr noundef %call189)
          to label %invoke.cont193 unwind label %lpad192

invoke.cont193:                                   ; preds = %catch
  store i32 -1, ptr %retval, align 4
  invoke void @__cxa_end_catch()
          to label %invoke.cont195 unwind label %lpad

lpad192:                                          ; preds = %catch
  %134 = landingpad { ptr, i32 }
          catch ptr null
  %135 = extractvalue { ptr, i32 } %134, 0
  store ptr %135, ptr %exn.slot, align 8
  %136 = extractvalue { ptr, i32 } %134, 1
  store i32 %136, ptr %ehselector.slot, align 4
  invoke void @__cxa_end_catch()
          to label %invoke.cont197 unwind label %terminate.lpad

invoke.cont195:                                   ; preds = %invoke.cont193
  br label %return

invoke.cont197:                                   ; preds = %lpad192
  br label %catch213

try.cont:                                         ; preds = %invoke.cont186
  store i32 0, ptr %retval, align 4
  br label %return

if.end198:                                        ; preds = %for.body
  br label %for.inc199

for.inc199:                                       ; preds = %if.end198
  %137 = load i64, ptr %i, align 8
  %inc200 = add i64 %137, 1
  store i64 %inc200, ptr %i, align 8
  br label %for.cond, !llvm.loop !8

for.end201:                                       ; preds = %for.cond
  call void @_ZNSaIcEC1Ev(ptr noundef nonnull align 1 dereferenceable(1) %ref.tmp203) #16
  invoke void @_ZNSt7__cxx1112basic_stringIcSt11char_traitsIcESaIcEEC2IS3_EEPKcRKS3_(ptr noundef nonnull align 8 dereferenceable(32) %ref.tmp202, ptr noundef @.str.6, ptr noundef nonnull align 1 dereferenceable(1) %ref.tmp203)
          to label %invoke.cont205 unwind label %lpad204

invoke.cont205:                                   ; preds = %for.end201
  %138 = load ptr, ptr %pFormatId.addr, align 8
  invoke void @_ZStplIcSt11char_traitsIcESaIcEENSt7__cxx1112basic_stringIT_T0_T1_EEOS8_PKS5_(ptr sret(%"class.std::__cxx11::basic_string") align 8 %ref.tmp, ptr noundef nonnull align 8 dereferenceable(32) %ref.tmp202, ptr noundef %138)
          to label %invoke.cont207 unwind label %lpad206

invoke.cont207:                                   ; preds = %invoke.cont205
  %pimpl208 = getelementptr inbounds %"class.Assimp::Exporter", ptr %this1, i32 0, i32 0
  %139 = load ptr, ptr %pimpl208, align 8
  %mError209 = getelementptr inbounds %"class.Assimp::ExporterPimpl", ptr %139, i32 0, i32 6
  %call210 = call noundef nonnull align 8 dereferenceable(32) ptr @_ZNSt7__cxx1112basic_stringIcSt11char_traitsIcESaIcEEaSEOS4_(ptr noundef nonnull align 8 dereferenceable(32) %mError209, ptr noundef nonnull align 8 dereferenceable(32) %ref.tmp) #16
  call void @_ZNSt7__cxx1112basic_stringIcSt11char_traitsIcESaIcEED1Ev(ptr noundef nonnull align 8 dereferenceable(32) %ref.tmp) #16
  call void @_ZNSt7__cxx1112basic_stringIcSt11char_traitsIcESaIcEED1Ev(ptr noundef nonnull align 8 dereferenceable(32) %ref.tmp202) #16
  call void @_ZNSaIcED1Ev(ptr noundef nonnull align 1 dereferenceable(1) %ref.tmp203) #16
  br label %try.cont221

lpad204:                                          ; preds = %for.end201
  %140 = landingpad { ptr, i32 }
          catch ptr null
  %141 = extractvalue { ptr, i32 } %140, 0
  store ptr %141, ptr %exn.slot, align 8
  %142 = extractvalue { ptr, i32 } %140, 1
  store i32 %142, ptr %ehselector.slot, align 4
  br label %ehcleanup212

lpad206:                                          ; preds = %invoke.cont205
  %143 = landingpad { ptr, i32 }
          catch ptr null
  %144 = extractvalue { ptr, i32 } %143, 0
  store ptr %144, ptr %exn.slot, align 8
  %145 = extractvalue { ptr, i32 } %143, 1
  store i32 %145, ptr %ehselector.slot, align 4
  call void @_ZNSt7__cxx1112basic_stringIcSt11char_traitsIcESaIcEED1Ev(ptr noundef nonnull align 8 dereferenceable(32) %ref.tmp202) #16
  br label %ehcleanup212

ehcleanup212:                                     ; preds = %lpad206, %lpad204
  call void @_ZNSaIcED1Ev(ptr noundef nonnull align 1 dereferenceable(1) %ref.tmp203) #16
  br label %catch213

catch213:                                         ; preds = %ehcleanup212, %invoke.cont197, %catch.dispatch, %lpad
  %exn214 = load ptr, ptr %exn.slot, align 8
  %146 = call ptr @__cxa_begin_catch(ptr %exn214) #16
  %call218 = invoke noundef i32 @_ZNK18ExceptionSwallowerI8aiReturnEclEv(ptr noundef nonnull align 1 dereferenceable(1) %ref.tmp215)
          to label %invoke.cont217 unwind label %lpad216

invoke.cont217:                                   ; preds = %catch213
  store i32 %call218, ptr %retval, align 4
  call void @__cxa_end_catch()
  br label %return

lpad216:                                          ; preds = %catch213
  %147 = landingpad { ptr, i32 }
          cleanup
  %148 = extractvalue { ptr, i32 } %147, 0
  store ptr %148, ptr %exn.slot, align 8
  %149 = extractvalue { ptr, i32 } %147, 1
  store i32 %149, ptr %ehselector.slot, align 4
  invoke void @__cxa_end_catch()
          to label %invoke.cont220 unwind label %terminate.lpad

invoke.cont220:                                   ; preds = %lpad216
  br label %eh.resume

try.cont221:                                      ; preds = %invoke.cont207
  store i32 -1, ptr %retval, align 4
  br label %return

return:                                           ; preds = %try.cont221, %invoke.cont217, %try.cont, %invoke.cont195
  %150 = load i32, ptr %retval, align 4
  ret i32 %150

eh.resume:                                        ; preds = %invoke.cont220
  %exn222 = load ptr, ptr %exn.slot, align 8
  %sel223 = load i32, ptr %ehselector.slot, align 4
  %lpad.val = insertvalue { ptr, i32 } poison, ptr %exn222, 0
  %lpad.val224 = insertvalue { ptr, i32 } %lpad.val, i32 %sel223, 1
  resume { ptr, i32 } %lpad.val224

terminate.lpad:                                   ; preds = %lpad216, %lpad192
  %151 = landingpad { ptr, i32 }
          catch ptr null
  %152 = extractvalue { ptr, i32 } %151, 0
  call void @__clang_call_terminate(ptr %152) #15
  unreachable
}

; Function Attrs: mustprogress nounwind uwtable
define linkonce_odr hidden noundef ptr @_ZNK6Assimp12BlobIOSystem16GetMagicFileNameEv(ptr noundef nonnull align 8 dereferenceable(136) %this) #0 comdat align 2 {
entry:
  %this.addr = alloca ptr, align 8
  store ptr %this, ptr %this.addr, align 8
  %this1 = load ptr, ptr %this.addr, align 8
  %baseName = getelementptr inbounds %"class.Assimp::BlobIOSystem", ptr %this1, i32 0, i32 1
  %call = call noundef ptr @_ZNKSt7__cxx1112basic_stringIcSt11char_traitsIcESaIcEE5c_strEv(ptr noundef nonnull align 8 dereferenceable(32) %baseName) #16
  ret ptr %call
}

; Function Attrs: mustprogress nounwind uwtable
define linkonce_odr noundef nonnull align 8 dereferenceable(16) ptr @_ZNSt10shared_ptrIN6Assimp8IOSystemEEaSERKS2_(ptr noundef nonnull align 8 dereferenceable(16) %this, ptr noundef nonnull align 8 dereferenceable(16) %0) #0 comdat align 2 {
entry:
  %this.addr = alloca ptr, align 8
  %.addr = alloca ptr, align 8
  store ptr %this, ptr %this.addr, align 8
  store ptr %0, ptr %.addr, align 8
  %this1 = load ptr, ptr %this.addr, align 8
  %1 = load ptr, ptr %.addr, align 8
  %call = call noundef nonnull align 8 dereferenceable(16) ptr @_ZNSt12__shared_ptrIN6Assimp8IOSystemELN9__gnu_cxx12_Lock_policyE2EEaSERKS4_(ptr noundef nonnull align 8 dereferenceable(16) %this1, ptr noundef nonnull align 8 dereferenceable(16) %1) #16
  ret ptr %this1
}

; Function Attrs: mustprogress uwtable
define linkonce_odr hidden noundef ptr @_ZN6Assimp12BlobIOSystem12GetBlobChainEv(ptr noundef nonnull align 8 dereferenceable(136) %this) #2 comdat align 2 personality ptr @__gxx_personality_v0 {
entry:
  %retval = alloca ptr, align 8
  %this.addr = alloca ptr, align 8
  %magicName = alloca %"class.std::__cxx11::basic_string", align 8
  %ref.tmp = alloca %"class.std::allocator.0", align 1
  %exn.slot = alloca ptr, align 8
  %ehselector.slot = alloca i32, align 4
  %hasBaseName = alloca i8, align 1
  %master = alloca ptr, align 8
  %cur = alloca ptr, align 8
  %__range2 = alloca ptr, align 8
  %__begin2 = alloca %"class.__gnu_cxx::__normal_iterator.52", align 8
  %__end2 = alloca %"class.__gnu_cxx::__normal_iterator.52", align 8
  %blobby = alloca ptr, align 8
  %ref.tmp11 = alloca %"class.std::__cxx11::basic_string", align 8
  %ref.tmp14 = alloca %"class.std::allocator.0", align 1
  %cleanup.cond = alloca i1, align 1
  %cleanup.dest.slot = alloca i32, align 4
  %__range229 = alloca ptr, align 8
  %__begin231 = alloca %"class.__gnu_cxx::__normal_iterator.52", align 8
  %__end234 = alloca %"class.__gnu_cxx::__normal_iterator.52", align 8
  %blobby40 = alloca ptr, align 8
  %s = alloca i64, align 8
  %ref.tmp55 = alloca %"class.std::__cxx11::basic_string", align 8
  store ptr %this, ptr %this.addr, align 8
  %this1 = load ptr, ptr %this.addr, align 8
  %call = call noundef ptr @_ZNK6Assimp12BlobIOSystem16GetMagicFileNameEv(ptr noundef nonnull align 8 dereferenceable(136) %this1)
  call void @_ZNSaIcEC1Ev(ptr noundef nonnull align 1 dereferenceable(1) %ref.tmp) #16
  invoke void @_ZNSt7__cxx1112basic_stringIcSt11char_traitsIcESaIcEEC2IS3_EEPKcRKS3_(ptr noundef nonnull align 8 dereferenceable(32) %magicName, ptr noundef %call, ptr noundef nonnull align 1 dereferenceable(1) %ref.tmp)
          to label %invoke.cont unwind label %lpad

invoke.cont:                                      ; preds = %entry
  call void @_ZNSaIcED1Ev(ptr noundef nonnull align 1 dereferenceable(1) %ref.tmp) #16
  %baseName = getelementptr inbounds %"class.Assimp::BlobIOSystem", ptr %this1, i32 0, i32 1
  %call4 = invoke noundef zeroext i1 @_ZStneIcSt11char_traitsIcESaIcEEbRKNSt7__cxx1112basic_stringIT_T0_T1_EEPKS5_(ptr noundef nonnull align 8 dereferenceable(32) %baseName, ptr noundef @.str.1)
          to label %invoke.cont3 unwind label %lpad2

invoke.cont3:                                     ; preds = %invoke.cont
  %frombool = zext i1 %call4 to i8
  store i8 %frombool, ptr %hasBaseName, align 1
  store ptr null, ptr %master, align 8
  %blobs = getelementptr inbounds %"class.Assimp::BlobIOSystem", ptr %this1, i32 0, i32 3
  store ptr %blobs, ptr %__range2, align 8
  %0 = load ptr, ptr %__range2, align 8
  %call5 = call ptr @_ZNSt6vectorISt4pairINSt7__cxx1112basic_stringIcSt11char_traitsIcESaIcEEEP16aiExportDataBlobESaIS9_EE5beginEv(ptr noundef nonnull align 8 dereferenceable(24) %0) #16
  %coerce.dive = getelementptr inbounds %"class.__gnu_cxx::__normal_iterator.52", ptr %__begin2, i32 0, i32 0
  store ptr %call5, ptr %coerce.dive, align 8
  %1 = load ptr, ptr %__range2, align 8
  %call6 = call ptr @_ZNSt6vectorISt4pairINSt7__cxx1112basic_stringIcSt11char_traitsIcESaIcEEEP16aiExportDataBlobESaIS9_EE3endEv(ptr noundef nonnull align 8 dereferenceable(24) %1) #16
  %coerce.dive7 = getelementptr inbounds %"class.__gnu_cxx::__normal_iterator.52", ptr %__end2, i32 0, i32 0
  store ptr %call6, ptr %coerce.dive7, align 8
  br label %for.cond

for.cond:                                         ; preds = %for.inc, %invoke.cont3
  %call8 = call noundef zeroext i1 @_ZN9__gnu_cxxneIPSt4pairINSt7__cxx1112basic_stringIcSt11char_traitsIcESaIcEEEP16aiExportDataBlobESt6vectorISA_SaISA_EEEEbRKNS_17__normal_iteratorIT_T0_EESK_(ptr noundef nonnull align 8 dereferenceable(8) %__begin2, ptr noundef nonnull align 8 dereferenceable(8) %__end2) #16
  br i1 %call8, label %for.body, label %for.end

for.body:                                         ; preds = %for.cond
  %call9 = call noundef nonnull align 8 dereferenceable(40) ptr @_ZNK9__gnu_cxx17__normal_iteratorIPSt4pairINSt7__cxx1112basic_stringIcSt11char_traitsIcESaIcEEEP16aiExportDataBlobESt6vectorISA_SaISA_EEEdeEv(ptr noundef nonnull align 8 dereferenceable(8) %__begin2) #16
  store ptr %call9, ptr %blobby, align 8
  %2 = load ptr, ptr %blobby, align 8
  %first = getelementptr inbounds %"struct.std::pair", ptr %2, i32 0, i32 0
  %call10 = call noundef zeroext i1 @_ZSteqIcEN9__gnu_cxx11__enable_ifIXsr9__is_charIT_EE7__valueEbE6__typeERKNSt7__cxx1112basic_stringIS2_St11char_traitsIS2_ESaIS2_EEESC_(ptr noundef nonnull align 8 dereferenceable(32) %first, ptr noundef nonnull align 8 dereferenceable(32) %magicName) #16
  br i1 %call10, label %if.then, label %if.end

if.then:                                          ; preds = %for.body
  %3 = load ptr, ptr %blobby, align 8
  %second = getelementptr inbounds %"struct.std::pair", ptr %3, i32 0, i32 1
  %4 = load ptr, ptr %second, align 8
  store ptr %4, ptr %master, align 8
  %5 = load ptr, ptr %master, align 8
  %name = getelementptr inbounds %struct.aiExportDataBlob, ptr %5, i32 0, i32 2
  %6 = load i8, ptr %hasBaseName, align 1
  %tobool = trunc i8 %6 to i1
  store i1 false, ptr %cleanup.cond, align 1
  br i1 %tobool, label %cond.true, label %cond.false

cond.true:                                        ; preds = %if.then
  %7 = load ptr, ptr %blobby, align 8
  %first12 = getelementptr inbounds %"struct.std::pair", ptr %7, i32 0, i32 0
  invoke void @_ZNSt7__cxx1112basic_stringIcSt11char_traitsIcESaIcEEC1ERKS4_(ptr noundef nonnull align 8 dereferenceable(32) %ref.tmp11, ptr noundef nonnull align 8 dereferenceable(32) %first12)
          to label %invoke.cont13 unwind label %lpad2

invoke.cont13:                                    ; preds = %cond.true
  br label %cond.end

cond.false:                                       ; preds = %if.then
  call void @_ZNSaIcEC1Ev(ptr noundef nonnull align 1 dereferenceable(1) %ref.tmp14) #16
  store i1 true, ptr %cleanup.cond, align 1
  invoke void @_ZNSt7__cxx1112basic_stringIcSt11char_traitsIcESaIcEEC2IS3_EEPKcRKS3_(ptr noundef nonnull align 8 dereferenceable(32) %ref.tmp11, ptr noundef @.str.2, ptr noundef nonnull align 1 dereferenceable(1) %ref.tmp14)
          to label %invoke.cont16 unwind label %lpad15

invoke.cont16:                                    ; preds = %cond.false
  br label %cond.end

cond.end:                                         ; preds = %invoke.cont16, %invoke.cont13
  invoke void @_ZN8aiString3SetERKNSt7__cxx1112basic_stringIcSt11char_traitsIcESaIcEEE(ptr noundef nonnull align 4 dereferenceable(1028) %name, ptr noundef nonnull align 8 dereferenceable(32) %ref.tmp11)
          to label %invoke.cont18 unwind label %lpad17

invoke.cont18:                                    ; preds = %cond.end
  call void @_ZNSt7__cxx1112basic_stringIcSt11char_traitsIcESaIcEED1Ev(ptr noundef nonnull align 8 dereferenceable(32) %ref.tmp11) #16
  %cleanup.is_active = load i1, ptr %cleanup.cond, align 1
  br i1 %cleanup.is_active, label %cleanup.action, label %cleanup.done

cleanup.action:                                   ; preds = %invoke.cont18
  call void @_ZNSaIcED1Ev(ptr noundef nonnull align 1 dereferenceable(1) %ref.tmp14) #16
  br label %cleanup.done

cleanup.done:                                     ; preds = %cleanup.action, %invoke.cont18
  br label %for.end

lpad:                                             ; preds = %entry
  %8 = landingpad { ptr, i32 }
          cleanup
  %9 = extractvalue { ptr, i32 } %8, 0
  store ptr %9, ptr %exn.slot, align 8
  %10 = extractvalue { ptr, i32 } %8, 1
  store i32 %10, ptr %ehselector.slot, align 4
  call void @_ZNSaIcED1Ev(ptr noundef nonnull align 1 dereferenceable(1) %ref.tmp) #16
  br label %eh.resume

lpad2:                                            ; preds = %cond.false60, %cond.true57, %if.then48, %invoke.cont25, %if.then24, %cond.true, %invoke.cont
  %11 = landingpad { ptr, i32 }
          cleanup
  %12 = extractvalue { ptr, i32 } %11, 0
  store ptr %12, ptr %exn.slot, align 8
  %13 = extractvalue { ptr, i32 } %11, 1
  store i32 %13, ptr %ehselector.slot, align 4
  br label %ehcleanup72

lpad15:                                           ; preds = %cond.false
  %14 = landingpad { ptr, i32 }
          cleanup
  %15 = extractvalue { ptr, i32 } %14, 0
  store ptr %15, ptr %exn.slot, align 8
  %16 = extractvalue { ptr, i32 } %14, 1
  store i32 %16, ptr %ehselector.slot, align 4
  br label %ehcleanup

lpad17:                                           ; preds = %cond.end
  %17 = landingpad { ptr, i32 }
          cleanup
  %18 = extractvalue { ptr, i32 } %17, 0
  store ptr %18, ptr %exn.slot, align 8
  %19 = extractvalue { ptr, i32 } %17, 1
  store i32 %19, ptr %ehselector.slot, align 4
  call void @_ZNSt7__cxx1112basic_stringIcSt11char_traitsIcESaIcEED1Ev(ptr noundef nonnull align 8 dereferenceable(32) %ref.tmp11) #16
  br label %ehcleanup

ehcleanup:                                        ; preds = %lpad17, %lpad15
  %cleanup.is_active19 = load i1, ptr %cleanup.cond, align 1
  br i1 %cleanup.is_active19, label %cleanup.action20, label %cleanup.done21

cleanup.action20:                                 ; preds = %ehcleanup
  call void @_ZNSaIcED1Ev(ptr noundef nonnull align 1 dereferenceable(1) %ref.tmp14) #16
  br label %cleanup.done21

cleanup.done21:                                   ; preds = %cleanup.action20, %ehcleanup
  br label %ehcleanup72

if.end:                                           ; preds = %for.body
  br label %for.inc

for.inc:                                          ; preds = %if.end
  %call22 = call noundef nonnull align 8 dereferenceable(8) ptr @_ZN9__gnu_cxx17__normal_iteratorIPSt4pairINSt7__cxx1112basic_stringIcSt11char_traitsIcESaIcEEEP16aiExportDataBlobESt6vectorISA_SaISA_EEEppEv(ptr noundef nonnull align 8 dereferenceable(8) %__begin2) #16
  br label %for.cond

for.end:                                          ; preds = %cleanup.done, %for.cond
  %20 = load ptr, ptr %master, align 8
  %tobool23 = icmp ne ptr %20, null
  br i1 %tobool23, label %if.end28, label %if.then24

if.then24:                                        ; preds = %for.end
  %call26 = invoke noundef ptr @_ZN6Assimp13DefaultLogger3getEv()
          to label %invoke.cont25 unwind label %lpad2

invoke.cont25:                                    ; preds = %if.then24
  invoke void @_ZN6Assimp6Logger5errorEPKc(ptr noundef nonnull align 8 dereferenceable(12) %call26, ptr noundef @.str.54)
          to label %invoke.cont27 unwind label %lpad2

invoke.cont27:                                    ; preds = %invoke.cont25
  store ptr null, ptr %retval, align 8
  store i32 1, ptr %cleanup.dest.slot, align 4
  br label %cleanup

if.end28:                                         ; preds = %for.end
  %21 = load ptr, ptr %master, align 8
  store ptr %21, ptr %cur, align 8
  %blobs30 = getelementptr inbounds %"class.Assimp::BlobIOSystem", ptr %this1, i32 0, i32 3
  store ptr %blobs30, ptr %__range229, align 8
  %22 = load ptr, ptr %__range229, align 8
  %call32 = call ptr @_ZNSt6vectorISt4pairINSt7__cxx1112basic_stringIcSt11char_traitsIcESaIcEEEP16aiExportDataBlobESaIS9_EE5beginEv(ptr noundef nonnull align 8 dereferenceable(24) %22) #16
  %coerce.dive33 = getelementptr inbounds %"class.__gnu_cxx::__normal_iterator.52", ptr %__begin231, i32 0, i32 0
  store ptr %call32, ptr %coerce.dive33, align 8
  %23 = load ptr, ptr %__range229, align 8
  %call35 = call ptr @_ZNSt6vectorISt4pairINSt7__cxx1112basic_stringIcSt11char_traitsIcESaIcEEEP16aiExportDataBlobESaIS9_EE3endEv(ptr noundef nonnull align 8 dereferenceable(24) %23) #16
  %coerce.dive36 = getelementptr inbounds %"class.__gnu_cxx::__normal_iterator.52", ptr %__end234, i32 0, i32 0
  store ptr %call35, ptr %coerce.dive36, align 8
  br label %for.cond37

for.cond37:                                       ; preds = %for.inc68, %if.end28
  %call38 = call noundef zeroext i1 @_ZN9__gnu_cxxneIPSt4pairINSt7__cxx1112basic_stringIcSt11char_traitsIcESaIcEEEP16aiExportDataBlobESt6vectorISA_SaISA_EEEEbRKNS_17__normal_iteratorIT_T0_EESK_(ptr noundef nonnull align 8 dereferenceable(8) %__begin231, ptr noundef nonnull align 8 dereferenceable(8) %__end234) #16
  br i1 %call38, label %for.body39, label %for.end70

for.body39:                                       ; preds = %for.cond37
  %call41 = call noundef nonnull align 8 dereferenceable(40) ptr @_ZNK9__gnu_cxx17__normal_iteratorIPSt4pairINSt7__cxx1112basic_stringIcSt11char_traitsIcESaIcEEEP16aiExportDataBlobESt6vectorISA_SaISA_EEEdeEv(ptr noundef nonnull align 8 dereferenceable(8) %__begin231) #16
  store ptr %call41, ptr %blobby40, align 8
  %24 = load ptr, ptr %blobby40, align 8
  %second42 = getelementptr inbounds %"struct.std::pair", ptr %24, i32 0, i32 1
  %25 = load ptr, ptr %second42, align 8
  %26 = load ptr, ptr %master, align 8
  %cmp = icmp eq ptr %25, %26
  br i1 %cmp, label %if.then43, label %if.end44

if.then43:                                        ; preds = %for.body39
  br label %for.inc68

if.end44:                                         ; preds = %for.body39
  %27 = load ptr, ptr %blobby40, align 8
  %second45 = getelementptr inbounds %"struct.std::pair", ptr %27, i32 0, i32 1
  %28 = load ptr, ptr %second45, align 8
  %29 = load ptr, ptr %cur, align 8
  %next = getelementptr inbounds %struct.aiExportDataBlob, ptr %29, i32 0, i32 3
  store ptr %28, ptr %next, align 8
  %30 = load ptr, ptr %cur, align 8
  %next46 = getelementptr inbounds %struct.aiExportDataBlob, ptr %30, i32 0, i32 3
  %31 = load ptr, ptr %next46, align 8
  store ptr %31, ptr %cur, align 8
  %32 = load i8, ptr %hasBaseName, align 1
  %tobool47 = trunc i8 %32 to i1
  br i1 %tobool47, label %if.then48, label %if.else

if.then48:                                        ; preds = %if.end44
  %33 = load ptr, ptr %cur, align 8
  %name49 = getelementptr inbounds %struct.aiExportDataBlob, ptr %33, i32 0, i32 2
  %34 = load ptr, ptr %blobby40, align 8
  %first50 = getelementptr inbounds %"struct.std::pair", ptr %34, i32 0, i32 0
  invoke void @_ZN8aiString3SetERKNSt7__cxx1112basic_stringIcSt11char_traitsIcESaIcEEE(ptr noundef nonnull align 4 dereferenceable(1028) %name49, ptr noundef nonnull align 8 dereferenceable(32) %first50)
          to label %invoke.cont51 unwind label %lpad2

invoke.cont51:                                    ; preds = %if.then48
  br label %if.end67

if.else:                                          ; preds = %if.end44
  %35 = load ptr, ptr %blobby40, align 8
  %first52 = getelementptr inbounds %"struct.std::pair", ptr %35, i32 0, i32 0
  %call53 = call noundef i64 @_ZNKSt7__cxx1112basic_stringIcSt11char_traitsIcESaIcEE13find_first_ofEcm(ptr noundef nonnull align 8 dereferenceable(32) %first52, i8 noundef signext 46, i64 noundef 0) #16
  store i64 %call53, ptr %s, align 8
  %36 = load ptr, ptr %cur, align 8
  %name54 = getelementptr inbounds %struct.aiExportDataBlob, ptr %36, i32 0, i32 2
  %37 = load i64, ptr %s, align 8
  %cmp56 = icmp eq i64 %37, -1
  br i1 %cmp56, label %cond.true57, label %cond.false60

cond.true57:                                      ; preds = %if.else
  %38 = load ptr, ptr %blobby40, align 8
  %first58 = getelementptr inbounds %"struct.std::pair", ptr %38, i32 0, i32 0
  invoke void @_ZNSt7__cxx1112basic_stringIcSt11char_traitsIcESaIcEEC1ERKS4_(ptr noundef nonnull align 8 dereferenceable(32) %ref.tmp55, ptr noundef nonnull align 8 dereferenceable(32) %first58)
          to label %invoke.cont59 unwind label %lpad2

invoke.cont59:                                    ; preds = %cond.true57
  br label %cond.end63

cond.false60:                                     ; preds = %if.else
  %39 = load ptr, ptr %blobby40, align 8
  %first61 = getelementptr inbounds %"struct.std::pair", ptr %39, i32 0, i32 0
  %40 = load i64, ptr %s, align 8
  %add = add i64 %40, 1
  invoke void @_ZNKSt7__cxx1112basic_stringIcSt11char_traitsIcESaIcEE6substrEmm(ptr sret(%"class.std::__cxx11::basic_string") align 8 %ref.tmp55, ptr noundef nonnull align 8 dereferenceable(32) %first61, i64 noundef %add, i64 noundef -1)
          to label %invoke.cont62 unwind label %lpad2

invoke.cont62:                                    ; preds = %cond.false60
  br label %cond.end63

cond.end63:                                       ; preds = %invoke.cont62, %invoke.cont59
  invoke void @_ZN8aiString3SetERKNSt7__cxx1112basic_stringIcSt11char_traitsIcESaIcEEE(ptr noundef nonnull align 4 dereferenceable(1028) %name54, ptr noundef nonnull align 8 dereferenceable(32) %ref.tmp55)
          to label %invoke.cont65 unwind label %lpad64

invoke.cont65:                                    ; preds = %cond.end63
  call void @_ZNSt7__cxx1112basic_stringIcSt11char_traitsIcESaIcEED1Ev(ptr noundef nonnull align 8 dereferenceable(32) %ref.tmp55) #16
  br label %if.end67

lpad64:                                           ; preds = %cond.end63
  %41 = landingpad { ptr, i32 }
          cleanup
  %42 = extractvalue { ptr, i32 } %41, 0
  store ptr %42, ptr %exn.slot, align 8
  %43 = extractvalue { ptr, i32 } %41, 1
  store i32 %43, ptr %ehselector.slot, align 4
  call void @_ZNSt7__cxx1112basic_stringIcSt11char_traitsIcESaIcEED1Ev(ptr noundef nonnull align 8 dereferenceable(32) %ref.tmp55) #16
  br label %ehcleanup72

if.end67:                                         ; preds = %invoke.cont65, %invoke.cont51
  br label %for.inc68

for.inc68:                                        ; preds = %if.end67, %if.then43
  %call69 = call noundef nonnull align 8 dereferenceable(8) ptr @_ZN9__gnu_cxx17__normal_iteratorIPSt4pairINSt7__cxx1112basic_stringIcSt11char_traitsIcESaIcEEEP16aiExportDataBlobESt6vectorISA_SaISA_EEEppEv(ptr noundef nonnull align 8 dereferenceable(8) %__begin231) #16
  br label %for.cond37

for.end70:                                        ; preds = %for.cond37
  %blobs71 = getelementptr inbounds %"class.Assimp::BlobIOSystem", ptr %this1, i32 0, i32 3
  call void @_ZNSt6vectorISt4pairINSt7__cxx1112basic_stringIcSt11char_traitsIcESaIcEEEP16aiExportDataBlobESaIS9_EE5clearEv(ptr noundef nonnull align 8 dereferenceable(24) %blobs71) #16
  %44 = load ptr, ptr %master, align 8
  store ptr %44, ptr %retval, align 8
  store i32 1, ptr %cleanup.dest.slot, align 4
  br label %cleanup

cleanup:                                          ; preds = %for.end70, %invoke.cont27
  call void @_ZNSt7__cxx1112basic_stringIcSt11char_traitsIcESaIcEED1Ev(ptr noundef nonnull align 8 dereferenceable(32) %magicName) #16
  %45 = load ptr, ptr %retval, align 8
  ret ptr %45

ehcleanup72:                                      ; preds = %lpad64, %cleanup.done21, %lpad2
  call void @_ZNSt7__cxx1112basic_stringIcSt11char_traitsIcESaIcEED1Ev(ptr noundef nonnull align 8 dereferenceable(32) %magicName) #16
  br label %eh.resume

eh.resume:                                        ; preds = %ehcleanup72, %lpad
  %exn = load ptr, ptr %exn.slot, align 8
  %sel = load i32, ptr %ehselector.slot, align 4
  %lpad.val = insertvalue { ptr, i32 } poison, ptr %exn, 0
  %lpad.val73 = insertvalue { ptr, i32 } %lpad.val, i32 %sel, 1
  resume { ptr, i32 } %lpad.val73
}

declare noundef zeroext i1 @_ZN6Assimp24MakeVerboseFormatProcess15IsVerboseFormatEPK7aiScene(ptr noundef) #7

declare noundef nonnull align 8 dereferenceable(32) ptr @_ZNSt7__cxx1112basic_stringIcSt11char_traitsIcESaIcEEaSEPKc(ptr noundef nonnull align 8 dereferenceable(32), ptr noundef) #7

; Function Attrs: mustprogress nounwind uwtable
define linkonce_odr noundef i64 @_ZNKSt6vectorIN6Assimp8Exporter17ExportFormatEntryESaIS2_EE4sizeEv(ptr noundef nonnull align 8 dereferenceable(24) %this) #0 comdat align 2 {
entry:
  %this.addr = alloca ptr, align 8
  store ptr %this, ptr %this.addr, align 8
  %this1 = load ptr, ptr %this.addr, align 8
  %_M_impl = getelementptr inbounds %"struct.std::_Vector_base.17", ptr %this1, i32 0, i32 0
  %_M_finish = getelementptr inbounds %"struct.std::_Vector_base<Assimp::Exporter::ExportFormatEntry, std::allocator<Assimp::Exporter::ExportFormatEntry>>::_Vector_impl_data", ptr %_M_impl, i32 0, i32 1
  %0 = load ptr, ptr %_M_finish, align 8
  %_M_impl2 = getelementptr inbounds %"struct.std::_Vector_base.17", ptr %this1, i32 0, i32 0
  %_M_start = getelementptr inbounds %"struct.std::_Vector_base<Assimp::Exporter::ExportFormatEntry, std::allocator<Assimp::Exporter::ExportFormatEntry>>::_Vector_impl_data", ptr %_M_impl2, i32 0, i32 0
  %1 = load ptr, ptr %_M_start, align 8
  %sub.ptr.lhs.cast = ptrtoint ptr %0 to i64
  %sub.ptr.rhs.cast = ptrtoint ptr %1 to i64
  %sub.ptr.sub = sub i64 %sub.ptr.lhs.cast, %sub.ptr.rhs.cast
  %sub.ptr.div = sdiv exact i64 %sub.ptr.sub, 40
  ret i64 %sub.ptr.div
}

; Function Attrs: mustprogress nounwind uwtable
define linkonce_odr noundef nonnull align 8 dereferenceable(36) ptr @_ZNSt6vectorIN6Assimp8Exporter17ExportFormatEntryESaIS2_EEixEm(ptr noundef nonnull align 8 dereferenceable(24) %this, i64 noundef %__n) #0 comdat align 2 {
entry:
  %this.addr = alloca ptr, align 8
  %__n.addr = alloca i64, align 8
  store ptr %this, ptr %this.addr, align 8
  store i64 %__n, ptr %__n.addr, align 8
  %this1 = load ptr, ptr %this.addr, align 8
  %_M_impl = getelementptr inbounds %"struct.std::_Vector_base.17", ptr %this1, i32 0, i32 0
  %_M_start = getelementptr inbounds %"struct.std::_Vector_base<Assimp::Exporter::ExportFormatEntry, std::allocator<Assimp::Exporter::ExportFormatEntry>>::_Vector_impl_data", ptr %_M_impl, i32 0, i32 0
  %0 = load ptr, ptr %_M_start, align 8
  %1 = load i64, ptr %__n.addr, align 8
  %add.ptr = getelementptr inbounds %"struct.Assimp::Exporter::ExportFormatEntry", ptr %0, i64 %1
  ret ptr %add.ptr
}

; Function Attrs: nounwind willreturn memory(read)
declare i32 @strcmp(ptr noundef, ptr noundef) #9

declare void @_ZN6Assimp13SceneCombiner9CopySceneEPP7aiScenePKS1_b(ptr noundef, ptr noundef, i1 noundef zeroext) #7

; Function Attrs: mustprogress nounwind uwtable
define linkonce_odr hidden void @_ZNSt10unique_ptrI7aiSceneSt14default_deleteIS0_EEC2IS2_vEEPS0_(ptr noundef nonnull align 8 dereferenceable(8) %this, ptr noundef %__p) unnamed_addr #0 comdat align 2 personality ptr @__gxx_personality_v0 {
entry:
  %this.addr = alloca ptr, align 8
  %__p.addr = alloca ptr, align 8
  store ptr %this, ptr %this.addr, align 8
  store ptr %__p, ptr %__p.addr, align 8
  %this1 = load ptr, ptr %this.addr, align 8
  %_M_t = getelementptr inbounds %"class.std::unique_ptr", ptr %this1, i32 0, i32 0
  %0 = load ptr, ptr %__p.addr, align 8
  invoke void @_ZNSt15__uniq_ptr_dataI7aiSceneSt14default_deleteIS0_ELb1ELb1EECI2St15__uniq_ptr_implIS0_S2_EEPS0_(ptr noundef nonnull align 8 dereferenceable(8) %_M_t, ptr noundef %0)
          to label %invoke.cont unwind label %terminate.lpad

invoke.cont:                                      ; preds = %entry
  ret void

terminate.lpad:                                   ; preds = %entry
  %1 = landingpad { ptr, i32 }
          catch ptr null
  %2 = extractvalue { ptr, i32 } %1, 0
  call void @__clang_call_terminate(ptr %2) #15
  unreachable
}

; Function Attrs: mustprogress nounwind uwtable
define linkonce_odr hidden noundef ptr @_ZN6Assimp9ScenePrivEPK7aiScene(ptr noundef %in) #0 comdat {
entry:
  %retval = alloca ptr, align 8
  %in.addr = alloca ptr, align 8
  store ptr %in, ptr %in.addr, align 8
  %0 = load ptr, ptr %in.addr, align 8
  %cmp = icmp eq ptr null, %0
  br i1 %cmp, label %if.then, label %if.end

if.then:                                          ; preds = %entry
  store ptr null, ptr %retval, align 8
  br label %return

if.end:                                           ; preds = %entry
  %1 = load ptr, ptr %in.addr, align 8
  %mPrivate = getelementptr inbounds %struct.aiScene, ptr %1, i32 0, i32 18
  %2 = load ptr, ptr %mPrivate, align 8
  store ptr %2, ptr %retval, align 8
  br label %return

return:                                           ; preds = %if.end, %if.then
  %3 = load ptr, ptr %retval, align 8
  ret ptr %3
}

; Function Attrs: mustprogress nounwind uwtable
define linkonce_odr noundef i64 @_ZNKSt6vectorIPN6Assimp11BaseProcessESaIS2_EE4sizeEv(ptr noundef nonnull align 8 dereferenceable(24) %this) #0 comdat align 2 {
entry:
  %this.addr = alloca ptr, align 8
  store ptr %this, ptr %this.addr, align 8
  %this1 = load ptr, ptr %this.addr, align 8
  %_M_impl = getelementptr inbounds %"struct.std::_Vector_base.12", ptr %this1, i32 0, i32 0
  %_M_finish = getelementptr inbounds %"struct.std::_Vector_base<Assimp::BaseProcess *, std::allocator<Assimp::BaseProcess *>>::_Vector_impl_data", ptr %_M_impl, i32 0, i32 1
  %0 = load ptr, ptr %_M_finish, align 8
  %_M_impl2 = getelementptr inbounds %"struct.std::_Vector_base.12", ptr %this1, i32 0, i32 0
  %_M_start = getelementptr inbounds %"struct.std::_Vector_base<Assimp::BaseProcess *, std::allocator<Assimp::BaseProcess *>>::_Vector_impl_data", ptr %_M_impl2, i32 0, i32 0
  %1 = load ptr, ptr %_M_start, align 8
  %sub.ptr.lhs.cast = ptrtoint ptr %0 to i64
  %sub.ptr.rhs.cast = ptrtoint ptr %1 to i64
  %sub.ptr.sub = sub i64 %sub.ptr.lhs.cast, %sub.ptr.rhs.cast
  %sub.ptr.div = sdiv exact i64 %sub.ptr.sub, 8
  ret i64 %sub.ptr.div
}

; Function Attrs: mustprogress nounwind uwtable
define linkonce_odr noundef nonnull align 8 dereferenceable(8) ptr @_ZNSt6vectorIPN6Assimp11BaseProcessESaIS2_EEixEm(ptr noundef nonnull align 8 dereferenceable(24) %this, i64 noundef %__n) #0 comdat align 2 {
entry:
  %this.addr = alloca ptr, align 8
  %__n.addr = alloca i64, align 8
  store ptr %this, ptr %this.addr, align 8
  store i64 %__n, ptr %__n.addr, align 8
  %this1 = load ptr, ptr %this.addr, align 8
  %_M_impl = getelementptr inbounds %"struct.std::_Vector_base.12", ptr %this1, i32 0, i32 0
  %_M_start = getelementptr inbounds %"struct.std::_Vector_base<Assimp::BaseProcess *, std::allocator<Assimp::BaseProcess *>>::_Vector_impl_data", ptr %_M_impl, i32 0, i32 0
  %0 = load ptr, ptr %_M_start, align 8
  %1 = load i64, ptr %__n.addr, align 8
  %add.ptr = getelementptr inbounds ptr, ptr %0, i64 %1
  ret ptr %add.ptr
}

declare noundef ptr @_ZN6Assimp13DefaultLogger3getEv() #7

declare void @_ZN6Assimp6Logger5debugEPKc(ptr noundef nonnull align 8 dereferenceable(12), ptr noundef) #7

; Function Attrs: mustprogress nounwind uwtable
define linkonce_odr hidden void @_ZN6Assimp24MakeVerboseFormatProcessC2Ev(ptr noundef nonnull align 8 dereferenceable(24) %this) unnamed_addr #0 comdat align 2 {
entry:
  %this.addr = alloca ptr, align 8
  store ptr %this, ptr %this.addr, align 8
  %this1 = load ptr, ptr %this.addr, align 8
  call void @_ZN6Assimp11BaseProcessC2Ev(ptr noundef nonnull align 8 dereferenceable(24) %this1) #16
  store ptr getelementptr inbounds ({ [8 x ptr] }, ptr @_ZTVN6Assimp24MakeVerboseFormatProcessE, i32 0, inrange i32 0, i32 2), ptr %this1, align 8
  ret void
}

declare void @_ZN6Assimp24MakeVerboseFormatProcess7ExecuteEP7aiScene(ptr noundef nonnull align 8 dereferenceable(24), ptr noundef) unnamed_addr #7

; Function Attrs: mustprogress nounwind uwtable
define linkonce_odr hidden noundef ptr @_ZNKSt10unique_ptrI7aiSceneSt14default_deleteIS0_EE3getEv(ptr noundef nonnull align 8 dereferenceable(8) %this) #0 comdat align 2 {
entry:
  %this.addr = alloca ptr, align 8
  store ptr %this, ptr %this.addr, align 8
  %this1 = load ptr, ptr %this.addr, align 8
  %_M_t = getelementptr inbounds %"class.std::unique_ptr", ptr %this1, i32 0, i32 0
  %call = call noundef ptr @_ZNKSt15__uniq_ptr_implI7aiSceneSt14default_deleteIS0_EE6_M_ptrEv(ptr noundef nonnull align 8 dereferenceable(8) %_M_t) #16
  ret ptr %call
}

; Function Attrs: mustprogress nounwind uwtable
define linkonce_odr hidden void @_ZN6Assimp24MakeVerboseFormatProcessD2Ev(ptr noundef nonnull align 8 dereferenceable(24) %this) unnamed_addr #0 comdat align 2 {
entry:
  %this.addr = alloca ptr, align 8
  store ptr %this, ptr %this.addr, align 8
  %this1 = load ptr, ptr %this.addr, align 8
  call void @_ZN6Assimp11BaseProcessD2Ev(ptr noundef nonnull align 8 dereferenceable(24) %this1) #16
  ret void
}

; Function Attrs: mustprogress nounwind uwtable
define linkonce_odr hidden void @_ZN6Assimp23FlipWindingOrderProcessC2Ev(ptr noundef nonnull align 8 dereferenceable(24) %this) unnamed_addr #0 comdat align 2 {
entry:
  %this.addr = alloca ptr, align 8
  store ptr %this, ptr %this.addr, align 8
  %this1 = load ptr, ptr %this.addr, align 8
  call void @_ZN6Assimp11BaseProcessC2Ev(ptr noundef nonnull align 8 dereferenceable(24) %this1) #16
  store ptr getelementptr inbounds ({ [8 x ptr] }, ptr @_ZTVN6Assimp23FlipWindingOrderProcessE, i32 0, inrange i32 0, i32 2), ptr %this1, align 8
  ret void
}

declare noundef zeroext i1 @_ZNK6Assimp23FlipWindingOrderProcess8IsActiveEj(ptr noundef nonnull align 8 dereferenceable(24), i32 noundef) unnamed_addr #7

declare void @_ZN6Assimp23FlipWindingOrderProcess7ExecuteEP7aiScene(ptr noundef nonnull align 8 dereferenceable(24), ptr noundef) unnamed_addr #7

; Function Attrs: mustprogress nounwind uwtable
define linkonce_odr hidden void @_ZN6Assimp23FlipWindingOrderProcessD2Ev(ptr noundef nonnull align 8 dereferenceable(24) %this) unnamed_addr #0 comdat align 2 {
entry:
  %this.addr = alloca ptr, align 8
  store ptr %this, ptr %this.addr, align 8
  %this1 = load ptr, ptr %this.addr, align 8
  call void @_ZN6Assimp11BaseProcessD2Ev(ptr noundef nonnull align 8 dereferenceable(24) %this1) #16
  ret void
}

declare void @_ZN6Assimp14FlipUVsProcessC1Ev(ptr noundef nonnull align 8 dereferenceable(24)) unnamed_addr #7

declare noundef zeroext i1 @_ZNK6Assimp14FlipUVsProcess8IsActiveEj(ptr noundef nonnull align 8 dereferenceable(24), i32 noundef) unnamed_addr #7

declare void @_ZN6Assimp14FlipUVsProcess7ExecuteEP7aiScene(ptr noundef nonnull align 8 dereferenceable(24), ptr noundef) unnamed_addr #7

; Function Attrs: nounwind
declare void @_ZN6Assimp14FlipUVsProcessD1Ev(ptr noundef nonnull align 8 dereferenceable(24)) unnamed_addr #5

; Function Attrs: mustprogress nounwind uwtable
define linkonce_odr hidden void @_ZN6Assimp21MakeLeftHandedProcessC2Ev(ptr noundef nonnull align 8 dereferenceable(24) %this) unnamed_addr #0 comdat align 2 {
entry:
  %this.addr = alloca ptr, align 8
  store ptr %this, ptr %this.addr, align 8
  %this1 = load ptr, ptr %this.addr, align 8
  call void @_ZN6Assimp11BaseProcessC2Ev(ptr noundef nonnull align 8 dereferenceable(24) %this1) #16
  store ptr getelementptr inbounds ({ [8 x ptr] }, ptr @_ZTVN6Assimp21MakeLeftHandedProcessE, i32 0, inrange i32 0, i32 2), ptr %this1, align 8
  ret void
}

declare noundef zeroext i1 @_ZNK6Assimp21MakeLeftHandedProcess8IsActiveEj(ptr noundef nonnull align 8 dereferenceable(24), i32 noundef) unnamed_addr #7

declare void @_ZN6Assimp21MakeLeftHandedProcess7ExecuteEP7aiScene(ptr noundef nonnull align 8 dereferenceable(24), ptr noundef) unnamed_addr #7

; Function Attrs: mustprogress nounwind uwtable
define linkonce_odr hidden void @_ZN6Assimp21MakeLeftHandedProcessD2Ev(ptr noundef nonnull align 8 dereferenceable(24) %this) unnamed_addr #0 comdat align 2 {
entry:
  %this.addr = alloca ptr, align 8
  store ptr %this, ptr %this.addr, align 8
  %this1 = load ptr, ptr %this.addr, align 8
  call void @_ZN6Assimp11BaseProcessD2Ev(ptr noundef nonnull align 8 dereferenceable(24) %this1) #16
  ret void
}

; Function Attrs: mustprogress uwtable
define linkonce_odr noundef zeroext i1 @_ZNK6Assimp16ExportProperties15GetPropertyBoolEPKcb(ptr noundef nonnull align 8 dereferenceable(240) %this, ptr noundef %szName, i1 noundef zeroext %bErrorReturn) #2 comdat align 2 {
entry:
  %this.addr = alloca ptr, align 8
  %szName.addr = alloca ptr, align 8
  %bErrorReturn.addr = alloca i8, align 1
  store ptr %this, ptr %this.addr, align 8
  store ptr %szName, ptr %szName.addr, align 8
  %frombool = zext i1 %bErrorReturn to i8
  store i8 %frombool, ptr %bErrorReturn.addr, align 1
  %this1 = load ptr, ptr %this.addr, align 8
  %0 = load ptr, ptr %szName.addr, align 8
  %1 = load i8, ptr %bErrorReturn.addr, align 1
  %tobool = trunc i8 %1 to i1
  %conv = zext i1 %tobool to i32
  %call = call noundef i32 @_ZNK6Assimp16ExportProperties18GetPropertyIntegerEPKci(ptr noundef nonnull align 8 dereferenceable(240) %this1, ptr noundef %0, i32 noundef %conv)
  %cmp = icmp ne i32 %call, 0
  ret i1 %cmp
}

; Function Attrs: nounwind memory(read)
declare ptr @__dynamic_cast(ptr, ptr, ptr, i64) #10

; Function Attrs: mustprogress nounwind uwtable
define linkonce_odr hidden noundef ptr @_ZN6Assimp9ScenePrivEP7aiScene(ptr noundef %in) #0 comdat {
entry:
  %retval = alloca ptr, align 8
  %in.addr = alloca ptr, align 8
  store ptr %in, ptr %in.addr, align 8
  %0 = load ptr, ptr %in.addr, align 8
  %cmp = icmp eq ptr null, %0
  br i1 %cmp, label %if.then, label %if.end

if.then:                                          ; preds = %entry
  store ptr null, ptr %retval, align 8
  br label %return

if.end:                                           ; preds = %entry
  %1 = load ptr, ptr %in.addr, align 8
  %mPrivate = getelementptr inbounds %struct.aiScene, ptr %1, i32 0, i32 18
  %2 = load ptr, ptr %mPrivate, align 8
  store ptr %2, ptr %retval, align 8
  br label %return

return:                                           ; preds = %if.end, %if.then
  %3 = load ptr, ptr %retval, align 8
  ret ptr %3
}

; Function Attrs: mustprogress nounwind uwtable
define linkonce_odr void @_ZN6Assimp19JoinVerticesProcessC2Ev(ptr noundef nonnull align 8 dereferenceable(24) %this) unnamed_addr #0 comdat align 2 {
entry:
  %this.addr = alloca ptr, align 8
  store ptr %this, ptr %this.addr, align 8
  %this1 = load ptr, ptr %this.addr, align 8
  call void @_ZN6Assimp11BaseProcessC2Ev(ptr noundef nonnull align 8 dereferenceable(24) %this1) #16
  store ptr getelementptr inbounds ({ [8 x ptr] }, ptr @_ZTVN6Assimp19JoinVerticesProcessE, i32 0, inrange i32 0, i32 2), ptr %this1, align 8
  ret void
}

declare void @_ZN6Assimp19JoinVerticesProcess7ExecuteEP7aiScene(ptr noundef nonnull align 8 dereferenceable(24), ptr noundef) unnamed_addr #7

; Function Attrs: mustprogress nounwind uwtable
define linkonce_odr void @_ZN6Assimp19JoinVerticesProcessD2Ev(ptr noundef nonnull align 8 dereferenceable(24) %this) unnamed_addr #0 comdat align 2 {
entry:
  %this.addr = alloca ptr, align 8
  store ptr %this, ptr %this.addr, align 8
  %this1 = load ptr, ptr %this.addr, align 8
  call void @_ZN6Assimp11BaseProcessD2Ev(ptr noundef nonnull align 8 dereferenceable(24) %this1) #16
  ret void
}

; Function Attrs: mustprogress uwtable
define linkonce_odr noundef zeroext i1 @_ZN6Assimp16ExportProperties15SetPropertyBoolEPKcb(ptr noundef nonnull align 8 dereferenceable(240) %this, ptr noundef %szName, i1 noundef zeroext %value) #2 comdat align 2 {
entry:
  %this.addr = alloca ptr, align 8
  %szName.addr = alloca ptr, align 8
  %value.addr = alloca i8, align 1
  store ptr %this, ptr %this.addr, align 8
  store ptr %szName, ptr %szName.addr, align 8
  %frombool = zext i1 %value to i8
  store i8 %frombool, ptr %value.addr, align 1
  %this1 = load ptr, ptr %this.addr, align 8
  %0 = load ptr, ptr %szName.addr, align 8
  %1 = load i8, ptr %value.addr, align 1
  %tobool = trunc i8 %1 to i1
  %conv = zext i1 %tobool to i32
  %call = call noundef zeroext i1 @_ZN6Assimp16ExportProperties18SetPropertyIntegerEPKci(ptr noundef nonnull align 8 dereferenceable(240) %this1, ptr noundef %0, i32 noundef %conv)
  ret i1 %call
}

; Function Attrs: mustprogress nounwind uwtable
define linkonce_odr void @_ZN6Assimp16ExportPropertiesD2Ev(ptr noundef nonnull align 8 dereferenceable(240) %this) unnamed_addr #0 comdat align 2 {
entry:
  %this.addr = alloca ptr, align 8
  store ptr %this, ptr %this.addr, align 8
  %this1 = load ptr, ptr %this.addr, align 8
  %mCallbackProperties = getelementptr inbounds %"class.Assimp::ExportProperties", ptr %this1, i32 0, i32 4
  call void @_ZNSt3mapIjSt8functionIFPvS1_EESt4lessIjESaISt4pairIKjS3_EEED2Ev(ptr noundef nonnull align 8 dereferenceable(48) %mCallbackProperties) #16
  %mMatrixProperties = getelementptr inbounds %"class.Assimp::ExportProperties", ptr %this1, i32 0, i32 3
  call void @_ZNSt3mapIj12aiMatrix4x4tIfESt4lessIjESaISt4pairIKjS1_EEED2Ev(ptr noundef nonnull align 8 dereferenceable(48) %mMatrixProperties) #16
  %mStringProperties = getelementptr inbounds %"class.Assimp::ExportProperties", ptr %this1, i32 0, i32 2
  call void @_ZNSt3mapIjNSt7__cxx1112basic_stringIcSt11char_traitsIcESaIcEEESt4lessIjESaISt4pairIKjS5_EEED2Ev(ptr noundef nonnull align 8 dereferenceable(48) %mStringProperties) #16
  %mFloatProperties = getelementptr inbounds %"class.Assimp::ExportProperties", ptr %this1, i32 0, i32 1
  call void @_ZNSt3mapIjfSt4lessIjESaISt4pairIKjfEEED2Ev(ptr noundef nonnull align 8 dereferenceable(48) %mFloatProperties) #16
  %mIntProperties = getelementptr inbounds %"class.Assimp::ExportProperties", ptr %this1, i32 0, i32 0
  call void @_ZNSt3mapIjiSt4lessIjESaISt4pairIKjiEEED2Ev(ptr noundef nonnull align 8 dereferenceable(48) %mIntProperties) #16
  ret void
}

; Function Attrs: mustprogress nounwind uwtable
define linkonce_odr hidden void @_ZNSt10unique_ptrI7aiSceneSt14default_deleteIS0_EED2Ev(ptr noundef nonnull align 8 dereferenceable(8) %this) unnamed_addr #0 comdat align 2 personality ptr @__gxx_personality_v0 {
entry:
  %this.addr = alloca ptr, align 8
  %__ptr = alloca ptr, align 8
  store ptr %this, ptr %this.addr, align 8
  %this1 = load ptr, ptr %this.addr, align 8
  %_M_t = getelementptr inbounds %"class.std::unique_ptr", ptr %this1, i32 0, i32 0
  %call = call noundef nonnull align 8 dereferenceable(8) ptr @_ZNSt15__uniq_ptr_implI7aiSceneSt14default_deleteIS0_EE6_M_ptrEv(ptr noundef nonnull align 8 dereferenceable(8) %_M_t) #16
  store ptr %call, ptr %__ptr, align 8
  %0 = load ptr, ptr %__ptr, align 8
  %1 = load ptr, ptr %0, align 8
  %cmp = icmp ne ptr %1, null
  br i1 %cmp, label %if.then, label %if.end

if.then:                                          ; preds = %entry
  %call2 = call noundef nonnull align 1 dereferenceable(1) ptr @_ZNSt10unique_ptrI7aiSceneSt14default_deleteIS0_EE11get_deleterEv(ptr noundef nonnull align 8 dereferenceable(8) %this1) #16
  %2 = load ptr, ptr %__ptr, align 8
  %3 = load ptr, ptr %2, align 8
  invoke void @_ZNKSt14default_deleteI7aiSceneEclEPS0_(ptr noundef nonnull align 1 dereferenceable(1) %call2, ptr noundef %3)
          to label %invoke.cont unwind label %terminate.lpad

invoke.cont:                                      ; preds = %if.then
  br label %if.end

if.end:                                           ; preds = %invoke.cont, %entry
  %4 = load ptr, ptr %__ptr, align 8
  store ptr null, ptr %4, align 8
  ret void

terminate.lpad:                                   ; preds = %if.then
  %5 = landingpad { ptr, i32 }
          catch ptr null
  %6 = extractvalue { ptr, i32 } %5, 0
  call void @__clang_call_terminate(ptr %6) #15
  unreachable
}

; Function Attrs: nounwind memory(none)
declare i32 @llvm.eh.typeid.for(ptr) #11

declare void @__cxa_end_catch()

; Function Attrs: mustprogress uwtable
define linkonce_odr void @_ZStplIcSt11char_traitsIcESaIcEENSt7__cxx1112basic_stringIT_T0_T1_EEOS8_PKS5_(ptr noalias sret(%"class.std::__cxx11::basic_string") align 8 %agg.result, ptr noundef nonnull align 8 dereferenceable(32) %__lhs, ptr noundef %__rhs) #2 comdat {
entry:
  %result.ptr = alloca ptr, align 8
  %__lhs.addr = alloca ptr, align 8
  %__rhs.addr = alloca ptr, align 8
  store ptr %agg.result, ptr %result.ptr, align 8
  store ptr %__lhs, ptr %__lhs.addr, align 8
  store ptr %__rhs, ptr %__rhs.addr, align 8
  %0 = load ptr, ptr %__lhs.addr, align 8
  %1 = load ptr, ptr %__rhs.addr, align 8
  %call = call noundef nonnull align 8 dereferenceable(32) ptr @_ZNSt7__cxx1112basic_stringIcSt11char_traitsIcESaIcEE6appendEPKc(ptr noundef nonnull align 8 dereferenceable(32) %0, ptr noundef %1)
  call void @_ZNSt7__cxx1112basic_stringIcSt11char_traitsIcESaIcEEC1EOS4_(ptr noundef nonnull align 8 dereferenceable(32) %agg.result, ptr noundef nonnull align 8 dereferenceable(32) %call) #16
  ret void
}

; Function Attrs: nounwind
declare noundef nonnull align 8 dereferenceable(32) ptr @_ZNSt7__cxx1112basic_stringIcSt11char_traitsIcESaIcEEaSEOS4_(ptr noundef nonnull align 8 dereferenceable(32), ptr noundef nonnull align 8 dereferenceable(32)) #5

; Function Attrs: mustprogress uwtable
define linkonce_odr hidden noundef i32 @_ZNK18ExceptionSwallowerI8aiReturnEclEv(ptr noundef nonnull align 1 dereferenceable(1) %this) #2 comdat align 2 personality ptr @__gxx_personality_v0 {
entry:
  %retval = alloca i32, align 4
  %this.addr = alloca ptr, align 8
  %exn.slot = alloca ptr, align 8
  %ehselector.slot = alloca i32, align 4
  %0 = alloca ptr, align 8
  store ptr %this, ptr %this.addr, align 8
  invoke void @__cxa_rethrow() #19
          to label %unreachable unwind label %lpad

lpad:                                             ; preds = %entry
  %1 = landingpad { ptr, i32 }
          catch ptr @_ZTISt9bad_alloc
          catch ptr null
  %2 = extractvalue { ptr, i32 } %1, 0
  store ptr %2, ptr %exn.slot, align 8
  %3 = extractvalue { ptr, i32 } %1, 1
  store i32 %3, ptr %ehselector.slot, align 4
  br label %catch.dispatch

catch.dispatch:                                   ; preds = %lpad
  %sel = load i32, ptr %ehselector.slot, align 4
  %4 = call i32 @llvm.eh.typeid.for(ptr @_ZTISt9bad_alloc) #16
  %matches = icmp eq i32 %sel, %4
  br i1 %matches, label %catch2, label %catch

catch2:                                           ; preds = %catch.dispatch
  %exn3 = load ptr, ptr %exn.slot, align 8
  %5 = call ptr @__cxa_begin_catch(ptr %exn3) #16
  store ptr %5, ptr %0, align 8
  store i32 -3, ptr %retval, align 4
  call void @__cxa_end_catch()
  br label %return

catch:                                            ; preds = %catch.dispatch
  %exn = load ptr, ptr %exn.slot, align 8
  %6 = call ptr @__cxa_begin_catch(ptr %exn) #16
  store i32 -1, ptr %retval, align 4
  call void @__cxa_end_catch()
  br label %return

try.cont:                                         ; No predecessors!
  call void @llvm.trap()
  unreachable

return:                                           ; preds = %catch, %catch2
  %7 = load i32, ptr %retval, align 4
  ret i32 %7

unreachable:                                      ; preds = %entry
  unreachable
}

; Function Attrs: mustprogress nounwind uwtable
define noundef ptr @_ZNK6Assimp8Exporter14GetErrorStringEv(ptr noundef nonnull align 8 dereferenceable(8) %this) #0 align 2 {
entry:
  %this.addr = alloca ptr, align 8
  store ptr %this, ptr %this.addr, align 8
  %this1 = load ptr, ptr %this.addr, align 8
  %pimpl = getelementptr inbounds %"class.Assimp::Exporter", ptr %this1, i32 0, i32 0
  %0 = load ptr, ptr %pimpl, align 8
  %mError = getelementptr inbounds %"class.Assimp::ExporterPimpl", ptr %0, i32 0, i32 6
  %call = call noundef ptr @_ZNKSt7__cxx1112basic_stringIcSt11char_traitsIcESaIcEE5c_strEv(ptr noundef nonnull align 8 dereferenceable(32) %mError) #16
  ret ptr %call
}

; Function Attrs: nounwind
declare noundef ptr @_ZNKSt7__cxx1112basic_stringIcSt11char_traitsIcESaIcEE5c_strEv(ptr noundef nonnull align 8 dereferenceable(32)) #5

; Function Attrs: mustprogress nounwind uwtable
define noundef ptr @_ZNK6Assimp8Exporter7GetBlobEv(ptr noundef nonnull align 8 dereferenceable(8) %this) #0 align 2 {
entry:
  %this.addr = alloca ptr, align 8
  store ptr %this, ptr %this.addr, align 8
  %this1 = load ptr, ptr %this.addr, align 8
  %pimpl = getelementptr inbounds %"class.Assimp::Exporter", ptr %this1, i32 0, i32 0
  %0 = load ptr, ptr %pimpl, align 8
  %blob = getelementptr inbounds %"class.Assimp::ExporterPimpl", ptr %0, i32 0, i32 0
  %1 = load ptr, ptr %blob, align 8
  ret ptr %1
}

; Function Attrs: mustprogress nounwind uwtable
define noundef ptr @_ZNK6Assimp8Exporter15GetOrphanedBlobEv(ptr noundef nonnull align 8 dereferenceable(8) %this) #0 align 2 {
entry:
  %this.addr = alloca ptr, align 8
  %tmp = alloca ptr, align 8
  store ptr %this, ptr %this.addr, align 8
  %this1 = load ptr, ptr %this.addr, align 8
  %pimpl = getelementptr inbounds %"class.Assimp::Exporter", ptr %this1, i32 0, i32 0
  %0 = load ptr, ptr %pimpl, align 8
  %blob = getelementptr inbounds %"class.Assimp::ExporterPimpl", ptr %0, i32 0, i32 0
  %1 = load ptr, ptr %blob, align 8
  store ptr %1, ptr %tmp, align 8
  %pimpl2 = getelementptr inbounds %"class.Assimp::Exporter", ptr %this1, i32 0, i32 0
  %2 = load ptr, ptr %pimpl2, align 8
  %blob3 = getelementptr inbounds %"class.Assimp::ExporterPimpl", ptr %2, i32 0, i32 0
  store ptr null, ptr %blob3, align 8
  %3 = load ptr, ptr %tmp, align 8
  ret ptr %3
}

; Function Attrs: mustprogress nounwind uwtable
define noundef i64 @_ZNK6Assimp8Exporter20GetExportFormatCountEv(ptr noundef nonnull align 8 dereferenceable(8) %this) #0 align 2 {
entry:
  %this.addr = alloca ptr, align 8
  store ptr %this, ptr %this.addr, align 8
  %this1 = load ptr, ptr %this.addr, align 8
  %pimpl = getelementptr inbounds %"class.Assimp::Exporter", ptr %this1, i32 0, i32 0
  %0 = load ptr, ptr %pimpl, align 8
  %mExporters = getelementptr inbounds %"class.Assimp::ExporterPimpl", ptr %0, i32 0, i32 7
  %call = call noundef i64 @_ZNKSt6vectorIN6Assimp8Exporter17ExportFormatEntryESaIS2_EE4sizeEv(ptr noundef nonnull align 8 dereferenceable(24) %mExporters) #16
  ret i64 %call
}

; Function Attrs: mustprogress nounwind uwtable
define noundef ptr @_ZNK6Assimp8Exporter26GetExportFormatDescriptionEm(ptr noundef nonnull align 8 dereferenceable(8) %this, i64 noundef %index) #0 align 2 {
entry:
  %retval = alloca ptr, align 8
  %this.addr = alloca ptr, align 8
  %index.addr = alloca i64, align 8
  store ptr %this, ptr %this.addr, align 8
  store i64 %index, ptr %index.addr, align 8
  %this1 = load ptr, ptr %this.addr, align 8
  %0 = load i64, ptr %index.addr, align 8
  %call = call noundef i64 @_ZNK6Assimp8Exporter20GetExportFormatCountEv(ptr noundef nonnull align 8 dereferenceable(8) %this1)
  %cmp = icmp uge i64 %0, %call
  br i1 %cmp, label %if.then, label %if.end

if.then:                                          ; preds = %entry
  store ptr null, ptr %retval, align 8
  br label %return

if.end:                                           ; preds = %entry
  %1 = load i64, ptr %index.addr, align 8
  %pimpl = getelementptr inbounds %"class.Assimp::Exporter", ptr %this1, i32 0, i32 0
  %2 = load ptr, ptr %pimpl, align 8
  %mExporters = getelementptr inbounds %"class.Assimp::ExporterPimpl", ptr %2, i32 0, i32 7
  %call2 = call noundef i64 @_ZNKSt6vectorIN6Assimp8Exporter17ExportFormatEntryESaIS2_EE4sizeEv(ptr noundef nonnull align 8 dereferenceable(24) %mExporters) #16
  %cmp3 = icmp ult i64 %1, %call2
  br i1 %cmp3, label %if.then4, label %if.end8

if.then4:                                         ; preds = %if.end
  %pimpl5 = getelementptr inbounds %"class.Assimp::Exporter", ptr %this1, i32 0, i32 0
  %3 = load ptr, ptr %pimpl5, align 8
  %mExporters6 = getelementptr inbounds %"class.Assimp::ExporterPimpl", ptr %3, i32 0, i32 7
  %4 = load i64, ptr %index.addr, align 8
  %call7 = call noundef nonnull align 8 dereferenceable(36) ptr @_ZNSt6vectorIN6Assimp8Exporter17ExportFormatEntryESaIS2_EEixEm(ptr noundef nonnull align 8 dereferenceable(24) %mExporters6, i64 noundef %4) #16
  %mDescription = getelementptr inbounds %"struct.Assimp::Exporter::ExportFormatEntry", ptr %call7, i32 0, i32 0
  store ptr %mDescription, ptr %retval, align 8
  br label %return

if.end8:                                          ; preds = %if.end
  %pimpl9 = getelementptr inbounds %"class.Assimp::Exporter", ptr %this1, i32 0, i32 0
  %5 = load ptr, ptr %pimpl9, align 8
  %mExporters10 = getelementptr inbounds %"class.Assimp::ExporterPimpl", ptr %5, i32 0, i32 7
  %6 = load i64, ptr %index.addr, align 8
  %call11 = call noundef nonnull align 8 dereferenceable(36) ptr @_ZNSt6vectorIN6Assimp8Exporter17ExportFormatEntryESaIS2_EEixEm(ptr noundef nonnull align 8 dereferenceable(24) %mExporters10, i64 noundef %6) #16
  %mDescription12 = getelementptr inbounds %"struct.Assimp::Exporter::ExportFormatEntry", ptr %call11, i32 0, i32 0
  store ptr %mDescription12, ptr %retval, align 8
  br label %return

return:                                           ; preds = %if.end8, %if.then4, %if.then
  %7 = load ptr, ptr %retval, align 8
  ret ptr %7
}

; Function Attrs: mustprogress uwtable
define noundef i32 @_ZN6Assimp8Exporter16RegisterExporterERKNS0_17ExportFormatEntryE(ptr noundef nonnull align 8 dereferenceable(8) %this, ptr noundef nonnull align 8 dereferenceable(36) %desc) #2 align 2 {
entry:
  %retval = alloca i32, align 4
  %this.addr = alloca ptr, align 8
  %desc.addr = alloca ptr, align 8
  %__range1 = alloca ptr, align 8
  %__begin1 = alloca %"class.__gnu_cxx::__normal_iterator", align 8
  %__end1 = alloca %"class.__gnu_cxx::__normal_iterator", align 8
  %e = alloca ptr, align 8
  store ptr %this, ptr %this.addr, align 8
  store ptr %desc, ptr %desc.addr, align 8
  %this1 = load ptr, ptr %this.addr, align 8
  %pimpl = getelementptr inbounds %"class.Assimp::Exporter", ptr %this1, i32 0, i32 0
  %0 = load ptr, ptr %pimpl, align 8
  %mExporters = getelementptr inbounds %"class.Assimp::ExporterPimpl", ptr %0, i32 0, i32 7
  store ptr %mExporters, ptr %__range1, align 8
  %1 = load ptr, ptr %__range1, align 8
  %call = call ptr @_ZNSt6vectorIN6Assimp8Exporter17ExportFormatEntryESaIS2_EE5beginEv(ptr noundef nonnull align 8 dereferenceable(24) %1) #16
  %coerce.dive = getelementptr inbounds %"class.__gnu_cxx::__normal_iterator", ptr %__begin1, i32 0, i32 0
  store ptr %call, ptr %coerce.dive, align 8
  %2 = load ptr, ptr %__range1, align 8
  %call2 = call ptr @_ZNSt6vectorIN6Assimp8Exporter17ExportFormatEntryESaIS2_EE3endEv(ptr noundef nonnull align 8 dereferenceable(24) %2) #16
  %coerce.dive3 = getelementptr inbounds %"class.__gnu_cxx::__normal_iterator", ptr %__end1, i32 0, i32 0
  store ptr %call2, ptr %coerce.dive3, align 8
  br label %for.cond

for.cond:                                         ; preds = %for.inc, %entry
  %call4 = call noundef zeroext i1 @_ZN9__gnu_cxxneIPN6Assimp8Exporter17ExportFormatEntryESt6vectorIS3_SaIS3_EEEEbRKNS_17__normal_iteratorIT_T0_EESD_(ptr noundef nonnull align 8 dereferenceable(8) %__begin1, ptr noundef nonnull align 8 dereferenceable(8) %__end1) #16
  br i1 %call4, label %for.body, label %for.end

for.body:                                         ; preds = %for.cond
  %call5 = call noundef nonnull align 8 dereferenceable(36) ptr @_ZNK9__gnu_cxx17__normal_iteratorIPN6Assimp8Exporter17ExportFormatEntryESt6vectorIS3_SaIS3_EEEdeEv(ptr noundef nonnull align 8 dereferenceable(8) %__begin1) #16
  store ptr %call5, ptr %e, align 8
  %3 = load ptr, ptr %e, align 8
  %mDescription = getelementptr inbounds %"struct.Assimp::Exporter::ExportFormatEntry", ptr %3, i32 0, i32 0
  %id = getelementptr inbounds %struct.aiExportFormatDesc, ptr %mDescription, i32 0, i32 0
  %4 = load ptr, ptr %id, align 8
  %5 = load ptr, ptr %desc.addr, align 8
  %mDescription6 = getelementptr inbounds %"struct.Assimp::Exporter::ExportFormatEntry", ptr %5, i32 0, i32 0
  %id7 = getelementptr inbounds %struct.aiExportFormatDesc, ptr %mDescription6, i32 0, i32 0
  %6 = load ptr, ptr %id7, align 8
  %call8 = call i32 @strcmp(ptr noundef %4, ptr noundef %6) #20
  %tobool = icmp ne i32 %call8, 0
  br i1 %tobool, label %if.end, label %if.then

if.then:                                          ; preds = %for.body
  store i32 -1, ptr %retval, align 4
  br label %return

if.end:                                           ; preds = %for.body
  br label %for.inc

for.inc:                                          ; preds = %if.end
  %call9 = call noundef nonnull align 8 dereferenceable(8) ptr @_ZN9__gnu_cxx17__normal_iteratorIPN6Assimp8Exporter17ExportFormatEntryESt6vectorIS3_SaIS3_EEEppEv(ptr noundef nonnull align 8 dereferenceable(8) %__begin1) #16
  br label %for.cond

for.end:                                          ; preds = %for.cond
  %pimpl10 = getelementptr inbounds %"class.Assimp::Exporter", ptr %this1, i32 0, i32 0
  %7 = load ptr, ptr %pimpl10, align 8
  %mExporters11 = getelementptr inbounds %"class.Assimp::ExporterPimpl", ptr %7, i32 0, i32 7
  %8 = load ptr, ptr %desc.addr, align 8
  call void @_ZNSt6vectorIN6Assimp8Exporter17ExportFormatEntryESaIS2_EE9push_backERKS2_(ptr noundef nonnull align 8 dereferenceable(24) %mExporters11, ptr noundef nonnull align 8 dereferenceable(36) %8)
  store i32 0, ptr %retval, align 4
  br label %return

return:                                           ; preds = %for.end, %if.then
  %9 = load i32, ptr %retval, align 4
  ret i32 %9
}

; Function Attrs: mustprogress nounwind uwtable
define linkonce_odr ptr @_ZNSt6vectorIN6Assimp8Exporter17ExportFormatEntryESaIS2_EE5beginEv(ptr noundef nonnull align 8 dereferenceable(24) %this) #0 comdat align 2 {
entry:
  %retval = alloca %"class.__gnu_cxx::__normal_iterator", align 8
  %this.addr = alloca ptr, align 8
  store ptr %this, ptr %this.addr, align 8
  %this1 = load ptr, ptr %this.addr, align 8
  %_M_impl = getelementptr inbounds %"struct.std::_Vector_base.17", ptr %this1, i32 0, i32 0
  %_M_start = getelementptr inbounds %"struct.std::_Vector_base<Assimp::Exporter::ExportFormatEntry, std::allocator<Assimp::Exporter::ExportFormatEntry>>::_Vector_impl_data", ptr %_M_impl, i32 0, i32 0
  call void @_ZN9__gnu_cxx17__normal_iteratorIPN6Assimp8Exporter17ExportFormatEntryESt6vectorIS3_SaIS3_EEEC2ERKS4_(ptr noundef nonnull align 8 dereferenceable(8) %retval, ptr noundef nonnull align 8 dereferenceable(8) %_M_start) #16
  %coerce.dive = getelementptr inbounds %"class.__gnu_cxx::__normal_iterator", ptr %retval, i32 0, i32 0
  %0 = load ptr, ptr %coerce.dive, align 8
  ret ptr %0
}

; Function Attrs: mustprogress nounwind uwtable
define linkonce_odr ptr @_ZNSt6vectorIN6Assimp8Exporter17ExportFormatEntryESaIS2_EE3endEv(ptr noundef nonnull align 8 dereferenceable(24) %this) #0 comdat align 2 {
entry:
  %retval = alloca %"class.__gnu_cxx::__normal_iterator", align 8
  %this.addr = alloca ptr, align 8
  store ptr %this, ptr %this.addr, align 8
  %this1 = load ptr, ptr %this.addr, align 8
  %_M_impl = getelementptr inbounds %"struct.std::_Vector_base.17", ptr %this1, i32 0, i32 0
  %_M_finish = getelementptr inbounds %"struct.std::_Vector_base<Assimp::Exporter::ExportFormatEntry, std::allocator<Assimp::Exporter::ExportFormatEntry>>::_Vector_impl_data", ptr %_M_impl, i32 0, i32 1
  call void @_ZN9__gnu_cxx17__normal_iteratorIPN6Assimp8Exporter17ExportFormatEntryESt6vectorIS3_SaIS3_EEEC2ERKS4_(ptr noundef nonnull align 8 dereferenceable(8) %retval, ptr noundef nonnull align 8 dereferenceable(8) %_M_finish) #16
  %coerce.dive = getelementptr inbounds %"class.__gnu_cxx::__normal_iterator", ptr %retval, i32 0, i32 0
  %0 = load ptr, ptr %coerce.dive, align 8
  ret ptr %0
}

; Function Attrs: mustprogress nounwind uwtable
define linkonce_odr noundef zeroext i1 @_ZN9__gnu_cxxneIPN6Assimp8Exporter17ExportFormatEntryESt6vectorIS3_SaIS3_EEEEbRKNS_17__normal_iteratorIT_T0_EESD_(ptr noundef nonnull align 8 dereferenceable(8) %__lhs, ptr noundef nonnull align 8 dereferenceable(8) %__rhs) #0 comdat {
entry:
  %__lhs.addr = alloca ptr, align 8
  %__rhs.addr = alloca ptr, align 8
  store ptr %__lhs, ptr %__lhs.addr, align 8
  store ptr %__rhs, ptr %__rhs.addr, align 8
  %0 = load ptr, ptr %__lhs.addr, align 8
  %call = call noundef nonnull align 8 dereferenceable(8) ptr @_ZNK9__gnu_cxx17__normal_iteratorIPN6Assimp8Exporter17ExportFormatEntryESt6vectorIS3_SaIS3_EEE4baseEv(ptr noundef nonnull align 8 dereferenceable(8) %0) #16
  %1 = load ptr, ptr %call, align 8
  %2 = load ptr, ptr %__rhs.addr, align 8
  %call1 = call noundef nonnull align 8 dereferenceable(8) ptr @_ZNK9__gnu_cxx17__normal_iteratorIPN6Assimp8Exporter17ExportFormatEntryESt6vectorIS3_SaIS3_EEE4baseEv(ptr noundef nonnull align 8 dereferenceable(8) %2) #16
  %3 = load ptr, ptr %call1, align 8
  %cmp = icmp ne ptr %1, %3
  ret i1 %cmp
}

; Function Attrs: mustprogress nounwind uwtable
define linkonce_odr noundef nonnull align 8 dereferenceable(36) ptr @_ZNK9__gnu_cxx17__normal_iteratorIPN6Assimp8Exporter17ExportFormatEntryESt6vectorIS3_SaIS3_EEEdeEv(ptr noundef nonnull align 8 dereferenceable(8) %this) #0 comdat align 2 {
entry:
  %this.addr = alloca ptr, align 8
  store ptr %this, ptr %this.addr, align 8
  %this1 = load ptr, ptr %this.addr, align 8
  %_M_current = getelementptr inbounds %"class.__gnu_cxx::__normal_iterator", ptr %this1, i32 0, i32 0
  %0 = load ptr, ptr %_M_current, align 8
  ret ptr %0
}

; Function Attrs: mustprogress nounwind uwtable
define linkonce_odr noundef nonnull align 8 dereferenceable(8) ptr @_ZN9__gnu_cxx17__normal_iteratorIPN6Assimp8Exporter17ExportFormatEntryESt6vectorIS3_SaIS3_EEEppEv(ptr noundef nonnull align 8 dereferenceable(8) %this) #0 comdat align 2 {
entry:
  %this.addr = alloca ptr, align 8
  store ptr %this, ptr %this.addr, align 8
  %this1 = load ptr, ptr %this.addr, align 8
  %_M_current = getelementptr inbounds %"class.__gnu_cxx::__normal_iterator", ptr %this1, i32 0, i32 0
  %0 = load ptr, ptr %_M_current, align 8
  %incdec.ptr = getelementptr inbounds %"struct.Assimp::Exporter::ExportFormatEntry", ptr %0, i32 1
  store ptr %incdec.ptr, ptr %_M_current, align 8
  ret ptr %this1
}

; Function Attrs: mustprogress uwtable
define linkonce_odr void @_ZNSt6vectorIN6Assimp8Exporter17ExportFormatEntryESaIS2_EE9push_backERKS2_(ptr noundef nonnull align 8 dereferenceable(24) %this, ptr noundef nonnull align 8 dereferenceable(36) %__x) #2 comdat align 2 {
entry:
  %this.addr = alloca ptr, align 8
  %__x.addr = alloca ptr, align 8
  %agg.tmp = alloca %"class.__gnu_cxx::__normal_iterator", align 8
  store ptr %this, ptr %this.addr, align 8
  store ptr %__x, ptr %__x.addr, align 8
  %this1 = load ptr, ptr %this.addr, align 8
  %_M_impl = getelementptr inbounds %"struct.std::_Vector_base.17", ptr %this1, i32 0, i32 0
  %_M_finish = getelementptr inbounds %"struct.std::_Vector_base<Assimp::Exporter::ExportFormatEntry, std::allocator<Assimp::Exporter::ExportFormatEntry>>::_Vector_impl_data", ptr %_M_impl, i32 0, i32 1
  %0 = load ptr, ptr %_M_finish, align 8
  %_M_impl2 = getelementptr inbounds %"struct.std::_Vector_base.17", ptr %this1, i32 0, i32 0
  %_M_end_of_storage = getelementptr inbounds %"struct.std::_Vector_base<Assimp::Exporter::ExportFormatEntry, std::allocator<Assimp::Exporter::ExportFormatEntry>>::_Vector_impl_data", ptr %_M_impl2, i32 0, i32 2
  %1 = load ptr, ptr %_M_end_of_storage, align 8
  %cmp = icmp ne ptr %0, %1
  br i1 %cmp, label %if.then, label %if.else

if.then:                                          ; preds = %entry
  %_M_impl3 = getelementptr inbounds %"struct.std::_Vector_base.17", ptr %this1, i32 0, i32 0
  %_M_impl4 = getelementptr inbounds %"struct.std::_Vector_base.17", ptr %this1, i32 0, i32 0
  %_M_finish5 = getelementptr inbounds %"struct.std::_Vector_base<Assimp::Exporter::ExportFormatEntry, std::allocator<Assimp::Exporter::ExportFormatEntry>>::_Vector_impl_data", ptr %_M_impl4, i32 0, i32 1
  %2 = load ptr, ptr %_M_finish5, align 8
  %3 = load ptr, ptr %__x.addr, align 8
  call void @_ZNSt16allocator_traitsISaIN6Assimp8Exporter17ExportFormatEntryEEE9constructIS2_JRKS2_EEEvRS3_PT_DpOT0_(ptr noundef nonnull align 1 dereferenceable(1) %_M_impl3, ptr noundef %2, ptr noundef nonnull align 8 dereferenceable(36) %3) #16
  %_M_impl6 = getelementptr inbounds %"struct.std::_Vector_base.17", ptr %this1, i32 0, i32 0
  %_M_finish7 = getelementptr inbounds %"struct.std::_Vector_base<Assimp::Exporter::ExportFormatEntry, std::allocator<Assimp::Exporter::ExportFormatEntry>>::_Vector_impl_data", ptr %_M_impl6, i32 0, i32 1
  %4 = load ptr, ptr %_M_finish7, align 8
  %incdec.ptr = getelementptr inbounds %"struct.Assimp::Exporter::ExportFormatEntry", ptr %4, i32 1
  store ptr %incdec.ptr, ptr %_M_finish7, align 8
  br label %if.end

if.else:                                          ; preds = %entry
  %call = call ptr @_ZNSt6vectorIN6Assimp8Exporter17ExportFormatEntryESaIS2_EE3endEv(ptr noundef nonnull align 8 dereferenceable(24) %this1) #16
  %coerce.dive = getelementptr inbounds %"class.__gnu_cxx::__normal_iterator", ptr %agg.tmp, i32 0, i32 0
  store ptr %call, ptr %coerce.dive, align 8
  %5 = load ptr, ptr %__x.addr, align 8
  %coerce.dive8 = getelementptr inbounds %"class.__gnu_cxx::__normal_iterator", ptr %agg.tmp, i32 0, i32 0
  %6 = load ptr, ptr %coerce.dive8, align 8
  call void @_ZNSt6vectorIN6Assimp8Exporter17ExportFormatEntryESaIS2_EE17_M_realloc_insertIJRKS2_EEEvN9__gnu_cxx17__normal_iteratorIPS2_S4_EEDpOT_(ptr noundef nonnull align 8 dereferenceable(24) %this1, ptr %6, ptr noundef nonnull align 8 dereferenceable(36) %5)
  br label %if.end

if.end:                                           ; preds = %if.else, %if.then
  ret void
}

; Function Attrs: mustprogress uwtable
define void @_ZN6Assimp8Exporter18UnregisterExporterEPKc(ptr noundef nonnull align 8 dereferenceable(8) %this, ptr noundef %id) #2 align 2 {
entry:
  %this.addr = alloca ptr, align 8
  %id.addr = alloca ptr, align 8
  %it = alloca %"class.__gnu_cxx::__normal_iterator", align 8
  %ref.tmp = alloca %"class.__gnu_cxx::__normal_iterator", align 8
  %agg.tmp = alloca %"class.__gnu_cxx::__normal_iterator.51", align 8
  %coerce = alloca %"class.__gnu_cxx::__normal_iterator", align 8
  store ptr %this, ptr %this.addr, align 8
  store ptr %id, ptr %id.addr, align 8
  %this1 = load ptr, ptr %this.addr, align 8
  %pimpl = getelementptr inbounds %"class.Assimp::Exporter", ptr %this1, i32 0, i32 0
  %0 = load ptr, ptr %pimpl, align 8
  %mExporters = getelementptr inbounds %"class.Assimp::ExporterPimpl", ptr %0, i32 0, i32 7
  %call = call ptr @_ZNSt6vectorIN6Assimp8Exporter17ExportFormatEntryESaIS2_EE5beginEv(ptr noundef nonnull align 8 dereferenceable(24) %mExporters) #16
  %coerce.dive = getelementptr inbounds %"class.__gnu_cxx::__normal_iterator", ptr %it, i32 0, i32 0
  store ptr %call, ptr %coerce.dive, align 8
  br label %for.cond

for.cond:                                         ; preds = %for.inc, %entry
  %pimpl2 = getelementptr inbounds %"class.Assimp::Exporter", ptr %this1, i32 0, i32 0
  %1 = load ptr, ptr %pimpl2, align 8
  %mExporters3 = getelementptr inbounds %"class.Assimp::ExporterPimpl", ptr %1, i32 0, i32 7
  %call4 = call ptr @_ZNSt6vectorIN6Assimp8Exporter17ExportFormatEntryESaIS2_EE3endEv(ptr noundef nonnull align 8 dereferenceable(24) %mExporters3) #16
  %coerce.dive5 = getelementptr inbounds %"class.__gnu_cxx::__normal_iterator", ptr %ref.tmp, i32 0, i32 0
  store ptr %call4, ptr %coerce.dive5, align 8
  %call6 = call noundef zeroext i1 @_ZN9__gnu_cxxneIPN6Assimp8Exporter17ExportFormatEntryESt6vectorIS3_SaIS3_EEEEbRKNS_17__normal_iteratorIT_T0_EESD_(ptr noundef nonnull align 8 dereferenceable(8) %it, ptr noundef nonnull align 8 dereferenceable(8) %ref.tmp) #16
  br i1 %call6, label %for.body, label %for.end

for.body:                                         ; preds = %for.cond
  %call7 = call noundef nonnull align 8 dereferenceable(36) ptr @_ZNK9__gnu_cxx17__normal_iteratorIPN6Assimp8Exporter17ExportFormatEntryESt6vectorIS3_SaIS3_EEEdeEv(ptr noundef nonnull align 8 dereferenceable(8) %it) #16
  %mDescription = getelementptr inbounds %"struct.Assimp::Exporter::ExportFormatEntry", ptr %call7, i32 0, i32 0
  %id8 = getelementptr inbounds %struct.aiExportFormatDesc, ptr %mDescription, i32 0, i32 0
  %2 = load ptr, ptr %id8, align 8
  %3 = load ptr, ptr %id.addr, align 8
  %call9 = call i32 @strcmp(ptr noundef %2, ptr noundef %3) #20
  %tobool = icmp ne i32 %call9, 0
  br i1 %tobool, label %if.end, label %if.then

if.then:                                          ; preds = %for.body
  %pimpl10 = getelementptr inbounds %"class.Assimp::Exporter", ptr %this1, i32 0, i32 0
  %4 = load ptr, ptr %pimpl10, align 8
  %mExporters11 = getelementptr inbounds %"class.Assimp::ExporterPimpl", ptr %4, i32 0, i32 7
  call void @_ZN9__gnu_cxx17__normal_iteratorIPKN6Assimp8Exporter17ExportFormatEntryESt6vectorIS3_SaIS3_EEEC2IPS3_vEERKNS0_IT_S8_EE(ptr noundef nonnull align 8 dereferenceable(8) %agg.tmp, ptr noundef nonnull align 8 dereferenceable(8) %it) #16
  %coerce.dive12 = getelementptr inbounds %"class.__gnu_cxx::__normal_iterator.51", ptr %agg.tmp, i32 0, i32 0
  %5 = load ptr, ptr %coerce.dive12, align 8
  %call13 = call ptr @_ZNSt6vectorIN6Assimp8Exporter17ExportFormatEntryESaIS2_EE5eraseEN9__gnu_cxx17__normal_iteratorIPKS2_S4_EE(ptr noundef nonnull align 8 dereferenceable(24) %mExporters11, ptr %5)
  %coerce.dive14 = getelementptr inbounds %"class.__gnu_cxx::__normal_iterator", ptr %coerce, i32 0, i32 0
  store ptr %call13, ptr %coerce.dive14, align 8
  br label %for.end

if.end:                                           ; preds = %for.body
  br label %for.inc

for.inc:                                          ; preds = %if.end
  %call15 = call noundef nonnull align 8 dereferenceable(8) ptr @_ZN9__gnu_cxx17__normal_iteratorIPN6Assimp8Exporter17ExportFormatEntryESt6vectorIS3_SaIS3_EEEppEv(ptr noundef nonnull align 8 dereferenceable(8) %it) #16
  br label %for.cond, !llvm.loop !9

for.end:                                          ; preds = %if.then, %for.cond
  ret void
}

; Function Attrs: mustprogress uwtable
define linkonce_odr ptr @_ZNSt6vectorIN6Assimp8Exporter17ExportFormatEntryESaIS2_EE5eraseEN9__gnu_cxx17__normal_iteratorIPKS2_S4_EE(ptr noundef nonnull align 8 dereferenceable(24) %this, ptr %__position.coerce) #2 comdat align 2 {
entry:
  %retval = alloca %"class.__gnu_cxx::__normal_iterator", align 8
  %__position = alloca %"class.__gnu_cxx::__normal_iterator.51", align 8
  %this.addr = alloca ptr, align 8
  %agg.tmp = alloca %"class.__gnu_cxx::__normal_iterator", align 8
  %ref.tmp = alloca %"class.__gnu_cxx::__normal_iterator", align 8
  %ref.tmp3 = alloca %"class.__gnu_cxx::__normal_iterator.51", align 8
  %coerce.dive = getelementptr inbounds %"class.__gnu_cxx::__normal_iterator.51", ptr %__position, i32 0, i32 0
  store ptr %__position.coerce, ptr %coerce.dive, align 8
  store ptr %this, ptr %this.addr, align 8
  %this1 = load ptr, ptr %this.addr, align 8
  %call = call ptr @_ZNSt6vectorIN6Assimp8Exporter17ExportFormatEntryESaIS2_EE5beginEv(ptr noundef nonnull align 8 dereferenceable(24) %this1) #16
  %coerce.dive2 = getelementptr inbounds %"class.__gnu_cxx::__normal_iterator", ptr %ref.tmp, i32 0, i32 0
  store ptr %call, ptr %coerce.dive2, align 8
  %call4 = call ptr @_ZNKSt6vectorIN6Assimp8Exporter17ExportFormatEntryESaIS2_EE6cbeginEv(ptr noundef nonnull align 8 dereferenceable(24) %this1) #16
  %coerce.dive5 = getelementptr inbounds %"class.__gnu_cxx::__normal_iterator.51", ptr %ref.tmp3, i32 0, i32 0
  store ptr %call4, ptr %coerce.dive5, align 8
  %call6 = call noundef i64 @_ZN9__gnu_cxxmiIPKN6Assimp8Exporter17ExportFormatEntryESt6vectorIS3_SaIS3_EEEENS_17__normal_iteratorIT_T0_E15difference_typeERKSC_SF_(ptr noundef nonnull align 8 dereferenceable(8) %__position, ptr noundef nonnull align 8 dereferenceable(8) %ref.tmp3) #16
  %call7 = call ptr @_ZNK9__gnu_cxx17__normal_iteratorIPN6Assimp8Exporter17ExportFormatEntryESt6vectorIS3_SaIS3_EEEplEl(ptr noundef nonnull align 8 dereferenceable(8) %ref.tmp, i64 noundef %call6) #16
  %coerce.dive8 = getelementptr inbounds %"class.__gnu_cxx::__normal_iterator", ptr %agg.tmp, i32 0, i32 0
  store ptr %call7, ptr %coerce.dive8, align 8
  %coerce.dive9 = getelementptr inbounds %"class.__gnu_cxx::__normal_iterator", ptr %agg.tmp, i32 0, i32 0
  %0 = load ptr, ptr %coerce.dive9, align 8
  %call10 = call ptr @_ZNSt6vectorIN6Assimp8Exporter17ExportFormatEntryESaIS2_EE8_M_eraseEN9__gnu_cxx17__normal_iteratorIPS2_S4_EE(ptr noundef nonnull align 8 dereferenceable(24) %this1, ptr %0)
  %coerce.dive11 = getelementptr inbounds %"class.__gnu_cxx::__normal_iterator", ptr %retval, i32 0, i32 0
  store ptr %call10, ptr %coerce.dive11, align 8
  %coerce.dive12 = getelementptr inbounds %"class.__gnu_cxx::__normal_iterator", ptr %retval, i32 0, i32 0
  %1 = load ptr, ptr %coerce.dive12, align 8
  ret ptr %1
}

; Function Attrs: mustprogress nounwind uwtable
define linkonce_odr void @_ZN9__gnu_cxx17__normal_iteratorIPKN6Assimp8Exporter17ExportFormatEntryESt6vectorIS3_SaIS3_EEEC2IPS3_vEERKNS0_IT_S8_EE(ptr noundef nonnull align 8 dereferenceable(8) %this, ptr noundef nonnull align 8 dereferenceable(8) %__i) unnamed_addr #0 comdat align 2 {
entry:
  %this.addr = alloca ptr, align 8
  %__i.addr = alloca ptr, align 8
  store ptr %this, ptr %this.addr, align 8
  store ptr %__i, ptr %__i.addr, align 8
  %this1 = load ptr, ptr %this.addr, align 8
  %_M_current = getelementptr inbounds %"class.__gnu_cxx::__normal_iterator.51", ptr %this1, i32 0, i32 0
  %0 = load ptr, ptr %__i.addr, align 8
  %call = call noundef nonnull align 8 dereferenceable(8) ptr @_ZNK9__gnu_cxx17__normal_iteratorIPN6Assimp8Exporter17ExportFormatEntryESt6vectorIS3_SaIS3_EEE4baseEv(ptr noundef nonnull align 8 dereferenceable(8) %0) #16
  %1 = load ptr, ptr %call, align 8
  store ptr %1, ptr %_M_current, align 8
  ret void
}

; Function Attrs: mustprogress nounwind uwtable
define void @_ZN6Assimp16ExportPropertiesC2Ev(ptr noundef nonnull align 8 dereferenceable(240) %this) unnamed_addr #0 align 2 {
entry:
  %this.addr = alloca ptr, align 8
  store ptr %this, ptr %this.addr, align 8
  %this1 = load ptr, ptr %this.addr, align 8
  %mIntProperties = getelementptr inbounds %"class.Assimp::ExportProperties", ptr %this1, i32 0, i32 0
  call void @_ZNSt3mapIjiSt4lessIjESaISt4pairIKjiEEEC2Ev(ptr noundef nonnull align 8 dereferenceable(48) %mIntProperties) #16
  %mFloatProperties = getelementptr inbounds %"class.Assimp::ExportProperties", ptr %this1, i32 0, i32 1
  call void @_ZNSt3mapIjfSt4lessIjESaISt4pairIKjfEEEC2Ev(ptr noundef nonnull align 8 dereferenceable(48) %mFloatProperties) #16
  %mStringProperties = getelementptr inbounds %"class.Assimp::ExportProperties", ptr %this1, i32 0, i32 2
  call void @_ZNSt3mapIjNSt7__cxx1112basic_stringIcSt11char_traitsIcESaIcEEESt4lessIjESaISt4pairIKjS5_EEEC2Ev(ptr noundef nonnull align 8 dereferenceable(48) %mStringProperties) #16
  %mMatrixProperties = getelementptr inbounds %"class.Assimp::ExportProperties", ptr %this1, i32 0, i32 3
  call void @_ZNSt3mapIj12aiMatrix4x4tIfESt4lessIjESaISt4pairIKjS1_EEEC2Ev(ptr noundef nonnull align 8 dereferenceable(48) %mMatrixProperties) #16
  %mCallbackProperties = getelementptr inbounds %"class.Assimp::ExportProperties", ptr %this1, i32 0, i32 4
  call void @_ZNSt3mapIjSt8functionIFPvS1_EESt4lessIjESaISt4pairIKjS3_EEEC2Ev(ptr noundef nonnull align 8 dereferenceable(48) %mCallbackProperties) #16
  ret void
}

; Function Attrs: mustprogress nounwind uwtable
define linkonce_odr void @_ZNSt3mapIjiSt4lessIjESaISt4pairIKjiEEEC2Ev(ptr noundef nonnull align 8 dereferenceable(48) %this) unnamed_addr #0 comdat align 2 {
entry:
  %this.addr = alloca ptr, align 8
  store ptr %this, ptr %this.addr, align 8
  %this1 = load ptr, ptr %this.addr, align 8
  %_M_t = getelementptr inbounds %"class.std::map", ptr %this1, i32 0, i32 0
  call void @_ZNSt8_Rb_treeIjSt4pairIKjiESt10_Select1stIS2_ESt4lessIjESaIS2_EEC2Ev(ptr noundef nonnull align 8 dereferenceable(48) %_M_t) #16
  ret void
}

; Function Attrs: mustprogress nounwind uwtable
define linkonce_odr void @_ZNSt3mapIjfSt4lessIjESaISt4pairIKjfEEEC2Ev(ptr noundef nonnull align 8 dereferenceable(48) %this) unnamed_addr #0 comdat align 2 {
entry:
  %this.addr = alloca ptr, align 8
  store ptr %this, ptr %this.addr, align 8
  %this1 = load ptr, ptr %this.addr, align 8
  %_M_t = getelementptr inbounds %"class.std::map.28", ptr %this1, i32 0, i32 0
  call void @_ZNSt8_Rb_treeIjSt4pairIKjfESt10_Select1stIS2_ESt4lessIjESaIS2_EEC2Ev(ptr noundef nonnull align 8 dereferenceable(48) %_M_t) #16
  ret void
}

; Function Attrs: mustprogress nounwind uwtable
define linkonce_odr void @_ZNSt3mapIjNSt7__cxx1112basic_stringIcSt11char_traitsIcESaIcEEESt4lessIjESaISt4pairIKjS5_EEEC2Ev(ptr noundef nonnull align 8 dereferenceable(48) %this) unnamed_addr #0 comdat align 2 {
entry:
  %this.addr = alloca ptr, align 8
  store ptr %this, ptr %this.addr, align 8
  %this1 = load ptr, ptr %this.addr, align 8
  %_M_t = getelementptr inbounds %"class.std::map.33", ptr %this1, i32 0, i32 0
  call void @_ZNSt8_Rb_treeIjSt4pairIKjNSt7__cxx1112basic_stringIcSt11char_traitsIcESaIcEEEESt10_Select1stIS8_ESt4lessIjESaIS8_EEC2Ev(ptr noundef nonnull align 8 dereferenceable(48) %_M_t) #16
  ret void
}

; Function Attrs: mustprogress nounwind uwtable
define linkonce_odr hidden void @_ZNSt3mapIj12aiMatrix4x4tIfESt4lessIjESaISt4pairIKjS1_EEEC2Ev(ptr noundef nonnull align 8 dereferenceable(48) %this) unnamed_addr #0 comdat align 2 {
entry:
  %this.addr = alloca ptr, align 8
  store ptr %this, ptr %this.addr, align 8
  %this1 = load ptr, ptr %this.addr, align 8
  %_M_t = getelementptr inbounds %"class.std::map.38", ptr %this1, i32 0, i32 0
  call void @_ZNSt8_Rb_treeIjSt4pairIKj12aiMatrix4x4tIfEESt10_Select1stIS4_ESt4lessIjESaIS4_EEC2Ev(ptr noundef nonnull align 8 dereferenceable(48) %_M_t) #16
  ret void
}

; Function Attrs: mustprogress nounwind uwtable
define linkonce_odr void @_ZNSt3mapIjSt8functionIFPvS1_EESt4lessIjESaISt4pairIKjS3_EEEC2Ev(ptr noundef nonnull align 8 dereferenceable(48) %this) unnamed_addr #0 comdat align 2 {
entry:
  %this.addr = alloca ptr, align 8
  store ptr %this, ptr %this.addr, align 8
  %this1 = load ptr, ptr %this.addr, align 8
  %_M_t = getelementptr inbounds %"class.std::map.43", ptr %this1, i32 0, i32 0
  call void @_ZNSt8_Rb_treeIjSt4pairIKjSt8functionIFPvS3_EEESt10_Select1stIS6_ESt4lessIjESaIS6_EEC2Ev(ptr noundef nonnull align 8 dereferenceable(48) %_M_t) #16
  ret void
}

; Function Attrs: mustprogress uwtable
define void @_ZN6Assimp16ExportPropertiesC2ERKS0_(ptr noundef nonnull align 8 dereferenceable(240) %this, ptr noundef nonnull align 8 dereferenceable(240) %other) unnamed_addr #2 align 2 personality ptr @__gxx_personality_v0 {
entry:
  %this.addr = alloca ptr, align 8
  %other.addr = alloca ptr, align 8
  %exn.slot = alloca ptr, align 8
  %ehselector.slot = alloca i32, align 4
  store ptr %this, ptr %this.addr, align 8
  store ptr %other, ptr %other.addr, align 8
  %this1 = load ptr, ptr %this.addr, align 8
  %mIntProperties = getelementptr inbounds %"class.Assimp::ExportProperties", ptr %this1, i32 0, i32 0
  %0 = load ptr, ptr %other.addr, align 8
  %mIntProperties2 = getelementptr inbounds %"class.Assimp::ExportProperties", ptr %0, i32 0, i32 0
  call void @_ZNSt3mapIjiSt4lessIjESaISt4pairIKjiEEEC2ERKS6_(ptr noundef nonnull align 8 dereferenceable(48) %mIntProperties, ptr noundef nonnull align 8 dereferenceable(48) %mIntProperties2)
  %mFloatProperties = getelementptr inbounds %"class.Assimp::ExportProperties", ptr %this1, i32 0, i32 1
  %1 = load ptr, ptr %other.addr, align 8
  %mFloatProperties3 = getelementptr inbounds %"class.Assimp::ExportProperties", ptr %1, i32 0, i32 1
  invoke void @_ZNSt3mapIjfSt4lessIjESaISt4pairIKjfEEEC2ERKS6_(ptr noundef nonnull align 8 dereferenceable(48) %mFloatProperties, ptr noundef nonnull align 8 dereferenceable(48) %mFloatProperties3)
          to label %invoke.cont unwind label %lpad

invoke.cont:                                      ; preds = %entry
  %mStringProperties = getelementptr inbounds %"class.Assimp::ExportProperties", ptr %this1, i32 0, i32 2
  %2 = load ptr, ptr %other.addr, align 8
  %mStringProperties4 = getelementptr inbounds %"class.Assimp::ExportProperties", ptr %2, i32 0, i32 2
  invoke void @_ZNSt3mapIjNSt7__cxx1112basic_stringIcSt11char_traitsIcESaIcEEESt4lessIjESaISt4pairIKjS5_EEEC2ERKSC_(ptr noundef nonnull align 8 dereferenceable(48) %mStringProperties, ptr noundef nonnull align 8 dereferenceable(48) %mStringProperties4)
          to label %invoke.cont6 unwind label %lpad5

invoke.cont6:                                     ; preds = %invoke.cont
  %mMatrixProperties = getelementptr inbounds %"class.Assimp::ExportProperties", ptr %this1, i32 0, i32 3
  %3 = load ptr, ptr %other.addr, align 8
  %mMatrixProperties7 = getelementptr inbounds %"class.Assimp::ExportProperties", ptr %3, i32 0, i32 3
  invoke void @_ZNSt3mapIj12aiMatrix4x4tIfESt4lessIjESaISt4pairIKjS1_EEEC2ERKS8_(ptr noundef nonnull align 8 dereferenceable(48) %mMatrixProperties, ptr noundef nonnull align 8 dereferenceable(48) %mMatrixProperties7)
          to label %invoke.cont9 unwind label %lpad8

invoke.cont9:                                     ; preds = %invoke.cont6
  %mCallbackProperties = getelementptr inbounds %"class.Assimp::ExportProperties", ptr %this1, i32 0, i32 4
  %4 = load ptr, ptr %other.addr, align 8
  %mCallbackProperties10 = getelementptr inbounds %"class.Assimp::ExportProperties", ptr %4, i32 0, i32 4
  invoke void @_ZNSt3mapIjSt8functionIFPvS1_EESt4lessIjESaISt4pairIKjS3_EEEC2ERKSA_(ptr noundef nonnull align 8 dereferenceable(48) %mCallbackProperties, ptr noundef nonnull align 8 dereferenceable(48) %mCallbackProperties10)
          to label %invoke.cont12 unwind label %lpad11

invoke.cont12:                                    ; preds = %invoke.cont9
  ret void

lpad:                                             ; preds = %entry
  %5 = landingpad { ptr, i32 }
          cleanup
  %6 = extractvalue { ptr, i32 } %5, 0
  store ptr %6, ptr %exn.slot, align 8
  %7 = extractvalue { ptr, i32 } %5, 1
  store i32 %7, ptr %ehselector.slot, align 4
  br label %ehcleanup14

lpad5:                                            ; preds = %invoke.cont
  %8 = landingpad { ptr, i32 }
          cleanup
  %9 = extractvalue { ptr, i32 } %8, 0
  store ptr %9, ptr %exn.slot, align 8
  %10 = extractvalue { ptr, i32 } %8, 1
  store i32 %10, ptr %ehselector.slot, align 4
  br label %ehcleanup13

lpad8:                                            ; preds = %invoke.cont6
  %11 = landingpad { ptr, i32 }
          cleanup
  %12 = extractvalue { ptr, i32 } %11, 0
  store ptr %12, ptr %exn.slot, align 8
  %13 = extractvalue { ptr, i32 } %11, 1
  store i32 %13, ptr %ehselector.slot, align 4
  br label %ehcleanup

lpad11:                                           ; preds = %invoke.cont9
  %14 = landingpad { ptr, i32 }
          cleanup
  %15 = extractvalue { ptr, i32 } %14, 0
  store ptr %15, ptr %exn.slot, align 8
  %16 = extractvalue { ptr, i32 } %14, 1
  store i32 %16, ptr %ehselector.slot, align 4
  call void @_ZNSt3mapIj12aiMatrix4x4tIfESt4lessIjESaISt4pairIKjS1_EEED2Ev(ptr noundef nonnull align 8 dereferenceable(48) %mMatrixProperties) #16
  br label %ehcleanup

ehcleanup:                                        ; preds = %lpad11, %lpad8
  call void @_ZNSt3mapIjNSt7__cxx1112basic_stringIcSt11char_traitsIcESaIcEEESt4lessIjESaISt4pairIKjS5_EEED2Ev(ptr noundef nonnull align 8 dereferenceable(48) %mStringProperties) #16
  br label %ehcleanup13

ehcleanup13:                                      ; preds = %ehcleanup, %lpad5
  call void @_ZNSt3mapIjfSt4lessIjESaISt4pairIKjfEEED2Ev(ptr noundef nonnull align 8 dereferenceable(48) %mFloatProperties) #16
  br label %ehcleanup14

ehcleanup14:                                      ; preds = %ehcleanup13, %lpad
  call void @_ZNSt3mapIjiSt4lessIjESaISt4pairIKjiEEED2Ev(ptr noundef nonnull align 8 dereferenceable(48) %mIntProperties) #16
  br label %eh.resume

eh.resume:                                        ; preds = %ehcleanup14
  %exn = load ptr, ptr %exn.slot, align 8
  %sel = load i32, ptr %ehselector.slot, align 4
  %lpad.val = insertvalue { ptr, i32 } poison, ptr %exn, 0
  %lpad.val15 = insertvalue { ptr, i32 } %lpad.val, i32 %sel, 1
  resume { ptr, i32 } %lpad.val15
}

; Function Attrs: mustprogress uwtable
define linkonce_odr void @_ZNSt3mapIjiSt4lessIjESaISt4pairIKjiEEEC2ERKS6_(ptr noundef nonnull align 8 dereferenceable(48) %this, ptr noundef nonnull align 8 dereferenceable(48) %0) unnamed_addr #2 comdat align 2 {
entry:
  %this.addr = alloca ptr, align 8
  %.addr = alloca ptr, align 8
  store ptr %this, ptr %this.addr, align 8
  store ptr %0, ptr %.addr, align 8
  %this1 = load ptr, ptr %this.addr, align 8
  %_M_t = getelementptr inbounds %"class.std::map", ptr %this1, i32 0, i32 0
  %1 = load ptr, ptr %.addr, align 8
  %_M_t2 = getelementptr inbounds %"class.std::map", ptr %1, i32 0, i32 0
  call void @_ZNSt8_Rb_treeIjSt4pairIKjiESt10_Select1stIS2_ESt4lessIjESaIS2_EEC2ERKS8_(ptr noundef nonnull align 8 dereferenceable(48) %_M_t, ptr noundef nonnull align 8 dereferenceable(48) %_M_t2)
  ret void
}

; Function Attrs: mustprogress uwtable
define linkonce_odr void @_ZNSt3mapIjfSt4lessIjESaISt4pairIKjfEEEC2ERKS6_(ptr noundef nonnull align 8 dereferenceable(48) %this, ptr noundef nonnull align 8 dereferenceable(48) %0) unnamed_addr #2 comdat align 2 {
entry:
  %this.addr = alloca ptr, align 8
  %.addr = alloca ptr, align 8
  store ptr %this, ptr %this.addr, align 8
  store ptr %0, ptr %.addr, align 8
  %this1 = load ptr, ptr %this.addr, align 8
  %_M_t = getelementptr inbounds %"class.std::map.28", ptr %this1, i32 0, i32 0
  %1 = load ptr, ptr %.addr, align 8
  %_M_t2 = getelementptr inbounds %"class.std::map.28", ptr %1, i32 0, i32 0
  call void @_ZNSt8_Rb_treeIjSt4pairIKjfESt10_Select1stIS2_ESt4lessIjESaIS2_EEC2ERKS8_(ptr noundef nonnull align 8 dereferenceable(48) %_M_t, ptr noundef nonnull align 8 dereferenceable(48) %_M_t2)
  ret void
}

; Function Attrs: mustprogress uwtable
define linkonce_odr void @_ZNSt3mapIjNSt7__cxx1112basic_stringIcSt11char_traitsIcESaIcEEESt4lessIjESaISt4pairIKjS5_EEEC2ERKSC_(ptr noundef nonnull align 8 dereferenceable(48) %this, ptr noundef nonnull align 8 dereferenceable(48) %0) unnamed_addr #2 comdat align 2 {
entry:
  %this.addr = alloca ptr, align 8
  %.addr = alloca ptr, align 8
  store ptr %this, ptr %this.addr, align 8
  store ptr %0, ptr %.addr, align 8
  %this1 = load ptr, ptr %this.addr, align 8
  %_M_t = getelementptr inbounds %"class.std::map.33", ptr %this1, i32 0, i32 0
  %1 = load ptr, ptr %.addr, align 8
  %_M_t2 = getelementptr inbounds %"class.std::map.33", ptr %1, i32 0, i32 0
  call void @_ZNSt8_Rb_treeIjSt4pairIKjNSt7__cxx1112basic_stringIcSt11char_traitsIcESaIcEEEESt10_Select1stIS8_ESt4lessIjESaIS8_EEC2ERKSE_(ptr noundef nonnull align 8 dereferenceable(48) %_M_t, ptr noundef nonnull align 8 dereferenceable(48) %_M_t2)
  ret void
}

; Function Attrs: mustprogress uwtable
define linkonce_odr hidden void @_ZNSt3mapIj12aiMatrix4x4tIfESt4lessIjESaISt4pairIKjS1_EEEC2ERKS8_(ptr noundef nonnull align 8 dereferenceable(48) %this, ptr noundef nonnull align 8 dereferenceable(48) %0) unnamed_addr #2 comdat align 2 {
entry:
  %this.addr = alloca ptr, align 8
  %.addr = alloca ptr, align 8
  store ptr %this, ptr %this.addr, align 8
  store ptr %0, ptr %.addr, align 8
  %this1 = load ptr, ptr %this.addr, align 8
  %_M_t = getelementptr inbounds %"class.std::map.38", ptr %this1, i32 0, i32 0
  %1 = load ptr, ptr %.addr, align 8
  %_M_t2 = getelementptr inbounds %"class.std::map.38", ptr %1, i32 0, i32 0
  call void @_ZNSt8_Rb_treeIjSt4pairIKj12aiMatrix4x4tIfEESt10_Select1stIS4_ESt4lessIjESaIS4_EEC2ERKSA_(ptr noundef nonnull align 8 dereferenceable(48) %_M_t, ptr noundef nonnull align 8 dereferenceable(48) %_M_t2)
  ret void
}

; Function Attrs: mustprogress uwtable
define linkonce_odr void @_ZNSt3mapIjSt8functionIFPvS1_EESt4lessIjESaISt4pairIKjS3_EEEC2ERKSA_(ptr noundef nonnull align 8 dereferenceable(48) %this, ptr noundef nonnull align 8 dereferenceable(48) %0) unnamed_addr #2 comdat align 2 {
entry:
  %this.addr = alloca ptr, align 8
  %.addr = alloca ptr, align 8
  store ptr %this, ptr %this.addr, align 8
  store ptr %0, ptr %.addr, align 8
  %this1 = load ptr, ptr %this.addr, align 8
  %_M_t = getelementptr inbounds %"class.std::map.43", ptr %this1, i32 0, i32 0
  %1 = load ptr, ptr %.addr, align 8
  %_M_t2 = getelementptr inbounds %"class.std::map.43", ptr %1, i32 0, i32 0
  call void @_ZNSt8_Rb_treeIjSt4pairIKjSt8functionIFPvS3_EEESt10_Select1stIS6_ESt4lessIjESaIS6_EEC2ERKSC_(ptr noundef nonnull align 8 dereferenceable(48) %_M_t, ptr noundef nonnull align 8 dereferenceable(48) %_M_t2)
  ret void
}

; Function Attrs: mustprogress nounwind uwtable
define linkonce_odr hidden void @_ZNSt3mapIj12aiMatrix4x4tIfESt4lessIjESaISt4pairIKjS1_EEED2Ev(ptr noundef nonnull align 8 dereferenceable(48) %this) unnamed_addr #0 comdat align 2 {
entry:
  %this.addr = alloca ptr, align 8
  store ptr %this, ptr %this.addr, align 8
  %this1 = load ptr, ptr %this.addr, align 8
  %_M_t = getelementptr inbounds %"class.std::map.38", ptr %this1, i32 0, i32 0
  call void @_ZNSt8_Rb_treeIjSt4pairIKj12aiMatrix4x4tIfEESt10_Select1stIS4_ESt4lessIjESaIS4_EED2Ev(ptr noundef nonnull align 8 dereferenceable(48) %_M_t) #16
  ret void
}

; Function Attrs: mustprogress nounwind uwtable
define linkonce_odr void @_ZNSt3mapIjNSt7__cxx1112basic_stringIcSt11char_traitsIcESaIcEEESt4lessIjESaISt4pairIKjS5_EEED2Ev(ptr noundef nonnull align 8 dereferenceable(48) %this) unnamed_addr #0 comdat align 2 {
entry:
  %this.addr = alloca ptr, align 8
  store ptr %this, ptr %this.addr, align 8
  %this1 = load ptr, ptr %this.addr, align 8
  %_M_t = getelementptr inbounds %"class.std::map.33", ptr %this1, i32 0, i32 0
  call void @_ZNSt8_Rb_treeIjSt4pairIKjNSt7__cxx1112basic_stringIcSt11char_traitsIcESaIcEEEESt10_Select1stIS8_ESt4lessIjESaIS8_EED2Ev(ptr noundef nonnull align 8 dereferenceable(48) %_M_t) #16
  ret void
}

; Function Attrs: mustprogress nounwind uwtable
define linkonce_odr void @_ZNSt3mapIjfSt4lessIjESaISt4pairIKjfEEED2Ev(ptr noundef nonnull align 8 dereferenceable(48) %this) unnamed_addr #0 comdat align 2 {
entry:
  %this.addr = alloca ptr, align 8
  store ptr %this, ptr %this.addr, align 8
  %this1 = load ptr, ptr %this.addr, align 8
  %_M_t = getelementptr inbounds %"class.std::map.28", ptr %this1, i32 0, i32 0
  call void @_ZNSt8_Rb_treeIjSt4pairIKjfESt10_Select1stIS2_ESt4lessIjESaIS2_EED2Ev(ptr noundef nonnull align 8 dereferenceable(48) %_M_t) #16
  ret void
}

; Function Attrs: mustprogress nounwind uwtable
define linkonce_odr void @_ZNSt3mapIjiSt4lessIjESaISt4pairIKjiEEED2Ev(ptr noundef nonnull align 8 dereferenceable(48) %this) unnamed_addr #0 comdat align 2 {
entry:
  %this.addr = alloca ptr, align 8
  store ptr %this, ptr %this.addr, align 8
  %this1 = load ptr, ptr %this.addr, align 8
  %_M_t = getelementptr inbounds %"class.std::map", ptr %this1, i32 0, i32 0
  call void @_ZNSt8_Rb_treeIjSt4pairIKjiESt10_Select1stIS2_ESt4lessIjESaIS2_EED2Ev(ptr noundef nonnull align 8 dereferenceable(48) %_M_t) #16
  ret void
}

; Function Attrs: mustprogress uwtable
define noundef zeroext i1 @_ZN6Assimp16ExportProperties19SetPropertyCallbackEPKcRKSt8functionIFPvS4_EE(ptr noundef nonnull align 8 dereferenceable(240) %this, ptr noundef %szName, ptr noundef nonnull align 8 dereferenceable(32) %f) #2 align 2 {
entry:
  %this.addr = alloca ptr, align 8
  %szName.addr = alloca ptr, align 8
  %f.addr = alloca ptr, align 8
  store ptr %this, ptr %this.addr, align 8
  store ptr %szName, ptr %szName.addr, align 8
  store ptr %f, ptr %f.addr, align 8
  %this1 = load ptr, ptr %this.addr, align 8
  %mCallbackProperties = getelementptr inbounds %"class.Assimp::ExportProperties", ptr %this1, i32 0, i32 4
  %0 = load ptr, ptr %szName.addr, align 8
  %1 = load ptr, ptr %f.addr, align 8
  %call = call noundef zeroext i1 @_Z18SetGenericPropertyISt8functionIFPvS1_EEEbRSt3mapIjT_St4lessIjESaISt4pairIKjS5_EEEPKcRKS5_(ptr noundef nonnull align 8 dereferenceable(48) %mCallbackProperties, ptr noundef %0, ptr noundef nonnull align 8 dereferenceable(32) %1)
  ret i1 %call
}

; Function Attrs: mustprogress uwtable
define linkonce_odr hidden noundef zeroext i1 @_Z18SetGenericPropertyISt8functionIFPvS1_EEEbRSt3mapIjT_St4lessIjESaISt4pairIKjS5_EEEPKcRKS5_(ptr noundef nonnull align 8 dereferenceable(48) %list, ptr noundef %szName, ptr noundef nonnull align 8 dereferenceable(32) %value) #2 comdat personality ptr @__gxx_personality_v0 {
entry:
  %retval = alloca i1, align 1
  %list.addr = alloca ptr, align 8
  %szName.addr = alloca ptr, align 8
  %value.addr = alloca ptr, align 8
  %hash = alloca i32, align 4
  %it = alloca %"struct.std::_Rb_tree_iterator.85", align 8
  %ref.tmp = alloca %"struct.std::_Rb_tree_iterator.85", align 8
  %ref.tmp5 = alloca %"struct.std::pair.89", align 8
  %exn.slot = alloca ptr, align 8
  %ehselector.slot = alloca i32, align 4
  %coerce = alloca %"struct.std::pair.86", align 8
  store ptr %list, ptr %list.addr, align 8
  store ptr %szName, ptr %szName.addr, align 8
  store ptr %value, ptr %value.addr, align 8
  %0 = load ptr, ptr %szName.addr, align 8
  %call = call noundef i32 @_Z13SuperFastHashPKcjj(ptr noundef %0, i32 noundef 0, i32 noundef 0)
  store i32 %call, ptr %hash, align 4
  %1 = load ptr, ptr %list.addr, align 8
  %call1 = call ptr @_ZNSt3mapIjSt8functionIFPvS1_EESt4lessIjESaISt4pairIKjS3_EEE4findERS7_(ptr noundef nonnull align 8 dereferenceable(48) %1, ptr noundef nonnull align 4 dereferenceable(4) %hash)
  %coerce.dive = getelementptr inbounds %"struct.std::_Rb_tree_iterator.85", ptr %it, i32 0, i32 0
  store ptr %call1, ptr %coerce.dive, align 8
  %2 = load ptr, ptr %list.addr, align 8
  %call2 = call ptr @_ZNSt3mapIjSt8functionIFPvS1_EESt4lessIjESaISt4pairIKjS3_EEE3endEv(ptr noundef nonnull align 8 dereferenceable(48) %2) #16
  %coerce.dive3 = getelementptr inbounds %"struct.std::_Rb_tree_iterator.85", ptr %ref.tmp, i32 0, i32 0
  store ptr %call2, ptr %coerce.dive3, align 8
  %call4 = call noundef zeroext i1 @_ZSteqRKSt17_Rb_tree_iteratorISt4pairIKjSt8functionIFPvS3_EEEES9_(ptr noundef nonnull align 8 dereferenceable(8) %it, ptr noundef nonnull align 8 dereferenceable(8) %ref.tmp) #16
  br i1 %call4, label %if.then, label %if.end

if.then:                                          ; preds = %entry
  %3 = load ptr, ptr %list.addr, align 8
  %4 = load ptr, ptr %value.addr, align 8
  call void @_ZNSt4pairIjSt8functionIFPvS1_EEEC2IjS3_TnNSt9enable_ifIXaaclsr5_PCCPE18_ConstructiblePairIT_T0_EEclsr5_PCCPE26_ImplicitlyConvertiblePairIS7_S8_EEEbE4typeELb1EEERKjRKS3_(ptr noundef nonnull align 8 dereferenceable(40) %ref.tmp5, ptr noundef nonnull align 4 dereferenceable(4) %hash, ptr noundef nonnull align 8 dereferenceable(32) %4)
  %call6 = invoke { ptr, i8 } @_ZNSt3mapIjSt8functionIFPvS1_EESt4lessIjESaISt4pairIKjS3_EEE6insertIS6_IjS3_EEENSt9enable_ifIXsr16is_constructibleIS8_T_EE5valueES6_ISt17_Rb_tree_iteratorIS8_EbEE4typeEOSE_(ptr noundef nonnull align 8 dereferenceable(48) %3, ptr noundef nonnull align 8 dereferenceable(40) %ref.tmp5)
          to label %invoke.cont unwind label %lpad

invoke.cont:                                      ; preds = %if.then
  %5 = getelementptr inbounds { ptr, i8 }, ptr %coerce, i32 0, i32 0
  %6 = extractvalue { ptr, i8 } %call6, 0
  store ptr %6, ptr %5, align 8
  %7 = getelementptr inbounds { ptr, i8 }, ptr %coerce, i32 0, i32 1
  %8 = extractvalue { ptr, i8 } %call6, 1
  store i8 %8, ptr %7, align 8
  call void @_ZNSt4pairIjSt8functionIFPvS1_EEED2Ev(ptr noundef nonnull align 8 dereferenceable(40) %ref.tmp5) #16
  store i1 false, ptr %retval, align 1
  br label %return

lpad:                                             ; preds = %if.then
  %9 = landingpad { ptr, i32 }
          cleanup
  %10 = extractvalue { ptr, i32 } %9, 0
  store ptr %10, ptr %exn.slot, align 8
  %11 = extractvalue { ptr, i32 } %9, 1
  store i32 %11, ptr %ehselector.slot, align 4
  call void @_ZNSt4pairIjSt8functionIFPvS1_EEED2Ev(ptr noundef nonnull align 8 dereferenceable(40) %ref.tmp5) #16
  br label %eh.resume

if.end:                                           ; preds = %entry
  %12 = load ptr, ptr %value.addr, align 8
  %call7 = call noundef nonnull align 8 dereferenceable(40) ptr @_ZNKSt17_Rb_tree_iteratorISt4pairIKjSt8functionIFPvS3_EEEEdeEv(ptr noundef nonnull align 8 dereferenceable(8) %it) #16
  %second = getelementptr inbounds %"struct.std::pair.63", ptr %call7, i32 0, i32 1
  %call8 = call noundef nonnull align 8 dereferenceable(32) ptr @_ZNSt8functionIFPvS0_EEaSERKS2_(ptr noundef nonnull align 8 dereferenceable(32) %second, ptr noundef nonnull align 8 dereferenceable(32) %12)
  store i1 true, ptr %retval, align 1
  br label %return

return:                                           ; preds = %if.end, %invoke.cont
  %13 = load i1, ptr %retval, align 1
  ret i1 %13

eh.resume:                                        ; preds = %lpad
  %exn = load ptr, ptr %exn.slot, align 8
  %sel = load i32, ptr %ehselector.slot, align 4
  %lpad.val = insertvalue { ptr, i32 } poison, ptr %exn, 0
  %lpad.val9 = insertvalue { ptr, i32 } %lpad.val, i32 %sel, 1
  resume { ptr, i32 } %lpad.val9
}

; Function Attrs: mustprogress uwtable
define void @_ZNK6Assimp16ExportProperties19GetPropertyCallbackEPKc(ptr noalias sret(%"class.std::function") align 8 %agg.result, ptr noundef nonnull align 8 dereferenceable(240) %this, ptr noundef %szName) #2 align 2 personality ptr @__gxx_personality_v0 {
entry:
  %result.ptr = alloca ptr, align 8
  %this.addr = alloca ptr, align 8
  %szName.addr = alloca ptr, align 8
  %ref.tmp = alloca %"class.std::function", align 8
  %exn.slot = alloca ptr, align 8
  %ehselector.slot = alloca i32, align 4
  store ptr %agg.result, ptr %result.ptr, align 8
  store ptr %this, ptr %this.addr, align 8
  store ptr %szName, ptr %szName.addr, align 8
  %this1 = load ptr, ptr %this.addr, align 8
  %mCallbackProperties = getelementptr inbounds %"class.Assimp::ExportProperties", ptr %this1, i32 0, i32 4
  %0 = load ptr, ptr %szName.addr, align 8
  call void @_ZNSt8functionIFPvS0_EEC2EDn(ptr noundef nonnull align 8 dereferenceable(32) %ref.tmp, ptr null) #16
  %call = invoke noundef nonnull align 8 dereferenceable(32) ptr @_Z18GetGenericPropertyISt8functionIFPvS1_EEERKT_RKSt3mapIjS4_St4lessIjESaISt4pairIKjS4_EEEPKcS6_(ptr noundef nonnull align 8 dereferenceable(48) %mCallbackProperties, ptr noundef %0, ptr noundef nonnull align 8 dereferenceable(32) %ref.tmp)
          to label %invoke.cont unwind label %lpad

invoke.cont:                                      ; preds = %entry
  invoke void @_ZNSt8functionIFPvS0_EEC2ERKS2_(ptr noundef nonnull align 8 dereferenceable(32) %agg.result, ptr noundef nonnull align 8 dereferenceable(32) %call)
          to label %invoke.cont2 unwind label %lpad

invoke.cont2:                                     ; preds = %invoke.cont
  call void @_ZNSt8functionIFPvS0_EED2Ev(ptr noundef nonnull align 8 dereferenceable(32) %ref.tmp) #16
  ret void

lpad:                                             ; preds = %invoke.cont, %entry
  %1 = landingpad { ptr, i32 }
          cleanup
  %2 = extractvalue { ptr, i32 } %1, 0
  store ptr %2, ptr %exn.slot, align 8
  %3 = extractvalue { ptr, i32 } %1, 1
  store i32 %3, ptr %ehselector.slot, align 4
  call void @_ZNSt8functionIFPvS0_EED2Ev(ptr noundef nonnull align 8 dereferenceable(32) %ref.tmp) #16
  br label %eh.resume

eh.resume:                                        ; preds = %lpad
  %exn = load ptr, ptr %exn.slot, align 8
  %sel = load i32, ptr %ehselector.slot, align 4
  %lpad.val = insertvalue { ptr, i32 } poison, ptr %exn, 0
  %lpad.val3 = insertvalue { ptr, i32 } %lpad.val, i32 %sel, 1
  resume { ptr, i32 } %lpad.val3
}

; Function Attrs: mustprogress uwtable
define linkonce_odr hidden noundef nonnull align 8 dereferenceable(32) ptr @_Z18GetGenericPropertyISt8functionIFPvS1_EEERKT_RKSt3mapIjS4_St4lessIjESaISt4pairIKjS4_EEEPKcS6_(ptr noundef nonnull align 8 dereferenceable(48) %list, ptr noundef %szName, ptr noundef nonnull align 8 dereferenceable(32) %errorReturn) #2 comdat {
entry:
  %retval = alloca ptr, align 8
  %list.addr = alloca ptr, align 8
  %szName.addr = alloca ptr, align 8
  %errorReturn.addr = alloca ptr, align 8
  %hash = alloca i32, align 4
  %it = alloca %"struct.std::_Rb_tree_const_iterator.92", align 8
  %ref.tmp = alloca %"struct.std::_Rb_tree_const_iterator.92", align 8
  store ptr %list, ptr %list.addr, align 8
  store ptr %szName, ptr %szName.addr, align 8
  store ptr %errorReturn, ptr %errorReturn.addr, align 8
  %0 = load ptr, ptr %szName.addr, align 8
  %call = call noundef i32 @_Z13SuperFastHashPKcjj(ptr noundef %0, i32 noundef 0, i32 noundef 0)
  store i32 %call, ptr %hash, align 4
  %1 = load ptr, ptr %list.addr, align 8
  %call1 = call ptr @_ZNKSt3mapIjSt8functionIFPvS1_EESt4lessIjESaISt4pairIKjS3_EEE4findERS7_(ptr noundef nonnull align 8 dereferenceable(48) %1, ptr noundef nonnull align 4 dereferenceable(4) %hash)
  %coerce.dive = getelementptr inbounds %"struct.std::_Rb_tree_const_iterator.92", ptr %it, i32 0, i32 0
  store ptr %call1, ptr %coerce.dive, align 8
  %2 = load ptr, ptr %list.addr, align 8
  %call2 = call ptr @_ZNKSt3mapIjSt8functionIFPvS1_EESt4lessIjESaISt4pairIKjS3_EEE3endEv(ptr noundef nonnull align 8 dereferenceable(48) %2) #16
  %coerce.dive3 = getelementptr inbounds %"struct.std::_Rb_tree_const_iterator.92", ptr %ref.tmp, i32 0, i32 0
  store ptr %call2, ptr %coerce.dive3, align 8
  %call4 = call noundef zeroext i1 @_ZSteqRKSt23_Rb_tree_const_iteratorISt4pairIKjSt8functionIFPvS3_EEEES9_(ptr noundef nonnull align 8 dereferenceable(8) %it, ptr noundef nonnull align 8 dereferenceable(8) %ref.tmp) #16
  br i1 %call4, label %if.then, label %if.end

if.then:                                          ; preds = %entry
  %3 = load ptr, ptr %errorReturn.addr, align 8
  store ptr %3, ptr %retval, align 8
  br label %return

if.end:                                           ; preds = %entry
  %call5 = call noundef nonnull align 8 dereferenceable(40) ptr @_ZNKSt23_Rb_tree_const_iteratorISt4pairIKjSt8functionIFPvS3_EEEEdeEv(ptr noundef nonnull align 8 dereferenceable(8) %it) #16
  %second = getelementptr inbounds %"struct.std::pair.63", ptr %call5, i32 0, i32 1
  store ptr %second, ptr %retval, align 8
  br label %return

return:                                           ; preds = %if.end, %if.then
  %4 = load ptr, ptr %retval, align 8
  ret ptr %4
}

; Function Attrs: mustprogress nounwind uwtable
define linkonce_odr void @_ZNSt8functionIFPvS0_EEC2EDn(ptr noundef nonnull align 8 dereferenceable(32) %this, ptr %0) unnamed_addr #0 comdat align 2 {
entry:
  %this.addr = alloca ptr, align 8
  %.addr = alloca ptr, align 8
  store ptr %this, ptr %this.addr, align 8
  store ptr %0, ptr %.addr, align 8
  %this1 = load ptr, ptr %this.addr, align 8
  %1 = getelementptr inbounds i8, ptr %this1, i64 0
  call void @llvm.memset.p0.i64(ptr align 8 %1, i8 0, i64 24, i1 false)
  call void @_ZNSt14_Function_baseC2Ev(ptr noundef nonnull align 8 dereferenceable(24) %this1) #16
  %_M_invoker = getelementptr inbounds %"class.std::function", ptr %this1, i32 0, i32 1
  store ptr null, ptr %_M_invoker, align 8
  ret void
}

; Function Attrs: mustprogress uwtable
define linkonce_odr void @_ZNSt8functionIFPvS0_EEC2ERKS2_(ptr noundef nonnull align 8 dereferenceable(32) %this, ptr noundef nonnull align 8 dereferenceable(32) %__x) unnamed_addr #2 comdat align 2 personality ptr @__gxx_personality_v0 {
entry:
  %this.addr = alloca ptr, align 8
  %__x.addr = alloca ptr, align 8
  %exn.slot = alloca ptr, align 8
  %ehselector.slot = alloca i32, align 4
  store ptr %this, ptr %this.addr, align 8
  store ptr %__x, ptr %__x.addr, align 8
  %this1 = load ptr, ptr %this.addr, align 8
  %0 = getelementptr inbounds i8, ptr %this1, i64 0
  call void @llvm.memset.p0.i64(ptr align 8 %0, i8 0, i64 24, i1 false)
  call void @_ZNSt14_Function_baseC2Ev(ptr noundef nonnull align 8 dereferenceable(24) %this1) #16
  %_M_invoker = getelementptr inbounds %"class.std::function", ptr %this1, i32 0, i32 1
  store ptr null, ptr %_M_invoker, align 8
  %1 = load ptr, ptr %__x.addr, align 8
  %call = call noundef zeroext i1 @_ZNKSt8functionIFPvS0_EEcvbEv(ptr noundef nonnull align 8 dereferenceable(32) %1) #16
  br i1 %call, label %if.then, label %if.end

if.then:                                          ; preds = %entry
  %2 = load ptr, ptr %__x.addr, align 8
  %_M_manager = getelementptr inbounds %"class.std::_Function_base", ptr %2, i32 0, i32 1
  %3 = load ptr, ptr %_M_manager, align 8
  %_M_functor = getelementptr inbounds %"class.std::_Function_base", ptr %this1, i32 0, i32 0
  %4 = load ptr, ptr %__x.addr, align 8
  %_M_functor2 = getelementptr inbounds %"class.std::_Function_base", ptr %4, i32 0, i32 0
  %call3 = invoke noundef zeroext i1 %3(ptr noundef nonnull align 8 dereferenceable(16) %_M_functor, ptr noundef nonnull align 8 dereferenceable(16) %_M_functor2, i32 noundef 2)
          to label %invoke.cont unwind label %lpad

invoke.cont:                                      ; preds = %if.then
  %5 = load ptr, ptr %__x.addr, align 8
  %_M_invoker4 = getelementptr inbounds %"class.std::function", ptr %5, i32 0, i32 1
  %6 = load ptr, ptr %_M_invoker4, align 8
  %_M_invoker5 = getelementptr inbounds %"class.std::function", ptr %this1, i32 0, i32 1
  store ptr %6, ptr %_M_invoker5, align 8
  %7 = load ptr, ptr %__x.addr, align 8
  %_M_manager6 = getelementptr inbounds %"class.std::_Function_base", ptr %7, i32 0, i32 1
  %8 = load ptr, ptr %_M_manager6, align 8
  %_M_manager7 = getelementptr inbounds %"class.std::_Function_base", ptr %this1, i32 0, i32 1
  store ptr %8, ptr %_M_manager7, align 8
  br label %if.end

lpad:                                             ; preds = %if.then
  %9 = landingpad { ptr, i32 }
          cleanup
  %10 = extractvalue { ptr, i32 } %9, 0
  store ptr %10, ptr %exn.slot, align 8
  %11 = extractvalue { ptr, i32 } %9, 1
  store i32 %11, ptr %ehselector.slot, align 4
  call void @_ZNSt14_Function_baseD2Ev(ptr noundef nonnull align 8 dereferenceable(24) %this1) #16
  br label %eh.resume

if.end:                                           ; preds = %invoke.cont, %entry
  ret void

eh.resume:                                        ; preds = %lpad
  %exn = load ptr, ptr %exn.slot, align 8
  %sel = load i32, ptr %ehselector.slot, align 4
  %lpad.val = insertvalue { ptr, i32 } poison, ptr %exn, 0
  %lpad.val8 = insertvalue { ptr, i32 } %lpad.val, i32 %sel, 1
  resume { ptr, i32 } %lpad.val8
}

; Function Attrs: mustprogress nounwind uwtable
define linkonce_odr void @_ZNSt8functionIFPvS0_EED2Ev(ptr noundef nonnull align 8 dereferenceable(32) %this) unnamed_addr #0 comdat align 2 {
entry:
  %this.addr = alloca ptr, align 8
  store ptr %this, ptr %this.addr, align 8
  %this1 = load ptr, ptr %this.addr, align 8
  call void @_ZNSt14_Function_baseD2Ev(ptr noundef nonnull align 8 dereferenceable(24) %this1) #16
  ret void
}

; Function Attrs: mustprogress uwtable
define noundef zeroext i1 @_ZNK6Assimp16ExportProperties19HasPropertyCallbackEPKc(ptr noundef nonnull align 8 dereferenceable(240) %this, ptr noundef %szName) #2 align 2 {
entry:
  %this.addr = alloca ptr, align 8
  %szName.addr = alloca ptr, align 8
  store ptr %this, ptr %this.addr, align 8
  store ptr %szName, ptr %szName.addr, align 8
  %this1 = load ptr, ptr %this.addr, align 8
  %mCallbackProperties = getelementptr inbounds %"class.Assimp::ExportProperties", ptr %this1, i32 0, i32 4
  %0 = load ptr, ptr %szName.addr, align 8
  %call = call noundef zeroext i1 @_Z18HasGenericPropertyISt8functionIFPvS1_EEEbRKSt3mapIjT_St4lessIjESaISt4pairIKjS5_EEEPKc(ptr noundef nonnull align 8 dereferenceable(48) %mCallbackProperties, ptr noundef %0)
  ret i1 %call
}

; Function Attrs: mustprogress uwtable
define linkonce_odr hidden noundef zeroext i1 @_Z18HasGenericPropertyISt8functionIFPvS1_EEEbRKSt3mapIjT_St4lessIjESaISt4pairIKjS5_EEEPKc(ptr noundef nonnull align 8 dereferenceable(48) %list, ptr noundef %szName) #2 comdat {
entry:
  %retval = alloca i1, align 1
  %list.addr = alloca ptr, align 8
  %szName.addr = alloca ptr, align 8
  %hash = alloca i32, align 4
  %it = alloca %"struct.std::_Rb_tree_const_iterator.92", align 8
  %ref.tmp = alloca %"struct.std::_Rb_tree_const_iterator.92", align 8
  store ptr %list, ptr %list.addr, align 8
  store ptr %szName, ptr %szName.addr, align 8
  %0 = load ptr, ptr %szName.addr, align 8
  %call = call noundef i32 @_Z13SuperFastHashPKcjj(ptr noundef %0, i32 noundef 0, i32 noundef 0)
  store i32 %call, ptr %hash, align 4
  %1 = load ptr, ptr %list.addr, align 8
  %call1 = call ptr @_ZNKSt3mapIjSt8functionIFPvS1_EESt4lessIjESaISt4pairIKjS3_EEE4findERS7_(ptr noundef nonnull align 8 dereferenceable(48) %1, ptr noundef nonnull align 4 dereferenceable(4) %hash)
  %coerce.dive = getelementptr inbounds %"struct.std::_Rb_tree_const_iterator.92", ptr %it, i32 0, i32 0
  store ptr %call1, ptr %coerce.dive, align 8
  %2 = load ptr, ptr %list.addr, align 8
  %call2 = call ptr @_ZNKSt3mapIjSt8functionIFPvS1_EESt4lessIjESaISt4pairIKjS3_EEE3endEv(ptr noundef nonnull align 8 dereferenceable(48) %2) #16
  %coerce.dive3 = getelementptr inbounds %"struct.std::_Rb_tree_const_iterator.92", ptr %ref.tmp, i32 0, i32 0
  store ptr %call2, ptr %coerce.dive3, align 8
  %call4 = call noundef zeroext i1 @_ZSteqRKSt23_Rb_tree_const_iteratorISt4pairIKjSt8functionIFPvS3_EEEES9_(ptr noundef nonnull align 8 dereferenceable(8) %it, ptr noundef nonnull align 8 dereferenceable(8) %ref.tmp) #16
  br i1 %call4, label %if.then, label %if.end

if.then:                                          ; preds = %entry
  store i1 false, ptr %retval, align 1
  br label %return

if.end:                                           ; preds = %entry
  store i1 true, ptr %retval, align 1
  br label %return

return:                                           ; preds = %if.end, %if.then
  %3 = load i1, ptr %retval, align 1
  ret i1 %3
}

; Function Attrs: mustprogress uwtable
define noundef zeroext i1 @_ZN6Assimp16ExportProperties18SetPropertyIntegerEPKci(ptr noundef nonnull align 8 dereferenceable(240) %this, ptr noundef %szName, i32 noundef %iValue) #2 align 2 {
entry:
  %this.addr = alloca ptr, align 8
  %szName.addr = alloca ptr, align 8
  %iValue.addr = alloca i32, align 4
  store ptr %this, ptr %this.addr, align 8
  store ptr %szName, ptr %szName.addr, align 8
  store i32 %iValue, ptr %iValue.addr, align 4
  %this1 = load ptr, ptr %this.addr, align 8
  %mIntProperties = getelementptr inbounds %"class.Assimp::ExportProperties", ptr %this1, i32 0, i32 0
  %0 = load ptr, ptr %szName.addr, align 8
  %call = call noundef zeroext i1 @_Z18SetGenericPropertyIiEbRSt3mapIjT_St4lessIjESaISt4pairIKjS1_EEEPKcRKS1_(ptr noundef nonnull align 8 dereferenceable(48) %mIntProperties, ptr noundef %0, ptr noundef nonnull align 4 dereferenceable(4) %iValue.addr)
  ret i1 %call
}

; Function Attrs: mustprogress uwtable
define linkonce_odr hidden noundef zeroext i1 @_Z18SetGenericPropertyIiEbRSt3mapIjT_St4lessIjESaISt4pairIKjS1_EEEPKcRKS1_(ptr noundef nonnull align 8 dereferenceable(48) %list, ptr noundef %szName, ptr noundef nonnull align 4 dereferenceable(4) %value) #2 comdat {
entry:
  %retval = alloca i1, align 1
  %list.addr = alloca ptr, align 8
  %szName.addr = alloca ptr, align 8
  %value.addr = alloca ptr, align 8
  %hash = alloca i32, align 4
  %it = alloca %"struct.std::_Rb_tree_iterator.93", align 8
  %ref.tmp = alloca %"struct.std::_Rb_tree_iterator.93", align 8
  %ref.tmp5 = alloca %"struct.std::pair.97", align 4
  %coerce = alloca %"struct.std::pair.94", align 8
  store ptr %list, ptr %list.addr, align 8
  store ptr %szName, ptr %szName.addr, align 8
  store ptr %value, ptr %value.addr, align 8
  %0 = load ptr, ptr %szName.addr, align 8
  %call = call noundef i32 @_Z13SuperFastHashPKcjj(ptr noundef %0, i32 noundef 0, i32 noundef 0)
  store i32 %call, ptr %hash, align 4
  %1 = load ptr, ptr %list.addr, align 8
  %call1 = call ptr @_ZNSt3mapIjiSt4lessIjESaISt4pairIKjiEEE4findERS3_(ptr noundef nonnull align 8 dereferenceable(48) %1, ptr noundef nonnull align 4 dereferenceable(4) %hash)
  %coerce.dive = getelementptr inbounds %"struct.std::_Rb_tree_iterator.93", ptr %it, i32 0, i32 0
  store ptr %call1, ptr %coerce.dive, align 8
  %2 = load ptr, ptr %list.addr, align 8
  %call2 = call ptr @_ZNSt3mapIjiSt4lessIjESaISt4pairIKjiEEE3endEv(ptr noundef nonnull align 8 dereferenceable(48) %2) #16
  %coerce.dive3 = getelementptr inbounds %"struct.std::_Rb_tree_iterator.93", ptr %ref.tmp, i32 0, i32 0
  store ptr %call2, ptr %coerce.dive3, align 8
  %call4 = call noundef zeroext i1 @_ZSteqRKSt17_Rb_tree_iteratorISt4pairIKjiEES5_(ptr noundef nonnull align 8 dereferenceable(8) %it, ptr noundef nonnull align 8 dereferenceable(8) %ref.tmp) #16
  br i1 %call4, label %if.then, label %if.end

if.then:                                          ; preds = %entry
  %3 = load ptr, ptr %list.addr, align 8
  %4 = load ptr, ptr %value.addr, align 8
  call void @_ZNSt4pairIjiEC2IjiTnNSt9enable_ifIXaaclsr5_PCCPE18_ConstructiblePairIT_T0_EEclsr5_PCCPE26_ImplicitlyConvertiblePairIS3_S4_EEEbE4typeELb1EEERKjRKi(ptr noundef nonnull align 4 dereferenceable(8) %ref.tmp5, ptr noundef nonnull align 4 dereferenceable(4) %hash, ptr noundef nonnull align 4 dereferenceable(4) %4)
  %call6 = call { ptr, i8 } @_ZNSt3mapIjiSt4lessIjESaISt4pairIKjiEEE6insertIS2_IjiEEENSt9enable_ifIXsr16is_constructibleIS4_T_EE5valueES2_ISt17_Rb_tree_iteratorIS4_EbEE4typeEOSA_(ptr noundef nonnull align 8 dereferenceable(48) %3, ptr noundef nonnull align 4 dereferenceable(8) %ref.tmp5)
  %5 = getelementptr inbounds { ptr, i8 }, ptr %coerce, i32 0, i32 0
  %6 = extractvalue { ptr, i8 } %call6, 0
  store ptr %6, ptr %5, align 8
  %7 = getelementptr inbounds { ptr, i8 }, ptr %coerce, i32 0, i32 1
  %8 = extractvalue { ptr, i8 } %call6, 1
  store i8 %8, ptr %7, align 8
  store i1 false, ptr %retval, align 1
  br label %return

if.end:                                           ; preds = %entry
  %9 = load ptr, ptr %value.addr, align 8
  %10 = load i32, ptr %9, align 4
  %call7 = call noundef nonnull align 4 dereferenceable(8) ptr @_ZNKSt17_Rb_tree_iteratorISt4pairIKjiEEdeEv(ptr noundef nonnull align 8 dereferenceable(8) %it) #16
  %second = getelementptr inbounds %"struct.std::pair.67", ptr %call7, i32 0, i32 1
  store i32 %10, ptr %second, align 4
  store i1 true, ptr %retval, align 1
  br label %return

return:                                           ; preds = %if.end, %if.then
  %11 = load i1, ptr %retval, align 1
  ret i1 %11
}

; Function Attrs: mustprogress uwtable
define noundef zeroext i1 @_ZN6Assimp16ExportProperties16SetPropertyFloatEPKcf(ptr noundef nonnull align 8 dereferenceable(240) %this, ptr noundef %szName, float noundef %iValue) #2 align 2 {
entry:
  %this.addr = alloca ptr, align 8
  %szName.addr = alloca ptr, align 8
  %iValue.addr = alloca float, align 4
  store ptr %this, ptr %this.addr, align 8
  store ptr %szName, ptr %szName.addr, align 8
  store float %iValue, ptr %iValue.addr, align 4
  %this1 = load ptr, ptr %this.addr, align 8
  %mFloatProperties = getelementptr inbounds %"class.Assimp::ExportProperties", ptr %this1, i32 0, i32 1
  %0 = load ptr, ptr %szName.addr, align 8
  %call = call noundef zeroext i1 @_Z18SetGenericPropertyIfEbRSt3mapIjT_St4lessIjESaISt4pairIKjS1_EEEPKcRKS1_(ptr noundef nonnull align 8 dereferenceable(48) %mFloatProperties, ptr noundef %0, ptr noundef nonnull align 4 dereferenceable(4) %iValue.addr)
  ret i1 %call
}

; Function Attrs: mustprogress uwtable
define linkonce_odr hidden noundef zeroext i1 @_Z18SetGenericPropertyIfEbRSt3mapIjT_St4lessIjESaISt4pairIKjS1_EEEPKcRKS1_(ptr noundef nonnull align 8 dereferenceable(48) %list, ptr noundef %szName, ptr noundef nonnull align 4 dereferenceable(4) %value) #2 comdat {
entry:
  %retval = alloca i1, align 1
  %list.addr = alloca ptr, align 8
  %szName.addr = alloca ptr, align 8
  %value.addr = alloca ptr, align 8
  %hash = alloca i32, align 4
  %it = alloca %"struct.std::_Rb_tree_iterator.102", align 8
  %ref.tmp = alloca %"struct.std::_Rb_tree_iterator.102", align 8
  %ref.tmp5 = alloca %"struct.std::pair.106", align 4
  %coerce = alloca %"struct.std::pair.103", align 8
  store ptr %list, ptr %list.addr, align 8
  store ptr %szName, ptr %szName.addr, align 8
  store ptr %value, ptr %value.addr, align 8
  %0 = load ptr, ptr %szName.addr, align 8
  %call = call noundef i32 @_Z13SuperFastHashPKcjj(ptr noundef %0, i32 noundef 0, i32 noundef 0)
  store i32 %call, ptr %hash, align 4
  %1 = load ptr, ptr %list.addr, align 8
  %call1 = call ptr @_ZNSt3mapIjfSt4lessIjESaISt4pairIKjfEEE4findERS3_(ptr noundef nonnull align 8 dereferenceable(48) %1, ptr noundef nonnull align 4 dereferenceable(4) %hash)
  %coerce.dive = getelementptr inbounds %"struct.std::_Rb_tree_iterator.102", ptr %it, i32 0, i32 0
  store ptr %call1, ptr %coerce.dive, align 8
  %2 = load ptr, ptr %list.addr, align 8
  %call2 = call ptr @_ZNSt3mapIjfSt4lessIjESaISt4pairIKjfEEE3endEv(ptr noundef nonnull align 8 dereferenceable(48) %2) #16
  %coerce.dive3 = getelementptr inbounds %"struct.std::_Rb_tree_iterator.102", ptr %ref.tmp, i32 0, i32 0
  store ptr %call2, ptr %coerce.dive3, align 8
  %call4 = call noundef zeroext i1 @_ZSteqRKSt17_Rb_tree_iteratorISt4pairIKjfEES5_(ptr noundef nonnull align 8 dereferenceable(8) %it, ptr noundef nonnull align 8 dereferenceable(8) %ref.tmp) #16
  br i1 %call4, label %if.then, label %if.end

if.then:                                          ; preds = %entry
  %3 = load ptr, ptr %list.addr, align 8
  %4 = load ptr, ptr %value.addr, align 8
  call void @_ZNSt4pairIjfEC2IjfTnNSt9enable_ifIXaaclsr5_PCCPE18_ConstructiblePairIT_T0_EEclsr5_PCCPE26_ImplicitlyConvertiblePairIS3_S4_EEEbE4typeELb1EEERKjRKf(ptr noundef nonnull align 4 dereferenceable(8) %ref.tmp5, ptr noundef nonnull align 4 dereferenceable(4) %hash, ptr noundef nonnull align 4 dereferenceable(4) %4)
  %call6 = call { ptr, i8 } @_ZNSt3mapIjfSt4lessIjESaISt4pairIKjfEEE6insertIS2_IjfEEENSt9enable_ifIXsr16is_constructibleIS4_T_EE5valueES2_ISt17_Rb_tree_iteratorIS4_EbEE4typeEOSA_(ptr noundef nonnull align 8 dereferenceable(48) %3, ptr noundef nonnull align 4 dereferenceable(8) %ref.tmp5)
  %5 = getelementptr inbounds { ptr, i8 }, ptr %coerce, i32 0, i32 0
  %6 = extractvalue { ptr, i8 } %call6, 0
  store ptr %6, ptr %5, align 8
  %7 = getelementptr inbounds { ptr, i8 }, ptr %coerce, i32 0, i32 1
  %8 = extractvalue { ptr, i8 } %call6, 1
  store i8 %8, ptr %7, align 8
  store i1 false, ptr %retval, align 1
  br label %return

if.end:                                           ; preds = %entry
  %9 = load ptr, ptr %value.addr, align 8
  %10 = load float, ptr %9, align 4
  %call7 = call noundef nonnull align 4 dereferenceable(8) ptr @_ZNKSt17_Rb_tree_iteratorISt4pairIKjfEEdeEv(ptr noundef nonnull align 8 dereferenceable(8) %it) #16
  %second = getelementptr inbounds %"struct.std::pair.71", ptr %call7, i32 0, i32 1
  store float %10, ptr %second, align 4
  store i1 true, ptr %retval, align 1
  br label %return

return:                                           ; preds = %if.end, %if.then
  %11 = load i1, ptr %retval, align 1
  ret i1 %11
}

; Function Attrs: mustprogress uwtable
define noundef zeroext i1 @_ZN6Assimp16ExportProperties17SetPropertyStringEPKcRKNSt7__cxx1112basic_stringIcSt11char_traitsIcESaIcEEE(ptr noundef nonnull align 8 dereferenceable(240) %this, ptr noundef %szName, ptr noundef nonnull align 8 dereferenceable(32) %value) #2 align 2 {
entry:
  %this.addr = alloca ptr, align 8
  %szName.addr = alloca ptr, align 8
  %value.addr = alloca ptr, align 8
  store ptr %this, ptr %this.addr, align 8
  store ptr %szName, ptr %szName.addr, align 8
  store ptr %value, ptr %value.addr, align 8
  %this1 = load ptr, ptr %this.addr, align 8
  %mStringProperties = getelementptr inbounds %"class.Assimp::ExportProperties", ptr %this1, i32 0, i32 2
  %0 = load ptr, ptr %szName.addr, align 8
  %1 = load ptr, ptr %value.addr, align 8
  %call = call noundef zeroext i1 @_Z18SetGenericPropertyINSt7__cxx1112basic_stringIcSt11char_traitsIcESaIcEEEEbRSt3mapIjT_St4lessIjESaISt4pairIKjS7_EEEPKcRKS7_(ptr noundef nonnull align 8 dereferenceable(48) %mStringProperties, ptr noundef %0, ptr noundef nonnull align 8 dereferenceable(32) %1)
  ret i1 %call
}

; Function Attrs: mustprogress uwtable
define linkonce_odr hidden noundef zeroext i1 @_Z18SetGenericPropertyINSt7__cxx1112basic_stringIcSt11char_traitsIcESaIcEEEEbRSt3mapIjT_St4lessIjESaISt4pairIKjS7_EEEPKcRKS7_(ptr noundef nonnull align 8 dereferenceable(48) %list, ptr noundef %szName, ptr noundef nonnull align 8 dereferenceable(32) %value) #2 comdat personality ptr @__gxx_personality_v0 {
entry:
  %retval = alloca i1, align 1
  %list.addr = alloca ptr, align 8
  %szName.addr = alloca ptr, align 8
  %value.addr = alloca ptr, align 8
  %hash = alloca i32, align 4
  %it = alloca %"struct.std::_Rb_tree_iterator.111", align 8
  %ref.tmp = alloca %"struct.std::_Rb_tree_iterator.111", align 8
  %ref.tmp5 = alloca %"struct.std::pair.115", align 8
  %exn.slot = alloca ptr, align 8
  %ehselector.slot = alloca i32, align 4
  %coerce = alloca %"struct.std::pair.112", align 8
  store ptr %list, ptr %list.addr, align 8
  store ptr %szName, ptr %szName.addr, align 8
  store ptr %value, ptr %value.addr, align 8
  %0 = load ptr, ptr %szName.addr, align 8
  %call = call noundef i32 @_Z13SuperFastHashPKcjj(ptr noundef %0, i32 noundef 0, i32 noundef 0)
  store i32 %call, ptr %hash, align 4
  %1 = load ptr, ptr %list.addr, align 8
  %call1 = call ptr @_ZNSt3mapIjNSt7__cxx1112basic_stringIcSt11char_traitsIcESaIcEEESt4lessIjESaISt4pairIKjS5_EEE4findERS9_(ptr noundef nonnull align 8 dereferenceable(48) %1, ptr noundef nonnull align 4 dereferenceable(4) %hash)
  %coerce.dive = getelementptr inbounds %"struct.std::_Rb_tree_iterator.111", ptr %it, i32 0, i32 0
  store ptr %call1, ptr %coerce.dive, align 8
  %2 = load ptr, ptr %list.addr, align 8
  %call2 = call ptr @_ZNSt3mapIjNSt7__cxx1112basic_stringIcSt11char_traitsIcESaIcEEESt4lessIjESaISt4pairIKjS5_EEE3endEv(ptr noundef nonnull align 8 dereferenceable(48) %2) #16
  %coerce.dive3 = getelementptr inbounds %"struct.std::_Rb_tree_iterator.111", ptr %ref.tmp, i32 0, i32 0
  store ptr %call2, ptr %coerce.dive3, align 8
  %call4 = call noundef zeroext i1 @_ZSteqRKSt17_Rb_tree_iteratorISt4pairIKjNSt7__cxx1112basic_stringIcSt11char_traitsIcESaIcEEEEESB_(ptr noundef nonnull align 8 dereferenceable(8) %it, ptr noundef nonnull align 8 dereferenceable(8) %ref.tmp) #16
  br i1 %call4, label %if.then, label %if.end

if.then:                                          ; preds = %entry
  %3 = load ptr, ptr %list.addr, align 8
  %4 = load ptr, ptr %value.addr, align 8
  call void @_ZNSt4pairIjNSt7__cxx1112basic_stringIcSt11char_traitsIcESaIcEEEEC2IjS5_TnNSt9enable_ifIXaaclsr5_PCCPE18_ConstructiblePairIT_T0_EEclsr5_PCCPE26_ImplicitlyConvertiblePairIS9_SA_EEEbE4typeELb1EEERKjRKS5_(ptr noundef nonnull align 8 dereferenceable(40) %ref.tmp5, ptr noundef nonnull align 4 dereferenceable(4) %hash, ptr noundef nonnull align 8 dereferenceable(32) %4)
  %call6 = invoke { ptr, i8 } @_ZNSt3mapIjNSt7__cxx1112basic_stringIcSt11char_traitsIcESaIcEEESt4lessIjESaISt4pairIKjS5_EEE6insertIS8_IjS5_EEENSt9enable_ifIXsr16is_constructibleISA_T_EE5valueES8_ISt17_Rb_tree_iteratorISA_EbEE4typeEOSG_(ptr noundef nonnull align 8 dereferenceable(48) %3, ptr noundef nonnull align 8 dereferenceable(40) %ref.tmp5)
          to label %invoke.cont unwind label %lpad

invoke.cont:                                      ; preds = %if.then
  %5 = getelementptr inbounds { ptr, i8 }, ptr %coerce, i32 0, i32 0
  %6 = extractvalue { ptr, i8 } %call6, 0
  store ptr %6, ptr %5, align 8
  %7 = getelementptr inbounds { ptr, i8 }, ptr %coerce, i32 0, i32 1
  %8 = extractvalue { ptr, i8 } %call6, 1
  store i8 %8, ptr %7, align 8
  call void @_ZNSt4pairIjNSt7__cxx1112basic_stringIcSt11char_traitsIcESaIcEEEED2Ev(ptr noundef nonnull align 8 dereferenceable(40) %ref.tmp5) #16
  store i1 false, ptr %retval, align 1
  br label %return

lpad:                                             ; preds = %if.then
  %9 = landingpad { ptr, i32 }
          cleanup
  %10 = extractvalue { ptr, i32 } %9, 0
  store ptr %10, ptr %exn.slot, align 8
  %11 = extractvalue { ptr, i32 } %9, 1
  store i32 %11, ptr %ehselector.slot, align 4
  call void @_ZNSt4pairIjNSt7__cxx1112basic_stringIcSt11char_traitsIcESaIcEEEED2Ev(ptr noundef nonnull align 8 dereferenceable(40) %ref.tmp5) #16
  br label %eh.resume

if.end:                                           ; preds = %entry
  %12 = load ptr, ptr %value.addr, align 8
  %call7 = call noundef nonnull align 8 dereferenceable(40) ptr @_ZNKSt17_Rb_tree_iteratorISt4pairIKjNSt7__cxx1112basic_stringIcSt11char_traitsIcESaIcEEEEEdeEv(ptr noundef nonnull align 8 dereferenceable(8) %it) #16
  %second = getelementptr inbounds %"struct.std::pair.75", ptr %call7, i32 0, i32 1
  %call8 = call noundef nonnull align 8 dereferenceable(32) ptr @_ZNSt7__cxx1112basic_stringIcSt11char_traitsIcESaIcEEaSERKS4_(ptr noundef nonnull align 8 dereferenceable(32) %second, ptr noundef nonnull align 8 dereferenceable(32) %12)
  store i1 true, ptr %retval, align 1
  br label %return

return:                                           ; preds = %if.end, %invoke.cont
  %13 = load i1, ptr %retval, align 1
  ret i1 %13

eh.resume:                                        ; preds = %lpad
  %exn = load ptr, ptr %exn.slot, align 8
  %sel = load i32, ptr %ehselector.slot, align 4
  %lpad.val = insertvalue { ptr, i32 } poison, ptr %exn, 0
  %lpad.val9 = insertvalue { ptr, i32 } %lpad.val, i32 %sel, 1
  resume { ptr, i32 } %lpad.val9
}

; Function Attrs: mustprogress uwtable
define noundef zeroext i1 @_ZN6Assimp16ExportProperties17SetPropertyMatrixEPKcRK12aiMatrix4x4tIfE(ptr noundef nonnull align 8 dereferenceable(240) %this, ptr noundef %szName, ptr noundef nonnull align 4 dereferenceable(64) %value) #2 align 2 {
entry:
  %this.addr = alloca ptr, align 8
  %szName.addr = alloca ptr, align 8
  %value.addr = alloca ptr, align 8
  store ptr %this, ptr %this.addr, align 8
  store ptr %szName, ptr %szName.addr, align 8
  store ptr %value, ptr %value.addr, align 8
  %this1 = load ptr, ptr %this.addr, align 8
  %mMatrixProperties = getelementptr inbounds %"class.Assimp::ExportProperties", ptr %this1, i32 0, i32 3
  %0 = load ptr, ptr %szName.addr, align 8
  %1 = load ptr, ptr %value.addr, align 8
  %call = call noundef zeroext i1 @_Z18SetGenericPropertyI12aiMatrix4x4tIfEEbRSt3mapIjT_St4lessIjESaISt4pairIKjS3_EEEPKcRKS3_(ptr noundef nonnull align 8 dereferenceable(48) %mMatrixProperties, ptr noundef %0, ptr noundef nonnull align 4 dereferenceable(64) %1)
  ret i1 %call
}

; Function Attrs: mustprogress uwtable
define linkonce_odr hidden noundef zeroext i1 @_Z18SetGenericPropertyI12aiMatrix4x4tIfEEbRSt3mapIjT_St4lessIjESaISt4pairIKjS3_EEEPKcRKS3_(ptr noundef nonnull align 8 dereferenceable(48) %list, ptr noundef %szName, ptr noundef nonnull align 4 dereferenceable(64) %value) #2 comdat {
entry:
  %retval = alloca i1, align 1
  %list.addr = alloca ptr, align 8
  %szName.addr = alloca ptr, align 8
  %value.addr = alloca ptr, align 8
  %hash = alloca i32, align 4
  %it = alloca %"struct.std::_Rb_tree_iterator.120", align 8
  %ref.tmp = alloca %"struct.std::_Rb_tree_iterator.120", align 8
  %ref.tmp5 = alloca %"struct.std::pair.124", align 4
  %coerce = alloca %"struct.std::pair.121", align 8
  store ptr %list, ptr %list.addr, align 8
  store ptr %szName, ptr %szName.addr, align 8
  store ptr %value, ptr %value.addr, align 8
  %0 = load ptr, ptr %szName.addr, align 8
  %call = call noundef i32 @_Z13SuperFastHashPKcjj(ptr noundef %0, i32 noundef 0, i32 noundef 0)
  store i32 %call, ptr %hash, align 4
  %1 = load ptr, ptr %list.addr, align 8
  %call1 = call ptr @_ZNSt3mapIj12aiMatrix4x4tIfESt4lessIjESaISt4pairIKjS1_EEE4findERS5_(ptr noundef nonnull align 8 dereferenceable(48) %1, ptr noundef nonnull align 4 dereferenceable(4) %hash)
  %coerce.dive = getelementptr inbounds %"struct.std::_Rb_tree_iterator.120", ptr %it, i32 0, i32 0
  store ptr %call1, ptr %coerce.dive, align 8
  %2 = load ptr, ptr %list.addr, align 8
  %call2 = call ptr @_ZNSt3mapIj12aiMatrix4x4tIfESt4lessIjESaISt4pairIKjS1_EEE3endEv(ptr noundef nonnull align 8 dereferenceable(48) %2) #16
  %coerce.dive3 = getelementptr inbounds %"struct.std::_Rb_tree_iterator.120", ptr %ref.tmp, i32 0, i32 0
  store ptr %call2, ptr %coerce.dive3, align 8
  %call4 = call noundef zeroext i1 @_ZSteqRKSt17_Rb_tree_iteratorISt4pairIKj12aiMatrix4x4tIfEEES7_(ptr noundef nonnull align 8 dereferenceable(8) %it, ptr noundef nonnull align 8 dereferenceable(8) %ref.tmp) #16
  br i1 %call4, label %if.then, label %if.end

if.then:                                          ; preds = %entry
  %3 = load ptr, ptr %list.addr, align 8
  %4 = load ptr, ptr %value.addr, align 8
  call void @_ZNSt4pairIj12aiMatrix4x4tIfEEC2IjS1_TnNSt9enable_ifIXaaclsr5_PCCPE18_ConstructiblePairIT_T0_EEclsr5_PCCPE26_ImplicitlyConvertiblePairIS5_S6_EEEbE4typeELb1EEERKjRKS1_(ptr noundef nonnull align 4 dereferenceable(68) %ref.tmp5, ptr noundef nonnull align 4 dereferenceable(4) %hash, ptr noundef nonnull align 4 dereferenceable(64) %4)
  %call6 = call { ptr, i8 } @_ZNSt3mapIj12aiMatrix4x4tIfESt4lessIjESaISt4pairIKjS1_EEE6insertIS4_IjS1_EEENSt9enable_ifIXsr16is_constructibleIS6_T_EE5valueES4_ISt17_Rb_tree_iteratorIS6_EbEE4typeEOSC_(ptr noundef nonnull align 8 dereferenceable(48) %3, ptr noundef nonnull align 4 dereferenceable(68) %ref.tmp5)
  %5 = getelementptr inbounds { ptr, i8 }, ptr %coerce, i32 0, i32 0
  %6 = extractvalue { ptr, i8 } %call6, 0
  store ptr %6, ptr %5, align 8
  %7 = getelementptr inbounds { ptr, i8 }, ptr %coerce, i32 0, i32 1
  %8 = extractvalue { ptr, i8 } %call6, 1
  store i8 %8, ptr %7, align 8
  store i1 false, ptr %retval, align 1
  br label %return

if.end:                                           ; preds = %entry
  %9 = load ptr, ptr %value.addr, align 8
  %call7 = call noundef nonnull align 4 dereferenceable(68) ptr @_ZNKSt17_Rb_tree_iteratorISt4pairIKj12aiMatrix4x4tIfEEEdeEv(ptr noundef nonnull align 8 dereferenceable(8) %it) #16
  %second = getelementptr inbounds %"struct.std::pair.79", ptr %call7, i32 0, i32 1
  call void @llvm.memcpy.p0.p0.i64(ptr align 4 %second, ptr align 4 %9, i64 64, i1 false)
  store i1 true, ptr %retval, align 1
  br label %return

return:                                           ; preds = %if.end, %if.then
  %10 = load i1, ptr %retval, align 1
  ret i1 %10
}

; Function Attrs: mustprogress uwtable
define noundef i32 @_ZNK6Assimp16ExportProperties18GetPropertyIntegerEPKci(ptr noundef nonnull align 8 dereferenceable(240) %this, ptr noundef %szName, i32 noundef %iErrorReturn) #2 align 2 {
entry:
  %this.addr = alloca ptr, align 8
  %szName.addr = alloca ptr, align 8
  %iErrorReturn.addr = alloca i32, align 4
  store ptr %this, ptr %this.addr, align 8
  store ptr %szName, ptr %szName.addr, align 8
  store i32 %iErrorReturn, ptr %iErrorReturn.addr, align 4
  %this1 = load ptr, ptr %this.addr, align 8
  %mIntProperties = getelementptr inbounds %"class.Assimp::ExportProperties", ptr %this1, i32 0, i32 0
  %0 = load ptr, ptr %szName.addr, align 8
  %call = call noundef nonnull align 4 dereferenceable(4) ptr @_Z18GetGenericPropertyIiERKT_RKSt3mapIjS0_St4lessIjESaISt4pairIKjS0_EEEPKcS2_(ptr noundef nonnull align 8 dereferenceable(48) %mIntProperties, ptr noundef %0, ptr noundef nonnull align 4 dereferenceable(4) %iErrorReturn.addr)
  %1 = load i32, ptr %call, align 4
  ret i32 %1
}

; Function Attrs: mustprogress uwtable
define linkonce_odr hidden noundef nonnull align 4 dereferenceable(4) ptr @_Z18GetGenericPropertyIiERKT_RKSt3mapIjS0_St4lessIjESaISt4pairIKjS0_EEEPKcS2_(ptr noundef nonnull align 8 dereferenceable(48) %list, ptr noundef %szName, ptr noundef nonnull align 4 dereferenceable(4) %errorReturn) #2 comdat {
entry:
  %retval = alloca ptr, align 8
  %list.addr = alloca ptr, align 8
  %szName.addr = alloca ptr, align 8
  %errorReturn.addr = alloca ptr, align 8
  %hash = alloca i32, align 4
  %it = alloca %"struct.std::_Rb_tree_const_iterator.101", align 8
  %ref.tmp = alloca %"struct.std::_Rb_tree_const_iterator.101", align 8
  store ptr %list, ptr %list.addr, align 8
  store ptr %szName, ptr %szName.addr, align 8
  store ptr %errorReturn, ptr %errorReturn.addr, align 8
  %0 = load ptr, ptr %szName.addr, align 8
  %call = call noundef i32 @_Z13SuperFastHashPKcjj(ptr noundef %0, i32 noundef 0, i32 noundef 0)
  store i32 %call, ptr %hash, align 4
  %1 = load ptr, ptr %list.addr, align 8
  %call1 = call ptr @_ZNKSt3mapIjiSt4lessIjESaISt4pairIKjiEEE4findERS3_(ptr noundef nonnull align 8 dereferenceable(48) %1, ptr noundef nonnull align 4 dereferenceable(4) %hash)
  %coerce.dive = getelementptr inbounds %"struct.std::_Rb_tree_const_iterator.101", ptr %it, i32 0, i32 0
  store ptr %call1, ptr %coerce.dive, align 8
  %2 = load ptr, ptr %list.addr, align 8
  %call2 = call ptr @_ZNKSt3mapIjiSt4lessIjESaISt4pairIKjiEEE3endEv(ptr noundef nonnull align 8 dereferenceable(48) %2) #16
  %coerce.dive3 = getelementptr inbounds %"struct.std::_Rb_tree_const_iterator.101", ptr %ref.tmp, i32 0, i32 0
  store ptr %call2, ptr %coerce.dive3, align 8
  %call4 = call noundef zeroext i1 @_ZSteqRKSt23_Rb_tree_const_iteratorISt4pairIKjiEES5_(ptr noundef nonnull align 8 dereferenceable(8) %it, ptr noundef nonnull align 8 dereferenceable(8) %ref.tmp) #16
  br i1 %call4, label %if.then, label %if.end

if.then:                                          ; preds = %entry
  %3 = load ptr, ptr %errorReturn.addr, align 8
  store ptr %3, ptr %retval, align 8
  br label %return

if.end:                                           ; preds = %entry
  %call5 = call noundef nonnull align 4 dereferenceable(8) ptr @_ZNKSt23_Rb_tree_const_iteratorISt4pairIKjiEEdeEv(ptr noundef nonnull align 8 dereferenceable(8) %it) #16
  %second = getelementptr inbounds %"struct.std::pair.67", ptr %call5, i32 0, i32 1
  store ptr %second, ptr %retval, align 8
  br label %return

return:                                           ; preds = %if.end, %if.then
  %4 = load ptr, ptr %retval, align 8
  ret ptr %4
}

; Function Attrs: mustprogress uwtable
define noundef float @_ZNK6Assimp16ExportProperties16GetPropertyFloatEPKcf(ptr noundef nonnull align 8 dereferenceable(240) %this, ptr noundef %szName, float noundef %iErrorReturn) #2 align 2 {
entry:
  %this.addr = alloca ptr, align 8
  %szName.addr = alloca ptr, align 8
  %iErrorReturn.addr = alloca float, align 4
  store ptr %this, ptr %this.addr, align 8
  store ptr %szName, ptr %szName.addr, align 8
  store float %iErrorReturn, ptr %iErrorReturn.addr, align 4
  %this1 = load ptr, ptr %this.addr, align 8
  %mFloatProperties = getelementptr inbounds %"class.Assimp::ExportProperties", ptr %this1, i32 0, i32 1
  %0 = load ptr, ptr %szName.addr, align 8
  %call = call noundef nonnull align 4 dereferenceable(4) ptr @_Z18GetGenericPropertyIfERKT_RKSt3mapIjS0_St4lessIjESaISt4pairIKjS0_EEEPKcS2_(ptr noundef nonnull align 8 dereferenceable(48) %mFloatProperties, ptr noundef %0, ptr noundef nonnull align 4 dereferenceable(4) %iErrorReturn.addr)
  %1 = load float, ptr %call, align 4
  ret float %1
}

; Function Attrs: mustprogress uwtable
define linkonce_odr hidden noundef nonnull align 4 dereferenceable(4) ptr @_Z18GetGenericPropertyIfERKT_RKSt3mapIjS0_St4lessIjESaISt4pairIKjS0_EEEPKcS2_(ptr noundef nonnull align 8 dereferenceable(48) %list, ptr noundef %szName, ptr noundef nonnull align 4 dereferenceable(4) %errorReturn) #2 comdat {
entry:
  %retval = alloca ptr, align 8
  %list.addr = alloca ptr, align 8
  %szName.addr = alloca ptr, align 8
  %errorReturn.addr = alloca ptr, align 8
  %hash = alloca i32, align 4
  %it = alloca %"struct.std::_Rb_tree_const_iterator.110", align 8
  %ref.tmp = alloca %"struct.std::_Rb_tree_const_iterator.110", align 8
  store ptr %list, ptr %list.addr, align 8
  store ptr %szName, ptr %szName.addr, align 8
  store ptr %errorReturn, ptr %errorReturn.addr, align 8
  %0 = load ptr, ptr %szName.addr, align 8
  %call = call noundef i32 @_Z13SuperFastHashPKcjj(ptr noundef %0, i32 noundef 0, i32 noundef 0)
  store i32 %call, ptr %hash, align 4
  %1 = load ptr, ptr %list.addr, align 8
  %call1 = call ptr @_ZNKSt3mapIjfSt4lessIjESaISt4pairIKjfEEE4findERS3_(ptr noundef nonnull align 8 dereferenceable(48) %1, ptr noundef nonnull align 4 dereferenceable(4) %hash)
  %coerce.dive = getelementptr inbounds %"struct.std::_Rb_tree_const_iterator.110", ptr %it, i32 0, i32 0
  store ptr %call1, ptr %coerce.dive, align 8
  %2 = load ptr, ptr %list.addr, align 8
  %call2 = call ptr @_ZNKSt3mapIjfSt4lessIjESaISt4pairIKjfEEE3endEv(ptr noundef nonnull align 8 dereferenceable(48) %2) #16
  %coerce.dive3 = getelementptr inbounds %"struct.std::_Rb_tree_const_iterator.110", ptr %ref.tmp, i32 0, i32 0
  store ptr %call2, ptr %coerce.dive3, align 8
  %call4 = call noundef zeroext i1 @_ZSteqRKSt23_Rb_tree_const_iteratorISt4pairIKjfEES5_(ptr noundef nonnull align 8 dereferenceable(8) %it, ptr noundef nonnull align 8 dereferenceable(8) %ref.tmp) #16
  br i1 %call4, label %if.then, label %if.end

if.then:                                          ; preds = %entry
  %3 = load ptr, ptr %errorReturn.addr, align 8
  store ptr %3, ptr %retval, align 8
  br label %return

if.end:                                           ; preds = %entry
  %call5 = call noundef nonnull align 4 dereferenceable(8) ptr @_ZNKSt23_Rb_tree_const_iteratorISt4pairIKjfEEdeEv(ptr noundef nonnull align 8 dereferenceable(8) %it) #16
  %second = getelementptr inbounds %"struct.std::pair.71", ptr %call5, i32 0, i32 1
  store ptr %second, ptr %retval, align 8
  br label %return

return:                                           ; preds = %if.end, %if.then
  %4 = load ptr, ptr %retval, align 8
  ret ptr %4
}

; Function Attrs: mustprogress uwtable
define linkonce_odr hidden noundef nonnull align 8 dereferenceable(32) ptr @_Z18GetGenericPropertyINSt7__cxx1112basic_stringIcSt11char_traitsIcESaIcEEEERKT_RKSt3mapIjS6_St4lessIjESaISt4pairIKjS6_EEEPKcS8_(ptr noundef nonnull align 8 dereferenceable(48) %list, ptr noundef %szName, ptr noundef nonnull align 8 dereferenceable(32) %errorReturn) #2 comdat {
entry:
  %retval = alloca ptr, align 8
  %list.addr = alloca ptr, align 8
  %szName.addr = alloca ptr, align 8
  %errorReturn.addr = alloca ptr, align 8
  %hash = alloca i32, align 4
  %it = alloca %"struct.std::_Rb_tree_const_iterator.119", align 8
  %ref.tmp = alloca %"struct.std::_Rb_tree_const_iterator.119", align 8
  store ptr %list, ptr %list.addr, align 8
  store ptr %szName, ptr %szName.addr, align 8
  store ptr %errorReturn, ptr %errorReturn.addr, align 8
  %0 = load ptr, ptr %szName.addr, align 8
  %call = call noundef i32 @_Z13SuperFastHashPKcjj(ptr noundef %0, i32 noundef 0, i32 noundef 0)
  store i32 %call, ptr %hash, align 4
  %1 = load ptr, ptr %list.addr, align 8
  %call1 = call ptr @_ZNKSt3mapIjNSt7__cxx1112basic_stringIcSt11char_traitsIcESaIcEEESt4lessIjESaISt4pairIKjS5_EEE4findERS9_(ptr noundef nonnull align 8 dereferenceable(48) %1, ptr noundef nonnull align 4 dereferenceable(4) %hash)
  %coerce.dive = getelementptr inbounds %"struct.std::_Rb_tree_const_iterator.119", ptr %it, i32 0, i32 0
  store ptr %call1, ptr %coerce.dive, align 8
  %2 = load ptr, ptr %list.addr, align 8
  %call2 = call ptr @_ZNKSt3mapIjNSt7__cxx1112basic_stringIcSt11char_traitsIcESaIcEEESt4lessIjESaISt4pairIKjS5_EEE3endEv(ptr noundef nonnull align 8 dereferenceable(48) %2) #16
  %coerce.dive3 = getelementptr inbounds %"struct.std::_Rb_tree_const_iterator.119", ptr %ref.tmp, i32 0, i32 0
  store ptr %call2, ptr %coerce.dive3, align 8
  %call4 = call noundef zeroext i1 @_ZSteqRKSt23_Rb_tree_const_iteratorISt4pairIKjNSt7__cxx1112basic_stringIcSt11char_traitsIcESaIcEEEEESB_(ptr noundef nonnull align 8 dereferenceable(8) %it, ptr noundef nonnull align 8 dereferenceable(8) %ref.tmp) #16
  br i1 %call4, label %if.then, label %if.end

if.then:                                          ; preds = %entry
  %3 = load ptr, ptr %errorReturn.addr, align 8
  store ptr %3, ptr %retval, align 8
  br label %return

if.end:                                           ; preds = %entry
  %call5 = call noundef nonnull align 8 dereferenceable(40) ptr @_ZNKSt23_Rb_tree_const_iteratorISt4pairIKjNSt7__cxx1112basic_stringIcSt11char_traitsIcESaIcEEEEEdeEv(ptr noundef nonnull align 8 dereferenceable(8) %it) #16
  %second = getelementptr inbounds %"struct.std::pair.75", ptr %call5, i32 0, i32 1
  store ptr %second, ptr %retval, align 8
  br label %return

return:                                           ; preds = %if.end, %if.then
  %4 = load ptr, ptr %retval, align 8
  ret ptr %4
}

declare void @_ZNSt7__cxx1112basic_stringIcSt11char_traitsIcESaIcEEC1ERKS4_(ptr noundef nonnull align 8 dereferenceable(32), ptr noundef nonnull align 8 dereferenceable(32)) unnamed_addr #7

; Function Attrs: mustprogress uwtable
define void @_ZNK6Assimp16ExportProperties17GetPropertyMatrixEPKcRK12aiMatrix4x4tIfE(ptr noalias sret(%class.aiMatrix4x4t) align 4 %agg.result, ptr noundef nonnull align 8 dereferenceable(240) %this, ptr noundef %szName, ptr noundef nonnull align 4 dereferenceable(64) %iErrorReturn) #2 align 2 {
entry:
  %this.addr = alloca ptr, align 8
  %szName.addr = alloca ptr, align 8
  %iErrorReturn.addr = alloca ptr, align 8
  store ptr %this, ptr %this.addr, align 8
  store ptr %szName, ptr %szName.addr, align 8
  store ptr %iErrorReturn, ptr %iErrorReturn.addr, align 8
  %this1 = load ptr, ptr %this.addr, align 8
  %mMatrixProperties = getelementptr inbounds %"class.Assimp::ExportProperties", ptr %this1, i32 0, i32 3
  %0 = load ptr, ptr %szName.addr, align 8
  %1 = load ptr, ptr %iErrorReturn.addr, align 8
  %call = call noundef nonnull align 4 dereferenceable(64) ptr @_Z18GetGenericPropertyI12aiMatrix4x4tIfEERKT_RKSt3mapIjS2_St4lessIjESaISt4pairIKjS2_EEEPKcS4_(ptr noundef nonnull align 8 dereferenceable(48) %mMatrixProperties, ptr noundef %0, ptr noundef nonnull align 4 dereferenceable(64) %1)
  call void @llvm.memcpy.p0.p0.i64(ptr align 4 %agg.result, ptr align 4 %call, i64 64, i1 false)
  ret void
}

; Function Attrs: mustprogress uwtable
define linkonce_odr hidden noundef nonnull align 4 dereferenceable(64) ptr @_Z18GetGenericPropertyI12aiMatrix4x4tIfEERKT_RKSt3mapIjS2_St4lessIjESaISt4pairIKjS2_EEEPKcS4_(ptr noundef nonnull align 8 dereferenceable(48) %list, ptr noundef %szName, ptr noundef nonnull align 4 dereferenceable(64) %errorReturn) #2 comdat {
entry:
  %retval = alloca ptr, align 8
  %list.addr = alloca ptr, align 8
  %szName.addr = alloca ptr, align 8
  %errorReturn.addr = alloca ptr, align 8
  %hash = alloca i32, align 4
  %it = alloca %"struct.std::_Rb_tree_const_iterator.128", align 8
  %ref.tmp = alloca %"struct.std::_Rb_tree_const_iterator.128", align 8
  store ptr %list, ptr %list.addr, align 8
  store ptr %szName, ptr %szName.addr, align 8
  store ptr %errorReturn, ptr %errorReturn.addr, align 8
  %0 = load ptr, ptr %szName.addr, align 8
  %call = call noundef i32 @_Z13SuperFastHashPKcjj(ptr noundef %0, i32 noundef 0, i32 noundef 0)
  store i32 %call, ptr %hash, align 4
  %1 = load ptr, ptr %list.addr, align 8
  %call1 = call ptr @_ZNKSt3mapIj12aiMatrix4x4tIfESt4lessIjESaISt4pairIKjS1_EEE4findERS5_(ptr noundef nonnull align 8 dereferenceable(48) %1, ptr noundef nonnull align 4 dereferenceable(4) %hash)
  %coerce.dive = getelementptr inbounds %"struct.std::_Rb_tree_const_iterator.128", ptr %it, i32 0, i32 0
  store ptr %call1, ptr %coerce.dive, align 8
  %2 = load ptr, ptr %list.addr, align 8
  %call2 = call ptr @_ZNKSt3mapIj12aiMatrix4x4tIfESt4lessIjESaISt4pairIKjS1_EEE3endEv(ptr noundef nonnull align 8 dereferenceable(48) %2) #16
  %coerce.dive3 = getelementptr inbounds %"struct.std::_Rb_tree_const_iterator.128", ptr %ref.tmp, i32 0, i32 0
  store ptr %call2, ptr %coerce.dive3, align 8
  %call4 = call noundef zeroext i1 @_ZSteqRKSt23_Rb_tree_const_iteratorISt4pairIKj12aiMatrix4x4tIfEEES7_(ptr noundef nonnull align 8 dereferenceable(8) %it, ptr noundef nonnull align 8 dereferenceable(8) %ref.tmp) #16
  br i1 %call4, label %if.then, label %if.end

if.then:                                          ; preds = %entry
  %3 = load ptr, ptr %errorReturn.addr, align 8
  store ptr %3, ptr %retval, align 8
  br label %return

if.end:                                           ; preds = %entry
  %call5 = call noundef nonnull align 4 dereferenceable(68) ptr @_ZNKSt23_Rb_tree_const_iteratorISt4pairIKj12aiMatrix4x4tIfEEEdeEv(ptr noundef nonnull align 8 dereferenceable(8) %it) #16
  %second = getelementptr inbounds %"struct.std::pair.79", ptr %call5, i32 0, i32 1
  store ptr %second, ptr %retval, align 8
  br label %return

return:                                           ; preds = %if.end, %if.then
  %4 = load ptr, ptr %retval, align 8
  ret ptr %4
}

; Function Attrs: nocallback nofree nounwind willreturn memory(argmem: readwrite)
declare void @llvm.memcpy.p0.p0.i64(ptr noalias nocapture writeonly, ptr noalias nocapture readonly, i64, i1 immarg) #12

; Function Attrs: mustprogress uwtable
define noundef zeroext i1 @_ZNK6Assimp16ExportProperties18HasPropertyIntegerEPKc(ptr noundef nonnull align 8 dereferenceable(240) %this, ptr noundef %szName) #2 align 2 {
entry:
  %this.addr = alloca ptr, align 8
  %szName.addr = alloca ptr, align 8
  store ptr %this, ptr %this.addr, align 8
  store ptr %szName, ptr %szName.addr, align 8
  %this1 = load ptr, ptr %this.addr, align 8
  %mIntProperties = getelementptr inbounds %"class.Assimp::ExportProperties", ptr %this1, i32 0, i32 0
  %0 = load ptr, ptr %szName.addr, align 8
  %call = call noundef zeroext i1 @_Z18HasGenericPropertyIiEbRKSt3mapIjT_St4lessIjESaISt4pairIKjS1_EEEPKc(ptr noundef nonnull align 8 dereferenceable(48) %mIntProperties, ptr noundef %0)
  ret i1 %call
}

; Function Attrs: mustprogress uwtable
define linkonce_odr hidden noundef zeroext i1 @_Z18HasGenericPropertyIiEbRKSt3mapIjT_St4lessIjESaISt4pairIKjS1_EEEPKc(ptr noundef nonnull align 8 dereferenceable(48) %list, ptr noundef %szName) #2 comdat {
entry:
  %retval = alloca i1, align 1
  %list.addr = alloca ptr, align 8
  %szName.addr = alloca ptr, align 8
  %hash = alloca i32, align 4
  %it = alloca %"struct.std::_Rb_tree_const_iterator.101", align 8
  %ref.tmp = alloca %"struct.std::_Rb_tree_const_iterator.101", align 8
  store ptr %list, ptr %list.addr, align 8
  store ptr %szName, ptr %szName.addr, align 8
  %0 = load ptr, ptr %szName.addr, align 8
  %call = call noundef i32 @_Z13SuperFastHashPKcjj(ptr noundef %0, i32 noundef 0, i32 noundef 0)
  store i32 %call, ptr %hash, align 4
  %1 = load ptr, ptr %list.addr, align 8
  %call1 = call ptr @_ZNKSt3mapIjiSt4lessIjESaISt4pairIKjiEEE4findERS3_(ptr noundef nonnull align 8 dereferenceable(48) %1, ptr noundef nonnull align 4 dereferenceable(4) %hash)
  %coerce.dive = getelementptr inbounds %"struct.std::_Rb_tree_const_iterator.101", ptr %it, i32 0, i32 0
  store ptr %call1, ptr %coerce.dive, align 8
  %2 = load ptr, ptr %list.addr, align 8
  %call2 = call ptr @_ZNKSt3mapIjiSt4lessIjESaISt4pairIKjiEEE3endEv(ptr noundef nonnull align 8 dereferenceable(48) %2) #16
  %coerce.dive3 = getelementptr inbounds %"struct.std::_Rb_tree_const_iterator.101", ptr %ref.tmp, i32 0, i32 0
  store ptr %call2, ptr %coerce.dive3, align 8
  %call4 = call noundef zeroext i1 @_ZSteqRKSt23_Rb_tree_const_iteratorISt4pairIKjiEES5_(ptr noundef nonnull align 8 dereferenceable(8) %it, ptr noundef nonnull align 8 dereferenceable(8) %ref.tmp) #16
  br i1 %call4, label %if.then, label %if.end

if.then:                                          ; preds = %entry
  store i1 false, ptr %retval, align 1
  br label %return

if.end:                                           ; preds = %entry
  store i1 true, ptr %retval, align 1
  br label %return

return:                                           ; preds = %if.end, %if.then
  %3 = load i1, ptr %retval, align 1
  ret i1 %3
}

; Function Attrs: mustprogress uwtable
define noundef zeroext i1 @_ZNK6Assimp16ExportProperties15HasPropertyBoolEPKc(ptr noundef nonnull align 8 dereferenceable(240) %this, ptr noundef %szName) #2 align 2 {
entry:
  %this.addr = alloca ptr, align 8
  %szName.addr = alloca ptr, align 8
  store ptr %this, ptr %this.addr, align 8
  store ptr %szName, ptr %szName.addr, align 8
  %this1 = load ptr, ptr %this.addr, align 8
  %mIntProperties = getelementptr inbounds %"class.Assimp::ExportProperties", ptr %this1, i32 0, i32 0
  %0 = load ptr, ptr %szName.addr, align 8
  %call = call noundef zeroext i1 @_Z18HasGenericPropertyIiEbRKSt3mapIjT_St4lessIjESaISt4pairIKjS1_EEEPKc(ptr noundef nonnull align 8 dereferenceable(48) %mIntProperties, ptr noundef %0)
  ret i1 %call
}

; Function Attrs: mustprogress uwtable
define noundef zeroext i1 @_ZNK6Assimp16ExportProperties16HasPropertyFloatEPKc(ptr noundef nonnull align 8 dereferenceable(240) %this, ptr noundef %szName) #2 align 2 {
entry:
  %this.addr = alloca ptr, align 8
  %szName.addr = alloca ptr, align 8
  store ptr %this, ptr %this.addr, align 8
  store ptr %szName, ptr %szName.addr, align 8
  %this1 = load ptr, ptr %this.addr, align 8
  %mFloatProperties = getelementptr inbounds %"class.Assimp::ExportProperties", ptr %this1, i32 0, i32 1
  %0 = load ptr, ptr %szName.addr, align 8
  %call = call noundef zeroext i1 @_Z18HasGenericPropertyIfEbRKSt3mapIjT_St4lessIjESaISt4pairIKjS1_EEEPKc(ptr noundef nonnull align 8 dereferenceable(48) %mFloatProperties, ptr noundef %0)
  ret i1 %call
}

; Function Attrs: mustprogress uwtable
define linkonce_odr hidden noundef zeroext i1 @_Z18HasGenericPropertyIfEbRKSt3mapIjT_St4lessIjESaISt4pairIKjS1_EEEPKc(ptr noundef nonnull align 8 dereferenceable(48) %list, ptr noundef %szName) #2 comdat {
entry:
  %retval = alloca i1, align 1
  %list.addr = alloca ptr, align 8
  %szName.addr = alloca ptr, align 8
  %hash = alloca i32, align 4
  %it = alloca %"struct.std::_Rb_tree_const_iterator.110", align 8
  %ref.tmp = alloca %"struct.std::_Rb_tree_const_iterator.110", align 8
  store ptr %list, ptr %list.addr, align 8
  store ptr %szName, ptr %szName.addr, align 8
  %0 = load ptr, ptr %szName.addr, align 8
  %call = call noundef i32 @_Z13SuperFastHashPKcjj(ptr noundef %0, i32 noundef 0, i32 noundef 0)
  store i32 %call, ptr %hash, align 4
  %1 = load ptr, ptr %list.addr, align 8
  %call1 = call ptr @_ZNKSt3mapIjfSt4lessIjESaISt4pairIKjfEEE4findERS3_(ptr noundef nonnull align 8 dereferenceable(48) %1, ptr noundef nonnull align 4 dereferenceable(4) %hash)
  %coerce.dive = getelementptr inbounds %"struct.std::_Rb_tree_const_iterator.110", ptr %it, i32 0, i32 0
  store ptr %call1, ptr %coerce.dive, align 8
  %2 = load ptr, ptr %list.addr, align 8
  %call2 = call ptr @_ZNKSt3mapIjfSt4lessIjESaISt4pairIKjfEEE3endEv(ptr noundef nonnull align 8 dereferenceable(48) %2) #16
  %coerce.dive3 = getelementptr inbounds %"struct.std::_Rb_tree_const_iterator.110", ptr %ref.tmp, i32 0, i32 0
  store ptr %call2, ptr %coerce.dive3, align 8
  %call4 = call noundef zeroext i1 @_ZSteqRKSt23_Rb_tree_const_iteratorISt4pairIKjfEES5_(ptr noundef nonnull align 8 dereferenceable(8) %it, ptr noundef nonnull align 8 dereferenceable(8) %ref.tmp) #16
  br i1 %call4, label %if.then, label %if.end

if.then:                                          ; preds = %entry
  store i1 false, ptr %retval, align 1
  br label %return

if.end:                                           ; preds = %entry
  store i1 true, ptr %retval, align 1
  br label %return

return:                                           ; preds = %if.end, %if.then
  %3 = load i1, ptr %retval, align 1
  ret i1 %3
}

; Function Attrs: mustprogress uwtable
define noundef zeroext i1 @_ZNK6Assimp16ExportProperties17HasPropertyStringEPKc(ptr noundef nonnull align 8 dereferenceable(240) %this, ptr noundef %szName) #2 align 2 {
entry:
  %this.addr = alloca ptr, align 8
  %szName.addr = alloca ptr, align 8
  store ptr %this, ptr %this.addr, align 8
  store ptr %szName, ptr %szName.addr, align 8
  %this1 = load ptr, ptr %this.addr, align 8
  %mStringProperties = getelementptr inbounds %"class.Assimp::ExportProperties", ptr %this1, i32 0, i32 2
  %0 = load ptr, ptr %szName.addr, align 8
  %call = call noundef zeroext i1 @_Z18HasGenericPropertyINSt7__cxx1112basic_stringIcSt11char_traitsIcESaIcEEEEbRKSt3mapIjT_St4lessIjESaISt4pairIKjS7_EEEPKc(ptr noundef nonnull align 8 dereferenceable(48) %mStringProperties, ptr noundef %0)
  ret i1 %call
}

; Function Attrs: mustprogress uwtable
define linkonce_odr hidden noundef zeroext i1 @_Z18HasGenericPropertyINSt7__cxx1112basic_stringIcSt11char_traitsIcESaIcEEEEbRKSt3mapIjT_St4lessIjESaISt4pairIKjS7_EEEPKc(ptr noundef nonnull align 8 dereferenceable(48) %list, ptr noundef %szName) #2 comdat {
entry:
  %retval = alloca i1, align 1
  %list.addr = alloca ptr, align 8
  %szName.addr = alloca ptr, align 8
  %hash = alloca i32, align 4
  %it = alloca %"struct.std::_Rb_tree_const_iterator.119", align 8
  %ref.tmp = alloca %"struct.std::_Rb_tree_const_iterator.119", align 8
  store ptr %list, ptr %list.addr, align 8
  store ptr %szName, ptr %szName.addr, align 8
  %0 = load ptr, ptr %szName.addr, align 8
  %call = call noundef i32 @_Z13SuperFastHashPKcjj(ptr noundef %0, i32 noundef 0, i32 noundef 0)
  store i32 %call, ptr %hash, align 4
  %1 = load ptr, ptr %list.addr, align 8
  %call1 = call ptr @_ZNKSt3mapIjNSt7__cxx1112basic_stringIcSt11char_traitsIcESaIcEEESt4lessIjESaISt4pairIKjS5_EEE4findERS9_(ptr noundef nonnull align 8 dereferenceable(48) %1, ptr noundef nonnull align 4 dereferenceable(4) %hash)
  %coerce.dive = getelementptr inbounds %"struct.std::_Rb_tree_const_iterator.119", ptr %it, i32 0, i32 0
  store ptr %call1, ptr %coerce.dive, align 8
  %2 = load ptr, ptr %list.addr, align 8
  %call2 = call ptr @_ZNKSt3mapIjNSt7__cxx1112basic_stringIcSt11char_traitsIcESaIcEEESt4lessIjESaISt4pairIKjS5_EEE3endEv(ptr noundef nonnull align 8 dereferenceable(48) %2) #16
  %coerce.dive3 = getelementptr inbounds %"struct.std::_Rb_tree_const_iterator.119", ptr %ref.tmp, i32 0, i32 0
  store ptr %call2, ptr %coerce.dive3, align 8
  %call4 = call noundef zeroext i1 @_ZSteqRKSt23_Rb_tree_const_iteratorISt4pairIKjNSt7__cxx1112basic_stringIcSt11char_traitsIcESaIcEEEEESB_(ptr noundef nonnull align 8 dereferenceable(8) %it, ptr noundef nonnull align 8 dereferenceable(8) %ref.tmp) #16
  br i1 %call4, label %if.then, label %if.end

if.then:                                          ; preds = %entry
  store i1 false, ptr %retval, align 1
  br label %return

if.end:                                           ; preds = %entry
  store i1 true, ptr %retval, align 1
  br label %return

return:                                           ; preds = %if.end, %if.then
  %3 = load i1, ptr %retval, align 1
  ret i1 %3
}

; Function Attrs: mustprogress uwtable
define noundef zeroext i1 @_ZNK6Assimp16ExportProperties17HasPropertyMatrixEPKc(ptr noundef nonnull align 8 dereferenceable(240) %this, ptr noundef %szName) #2 align 2 {
entry:
  %this.addr = alloca ptr, align 8
  %szName.addr = alloca ptr, align 8
  store ptr %this, ptr %this.addr, align 8
  store ptr %szName, ptr %szName.addr, align 8
  %this1 = load ptr, ptr %this.addr, align 8
  %mMatrixProperties = getelementptr inbounds %"class.Assimp::ExportProperties", ptr %this1, i32 0, i32 3
  %0 = load ptr, ptr %szName.addr, align 8
  %call = call noundef zeroext i1 @_Z18HasGenericPropertyI12aiMatrix4x4tIfEEbRKSt3mapIjT_St4lessIjESaISt4pairIKjS3_EEEPKc(ptr noundef nonnull align 8 dereferenceable(48) %mMatrixProperties, ptr noundef %0)
  ret i1 %call
}

; Function Attrs: mustprogress uwtable
define linkonce_odr hidden noundef zeroext i1 @_Z18HasGenericPropertyI12aiMatrix4x4tIfEEbRKSt3mapIjT_St4lessIjESaISt4pairIKjS3_EEEPKc(ptr noundef nonnull align 8 dereferenceable(48) %list, ptr noundef %szName) #2 comdat {
entry:
  %retval = alloca i1, align 1
  %list.addr = alloca ptr, align 8
  %szName.addr = alloca ptr, align 8
  %hash = alloca i32, align 4
  %it = alloca %"struct.std::_Rb_tree_const_iterator.128", align 8
  %ref.tmp = alloca %"struct.std::_Rb_tree_const_iterator.128", align 8
  store ptr %list, ptr %list.addr, align 8
  store ptr %szName, ptr %szName.addr, align 8
  %0 = load ptr, ptr %szName.addr, align 8
  %call = call noundef i32 @_Z13SuperFastHashPKcjj(ptr noundef %0, i32 noundef 0, i32 noundef 0)
  store i32 %call, ptr %hash, align 4
  %1 = load ptr, ptr %list.addr, align 8
  %call1 = call ptr @_ZNKSt3mapIj12aiMatrix4x4tIfESt4lessIjESaISt4pairIKjS1_EEE4findERS5_(ptr noundef nonnull align 8 dereferenceable(48) %1, ptr noundef nonnull align 4 dereferenceable(4) %hash)
  %coerce.dive = getelementptr inbounds %"struct.std::_Rb_tree_const_iterator.128", ptr %it, i32 0, i32 0
  store ptr %call1, ptr %coerce.dive, align 8
  %2 = load ptr, ptr %list.addr, align 8
  %call2 = call ptr @_ZNKSt3mapIj12aiMatrix4x4tIfESt4lessIjESaISt4pairIKjS1_EEE3endEv(ptr noundef nonnull align 8 dereferenceable(48) %2) #16
  %coerce.dive3 = getelementptr inbounds %"struct.std::_Rb_tree_const_iterator.128", ptr %ref.tmp, i32 0, i32 0
  store ptr %call2, ptr %coerce.dive3, align 8
  %call4 = call noundef zeroext i1 @_ZSteqRKSt23_Rb_tree_const_iteratorISt4pairIKj12aiMatrix4x4tIfEEES7_(ptr noundef nonnull align 8 dereferenceable(8) %it, ptr noundef nonnull align 8 dereferenceable(8) %ref.tmp) #16
  br i1 %call4, label %if.then, label %if.end

if.then:                                          ; preds = %entry
  store i1 false, ptr %retval, align 1
  br label %return

if.end:                                           ; preds = %entry
  store i1 true, ptr %retval, align 1
  br label %return

return:                                           ; preds = %if.end, %if.then
  %3 = load i1, ptr %retval, align 1
  ret i1 %3
}

; Function Attrs: mustprogress nounwind uwtable
define linkonce_odr void @_ZN6Assimp9LogStreamD2Ev(ptr noundef nonnull align 8 dereferenceable(8) %this) unnamed_addr #0 comdat align 2 {
entry:
  %this.addr = alloca ptr, align 8
  store ptr %this, ptr %this.addr, align 8
  ret void
}

declare void @__cxa_pure_virtual() unnamed_addr

; Function Attrs: mustprogress nounwind uwtable
define linkonce_odr void @_ZN6Assimp6LoggerD2Ev(ptr noundef nonnull align 8 dereferenceable(12) %this) unnamed_addr #0 comdat align 2 {
entry:
  %this.addr = alloca ptr, align 8
  store ptr %this, ptr %this.addr, align 8
  ret void
}

; Function Attrs: mustprogress nounwind uwtable
define linkonce_odr void @_ZN6Assimp8IOStreamD2Ev(ptr noundef nonnull align 8 dereferenceable(8) %this) unnamed_addr #0 comdat align 2 {
entry:
  %this.addr = alloca ptr, align 8
  store ptr %this, ptr %this.addr, align 8
  ret void
}

; Function Attrs: mustprogress nounwind uwtable
define linkonce_odr void @_ZN6Assimp8IOSystemD2Ev(ptr noundef nonnull align 8 dereferenceable(32) %this) unnamed_addr #0 comdat align 2 {
entry:
  %this.addr = alloca ptr, align 8
  store ptr %this, ptr %this.addr, align 8
  %this1 = load ptr, ptr %this.addr, align 8
  store ptr getelementptr inbounds ({ [16 x ptr] }, ptr @_ZTVN6Assimp8IOSystemE, i32 0, inrange i32 0, i32 2), ptr %this1, align 8
  %m_pathStack = getelementptr inbounds %"class.Assimp::IOSystem", ptr %this1, i32 0, i32 1
  call void @_ZNSt6vectorINSt7__cxx1112basic_stringIcSt11char_traitsIcESaIcEEESaIS5_EED2Ev(ptr noundef nonnull align 8 dereferenceable(24) %m_pathStack) #16
  ret void
}

declare noundef zeroext i1 @_ZNK6Assimp8IOSystem12ComparePathsEPKcS2_(ptr noundef nonnull align 8 dereferenceable(32), ptr noundef, ptr noundef) unnamed_addr #7

; Function Attrs: mustprogress uwtable
define linkonce_odr noundef zeroext i1 @_ZN6Assimp8IOSystem13PushDirectoryERKNSt7__cxx1112basic_stringIcSt11char_traitsIcESaIcEEE(ptr noundef nonnull align 8 dereferenceable(32) %this, ptr noundef nonnull align 8 dereferenceable(32) %path) unnamed_addr #2 comdat align 2 {
entry:
  %retval = alloca i1, align 1
  %this.addr = alloca ptr, align 8
  %path.addr = alloca ptr, align 8
  store ptr %this, ptr %this.addr, align 8
  store ptr %path, ptr %path.addr, align 8
  %this1 = load ptr, ptr %this.addr, align 8
  %0 = load ptr, ptr %path.addr, align 8
  %call = call noundef zeroext i1 @_ZNKSt7__cxx1112basic_stringIcSt11char_traitsIcESaIcEE5emptyEv(ptr noundef nonnull align 8 dereferenceable(32) %0) #16
  br i1 %call, label %if.then, label %if.end

if.then:                                          ; preds = %entry
  store i1 false, ptr %retval, align 1
  br label %return

if.end:                                           ; preds = %entry
  %m_pathStack = getelementptr inbounds %"class.Assimp::IOSystem", ptr %this1, i32 0, i32 1
  %1 = load ptr, ptr %path.addr, align 8
  call void @_ZNSt6vectorINSt7__cxx1112basic_stringIcSt11char_traitsIcESaIcEEESaIS5_EE9push_backERKS5_(ptr noundef nonnull align 8 dereferenceable(24) %m_pathStack, ptr noundef nonnull align 8 dereferenceable(32) %1)
  store i1 true, ptr %retval, align 1
  br label %return

return:                                           ; preds = %if.end, %if.then
  %2 = load i1, ptr %retval, align 1
  ret i1 %2
}

declare noundef nonnull align 8 dereferenceable(32) ptr @_ZNK6Assimp8IOSystem16CurrentDirectoryB5cxx11Ev(ptr noundef nonnull align 8 dereferenceable(32)) unnamed_addr #7

; Function Attrs: mustprogress nounwind uwtable
define linkonce_odr noundef i64 @_ZNK6Assimp8IOSystem9StackSizeEv(ptr noundef nonnull align 8 dereferenceable(32) %this) unnamed_addr #0 comdat align 2 {
entry:
  %this.addr = alloca ptr, align 8
  store ptr %this, ptr %this.addr, align 8
  %this1 = load ptr, ptr %this.addr, align 8
  %m_pathStack = getelementptr inbounds %"class.Assimp::IOSystem", ptr %this1, i32 0, i32 1
  %call = call noundef i64 @_ZNKSt6vectorINSt7__cxx1112basic_stringIcSt11char_traitsIcESaIcEEESaIS5_EE4sizeEv(ptr noundef nonnull align 8 dereferenceable(24) %m_pathStack) #16
  ret i64 %call
}

; Function Attrs: mustprogress nounwind uwtable
define linkonce_odr noundef zeroext i1 @_ZN6Assimp8IOSystem12PopDirectoryEv(ptr noundef nonnull align 8 dereferenceable(32) %this) unnamed_addr #0 comdat align 2 {
entry:
  %retval = alloca i1, align 1
  %this.addr = alloca ptr, align 8
  store ptr %this, ptr %this.addr, align 8
  %this1 = load ptr, ptr %this.addr, align 8
  %m_pathStack = getelementptr inbounds %"class.Assimp::IOSystem", ptr %this1, i32 0, i32 1
  %call = call noundef zeroext i1 @_ZNKSt6vectorINSt7__cxx1112basic_stringIcSt11char_traitsIcESaIcEEESaIS5_EE5emptyEv(ptr noundef nonnull align 8 dereferenceable(24) %m_pathStack) #16
  br i1 %call, label %if.then, label %if.end

if.then:                                          ; preds = %entry
  store i1 false, ptr %retval, align 1
  br label %return

if.end:                                           ; preds = %entry
  %m_pathStack2 = getelementptr inbounds %"class.Assimp::IOSystem", ptr %this1, i32 0, i32 1
  call void @_ZNSt6vectorINSt7__cxx1112basic_stringIcSt11char_traitsIcESaIcEEESaIS5_EE8pop_backEv(ptr noundef nonnull align 8 dereferenceable(24) %m_pathStack2) #16
  store i1 true, ptr %retval, align 1
  br label %return

return:                                           ; preds = %if.end, %if.then
  %0 = load i1, ptr %retval, align 1
  ret i1 %0
}

; Function Attrs: mustprogress nounwind uwtable
define linkonce_odr noundef zeroext i1 @_ZN6Assimp8IOSystem15CreateDirectoryERKNSt7__cxx1112basic_stringIcSt11char_traitsIcESaIcEEE(ptr noundef nonnull align 8 dereferenceable(32) %this, ptr noundef nonnull align 8 dereferenceable(32) %path) unnamed_addr #0 comdat align 2 {
entry:
  %retval = alloca i1, align 1
  %this.addr = alloca ptr, align 8
  %path.addr = alloca ptr, align 8
  store ptr %this, ptr %this.addr, align 8
  store ptr %path, ptr %path.addr, align 8
  %0 = load ptr, ptr %path.addr, align 8
  %call = call noundef zeroext i1 @_ZNKSt7__cxx1112basic_stringIcSt11char_traitsIcESaIcEE5emptyEv(ptr noundef nonnull align 8 dereferenceable(32) %0) #16
  br i1 %call, label %if.then, label %if.end

if.then:                                          ; preds = %entry
  store i1 false, ptr %retval, align 1
  br label %return

if.end:                                           ; preds = %entry
  %1 = load ptr, ptr %path.addr, align 8
  %call2 = call noundef ptr @_ZNKSt7__cxx1112basic_stringIcSt11char_traitsIcESaIcEE5c_strEv(ptr noundef nonnull align 8 dereferenceable(32) %1) #16
  %call3 = call i32 @mkdir(ptr noundef %call2, i32 noundef 511) #16
  %cmp = icmp ne i32 0, %call3
  store i1 %cmp, ptr %retval, align 1
  br label %return

return:                                           ; preds = %if.end, %if.then
  %2 = load i1, ptr %retval, align 1
  ret i1 %2
}

; Function Attrs: mustprogress nounwind uwtable
define linkonce_odr noundef zeroext i1 @_ZN6Assimp8IOSystem15ChangeDirectoryERKNSt7__cxx1112basic_stringIcSt11char_traitsIcESaIcEEE(ptr noundef nonnull align 8 dereferenceable(32) %this, ptr noundef nonnull align 8 dereferenceable(32) %path) unnamed_addr #0 comdat align 2 {
entry:
  %retval = alloca i1, align 1
  %this.addr = alloca ptr, align 8
  %path.addr = alloca ptr, align 8
  store ptr %this, ptr %this.addr, align 8
  store ptr %path, ptr %path.addr, align 8
  %0 = load ptr, ptr %path.addr, align 8
  %call = call noundef zeroext i1 @_ZNKSt7__cxx1112basic_stringIcSt11char_traitsIcESaIcEE5emptyEv(ptr noundef nonnull align 8 dereferenceable(32) %0) #16
  br i1 %call, label %if.then, label %if.end

if.then:                                          ; preds = %entry
  store i1 false, ptr %retval, align 1
  br label %return

if.end:                                           ; preds = %entry
  %1 = load ptr, ptr %path.addr, align 8
  %call2 = call noundef ptr @_ZNKSt7__cxx1112basic_stringIcSt11char_traitsIcESaIcEE5c_strEv(ptr noundef nonnull align 8 dereferenceable(32) %1) #16
  %call3 = call i32 @chdir(ptr noundef %call2) #16
  %cmp = icmp ne i32 0, %call3
  store i1 %cmp, ptr %retval, align 1
  br label %return

return:                                           ; preds = %if.end, %if.then
  %2 = load i1, ptr %retval, align 1
  ret i1 %2
}

; Function Attrs: mustprogress nounwind uwtable
define linkonce_odr noundef zeroext i1 @_ZN6Assimp8IOSystem10DeleteFileERKNSt7__cxx1112basic_stringIcSt11char_traitsIcESaIcEEE(ptr noundef nonnull align 8 dereferenceable(32) %this, ptr noundef nonnull align 8 dereferenceable(32) %file) unnamed_addr #0 comdat align 2 {
entry:
  %retval = alloca i1, align 1
  %this.addr = alloca ptr, align 8
  %file.addr = alloca ptr, align 8
  %retCode = alloca i32, align 4
  store ptr %this, ptr %this.addr, align 8
  store ptr %file, ptr %file.addr, align 8
  %0 = load ptr, ptr %file.addr, align 8
  %call = call noundef zeroext i1 @_ZNKSt7__cxx1112basic_stringIcSt11char_traitsIcESaIcEE5emptyEv(ptr noundef nonnull align 8 dereferenceable(32) %0) #16
  br i1 %call, label %if.then, label %if.end

if.then:                                          ; preds = %entry
  store i1 false, ptr %retval, align 1
  br label %return

if.end:                                           ; preds = %entry
  %1 = load ptr, ptr %file.addr, align 8
  %call2 = call noundef ptr @_ZNKSt7__cxx1112basic_stringIcSt11char_traitsIcESaIcEE5c_strEv(ptr noundef nonnull align 8 dereferenceable(32) %1) #16
  %call3 = call i32 @remove(ptr noundef %call2) #16
  store i32 %call3, ptr %retCode, align 4
  %2 = load i32, ptr %retCode, align 4
  %cmp = icmp eq i32 0, %2
  store i1 %cmp, ptr %retval, align 1
  br label %return

return:                                           ; preds = %if.end, %if.then
  %3 = load i1, ptr %retval, align 1
  ret i1 %3
}

; Function Attrs: mustprogress nounwind uwtable
define linkonce_odr hidden noundef i64 @_ZN6Assimp12BlobIOStream4ReadEPvmm(ptr noundef nonnull align 8 dereferenceable(88) %this, ptr noundef %0, i64 noundef %1, i64 noundef %2) unnamed_addr #0 comdat align 2 {
entry:
  %this.addr = alloca ptr, align 8
  %.addr = alloca ptr, align 8
  %.addr1 = alloca i64, align 8
  %.addr2 = alloca i64, align 8
  store ptr %this, ptr %this.addr, align 8
  store ptr %0, ptr %.addr, align 8
  store i64 %1, ptr %.addr1, align 8
  store i64 %2, ptr %.addr2, align 8
  ret i64 0
}

; Function Attrs: mustprogress uwtable
define linkonce_odr hidden noundef i64 @_ZN6Assimp12BlobIOStream5WriteEPKvmm(ptr noundef nonnull align 8 dereferenceable(88) %this, ptr noundef %pvBuffer, i64 noundef %pSize, i64 noundef %pCount) unnamed_addr #2 comdat align 2 {
entry:
  %this.addr = alloca ptr, align 8
  %pvBuffer.addr = alloca ptr, align 8
  %pSize.addr = alloca i64, align 8
  %pCount.addr = alloca i64, align 8
  store ptr %this, ptr %this.addr, align 8
  store ptr %pvBuffer, ptr %pvBuffer.addr, align 8
  store i64 %pSize, ptr %pSize.addr, align 8
  store i64 %pCount, ptr %pCount.addr, align 8
  %this1 = load ptr, ptr %this.addr, align 8
  %0 = load i64, ptr %pCount.addr, align 8
  %1 = load i64, ptr %pSize.addr, align 8
  %mul = mul i64 %1, %0
  store i64 %mul, ptr %pSize.addr, align 8
  %cursor = getelementptr inbounds %"class.Assimp::BlobIOStream", ptr %this1, i32 0, i32 4
  %2 = load i64, ptr %cursor, align 8
  %3 = load i64, ptr %pSize.addr, align 8
  %add = add i64 %2, %3
  %cur_size = getelementptr inbounds %"class.Assimp::BlobIOStream", ptr %this1, i32 0, i32 2
  %4 = load i64, ptr %cur_size, align 8
  %cmp = icmp ugt i64 %add, %4
  br i1 %cmp, label %if.then, label %if.end

if.then:                                          ; preds = %entry
  %cursor2 = getelementptr inbounds %"class.Assimp::BlobIOStream", ptr %this1, i32 0, i32 4
  %5 = load i64, ptr %cursor2, align 8
  %6 = load i64, ptr %pSize.addr, align 8
  %add3 = add i64 %5, %6
  call void @_ZN6Assimp12BlobIOStream4GrowEm(ptr noundef nonnull align 8 dereferenceable(88) %this1, i64 noundef %add3)
  br label %if.end

if.end:                                           ; preds = %if.then, %entry
  %buffer = getelementptr inbounds %"class.Assimp::BlobIOStream", ptr %this1, i32 0, i32 1
  %7 = load ptr, ptr %buffer, align 8
  %cursor4 = getelementptr inbounds %"class.Assimp::BlobIOStream", ptr %this1, i32 0, i32 4
  %8 = load i64, ptr %cursor4, align 8
  %add.ptr = getelementptr inbounds i8, ptr %7, i64 %8
  %9 = load ptr, ptr %pvBuffer.addr, align 8
  %10 = load i64, ptr %pSize.addr, align 8
  call void @llvm.memcpy.p0.p0.i64(ptr align 1 %add.ptr, ptr align 1 %9, i64 %10, i1 false)
  %11 = load i64, ptr %pSize.addr, align 8
  %cursor5 = getelementptr inbounds %"class.Assimp::BlobIOStream", ptr %this1, i32 0, i32 4
  %12 = load i64, ptr %cursor5, align 8
  %add6 = add i64 %12, %11
  store i64 %add6, ptr %cursor5, align 8
  %file_size = getelementptr inbounds %"class.Assimp::BlobIOStream", ptr %this1, i32 0, i32 3
  %cursor7 = getelementptr inbounds %"class.Assimp::BlobIOStream", ptr %this1, i32 0, i32 4
  %call = call noundef nonnull align 8 dereferenceable(8) ptr @_ZSt3maxImERKT_S2_S2_(ptr noundef nonnull align 8 dereferenceable(8) %file_size, ptr noundef nonnull align 8 dereferenceable(8) %cursor7)
  %13 = load i64, ptr %call, align 8
  %file_size8 = getelementptr inbounds %"class.Assimp::BlobIOStream", ptr %this1, i32 0, i32 3
  store i64 %13, ptr %file_size8, align 8
  %14 = load i64, ptr %pCount.addr, align 8
  ret i64 %14
}

; Function Attrs: mustprogress uwtable
define linkonce_odr hidden noundef i32 @_ZN6Assimp12BlobIOStream4SeekEm8aiOrigin(ptr noundef nonnull align 8 dereferenceable(88) %this, i64 noundef %pOffset, i32 noundef %pOrigin) unnamed_addr #2 comdat align 2 {
entry:
  %retval = alloca i32, align 4
  %this.addr = alloca ptr, align 8
  %pOffset.addr = alloca i64, align 8
  %pOrigin.addr = alloca i32, align 4
  store ptr %this, ptr %this.addr, align 8
  store i64 %pOffset, ptr %pOffset.addr, align 8
  store i32 %pOrigin, ptr %pOrigin.addr, align 4
  %this1 = load ptr, ptr %this.addr, align 8
  %0 = load i32, ptr %pOrigin.addr, align 4
  switch i32 %0, label %sw.default [
    i32 1, label %sw.bb
    i32 2, label %sw.bb2
    i32 0, label %sw.bb4
  ]

sw.bb:                                            ; preds = %entry
  %1 = load i64, ptr %pOffset.addr, align 8
  %cursor = getelementptr inbounds %"class.Assimp::BlobIOStream", ptr %this1, i32 0, i32 4
  %2 = load i64, ptr %cursor, align 8
  %add = add i64 %2, %1
  store i64 %add, ptr %cursor, align 8
  br label %sw.epilog

sw.bb2:                                           ; preds = %entry
  %file_size = getelementptr inbounds %"class.Assimp::BlobIOStream", ptr %this1, i32 0, i32 3
  %3 = load i64, ptr %file_size, align 8
  %4 = load i64, ptr %pOffset.addr, align 8
  %sub = sub i64 %3, %4
  %cursor3 = getelementptr inbounds %"class.Assimp::BlobIOStream", ptr %this1, i32 0, i32 4
  store i64 %sub, ptr %cursor3, align 8
  br label %sw.epilog

sw.bb4:                                           ; preds = %entry
  %5 = load i64, ptr %pOffset.addr, align 8
  %cursor5 = getelementptr inbounds %"class.Assimp::BlobIOStream", ptr %this1, i32 0, i32 4
  store i64 %5, ptr %cursor5, align 8
  br label %sw.epilog

sw.default:                                       ; preds = %entry
  store i32 -1, ptr %retval, align 4
  br label %return

sw.epilog:                                        ; preds = %sw.bb4, %sw.bb2, %sw.bb
  %cursor6 = getelementptr inbounds %"class.Assimp::BlobIOStream", ptr %this1, i32 0, i32 4
  %6 = load i64, ptr %cursor6, align 8
  %file_size7 = getelementptr inbounds %"class.Assimp::BlobIOStream", ptr %this1, i32 0, i32 3
  %7 = load i64, ptr %file_size7, align 8
  %cmp = icmp ugt i64 %6, %7
  br i1 %cmp, label %if.then, label %if.end

if.then:                                          ; preds = %sw.epilog
  %cursor8 = getelementptr inbounds %"class.Assimp::BlobIOStream", ptr %this1, i32 0, i32 4
  %8 = load i64, ptr %cursor8, align 8
  call void @_ZN6Assimp12BlobIOStream4GrowEm(ptr noundef nonnull align 8 dereferenceable(88) %this1, i64 noundef %8)
  br label %if.end

if.end:                                           ; preds = %if.then, %sw.epilog
  %cursor9 = getelementptr inbounds %"class.Assimp::BlobIOStream", ptr %this1, i32 0, i32 4
  %file_size10 = getelementptr inbounds %"class.Assimp::BlobIOStream", ptr %this1, i32 0, i32 3
  %call = call noundef nonnull align 8 dereferenceable(8) ptr @_ZSt3maxImERKT_S2_S2_(ptr noundef nonnull align 8 dereferenceable(8) %cursor9, ptr noundef nonnull align 8 dereferenceable(8) %file_size10)
  %9 = load i64, ptr %call, align 8
  %file_size11 = getelementptr inbounds %"class.Assimp::BlobIOStream", ptr %this1, i32 0, i32 3
  store i64 %9, ptr %file_size11, align 8
  store i32 0, ptr %retval, align 4
  br label %return

return:                                           ; preds = %if.end, %sw.default
  %10 = load i32, ptr %retval, align 4
  ret i32 %10
}

; Function Attrs: mustprogress nounwind uwtable
define linkonce_odr hidden noundef i64 @_ZNK6Assimp12BlobIOStream4TellEv(ptr noundef nonnull align 8 dereferenceable(88) %this) unnamed_addr #0 comdat align 2 {
entry:
  %this.addr = alloca ptr, align 8
  store ptr %this, ptr %this.addr, align 8
  %this1 = load ptr, ptr %this.addr, align 8
  %cursor = getelementptr inbounds %"class.Assimp::BlobIOStream", ptr %this1, i32 0, i32 4
  %0 = load i64, ptr %cursor, align 8
  ret i64 %0
}

; Function Attrs: mustprogress nounwind uwtable
define linkonce_odr hidden noundef i64 @_ZNK6Assimp12BlobIOStream8FileSizeEv(ptr noundef nonnull align 8 dereferenceable(88) %this) unnamed_addr #0 comdat align 2 {
entry:
  %this.addr = alloca ptr, align 8
  store ptr %this, ptr %this.addr, align 8
  %this1 = load ptr, ptr %this.addr, align 8
  %file_size = getelementptr inbounds %"class.Assimp::BlobIOStream", ptr %this1, i32 0, i32 3
  %0 = load i64, ptr %file_size, align 8
  ret i64 %0
}

; Function Attrs: mustprogress nounwind uwtable
define linkonce_odr hidden void @_ZN6Assimp12BlobIOStream5FlushEv(ptr noundef nonnull align 8 dereferenceable(88) %this) unnamed_addr #0 comdat align 2 {
entry:
  %this.addr = alloca ptr, align 8
  store ptr %this, ptr %this.addr, align 8
  ret void
}

; Function Attrs: mustprogress uwtable
define linkonce_odr hidden noundef nonnull align 8 dereferenceable(40) ptr @_ZNSt6vectorISt4pairINSt7__cxx1112basic_stringIcSt11char_traitsIcESaIcEEEP16aiExportDataBlobESaIS9_EE12emplace_backIJRKS6_S8_EEERS9_DpOT_(ptr noundef nonnull align 8 dereferenceable(24) %this, ptr noundef nonnull align 8 dereferenceable(32) %__args, ptr noundef nonnull align 8 dereferenceable(8) %__args1) #2 comdat align 2 {
entry:
  %this.addr = alloca ptr, align 8
  %__args.addr = alloca ptr, align 8
  %__args.addr2 = alloca ptr, align 8
  %agg.tmp = alloca %"class.__gnu_cxx::__normal_iterator.52", align 8
  store ptr %this, ptr %this.addr, align 8
  store ptr %__args, ptr %__args.addr, align 8
  store ptr %__args1, ptr %__args.addr2, align 8
  %this3 = load ptr, ptr %this.addr, align 8
  %_M_impl = getelementptr inbounds %"struct.std::_Vector_base.7", ptr %this3, i32 0, i32 0
  %_M_finish = getelementptr inbounds %"struct.std::_Vector_base<std::pair<std::__cxx11::basic_string<char>, aiExportDataBlob *>, std::allocator<std::pair<std::__cxx11::basic_string<char>, aiExportDataBlob *>>>::_Vector_impl_data", ptr %_M_impl, i32 0, i32 1
  %0 = load ptr, ptr %_M_finish, align 8
  %_M_impl4 = getelementptr inbounds %"struct.std::_Vector_base.7", ptr %this3, i32 0, i32 0
  %_M_end_of_storage = getelementptr inbounds %"struct.std::_Vector_base<std::pair<std::__cxx11::basic_string<char>, aiExportDataBlob *>, std::allocator<std::pair<std::__cxx11::basic_string<char>, aiExportDataBlob *>>>::_Vector_impl_data", ptr %_M_impl4, i32 0, i32 2
  %1 = load ptr, ptr %_M_end_of_storage, align 8
  %cmp = icmp ne ptr %0, %1
  br i1 %cmp, label %if.then, label %if.else

if.then:                                          ; preds = %entry
  %_M_impl5 = getelementptr inbounds %"struct.std::_Vector_base.7", ptr %this3, i32 0, i32 0
  %_M_impl6 = getelementptr inbounds %"struct.std::_Vector_base.7", ptr %this3, i32 0, i32 0
  %_M_finish7 = getelementptr inbounds %"struct.std::_Vector_base<std::pair<std::__cxx11::basic_string<char>, aiExportDataBlob *>, std::allocator<std::pair<std::__cxx11::basic_string<char>, aiExportDataBlob *>>>::_Vector_impl_data", ptr %_M_impl6, i32 0, i32 1
  %2 = load ptr, ptr %_M_finish7, align 8
  %3 = load ptr, ptr %__args.addr, align 8
  %4 = load ptr, ptr %__args.addr2, align 8
  call void @_ZNSt16allocator_traitsISaISt4pairINSt7__cxx1112basic_stringIcSt11char_traitsIcESaIcEEEP16aiExportDataBlobEEE9constructIS9_JRKS6_S8_EEEvRSA_PT_DpOT0_(ptr noundef nonnull align 1 dereferenceable(1) %_M_impl5, ptr noundef %2, ptr noundef nonnull align 8 dereferenceable(32) %3, ptr noundef nonnull align 8 dereferenceable(8) %4)
  %_M_impl8 = getelementptr inbounds %"struct.std::_Vector_base.7", ptr %this3, i32 0, i32 0
  %_M_finish9 = getelementptr inbounds %"struct.std::_Vector_base<std::pair<std::__cxx11::basic_string<char>, aiExportDataBlob *>, std::allocator<std::pair<std::__cxx11::basic_string<char>, aiExportDataBlob *>>>::_Vector_impl_data", ptr %_M_impl8, i32 0, i32 1
  %5 = load ptr, ptr %_M_finish9, align 8
  %incdec.ptr = getelementptr inbounds %"struct.std::pair", ptr %5, i32 1
  store ptr %incdec.ptr, ptr %_M_finish9, align 8
  br label %if.end

if.else:                                          ; preds = %entry
  %call = call ptr @_ZNSt6vectorISt4pairINSt7__cxx1112basic_stringIcSt11char_traitsIcESaIcEEEP16aiExportDataBlobESaIS9_EE3endEv(ptr noundef nonnull align 8 dereferenceable(24) %this3) #16
  %coerce.dive = getelementptr inbounds %"class.__gnu_cxx::__normal_iterator.52", ptr %agg.tmp, i32 0, i32 0
  store ptr %call, ptr %coerce.dive, align 8
  %6 = load ptr, ptr %__args.addr, align 8
  %7 = load ptr, ptr %__args.addr2, align 8
  %coerce.dive10 = getelementptr inbounds %"class.__gnu_cxx::__normal_iterator.52", ptr %agg.tmp, i32 0, i32 0
  %8 = load ptr, ptr %coerce.dive10, align 8
  call void @_ZNSt6vectorISt4pairINSt7__cxx1112basic_stringIcSt11char_traitsIcESaIcEEEP16aiExportDataBlobESaIS9_EE17_M_realloc_insertIJRKS6_S8_EEEvN9__gnu_cxx17__normal_iteratorIPS9_SB_EEDpOT_(ptr noundef nonnull align 8 dereferenceable(24) %this3, ptr %8, ptr noundef nonnull align 8 dereferenceable(32) %6, ptr noundef nonnull align 8 dereferenceable(8) %7)
  br label %if.end

if.end:                                           ; preds = %if.else, %if.then
  %call11 = call noundef nonnull align 8 dereferenceable(40) ptr @_ZNSt6vectorISt4pairINSt7__cxx1112basic_stringIcSt11char_traitsIcESaIcEEEP16aiExportDataBlobESaIS9_EE4backEv(ptr noundef nonnull align 8 dereferenceable(24) %this3) #16
  ret ptr %call11
}

; Function Attrs: mustprogress uwtable
define linkonce_odr hidden noundef ptr @_ZN6Assimp12BlobIOStream7GetBlobEv(ptr noundef nonnull align 8 dereferenceable(88) %this) #2 comdat align 2 personality ptr @__gxx_personality_v0 {
entry:
  %this.addr = alloca ptr, align 8
  %blob = alloca ptr, align 8
  %exn.slot = alloca ptr, align 8
  %ehselector.slot = alloca i32, align 4
  store ptr %this, ptr %this.addr, align 8
  %this1 = load ptr, ptr %this.addr, align 8
  %call = call noalias noundef nonnull ptr @_Znwm(i64 noundef 1056) #18
  invoke void @_ZN16aiExportDataBlobC2Ev(ptr noundef nonnull align 8 dereferenceable(1056) %call)
          to label %invoke.cont unwind label %lpad

invoke.cont:                                      ; preds = %entry
  store ptr %call, ptr %blob, align 8
  %file_size = getelementptr inbounds %"class.Assimp::BlobIOStream", ptr %this1, i32 0, i32 3
  %0 = load i64, ptr %file_size, align 8
  %1 = load ptr, ptr %blob, align 8
  %size = getelementptr inbounds %struct.aiExportDataBlob, ptr %1, i32 0, i32 0
  store i64 %0, ptr %size, align 8
  %buffer = getelementptr inbounds %"class.Assimp::BlobIOStream", ptr %this1, i32 0, i32 1
  %2 = load ptr, ptr %buffer, align 8
  %3 = load ptr, ptr %blob, align 8
  %data = getelementptr inbounds %struct.aiExportDataBlob, ptr %3, i32 0, i32 1
  store ptr %2, ptr %data, align 8
  %buffer2 = getelementptr inbounds %"class.Assimp::BlobIOStream", ptr %this1, i32 0, i32 1
  store ptr null, ptr %buffer2, align 8
  %4 = load ptr, ptr %blob, align 8
  ret ptr %4

lpad:                                             ; preds = %entry
  %5 = landingpad { ptr, i32 }
          cleanup
  %6 = extractvalue { ptr, i32 } %5, 0
  store ptr %6, ptr %exn.slot, align 8
  %7 = extractvalue { ptr, i32 } %5, 1
  store i32 %7, ptr %ehselector.slot, align 4
  call void @_ZdlPv(ptr noundef %call) #17
  br label %eh.resume

eh.resume:                                        ; preds = %lpad
  %exn = load ptr, ptr %exn.slot, align 8
  %sel = load i32, ptr %ehselector.slot, align 4
  %lpad.val = insertvalue { ptr, i32 } poison, ptr %exn, 0
  %lpad.val3 = insertvalue { ptr, i32 } %lpad.val, i32 %sel, 1
  resume { ptr, i32 } %lpad.val3
}

; Function Attrs: mustprogress uwtable
define linkonce_odr hidden void @_ZNSt16allocator_traitsISaISt4pairINSt7__cxx1112basic_stringIcSt11char_traitsIcESaIcEEEP16aiExportDataBlobEEE9constructIS9_JRKS6_S8_EEEvRSA_PT_DpOT0_(ptr noundef nonnull align 1 dereferenceable(1) %__a, ptr noundef %__p, ptr noundef nonnull align 8 dereferenceable(32) %__args, ptr noundef nonnull align 8 dereferenceable(8) %__args1) #2 comdat align 2 {
entry:
  %__a.addr = alloca ptr, align 8
  %__p.addr = alloca ptr, align 8
  %__args.addr = alloca ptr, align 8
  %__args.addr2 = alloca ptr, align 8
  store ptr %__a, ptr %__a.addr, align 8
  store ptr %__p, ptr %__p.addr, align 8
  store ptr %__args, ptr %__args.addr, align 8
  store ptr %__args1, ptr %__args.addr2, align 8
  %0 = load ptr, ptr %__a.addr, align 8
  %1 = load ptr, ptr %__p.addr, align 8
  %2 = load ptr, ptr %__args.addr, align 8
  %3 = load ptr, ptr %__args.addr2, align 8
  call void @_ZNSt15__new_allocatorISt4pairINSt7__cxx1112basic_stringIcSt11char_traitsIcESaIcEEEP16aiExportDataBlobEE9constructIS9_JRKS6_S8_EEEvPT_DpOT0_(ptr noundef nonnull align 1 dereferenceable(1) %0, ptr noundef %1, ptr noundef nonnull align 8 dereferenceable(32) %2, ptr noundef nonnull align 8 dereferenceable(8) %3)
  ret void
}

; Function Attrs: mustprogress uwtable
define linkonce_odr hidden void @_ZNSt6vectorISt4pairINSt7__cxx1112basic_stringIcSt11char_traitsIcESaIcEEEP16aiExportDataBlobESaIS9_EE17_M_realloc_insertIJRKS6_S8_EEEvN9__gnu_cxx17__normal_iteratorIPS9_SB_EEDpOT_(ptr noundef nonnull align 8 dereferenceable(24) %this, ptr %__position.coerce, ptr noundef nonnull align 8 dereferenceable(32) %__args, ptr noundef nonnull align 8 dereferenceable(8) %__args1) #2 comdat align 2 personality ptr @__gxx_personality_v0 {
entry:
  %__position = alloca %"class.__gnu_cxx::__normal_iterator.52", align 8
  %this.addr = alloca ptr, align 8
  %__args.addr = alloca ptr, align 8
  %__args.addr2 = alloca ptr, align 8
  %__len = alloca i64, align 8
  %__old_start = alloca ptr, align 8
  %__old_finish = alloca ptr, align 8
  %__elems_before = alloca i64, align 8
  %ref.tmp = alloca %"class.__gnu_cxx::__normal_iterator.52", align 8
  %__new_start = alloca ptr, align 8
  %__new_finish = alloca ptr, align 8
  %exn.slot = alloca ptr, align 8
  %ehselector.slot = alloca i32, align 4
  %coerce.dive = getelementptr inbounds %"class.__gnu_cxx::__normal_iterator.52", ptr %__position, i32 0, i32 0
  store ptr %__position.coerce, ptr %coerce.dive, align 8
  store ptr %this, ptr %this.addr, align 8
  store ptr %__args, ptr %__args.addr, align 8
  store ptr %__args1, ptr %__args.addr2, align 8
  %this3 = load ptr, ptr %this.addr, align 8
  %call = call noundef i64 @_ZNKSt6vectorISt4pairINSt7__cxx1112basic_stringIcSt11char_traitsIcESaIcEEEP16aiExportDataBlobESaIS9_EE12_M_check_lenEmPKc(ptr noundef nonnull align 8 dereferenceable(24) %this3, i64 noundef 1, ptr noundef @.str.7)
  store i64 %call, ptr %__len, align 8
  %_M_impl = getelementptr inbounds %"struct.std::_Vector_base.7", ptr %this3, i32 0, i32 0
  %_M_start = getelementptr inbounds %"struct.std::_Vector_base<std::pair<std::__cxx11::basic_string<char>, aiExportDataBlob *>, std::allocator<std::pair<std::__cxx11::basic_string<char>, aiExportDataBlob *>>>::_Vector_impl_data", ptr %_M_impl, i32 0, i32 0
  %0 = load ptr, ptr %_M_start, align 8
  store ptr %0, ptr %__old_start, align 8
  %_M_impl4 = getelementptr inbounds %"struct.std::_Vector_base.7", ptr %this3, i32 0, i32 0
  %_M_finish = getelementptr inbounds %"struct.std::_Vector_base<std::pair<std::__cxx11::basic_string<char>, aiExportDataBlob *>, std::allocator<std::pair<std::__cxx11::basic_string<char>, aiExportDataBlob *>>>::_Vector_impl_data", ptr %_M_impl4, i32 0, i32 1
  %1 = load ptr, ptr %_M_finish, align 8
  store ptr %1, ptr %__old_finish, align 8
  %call5 = call ptr @_ZNSt6vectorISt4pairINSt7__cxx1112basic_stringIcSt11char_traitsIcESaIcEEEP16aiExportDataBlobESaIS9_EE5beginEv(ptr noundef nonnull align 8 dereferenceable(24) %this3) #16
  %coerce.dive6 = getelementptr inbounds %"class.__gnu_cxx::__normal_iterator.52", ptr %ref.tmp, i32 0, i32 0
  store ptr %call5, ptr %coerce.dive6, align 8
  %call7 = call noundef i64 @_ZN9__gnu_cxxmiIPSt4pairINSt7__cxx1112basic_stringIcSt11char_traitsIcESaIcEEEP16aiExportDataBlobESt6vectorISA_SaISA_EEEENS_17__normal_iteratorIT_T0_E15difference_typeERKSI_SL_(ptr noundef nonnull align 8 dereferenceable(8) %__position, ptr noundef nonnull align 8 dereferenceable(8) %ref.tmp) #16
  store i64 %call7, ptr %__elems_before, align 8
  %2 = load i64, ptr %__len, align 8
  %call8 = call noundef ptr @_ZNSt12_Vector_baseISt4pairINSt7__cxx1112basic_stringIcSt11char_traitsIcESaIcEEEP16aiExportDataBlobESaIS9_EE11_M_allocateEm(ptr noundef nonnull align 8 dereferenceable(24) %this3, i64 noundef %2)
  store ptr %call8, ptr %__new_start, align 8
  %3 = load ptr, ptr %__new_start, align 8
  store ptr %3, ptr %__new_finish, align 8
  %_M_impl9 = getelementptr inbounds %"struct.std::_Vector_base.7", ptr %this3, i32 0, i32 0
  %4 = load ptr, ptr %__new_start, align 8
  %5 = load i64, ptr %__elems_before, align 8
  %add.ptr = getelementptr inbounds %"struct.std::pair", ptr %4, i64 %5
  %6 = load ptr, ptr %__args.addr, align 8
  %7 = load ptr, ptr %__args.addr2, align 8
  invoke void @_ZNSt16allocator_traitsISaISt4pairINSt7__cxx1112basic_stringIcSt11char_traitsIcESaIcEEEP16aiExportDataBlobEEE9constructIS9_JRKS6_S8_EEEvRSA_PT_DpOT0_(ptr noundef nonnull align 1 dereferenceable(1) %_M_impl9, ptr noundef %add.ptr, ptr noundef nonnull align 8 dereferenceable(32) %6, ptr noundef nonnull align 8 dereferenceable(8) %7)
          to label %invoke.cont unwind label %lpad

invoke.cont:                                      ; preds = %entry
  store ptr null, ptr %__new_finish, align 8
  %8 = load ptr, ptr %__old_start, align 8
  %call10 = call noundef nonnull align 8 dereferenceable(8) ptr @_ZNK9__gnu_cxx17__normal_iteratorIPSt4pairINSt7__cxx1112basic_stringIcSt11char_traitsIcESaIcEEEP16aiExportDataBlobESt6vectorISA_SaISA_EEE4baseEv(ptr noundef nonnull align 8 dereferenceable(8) %__position) #16
  %9 = load ptr, ptr %call10, align 8
  %10 = load ptr, ptr %__new_start, align 8
  %call11 = call noundef nonnull align 1 dereferenceable(1) ptr @_ZNSt12_Vector_baseISt4pairINSt7__cxx1112basic_stringIcSt11char_traitsIcESaIcEEEP16aiExportDataBlobESaIS9_EE19_M_get_Tp_allocatorEv(ptr noundef nonnull align 8 dereferenceable(24) %this3) #16
  %call12 = call noundef ptr @_ZNSt6vectorISt4pairINSt7__cxx1112basic_stringIcSt11char_traitsIcESaIcEEEP16aiExportDataBlobESaIS9_EE11_S_relocateEPS9_SC_SC_RSA_(ptr noundef %8, ptr noundef %9, ptr noundef %10, ptr noundef nonnull align 1 dereferenceable(1) %call11) #16
  store ptr %call12, ptr %__new_finish, align 8
  %11 = load ptr, ptr %__new_finish, align 8
  %incdec.ptr = getelementptr inbounds %"struct.std::pair", ptr %11, i32 1
  store ptr %incdec.ptr, ptr %__new_finish, align 8
  %call13 = call noundef nonnull align 8 dereferenceable(8) ptr @_ZNK9__gnu_cxx17__normal_iteratorIPSt4pairINSt7__cxx1112basic_stringIcSt11char_traitsIcESaIcEEEP16aiExportDataBlobESt6vectorISA_SaISA_EEE4baseEv(ptr noundef nonnull align 8 dereferenceable(8) %__position) #16
  %12 = load ptr, ptr %call13, align 8
  %13 = load ptr, ptr %__old_finish, align 8
  %14 = load ptr, ptr %__new_finish, align 8
  %call14 = call noundef nonnull align 1 dereferenceable(1) ptr @_ZNSt12_Vector_baseISt4pairINSt7__cxx1112basic_stringIcSt11char_traitsIcESaIcEEEP16aiExportDataBlobESaIS9_EE19_M_get_Tp_allocatorEv(ptr noundef nonnull align 8 dereferenceable(24) %this3) #16
  %call15 = call noundef ptr @_ZNSt6vectorISt4pairINSt7__cxx1112basic_stringIcSt11char_traitsIcESaIcEEEP16aiExportDataBlobESaIS9_EE11_S_relocateEPS9_SC_SC_RSA_(ptr noundef %12, ptr noundef %13, ptr noundef %14, ptr noundef nonnull align 1 dereferenceable(1) %call14) #16
  store ptr %call15, ptr %__new_finish, align 8
  br label %try.cont

lpad:                                             ; preds = %entry
  %15 = landingpad { ptr, i32 }
          catch ptr null
  %16 = extractvalue { ptr, i32 } %15, 0
  store ptr %16, ptr %exn.slot, align 8
  %17 = extractvalue { ptr, i32 } %15, 1
  store i32 %17, ptr %ehselector.slot, align 4
  br label %catch

catch:                                            ; preds = %lpad
  %exn = load ptr, ptr %exn.slot, align 8
  %18 = call ptr @__cxa_begin_catch(ptr %exn) #16
  %19 = load ptr, ptr %__new_finish, align 8
  %tobool = icmp ne ptr %19, null
  br i1 %tobool, label %if.else, label %if.then

if.then:                                          ; preds = %catch
  %_M_impl16 = getelementptr inbounds %"struct.std::_Vector_base.7", ptr %this3, i32 0, i32 0
  %20 = load ptr, ptr %__new_start, align 8
  %21 = load i64, ptr %__elems_before, align 8
  %add.ptr17 = getelementptr inbounds %"struct.std::pair", ptr %20, i64 %21
  call void @_ZNSt16allocator_traitsISaISt4pairINSt7__cxx1112basic_stringIcSt11char_traitsIcESaIcEEEP16aiExportDataBlobEEE7destroyIS9_EEvRSA_PT_(ptr noundef nonnull align 1 dereferenceable(1) %_M_impl16, ptr noundef %add.ptr17) #16
  br label %if.end

if.else:                                          ; preds = %catch
  %22 = load ptr, ptr %__new_start, align 8
  %23 = load ptr, ptr %__new_finish, align 8
  %call18 = call noundef nonnull align 1 dereferenceable(1) ptr @_ZNSt12_Vector_baseISt4pairINSt7__cxx1112basic_stringIcSt11char_traitsIcESaIcEEEP16aiExportDataBlobESaIS9_EE19_M_get_Tp_allocatorEv(ptr noundef nonnull align 8 dereferenceable(24) %this3) #16
  invoke void @_ZSt8_DestroyIPSt4pairINSt7__cxx1112basic_stringIcSt11char_traitsIcESaIcEEEP16aiExportDataBlobES9_EvT_SB_RSaIT0_E(ptr noundef %22, ptr noundef %23, ptr noundef nonnull align 1 dereferenceable(1) %call18)
          to label %invoke.cont20 unwind label %lpad19

invoke.cont20:                                    ; preds = %if.else
  br label %if.end

lpad19:                                           ; preds = %invoke.cont21, %if.end, %if.else
  %24 = landingpad { ptr, i32 }
          cleanup
  %25 = extractvalue { ptr, i32 } %24, 0
  store ptr %25, ptr %exn.slot, align 8
  %26 = extractvalue { ptr, i32 } %24, 1
  store i32 %26, ptr %ehselector.slot, align 4
  invoke void @__cxa_end_catch()
          to label %invoke.cont22 unwind label %terminate.lpad

if.end:                                           ; preds = %invoke.cont20, %if.then
  %27 = load ptr, ptr %__new_start, align 8
  %28 = load i64, ptr %__len, align 8
  invoke void @_ZNSt12_Vector_baseISt4pairINSt7__cxx1112basic_stringIcSt11char_traitsIcESaIcEEEP16aiExportDataBlobESaIS9_EE13_M_deallocateEPS9_m(ptr noundef nonnull align 8 dereferenceable(24) %this3, ptr noundef %27, i64 noundef %28)
          to label %invoke.cont21 unwind label %lpad19

invoke.cont21:                                    ; preds = %if.end
  invoke void @__cxa_rethrow() #19
          to label %unreachable unwind label %lpad19

invoke.cont22:                                    ; preds = %lpad19
  br label %eh.resume

try.cont:                                         ; preds = %invoke.cont
  %29 = load ptr, ptr %__old_start, align 8
  %_M_impl23 = getelementptr inbounds %"struct.std::_Vector_base.7", ptr %this3, i32 0, i32 0
  %_M_end_of_storage = getelementptr inbounds %"struct.std::_Vector_base<std::pair<std::__cxx11::basic_string<char>, aiExportDataBlob *>, std::allocator<std::pair<std::__cxx11::basic_string<char>, aiExportDataBlob *>>>::_Vector_impl_data", ptr %_M_impl23, i32 0, i32 2
  %30 = load ptr, ptr %_M_end_of_storage, align 8
  %31 = load ptr, ptr %__old_start, align 8
  %sub.ptr.lhs.cast = ptrtoint ptr %30 to i64
  %sub.ptr.rhs.cast = ptrtoint ptr %31 to i64
  %sub.ptr.sub = sub i64 %sub.ptr.lhs.cast, %sub.ptr.rhs.cast
  %sub.ptr.div = sdiv exact i64 %sub.ptr.sub, 40
  call void @_ZNSt12_Vector_baseISt4pairINSt7__cxx1112basic_stringIcSt11char_traitsIcESaIcEEEP16aiExportDataBlobESaIS9_EE13_M_deallocateEPS9_m(ptr noundef nonnull align 8 dereferenceable(24) %this3, ptr noundef %29, i64 noundef %sub.ptr.div)
  %32 = load ptr, ptr %__new_start, align 8
  %_M_impl24 = getelementptr inbounds %"struct.std::_Vector_base.7", ptr %this3, i32 0, i32 0
  %_M_start25 = getelementptr inbounds %"struct.std::_Vector_base<std::pair<std::__cxx11::basic_string<char>, aiExportDataBlob *>, std::allocator<std::pair<std::__cxx11::basic_string<char>, aiExportDataBlob *>>>::_Vector_impl_data", ptr %_M_impl24, i32 0, i32 0
  store ptr %32, ptr %_M_start25, align 8
  %33 = load ptr, ptr %__new_finish, align 8
  %_M_impl26 = getelementptr inbounds %"struct.std::_Vector_base.7", ptr %this3, i32 0, i32 0
  %_M_finish27 = getelementptr inbounds %"struct.std::_Vector_base<std::pair<std::__cxx11::basic_string<char>, aiExportDataBlob *>, std::allocator<std::pair<std::__cxx11::basic_string<char>, aiExportDataBlob *>>>::_Vector_impl_data", ptr %_M_impl26, i32 0, i32 1
  store ptr %33, ptr %_M_finish27, align 8
  %34 = load ptr, ptr %__new_start, align 8
  %35 = load i64, ptr %__len, align 8
  %add.ptr28 = getelementptr inbounds %"struct.std::pair", ptr %34, i64 %35
  %_M_impl29 = getelementptr inbounds %"struct.std::_Vector_base.7", ptr %this3, i32 0, i32 0
  %_M_end_of_storage30 = getelementptr inbounds %"struct.std::_Vector_base<std::pair<std::__cxx11::basic_string<char>, aiExportDataBlob *>, std::allocator<std::pair<std::__cxx11::basic_string<char>, aiExportDataBlob *>>>::_Vector_impl_data", ptr %_M_impl29, i32 0, i32 2
  store ptr %add.ptr28, ptr %_M_end_of_storage30, align 8
  ret void

eh.resume:                                        ; preds = %invoke.cont22
  %exn31 = load ptr, ptr %exn.slot, align 8
  %sel = load i32, ptr %ehselector.slot, align 4
  %lpad.val = insertvalue { ptr, i32 } poison, ptr %exn31, 0
  %lpad.val32 = insertvalue { ptr, i32 } %lpad.val, i32 %sel, 1
  resume { ptr, i32 } %lpad.val32

terminate.lpad:                                   ; preds = %lpad19
  %36 = landingpad { ptr, i32 }
          catch ptr null
  %37 = extractvalue { ptr, i32 } %36, 0
  call void @__clang_call_terminate(ptr %37) #15
  unreachable

unreachable:                                      ; preds = %invoke.cont21
  unreachable
}

; Function Attrs: mustprogress nounwind uwtable
define linkonce_odr hidden ptr @_ZNSt6vectorISt4pairINSt7__cxx1112basic_stringIcSt11char_traitsIcESaIcEEEP16aiExportDataBlobESaIS9_EE3endEv(ptr noundef nonnull align 8 dereferenceable(24) %this) #0 comdat align 2 {
entry:
  %retval = alloca %"class.__gnu_cxx::__normal_iterator.52", align 8
  %this.addr = alloca ptr, align 8
  store ptr %this, ptr %this.addr, align 8
  %this1 = load ptr, ptr %this.addr, align 8
  %_M_impl = getelementptr inbounds %"struct.std::_Vector_base.7", ptr %this1, i32 0, i32 0
  %_M_finish = getelementptr inbounds %"struct.std::_Vector_base<std::pair<std::__cxx11::basic_string<char>, aiExportDataBlob *>, std::allocator<std::pair<std::__cxx11::basic_string<char>, aiExportDataBlob *>>>::_Vector_impl_data", ptr %_M_impl, i32 0, i32 1
  call void @_ZN9__gnu_cxx17__normal_iteratorIPSt4pairINSt7__cxx1112basic_stringIcSt11char_traitsIcESaIcEEEP16aiExportDataBlobESt6vectorISA_SaISA_EEEC2ERKSB_(ptr noundef nonnull align 8 dereferenceable(8) %retval, ptr noundef nonnull align 8 dereferenceable(8) %_M_finish) #16
  %coerce.dive = getelementptr inbounds %"class.__gnu_cxx::__normal_iterator.52", ptr %retval, i32 0, i32 0
  %0 = load ptr, ptr %coerce.dive, align 8
  ret ptr %0
}

; Function Attrs: mustprogress nounwind uwtable
define linkonce_odr hidden noundef nonnull align 8 dereferenceable(40) ptr @_ZNSt6vectorISt4pairINSt7__cxx1112basic_stringIcSt11char_traitsIcESaIcEEEP16aiExportDataBlobESaIS9_EE4backEv(ptr noundef nonnull align 8 dereferenceable(24) %this) #0 comdat align 2 {
entry:
  %this.addr = alloca ptr, align 8
  %ref.tmp = alloca %"class.__gnu_cxx::__normal_iterator.52", align 8
  %ref.tmp2 = alloca %"class.__gnu_cxx::__normal_iterator.52", align 8
  store ptr %this, ptr %this.addr, align 8
  %this1 = load ptr, ptr %this.addr, align 8
  %call = call ptr @_ZNSt6vectorISt4pairINSt7__cxx1112basic_stringIcSt11char_traitsIcESaIcEEEP16aiExportDataBlobESaIS9_EE3endEv(ptr noundef nonnull align 8 dereferenceable(24) %this1) #16
  %coerce.dive = getelementptr inbounds %"class.__gnu_cxx::__normal_iterator.52", ptr %ref.tmp2, i32 0, i32 0
  store ptr %call, ptr %coerce.dive, align 8
  %call3 = call ptr @_ZNK9__gnu_cxx17__normal_iteratorIPSt4pairINSt7__cxx1112basic_stringIcSt11char_traitsIcESaIcEEEP16aiExportDataBlobESt6vectorISA_SaISA_EEEmiEl(ptr noundef nonnull align 8 dereferenceable(8) %ref.tmp2, i64 noundef 1) #16
  %coerce.dive4 = getelementptr inbounds %"class.__gnu_cxx::__normal_iterator.52", ptr %ref.tmp, i32 0, i32 0
  store ptr %call3, ptr %coerce.dive4, align 8
  %call5 = call noundef nonnull align 8 dereferenceable(40) ptr @_ZNK9__gnu_cxx17__normal_iteratorIPSt4pairINSt7__cxx1112basic_stringIcSt11char_traitsIcESaIcEEEP16aiExportDataBlobESt6vectorISA_SaISA_EEEdeEv(ptr noundef nonnull align 8 dereferenceable(8) %ref.tmp) #16
  ret ptr %call5
}

; Function Attrs: mustprogress uwtable
define linkonce_odr hidden void @_ZNSt15__new_allocatorISt4pairINSt7__cxx1112basic_stringIcSt11char_traitsIcESaIcEEEP16aiExportDataBlobEE9constructIS9_JRKS6_S8_EEEvPT_DpOT0_(ptr noundef nonnull align 1 dereferenceable(1) %this, ptr noundef %__p, ptr noundef nonnull align 8 dereferenceable(32) %__args, ptr noundef nonnull align 8 dereferenceable(8) %__args1) #2 comdat align 2 {
entry:
  %this.addr = alloca ptr, align 8
  %__p.addr = alloca ptr, align 8
  %__args.addr = alloca ptr, align 8
  %__args.addr2 = alloca ptr, align 8
  store ptr %this, ptr %this.addr, align 8
  store ptr %__p, ptr %__p.addr, align 8
  store ptr %__args, ptr %__args.addr, align 8
  store ptr %__args1, ptr %__args.addr2, align 8
  %0 = load ptr, ptr %__p.addr, align 8
  %1 = load ptr, ptr %__args.addr, align 8
  %2 = load ptr, ptr %__args.addr2, align 8
  call void @_ZNSt4pairINSt7__cxx1112basic_stringIcSt11char_traitsIcESaIcEEEP16aiExportDataBlobEC2IRKS5_S7_TnNSt9enable_ifIXaaclsr5_PCCPE22_MoveConstructiblePairIT_T0_EEclsr5_PCCPE30_ImplicitlyMoveConvertiblePairISD_SE_EEEbE4typeELb1EEEOSD_OSE_(ptr noundef nonnull align 8 dereferenceable(40) %0, ptr noundef nonnull align 8 dereferenceable(32) %1, ptr noundef nonnull align 8 dereferenceable(8) %2)
  ret void
}

; Function Attrs: mustprogress uwtable
define linkonce_odr hidden void @_ZNSt4pairINSt7__cxx1112basic_stringIcSt11char_traitsIcESaIcEEEP16aiExportDataBlobEC2IRKS5_S7_TnNSt9enable_ifIXaaclsr5_PCCPE22_MoveConstructiblePairIT_T0_EEclsr5_PCCPE30_ImplicitlyMoveConvertiblePairISD_SE_EEEbE4typeELb1EEEOSD_OSE_(ptr noundef nonnull align 8 dereferenceable(40) %this, ptr noundef nonnull align 8 dereferenceable(32) %__x, ptr noundef nonnull align 8 dereferenceable(8) %__y) unnamed_addr #2 comdat align 2 {
entry:
  %this.addr = alloca ptr, align 8
  %__x.addr = alloca ptr, align 8
  %__y.addr = alloca ptr, align 8
  store ptr %this, ptr %this.addr, align 8
  store ptr %__x, ptr %__x.addr, align 8
  store ptr %__y, ptr %__y.addr, align 8
  %this1 = load ptr, ptr %this.addr, align 8
  %first = getelementptr inbounds %"struct.std::pair", ptr %this1, i32 0, i32 0
  %0 = load ptr, ptr %__x.addr, align 8
  call void @_ZNSt7__cxx1112basic_stringIcSt11char_traitsIcESaIcEEC1ERKS4_(ptr noundef nonnull align 8 dereferenceable(32) %first, ptr noundef nonnull align 8 dereferenceable(32) %0)
  %second = getelementptr inbounds %"struct.std::pair", ptr %this1, i32 0, i32 1
  %1 = load ptr, ptr %__y.addr, align 8
  %2 = load ptr, ptr %1, align 8
  store ptr %2, ptr %second, align 8
  ret void
}

; Function Attrs: mustprogress uwtable
define linkonce_odr hidden noundef i64 @_ZNKSt6vectorISt4pairINSt7__cxx1112basic_stringIcSt11char_traitsIcESaIcEEEP16aiExportDataBlobESaIS9_EE12_M_check_lenEmPKc(ptr noundef nonnull align 8 dereferenceable(24) %this, i64 noundef %__n, ptr noundef %__s) #2 comdat align 2 {
entry:
  %this.addr = alloca ptr, align 8
  %__n.addr = alloca i64, align 8
  %__s.addr = alloca ptr, align 8
  %__len = alloca i64, align 8
  %ref.tmp = alloca i64, align 8
  store ptr %this, ptr %this.addr, align 8
  store i64 %__n, ptr %__n.addr, align 8
  store ptr %__s, ptr %__s.addr, align 8
  %this1 = load ptr, ptr %this.addr, align 8
  %call = call noundef i64 @_ZNKSt6vectorISt4pairINSt7__cxx1112basic_stringIcSt11char_traitsIcESaIcEEEP16aiExportDataBlobESaIS9_EE8max_sizeEv(ptr noundef nonnull align 8 dereferenceable(24) %this1) #16
  %call2 = call noundef i64 @_ZNKSt6vectorISt4pairINSt7__cxx1112basic_stringIcSt11char_traitsIcESaIcEEEP16aiExportDataBlobESaIS9_EE4sizeEv(ptr noundef nonnull align 8 dereferenceable(24) %this1) #16
  %sub = sub i64 %call, %call2
  %0 = load i64, ptr %__n.addr, align 8
  %cmp = icmp ult i64 %sub, %0
  br i1 %cmp, label %if.then, label %if.end

if.then:                                          ; preds = %entry
  %1 = load ptr, ptr %__s.addr, align 8
  call void @_ZSt20__throw_length_errorPKc(ptr noundef %1) #19
  unreachable

if.end:                                           ; preds = %entry
  %call3 = call noundef i64 @_ZNKSt6vectorISt4pairINSt7__cxx1112basic_stringIcSt11char_traitsIcESaIcEEEP16aiExportDataBlobESaIS9_EE4sizeEv(ptr noundef nonnull align 8 dereferenceable(24) %this1) #16
  %call4 = call noundef i64 @_ZNKSt6vectorISt4pairINSt7__cxx1112basic_stringIcSt11char_traitsIcESaIcEEEP16aiExportDataBlobESaIS9_EE4sizeEv(ptr noundef nonnull align 8 dereferenceable(24) %this1) #16
  store i64 %call4, ptr %ref.tmp, align 8
  %call5 = call noundef nonnull align 8 dereferenceable(8) ptr @_ZSt3maxImERKT_S2_S2_(ptr noundef nonnull align 8 dereferenceable(8) %ref.tmp, ptr noundef nonnull align 8 dereferenceable(8) %__n.addr)
  %2 = load i64, ptr %call5, align 8
  %add = add i64 %call3, %2
  store i64 %add, ptr %__len, align 8
  %3 = load i64, ptr %__len, align 8
  %call6 = call noundef i64 @_ZNKSt6vectorISt4pairINSt7__cxx1112basic_stringIcSt11char_traitsIcESaIcEEEP16aiExportDataBlobESaIS9_EE4sizeEv(ptr noundef nonnull align 8 dereferenceable(24) %this1) #16
  %cmp7 = icmp ult i64 %3, %call6
  br i1 %cmp7, label %cond.true, label %lor.lhs.false

lor.lhs.false:                                    ; preds = %if.end
  %4 = load i64, ptr %__len, align 8
  %call8 = call noundef i64 @_ZNKSt6vectorISt4pairINSt7__cxx1112basic_stringIcSt11char_traitsIcESaIcEEEP16aiExportDataBlobESaIS9_EE8max_sizeEv(ptr noundef nonnull align 8 dereferenceable(24) %this1) #16
  %cmp9 = icmp ugt i64 %4, %call8
  br i1 %cmp9, label %cond.true, label %cond.false

cond.true:                                        ; preds = %lor.lhs.false, %if.end
  %call10 = call noundef i64 @_ZNKSt6vectorISt4pairINSt7__cxx1112basic_stringIcSt11char_traitsIcESaIcEEEP16aiExportDataBlobESaIS9_EE8max_sizeEv(ptr noundef nonnull align 8 dereferenceable(24) %this1) #16
  br label %cond.end

cond.false:                                       ; preds = %lor.lhs.false
  %5 = load i64, ptr %__len, align 8
  br label %cond.end

cond.end:                                         ; preds = %cond.false, %cond.true
  %cond = phi i64 [ %call10, %cond.true ], [ %5, %cond.false ]
  ret i64 %cond
}

; Function Attrs: mustprogress nounwind uwtable
define linkonce_odr hidden noundef i64 @_ZN9__gnu_cxxmiIPSt4pairINSt7__cxx1112basic_stringIcSt11char_traitsIcESaIcEEEP16aiExportDataBlobESt6vectorISA_SaISA_EEEENS_17__normal_iteratorIT_T0_E15difference_typeERKSI_SL_(ptr noundef nonnull align 8 dereferenceable(8) %__lhs, ptr noundef nonnull align 8 dereferenceable(8) %__rhs) #0 comdat {
entry:
  %__lhs.addr = alloca ptr, align 8
  %__rhs.addr = alloca ptr, align 8
  store ptr %__lhs, ptr %__lhs.addr, align 8
  store ptr %__rhs, ptr %__rhs.addr, align 8
  %0 = load ptr, ptr %__lhs.addr, align 8
  %call = call noundef nonnull align 8 dereferenceable(8) ptr @_ZNK9__gnu_cxx17__normal_iteratorIPSt4pairINSt7__cxx1112basic_stringIcSt11char_traitsIcESaIcEEEP16aiExportDataBlobESt6vectorISA_SaISA_EEE4baseEv(ptr noundef nonnull align 8 dereferenceable(8) %0) #16
  %1 = load ptr, ptr %call, align 8
  %2 = load ptr, ptr %__rhs.addr, align 8
  %call1 = call noundef nonnull align 8 dereferenceable(8) ptr @_ZNK9__gnu_cxx17__normal_iteratorIPSt4pairINSt7__cxx1112basic_stringIcSt11char_traitsIcESaIcEEEP16aiExportDataBlobESt6vectorISA_SaISA_EEE4baseEv(ptr noundef nonnull align 8 dereferenceable(8) %2) #16
  %3 = load ptr, ptr %call1, align 8
  %sub.ptr.lhs.cast = ptrtoint ptr %1 to i64
  %sub.ptr.rhs.cast = ptrtoint ptr %3 to i64
  %sub.ptr.sub = sub i64 %sub.ptr.lhs.cast, %sub.ptr.rhs.cast
  %sub.ptr.div = sdiv exact i64 %sub.ptr.sub, 40
  ret i64 %sub.ptr.div
}

; Function Attrs: mustprogress nounwind uwtable
define linkonce_odr hidden ptr @_ZNSt6vectorISt4pairINSt7__cxx1112basic_stringIcSt11char_traitsIcESaIcEEEP16aiExportDataBlobESaIS9_EE5beginEv(ptr noundef nonnull align 8 dereferenceable(24) %this) #0 comdat align 2 {
entry:
  %retval = alloca %"class.__gnu_cxx::__normal_iterator.52", align 8
  %this.addr = alloca ptr, align 8
  store ptr %this, ptr %this.addr, align 8
  %this1 = load ptr, ptr %this.addr, align 8
  %_M_impl = getelementptr inbounds %"struct.std::_Vector_base.7", ptr %this1, i32 0, i32 0
  %_M_start = getelementptr inbounds %"struct.std::_Vector_base<std::pair<std::__cxx11::basic_string<char>, aiExportDataBlob *>, std::allocator<std::pair<std::__cxx11::basic_string<char>, aiExportDataBlob *>>>::_Vector_impl_data", ptr %_M_impl, i32 0, i32 0
  call void @_ZN9__gnu_cxx17__normal_iteratorIPSt4pairINSt7__cxx1112basic_stringIcSt11char_traitsIcESaIcEEEP16aiExportDataBlobESt6vectorISA_SaISA_EEEC2ERKSB_(ptr noundef nonnull align 8 dereferenceable(8) %retval, ptr noundef nonnull align 8 dereferenceable(8) %_M_start) #16
  %coerce.dive = getelementptr inbounds %"class.__gnu_cxx::__normal_iterator.52", ptr %retval, i32 0, i32 0
  %0 = load ptr, ptr %coerce.dive, align 8
  ret ptr %0
}

; Function Attrs: mustprogress uwtable
define linkonce_odr hidden noundef ptr @_ZNSt12_Vector_baseISt4pairINSt7__cxx1112basic_stringIcSt11char_traitsIcESaIcEEEP16aiExportDataBlobESaIS9_EE11_M_allocateEm(ptr noundef nonnull align 8 dereferenceable(24) %this, i64 noundef %__n) #2 comdat align 2 {
entry:
  %this.addr = alloca ptr, align 8
  %__n.addr = alloca i64, align 8
  store ptr %this, ptr %this.addr, align 8
  store i64 %__n, ptr %__n.addr, align 8
  %this1 = load ptr, ptr %this.addr, align 8
  %0 = load i64, ptr %__n.addr, align 8
  %cmp = icmp ne i64 %0, 0
  br i1 %cmp, label %cond.true, label %cond.false

cond.true:                                        ; preds = %entry
  %_M_impl = getelementptr inbounds %"struct.std::_Vector_base.7", ptr %this1, i32 0, i32 0
  %1 = load i64, ptr %__n.addr, align 8
  %call = call noundef ptr @_ZNSt16allocator_traitsISaISt4pairINSt7__cxx1112basic_stringIcSt11char_traitsIcESaIcEEEP16aiExportDataBlobEEE8allocateERSA_m(ptr noundef nonnull align 1 dereferenceable(1) %_M_impl, i64 noundef %1)
  br label %cond.end

cond.false:                                       ; preds = %entry
  br label %cond.end

cond.end:                                         ; preds = %cond.false, %cond.true
  %cond = phi ptr [ %call, %cond.true ], [ null, %cond.false ]
  ret ptr %cond
}

; Function Attrs: mustprogress nounwind uwtable
define linkonce_odr hidden noundef ptr @_ZNSt6vectorISt4pairINSt7__cxx1112basic_stringIcSt11char_traitsIcESaIcEEEP16aiExportDataBlobESaIS9_EE11_S_relocateEPS9_SC_SC_RSA_(ptr noundef %__first, ptr noundef %__last, ptr noundef %__result, ptr noundef nonnull align 1 dereferenceable(1) %__alloc) #0 comdat align 2 {
entry:
  %__first.addr = alloca ptr, align 8
  %__last.addr = alloca ptr, align 8
  %__result.addr = alloca ptr, align 8
  %__alloc.addr = alloca ptr, align 8
  store ptr %__first, ptr %__first.addr, align 8
  store ptr %__last, ptr %__last.addr, align 8
  store ptr %__result, ptr %__result.addr, align 8
  store ptr %__alloc, ptr %__alloc.addr, align 8
  %0 = load ptr, ptr %__first.addr, align 8
  %1 = load ptr, ptr %__last.addr, align 8
  %2 = load ptr, ptr %__result.addr, align 8
  %3 = load ptr, ptr %__alloc.addr, align 8
  %call = call noundef ptr @_ZSt12__relocate_aIPSt4pairINSt7__cxx1112basic_stringIcSt11char_traitsIcESaIcEEEP16aiExportDataBlobESA_SaIS9_EET0_T_SD_SC_RT1_(ptr noundef %0, ptr noundef %1, ptr noundef %2, ptr noundef nonnull align 1 dereferenceable(1) %3) #16
  ret ptr %call
}

; Function Attrs: mustprogress nounwind uwtable
define linkonce_odr hidden noundef nonnull align 8 dereferenceable(8) ptr @_ZNK9__gnu_cxx17__normal_iteratorIPSt4pairINSt7__cxx1112basic_stringIcSt11char_traitsIcESaIcEEEP16aiExportDataBlobESt6vectorISA_SaISA_EEE4baseEv(ptr noundef nonnull align 8 dereferenceable(8) %this) #0 comdat align 2 {
entry:
  %this.addr = alloca ptr, align 8
  store ptr %this, ptr %this.addr, align 8
  %this1 = load ptr, ptr %this.addr, align 8
  %_M_current = getelementptr inbounds %"class.__gnu_cxx::__normal_iterator.52", ptr %this1, i32 0, i32 0
  ret ptr %_M_current
}

; Function Attrs: mustprogress nounwind uwtable
define linkonce_odr hidden noundef nonnull align 1 dereferenceable(1) ptr @_ZNSt12_Vector_baseISt4pairINSt7__cxx1112basic_stringIcSt11char_traitsIcESaIcEEEP16aiExportDataBlobESaIS9_EE19_M_get_Tp_allocatorEv(ptr noundef nonnull align 8 dereferenceable(24) %this) #0 comdat align 2 {
entry:
  %this.addr = alloca ptr, align 8
  store ptr %this, ptr %this.addr, align 8
  %this1 = load ptr, ptr %this.addr, align 8
  %_M_impl = getelementptr inbounds %"struct.std::_Vector_base.7", ptr %this1, i32 0, i32 0
  ret ptr %_M_impl
}

; Function Attrs: mustprogress nounwind uwtable
define linkonce_odr hidden void @_ZNSt16allocator_traitsISaISt4pairINSt7__cxx1112basic_stringIcSt11char_traitsIcESaIcEEEP16aiExportDataBlobEEE7destroyIS9_EEvRSA_PT_(ptr noundef nonnull align 1 dereferenceable(1) %__a, ptr noundef %__p) #0 comdat align 2 {
entry:
  %__a.addr = alloca ptr, align 8
  %__p.addr = alloca ptr, align 8
  store ptr %__a, ptr %__a.addr, align 8
  store ptr %__p, ptr %__p.addr, align 8
  %0 = load ptr, ptr %__a.addr, align 8
  %1 = load ptr, ptr %__p.addr, align 8
  call void @_ZNSt15__new_allocatorISt4pairINSt7__cxx1112basic_stringIcSt11char_traitsIcESaIcEEEP16aiExportDataBlobEE7destroyIS9_EEvPT_(ptr noundef nonnull align 1 dereferenceable(1) %0, ptr noundef %1) #16
  ret void
}

; Function Attrs: mustprogress uwtable
define linkonce_odr hidden void @_ZSt8_DestroyIPSt4pairINSt7__cxx1112basic_stringIcSt11char_traitsIcESaIcEEEP16aiExportDataBlobES9_EvT_SB_RSaIT0_E(ptr noundef %__first, ptr noundef %__last, ptr noundef nonnull align 1 dereferenceable(1) %0) #2 comdat {
entry:
  %__first.addr = alloca ptr, align 8
  %__last.addr = alloca ptr, align 8
  %.addr = alloca ptr, align 8
  store ptr %__first, ptr %__first.addr, align 8
  store ptr %__last, ptr %__last.addr, align 8
  store ptr %0, ptr %.addr, align 8
  %1 = load ptr, ptr %__first.addr, align 8
  %2 = load ptr, ptr %__last.addr, align 8
  call void @_ZSt8_DestroyIPSt4pairINSt7__cxx1112basic_stringIcSt11char_traitsIcESaIcEEEP16aiExportDataBlobEEvT_SB_(ptr noundef %1, ptr noundef %2)
  ret void
}

; Function Attrs: mustprogress uwtable
define linkonce_odr hidden void @_ZNSt12_Vector_baseISt4pairINSt7__cxx1112basic_stringIcSt11char_traitsIcESaIcEEEP16aiExportDataBlobESaIS9_EE13_M_deallocateEPS9_m(ptr noundef nonnull align 8 dereferenceable(24) %this, ptr noundef %__p, i64 noundef %__n) #2 comdat align 2 {
entry:
  %this.addr = alloca ptr, align 8
  %__p.addr = alloca ptr, align 8
  %__n.addr = alloca i64, align 8
  store ptr %this, ptr %this.addr, align 8
  store ptr %__p, ptr %__p.addr, align 8
  store i64 %__n, ptr %__n.addr, align 8
  %this1 = load ptr, ptr %this.addr, align 8
  %0 = load ptr, ptr %__p.addr, align 8
  %tobool = icmp ne ptr %0, null
  br i1 %tobool, label %if.then, label %if.end

if.then:                                          ; preds = %entry
  %_M_impl = getelementptr inbounds %"struct.std::_Vector_base.7", ptr %this1, i32 0, i32 0
  %1 = load ptr, ptr %__p.addr, align 8
  %2 = load i64, ptr %__n.addr, align 8
  call void @_ZNSt16allocator_traitsISaISt4pairINSt7__cxx1112basic_stringIcSt11char_traitsIcESaIcEEEP16aiExportDataBlobEEE10deallocateERSA_PS9_m(ptr noundef nonnull align 1 dereferenceable(1) %_M_impl, ptr noundef %1, i64 noundef %2)
  br label %if.end

if.end:                                           ; preds = %if.then, %entry
  ret void
}

declare void @__cxa_rethrow()

; Function Attrs: mustprogress nounwind uwtable
define linkonce_odr hidden noundef i64 @_ZNKSt6vectorISt4pairINSt7__cxx1112basic_stringIcSt11char_traitsIcESaIcEEEP16aiExportDataBlobESaIS9_EE8max_sizeEv(ptr noundef nonnull align 8 dereferenceable(24) %this) #0 comdat align 2 {
entry:
  %this.addr = alloca ptr, align 8
  store ptr %this, ptr %this.addr, align 8
  %this1 = load ptr, ptr %this.addr, align 8
  %call = call noundef nonnull align 1 dereferenceable(1) ptr @_ZNKSt12_Vector_baseISt4pairINSt7__cxx1112basic_stringIcSt11char_traitsIcESaIcEEEP16aiExportDataBlobESaIS9_EE19_M_get_Tp_allocatorEv(ptr noundef nonnull align 8 dereferenceable(24) %this1) #16
  %call2 = call noundef i64 @_ZNSt6vectorISt4pairINSt7__cxx1112basic_stringIcSt11char_traitsIcESaIcEEEP16aiExportDataBlobESaIS9_EE11_S_max_sizeERKSA_(ptr noundef nonnull align 1 dereferenceable(1) %call) #16
  ret i64 %call2
}

; Function Attrs: mustprogress nounwind uwtable
define linkonce_odr hidden noundef i64 @_ZNKSt6vectorISt4pairINSt7__cxx1112basic_stringIcSt11char_traitsIcESaIcEEEP16aiExportDataBlobESaIS9_EE4sizeEv(ptr noundef nonnull align 8 dereferenceable(24) %this) #0 comdat align 2 {
entry:
  %this.addr = alloca ptr, align 8
  store ptr %this, ptr %this.addr, align 8
  %this1 = load ptr, ptr %this.addr, align 8
  %_M_impl = getelementptr inbounds %"struct.std::_Vector_base.7", ptr %this1, i32 0, i32 0
  %_M_finish = getelementptr inbounds %"struct.std::_Vector_base<std::pair<std::__cxx11::basic_string<char>, aiExportDataBlob *>, std::allocator<std::pair<std::__cxx11::basic_string<char>, aiExportDataBlob *>>>::_Vector_impl_data", ptr %_M_impl, i32 0, i32 1
  %0 = load ptr, ptr %_M_finish, align 8
  %_M_impl2 = getelementptr inbounds %"struct.std::_Vector_base.7", ptr %this1, i32 0, i32 0
  %_M_start = getelementptr inbounds %"struct.std::_Vector_base<std::pair<std::__cxx11::basic_string<char>, aiExportDataBlob *>, std::allocator<std::pair<std::__cxx11::basic_string<char>, aiExportDataBlob *>>>::_Vector_impl_data", ptr %_M_impl2, i32 0, i32 0
  %1 = load ptr, ptr %_M_start, align 8
  %sub.ptr.lhs.cast = ptrtoint ptr %0 to i64
  %sub.ptr.rhs.cast = ptrtoint ptr %1 to i64
  %sub.ptr.sub = sub i64 %sub.ptr.lhs.cast, %sub.ptr.rhs.cast
  %sub.ptr.div = sdiv exact i64 %sub.ptr.sub, 40
  ret i64 %sub.ptr.div
}

; Function Attrs: noreturn
declare void @_ZSt20__throw_length_errorPKc(ptr noundef) #13

; Function Attrs: mustprogress nounwind uwtable
define linkonce_odr noundef nonnull align 8 dereferenceable(8) ptr @_ZSt3maxImERKT_S2_S2_(ptr noundef nonnull align 8 dereferenceable(8) %__a, ptr noundef nonnull align 8 dereferenceable(8) %__b) #0 comdat {
entry:
  %retval = alloca ptr, align 8
  %__a.addr = alloca ptr, align 8
  %__b.addr = alloca ptr, align 8
  store ptr %__a, ptr %__a.addr, align 8
  store ptr %__b, ptr %__b.addr, align 8
  %0 = load ptr, ptr %__a.addr, align 8
  %1 = load i64, ptr %0, align 8
  %2 = load ptr, ptr %__b.addr, align 8
  %3 = load i64, ptr %2, align 8
  %cmp = icmp ult i64 %1, %3
  br i1 %cmp, label %if.then, label %if.end

if.then:                                          ; preds = %entry
  %4 = load ptr, ptr %__b.addr, align 8
  store ptr %4, ptr %retval, align 8
  br label %return

if.end:                                           ; preds = %entry
  %5 = load ptr, ptr %__a.addr, align 8
  store ptr %5, ptr %retval, align 8
  br label %return

return:                                           ; preds = %if.end, %if.then
  %6 = load ptr, ptr %retval, align 8
  ret ptr %6
}

; Function Attrs: mustprogress nounwind uwtable
define linkonce_odr hidden noundef i64 @_ZNSt6vectorISt4pairINSt7__cxx1112basic_stringIcSt11char_traitsIcESaIcEEEP16aiExportDataBlobESaIS9_EE11_S_max_sizeERKSA_(ptr noundef nonnull align 1 dereferenceable(1) %__a) #0 comdat align 2 personality ptr @__gxx_personality_v0 {
entry:
  %__a.addr = alloca ptr, align 8
  %__diffmax = alloca i64, align 8
  %__allocmax = alloca i64, align 8
  store ptr %__a, ptr %__a.addr, align 8
  store i64 230584300921369395, ptr %__diffmax, align 8
  %0 = load ptr, ptr %__a.addr, align 8
  %call = call noundef i64 @_ZNSt16allocator_traitsISaISt4pairINSt7__cxx1112basic_stringIcSt11char_traitsIcESaIcEEEP16aiExportDataBlobEEE8max_sizeERKSA_(ptr noundef nonnull align 1 dereferenceable(1) %0) #16
  store i64 %call, ptr %__allocmax, align 8
  %call1 = invoke noundef nonnull align 8 dereferenceable(8) ptr @_ZSt3minImERKT_S2_S2_(ptr noundef nonnull align 8 dereferenceable(8) %__diffmax, ptr noundef nonnull align 8 dereferenceable(8) %__allocmax)
          to label %invoke.cont unwind label %terminate.lpad

invoke.cont:                                      ; preds = %entry
  %1 = load i64, ptr %call1, align 8
  ret i64 %1

terminate.lpad:                                   ; preds = %entry
  %2 = landingpad { ptr, i32 }
          catch ptr null
  %3 = extractvalue { ptr, i32 } %2, 0
  call void @__clang_call_terminate(ptr %3) #15
  unreachable
}

; Function Attrs: mustprogress nounwind uwtable
define linkonce_odr hidden noundef nonnull align 1 dereferenceable(1) ptr @_ZNKSt12_Vector_baseISt4pairINSt7__cxx1112basic_stringIcSt11char_traitsIcESaIcEEEP16aiExportDataBlobESaIS9_EE19_M_get_Tp_allocatorEv(ptr noundef nonnull align 8 dereferenceable(24) %this) #0 comdat align 2 {
entry:
  %this.addr = alloca ptr, align 8
  store ptr %this, ptr %this.addr, align 8
  %this1 = load ptr, ptr %this.addr, align 8
  %_M_impl = getelementptr inbounds %"struct.std::_Vector_base.7", ptr %this1, i32 0, i32 0
  ret ptr %_M_impl
}

; Function Attrs: mustprogress nounwind uwtable
define linkonce_odr hidden noundef i64 @_ZNSt16allocator_traitsISaISt4pairINSt7__cxx1112basic_stringIcSt11char_traitsIcESaIcEEEP16aiExportDataBlobEEE8max_sizeERKSA_(ptr noundef nonnull align 1 dereferenceable(1) %__a) #0 comdat align 2 {
entry:
  %__a.addr = alloca ptr, align 8
  store ptr %__a, ptr %__a.addr, align 8
  %0 = load ptr, ptr %__a.addr, align 8
  %call = call noundef i64 @_ZNKSt15__new_allocatorISt4pairINSt7__cxx1112basic_stringIcSt11char_traitsIcESaIcEEEP16aiExportDataBlobEE8max_sizeEv(ptr noundef nonnull align 1 dereferenceable(1) %0) #16
  ret i64 %call
}

; Function Attrs: mustprogress nounwind uwtable
define linkonce_odr noundef nonnull align 8 dereferenceable(8) ptr @_ZSt3minImERKT_S2_S2_(ptr noundef nonnull align 8 dereferenceable(8) %__a, ptr noundef nonnull align 8 dereferenceable(8) %__b) #0 comdat {
entry:
  %retval = alloca ptr, align 8
  %__a.addr = alloca ptr, align 8
  %__b.addr = alloca ptr, align 8
  store ptr %__a, ptr %__a.addr, align 8
  store ptr %__b, ptr %__b.addr, align 8
  %0 = load ptr, ptr %__b.addr, align 8
  %1 = load i64, ptr %0, align 8
  %2 = load ptr, ptr %__a.addr, align 8
  %3 = load i64, ptr %2, align 8
  %cmp = icmp ult i64 %1, %3
  br i1 %cmp, label %if.then, label %if.end

if.then:                                          ; preds = %entry
  %4 = load ptr, ptr %__b.addr, align 8
  store ptr %4, ptr %retval, align 8
  br label %return

if.end:                                           ; preds = %entry
  %5 = load ptr, ptr %__a.addr, align 8
  store ptr %5, ptr %retval, align 8
  br label %return

return:                                           ; preds = %if.end, %if.then
  %6 = load ptr, ptr %retval, align 8
  ret ptr %6
}

; Function Attrs: mustprogress nounwind uwtable
define linkonce_odr hidden noundef i64 @_ZNKSt15__new_allocatorISt4pairINSt7__cxx1112basic_stringIcSt11char_traitsIcESaIcEEEP16aiExportDataBlobEE8max_sizeEv(ptr noundef nonnull align 1 dereferenceable(1) %this) #0 comdat align 2 {
entry:
  %this.addr = alloca ptr, align 8
  store ptr %this, ptr %this.addr, align 8
  %this1 = load ptr, ptr %this.addr, align 8
  %call = call noundef i64 @_ZNKSt15__new_allocatorISt4pairINSt7__cxx1112basic_stringIcSt11char_traitsIcESaIcEEEP16aiExportDataBlobEE11_M_max_sizeEv(ptr noundef nonnull align 1 dereferenceable(1) %this1) #16
  ret i64 %call
}

; Function Attrs: mustprogress nounwind uwtable
define linkonce_odr hidden noundef i64 @_ZNKSt15__new_allocatorISt4pairINSt7__cxx1112basic_stringIcSt11char_traitsIcESaIcEEEP16aiExportDataBlobEE11_M_max_sizeEv(ptr noundef nonnull align 1 dereferenceable(1) %this) #0 comdat align 2 {
entry:
  %this.addr = alloca ptr, align 8
  store ptr %this, ptr %this.addr, align 8
  ret i64 230584300921369395
}

; Function Attrs: mustprogress nounwind uwtable
define linkonce_odr hidden void @_ZN9__gnu_cxx17__normal_iteratorIPSt4pairINSt7__cxx1112basic_stringIcSt11char_traitsIcESaIcEEEP16aiExportDataBlobESt6vectorISA_SaISA_EEEC2ERKSB_(ptr noundef nonnull align 8 dereferenceable(8) %this, ptr noundef nonnull align 8 dereferenceable(8) %__i) unnamed_addr #0 comdat align 2 {
entry:
  %this.addr = alloca ptr, align 8
  %__i.addr = alloca ptr, align 8
  store ptr %this, ptr %this.addr, align 8
  store ptr %__i, ptr %__i.addr, align 8
  %this1 = load ptr, ptr %this.addr, align 8
  %_M_current = getelementptr inbounds %"class.__gnu_cxx::__normal_iterator.52", ptr %this1, i32 0, i32 0
  %0 = load ptr, ptr %__i.addr, align 8
  %1 = load ptr, ptr %0, align 8
  store ptr %1, ptr %_M_current, align 8
  ret void
}

; Function Attrs: mustprogress uwtable
define linkonce_odr hidden noundef ptr @_ZNSt16allocator_traitsISaISt4pairINSt7__cxx1112basic_stringIcSt11char_traitsIcESaIcEEEP16aiExportDataBlobEEE8allocateERSA_m(ptr noundef nonnull align 1 dereferenceable(1) %__a, i64 noundef %__n) #2 comdat align 2 {
entry:
  %__a.addr = alloca ptr, align 8
  %__n.addr = alloca i64, align 8
  store ptr %__a, ptr %__a.addr, align 8
  store i64 %__n, ptr %__n.addr, align 8
  %0 = load ptr, ptr %__a.addr, align 8
  %1 = load i64, ptr %__n.addr, align 8
  %call = call noundef ptr @_ZNSt15__new_allocatorISt4pairINSt7__cxx1112basic_stringIcSt11char_traitsIcESaIcEEEP16aiExportDataBlobEE8allocateEmPKv(ptr noundef nonnull align 1 dereferenceable(1) %0, i64 noundef %1, ptr noundef null)
  ret ptr %call
}

; Function Attrs: mustprogress uwtable
define linkonce_odr hidden noundef ptr @_ZNSt15__new_allocatorISt4pairINSt7__cxx1112basic_stringIcSt11char_traitsIcESaIcEEEP16aiExportDataBlobEE8allocateEmPKv(ptr noundef nonnull align 1 dereferenceable(1) %this, i64 noundef %__n, ptr noundef %0) #2 comdat align 2 {
entry:
  %this.addr = alloca ptr, align 8
  %__n.addr = alloca i64, align 8
  %.addr = alloca ptr, align 8
  store ptr %this, ptr %this.addr, align 8
  store i64 %__n, ptr %__n.addr, align 8
  store ptr %0, ptr %.addr, align 8
  %this1 = load ptr, ptr %this.addr, align 8
  %1 = load i64, ptr %__n.addr, align 8
  %call = call noundef i64 @_ZNKSt15__new_allocatorISt4pairINSt7__cxx1112basic_stringIcSt11char_traitsIcESaIcEEEP16aiExportDataBlobEE11_M_max_sizeEv(ptr noundef nonnull align 1 dereferenceable(1) %this1) #16
  %cmp = icmp ugt i64 %1, %call
  br i1 %cmp, label %if.then, label %if.end4

if.then:                                          ; preds = %entry
  %2 = load i64, ptr %__n.addr, align 8
  %cmp2 = icmp ugt i64 %2, 461168601842738790
  br i1 %cmp2, label %if.then3, label %if.end

if.then3:                                         ; preds = %if.then
  call void @_ZSt28__throw_bad_array_new_lengthv() #19
  unreachable

if.end:                                           ; preds = %if.then
  call void @_ZSt17__throw_bad_allocv() #19
  unreachable

if.end4:                                          ; preds = %entry
  %3 = load i64, ptr %__n.addr, align 8
  %mul = mul i64 %3, 40
  %call5 = call noalias noundef nonnull ptr @_Znwm(i64 noundef %mul) #18
  ret ptr %call5
}

; Function Attrs: noreturn
declare void @_ZSt28__throw_bad_array_new_lengthv() #13

; Function Attrs: noreturn
declare void @_ZSt17__throw_bad_allocv() #13

; Function Attrs: mustprogress nounwind uwtable
define linkonce_odr hidden noundef ptr @_ZSt12__relocate_aIPSt4pairINSt7__cxx1112basic_stringIcSt11char_traitsIcESaIcEEEP16aiExportDataBlobESA_SaIS9_EET0_T_SD_SC_RT1_(ptr noundef %__first, ptr noundef %__last, ptr noundef %__result, ptr noundef nonnull align 1 dereferenceable(1) %__alloc) #0 comdat {
entry:
  %__first.addr = alloca ptr, align 8
  %__last.addr = alloca ptr, align 8
  %__result.addr = alloca ptr, align 8
  %__alloc.addr = alloca ptr, align 8
  store ptr %__first, ptr %__first.addr, align 8
  store ptr %__last, ptr %__last.addr, align 8
  store ptr %__result, ptr %__result.addr, align 8
  store ptr %__alloc, ptr %__alloc.addr, align 8
  %0 = load ptr, ptr %__first.addr, align 8
  %call = call noundef ptr @_ZSt12__niter_baseIPSt4pairINSt7__cxx1112basic_stringIcSt11char_traitsIcESaIcEEEP16aiExportDataBlobEET_SB_(ptr noundef %0) #16
  %1 = load ptr, ptr %__last.addr, align 8
  %call1 = call noundef ptr @_ZSt12__niter_baseIPSt4pairINSt7__cxx1112basic_stringIcSt11char_traitsIcESaIcEEEP16aiExportDataBlobEET_SB_(ptr noundef %1) #16
  %2 = load ptr, ptr %__result.addr, align 8
  %call2 = call noundef ptr @_ZSt12__niter_baseIPSt4pairINSt7__cxx1112basic_stringIcSt11char_traitsIcESaIcEEEP16aiExportDataBlobEET_SB_(ptr noundef %2) #16
  %3 = load ptr, ptr %__alloc.addr, align 8
  %call3 = call noundef ptr @_ZSt14__relocate_a_1IPSt4pairINSt7__cxx1112basic_stringIcSt11char_traitsIcESaIcEEEP16aiExportDataBlobESA_SaIS9_EET0_T_SD_SC_RT1_(ptr noundef %call, ptr noundef %call1, ptr noundef %call2, ptr noundef nonnull align 1 dereferenceable(1) %3) #16
  ret ptr %call3
}

; Function Attrs: mustprogress nounwind uwtable
define linkonce_odr hidden noundef ptr @_ZSt14__relocate_a_1IPSt4pairINSt7__cxx1112basic_stringIcSt11char_traitsIcESaIcEEEP16aiExportDataBlobESA_SaIS9_EET0_T_SD_SC_RT1_(ptr noundef %__first, ptr noundef %__last, ptr noundef %__result, ptr noundef nonnull align 1 dereferenceable(1) %__alloc) #0 comdat {
entry:
  %__first.addr = alloca ptr, align 8
  %__last.addr = alloca ptr, align 8
  %__result.addr = alloca ptr, align 8
  %__alloc.addr = alloca ptr, align 8
  %__cur = alloca ptr, align 8
  store ptr %__first, ptr %__first.addr, align 8
  store ptr %__last, ptr %__last.addr, align 8
  store ptr %__result, ptr %__result.addr, align 8
  store ptr %__alloc, ptr %__alloc.addr, align 8
  %0 = load ptr, ptr %__result.addr, align 8
  store ptr %0, ptr %__cur, align 8
  br label %for.cond

for.cond:                                         ; preds = %for.inc, %entry
  %1 = load ptr, ptr %__first.addr, align 8
  %2 = load ptr, ptr %__last.addr, align 8
  %cmp = icmp ne ptr %1, %2
  br i1 %cmp, label %for.body, label %for.end

for.body:                                         ; preds = %for.cond
  %3 = load ptr, ptr %__cur, align 8
  %4 = load ptr, ptr %__first.addr, align 8
  %5 = load ptr, ptr %__alloc.addr, align 8
  call void @_ZSt19__relocate_object_aISt4pairINSt7__cxx1112basic_stringIcSt11char_traitsIcESaIcEEEP16aiExportDataBlobES9_SaIS9_EEvPT_PT0_RT1_(ptr noundef %3, ptr noundef %4, ptr noundef nonnull align 1 dereferenceable(1) %5) #16
  br label %for.inc

for.inc:                                          ; preds = %for.body
  %6 = load ptr, ptr %__first.addr, align 8
  %incdec.ptr = getelementptr inbounds %"struct.std::pair", ptr %6, i32 1
  store ptr %incdec.ptr, ptr %__first.addr, align 8
  %7 = load ptr, ptr %__cur, align 8
  %incdec.ptr1 = getelementptr inbounds %"struct.std::pair", ptr %7, i32 1
  store ptr %incdec.ptr1, ptr %__cur, align 8
  br label %for.cond, !llvm.loop !10

for.end:                                          ; preds = %for.cond
  %8 = load ptr, ptr %__cur, align 8
  ret ptr %8
}

; Function Attrs: mustprogress nounwind uwtable
