target datalayout = "e-m:e-p270:32:32-p271:32:32-p272:64:64-i64:64-i128:128-f80:128-n8:16:32:64-S128"
target triple = "x86_64-unknown-linux-gnu"

%"class.std::__cxx11::basic_string" = type { %"struct.std::__cxx11::basic_string<char>::_Alloc_hider", i64, %union.anon }
%"struct.std::__cxx11::basic_string<char>::_Alloc_hider" = type { ptr }
%union.anon = type { i64, [8 x i8] }
%"class.std::allocator" = type { i8 }
%"class.std::shared_ptr.29" = type { %"class.std::__shared_ptr.30" }
%"class.std::__shared_ptr.30" = type { ptr, %"class.std::__shared_count" }
%"class.std::__shared_count" = type { ptr }
%"struct.Assimp::IFC::Schema_2x3::IfcSurfaceStyle" = type { %"struct.Assimp::IFC::Schema_2x3::IfcPresentationStyle.base", %"struct.Assimp::STEP::ObjectHelper.base.27", %"class.std::__cxx11::basic_string", %"struct.Assimp::STEP::ListOf", %"class.Assimp::STEP::Object" }
%"struct.Assimp::IFC::Schema_2x3::IfcPresentationStyle.base" = type { %"struct.Assimp::STEP::ObjectHelper.base", %"struct.Assimp::STEP::Maybe" }
%"struct.Assimp::STEP::ObjectHelper.base" = type { ptr, %"class.std::bitset" }
%"class.std::bitset" = type { %"struct.std::_Base_bitset" }
%"struct.std::_Base_bitset" = type { i64 }
%"struct.Assimp::STEP::Maybe" = type <{ %"class.std::__cxx11::basic_string", i8, [7 x i8] }>
%"struct.Assimp::STEP::ObjectHelper.base.27" = type { ptr, %"class.std::bitset.26" }
%"class.std::bitset.26" = type { %"struct.std::_Base_bitset" }
%"struct.Assimp::STEP::ListOf" = type { %"class.std::vector" }
%"class.std::vector" = type { %"struct.std::_Vector_base" }
%"struct.std::_Vector_base" = type { %"struct.std::_Vector_base<std::shared_ptr<const Assimp::STEP::EXPRESS::DataType>, std::allocator<std::shared_ptr<const Assimp::STEP::EXPRESS::DataType>>>::_Vector_impl" }
%"struct.std::_Vector_base<std::shared_ptr<const Assimp::STEP::EXPRESS::DataType>, std::allocator<std::shared_ptr<const Assimp::STEP::EXPRESS::DataType>>>::_Vector_impl" = type { %"struct.std::_Vector_base<std::shared_ptr<const Assimp::STEP::EXPRESS::DataType>, std::allocator<std::shared_ptr<const Assimp::STEP::EXPRESS::DataType>>>::_Vector_impl_data" }
%"struct.std::_Vector_base<std::shared_ptr<const Assimp::STEP::EXPRESS::DataType>, std::allocator<std::shared_ptr<const Assimp::STEP::EXPRESS::DataType>>>::_Vector_impl_data" = type { ptr, ptr, ptr }
%"class.Assimp::STEP::Object" = type { ptr, i64, ptr }
%"class.Assimp::STEP::EXPRESS::LIST" = type { %"class.Assimp::STEP::EXPRESS::DataType", %"class.std::vector" }
%"class.Assimp::STEP::EXPRESS::DataType" = type { ptr }
%"struct.Assimp::STEP::InternGenericConvert" = type { i8 }
%"struct.Assimp::STEP::InternGenericConvertList" = type { i8 }
%"class.std::bitset<1>::reference" = type { ptr, i64 }
%"struct.Assimp::STEP::ObjectHelper.121" = type { ptr, %"class.std::bitset", %"class.Assimp::STEP::Object" }
%"struct.Assimp::IFC::Schema_2x3::IfcFace" = type { %"struct.Assimp::IFC::Schema_2x3::IfcTopologicalRepresentationItem.base", %"struct.Assimp::STEP::ObjectHelper.base.122", %"struct.Assimp::STEP::ListOf.123", %"class.Assimp::STEP::Object" }
%"struct.Assimp::IFC::Schema_2x3::IfcTopologicalRepresentationItem.base" = type { %"struct.Assimp::IFC::Schema_2x3::IfcRepresentationItem.base", [7 x i8], %"struct.Assimp::STEP::ObjectHelper.base.120" }
%"struct.Assimp::IFC::Schema_2x3::IfcRepresentationItem.base" = type { %"struct.Assimp::STEP::ObjectHelper.base.35" }
%"struct.Assimp::STEP::ObjectHelper.base.35" = type <{ ptr, %"class.std::bitset.33" }>
%"class.std::bitset.33" = type { i8 }
%"struct.Assimp::STEP::ObjectHelper.base.120" = type <{ ptr, %"class.std::bitset.33" }>
%"struct.Assimp::STEP::ObjectHelper.base.122" = type { ptr, %"class.std::bitset" }
%"struct.Assimp::STEP::ListOf.123" = type { %"class.std::vector.124" }
%"class.std::vector.124" = type { %"struct.std::_Vector_base.125" }
%"struct.std::_Vector_base.125" = type { %"struct.std::_Vector_base<Assimp::STEP::Lazy<Assimp::IFC::Schema_2x3::IfcFaceBound>, std::allocator<Assimp::STEP::Lazy<Assimp::IFC::Schema_2x3::IfcFaceBound>>>::_Vector_impl" }
%"struct.std::_Vector_base<Assimp::STEP::Lazy<Assimp::IFC::Schema_2x3::IfcFaceBound>, std::allocator<Assimp::STEP::Lazy<Assimp::IFC::Schema_2x3::IfcFaceBound>>>::_Vector_impl" = type { %"struct.std::_Vector_base<Assimp::STEP::Lazy<Assimp::IFC::Schema_2x3::IfcFaceBound>, std::allocator<Assimp::STEP::Lazy<Assimp::IFC::Schema_2x3::IfcFaceBound>>>::_Vector_impl_data" }
%"struct.std::_Vector_base<Assimp::STEP::Lazy<Assimp::IFC::Schema_2x3::IfcFaceBound>, std::allocator<Assimp::STEP::Lazy<Assimp::IFC::Schema_2x3::IfcFaceBound>>>::_Vector_impl_data" = type { ptr, ptr, ptr }
%"struct.Assimp::STEP::InternGenericConvertList.869" = type { i8 }
%"struct.Assimp::STEP::ObjectHelper.156" = type { ptr, %"class.std::bitset", %"class.Assimp::STEP::Object" }
%"struct.Assimp::IFC::Schema_2x3::IfcColourSpecification" = type { %"struct.Assimp::STEP::ObjectHelper.base.157", %"struct.Assimp::STEP::Maybe", %"class.Assimp::STEP::Object" }
%"struct.Assimp::STEP::ObjectHelper.base.157" = type { ptr, %"class.std::bitset" }
%"struct.Assimp::STEP::InternGenericConvert.874" = type { i8 }
%"struct.Assimp::IFC::Schema_2x3::IfcVector" = type { %"struct.Assimp::IFC::Schema_2x3::IfcGeometricRepresentationItem.base", %"struct.Assimp::STEP::ObjectHelper.base.159", %"struct.Assimp::STEP::Lazy.160", double, %"class.Assimp::STEP::Object" }
%"struct.Assimp::IFC::Schema_2x3::IfcGeometricRepresentationItem.base" = type { %"struct.Assimp::IFC::Schema_2x3::IfcRepresentationItem.base", [7 x i8], %"struct.Assimp::STEP::ObjectHelper.base.37" }
%"struct.Assimp::STEP::ObjectHelper.base.37" = type <{ ptr, %"class.std::bitset.33" }>
%"struct.Assimp::STEP::ObjectHelper.base.159" = type { ptr, %"class.std::bitset.26" }
%"struct.Assimp::STEP::Lazy.160" = type { ptr }
%"struct.Assimp::STEP::InternGenericConvert.875" = type { i8 }
%"struct.Assimp::STEP::InternGenericConvert.876" = type { i8 }
%"struct.Assimp::IFC::Schema_2x3::IfcColourRgb" = type { %"struct.Assimp::IFC::Schema_2x3::IfcColourSpecification.base", %"struct.Assimp::STEP::ObjectHelper.base.167", double, double, double, %"class.Assimp::STEP::Object" }
%"struct.Assimp::IFC::Schema_2x3::IfcColourSpecification.base" = type { %"struct.Assimp::STEP::ObjectHelper.base.157", %"struct.Assimp::STEP::Maybe" }
%"struct.Assimp::STEP::ObjectHelper.base.167" = type { ptr, %"class.std::bitset.166" }
%"class.std::bitset.166" = type { %"struct.std::_Base_bitset" }
%"struct.Assimp::IFC::Schema_2x3::IfcSite" = type { %"struct.Assimp::IFC::Schema_2x3::IfcSpatialStructureElement.base", %"struct.Assimp::STEP::ObjectHelper.base.182", %"struct.Assimp::STEP::Maybe.183", %"struct.Assimp::STEP::Maybe.183", %"struct.Assimp::STEP::Maybe.70", %"struct.Assimp::STEP::Maybe", %"struct.Assimp::STEP::Maybe.40", %"class.Assimp::STEP::Object" }
%"struct.Assimp::IFC::Schema_2x3::IfcSpatialStructureElement.base" = type { %"struct.Assimp::IFC::Schema_2x3::IfcProduct.base", %"struct.Assimp::STEP::ObjectHelper.base.67", %"struct.Assimp::STEP::Maybe", %"class.std::__cxx11::basic_string" }
%"struct.Assimp::IFC::Schema_2x3::IfcProduct.base" = type { %"struct.Assimp::IFC::Schema_2x3::IfcObject.base", %"struct.Assimp::STEP::ObjectHelper.base.51", %"struct.Assimp::STEP::Maybe.52", %"struct.Assimp::STEP::Maybe.55" }
%"struct.Assimp::IFC::Schema_2x3::IfcObject.base" = type { %"struct.Assimp::IFC::Schema_2x3::IfcObjectDefinition.base", %"struct.Assimp::STEP::ObjectHelper.base.49", %"struct.Assimp::STEP::Maybe" }
%"struct.Assimp::IFC::Schema_2x3::IfcObjectDefinition.base" = type <{ %"struct.Assimp::IFC::Schema_2x3::IfcRoot.base", %"struct.Assimp::STEP::ObjectHelper.base.47" }>
%"struct.Assimp::IFC::Schema_2x3::IfcRoot.base" = type { %"struct.Assimp::STEP::ObjectHelper.base.45", %"class.std::__cxx11::basic_string", %"struct.Assimp::STEP::Lazy.41", %"struct.Assimp::STEP::Maybe", %"struct.Assimp::STEP::Maybe" }
%"struct.Assimp::STEP::ObjectHelper.base.45" = type { ptr, %"class.std::bitset.44" }
%"class.std::bitset.44" = type { %"struct.std::_Base_bitset" }
%"struct.Assimp::STEP::Lazy.41" = type { ptr }
%"struct.Assimp::STEP::ObjectHelper.base.47" = type <{ ptr, %"class.std::bitset.33" }>
%"struct.Assimp::STEP::ObjectHelper.base.49" = type { ptr, %"class.std::bitset" }
%"struct.Assimp::STEP::ObjectHelper.base.51" = type { ptr, %"class.std::bitset.26" }
%"struct.Assimp::STEP::Maybe.52" = type <{ %"struct.Assimp::STEP::Lazy.53", i8, [7 x i8] }>
%"struct.Assimp::STEP::Lazy.53" = type { ptr }
%"struct.Assimp::STEP::Maybe.55" = type <{ %"struct.Assimp::STEP::Lazy.56", i8, [7 x i8] }>
%"struct.Assimp::STEP::Lazy.56" = type { ptr }
%"struct.Assimp::STEP::ObjectHelper.base.67" = type { ptr, %"class.std::bitset.26" }
%"struct.Assimp::STEP::ObjectHelper.base.182" = type { ptr, %"class.std::bitset.181" }
%"class.std::bitset.181" = type { %"struct.std::_Base_bitset" }
%"struct.Assimp::STEP::Maybe.183" = type <{ %"struct.Assimp::STEP::ListOf.184", i8, [7 x i8] }>
%"struct.Assimp::STEP::ListOf.184" = type { %"class.std::vector.185" }
%"class.std::vector.185" = type { %"struct.std::_Vector_base.186" }
%"struct.std::_Vector_base.186" = type { %"struct.std::_Vector_base<long, std::allocator<long>>::_Vector_impl" }
%"struct.std::_Vector_base<long, std::allocator<long>>::_Vector_impl" = type { %"struct.std::_Vector_base<long, std::allocator<long>>::_Vector_impl_data" }
%"struct.std::_Vector_base<long, std::allocator<long>>::_Vector_impl_data" = type { ptr, ptr, ptr }
%"struct.Assimp::STEP::Maybe.70" = type <{ double, i8, [7 x i8] }>
%"struct.Assimp::STEP::Maybe.40" = type <{ %"struct.Assimp::STEP::Lazy.41", i8, [7 x i8] }>
%"struct.Assimp::STEP::InternGenericConvert.878" = type { i8 }
%"struct.Assimp::STEP::InternGenericConvert.881" = type { i8 }
%"struct.Assimp::STEP::InternGenericConvert.882" = type { i8 }
%"class.std::bitset<5>::reference" = type { ptr, i64 }
%"struct.Assimp::STEP::ObjectHelper.262" = type { ptr, %"class.std::bitset.181", %"class.Assimp::STEP::Object" }
%"struct.Assimp::IFC::Schema_2x3::IfcBSplineCurve" = type { %"struct.Assimp::IFC::Schema_2x3::IfcBoundedCurve.base", %"struct.Assimp::STEP::ObjectHelper.base.263", i64, %"struct.Assimp::STEP::ListOf.264", %"class.std::__cxx11::basic_string", %"class.std::shared_ptr.29", %"class.std::shared_ptr.29", %"class.Assimp::STEP::Object" }
%"struct.Assimp::IFC::Schema_2x3::IfcBoundedCurve.base" = type { %"struct.Assimp::IFC::Schema_2x3::IfcCurve.base", [7 x i8], %"struct.Assimp::STEP::ObjectHelper.base.261" }
%"struct.Assimp::IFC::Schema_2x3::IfcCurve.base" = type { %"struct.Assimp::IFC::Schema_2x3::IfcGeometricRepresentationItem.base", [7 x i8], %"struct.Assimp::STEP::ObjectHelper.base.259" }
%"struct.Assimp::STEP::ObjectHelper.base.259" = type <{ ptr, %"class.std::bitset.33" }>
%"struct.Assimp::STEP::ObjectHelper.base.261" = type <{ ptr, %"class.std::bitset.33" }>
%"struct.Assimp::STEP::ObjectHelper.base.263" = type { ptr, %"class.std::bitset.181" }
%"struct.Assimp::STEP::ListOf.264" = type { %"class.std::vector.265" }
%"class.std::vector.265" = type { %"struct.std::_Vector_base.266" }
%"struct.std::_Vector_base.266" = type { %"struct.std::_Vector_base<Assimp::STEP::Lazy<Assimp::IFC::Schema_2x3::IfcCartesianPoint>, std::allocator<Assimp::STEP::Lazy<Assimp::IFC::Schema_2x3::IfcCartesianPoint>>>::_Vector_impl" }
%"struct.std::_Vector_base<Assimp::STEP::Lazy<Assimp::IFC::Schema_2x3::IfcCartesianPoint>, std::allocator<Assimp::STEP::Lazy<Assimp::IFC::Schema_2x3::IfcCartesianPoint>>>::_Vector_impl" = type { %"struct.std::_Vector_base<Assimp::STEP::Lazy<Assimp::IFC::Schema_2x3::IfcCartesianPoint>, std::allocator<Assimp::STEP::Lazy<Assimp::IFC::Schema_2x3::IfcCartesianPoint>>>::_Vector_impl_data" }
%"struct.std::_Vector_base<Assimp::STEP::Lazy<Assimp::IFC::Schema_2x3::IfcCartesianPoint>, std::allocator<Assimp::STEP::Lazy<Assimp::IFC::Schema_2x3::IfcCartesianPoint>>>::_Vector_impl_data" = type { ptr, ptr, ptr }
%"struct.Assimp::STEP::InternGenericConvert.884" = type { i8 }
%"struct.Assimp::STEP::InternGenericConvertList.886" = type { i8 }
%"struct.Assimp::STEP::InternGenericConvert.888" = type { i8 }
%"struct.Assimp::IFC::Schema_2x3::IfcShellBasedSurfaceModel" = type { %"struct.Assimp::IFC::Schema_2x3::IfcGeometricRepresentationItem.base", %"struct.Assimp::STEP::ObjectHelper.base.281", %"struct.Assimp::STEP::ListOf.150", %"class.Assimp::STEP::Object" }
%"struct.Assimp::STEP::ObjectHelper.base.281" = type { ptr, %"class.std::bitset" }
%"struct.Assimp::STEP::ListOf.150" = type { %"class.std::vector" }
%"struct.Assimp::STEP::InternGenericConvertList.889" = type { i8 }
%"struct.Assimp::IFC::Schema_2x3::IfcExtrudedAreaSolid" = type { %"struct.Assimp::IFC::Schema_2x3::IfcSweptAreaSolid.base", %"struct.Assimp::STEP::ObjectHelper.base.289", %"struct.Assimp::STEP::Lazy.160", double, %"class.Assimp::STEP::Object" }
%"struct.Assimp::IFC::Schema_2x3::IfcSweptAreaSolid.base" = type { %"struct.Assimp::IFC::Schema_2x3::IfcSolidModel.base", %"struct.Assimp::STEP::ObjectHelper.base.287", %"struct.Assimp::STEP::Lazy.241", %"struct.Assimp::STEP::Lazy.228" }
%"struct.Assimp::IFC::Schema_2x3::IfcSolidModel.base" = type { %"struct.Assimp::IFC::Schema_2x3::IfcGeometricRepresentationItem.base", [7 x i8], %"struct.Assimp::STEP::ObjectHelper.base.285" }
%"struct.Assimp::STEP::ObjectHelper.base.285" = type <{ ptr, %"class.std::bitset.33" }>
%"struct.Assimp::STEP::ObjectHelper.base.287" = type { ptr, %"class.std::bitset.26" }
%"struct.Assimp::STEP::Lazy.241" = type { ptr }
%"struct.Assimp::STEP::Lazy.228" = type { ptr }
%"struct.Assimp::STEP::ObjectHelper.base.289" = type { ptr, %"class.std::bitset.26" }
%"struct.Assimp::IFC::Schema_2x3::IfcRelVoidsElement" = type { %"struct.Assimp::IFC::Schema_2x3::IfcRelConnects.base", %"struct.Assimp::STEP::ObjectHelper.base.304", %"struct.Assimp::STEP::Lazy.305", %"struct.Assimp::STEP::Lazy.306", %"class.Assimp::STEP::Object" }
%"struct.Assimp::IFC::Schema_2x3::IfcRelConnects.base" = type { %"struct.Assimp::IFC::Schema_2x3::IfcRelationship.base", [7 x i8], %"struct.Assimp::STEP::ObjectHelper.base.302" }
%"struct.Assimp::IFC::Schema_2x3::IfcRelationship.base" = type <{ %"struct.Assimp::IFC::Schema_2x3::IfcRoot.base", %"struct.Assimp::STEP::ObjectHelper.base.300" }>
%"struct.Assimp::STEP::ObjectHelper.base.300" = type <{ ptr, %"class.std::bitset.33" }>
%"struct.Assimp::STEP::ObjectHelper.base.302" = type <{ ptr, %"class.std::bitset.33" }>
%"struct.Assimp::STEP::ObjectHelper.base.304" = type { ptr, %"class.std::bitset.26" }
%"struct.Assimp::STEP::Lazy.305" = type { ptr }
%"struct.Assimp::STEP::Lazy.306" = type { ptr }
%"struct.Assimp::STEP::InternGenericConvert.890" = type { i8 }
%"struct.Assimp::STEP::InternGenericConvert.891" = type { i8 }
%"struct.Assimp::IFC::Schema_2x3::IfcCartesianTransformationOperator3DnonUniform" = type { %"struct.Assimp::IFC::Schema_2x3::IfcCartesianTransformationOperator3D.base", %"struct.Assimp::STEP::ObjectHelper.base.317", %"struct.Assimp::STEP::Maybe.70", %"struct.Assimp::STEP::Maybe.70", %"class.Assimp::STEP::Object" }
%"struct.Assimp::IFC::Schema_2x3::IfcCartesianTransformationOperator3D.base" = type { %"struct.Assimp::IFC::Schema_2x3::IfcCartesianTransformationOperator.base", %"struct.Assimp::STEP::ObjectHelper.base.315", %"struct.Assimp::STEP::Maybe.312" }
%"struct.Assimp::IFC::Schema_2x3::IfcCartesianTransformationOperator.base" = type { %"struct.Assimp::IFC::Schema_2x3::IfcGeometricRepresentationItem.base", %"struct.Assimp::STEP::ObjectHelper.base.311", %"struct.Assimp::STEP::Maybe.312", %"struct.Assimp::STEP::Maybe.312", %"struct.Assimp::STEP::Lazy.297", %"struct.Assimp::STEP::Maybe.70" }
%"struct.Assimp::STEP::ObjectHelper.base.311" = type { ptr, %"class.std::bitset.44" }
%"struct.Assimp::STEP::Lazy.297" = type { ptr }
%"struct.Assimp::STEP::ObjectHelper.base.315" = type { ptr, %"class.std::bitset" }
%"struct.Assimp::STEP::Maybe.312" = type <{ %"struct.Assimp::STEP::Lazy.160", i8, [7 x i8] }>
%"struct.Assimp::STEP::ObjectHelper.base.317" = type { ptr, %"class.std::bitset.26" }
%"struct.Assimp::IFC::Schema_2x3::IfcAxis2Placement2D" = type { %"struct.Assimp::IFC::Schema_2x3::IfcPlacement.base", %"struct.Assimp::STEP::ObjectHelper.base.353", %"struct.Assimp::STEP::Maybe.312", %"class.Assimp::STEP::Object" }
%"struct.Assimp::IFC::Schema_2x3::IfcPlacement.base" = type { %"struct.Assimp::IFC::Schema_2x3::IfcGeometricRepresentationItem.base", %"struct.Assimp::STEP::ObjectHelper.base.351", %"struct.Assimp::STEP::Lazy.297" }
%"struct.Assimp::STEP::ObjectHelper.base.351" = type { ptr, %"class.std::bitset" }
%"struct.Assimp::STEP::ObjectHelper.base.353" = type { ptr, %"class.std::bitset" }
%"struct.Assimp::STEP::InternGenericConvert.892" = type { i8 }
%"struct.Assimp::IFC::Schema_2x3::IfcCartesianPoint" = type { %"struct.Assimp::IFC::Schema_2x3::IfcPoint.base", %"struct.Assimp::STEP::ObjectHelper.base.362", %"struct.Assimp::STEP::ListOf.363", %"class.Assimp::STEP::Object" }
%"struct.Assimp::IFC::Schema_2x3::IfcPoint.base" = type { %"struct.Assimp::IFC::Schema_2x3::IfcGeometricRepresentationItem.base", [7 x i8], %"struct.Assimp::STEP::ObjectHelper.base.360" }
%"struct.Assimp::STEP::ObjectHelper.base.360" = type <{ ptr, %"class.std::bitset.33" }>
%"struct.Assimp::STEP::ObjectHelper.base.362" = type { ptr, %"class.std::bitset" }
%"struct.Assimp::STEP::ListOf.363" = type { %"class.std::vector.138" }
%"class.std::vector.138" = type { %"struct.std::_Vector_base.139" }
%"struct.std::_Vector_base.139" = type { %"struct.std::_Vector_base<double, std::allocator<double>>::_Vector_impl" }
%"struct.std::_Vector_base<double, std::allocator<double>>::_Vector_impl" = type { %"struct.std::_Vector_base<double, std::allocator<double>>::_Vector_impl_data" }
%"struct.std::_Vector_base<double, std::allocator<double>>::_Vector_impl_data" = type { ptr, ptr, ptr }
%"struct.Assimp::STEP::InternGenericConvertList.893" = type { i8 }
%"struct.Assimp::IFC::Schema_2x3::IfcPolyLoop" = type { %"struct.Assimp::IFC::Schema_2x3::IfcLoop.base", %"struct.Assimp::STEP::ObjectHelper.base.369", %"struct.Assimp::STEP::ListOf.370", %"class.Assimp::STEP::Object" }
%"struct.Assimp::IFC::Schema_2x3::IfcLoop.base" = type { %"struct.Assimp::IFC::Schema_2x3::IfcTopologicalRepresentationItem.base", [7 x i8], %"struct.Assimp::STEP::ObjectHelper.base.367" }
%"struct.Assimp::STEP::ObjectHelper.base.367" = type <{ ptr, %"class.std::bitset.33" }>
%"struct.Assimp::STEP::ObjectHelper.base.369" = type { ptr, %"class.std::bitset" }
%"struct.Assimp::STEP::ListOf.370" = type { %"class.std::vector.265" }
%"struct.Assimp::STEP::InternGenericConvertList.895" = type { i8 }
%"class.std::bitset<2>::reference" = type { ptr, i64 }
%"struct.Assimp::STEP::ObjectHelper.393" = type { ptr, %"class.std::bitset.26", %"class.Assimp::STEP::Object" }
%"struct.Assimp::IFC::Schema_2x3::IfcRepresentationContext" = type { %"struct.Assimp::STEP::ObjectHelper.base.394", %"struct.Assimp::STEP::Maybe", %"struct.Assimp::STEP::Maybe", %"class.Assimp::STEP::Object" }
%"struct.Assimp::STEP::ObjectHelper.base.394" = type { ptr, %"class.std::bitset.26" }
%"class.std::bitset<4>::reference" = type { ptr, i64 }
%"struct.Assimp::STEP::ObjectHelper.395" = type { ptr, %"class.std::bitset.44", %"class.Assimp::STEP::Object" }
%"struct.Assimp::IFC::Schema_2x3::IfcGeometricRepresentationContext" = type { %"struct.Assimp::IFC::Schema_2x3::IfcRepresentationContext.base", %"struct.Assimp::STEP::ObjectHelper.base.396", i64, %"struct.Assimp::STEP::Maybe.70", %"class.std::shared_ptr.29", %"struct.Assimp::STEP::Maybe.312", %"class.Assimp::STEP::Object" }
%"struct.Assimp::IFC::Schema_2x3::IfcRepresentationContext.base" = type { %"struct.Assimp::STEP::ObjectHelper.base.394", %"struct.Assimp::STEP::Maybe", %"struct.Assimp::STEP::Maybe" }
%"struct.Assimp::STEP::ObjectHelper.base.396" = type { ptr, %"class.std::bitset.44" }
%"struct.Assimp::IFC::Schema_2x3::IfcSIUnit" = type { %"struct.Assimp::IFC::Schema_2x3::IfcNamedUnit.base", %"struct.Assimp::STEP::ObjectHelper.base.409", %"struct.Assimp::STEP::Maybe", %"class.std::__cxx11::basic_string", %"class.Assimp::STEP::Object" }
%"struct.Assimp::IFC::Schema_2x3::IfcNamedUnit.base" = type { %"struct.Assimp::STEP::ObjectHelper.base.407", %"struct.Assimp::STEP::Lazy.41", %"class.std::__cxx11::basic_string" }
%"struct.Assimp::STEP::ObjectHelper.base.407" = type { ptr, %"class.std::bitset.26" }
%"struct.Assimp::STEP::ObjectHelper.base.409" = type { ptr, %"class.std::bitset.26" }
%"struct.Assimp::IFC::Schema_2x3::IfcAxis1Placement" = type { %"struct.Assimp::IFC::Schema_2x3::IfcPlacement.base", %"struct.Assimp::STEP::ObjectHelper.base.415", %"struct.Assimp::STEP::Maybe.312", %"class.Assimp::STEP::Object" }
%"struct.Assimp::STEP::ObjectHelper.base.415" = type { ptr, %"class.std::bitset" }
%"struct.Assimp::IFC::Schema_2x3::IfcRepresentationMap" = type { %"struct.Assimp::STEP::ObjectHelper.base.430", %"class.std::shared_ptr.29", %"struct.Assimp::STEP::Lazy.431", %"class.Assimp::STEP::Object" }
%"struct.Assimp::STEP::ObjectHelper.base.430" = type { ptr, %"class.std::bitset.26" }
%"struct.Assimp::STEP::Lazy.431" = type { ptr }
%"struct.Assimp::STEP::InternGenericConvert.896" = type { i8 }
%"struct.Assimp::IFC::Schema_2x3::IfcMeasureWithUnit" = type { %"struct.Assimp::STEP::ObjectHelper.base.516", %"class.std::shared_ptr.29", %"class.std::shared_ptr.29", %"class.Assimp::STEP::Object" }
%"struct.Assimp::STEP::ObjectHelper.base.516" = type { ptr, %"class.std::bitset.26" }
%"struct.Assimp::IFC::Schema_2x3::IfcFaceBasedSurfaceModel" = type { %"struct.Assimp::IFC::Schema_2x3::IfcGeometricRepresentationItem.base", %"struct.Assimp::STEP::ObjectHelper.base.572", %"struct.Assimp::STEP::ListOf.573", %"class.Assimp::STEP::Object" }
%"struct.Assimp::STEP::ObjectHelper.base.572" = type { ptr, %"class.std::bitset" }
%"struct.Assimp::STEP::ListOf.573" = type { %"class.std::vector.574" }
%"class.std::vector.574" = type { %"struct.std::_Vector_base.575" }
%"struct.std::_Vector_base.575" = type { %"struct.std::_Vector_base<Assimp::STEP::Lazy<Assimp::IFC::Schema_2x3::IfcConnectedFaceSet>, std::allocator<Assimp::STEP::Lazy<Assimp::IFC::Schema_2x3::IfcConnectedFaceSet>>>::_Vector_impl" }
%"struct.std::_Vector_base<Assimp::STEP::Lazy<Assimp::IFC::Schema_2x3::IfcConnectedFaceSet>, std::allocator<Assimp::STEP::Lazy<Assimp::IFC::Schema_2x3::IfcConnectedFaceSet>>>::_Vector_impl" = type { %"struct.std::_Vector_base<Assimp::STEP::Lazy<Assimp::IFC::Schema_2x3::IfcConnectedFaceSet>, std::allocator<Assimp::STEP::Lazy<Assimp::IFC::Schema_2x3::IfcConnectedFaceSet>>>::_Vector_impl_data" }
%"struct.std::_Vector_base<Assimp::STEP::Lazy<Assimp::IFC::Schema_2x3::IfcConnectedFaceSet>, std::allocator<Assimp::STEP::Lazy<Assimp::IFC::Schema_2x3::IfcConnectedFaceSet>>>::_Vector_impl_data" = type { ptr, ptr, ptr }
%"struct.Assimp::STEP::InternGenericConvertList.897" = type { i8 }
%"struct.Assimp::STEP::ObjectHelper.590" = type { ptr, %"class.std::bitset.26", %"class.Assimp::STEP::Object" }
%"struct.Assimp::IFC::Schema_2x3::IfcFaceBound" = type { %"struct.Assimp::IFC::Schema_2x3::IfcTopologicalRepresentationItem.base", %"struct.Assimp::STEP::ObjectHelper.base.591", %"struct.Assimp::STEP::Lazy.592", %"class.std::__cxx11::basic_string", %"class.Assimp::STEP::Object" }
%"struct.Assimp::STEP::ObjectHelper.base.591" = type { ptr, %"class.std::bitset.26" }
%"struct.Assimp::STEP::Lazy.592" = type { ptr }
%"struct.Assimp::STEP::InternGenericConvert.901" = type { i8 }
%"struct.Assimp::IFC::Schema_2x3::IfcComplexProperty" = type { %"struct.Assimp::IFC::Schema_2x3::IfcProperty.base", %"struct.Assimp::STEP::ObjectHelper.base.605", %"class.std::__cxx11::basic_string", %"struct.Assimp::STEP::ListOf.509", %"class.Assimp::STEP::Object" }
%"struct.Assimp::IFC::Schema_2x3::IfcProperty.base" = type { %"struct.Assimp::STEP::ObjectHelper.base.603", %"class.std::__cxx11::basic_string", %"struct.Assimp::STEP::Maybe" }
%"struct.Assimp::STEP::ObjectHelper.base.603" = type { ptr, %"class.std::bitset.26" }
%"struct.Assimp::STEP::ObjectHelper.base.605" = type { ptr, %"class.std::bitset.26" }
%"struct.Assimp::STEP::ListOf.509" = type { %"class.std::vector.510" }
%"class.std::vector.510" = type { %"struct.std::_Vector_base.511" }
%"struct.std::_Vector_base.511" = type { %"struct.std::_Vector_base<Assimp::STEP::Lazy<Assimp::IFC::Schema_2x3::IfcProperty>, std::allocator<Assimp::STEP::Lazy<Assimp::IFC::Schema_2x3::IfcProperty>>>::_Vector_impl" }
%"struct.std::_Vector_base<Assimp::STEP::Lazy<Assimp::IFC::Schema_2x3::IfcProperty>, std::allocator<Assimp::STEP::Lazy<Assimp::IFC::Schema_2x3::IfcProperty>>>::_Vector_impl" = type { %"struct.std::_Vector_base<Assimp::STEP::Lazy<Assimp::IFC::Schema_2x3::IfcProperty>, std::allocator<Assimp::STEP::Lazy<Assimp::IFC::Schema_2x3::IfcProperty>>>::_Vector_impl_data" }
%"struct.std::_Vector_base<Assimp::STEP::Lazy<Assimp::IFC::Schema_2x3::IfcProperty>, std::allocator<Assimp::STEP::Lazy<Assimp::IFC::Schema_2x3::IfcProperty>>>::_Vector_impl_data" = type { ptr, ptr, ptr }
%"struct.Assimp::STEP::InternGenericConvertList.902" = type { i8 }
%"struct.Assimp::IFC::Schema_2x3::IfcUnitAssignment" = type { %"struct.Assimp::STEP::ObjectHelper.base.622", %"struct.Assimp::STEP::ListOf.150", %"class.Assimp::STEP::Object" }
%"struct.Assimp::STEP::ObjectHelper.base.622" = type { ptr, %"class.std::bitset" }
%"struct.Assimp::IFC::Schema_2x3::IfcElementQuantity" = type { %"struct.Assimp::IFC::Schema_2x3::IfcPropertySetDefinition.base", %"struct.Assimp::STEP::ObjectHelper.base.635", %"struct.Assimp::STEP::Maybe", %"struct.Assimp::STEP::ListOf.78", %"class.Assimp::STEP::Object" }
%"struct.Assimp::IFC::Schema_2x3::IfcPropertySetDefinition.base" = type { %"struct.Assimp::IFC::Schema_2x3::IfcPropertyDefinition.base", [7 x i8], %"struct.Assimp::STEP::ObjectHelper.base.633" }
%"struct.Assimp::IFC::Schema_2x3::IfcPropertyDefinition.base" = type <{ %"struct.Assimp::IFC::Schema_2x3::IfcRoot.base", %"struct.Assimp::STEP::ObjectHelper.base.631" }>
%"struct.Assimp::STEP::ObjectHelper.base.631" = type <{ ptr, %"class.std::bitset.33" }>
%"struct.Assimp::STEP::ObjectHelper.base.633" = type <{ ptr, %"class.std::bitset.33" }>
%"struct.Assimp::STEP::ObjectHelper.base.635" = type { ptr, %"class.std::bitset.26" }
%"struct.Assimp::STEP::ListOf.78" = type { %"class.std::vector.79" }
%"class.std::vector.79" = type { %"struct.std::_Vector_base.80" }
%"struct.std::_Vector_base.80" = type { %"struct.std::_Vector_base<Assimp::STEP::Lazy<Assimp::IFC::Schema_2x3::NotImplemented>, std::allocator<Assimp::STEP::Lazy<Assimp::IFC::Schema_2x3::NotImplemented>>>::_Vector_impl" }
%"struct.std::_Vector_base<Assimp::STEP::Lazy<Assimp::IFC::Schema_2x3::NotImplemented>, std::allocator<Assimp::STEP::Lazy<Assimp::IFC::Schema_2x3::NotImplemented>>>::_Vector_impl" = type { %"struct.std::_Vector_base<Assimp::STEP::Lazy<Assimp::IFC::Schema_2x3::NotImplemented>, std::allocator<Assimp::STEP::Lazy<Assimp::IFC::Schema_2x3::NotImplemented>>>::_Vector_impl_data" }
%"struct.std::_Vector_base<Assimp::STEP::Lazy<Assimp::IFC::Schema_2x3::NotImplemented>, std::allocator<Assimp::STEP::Lazy<Assimp::IFC::Schema_2x3::NotImplemented>>>::_Vector_impl_data" = type { ptr, ptr, ptr }
%"struct.Assimp::STEP::InternGenericConvertList.906" = type { i8 }
%"struct.Assimp::IFC::Schema_2x3::IfcPresentationStyleAssignment" = type { %"struct.Assimp::STEP::ObjectHelper.base.656", %"struct.Assimp::STEP::ListOf.150", %"class.Assimp::STEP::Object" }
%"struct.Assimp::STEP::ObjectHelper.base.656" = type { ptr, %"class.std::bitset" }
%"struct.Assimp::IFC::Schema_2x3::IfcSpace" = type { %"struct.Assimp::IFC::Schema_2x3::IfcSpatialStructureElement.base", %"struct.Assimp::STEP::ObjectHelper.base.666", %"class.std::__cxx11::basic_string", %"struct.Assimp::STEP::Maybe.70", %"class.Assimp::STEP::Object" }
%"struct.Assimp::STEP::ObjectHelper.base.666" = type { ptr, %"class.std::bitset.26" }
%"struct.Assimp::IFC::Schema_2x3::IfcSurfaceStyleWithTextures" = type { %"struct.Assimp::STEP::ObjectHelper.base.684", %"struct.Assimp::STEP::ListOf.78", %"class.Assimp::STEP::Object" }
%"struct.Assimp::STEP::ObjectHelper.base.684" = type { ptr, %"class.std::bitset" }
%"struct.Assimp::IFC::Schema_2x3::IfcBoundingBox" = type { %"struct.Assimp::IFC::Schema_2x3::IfcGeometricRepresentationItem.base", %"struct.Assimp::STEP::ObjectHelper.base.686", %"struct.Assimp::STEP::Lazy.297", double, double, double, %"class.Assimp::STEP::Object" }
%"struct.Assimp::STEP::ObjectHelper.base.686" = type { ptr, %"class.std::bitset.44" }
%"struct.Assimp::STEP::InternGenericConvert.908" = type { i8 }
%"struct.Assimp::IFC::Schema_2x3::IfcCircle" = type { %"struct.Assimp::IFC::Schema_2x3::IfcConic.base", %"struct.Assimp::STEP::ObjectHelper.base.706", double, %"class.Assimp::STEP::Object" }
%"struct.Assimp::IFC::Schema_2x3::IfcConic.base" = type { %"struct.Assimp::IFC::Schema_2x3::IfcCurve.base", %"struct.Assimp::STEP::ObjectHelper.base.704", %"class.std::shared_ptr.29" }
%"struct.Assimp::STEP::ObjectHelper.base.704" = type { ptr, %"class.std::bitset" }
%"struct.Assimp::STEP::ObjectHelper.base.706" = type { ptr, %"class.std::bitset" }
%"struct.Assimp::IFC::Schema_2x3::IfcConversionBasedUnit" = type { %"struct.Assimp::IFC::Schema_2x3::IfcNamedUnit.base", %"struct.Assimp::STEP::ObjectHelper.base.747", %"class.std::__cxx11::basic_string", %"struct.Assimp::STEP::Lazy.550", %"class.Assimp::STEP::Object" }
%"struct.Assimp::STEP::ObjectHelper.base.747" = type { ptr, %"class.std::bitset.26" }
%"struct.Assimp::STEP::Lazy.550" = type { ptr }
%"struct.Assimp::STEP::InternGenericConvert.909" = type { i8 }
%"struct.Assimp::IFC::Schema_2x3::IfcEllipse" = type { %"struct.Assimp::IFC::Schema_2x3::IfcConic.base", %"struct.Assimp::STEP::ObjectHelper.base.795", double, double, %"class.Assimp::STEP::Object" }
%"struct.Assimp::STEP::ObjectHelper.base.795" = type { ptr, %"class.std::bitset.26" }
%"struct.Assimp::IFC::Schema_2x3::IfcPropertySet" = type { %"struct.Assimp::IFC::Schema_2x3::IfcPropertySetDefinition.base", %"struct.Assimp::STEP::ObjectHelper.base.832", %"struct.Assimp::STEP::ListOf.509", %"class.Assimp::STEP::Object" }
%"struct.Assimp::STEP::ObjectHelper.base.832" = type { ptr, %"class.std::bitset" }
%"struct.Assimp::IFC::Schema_2x3::IfcSurfaceStyleRendering" = type { %"struct.Assimp::IFC::Schema_2x3::IfcSurfaceStyleShading.base", %"struct.Assimp::STEP::ObjectHelper.base.836", %"struct.Assimp::STEP::Maybe.70", %"struct.Assimp::STEP::Maybe.85", %"struct.Assimp::STEP::Maybe.85", %"struct.Assimp::STEP::Maybe.85", %"struct.Assimp::STEP::Maybe.85", %"struct.Assimp::STEP::Maybe.85", %"struct.Assimp::STEP::Maybe.85", %"class.std::__cxx11::basic_string", %"class.Assimp::STEP::Object" }
%"struct.Assimp::IFC::Schema_2x3::IfcSurfaceStyleShading.base" = type { %"struct.Assimp::STEP::ObjectHelper.base.834", %"struct.Assimp::STEP::Lazy.224" }
%"struct.Assimp::STEP::ObjectHelper.base.834" = type { ptr, %"class.std::bitset" }
%"struct.Assimp::STEP::Lazy.224" = type { ptr }
%"struct.Assimp::STEP::ObjectHelper.base.836" = type { ptr, %"class.std::bitset.147" }
%"class.std::bitset.147" = type { %"struct.std::_Base_bitset" }
%"struct.Assimp::STEP::Maybe.85" = type <{ %"class.std::shared_ptr.29", i8, [7 x i8] }>
%"struct.Assimp::STEP::InternGenericConvert.910" = type { i8 }
%"class.std::_Sp_counted_base" = type { ptr, i32, i32 }
%struct._Guard = type { ptr }
%"class.Assimp::STEP::EXPRESS::PrimitiveDataType" = type { %"class.Assimp::STEP::EXPRESS::DataType", %"class.std::__cxx11::basic_string" }
%"class.__gnu_cxx::__normal_iterator" = type { ptr }
%"struct.Assimp::STEP::Lazy.870" = type { ptr }
%"struct.Assimp::STEP::InternGenericConvert.872" = type { i8 }
%"class.__gnu_cxx::__normal_iterator.871" = type { ptr }
%"struct.std::_Rb_tree_const_iterator" = type { ptr }
%"class.Assimp::STEP::DB" = type { %"struct.Assimp::STEP::HeaderInfo", %"class.std::map", %"class.std::map.3", %"class.std::multimap", %"class.std::set", %"class.std::shared_ptr", %"class.Assimp::LineSplitter", i64, ptr }
%"struct.Assimp::STEP::HeaderInfo" = type { %"class.std::__cxx11::basic_string", %"class.std::__cxx11::basic_string", %"class.std::__cxx11::basic_string" }
%"class.std::map" = type { %"class.std::_Rb_tree" }
%"class.std::_Rb_tree" = type { %"struct.std::_Rb_tree<unsigned long, std::pair<const unsigned long, const Assimp::STEP::LazyObject *>, std::_Select1st<std::pair<const unsigned long, const Assimp::STEP::LazyObject *>>, std::less<unsigned long>>::_Rb_tree_impl" }
%"struct.std::_Rb_tree<unsigned long, std::pair<const unsigned long, const Assimp::STEP::LazyObject *>, std::_Select1st<std::pair<const unsigned long, const Assimp::STEP::LazyObject *>>, std::less<unsigned long>>::_Rb_tree_impl" = type { %"struct.std::_Rb_tree_key_compare", %"struct.std::_Rb_tree_header" }
%"struct.std::_Rb_tree_key_compare" = type { %"struct.std::less" }
%"struct.std::less" = type { i8 }
%"struct.std::_Rb_tree_header" = type { %"struct.std::_Rb_tree_node_base", i64 }
%"struct.std::_Rb_tree_node_base" = type { i32, ptr, ptr, ptr }
%"class.std::map.3" = type { %"class.std::_Rb_tree.4" }
%"class.std::_Rb_tree.4" = type { %"struct.std::_Rb_tree<std::__cxx11::basic_string<char>, std::pair<const std::__cxx11::basic_string<char>, std::set<const Assimp::STEP::LazyObject *>>, std::_Select1st<std::pair<const std::__cxx11::basic_string<char>, std::set<const Assimp::STEP::LazyObject *>>>, std::less<std::__cxx11::basic_string<char>>>::_Rb_tree_impl" }
%"struct.std::_Rb_tree<std::__cxx11::basic_string<char>, std::pair<const std::__cxx11::basic_string<char>, std::set<const Assimp::STEP::LazyObject *>>, std::_Select1st<std::pair<const std::__cxx11::basic_string<char>, std::set<const Assimp::STEP::LazyObject *>>>, std::less<std::__cxx11::basic_string<char>>>::_Rb_tree_impl" = type { %"struct.std::_Rb_tree_key_compare.8", %"struct.std::_Rb_tree_header" }
%"struct.std::_Rb_tree_key_compare.8" = type { %"struct.std::less.9" }
%"struct.std::less.9" = type { i8 }
%"class.std::multimap" = type { %"class.std::_Rb_tree.11" }
%"class.std::_Rb_tree.11" = type { %"struct.std::_Rb_tree<unsigned long, std::pair<const unsigned long, unsigned long>, std::_Select1st<std::pair<const unsigned long, unsigned long>>, std::less<unsigned long>>::_Rb_tree_impl" }
%"struct.std::_Rb_tree<unsigned long, std::pair<const unsigned long, unsigned long>, std::_Select1st<std::pair<const unsigned long, unsigned long>>, std::less<unsigned long>>::_Rb_tree_impl" = type { %"struct.std::_Rb_tree_key_compare", %"struct.std::_Rb_tree_header" }
%"class.std::set" = type { %"class.std::_Rb_tree.15" }
%"class.std::_Rb_tree.15" = type { %"struct.std::_Rb_tree<const char *, const char *, std::_Identity<const char *>, std::less<const char *>>::_Rb_tree_impl" }
%"struct.std::_Rb_tree<const char *, const char *, std::_Identity<const char *>, std::less<const char *>>::_Rb_tree_impl" = type { %"struct.std::_Rb_tree_key_compare.19", %"struct.std::_Rb_tree_header" }
%"struct.std::_Rb_tree_key_compare.19" = type { %"struct.std::less.20" }
%"struct.std::less.20" = type { i8 }
%"class.std::shared_ptr" = type { %"class.std::__shared_ptr" }
%"class.std::__shared_ptr" = type { ptr, %"class.std::__shared_count" }
%"class.Assimp::LineSplitter" = type <{ i64, %"class.std::__cxx11::basic_string", ptr, i8, i8, i8, [5 x i8] }>
%"struct.std::pair" = type { i64, ptr }
%"class.Assimp::STEP::EXPRESS::PrimitiveDataType.873" = type { %"class.Assimp::STEP::EXPRESS::DataType", i64 }
%"struct.std::_Select1st" = type { i8 }
%"struct.std::_Rb_tree_node" = type { %"struct.std::_Rb_tree_node_base", %"struct.__gnu_cxx::__aligned_membuf" }
%"struct.__gnu_cxx::__aligned_membuf" = type { [16 x i8] }
%"class.Assimp::STEP::EXPRESS::PrimitiveDataType.877" = type { %"class.Assimp::STEP::EXPRESS::DataType", double }
%"struct.Assimp::STEP::InternGenericConvertList.879" = type { i8 }
%"class.__gnu_cxx::__normal_iterator.880" = type { ptr }
%"struct.Assimp::STEP::InternGenericConvert.883" = type { i8 }
%"class.Assimp::STEP::EXPRESS::PrimitiveDataType.885" = type { %"class.Assimp::STEP::EXPRESS::DataType", i64 }
%"class.__gnu_cxx::__normal_iterator.887" = type { ptr }
%"class.__gnu_cxx::__normal_iterator.894" = type { ptr }
%"struct.Assimp::STEP::Lazy.898" = type { ptr }
%"struct.Assimp::STEP::InternGenericConvert.900" = type { i8 }
%"class.__gnu_cxx::__normal_iterator.899" = type { ptr }
%"struct.Assimp::STEP::Lazy.903" = type { ptr }
%"struct.Assimp::STEP::InternGenericConvert.905" = type { i8 }
%"class.__gnu_cxx::__normal_iterator.904" = type { ptr }
%"class.__gnu_cxx::__normal_iterator.907" = type { ptr }

$_ZN6Assimp8IOStreamD0Ev = comdat any

$_ZN6Assimp9LogStreamD0Ev = comdat any

$_ZN6Assimp6LoggerD0Ev = comdat any

$_ZNK6Assimp4STEP7EXPRESS4LIST7GetSizeEv = comdat any

$_ZNSt7__cxx1112basic_stringIcSt11char_traitsIcESaIcEEC2IS3_EEPKcRKS3_ = comdat any

$_ZN6Assimp4STEP9TypeErrorD2Ev = comdat any

$_ZNK6Assimp4STEP7EXPRESS4LISTixEm = comdat any

$_ZN6Assimp4STEP14GenericConvertINSt7__cxx1112basic_stringIcSt11char_traitsIcESaIcEEEEEvRT_RKSt10shared_ptrIKNS0_7EXPRESS8DataTypeEERKNS0_2DBE = comdat any

$_ZStplIcSt11char_traitsIcESaIcEENSt7__cxx1112basic_stringIT_T0_T1_EEPKS5_OS8_ = comdat any

$__clang_call_terminate = comdat any

$_ZNSt10shared_ptrIKN6Assimp4STEP7EXPRESS8DataTypeEED2Ev = comdat any

$_ZN6Assimp4STEP14GenericConvertINS0_7EXPRESS8DataTypeELm1ELm5EEEvRNS0_6ListOfIT_XT0_EXT1_EEERKSt10shared_ptrIKS3_ERKNS0_2DBE = comdat any

$_ZNKSt19__shared_ptr_accessIKN6Assimp4STEP7EXPRESS8DataTypeELN9__gnu_cxx12_Lock_policyE2ELb0ELb0EEdeEv = comdat any

$_ZNSt6bitsetILm1EEixEm = comdat any

$_ZNSt6bitsetILm1EE9referenceaSEb = comdat any

$_ZNSt6bitsetILm1EE9referenceD2Ev = comdat any

$_ZN6Assimp4STEP14GenericConvertINS0_4LazyINS_3IFC10Schema_2x312IfcFaceBoundEEELm1ELm0EEEvRNS0_6ListOfIT_XT0_EXT1_EEERKSt10shared_ptrIKNS0_7EXPRESS8DataTypeEERKNS0_2DBE = comdat any

$_ZN6Assimp4STEP14GenericConvertINS0_5MaybeINSt7__cxx1112basic_stringIcSt11char_traitsIcESaIcEEEEEEEvRT_RKSt10shared_ptrIKNS0_7EXPRESS8DataTypeEERKNS0_2DBE = comdat any

$_ZN6Assimp4STEP14GenericConvertINS0_4LazyINS_3IFC10Schema_2x312IfcDirectionEEEEEvRT_RKSt10shared_ptrIKNS0_7EXPRESS8DataTypeEERKNS0_2DBE = comdat any

$_ZN6Assimp4STEP14GenericConvertIdEEvRT_RKSt10shared_ptrIKNS0_7EXPRESS8DataTypeEERKNS0_2DBE = comdat any

$_ZN6Assimp4STEP14GenericConvertINS0_5MaybeINS0_6ListOfINS0_7EXPRESS17PrimitiveDataTypeIlEELm3ELm3EEEEEEEvRT_RKSt10shared_ptrIKNS4_8DataTypeEERKNS0_2DBE = comdat any

$_ZN6Assimp4STEP14GenericConvertINS0_5MaybeIdEEEEvRT_RKSt10shared_ptrIKNS0_7EXPRESS8DataTypeEERKNS0_2DBE = comdat any

$_ZN6Assimp4STEP14GenericConvertINS0_5MaybeINS0_4LazyINS_3IFC10Schema_2x314NotImplementedEEEEEEEvRT_RKSt10shared_ptrIKNS0_7EXPRESS8DataTypeEERKNS0_2DBE = comdat any

$_ZNSt6bitsetILm5EEixEm = comdat any

$_ZNSt6bitsetILm5EE9referenceaSEb = comdat any

$_ZNSt6bitsetILm5EE9referenceD2Ev = comdat any

$_ZN6Assimp4STEP14GenericConvertIlEEvRT_RKSt10shared_ptrIKNS0_7EXPRESS8DataTypeEERKNS0_2DBE = comdat any

$_ZN6Assimp4STEP14GenericConvertINS0_4LazyINS_3IFC10Schema_2x317IfcCartesianPointEEELm2ELm0EEEvRNS0_6ListOfIT_XT0_EXT1_EEERKSt10shared_ptrIKNS0_7EXPRESS8DataTypeEERKNS0_2DBE = comdat any

$_ZN6Assimp4STEP14GenericConvertISt10shared_ptrIKNS0_7EXPRESS8DataTypeEEEEvRT_RKS6_RKNS0_2DBE = comdat any

$_ZN6Assimp4STEP14GenericConvertINS0_7EXPRESS8DataTypeELm1ELm0EEEvRNS0_6ListOfIT_XT0_EXT1_EEERKSt10shared_ptrIKS3_ERKNS0_2DBE = comdat any

$_ZN6Assimp4STEP14GenericConvertINS0_4LazyINS_3IFC10Schema_2x310IfcElementEEEEEvRT_RKSt10shared_ptrIKNS0_7EXPRESS8DataTypeEERKNS0_2DBE = comdat any

$_ZN6Assimp4STEP14GenericConvertINS0_4LazyINS_3IFC10Schema_2x328IfcFeatureElementSubtractionEEEEEvRT_RKSt10shared_ptrIKNS0_7EXPRESS8DataTypeEERKNS0_2DBE = comdat any

$_ZN6Assimp4STEP14GenericConvertINS0_5MaybeINS0_4LazyINS_3IFC10Schema_2x312IfcDirectionEEEEEEEvRT_RKSt10shared_ptrIKNS0_7EXPRESS8DataTypeEERKNS0_2DBE = comdat any

$_ZN6Assimp4STEP14GenericConvertINS0_7EXPRESS17PrimitiveDataTypeIdEELm1ELm3EEEvRNS0_6ListOfIT_XT0_EXT1_EEERKSt10shared_ptrIKNS2_8DataTypeEERKNS0_2DBE = comdat any

$_ZN6Assimp4STEP14GenericConvertINS0_4LazyINS_3IFC10Schema_2x317IfcCartesianPointEEELm3ELm0EEEvRNS0_6ListOfIT_XT0_EXT1_EEERKSt10shared_ptrIKNS0_7EXPRESS8DataTypeEERKNS0_2DBE = comdat any

$_ZNSt6bitsetILm2EEixEm = comdat any

$_ZNSt6bitsetILm2EE9referenceaSEb = comdat any

$_ZNSt6bitsetILm2EE9referenceD2Ev = comdat any

$_ZNSt6bitsetILm4EEixEm = comdat any

$_ZNSt6bitsetILm4EE9referenceaSEb = comdat any

$_ZNSt6bitsetILm4EE9referenceD2Ev = comdat any

$_ZN6Assimp4STEP14GenericConvertINS0_4LazyINS_3IFC10Schema_2x317IfcRepresentationEEEEEvRT_RKSt10shared_ptrIKNS0_7EXPRESS8DataTypeEERKNS0_2DBE = comdat any

$_ZN6Assimp4STEP14GenericConvertINS0_4LazyINS_3IFC10Schema_2x319IfcConnectedFaceSetEEELm1ELm0EEEvRNS0_6ListOfIT_XT0_EXT1_EEERKSt10shared_ptrIKNS0_7EXPRESS8DataTypeEERKNS0_2DBE = comdat any

$_ZN6Assimp4STEP14GenericConvertINS0_4LazyINS_3IFC10Schema_2x37IfcLoopEEEEEvRT_RKSt10shared_ptrIKNS0_7EXPRESS8DataTypeEERKNS0_2DBE = comdat any

$_ZN6Assimp4STEP14GenericConvertINS0_4LazyINS_3IFC10Schema_2x311IfcPropertyEEELm1ELm0EEEvRNS0_6ListOfIT_XT0_EXT1_EEERKSt10shared_ptrIKNS0_7EXPRESS8DataTypeEERKNS0_2DBE = comdat any

$_ZN6Assimp4STEP14GenericConvertINS0_4LazyINS_3IFC10Schema_2x314NotImplementedEEELm1ELm0EEEvRNS0_6ListOfIT_XT0_EXT1_EEERKSt10shared_ptrIKNS0_7EXPRESS8DataTypeEERKNS0_2DBE = comdat any

$_ZN6Assimp4STEP14GenericConvertINS0_4LazyINS_3IFC10Schema_2x317IfcCartesianPointEEEEEvRT_RKSt10shared_ptrIKNS0_7EXPRESS8DataTypeEERKNS0_2DBE = comdat any

$_ZN6Assimp4STEP14GenericConvertINS0_4LazyINS_3IFC10Schema_2x318IfcMeasureWithUnitEEEEEvRT_RKSt10shared_ptrIKNS0_7EXPRESS8DataTypeEERKNS0_2DBE = comdat any

$_ZN6Assimp4STEP14GenericConvertINS0_5MaybeISt10shared_ptrIKNS0_7EXPRESS8DataTypeEEEEEEvRT_RKS7_RKNS0_2DBE = comdat any

$_ZN6Assimp8IOStreamD2Ev = comdat any

$_ZN6Assimp9LogStreamD2Ev = comdat any

$_ZN6Assimp6LoggerD2Ev = comdat any

$_ZNKSt6vectorISt10shared_ptrIKN6Assimp4STEP7EXPRESS8DataTypeEESaIS6_EE4sizeEv = comdat any

$_ZN17DeadlyImportErrorD2Ev = comdat any

$_ZN15DeadlyErrorBaseD2Ev = comdat any

$_ZNKSt6vectorISt10shared_ptrIKN6Assimp4STEP7EXPRESS8DataTypeEESaIS6_EEixEm = comdat any

$_ZNSt10shared_ptrIKN6Assimp4STEP7EXPRESS8DataTypeEEC2ERKS5_ = comdat any

$_ZNSt12__shared_ptrIKN6Assimp4STEP7EXPRESS8DataTypeELN9__gnu_cxx12_Lock_policyE2EEC2ERKS7_ = comdat any

$_ZNSt14__shared_countILN9__gnu_cxx12_Lock_policyE2EEC2ERKS2_ = comdat any

$_ZNSt16_Sp_counted_baseILN9__gnu_cxx12_Lock_policyE2EE15_M_add_ref_copyEv = comdat any

$_ZNSt12__shared_ptrIKN6Assimp4STEP7EXPRESS8DataTypeELN9__gnu_cxx12_Lock_policyE2EED2Ev = comdat any

$_ZNSt14__shared_countILN9__gnu_cxx12_Lock_policyE2EED2Ev = comdat any

$_ZNSt16_Sp_counted_baseILN9__gnu_cxx12_Lock_policyE2EE10_M_releaseEv = comdat any

$_ZNSt16_Sp_counted_baseILN9__gnu_cxx12_Lock_policyE2EE24_M_release_last_use_coldEv = comdat any

$_ZNSt16_Sp_counted_baseILN9__gnu_cxx12_Lock_policyE2EE19_M_release_last_useEv = comdat any

$_ZNSt11char_traitsIcE6lengthEPKc = comdat any

$_ZNSt7__cxx1112basic_stringIcSt11char_traitsIcESaIcEE12_M_constructIPKcEEvT_S8_St20forward_iterator_tag = comdat any

$_ZNSt7__cxx1112basic_stringIcSt11char_traitsIcESaIcEE12_Alloc_hiderD2Ev = comdat any

$_ZSt8distanceIPKcENSt15iterator_traitsIT_E15difference_typeES3_S3_ = comdat any

$_ZZNSt7__cxx1112basic_stringIcSt11char_traitsIcESaIcEE12_M_constructIPKcEEvT_S8_St20forward_iterator_tagEN6_GuardC2EPS4_ = comdat any

$_ZZNSt7__cxx1112basic_stringIcSt11char_traitsIcESaIcEE12_M_constructIPKcEEvT_S8_St20forward_iterator_tagEN6_GuardD2Ev = comdat any

$_ZSt10__distanceIPKcENSt15iterator_traitsIT_E15difference_typeES3_S3_St26random_access_iterator_tag = comdat any

$_ZSt19__iterator_categoryIPKcENSt15iterator_traitsIT_E17iterator_categoryERKS3_ = comdat any

$_ZN6Assimp4STEP20InternGenericConvertINSt7__cxx1112basic_stringIcSt11char_traitsIcESaIcEEEEclERS7_RKSt10shared_ptrIKNS0_7EXPRESS8DataTypeEERKNS0_2DBE = comdat any

$_ZNK6Assimp4STEP7EXPRESS17PrimitiveDataTypeINSt7__cxx1112basic_stringIcSt11char_traitsIcESaIcEEEEcvRKS8_Ev = comdat any

$_ZN6Assimp4STEP24InternGenericConvertListINS0_7EXPRESS8DataTypeELm1ELm5EEclERNS0_6ListOfIS3_Lm1ELm5EEERKSt10shared_ptrIKS3_ERKNS0_2DBE = comdat any

$_ZNKSt12__shared_ptrIKN6Assimp4STEP7EXPRESS8DataTypeELN9__gnu_cxx12_Lock_policyE2EE3getEv = comdat any

$_ZNSt6vectorISt10shared_ptrIKN6Assimp4STEP7EXPRESS8DataTypeEESaIS6_EE7reserveEm = comdat any

$_ZNSt6vectorISt10shared_ptrIKN6Assimp4STEP7EXPRESS8DataTypeEESaIS6_EE9push_backEOS6_ = comdat any

$_ZNSt10shared_ptrIKN6Assimp4STEP7EXPRESS8DataTypeEEC2Ev = comdat any

$_ZNSt6vectorISt10shared_ptrIKN6Assimp4STEP7EXPRESS8DataTypeEESaIS6_EE4backEv = comdat any

$_ZNKSt6vectorISt10shared_ptrIKN6Assimp4STEP7EXPRESS8DataTypeEESaIS6_EE8max_sizeEv = comdat any

$_ZNKSt6vectorISt10shared_ptrIKN6Assimp4STEP7EXPRESS8DataTypeEESaIS6_EE8capacityEv = comdat any

$_ZNSt12_Vector_baseISt10shared_ptrIKN6Assimp4STEP7EXPRESS8DataTypeEESaIS6_EE11_M_allocateEm = comdat any

$_ZNSt6vectorISt10shared_ptrIKN6Assimp4STEP7EXPRESS8DataTypeEESaIS6_EE11_S_relocateEPS6_S9_S9_RS7_ = comdat any

$_ZNSt12_Vector_baseISt10shared_ptrIKN6Assimp4STEP7EXPRESS8DataTypeEESaIS6_EE19_M_get_Tp_allocatorEv = comdat any

$_ZNSt12_Vector_baseISt10shared_ptrIKN6Assimp4STEP7EXPRESS8DataTypeEESaIS6_EE13_M_deallocateEPS6_m = comdat any

$_ZNSt6vectorISt10shared_ptrIKN6Assimp4STEP7EXPRESS8DataTypeEESaIS6_EE11_S_max_sizeERKS7_ = comdat any

$_ZNKSt12_Vector_baseISt10shared_ptrIKN6Assimp4STEP7EXPRESS8DataTypeEESaIS6_EE19_M_get_Tp_allocatorEv = comdat any

$_ZNSt16allocator_traitsISaISt10shared_ptrIKN6Assimp4STEP7EXPRESS8DataTypeEEEE8max_sizeERKS7_ = comdat any

$_ZSt3minImERKT_S2_S2_ = comdat any

$_ZNKSt15__new_allocatorISt10shared_ptrIKN6Assimp4STEP7EXPRESS8DataTypeEEE8max_sizeEv = comdat any

$_ZNKSt15__new_allocatorISt10shared_ptrIKN6Assimp4STEP7EXPRESS8DataTypeEEE11_M_max_sizeEv = comdat any

$_ZNSt16allocator_traitsISaISt10shared_ptrIKN6Assimp4STEP7EXPRESS8DataTypeEEEE8allocateERS7_m = comdat any

$_ZNSt15__new_allocatorISt10shared_ptrIKN6Assimp4STEP7EXPRESS8DataTypeEEE8allocateEmPKv = comdat any

$_ZSt12__relocate_aIPSt10shared_ptrIKN6Assimp4STEP7EXPRESS8DataTypeEES7_SaIS6_EET0_T_SA_S9_RT1_ = comdat any

$_ZSt14__relocate_a_1IPSt10shared_ptrIKN6Assimp4STEP7EXPRESS8DataTypeEES7_SaIS6_EET0_T_SA_S9_RT1_ = comdat any

$_ZSt12__niter_baseIPSt10shared_ptrIKN6Assimp4STEP7EXPRESS8DataTypeEEET_S8_ = comdat any

$_ZSt19__relocate_object_aISt10shared_ptrIKN6Assimp4STEP7EXPRESS8DataTypeEES6_SaIS6_EEvPT_PT0_RT1_ = comdat any

$_ZNSt16allocator_traitsISaISt10shared_ptrIKN6Assimp4STEP7EXPRESS8DataTypeEEEE9constructIS6_JS6_EEEvRS7_PT_DpOT0_ = comdat any

$_ZNSt16allocator_traitsISaISt10shared_ptrIKN6Assimp4STEP7EXPRESS8DataTypeEEEE7destroyIS6_EEvRS7_PT_ = comdat any

$_ZNSt15__new_allocatorISt10shared_ptrIKN6Assimp4STEP7EXPRESS8DataTypeEEE9constructIS6_JS6_EEEvPT_DpOT0_ = comdat any

$_ZNSt10shared_ptrIKN6Assimp4STEP7EXPRESS8DataTypeEEC2EOS5_ = comdat any

$_ZNSt12__shared_ptrIKN6Assimp4STEP7EXPRESS8DataTypeELN9__gnu_cxx12_Lock_policyE2EEC2EOS7_ = comdat any

$_ZNSt14__shared_countILN9__gnu_cxx12_Lock_policyE2EEC2Ev = comdat any

$_ZNSt14__shared_countILN9__gnu_cxx12_Lock_policyE2EE7_M_swapERS2_ = comdat any

$_ZNSt15__new_allocatorISt10shared_ptrIKN6Assimp4STEP7EXPRESS8DataTypeEEE7destroyIS6_EEvPT_ = comdat any

$_ZNSt16allocator_traitsISaISt10shared_ptrIKN6Assimp4STEP7EXPRESS8DataTypeEEEE10deallocateERS7_PS6_m = comdat any

$_ZNSt15__new_allocatorISt10shared_ptrIKN6Assimp4STEP7EXPRESS8DataTypeEEE10deallocateEPS6_m = comdat any

$_ZNSt6vectorISt10shared_ptrIKN6Assimp4STEP7EXPRESS8DataTypeEESaIS6_EE12emplace_backIJS6_EEERS6_DpOT_ = comdat any

$_ZNSt6vectorISt10shared_ptrIKN6Assimp4STEP7EXPRESS8DataTypeEESaIS6_EE17_M_realloc_insertIJS6_EEEvN9__gnu_cxx17__normal_iteratorIPS6_S8_EEDpOT_ = comdat any

$_ZNSt6vectorISt10shared_ptrIKN6Assimp4STEP7EXPRESS8DataTypeEESaIS6_EE3endEv = comdat any

$_ZNKSt6vectorISt10shared_ptrIKN6Assimp4STEP7EXPRESS8DataTypeEESaIS6_EE12_M_check_lenEmPKc = comdat any

$_ZN9__gnu_cxxmiIPSt10shared_ptrIKN6Assimp4STEP7EXPRESS8DataTypeEESt6vectorIS7_SaIS7_EEEENS_17__normal_iteratorIT_T0_E15difference_typeERKSF_SI_ = comdat any

$_ZNSt6vectorISt10shared_ptrIKN6Assimp4STEP7EXPRESS8DataTypeEESaIS6_EE5beginEv = comdat any

$_ZNK9__gnu_cxx17__normal_iteratorIPSt10shared_ptrIKN6Assimp4STEP7EXPRESS8DataTypeEESt6vectorIS7_SaIS7_EEE4baseEv = comdat any

$_ZSt3maxImERKT_S2_S2_ = comdat any

$_ZN9__gnu_cxx17__normal_iteratorIPSt10shared_ptrIKN6Assimp4STEP7EXPRESS8DataTypeEESt6vectorIS7_SaIS7_EEEC2ERKS8_ = comdat any

$_ZNSt12__shared_ptrIKN6Assimp4STEP7EXPRESS8DataTypeELN9__gnu_cxx12_Lock_policyE2EEC2Ev = comdat any

$_ZNK9__gnu_cxx17__normal_iteratorIPSt10shared_ptrIKN6Assimp4STEP7EXPRESS8DataTypeEESt6vectorIS7_SaIS7_EEEmiEl = comdat any

$_ZNK9__gnu_cxx17__normal_iteratorIPSt10shared_ptrIKN6Assimp4STEP7EXPRESS8DataTypeEESt6vectorIS7_SaIS7_EEEdeEv = comdat any

$_ZNKSt19__shared_ptr_accessIKN6Assimp4STEP7EXPRESS8DataTypeELN9__gnu_cxx12_Lock_policyE2ELb0ELb0EE6_M_getEv = comdat any

$_ZNSt6bitsetILm1EE9referenceC2ERS0_m = comdat any

$_ZNSt12_Base_bitsetILm1EE10_M_getwordEm = comdat any

$_ZNSt12_Base_bitsetILm1EE11_S_whichbitEm = comdat any

$_ZNSt12_Base_bitsetILm1EE10_S_maskbitEm = comdat any

$_ZN6Assimp4STEP24InternGenericConvertListINS0_4LazyINS_3IFC10Schema_2x312IfcFaceBoundEEELm1ELm0EEclERNS0_6ListOfIS6_Lm1ELm0EEERKSt10shared_ptrIKNS0_7EXPRESS8DataTypeEERKNS0_2DBE = comdat any

$_ZNSt6vectorIN6Assimp4STEP4LazyINS0_3IFC10Schema_2x312IfcFaceBoundEEESaIS6_EE7reserveEm = comdat any

$_ZNSt6vectorIN6Assimp4STEP4LazyINS0_3IFC10Schema_2x312IfcFaceBoundEEESaIS6_EE9push_backEOS6_ = comdat any

$_ZN6Assimp4STEP4LazyINS_3IFC10Schema_2x312IfcFaceBoundEEC2EPKNS0_10LazyObjectE = comdat any

$_ZN6Assimp4STEP14GenericConvertINS0_4LazyINS_3IFC10Schema_2x312IfcFaceBoundEEEEEvRT_RKSt10shared_ptrIKNS0_7EXPRESS8DataTypeEERKNS0_2DBE = comdat any

$_ZNSt6vectorIN6Assimp4STEP4LazyINS0_3IFC10Schema_2x312IfcFaceBoundEEESaIS6_EE4backEv = comdat any

$_ZNKSt6vectorIN6Assimp4STEP4LazyINS0_3IFC10Schema_2x312IfcFaceBoundEEESaIS6_EE8max_sizeEv = comdat any

$_ZNKSt6vectorIN6Assimp4STEP4LazyINS0_3IFC10Schema_2x312IfcFaceBoundEEESaIS6_EE8capacityEv = comdat any

$_ZNKSt6vectorIN6Assimp4STEP4LazyINS0_3IFC10Schema_2x312IfcFaceBoundEEESaIS6_EE4sizeEv = comdat any

$_ZNSt12_Vector_baseIN6Assimp4STEP4LazyINS0_3IFC10Schema_2x312IfcFaceBoundEEESaIS6_EE11_M_allocateEm = comdat any

$_ZNSt6vectorIN6Assimp4STEP4LazyINS0_3IFC10Schema_2x312IfcFaceBoundEEESaIS6_EE11_S_relocateEPS6_S9_S9_RS7_ = comdat any

$_ZNSt12_Vector_baseIN6Assimp4STEP4LazyINS0_3IFC10Schema_2x312IfcFaceBoundEEESaIS6_EE19_M_get_Tp_allocatorEv = comdat any

$_ZNSt12_Vector_baseIN6Assimp4STEP4LazyINS0_3IFC10Schema_2x312IfcFaceBoundEEESaIS6_EE13_M_deallocateEPS6_m = comdat any

$_ZNSt6vectorIN6Assimp4STEP4LazyINS0_3IFC10Schema_2x312IfcFaceBoundEEESaIS6_EE11_S_max_sizeERKS7_ = comdat any

$_ZNKSt12_Vector_baseIN6Assimp4STEP4LazyINS0_3IFC10Schema_2x312IfcFaceBoundEEESaIS6_EE19_M_get_Tp_allocatorEv = comdat any

$_ZNSt16allocator_traitsISaIN6Assimp4STEP4LazyINS0_3IFC10Schema_2x312IfcFaceBoundEEEEE8max_sizeERKS7_ = comdat any

$_ZNKSt15__new_allocatorIN6Assimp4STEP4LazyINS0_3IFC10Schema_2x312IfcFaceBoundEEEE8max_sizeEv = comdat any

$_ZNKSt15__new_allocatorIN6Assimp4STEP4LazyINS0_3IFC10Schema_2x312IfcFaceBoundEEEE11_M_max_sizeEv = comdat any

$_ZNSt16allocator_traitsISaIN6Assimp4STEP4LazyINS0_3IFC10Schema_2x312IfcFaceBoundEEEEE8allocateERS7_m = comdat any

$_ZNSt15__new_allocatorIN6Assimp4STEP4LazyINS0_3IFC10Schema_2x312IfcFaceBoundEEEE8allocateEmPKv = comdat any

$_ZSt12__relocate_aIPN6Assimp4STEP4LazyINS0_3IFC10Schema_2x312IfcFaceBoundEEES7_SaIS6_EET0_T_SA_S9_RT1_ = comdat any

$_ZSt14__relocate_a_1IPN6Assimp4STEP4LazyINS0_3IFC10Schema_2x312IfcFaceBoundEEES7_SaIS6_EET0_T_SA_S9_RT1_ = comdat any

$_ZSt12__niter_baseIPN6Assimp4STEP4LazyINS0_3IFC10Schema_2x312IfcFaceBoundEEEET_S8_ = comdat any

$_ZSt19__relocate_object_aIN6Assimp4STEP4LazyINS0_3IFC10Schema_2x312IfcFaceBoundEEES6_SaIS6_EEvPT_PT0_RT1_ = comdat any

$_ZNSt16allocator_traitsISaIN6Assimp4STEP4LazyINS0_3IFC10Schema_2x312IfcFaceBoundEEEEE9constructIS6_JS6_EEEvRS7_PT_DpOT0_ = comdat any

$_ZNSt16allocator_traitsISaIN6Assimp4STEP4LazyINS0_3IFC10Schema_2x312IfcFaceBoundEEEEE7destroyIS6_EEvRS7_PT_ = comdat any

$_ZNSt15__new_allocatorIN6Assimp4STEP4LazyINS0_3IFC10Schema_2x312IfcFaceBoundEEEE9constructIS6_JS6_EEEvPT_DpOT0_ = comdat any

$_ZNSt15__new_allocatorIN6Assimp4STEP4LazyINS0_3IFC10Schema_2x312IfcFaceBoundEEEE7destroyIS6_EEvPT_ = comdat any

$_ZNSt16allocator_traitsISaIN6Assimp4STEP4LazyINS0_3IFC10Schema_2x312IfcFaceBoundEEEEE10deallocateERS7_PS6_m = comdat any

$_ZNSt15__new_allocatorIN6Assimp4STEP4LazyINS0_3IFC10Schema_2x312IfcFaceBoundEEEE10deallocateEPS6_m = comdat any

$_ZNSt6vectorIN6Assimp4STEP4LazyINS0_3IFC10Schema_2x312IfcFaceBoundEEESaIS6_EE12emplace_backIJS6_EEERS6_DpOT_ = comdat any

$_ZNSt6vectorIN6Assimp4STEP4LazyINS0_3IFC10Schema_2x312IfcFaceBoundEEESaIS6_EE17_M_realloc_insertIJS6_EEEvN9__gnu_cxx17__normal_iteratorIPS6_S8_EEDpOT_ = comdat any

$_ZNSt6vectorIN6Assimp4STEP4LazyINS0_3IFC10Schema_2x312IfcFaceBoundEEESaIS6_EE3endEv = comdat any

$_ZNKSt6vectorIN6Assimp4STEP4LazyINS0_3IFC10Schema_2x312IfcFaceBoundEEESaIS6_EE12_M_check_lenEmPKc = comdat any

$_ZN9__gnu_cxxmiIPN6Assimp4STEP4LazyINS1_3IFC10Schema_2x312IfcFaceBoundEEESt6vectorIS7_SaIS7_EEEENS_17__normal_iteratorIT_T0_E15difference_typeERKSF_SI_ = comdat any

$_ZNSt6vectorIN6Assimp4STEP4LazyINS0_3IFC10Schema_2x312IfcFaceBoundEEESaIS6_EE5beginEv = comdat any

$_ZNK9__gnu_cxx17__normal_iteratorIPN6Assimp4STEP4LazyINS1_3IFC10Schema_2x312IfcFaceBoundEEESt6vectorIS7_SaIS7_EEE4baseEv = comdat any

$_ZN9__gnu_cxx17__normal_iteratorIPN6Assimp4STEP4LazyINS1_3IFC10Schema_2x312IfcFaceBoundEEESt6vectorIS7_SaIS7_EEEC2ERKS8_ = comdat any

$_ZN6Assimp4STEP20InternGenericConvertINS0_4LazyINS_3IFC10Schema_2x312IfcFaceBoundEEEEclERS6_RKSt10shared_ptrIKNS0_7EXPRESS8DataTypeEERKNS0_2DBE = comdat any

$_ZN6Assimp4STEP6CoupleINS_3IFC10Schema_2x312IfcFaceBoundEKNS0_2DBEEERT0_S8_ = comdat any

$_ZNK6Assimp4STEP2DB9GetObjectEm = comdat any

$_ZNK6Assimp4STEP7EXPRESS17PrimitiveDataTypeImEcvRKmEv = comdat any

$_ZNKSt3mapImPKN6Assimp4STEP10LazyObjectESt4lessImESaISt4pairIKmS4_EEE4findERS8_ = comdat any

$_ZStneRKSt23_Rb_tree_const_iteratorISt4pairIKmPKN6Assimp4STEP10LazyObjectEEESA_ = comdat any

$_ZNKSt3mapImPKN6Assimp4STEP10LazyObjectESt4lessImESaISt4pairIKmS4_EEE3endEv = comdat any

$_ZNKSt23_Rb_tree_const_iteratorISt4pairIKmPKN6Assimp4STEP10LazyObjectEEEdeEv = comdat any

$_ZNKSt8_Rb_treeImSt4pairIKmPKN6Assimp4STEP10LazyObjectEESt10_Select1stIS7_ESt4lessImESaIS7_EE4findERS1_ = comdat any

$_ZNKSt8_Rb_treeImSt4pairIKmPKN6Assimp4STEP10LazyObjectEESt10_Select1stIS7_ESt4lessImESaIS7_EE14_M_lower_boundEPKSt13_Rb_tree_nodeIS7_EPKSt18_Rb_tree_node_baseRS1_ = comdat any

$_ZNKSt8_Rb_treeImSt4pairIKmPKN6Assimp4STEP10LazyObjectEESt10_Select1stIS7_ESt4lessImESaIS7_EE8_M_beginEv = comdat any

$_ZNKSt8_Rb_treeImSt4pairIKmPKN6Assimp4STEP10LazyObjectEESt10_Select1stIS7_ESt4lessImESaIS7_EE6_M_endEv = comdat any

$_ZSteqRKSt23_Rb_tree_const_iteratorISt4pairIKmPKN6Assimp4STEP10LazyObjectEEESA_ = comdat any

$_ZNKSt8_Rb_treeImSt4pairIKmPKN6Assimp4STEP10LazyObjectEESt10_Select1stIS7_ESt4lessImESaIS7_EE3endEv = comdat any

$_ZNKSt4lessImEclERKmS2_ = comdat any

$_ZNSt8_Rb_treeImSt4pairIKmPKN6Assimp4STEP10LazyObjectEESt10_Select1stIS7_ESt4lessImESaIS7_EE6_S_keyEPKSt18_Rb_tree_node_base = comdat any

$_ZNSt8_Rb_treeImSt4pairIKmPKN6Assimp4STEP10LazyObjectEESt10_Select1stIS7_ESt4lessImESaIS7_EE6_S_keyEPKSt13_Rb_tree_nodeIS7_E = comdat any

$_ZNSt8_Rb_treeImSt4pairIKmPKN6Assimp4STEP10LazyObjectEESt10_Select1stIS7_ESt4lessImESaIS7_EE7_S_leftEPKSt18_Rb_tree_node_base = comdat any

$_ZNSt8_Rb_treeImSt4pairIKmPKN6Assimp4STEP10LazyObjectEESt10_Select1stIS7_ESt4lessImESaIS7_EE8_S_rightEPKSt18_Rb_tree_node_base = comdat any

$_ZNSt23_Rb_tree_const_iteratorISt4pairIKmPKN6Assimp4STEP10LazyObjectEEEC2EPKSt18_Rb_tree_node_base = comdat any

$_ZNKSt10_Select1stISt4pairIKmPKN6Assimp4STEP10LazyObjectEEEclERKS7_ = comdat any

$_ZNKSt13_Rb_tree_nodeISt4pairIKmPKN6Assimp4STEP10LazyObjectEEE9_M_valptrEv = comdat any

$_ZNK9__gnu_cxx16__aligned_membufISt4pairIKmPKN6Assimp4STEP10LazyObjectEEE6_M_ptrEv = comdat any

$_ZNK9__gnu_cxx16__aligned_membufISt4pairIKmPKN6Assimp4STEP10LazyObjectEEE7_M_addrEv = comdat any

$_ZNK9__gnu_cxx17__normal_iteratorIPN6Assimp4STEP4LazyINS1_3IFC10Schema_2x312IfcFaceBoundEEESt6vectorIS7_SaIS7_EEEmiEl = comdat any

$_ZNK9__gnu_cxx17__normal_iteratorIPN6Assimp4STEP4LazyINS1_3IFC10Schema_2x312IfcFaceBoundEEESt6vectorIS7_SaIS7_EEEdeEv = comdat any

$_ZN6Assimp4STEP20InternGenericConvertINS0_5MaybeINSt7__cxx1112basic_stringIcSt11char_traitsIcESaIcEEEEEEclERS9_RKSt10shared_ptrIKNS0_7EXPRESS8DataTypeEERKNS0_2DBE = comdat any

$_ZN6Assimp4STEP5MaybeINSt7__cxx1112basic_stringIcSt11char_traitsIcESaIcEEEEcvRS7_Ev = comdat any

$_ZN6Assimp4STEP5MaybeINSt7__cxx1112basic_stringIcSt11char_traitsIcESaIcEEEE10flag_validEv = comdat any

$_ZN6Assimp4STEP20InternGenericConvertINS0_4LazyINS_3IFC10Schema_2x312IfcDirectionEEEEclERS6_RKSt10shared_ptrIKNS0_7EXPRESS8DataTypeEERKNS0_2DBE = comdat any

$_ZN6Assimp4STEP6CoupleINS_3IFC10Schema_2x312IfcDirectionEKNS0_2DBEEERT0_S8_ = comdat any

$_ZN6Assimp4STEP4LazyINS_3IFC10Schema_2x312IfcDirectionEEC2EPKNS0_10LazyObjectE = comdat any

$_ZN6Assimp4STEP20InternGenericConvertIdEclERdRKSt10shared_ptrIKNS0_7EXPRESS8DataTypeEERKNS0_2DBE = comdat any

$_ZNK6Assimp4STEP7EXPRESS17PrimitiveDataTypeIdEcvRKdEv = comdat any

$_ZN6Assimp4STEP20InternGenericConvertINS0_5MaybeINS0_6ListOfINS0_7EXPRESS17PrimitiveDataTypeIlEELm3ELm3EEEEEEclERS8_RKSt10shared_ptrIKNS4_8DataTypeEERKNS0_2DBE = comdat any

$_ZN6Assimp4STEP14GenericConvertINS0_7EXPRESS17PrimitiveDataTypeIlEELm3ELm3EEEvRNS0_6ListOfIT_XT0_EXT1_EEERKSt10shared_ptrIKNS2_8DataTypeEERKNS0_2DBE = comdat any

$_ZN6Assimp4STEP5MaybeINS0_6ListOfINS0_7EXPRESS17PrimitiveDataTypeIlEELm3ELm3EEEEcvRS6_Ev = comdat any

$_ZN6Assimp4STEP5MaybeINS0_6ListOfINS0_7EXPRESS17PrimitiveDataTypeIlEELm3ELm3EEEE10flag_validEv = comdat any

$_ZN6Assimp4STEP24InternGenericConvertListINS0_7EXPRESS17PrimitiveDataTypeIlEELm3ELm3EEclERNS0_6ListOfIS4_Lm3ELm3EEERKSt10shared_ptrIKNS2_8DataTypeEERKNS0_2DBE = comdat any

$_ZNSt6vectorIlSaIlEE7reserveEm = comdat any

$_ZNSt6vectorIlSaIlEE9push_backEOl = comdat any

$_ZNSt6vectorIlSaIlEE4backEv = comdat any

$_ZNKSt6vectorIlSaIlEE8max_sizeEv = comdat any

$_ZNKSt6vectorIlSaIlEE8capacityEv = comdat any

$_ZNKSt6vectorIlSaIlEE4sizeEv = comdat any

$_ZNSt12_Vector_baseIlSaIlEE11_M_allocateEm = comdat any

$_ZNSt6vectorIlSaIlEE11_S_relocateEPlS2_S2_RS0_ = comdat any

$_ZNSt12_Vector_baseIlSaIlEE19_M_get_Tp_allocatorEv = comdat any

$_ZNSt12_Vector_baseIlSaIlEE13_M_deallocateEPlm = comdat any

$_ZNSt6vectorIlSaIlEE11_S_max_sizeERKS0_ = comdat any

$_ZNKSt12_Vector_baseIlSaIlEE19_M_get_Tp_allocatorEv = comdat any

$_ZNSt16allocator_traitsISaIlEE8max_sizeERKS0_ = comdat any

$_ZNKSt15__new_allocatorIlE8max_sizeEv = comdat any

$_ZNKSt15__new_allocatorIlE11_M_max_sizeEv = comdat any

$_ZNSt16allocator_traitsISaIlEE8allocateERS0_m = comdat any

$_ZNSt15__new_allocatorIlE8allocateEmPKv = comdat any

$_ZSt12__relocate_aIPlS0_SaIlEET0_T_S3_S2_RT1_ = comdat any

$_ZSt14__relocate_a_1IllENSt9enable_ifIXsr3std24__is_bitwise_relocatableIT_EE5valueEPS1_E4typeES2_S2_S2_RSaIT0_E = comdat any

$_ZSt12__niter_baseIPlET_S1_ = comdat any

$_ZNSt16allocator_traitsISaIlEE10deallocateERS0_Plm = comdat any

$_ZNSt15__new_allocatorIlE10deallocateEPlm = comdat any

$_ZNSt6vectorIlSaIlEE12emplace_backIJlEEERlDpOT_ = comdat any

$_ZNSt16allocator_traitsISaIlEE9constructIlJlEEEvRS0_PT_DpOT0_ = comdat any

$_ZNSt6vectorIlSaIlEE17_M_realloc_insertIJlEEEvN9__gnu_cxx17__normal_iteratorIPlS1_EEDpOT_ = comdat any

$_ZNSt6vectorIlSaIlEE3endEv = comdat any

$_ZNSt15__new_allocatorIlE9constructIlJlEEEvPT_DpOT0_ = comdat any

$_ZNKSt6vectorIlSaIlEE12_M_check_lenEmPKc = comdat any

$_ZN9__gnu_cxxmiIPlSt6vectorIlSaIlEEEENS_17__normal_iteratorIT_T0_E15difference_typeERKS8_SB_ = comdat any

$_ZNSt6vectorIlSaIlEE5beginEv = comdat any

$_ZNK9__gnu_cxx17__normal_iteratorIPlSt6vectorIlSaIlEEE4baseEv = comdat any

$_ZN9__gnu_cxx17__normal_iteratorIPlSt6vectorIlSaIlEEEC2ERKS1_ = comdat any

$_ZNK9__gnu_cxx17__normal_iteratorIPlSt6vectorIlSaIlEEEmiEl = comdat any

$_ZNK9__gnu_cxx17__normal_iteratorIPlSt6vectorIlSaIlEEEdeEv = comdat any

$_ZN6Assimp4STEP20InternGenericConvertINS0_5MaybeIdEEEclERS3_RKSt10shared_ptrIKNS0_7EXPRESS8DataTypeEERKNS0_2DBE = comdat any

$_ZN6Assimp4STEP5MaybeIdEcvRdEv = comdat any

$_ZN6Assimp4STEP5MaybeIdE10flag_validEv = comdat any

$_ZN6Assimp4STEP20InternGenericConvertINS0_5MaybeINS0_4LazyINS_3IFC10Schema_2x314NotImplementedEEEEEEclERS8_RKSt10shared_ptrIKNS0_7EXPRESS8DataTypeEERKNS0_2DBE = comdat any

$_ZN6Assimp4STEP14GenericConvertINS0_4LazyINS_3IFC10Schema_2x314NotImplementedEEEEEvRT_RKSt10shared_ptrIKNS0_7EXPRESS8DataTypeEERKNS0_2DBE = comdat any

$_ZN6Assimp4STEP5MaybeINS0_4LazyINS_3IFC10Schema_2x314NotImplementedEEEEcvRS6_Ev = comdat any

$_ZN6Assimp4STEP5MaybeINS0_4LazyINS_3IFC10Schema_2x314NotImplementedEEEE10flag_validEv = comdat any

$_ZN6Assimp4STEP20InternGenericConvertINS0_4LazyINS_3IFC10Schema_2x314NotImplementedEEEEclERS6_RKSt10shared_ptrIKNS0_7EXPRESS8DataTypeEERKNS0_2DBE = comdat any

$_ZN6Assimp4STEP6CoupleINS_3IFC10Schema_2x314NotImplementedEKNS0_2DBEEERT0_S8_ = comdat any

$_ZN6Assimp4STEP4LazyINS_3IFC10Schema_2x314NotImplementedEEC2EPKNS0_10LazyObjectE = comdat any

$_ZNSt6bitsetILm5EE9referenceC2ERS0_m = comdat any

$_ZN6Assimp4STEP20InternGenericConvertIlEclERlRKSt10shared_ptrIKNS0_7EXPRESS8DataTypeEERKNS0_2DBE = comdat any

$_ZNK6Assimp4STEP7EXPRESS17PrimitiveDataTypeIlEcvRKlEv = comdat any

$_ZN6Assimp4STEP24InternGenericConvertListINS0_4LazyINS_3IFC10Schema_2x317IfcCartesianPointEEELm2ELm0EEclERNS0_6ListOfIS6_Lm2ELm0EEERKSt10shared_ptrIKNS0_7EXPRESS8DataTypeEERKNS0_2DBE = comdat any

$_ZNSt6vectorIN6Assimp4STEP4LazyINS0_3IFC10Schema_2x317IfcCartesianPointEEESaIS6_EE7reserveEm = comdat any

$_ZNSt6vectorIN6Assimp4STEP4LazyINS0_3IFC10Schema_2x317IfcCartesianPointEEESaIS6_EE9push_backEOS6_ = comdat any

$_ZN6Assimp4STEP4LazyINS_3IFC10Schema_2x317IfcCartesianPointEEC2EPKNS0_10LazyObjectE = comdat any

$_ZNSt6vectorIN6Assimp4STEP4LazyINS0_3IFC10Schema_2x317IfcCartesianPointEEESaIS6_EE4backEv = comdat any

$_ZNKSt6vectorIN6Assimp4STEP4LazyINS0_3IFC10Schema_2x317IfcCartesianPointEEESaIS6_EE8max_sizeEv = comdat any

$_ZNKSt6vectorIN6Assimp4STEP4LazyINS0_3IFC10Schema_2x317IfcCartesianPointEEESaIS6_EE8capacityEv = comdat any

$_ZNKSt6vectorIN6Assimp4STEP4LazyINS0_3IFC10Schema_2x317IfcCartesianPointEEESaIS6_EE4sizeEv = comdat any

$_ZNSt12_Vector_baseIN6Assimp4STEP4LazyINS0_3IFC10Schema_2x317IfcCartesianPointEEESaIS6_EE11_M_allocateEm = comdat any

$_ZNSt6vectorIN6Assimp4STEP4LazyINS0_3IFC10Schema_2x317IfcCartesianPointEEESaIS6_EE11_S_relocateEPS6_S9_S9_RS7_ = comdat any

$_ZNSt12_Vector_baseIN6Assimp4STEP4LazyINS0_3IFC10Schema_2x317IfcCartesianPointEEESaIS6_EE19_M_get_Tp_allocatorEv = comdat any

$_ZNSt12_Vector_baseIN6Assimp4STEP4LazyINS0_3IFC10Schema_2x317IfcCartesianPointEEESaIS6_EE13_M_deallocateEPS6_m = comdat any

$_ZNSt6vectorIN6Assimp4STEP4LazyINS0_3IFC10Schema_2x317IfcCartesianPointEEESaIS6_EE11_S_max_sizeERKS7_ = comdat any

$_ZNKSt12_Vector_baseIN6Assimp4STEP4LazyINS0_3IFC10Schema_2x317IfcCartesianPointEEESaIS6_EE19_M_get_Tp_allocatorEv = comdat any

$_ZNSt16allocator_traitsISaIN6Assimp4STEP4LazyINS0_3IFC10Schema_2x317IfcCartesianPointEEEEE8max_sizeERKS7_ = comdat any

$_ZNKSt15__new_allocatorIN6Assimp4STEP4LazyINS0_3IFC10Schema_2x317IfcCartesianPointEEEE8max_sizeEv = comdat any

$_ZNKSt15__new_allocatorIN6Assimp4STEP4LazyINS0_3IFC10Schema_2x317IfcCartesianPointEEEE11_M_max_sizeEv = comdat any

$_ZNSt16allocator_traitsISaIN6Assimp4STEP4LazyINS0_3IFC10Schema_2x317IfcCartesianPointEEEEE8allocateERS7_m = comdat any

$_ZNSt15__new_allocatorIN6Assimp4STEP4LazyINS0_3IFC10Schema_2x317IfcCartesianPointEEEE8allocateEmPKv = comdat any

$_ZSt12__relocate_aIPN6Assimp4STEP4LazyINS0_3IFC10Schema_2x317IfcCartesianPointEEES7_SaIS6_EET0_T_SA_S9_RT1_ = comdat any

$_ZSt14__relocate_a_1IPN6Assimp4STEP4LazyINS0_3IFC10Schema_2x317IfcCartesianPointEEES7_SaIS6_EET0_T_SA_S9_RT1_ = comdat any

$_ZSt12__niter_baseIPN6Assimp4STEP4LazyINS0_3IFC10Schema_2x317IfcCartesianPointEEEET_S8_ = comdat any

$_ZSt19__relocate_object_aIN6Assimp4STEP4LazyINS0_3IFC10Schema_2x317IfcCartesianPointEEES6_SaIS6_EEvPT_PT0_RT1_ = comdat any

$_ZNSt16allocator_traitsISaIN6Assimp4STEP4LazyINS0_3IFC10Schema_2x317IfcCartesianPointEEEEE9constructIS6_JS6_EEEvRS7_PT_DpOT0_ = comdat any

$_ZNSt16allocator_traitsISaIN6Assimp4STEP4LazyINS0_3IFC10Schema_2x317IfcCartesianPointEEEEE7destroyIS6_EEvRS7_PT_ = comdat any

$_ZNSt15__new_allocatorIN6Assimp4STEP4LazyINS0_3IFC10Schema_2x317IfcCartesianPointEEEE9constructIS6_JS6_EEEvPT_DpOT0_ = comdat any

$_ZNSt15__new_allocatorIN6Assimp4STEP4LazyINS0_3IFC10Schema_2x317IfcCartesianPointEEEE7destroyIS6_EEvPT_ = comdat any

$_ZNSt16allocator_traitsISaIN6Assimp4STEP4LazyINS0_3IFC10Schema_2x317IfcCartesianPointEEEEE10deallocateERS7_PS6_m = comdat any

$_ZNSt15__new_allocatorIN6Assimp4STEP4LazyINS0_3IFC10Schema_2x317IfcCartesianPointEEEE10deallocateEPS6_m = comdat any

$_ZNSt6vectorIN6Assimp4STEP4LazyINS0_3IFC10Schema_2x317IfcCartesianPointEEESaIS6_EE12emplace_backIJS6_EEERS6_DpOT_ = comdat any

$_ZNSt6vectorIN6Assimp4STEP4LazyINS0_3IFC10Schema_2x317IfcCartesianPointEEESaIS6_EE17_M_realloc_insertIJS6_EEEvN9__gnu_cxx17__normal_iteratorIPS6_S8_EEDpOT_ = comdat any

$_ZNSt6vectorIN6Assimp4STEP4LazyINS0_3IFC10Schema_2x317IfcCartesianPointEEESaIS6_EE3endEv = comdat any

$_ZNKSt6vectorIN6Assimp4STEP4LazyINS0_3IFC10Schema_2x317IfcCartesianPointEEESaIS6_EE12_M_check_lenEmPKc = comdat any

$_ZN9__gnu_cxxmiIPN6Assimp4STEP4LazyINS1_3IFC10Schema_2x317IfcCartesianPointEEESt6vectorIS7_SaIS7_EEEENS_17__normal_iteratorIT_T0_E15difference_typeERKSF_SI_ = comdat any

$_ZNSt6vectorIN6Assimp4STEP4LazyINS0_3IFC10Schema_2x317IfcCartesianPointEEESaIS6_EE5beginEv = comdat any

$_ZNK9__gnu_cxx17__normal_iteratorIPN6Assimp4STEP4LazyINS1_3IFC10Schema_2x317IfcCartesianPointEEESt6vectorIS7_SaIS7_EEE4baseEv = comdat any

$_ZN9__gnu_cxx17__normal_iteratorIPN6Assimp4STEP4LazyINS1_3IFC10Schema_2x317IfcCartesianPointEEESt6vectorIS7_SaIS7_EEEC2ERKS8_ = comdat any

$_ZNK9__gnu_cxx17__normal_iteratorIPN6Assimp4STEP4LazyINS1_3IFC10Schema_2x317IfcCartesianPointEEESt6vectorIS7_SaIS7_EEEmiEl = comdat any

$_ZNK9__gnu_cxx17__normal_iteratorIPN6Assimp4STEP4LazyINS1_3IFC10Schema_2x317IfcCartesianPointEEESt6vectorIS7_SaIS7_EEEdeEv = comdat any

$_ZN6Assimp4STEP20InternGenericConvertISt10shared_ptrIKNS0_7EXPRESS8DataTypeEEEclERS6_RKS6_RKNS0_2DBE = comdat any

$_ZNSt10shared_ptrIKN6Assimp4STEP7EXPRESS8DataTypeEEaSERKS5_ = comdat any

$_ZNSt12__shared_ptrIKN6Assimp4STEP7EXPRESS8DataTypeELN9__gnu_cxx12_Lock_policyE2EEaSERKS7_ = comdat any

$_ZNSt14__shared_countILN9__gnu_cxx12_Lock_policyE2EEaSERKS2_ = comdat any

$_ZN6Assimp4STEP24InternGenericConvertListINS0_7EXPRESS8DataTypeELm1ELm0EEclERNS0_6ListOfIS3_Lm1ELm0EEERKSt10shared_ptrIKS3_ERKNS0_2DBE = comdat any

$_ZN6Assimp4STEP20InternGenericConvertINS0_4LazyINS_3IFC10Schema_2x310IfcElementEEEEclERS6_RKSt10shared_ptrIKNS0_7EXPRESS8DataTypeEERKNS0_2DBE = comdat any

$_ZN6Assimp4STEP6CoupleINS_3IFC10Schema_2x310IfcElementEKNS0_2DBEEERT0_S8_ = comdat any

$_ZN6Assimp4STEP4LazyINS_3IFC10Schema_2x310IfcElementEEC2EPKNS0_10LazyObjectE = comdat any

$_ZN6Assimp4STEP20InternGenericConvertINS0_4LazyINS_3IFC10Schema_2x328IfcFeatureElementSubtractionEEEEclERS6_RKSt10shared_ptrIKNS0_7EXPRESS8DataTypeEERKNS0_2DBE = comdat any

$_ZN6Assimp4STEP6CoupleINS_3IFC10Schema_2x328IfcFeatureElementSubtractionEKNS0_2DBEEERT0_S8_ = comdat any

$_ZN6Assimp4STEP4LazyINS_3IFC10Schema_2x328IfcFeatureElementSubtractionEEC2EPKNS0_10LazyObjectE = comdat any

$_ZN6Assimp4STEP20InternGenericConvertINS0_5MaybeINS0_4LazyINS_3IFC10Schema_2x312IfcDirectionEEEEEEclERS8_RKSt10shared_ptrIKNS0_7EXPRESS8DataTypeEERKNS0_2DBE = comdat any

$_ZN6Assimp4STEP5MaybeINS0_4LazyINS_3IFC10Schema_2x312IfcDirectionEEEEcvRS6_Ev = comdat any

$_ZN6Assimp4STEP5MaybeINS0_4LazyINS_3IFC10Schema_2x312IfcDirectionEEEE10flag_validEv = comdat any

$_ZN6Assimp4STEP24InternGenericConvertListINS0_7EXPRESS17PrimitiveDataTypeIdEELm1ELm3EEclERNS0_6ListOfIS4_Lm1ELm3EEERKSt10shared_ptrIKNS2_8DataTypeEERKNS0_2DBE = comdat any

$_ZNSt6vectorIdSaIdEE7reserveEm = comdat any

$_ZNSt6vectorIdSaIdEE9push_backEOd = comdat any

$_ZNSt6vectorIdSaIdEE4backEv = comdat any

$_ZNKSt6vectorIdSaIdEE8max_sizeEv = comdat any

$_ZNKSt6vectorIdSaIdEE8capacityEv = comdat any

$_ZNKSt6vectorIdSaIdEE4sizeEv = comdat any

$_ZNSt12_Vector_baseIdSaIdEE11_M_allocateEm = comdat any

$_ZNSt6vectorIdSaIdEE11_S_relocateEPdS2_S2_RS0_ = comdat any

$_ZNSt12_Vector_baseIdSaIdEE19_M_get_Tp_allocatorEv = comdat any

$_ZNSt12_Vector_baseIdSaIdEE13_M_deallocateEPdm = comdat any

$_ZNSt6vectorIdSaIdEE11_S_max_sizeERKS0_ = comdat any

$_ZNKSt12_Vector_baseIdSaIdEE19_M_get_Tp_allocatorEv = comdat any

$_ZNSt16allocator_traitsISaIdEE8max_sizeERKS0_ = comdat any

$_ZNKSt15__new_allocatorIdE8max_sizeEv = comdat any

$_ZNKSt15__new_allocatorIdE11_M_max_sizeEv = comdat any

$_ZNSt16allocator_traitsISaIdEE8allocateERS0_m = comdat any

$_ZNSt15__new_allocatorIdE8allocateEmPKv = comdat any

$_ZSt12__relocate_aIPdS0_SaIdEET0_T_S3_S2_RT1_ = comdat any

$_ZSt14__relocate_a_1IddENSt9enable_ifIXsr3std24__is_bitwise_relocatableIT_EE5valueEPS1_E4typeES2_S2_S2_RSaIT0_E = comdat any

$_ZSt12__niter_baseIPdET_S1_ = comdat any

$_ZNSt16allocator_traitsISaIdEE10deallocateERS0_Pdm = comdat any

$_ZNSt15__new_allocatorIdE10deallocateEPdm = comdat any

$_ZNSt6vectorIdSaIdEE12emplace_backIJdEEERdDpOT_ = comdat any

$_ZNSt16allocator_traitsISaIdEE9constructIdJdEEEvRS0_PT_DpOT0_ = comdat any

$_ZNSt6vectorIdSaIdEE17_M_realloc_insertIJdEEEvN9__gnu_cxx17__normal_iteratorIPdS1_EEDpOT_ = comdat any

$_ZNSt6vectorIdSaIdEE3endEv = comdat any

$_ZNSt15__new_allocatorIdE9constructIdJdEEEvPT_DpOT0_ = comdat any

$_ZNKSt6vectorIdSaIdEE12_M_check_lenEmPKc = comdat any

$_ZN9__gnu_cxxmiIPdSt6vectorIdSaIdEEEENS_17__normal_iteratorIT_T0_E15difference_typeERKS8_SB_ = comdat any

$_ZNSt6vectorIdSaIdEE5beginEv = comdat any

$_ZNK9__gnu_cxx17__normal_iteratorIPdSt6vectorIdSaIdEEE4baseEv = comdat any

$_ZN9__gnu_cxx17__normal_iteratorIPdSt6vectorIdSaIdEEEC2ERKS1_ = comdat any

$_ZNK9__gnu_cxx17__normal_iteratorIPdSt6vectorIdSaIdEEEmiEl = comdat any

$_ZNK9__gnu_cxx17__normal_iteratorIPdSt6vectorIdSaIdEEEdeEv = comdat any

$_ZN6Assimp4STEP24InternGenericConvertListINS0_4LazyINS_3IFC10Schema_2x317IfcCartesianPointEEELm3ELm0EEclERNS0_6ListOfIS6_Lm3ELm0EEERKSt10shared_ptrIKNS0_7EXPRESS8DataTypeEERKNS0_2DBE = comdat any

$_ZNSt6bitsetILm2EE9referenceC2ERS0_m = comdat any

$_ZNSt6bitsetILm4EE9referenceC2ERS0_m = comdat any

$_ZN6Assimp4STEP20InternGenericConvertINS0_4LazyINS_3IFC10Schema_2x317IfcRepresentationEEEEclERS6_RKSt10shared_ptrIKNS0_7EXPRESS8DataTypeEERKNS0_2DBE = comdat any

$_ZN6Assimp4STEP6CoupleINS_3IFC10Schema_2x317IfcRepresentationEKNS0_2DBEEERT0_S8_ = comdat any

$_ZN6Assimp4STEP4LazyINS_3IFC10Schema_2x317IfcRepresentationEEC2EPKNS0_10LazyObjectE = comdat any

$_ZN6Assimp4STEP24InternGenericConvertListINS0_4LazyINS_3IFC10Schema_2x319IfcConnectedFaceSetEEELm1ELm0EEclERNS0_6ListOfIS6_Lm1ELm0EEERKSt10shared_ptrIKNS0_7EXPRESS8DataTypeEERKNS0_2DBE = comdat any

$_ZNSt6vectorIN6Assimp4STEP4LazyINS0_3IFC10Schema_2x319IfcConnectedFaceSetEEESaIS6_EE7reserveEm = comdat any

$_ZNSt6vectorIN6Assimp4STEP4LazyINS0_3IFC10Schema_2x319IfcConnectedFaceSetEEESaIS6_EE9push_backEOS6_ = comdat any

$_ZN6Assimp4STEP4LazyINS_3IFC10Schema_2x319IfcConnectedFaceSetEEC2EPKNS0_10LazyObjectE = comdat any

$_ZN6Assimp4STEP14GenericConvertINS0_4LazyINS_3IFC10Schema_2x319IfcConnectedFaceSetEEEEEvRT_RKSt10shared_ptrIKNS0_7EXPRESS8DataTypeEERKNS0_2DBE = comdat any

$_ZNSt6vectorIN6Assimp4STEP4LazyINS0_3IFC10Schema_2x319IfcConnectedFaceSetEEESaIS6_EE4backEv = comdat any

$_ZNKSt6vectorIN6Assimp4STEP4LazyINS0_3IFC10Schema_2x319IfcConnectedFaceSetEEESaIS6_EE8max_sizeEv = comdat any

$_ZNKSt6vectorIN6Assimp4STEP4LazyINS0_3IFC10Schema_2x319IfcConnectedFaceSetEEESaIS6_EE8capacityEv = comdat any

$_ZNKSt6vectorIN6Assimp4STEP4LazyINS0_3IFC10Schema_2x319IfcConnectedFaceSetEEESaIS6_EE4sizeEv = comdat any

$_ZNSt12_Vector_baseIN6Assimp4STEP4LazyINS0_3IFC10Schema_2x319IfcConnectedFaceSetEEESaIS6_EE11_M_allocateEm = comdat any

$_ZNSt6vectorIN6Assimp4STEP4LazyINS0_3IFC10Schema_2x319IfcConnectedFaceSetEEESaIS6_EE11_S_relocateEPS6_S9_S9_RS7_ = comdat any

$_ZNSt12_Vector_baseIN6Assimp4STEP4LazyINS0_3IFC10Schema_2x319IfcConnectedFaceSetEEESaIS6_EE19_M_get_Tp_allocatorEv = comdat any

$_ZNSt12_Vector_baseIN6Assimp4STEP4LazyINS0_3IFC10Schema_2x319IfcConnectedFaceSetEEESaIS6_EE13_M_deallocateEPS6_m = comdat any

$_ZNSt6vectorIN6Assimp4STEP4LazyINS0_3IFC10Schema_2x319IfcConnectedFaceSetEEESaIS6_EE11_S_max_sizeERKS7_ = comdat any

$_ZNKSt12_Vector_baseIN6Assimp4STEP4LazyINS0_3IFC10Schema_2x319IfcConnectedFaceSetEEESaIS6_EE19_M_get_Tp_allocatorEv = comdat any

$_ZNSt16allocator_traitsISaIN6Assimp4STEP4LazyINS0_3IFC10Schema_2x319IfcConnectedFaceSetEEEEE8max_sizeERKS7_ = comdat any

$_ZNKSt15__new_allocatorIN6Assimp4STEP4LazyINS0_3IFC10Schema_2x319IfcConnectedFaceSetEEEE8max_sizeEv = comdat any

$_ZNKSt15__new_allocatorIN6Assimp4STEP4LazyINS0_3IFC10Schema_2x319IfcConnectedFaceSetEEEE11_M_max_sizeEv = comdat any

$_ZNSt16allocator_traitsISaIN6Assimp4STEP4LazyINS0_3IFC10Schema_2x319IfcConnectedFaceSetEEEEE8allocateERS7_m = comdat any

$_ZNSt15__new_allocatorIN6Assimp4STEP4LazyINS0_3IFC10Schema_2x319IfcConnectedFaceSetEEEE8allocateEmPKv = comdat any

$_ZSt12__relocate_aIPN6Assimp4STEP4LazyINS0_3IFC10Schema_2x319IfcConnectedFaceSetEEES7_SaIS6_EET0_T_SA_S9_RT1_ = comdat any

$_ZSt14__relocate_a_1IPN6Assimp4STEP4LazyINS0_3IFC10Schema_2x319IfcConnectedFaceSetEEES7_SaIS6_EET0_T_SA_S9_RT1_ = comdat any

$_ZSt12__niter_baseIPN6Assimp4STEP4LazyINS0_3IFC10Schema_2x319IfcConnectedFaceSetEEEET_S8_ = comdat any

$_ZSt19__relocate_object_aIN6Assimp4STEP4LazyINS0_3IFC10Schema_2x319IfcConnectedFaceSetEEES6_SaIS6_EEvPT_PT0_RT1_ = comdat any

$_ZNSt16allocator_traitsISaIN6Assimp4STEP4LazyINS0_3IFC10Schema_2x319IfcConnectedFaceSetEEEEE9constructIS6_JS6_EEEvRS7_PT_DpOT0_ = comdat any

$_ZNSt16allocator_traitsISaIN6Assimp4STEP4LazyINS0_3IFC10Schema_2x319IfcConnectedFaceSetEEEEE7destroyIS6_EEvRS7_PT_ = comdat any

$_ZNSt15__new_allocatorIN6Assimp4STEP4LazyINS0_3IFC10Schema_2x319IfcConnectedFaceSetEEEE9constructIS6_JS6_EEEvPT_DpOT0_ = comdat any

$_ZNSt15__new_allocatorIN6Assimp4STEP4LazyINS0_3IFC10Schema_2x319IfcConnectedFaceSetEEEE7destroyIS6_EEvPT_ = comdat any

$_ZNSt16allocator_traitsISaIN6Assimp4STEP4LazyINS0_3IFC10Schema_2x319IfcConnectedFaceSetEEEEE10deallocateERS7_PS6_m = comdat any

$_ZNSt15__new_allocatorIN6Assimp4STEP4LazyINS0_3IFC10Schema_2x319IfcConnectedFaceSetEEEE10deallocateEPS6_m = comdat any

$_ZNSt6vectorIN6Assimp4STEP4LazyINS0_3IFC10Schema_2x319IfcConnectedFaceSetEEESaIS6_EE12emplace_backIJS6_EEERS6_DpOT_ = comdat any

$_ZNSt6vectorIN6Assimp4STEP4LazyINS0_3IFC10Schema_2x319IfcConnectedFaceSetEEESaIS6_EE17_M_realloc_insertIJS6_EEEvN9__gnu_cxx17__normal_iteratorIPS6_S8_EEDpOT_ = comdat any

$_ZNSt6vectorIN6Assimp4STEP4LazyINS0_3IFC10Schema_2x319IfcConnectedFaceSetEEESaIS6_EE3endEv = comdat any

$_ZNKSt6vectorIN6Assimp4STEP4LazyINS0_3IFC10Schema_2x319IfcConnectedFaceSetEEESaIS6_EE12_M_check_lenEmPKc = comdat any

$_ZN9__gnu_cxxmiIPN6Assimp4STEP4LazyINS1_3IFC10Schema_2x319IfcConnectedFaceSetEEESt6vectorIS7_SaIS7_EEEENS_17__normal_iteratorIT_T0_E15difference_typeERKSF_SI_ = comdat any

$_ZNSt6vectorIN6Assimp4STEP4LazyINS0_3IFC10Schema_2x319IfcConnectedFaceSetEEESaIS6_EE5beginEv = comdat any

$_ZNK9__gnu_cxx17__normal_iteratorIPN6Assimp4STEP4LazyINS1_3IFC10Schema_2x319IfcConnectedFaceSetEEESt6vectorIS7_SaIS7_EEE4baseEv = comdat any

$_ZN9__gnu_cxx17__normal_iteratorIPN6Assimp4STEP4LazyINS1_3IFC10Schema_2x319IfcConnectedFaceSetEEESt6vectorIS7_SaIS7_EEEC2ERKS8_ = comdat any

$_ZN6Assimp4STEP20InternGenericConvertINS0_4LazyINS_3IFC10Schema_2x319IfcConnectedFaceSetEEEEclERS6_RKSt10shared_ptrIKNS0_7EXPRESS8DataTypeEERKNS0_2DBE = comdat any

$_ZN6Assimp4STEP6CoupleINS_3IFC10Schema_2x319IfcConnectedFaceSetEKNS0_2DBEEERT0_S8_ = comdat any

$_ZNK9__gnu_cxx17__normal_iteratorIPN6Assimp4STEP4LazyINS1_3IFC10Schema_2x319IfcConnectedFaceSetEEESt6vectorIS7_SaIS7_EEEmiEl = comdat any

$_ZNK9__gnu_cxx17__normal_iteratorIPN6Assimp4STEP4LazyINS1_3IFC10Schema_2x319IfcConnectedFaceSetEEESt6vectorIS7_SaIS7_EEEdeEv = comdat any

$_ZN6Assimp4STEP20InternGenericConvertINS0_4LazyINS_3IFC10Schema_2x37IfcLoopEEEEclERS6_RKSt10shared_ptrIKNS0_7EXPRESS8DataTypeEERKNS0_2DBE = comdat any

$_ZN6Assimp4STEP6CoupleINS_3IFC10Schema_2x37IfcLoopEKNS0_2DBEEERT0_S8_ = comdat any

$_ZN6Assimp4STEP4LazyINS_3IFC10Schema_2x37IfcLoopEEC2EPKNS0_10LazyObjectE = comdat any

$_ZN6Assimp4STEP24InternGenericConvertListINS0_4LazyINS_3IFC10Schema_2x311IfcPropertyEEELm1ELm0EEclERNS0_6ListOfIS6_Lm1ELm0EEERKSt10shared_ptrIKNS0_7EXPRESS8DataTypeEERKNS0_2DBE = comdat any

$_ZNSt6vectorIN6Assimp4STEP4LazyINS0_3IFC10Schema_2x311IfcPropertyEEESaIS6_EE7reserveEm = comdat any

$_ZNSt6vectorIN6Assimp4STEP4LazyINS0_3IFC10Schema_2x311IfcPropertyEEESaIS6_EE9push_backEOS6_ = comdat any

$_ZN6Assimp4STEP4LazyINS_3IFC10Schema_2x311IfcPropertyEEC2EPKNS0_10LazyObjectE = comdat any

$_ZN6Assimp4STEP14GenericConvertINS0_4LazyINS_3IFC10Schema_2x311IfcPropertyEEEEEvRT_RKSt10shared_ptrIKNS0_7EXPRESS8DataTypeEERKNS0_2DBE = comdat any

$_ZNSt6vectorIN6Assimp4STEP4LazyINS0_3IFC10Schema_2x311IfcPropertyEEESaIS6_EE4backEv = comdat any

$_ZNKSt6vectorIN6Assimp4STEP4LazyINS0_3IFC10Schema_2x311IfcPropertyEEESaIS6_EE8max_sizeEv = comdat any

$_ZNKSt6vectorIN6Assimp4STEP4LazyINS0_3IFC10Schema_2x311IfcPropertyEEESaIS6_EE8capacityEv = comdat any

$_ZNKSt6vectorIN6Assimp4STEP4LazyINS0_3IFC10Schema_2x311IfcPropertyEEESaIS6_EE4sizeEv = comdat any

$_ZNSt12_Vector_baseIN6Assimp4STEP4LazyINS0_3IFC10Schema_2x311IfcPropertyEEESaIS6_EE11_M_allocateEm = comdat any

$_ZNSt6vectorIN6Assimp4STEP4LazyINS0_3IFC10Schema_2x311IfcPropertyEEESaIS6_EE11_S_relocateEPS6_S9_S9_RS7_ = comdat any

$_ZNSt12_Vector_baseIN6Assimp4STEP4LazyINS0_3IFC10Schema_2x311IfcPropertyEEESaIS6_EE19_M_get_Tp_allocatorEv = comdat any

$_ZNSt12_Vector_baseIN6Assimp4STEP4LazyINS0_3IFC10Schema_2x311IfcPropertyEEESaIS6_EE13_M_deallocateEPS6_m = comdat any

$_ZNSt6vectorIN6Assimp4STEP4LazyINS0_3IFC10Schema_2x311IfcPropertyEEESaIS6_EE11_S_max_sizeERKS7_ = comdat any

$_ZNKSt12_Vector_baseIN6Assimp4STEP4LazyINS0_3IFC10Schema_2x311IfcPropertyEEESaIS6_EE19_M_get_Tp_allocatorEv = comdat any

$_ZNSt16allocator_traitsISaIN6Assimp4STEP4LazyINS0_3IFC10Schema_2x311IfcPropertyEEEEE8max_sizeERKS7_ = comdat any

$_ZNKSt15__new_allocatorIN6Assimp4STEP4LazyINS0_3IFC10Schema_2x311IfcPropertyEEEE8max_sizeEv = comdat any

$_ZNKSt15__new_allocatorIN6Assimp4STEP4LazyINS0_3IFC10Schema_2x311IfcPropertyEEEE11_M_max_sizeEv = comdat any

$_ZNSt16allocator_traitsISaIN6Assimp4STEP4LazyINS0_3IFC10Schema_2x311IfcPropertyEEEEE8allocateERS7_m = comdat any

$_ZNSt15__new_allocatorIN6Assimp4STEP4LazyINS0_3IFC10Schema_2x311IfcPropertyEEEE8allocateEmPKv = comdat any

$_ZSt12__relocate_aIPN6Assimp4STEP4LazyINS0_3IFC10Schema_2x311IfcPropertyEEES7_SaIS6_EET0_T_SA_S9_RT1_ = comdat any

$_ZSt14__relocate_a_1IPN6Assimp4STEP4LazyINS0_3IFC10Schema_2x311IfcPropertyEEES7_SaIS6_EET0_T_SA_S9_RT1_ = comdat any

$_ZSt12__niter_baseIPN6Assimp4STEP4LazyINS0_3IFC10Schema_2x311IfcPropertyEEEET_S8_ = comdat any

$_ZSt19__relocate_object_aIN6Assimp4STEP4LazyINS0_3IFC10Schema_2x311IfcPropertyEEES6_SaIS6_EEvPT_PT0_RT1_ = comdat any

$_ZNSt16allocator_traitsISaIN6Assimp4STEP4LazyINS0_3IFC10Schema_2x311IfcPropertyEEEEE9constructIS6_JS6_EEEvRS7_PT_DpOT0_ = comdat any

$_ZNSt16allocator_traitsISaIN6Assimp4STEP4LazyINS0_3IFC10Schema_2x311IfcPropertyEEEEE7destroyIS6_EEvRS7_PT_ = comdat any

$_ZNSt15__new_allocatorIN6Assimp4STEP4LazyINS0_3IFC10Schema_2x311IfcPropertyEEEE9constructIS6_JS6_EEEvPT_DpOT0_ = comdat any

$_ZNSt15__new_allocatorIN6Assimp4STEP4LazyINS0_3IFC10Schema_2x311IfcPropertyEEEE7destroyIS6_EEvPT_ = comdat any

$_ZNSt16allocator_traitsISaIN6Assimp4STEP4LazyINS0_3IFC10Schema_2x311IfcPropertyEEEEE10deallocateERS7_PS6_m = comdat any

$_ZNSt15__new_allocatorIN6Assimp4STEP4LazyINS0_3IFC10Schema_2x311IfcPropertyEEEE10deallocateEPS6_m = comdat any

$_ZNSt6vectorIN6Assimp4STEP4LazyINS0_3IFC10Schema_2x311IfcPropertyEEESaIS6_EE12emplace_backIJS6_EEERS6_DpOT_ = comdat any

$_ZNSt6vectorIN6Assimp4STEP4LazyINS0_3IFC10Schema_2x311IfcPropertyEEESaIS6_EE17_M_realloc_insertIJS6_EEEvN9__gnu_cxx17__normal_iteratorIPS6_S8_EEDpOT_ = comdat any

$_ZNSt6vectorIN6Assimp4STEP4LazyINS0_3IFC10Schema_2x311IfcPropertyEEESaIS6_EE3endEv = comdat any

$_ZNKSt6vectorIN6Assimp4STEP4LazyINS0_3IFC10Schema_2x311IfcPropertyEEESaIS6_EE12_M_check_lenEmPKc = comdat any

$_ZN9__gnu_cxxmiIPN6Assimp4STEP4LazyINS1_3IFC10Schema_2x311IfcPropertyEEESt6vectorIS7_SaIS7_EEEENS_17__normal_iteratorIT_T0_E15difference_typeERKSF_SI_ = comdat any

$_ZNSt6vectorIN6Assimp4STEP4LazyINS0_3IFC10Schema_2x311IfcPropertyEEESaIS6_EE5beginEv = comdat any

$_ZNK9__gnu_cxx17__normal_iteratorIPN6Assimp4STEP4LazyINS1_3IFC10Schema_2x311IfcPropertyEEESt6vectorIS7_SaIS7_EEE4baseEv = comdat any

$_ZN9__gnu_cxx17__normal_iteratorIPN6Assimp4STEP4LazyINS1_3IFC10Schema_2x311IfcPropertyEEESt6vectorIS7_SaIS7_EEEC2ERKS8_ = comdat any

$_ZN6Assimp4STEP20InternGenericConvertINS0_4LazyINS_3IFC10Schema_2x311IfcPropertyEEEEclERS6_RKSt10shared_ptrIKNS0_7EXPRESS8DataTypeEERKNS0_2DBE = comdat any

$_ZN6Assimp4STEP6CoupleINS_3IFC10Schema_2x311IfcPropertyEKNS0_2DBEEERT0_S8_ = comdat any

$_ZNK9__gnu_cxx17__normal_iteratorIPN6Assimp4STEP4LazyINS1_3IFC10Schema_2x311IfcPropertyEEESt6vectorIS7_SaIS7_EEEmiEl = comdat any

$_ZNK9__gnu_cxx17__normal_iteratorIPN6Assimp4STEP4LazyINS1_3IFC10Schema_2x311IfcPropertyEEESt6vectorIS7_SaIS7_EEEdeEv = comdat any

$_ZN6Assimp4STEP24InternGenericConvertListINS0_4LazyINS_3IFC10Schema_2x314NotImplementedEEELm1ELm0EEclERNS0_6ListOfIS6_Lm1ELm0EEERKSt10shared_ptrIKNS0_7EXPRESS8DataTypeEERKNS0_2DBE = comdat any

$_ZNSt6vectorIN6Assimp4STEP4LazyINS0_3IFC10Schema_2x314NotImplementedEEESaIS6_EE7reserveEm = comdat any

$_ZNSt6vectorIN6Assimp4STEP4LazyINS0_3IFC10Schema_2x314NotImplementedEEESaIS6_EE9push_backEOS6_ = comdat any

$_ZNSt6vectorIN6Assimp4STEP4LazyINS0_3IFC10Schema_2x314NotImplementedEEESaIS6_EE4backEv = comdat any

$_ZNKSt6vectorIN6Assimp4STEP4LazyINS0_3IFC10Schema_2x314NotImplementedEEESaIS6_EE8max_sizeEv = comdat any

$_ZNKSt6vectorIN6Assimp4STEP4LazyINS0_3IFC10Schema_2x314NotImplementedEEESaIS6_EE8capacityEv = comdat any

$_ZNKSt6vectorIN6Assimp4STEP4LazyINS0_3IFC10Schema_2x314NotImplementedEEESaIS6_EE4sizeEv = comdat any

$_ZNSt12_Vector_baseIN6Assimp4STEP4LazyINS0_3IFC10Schema_2x314NotImplementedEEESaIS6_EE11_M_allocateEm = comdat any

$_ZNSt6vectorIN6Assimp4STEP4LazyINS0_3IFC10Schema_2x314NotImplementedEEESaIS6_EE11_S_relocateEPS6_S9_S9_RS7_ = comdat any

$_ZNSt12_Vector_baseIN6Assimp4STEP4LazyINS0_3IFC10Schema_2x314NotImplementedEEESaIS6_EE19_M_get_Tp_allocatorEv = comdat any

$_ZNSt12_Vector_baseIN6Assimp4STEP4LazyINS0_3IFC10Schema_2x314NotImplementedEEESaIS6_EE13_M_deallocateEPS6_m = comdat any

$_ZNSt6vectorIN6Assimp4STEP4LazyINS0_3IFC10Schema_2x314NotImplementedEEESaIS6_EE11_S_max_sizeERKS7_ = comdat any

$_ZNKSt12_Vector_baseIN6Assimp4STEP4LazyINS0_3IFC10Schema_2x314NotImplementedEEESaIS6_EE19_M_get_Tp_allocatorEv = comdat any

$_ZNSt16allocator_traitsISaIN6Assimp4STEP4LazyINS0_3IFC10Schema_2x314NotImplementedEEEEE8max_sizeERKS7_ = comdat any

$_ZNKSt15__new_allocatorIN6Assimp4STEP4LazyINS0_3IFC10Schema_2x314NotImplementedEEEE8max_sizeEv = comdat any

$_ZNKSt15__new_allocatorIN6Assimp4STEP4LazyINS0_3IFC10Schema_2x314NotImplementedEEEE11_M_max_sizeEv = comdat any

$_ZNSt16allocator_traitsISaIN6Assimp4STEP4LazyINS0_3IFC10Schema_2x314NotImplementedEEEEE8allocateERS7_m = comdat any

$_ZNSt15__new_allocatorIN6Assimp4STEP4LazyINS0_3IFC10Schema_2x314NotImplementedEEEE8allocateEmPKv = comdat any

$_ZSt12__relocate_aIPN6Assimp4STEP4LazyINS0_3IFC10Schema_2x314NotImplementedEEES7_SaIS6_EET0_T_SA_S9_RT1_ = comdat any

$_ZSt14__relocate_a_1IPN6Assimp4STEP4LazyINS0_3IFC10Schema_2x314NotImplementedEEES7_SaIS6_EET0_T_SA_S9_RT1_ = comdat any

$_ZSt12__niter_baseIPN6Assimp4STEP4LazyINS0_3IFC10Schema_2x314NotImplementedEEEET_S8_ = comdat any

$_ZSt19__relocate_object_aIN6Assimp4STEP4LazyINS0_3IFC10Schema_2x314NotImplementedEEES6_SaIS6_EEvPT_PT0_RT1_ = comdat any

$_ZNSt16allocator_traitsISaIN6Assimp4STEP4LazyINS0_3IFC10Schema_2x314NotImplementedEEEEE9constructIS6_JS6_EEEvRS7_PT_DpOT0_ = comdat any

$_ZNSt16allocator_traitsISaIN6Assimp4STEP4LazyINS0_3IFC10Schema_2x314NotImplementedEEEEE7destroyIS6_EEvRS7_PT_ = comdat any

$_ZNSt15__new_allocatorIN6Assimp4STEP4LazyINS0_3IFC10Schema_2x314NotImplementedEEEE9constructIS6_JS6_EEEvPT_DpOT0_ = comdat any

$_ZNSt15__new_allocatorIN6Assimp4STEP4LazyINS0_3IFC10Schema_2x314NotImplementedEEEE7destroyIS6_EEvPT_ = comdat any

$_ZNSt16allocator_traitsISaIN6Assimp4STEP4LazyINS0_3IFC10Schema_2x314NotImplementedEEEEE10deallocateERS7_PS6_m = comdat any

$_ZNSt15__new_allocatorIN6Assimp4STEP4LazyINS0_3IFC10Schema_2x314NotImplementedEEEE10deallocateEPS6_m = comdat any

$_ZNSt6vectorIN6Assimp4STEP4LazyINS0_3IFC10Schema_2x314NotImplementedEEESaIS6_EE12emplace_backIJS6_EEERS6_DpOT_ = comdat any

$_ZNSt6vectorIN6Assimp4STEP4LazyINS0_3IFC10Schema_2x314NotImplementedEEESaIS6_EE17_M_realloc_insertIJS6_EEEvN9__gnu_cxx17__normal_iteratorIPS6_S8_EEDpOT_ = comdat any

$_ZNSt6vectorIN6Assimp4STEP4LazyINS0_3IFC10Schema_2x314NotImplementedEEESaIS6_EE3endEv = comdat any

$_ZNKSt6vectorIN6Assimp4STEP4LazyINS0_3IFC10Schema_2x314NotImplementedEEESaIS6_EE12_M_check_lenEmPKc = comdat any

$_ZN9__gnu_cxxmiIPN6Assimp4STEP4LazyINS1_3IFC10Schema_2x314NotImplementedEEESt6vectorIS7_SaIS7_EEEENS_17__normal_iteratorIT_T0_E15difference_typeERKSF_SI_ = comdat any

$_ZNSt6vectorIN6Assimp4STEP4LazyINS0_3IFC10Schema_2x314NotImplementedEEESaIS6_EE5beginEv = comdat any

$_ZNK9__gnu_cxx17__normal_iteratorIPN6Assimp4STEP4LazyINS1_3IFC10Schema_2x314NotImplementedEEESt6vectorIS7_SaIS7_EEE4baseEv = comdat any

$_ZN9__gnu_cxx17__normal_iteratorIPN6Assimp4STEP4LazyINS1_3IFC10Schema_2x314NotImplementedEEESt6vectorIS7_SaIS7_EEEC2ERKS8_ = comdat any

$_ZNK9__gnu_cxx17__normal_iteratorIPN6Assimp4STEP4LazyINS1_3IFC10Schema_2x314NotImplementedEEESt6vectorIS7_SaIS7_EEEmiEl = comdat any

$_ZNK9__gnu_cxx17__normal_iteratorIPN6Assimp4STEP4LazyINS1_3IFC10Schema_2x314NotImplementedEEESt6vectorIS7_SaIS7_EEEdeEv = comdat any

$_ZN6Assimp4STEP20InternGenericConvertINS0_4LazyINS_3IFC10Schema_2x317IfcCartesianPointEEEEclERS6_RKSt10shared_ptrIKNS0_7EXPRESS8DataTypeEERKNS0_2DBE = comdat any

$_ZN6Assimp4STEP6CoupleINS_3IFC10Schema_2x317IfcCartesianPointEKNS0_2DBEEERT0_S8_ = comdat any

$_ZN6Assimp4STEP20InternGenericConvertINS0_4LazyINS_3IFC10Schema_2x318IfcMeasureWithUnitEEEEclERS6_RKSt10shared_ptrIKNS0_7EXPRESS8DataTypeEERKNS0_2DBE = comdat any

$_ZN6Assimp4STEP6CoupleINS_3IFC10Schema_2x318IfcMeasureWithUnitEKNS0_2DBEEERT0_S8_ = comdat any

$_ZN6Assimp4STEP4LazyINS_3IFC10Schema_2x318IfcMeasureWithUnitEEC2EPKNS0_10LazyObjectE = comdat any

$_ZN6Assimp4STEP20InternGenericConvertINS0_5MaybeISt10shared_ptrIKNS0_7EXPRESS8DataTypeEEEEEclERS8_RKS7_RKNS0_2DBE = comdat any

$_ZN6Assimp4STEP5MaybeISt10shared_ptrIKNS0_7EXPRESS8DataTypeEEEcvRS6_Ev = comdat any

$_ZN6Assimp4STEP5MaybeISt10shared_ptrIKNS0_7EXPRESS8DataTypeEEE10flag_validEv = comdat any

$_ZTSN6Assimp4STEP9TypeErrorE = comdat any

$_ZTS17DeadlyImportError = comdat any

$_ZTS15DeadlyErrorBase = comdat any

$_ZTI15DeadlyErrorBase = comdat any

$_ZTI17DeadlyImportError = comdat any

$_ZTIN6Assimp4STEP9TypeErrorE = comdat any

$_ZTSN6Assimp4STEP7EXPRESS8DataTypeE = comdat any

$_ZTIN6Assimp4STEP7EXPRESS8DataTypeE = comdat any

$_ZTSN6Assimp4STEP7EXPRESS9ISDERIVEDE = comdat any

$_ZTIN6Assimp4STEP7EXPRESS9ISDERIVEDE = comdat any

$_ZTSN6Assimp4STEP7EXPRESS5UNSETE = comdat any

$_ZTIN6Assimp4STEP7EXPRESS5UNSETE = comdat any

$_ZTVN6Assimp8IOStreamE = comdat any

$_ZTSN6Assimp8IOStreamE = comdat any

$_ZTSN6Assimp6Intern22AllocateFromAssimpHeapE = comdat any

$_ZTIN6Assimp6Intern22AllocateFromAssimpHeapE = comdat any

$_ZTIN6Assimp8IOStreamE = comdat any

$_ZTVN6Assimp9LogStreamE = comdat any

$_ZTSN6Assimp9LogStreamE = comdat any

$_ZTIN6Assimp9LogStreamE = comdat any

$_ZTVN6Assimp6LoggerE = comdat any

$_ZTSN6Assimp6LoggerE = comdat any

$_ZTIN6Assimp6LoggerE = comdat any

$_ZTSN6Assimp4STEP7EXPRESS17PrimitiveDataTypeINSt7__cxx1112basic_stringIcSt11char_traitsIcESaIcEEEEE = comdat any

$_ZTIN6Assimp4STEP7EXPRESS17PrimitiveDataTypeINSt7__cxx1112basic_stringIcSt11char_traitsIcESaIcEEEEE = comdat any

$_ZTSN6Assimp4STEP7EXPRESS4LISTE = comdat any

$_ZTIN6Assimp4STEP7EXPRESS4LISTE = comdat any

$_ZTSN6Assimp4STEP7EXPRESS6ENTITYE = comdat any

$_ZTSN6Assimp4STEP7EXPRESS17PrimitiveDataTypeImEE = comdat any

$_ZTIN6Assimp4STEP7EXPRESS17PrimitiveDataTypeImEE = comdat any

$_ZTIN6Assimp4STEP7EXPRESS6ENTITYE = comdat any

$_ZTSN6Assimp4STEP7EXPRESS17PrimitiveDataTypeIdEE = comdat any

$_ZTIN6Assimp4STEP7EXPRESS17PrimitiveDataTypeIdEE = comdat any

$_ZTSN6Assimp4STEP7EXPRESS17PrimitiveDataTypeIlEE = comdat any

$_ZTIN6Assimp4STEP7EXPRESS17PrimitiveDataTypeIlEE = comdat any

@.str = private unnamed_addr constant [40 x i8] c"expected 3 arguments to IfcSurfaceStyle\00", align 1
@_ZTVN10__cxxabiv120__si_class_type_infoE = external global [0 x ptr]
@_ZTSN6Assimp4STEP9TypeErrorE = linkonce_odr hidden constant [25 x i8] c"N6Assimp4STEP9TypeErrorE\00", comdat, align 1
@_ZTS17DeadlyImportError = linkonce_odr constant [20 x i8] c"17DeadlyImportError\00", comdat, align 1
@_ZTS15DeadlyErrorBase = linkonce_odr constant [18 x i8] c"15DeadlyErrorBase\00", comdat, align 1
@_ZTISt13runtime_error = external constant ptr
@_ZTI15DeadlyErrorBase = linkonce_odr constant { ptr, ptr, ptr } { ptr getelementptr inbounds (ptr, ptr @_ZTVN10__cxxabiv120__si_class_type_infoE, i64 2), ptr @_ZTS15DeadlyErrorBase, ptr @_ZTISt13runtime_error }, comdat, align 8
@_ZTI17DeadlyImportError = linkonce_odr constant { ptr, ptr, ptr } { ptr getelementptr inbounds (ptr, ptr @_ZTVN10__cxxabiv120__si_class_type_infoE, i64 2), ptr @_ZTS17DeadlyImportError, ptr @_ZTI15DeadlyErrorBase }, comdat, align 8
@_ZTIN6Assimp4STEP9TypeErrorE = linkonce_odr hidden constant { ptr, ptr, ptr } { ptr getelementptr inbounds (ptr, ptr @_ZTVN10__cxxabiv120__si_class_type_infoE, i64 2), ptr @_ZTSN6Assimp4STEP9TypeErrorE, ptr @_ZTI17DeadlyImportError }, comdat, align 8
@.str.1 = private unnamed_addr constant [67 x i8] c" - expected argument 1 to IfcSurfaceStyle to be a `IfcSurfaceSide`\00", align 1
@.str.2 = private unnamed_addr constant [94 x i8] c" - expected argument 2 to IfcSurfaceStyle to be a `SET [1:5] OF IfcSurfaceStyleElementSelect`\00", align 1
@.str.3 = private unnamed_addr constant [32 x i8] c"expected 1 arguments to IfcFace\00", align 1
@_ZTVN10__cxxabiv117__class_type_infoE = external global [0 x ptr]
@_ZTSN6Assimp4STEP7EXPRESS8DataTypeE = linkonce_odr hidden constant [32 x i8] c"N6Assimp4STEP7EXPRESS8DataTypeE\00", comdat, align 1
@_ZTIN6Assimp4STEP7EXPRESS8DataTypeE = linkonce_odr hidden constant { ptr, ptr } { ptr getelementptr inbounds (ptr, ptr @_ZTVN10__cxxabiv117__class_type_infoE, i64 2), ptr @_ZTSN6Assimp4STEP7EXPRESS8DataTypeE }, comdat, align 8
@_ZTSN6Assimp4STEP7EXPRESS9ISDERIVEDE = linkonce_odr hidden constant [33 x i8] c"N6Assimp4STEP7EXPRESS9ISDERIVEDE\00", comdat, align 1
@_ZTIN6Assimp4STEP7EXPRESS9ISDERIVEDE = linkonce_odr hidden constant { ptr, ptr, ptr } { ptr getelementptr inbounds (ptr, ptr @_ZTVN10__cxxabiv120__si_class_type_infoE, i64 2), ptr @_ZTSN6Assimp4STEP7EXPRESS9ISDERIVEDE, ptr @_ZTIN6Assimp4STEP7EXPRESS8DataTypeE }, comdat, align 8
@.str.4 = private unnamed_addr constant [70 x i8] c" - expected argument 0 to IfcFace to be a `SET [1:?] OF IfcFaceBound`\00", align 1
@.str.5 = private unnamed_addr constant [47 x i8] c"expected 1 arguments to IfcColourSpecification\00", align 1
@_ZTSN6Assimp4STEP7EXPRESS5UNSETE = linkonce_odr hidden constant [29 x i8] c"N6Assimp4STEP7EXPRESS5UNSETE\00", comdat, align 1
@_ZTIN6Assimp4STEP7EXPRESS5UNSETE = linkonce_odr hidden constant { ptr, ptr, ptr } { ptr getelementptr inbounds (ptr, ptr @_ZTVN10__cxxabiv120__si_class_type_infoE, i64 2), ptr @_ZTSN6Assimp4STEP7EXPRESS5UNSETE, ptr @_ZTIN6Assimp4STEP7EXPRESS8DataTypeE }, comdat, align 8
@.str.6 = private unnamed_addr constant [68 x i8] c" - expected argument 0 to IfcColourSpecification to be a `IfcLabel`\00", align 1
@.str.7 = private unnamed_addr constant [34 x i8] c"expected 2 arguments to IfcVector\00", align 1
@.str.8 = private unnamed_addr constant [59 x i8] c" - expected argument 0 to IfcVector to be a `IfcDirection`\00", align 1
@.str.9 = private unnamed_addr constant [63 x i8] c" - expected argument 1 to IfcVector to be a `IfcLengthMeasure`\00", align 1
@.str.10 = private unnamed_addr constant [37 x i8] c"expected 4 arguments to IfcColourRgb\00", align 1
@.str.11 = private unnamed_addr constant [75 x i8] c" - expected argument 1 to IfcColourRgb to be a `IfcNormalisedRatioMeasure`\00", align 1
@.str.12 = private unnamed_addr constant [75 x i8] c" - expected argument 2 to IfcColourRgb to be a `IfcNormalisedRatioMeasure`\00", align 1
@.str.13 = private unnamed_addr constant [75 x i8] c" - expected argument 3 to IfcColourRgb to be a `IfcNormalisedRatioMeasure`\00", align 1
@.str.14 = private unnamed_addr constant [33 x i8] c"expected 14 arguments to IfcSite\00", align 1
@.str.15 = private unnamed_addr constant [73 x i8] c" - expected argument 9 to IfcSite to be a `IfcCompoundPlaneAngleMeasure`\00", align 1
@.str.16 = private unnamed_addr constant [74 x i8] c" - expected argument 10 to IfcSite to be a `IfcCompoundPlaneAngleMeasure`\00", align 1
@.str.17 = private unnamed_addr constant [62 x i8] c" - expected argument 11 to IfcSite to be a `IfcLengthMeasure`\00", align 1
@.str.18 = private unnamed_addr constant [54 x i8] c" - expected argument 12 to IfcSite to be a `IfcLabel`\00", align 1
@.str.19 = private unnamed_addr constant [62 x i8] c" - expected argument 13 to IfcSite to be a `IfcPostalAddress`\00", align 1
@.str.20 = private unnamed_addr constant [40 x i8] c"expected 5 arguments to IfcBSplineCurve\00", align 1
@.str.21 = private unnamed_addr constant [60 x i8] c" - expected argument 0 to IfcBSplineCurve to be a `INTEGER`\00", align 1
@.str.22 = private unnamed_addr constant [84 x i8] c" - expected argument 1 to IfcBSplineCurve to be a `LIST [2:?] OF IfcCartesianPoint`\00", align 1
@.str.23 = private unnamed_addr constant [72 x i8] c" - expected argument 2 to IfcBSplineCurve to be a `IfcBSplineCurveForm`\00", align 1
@.str.24 = private unnamed_addr constant [60 x i8] c" - expected argument 3 to IfcBSplineCurve to be a `LOGICAL`\00", align 1
@.str.25 = private unnamed_addr constant [60 x i8] c" - expected argument 4 to IfcBSplineCurve to be a `LOGICAL`\00", align 1
@.str.26 = private unnamed_addr constant [38 x i8] c"expected 7 arguments to IfcAnnotation\00", align 1
@.str.27 = private unnamed_addr constant [50 x i8] c"expected 1 arguments to IfcShellBasedSurfaceModel\00", align 1
@.str.28 = private unnamed_addr constant [84 x i8] c" - expected argument 0 to IfcShellBasedSurfaceModel to be a `SET [1:?] OF IfcShell`\00", align 1
@.str.29 = private unnamed_addr constant [45 x i8] c"expected 4 arguments to IfcExtrudedAreaSolid\00", align 1
@.str.30 = private unnamed_addr constant [70 x i8] c" - expected argument 2 to IfcExtrudedAreaSolid to be a `IfcDirection`\00", align 1
@.str.31 = private unnamed_addr constant [82 x i8] c" - expected argument 3 to IfcExtrudedAreaSolid to be a `IfcPositiveLengthMeasure`\00", align 1
@.str.32 = private unnamed_addr constant [43 x i8] c"expected 6 arguments to IfcRelVoidsElement\00", align 1
@.str.33 = private unnamed_addr constant [66 x i8] c" - expected argument 4 to IfcRelVoidsElement to be a `IfcElement`\00", align 1
@.str.34 = private unnamed_addr constant [84 x i8] c" - expected argument 5 to IfcRelVoidsElement to be a `IfcFeatureElementSubtraction`\00", align 1
@.str.35 = private unnamed_addr constant [71 x i8] c"expected 7 arguments to IfcCartesianTransformationOperator3DnonUniform\00", align 1
@.str.36 = private unnamed_addr constant [88 x i8] c" - expected argument 5 to IfcCartesianTransformationOperator3DnonUniform to be a `REAL`\00", align 1
@.str.37 = private unnamed_addr constant [88 x i8] c" - expected argument 6 to IfcCartesianTransformationOperator3DnonUniform to be a `REAL`\00", align 1
@.str.38 = private unnamed_addr constant [44 x i8] c"expected 2 arguments to IfcAxis2Placement2D\00", align 1
@.str.39 = private unnamed_addr constant [69 x i8] c" - expected argument 1 to IfcAxis2Placement2D to be a `IfcDirection`\00", align 1
@.str.40 = private unnamed_addr constant [42 x i8] c"expected 1 arguments to IfcCartesianPoint\00", align 1
@.str.41 = private unnamed_addr constant [85 x i8] c" - expected argument 0 to IfcCartesianPoint to be a `LIST [1:3] OF IfcLengthMeasure`\00", align 1
@.str.42 = private unnamed_addr constant [36 x i8] c"expected 1 arguments to IfcPolyLoop\00", align 1
@.str.43 = private unnamed_addr constant [80 x i8] c" - expected argument 0 to IfcPolyLoop to be a `LIST [3:?] OF IfcCartesianPoint`\00", align 1
@.str.44 = private unnamed_addr constant [49 x i8] c"expected 2 arguments to IfcRepresentationContext\00", align 1
@.str.45 = private unnamed_addr constant [70 x i8] c" - expected argument 0 to IfcRepresentationContext to be a `IfcLabel`\00", align 1
@.str.46 = private unnamed_addr constant [70 x i8] c" - expected argument 1 to IfcRepresentationContext to be a `IfcLabel`\00", align 1
@.str.47 = private unnamed_addr constant [58 x i8] c"expected 6 arguments to IfcGeometricRepresentationContext\00", align 1
@.str.48 = private unnamed_addr constant [88 x i8] c" - expected argument 2 to IfcGeometricRepresentationContext to be a `IfcDimensionCount`\00", align 1
@.str.49 = private unnamed_addr constant [75 x i8] c" - expected argument 3 to IfcGeometricRepresentationContext to be a `REAL`\00", align 1
@.str.50 = private unnamed_addr constant [88 x i8] c" - expected argument 4 to IfcGeometricRepresentationContext to be a `IfcAxis2Placement`\00", align 1
@.str.51 = private unnamed_addr constant [83 x i8] c" - expected argument 5 to IfcGeometricRepresentationContext to be a `IfcDirection`\00", align 1
@.str.52 = private unnamed_addr constant [34 x i8] c"expected 4 arguments to IfcSIUnit\00", align 1
@.str.53 = private unnamed_addr constant [58 x i8] c" - expected argument 2 to IfcSIUnit to be a `IfcSIPrefix`\00", align 1
@.str.54 = private unnamed_addr constant [60 x i8] c" - expected argument 3 to IfcSIUnit to be a `IfcSIUnitName`\00", align 1
@.str.55 = private unnamed_addr constant [42 x i8] c"expected 2 arguments to IfcAxis1Placement\00", align 1
@.str.56 = private unnamed_addr constant [67 x i8] c" - expected argument 1 to IfcAxis1Placement to be a `IfcDirection`\00", align 1
@.str.57 = private unnamed_addr constant [45 x i8] c"expected 2 arguments to IfcRepresentationMap\00", align 1
@.str.58 = private unnamed_addr constant [75 x i8] c" - expected argument 0 to IfcRepresentationMap to be a `IfcAxis2Placement`\00", align 1
@.str.59 = private unnamed_addr constant [75 x i8] c" - expected argument 1 to IfcRepresentationMap to be a `IfcRepresentation`\00", align 1
@.str.60 = private unnamed_addr constant [39 x i8] c"expected 1 arguments to IfcClosedShell\00", align 1
@.str.61 = private unnamed_addr constant [42 x i8] c"expected 8 arguments to IfcOpeningElement\00", align 1
@.str.62 = private unnamed_addr constant [43 x i8] c"expected 2 arguments to IfcMeasureWithUnit\00", align 1
@.str.63 = private unnamed_addr constant [64 x i8] c" - expected argument 0 to IfcMeasureWithUnit to be a `IfcValue`\00", align 1
@.str.64 = private unnamed_addr constant [63 x i8] c" - expected argument 1 to IfcMeasureWithUnit to be a `IfcUnit`\00", align 1
@.str.65 = private unnamed_addr constant [41 x i8] c"expected 6 arguments to IfcRelAggregates\00", align 1
@.str.66 = private unnamed_addr constant [49 x i8] c"expected 1 arguments to IfcFaceBasedSurfaceModel\00", align 1
@.str.67 = private unnamed_addr constant [94 x i8] c" - expected argument 0 to IfcFaceBasedSurfaceModel to be a `SET [1:?] OF IfcConnectedFaceSet`\00", align 1
@.str.68 = private unnamed_addr constant [37 x i8] c"expected 2 arguments to IfcFaceBound\00", align 1
@.str.69 = private unnamed_addr constant [57 x i8] c" - expected argument 0 to IfcFaceBound to be a `IfcLoop`\00", align 1
@.str.70 = private unnamed_addr constant [57 x i8] c" - expected argument 1 to IfcFaceBound to be a `BOOLEAN`\00", align 1
@.str.71 = private unnamed_addr constant [42 x i8] c"expected 2 arguments to IfcFaceOuterBound\00", align 1
@.str.72 = private unnamed_addr constant [43 x i8] c"expected 4 arguments to IfcComplexProperty\00", align 1
@.str.73 = private unnamed_addr constant [69 x i8] c" - expected argument 2 to IfcComplexProperty to be a `IfcIdentifier`\00", align 1
@.str.74 = private unnamed_addr constant [80 x i8] c" - expected argument 3 to IfcComplexProperty to be a `SET [1:?] OF IfcProperty`\00", align 1
@.str.75 = private unnamed_addr constant [42 x i8] c"expected 1 arguments to IfcUnitAssignment\00", align 1
@.str.76 = private unnamed_addr constant [75 x i8] c" - expected argument 0 to IfcUnitAssignment to be a `SET [1:?] OF IfcUnit`\00", align 1
@.str.77 = private unnamed_addr constant [43 x i8] c"expected 6 arguments to IfcElementQuantity\00", align 1
@.str.78 = private unnamed_addr constant [64 x i8] c" - expected argument 4 to IfcElementQuantity to be a `IfcLabel`\00", align 1
@.str.79 = private unnamed_addr constant [88 x i8] c" - expected argument 5 to IfcElementQuantity to be a `SET [1:?] OF IfcPhysicalQuantity`\00", align 1
@.str.80 = private unnamed_addr constant [55 x i8] c"expected 1 arguments to IfcPresentationStyleAssignment\00", align 1
@.str.81 = private unnamed_addr constant [107 x i8] c" - expected argument 0 to IfcPresentationStyleAssignment to be a `SET [1:?] OF IfcPresentationStyleSelect`\00", align 1
@.str.82 = private unnamed_addr constant [34 x i8] c"expected 11 arguments to IfcSpace\00", align 1
@.str.83 = private unnamed_addr constant [71 x i8] c" - expected argument 9 to IfcSpace to be a `IfcInternalOrExternalEnum`\00", align 1
@.str.84 = private unnamed_addr constant [63 x i8] c" - expected argument 10 to IfcSpace to be a `IfcLengthMeasure`\00", align 1
@.str.85 = private unnamed_addr constant [52 x i8] c"expected 1 arguments to IfcSurfaceStyleWithTextures\00", align 1
@.str.86 = private unnamed_addr constant [96 x i8] c" - expected argument 0 to IfcSurfaceStyleWithTextures to be a `LIST [1:?] OF IfcSurfaceTexture`\00", align 1
@.str.87 = private unnamed_addr constant [39 x i8] c"expected 4 arguments to IfcBoundingBox\00", align 1
@.str.88 = private unnamed_addr constant [69 x i8] c" - expected argument 0 to IfcBoundingBox to be a `IfcCartesianPoint`\00", align 1
@.str.89 = private unnamed_addr constant [76 x i8] c" - expected argument 1 to IfcBoundingBox to be a `IfcPositiveLengthMeasure`\00", align 1
@.str.90 = private unnamed_addr constant [76 x i8] c" - expected argument 2 to IfcBoundingBox to be a `IfcPositiveLengthMeasure`\00", align 1
@.str.91 = private unnamed_addr constant [76 x i8] c" - expected argument 3 to IfcBoundingBox to be a `IfcPositiveLengthMeasure`\00", align 1
@.str.92 = private unnamed_addr constant [34 x i8] c"expected 2 arguments to IfcCircle\00", align 1
@.str.93 = private unnamed_addr constant [71 x i8] c" - expected argument 1 to IfcCircle to be a `IfcPositiveLengthMeasure`\00", align 1
@.str.94 = private unnamed_addr constant [47 x i8] c"expected 4 arguments to IfcConversionBasedUnit\00", align 1
@.str.95 = private unnamed_addr constant [68 x i8] c" - expected argument 2 to IfcConversionBasedUnit to be a `IfcLabel`\00", align 1
@.str.96 = private unnamed_addr constant [78 x i8] c" - expected argument 3 to IfcConversionBasedUnit to be a `IfcMeasureWithUnit`\00", align 1
@.str.97 = private unnamed_addr constant [35 x i8] c"expected 3 arguments to IfcEllipse\00", align 1
@.str.98 = private unnamed_addr constant [72 x i8] c" - expected argument 1 to IfcEllipse to be a `IfcPositiveLengthMeasure`\00", align 1
@.str.99 = private unnamed_addr constant [72 x i8] c" - expected argument 2 to IfcEllipse to be a `IfcPositiveLengthMeasure`\00", align 1
@.str.100 = private unnamed_addr constant [39 x i8] c"expected 5 arguments to IfcPropertySet\00", align 1
@.str.101 = private unnamed_addr constant [76 x i8] c" - expected argument 4 to IfcPropertySet to be a `SET [1:?] OF IfcProperty`\00", align 1
@.str.102 = private unnamed_addr constant [49 x i8] c"expected 9 arguments to IfcSurfaceStyleRendering\00", align 1
@.str.103 = private unnamed_addr constant [87 x i8] c" - expected argument 1 to IfcSurfaceStyleRendering to be a `IfcNormalisedRatioMeasure`\00", align 1
@.str.104 = private unnamed_addr constant [79 x i8] c" - expected argument 2 to IfcSurfaceStyleRendering to be a `IfcColourOrFactor`\00", align 1
@.str.105 = private unnamed_addr constant [79 x i8] c" - expected argument 3 to IfcSurfaceStyleRendering to be a `IfcColourOrFactor`\00", align 1
@.str.106 = private unnamed_addr constant [79 x i8] c" - expected argument 4 to IfcSurfaceStyleRendering to be a `IfcColourOrFactor`\00", align 1
@.str.107 = private unnamed_addr constant [79 x i8] c" - expected argument 5 to IfcSurfaceStyleRendering to be a `IfcColourOrFactor`\00", align 1
@.str.108 = private unnamed_addr constant [79 x i8] c" - expected argument 6 to IfcSurfaceStyleRendering to be a `IfcColourOrFactor`\00", align 1
@.str.109 = private unnamed_addr constant [88 x i8] c" - expected argument 7 to IfcSurfaceStyleRendering to be a `IfcSpecularHighlightSelect`\00", align 1
@.str.110 = private unnamed_addr constant [86 x i8] c" - expected argument 8 to IfcSurfaceStyleRendering to be a `IfcReflectanceMethodEnum`\00", align 1
@_ZTVN6Assimp8IOStreamE = linkonce_odr unnamed_addr constant { [10 x ptr] } { [10 x ptr] [ptr null, ptr @_ZTIN6Assimp8IOStreamE, ptr @_ZN6Assimp8IOStreamD2Ev, ptr @_ZN6Assimp8IOStreamD0Ev, ptr @__cxa_pure_virtual, ptr @__cxa_pure_virtual, ptr @__cxa_pure_virtual, ptr @__cxa_pure_virtual, ptr @__cxa_pure_virtual, ptr @__cxa_pure_virtual] }, comdat, align 8
@_ZTSN6Assimp8IOStreamE = linkonce_odr constant [19 x i8] c"N6Assimp8IOStreamE\00", comdat, align 1
@_ZTSN6Assimp6Intern22AllocateFromAssimpHeapE = linkonce_odr constant [41 x i8] c"N6Assimp6Intern22AllocateFromAssimpHeapE\00", comdat, align 1
@_ZTIN6Assimp6Intern22AllocateFromAssimpHeapE = linkonce_odr constant { ptr, ptr } { ptr getelementptr inbounds (ptr, ptr @_ZTVN10__cxxabiv117__class_type_infoE, i64 2), ptr @_ZTSN6Assimp6Intern22AllocateFromAssimpHeapE }, comdat, align 8
@_ZTIN6Assimp8IOStreamE = linkonce_odr constant { ptr, ptr, ptr } { ptr getelementptr inbounds (ptr, ptr @_ZTVN10__cxxabiv120__si_class_type_infoE, i64 2), ptr @_ZTSN6Assimp8IOStreamE, ptr @_ZTIN6Assimp6Intern22AllocateFromAssimpHeapE }, comdat, align 8
@_ZTVN6Assimp9LogStreamE = linkonce_odr unnamed_addr constant { [5 x ptr] } { [5 x ptr] [ptr null, ptr @_ZTIN6Assimp9LogStreamE, ptr @_ZN6Assimp9LogStreamD2Ev, ptr @_ZN6Assimp9LogStreamD0Ev, ptr @__cxa_pure_virtual] }, comdat, align 8
@_ZTSN6Assimp9LogStreamE = linkonce_odr constant [20 x i8] c"N6Assimp9LogStreamE\00", comdat, align 1
@_ZTIN6Assimp9LogStreamE = linkonce_odr constant { ptr, ptr, ptr } { ptr getelementptr inbounds (ptr, ptr @_ZTVN10__cxxabiv120__si_class_type_infoE, i64 2), ptr @_ZTSN6Assimp9LogStreamE, ptr @_ZTIN6Assimp6Intern22AllocateFromAssimpHeapE }, comdat, align 8
@_ZTVN6Assimp6LoggerE = linkonce_odr unnamed_addr constant { [11 x ptr] } { [11 x ptr] [ptr null, ptr @_ZTIN6Assimp6LoggerE, ptr @_ZN6Assimp6LoggerD2Ev, ptr @_ZN6Assimp6LoggerD0Ev, ptr @__cxa_pure_virtual, ptr @__cxa_pure_virtual, ptr @__cxa_pure_virtual, ptr @__cxa_pure_virtual, ptr @__cxa_pure_virtual, ptr @__cxa_pure_virtual, ptr @__cxa_pure_virtual] }, comdat, align 8
@_ZTSN6Assimp6LoggerE = linkonce_odr constant [17 x i8] c"N6Assimp6LoggerE\00", comdat, align 1
@_ZTIN6Assimp6LoggerE = linkonce_odr constant { ptr, ptr, ptr } { ptr getelementptr inbounds (ptr, ptr @_ZTVN10__cxxabiv120__si_class_type_infoE, i64 2), ptr @_ZTSN6Assimp6LoggerE, ptr @_ZTIN6Assimp6Intern22AllocateFromAssimpHeapE }, comdat, align 8
@__libc_single_threaded = external global i8, align 1
@.str.111 = private unnamed_addr constant [50 x i8] c"basic_string: construction from null is not valid\00", align 1
@_ZTISt8bad_cast = external constant ptr
@_ZTSN6Assimp4STEP7EXPRESS17PrimitiveDataTypeINSt7__cxx1112basic_stringIcSt11char_traitsIcESaIcEEEEE = linkonce_odr hidden constant [96 x i8] c"N6Assimp4STEP7EXPRESS17PrimitiveDataTypeINSt7__cxx1112basic_stringIcSt11char_traitsIcESaIcEEEEE\00", comdat, align 1
@_ZTIN6Assimp4STEP7EXPRESS17PrimitiveDataTypeINSt7__cxx1112basic_stringIcSt11char_traitsIcESaIcEEEEE = linkonce_odr hidden constant { ptr, ptr, ptr } { ptr getelementptr inbounds (ptr, ptr @_ZTVN10__cxxabiv120__si_class_type_infoE, i64 2), ptr @_ZTSN6Assimp4STEP7EXPRESS17PrimitiveDataTypeINSt7__cxx1112basic_stringIcSt11char_traitsIcESaIcEEEEE, ptr @_ZTIN6Assimp4STEP7EXPRESS8DataTypeE }, comdat, align 8
@.str.112 = private unnamed_addr constant [33 x i8] c"type error reading literal field\00", align 1
@_ZTSN6Assimp4STEP7EXPRESS4LISTE = linkonce_odr hidden constant [28 x i8] c"N6Assimp4STEP7EXPRESS4LISTE\00", comdat, align 1
@_ZTIN6Assimp4STEP7EXPRESS4LISTE = linkonce_odr hidden constant { ptr, ptr, ptr } { ptr getelementptr inbounds (ptr, ptr @_ZTVN10__cxxabiv120__si_class_type_infoE, i64 2), ptr @_ZTSN6Assimp4STEP7EXPRESS4LISTE, ptr @_ZTIN6Assimp4STEP7EXPRESS8DataTypeE }, comdat, align 8
@.str.113 = private unnamed_addr constant [29 x i8] c"type error reading aggregate\00", align 1
@.str.114 = private unnamed_addr constant [28 x i8] c"too many aggregate elements\00", align 1
@.str.115 = private unnamed_addr constant [27 x i8] c"too few aggregate elements\00", align 1
@.str.116 = private unnamed_addr constant [14 x i8] c" of aggregate\00", align 1
@.str.117 = private unnamed_addr constant [16 x i8] c"vector::reserve\00", align 1
@.str.118 = private unnamed_addr constant [26 x i8] c"vector::_M_realloc_insert\00", align 1
@_ZTSN6Assimp4STEP7EXPRESS6ENTITYE = linkonce_odr hidden constant [30 x i8] c"N6Assimp4STEP7EXPRESS6ENTITYE\00", comdat, align 1
@_ZTSN6Assimp4STEP7EXPRESS17PrimitiveDataTypeImEE = linkonce_odr hidden constant [45 x i8] c"N6Assimp4STEP7EXPRESS17PrimitiveDataTypeImEE\00", comdat, align 1
@_ZTIN6Assimp4STEP7EXPRESS17PrimitiveDataTypeImEE = linkonce_odr hidden constant { ptr, ptr, ptr } { ptr getelementptr inbounds (ptr, ptr @_ZTVN10__cxxabiv120__si_class_type_infoE, i64 2), ptr @_ZTSN6Assimp4STEP7EXPRESS17PrimitiveDataTypeImEE, ptr @_ZTIN6Assimp4STEP7EXPRESS8DataTypeE }, comdat, align 8
@_ZTIN6Assimp4STEP7EXPRESS6ENTITYE = linkonce_odr hidden constant { ptr, ptr, ptr } { ptr getelementptr inbounds (ptr, ptr @_ZTVN10__cxxabiv120__si_class_type_infoE, i64 2), ptr @_ZTSN6Assimp4STEP7EXPRESS6ENTITYE, ptr @_ZTIN6Assimp4STEP7EXPRESS17PrimitiveDataTypeImEE }, comdat, align 8
@.str.119 = private unnamed_addr constant [26 x i8] c"type error reading entity\00", align 1
@_ZTSN6Assimp4STEP7EXPRESS17PrimitiveDataTypeIdEE = linkonce_odr hidden constant [45 x i8] c"N6Assimp4STEP7EXPRESS17PrimitiveDataTypeIdEE\00", comdat, align 1
@_ZTIN6Assimp4STEP7EXPRESS17PrimitiveDataTypeIdEE = linkonce_odr hidden constant { ptr, ptr, ptr } { ptr getelementptr inbounds (ptr, ptr @_ZTVN10__cxxabiv120__si_class_type_infoE, i64 2), ptr @_ZTSN6Assimp4STEP7EXPRESS17PrimitiveDataTypeIdEE, ptr @_ZTIN6Assimp4STEP7EXPRESS8DataTypeE }, comdat, align 8
@_ZTSN6Assimp4STEP7EXPRESS17PrimitiveDataTypeIlEE = linkonce_odr hidden constant [45 x i8] c"N6Assimp4STEP7EXPRESS17PrimitiveDataTypeIlEE\00", comdat, align 1
@_ZTIN6Assimp4STEP7EXPRESS17PrimitiveDataTypeIlEE = linkonce_odr hidden constant { ptr, ptr, ptr } { ptr getelementptr inbounds (ptr, ptr @_ZTVN10__cxxabiv120__si_class_type_infoE, i64 2), ptr @_ZTSN6Assimp4STEP7EXPRESS17PrimitiveDataTypeIlEE, ptr @_ZTIN6Assimp4STEP7EXPRESS8DataTypeE }, comdat, align 8

; Function Attrs: mustprogress nounwind uwtable
define linkonce_odr void @_ZN6Assimp8IOStreamD0Ev(ptr noundef nonnull align 8 dereferenceable(8) %this) unnamed_addr #0 comdat align 2 {
entry:
  %this.addr = alloca ptr, align 8
  store ptr %this, ptr %this.addr, align 8
  call void @llvm.trap() #12
  unreachable
}

; Function Attrs: cold noreturn nounwind memory(inaccessiblemem: write)
declare void @llvm.trap() #1

; Function Attrs: mustprogress nounwind uwtable
define linkonce_odr void @_ZN6Assimp9LogStreamD0Ev(ptr noundef nonnull align 8 dereferenceable(8) %this) unnamed_addr #0 comdat align 2 {
entry:
  %this.addr = alloca ptr, align 8
  store ptr %this, ptr %this.addr, align 8
  call void @llvm.trap() #12
  unreachable
}

; Function Attrs: mustprogress nounwind uwtable
define linkonce_odr void @_ZN6Assimp6LoggerD0Ev(ptr noundef nonnull align 8 dereferenceable(12) %this) unnamed_addr #0 comdat align 2 {
entry:
  %this.addr = alloca ptr, align 8
  store ptr %this, ptr %this.addr, align 8
  call void @llvm.trap() #12
  unreachable
}

; Function Attrs: mustprogress uwtable
define hidden noundef i64 @_ZN6Assimp4STEP11GenericFillINS_3IFC10Schema_2x315IfcSurfaceStyleEEEmRKNS0_2DBERKNS0_7EXPRESS4LISTEPT_(ptr noundef nonnull align 8 dereferenceable(376) %db, ptr noundef nonnull align 8 dereferenceable(32) %params, ptr noundef %in) #2 personality ptr @__gxx_personality_v0 {
entry:
  %db.addr = alloca ptr, align 8
  %params.addr = alloca ptr, align 8
  %in.addr = alloca ptr, align 8
  %base = alloca i64, align 8
  %ref.tmp = alloca %"class.std::__cxx11::basic_string", align 8
  %ref.tmp2 = alloca %"class.std::allocator", align 1
  %exn.slot = alloca ptr, align 8
  %ehselector.slot = alloca i32, align 4
  %cleanup.isactive = alloca i1, align 1
  %arg = alloca %"class.std::shared_ptr.29", align 8
  %cleanup.dest.slot = alloca i32, align 4
  %t = alloca ptr, align 8
  %ref.tmp9 = alloca %"class.std::__cxx11::basic_string", align 8
  %ref.tmp11 = alloca %"class.std::__cxx11::basic_string", align 8
  %ref.tmp12 = alloca %"class.std::allocator", align 1
  %cleanup.isactive19 = alloca i1, align 1
  %arg31 = alloca %"class.std::shared_ptr.29", align 8
  %t39 = alloca ptr, align 8
  %ref.tmp42 = alloca %"class.std::__cxx11::basic_string", align 8
  %ref.tmp46 = alloca %"class.std::__cxx11::basic_string", align 8
  %ref.tmp47 = alloca %"class.std::allocator", align 1
  %cleanup.isactive54 = alloca i1, align 1
  store ptr %db, ptr %db.addr, align 8
  store ptr %params, ptr %params.addr, align 8
  store ptr %in, ptr %in.addr, align 8
  %0 = load ptr, ptr %db.addr, align 8
  %1 = load ptr, ptr %params.addr, align 8
  %2 = load ptr, ptr %in.addr, align 8
  %call = call noundef i64 @_ZN6Assimp4STEP11GenericFillINS_3IFC10Schema_2x320IfcPresentationStyleEEEmRKNS0_2DBERKNS0_7EXPRESS4LISTEPT_(ptr noundef nonnull align 8 dereferenceable(376) %0, ptr noundef nonnull align 8 dereferenceable(32) %1, ptr noundef %2)
  store i64 %call, ptr %base, align 8
  %3 = load ptr, ptr %params.addr, align 8
  %call1 = call noundef i64 @_ZNK6Assimp4STEP7EXPRESS4LIST7GetSizeEv(ptr noundef nonnull align 8 dereferenceable(32) %3)
  %cmp = icmp ult i64 %call1, 3
  br i1 %cmp, label %if.then, label %if.end

if.then:                                          ; preds = %entry
  store i1 true, ptr %cleanup.isactive, align 1
  %exception = call ptr @__cxa_allocate_exception(i64 16) #13
  call void @_ZNSaIcEC1Ev(ptr noundef nonnull align 1 dereferenceable(1) %ref.tmp2) #13
  invoke void @_ZNSt7__cxx1112basic_stringIcSt11char_traitsIcESaIcEEC2IS3_EEPKcRKS3_(ptr noundef nonnull align 8 dereferenceable(32) %ref.tmp, ptr noundef @.str, ptr noundef nonnull align 1 dereferenceable(1) %ref.tmp2)
          to label %invoke.cont unwind label %lpad

invoke.cont:                                      ; preds = %if.then
  invoke void @_ZN6Assimp4STEP9TypeErrorC1ERKNSt7__cxx1112basic_stringIcSt11char_traitsIcESaIcEEEmm(ptr noundef nonnull align 8 dereferenceable(16) %exception, ptr noundef nonnull align 8 dereferenceable(32) %ref.tmp, i64 noundef -1, i64 noundef 1152921504606846975)
          to label %invoke.cont4 unwind label %lpad3

invoke.cont4:                                     ; preds = %invoke.cont
  store i1 false, ptr %cleanup.isactive, align 1
  invoke void @__cxa_throw(ptr %exception, ptr @_ZTIN6Assimp4STEP9TypeErrorE, ptr @_ZN6Assimp4STEP9TypeErrorD2Ev) #14
          to label %unreachable unwind label %lpad3

lpad:                                             ; preds = %if.then
  %4 = landingpad { ptr, i32 }
          cleanup
  %5 = extractvalue { ptr, i32 } %4, 0
  store ptr %5, ptr %exn.slot, align 8
  %6 = extractvalue { ptr, i32 } %4, 1
  store i32 %6, ptr %ehselector.slot, align 4
  br label %ehcleanup

lpad3:                                            ; preds = %invoke.cont4, %invoke.cont
  %7 = landingpad { ptr, i32 }
          cleanup
  %8 = extractvalue { ptr, i32 } %7, 0
  store ptr %8, ptr %exn.slot, align 8
  %9 = extractvalue { ptr, i32 } %7, 1
  store i32 %9, ptr %ehselector.slot, align 4
  call void @_ZNSt7__cxx1112basic_stringIcSt11char_traitsIcESaIcEED1Ev(ptr noundef nonnull align 8 dereferenceable(32) %ref.tmp) #13
  br label %ehcleanup

ehcleanup:                                        ; preds = %lpad3, %lpad
  call void @_ZNSaIcED1Ev(ptr noundef nonnull align 1 dereferenceable(1) %ref.tmp2) #13
  %cleanup.is_active = load i1, ptr %cleanup.isactive, align 1
  br i1 %cleanup.is_active, label %cleanup.action, label %cleanup.done

cleanup.action:                                   ; preds = %ehcleanup
  call void @__cxa_free_exception(ptr %exception) #13
  br label %cleanup.done

cleanup.done:                                     ; preds = %cleanup.action, %ehcleanup
  br label %eh.resume

if.end:                                           ; preds = %entry
  br label %do.body

do.body:                                          ; preds = %if.end
  %10 = load ptr, ptr %params.addr, align 8
  %11 = load i64, ptr %base, align 8
  %inc = add i64 %11, 1
  store i64 %inc, ptr %base, align 8
  call void @_ZNK6Assimp4STEP7EXPRESS4LISTixEm(ptr sret(%"class.std::shared_ptr.29") align 8 %arg, ptr noundef nonnull align 8 dereferenceable(32) %10, i64 noundef %11)
  %12 = load ptr, ptr %in.addr, align 8
  %Side = getelementptr inbounds %"struct.Assimp::IFC::Schema_2x3::IfcSurfaceStyle", ptr %12, i32 0, i32 2
  %13 = load ptr, ptr %db.addr, align 8
  invoke void @_ZN6Assimp4STEP14GenericConvertINSt7__cxx1112basic_stringIcSt11char_traitsIcESaIcEEEEEvRT_RKSt10shared_ptrIKNS0_7EXPRESS8DataTypeEERKNS0_2DBE(ptr noundef nonnull align 8 dereferenceable(32) %Side, ptr noundef nonnull align 8 dereferenceable(16) %arg, ptr noundef nonnull align 8 dereferenceable(376) %13)
          to label %invoke.cont7 unwind label %lpad6

invoke.cont7:                                     ; preds = %do.body
  store i32 2, ptr %cleanup.dest.slot, align 4
  br label %cleanup

lpad6:                                            ; preds = %do.body
  %14 = landingpad { ptr, i32 }
          cleanup
          catch ptr @_ZTIN6Assimp4STEP9TypeErrorE
  %15 = extractvalue { ptr, i32 } %14, 0
  store ptr %15, ptr %exn.slot, align 8
  %16 = extractvalue { ptr, i32 } %14, 1
  store i32 %16, ptr %ehselector.slot, align 4
  br label %catch.dispatch

catch.dispatch:                                   ; preds = %lpad6
  %sel = load i32, ptr %ehselector.slot, align 4
  %17 = call i32 @llvm.eh.typeid.for(ptr @_ZTIN6Assimp4STEP9TypeErrorE) #13
  %matches = icmp eq i32 %sel, %17
  br i1 %matches, label %catch, label %ehcleanup29

catch:                                            ; preds = %catch.dispatch
  %exn = load ptr, ptr %exn.slot, align 8
  %18 = call ptr @__cxa_begin_catch(ptr %exn) #13
  store ptr %18, ptr %t, align 8
  store i1 true, ptr %cleanup.isactive19, align 1
  %exception8 = call ptr @__cxa_allocate_exception(i64 16) #13
  %19 = load ptr, ptr %t, align 8
  %vtable = load ptr, ptr %19, align 8
  %vfn = getelementptr inbounds ptr, ptr %vtable, i64 2
  %20 = load ptr, ptr %vfn, align 8
  %call10 = call noundef ptr %20(ptr noundef nonnull align 8 dereferenceable(16) %19) #13
  call void @_ZNSaIcEC1Ev(ptr noundef nonnull align 1 dereferenceable(1) %ref.tmp12) #13
  invoke void @_ZNSt7__cxx1112basic_stringIcSt11char_traitsIcESaIcEEC2IS3_EEPKcRKS3_(ptr noundef nonnull align 8 dereferenceable(32) %ref.tmp11, ptr noundef @.str.1, ptr noundef nonnull align 1 dereferenceable(1) %ref.tmp12)
          to label %invoke.cont14 unwind label %lpad13

invoke.cont14:                                    ; preds = %catch
  invoke void @_ZStplIcSt11char_traitsIcESaIcEENSt7__cxx1112basic_stringIT_T0_T1_EEPKS5_OS8_(ptr sret(%"class.std::__cxx11::basic_string") align 8 %ref.tmp9, ptr noundef %call10, ptr noundef nonnull align 8 dereferenceable(32) %ref.tmp11)
          to label %invoke.cont16 unwind label %lpad15

invoke.cont16:                                    ; preds = %invoke.cont14
  invoke void @_ZN6Assimp4STEP9TypeErrorC1ERKNSt7__cxx1112basic_stringIcSt11char_traitsIcESaIcEEEmm(ptr noundef nonnull align 8 dereferenceable(16) %exception8, ptr noundef nonnull align 8 dereferenceable(32) %ref.tmp9, i64 noundef -1, i64 noundef 1152921504606846975)
          to label %invoke.cont18 unwind label %lpad17

invoke.cont18:                                    ; preds = %invoke.cont16
  store i1 false, ptr %cleanup.isactive19, align 1
  invoke void @__cxa_throw(ptr %exception8, ptr @_ZTIN6Assimp4STEP9TypeErrorE, ptr @_ZN6Assimp4STEP9TypeErrorD2Ev) #14
          to label %unreachable unwind label %lpad17

lpad13:                                           ; preds = %catch
  %21 = landingpad { ptr, i32 }
          cleanup
  %22 = extractvalue { ptr, i32 } %21, 0
  store ptr %22, ptr %exn.slot, align 8
  %23 = extractvalue { ptr, i32 } %21, 1
  store i32 %23, ptr %ehselector.slot, align 4
  br label %ehcleanup22

lpad15:                                           ; preds = %invoke.cont14
  %24 = landingpad { ptr, i32 }
          cleanup
  %25 = extractvalue { ptr, i32 } %24, 0
  store ptr %25, ptr %exn.slot, align 8
  %26 = extractvalue { ptr, i32 } %24, 1
  store i32 %26, ptr %ehselector.slot, align 4
  br label %ehcleanup21

lpad17:                                           ; preds = %invoke.cont18, %invoke.cont16
  %27 = landingpad { ptr, i32 }
          cleanup
  %28 = extractvalue { ptr, i32 } %27, 0
  store ptr %28, ptr %exn.slot, align 8
  %29 = extractvalue { ptr, i32 } %27, 1
  store i32 %29, ptr %ehselector.slot, align 4
  call void @_ZNSt7__cxx1112basic_stringIcSt11char_traitsIcESaIcEED1Ev(ptr noundef nonnull align 8 dereferenceable(32) %ref.tmp9) #13
  br label %ehcleanup21

ehcleanup21:                                      ; preds = %lpad17, %lpad15
  call void @_ZNSt7__cxx1112basic_stringIcSt11char_traitsIcESaIcEED1Ev(ptr noundef nonnull align 8 dereferenceable(32) %ref.tmp11) #13
  br label %ehcleanup22

ehcleanup22:                                      ; preds = %ehcleanup21, %lpad13
  call void @_ZNSaIcED1Ev(ptr noundef nonnull align 1 dereferenceable(1) %ref.tmp12) #13
  %cleanup.is_active24 = load i1, ptr %cleanup.isactive19, align 1
  br i1 %cleanup.is_active24, label %cleanup.action25, label %cleanup.done26

cleanup.action25:                                 ; preds = %ehcleanup22
  call void @__cxa_free_exception(ptr %exception8) #13
  br label %cleanup.done26

cleanup.done26:                                   ; preds = %cleanup.action25, %ehcleanup22
  invoke void @__cxa_end_catch()
          to label %invoke.cont28 unwind label %terminate.lpad

invoke.cont28:                                    ; preds = %cleanup.done26
  br label %ehcleanup29

try.cont:                                         ; No predecessors!
  store i32 0, ptr %cleanup.dest.slot, align 4
  br label %cleanup

cleanup:                                          ; preds = %try.cont, %invoke.cont7
  call void @_ZNSt10shared_ptrIKN6Assimp4STEP7EXPRESS8DataTypeEED2Ev(ptr noundef nonnull align 8 dereferenceable(16) %arg) #13
  %cleanup.dest = load i32, ptr %cleanup.dest.slot, align 4
  switch i32 %cleanup.dest, label %unreachable [
    i32 0, label %cleanup.cont
    i32 2, label %do.end
  ]

cleanup.cont:                                     ; preds = %cleanup
  br label %do.end

do.end:                                           ; preds = %cleanup.cont, %cleanup
  br label %do.body30

do.body30:                                        ; preds = %do.end
  %30 = load ptr, ptr %params.addr, align 8
  %31 = load i64, ptr %base, align 8
  %inc32 = add i64 %31, 1
  store i64 %inc32, ptr %base, align 8
  call void @_ZNK6Assimp4STEP7EXPRESS4LISTixEm(ptr sret(%"class.std::shared_ptr.29") align 8 %arg31, ptr noundef nonnull align 8 dereferenceable(32) %30, i64 noundef %31)
  %32 = load ptr, ptr %in.addr, align 8
  %Styles = getelementptr inbounds %"struct.Assimp::IFC::Schema_2x3::IfcSurfaceStyle", ptr %32, i32 0, i32 3
  %33 = load ptr, ptr %db.addr, align 8
  invoke void @_ZN6Assimp4STEP14GenericConvertINS0_7EXPRESS8DataTypeELm1ELm5EEEvRNS0_6ListOfIT_XT0_EXT1_EEERKSt10shared_ptrIKS3_ERKNS0_2DBE(ptr noundef nonnull align 8 dereferenceable(24) %Styles, ptr noundef nonnull align 8 dereferenceable(16) %arg31, ptr noundef nonnull align 8 dereferenceable(376) %33)
          to label %invoke.cont34 unwind label %lpad33

invoke.cont34:                                    ; preds = %do.body30
  store i32 4, ptr %cleanup.dest.slot, align 4
  br label %cleanup65

ehcleanup29:                                      ; preds = %invoke.cont28, %catch.dispatch
  call void @_ZNSt10shared_ptrIKN6Assimp4STEP7EXPRESS8DataTypeEED2Ev(ptr noundef nonnull align 8 dereferenceable(16) %arg) #13
  br label %eh.resume

lpad33:                                           ; preds = %do.body30
  %34 = landingpad { ptr, i32 }
          cleanup
          catch ptr @_ZTIN6Assimp4STEP9TypeErrorE
  %35 = extractvalue { ptr, i32 } %34, 0
  store ptr %35, ptr %exn.slot, align 8
  %36 = extractvalue { ptr, i32 } %34, 1
  store i32 %36, ptr %ehselector.slot, align 4
  br label %catch.dispatch35

catch.dispatch35:                                 ; preds = %lpad33
  %sel36 = load i32, ptr %ehselector.slot, align 4
  %37 = call i32 @llvm.eh.typeid.for(ptr @_ZTIN6Assimp4STEP9TypeErrorE) #13
  %matches37 = icmp eq i32 %sel36, %37
  br i1 %matches37, label %catch38, label %ehcleanup68

catch38:                                          ; preds = %catch.dispatch35
  %exn40 = load ptr, ptr %exn.slot, align 8
  %38 = call ptr @__cxa_begin_catch(ptr %exn40) #13
  store ptr %38, ptr %t39, align 8
  store i1 true, ptr %cleanup.isactive54, align 1
  %exception41 = call ptr @__cxa_allocate_exception(i64 16) #13
  %39 = load ptr, ptr %t39, align 8
  %vtable43 = load ptr, ptr %39, align 8
  %vfn44 = getelementptr inbounds ptr, ptr %vtable43, i64 2
  %40 = load ptr, ptr %vfn44, align 8
  %call45 = call noundef ptr %40(ptr noundef nonnull align 8 dereferenceable(16) %39) #13
  call void @_ZNSaIcEC1Ev(ptr noundef nonnull align 1 dereferenceable(1) %ref.tmp47) #13
  invoke void @_ZNSt7__cxx1112basic_stringIcSt11char_traitsIcESaIcEEC2IS3_EEPKcRKS3_(ptr noundef nonnull align 8 dereferenceable(32) %ref.tmp46, ptr noundef @.str.2, ptr noundef nonnull align 1 dereferenceable(1) %ref.tmp47)
          to label %invoke.cont49 unwind label %lpad48

invoke.cont49:                                    ; preds = %catch38
  invoke void @_ZStplIcSt11char_traitsIcESaIcEENSt7__cxx1112basic_stringIT_T0_T1_EEPKS5_OS8_(ptr sret(%"class.std::__cxx11::basic_string") align 8 %ref.tmp42, ptr noundef %call45, ptr noundef nonnull align 8 dereferenceable(32) %ref.tmp46)
          to label %invoke.cont51 unwind label %lpad50

invoke.cont51:                                    ; preds = %invoke.cont49
  invoke void @_ZN6Assimp4STEP9TypeErrorC1ERKNSt7__cxx1112basic_stringIcSt11char_traitsIcESaIcEEEmm(ptr noundef nonnull align 8 dereferenceable(16) %exception41, ptr noundef nonnull align 8 dereferenceable(32) %ref.tmp42, i64 noundef -1, i64 noundef 1152921504606846975)
          to label %invoke.cont53 unwind label %lpad52

invoke.cont53:                                    ; preds = %invoke.cont51
  store i1 false, ptr %cleanup.isactive54, align 1
  invoke void @__cxa_throw(ptr %exception41, ptr @_ZTIN6Assimp4STEP9TypeErrorE, ptr @_ZN6Assimp4STEP9TypeErrorD2Ev) #14
          to label %unreachable unwind label %lpad52

lpad48:                                           ; preds = %catch38
  %41 = landingpad { ptr, i32 }
          cleanup
  %42 = extractvalue { ptr, i32 } %41, 0
  store ptr %42, ptr %exn.slot, align 8
  %43 = extractvalue { ptr, i32 } %41, 1
  store i32 %43, ptr %ehselector.slot, align 4
  br label %ehcleanup57

lpad50:                                           ; preds = %invoke.cont49
  %44 = landingpad { ptr, i32 }
          cleanup
  %45 = extractvalue { ptr, i32 } %44, 0
  store ptr %45, ptr %exn.slot, align 8
  %46 = extractvalue { ptr, i32 } %44, 1
  store i32 %46, ptr %ehselector.slot, align 4
  br label %ehcleanup56

lpad52:                                           ; preds = %invoke.cont53, %invoke.cont51
  %47 = landingpad { ptr, i32 }
          cleanup
  %48 = extractvalue { ptr, i32 } %47, 0
  store ptr %48, ptr %exn.slot, align 8
  %49 = extractvalue { ptr, i32 } %47, 1
  store i32 %49, ptr %ehselector.slot, align 4
  call void @_ZNSt7__cxx1112basic_stringIcSt11char_traitsIcESaIcEED1Ev(ptr noundef nonnull align 8 dereferenceable(32) %ref.tmp42) #13
  br label %ehcleanup56

ehcleanup56:                                      ; preds = %lpad52, %lpad50
  call void @_ZNSt7__cxx1112basic_stringIcSt11char_traitsIcESaIcEED1Ev(ptr noundef nonnull align 8 dereferenceable(32) %ref.tmp46) #13
  br label %ehcleanup57

ehcleanup57:                                      ; preds = %ehcleanup56, %lpad48
  call void @_ZNSaIcED1Ev(ptr noundef nonnull align 1 dereferenceable(1) %ref.tmp47) #13
  %cleanup.is_active59 = load i1, ptr %cleanup.isactive54, align 1
  br i1 %cleanup.is_active59, label %cleanup.action60, label %cleanup.done61

cleanup.action60:                                 ; preds = %ehcleanup57
  call void @__cxa_free_exception(ptr %exception41) #13
  br label %cleanup.done61

cleanup.done61:                                   ; preds = %cleanup.action60, %ehcleanup57
  invoke void @__cxa_end_catch()
          to label %invoke.cont63 unwind label %terminate.lpad

invoke.cont63:                                    ; preds = %cleanup.done61
  br label %ehcleanup68

try.cont64:                                       ; No predecessors!
  store i32 0, ptr %cleanup.dest.slot, align 4
  br label %cleanup65

cleanup65:                                        ; preds = %try.cont64, %invoke.cont34
  call void @_ZNSt10shared_ptrIKN6Assimp4STEP7EXPRESS8DataTypeEED2Ev(ptr noundef nonnull align 8 dereferenceable(16) %arg31) #13
  %cleanup.dest66 = load i32, ptr %cleanup.dest.slot, align 4
  switch i32 %cleanup.dest66, label %unreachable [
    i32 0, label %cleanup.cont67
    i32 4, label %do.end69
  ]

cleanup.cont67:                                   ; preds = %cleanup65
  br label %do.end69

do.end69:                                         ; preds = %cleanup.cont67, %cleanup65
  %50 = load i64, ptr %base, align 8
  ret i64 %50

ehcleanup68:                                      ; preds = %invoke.cont63, %catch.dispatch35
  call void @_ZNSt10shared_ptrIKN6Assimp4STEP7EXPRESS8DataTypeEED2Ev(ptr noundef nonnull align 8 dereferenceable(16) %arg31) #13
  br label %eh.resume

eh.resume:                                        ; preds = %ehcleanup68, %ehcleanup29, %cleanup.done
  %exn70 = load ptr, ptr %exn.slot, align 8
  %sel71 = load i32, ptr %ehselector.slot, align 4
  %lpad.val = insertvalue { ptr, i32 } poison, ptr %exn70, 0
  %lpad.val72 = insertvalue { ptr, i32 } %lpad.val, i32 %sel71, 1
  resume { ptr, i32 } %lpad.val72

terminate.lpad:                                   ; preds = %cleanup.done61, %cleanup.done26
  %51 = landingpad { ptr, i32 }
          catch ptr null
  %52 = extractvalue { ptr, i32 } %51, 0
  call void @__clang_call_terminate(ptr %52) #12
  unreachable

unreachable:                                      ; preds = %cleanup65, %invoke.cont53, %cleanup, %invoke.cont18, %invoke.cont4
  unreachable
}

declare noundef i64 @_ZN6Assimp4STEP11GenericFillINS_3IFC10Schema_2x320IfcPresentationStyleEEEmRKNS0_2DBERKNS0_7EXPRESS4LISTEPT_(ptr noundef nonnull align 8 dereferenceable(376), ptr noundef nonnull align 8 dereferenceable(32), ptr noundef) #3

; Function Attrs: mustprogress nounwind uwtable
define linkonce_odr hidden noundef i64 @_ZNK6Assimp4STEP7EXPRESS4LIST7GetSizeEv(ptr noundef nonnull align 8 dereferenceable(32) %this) #0 comdat align 2 {
entry:
  %this.addr = alloca ptr, align 8
  store ptr %this, ptr %this.addr, align 8
  %this1 = load ptr, ptr %this.addr, align 8
  %members = getelementptr inbounds %"class.Assimp::STEP::EXPRESS::LIST", ptr %this1, i32 0, i32 1
  %call = call noundef i64 @_ZNKSt6vectorISt10shared_ptrIKN6Assimp4STEP7EXPRESS8DataTypeEESaIS6_EE4sizeEv(ptr noundef nonnull align 8 dereferenceable(24) %members) #13
  ret i64 %call
}

declare ptr @__cxa_allocate_exception(i64)

; Function Attrs: nounwind
declare void @_ZNSaIcEC1Ev(ptr noundef nonnull align 1 dereferenceable(1)) unnamed_addr #4

; Function Attrs: mustprogress uwtable
define linkonce_odr void @_ZNSt7__cxx1112basic_stringIcSt11char_traitsIcESaIcEEC2IS3_EEPKcRKS3_(ptr noundef nonnull align 8 dereferenceable(32) %this, ptr noundef %__s, ptr noundef nonnull align 1 dereferenceable(1) %__a) unnamed_addr #2 comdat align 2 personality ptr @__gxx_personality_v0 {
entry:
  %this.addr = alloca ptr, align 8
  %__s.addr = alloca ptr, align 8
  %__a.addr = alloca ptr, align 8
  %exn.slot = alloca ptr, align 8
  %ehselector.slot = alloca i32, align 4
  %__end = alloca ptr, align 8
  store ptr %this, ptr %this.addr, align 8
  store ptr %__s, ptr %__s.addr, align 8
  store ptr %__a, ptr %__a.addr, align 8
  %this1 = load ptr, ptr %this.addr, align 8
  %_M_dataplus = getelementptr inbounds %"class.std::__cxx11::basic_string", ptr %this1, i32 0, i32 0
  %call = call noundef ptr @_ZNSt7__cxx1112basic_stringIcSt11char_traitsIcESaIcEE13_M_local_dataEv(ptr noundef nonnull align 8 dereferenceable(32) %this1)
  %0 = load ptr, ptr %__a.addr, align 8
  call void @_ZNSt7__cxx1112basic_stringIcSt11char_traitsIcESaIcEE12_Alloc_hiderC1EPcRKS3_(ptr noundef nonnull align 8 dereferenceable(8) %_M_dataplus, ptr noundef %call, ptr noundef nonnull align 1 dereferenceable(1) %0)
  %1 = load ptr, ptr %__s.addr, align 8
  %cmp = icmp eq ptr %1, null
  br i1 %cmp, label %if.then, label %if.end

if.then:                                          ; preds = %entry
  invoke void @_ZSt19__throw_logic_errorPKc(ptr noundef @.str.111) #14
          to label %invoke.cont unwind label %lpad

invoke.cont:                                      ; preds = %if.then
  unreachable

lpad:                                             ; preds = %invoke.cont2, %if.end, %if.then
  %2 = landingpad { ptr, i32 }
          cleanup
  %3 = extractvalue { ptr, i32 } %2, 0
  store ptr %3, ptr %exn.slot, align 8
  %4 = extractvalue { ptr, i32 } %2, 1
  store i32 %4, ptr %ehselector.slot, align 4
  call void @_ZNSt7__cxx1112basic_stringIcSt11char_traitsIcESaIcEE12_Alloc_hiderD2Ev(ptr noundef nonnull align 8 dereferenceable(8) %_M_dataplus) #13
  br label %eh.resume

if.end:                                           ; preds = %entry
  %5 = load ptr, ptr %__s.addr, align 8
  %6 = load ptr, ptr %__s.addr, align 8
  %call3 = invoke noundef i64 @_ZNSt11char_traitsIcE6lengthEPKc(ptr noundef %6)
          to label %invoke.cont2 unwind label %lpad

invoke.cont2:                                     ; preds = %if.end
  %add.ptr = getelementptr inbounds i8, ptr %5, i64 %call3
  store ptr %add.ptr, ptr %__end, align 8
  %7 = load ptr, ptr %__s.addr, align 8
  %8 = load ptr, ptr %__end, align 8
  invoke void @_ZNSt7__cxx1112basic_stringIcSt11char_traitsIcESaIcEE12_M_constructIPKcEEvT_S8_St20forward_iterator_tag(ptr noundef nonnull align 8 dereferenceable(32) %this1, ptr noundef %7, ptr noundef %8)
          to label %invoke.cont4 unwind label %lpad

invoke.cont4:                                     ; preds = %invoke.cont2
  ret void

eh.resume:                                        ; preds = %lpad
  %exn = load ptr, ptr %exn.slot, align 8
  %sel = load i32, ptr %ehselector.slot, align 4
  %lpad.val = insertvalue { ptr, i32 } poison, ptr %exn, 0
  %lpad.val5 = insertvalue { ptr, i32 } %lpad.val, i32 %sel, 1
  resume { ptr, i32 } %lpad.val5
}

declare i32 @__gxx_personality_v0(...)

declare void @_ZN6Assimp4STEP9TypeErrorC1ERKNSt7__cxx1112basic_stringIcSt11char_traitsIcESaIcEEEmm(ptr noundef nonnull align 8 dereferenceable(16), ptr noundef nonnull align 8 dereferenceable(32), i64 noundef, i64 noundef) unnamed_addr #3

; Function Attrs: mustprogress nounwind uwtable
define linkonce_odr hidden void @_ZN6Assimp4STEP9TypeErrorD2Ev(ptr noundef nonnull align 8 dereferenceable(16) %this) unnamed_addr #0 comdat align 2 {
entry:
  %this.addr = alloca ptr, align 8
  store ptr %this, ptr %this.addr, align 8
  %this1 = load ptr, ptr %this.addr, align 8
  call void @_ZN17DeadlyImportErrorD2Ev(ptr noundef nonnull align 8 dereferenceable(16) %this1) #13
  ret void
}

declare void @__cxa_throw(ptr, ptr, ptr)

; Function Attrs: nounwind
declare void @_ZNSt7__cxx1112basic_stringIcSt11char_traitsIcESaIcEED1Ev(ptr noundef nonnull align 8 dereferenceable(32)) unnamed_addr #4

; Function Attrs: nounwind
declare void @_ZNSaIcED1Ev(ptr noundef nonnull align 1 dereferenceable(1)) unnamed_addr #4

declare void @__cxa_free_exception(ptr)

; Function Attrs: mustprogress nounwind uwtable
define linkonce_odr hidden void @_ZNK6Assimp4STEP7EXPRESS4LISTixEm(ptr noalias sret(%"class.std::shared_ptr.29") align 8 %agg.result, ptr noundef nonnull align 8 dereferenceable(32) %this, i64 noundef %index) #0 comdat align 2 {
entry:
  %result.ptr = alloca ptr, align 8
  %this.addr = alloca ptr, align 8
  %index.addr = alloca i64, align 8
  store ptr %agg.result, ptr %result.ptr, align 8
  store ptr %this, ptr %this.addr, align 8
  store i64 %index, ptr %index.addr, align 8
  %this1 = load ptr, ptr %this.addr, align 8
  %members = getelementptr inbounds %"class.Assimp::STEP::EXPRESS::LIST", ptr %this1, i32 0, i32 1
  %0 = load i64, ptr %index.addr, align 8
  %call = call noundef nonnull align 8 dereferenceable(16) ptr @_ZNKSt6vectorISt10shared_ptrIKN6Assimp4STEP7EXPRESS8DataTypeEESaIS6_EEixEm(ptr noundef nonnull align 8 dereferenceable(24) %members, i64 noundef %0) #13
  call void @_ZNSt10shared_ptrIKN6Assimp4STEP7EXPRESS8DataTypeEEC2ERKS5_(ptr noundef nonnull align 8 dereferenceable(16) %agg.result, ptr noundef nonnull align 8 dereferenceable(16) %call) #13
  ret void
}

; Function Attrs: mustprogress uwtable
define linkonce_odr hidden void @_ZN6Assimp4STEP14GenericConvertINSt7__cxx1112basic_stringIcSt11char_traitsIcESaIcEEEEEvRT_RKSt10shared_ptrIKNS0_7EXPRESS8DataTypeEERKNS0_2DBE(ptr noundef nonnull align 8 dereferenceable(32) %a, ptr noundef nonnull align 8 dereferenceable(16) %b, ptr noundef nonnull align 8 dereferenceable(376) %db) #2 comdat {
entry:
  %a.addr = alloca ptr, align 8
  %b.addr = alloca ptr, align 8
  %db.addr = alloca ptr, align 8
  %ref.tmp = alloca %"struct.Assimp::STEP::InternGenericConvert", align 1
  store ptr %a, ptr %a.addr, align 8
  store ptr %b, ptr %b.addr, align 8
  store ptr %db, ptr %db.addr, align 8
  %0 = load ptr, ptr %a.addr, align 8
  %1 = load ptr, ptr %b.addr, align 8
  %2 = load ptr, ptr %db.addr, align 8
  call void @_ZN6Assimp4STEP20InternGenericConvertINSt7__cxx1112basic_stringIcSt11char_traitsIcESaIcEEEEclERS7_RKSt10shared_ptrIKNS0_7EXPRESS8DataTypeEERKNS0_2DBE(ptr noundef nonnull align 1 dereferenceable(1) %ref.tmp, ptr noundef nonnull align 8 dereferenceable(32) %0, ptr noundef nonnull align 8 dereferenceable(16) %1, ptr noundef nonnull align 8 dereferenceable(376) %2)
  ret void
}

; Function Attrs: nounwind memory(none)
declare i32 @llvm.eh.typeid.for(ptr) #5

declare ptr @__cxa_begin_catch(ptr)

; Function Attrs: mustprogress uwtable
define linkonce_odr void @_ZStplIcSt11char_traitsIcESaIcEENSt7__cxx1112basic_stringIT_T0_T1_EEPKS5_OS8_(ptr noalias sret(%"class.std::__cxx11::basic_string") align 8 %agg.result, ptr noundef %__lhs, ptr noundef nonnull align 8 dereferenceable(32) %__rhs) #2 comdat {
entry:
  %result.ptr = alloca ptr, align 8
  %__lhs.addr = alloca ptr, align 8
  %__rhs.addr = alloca ptr, align 8
  store ptr %agg.result, ptr %result.ptr, align 8
  store ptr %__lhs, ptr %__lhs.addr, align 8
  store ptr %__rhs, ptr %__rhs.addr, align 8
  %0 = load ptr, ptr %__rhs.addr, align 8
  %1 = load ptr, ptr %__lhs.addr, align 8
  %call = call noundef nonnull align 8 dereferenceable(32) ptr @_ZNSt7__cxx1112basic_stringIcSt11char_traitsIcESaIcEE6insertEmPKc(ptr noundef nonnull align 8 dereferenceable(32) %0, i64 noundef 0, ptr noundef %1)
  call void @_ZNSt7__cxx1112basic_stringIcSt11char_traitsIcESaIcEEC1EOS4_(ptr noundef nonnull align 8 dereferenceable(32) %agg.result, ptr noundef nonnull align 8 dereferenceable(32) %call) #13
  ret void
}

declare void @__cxa_end_catch()

; Function Attrs: noreturn nounwind uwtable
define linkonce_odr hidden void @__clang_call_terminate(ptr noundef %0) #6 comdat {
  %2 = call ptr @__cxa_begin_catch(ptr %0) #13
  call void @_ZSt9terminatev() #12
  unreachable
}

declare void @_ZSt9terminatev()

; Function Attrs: mustprogress nounwind uwtable
define linkonce_odr hidden void @_ZNSt10shared_ptrIKN6Assimp4STEP7EXPRESS8DataTypeEED2Ev(ptr noundef nonnull align 8 dereferenceable(16) %this) unnamed_addr #0 comdat align 2 {
entry:
  %this.addr = alloca ptr, align 8
  store ptr %this, ptr %this.addr, align 8
  %this1 = load ptr, ptr %this.addr, align 8
  call void @_ZNSt12__shared_ptrIKN6Assimp4STEP7EXPRESS8DataTypeELN9__gnu_cxx12_Lock_policyE2EED2Ev(ptr noundef nonnull align 8 dereferenceable(16) %this1) #13
  ret void
}

; Function Attrs: mustprogress uwtable
define linkonce_odr hidden void @_ZN6Assimp4STEP14GenericConvertINS0_7EXPRESS8DataTypeELm1ELm5EEEvRNS0_6ListOfIT_XT0_EXT1_EEERKSt10shared_ptrIKS3_ERKNS0_2DBE(ptr noundef nonnull align 8 dereferenceable(24) %a, ptr noundef nonnull align 8 dereferenceable(16) %b, ptr noundef nonnull align 8 dereferenceable(376) %db) #2 comdat {
entry:
  %a.addr = alloca ptr, align 8
  %b.addr = alloca ptr, align 8
  %db.addr = alloca ptr, align 8
  %ref.tmp = alloca %"struct.Assimp::STEP::InternGenericConvertList", align 1
  store ptr %a, ptr %a.addr, align 8
  store ptr %b, ptr %b.addr, align 8
  store ptr %db, ptr %db.addr, align 8
  %0 = load ptr, ptr %a.addr, align 8
  %1 = load ptr, ptr %b.addr, align 8
  %2 = load ptr, ptr %db.addr, align 8
  call void @_ZN6Assimp4STEP24InternGenericConvertListINS0_7EXPRESS8DataTypeELm1ELm5EEclERNS0_6ListOfIS3_Lm1ELm5EEERKSt10shared_ptrIKS3_ERKNS0_2DBE(ptr noundef nonnull align 1 dereferenceable(1) %ref.tmp, ptr noundef nonnull align 8 dereferenceable(24) %0, ptr noundef nonnull align 8 dereferenceable(16) %1, ptr noundef nonnull align 8 dereferenceable(376) %2)
  ret void
}

; Function Attrs: mustprogress uwtable
define hidden noundef i64 @_ZN6Assimp4STEP11GenericFillINS_3IFC10Schema_2x320IfcAnnotationSurfaceEEEmRKNS0_2DBERKNS0_7EXPRESS4LISTEPT_(ptr noundef nonnull align 8 dereferenceable(376) %db, ptr noundef nonnull align 8 dereferenceable(32) %params, ptr noundef %in) #2 {
entry:
  %db.addr = alloca ptr, align 8
  %params.addr = alloca ptr, align 8
  %in.addr = alloca ptr, align 8
  %base = alloca i64, align 8
  store ptr %db, ptr %db.addr, align 8
  store ptr %params, ptr %params.addr, align 8
  store ptr %in, ptr %in.addr, align 8
  %0 = load ptr, ptr %db.addr, align 8
  %1 = load ptr, ptr %params.addr, align 8
  %2 = load ptr, ptr %in.addr, align 8
  %call = call noundef i64 @_ZN6Assimp4STEP11GenericFillINS_3IFC10Schema_2x330IfcGeometricRepresentationItemEEEmRKNS0_2DBERKNS0_7EXPRESS4LISTEPT_(ptr noundef nonnull align 8 dereferenceable(376) %0, ptr noundef nonnull align 8 dereferenceable(32) %1, ptr noundef %2)
  store i64 %call, ptr %base, align 8
  %3 = load i64, ptr %base, align 8
  ret i64 %3
}

declare noundef i64 @_ZN6Assimp4STEP11GenericFillINS_3IFC10Schema_2x330IfcGeometricRepresentationItemEEEmRKNS0_2DBERKNS0_7EXPRESS4LISTEPT_(ptr noundef nonnull align 8 dereferenceable(376), ptr noundef nonnull align 8 dereferenceable(32), ptr noundef) #3

; Function Attrs: mustprogress uwtable
define hidden noundef i64 @_ZN6Assimp4STEP11GenericFillINS_3IFC10Schema_2x317IfcFlowControllerEEEmRKNS0_2DBERKNS0_7EXPRESS4LISTEPT_(ptr noundef nonnull align 8 dereferenceable(376) %db, ptr noundef nonnull align 8 dereferenceable(32) %params, ptr noundef %in) #2 {
entry:
  %db.addr = alloca ptr, align 8
  %params.addr = alloca ptr, align 8
  %in.addr = alloca ptr, align 8
  %base = alloca i64, align 8
  store ptr %db, ptr %db.addr, align 8
  store ptr %params, ptr %params.addr, align 8
  store ptr %in, ptr %in.addr, align 8
  %0 = load ptr, ptr %db.addr, align 8
  %1 = load ptr, ptr %params.addr, align 8
  %2 = load ptr, ptr %in.addr, align 8
  %call = call noundef i64 @_ZN6Assimp4STEP11GenericFillINS_3IFC10Schema_2x326IfcDistributionFlowElementEEEmRKNS0_2DBERKNS0_7EXPRESS4LISTEPT_(ptr noundef nonnull align 8 dereferenceable(376) %0, ptr noundef nonnull align 8 dereferenceable(32) %1, ptr noundef %2)
  store i64 %call, ptr %base, align 8
  %3 = load i64, ptr %base, align 8
  ret i64 %3
}

declare noundef i64 @_ZN6Assimp4STEP11GenericFillINS_3IFC10Schema_2x326IfcDistributionFlowElementEEEmRKNS0_2DBERKNS0_7EXPRESS4LISTEPT_(ptr noundef nonnull align 8 dereferenceable(376), ptr noundef nonnull align 8 dereferenceable(32), ptr noundef) #3

; Function Attrs: mustprogress uwtable
define hidden noundef i64 @_ZN6Assimp4STEP11GenericFillINS_3IFC10Schema_2x317IfcBuildingStoreyEEEmRKNS0_2DBERKNS0_7EXPRESS4LISTEPT_(ptr noundef nonnull align 8 dereferenceable(376) %db, ptr noundef nonnull align 8 dereferenceable(32) %params, ptr noundef %in) #2 {
entry:
  %db.addr = alloca ptr, align 8
  %params.addr = alloca ptr, align 8
  %in.addr = alloca ptr, align 8
  %base = alloca i64, align 8
  store ptr %db, ptr %db.addr, align 8
  store ptr %params, ptr %params.addr, align 8
  store ptr %in, ptr %in.addr, align 8
  %0 = load ptr, ptr %db.addr, align 8
  %1 = load ptr, ptr %params.addr, align 8
  %2 = load ptr, ptr %in.addr, align 8
  %call = call noundef i64 @_ZN6Assimp4STEP11GenericFillINS_3IFC10Schema_2x326IfcSpatialStructureElementEEEmRKNS0_2DBERKNS0_7EXPRESS4LISTEPT_(ptr noundef nonnull align 8 dereferenceable(376) %0, ptr noundef nonnull align 8 dereferenceable(32) %1, ptr noundef %2)
  store i64 %call, ptr %base, align 8
  %3 = load i64, ptr %base, align 8
  ret i64 %3
}

declare noundef i64 @_ZN6Assimp4STEP11GenericFillINS_3IFC10Schema_2x326IfcSpatialStructureElementEEEmRKNS0_2DBERKNS0_7EXPRESS4LISTEPT_(ptr noundef nonnull align 8 dereferenceable(376), ptr noundef nonnull align 8 dereferenceable(32), ptr noundef) #3

; Function Attrs: mustprogress uwtable
define hidden noundef i64 @_ZN6Assimp4STEP11GenericFillINS_3IFC10Schema_2x314IfcWorkControlEEEmRKNS0_2DBERKNS0_7EXPRESS4LISTEPT_(ptr noundef nonnull align 8 dereferenceable(376) %db, ptr noundef nonnull align 8 dereferenceable(32) %params, ptr noundef %in) #2 {
entry:
  %db.addr = alloca ptr, align 8
  %params.addr = alloca ptr, align 8
  %in.addr = alloca ptr, align 8
  %base = alloca i64, align 8
  store ptr %db, ptr %db.addr, align 8
  store ptr %params, ptr %params.addr, align 8
  store ptr %in, ptr %in.addr, align 8
  %0 = load ptr, ptr %db.addr, align 8
  %1 = load ptr, ptr %params.addr, align 8
  %2 = load ptr, ptr %in.addr, align 8
  %call = call noundef i64 @_ZN6Assimp4STEP11GenericFillINS_3IFC10Schema_2x310IfcControlEEEmRKNS0_2DBERKNS0_7EXPRESS4LISTEPT_(ptr noundef nonnull align 8 dereferenceable(376) %0, ptr noundef nonnull align 8 dereferenceable(32) %1, ptr noundef %2)
  store i64 %call, ptr %base, align 8
  %3 = load i64, ptr %base, align 8
  ret i64 %3
}

declare noundef i64 @_ZN6Assimp4STEP11GenericFillINS_3IFC10Schema_2x310IfcControlEEEmRKNS0_2DBERKNS0_7EXPRESS4LISTEPT_(ptr noundef nonnull align 8 dereferenceable(376), ptr noundef nonnull align 8 dereferenceable(32), ptr noundef) #3

; Function Attrs: mustprogress uwtable
define hidden noundef i64 @_ZN6Assimp4STEP11GenericFillINS_3IFC10Schema_2x315IfcWorkScheduleEEEmRKNS0_2DBERKNS0_7EXPRESS4LISTEPT_(ptr noundef nonnull align 8 dereferenceable(376) %db, ptr noundef nonnull align 8 dereferenceable(32) %params, ptr noundef %in) #2 {
entry:
  %db.addr = alloca ptr, align 8
  %params.addr = alloca ptr, align 8
  %in.addr = alloca ptr, align 8
  %base = alloca i64, align 8
  store ptr %db, ptr %db.addr, align 8
  store ptr %params, ptr %params.addr, align 8
  store ptr %in, ptr %in.addr, align 8
  %0 = load ptr, ptr %db.addr, align 8
  %1 = load ptr, ptr %params.addr, align 8
  %2 = load ptr, ptr %in.addr, align 8
  %call = call noundef i64 @_ZN6Assimp4STEP11GenericFillINS_3IFC10Schema_2x314IfcWorkControlEEEmRKNS0_2DBERKNS0_7EXPRESS4LISTEPT_(ptr noundef nonnull align 8 dereferenceable(376) %0, ptr noundef nonnull align 8 dereferenceable(32) %1, ptr noundef %2)
  store i64 %call, ptr %base, align 8
  %3 = load i64, ptr %base, align 8
  ret i64 %3
}

; Function Attrs: mustprogress uwtable
define hidden noundef i64 @_ZN6Assimp4STEP11GenericFillINS_3IFC10Schema_2x318IfcDuctSegmentTypeEEEmRKNS0_2DBERKNS0_7EXPRESS4LISTEPT_(ptr noundef nonnull align 8 dereferenceable(376) %db, ptr noundef nonnull align 8 dereferenceable(32) %params, ptr noundef %in) #2 {
entry:
  %db.addr = alloca ptr, align 8
  %params.addr = alloca ptr, align 8
  %in.addr = alloca ptr, align 8
  %base = alloca i64, align 8
  store ptr %db, ptr %db.addr, align 8
  store ptr %params, ptr %params.addr, align 8
  store ptr %in, ptr %in.addr, align 8
  %0 = load ptr, ptr %db.addr, align 8
  %1 = load ptr, ptr %params.addr, align 8
  %2 = load ptr, ptr %in.addr, align 8
  %call = call noundef i64 @_ZN6Assimp4STEP11GenericFillINS_3IFC10Schema_2x318IfcFlowSegmentTypeEEEmRKNS0_2DBERKNS0_7EXPRESS4LISTEPT_(ptr noundef nonnull align 8 dereferenceable(376) %0, ptr noundef nonnull align 8 dereferenceable(32) %1, ptr noundef %2)
  store i64 %call, ptr %base, align 8
  %3 = load i64, ptr %base, align 8
  ret i64 %3
}

declare noundef i64 @_ZN6Assimp4STEP11GenericFillINS_3IFC10Schema_2x318IfcFlowSegmentTypeEEEmRKNS0_2DBERKNS0_7EXPRESS4LISTEPT_(ptr noundef nonnull align 8 dereferenceable(376), ptr noundef nonnull align 8 dereferenceable(32), ptr noundef) #3

; Function Attrs: mustprogress uwtable
define hidden noundef i64 @_ZN6Assimp4STEP11GenericFillINS_3IFC10Schema_2x37IfcFaceEEEmRKNS0_2DBERKNS0_7EXPRESS4LISTEPT_(ptr noundef nonnull align 8 dereferenceable(376) %db, ptr noundef nonnull align 8 dereferenceable(32) %params, ptr noundef %in) #2 personality ptr @__gxx_personality_v0 {
entry:
  %db.addr = alloca ptr, align 8
  %params.addr = alloca ptr, align 8
  %in.addr = alloca ptr, align 8
  %base = alloca i64, align 8
  %ref.tmp = alloca %"class.std::__cxx11::basic_string", align 8
  %ref.tmp2 = alloca %"class.std::allocator", align 1
  %exn.slot = alloca ptr, align 8
  %ehselector.slot = alloca i32, align 4
  %cleanup.isactive = alloca i1, align 1
  %arg = alloca %"class.std::shared_ptr.29", align 8
  %ref.tmp8 = alloca %"class.std::bitset<1>::reference", align 8
  %cleanup.dest.slot = alloca i32, align 4
  %t = alloca ptr, align 8
  %ref.tmp16 = alloca %"class.std::__cxx11::basic_string", align 8
  %ref.tmp18 = alloca %"class.std::__cxx11::basic_string", align 8
  %ref.tmp19 = alloca %"class.std::allocator", align 1
  %cleanup.isactive26 = alloca i1, align 1
  store ptr %db, ptr %db.addr, align 8
  store ptr %params, ptr %params.addr, align 8
  store ptr %in, ptr %in.addr, align 8
  %0 = load ptr, ptr %db.addr, align 8
  %1 = load ptr, ptr %params.addr, align 8
  %2 = load ptr, ptr %in.addr, align 8
  %call = call noundef i64 @_ZN6Assimp4STEP11GenericFillINS_3IFC10Schema_2x332IfcTopologicalRepresentationItemEEEmRKNS0_2DBERKNS0_7EXPRESS4LISTEPT_(ptr noundef nonnull align 8 dereferenceable(376) %0, ptr noundef nonnull align 8 dereferenceable(32) %1, ptr noundef %2)
  store i64 %call, ptr %base, align 8
  %3 = load ptr, ptr %params.addr, align 8
  %call1 = call noundef i64 @_ZNK6Assimp4STEP7EXPRESS4LIST7GetSizeEv(ptr noundef nonnull align 8 dereferenceable(32) %3)
  %cmp = icmp ult i64 %call1, 1
  br i1 %cmp, label %if.then, label %if.end

if.then:                                          ; preds = %entry
  store i1 true, ptr %cleanup.isactive, align 1
  %exception = call ptr @__cxa_allocate_exception(i64 16) #13
  call void @_ZNSaIcEC1Ev(ptr noundef nonnull align 1 dereferenceable(1) %ref.tmp2) #13
  invoke void @_ZNSt7__cxx1112basic_stringIcSt11char_traitsIcESaIcEEC2IS3_EEPKcRKS3_(ptr noundef nonnull align 8 dereferenceable(32) %ref.tmp, ptr noundef @.str.3, ptr noundef nonnull align 1 dereferenceable(1) %ref.tmp2)
          to label %invoke.cont unwind label %lpad

invoke.cont:                                      ; preds = %if.then
  invoke void @_ZN6Assimp4STEP9TypeErrorC1ERKNSt7__cxx1112basic_stringIcSt11char_traitsIcESaIcEEEmm(ptr noundef nonnull align 8 dereferenceable(16) %exception, ptr noundef nonnull align 8 dereferenceable(32) %ref.tmp, i64 noundef -1, i64 noundef 1152921504606846975)
          to label %invoke.cont4 unwind label %lpad3

invoke.cont4:                                     ; preds = %invoke.cont
  store i1 false, ptr %cleanup.isactive, align 1
  invoke void @__cxa_throw(ptr %exception, ptr @_ZTIN6Assimp4STEP9TypeErrorE, ptr @_ZN6Assimp4STEP9TypeErrorD2Ev) #14
          to label %unreachable unwind label %lpad3

lpad:                                             ; preds = %if.then
  %4 = landingpad { ptr, i32 }
          cleanup
  %5 = extractvalue { ptr, i32 } %4, 0
  store ptr %5, ptr %exn.slot, align 8
  %6 = extractvalue { ptr, i32 } %4, 1
  store i32 %6, ptr %ehselector.slot, align 4
  br label %ehcleanup

lpad3:                                            ; preds = %invoke.cont4, %invoke.cont
  %7 = landingpad { ptr, i32 }
          cleanup
  %8 = extractvalue { ptr, i32 } %7, 0
  store ptr %8, ptr %exn.slot, align 8
  %9 = extractvalue { ptr, i32 } %7, 1
  store i32 %9, ptr %ehselector.slot, align 4
  call void @_ZNSt7__cxx1112basic_stringIcSt11char_traitsIcESaIcEED1Ev(ptr noundef nonnull align 8 dereferenceable(32) %ref.tmp) #13
  br label %ehcleanup

ehcleanup:                                        ; preds = %lpad3, %lpad
  call void @_ZNSaIcED1Ev(ptr noundef nonnull align 1 dereferenceable(1) %ref.tmp2) #13
  %cleanup.is_active = load i1, ptr %cleanup.isactive, align 1
  br i1 %cleanup.is_active, label %cleanup.action, label %cleanup.done

cleanup.action:                                   ; preds = %ehcleanup
  call void @__cxa_free_exception(ptr %exception) #13
  br label %cleanup.done

cleanup.done:                                     ; preds = %cleanup.action, %ehcleanup
  br label %eh.resume

if.end:                                           ; preds = %entry
  br label %do.body

do.body:                                          ; preds = %if.end
  %10 = load ptr, ptr %params.addr, align 8
  %11 = load i64, ptr %base, align 8
  %inc = add i64 %11, 1
  store i64 %inc, ptr %base, align 8
  call void @_ZNK6Assimp4STEP7EXPRESS4LISTixEm(ptr sret(%"class.std::shared_ptr.29") align 8 %arg, ptr noundef nonnull align 8 dereferenceable(32) %10, i64 noundef %11)
  %call6 = call noundef nonnull align 8 dereferenceable(8) ptr @_ZNKSt19__shared_ptr_accessIKN6Assimp4STEP7EXPRESS8DataTypeELN9__gnu_cxx12_Lock_policyE2ELb0ELb0EEdeEv(ptr noundef nonnull align 1 dereferenceable(1) %arg) #13
  %12 = icmp eq ptr %call6, null
  br i1 %12, label %dynamic_cast.null, label %dynamic_cast.notnull

dynamic_cast.notnull:                             ; preds = %do.body
  %13 = call ptr @__dynamic_cast(ptr %call6, ptr @_ZTIN6Assimp4STEP7EXPRESS8DataTypeE, ptr @_ZTIN6Assimp4STEP7EXPRESS9ISDERIVEDE, i64 0) #13
  br label %dynamic_cast.end

dynamic_cast.null:                                ; preds = %do.body
  br label %dynamic_cast.end

dynamic_cast.end:                                 ; preds = %dynamic_cast.null, %dynamic_cast.notnull
  %14 = phi ptr [ %13, %dynamic_cast.notnull ], [ null, %dynamic_cast.null ]
  %tobool = icmp ne ptr %14, null
  br i1 %tobool, label %if.then7, label %if.end12

if.then7:                                         ; preds = %dynamic_cast.end
  %15 = load ptr, ptr %in.addr, align 8
  %add.ptr = getelementptr inbounds i8, ptr %15, i64 32
  %aux_is_derived = getelementptr inbounds %"struct.Assimp::STEP::ObjectHelper.121", ptr %add.ptr, i32 0, i32 1
  invoke void @_ZNSt6bitsetILm1EEixEm(ptr sret(%"class.std::bitset<1>::reference") align 8 %ref.tmp8, ptr noundef nonnull align 8 dereferenceable(8) %aux_is_derived, i64 noundef 0)
          to label %invoke.cont10 unwind label %lpad9

invoke.cont10:                                    ; preds = %if.then7
  %call11 = call noundef nonnull align 8 dereferenceable(16) ptr @_ZNSt6bitsetILm1EE9referenceaSEb(ptr noundef nonnull align 8 dereferenceable(16) %ref.tmp8, i1 noundef zeroext true) #13
  call void @_ZNSt6bitsetILm1EE9referenceD2Ev(ptr noundef nonnull align 8 dereferenceable(16) %ref.tmp8) #13
  store i32 2, ptr %cleanup.dest.slot, align 4
  br label %cleanup

lpad9:                                            ; preds = %if.then7
  %16 = landingpad { ptr, i32 }
          cleanup
  %17 = extractvalue { ptr, i32 } %16, 0
  store ptr %17, ptr %exn.slot, align 8
  %18 = extractvalue { ptr, i32 } %16, 1
  store i32 %18, ptr %ehselector.slot, align 4
  br label %ehcleanup36

if.end12:                                         ; preds = %dynamic_cast.end
  %19 = load ptr, ptr %in.addr, align 8
  %Bounds = getelementptr inbounds %"struct.Assimp::IFC::Schema_2x3::IfcFace", ptr %19, i32 0, i32 2
  %20 = load ptr, ptr %db.addr, align 8
  invoke void @_ZN6Assimp4STEP14GenericConvertINS0_4LazyINS_3IFC10Schema_2x312IfcFaceBoundEEELm1ELm0EEEvRNS0_6ListOfIT_XT0_EXT1_EEERKSt10shared_ptrIKNS0_7EXPRESS8DataTypeEERKNS0_2DBE(ptr noundef nonnull align 8 dereferenceable(24) %Bounds, ptr noundef nonnull align 8 dereferenceable(16) %arg, ptr noundef nonnull align 8 dereferenceable(376) %20)
          to label %invoke.cont14 unwind label %lpad13

invoke.cont14:                                    ; preds = %if.end12
  store i32 2, ptr %cleanup.dest.slot, align 4
  br label %cleanup

lpad13:                                           ; preds = %if.end12
  %21 = landingpad { ptr, i32 }
          cleanup
          catch ptr @_ZTIN6Assimp4STEP9TypeErrorE
  %22 = extractvalue { ptr, i32 } %21, 0
  store ptr %22, ptr %exn.slot, align 8
  %23 = extractvalue { ptr, i32 } %21, 1
  store i32 %23, ptr %ehselector.slot, align 4
  br label %catch.dispatch

catch.dispatch:                                   ; preds = %lpad13
  %sel = load i32, ptr %ehselector.slot, align 4
  %24 = call i32 @llvm.eh.typeid.for(ptr @_ZTIN6Assimp4STEP9TypeErrorE) #13
  %matches = icmp eq i32 %sel, %24
  br i1 %matches, label %catch, label %ehcleanup36

catch:                                            ; preds = %catch.dispatch
  %exn = load ptr, ptr %exn.slot, align 8
  %25 = call ptr @__cxa_begin_catch(ptr %exn) #13
  store ptr %25, ptr %t, align 8
  store i1 true, ptr %cleanup.isactive26, align 1
  %exception15 = call ptr @__cxa_allocate_exception(i64 16) #13
  %26 = load ptr, ptr %t, align 8
  %vtable = load ptr, ptr %26, align 8
  %vfn = getelementptr inbounds ptr, ptr %vtable, i64 2
  %27 = load ptr, ptr %vfn, align 8
  %call17 = call noundef ptr %27(ptr noundef nonnull align 8 dereferenceable(16) %26) #13
  call void @_ZNSaIcEC1Ev(ptr noundef nonnull align 1 dereferenceable(1) %ref.tmp19) #13
  invoke void @_ZNSt7__cxx1112basic_stringIcSt11char_traitsIcESaIcEEC2IS3_EEPKcRKS3_(ptr noundef nonnull align 8 dereferenceable(32) %ref.tmp18, ptr noundef @.str.4, ptr noundef nonnull align 1 dereferenceable(1) %ref.tmp19)
          to label %invoke.cont21 unwind label %lpad20

invoke.cont21:                                    ; preds = %catch
  invoke void @_ZStplIcSt11char_traitsIcESaIcEENSt7__cxx1112basic_stringIT_T0_T1_EEPKS5_OS8_(ptr sret(%"class.std::__cxx11::basic_string") align 8 %ref.tmp16, ptr noundef %call17, ptr noundef nonnull align 8 dereferenceable(32) %ref.tmp18)
          to label %invoke.cont23 unwind label %lpad22

invoke.cont23:                                    ; preds = %invoke.cont21
  invoke void @_ZN6Assimp4STEP9TypeErrorC1ERKNSt7__cxx1112basic_stringIcSt11char_traitsIcESaIcEEEmm(ptr noundef nonnull align 8 dereferenceable(16) %exception15, ptr noundef nonnull align 8 dereferenceable(32) %ref.tmp16, i64 noundef -1, i64 noundef 1152921504606846975)
          to label %invoke.cont25 unwind label %lpad24

invoke.cont25:                                    ; preds = %invoke.cont23
  store i1 false, ptr %cleanup.isactive26, align 1
  invoke void @__cxa_throw(ptr %exception15, ptr @_ZTIN6Assimp4STEP9TypeErrorE, ptr @_ZN6Assimp4STEP9TypeErrorD2Ev) #14
          to label %unreachable unwind label %lpad24

lpad20:                                           ; preds = %catch
  %28 = landingpad { ptr, i32 }
          cleanup
  %29 = extractvalue { ptr, i32 } %28, 0
  store ptr %29, ptr %exn.slot, align 8
  %30 = extractvalue { ptr, i32 } %28, 1
  store i32 %30, ptr %ehselector.slot, align 4
  br label %ehcleanup29

lpad22:                                           ; preds = %invoke.cont21
  %31 = landingpad { ptr, i32 }
          cleanup
  %32 = extractvalue { ptr, i32 } %31, 0
  store ptr %32, ptr %exn.slot, align 8
  %33 = extractvalue { ptr, i32 } %31, 1
  store i32 %33, ptr %ehselector.slot, align 4
  br label %ehcleanup28

lpad24:                                           ; preds = %invoke.cont25, %invoke.cont23
  %34 = landingpad { ptr, i32 }
          cleanup
  %35 = extractvalue { ptr, i32 } %34, 0
  store ptr %35, ptr %exn.slot, align 8
  %36 = extractvalue { ptr, i32 } %34, 1
  store i32 %36, ptr %ehselector.slot, align 4
  call void @_ZNSt7__cxx1112basic_stringIcSt11char_traitsIcESaIcEED1Ev(ptr noundef nonnull align 8 dereferenceable(32) %ref.tmp16) #13
  br label %ehcleanup28

ehcleanup28:                                      ; preds = %lpad24, %lpad22
  call void @_ZNSt7__cxx1112basic_stringIcSt11char_traitsIcESaIcEED1Ev(ptr noundef nonnull align 8 dereferenceable(32) %ref.tmp18) #13
  br label %ehcleanup29

ehcleanup29:                                      ; preds = %ehcleanup28, %lpad20
  call void @_ZNSaIcED1Ev(ptr noundef nonnull align 1 dereferenceable(1) %ref.tmp19) #13
  %cleanup.is_active31 = load i1, ptr %cleanup.isactive26, align 1
  br i1 %cleanup.is_active31, label %cleanup.action32, label %cleanup.done33

cleanup.action32:                                 ; preds = %ehcleanup29
  call void @__cxa_free_exception(ptr %exception15) #13
  br label %cleanup.done33

cleanup.done33:                                   ; preds = %cleanup.action32, %ehcleanup29
  invoke void @__cxa_end_catch()
          to label %invoke.cont35 unwind label %terminate.lpad

invoke.cont35:                                    ; preds = %cleanup.done33
  br label %ehcleanup36

try.cont:                                         ; No predecessors!
  store i32 0, ptr %cleanup.dest.slot, align 4
  br label %cleanup

cleanup:                                          ; preds = %try.cont, %invoke.cont14, %invoke.cont10
  call void @_ZNSt10shared_ptrIKN6Assimp4STEP7EXPRESS8DataTypeEED2Ev(ptr noundef nonnull align 8 dereferenceable(16) %arg) #13
  %cleanup.dest = load i32, ptr %cleanup.dest.slot, align 4
  switch i32 %cleanup.dest, label %unreachable [
    i32 0, label %cleanup.cont
    i32 2, label %do.end
  ]

cleanup.cont:                                     ; preds = %cleanup
  br label %do.end

do.end:                                           ; preds = %cleanup.cont, %cleanup
  %37 = load i64, ptr %base, align 8
  ret i64 %37

ehcleanup36:                                      ; preds = %invoke.cont35, %catch.dispatch, %lpad9
  call void @_ZNSt10shared_ptrIKN6Assimp4STEP7EXPRESS8DataTypeEED2Ev(ptr noundef nonnull align 8 dereferenceable(16) %arg) #13
  br label %eh.resume

eh.resume:                                        ; preds = %ehcleanup36, %cleanup.done
  %exn37 = load ptr, ptr %exn.slot, align 8
  %sel38 = load i32, ptr %ehselector.slot, align 4
  %lpad.val = insertvalue { ptr, i32 } poison, ptr %exn37, 0
  %lpad.val39 = insertvalue { ptr, i32 } %lpad.val, i32 %sel38, 1
  resume { ptr, i32 } %lpad.val39

terminate.lpad:                                   ; preds = %cleanup.done33
  %38 = landingpad { ptr, i32 }
          catch ptr null
  %39 = extractvalue { ptr, i32 } %38, 0
  call void @__clang_call_terminate(ptr %39) #12
  unreachable

unreachable:                                      ; preds = %cleanup, %invoke.cont25, %invoke.cont4
  unreachable
}

declare noundef i64 @_ZN6Assimp4STEP11GenericFillINS_3IFC10Schema_2x332IfcTopologicalRepresentationItemEEEmRKNS0_2DBERKNS0_7EXPRESS4LISTEPT_(ptr noundef nonnull align 8 dereferenceable(376), ptr noundef nonnull align 8 dereferenceable(32), ptr noundef) #3

; Function Attrs: mustprogress nounwind uwtable
define linkonce_odr hidden noundef nonnull align 8 dereferenceable(8) ptr @_ZNKSt19__shared_ptr_accessIKN6Assimp4STEP7EXPRESS8DataTypeELN9__gnu_cxx12_Lock_policyE2ELb0ELb0EEdeEv(ptr noundef nonnull align 1 dereferenceable(1) %this) #0 comdat align 2 {
entry:
  %this.addr = alloca ptr, align 8
  store ptr %this, ptr %this.addr, align 8
  %this1 = load ptr, ptr %this.addr, align 8
  br label %do.body

do.body:                                          ; preds = %entry
  br label %do.cond

do.cond:                                          ; preds = %do.body
  br label %do.end

do.end:                                           ; preds = %do.cond
  %call = call noundef ptr @_ZNKSt19__shared_ptr_accessIKN6Assimp4STEP7EXPRESS8DataTypeELN9__gnu_cxx12_Lock_policyE2ELb0ELb0EE6_M_getEv(ptr noundef nonnull align 1 dereferenceable(1) %this1) #13
  ret ptr %call
}

; Function Attrs: nounwind memory(read)
declare ptr @__dynamic_cast(ptr, ptr, ptr, i64) #7

; Function Attrs: mustprogress nounwind uwtable
define linkonce_odr void @_ZNSt6bitsetILm1EEixEm(ptr noalias sret(%"class.std::bitset<1>::reference") align 8 %agg.result, ptr noundef nonnull align 8 dereferenceable(8) %this, i64 noundef %__position) #0 comdat align 2 {
entry:
  %result.ptr = alloca ptr, align 8
  %this.addr = alloca ptr, align 8
  %__position.addr = alloca i64, align 8
  store ptr %agg.result, ptr %result.ptr, align 8
  store ptr %this, ptr %this.addr, align 8
  store i64 %__position, ptr %__position.addr, align 8
  %this1 = load ptr, ptr %this.addr, align 8
  %0 = load i64, ptr %__position.addr, align 8
  call void @_ZNSt6bitsetILm1EE9referenceC2ERS0_m(ptr noundef nonnull align 8 dereferenceable(16) %agg.result, ptr noundef nonnull align 8 dereferenceable(8) %this1, i64 noundef %0) #13
  ret void
}

; Function Attrs: mustprogress nounwind uwtable
define linkonce_odr noundef nonnull align 8 dereferenceable(16) ptr @_ZNSt6bitsetILm1EE9referenceaSEb(ptr noundef nonnull align 8 dereferenceable(16) %this, i1 noundef zeroext %__x) #0 comdat align 2 {
entry:
  %this.addr = alloca ptr, align 8
  %__x.addr = alloca i8, align 1
  store ptr %this, ptr %this.addr, align 8
  %frombool = zext i1 %__x to i8
  store i8 %frombool, ptr %__x.addr, align 1
  %this1 = load ptr, ptr %this.addr, align 8
  %0 = load i8, ptr %__x.addr, align 1
  %tobool = trunc i8 %0 to i1
  br i1 %tobool, label %if.then, label %if.else

if.then:                                          ; preds = %entry
  %_M_bpos = getelementptr inbounds %"class.std::bitset<1>::reference", ptr %this1, i32 0, i32 1
  %1 = load i64, ptr %_M_bpos, align 8
  %call = call noundef i64 @_ZNSt12_Base_bitsetILm1EE10_S_maskbitEm(i64 noundef %1) #13
  %_M_wp = getelementptr inbounds %"class.std::bitset<1>::reference", ptr %this1, i32 0, i32 0
  %2 = load ptr, ptr %_M_wp, align 8
  %3 = load i64, ptr %2, align 8
  %or = or i64 %3, %call
  store i64 %or, ptr %2, align 8
  br label %if.end

if.else:                                          ; preds = %entry
  %_M_bpos2 = getelementptr inbounds %"class.std::bitset<1>::reference", ptr %this1, i32 0, i32 1
  %4 = load i64, ptr %_M_bpos2, align 8
  %call3 = call noundef i64 @_ZNSt12_Base_bitsetILm1EE10_S_maskbitEm(i64 noundef %4) #13
  %not = xor i64 %call3, -1
  %_M_wp4 = getelementptr inbounds %"class.std::bitset<1>::reference", ptr %this1, i32 0, i32 0
  %5 = load ptr, ptr %_M_wp4, align 8
  %6 = load i64, ptr %5, align 8
  %and = and i64 %6, %not
  store i64 %and, ptr %5, align 8
  br label %if.end

if.end:                                           ; preds = %if.else, %if.then
  ret ptr %this1
}

; Function Attrs: mustprogress nounwind uwtable
define linkonce_odr void @_ZNSt6bitsetILm1EE9referenceD2Ev(ptr noundef nonnull align 8 dereferenceable(16) %this) unnamed_addr #0 comdat align 2 {
entry:
  %this.addr = alloca ptr, align 8
  store ptr %this, ptr %this.addr, align 8
  ret void
}

; Function Attrs: mustprogress uwtable
define linkonce_odr hidden void @_ZN6Assimp4STEP14GenericConvertINS0_4LazyINS_3IFC10Schema_2x312IfcFaceBoundEEELm1ELm0EEEvRNS0_6ListOfIT_XT0_EXT1_EEERKSt10shared_ptrIKNS0_7EXPRESS8DataTypeEERKNS0_2DBE(ptr noundef nonnull align 8 dereferenceable(24) %a, ptr noundef nonnull align 8 dereferenceable(16) %b, ptr noundef nonnull align 8 dereferenceable(376) %db) #2 comdat {
entry:
  %a.addr = alloca ptr, align 8
  %b.addr = alloca ptr, align 8
  %db.addr = alloca ptr, align 8
  %ref.tmp = alloca %"struct.Assimp::STEP::InternGenericConvertList.869", align 1
  store ptr %a, ptr %a.addr, align 8
  store ptr %b, ptr %b.addr, align 8
  store ptr %db, ptr %db.addr, align 8
  %0 = load ptr, ptr %a.addr, align 8
  %1 = load ptr, ptr %b.addr, align 8
  %2 = load ptr, ptr %db.addr, align 8
  call void @_ZN6Assimp4STEP24InternGenericConvertListINS0_4LazyINS_3IFC10Schema_2x312IfcFaceBoundEEELm1ELm0EEclERNS0_6ListOfIS6_Lm1ELm0EEERKSt10shared_ptrIKNS0_7EXPRESS8DataTypeEERKNS0_2DBE(ptr noundef nonnull align 1 dereferenceable(1) %ref.tmp, ptr noundef nonnull align 8 dereferenceable(24) %0, ptr noundef nonnull align 8 dereferenceable(16) %1, ptr noundef nonnull align 8 dereferenceable(376) %2)
  ret void
}

; Function Attrs: mustprogress uwtable
define hidden noundef i64 @_ZN6Assimp4STEP11GenericFillINS_3IFC10Schema_2x326IfcStructuralSurfaceMemberEEEmRKNS0_2DBERKNS0_7EXPRESS4LISTEPT_(ptr noundef nonnull align 8 dereferenceable(376) %db, ptr noundef nonnull align 8 dereferenceable(32) %params, ptr noundef %in) #2 {
entry:
  %db.addr = alloca ptr, align 8
  %params.addr = alloca ptr, align 8
  %in.addr = alloca ptr, align 8
  %base = alloca i64, align 8
  store ptr %db, ptr %db.addr, align 8
  store ptr %params, ptr %params.addr, align 8
  store ptr %in, ptr %in.addr, align 8
  %0 = load ptr, ptr %db.addr, align 8
  %1 = load ptr, ptr %params.addr, align 8
  %2 = load ptr, ptr %in.addr, align 8
  %call = call noundef i64 @_ZN6Assimp4STEP11GenericFillINS_3IFC10Schema_2x319IfcStructuralMemberEEEmRKNS0_2DBERKNS0_7EXPRESS4LISTEPT_(ptr noundef nonnull align 8 dereferenceable(376) %0, ptr noundef nonnull align 8 dereferenceable(32) %1, ptr noundef %2)
  store i64 %call, ptr %base, align 8
  %3 = load i64, ptr %base, align 8
  ret i64 %3
}

declare noundef i64 @_ZN6Assimp4STEP11GenericFillINS_3IFC10Schema_2x319IfcStructuralMemberEEEmRKNS0_2DBERKNS0_7EXPRESS4LISTEPT_(ptr noundef nonnull align 8 dereferenceable(376), ptr noundef nonnull align 8 dereferenceable(32), ptr noundef) #3

; Function Attrs: mustprogress uwtable
define hidden noundef i64 @_ZN6Assimp4STEP11GenericFillINS_3IFC10Schema_2x333IfcStructuralSurfaceMemberVaryingEEEmRKNS0_2DBERKNS0_7EXPRESS4LISTEPT_(ptr noundef nonnull align 8 dereferenceable(376) %db, ptr noundef nonnull align 8 dereferenceable(32) %params, ptr noundef %in) #2 {
entry:
  %db.addr = alloca ptr, align 8
  %params.addr = alloca ptr, align 8
  %in.addr = alloca ptr, align 8
  %base = alloca i64, align 8
  store ptr %db, ptr %db.addr, align 8
  store ptr %params, ptr %params.addr, align 8
  store ptr %in, ptr %in.addr, align 8
  %0 = load ptr, ptr %db.addr, align 8
  %1 = load ptr, ptr %params.addr, align 8
  %2 = load ptr, ptr %in.addr, align 8
  %call = call noundef i64 @_ZN6Assimp4STEP11GenericFillINS_3IFC10Schema_2x326IfcStructuralSurfaceMemberEEEmRKNS0_2DBERKNS0_7EXPRESS4LISTEPT_(ptr noundef nonnull align 8 dereferenceable(376) %0, ptr noundef nonnull align 8 dereferenceable(32) %1, ptr noundef %2)
  store i64 %call, ptr %base, align 8
  %3 = load i64, ptr %base, align 8
  ret i64 %3
}

; Function Attrs: mustprogress uwtable
define hidden noundef i64 @_ZN6Assimp4STEP11GenericFillINS_3IFC10Schema_2x314IfcFaceSurfaceEEEmRKNS0_2DBERKNS0_7EXPRESS4LISTEPT_(ptr noundef nonnull align 8 dereferenceable(376) %db, ptr noundef nonnull align 8 dereferenceable(32) %params, ptr noundef %in) #2 {
entry:
  %db.addr = alloca ptr, align 8
  %params.addr = alloca ptr, align 8
  %in.addr = alloca ptr, align 8
  %base = alloca i64, align 8
  store ptr %db, ptr %db.addr, align 8
  store ptr %params, ptr %params.addr, align 8
  store ptr %in, ptr %in.addr, align 8
  %0 = load ptr, ptr %db.addr, align 8
  %1 = load ptr, ptr %params.addr, align 8
  %2 = load ptr, ptr %in.addr, align 8
  %call = call noundef i64 @_ZN6Assimp4STEP11GenericFillINS_3IFC10Schema_2x37IfcFaceEEEmRKNS0_2DBERKNS0_7EXPRESS4LISTEPT_(ptr noundef nonnull align 8 dereferenceable(376) %0, ptr noundef nonnull align 8 dereferenceable(32) %1, ptr noundef %2)
  store i64 %call, ptr %base, align 8
  %3 = load i64, ptr %base, align 8
  ret i64 %3
}

; Function Attrs: mustprogress uwtable
define hidden noundef i64 @_ZN6Assimp4STEP11GenericFillINS_3IFC10Schema_2x315IfcCostScheduleEEEmRKNS0_2DBERKNS0_7EXPRESS4LISTEPT_(ptr noundef nonnull align 8 dereferenceable(376) %db, ptr noundef nonnull align 8 dereferenceable(32) %params, ptr noundef %in) #2 {
entry:
  %db.addr = alloca ptr, align 8
  %params.addr = alloca ptr, align 8
  %in.addr = alloca ptr, align 8
  %base = alloca i64, align 8
  store ptr %db, ptr %db.addr, align 8
  store ptr %params, ptr %params.addr, align 8
  store ptr %in, ptr %in.addr, align 8
  %0 = load ptr, ptr %db.addr, align 8
  %1 = load ptr, ptr %params.addr, align 8
  %2 = load ptr, ptr %in.addr, align 8
  %call = call noundef i64 @_ZN6Assimp4STEP11GenericFillINS_3IFC10Schema_2x310IfcControlEEEmRKNS0_2DBERKNS0_7EXPRESS4LISTEPT_(ptr noundef nonnull align 8 dereferenceable(376) %0, ptr noundef nonnull align 8 dereferenceable(32) %1, ptr noundef %2)
  store i64 %call, ptr %base, align 8
  %3 = load i64, ptr %base, align 8
  ret i64 %3
}

; Function Attrs: mustprogress uwtable
define hidden noundef i64 @_ZN6Assimp4STEP11GenericFillINS_3IFC10Schema_2x315IfcPlanarExtentEEEmRKNS0_2DBERKNS0_7EXPRESS4LISTEPT_(ptr noundef nonnull align 8 dereferenceable(376) %db, ptr noundef nonnull align 8 dereferenceable(32) %params, ptr noundef %in) #2 {
entry:
  %db.addr = alloca ptr, align 8
  %params.addr = alloca ptr, align 8
  %in.addr = alloca ptr, align 8
  %base = alloca i64, align 8
  store ptr %db, ptr %db.addr, align 8
  store ptr %params, ptr %params.addr, align 8
  store ptr %in, ptr %in.addr, align 8
  %0 = load ptr, ptr %db.addr, align 8
  %1 = load ptr, ptr %params.addr, align 8
  %2 = load ptr, ptr %in.addr, align 8
  %call = call noundef i64 @_ZN6Assimp4STEP11GenericFillINS_3IFC10Schema_2x330IfcGeometricRepresentationItemEEEmRKNS0_2DBERKNS0_7EXPRESS4LISTEPT_(ptr noundef nonnull align 8 dereferenceable(376) %0, ptr noundef nonnull align 8 dereferenceable(32) %1, ptr noundef %2)
  store i64 %call, ptr %base, align 8
  %3 = load i64, ptr %base, align 8
  ret i64 %3
}

; Function Attrs: mustprogress uwtable
define hidden noundef i64 @_ZN6Assimp4STEP11GenericFillINS_3IFC10Schema_2x312IfcPlanarBoxEEEmRKNS0_2DBERKNS0_7EXPRESS4LISTEPT_(ptr noundef nonnull align 8 dereferenceable(376) %db, ptr noundef nonnull align 8 dereferenceable(32) %params, ptr noundef %in) #2 {
entry:
  %db.addr = alloca ptr, align 8
  %params.addr = alloca ptr, align 8
  %in.addr = alloca ptr, align 8
  %base = alloca i64, align 8
  store ptr %db, ptr %db.addr, align 8
  store ptr %params, ptr %params.addr, align 8
  store ptr %in, ptr %in.addr, align 8
  %0 = load ptr, ptr %db.addr, align 8
  %1 = load ptr, ptr %params.addr, align 8
  %2 = load ptr, ptr %in.addr, align 8
  %call = call noundef i64 @_ZN6Assimp4STEP11GenericFillINS_3IFC10Schema_2x315IfcPlanarExtentEEEmRKNS0_2DBERKNS0_7EXPRESS4LISTEPT_(ptr noundef nonnull align 8 dereferenceable(376) %0, ptr noundef nonnull align 8 dereferenceable(32) %1, ptr noundef %2)
  store i64 %call, ptr %base, align 8
  %3 = load i64, ptr %base, align 8
  ret i64 %3
}

; Function Attrs: mustprogress uwtable
define hidden noundef i64 @_ZN6Assimp4STEP11GenericFillINS_3IFC10Schema_2x322IfcColourSpecificationEEEmRKNS0_2DBERKNS0_7EXPRESS4LISTEPT_(ptr noundef nonnull align 8 dereferenceable(376) %db, ptr noundef nonnull align 8 dereferenceable(32) %params, ptr noundef %in) #2 personality ptr @__gxx_personality_v0 {
entry:
  %db.addr = alloca ptr, align 8
  %params.addr = alloca ptr, align 8
  %in.addr = alloca ptr, align 8
  %base = alloca i64, align 8
  %ref.tmp = alloca %"class.std::__cxx11::basic_string", align 8
  %ref.tmp1 = alloca %"class.std::allocator", align 1
  %exn.slot = alloca ptr, align 8
  %ehselector.slot = alloca i32, align 4
  %cleanup.isactive = alloca i1, align 1
  %arg = alloca %"class.std::shared_ptr.29", align 8
  %ref.tmp7 = alloca %"class.std::bitset<1>::reference", align 8
  %cleanup.dest.slot = alloca i32, align 4
  %t = alloca ptr, align 8
  %ref.tmp22 = alloca %"class.std::__cxx11::basic_string", align 8
  %ref.tmp24 = alloca %"class.std::__cxx11::basic_string", align 8
  %ref.tmp25 = alloca %"class.std::allocator", align 1
  %cleanup.isactive32 = alloca i1, align 1
  store ptr %db, ptr %db.addr, align 8
  store ptr %params, ptr %params.addr, align 8
  store ptr %in, ptr %in.addr, align 8
  store i64 0, ptr %base, align 8
  %0 = load ptr, ptr %params.addr, align 8
  %call = call noundef i64 @_ZNK6Assimp4STEP7EXPRESS4LIST7GetSizeEv(ptr noundef nonnull align 8 dereferenceable(32) %0)
  %cmp = icmp ult i64 %call, 1
  br i1 %cmp, label %if.then, label %if.end

if.then:                                          ; preds = %entry
  store i1 true, ptr %cleanup.isactive, align 1
  %exception = call ptr @__cxa_allocate_exception(i64 16) #13
  call void @_ZNSaIcEC1Ev(ptr noundef nonnull align 1 dereferenceable(1) %ref.tmp1) #13
  invoke void @_ZNSt7__cxx1112basic_stringIcSt11char_traitsIcESaIcEEC2IS3_EEPKcRKS3_(ptr noundef nonnull align 8 dereferenceable(32) %ref.tmp, ptr noundef @.str.5, ptr noundef nonnull align 1 dereferenceable(1) %ref.tmp1)
          to label %invoke.cont unwind label %lpad

invoke.cont:                                      ; preds = %if.then
  invoke void @_ZN6Assimp4STEP9TypeErrorC1ERKNSt7__cxx1112basic_stringIcSt11char_traitsIcESaIcEEEmm(ptr noundef nonnull align 8 dereferenceable(16) %exception, ptr noundef nonnull align 8 dereferenceable(32) %ref.tmp, i64 noundef -1, i64 noundef 1152921504606846975)
          to label %invoke.cont3 unwind label %lpad2

invoke.cont3:                                     ; preds = %invoke.cont
  store i1 false, ptr %cleanup.isactive, align 1
  invoke void @__cxa_throw(ptr %exception, ptr @_ZTIN6Assimp4STEP9TypeErrorE, ptr @_ZN6Assimp4STEP9TypeErrorD2Ev) #14
          to label %unreachable unwind label %lpad2

lpad:                                             ; preds = %if.then
  %1 = landingpad { ptr, i32 }
          cleanup
  %2 = extractvalue { ptr, i32 } %1, 0
  store ptr %2, ptr %exn.slot, align 8
  %3 = extractvalue { ptr, i32 } %1, 1
  store i32 %3, ptr %ehselector.slot, align 4
  br label %ehcleanup

lpad2:                                            ; preds = %invoke.cont3, %invoke.cont
  %4 = landingpad { ptr, i32 }
          cleanup
  %5 = extractvalue { ptr, i32 } %4, 0
  store ptr %5, ptr %exn.slot, align 8
  %6 = extractvalue { ptr, i32 } %4, 1
  store i32 %6, ptr %ehselector.slot, align 4
  call void @_ZNSt7__cxx1112basic_stringIcSt11char_traitsIcESaIcEED1Ev(ptr noundef nonnull align 8 dereferenceable(32) %ref.tmp) #13
  br label %ehcleanup

ehcleanup:                                        ; preds = %lpad2, %lpad
  call void @_ZNSaIcED1Ev(ptr noundef nonnull align 1 dereferenceable(1) %ref.tmp1) #13
  %cleanup.is_active = load i1, ptr %cleanup.isactive, align 1
  br i1 %cleanup.is_active, label %cleanup.action, label %cleanup.done

cleanup.action:                                   ; preds = %ehcleanup
  call void @__cxa_free_exception(ptr %exception) #13
  br label %cleanup.done

cleanup.done:                                     ; preds = %cleanup.action, %ehcleanup
  br label %eh.resume

if.end:                                           ; preds = %entry
  br label %do.body

do.body:                                          ; preds = %if.end
  %7 = load ptr, ptr %params.addr, align 8
  %8 = load i64, ptr %base, align 8
  %inc = add i64 %8, 1
  store i64 %inc, ptr %base, align 8
  call void @_ZNK6Assimp4STEP7EXPRESS4LISTixEm(ptr sret(%"class.std::shared_ptr.29") align 8 %arg, ptr noundef nonnull align 8 dereferenceable(32) %7, i64 noundef %8)
  %call5 = call noundef nonnull align 8 dereferenceable(8) ptr @_ZNKSt19__shared_ptr_accessIKN6Assimp4STEP7EXPRESS8DataTypeELN9__gnu_cxx12_Lock_policyE2ELb0ELb0EEdeEv(ptr noundef nonnull align 1 dereferenceable(1) %arg) #13
  %9 = icmp eq ptr %call5, null
  br i1 %9, label %dynamic_cast.null, label %dynamic_cast.notnull

dynamic_cast.notnull:                             ; preds = %do.body
  %10 = call ptr @__dynamic_cast(ptr %call5, ptr @_ZTIN6Assimp4STEP7EXPRESS8DataTypeE, ptr @_ZTIN6Assimp4STEP7EXPRESS9ISDERIVEDE, i64 0) #13
  br label %dynamic_cast.end

dynamic_cast.null:                                ; preds = %do.body
  br label %dynamic_cast.end

dynamic_cast.end:                                 ; preds = %dynamic_cast.null, %dynamic_cast.notnull
  %11 = phi ptr [ %10, %dynamic_cast.notnull ], [ null, %dynamic_cast.null ]
  %tobool = icmp ne ptr %11, null
  br i1 %tobool, label %if.then6, label %if.end11

if.then6:                                         ; preds = %dynamic_cast.end
  %12 = load ptr, ptr %in.addr, align 8
  %aux_is_derived = getelementptr inbounds %"struct.Assimp::STEP::ObjectHelper.156", ptr %12, i32 0, i32 1
  invoke void @_ZNSt6bitsetILm1EEixEm(ptr sret(%"class.std::bitset<1>::reference") align 8 %ref.tmp7, ptr noundef nonnull align 8 dereferenceable(8) %aux_is_derived, i64 noundef 0)
          to label %invoke.cont9 unwind label %lpad8

invoke.cont9:                                     ; preds = %if.then6
  %call10 = call noundef nonnull align 8 dereferenceable(16) ptr @_ZNSt6bitsetILm1EE9referenceaSEb(ptr noundef nonnull align 8 dereferenceable(16) %ref.tmp7, i1 noundef zeroext true) #13
  call void @_ZNSt6bitsetILm1EE9referenceD2Ev(ptr noundef nonnull align 8 dereferenceable(16) %ref.tmp7) #13
  store i32 2, ptr %cleanup.dest.slot, align 4
  br label %cleanup

lpad8:                                            ; preds = %if.then6
  %13 = landingpad { ptr, i32 }
          cleanup
  %14 = extractvalue { ptr, i32 } %13, 0
  store ptr %14, ptr %exn.slot, align 8
  %15 = extractvalue { ptr, i32 } %13, 1
  store i32 %15, ptr %ehselector.slot, align 4
  br label %ehcleanup42

if.end11:                                         ; preds = %dynamic_cast.end
  %call12 = call noundef nonnull align 8 dereferenceable(8) ptr @_ZNKSt19__shared_ptr_accessIKN6Assimp4STEP7EXPRESS8DataTypeELN9__gnu_cxx12_Lock_policyE2ELb0ELb0EEdeEv(ptr noundef nonnull align 1 dereferenceable(1) %arg) #13
  %16 = icmp eq ptr %call12, null
  br i1 %16, label %dynamic_cast.null14, label %dynamic_cast.notnull13

dynamic_cast.notnull13:                           ; preds = %if.end11
  %17 = call ptr @__dynamic_cast(ptr %call12, ptr @_ZTIN6Assimp4STEP7EXPRESS8DataTypeE, ptr @_ZTIN6Assimp4STEP7EXPRESS5UNSETE, i64 0) #13
  br label %dynamic_cast.end15

dynamic_cast.null14:                              ; preds = %if.end11
  br label %dynamic_cast.end15

dynamic_cast.end15:                               ; preds = %dynamic_cast.null14, %dynamic_cast.notnull13
  %18 = phi ptr [ %17, %dynamic_cast.notnull13 ], [ null, %dynamic_cast.null14 ]
  %tobool16 = icmp ne ptr %18, null
  br i1 %tobool16, label %if.then17, label %if.end18

if.then17:                                        ; preds = %dynamic_cast.end15
  store i32 2, ptr %cleanup.dest.slot, align 4
  br label %cleanup

if.end18:                                         ; preds = %dynamic_cast.end15
  %19 = load ptr, ptr %in.addr, align 8
  %Name = getelementptr inbounds %"struct.Assimp::IFC::Schema_2x3::IfcColourSpecification", ptr %19, i32 0, i32 1
  %20 = load ptr, ptr %db.addr, align 8
  invoke void @_ZN6Assimp4STEP14GenericConvertINS0_5MaybeINSt7__cxx1112basic_stringIcSt11char_traitsIcESaIcEEEEEEEvRT_RKSt10shared_ptrIKNS0_7EXPRESS8DataTypeEERKNS0_2DBE(ptr noundef nonnull align 8 dereferenceable(33) %Name, ptr noundef nonnull align 8 dereferenceable(16) %arg, ptr noundef nonnull align 8 dereferenceable(376) %20)
          to label %invoke.cont20 unwind label %lpad19

invoke.cont20:                                    ; preds = %if.end18
  store i32 2, ptr %cleanup.dest.slot, align 4
  br label %cleanup

lpad19:                                           ; preds = %if.end18
  %21 = landingpad { ptr, i32 }
          cleanup
          catch ptr @_ZTIN6Assimp4STEP9TypeErrorE
  %22 = extractvalue { ptr, i32 } %21, 0
  store ptr %22, ptr %exn.slot, align 8
  %23 = extractvalue { ptr, i32 } %21, 1
  store i32 %23, ptr %ehselector.slot, align 4
  br label %catch.dispatch

catch.dispatch:                                   ; preds = %lpad19
  %sel = load i32, ptr %ehselector.slot, align 4
  %24 = call i32 @llvm.eh.typeid.for(ptr @_ZTIN6Assimp4STEP9TypeErrorE) #13
  %matches = icmp eq i32 %sel, %24
  br i1 %matches, label %catch, label %ehcleanup42

catch:                                            ; preds = %catch.dispatch
  %exn = load ptr, ptr %exn.slot, align 8
  %25 = call ptr @__cxa_begin_catch(ptr %exn) #13
  store ptr %25, ptr %t, align 8
  store i1 true, ptr %cleanup.isactive32, align 1
  %exception21 = call ptr @__cxa_allocate_exception(i64 16) #13
  %26 = load ptr, ptr %t, align 8
  %vtable = load ptr, ptr %26, align 8
  %vfn = getelementptr inbounds ptr, ptr %vtable, i64 2
  %27 = load ptr, ptr %vfn, align 8
  %call23 = call noundef ptr %27(ptr noundef nonnull align 8 dereferenceable(16) %26) #13
  call void @_ZNSaIcEC1Ev(ptr noundef nonnull align 1 dereferenceable(1) %ref.tmp25) #13
  invoke void @_ZNSt7__cxx1112basic_stringIcSt11char_traitsIcESaIcEEC2IS3_EEPKcRKS3_(ptr noundef nonnull align 8 dereferenceable(32) %ref.tmp24, ptr noundef @.str.6, ptr noundef nonnull align 1 dereferenceable(1) %ref.tmp25)
          to label %invoke.cont27 unwind label %lpad26

invoke.cont27:                                    ; preds = %catch
  invoke void @_ZStplIcSt11char_traitsIcESaIcEENSt7__cxx1112basic_stringIT_T0_T1_EEPKS5_OS8_(ptr sret(%"class.std::__cxx11::basic_string") align 8 %ref.tmp22, ptr noundef %call23, ptr noundef nonnull align 8 dereferenceable(32) %ref.tmp24)
          to label %invoke.cont29 unwind label %lpad28

invoke.cont29:                                    ; preds = %invoke.cont27
  invoke void @_ZN6Assimp4STEP9TypeErrorC1ERKNSt7__cxx1112basic_stringIcSt11char_traitsIcESaIcEEEmm(ptr noundef nonnull align 8 dereferenceable(16) %exception21, ptr noundef nonnull align 8 dereferenceable(32) %ref.tmp22, i64 noundef -1, i64 noundef 1152921504606846975)
          to label %invoke.cont31 unwind label %lpad30

invoke.cont31:                                    ; preds = %invoke.cont29
  store i1 false, ptr %cleanup.isactive32, align 1
  invoke void @__cxa_throw(ptr %exception21, ptr @_ZTIN6Assimp4STEP9TypeErrorE, ptr @_ZN6Assimp4STEP9TypeErrorD2Ev) #14
          to label %unreachable unwind label %lpad30

lpad26:                                           ; preds = %catch
  %28 = landingpad { ptr, i32 }
          cleanup
  %29 = extractvalue { ptr, i32 } %28, 0
  store ptr %29, ptr %exn.slot, align 8
  %30 = extractvalue { ptr, i32 } %28, 1
  store i32 %30, ptr %ehselector.slot, align 4
  br label %ehcleanup35

lpad28:                                           ; preds = %invoke.cont27
  %31 = landingpad { ptr, i32 }
          cleanup
  %32 = extractvalue { ptr, i32 } %31, 0
  store ptr %32, ptr %exn.slot, align 8
  %33 = extractvalue { ptr, i32 } %31, 1
  store i32 %33, ptr %ehselector.slot, align 4
  br label %ehcleanup34

lpad30:                                           ; preds = %invoke.cont31, %invoke.cont29
  %34 = landingpad { ptr, i32 }
          cleanup
  %35 = extractvalue { ptr, i32 } %34, 0
  store ptr %35, ptr %exn.slot, align 8
  %36 = extractvalue { ptr, i32 } %34, 1
  store i32 %36, ptr %ehselector.slot, align 4
  call void @_ZNSt7__cxx1112basic_stringIcSt11char_traitsIcESaIcEED1Ev(ptr noundef nonnull align 8 dereferenceable(32) %ref.tmp22) #13
  br label %ehcleanup34

ehcleanup34:                                      ; preds = %lpad30, %lpad28
  call void @_ZNSt7__cxx1112basic_stringIcSt11char_traitsIcESaIcEED1Ev(ptr noundef nonnull align 8 dereferenceable(32) %ref.tmp24) #13
  br label %ehcleanup35

ehcleanup35:                                      ; preds = %ehcleanup34, %lpad26
  call void @_ZNSaIcED1Ev(ptr noundef nonnull align 1 dereferenceable(1) %ref.tmp25) #13
  %cleanup.is_active37 = load i1, ptr %cleanup.isactive32, align 1
  br i1 %cleanup.is_active37, label %cleanup.action38, label %cleanup.done39

cleanup.action38:                                 ; preds = %ehcleanup35
  call void @__cxa_free_exception(ptr %exception21) #13
  br label %cleanup.done39

cleanup.done39:                                   ; preds = %cleanup.action38, %ehcleanup35
  invoke void @__cxa_end_catch()
          to label %invoke.cont41 unwind label %terminate.lpad

invoke.cont41:                                    ; preds = %cleanup.done39
  br label %ehcleanup42

try.cont:                                         ; No predecessors!
  store i32 0, ptr %cleanup.dest.slot, align 4
  br label %cleanup

cleanup:                                          ; preds = %try.cont, %invoke.cont20, %if.then17, %invoke.cont9
  call void @_ZNSt10shared_ptrIKN6Assimp4STEP7EXPRESS8DataTypeEED2Ev(ptr noundef nonnull align 8 dereferenceable(16) %arg) #13
  %cleanup.dest = load i32, ptr %cleanup.dest.slot, align 4
  switch i32 %cleanup.dest, label %unreachable [
    i32 0, label %cleanup.cont
    i32 2, label %do.end
  ]

cleanup.cont:                                     ; preds = %cleanup
  br label %do.end

do.end:                                           ; preds = %cleanup.cont, %cleanup
  %37 = load i64, ptr %base, align 8
  ret i64 %37

ehcleanup42:                                      ; preds = %invoke.cont41, %catch.dispatch, %lpad8
  call void @_ZNSt10shared_ptrIKN6Assimp4STEP7EXPRESS8DataTypeEED2Ev(ptr noundef nonnull align 8 dereferenceable(16) %arg) #13
  br label %eh.resume

eh.resume:                                        ; preds = %ehcleanup42, %cleanup.done
  %exn43 = load ptr, ptr %exn.slot, align 8
  %sel44 = load i32, ptr %ehselector.slot, align 4
  %lpad.val = insertvalue { ptr, i32 } poison, ptr %exn43, 0
  %lpad.val45 = insertvalue { ptr, i32 } %lpad.val, i32 %sel44, 1
  resume { ptr, i32 } %lpad.val45

terminate.lpad:                                   ; preds = %cleanup.done39
  %38 = landingpad { ptr, i32 }
          catch ptr null
  %39 = extractvalue { ptr, i32 } %38, 0
  call void @__clang_call_terminate(ptr %39) #12
  unreachable

unreachable:                                      ; preds = %cleanup, %invoke.cont31, %invoke.cont3
  unreachable
}

; Function Attrs: mustprogress uwtable
define linkonce_odr hidden void @_ZN6Assimp4STEP14GenericConvertINS0_5MaybeINSt7__cxx1112basic_stringIcSt11char_traitsIcESaIcEEEEEEEvRT_RKSt10shared_ptrIKNS0_7EXPRESS8DataTypeEERKNS0_2DBE(ptr noundef nonnull align 8 dereferenceable(33) %a, ptr noundef nonnull align 8 dereferenceable(16) %b, ptr noundef nonnull align 8 dereferenceable(376) %db) #2 comdat {
entry:
  %a.addr = alloca ptr, align 8
  %b.addr = alloca ptr, align 8
  %db.addr = alloca ptr, align 8
  %ref.tmp = alloca %"struct.Assimp::STEP::InternGenericConvert.874", align 1
  store ptr %a, ptr %a.addr, align 8
  store ptr %b, ptr %b.addr, align 8
  store ptr %db, ptr %db.addr, align 8
  %0 = load ptr, ptr %a.addr, align 8
  %1 = load ptr, ptr %b.addr, align 8
  %2 = load ptr, ptr %db.addr, align 8
  call void @_ZN6Assimp4STEP20InternGenericConvertINS0_5MaybeINSt7__cxx1112basic_stringIcSt11char_traitsIcESaIcEEEEEEclERS9_RKSt10shared_ptrIKNS0_7EXPRESS8DataTypeEERKNS0_2DBE(ptr noundef nonnull align 1 dereferenceable(1) %ref.tmp, ptr noundef nonnull align 8 dereferenceable(33) %0, ptr noundef nonnull align 8 dereferenceable(16) %1, ptr noundef nonnull align 8 dereferenceable(376) %2)
  ret void
}

; Function Attrs: mustprogress uwtable
define hidden noundef i64 @_ZN6Assimp4STEP11GenericFillINS_3IFC10Schema_2x39IfcVectorEEEmRKNS0_2DBERKNS0_7EXPRESS4LISTEPT_(ptr noundef nonnull align 8 dereferenceable(376) %db, ptr noundef nonnull align 8 dereferenceable(32) %params, ptr noundef %in) #2 personality ptr @__gxx_personality_v0 {
entry:
  %db.addr = alloca ptr, align 8
  %params.addr = alloca ptr, align 8
  %in.addr = alloca ptr, align 8
  %base = alloca i64, align 8
  %ref.tmp = alloca %"class.std::__cxx11::basic_string", align 8
  %ref.tmp2 = alloca %"class.std::allocator", align 1
  %exn.slot = alloca ptr, align 8
  %ehselector.slot = alloca i32, align 4
  %cleanup.isactive = alloca i1, align 1
  %arg = alloca %"class.std::shared_ptr.29", align 8
  %cleanup.dest.slot = alloca i32, align 4
  %t = alloca ptr, align 8
  %ref.tmp9 = alloca %"class.std::__cxx11::basic_string", align 8
  %ref.tmp11 = alloca %"class.std::__cxx11::basic_string", align 8
  %ref.tmp12 = alloca %"class.std::allocator", align 1
  %cleanup.isactive19 = alloca i1, align 1
  %arg31 = alloca %"class.std::shared_ptr.29", align 8
  %t39 = alloca ptr, align 8
  %ref.tmp42 = alloca %"class.std::__cxx11::basic_string", align 8
  %ref.tmp46 = alloca %"class.std::__cxx11::basic_string", align 8
  %ref.tmp47 = alloca %"class.std::allocator", align 1
  %cleanup.isactive54 = alloca i1, align 1
  store ptr %db, ptr %db.addr, align 8
  store ptr %params, ptr %params.addr, align 8
  store ptr %in, ptr %in.addr, align 8
  %0 = load ptr, ptr %db.addr, align 8
  %1 = load ptr, ptr %params.addr, align 8
  %2 = load ptr, ptr %in.addr, align 8
  %call = call noundef i64 @_ZN6Assimp4STEP11GenericFillINS_3IFC10Schema_2x330IfcGeometricRepresentationItemEEEmRKNS0_2DBERKNS0_7EXPRESS4LISTEPT_(ptr noundef nonnull align 8 dereferenceable(376) %0, ptr noundef nonnull align 8 dereferenceable(32) %1, ptr noundef %2)
  store i64 %call, ptr %base, align 8
  %3 = load ptr, ptr %params.addr, align 8
  %call1 = call noundef i64 @_ZNK6Assimp4STEP7EXPRESS4LIST7GetSizeEv(ptr noundef nonnull align 8 dereferenceable(32) %3)
  %cmp = icmp ult i64 %call1, 2
  br i1 %cmp, label %if.then, label %if.end

if.then:                                          ; preds = %entry
  store i1 true, ptr %cleanup.isactive, align 1
  %exception = call ptr @__cxa_allocate_exception(i64 16) #13
  call void @_ZNSaIcEC1Ev(ptr noundef nonnull align 1 dereferenceable(1) %ref.tmp2) #13
  invoke void @_ZNSt7__cxx1112basic_stringIcSt11char_traitsIcESaIcEEC2IS3_EEPKcRKS3_(ptr noundef nonnull align 8 dereferenceable(32) %ref.tmp, ptr noundef @.str.7, ptr noundef nonnull align 1 dereferenceable(1) %ref.tmp2)
          to label %invoke.cont unwind label %lpad

invoke.cont:                                      ; preds = %if.then
  invoke void @_ZN6Assimp4STEP9TypeErrorC1ERKNSt7__cxx1112basic_stringIcSt11char_traitsIcESaIcEEEmm(ptr noundef nonnull align 8 dereferenceable(16) %exception, ptr noundef nonnull align 8 dereferenceable(32) %ref.tmp, i64 noundef -1, i64 noundef 1152921504606846975)
          to label %invoke.cont4 unwind label %lpad3

invoke.cont4:                                     ; preds = %invoke.cont
  store i1 false, ptr %cleanup.isactive, align 1
  invoke void @__cxa_throw(ptr %exception, ptr @_ZTIN6Assimp4STEP9TypeErrorE, ptr @_ZN6Assimp4STEP9TypeErrorD2Ev) #14
          to label %unreachable unwind label %lpad3

lpad:                                             ; preds = %if.then
  %4 = landingpad { ptr, i32 }
          cleanup
  %5 = extractvalue { ptr, i32 } %4, 0
  store ptr %5, ptr %exn.slot, align 8
  %6 = extractvalue { ptr, i32 } %4, 1
  store i32 %6, ptr %ehselector.slot, align 4
  br label %ehcleanup

lpad3:                                            ; preds = %invoke.cont4, %invoke.cont
  %7 = landingpad { ptr, i32 }
          cleanup
  %8 = extractvalue { ptr, i32 } %7, 0
  store ptr %8, ptr %exn.slot, align 8
  %9 = extractvalue { ptr, i32 } %7, 1
  store i32 %9, ptr %ehselector.slot, align 4
  call void @_ZNSt7__cxx1112basic_stringIcSt11char_traitsIcESaIcEED1Ev(ptr noundef nonnull align 8 dereferenceable(32) %ref.tmp) #13
  br label %ehcleanup

ehcleanup:                                        ; preds = %lpad3, %lpad
  call void @_ZNSaIcED1Ev(ptr noundef nonnull align 1 dereferenceable(1) %ref.tmp2) #13
  %cleanup.is_active = load i1, ptr %cleanup.isactive, align 1
  br i1 %cleanup.is_active, label %cleanup.action, label %cleanup.done

cleanup.action:                                   ; preds = %ehcleanup
  call void @__cxa_free_exception(ptr %exception) #13
  br label %cleanup.done

cleanup.done:                                     ; preds = %cleanup.action, %ehcleanup
  br label %eh.resume

if.end:                                           ; preds = %entry
  br label %do.body

do.body:                                          ; preds = %if.end
  %10 = load ptr, ptr %params.addr, align 8
  %11 = load i64, ptr %base, align 8
  %inc = add i64 %11, 1
  store i64 %inc, ptr %base, align 8
  call void @_ZNK6Assimp4STEP7EXPRESS4LISTixEm(ptr sret(%"class.std::shared_ptr.29") align 8 %arg, ptr noundef nonnull align 8 dereferenceable(32) %10, i64 noundef %11)
  %12 = load ptr, ptr %in.addr, align 8
  %Orientation = getelementptr inbounds %"struct.Assimp::IFC::Schema_2x3::IfcVector", ptr %12, i32 0, i32 2
  %13 = load ptr, ptr %db.addr, align 8
  invoke void @_ZN6Assimp4STEP14GenericConvertINS0_4LazyINS_3IFC10Schema_2x312IfcDirectionEEEEEvRT_RKSt10shared_ptrIKNS0_7EXPRESS8DataTypeEERKNS0_2DBE(ptr noundef nonnull align 8 dereferenceable(8) %Orientation, ptr noundef nonnull align 8 dereferenceable(16) %arg, ptr noundef nonnull align 8 dereferenceable(376) %13)
          to label %invoke.cont7 unwind label %lpad6

invoke.cont7:                                     ; preds = %do.body
  store i32 2, ptr %cleanup.dest.slot, align 4
  br label %cleanup

lpad6:                                            ; preds = %do.body
  %14 = landingpad { ptr, i32 }
          cleanup
          catch ptr @_ZTIN6Assimp4STEP9TypeErrorE
  %15 = extractvalue { ptr, i32 } %14, 0
  store ptr %15, ptr %exn.slot, align 8
  %16 = extractvalue { ptr, i32 } %14, 1
  store i32 %16, ptr %ehselector.slot, align 4
  br label %catch.dispatch

catch.dispatch:                                   ; preds = %lpad6
  %sel = load i32, ptr %ehselector.slot, align 4
  %17 = call i32 @llvm.eh.typeid.for(ptr @_ZTIN6Assimp4STEP9TypeErrorE) #13
  %matches = icmp eq i32 %sel, %17
  br i1 %matches, label %catch, label %ehcleanup29

catch:                                            ; preds = %catch.dispatch
  %exn = load ptr, ptr %exn.slot, align 8
  %18 = call ptr @__cxa_begin_catch(ptr %exn) #13
  store ptr %18, ptr %t, align 8
  store i1 true, ptr %cleanup.isactive19, align 1
  %exception8 = call ptr @__cxa_allocate_exception(i64 16) #13
  %19 = load ptr, ptr %t, align 8
  %vtable = load ptr, ptr %19, align 8
  %vfn = getelementptr inbounds ptr, ptr %vtable, i64 2
  %20 = load ptr, ptr %vfn, align 8
  %call10 = call noundef ptr %20(ptr noundef nonnull align 8 dereferenceable(16) %19) #13
  call void @_ZNSaIcEC1Ev(ptr noundef nonnull align 1 dereferenceable(1) %ref.tmp12) #13
  invoke void @_ZNSt7__cxx1112basic_stringIcSt11char_traitsIcESaIcEEC2IS3_EEPKcRKS3_(ptr noundef nonnull align 8 dereferenceable(32) %ref.tmp11, ptr noundef @.str.8, ptr noundef nonnull align 1 dereferenceable(1) %ref.tmp12)
          to label %invoke.cont14 unwind label %lpad13

invoke.cont14:                                    ; preds = %catch
  invoke void @_ZStplIcSt11char_traitsIcESaIcEENSt7__cxx1112basic_stringIT_T0_T1_EEPKS5_OS8_(ptr sret(%"class.std::__cxx11::basic_string") align 8 %ref.tmp9, ptr noundef %call10, ptr noundef nonnull align 8 dereferenceable(32) %ref.tmp11)
          to label %invoke.cont16 unwind label %lpad15

invoke.cont16:                                    ; preds = %invoke.cont14
  invoke void @_ZN6Assimp4STEP9TypeErrorC1ERKNSt7__cxx1112basic_stringIcSt11char_traitsIcESaIcEEEmm(ptr noundef nonnull align 8 dereferenceable(16) %exception8, ptr noundef nonnull align 8 dereferenceable(32) %ref.tmp9, i64 noundef -1, i64 noundef 1152921504606846975)
          to label %invoke.cont18 unwind label %lpad17

invoke.cont18:                                    ; preds = %invoke.cont16
  store i1 false, ptr %cleanup.isactive19, align 1
  invoke void @__cxa_throw(ptr %exception8, ptr @_ZTIN6Assimp4STEP9TypeErrorE, ptr @_ZN6Assimp4STEP9TypeErrorD2Ev) #14
          to label %unreachable unwind label %lpad17

lpad13:                                           ; preds = %catch
  %21 = landingpad { ptr, i32 }
          cleanup
  %22 = extractvalue { ptr, i32 } %21, 0
  store ptr %22, ptr %exn.slot, align 8
  %23 = extractvalue { ptr, i32 } %21, 1
  store i32 %23, ptr %ehselector.slot, align 4
  br label %ehcleanup22

lpad15:                                           ; preds = %invoke.cont14
  %24 = landingpad { ptr, i32 }
          cleanup
  %25 = extractvalue { ptr, i32 } %24, 0
  store ptr %25, ptr %exn.slot, align 8
  %26 = extractvalue { ptr, i32 } %24, 1
  store i32 %26, ptr %ehselector.slot, align 4
  br label %ehcleanup21

lpad17:                                           ; preds = %invoke.cont18, %invoke.cont16
  %27 = landingpad { ptr, i32 }
          cleanup
  %28 = extractvalue { ptr, i32 } %27, 0
  store ptr %28, ptr %exn.slot, align 8
  %29 = extractvalue { ptr, i32 } %27, 1
  store i32 %29, ptr %ehselector.slot, align 4
  call void @_ZNSt7__cxx1112basic_stringIcSt11char_traitsIcESaIcEED1Ev(ptr noundef nonnull align 8 dereferenceable(32) %ref.tmp9) #13
  br label %ehcleanup21

ehcleanup21:                                      ; preds = %lpad17, %lpad15
  call void @_ZNSt7__cxx1112basic_stringIcSt11char_traitsIcESaIcEED1Ev(ptr noundef nonnull align 8 dereferenceable(32) %ref.tmp11) #13
  br label %ehcleanup22

ehcleanup22:                                      ; preds = %ehcleanup21, %lpad13
  call void @_ZNSaIcED1Ev(ptr noundef nonnull align 1 dereferenceable(1) %ref.tmp12) #13
  %cleanup.is_active24 = load i1, ptr %cleanup.isactive19, align 1
  br i1 %cleanup.is_active24, label %cleanup.action25, label %cleanup.done26

cleanup.action25:                                 ; preds = %ehcleanup22
  call void @__cxa_free_exception(ptr %exception8) #13
  br label %cleanup.done26

cleanup.done26:                                   ; preds = %cleanup.action25, %ehcleanup22
  invoke void @__cxa_end_catch()
          to label %invoke.cont28 unwind label %terminate.lpad

invoke.cont28:                                    ; preds = %cleanup.done26
  br label %ehcleanup29

try.cont:                                         ; No predecessors!
  store i32 0, ptr %cleanup.dest.slot, align 4
  br label %cleanup

cleanup:                                          ; preds = %try.cont, %invoke.cont7
  call void @_ZNSt10shared_ptrIKN6Assimp4STEP7EXPRESS8DataTypeEED2Ev(ptr noundef nonnull align 8 dereferenceable(16) %arg) #13
  %cleanup.dest = load i32, ptr %cleanup.dest.slot, align 4
  switch i32 %cleanup.dest, label %unreachable [
    i32 0, label %cleanup.cont
    i32 2, label %do.end
  ]

cleanup.cont:                                     ; preds = %cleanup
  br label %do.end

do.end:                                           ; preds = %cleanup.cont, %cleanup
  br label %do.body30

do.body30:                                        ; preds = %do.end
  %30 = load ptr, ptr %params.addr, align 8
  %31 = load i64, ptr %base, align 8
  %inc32 = add i64 %31, 1
  store i64 %inc32, ptr %base, align 8
  call void @_ZNK6Assimp4STEP7EXPRESS4LISTixEm(ptr sret(%"class.std::shared_ptr.29") align 8 %arg31, ptr noundef nonnull align 8 dereferenceable(32) %30, i64 noundef %31)
  %32 = load ptr, ptr %in.addr, align 8
  %Magnitude = getelementptr inbounds %"struct.Assimp::IFC::Schema_2x3::IfcVector", ptr %32, i32 0, i32 3
  %33 = load ptr, ptr %db.addr, align 8
  invoke void @_ZN6Assimp4STEP14GenericConvertIdEEvRT_RKSt10shared_ptrIKNS0_7EXPRESS8DataTypeEERKNS0_2DBE(ptr noundef nonnull align 8 dereferenceable(8) %Magnitude, ptr noundef nonnull align 8 dereferenceable(16) %arg31, ptr noundef nonnull align 8 dereferenceable(376) %33)
          to label %invoke.cont34 unwind label %lpad33

invoke.cont34:                                    ; preds = %do.body30
  store i32 4, ptr %cleanup.dest.slot, align 4
  br label %cleanup65

ehcleanup29:                                      ; preds = %invoke.cont28, %catch.dispatch
  call void @_ZNSt10shared_ptrIKN6Assimp4STEP7EXPRESS8DataTypeEED2Ev(ptr noundef nonnull align 8 dereferenceable(16) %arg) #13
  br label %eh.resume

lpad33:                                           ; preds = %do.body30
  %34 = landingpad { ptr, i32 }
          cleanup
          catch ptr @_ZTIN6Assimp4STEP9TypeErrorE
  %35 = extractvalue { ptr, i32 } %34, 0
  store ptr %35, ptr %exn.slot, align 8
  %36 = extractvalue { ptr, i32 } %34, 1
  store i32 %36, ptr %ehselector.slot, align 4
  br label %catch.dispatch35

catch.dispatch35:                                 ; preds = %lpad33
  %sel36 = load i32, ptr %ehselector.slot, align 4
  %37 = call i32 @llvm.eh.typeid.for(ptr @_ZTIN6Assimp4STEP9TypeErrorE) #13
  %matches37 = icmp eq i32 %sel36, %37
  br i1 %matches37, label %catch38, label %ehcleanup68

catch38:                                          ; preds = %catch.dispatch35
  %exn40 = load ptr, ptr %exn.slot, align 8
  %38 = call ptr @__cxa_begin_catch(ptr %exn40) #13
  store ptr %38, ptr %t39, align 8
  store i1 true, ptr %cleanup.isactive54, align 1
  %exception41 = call ptr @__cxa_allocate_exception(i64 16) #13
  %39 = load ptr, ptr %t39, align 8
  %vtable43 = load ptr, ptr %39, align 8
  %vfn44 = getelementptr inbounds ptr, ptr %vtable43, i64 2
  %40 = load ptr, ptr %vfn44, align 8
  %call45 = call noundef ptr %40(ptr noundef nonnull align 8 dereferenceable(16) %39) #13
  call void @_ZNSaIcEC1Ev(ptr noundef nonnull align 1 dereferenceable(1) %ref.tmp47) #13
  invoke void @_ZNSt7__cxx1112basic_stringIcSt11char_traitsIcESaIcEEC2IS3_EEPKcRKS3_(ptr noundef nonnull align 8 dereferenceable(32) %ref.tmp46, ptr noundef @.str.9, ptr noundef nonnull align 1 dereferenceable(1) %ref.tmp47)
          to label %invoke.cont49 unwind label %lpad48

invoke.cont49:                                    ; preds = %catch38
  invoke void @_ZStplIcSt11char_traitsIcESaIcEENSt7__cxx1112basic_stringIT_T0_T1_EEPKS5_OS8_(ptr sret(%"class.std::__cxx11::basic_string") align 8 %ref.tmp42, ptr noundef %call45, ptr noundef nonnull align 8 dereferenceable(32) %ref.tmp46)
          to label %invoke.cont51 unwind label %lpad50

invoke.cont51:                                    ; preds = %invoke.cont49
  invoke void @_ZN6Assimp4STEP9TypeErrorC1ERKNSt7__cxx1112basic_stringIcSt11char_traitsIcESaIcEEEmm(ptr noundef nonnull align 8 dereferenceable(16) %exception41, ptr noundef nonnull align 8 dereferenceable(32) %ref.tmp42, i64 noundef -1, i64 noundef 1152921504606846975)
          to label %invoke.cont53 unwind label %lpad52

invoke.cont53:                                    ; preds = %invoke.cont51
  store i1 false, ptr %cleanup.isactive54, align 1
  invoke void @__cxa_throw(ptr %exception41, ptr @_ZTIN6Assimp4STEP9TypeErrorE, ptr @_ZN6Assimp4STEP9TypeErrorD2Ev) #14
          to label %unreachable unwind label %lpad52

lpad48:                                           ; preds = %catch38
  %41 = landingpad { ptr, i32 }
          cleanup
  %42 = extractvalue { ptr, i32 } %41, 0
  store ptr %42, ptr %exn.slot, align 8
  %43 = extractvalue { ptr, i32 } %41, 1
  store i32 %43, ptr %ehselector.slot, align 4
  br label %ehcleanup57

lpad50:                                           ; preds = %invoke.cont49
  %44 = landingpad { ptr, i32 }
          cleanup
  %45 = extractvalue { ptr, i32 } %44, 0
  store ptr %45, ptr %exn.slot, align 8
  %46 = extractvalue { ptr, i32 } %44, 1
  store i32 %46, ptr %ehselector.slot, align 4
  br label %ehcleanup56

lpad52:                                           ; preds = %invoke.cont53, %invoke.cont51
  %47 = landingpad { ptr, i32 }
          cleanup
  %48 = extractvalue { ptr, i32 } %47, 0
  store ptr %48, ptr %exn.slot, align 8
  %49 = extractvalue { ptr, i32 } %47, 1
  store i32 %49, ptr %ehselector.slot, align 4
  call void @_ZNSt7__cxx1112basic_stringIcSt11char_traitsIcESaIcEED1Ev(ptr noundef nonnull align 8 dereferenceable(32) %ref.tmp42) #13
  br label %ehcleanup56

ehcleanup56:                                      ; preds = %lpad52, %lpad50
  call void @_ZNSt7__cxx1112basic_stringIcSt11char_traitsIcESaIcEED1Ev(ptr noundef nonnull align 8 dereferenceable(32) %ref.tmp46) #13
  br label %ehcleanup57

ehcleanup57:                                      ; preds = %ehcleanup56, %lpad48
  call void @_ZNSaIcED1Ev(ptr noundef nonnull align 1 dereferenceable(1) %ref.tmp47) #13
  %cleanup.is_active59 = load i1, ptr %cleanup.isactive54, align 1
  br i1 %cleanup.is_active59, label %cleanup.action60, label %cleanup.done61

cleanup.action60:                                 ; preds = %ehcleanup57
  call void @__cxa_free_exception(ptr %exception41) #13
  br label %cleanup.done61

cleanup.done61:                                   ; preds = %cleanup.action60, %ehcleanup57
  invoke void @__cxa_end_catch()
          to label %invoke.cont63 unwind label %terminate.lpad

invoke.cont63:                                    ; preds = %cleanup.done61
  br label %ehcleanup68

try.cont64:                                       ; No predecessors!
  store i32 0, ptr %cleanup.dest.slot, align 4
  br label %cleanup65

cleanup65:                                        ; preds = %try.cont64, %invoke.cont34
  call void @_ZNSt10shared_ptrIKN6Assimp4STEP7EXPRESS8DataTypeEED2Ev(ptr noundef nonnull align 8 dereferenceable(16) %arg31) #13
  %cleanup.dest66 = load i32, ptr %cleanup.dest.slot, align 4
  switch i32 %cleanup.dest66, label %unreachable [
    i32 0, label %cleanup.cont67
    i32 4, label %do.end69
  ]

cleanup.cont67:                                   ; preds = %cleanup65
  br label %do.end69

do.end69:                                         ; preds = %cleanup.cont67, %cleanup65
  %50 = load i64, ptr %base, align 8
  ret i64 %50

ehcleanup68:                                      ; preds = %invoke.cont63, %catch.dispatch35
  call void @_ZNSt10shared_ptrIKN6Assimp4STEP7EXPRESS8DataTypeEED2Ev(ptr noundef nonnull align 8 dereferenceable(16) %arg31) #13
  br label %eh.resume

eh.resume:                                        ; preds = %ehcleanup68, %ehcleanup29, %cleanup.done
  %exn70 = load ptr, ptr %exn.slot, align 8
  %sel71 = load i32, ptr %ehselector.slot, align 4
  %lpad.val = insertvalue { ptr, i32 } poison, ptr %exn70, 0
  %lpad.val72 = insertvalue { ptr, i32 } %lpad.val, i32 %sel71, 1
  resume { ptr, i32 } %lpad.val72

terminate.lpad:                                   ; preds = %cleanup.done61, %cleanup.done26
  %51 = landingpad { ptr, i32 }
          catch ptr null
  %52 = extractvalue { ptr, i32 } %51, 0
  call void @__clang_call_terminate(ptr %52) #12
  unreachable

unreachable:                                      ; preds = %cleanup65, %invoke.cont53, %cleanup, %invoke.cont18, %invoke.cont4
  unreachable
}

; Function Attrs: mustprogress uwtable
define linkonce_odr hidden void @_ZN6Assimp4STEP14GenericConvertINS0_4LazyINS_3IFC10Schema_2x312IfcDirectionEEEEEvRT_RKSt10shared_ptrIKNS0_7EXPRESS8DataTypeEERKNS0_2DBE(ptr noundef nonnull align 8 dereferenceable(8) %a, ptr noundef nonnull align 8 dereferenceable(16) %b, ptr noundef nonnull align 8 dereferenceable(376) %db) #2 comdat {
entry:
  %a.addr = alloca ptr, align 8
  %b.addr = alloca ptr, align 8
  %db.addr = alloca ptr, align 8
  %ref.tmp = alloca %"struct.Assimp::STEP::InternGenericConvert.875", align 1
  store ptr %a, ptr %a.addr, align 8
  store ptr %b, ptr %b.addr, align 8
  store ptr %db, ptr %db.addr, align 8
  %0 = load ptr, ptr %a.addr, align 8
  %1 = load ptr, ptr %b.addr, align 8
  %2 = load ptr, ptr %db.addr, align 8
  call void @_ZN6Assimp4STEP20InternGenericConvertINS0_4LazyINS_3IFC10Schema_2x312IfcDirectionEEEEclERS6_RKSt10shared_ptrIKNS0_7EXPRESS8DataTypeEERKNS0_2DBE(ptr noundef nonnull align 1 dereferenceable(1) %ref.tmp, ptr noundef nonnull align 8 dereferenceable(8) %0, ptr noundef nonnull align 8 dereferenceable(16) %1, ptr noundef nonnull align 8 dereferenceable(376) %2)
  ret void
}

; Function Attrs: mustprogress uwtable
define linkonce_odr hidden void @_ZN6Assimp4STEP14GenericConvertIdEEvRT_RKSt10shared_ptrIKNS0_7EXPRESS8DataTypeEERKNS0_2DBE(ptr noundef nonnull align 8 dereferenceable(8) %a, ptr noundef nonnull align 8 dereferenceable(16) %b, ptr noundef nonnull align 8 dereferenceable(376) %db) #2 comdat {
entry:
  %a.addr = alloca ptr, align 8
  %b.addr = alloca ptr, align 8
  %db.addr = alloca ptr, align 8
  %ref.tmp = alloca %"struct.Assimp::STEP::InternGenericConvert.876", align 1
  store ptr %a, ptr %a.addr, align 8
  store ptr %b, ptr %b.addr, align 8
  store ptr %db, ptr %db.addr, align 8
  %0 = load ptr, ptr %a.addr, align 8
  %1 = load ptr, ptr %b.addr, align 8
  %2 = load ptr, ptr %db.addr, align 8
  call void @_ZN6Assimp4STEP20InternGenericConvertIdEclERdRKSt10shared_ptrIKNS0_7EXPRESS8DataTypeEERKNS0_2DBE(ptr noundef nonnull align 1 dereferenceable(1) %ref.tmp, ptr noundef nonnull align 8 dereferenceable(8) %0, ptr noundef nonnull align 8 dereferenceable(16) %1, ptr noundef nonnull align 8 dereferenceable(376) %2)
  ret void
}

; Function Attrs: mustprogress uwtable
define hidden noundef i64 @_ZN6Assimp4STEP11GenericFillINS_3IFC10Schema_2x37IfcBeamEEEmRKNS0_2DBERKNS0_7EXPRESS4LISTEPT_(ptr noundef nonnull align 8 dereferenceable(376) %db, ptr noundef nonnull align 8 dereferenceable(32) %params, ptr noundef %in) #2 {
entry:
  %db.addr = alloca ptr, align 8
  %params.addr = alloca ptr, align 8
  %in.addr = alloca ptr, align 8
  %base = alloca i64, align 8
  store ptr %db, ptr %db.addr, align 8
  store ptr %params, ptr %params.addr, align 8
  store ptr %in, ptr %in.addr, align 8
  %0 = load ptr, ptr %db.addr, align 8
  %1 = load ptr, ptr %params.addr, align 8
  %2 = load ptr, ptr %in.addr, align 8
  %call = call noundef i64 @_ZN6Assimp4STEP11GenericFillINS_3IFC10Schema_2x318IfcBuildingElementEEEmRKNS0_2DBERKNS0_7EXPRESS4LISTEPT_(ptr noundef nonnull align 8 dereferenceable(376) %0, ptr noundef nonnull align 8 dereferenceable(32) %1, ptr noundef %2)
  store i64 %call, ptr %base, align 8
  %3 = load i64, ptr %base, align 8
  ret i64 %3
}

declare noundef i64 @_ZN6Assimp4STEP11GenericFillINS_3IFC10Schema_2x318IfcBuildingElementEEEmRKNS0_2DBERKNS0_7EXPRESS4LISTEPT_(ptr noundef nonnull align 8 dereferenceable(376), ptr noundef nonnull align 8 dereferenceable(32), ptr noundef) #3

; Function Attrs: mustprogress uwtable
define hidden noundef i64 @_ZN6Assimp4STEP11GenericFillINS_3IFC10Schema_2x312IfcColourRgbEEEmRKNS0_2DBERKNS0_7EXPRESS4LISTEPT_(ptr noundef nonnull align 8 dereferenceable(376) %db, ptr noundef nonnull align 8 dereferenceable(32) %params, ptr noundef %in) #2 personality ptr @__gxx_personality_v0 {
entry:
  %db.addr = alloca ptr, align 8
  %params.addr = alloca ptr, align 8
  %in.addr = alloca ptr, align 8
  %base = alloca i64, align 8
  %ref.tmp = alloca %"class.std::__cxx11::basic_string", align 8
  %ref.tmp2 = alloca %"class.std::allocator", align 1
  %exn.slot = alloca ptr, align 8
  %ehselector.slot = alloca i32, align 4
  %cleanup.isactive = alloca i1, align 1
  %arg = alloca %"class.std::shared_ptr.29", align 8
  %cleanup.dest.slot = alloca i32, align 4
  %t = alloca ptr, align 8
  %ref.tmp9 = alloca %"class.std::__cxx11::basic_string", align 8
  %ref.tmp11 = alloca %"class.std::__cxx11::basic_string", align 8
  %ref.tmp12 = alloca %"class.std::allocator", align 1
  %cleanup.isactive19 = alloca i1, align 1
  %arg31 = alloca %"class.std::shared_ptr.29", align 8
  %t39 = alloca ptr, align 8
  %ref.tmp42 = alloca %"class.std::__cxx11::basic_string", align 8
  %ref.tmp46 = alloca %"class.std::__cxx11::basic_string", align 8
  %ref.tmp47 = alloca %"class.std::allocator", align 1
  %cleanup.isactive54 = alloca i1, align 1
  %arg71 = alloca %"class.std::shared_ptr.29", align 8
  %t79 = alloca ptr, align 8
  %ref.tmp82 = alloca %"class.std::__cxx11::basic_string", align 8
  %ref.tmp86 = alloca %"class.std::__cxx11::basic_string", align 8
  %ref.tmp87 = alloca %"class.std::allocator", align 1
  %cleanup.isactive94 = alloca i1, align 1
  store ptr %db, ptr %db.addr, align 8
  store ptr %params, ptr %params.addr, align 8
  store ptr %in, ptr %in.addr, align 8
  %0 = load ptr, ptr %db.addr, align 8
  %1 = load ptr, ptr %params.addr, align 8
  %2 = load ptr, ptr %in.addr, align 8
  %call = call noundef i64 @_ZN6Assimp4STEP11GenericFillINS_3IFC10Schema_2x322IfcColourSpecificationEEEmRKNS0_2DBERKNS0_7EXPRESS4LISTEPT_(ptr noundef nonnull align 8 dereferenceable(376) %0, ptr noundef nonnull align 8 dereferenceable(32) %1, ptr noundef %2)
  store i64 %call, ptr %base, align 8
  %3 = load ptr, ptr %params.addr, align 8
  %call1 = call noundef i64 @_ZNK6Assimp4STEP7EXPRESS4LIST7GetSizeEv(ptr noundef nonnull align 8 dereferenceable(32) %3)
  %cmp = icmp ult i64 %call1, 4
  br i1 %cmp, label %if.then, label %if.end

if.then:                                          ; preds = %entry
  store i1 true, ptr %cleanup.isactive, align 1
  %exception = call ptr @__cxa_allocate_exception(i64 16) #13
  call void @_ZNSaIcEC1Ev(ptr noundef nonnull align 1 dereferenceable(1) %ref.tmp2) #13
  invoke void @_ZNSt7__cxx1112basic_stringIcSt11char_traitsIcESaIcEEC2IS3_EEPKcRKS3_(ptr noundef nonnull align 8 dereferenceable(32) %ref.tmp, ptr noundef @.str.10, ptr noundef nonnull align 1 dereferenceable(1) %ref.tmp2)
          to label %invoke.cont unwind label %lpad

invoke.cont:                                      ; preds = %if.then
  invoke void @_ZN6Assimp4STEP9TypeErrorC1ERKNSt7__cxx1112basic_stringIcSt11char_traitsIcESaIcEEEmm(ptr noundef nonnull align 8 dereferenceable(16) %exception, ptr noundef nonnull align 8 dereferenceable(32) %ref.tmp, i64 noundef -1, i64 noundef 1152921504606846975)
          to label %invoke.cont4 unwind label %lpad3

invoke.cont4:                                     ; preds = %invoke.cont
  store i1 false, ptr %cleanup.isactive, align 1
  invoke void @__cxa_throw(ptr %exception, ptr @_ZTIN6Assimp4STEP9TypeErrorE, ptr @_ZN6Assimp4STEP9TypeErrorD2Ev) #14
          to label %unreachable unwind label %lpad3

lpad:                                             ; preds = %if.then
  %4 = landingpad { ptr, i32 }
          cleanup
  %5 = extractvalue { ptr, i32 } %4, 0
  store ptr %5, ptr %exn.slot, align 8
  %6 = extractvalue { ptr, i32 } %4, 1
  store i32 %6, ptr %ehselector.slot, align 4
  br label %ehcleanup

lpad3:                                            ; preds = %invoke.cont4, %invoke.cont
  %7 = landingpad { ptr, i32 }
          cleanup
  %8 = extractvalue { ptr, i32 } %7, 0
  store ptr %8, ptr %exn.slot, align 8
  %9 = extractvalue { ptr, i32 } %7, 1
  store i32 %9, ptr %ehselector.slot, align 4
  call void @_ZNSt7__cxx1112basic_stringIcSt11char_traitsIcESaIcEED1Ev(ptr noundef nonnull align 8 dereferenceable(32) %ref.tmp) #13
  br label %ehcleanup

ehcleanup:                                        ; preds = %lpad3, %lpad
  call void @_ZNSaIcED1Ev(ptr noundef nonnull align 1 dereferenceable(1) %ref.tmp2) #13
  %cleanup.is_active = load i1, ptr %cleanup.isactive, align 1
  br i1 %cleanup.is_active, label %cleanup.action, label %cleanup.done

cleanup.action:                                   ; preds = %ehcleanup
  call void @__cxa_free_exception(ptr %exception) #13
  br label %cleanup.done

cleanup.done:                                     ; preds = %cleanup.action, %ehcleanup
  br label %eh.resume

if.end:                                           ; preds = %entry
  br label %do.body

do.body:                                          ; preds = %if.end
  %10 = load ptr, ptr %params.addr, align 8
  %11 = load i64, ptr %base, align 8
  %inc = add i64 %11, 1
  store i64 %inc, ptr %base, align 8
  call void @_ZNK6Assimp4STEP7EXPRESS4LISTixEm(ptr sret(%"class.std::shared_ptr.29") align 8 %arg, ptr noundef nonnull align 8 dereferenceable(32) %10, i64 noundef %11)
  %12 = load ptr, ptr %in.addr, align 8
  %Red = getelementptr inbounds %"struct.Assimp::IFC::Schema_2x3::IfcColourRgb", ptr %12, i32 0, i32 2
  %13 = load ptr, ptr %db.addr, align 8
  invoke void @_ZN6Assimp4STEP14GenericConvertIdEEvRT_RKSt10shared_ptrIKNS0_7EXPRESS8DataTypeEERKNS0_2DBE(ptr noundef nonnull align 8 dereferenceable(8) %Red, ptr noundef nonnull align 8 dereferenceable(16) %arg, ptr noundef nonnull align 8 dereferenceable(376) %13)
          to label %invoke.cont7 unwind label %lpad6

invoke.cont7:                                     ; preds = %do.body
  store i32 2, ptr %cleanup.dest.slot, align 4
  br label %cleanup

lpad6:                                            ; preds = %do.body
  %14 = landingpad { ptr, i32 }
          cleanup
          catch ptr @_ZTIN6Assimp4STEP9TypeErrorE
  %15 = extractvalue { ptr, i32 } %14, 0
  store ptr %15, ptr %exn.slot, align 8
  %16 = extractvalue { ptr, i32 } %14, 1
  store i32 %16, ptr %ehselector.slot, align 4
  br label %catch.dispatch

catch.dispatch:                                   ; preds = %lpad6
  %sel = load i32, ptr %ehselector.slot, align 4
  %17 = call i32 @llvm.eh.typeid.for(ptr @_ZTIN6Assimp4STEP9TypeErrorE) #13
  %matches = icmp eq i32 %sel, %17
  br i1 %matches, label %catch, label %ehcleanup29

catch:                                            ; preds = %catch.dispatch
  %exn = load ptr, ptr %exn.slot, align 8
  %18 = call ptr @__cxa_begin_catch(ptr %exn) #13
  store ptr %18, ptr %t, align 8
  store i1 true, ptr %cleanup.isactive19, align 1
  %exception8 = call ptr @__cxa_allocate_exception(i64 16) #13
  %19 = load ptr, ptr %t, align 8
  %vtable = load ptr, ptr %19, align 8
  %vfn = getelementptr inbounds ptr, ptr %vtable, i64 2
  %20 = load ptr, ptr %vfn, align 8
  %call10 = call noundef ptr %20(ptr noundef nonnull align 8 dereferenceable(16) %19) #13
  call void @_ZNSaIcEC1Ev(ptr noundef nonnull align 1 dereferenceable(1) %ref.tmp12) #13
  invoke void @_ZNSt7__cxx1112basic_stringIcSt11char_traitsIcESaIcEEC2IS3_EEPKcRKS3_(ptr noundef nonnull align 8 dereferenceable(32) %ref.tmp11, ptr noundef @.str.11, ptr noundef nonnull align 1 dereferenceable(1) %ref.tmp12)
          to label %invoke.cont14 unwind label %lpad13

invoke.cont14:                                    ; preds = %catch
  invoke void @_ZStplIcSt11char_traitsIcESaIcEENSt7__cxx1112basic_stringIT_T0_T1_EEPKS5_OS8_(ptr sret(%"class.std::__cxx11::basic_string") align 8 %ref.tmp9, ptr noundef %call10, ptr noundef nonnull align 8 dereferenceable(32) %ref.tmp11)
          to label %invoke.cont16 unwind label %lpad15

invoke.cont16:                                    ; preds = %invoke.cont14
  invoke void @_ZN6Assimp4STEP9TypeErrorC1ERKNSt7__cxx1112basic_stringIcSt11char_traitsIcESaIcEEEmm(ptr noundef nonnull align 8 dereferenceable(16) %exception8, ptr noundef nonnull align 8 dereferenceable(32) %ref.tmp9, i64 noundef -1, i64 noundef 1152921504606846975)
          to label %invoke.cont18 unwind label %lpad17

invoke.cont18:                                    ; preds = %invoke.cont16
  store i1 false, ptr %cleanup.isactive19, align 1
  invoke void @__cxa_throw(ptr %exception8, ptr @_ZTIN6Assimp4STEP9TypeErrorE, ptr @_ZN6Assimp4STEP9TypeErrorD2Ev) #14
          to label %unreachable unwind label %lpad17

lpad13:                                           ; preds = %catch
  %21 = landingpad { ptr, i32 }
          cleanup
  %22 = extractvalue { ptr, i32 } %21, 0
  store ptr %22, ptr %exn.slot, align 8
  %23 = extractvalue { ptr, i32 } %21, 1
  store i32 %23, ptr %ehselector.slot, align 4
  br label %ehcleanup22

lpad15:                                           ; preds = %invoke.cont14
  %24 = landingpad { ptr, i32 }
          cleanup
  %25 = extractvalue { ptr, i32 } %24, 0
  store ptr %25, ptr %exn.slot, align 8
  %26 = extractvalue { ptr, i32 } %24, 1
  store i32 %26, ptr %ehselector.slot, align 4
  br label %ehcleanup21

lpad17:                                           ; preds = %invoke.cont18, %invoke.cont16
  %27 = landingpad { ptr, i32 }
          cleanup
  %28 = extractvalue { ptr, i32 } %27, 0
  store ptr %28, ptr %exn.slot, align 8
  %29 = extractvalue { ptr, i32 } %27, 1
  store i32 %29, ptr %ehselector.slot, align 4
  call void @_ZNSt7__cxx1112basic_stringIcSt11char_traitsIcESaIcEED1Ev(ptr noundef nonnull align 8 dereferenceable(32) %ref.tmp9) #13
  br label %ehcleanup21

ehcleanup21:                                      ; preds = %lpad17, %lpad15
  call void @_ZNSt7__cxx1112basic_stringIcSt11char_traitsIcESaIcEED1Ev(ptr noundef nonnull align 8 dereferenceable(32) %ref.tmp11) #13
  br label %ehcleanup22

ehcleanup22:                                      ; preds = %ehcleanup21, %lpad13
  call void @_ZNSaIcED1Ev(ptr noundef nonnull align 1 dereferenceable(1) %ref.tmp12) #13
  %cleanup.is_active24 = load i1, ptr %cleanup.isactive19, align 1
  br i1 %cleanup.is_active24, label %cleanup.action25, label %cleanup.done26

cleanup.action25:                                 ; preds = %ehcleanup22
  call void @__cxa_free_exception(ptr %exception8) #13
  br label %cleanup.done26

cleanup.done26:                                   ; preds = %cleanup.action25, %ehcleanup22
  invoke void @__cxa_end_catch()
          to label %invoke.cont28 unwind label %terminate.lpad

invoke.cont28:                                    ; preds = %cleanup.done26
  br label %ehcleanup29

try.cont:                                         ; No predecessors!
  store i32 0, ptr %cleanup.dest.slot, align 4
  br label %cleanup

cleanup:                                          ; preds = %try.cont, %invoke.cont7
  call void @_ZNSt10shared_ptrIKN6Assimp4STEP7EXPRESS8DataTypeEED2Ev(ptr noundef nonnull align 8 dereferenceable(16) %arg) #13
  %cleanup.dest = load i32, ptr %cleanup.dest.slot, align 4
  switch i32 %cleanup.dest, label %unreachable [
    i32 0, label %cleanup.cont
    i32 2, label %do.end
  ]

cleanup.cont:                                     ; preds = %cleanup
  br label %do.end

do.end:                                           ; preds = %cleanup.cont, %cleanup
  br label %do.body30

do.body30:                                        ; preds = %do.end
  %30 = load ptr, ptr %params.addr, align 8
  %31 = load i64, ptr %base, align 8
  %inc32 = add i64 %31, 1
  store i64 %inc32, ptr %base, align 8
  call void @_ZNK6Assimp4STEP7EXPRESS4LISTixEm(ptr sret(%"class.std::shared_ptr.29") align 8 %arg31, ptr noundef nonnull align 8 dereferenceable(32) %30, i64 noundef %31)
  %32 = load ptr, ptr %in.addr, align 8
  %Green = getelementptr inbounds %"struct.Assimp::IFC::Schema_2x3::IfcColourRgb", ptr %32, i32 0, i32 3
  %33 = load ptr, ptr %db.addr, align 8
  invoke void @_ZN6Assimp4STEP14GenericConvertIdEEvRT_RKSt10shared_ptrIKNS0_7EXPRESS8DataTypeEERKNS0_2DBE(ptr noundef nonnull align 8 dereferenceable(8) %Green, ptr noundef nonnull align 8 dereferenceable(16) %arg31, ptr noundef nonnull align 8 dereferenceable(376) %33)
          to label %invoke.cont34 unwind label %lpad33

invoke.cont34:                                    ; preds = %do.body30
  store i32 4, ptr %cleanup.dest.slot, align 4
  br label %cleanup65

ehcleanup29:                                      ; preds = %invoke.cont28, %catch.dispatch
  call void @_ZNSt10shared_ptrIKN6Assimp4STEP7EXPRESS8DataTypeEED2Ev(ptr noundef nonnull align 8 dereferenceable(16) %arg) #13
  br label %eh.resume

lpad33:                                           ; preds = %do.body30
  %34 = landingpad { ptr, i32 }
          cleanup
          catch ptr @_ZTIN6Assimp4STEP9TypeErrorE
  %35 = extractvalue { ptr, i32 } %34, 0
  store ptr %35, ptr %exn.slot, align 8
  %36 = extractvalue { ptr, i32 } %34, 1
  store i32 %36, ptr %ehselector.slot, align 4
  br label %catch.dispatch35

catch.dispatch35:                                 ; preds = %lpad33
  %sel36 = load i32, ptr %ehselector.slot, align 4
  %37 = call i32 @llvm.eh.typeid.for(ptr @_ZTIN6Assimp4STEP9TypeErrorE) #13
  %matches37 = icmp eq i32 %sel36, %37
  br i1 %matches37, label %catch38, label %ehcleanup68

catch38:                                          ; preds = %catch.dispatch35
  %exn40 = load ptr, ptr %exn.slot, align 8
  %38 = call ptr @__cxa_begin_catch(ptr %exn40) #13
  store ptr %38, ptr %t39, align 8
  store i1 true, ptr %cleanup.isactive54, align 1
  %exception41 = call ptr @__cxa_allocate_exception(i64 16) #13
  %39 = load ptr, ptr %t39, align 8
  %vtable43 = load ptr, ptr %39, align 8
  %vfn44 = getelementptr inbounds ptr, ptr %vtable43, i64 2
  %40 = load ptr, ptr %vfn44, align 8
  %call45 = call noundef ptr %40(ptr noundef nonnull align 8 dereferenceable(16) %39) #13
  call void @_ZNSaIcEC1Ev(ptr noundef nonnull align 1 dereferenceable(1) %ref.tmp47) #13
  invoke void @_ZNSt7__cxx1112basic_stringIcSt11char_traitsIcESaIcEEC2IS3_EEPKcRKS3_(ptr noundef nonnull align 8 dereferenceable(32) %ref.tmp46, ptr noundef @.str.12, ptr noundef nonnull align 1 dereferenceable(1) %ref.tmp47)
          to label %invoke.cont49 unwind label %lpad48

invoke.cont49:                                    ; preds = %catch38
  invoke void @_ZStplIcSt11char_traitsIcESaIcEENSt7__cxx1112basic_stringIT_T0_T1_EEPKS5_OS8_(ptr sret(%"class.std::__cxx11::basic_string") align 8 %ref.tmp42, ptr noundef %call45, ptr noundef nonnull align 8 dereferenceable(32) %ref.tmp46)
          to label %invoke.cont51 unwind label %lpad50

invoke.cont51:                                    ; preds = %invoke.cont49
  invoke void @_ZN6Assimp4STEP9TypeErrorC1ERKNSt7__cxx1112basic_stringIcSt11char_traitsIcESaIcEEEmm(ptr noundef nonnull align 8 dereferenceable(16) %exception41, ptr noundef nonnull align 8 dereferenceable(32) %ref.tmp42, i64 noundef -1, i64 noundef 1152921504606846975)
          to label %invoke.cont53 unwind label %lpad52

invoke.cont53:                                    ; preds = %invoke.cont51
  store i1 false, ptr %cleanup.isactive54, align 1
  invoke void @__cxa_throw(ptr %exception41, ptr @_ZTIN6Assimp4STEP9TypeErrorE, ptr @_ZN6Assimp4STEP9TypeErrorD2Ev) #14
          to label %unreachable unwind label %lpad52

lpad48:                                           ; preds = %catch38
  %41 = landingpad { ptr, i32 }
          cleanup
  %42 = extractvalue { ptr, i32 } %41, 0
  store ptr %42, ptr %exn.slot, align 8
  %43 = extractvalue { ptr, i32 } %41, 1
  store i32 %43, ptr %ehselector.slot, align 4
  br label %ehcleanup57

lpad50:                                           ; preds = %invoke.cont49
  %44 = landingpad { ptr, i32 }
          cleanup
  %45 = extractvalue { ptr, i32 } %44, 0
  store ptr %45, ptr %exn.slot, align 8
  %46 = extractvalue { ptr, i32 } %44, 1
  store i32 %46, ptr %ehselector.slot, align 4
  br label %ehcleanup56

lpad52:                                           ; preds = %invoke.cont53, %invoke.cont51
  %47 = landingpad { ptr, i32 }
          cleanup
  %48 = extractvalue { ptr, i32 } %47, 0
  store ptr %48, ptr %exn.slot, align 8
  %49 = extractvalue { ptr, i32 } %47, 1
  store i32 %49, ptr %ehselector.slot, align 4
  call void @_ZNSt7__cxx1112basic_stringIcSt11char_traitsIcESaIcEED1Ev(ptr noundef nonnull align 8 dereferenceable(32) %ref.tmp42) #13
  br label %ehcleanup56

ehcleanup56:                                      ; preds = %lpad52, %lpad50
  call void @_ZNSt7__cxx1112basic_stringIcSt11char_traitsIcESaIcEED1Ev(ptr noundef nonnull align 8 dereferenceable(32) %ref.tmp46) #13
  br label %ehcleanup57

ehcleanup57:                                      ; preds = %ehcleanup56, %lpad48
  call void @_ZNSaIcED1Ev(ptr noundef nonnull align 1 dereferenceable(1) %ref.tmp47) #13
  %cleanup.is_active59 = load i1, ptr %cleanup.isactive54, align 1
  br i1 %cleanup.is_active59, label %cleanup.action60, label %cleanup.done61

cleanup.action60:                                 ; preds = %ehcleanup57
  call void @__cxa_free_exception(ptr %exception41) #13
  br label %cleanup.done61

cleanup.done61:                                   ; preds = %cleanup.action60, %ehcleanup57
  invoke void @__cxa_end_catch()
          to label %invoke.cont63 unwind label %terminate.lpad

invoke.cont63:                                    ; preds = %cleanup.done61
  br label %ehcleanup68

try.cont64:                                       ; No predecessors!
  store i32 0, ptr %cleanup.dest.slot, align 4
  br label %cleanup65

cleanup65:                                        ; preds = %try.cont64, %invoke.cont34
  call void @_ZNSt10shared_ptrIKN6Assimp4STEP7EXPRESS8DataTypeEED2Ev(ptr noundef nonnull align 8 dereferenceable(16) %arg31) #13
  %cleanup.dest66 = load i32, ptr %cleanup.dest.slot, align 4
  switch i32 %cleanup.dest66, label %unreachable [
    i32 0, label %cleanup.cont67
    i32 4, label %do.end69
  ]

cleanup.cont67:                                   ; preds = %cleanup65
  br label %do.end69

do.end69:                                         ; preds = %cleanup.cont67, %cleanup65
  br label %do.body70

do.body70:                                        ; preds = %do.end69
  %50 = load ptr, ptr %params.addr, align 8
  %51 = load i64, ptr %base, align 8
  %inc72 = add i64 %51, 1
  store i64 %inc72, ptr %base, align 8
  call void @_ZNK6Assimp4STEP7EXPRESS4LISTixEm(ptr sret(%"class.std::shared_ptr.29") align 8 %arg71, ptr noundef nonnull align 8 dereferenceable(32) %50, i64 noundef %51)
  %52 = load ptr, ptr %in.addr, align 8
  %Blue = getelementptr inbounds %"struct.Assimp::IFC::Schema_2x3::IfcColourRgb", ptr %52, i32 0, i32 4
  %53 = load ptr, ptr %db.addr, align 8
  invoke void @_ZN6Assimp4STEP14GenericConvertIdEEvRT_RKSt10shared_ptrIKNS0_7EXPRESS8DataTypeEERKNS0_2DBE(ptr noundef nonnull align 8 dereferenceable(8) %Blue, ptr noundef nonnull align 8 dereferenceable(16) %arg71, ptr noundef nonnull align 8 dereferenceable(376) %53)
          to label %invoke.cont74 unwind label %lpad73

invoke.cont74:                                    ; preds = %do.body70
  store i32 6, ptr %cleanup.dest.slot, align 4
  br label %cleanup105

ehcleanup68:                                      ; preds = %invoke.cont63, %catch.dispatch35
  call void @_ZNSt10shared_ptrIKN6Assimp4STEP7EXPRESS8DataTypeEED2Ev(ptr noundef nonnull align 8 dereferenceable(16) %arg31) #13
  br label %eh.resume

lpad73:                                           ; preds = %do.body70
  %54 = landingpad { ptr, i32 }
          cleanup
          catch ptr @_ZTIN6Assimp4STEP9TypeErrorE
  %55 = extractvalue { ptr, i32 } %54, 0
  store ptr %55, ptr %exn.slot, align 8
  %56 = extractvalue { ptr, i32 } %54, 1
  store i32 %56, ptr %ehselector.slot, align 4
  br label %catch.dispatch75

catch.dispatch75:                                 ; preds = %lpad73
  %sel76 = load i32, ptr %ehselector.slot, align 4
  %57 = call i32 @llvm.eh.typeid.for(ptr @_ZTIN6Assimp4STEP9TypeErrorE) #13
  %matches77 = icmp eq i32 %sel76, %57
  br i1 %matches77, label %catch78, label %ehcleanup108

catch78:                                          ; preds = %catch.dispatch75
  %exn80 = load ptr, ptr %exn.slot, align 8
  %58 = call ptr @__cxa_begin_catch(ptr %exn80) #13
  store ptr %58, ptr %t79, align 8
  store i1 true, ptr %cleanup.isactive94, align 1
  %exception81 = call ptr @__cxa_allocate_exception(i64 16) #13
  %59 = load ptr, ptr %t79, align 8
  %vtable83 = load ptr, ptr %59, align 8
  %vfn84 = getelementptr inbounds ptr, ptr %vtable83, i64 2
  %60 = load ptr, ptr %vfn84, align 8
  %call85 = call noundef ptr %60(ptr noundef nonnull align 8 dereferenceable(16) %59) #13
  call void @_ZNSaIcEC1Ev(ptr noundef nonnull align 1 dereferenceable(1) %ref.tmp87) #13
  invoke void @_ZNSt7__cxx1112basic_stringIcSt11char_traitsIcESaIcEEC2IS3_EEPKcRKS3_(ptr noundef nonnull align 8 dereferenceable(32) %ref.tmp86, ptr noundef @.str.13, ptr noundef nonnull align 1 dereferenceable(1) %ref.tmp87)
          to label %invoke.cont89 unwind label %lpad88

invoke.cont89:                                    ; preds = %catch78
  invoke void @_ZStplIcSt11char_traitsIcESaIcEENSt7__cxx1112basic_stringIT_T0_T1_EEPKS5_OS8_(ptr sret(%"class.std::__cxx11::basic_string") align 8 %ref.tmp82, ptr noundef %call85, ptr noundef nonnull align 8 dereferenceable(32) %ref.tmp86)
          to label %invoke.cont91 unwind label %lpad90

invoke.cont91:                                    ; preds = %invoke.cont89
  invoke void @_ZN6Assimp4STEP9TypeErrorC1ERKNSt7__cxx1112basic_stringIcSt11char_traitsIcESaIcEEEmm(ptr noundef nonnull align 8 dereferenceable(16) %exception81, ptr noundef nonnull align 8 dereferenceable(32) %ref.tmp82, i64 noundef -1, i64 noundef 1152921504606846975)
          to label %invoke.cont93 unwind label %lpad92

invoke.cont93:                                    ; preds = %invoke.cont91
  store i1 false, ptr %cleanup.isactive94, align 1
  invoke void @__cxa_throw(ptr %exception81, ptr @_ZTIN6Assimp4STEP9TypeErrorE, ptr @_ZN6Assimp4STEP9TypeErrorD2Ev) #14
          to label %unreachable unwind label %lpad92

lpad88:                                           ; preds = %catch78
  %61 = landingpad { ptr, i32 }
          cleanup
  %62 = extractvalue { ptr, i32 } %61, 0
  store ptr %62, ptr %exn.slot, align 8
  %63 = extractvalue { ptr, i32 } %61, 1
  store i32 %63, ptr %ehselector.slot, align 4
  br label %ehcleanup97

lpad90:                                           ; preds = %invoke.cont89
  %64 = landingpad { ptr, i32 }
          cleanup
  %65 = extractvalue { ptr, i32 } %64, 0
  store ptr %65, ptr %exn.slot, align 8
  %66 = extractvalue { ptr, i32 } %64, 1
  store i32 %66, ptr %ehselector.slot, align 4
  br label %ehcleanup96

lpad92:                                           ; preds = %invoke.cont93, %invoke.cont91
  %67 = landingpad { ptr, i32 }
          cleanup
  %68 = extractvalue { ptr, i32 } %67, 0
  store ptr %68, ptr %exn.slot, align 8
  %69 = extractvalue { ptr, i32 } %67, 1
  store i32 %69, ptr %ehselector.slot, align 4
  call void @_ZNSt7__cxx1112basic_stringIcSt11char_traitsIcESaIcEED1Ev(ptr noundef nonnull align 8 dereferenceable(32) %ref.tmp82) #13
  br label %ehcleanup96

ehcleanup96:                                      ; preds = %lpad92, %lpad90
  call void @_ZNSt7__cxx1112basic_stringIcSt11char_traitsIcESaIcEED1Ev(ptr noundef nonnull align 8 dereferenceable(32) %ref.tmp86) #13
  br label %ehcleanup97

ehcleanup97:                                      ; preds = %ehcleanup96, %lpad88
  call void @_ZNSaIcED1Ev(ptr noundef nonnull align 1 dereferenceable(1) %ref.tmp87) #13
  %cleanup.is_active99 = load i1, ptr %cleanup.isactive94, align 1
  br i1 %cleanup.is_active99, label %cleanup.action100, label %cleanup.done101

cleanup.action100:                                ; preds = %ehcleanup97
  call void @__cxa_free_exception(ptr %exception81) #13
  br label %cleanup.done101

cleanup.done101:                                  ; preds = %cleanup.action100, %ehcleanup97
  invoke void @__cxa_end_catch()
          to label %invoke.cont103 unwind label %terminate.lpad

invoke.cont103:                                   ; preds = %cleanup.done101
  br label %ehcleanup108

try.cont104:                                      ; No predecessors!
  store i32 0, ptr %cleanup.dest.slot, align 4
  br label %cleanup105

cleanup105:                                       ; preds = %try.cont104, %invoke.cont74
  call void @_ZNSt10shared_ptrIKN6Assimp4STEP7EXPRESS8DataTypeEED2Ev(ptr noundef nonnull align 8 dereferenceable(16) %arg71) #13
  %cleanup.dest106 = load i32, ptr %cleanup.dest.slot, align 4
  switch i32 %cleanup.dest106, label %unreachable [
    i32 0, label %cleanup.cont107
    i32 6, label %do.end109
  ]

cleanup.cont107:                                  ; preds = %cleanup105
  br label %do.end109

do.end109:                                        ; preds = %cleanup.cont107, %cleanup105
  %70 = load i64, ptr %base, align 8
  ret i64 %70

ehcleanup108:                                     ; preds = %invoke.cont103, %catch.dispatch75
  call void @_ZNSt10shared_ptrIKN6Assimp4STEP7EXPRESS8DataTypeEED2Ev(ptr noundef nonnull align 8 dereferenceable(16) %arg71) #13
  br label %eh.resume

eh.resume:                                        ; preds = %ehcleanup108, %ehcleanup68, %ehcleanup29, %cleanup.done
  %exn110 = load ptr, ptr %exn.slot, align 8
  %sel111 = load i32, ptr %ehselector.slot, align 4
  %lpad.val = insertvalue { ptr, i32 } poison, ptr %exn110, 0
  %lpad.val112 = insertvalue { ptr, i32 } %lpad.val, i32 %sel111, 1
  resume { ptr, i32 } %lpad.val112

terminate.lpad:                                   ; preds = %cleanup.done101, %cleanup.done61, %cleanup.done26
  %71 = landingpad { ptr, i32 }
          catch ptr null
  %72 = extractvalue { ptr, i32 } %71, 0
  call void @__clang_call_terminate(ptr %72) #12
  unreachable

unreachable:                                      ; preds = %cleanup105, %invoke.cont93, %cleanup65, %invoke.cont53, %cleanup, %invoke.cont18, %invoke.cont4
  unreachable
}

; Function Attrs: mustprogress uwtable
define hidden noundef i64 @_ZN6Assimp4STEP11GenericFillINS_3IFC10Schema_2x325IfcStructuralPlanarActionEEEmRKNS0_2DBERKNS0_7EXPRESS4LISTEPT_(ptr noundef nonnull align 8 dereferenceable(376) %db, ptr noundef nonnull align 8 dereferenceable(32) %params, ptr noundef %in) #2 {
entry:
  %db.addr = alloca ptr, align 8
  %params.addr = alloca ptr, align 8
  %in.addr = alloca ptr, align 8
  %base = alloca i64, align 8
  store ptr %db, ptr %db.addr, align 8
  store ptr %params, ptr %params.addr, align 8
  store ptr %in, ptr %in.addr, align 8
  %0 = load ptr, ptr %db.addr, align 8
  %1 = load ptr, ptr %params.addr, align 8
  %2 = load ptr, ptr %in.addr, align 8
  %call = call noundef i64 @_ZN6Assimp4STEP11GenericFillINS_3IFC10Schema_2x319IfcStructuralActionEEEmRKNS0_2DBERKNS0_7EXPRESS4LISTEPT_(ptr noundef nonnull align 8 dereferenceable(376) %0, ptr noundef nonnull align 8 dereferenceable(32) %1, ptr noundef %2)
  store i64 %call, ptr %base, align 8
  %3 = load i64, ptr %base, align 8
  ret i64 %3
}

declare noundef i64 @_ZN6Assimp4STEP11GenericFillINS_3IFC10Schema_2x319IfcStructuralActionEEEmRKNS0_2DBERKNS0_7EXPRESS4LISTEPT_(ptr noundef nonnull align 8 dereferenceable(376), ptr noundef nonnull align 8 dereferenceable(32), ptr noundef) #3

; Function Attrs: mustprogress uwtable
define hidden noundef i64 @_ZN6Assimp4STEP11GenericFillINS_3IFC10Schema_2x332IfcStructuralPlanarActionVaryingEEEmRKNS0_2DBERKNS0_7EXPRESS4LISTEPT_(ptr noundef nonnull align 8 dereferenceable(376) %db, ptr noundef nonnull align 8 dereferenceable(32) %params, ptr noundef %in) #2 {
entry:
  %db.addr = alloca ptr, align 8
  %params.addr = alloca ptr, align 8
  %in.addr = alloca ptr, align 8
  %base = alloca i64, align 8
  store ptr %db, ptr %db.addr, align 8
  store ptr %params, ptr %params.addr, align 8
  store ptr %in, ptr %in.addr, align 8
  %0 = load ptr, ptr %db.addr, align 8
  %1 = load ptr, ptr %params.addr, align 8
  %2 = load ptr, ptr %in.addr, align 8
  %call = call noundef i64 @_ZN6Assimp4STEP11GenericFillINS_3IFC10Schema_2x325IfcStructuralPlanarActionEEEmRKNS0_2DBERKNS0_7EXPRESS4LISTEPT_(ptr noundef nonnull align 8 dereferenceable(376) %0, ptr noundef nonnull align 8 dereferenceable(32) %1, ptr noundef %2)
  store i64 %call, ptr %base, align 8
  %3 = load i64, ptr %base, align 8
  ret i64 %3
}

; Function Attrs: mustprogress uwtable
define hidden noundef i64 @_ZN6Assimp4STEP11GenericFillINS_3IFC10Schema_2x37IfcSiteEEEmRKNS0_2DBERKNS0_7EXPRESS4LISTEPT_(ptr noundef nonnull align 8 dereferenceable(376) %db, ptr noundef nonnull align 8 dereferenceable(32) %params, ptr noundef %in) #2 personality ptr @__gxx_personality_v0 {
entry:
  %db.addr = alloca ptr, align 8
  %params.addr = alloca ptr, align 8
  %in.addr = alloca ptr, align 8
  %base = alloca i64, align 8
  %ref.tmp = alloca %"class.std::__cxx11::basic_string", align 8
  %ref.tmp2 = alloca %"class.std::allocator", align 1
  %exn.slot = alloca ptr, align 8
  %ehselector.slot = alloca i32, align 4
  %cleanup.isactive = alloca i1, align 1
  %arg = alloca %"class.std::shared_ptr.29", align 8
  %cleanup.dest.slot = alloca i32, align 4
  %t = alloca ptr, align 8
  %ref.tmp12 = alloca %"class.std::__cxx11::basic_string", align 8
  %ref.tmp14 = alloca %"class.std::__cxx11::basic_string", align 8
  %ref.tmp15 = alloca %"class.std::allocator", align 1
  %cleanup.isactive22 = alloca i1, align 1
  %arg34 = alloca %"class.std::shared_ptr.29", align 8
  %t49 = alloca ptr, align 8
  %ref.tmp52 = alloca %"class.std::__cxx11::basic_string", align 8
  %ref.tmp56 = alloca %"class.std::__cxx11::basic_string", align 8
  %ref.tmp57 = alloca %"class.std::allocator", align 1
  %cleanup.isactive64 = alloca i1, align 1
  %arg81 = alloca %"class.std::shared_ptr.29", align 8
  %t96 = alloca ptr, align 8
  %ref.tmp99 = alloca %"class.std::__cxx11::basic_string", align 8
  %ref.tmp103 = alloca %"class.std::__cxx11::basic_string", align 8
  %ref.tmp104 = alloca %"class.std::allocator", align 1
  %cleanup.isactive111 = alloca i1, align 1
  %arg128 = alloca %"class.std::shared_ptr.29", align 8
  %t143 = alloca ptr, align 8
  %ref.tmp146 = alloca %"class.std::__cxx11::basic_string", align 8
  %ref.tmp150 = alloca %"class.std::__cxx11::basic_string", align 8
  %ref.tmp151 = alloca %"class.std::allocator", align 1
  %cleanup.isactive158 = alloca i1, align 1
  %arg175 = alloca %"class.std::shared_ptr.29", align 8
  %t190 = alloca ptr, align 8
  %ref.tmp193 = alloca %"class.std::__cxx11::basic_string", align 8
  %ref.tmp197 = alloca %"class.std::__cxx11::basic_string", align 8
  %ref.tmp198 = alloca %"class.std::allocator", align 1
  %cleanup.isactive205 = alloca i1, align 1
  store ptr %db, ptr %db.addr, align 8
  store ptr %params, ptr %params.addr, align 8
  store ptr %in, ptr %in.addr, align 8
  %0 = load ptr, ptr %db.addr, align 8
  %1 = load ptr, ptr %params.addr, align 8
  %2 = load ptr, ptr %in.addr, align 8
  %call = call noundef i64 @_ZN6Assimp4STEP11GenericFillINS_3IFC10Schema_2x326IfcSpatialStructureElementEEEmRKNS0_2DBERKNS0_7EXPRESS4LISTEPT_(ptr noundef nonnull align 8 dereferenceable(376) %0, ptr noundef nonnull align 8 dereferenceable(32) %1, ptr noundef %2)
  store i64 %call, ptr %base, align 8
  %3 = load ptr, ptr %params.addr, align 8
  %call1 = call noundef i64 @_ZNK6Assimp4STEP7EXPRESS4LIST7GetSizeEv(ptr noundef nonnull align 8 dereferenceable(32) %3)
  %cmp = icmp ult i64 %call1, 14
  br i1 %cmp, label %if.then, label %if.end

if.then:                                          ; preds = %entry
  store i1 true, ptr %cleanup.isactive, align 1
  %exception = call ptr @__cxa_allocate_exception(i64 16) #13
  call void @_ZNSaIcEC1Ev(ptr noundef nonnull align 1 dereferenceable(1) %ref.tmp2) #13
  invoke void @_ZNSt7__cxx1112basic_stringIcSt11char_traitsIcESaIcEEC2IS3_EEPKcRKS3_(ptr noundef nonnull align 8 dereferenceable(32) %ref.tmp, ptr noundef @.str.14, ptr noundef nonnull align 1 dereferenceable(1) %ref.tmp2)
          to label %invoke.cont unwind label %lpad

invoke.cont:                                      ; preds = %if.then
  invoke void @_ZN6Assimp4STEP9TypeErrorC1ERKNSt7__cxx1112basic_stringIcSt11char_traitsIcESaIcEEEmm(ptr noundef nonnull align 8 dereferenceable(16) %exception, ptr noundef nonnull align 8 dereferenceable(32) %ref.tmp, i64 noundef -1, i64 noundef 1152921504606846975)
          to label %invoke.cont4 unwind label %lpad3

invoke.cont4:                                     ; preds = %invoke.cont
  store i1 false, ptr %cleanup.isactive, align 1
  invoke void @__cxa_throw(ptr %exception, ptr @_ZTIN6Assimp4STEP9TypeErrorE, ptr @_ZN6Assimp4STEP9TypeErrorD2Ev) #14
          to label %unreachable unwind label %lpad3

lpad:                                             ; preds = %if.then
  %4 = landingpad { ptr, i32 }
          cleanup
  %5 = extractvalue { ptr, i32 } %4, 0
  store ptr %5, ptr %exn.slot, align 8
  %6 = extractvalue { ptr, i32 } %4, 1
  store i32 %6, ptr %ehselector.slot, align 4
  br label %ehcleanup

lpad3:                                            ; preds = %invoke.cont4, %invoke.cont
  %7 = landingpad { ptr, i32 }
          cleanup
  %8 = extractvalue { ptr, i32 } %7, 0
  store ptr %8, ptr %exn.slot, align 8
  %9 = extractvalue { ptr, i32 } %7, 1
  store i32 %9, ptr %ehselector.slot, align 4
  call void @_ZNSt7__cxx1112basic_stringIcSt11char_traitsIcESaIcEED1Ev(ptr noundef nonnull align 8 dereferenceable(32) %ref.tmp) #13
  br label %ehcleanup

ehcleanup:                                        ; preds = %lpad3, %lpad
  call void @_ZNSaIcED1Ev(ptr noundef nonnull align 1 dereferenceable(1) %ref.tmp2) #13
  %cleanup.is_active = load i1, ptr %cleanup.isactive, align 1
  br i1 %cleanup.is_active, label %cleanup.action, label %cleanup.done

cleanup.action:                                   ; preds = %ehcleanup
  call void @__cxa_free_exception(ptr %exception) #13
  br label %cleanup.done

cleanup.done:                                     ; preds = %cleanup.action, %ehcleanup
  br label %eh.resume

if.end:                                           ; preds = %entry
  br label %do.body

do.body:                                          ; preds = %if.end
  %10 = load ptr, ptr %params.addr, align 8
  %11 = load i64, ptr %base, align 8
  %inc = add i64 %11, 1
  store i64 %inc, ptr %base, align 8
  call void @_ZNK6Assimp4STEP7EXPRESS4LISTixEm(ptr sret(%"class.std::shared_ptr.29") align 8 %arg, ptr noundef nonnull align 8 dereferenceable(32) %10, i64 noundef %11)
  %call6 = call noundef nonnull align 8 dereferenceable(8) ptr @_ZNKSt19__shared_ptr_accessIKN6Assimp4STEP7EXPRESS8DataTypeELN9__gnu_cxx12_Lock_policyE2ELb0ELb0EEdeEv(ptr noundef nonnull align 1 dereferenceable(1) %arg) #13
  %12 = icmp eq ptr %call6, null
  br i1 %12, label %dynamic_cast.null, label %dynamic_cast.notnull

dynamic_cast.notnull:                             ; preds = %do.body
  %13 = call ptr @__dynamic_cast(ptr %call6, ptr @_ZTIN6Assimp4STEP7EXPRESS8DataTypeE, ptr @_ZTIN6Assimp4STEP7EXPRESS5UNSETE, i64 0) #13
  br label %dynamic_cast.end

dynamic_cast.null:                                ; preds = %do.body
  br label %dynamic_cast.end

dynamic_cast.end:                                 ; preds = %dynamic_cast.null, %dynamic_cast.notnull
  %14 = phi ptr [ %13, %dynamic_cast.notnull ], [ null, %dynamic_cast.null ]
  %tobool = icmp ne ptr %14, null
  br i1 %tobool, label %if.then7, label %if.end8

if.then7:                                         ; preds = %dynamic_cast.end
  store i32 2, ptr %cleanup.dest.slot, align 4
  br label %cleanup

if.end8:                                          ; preds = %dynamic_cast.end
  %15 = load ptr, ptr %in.addr, align 8
  %RefLatitude = getelementptr inbounds %"struct.Assimp::IFC::Schema_2x3::IfcSite", ptr %15, i32 0, i32 2
  %16 = load ptr, ptr %db.addr, align 8
  invoke void @_ZN6Assimp4STEP14GenericConvertINS0_5MaybeINS0_6ListOfINS0_7EXPRESS17PrimitiveDataTypeIlEELm3ELm3EEEEEEEvRT_RKSt10shared_ptrIKNS4_8DataTypeEERKNS0_2DBE(ptr noundef nonnull align 8 dereferenceable(25) %RefLatitude, ptr noundef nonnull align 8 dereferenceable(16) %arg, ptr noundef nonnull align 8 dereferenceable(376) %16)
          to label %invoke.cont10 unwind label %lpad9

invoke.cont10:                                    ; preds = %if.end8
  store i32 2, ptr %cleanup.dest.slot, align 4
  br label %cleanup

lpad9:                                            ; preds = %if.end8
  %17 = landingpad { ptr, i32 }
          cleanup
          catch ptr @_ZTIN6Assimp4STEP9TypeErrorE
  %18 = extractvalue { ptr, i32 } %17, 0
  store ptr %18, ptr %exn.slot, align 8
  %19 = extractvalue { ptr, i32 } %17, 1
  store i32 %19, ptr %ehselector.slot, align 4
  br label %catch.dispatch

catch.dispatch:                                   ; preds = %lpad9
  %sel = load i32, ptr %ehselector.slot, align 4
  %20 = call i32 @llvm.eh.typeid.for(ptr @_ZTIN6Assimp4STEP9TypeErrorE) #13
  %matches = icmp eq i32 %sel, %20
  br i1 %matches, label %catch, label %ehcleanup32

catch:                                            ; preds = %catch.dispatch
  %exn = load ptr, ptr %exn.slot, align 8
  %21 = call ptr @__cxa_begin_catch(ptr %exn) #13
  store ptr %21, ptr %t, align 8
  store i1 true, ptr %cleanup.isactive22, align 1
  %exception11 = call ptr @__cxa_allocate_exception(i64 16) #13
  %22 = load ptr, ptr %t, align 8
  %vtable = load ptr, ptr %22, align 8
  %vfn = getelementptr inbounds ptr, ptr %vtable, i64 2
  %23 = load ptr, ptr %vfn, align 8
  %call13 = call noundef ptr %23(ptr noundef nonnull align 8 dereferenceable(16) %22) #13
  call void @_ZNSaIcEC1Ev(ptr noundef nonnull align 1 dereferenceable(1) %ref.tmp15) #13
  invoke void @_ZNSt7__cxx1112basic_stringIcSt11char_traitsIcESaIcEEC2IS3_EEPKcRKS3_(ptr noundef nonnull align 8 dereferenceable(32) %ref.tmp14, ptr noundef @.str.15, ptr noundef nonnull align 1 dereferenceable(1) %ref.tmp15)
          to label %invoke.cont17 unwind label %lpad16

invoke.cont17:                                    ; preds = %catch
  invoke void @_ZStplIcSt11char_traitsIcESaIcEENSt7__cxx1112basic_stringIT_T0_T1_EEPKS5_OS8_(ptr sret(%"class.std::__cxx11::basic_string") align 8 %ref.tmp12, ptr noundef %call13, ptr noundef nonnull align 8 dereferenceable(32) %ref.tmp14)
          to label %invoke.cont19 unwind label %lpad18

invoke.cont19:                                    ; preds = %invoke.cont17
  invoke void @_ZN6Assimp4STEP9TypeErrorC1ERKNSt7__cxx1112basic_stringIcSt11char_traitsIcESaIcEEEmm(ptr noundef nonnull align 8 dereferenceable(16) %exception11, ptr noundef nonnull align 8 dereferenceable(32) %ref.tmp12, i64 noundef -1, i64 noundef 1152921504606846975)
          to label %invoke.cont21 unwind label %lpad20

invoke.cont21:                                    ; preds = %invoke.cont19
  store i1 false, ptr %cleanup.isactive22, align 1
  invoke void @__cxa_throw(ptr %exception11, ptr @_ZTIN6Assimp4STEP9TypeErrorE, ptr @_ZN6Assimp4STEP9TypeErrorD2Ev) #14
          to label %unreachable unwind label %lpad20

lpad16:                                           ; preds = %catch
  %24 = landingpad { ptr, i32 }
          cleanup
  %25 = extractvalue { ptr, i32 } %24, 0
  store ptr %25, ptr %exn.slot, align 8
  %26 = extractvalue { ptr, i32 } %24, 1
  store i32 %26, ptr %ehselector.slot, align 4
  br label %ehcleanup25

lpad18:                                           ; preds = %invoke.cont17
  %27 = landingpad { ptr, i32 }
          cleanup
  %28 = extractvalue { ptr, i32 } %27, 0
  store ptr %28, ptr %exn.slot, align 8
  %29 = extractvalue { ptr, i32 } %27, 1
  store i32 %29, ptr %ehselector.slot, align 4
  br label %ehcleanup24

lpad20:                                           ; preds = %invoke.cont21, %invoke.cont19
  %30 = landingpad { ptr, i32 }
          cleanup
  %31 = extractvalue { ptr, i32 } %30, 0
  store ptr %31, ptr %exn.slot, align 8
  %32 = extractvalue { ptr, i32 } %30, 1
  store i32 %32, ptr %ehselector.slot, align 4
  call void @_ZNSt7__cxx1112basic_stringIcSt11char_traitsIcESaIcEED1Ev(ptr noundef nonnull align 8 dereferenceable(32) %ref.tmp12) #13
  br label %ehcleanup24

ehcleanup24:                                      ; preds = %lpad20, %lpad18
  call void @_ZNSt7__cxx1112basic_stringIcSt11char_traitsIcESaIcEED1Ev(ptr noundef nonnull align 8 dereferenceable(32) %ref.tmp14) #13
  br label %ehcleanup25

ehcleanup25:                                      ; preds = %ehcleanup24, %lpad16
  call void @_ZNSaIcED1Ev(ptr noundef nonnull align 1 dereferenceable(1) %ref.tmp15) #13
  %cleanup.is_active27 = load i1, ptr %cleanup.isactive22, align 1
  br i1 %cleanup.is_active27, label %cleanup.action28, label %cleanup.done29

cleanup.action28:                                 ; preds = %ehcleanup25
  call void @__cxa_free_exception(ptr %exception11) #13
  br label %cleanup.done29

cleanup.done29:                                   ; preds = %cleanup.action28, %ehcleanup25
  invoke void @__cxa_end_catch()
          to label %invoke.cont31 unwind label %terminate.lpad

invoke.cont31:                                    ; preds = %cleanup.done29
  br label %ehcleanup32

try.cont:                                         ; No predecessors!
  store i32 0, ptr %cleanup.dest.slot, align 4
  br label %cleanup

cleanup:                                          ; preds = %try.cont, %invoke.cont10, %if.then7
  call void @_ZNSt10shared_ptrIKN6Assimp4STEP7EXPRESS8DataTypeEED2Ev(ptr noundef nonnull align 8 dereferenceable(16) %arg) #13
  %cleanup.dest = load i32, ptr %cleanup.dest.slot, align 4
  switch i32 %cleanup.dest, label %unreachable [
    i32 0, label %cleanup.cont
    i32 2, label %do.end
  ]

cleanup.cont:                                     ; preds = %cleanup
  br label %do.end

do.end:                                           ; preds = %cleanup.cont, %cleanup
  br label %do.body33

do.body33:                                        ; preds = %do.end
  %33 = load ptr, ptr %params.addr, align 8
  %34 = load i64, ptr %base, align 8
  %inc35 = add i64 %34, 1
  store i64 %inc35, ptr %base, align 8
  call void @_ZNK6Assimp4STEP7EXPRESS4LISTixEm(ptr sret(%"class.std::shared_ptr.29") align 8 %arg34, ptr noundef nonnull align 8 dereferenceable(32) %33, i64 noundef %34)
  %call36 = call noundef nonnull align 8 dereferenceable(8) ptr @_ZNKSt19__shared_ptr_accessIKN6Assimp4STEP7EXPRESS8DataTypeELN9__gnu_cxx12_Lock_policyE2ELb0ELb0EEdeEv(ptr noundef nonnull align 1 dereferenceable(1) %arg34) #13
  %35 = icmp eq ptr %call36, null
  br i1 %35, label %dynamic_cast.null38, label %dynamic_cast.notnull37

dynamic_cast.notnull37:                           ; preds = %do.body33
  %36 = call ptr @__dynamic_cast(ptr %call36, ptr @_ZTIN6Assimp4STEP7EXPRESS8DataTypeE, ptr @_ZTIN6Assimp4STEP7EXPRESS5UNSETE, i64 0) #13
  br label %dynamic_cast.end39

ehcleanup32:                                      ; preds = %invoke.cont31, %catch.dispatch
  call void @_ZNSt10shared_ptrIKN6Assimp4STEP7EXPRESS8DataTypeEED2Ev(ptr noundef nonnull align 8 dereferenceable(16) %arg) #13
  br label %eh.resume

dynamic_cast.null38:                              ; preds = %do.body33
  br label %dynamic_cast.end39

dynamic_cast.end39:                               ; preds = %dynamic_cast.null38, %dynamic_cast.notnull37
  %37 = phi ptr [ %36, %dynamic_cast.notnull37 ], [ null, %dynamic_cast.null38 ]
  %tobool40 = icmp ne ptr %37, null
  br i1 %tobool40, label %if.then41, label %if.end42

if.then41:                                        ; preds = %dynamic_cast.end39
  store i32 4, ptr %cleanup.dest.slot, align 4
  br label %cleanup75

if.end42:                                         ; preds = %dynamic_cast.end39
  %38 = load ptr, ptr %in.addr, align 8
  %RefLongitude = getelementptr inbounds %"struct.Assimp::IFC::Schema_2x3::IfcSite", ptr %38, i32 0, i32 3
  %39 = load ptr, ptr %db.addr, align 8
  invoke void @_ZN6Assimp4STEP14GenericConvertINS0_5MaybeINS0_6ListOfINS0_7EXPRESS17PrimitiveDataTypeIlEELm3ELm3EEEEEEEvRT_RKSt10shared_ptrIKNS4_8DataTypeEERKNS0_2DBE(ptr noundef nonnull align 8 dereferenceable(25) %RefLongitude, ptr noundef nonnull align 8 dereferenceable(16) %arg34, ptr noundef nonnull align 8 dereferenceable(376) %39)
          to label %invoke.cont44 unwind label %lpad43

invoke.cont44:                                    ; preds = %if.end42
  store i32 4, ptr %cleanup.dest.slot, align 4
  br label %cleanup75

lpad43:                                           ; preds = %if.end42
  %40 = landingpad { ptr, i32 }
          cleanup
          catch ptr @_ZTIN6Assimp4STEP9TypeErrorE
  %41 = extractvalue { ptr, i32 } %40, 0
  store ptr %41, ptr %exn.slot, align 8
  %42 = extractvalue { ptr, i32 } %40, 1
  store i32 %42, ptr %ehselector.slot, align 4
  br label %catch.dispatch45

catch.dispatch45:                                 ; preds = %lpad43
  %sel46 = load i32, ptr %ehselector.slot, align 4
  %43 = call i32 @llvm.eh.typeid.for(ptr @_ZTIN6Assimp4STEP9TypeErrorE) #13
  %matches47 = icmp eq i32 %sel46, %43
  br i1 %matches47, label %catch48, label %ehcleanup78

catch48:                                          ; preds = %catch.dispatch45
  %exn50 = load ptr, ptr %exn.slot, align 8
  %44 = call ptr @__cxa_begin_catch(ptr %exn50) #13
  store ptr %44, ptr %t49, align 8
  store i1 true, ptr %cleanup.isactive64, align 1
  %exception51 = call ptr @__cxa_allocate_exception(i64 16) #13
  %45 = load ptr, ptr %t49, align 8
  %vtable53 = load ptr, ptr %45, align 8
  %vfn54 = getelementptr inbounds ptr, ptr %vtable53, i64 2
  %46 = load ptr, ptr %vfn54, align 8
  %call55 = call noundef ptr %46(ptr noundef nonnull align 8 dereferenceable(16) %45) #13
  call void @_ZNSaIcEC1Ev(ptr noundef nonnull align 1 dereferenceable(1) %ref.tmp57) #13
  invoke void @_ZNSt7__cxx1112basic_stringIcSt11char_traitsIcESaIcEEC2IS3_EEPKcRKS3_(ptr noundef nonnull align 8 dereferenceable(32) %ref.tmp56, ptr noundef @.str.16, ptr noundef nonnull align 1 dereferenceable(1) %ref.tmp57)
          to label %invoke.cont59 unwind label %lpad58

invoke.cont59:                                    ; preds = %catch48
  invoke void @_ZStplIcSt11char_traitsIcESaIcEENSt7__cxx1112basic_stringIT_T0_T1_EEPKS5_OS8_(ptr sret(%"class.std::__cxx11::basic_string") align 8 %ref.tmp52, ptr noundef %call55, ptr noundef nonnull align 8 dereferenceable(32) %ref.tmp56)
          to label %invoke.cont61 unwind label %lpad60

invoke.cont61:                                    ; preds = %invoke.cont59
  invoke void @_ZN6Assimp4STEP9TypeErrorC1ERKNSt7__cxx1112basic_stringIcSt11char_traitsIcESaIcEEEmm(ptr noundef nonnull align 8 dereferenceable(16) %exception51, ptr noundef nonnull align 8 dereferenceable(32) %ref.tmp52, i64 noundef -1, i64 noundef 1152921504606846975)
          to label %invoke.cont63 unwind label %lpad62

invoke.cont63:                                    ; preds = %invoke.cont61
  store i1 false, ptr %cleanup.isactive64, align 1
  invoke void @__cxa_throw(ptr %exception51, ptr @_ZTIN6Assimp4STEP9TypeErrorE, ptr @_ZN6Assimp4STEP9TypeErrorD2Ev) #14
          to label %unreachable unwind label %lpad62

lpad58:                                           ; preds = %catch48
  %47 = landingpad { ptr, i32 }
          cleanup
  %48 = extractvalue { ptr, i32 } %47, 0
  store ptr %48, ptr %exn.slot, align 8
  %49 = extractvalue { ptr, i32 } %47, 1
  store i32 %49, ptr %ehselector.slot, align 4
  br label %ehcleanup67

lpad60:                                           ; preds = %invoke.cont59
  %50 = landingpad { ptr, i32 }
          cleanup
  %51 = extractvalue { ptr, i32 } %50, 0
  store ptr %51, ptr %exn.slot, align 8
  %52 = extractvalue { ptr, i32 } %50, 1
  store i32 %52, ptr %ehselector.slot, align 4
  br label %ehcleanup66

lpad62:                                           ; preds = %invoke.cont63, %invoke.cont61
  %53 = landingpad { ptr, i32 }
          cleanup
  %54 = extractvalue { ptr, i32 } %53, 0
  store ptr %54, ptr %exn.slot, align 8
  %55 = extractvalue { ptr, i32 } %53, 1
  store i32 %55, ptr %ehselector.slot, align 4
  call void @_ZNSt7__cxx1112basic_stringIcSt11char_traitsIcESaIcEED1Ev(ptr noundef nonnull align 8 dereferenceable(32) %ref.tmp52) #13
  br label %ehcleanup66

ehcleanup66:                                      ; preds = %lpad62, %lpad60
  call void @_ZNSt7__cxx1112basic_stringIcSt11char_traitsIcESaIcEED1Ev(ptr noundef nonnull align 8 dereferenceable(32) %ref.tmp56) #13
  br label %ehcleanup67

ehcleanup67:                                      ; preds = %ehcleanup66, %lpad58
  call void @_ZNSaIcED1Ev(ptr noundef nonnull align 1 dereferenceable(1) %ref.tmp57) #13
  %cleanup.is_active69 = load i1, ptr %cleanup.isactive64, align 1
  br i1 %cleanup.is_active69, label %cleanup.action70, label %cleanup.done71

cleanup.action70:                                 ; preds = %ehcleanup67
  call void @__cxa_free_exception(ptr %exception51) #13
  br label %cleanup.done71

cleanup.done71:                                   ; preds = %cleanup.action70, %ehcleanup67
  invoke void @__cxa_end_catch()
          to label %invoke.cont73 unwind label %terminate.lpad

invoke.cont73:                                    ; preds = %cleanup.done71
  br label %ehcleanup78

try.cont74:                                       ; No predecessors!
  store i32 0, ptr %cleanup.dest.slot, align 4
  br label %cleanup75

cleanup75:                                        ; preds = %try.cont74, %invoke.cont44, %if.then41
  call void @_ZNSt10shared_ptrIKN6Assimp4STEP7EXPRESS8DataTypeEED2Ev(ptr noundef nonnull align 8 dereferenceable(16) %arg34) #13
  %cleanup.dest76 = load i32, ptr %cleanup.dest.slot, align 4
  switch i32 %cleanup.dest76, label %unreachable [
    i32 0, label %cleanup.cont77
    i32 4, label %do.end79
  ]

cleanup.cont77:                                   ; preds = %cleanup75
  br label %do.end79

do.end79:                                         ; preds = %cleanup.cont77, %cleanup75
  br label %do.body80

do.body80:                                        ; preds = %do.end79
  %56 = load ptr, ptr %params.addr, align 8
  %57 = load i64, ptr %base, align 8
  %inc82 = add i64 %57, 1
  store i64 %inc82, ptr %base, align 8
  call void @_ZNK6Assimp4STEP7EXPRESS4LISTixEm(ptr sret(%"class.std::shared_ptr.29") align 8 %arg81, ptr noundef nonnull align 8 dereferenceable(32) %56, i64 noundef %57)
  %call83 = call noundef nonnull align 8 dereferenceable(8) ptr @_ZNKSt19__shared_ptr_accessIKN6Assimp4STEP7EXPRESS8DataTypeELN9__gnu_cxx12_Lock_policyE2ELb0ELb0EEdeEv(ptr noundef nonnull align 1 dereferenceable(1) %arg81) #13
  %58 = icmp eq ptr %call83, null
  br i1 %58, label %dynamic_cast.null85, label %dynamic_cast.notnull84

dynamic_cast.notnull84:                           ; preds = %do.body80
  %59 = call ptr @__dynamic_cast(ptr %call83, ptr @_ZTIN6Assimp4STEP7EXPRESS8DataTypeE, ptr @_ZTIN6Assimp4STEP7EXPRESS5UNSETE, i64 0) #13
  br label %dynamic_cast.end86

ehcleanup78:                                      ; preds = %invoke.cont73, %catch.dispatch45
  call void @_ZNSt10shared_ptrIKN6Assimp4STEP7EXPRESS8DataTypeEED2Ev(ptr noundef nonnull align 8 dereferenceable(16) %arg34) #13
  br label %eh.resume

dynamic_cast.null85:                              ; preds = %do.body80
  br label %dynamic_cast.end86

dynamic_cast.end86:                               ; preds = %dynamic_cast.null85, %dynamic_cast.notnull84
  %60 = phi ptr [ %59, %dynamic_cast.notnull84 ], [ null, %dynamic_cast.null85 ]
  %tobool87 = icmp ne ptr %60, null
  br i1 %tobool87, label %if.then88, label %if.end89

if.then88:                                        ; preds = %dynamic_cast.end86
  store i32 6, ptr %cleanup.dest.slot, align 4
  br label %cleanup122

if.end89:                                         ; preds = %dynamic_cast.end86
  %61 = load ptr, ptr %in.addr, align 8
  %RefElevation = getelementptr inbounds %"struct.Assimp::IFC::Schema_2x3::IfcSite", ptr %61, i32 0, i32 4
  %62 = load ptr, ptr %db.addr, align 8
  invoke void @_ZN6Assimp4STEP14GenericConvertINS0_5MaybeIdEEEEvRT_RKSt10shared_ptrIKNS0_7EXPRESS8DataTypeEERKNS0_2DBE(ptr noundef nonnull align 8 dereferenceable(9) %RefElevation, ptr noundef nonnull align 8 dereferenceable(16) %arg81, ptr noundef nonnull align 8 dereferenceable(376) %62)
          to label %invoke.cont91 unwind label %lpad90

invoke.cont91:                                    ; preds = %if.end89
  store i32 6, ptr %cleanup.dest.slot, align 4
  br label %cleanup122

lpad90:                                           ; preds = %if.end89
  %63 = landingpad { ptr, i32 }
          cleanup
          catch ptr @_ZTIN6Assimp4STEP9TypeErrorE
  %64 = extractvalue { ptr, i32 } %63, 0
  store ptr %64, ptr %exn.slot, align 8
  %65 = extractvalue { ptr, i32 } %63, 1
  store i32 %65, ptr %ehselector.slot, align 4
  br label %catch.dispatch92

catch.dispatch92:                                 ; preds = %lpad90
  %sel93 = load i32, ptr %ehselector.slot, align 4
  %66 = call i32 @llvm.eh.typeid.for(ptr @_ZTIN6Assimp4STEP9TypeErrorE) #13
  %matches94 = icmp eq i32 %sel93, %66
  br i1 %matches94, label %catch95, label %ehcleanup125

catch95:                                          ; preds = %catch.dispatch92
  %exn97 = load ptr, ptr %exn.slot, align 8
  %67 = call ptr @__cxa_begin_catch(ptr %exn97) #13
  store ptr %67, ptr %t96, align 8
  store i1 true, ptr %cleanup.isactive111, align 1
  %exception98 = call ptr @__cxa_allocate_exception(i64 16) #13
  %68 = load ptr, ptr %t96, align 8
  %vtable100 = load ptr, ptr %68, align 8
  %vfn101 = getelementptr inbounds ptr, ptr %vtable100, i64 2
  %69 = load ptr, ptr %vfn101, align 8
  %call102 = call noundef ptr %69(ptr noundef nonnull align 8 dereferenceable(16) %68) #13
  call void @_ZNSaIcEC1Ev(ptr noundef nonnull align 1 dereferenceable(1) %ref.tmp104) #13
  invoke void @_ZNSt7__cxx1112basic_stringIcSt11char_traitsIcESaIcEEC2IS3_EEPKcRKS3_(ptr noundef nonnull align 8 dereferenceable(32) %ref.tmp103, ptr noundef @.str.17, ptr noundef nonnull align 1 dereferenceable(1) %ref.tmp104)
          to label %invoke.cont106 unwind label %lpad105

invoke.cont106:                                   ; preds = %catch95
  invoke void @_ZStplIcSt11char_traitsIcESaIcEENSt7__cxx1112basic_stringIT_T0_T1_EEPKS5_OS8_(ptr sret(%"class.std::__cxx11::basic_string") align 8 %ref.tmp99, ptr noundef %call102, ptr noundef nonnull align 8 dereferenceable(32) %ref.tmp103)
          to label %invoke.cont108 unwind label %lpad107

invoke.cont108:                                   ; preds = %invoke.cont106
  invoke void @_ZN6Assimp4STEP9TypeErrorC1ERKNSt7__cxx1112basic_stringIcSt11char_traitsIcESaIcEEEmm(ptr noundef nonnull align 8 dereferenceable(16) %exception98, ptr noundef nonnull align 8 dereferenceable(32) %ref.tmp99, i64 noundef -1, i64 noundef 1152921504606846975)
          to label %invoke.cont110 unwind label %lpad109

invoke.cont110:                                   ; preds = %invoke.cont108
  store i1 false, ptr %cleanup.isactive111, align 1
  invoke void @__cxa_throw(ptr %exception98, ptr @_ZTIN6Assimp4STEP9TypeErrorE, ptr @_ZN6Assimp4STEP9TypeErrorD2Ev) #14
          to label %unreachable unwind label %lpad109

lpad105:                                          ; preds = %catch95
  %70 = landingpad { ptr, i32 }
          cleanup
  %71 = extractvalue { ptr, i32 } %70, 0
  store ptr %71, ptr %exn.slot, align 8
  %72 = extractvalue { ptr, i32 } %70, 1
  store i32 %72, ptr %ehselector.slot, align 4
  br label %ehcleanup114

lpad107:                                          ; preds = %invoke.cont106
  %73 = landingpad { ptr, i32 }
          cleanup
  %74 = extractvalue { ptr, i32 } %73, 0
  store ptr %74, ptr %exn.slot, align 8
  %75 = extractvalue { ptr, i32 } %73, 1
  store i32 %75, ptr %ehselector.slot, align 4
  br label %ehcleanup113

lpad109:                                          ; preds = %invoke.cont110, %invoke.cont108
  %76 = landingpad { ptr, i32 }
          cleanup
  %77 = extractvalue { ptr, i32 } %76, 0
  store ptr %77, ptr %exn.slot, align 8
  %78 = extractvalue { ptr, i32 } %76, 1
  store i32 %78, ptr %ehselector.slot, align 4
  call void @_ZNSt7__cxx1112basic_stringIcSt11char_traitsIcESaIcEED1Ev(ptr noundef nonnull align 8 dereferenceable(32) %ref.tmp99) #13
  br label %ehcleanup113

ehcleanup113:                                     ; preds = %lpad109, %lpad107
  call void @_ZNSt7__cxx1112basic_stringIcSt11char_traitsIcESaIcEED1Ev(ptr noundef nonnull align 8 dereferenceable(32) %ref.tmp103) #13
  br label %ehcleanup114

ehcleanup114:                                     ; preds = %ehcleanup113, %lpad105
  call void @_ZNSaIcED1Ev(ptr noundef nonnull align 1 dereferenceable(1) %ref.tmp104) #13
  %cleanup.is_active116 = load i1, ptr %cleanup.isactive111, align 1
  br i1 %cleanup.is_active116, label %cleanup.action117, label %cleanup.done118

cleanup.action117:                                ; preds = %ehcleanup114
  call void @__cxa_free_exception(ptr %exception98) #13
  br label %cleanup.done118

cleanup.done118:                                  ; preds = %cleanup.action117, %ehcleanup114
  invoke void @__cxa_end_catch()
          to label %invoke.cont120 unwind label %terminate.lpad

invoke.cont120:                                   ; preds = %cleanup.done118
  br label %ehcleanup125

try.cont121:                                      ; No predecessors!
  store i32 0, ptr %cleanup.dest.slot, align 4
  br label %cleanup122

cleanup122:                                       ; preds = %try.cont121, %invoke.cont91, %if.then88
  call void @_ZNSt10shared_ptrIKN6Assimp4STEP7EXPRESS8DataTypeEED2Ev(ptr noundef nonnull align 8 dereferenceable(16) %arg81) #13
  %cleanup.dest123 = load i32, ptr %cleanup.dest.slot, align 4
  switch i32 %cleanup.dest123, label %unreachable [
    i32 0, label %cleanup.cont124
    i32 6, label %do.end126
  ]

cleanup.cont124:                                  ; preds = %cleanup122
  br label %do.end126

do.end126:                                        ; preds = %cleanup.cont124, %cleanup122
  br label %do.body127

do.body127:                                       ; preds = %do.end126
  %79 = load ptr, ptr %params.addr, align 8
  %80 = load i64, ptr %base, align 8
  %inc129 = add i64 %80, 1
  store i64 %inc129, ptr %base, align 8
  call void @_ZNK6Assimp4STEP7EXPRESS4LISTixEm(ptr sret(%"class.std::shared_ptr.29") align 8 %arg128, ptr noundef nonnull align 8 dereferenceable(32) %79, i64 noundef %80)
  %call130 = call noundef nonnull align 8 dereferenceable(8) ptr @_ZNKSt19__shared_ptr_accessIKN6Assimp4STEP7EXPRESS8DataTypeELN9__gnu_cxx12_Lock_policyE2ELb0ELb0EEdeEv(ptr noundef nonnull align 1 dereferenceable(1) %arg128) #13
  %81 = icmp eq ptr %call130, null
  br i1 %81, label %dynamic_cast.null132, label %dynamic_cast.notnull131

dynamic_cast.notnull131:                          ; preds = %do.body127
  %82 = call ptr @__dynamic_cast(ptr %call130, ptr @_ZTIN6Assimp4STEP7EXPRESS8DataTypeE, ptr @_ZTIN6Assimp4STEP7EXPRESS5UNSETE, i64 0) #13
  br label %dynamic_cast.end133

ehcleanup125:                                     ; preds = %invoke.cont120, %catch.dispatch92
  call void @_ZNSt10shared_ptrIKN6Assimp4STEP7EXPRESS8DataTypeEED2Ev(ptr noundef nonnull align 8 dereferenceable(16) %arg81) #13
  br label %eh.resume

dynamic_cast.null132:                             ; preds = %do.body127
  br label %dynamic_cast.end133

dynamic_cast.end133:                              ; preds = %dynamic_cast.null132, %dynamic_cast.notnull131
  %83 = phi ptr [ %82, %dynamic_cast.notnull131 ], [ null, %dynamic_cast.null132 ]
  %tobool134 = icmp ne ptr %83, null
  br i1 %tobool134, label %if.then135, label %if.end136

if.then135:                                       ; preds = %dynamic_cast.end133
  store i32 8, ptr %cleanup.dest.slot, align 4
  br label %cleanup169

if.end136:                                        ; preds = %dynamic_cast.end133
  %84 = load ptr, ptr %in.addr, align 8
  %LandTitleNumber = getelementptr inbounds %"struct.Assimp::IFC::Schema_2x3::IfcSite", ptr %84, i32 0, i32 5
  %85 = load ptr, ptr %db.addr, align 8
  invoke void @_ZN6Assimp4STEP14GenericConvertINS0_5MaybeINSt7__cxx1112basic_stringIcSt11char_traitsIcESaIcEEEEEEEvRT_RKSt10shared_ptrIKNS0_7EXPRESS8DataTypeEERKNS0_2DBE(ptr noundef nonnull align 8 dereferenceable(33) %LandTitleNumber, ptr noundef nonnull align 8 dereferenceable(16) %arg128, ptr noundef nonnull align 8 dereferenceable(376) %85)
          to label %invoke.cont138 unwind label %lpad137

invoke.cont138:                                   ; preds = %if.end136
  store i32 8, ptr %cleanup.dest.slot, align 4
  br label %cleanup169

lpad137:                                          ; preds = %if.end136
  %86 = landingpad { ptr, i32 }
          cleanup
          catch ptr @_ZTIN6Assimp4STEP9TypeErrorE
  %87 = extractvalue { ptr, i32 } %86, 0
  store ptr %87, ptr %exn.slot, align 8
  %88 = extractvalue { ptr, i32 } %86, 1
  store i32 %88, ptr %ehselector.slot, align 4
  br label %catch.dispatch139

catch.dispatch139:                                ; preds = %lpad137
  %sel140 = load i32, ptr %ehselector.slot, align 4
  %89 = call i32 @llvm.eh.typeid.for(ptr @_ZTIN6Assimp4STEP9TypeErrorE) #13
  %matches141 = icmp eq i32 %sel140, %89
  br i1 %matches141, label %catch142, label %ehcleanup172

catch142:                                         ; preds = %catch.dispatch139
  %exn144 = load ptr, ptr %exn.slot, align 8
  %90 = call ptr @__cxa_begin_catch(ptr %exn144) #13
  store ptr %90, ptr %t143, align 8
  store i1 true, ptr %cleanup.isactive158, align 1
  %exception145 = call ptr @__cxa_allocate_exception(i64 16) #13
  %91 = load ptr, ptr %t143, align 8
  %vtable147 = load ptr, ptr %91, align 8
  %vfn148 = getelementptr inbounds ptr, ptr %vtable147, i64 2
  %92 = load ptr, ptr %vfn148, align 8
  %call149 = call noundef ptr %92(ptr noundef nonnull align 8 dereferenceable(16) %91) #13
  call void @_ZNSaIcEC1Ev(ptr noundef nonnull align 1 dereferenceable(1) %ref.tmp151) #13
  invoke void @_ZNSt7__cxx1112basic_stringIcSt11char_traitsIcESaIcEEC2IS3_EEPKcRKS3_(ptr noundef nonnull align 8 dereferenceable(32) %ref.tmp150, ptr noundef @.str.18, ptr noundef nonnull align 1 dereferenceable(1) %ref.tmp151)
          to label %invoke.cont153 unwind label %lpad152

invoke.cont153:                                   ; preds = %catch142
  invoke void @_ZStplIcSt11char_traitsIcESaIcEENSt7__cxx1112basic_stringIT_T0_T1_EEPKS5_OS8_(ptr sret(%"class.std::__cxx11::basic_string") align 8 %ref.tmp146, ptr noundef %call149, ptr noundef nonnull align 8 dereferenceable(32) %ref.tmp150)
          to label %invoke.cont155 unwind label %lpad154

invoke.cont155:                                   ; preds = %invoke.cont153
  invoke void @_ZN6Assimp4STEP9TypeErrorC1ERKNSt7__cxx1112basic_stringIcSt11char_traitsIcESaIcEEEmm(ptr noundef nonnull align 8 dereferenceable(16) %exception145, ptr noundef nonnull align 8 dereferenceable(32) %ref.tmp146, i64 noundef -1, i64 noundef 1152921504606846975)
          to label %invoke.cont157 unwind label %lpad156

invoke.cont157:                                   ; preds = %invoke.cont155
  store i1 false, ptr %cleanup.isactive158, align 1
  invoke void @__cxa_throw(ptr %exception145, ptr @_ZTIN6Assimp4STEP9TypeErrorE, ptr @_ZN6Assimp4STEP9TypeErrorD2Ev) #14
          to label %unreachable unwind label %lpad156

lpad152:                                          ; preds = %catch142
  %93 = landingpad { ptr, i32 }
          cleanup
  %94 = extractvalue { ptr, i32 } %93, 0
  store ptr %94, ptr %exn.slot, align 8
  %95 = extractvalue { ptr, i32 } %93, 1
  store i32 %95, ptr %ehselector.slot, align 4
  br label %ehcleanup161

lpad154:                                          ; preds = %invoke.cont153
  %96 = landingpad { ptr, i32 }
          cleanup
  %97 = extractvalue { ptr, i32 } %96, 0
  store ptr %97, ptr %exn.slot, align 8
  %98 = extractvalue { ptr, i32 } %96, 1
  store i32 %98, ptr %ehselector.slot, align 4
  br label %ehcleanup160

lpad156:                                          ; preds = %invoke.cont157, %invoke.cont155
  %99 = landingpad { ptr, i32 }
          cleanup
  %100 = extractvalue { ptr, i32 } %99, 0
  store ptr %100, ptr %exn.slot, align 8
  %101 = extractvalue { ptr, i32 } %99, 1
  store i32 %101, ptr %ehselector.slot, align 4
  call void @_ZNSt7__cxx1112basic_stringIcSt11char_traitsIcESaIcEED1Ev(ptr noundef nonnull align 8 dereferenceable(32) %ref.tmp146) #13
  br label %ehcleanup160

ehcleanup160:                                     ; preds = %lpad156, %lpad154
  call void @_ZNSt7__cxx1112basic_stringIcSt11char_traitsIcESaIcEED1Ev(ptr noundef nonnull align 8 dereferenceable(32) %ref.tmp150) #13
  br label %ehcleanup161

ehcleanup161:                                     ; preds = %ehcleanup160, %lpad152
  call void @_ZNSaIcED1Ev(ptr noundef nonnull align 1 dereferenceable(1) %ref.tmp151) #13
  %cleanup.is_active163 = load i1, ptr %cleanup.isactive158, align 1
  br i1 %cleanup.is_active163, label %cleanup.action164, label %cleanup.done165

cleanup.action164:                                ; preds = %ehcleanup161
  call void @__cxa_free_exception(ptr %exception145) #13
  br label %cleanup.done165

cleanup.done165:                                  ; preds = %cleanup.action164, %ehcleanup161
  invoke void @__cxa_end_catch()
          to label %invoke.cont167 unwind label %terminate.lpad

invoke.cont167:                                   ; preds = %cleanup.done165
  br label %ehcleanup172

try.cont168:                                      ; No predecessors!
  store i32 0, ptr %cleanup.dest.slot, align 4
  br label %cleanup169

cleanup169:                                       ; preds = %try.cont168, %invoke.cont138, %if.then135
  call void @_ZNSt10shared_ptrIKN6Assimp4STEP7EXPRESS8DataTypeEED2Ev(ptr noundef nonnull align 8 dereferenceable(16) %arg128) #13
  %cleanup.dest170 = load i32, ptr %cleanup.dest.slot, align 4
  switch i32 %cleanup.dest170, label %unreachable [
    i32 0, label %cleanup.cont171
    i32 8, label %do.end173
  ]

cleanup.cont171:                                  ; preds = %cleanup169
  br label %do.end173

do.end173:                                        ; preds = %cleanup.cont171, %cleanup169
  br label %do.body174

do.body174:                                       ; preds = %do.end173
  %102 = load ptr, ptr %params.addr, align 8
  %103 = load i64, ptr %base, align 8
  %inc176 = add i64 %103, 1
  store i64 %inc176, ptr %base, align 8
  call void @_ZNK6Assimp4STEP7EXPRESS4LISTixEm(ptr sret(%"class.std::shared_ptr.29") align 8 %arg175, ptr noundef nonnull align 8 dereferenceable(32) %102, i64 noundef %103)
  %call177 = call noundef nonnull align 8 dereferenceable(8) ptr @_ZNKSt19__shared_ptr_accessIKN6Assimp4STEP7EXPRESS8DataTypeELN9__gnu_cxx12_Lock_policyE2ELb0ELb0EEdeEv(ptr noundef nonnull align 1 dereferenceable(1) %arg175) #13
  %104 = icmp eq ptr %call177, null
  br i1 %104, label %dynamic_cast.null179, label %dynamic_cast.notnull178

dynamic_cast.notnull178:                          ; preds = %do.body174
  %105 = call ptr @__dynamic_cast(ptr %call177, ptr @_ZTIN6Assimp4STEP7EXPRESS8DataTypeE, ptr @_ZTIN6Assimp4STEP7EXPRESS5UNSETE, i64 0) #13
  br label %dynamic_cast.end180

ehcleanup172:                                     ; preds = %invoke.cont167, %catch.dispatch139
  call void @_ZNSt10shared_ptrIKN6Assimp4STEP7EXPRESS8DataTypeEED2Ev(ptr noundef nonnull align 8 dereferenceable(16) %arg128) #13
  br label %eh.resume

dynamic_cast.null179:                             ; preds = %do.body174
  br label %dynamic_cast.end180

dynamic_cast.end180:                              ; preds = %dynamic_cast.null179, %dynamic_cast.notnull178
  %106 = phi ptr [ %105, %dynamic_cast.notnull178 ], [ null, %dynamic_cast.null179 ]
  %tobool181 = icmp ne ptr %106, null
  br i1 %tobool181, label %if.then182, label %if.end183

if.then182:                                       ; preds = %dynamic_cast.end180
  store i32 10, ptr %cleanup.dest.slot, align 4
  br label %cleanup216

if.end183:                                        ; preds = %dynamic_cast.end180
  %107 = load ptr, ptr %in.addr, align 8
  %SiteAddress = getelementptr inbounds %"struct.Assimp::IFC::Schema_2x3::IfcSite", ptr %107, i32 0, i32 6
  %108 = load ptr, ptr %db.addr, align 8
  invoke void @_ZN6Assimp4STEP14GenericConvertINS0_5MaybeINS0_4LazyINS_3IFC10Schema_2x314NotImplementedEEEEEEEvRT_RKSt10shared_ptrIKNS0_7EXPRESS8DataTypeEERKNS0_2DBE(ptr noundef nonnull align 8 dereferenceable(9) %SiteAddress, ptr noundef nonnull align 8 dereferenceable(16) %arg175, ptr noundef nonnull align 8 dereferenceable(376) %108)
          to label %invoke.cont185 unwind label %lpad184

invoke.cont185:                                   ; preds = %if.end183
  store i32 10, ptr %cleanup.dest.slot, align 4
  br label %cleanup216

lpad184:                                          ; preds = %if.end183
  %109 = landingpad { ptr, i32 }
          cleanup
          catch ptr @_ZTIN6Assimp4STEP9TypeErrorE
  %110 = extractvalue { ptr, i32 } %109, 0
  store ptr %110, ptr %exn.slot, align 8
  %111 = extractvalue { ptr, i32 } %109, 1
  store i32 %111, ptr %ehselector.slot, align 4
  br label %catch.dispatch186

catch.dispatch186:                                ; preds = %lpad184
  %sel187 = load i32, ptr %ehselector.slot, align 4
  %112 = call i32 @llvm.eh.typeid.for(ptr @_ZTIN6Assimp4STEP9TypeErrorE) #13
  %matches188 = icmp eq i32 %sel187, %112
  br i1 %matches188, label %catch189, label %ehcleanup219

catch189:                                         ; preds = %catch.dispatch186
  %exn191 = load ptr, ptr %exn.slot, align 8
  %113 = call ptr @__cxa_begin_catch(ptr %exn191) #13
  store ptr %113, ptr %t190, align 8
  store i1 true, ptr %cleanup.isactive205, align 1
  %exception192 = call ptr @__cxa_allocate_exception(i64 16) #13
  %114 = load ptr, ptr %t190, align 8
  %vtable194 = load ptr, ptr %114, align 8
  %vfn195 = getelementptr inbounds ptr, ptr %vtable194, i64 2
  %115 = load ptr, ptr %vfn195, align 8
  %call196 = call noundef ptr %115(ptr noundef nonnull align 8 dereferenceable(16) %114) #13
  call void @_ZNSaIcEC1Ev(ptr noundef nonnull align 1 dereferenceable(1) %ref.tmp198) #13
  invoke void @_ZNSt7__cxx1112basic_stringIcSt11char_traitsIcESaIcEEC2IS3_EEPKcRKS3_(ptr noundef nonnull align 8 dereferenceable(32) %ref.tmp197, ptr noundef @.str.19, ptr noundef nonnull align 1 dereferenceable(1) %ref.tmp198)
          to label %invoke.cont200 unwind label %lpad199

invoke.cont200:                                   ; preds = %catch189
  invoke void @_ZStplIcSt11char_traitsIcESaIcEENSt7__cxx1112basic_stringIT_T0_T1_EEPKS5_OS8_(ptr sret(%"class.std::__cxx11::basic_string") align 8 %ref.tmp193, ptr noundef %call196, ptr noundef nonnull align 8 dereferenceable(32) %ref.tmp197)
          to label %invoke.cont202 unwind label %lpad201

invoke.cont202:                                   ; preds = %invoke.cont200
  invoke void @_ZN6Assimp4STEP9TypeErrorC1ERKNSt7__cxx1112basic_stringIcSt11char_traitsIcESaIcEEEmm(ptr noundef nonnull align 8 dereferenceable(16) %exception192, ptr noundef nonnull align 8 dereferenceable(32) %ref.tmp193, i64 noundef -1, i64 noundef 1152921504606846975)
          to label %invoke.cont204 unwind label %lpad203

invoke.cont204:                                   ; preds = %invoke.cont202
  store i1 false, ptr %cleanup.isactive205, align 1
  invoke void @__cxa_throw(ptr %exception192, ptr @_ZTIN6Assimp4STEP9TypeErrorE, ptr @_ZN6Assimp4STEP9TypeErrorD2Ev) #14
          to label %unreachable unwind label %lpad203

lpad199:                                          ; preds = %catch189
  %116 = landingpad { ptr, i32 }
          cleanup
  %117 = extractvalue { ptr, i32 } %116, 0
  store ptr %117, ptr %exn.slot, align 8
  %118 = extractvalue { ptr, i32 } %116, 1
  store i32 %118, ptr %ehselector.slot, align 4
  br label %ehcleanup208

lpad201:                                          ; preds = %invoke.cont200
  %119 = landingpad { ptr, i32 }
          cleanup
  %120 = extractvalue { ptr, i32 } %119, 0
  store ptr %120, ptr %exn.slot, align 8
  %121 = extractvalue { ptr, i32 } %119, 1
  store i32 %121, ptr %ehselector.slot, align 4
  br label %ehcleanup207

lpad203:                                          ; preds = %invoke.cont204, %invoke.cont202
  %122 = landingpad { ptr, i32 }
          cleanup
  %123 = extractvalue { ptr, i32 } %122, 0
  store ptr %123, ptr %exn.slot, align 8
  %124 = extractvalue { ptr, i32 } %122, 1
  store i32 %124, ptr %ehselector.slot, align 4
  call void @_ZNSt7__cxx1112basic_stringIcSt11char_traitsIcESaIcEED1Ev(ptr noundef nonnull align 8 dereferenceable(32) %ref.tmp193) #13
  br label %ehcleanup207

ehcleanup207:                                     ; preds = %lpad203, %lpad201
  call void @_ZNSt7__cxx1112basic_stringIcSt11char_traitsIcESaIcEED1Ev(ptr noundef nonnull align 8 dereferenceable(32) %ref.tmp197) #13
  br label %ehcleanup208

ehcleanup208:                                     ; preds = %ehcleanup207, %lpad199
  call void @_ZNSaIcED1Ev(ptr noundef nonnull align 1 dereferenceable(1) %ref.tmp198) #13
  %cleanup.is_active210 = load i1, ptr %cleanup.isactive205, align 1
  br i1 %cleanup.is_active210, label %cleanup.action211, label %cleanup.done212

cleanup.action211:                                ; preds = %ehcleanup208
  call void @__cxa_free_exception(ptr %exception192) #13
  br label %cleanup.done212

cleanup.done212:                                  ; preds = %cleanup.action211, %ehcleanup208
  invoke void @__cxa_end_catch()
          to label %invoke.cont214 unwind label %terminate.lpad

invoke.cont214:                                   ; preds = %cleanup.done212
  br label %ehcleanup219

try.cont215:                                      ; No predecessors!
  store i32 0, ptr %cleanup.dest.slot, align 4
  br label %cleanup216

cleanup216:                                       ; preds = %try.cont215, %invoke.cont185, %if.then182
  call void @_ZNSt10shared_ptrIKN6Assimp4STEP7EXPRESS8DataTypeEED2Ev(ptr noundef nonnull align 8 dereferenceable(16) %arg175) #13
  %cleanup.dest217 = load i32, ptr %cleanup.dest.slot, align 4
  switch i32 %cleanup.dest217, label %unreachable [
    i32 0, label %cleanup.cont218
    i32 10, label %do.end220
  ]

cleanup.cont218:                                  ; preds = %cleanup216
  br label %do.end220

do.end220:                                        ; preds = %cleanup.cont218, %cleanup216
  %125 = load i64, ptr %base, align 8
  ret i64 %125

ehcleanup219:                                     ; preds = %invoke.cont214, %catch.dispatch186
  call void @_ZNSt10shared_ptrIKN6Assimp4STEP7EXPRESS8DataTypeEED2Ev(ptr noundef nonnull align 8 dereferenceable(16) %arg175) #13
  br label %eh.resume

eh.resume:                                        ; preds = %ehcleanup219, %ehcleanup172, %ehcleanup125, %ehcleanup78, %ehcleanup32, %cleanup.done
  %exn221 = load ptr, ptr %exn.slot, align 8
  %sel222 = load i32, ptr %ehselector.slot, align 4
  %lpad.val = insertvalue { ptr, i32 } poison, ptr %exn221, 0
  %lpad.val223 = insertvalue { ptr, i32 } %lpad.val, i32 %sel222, 1
  resume { ptr, i32 } %lpad.val223

terminate.lpad:                                   ; preds = %cleanup.done212, %cleanup.done165, %cleanup.done118, %cleanup.done71, %cleanup.done29
  %126 = landingpad { ptr, i32 }
          catch ptr null
  %127 = extractvalue { ptr, i32 } %126, 0
  call void @__clang_call_terminate(ptr %127) #12
  unreachable

unreachable:                                      ; preds = %cleanup216, %invoke.cont204, %cleanup169, %invoke.cont157, %cleanup122, %invoke.cont110, %cleanup75, %invoke.cont63, %cleanup, %invoke.cont21, %invoke.cont4
  unreachable
}

; Function Attrs: mustprogress uwtable
define linkonce_odr hidden void @_ZN6Assimp4STEP14GenericConvertINS0_5MaybeINS0_6ListOfINS0_7EXPRESS17PrimitiveDataTypeIlEELm3ELm3EEEEEEEvRT_RKSt10shared_ptrIKNS4_8DataTypeEERKNS0_2DBE(ptr noundef nonnull align 8 dereferenceable(25) %a, ptr noundef nonnull align 8 dereferenceable(16) %b, ptr noundef nonnull align 8 dereferenceable(376) %db) #2 comdat {
entry:
  %a.addr = alloca ptr, align 8
  %b.addr = alloca ptr, align 8
  %db.addr = alloca ptr, align 8
  %ref.tmp = alloca %"struct.Assimp::STEP::InternGenericConvert.878", align 1
  store ptr %a, ptr %a.addr, align 8
  store ptr %b, ptr %b.addr, align 8
  store ptr %db, ptr %db.addr, align 8
  %0 = load ptr, ptr %a.addr, align 8
  %1 = load ptr, ptr %b.addr, align 8
  %2 = load ptr, ptr %db.addr, align 8
  call void @_ZN6Assimp4STEP20InternGenericConvertINS0_5MaybeINS0_6ListOfINS0_7EXPRESS17PrimitiveDataTypeIlEELm3ELm3EEEEEEclERS8_RKSt10shared_ptrIKNS4_8DataTypeEERKNS0_2DBE(ptr noundef nonnull align 1 dereferenceable(1) %ref.tmp, ptr noundef nonnull align 8 dereferenceable(25) %0, ptr noundef nonnull align 8 dereferenceable(16) %1, ptr noundef nonnull align 8 dereferenceable(376) %2)
  ret void
}

; Function Attrs: mustprogress uwtable
define linkonce_odr hidden void @_ZN6Assimp4STEP14GenericConvertINS0_5MaybeIdEEEEvRT_RKSt10shared_ptrIKNS0_7EXPRESS8DataTypeEERKNS0_2DBE(ptr noundef nonnull align 8 dereferenceable(9) %a, ptr noundef nonnull align 8 dereferenceable(16) %b, ptr noundef nonnull align 8 dereferenceable(376) %db) #2 comdat {
entry:
  %a.addr = alloca ptr, align 8
  %b.addr = alloca ptr, align 8
  %db.addr = alloca ptr, align 8
  %ref.tmp = alloca %"struct.Assimp::STEP::InternGenericConvert.881", align 1
  store ptr %a, ptr %a.addr, align 8
  store ptr %b, ptr %b.addr, align 8
  store ptr %db, ptr %db.addr, align 8
  %0 = load ptr, ptr %a.addr, align 8
  %1 = load ptr, ptr %b.addr, align 8
  %2 = load ptr, ptr %db.addr, align 8
  call void @_ZN6Assimp4STEP20InternGenericConvertINS0_5MaybeIdEEEclERS3_RKSt10shared_ptrIKNS0_7EXPRESS8DataTypeEERKNS0_2DBE(ptr noundef nonnull align 1 dereferenceable(1) %ref.tmp, ptr noundef nonnull align 8 dereferenceable(9) %0, ptr noundef nonnull align 8 dereferenceable(16) %1, ptr noundef nonnull align 8 dereferenceable(376) %2)
  ret void
}

; Function Attrs: mustprogress uwtable
define linkonce_odr hidden void @_ZN6Assimp4STEP14GenericConvertINS0_5MaybeINS0_4LazyINS_3IFC10Schema_2x314NotImplementedEEEEEEEvRT_RKSt10shared_ptrIKNS0_7EXPRESS8DataTypeEERKNS0_2DBE(ptr noundef nonnull align 8 dereferenceable(9) %a, ptr noundef nonnull align 8 dereferenceable(16) %b, ptr noundef nonnull align 8 dereferenceable(376) %db) #2 comdat {
entry:
  %a.addr = alloca ptr, align 8
  %b.addr = alloca ptr, align 8
  %db.addr = alloca ptr, align 8
  %ref.tmp = alloca %"struct.Assimp::STEP::InternGenericConvert.882", align 1
  store ptr %a, ptr %a.addr, align 8
  store ptr %b, ptr %b.addr, align 8
  store ptr %db, ptr %db.addr, align 8
  %0 = load ptr, ptr %a.addr, align 8
  %1 = load ptr, ptr %b.addr, align 8
  %2 = load ptr, ptr %db.addr, align 8
  call void @_ZN6Assimp4STEP20InternGenericConvertINS0_5MaybeINS0_4LazyINS_3IFC10Schema_2x314NotImplementedEEEEEEclERS8_RKSt10shared_ptrIKNS0_7EXPRESS8DataTypeEERKNS0_2DBE(ptr noundef nonnull align 1 dereferenceable(1) %ref.tmp, ptr noundef nonnull align 8 dereferenceable(9) %0, ptr noundef nonnull align 8 dereferenceable(16) %1, ptr noundef nonnull align 8 dereferenceable(376) %2)
  ret void
}

; Function Attrs: mustprogress uwtable
define hidden noundef i64 @_ZN6Assimp4STEP11GenericFillINS_3IFC10Schema_2x324IfcDiscreteAccessoryTypeEEEmRKNS0_2DBERKNS0_7EXPRESS4LISTEPT_(ptr noundef nonnull align 8 dereferenceable(376) %db, ptr noundef nonnull align 8 dereferenceable(32) %params, ptr noundef %in) #2 {
entry:
  %db.addr = alloca ptr, align 8
  %params.addr = alloca ptr, align 8
  %in.addr = alloca ptr, align 8
  %base = alloca i64, align 8
  store ptr %db, ptr %db.addr, align 8
  store ptr %params, ptr %params.addr, align 8
  store ptr %in, ptr %in.addr, align 8
  %0 = load ptr, ptr %db.addr, align 8
  %1 = load ptr, ptr %params.addr, align 8
  %2 = load ptr, ptr %in.addr, align 8
  %call = call noundef i64 @_ZN6Assimp4STEP11GenericFillINS_3IFC10Schema_2x323IfcElementComponentTypeEEEmRKNS0_2DBERKNS0_7EXPRESS4LISTEPT_(ptr noundef nonnull align 8 dereferenceable(376) %0, ptr noundef nonnull align 8 dereferenceable(32) %1, ptr noundef %2)
  store i64 %call, ptr %base, align 8
  %3 = load i64, ptr %base, align 8
  ret i64 %3
}

declare noundef i64 @_ZN6Assimp4STEP11GenericFillINS_3IFC10Schema_2x323IfcElementComponentTypeEEEmRKNS0_2DBERKNS0_7EXPRESS4LISTEPT_(ptr noundef nonnull align 8 dereferenceable(376), ptr noundef nonnull align 8 dereferenceable(32), ptr noundef) #3

; Function Attrs: mustprogress uwtable
define hidden noundef i64 @_ZN6Assimp4STEP11GenericFillINS_3IFC10Schema_2x324IfcVibrationIsolatorTypeEEEmRKNS0_2DBERKNS0_7EXPRESS4LISTEPT_(ptr noundef nonnull align 8 dereferenceable(376) %db, ptr noundef nonnull align 8 dereferenceable(32) %params, ptr noundef %in) #2 {
entry:
  %db.addr = alloca ptr, align 8
  %params.addr = alloca ptr, align 8
  %in.addr = alloca ptr, align 8
  %base = alloca i64, align 8
  store ptr %db, ptr %db.addr, align 8
  store ptr %params, ptr %params.addr, align 8
  store ptr %in, ptr %in.addr, align 8
  %0 = load ptr, ptr %db.addr, align 8
  %1 = load ptr, ptr %params.addr, align 8
  %2 = load ptr, ptr %in.addr, align 8
  %call = call noundef i64 @_ZN6Assimp4STEP11GenericFillINS_3IFC10Schema_2x324IfcDiscreteAccessoryTypeEEEmRKNS0_2DBERKNS0_7EXPRESS4LISTEPT_(ptr noundef nonnull align 8 dereferenceable(376) %0, ptr noundef nonnull align 8 dereferenceable(32) %1, ptr noundef %2)
  store i64 %call, ptr %base, align 8
  %3 = load i64, ptr %base, align 8
  ret i64 %3
}

; Function Attrs: mustprogress uwtable
define hidden noundef i64 @_ZN6Assimp4STEP11GenericFillINS_3IFC10Schema_2x324IfcEvaporativeCoolerTypeEEEmRKNS0_2DBERKNS0_7EXPRESS4LISTEPT_(ptr noundef nonnull align 8 dereferenceable(376) %db, ptr noundef nonnull align 8 dereferenceable(32) %params, ptr noundef %in) #2 {
entry:
  %db.addr = alloca ptr, align 8
  %params.addr = alloca ptr, align 8
  %in.addr = alloca ptr, align 8
  %base = alloca i64, align 8
  store ptr %db, ptr %db.addr, align 8
  store ptr %params, ptr %params.addr, align 8
  store ptr %in, ptr %in.addr, align 8
  %0 = load ptr, ptr %db.addr, align 8
  %1 = load ptr, ptr %params.addr, align 8
  %2 = load ptr, ptr %in.addr, align 8
  %call = call noundef i64 @_ZN6Assimp4STEP11GenericFillINS_3IFC10Schema_2x329IfcEnergyConversionDeviceTypeEEEmRKNS0_2DBERKNS0_7EXPRESS4LISTEPT_(ptr noundef nonnull align 8 dereferenceable(376) %0, ptr noundef nonnull align 8 dereferenceable(32) %1, ptr noundef %2)
  store i64 %call, ptr %base, align 8
  %3 = load i64, ptr %base, align 8
  ret i64 %3
}

declare noundef i64 @_ZN6Assimp4STEP11GenericFillINS_3IFC10Schema_2x329IfcEnergyConversionDeviceTypeEEEmRKNS0_2DBERKNS0_7EXPRESS4LISTEPT_(ptr noundef nonnull align 8 dereferenceable(376), ptr noundef nonnull align 8 dereferenceable(32), ptr noundef) #3

; Function Attrs: mustprogress uwtable
define hidden noundef i64 @_ZN6Assimp4STEP11GenericFillINS_3IFC10Schema_2x333IfcDistributionChamberElementTypeEEEmRKNS0_2DBERKNS0_7EXPRESS4LISTEPT_(ptr noundef nonnull align 8 dereferenceable(376) %db, ptr noundef nonnull align 8 dereferenceable(32) %params, ptr noundef %in) #2 {
entry:
  %db.addr = alloca ptr, align 8
  %params.addr = alloca ptr, align 8
  %in.addr = alloca ptr, align 8
  %base = alloca i64, align 8
  store ptr %db, ptr %db.addr, align 8
  store ptr %params, ptr %params.addr, align 8
  store ptr %in, ptr %in.addr, align 8
  %0 = load ptr, ptr %db.addr, align 8
  %1 = load ptr, ptr %params.addr, align 8
  %2 = load ptr, ptr %in.addr, align 8
  %call = call noundef i64 @_ZN6Assimp4STEP11GenericFillINS_3IFC10Schema_2x330IfcDistributionFlowElementTypeEEEmRKNS0_2DBERKNS0_7EXPRESS4LISTEPT_(ptr noundef nonnull align 8 dereferenceable(376) %0, ptr noundef nonnull align 8 dereferenceable(32) %1, ptr noundef %2)
  store i64 %call, ptr %base, align 8
  %3 = load i64, ptr %base, align 8
  ret i64 %3
}

declare noundef i64 @_ZN6Assimp4STEP11GenericFillINS_3IFC10Schema_2x330IfcDistributionFlowElementTypeEEEmRKNS0_2DBERKNS0_7EXPRESS4LISTEPT_(ptr noundef nonnull align 8 dereferenceable(376), ptr noundef nonnull align 8 dereferenceable(32), ptr noundef) #3

; Function Attrs: mustprogress uwtable
define hidden noundef i64 @_ZN6Assimp4STEP11GenericFillINS_3IFC10Schema_2x325IfcFeatureElementAdditionEEEmRKNS0_2DBERKNS0_7EXPRESS4LISTEPT_(ptr noundef nonnull align 8 dereferenceable(376) %db, ptr noundef nonnull align 8 dereferenceable(32) %params, ptr noundef %in) #2 {
entry:
  %db.addr = alloca ptr, align 8
  %params.addr = alloca ptr, align 8
  %in.addr = alloca ptr, align 8
  %base = alloca i64, align 8
  store ptr %db, ptr %db.addr, align 8
  store ptr %params, ptr %params.addr, align 8
  store ptr %in, ptr %in.addr, align 8
  %0 = load ptr, ptr %db.addr, align 8
  %1 = load ptr, ptr %params.addr, align 8
  %2 = load ptr, ptr %in.addr, align 8
  %call = call noundef i64 @_ZN6Assimp4STEP11GenericFillINS_3IFC10Schema_2x317IfcFeatureElementEEEmRKNS0_2DBERKNS0_7EXPRESS4LISTEPT_(ptr noundef nonnull align 8 dereferenceable(376) %0, ptr noundef nonnull align 8 dereferenceable(32) %1, ptr noundef %2)
  store i64 %call, ptr %base, align 8
  %3 = load i64, ptr %base, align 8
  ret i64 %3
}

declare noundef i64 @_ZN6Assimp4STEP11GenericFillINS_3IFC10Schema_2x317IfcFeatureElementEEEmRKNS0_2DBERKNS0_7EXPRESS4LISTEPT_(ptr noundef nonnull align 8 dereferenceable(376), ptr noundef nonnull align 8 dereferenceable(32), ptr noundef) #3

; Function Attrs: mustprogress uwtable
define hidden noundef i64 @_ZN6Assimp4STEP11GenericFillINS_3IFC10Schema_2x329IfcStructuredDimensionCalloutEEEmRKNS0_2DBERKNS0_7EXPRESS4LISTEPT_(ptr noundef nonnull align 8 dereferenceable(376) %db, ptr noundef nonnull align 8 dereferenceable(32) %params, ptr noundef %in) #2 {
entry:
  %db.addr = alloca ptr, align 8
  %params.addr = alloca ptr, align 8
  %in.addr = alloca ptr, align 8
  %base = alloca i64, align 8
  store ptr %db, ptr %db.addr, align 8
  store ptr %params, ptr %params.addr, align 8
  store ptr %in, ptr %in.addr, align 8
  %0 = load ptr, ptr %db.addr, align 8
  %1 = load ptr, ptr %params.addr, align 8
  %2 = load ptr, ptr %in.addr, align 8
  %call = call noundef i64 @_ZN6Assimp4STEP11GenericFillINS_3IFC10Schema_2x320IfcDraughtingCalloutEEEmRKNS0_2DBERKNS0_7EXPRESS4LISTEPT_(ptr noundef nonnull align 8 dereferenceable(376) %0, ptr noundef nonnull align 8 dereferenceable(32) %1, ptr noundef %2)
  store i64 %call, ptr %base, align 8
  %3 = load i64, ptr %base, align 8
  ret i64 %3
}

declare noundef i64 @_ZN6Assimp4STEP11GenericFillINS_3IFC10Schema_2x320IfcDraughtingCalloutEEEmRKNS0_2DBERKNS0_7EXPRESS4LISTEPT_(ptr noundef nonnull align 8 dereferenceable(376), ptr noundef nonnull align 8 dereferenceable(32), ptr noundef) #3

; Function Attrs: mustprogress uwtable
define hidden noundef i64 @_ZN6Assimp4STEP11GenericFillINS_3IFC10Schema_2x319IfcCoolingTowerTypeEEEmRKNS0_2DBERKNS0_7EXPRESS4LISTEPT_(ptr noundef nonnull align 8 dereferenceable(376) %db, ptr noundef nonnull align 8 dereferenceable(32) %params, ptr noundef %in) #2 {
entry:
  %db.addr = alloca ptr, align 8
  %params.addr = alloca ptr, align 8
  %in.addr = alloca ptr, align 8
  %base = alloca i64, align 8
  store ptr %db, ptr %db.addr, align 8
  store ptr %params, ptr %params.addr, align 8
  store ptr %in, ptr %in.addr, align 8
  %0 = load ptr, ptr %db.addr, align 8
  %1 = load ptr, ptr %params.addr, align 8
  %2 = load ptr, ptr %in.addr, align 8
  %call = call noundef i64 @_ZN6Assimp4STEP11GenericFillINS_3IFC10Schema_2x329IfcEnergyConversionDeviceTypeEEEmRKNS0_2DBERKNS0_7EXPRESS4LISTEPT_(ptr noundef nonnull align 8 dereferenceable(376) %0, ptr noundef nonnull align 8 dereferenceable(32) %1, ptr noundef %2)
  store i64 %call, ptr %base, align 8
  %3 = load i64, ptr %base, align 8
  ret i64 %3
}

; Function Attrs: mustprogress uwtable
define hidden noundef i64 @_ZN6Assimp4STEP11GenericFillINS_3IFC10Schema_2x323IfcCenterLineProfileDefEEEmRKNS0_2DBERKNS0_7EXPRESS4LISTEPT_(ptr noundef nonnull align 8 dereferenceable(376) %db, ptr noundef nonnull align 8 dereferenceable(32) %params, ptr noundef %in) #2 {
entry:
  %db.addr = alloca ptr, align 8
  %params.addr = alloca ptr, align 8
  %in.addr = alloca ptr, align 8
  %base = alloca i64, align 8
  store ptr %db, ptr %db.addr, align 8
  store ptr %params, ptr %params.addr, align 8
  store ptr %in, ptr %in.addr, align 8
  %0 = load ptr, ptr %db.addr, align 8
  %1 = load ptr, ptr %params.addr, align 8
  %2 = load ptr, ptr %in.addr, align 8
  %call = call noundef i64 @_ZN6Assimp4STEP11GenericFillINS_3IFC10Schema_2x326IfcArbitraryOpenProfileDefEEEmRKNS0_2DBERKNS0_7EXPRESS4LISTEPT_(ptr noundef nonnull align 8 dereferenceable(376) %0, ptr noundef nonnull align 8 dereferenceable(32) %1, ptr noundef %2)
  store i64 %call, ptr %base, align 8
  %3 = load i64, ptr %base, align 8
  ret i64 %3
}

declare noundef i64 @_ZN6Assimp4STEP11GenericFillINS_3IFC10Schema_2x326IfcArbitraryOpenProfileDefEEEmRKNS0_2DBERKNS0_7EXPRESS4LISTEPT_(ptr noundef nonnull align 8 dereferenceable(376), ptr noundef nonnull align 8 dereferenceable(32), ptr noundef) #3

; Function Attrs: mustprogress uwtable
define hidden noundef i64 @_ZN6Assimp4STEP11GenericFillINS_3IFC10Schema_2x314IfcWindowStyleEEEmRKNS0_2DBERKNS0_7EXPRESS4LISTEPT_(ptr noundef nonnull align 8 dereferenceable(376) %db, ptr noundef nonnull align 8 dereferenceable(32) %params, ptr noundef %in) #2 {
entry:
  %db.addr = alloca ptr, align 8
  %params.addr = alloca ptr, align 8
  %in.addr = alloca ptr, align 8
  %base = alloca i64, align 8
  store ptr %db, ptr %db.addr, align 8
  store ptr %params, ptr %params.addr, align 8
  store ptr %in, ptr %in.addr, align 8
  %0 = load ptr, ptr %db.addr, align 8
  %1 = load ptr, ptr %params.addr, align 8
  %2 = load ptr, ptr %in.addr, align 8
  %call = call noundef i64 @_ZN6Assimp4STEP11GenericFillINS_3IFC10Schema_2x314IfcTypeProductEEEmRKNS0_2DBERKNS0_7EXPRESS4LISTEPT_(ptr noundef nonnull align 8 dereferenceable(376) %0, ptr noundef nonnull align 8 dereferenceable(32) %1, ptr noundef %2)
  store i64 %call, ptr %base, align 8
  %3 = load i64, ptr %base, align 8
  ret i64 %3
}

declare noundef i64 @_ZN6Assimp4STEP11GenericFillINS_3IFC10Schema_2x314IfcTypeProductEEEmRKNS0_2DBERKNS0_7EXPRESS4LISTEPT_(ptr noundef nonnull align 8 dereferenceable(376), ptr noundef nonnull align 8 dereferenceable(32), ptr noundef) #3

; Function Attrs: mustprogress uwtable
define hidden noundef i64 @_ZN6Assimp4STEP11GenericFillINS_3IFC10Schema_2x325IfcLightSourceGoniometricEEEmRKNS0_2DBERKNS0_7EXPRESS4LISTEPT_(ptr noundef nonnull align 8 dereferenceable(376) %db, ptr noundef nonnull align 8 dereferenceable(32) %params, ptr noundef %in) #2 {
entry:
  %db.addr = alloca ptr, align 8
  %params.addr = alloca ptr, align 8
  %in.addr = alloca ptr, align 8
  %base = alloca i64, align 8
  store ptr %db, ptr %db.addr, align 8
  store ptr %params, ptr %params.addr, align 8
  store ptr %in, ptr %in.addr, align 8
  %0 = load ptr, ptr %db.addr, align 8
  %1 = load ptr, ptr %params.addr, align 8
  %2 = load ptr, ptr %in.addr, align 8
  %call = call noundef i64 @_ZN6Assimp4STEP11GenericFillINS_3IFC10Schema_2x314IfcLightSourceEEEmRKNS0_2DBERKNS0_7EXPRESS4LISTEPT_(ptr noundef nonnull align 8 dereferenceable(376) %0, ptr noundef nonnull align 8 dereferenceable(32) %1, ptr noundef %2)
  store i64 %call, ptr %base, align 8
  %3 = load i64, ptr %base, align 8
  ret i64 %3
}

declare noundef i64 @_ZN6Assimp4STEP11GenericFillINS_3IFC10Schema_2x314IfcLightSourceEEEmRKNS0_2DBERKNS0_7EXPRESS4LISTEPT_(ptr noundef nonnull align 8 dereferenceable(376), ptr noundef nonnull align 8 dereferenceable(32), ptr noundef) #3

; Function Attrs: mustprogress uwtable
define hidden noundef i64 @_ZN6Assimp4STEP11GenericFillINS_3IFC10Schema_2x318IfcTransformerTypeEEEmRKNS0_2DBERKNS0_7EXPRESS4LISTEPT_(ptr noundef nonnull align 8 dereferenceable(376) %db, ptr noundef nonnull align 8 dereferenceable(32) %params, ptr noundef %in) #2 {
entry:
  %db.addr = alloca ptr, align 8
  %params.addr = alloca ptr, align 8
  %in.addr = alloca ptr, align 8
  %base = alloca i64, align 8
  store ptr %db, ptr %db.addr, align 8
  store ptr %params, ptr %params.addr, align 8
  store ptr %in, ptr %in.addr, align 8
  %0 = load ptr, ptr %db.addr, align 8
  %1 = load ptr, ptr %params.addr, align 8
  %2 = load ptr, ptr %in.addr, align 8
  %call = call noundef i64 @_ZN6Assimp4STEP11GenericFillINS_3IFC10Schema_2x329IfcEnergyConversionDeviceTypeEEEmRKNS0_2DBERKNS0_7EXPRESS4LISTEPT_(ptr noundef nonnull align 8 dereferenceable(376) %0, ptr noundef nonnull align 8 dereferenceable(32) %1, ptr noundef %2)
  store i64 %call, ptr %base, align 8
  %3 = load i64, ptr %base, align 8
  ret i64 %3
}

; Function Attrs: mustprogress uwtable
define hidden noundef i64 @_ZN6Assimp4STEP11GenericFillINS_3IFC10Schema_2x313IfcMemberTypeEEEmRKNS0_2DBERKNS0_7EXPRESS4LISTEPT_(ptr noundef nonnull align 8 dereferenceable(376) %db, ptr noundef nonnull align 8 dereferenceable(32) %params, ptr noundef %in) #2 {
entry:
  %db.addr = alloca ptr, align 8
  %params.addr = alloca ptr, align 8
  %in.addr = alloca ptr, align 8
  %base = alloca i64, align 8
  store ptr %db, ptr %db.addr, align 8
  store ptr %params, ptr %params.addr, align 8
  store ptr %in, ptr %in.addr, align 8
  %0 = load ptr, ptr %db.addr, align 8
  %1 = load ptr, ptr %params.addr, align 8
  %2 = load ptr, ptr %in.addr, align 8
  %call = call noundef i64 @_ZN6Assimp4STEP11GenericFillINS_3IFC10Schema_2x322IfcBuildingElementTypeEEEmRKNS0_2DBERKNS0_7EXPRESS4LISTEPT_(ptr noundef nonnull align 8 dereferenceable(376) %0, ptr noundef nonnull align 8 dereferenceable(32) %1, ptr noundef %2)
  store i64 %call, ptr %base, align 8
  %3 = load i64, ptr %base, align 8
  ret i64 %3
}

declare noundef i64 @_ZN6Assimp4STEP11GenericFillINS_3IFC10Schema_2x322IfcBuildingElementTypeEEEmRKNS0_2DBERKNS0_7EXPRESS4LISTEPT_(ptr noundef nonnull align 8 dereferenceable(376), ptr noundef nonnull align 8 dereferenceable(32), ptr noundef) #3

; Function Attrs: mustprogress uwtable
define hidden noundef i64 @_ZN6Assimp4STEP11GenericFillINS_3IFC10Schema_2x327IfcSurfaceOfLinearExtrusionEEEmRKNS0_2DBERKNS0_7EXPRESS4LISTEPT_(ptr noundef nonnull align 8 dereferenceable(376) %db, ptr noundef nonnull align 8 dereferenceable(32) %params, ptr noundef %in) #2 {
entry:
  %db.addr = alloca ptr, align 8
  %params.addr = alloca ptr, align 8
  %in.addr = alloca ptr, align 8
  %base = alloca i64, align 8
  store ptr %db, ptr %db.addr, align 8
  store ptr %params, ptr %params.addr, align 8
  store ptr %in, ptr %in.addr, align 8
  %0 = load ptr, ptr %db.addr, align 8
  %1 = load ptr, ptr %params.addr, align 8
  %2 = load ptr, ptr %in.addr, align 8
  %call = call noundef i64 @_ZN6Assimp4STEP11GenericFillINS_3IFC10Schema_2x315IfcSweptSurfaceEEEmRKNS0_2DBERKNS0_7EXPRESS4LISTEPT_(ptr noundef nonnull align 8 dereferenceable(376) %0, ptr noundef nonnull align 8 dereferenceable(32) %1, ptr noundef %2)
  store i64 %call, ptr %base, align 8
  %3 = load i64, ptr %base, align 8
  ret i64 %3
}

declare noundef i64 @_ZN6Assimp4STEP11GenericFillINS_3IFC10Schema_2x315IfcSweptSurfaceEEEmRKNS0_2DBERKNS0_7EXPRESS4LISTEPT_(ptr noundef nonnull align 8 dereferenceable(376), ptr noundef nonnull align 8 dereferenceable(32), ptr noundef) #3

; Function Attrs: mustprogress uwtable
define hidden noundef i64 @_ZN6Assimp4STEP11GenericFillINS_3IFC10Schema_2x322IfcMotorConnectionTypeEEEmRKNS0_2DBERKNS0_7EXPRESS4LISTEPT_(ptr noundef nonnull align 8 dereferenceable(376) %db, ptr noundef nonnull align 8 dereferenceable(32) %params, ptr noundef %in) #2 {
entry:
  %db.addr = alloca ptr, align 8
  %params.addr = alloca ptr, align 8
  %in.addr = alloca ptr, align 8
  %base = alloca i64, align 8
  store ptr %db, ptr %db.addr, align 8
  store ptr %params, ptr %params.addr, align 8
  store ptr %in, ptr %in.addr, align 8
  %0 = load ptr, ptr %db.addr, align 8
  %1 = load ptr, ptr %params.addr, align 8
  %2 = load ptr, ptr %in.addr, align 8
  %call = call noundef i64 @_ZN6Assimp4STEP11GenericFillINS_3IFC10Schema_2x329IfcEnergyConversionDeviceTypeEEEmRKNS0_2DBERKNS0_7EXPRESS4LISTEPT_(ptr noundef nonnull align 8 dereferenceable(376) %0, ptr noundef nonnull align 8 dereferenceable(32) %1, ptr noundef %2)
  store i64 %call, ptr %base, align 8
  %3 = load i64, ptr %base, align 8
  ret i64 %3
}

; Function Attrs: mustprogress uwtable
define hidden noundef i64 @_ZN6Assimp4STEP11GenericFillINS_3IFC10Schema_2x326IfcFlowTreatmentDeviceTypeEEEmRKNS0_2DBERKNS0_7EXPRESS4LISTEPT_(ptr noundef nonnull align 8 dereferenceable(376) %db, ptr noundef nonnull align 8 dereferenceable(32) %params, ptr noundef %in) #2 {
entry:
  %db.addr = alloca ptr, align 8
  %params.addr = alloca ptr, align 8
  %in.addr = alloca ptr, align 8
  %base = alloca i64, align 8
  store ptr %db, ptr %db.addr, align 8
  store ptr %params, ptr %params.addr, align 8
  store ptr %in, ptr %in.addr, align 8
  %0 = load ptr, ptr %db.addr, align 8
  %1 = load ptr, ptr %params.addr, align 8
  %2 = load ptr, ptr %in.addr, align 8
  %call = call noundef i64 @_ZN6Assimp4STEP11GenericFillINS_3IFC10Schema_2x330IfcDistributionFlowElementTypeEEEmRKNS0_2DBERKNS0_7EXPRESS4LISTEPT_(ptr noundef nonnull align 8 dereferenceable(376) %0, ptr noundef nonnull align 8 dereferenceable(32) %1, ptr noundef %2)
  store i64 %call, ptr %base, align 8
  %3 = load i64, ptr %base, align 8
  ret i64 %3
}

; Function Attrs: mustprogress uwtable
define hidden noundef i64 @_ZN6Assimp4STEP11GenericFillINS_3IFC10Schema_2x319IfcDuctSilencerTypeEEEmRKNS0_2DBERKNS0_7EXPRESS4LISTEPT_(ptr noundef nonnull align 8 dereferenceable(376) %db, ptr noundef nonnull align 8 dereferenceable(32) %params, ptr noundef %in) #2 {
entry:
  %db.addr = alloca ptr, align 8
  %params.addr = alloca ptr, align 8
  %in.addr = alloca ptr, align 8
  %base = alloca i64, align 8
  store ptr %db, ptr %db.addr, align 8
  store ptr %params, ptr %params.addr, align 8
  store ptr %in, ptr %in.addr, align 8
  %0 = load ptr, ptr %db.addr, align 8
  %1 = load ptr, ptr %params.addr, align 8
  %2 = load ptr, ptr %in.addr, align 8
  %call = call noundef i64 @_ZN6Assimp4STEP11GenericFillINS_3IFC10Schema_2x326IfcFlowTreatmentDeviceTypeEEEmRKNS0_2DBERKNS0_7EXPRESS4LISTEPT_(ptr noundef nonnull align 8 dereferenceable(376) %0, ptr noundef nonnull align 8 dereferenceable(32) %1, ptr noundef %2)
  store i64 %call, ptr %base, align 8
  %3 = load i64, ptr %base, align 8
  ret i64 %3
}

; Function Attrs: mustprogress uwtable
define hidden noundef i64 @_ZN6Assimp4STEP11GenericFillINS_3IFC10Schema_2x324IfcFurnishingElementTypeEEEmRKNS0_2DBERKNS0_7EXPRESS4LISTEPT_(ptr noundef nonnull align 8 dereferenceable(376) %db, ptr noundef nonnull align 8 dereferenceable(32) %params, ptr noundef %in) #2 {
entry:
  %db.addr = alloca ptr, align 8
  %params.addr = alloca ptr, align 8
  %in.addr = alloca ptr, align 8
  %base = alloca i64, align 8
  store ptr %db, ptr %db.addr, align 8
  store ptr %params, ptr %params.addr, align 8
  store ptr %in, ptr %in.addr, align 8
  %0 = load ptr, ptr %db.addr, align 8
  %1 = load ptr, ptr %params.addr, align 8
  %2 = load ptr, ptr %in.addr, align 8
  %call = call noundef i64 @_ZN6Assimp4STEP11GenericFillINS_3IFC10Schema_2x314IfcElementTypeEEEmRKNS0_2DBERKNS0_7EXPRESS4LISTEPT_(ptr noundef nonnull align 8 dereferenceable(376) %0, ptr noundef nonnull align 8 dereferenceable(32) %1, ptr noundef %2)
  store i64 %call, ptr %base, align 8
  %3 = load i64, ptr %base, align 8
  ret i64 %3
}

declare noundef i64 @_ZN6Assimp4STEP11GenericFillINS_3IFC10Schema_2x314IfcElementTypeEEEmRKNS0_2DBERKNS0_7EXPRESS4LISTEPT_(ptr noundef nonnull align 8 dereferenceable(376), ptr noundef nonnull align 8 dereferenceable(32), ptr noundef) #3

; Function Attrs: mustprogress uwtable
define hidden noundef i64 @_ZN6Assimp4STEP11GenericFillINS_3IFC10Schema_2x329IfcSystemFurnitureElementTypeEEEmRKNS0_2DBERKNS0_7EXPRESS4LISTEPT_(ptr noundef nonnull align 8 dereferenceable(376) %db, ptr noundef nonnull align 8 dereferenceable(32) %params, ptr noundef %in) #2 {
entry:
  %db.addr = alloca ptr, align 8
  %params.addr = alloca ptr, align 8
  %in.addr = alloca ptr, align 8
  %base = alloca i64, align 8
  store ptr %db, ptr %db.addr, align 8
  store ptr %params, ptr %params.addr, align 8
  store ptr %in, ptr %in.addr, align 8
  %0 = load ptr, ptr %db.addr, align 8
  %1 = load ptr, ptr %params.addr, align 8
  %2 = load ptr, ptr %in.addr, align 8
  %call = call noundef i64 @_ZN6Assimp4STEP11GenericFillINS_3IFC10Schema_2x324IfcFurnishingElementTypeEEEmRKNS0_2DBERKNS0_7EXPRESS4LISTEPT_(ptr noundef nonnull align 8 dereferenceable(376) %0, ptr noundef nonnull align 8 dereferenceable(32) %1, ptr noundef %2)
  store i64 %call, ptr %base, align 8
  %3 = load i64, ptr %base, align 8
  ret i64 %3
}

; Function Attrs: mustprogress uwtable
define hidden noundef i64 @_ZN6Assimp4STEP11GenericFillINS_3IFC10Schema_2x320IfcWasteTerminalTypeEEEmRKNS0_2DBERKNS0_7EXPRESS4LISTEPT_(ptr noundef nonnull align 8 dereferenceable(376) %db, ptr noundef nonnull align 8 dereferenceable(32) %params, ptr noundef %in) #2 {
entry:
  %db.addr = alloca ptr, align 8
  %params.addr = alloca ptr, align 8
  %in.addr = alloca ptr, align 8
  %base = alloca i64, align 8
  store ptr %db, ptr %db.addr, align 8
  store ptr %params, ptr %params.addr, align 8
  store ptr %in, ptr %in.addr, align 8
  %0 = load ptr, ptr %db.addr, align 8
  %1 = load ptr, ptr %params.addr, align 8
  %2 = load ptr, ptr %in.addr, align 8
  %call = call noundef i64 @_ZN6Assimp4STEP11GenericFillINS_3IFC10Schema_2x319IfcFlowTerminalTypeEEEmRKNS0_2DBERKNS0_7EXPRESS4LISTEPT_(ptr noundef nonnull align 8 dereferenceable(376) %0, ptr noundef nonnull align 8 dereferenceable(32) %1, ptr noundef %2)
  store i64 %call, ptr %base, align 8
  %3 = load i64, ptr %base, align 8
  ret i64 %3
}

declare noundef i64 @_ZN6Assimp4STEP11GenericFillINS_3IFC10Schema_2x319IfcFlowTerminalTypeEEEmRKNS0_2DBERKNS0_7EXPRESS4LISTEPT_(ptr noundef nonnull align 8 dereferenceable(376), ptr noundef nonnull align 8 dereferenceable(32), ptr noundef) #3

; Function Attrs: mustprogress uwtable
define hidden noundef i64 @_ZN6Assimp4STEP11GenericFillINS_3IFC10Schema_2x315IfcBSplineCurveEEEmRKNS0_2DBERKNS0_7EXPRESS4LISTEPT_(ptr noundef nonnull align 8 dereferenceable(376) %db, ptr noundef nonnull align 8 dereferenceable(32) %params, ptr noundef %in) #2 personality ptr @__gxx_personality_v0 {
entry:
  %db.addr = alloca ptr, align 8
  %params.addr = alloca ptr, align 8
  %in.addr = alloca ptr, align 8
  %base = alloca i64, align 8
  %ref.tmp = alloca %"class.std::__cxx11::basic_string", align 8
  %ref.tmp2 = alloca %"class.std::allocator", align 1
  %exn.slot = alloca ptr, align 8
  %ehselector.slot = alloca i32, align 4
  %cleanup.isactive = alloca i1, align 1
  %arg = alloca %"class.std::shared_ptr.29", align 8
  %ref.tmp8 = alloca %"class.std::bitset<5>::reference", align 8
  %cleanup.dest.slot = alloca i32, align 4
  %t = alloca ptr, align 8
  %ref.tmp16 = alloca %"class.std::__cxx11::basic_string", align 8
  %ref.tmp18 = alloca %"class.std::__cxx11::basic_string", align 8
  %ref.tmp19 = alloca %"class.std::allocator", align 1
  %cleanup.isactive26 = alloca i1, align 1
  %arg38 = alloca %"class.std::shared_ptr.29", align 8
  %ref.tmp46 = alloca %"class.std::bitset<5>::reference", align 8
  %t59 = alloca ptr, align 8
  %ref.tmp62 = alloca %"class.std::__cxx11::basic_string", align 8
  %ref.tmp66 = alloca %"class.std::__cxx11::basic_string", align 8
  %ref.tmp67 = alloca %"class.std::allocator", align 1
  %cleanup.isactive74 = alloca i1, align 1
  %arg91 = alloca %"class.std::shared_ptr.29", align 8
  %ref.tmp99 = alloca %"class.std::bitset<5>::reference", align 8
  %t112 = alloca ptr, align 8
  %ref.tmp115 = alloca %"class.std::__cxx11::basic_string", align 8
  %ref.tmp119 = alloca %"class.std::__cxx11::basic_string", align 8
  %ref.tmp120 = alloca %"class.std::allocator", align 1
  %cleanup.isactive127 = alloca i1, align 1
  %arg144 = alloca %"class.std::shared_ptr.29", align 8
  %ref.tmp152 = alloca %"class.std::bitset<5>::reference", align 8
  %t165 = alloca ptr, align 8
  %ref.tmp168 = alloca %"class.std::__cxx11::basic_string", align 8
  %ref.tmp172 = alloca %"class.std::__cxx11::basic_string", align 8
  %ref.tmp173 = alloca %"class.std::allocator", align 1
  %cleanup.isactive180 = alloca i1, align 1
  %arg197 = alloca %"class.std::shared_ptr.29", align 8
  %ref.tmp205 = alloca %"class.std::bitset<5>::reference", align 8
  %t218 = alloca ptr, align 8
  %ref.tmp221 = alloca %"class.std::__cxx11::basic_string", align 8
  %ref.tmp225 = alloca %"class.std::__cxx11::basic_string", align 8
  %ref.tmp226 = alloca %"class.std::allocator", align 1
  %cleanup.isactive233 = alloca i1, align 1
  store ptr %db, ptr %db.addr, align 8
  store ptr %params, ptr %params.addr, align 8
  store ptr %in, ptr %in.addr, align 8
  %0 = load ptr, ptr %db.addr, align 8
  %1 = load ptr, ptr %params.addr, align 8
  %2 = load ptr, ptr %in.addr, align 8
  %call = call noundef i64 @_ZN6Assimp4STEP11GenericFillINS_3IFC10Schema_2x315IfcBoundedCurveEEEmRKNS0_2DBERKNS0_7EXPRESS4LISTEPT_(ptr noundef nonnull align 8 dereferenceable(376) %0, ptr noundef nonnull align 8 dereferenceable(32) %1, ptr noundef %2)
  store i64 %call, ptr %base, align 8
  %3 = load ptr, ptr %params.addr, align 8
  %call1 = call noundef i64 @_ZNK6Assimp4STEP7EXPRESS4LIST7GetSizeEv(ptr noundef nonnull align 8 dereferenceable(32) %3)
  %cmp = icmp ult i64 %call1, 5
  br i1 %cmp, label %if.then, label %if.end

if.then:                                          ; preds = %entry
  store i1 true, ptr %cleanup.isactive, align 1
  %exception = call ptr @__cxa_allocate_exception(i64 16) #13
  call void @_ZNSaIcEC1Ev(ptr noundef nonnull align 1 dereferenceable(1) %ref.tmp2) #13
  invoke void @_ZNSt7__cxx1112basic_stringIcSt11char_traitsIcESaIcEEC2IS3_EEPKcRKS3_(ptr noundef nonnull align 8 dereferenceable(32) %ref.tmp, ptr noundef @.str.20, ptr noundef nonnull align 1 dereferenceable(1) %ref.tmp2)
          to label %invoke.cont unwind label %lpad

invoke.cont:                                      ; preds = %if.then
  invoke void @_ZN6Assimp4STEP9TypeErrorC1ERKNSt7__cxx1112basic_stringIcSt11char_traitsIcESaIcEEEmm(ptr noundef nonnull align 8 dereferenceable(16) %exception, ptr noundef nonnull align 8 dereferenceable(32) %ref.tmp, i64 noundef -1, i64 noundef 1152921504606846975)
          to label %invoke.cont4 unwind label %lpad3

invoke.cont4:                                     ; preds = %invoke.cont
  store i1 false, ptr %cleanup.isactive, align 1
  invoke void @__cxa_throw(ptr %exception, ptr @_ZTIN6Assimp4STEP9TypeErrorE, ptr @_ZN6Assimp4STEP9TypeErrorD2Ev) #14
          to label %unreachable unwind label %lpad3

lpad:                                             ; preds = %if.then
  %4 = landingpad { ptr, i32 }
          cleanup
  %5 = extractvalue { ptr, i32 } %4, 0
  store ptr %5, ptr %exn.slot, align 8
  %6 = extractvalue { ptr, i32 } %4, 1
  store i32 %6, ptr %ehselector.slot, align 4
  br label %ehcleanup

lpad3:                                            ; preds = %invoke.cont4, %invoke.cont
  %7 = landingpad { ptr, i32 }
          cleanup
  %8 = extractvalue { ptr, i32 } %7, 0
  store ptr %8, ptr %exn.slot, align 8
  %9 = extractvalue { ptr, i32 } %7, 1
  store i32 %9, ptr %ehselector.slot, align 4
  call void @_ZNSt7__cxx1112basic_stringIcSt11char_traitsIcESaIcEED1Ev(ptr noundef nonnull align 8 dereferenceable(32) %ref.tmp) #13
  br label %ehcleanup

ehcleanup:                                        ; preds = %lpad3, %lpad
  call void @_ZNSaIcED1Ev(ptr noundef nonnull align 1 dereferenceable(1) %ref.tmp2) #13
  %cleanup.is_active = load i1, ptr %cleanup.isactive, align 1
  br i1 %cleanup.is_active, label %cleanup.action, label %cleanup.done

cleanup.action:                                   ; preds = %ehcleanup
  call void @__cxa_free_exception(ptr %exception) #13
  br label %cleanup.done

cleanup.done:                                     ; preds = %cleanup.action, %ehcleanup
  br label %eh.resume

if.end:                                           ; preds = %entry
  br label %do.body

do.body:                                          ; preds = %if.end
  %10 = load ptr, ptr %params.addr, align 8
  %11 = load i64, ptr %base, align 8
  %inc = add i64 %11, 1
  store i64 %inc, ptr %base, align 8
  call void @_ZNK6Assimp4STEP7EXPRESS4LISTixEm(ptr sret(%"class.std::shared_ptr.29") align 8 %arg, ptr noundef nonnull align 8 dereferenceable(32) %10, i64 noundef %11)
  %call6 = call noundef nonnull align 8 dereferenceable(8) ptr @_ZNKSt19__shared_ptr_accessIKN6Assimp4STEP7EXPRESS8DataTypeELN9__gnu_cxx12_Lock_policyE2ELb0ELb0EEdeEv(ptr noundef nonnull align 1 dereferenceable(1) %arg) #13
  %12 = icmp eq ptr %call6, null
  br i1 %12, label %dynamic_cast.null, label %dynamic_cast.notnull

dynamic_cast.notnull:                             ; preds = %do.body
  %13 = call ptr @__dynamic_cast(ptr %call6, ptr @_ZTIN6Assimp4STEP7EXPRESS8DataTypeE, ptr @_ZTIN6Assimp4STEP7EXPRESS9ISDERIVEDE, i64 0) #13
  br label %dynamic_cast.end

dynamic_cast.null:                                ; preds = %do.body
  br label %dynamic_cast.end

dynamic_cast.end:                                 ; preds = %dynamic_cast.null, %dynamic_cast.notnull
  %14 = phi ptr [ %13, %dynamic_cast.notnull ], [ null, %dynamic_cast.null ]
  %tobool = icmp ne ptr %14, null
  br i1 %tobool, label %if.then7, label %if.end12

if.then7:                                         ; preds = %dynamic_cast.end
  %15 = load ptr, ptr %in.addr, align 8
  %add.ptr = getelementptr inbounds i8, ptr %15, i64 64
  %aux_is_derived = getelementptr inbounds %"struct.Assimp::STEP::ObjectHelper.262", ptr %add.ptr, i32 0, i32 1
  invoke void @_ZNSt6bitsetILm5EEixEm(ptr sret(%"class.std::bitset<5>::reference") align 8 %ref.tmp8, ptr noundef nonnull align 8 dereferenceable(8) %aux_is_derived, i64 noundef 0)
          to label %invoke.cont10 unwind label %lpad9

invoke.cont10:                                    ; preds = %if.then7
  %call11 = call noundef nonnull align 8 dereferenceable(16) ptr @_ZNSt6bitsetILm5EE9referenceaSEb(ptr noundef nonnull align 8 dereferenceable(16) %ref.tmp8, i1 noundef zeroext true) #13
  call void @_ZNSt6bitsetILm5EE9referenceD2Ev(ptr noundef nonnull align 8 dereferenceable(16) %ref.tmp8) #13
  store i32 2, ptr %cleanup.dest.slot, align 4
  br label %cleanup

lpad9:                                            ; preds = %if.then7
  %16 = landingpad { ptr, i32 }
          cleanup
  %17 = extractvalue { ptr, i32 } %16, 0
  store ptr %17, ptr %exn.slot, align 8
  %18 = extractvalue { ptr, i32 } %16, 1
  store i32 %18, ptr %ehselector.slot, align 4
  br label %ehcleanup36

if.end12:                                         ; preds = %dynamic_cast.end
  %19 = load ptr, ptr %in.addr, align 8
  %Degree = getelementptr inbounds %"struct.Assimp::IFC::Schema_2x3::IfcBSplineCurve", ptr %19, i32 0, i32 2
  %20 = load ptr, ptr %db.addr, align 8
  invoke void @_ZN6Assimp4STEP14GenericConvertIlEEvRT_RKSt10shared_ptrIKNS0_7EXPRESS8DataTypeEERKNS0_2DBE(ptr noundef nonnull align 8 dereferenceable(8) %Degree, ptr noundef nonnull align 8 dereferenceable(16) %arg, ptr noundef nonnull align 8 dereferenceable(376) %20)
          to label %invoke.cont14 unwind label %lpad13

invoke.cont14:                                    ; preds = %if.end12
  store i32 2, ptr %cleanup.dest.slot, align 4
  br label %cleanup

lpad13:                                           ; preds = %if.end12
  %21 = landingpad { ptr, i32 }
          cleanup
          catch ptr @_ZTIN6Assimp4STEP9TypeErrorE
  %22 = extractvalue { ptr, i32 } %21, 0
  store ptr %22, ptr %exn.slot, align 8
  %23 = extractvalue { ptr, i32 } %21, 1
  store i32 %23, ptr %ehselector.slot, align 4
  br label %catch.dispatch

catch.dispatch:                                   ; preds = %lpad13
  %sel = load i32, ptr %ehselector.slot, align 4
  %24 = call i32 @llvm.eh.typeid.for(ptr @_ZTIN6Assimp4STEP9TypeErrorE) #13
  %matches = icmp eq i32 %sel, %24
  br i1 %matches, label %catch, label %ehcleanup36

catch:                                            ; preds = %catch.dispatch
  %exn = load ptr, ptr %exn.slot, align 8
  %25 = call ptr @__cxa_begin_catch(ptr %exn) #13
  store ptr %25, ptr %t, align 8
  store i1 true, ptr %cleanup.isactive26, align 1
  %exception15 = call ptr @__cxa_allocate_exception(i64 16) #13
  %26 = load ptr, ptr %t, align 8
  %vtable = load ptr, ptr %26, align 8
  %vfn = getelementptr inbounds ptr, ptr %vtable, i64 2
  %27 = load ptr, ptr %vfn, align 8
  %call17 = call noundef ptr %27(ptr noundef nonnull align 8 dereferenceable(16) %26) #13
  call void @_ZNSaIcEC1Ev(ptr noundef nonnull align 1 dereferenceable(1) %ref.tmp19) #13
  invoke void @_ZNSt7__cxx1112basic_stringIcSt11char_traitsIcESaIcEEC2IS3_EEPKcRKS3_(ptr noundef nonnull align 8 dereferenceable(32) %ref.tmp18, ptr noundef @.str.21, ptr noundef nonnull align 1 dereferenceable(1) %ref.tmp19)
          to label %invoke.cont21 unwind label %lpad20

invoke.cont21:                                    ; preds = %catch
  invoke void @_ZStplIcSt11char_traitsIcESaIcEENSt7__cxx1112basic_stringIT_T0_T1_EEPKS5_OS8_(ptr sret(%"class.std::__cxx11::basic_string") align 8 %ref.tmp16, ptr noundef %call17, ptr noundef nonnull align 8 dereferenceable(32) %ref.tmp18)
          to label %invoke.cont23 unwind label %lpad22

invoke.cont23:                                    ; preds = %invoke.cont21
  invoke void @_ZN6Assimp4STEP9TypeErrorC1ERKNSt7__cxx1112basic_stringIcSt11char_traitsIcESaIcEEEmm(ptr noundef nonnull align 8 dereferenceable(16) %exception15, ptr noundef nonnull align 8 dereferenceable(32) %ref.tmp16, i64 noundef -1, i64 noundef 1152921504606846975)
          to label %invoke.cont25 unwind label %lpad24

invoke.cont25:                                    ; preds = %invoke.cont23
  store i1 false, ptr %cleanup.isactive26, align 1
  invoke void @__cxa_throw(ptr %exception15, ptr @_ZTIN6Assimp4STEP9TypeErrorE, ptr @_ZN6Assimp4STEP9TypeErrorD2Ev) #14
          to label %unreachable unwind label %lpad24

lpad20:                                           ; preds = %catch
  %28 = landingpad { ptr, i32 }
          cleanup
  %29 = extractvalue { ptr, i32 } %28, 0
  store ptr %29, ptr %exn.slot, align 8
  %30 = extractvalue { ptr, i32 } %28, 1
  store i32 %30, ptr %ehselector.slot, align 4
  br label %ehcleanup29

lpad22:                                           ; preds = %invoke.cont21
  %31 = landingpad { ptr, i32 }
          cleanup
  %32 = extractvalue { ptr, i32 } %31, 0
  store ptr %32, ptr %exn.slot, align 8
  %33 = extractvalue { ptr, i32 } %31, 1
  store i32 %33, ptr %ehselector.slot, align 4
  br label %ehcleanup28

lpad24:                                           ; preds = %invoke.cont25, %invoke.cont23
  %34 = landingpad { ptr, i32 }
          cleanup
  %35 = extractvalue { ptr, i32 } %34, 0
  store ptr %35, ptr %exn.slot, align 8
  %36 = extractvalue { ptr, i32 } %34, 1
  store i32 %36, ptr %ehselector.slot, align 4
  call void @_ZNSt7__cxx1112basic_stringIcSt11char_traitsIcESaIcEED1Ev(ptr noundef nonnull align 8 dereferenceable(32) %ref.tmp16) #13
  br label %ehcleanup28

ehcleanup28:                                      ; preds = %lpad24, %lpad22
  call void @_ZNSt7__cxx1112basic_stringIcSt11char_traitsIcESaIcEED1Ev(ptr noundef nonnull align 8 dereferenceable(32) %ref.tmp18) #13
  br label %ehcleanup29

ehcleanup29:                                      ; preds = %ehcleanup28, %lpad20
  call void @_ZNSaIcED1Ev(ptr noundef nonnull align 1 dereferenceable(1) %ref.tmp19) #13
  %cleanup.is_active31 = load i1, ptr %cleanup.isactive26, align 1
  br i1 %cleanup.is_active31, label %cleanup.action32, label %cleanup.done33

cleanup.action32:                                 ; preds = %ehcleanup29
  call void @__cxa_free_exception(ptr %exception15) #13
  br label %cleanup.done33

cleanup.done33:                                   ; preds = %cleanup.action32, %ehcleanup29
  invoke void @__cxa_end_catch()
          to label %invoke.cont35 unwind label %terminate.lpad

invoke.cont35:                                    ; preds = %cleanup.done33
  br label %ehcleanup36

try.cont:                                         ; No predecessors!
  store i32 0, ptr %cleanup.dest.slot, align 4
  br label %cleanup

cleanup:                                          ; preds = %try.cont, %invoke.cont14, %invoke.cont10
  call void @_ZNSt10shared_ptrIKN6Assimp4STEP7EXPRESS8DataTypeEED2Ev(ptr noundef nonnull align 8 dereferenceable(16) %arg) #13
  %cleanup.dest = load i32, ptr %cleanup.dest.slot, align 4
  switch i32 %cleanup.dest, label %unreachable [
    i32 0, label %cleanup.cont
    i32 2, label %do.end
  ]

cleanup.cont:                                     ; preds = %cleanup
  br label %do.end

do.end:                                           ; preds = %cleanup.cont, %cleanup
  br label %do.body37

do.body37:                                        ; preds = %do.end
  %37 = load ptr, ptr %params.addr, align 8
  %38 = load i64, ptr %base, align 8
  %inc39 = add i64 %38, 1
  store i64 %inc39, ptr %base, align 8
  call void @_ZNK6Assimp4STEP7EXPRESS4LISTixEm(ptr sret(%"class.std::shared_ptr.29") align 8 %arg38, ptr noundef nonnull align 8 dereferenceable(32) %37, i64 noundef %38)
  %call40 = call noundef nonnull align 8 dereferenceable(8) ptr @_ZNKSt19__shared_ptr_accessIKN6Assimp4STEP7EXPRESS8DataTypeELN9__gnu_cxx12_Lock_policyE2ELb0ELb0EEdeEv(ptr noundef nonnull align 1 dereferenceable(1) %arg38) #13
  %39 = icmp eq ptr %call40, null
  br i1 %39, label %dynamic_cast.null42, label %dynamic_cast.notnull41

dynamic_cast.notnull41:                           ; preds = %do.body37
  %40 = call ptr @__dynamic_cast(ptr %call40, ptr @_ZTIN6Assimp4STEP7EXPRESS8DataTypeE, ptr @_ZTIN6Assimp4STEP7EXPRESS9ISDERIVEDE, i64 0) #13
  br label %dynamic_cast.end43

ehcleanup36:                                      ; preds = %invoke.cont35, %catch.dispatch, %lpad9
  call void @_ZNSt10shared_ptrIKN6Assimp4STEP7EXPRESS8DataTypeEED2Ev(ptr noundef nonnull align 8 dereferenceable(16) %arg) #13
  br label %eh.resume

dynamic_cast.null42:                              ; preds = %do.body37
  br label %dynamic_cast.end43

dynamic_cast.end43:                               ; preds = %dynamic_cast.null42, %dynamic_cast.notnull41
  %41 = phi ptr [ %40, %dynamic_cast.notnull41 ], [ null, %dynamic_cast.null42 ]
  %tobool44 = icmp ne ptr %41, null
  br i1 %tobool44, label %if.then45, label %if.end52

if.then45:                                        ; preds = %dynamic_cast.end43
  %42 = load ptr, ptr %in.addr, align 8
  %add.ptr47 = getelementptr inbounds i8, ptr %42, i64 64
  %aux_is_derived48 = getelementptr inbounds %"struct.Assimp::STEP::ObjectHelper.262", ptr %add.ptr47, i32 0, i32 1
  invoke void @_ZNSt6bitsetILm5EEixEm(ptr sret(%"class.std::bitset<5>::reference") align 8 %ref.tmp46, ptr noundef nonnull align 8 dereferenceable(8) %aux_is_derived48, i64 noundef 1)
          to label %invoke.cont50 unwind label %lpad49

invoke.cont50:                                    ; preds = %if.then45
  %call51 = call noundef nonnull align 8 dereferenceable(16) ptr @_ZNSt6bitsetILm5EE9referenceaSEb(ptr noundef nonnull align 8 dereferenceable(16) %ref.tmp46, i1 noundef zeroext true) #13
  call void @_ZNSt6bitsetILm5EE9referenceD2Ev(ptr noundef nonnull align 8 dereferenceable(16) %ref.tmp46) #13
  store i32 4, ptr %cleanup.dest.slot, align 4
  br label %cleanup85

lpad49:                                           ; preds = %if.then45
  %43 = landingpad { ptr, i32 }
          cleanup
  %44 = extractvalue { ptr, i32 } %43, 0
  store ptr %44, ptr %exn.slot, align 8
  %45 = extractvalue { ptr, i32 } %43, 1
  store i32 %45, ptr %ehselector.slot, align 4
  br label %ehcleanup88

if.end52:                                         ; preds = %dynamic_cast.end43
  %46 = load ptr, ptr %in.addr, align 8
  %ControlPointsList = getelementptr inbounds %"struct.Assimp::IFC::Schema_2x3::IfcBSplineCurve", ptr %46, i32 0, i32 3
  %47 = load ptr, ptr %db.addr, align 8
  invoke void @_ZN6Assimp4STEP14GenericConvertINS0_4LazyINS_3IFC10Schema_2x317IfcCartesianPointEEELm2ELm0EEEvRNS0_6ListOfIT_XT0_EXT1_EEERKSt10shared_ptrIKNS0_7EXPRESS8DataTypeEERKNS0_2DBE(ptr noundef nonnull align 8 dereferenceable(24) %ControlPointsList, ptr noundef nonnull align 8 dereferenceable(16) %arg38, ptr noundef nonnull align 8 dereferenceable(376) %47)
          to label %invoke.cont54 unwind label %lpad53

invoke.cont54:                                    ; preds = %if.end52
  store i32 4, ptr %cleanup.dest.slot, align 4
  br label %cleanup85

lpad53:                                           ; preds = %if.end52
  %48 = landingpad { ptr, i32 }
          cleanup
          catch ptr @_ZTIN6Assimp4STEP9TypeErrorE
  %49 = extractvalue { ptr, i32 } %48, 0
  store ptr %49, ptr %exn.slot, align 8
  %50 = extractvalue { ptr, i32 } %48, 1
  store i32 %50, ptr %ehselector.slot, align 4
  br label %catch.dispatch55

catch.dispatch55:                                 ; preds = %lpad53
  %sel56 = load i32, ptr %ehselector.slot, align 4
  %51 = call i32 @llvm.eh.typeid.for(ptr @_ZTIN6Assimp4STEP9TypeErrorE) #13
  %matches57 = icmp eq i32 %sel56, %51
  br i1 %matches57, label %catch58, label %ehcleanup88

catch58:                                          ; preds = %catch.dispatch55
  %exn60 = load ptr, ptr %exn.slot, align 8
  %52 = call ptr @__cxa_begin_catch(ptr %exn60) #13
  store ptr %52, ptr %t59, align 8
  store i1 true, ptr %cleanup.isactive74, align 1
  %exception61 = call ptr @__cxa_allocate_exception(i64 16) #13
  %53 = load ptr, ptr %t59, align 8
  %vtable63 = load ptr, ptr %53, align 8
  %vfn64 = getelementptr inbounds ptr, ptr %vtable63, i64 2
  %54 = load ptr, ptr %vfn64, align 8
  %call65 = call noundef ptr %54(ptr noundef nonnull align 8 dereferenceable(16) %53) #13
  call void @_ZNSaIcEC1Ev(ptr noundef nonnull align 1 dereferenceable(1) %ref.tmp67) #13
  invoke void @_ZNSt7__cxx1112basic_stringIcSt11char_traitsIcESaIcEEC2IS3_EEPKcRKS3_(ptr noundef nonnull align 8 dereferenceable(32) %ref.tmp66, ptr noundef @.str.22, ptr noundef nonnull align 1 dereferenceable(1) %ref.tmp67)
          to label %invoke.cont69 unwind label %lpad68

invoke.cont69:                                    ; preds = %catch58
  invoke void @_ZStplIcSt11char_traitsIcESaIcEENSt7__cxx1112basic_stringIT_T0_T1_EEPKS5_OS8_(ptr sret(%"class.std::__cxx11::basic_string") align 8 %ref.tmp62, ptr noundef %call65, ptr noundef nonnull align 8 dereferenceable(32) %ref.tmp66)
          to label %invoke.cont71 unwind label %lpad70

invoke.cont71:                                    ; preds = %invoke.cont69
  invoke void @_ZN6Assimp4STEP9TypeErrorC1ERKNSt7__cxx1112basic_stringIcSt11char_traitsIcESaIcEEEmm(ptr noundef nonnull align 8 dereferenceable(16) %exception61, ptr noundef nonnull align 8 dereferenceable(32) %ref.tmp62, i64 noundef -1, i64 noundef 1152921504606846975)
          to label %invoke.cont73 unwind label %lpad72

invoke.cont73:                                    ; preds = %invoke.cont71
  store i1 false, ptr %cleanup.isactive74, align 1
  invoke void @__cxa_throw(ptr %exception61, ptr @_ZTIN6Assimp4STEP9TypeErrorE, ptr @_ZN6Assimp4STEP9TypeErrorD2Ev) #14
          to label %unreachable unwind label %lpad72

lpad68:                                           ; preds = %catch58
  %55 = landingpad { ptr, i32 }
          cleanup
  %56 = extractvalue { ptr, i32 } %55, 0
  store ptr %56, ptr %exn.slot, align 8
  %57 = extractvalue { ptr, i32 } %55, 1
  store i32 %57, ptr %ehselector.slot, align 4
  br label %ehcleanup77

lpad70:                                           ; preds = %invoke.cont69
  %58 = landingpad { ptr, i32 }
          cleanup
  %59 = extractvalue { ptr, i32 } %58, 0
  store ptr %59, ptr %exn.slot, align 8
  %60 = extractvalue { ptr, i32 } %58, 1
  store i32 %60, ptr %ehselector.slot, align 4
  br label %ehcleanup76

lpad72:                                           ; preds = %invoke.cont73, %invoke.cont71
  %61 = landingpad { ptr, i32 }
          cleanup
  %62 = extractvalue { ptr, i32 } %61, 0
  store ptr %62, ptr %exn.slot, align 8
  %63 = extractvalue { ptr, i32 } %61, 1
  store i32 %63, ptr %ehselector.slot, align 4
  call void @_ZNSt7__cxx1112basic_stringIcSt11char_traitsIcESaIcEED1Ev(ptr noundef nonnull align 8 dereferenceable(32) %ref.tmp62) #13
  br label %ehcleanup76

ehcleanup76:                                      ; preds = %lpad72, %lpad70
  call void @_ZNSt7__cxx1112basic_stringIcSt11char_traitsIcESaIcEED1Ev(ptr noundef nonnull align 8 dereferenceable(32) %ref.tmp66) #13
  br label %ehcleanup77

ehcleanup77:                                      ; preds = %ehcleanup76, %lpad68
  call void @_ZNSaIcED1Ev(ptr noundef nonnull align 1 dereferenceable(1) %ref.tmp67) #13
  %cleanup.is_active79 = load i1, ptr %cleanup.isactive74, align 1
  br i1 %cleanup.is_active79, label %cleanup.action80, label %cleanup.done81

cleanup.action80:                                 ; preds = %ehcleanup77
  call void @__cxa_free_exception(ptr %exception61) #13
  br label %cleanup.done81

cleanup.done81:                                   ; preds = %cleanup.action80, %ehcleanup77
  invoke void @__cxa_end_catch()
          to label %invoke.cont83 unwind label %terminate.lpad

invoke.cont83:                                    ; preds = %cleanup.done81
  br label %ehcleanup88

try.cont84:                                       ; No predecessors!
  store i32 0, ptr %cleanup.dest.slot, align 4
  br label %cleanup85

cleanup85:                                        ; preds = %try.cont84, %invoke.cont54, %invoke.cont50
  call void @_ZNSt10shared_ptrIKN6Assimp4STEP7EXPRESS8DataTypeEED2Ev(ptr noundef nonnull align 8 dereferenceable(16) %arg38) #13
  %cleanup.dest86 = load i32, ptr %cleanup.dest.slot, align 4
  switch i32 %cleanup.dest86, label %unreachable [
    i32 0, label %cleanup.cont87
    i32 4, label %do.end89
  ]

cleanup.cont87:                                   ; preds = %cleanup85
  br label %do.end89

do.end89:                                         ; preds = %cleanup.cont87, %cleanup85
  br label %do.body90

do.body90:                                        ; preds = %do.end89
  %64 = load ptr, ptr %params.addr, align 8
  %65 = load i64, ptr %base, align 8
  %inc92 = add i64 %65, 1
  store i64 %inc92, ptr %base, align 8
  call void @_ZNK6Assimp4STEP7EXPRESS4LISTixEm(ptr sret(%"class.std::shared_ptr.29") align 8 %arg91, ptr noundef nonnull align 8 dereferenceable(32) %64, i64 noundef %65)
  %call93 = call noundef nonnull align 8 dereferenceable(8) ptr @_ZNKSt19__shared_ptr_accessIKN6Assimp4STEP7EXPRESS8DataTypeELN9__gnu_cxx12_Lock_policyE2ELb0ELb0EEdeEv(ptr noundef nonnull align 1 dereferenceable(1) %arg91) #13
  %66 = icmp eq ptr %call93, null
  br i1 %66, label %dynamic_cast.null95, label %dynamic_cast.notnull94

dynamic_cast.notnull94:                           ; preds = %do.body90
  %67 = call ptr @__dynamic_cast(ptr %call93, ptr @_ZTIN6Assimp4STEP7EXPRESS8DataTypeE, ptr @_ZTIN6Assimp4STEP7EXPRESS9ISDERIVEDE, i64 0) #13
  br label %dynamic_cast.end96

ehcleanup88:                                      ; preds = %invoke.cont83, %catch.dispatch55, %lpad49
  call void @_ZNSt10shared_ptrIKN6Assimp4STEP7EXPRESS8DataTypeEED2Ev(ptr noundef nonnull align 8 dereferenceable(16) %arg38) #13
  br label %eh.resume

dynamic_cast.null95:                              ; preds = %do.body90
  br label %dynamic_cast.end96

dynamic_cast.end96:                               ; preds = %dynamic_cast.null95, %dynamic_cast.notnull94
  %68 = phi ptr [ %67, %dynamic_cast.notnull94 ], [ null, %dynamic_cast.null95 ]
  %tobool97 = icmp ne ptr %68, null
  br i1 %tobool97, label %if.then98, label %if.end105

if.then98:                                        ; preds = %dynamic_cast.end96
  %69 = load ptr, ptr %in.addr, align 8
  %add.ptr100 = getelementptr inbounds i8, ptr %69, i64 64
  %aux_is_derived101 = getelementptr inbounds %"struct.Assimp::STEP::ObjectHelper.262", ptr %add.ptr100, i32 0, i32 1
  invoke void @_ZNSt6bitsetILm5EEixEm(ptr sret(%"class.std::bitset<5>::reference") align 8 %ref.tmp99, ptr noundef nonnull align 8 dereferenceable(8) %aux_is_derived101, i64 noundef 2)
          to label %invoke.cont103 unwind label %lpad102

invoke.cont103:                                   ; preds = %if.then98
  %call104 = call noundef nonnull align 8 dereferenceable(16) ptr @_ZNSt6bitsetILm5EE9referenceaSEb(ptr noundef nonnull align 8 dereferenceable(16) %ref.tmp99, i1 noundef zeroext true) #13
  call void @_ZNSt6bitsetILm5EE9referenceD2Ev(ptr noundef nonnull align 8 dereferenceable(16) %ref.tmp99) #13
  store i32 6, ptr %cleanup.dest.slot, align 4
  br label %cleanup138

lpad102:                                          ; preds = %if.then98
  %70 = landingpad { ptr, i32 }
          cleanup
  %71 = extractvalue { ptr, i32 } %70, 0
  store ptr %71, ptr %exn.slot, align 8
  %72 = extractvalue { ptr, i32 } %70, 1
  store i32 %72, ptr %ehselector.slot, align 4
  br label %ehcleanup141

if.end105:                                        ; preds = %dynamic_cast.end96
  %73 = load ptr, ptr %in.addr, align 8
  %CurveForm = getelementptr inbounds %"struct.Assimp::IFC::Schema_2x3::IfcBSplineCurve", ptr %73, i32 0, i32 4
  %74 = load ptr, ptr %db.addr, align 8
  invoke void @_ZN6Assimp4STEP14GenericConvertINSt7__cxx1112basic_stringIcSt11char_traitsIcESaIcEEEEEvRT_RKSt10shared_ptrIKNS0_7EXPRESS8DataTypeEERKNS0_2DBE(ptr noundef nonnull align 8 dereferenceable(32) %CurveForm, ptr noundef nonnull align 8 dereferenceable(16) %arg91, ptr noundef nonnull align 8 dereferenceable(376) %74)
          to label %invoke.cont107 unwind label %lpad106

invoke.cont107:                                   ; preds = %if.end105
  store i32 6, ptr %cleanup.dest.slot, align 4
  br label %cleanup138

lpad106:                                          ; preds = %if.end105
  %75 = landingpad { ptr, i32 }
          cleanup
          catch ptr @_ZTIN6Assimp4STEP9TypeErrorE
  %76 = extractvalue { ptr, i32 } %75, 0
  store ptr %76, ptr %exn.slot, align 8
  %77 = extractvalue { ptr, i32 } %75, 1
  store i32 %77, ptr %ehselector.slot, align 4
  br label %catch.dispatch108

catch.dispatch108:                                ; preds = %lpad106
  %sel109 = load i32, ptr %ehselector.slot, align 4
  %78 = call i32 @llvm.eh.typeid.for(ptr @_ZTIN6Assimp4STEP9TypeErrorE) #13
  %matches110 = icmp eq i32 %sel109, %78
  br i1 %matches110, label %catch111, label %ehcleanup141

catch111:                                         ; preds = %catch.dispatch108
  %exn113 = load ptr, ptr %exn.slot, align 8
  %79 = call ptr @__cxa_begin_catch(ptr %exn113) #13
  store ptr %79, ptr %t112, align 8
  store i1 true, ptr %cleanup.isactive127, align 1
  %exception114 = call ptr @__cxa_allocate_exception(i64 16) #13
  %80 = load ptr, ptr %t112, align 8
  %vtable116 = load ptr, ptr %80, align 8
  %vfn117 = getelementptr inbounds ptr, ptr %vtable116, i64 2
  %81 = load ptr, ptr %vfn117, align 8
  %call118 = call noundef ptr %81(ptr noundef nonnull align 8 dereferenceable(16) %80) #13
  call void @_ZNSaIcEC1Ev(ptr noundef nonnull align 1 dereferenceable(1) %ref.tmp120) #13
  invoke void @_ZNSt7__cxx1112basic_stringIcSt11char_traitsIcESaIcEEC2IS3_EEPKcRKS3_(ptr noundef nonnull align 8 dereferenceable(32) %ref.tmp119, ptr noundef @.str.23, ptr noundef nonnull align 1 dereferenceable(1) %ref.tmp120)
          to label %invoke.cont122 unwind label %lpad121

invoke.cont122:                                   ; preds = %catch111
  invoke void @_ZStplIcSt11char_traitsIcESaIcEENSt7__cxx1112basic_stringIT_T0_T1_EEPKS5_OS8_(ptr sret(%"class.std::__cxx11::basic_string") align 8 %ref.tmp115, ptr noundef %call118, ptr noundef nonnull align 8 dereferenceable(32) %ref.tmp119)
          to label %invoke.cont124 unwind label %lpad123

invoke.cont124:                                   ; preds = %invoke.cont122
  invoke void @_ZN6Assimp4STEP9TypeErrorC1ERKNSt7__cxx1112basic_stringIcSt11char_traitsIcESaIcEEEmm(ptr noundef nonnull align 8 dereferenceable(16) %exception114, ptr noundef nonnull align 8 dereferenceable(32) %ref.tmp115, i64 noundef -1, i64 noundef 1152921504606846975)
          to label %invoke.cont126 unwind label %lpad125

invoke.cont126:                                   ; preds = %invoke.cont124
  store i1 false, ptr %cleanup.isactive127, align 1
  invoke void @__cxa_throw(ptr %exception114, ptr @_ZTIN6Assimp4STEP9TypeErrorE, ptr @_ZN6Assimp4STEP9TypeErrorD2Ev) #14
          to label %unreachable unwind label %lpad125

lpad121:                                          ; preds = %catch111
  %82 = landingpad { ptr, i32 }
          cleanup
  %83 = extractvalue { ptr, i32 } %82, 0
  store ptr %83, ptr %exn.slot, align 8
  %84 = extractvalue { ptr, i32 } %82, 1
  store i32 %84, ptr %ehselector.slot, align 4
  br label %ehcleanup130

lpad123:                                          ; preds = %invoke.cont122
  %85 = landingpad { ptr, i32 }
          cleanup
  %86 = extractvalue { ptr, i32 } %85, 0
  store ptr %86, ptr %exn.slot, align 8
  %87 = extractvalue { ptr, i32 } %85, 1
  store i32 %87, ptr %ehselector.slot, align 4
  br label %ehcleanup129

lpad125:                                          ; preds = %invoke.cont126, %invoke.cont124
  %88 = landingpad { ptr, i32 }
          cleanup
  %89 = extractvalue { ptr, i32 } %88, 0
  store ptr %89, ptr %exn.slot, align 8
  %90 = extractvalue { ptr, i32 } %88, 1
  store i32 %90, ptr %ehselector.slot, align 4
  call void @_ZNSt7__cxx1112basic_stringIcSt11char_traitsIcESaIcEED1Ev(ptr noundef nonnull align 8 dereferenceable(32) %ref.tmp115) #13
  br label %ehcleanup129

ehcleanup129:                                     ; preds = %lpad125, %lpad123
  call void @_ZNSt7__cxx1112basic_stringIcSt11char_traitsIcESaIcEED1Ev(ptr noundef nonnull align 8 dereferenceable(32) %ref.tmp119) #13
  br label %ehcleanup130

ehcleanup130:                                     ; preds = %ehcleanup129, %lpad121
  call void @_ZNSaIcED1Ev(ptr noundef nonnull align 1 dereferenceable(1) %ref.tmp120) #13
  %cleanup.is_active132 = load i1, ptr %cleanup.isactive127, align 1
  br i1 %cleanup.is_active132, label %cleanup.action133, label %cleanup.done134

cleanup.action133:                                ; preds = %ehcleanup130
  call void @__cxa_free_exception(ptr %exception114) #13
  br label %cleanup.done134

cleanup.done134:                                  ; preds = %cleanup.action133, %ehcleanup130
  invoke void @__cxa_end_catch()
          to label %invoke.cont136 unwind label %terminate.lpad

invoke.cont136:                                   ; preds = %cleanup.done134
  br label %ehcleanup141

try.cont137:                                      ; No predecessors!
  store i32 0, ptr %cleanup.dest.slot, align 4
  br label %cleanup138

cleanup138:                                       ; preds = %try.cont137, %invoke.cont107, %invoke.cont103
  call void @_ZNSt10shared_ptrIKN6Assimp4STEP7EXPRESS8DataTypeEED2Ev(ptr noundef nonnull align 8 dereferenceable(16) %arg91) #13
  %cleanup.dest139 = load i32, ptr %cleanup.dest.slot, align 4
  switch i32 %cleanup.dest139, label %unreachable [
    i32 0, label %cleanup.cont140
    i32 6, label %do.end142
  ]

cleanup.cont140:                                  ; preds = %cleanup138
  br label %do.end142

do.end142:                                        ; preds = %cleanup.cont140, %cleanup138
  br label %do.body143

do.body143:                                       ; preds = %do.end142
  %91 = load ptr, ptr %params.addr, align 8
  %92 = load i64, ptr %base, align 8
  %inc145 = add i64 %92, 1
  store i64 %inc145, ptr %base, align 8
  call void @_ZNK6Assimp4STEP7EXPRESS4LISTixEm(ptr sret(%"class.std::shared_ptr.29") align 8 %arg144, ptr noundef nonnull align 8 dereferenceable(32) %91, i64 noundef %92)
  %call146 = call noundef nonnull align 8 dereferenceable(8) ptr @_ZNKSt19__shared_ptr_accessIKN6Assimp4STEP7EXPRESS8DataTypeELN9__gnu_cxx12_Lock_policyE2ELb0ELb0EEdeEv(ptr noundef nonnull align 1 dereferenceable(1) %arg144) #13
  %93 = icmp eq ptr %call146, null
  br i1 %93, label %dynamic_cast.null148, label %dynamic_cast.notnull147

dynamic_cast.notnull147:                          ; preds = %do.body143
  %94 = call ptr @__dynamic_cast(ptr %call146, ptr @_ZTIN6Assimp4STEP7EXPRESS8DataTypeE, ptr @_ZTIN6Assimp4STEP7EXPRESS9ISDERIVEDE, i64 0) #13
  br label %dynamic_cast.end149

ehcleanup141:                                     ; preds = %invoke.cont136, %catch.dispatch108, %lpad102
  call void @_ZNSt10shared_ptrIKN6Assimp4STEP7EXPRESS8DataTypeEED2Ev(ptr noundef nonnull align 8 dereferenceable(16) %arg91) #13
  br label %eh.resume

dynamic_cast.null148:                             ; preds = %do.body143
  br label %dynamic_cast.end149

dynamic_cast.end149:                              ; preds = %dynamic_cast.null148, %dynamic_cast.notnull147
  %95 = phi ptr [ %94, %dynamic_cast.notnull147 ], [ null, %dynamic_cast.null148 ]
  %tobool150 = icmp ne ptr %95, null
  br i1 %tobool150, label %if.then151, label %if.end158

if.then151:                                       ; preds = %dynamic_cast.end149
  %96 = load ptr, ptr %in.addr, align 8
  %add.ptr153 = getelementptr inbounds i8, ptr %96, i64 64
  %aux_is_derived154 = getelementptr inbounds %"struct.Assimp::STEP::ObjectHelper.262", ptr %add.ptr153, i32 0, i32 1
  invoke void @_ZNSt6bitsetILm5EEixEm(ptr sret(%"class.std::bitset<5>::reference") align 8 %ref.tmp152, ptr noundef nonnull align 8 dereferenceable(8) %aux_is_derived154, i64 noundef 3)
          to label %invoke.cont156 unwind label %lpad155

invoke.cont156:                                   ; preds = %if.then151
  %call157 = call noundef nonnull align 8 dereferenceable(16) ptr @_ZNSt6bitsetILm5EE9referenceaSEb(ptr noundef nonnull align 8 dereferenceable(16) %ref.tmp152, i1 noundef zeroext true) #13
  call void @_ZNSt6bitsetILm5EE9referenceD2Ev(ptr noundef nonnull align 8 dereferenceable(16) %ref.tmp152) #13
  store i32 8, ptr %cleanup.dest.slot, align 4
  br label %cleanup191

lpad155:                                          ; preds = %if.then151
  %97 = landingpad { ptr, i32 }
          cleanup
  %98 = extractvalue { ptr, i32 } %97, 0
  store ptr %98, ptr %exn.slot, align 8
  %99 = extractvalue { ptr, i32 } %97, 1
  store i32 %99, ptr %ehselector.slot, align 4
  br label %ehcleanup194

if.end158:                                        ; preds = %dynamic_cast.end149
  %100 = load ptr, ptr %in.addr, align 8
  %ClosedCurve = getelementptr inbounds %"struct.Assimp::IFC::Schema_2x3::IfcBSplineCurve", ptr %100, i32 0, i32 5
  %101 = load ptr, ptr %db.addr, align 8
  invoke void @_ZN6Assimp4STEP14GenericConvertISt10shared_ptrIKNS0_7EXPRESS8DataTypeEEEEvRT_RKS6_RKNS0_2DBE(ptr noundef nonnull align 8 dereferenceable(16) %ClosedCurve, ptr noundef nonnull align 8 dereferenceable(16) %arg144, ptr noundef nonnull align 8 dereferenceable(376) %101)
          to label %invoke.cont160 unwind label %lpad159

invoke.cont160:                                   ; preds = %if.end158
  store i32 8, ptr %cleanup.dest.slot, align 4
  br label %cleanup191

lpad159:                                          ; preds = %if.end158
  %102 = landingpad { ptr, i32 }
          cleanup
          catch ptr @_ZTIN6Assimp4STEP9TypeErrorE
  %103 = extractvalue { ptr, i32 } %102, 0
  store ptr %103, ptr %exn.slot, align 8
  %104 = extractvalue { ptr, i32 } %102, 1
  store i32 %104, ptr %ehselector.slot, align 4
  br label %catch.dispatch161

catch.dispatch161:                                ; preds = %lpad159
  %sel162 = load i32, ptr %ehselector.slot, align 4
  %105 = call i32 @llvm.eh.typeid.for(ptr @_ZTIN6Assimp4STEP9TypeErrorE) #13
  %matches163 = icmp eq i32 %sel162, %105
  br i1 %matches163, label %catch164, label %ehcleanup194

catch164:                                         ; preds = %catch.dispatch161
  %exn166 = load ptr, ptr %exn.slot, align 8
  %106 = call ptr @__cxa_begin_catch(ptr %exn166) #13
  store ptr %106, ptr %t165, align 8
  store i1 true, ptr %cleanup.isactive180, align 1
  %exception167 = call ptr @__cxa_allocate_exception(i64 16) #13
  %107 = load ptr, ptr %t165, align 8
  %vtable169 = load ptr, ptr %107, align 8
  %vfn170 = getelementptr inbounds ptr, ptr %vtable169, i64 2
  %108 = load ptr, ptr %vfn170, align 8
  %call171 = call noundef ptr %108(ptr noundef nonnull align 8 dereferenceable(16) %107) #13
  call void @_ZNSaIcEC1Ev(ptr noundef nonnull align 1 dereferenceable(1) %ref.tmp173) #13
  invoke void @_ZNSt7__cxx1112basic_stringIcSt11char_traitsIcESaIcEEC2IS3_EEPKcRKS3_(ptr noundef nonnull align 8 dereferenceable(32) %ref.tmp172, ptr noundef @.str.24, ptr noundef nonnull align 1 dereferenceable(1) %ref.tmp173)
          to label %invoke.cont175 unwind label %lpad174

invoke.cont175:                                   ; preds = %catch164
  invoke void @_ZStplIcSt11char_traitsIcESaIcEENSt7__cxx1112basic_stringIT_T0_T1_EEPKS5_OS8_(ptr sret(%"class.std::__cxx11::basic_string") align 8 %ref.tmp168, ptr noundef %call171, ptr noundef nonnull align 8 dereferenceable(32) %ref.tmp172)
          to label %invoke.cont177 unwind label %lpad176

invoke.cont177:                                   ; preds = %invoke.cont175
  invoke void @_ZN6Assimp4STEP9TypeErrorC1ERKNSt7__cxx1112basic_stringIcSt11char_traitsIcESaIcEEEmm(ptr noundef nonnull align 8 dereferenceable(16) %exception167, ptr noundef nonnull align 8 dereferenceable(32) %ref.tmp168, i64 noundef -1, i64 noundef 1152921504606846975)
          to label %invoke.cont179 unwind label %lpad178

invoke.cont179:                                   ; preds = %invoke.cont177
  store i1 false, ptr %cleanup.isactive180, align 1
  invoke void @__cxa_throw(ptr %exception167, ptr @_ZTIN6Assimp4STEP9TypeErrorE, ptr @_ZN6Assimp4STEP9TypeErrorD2Ev) #14
          to label %unreachable unwind label %lpad178

lpad174:                                          ; preds = %catch164
  %109 = landingpad { ptr, i32 }
          cleanup
  %110 = extractvalue { ptr, i32 } %109, 0
  store ptr %110, ptr %exn.slot, align 8
  %111 = extractvalue { ptr, i32 } %109, 1
  store i32 %111, ptr %ehselector.slot, align 4
  br label %ehcleanup183

lpad176:                                          ; preds = %invoke.cont175
  %112 = landingpad { ptr, i32 }
          cleanup
  %113 = extractvalue { ptr, i32 } %112, 0
  store ptr %113, ptr %exn.slot, align 8
  %114 = extractvalue { ptr, i32 } %112, 1
  store i32 %114, ptr %ehselector.slot, align 4
  br label %ehcleanup182

lpad178:                                          ; preds = %invoke.cont179, %invoke.cont177
  %115 = landingpad { ptr, i32 }
          cleanup
  %116 = extractvalue { ptr, i32 } %115, 0
  store ptr %116, ptr %exn.slot, align 8
  %117 = extractvalue { ptr, i32 } %115, 1
  store i32 %117, ptr %ehselector.slot, align 4
  call void @_ZNSt7__cxx1112basic_stringIcSt11char_traitsIcESaIcEED1Ev(ptr noundef nonnull align 8 dereferenceable(32) %ref.tmp168) #13
  br label %ehcleanup182

ehcleanup182:                                     ; preds = %lpad178, %lpad176
  call void @_ZNSt7__cxx1112basic_stringIcSt11char_traitsIcESaIcEED1Ev(ptr noundef nonnull align 8 dereferenceable(32) %ref.tmp172) #13
  br label %ehcleanup183

ehcleanup183:                                     ; preds = %ehcleanup182, %lpad174
  call void @_ZNSaIcED1Ev(ptr noundef nonnull align 1 dereferenceable(1) %ref.tmp173) #13
  %cleanup.is_active185 = load i1, ptr %cleanup.isactive180, align 1
  br i1 %cleanup.is_active185, label %cleanup.action186, label %cleanup.done187

cleanup.action186:                                ; preds = %ehcleanup183
  call void @__cxa_free_exception(ptr %exception167) #13
  br label %cleanup.done187

cleanup.done187:                                  ; preds = %cleanup.action186, %ehcleanup183
  invoke void @__cxa_end_catch()
          to label %invoke.cont189 unwind label %terminate.lpad

invoke.cont189:                                   ; preds = %cleanup.done187
  br label %ehcleanup194

try.cont190:                                      ; No predecessors!
  store i32 0, ptr %cleanup.dest.slot, align 4
  br label %cleanup191

cleanup191:                                       ; preds = %try.cont190, %invoke.cont160, %invoke.cont156
  call void @_ZNSt10shared_ptrIKN6Assimp4STEP7EXPRESS8DataTypeEED2Ev(ptr noundef nonnull align 8 dereferenceable(16) %arg144) #13
  %cleanup.dest192 = load i32, ptr %cleanup.dest.slot, align 4
  switch i32 %cleanup.dest192, label %unreachable [
    i32 0, label %cleanup.cont193
    i32 8, label %do.end195
  ]

cleanup.cont193:                                  ; preds = %cleanup191
  br label %do.end195

do.end195:                                        ; preds = %cleanup.cont193, %cleanup191
  br label %do.body196

do.body196:                                       ; preds = %do.end195
  %118 = load ptr, ptr %params.addr, align 8
  %119 = load i64, ptr %base, align 8
  %inc198 = add i64 %119, 1
  store i64 %inc198, ptr %base, align 8
  call void @_ZNK6Assimp4STEP7EXPRESS4LISTixEm(ptr sret(%"class.std::shared_ptr.29") align 8 %arg197, ptr noundef nonnull align 8 dereferenceable(32) %118, i64 noundef %119)
  %call199 = call noundef nonnull align 8 dereferenceable(8) ptr @_ZNKSt19__shared_ptr_accessIKN6Assimp4STEP7EXPRESS8DataTypeELN9__gnu_cxx12_Lock_policyE2ELb0ELb0EEdeEv(ptr noundef nonnull align 1 dereferenceable(1) %arg197) #13
  %120 = icmp eq ptr %call199, null
  br i1 %120, label %dynamic_cast.null201, label %dynamic_cast.notnull200

dynamic_cast.notnull200:                          ; preds = %do.body196
  %121 = call ptr @__dynamic_cast(ptr %call199, ptr @_ZTIN6Assimp4STEP7EXPRESS8DataTypeE, ptr @_ZTIN6Assimp4STEP7EXPRESS9ISDERIVEDE, i64 0) #13
  br label %dynamic_cast.end202

ehcleanup194:                                     ; preds = %invoke.cont189, %catch.dispatch161, %lpad155
  call void @_ZNSt10shared_ptrIKN6Assimp4STEP7EXPRESS8DataTypeEED2Ev(ptr noundef nonnull align 8 dereferenceable(16) %arg144) #13
  br label %eh.resume

dynamic_cast.null201:                             ; preds = %do.body196
  br label %dynamic_cast.end202

dynamic_cast.end202:                              ; preds = %dynamic_cast.null201, %dynamic_cast.notnull200
  %122 = phi ptr [ %121, %dynamic_cast.notnull200 ], [ null, %dynamic_cast.null201 ]
  %tobool203 = icmp ne ptr %122, null
  br i1 %tobool203, label %if.then204, label %if.end211

if.then204:                                       ; preds = %dynamic_cast.end202
  %123 = load ptr, ptr %in.addr, align 8
  %add.ptr206 = getelementptr inbounds i8, ptr %123, i64 64
  %aux_is_derived207 = getelementptr inbounds %"struct.Assimp::STEP::ObjectHelper.262", ptr %add.ptr206, i32 0, i32 1
  invoke void @_ZNSt6bitsetILm5EEixEm(ptr sret(%"class.std::bitset<5>::reference") align 8 %ref.tmp205, ptr noundef nonnull align 8 dereferenceable(8) %aux_is_derived207, i64 noundef 4)
          to label %invoke.cont209 unwind label %lpad208

invoke.cont209:                                   ; preds = %if.then204
  %call210 = call noundef nonnull align 8 dereferenceable(16) ptr @_ZNSt6bitsetILm5EE9referenceaSEb(ptr noundef nonnull align 8 dereferenceable(16) %ref.tmp205, i1 noundef zeroext true) #13
  call void @_ZNSt6bitsetILm5EE9referenceD2Ev(ptr noundef nonnull align 8 dereferenceable(16) %ref.tmp205) #13
  store i32 10, ptr %cleanup.dest.slot, align 4
  br label %cleanup244

lpad208:                                          ; preds = %if.then204
  %124 = landingpad { ptr, i32 }
          cleanup
  %125 = extractvalue { ptr, i32 } %124, 0
  store ptr %125, ptr %exn.slot, align 8
  %126 = extractvalue { ptr, i32 } %124, 1
  store i32 %126, ptr %ehselector.slot, align 4
  br label %ehcleanup247

if.end211:                                        ; preds = %dynamic_cast.end202
  %127 = load ptr, ptr %in.addr, align 8
  %SelfIntersect = getelementptr inbounds %"struct.Assimp::IFC::Schema_2x3::IfcBSplineCurve", ptr %127, i32 0, i32 6
  %128 = load ptr, ptr %db.addr, align 8
  invoke void @_ZN6Assimp4STEP14GenericConvertISt10shared_ptrIKNS0_7EXPRESS8DataTypeEEEEvRT_RKS6_RKNS0_2DBE(ptr noundef nonnull align 8 dereferenceable(16) %SelfIntersect, ptr noundef nonnull align 8 dereferenceable(16) %arg197, ptr noundef nonnull align 8 dereferenceable(376) %128)
          to label %invoke.cont213 unwind label %lpad212

invoke.cont213:                                   ; preds = %if.end211
  store i32 10, ptr %cleanup.dest.slot, align 4
  br label %cleanup244

lpad212:                                          ; preds = %if.end211
  %129 = landingpad { ptr, i32 }
          cleanup
          catch ptr @_ZTIN6Assimp4STEP9TypeErrorE
  %130 = extractvalue { ptr, i32 } %129, 0
  store ptr %130, ptr %exn.slot, align 8
  %131 = extractvalue { ptr, i32 } %129, 1
  store i32 %131, ptr %ehselector.slot, align 4
  br label %catch.dispatch214

catch.dispatch214:                                ; preds = %lpad212
  %sel215 = load i32, ptr %ehselector.slot, align 4
  %132 = call i32 @llvm.eh.typeid.for(ptr @_ZTIN6Assimp4STEP9TypeErrorE) #13
  %matches216 = icmp eq i32 %sel215, %132
  br i1 %matches216, label %catch217, label %ehcleanup247

catch217:                                         ; preds = %catch.dispatch214
  %exn219 = load ptr, ptr %exn.slot, align 8
  %133 = call ptr @__cxa_begin_catch(ptr %exn219) #13
  store ptr %133, ptr %t218, align 8
  store i1 true, ptr %cleanup.isactive233, align 1
  %exception220 = call ptr @__cxa_allocate_exception(i64 16) #13
  %134 = load ptr, ptr %t218, align 8
  %vtable222 = load ptr, ptr %134, align 8
  %vfn223 = getelementptr inbounds ptr, ptr %vtable222, i64 2
  %135 = load ptr, ptr %vfn223, align 8
  %call224 = call noundef ptr %135(ptr noundef nonnull align 8 dereferenceable(16) %134) #13
  call void @_ZNSaIcEC1Ev(ptr noundef nonnull align 1 dereferenceable(1) %ref.tmp226) #13
  invoke void @_ZNSt7__cxx1112basic_stringIcSt11char_traitsIcESaIcEEC2IS3_EEPKcRKS3_(ptr noundef nonnull align 8 dereferenceable(32) %ref.tmp225, ptr noundef @.str.25, ptr noundef nonnull align 1 dereferenceable(1) %ref.tmp226)
          to label %invoke.cont228 unwind label %lpad227

invoke.cont228:                                   ; preds = %catch217
  invoke void @_ZStplIcSt11char_traitsIcESaIcEENSt7__cxx1112basic_stringIT_T0_T1_EEPKS5_OS8_(ptr sret(%"class.std::__cxx11::basic_string") align 8 %ref.tmp221, ptr noundef %call224, ptr noundef nonnull align 8 dereferenceable(32) %ref.tmp225)
          to label %invoke.cont230 unwind label %lpad229

invoke.cont230:                                   ; preds = %invoke.cont228
  invoke void @_ZN6Assimp4STEP9TypeErrorC1ERKNSt7__cxx1112basic_stringIcSt11char_traitsIcESaIcEEEmm(ptr noundef nonnull align 8 dereferenceable(16) %exception220, ptr noundef nonnull align 8 dereferenceable(32) %ref.tmp221, i64 noundef -1, i64 noundef 1152921504606846975)
          to label %invoke.cont232 unwind label %lpad231

invoke.cont232:                                   ; preds = %invoke.cont230
  store i1 false, ptr %cleanup.isactive233, align 1
  invoke void @__cxa_throw(ptr %exception220, ptr @_ZTIN6Assimp4STEP9TypeErrorE, ptr @_ZN6Assimp4STEP9TypeErrorD2Ev) #14
          to label %unreachable unwind label %lpad231

lpad227:                                          ; preds = %catch217
  %136 = landingpad { ptr, i32 }
          cleanup
  %137 = extractvalue { ptr, i32 } %136, 0
  store ptr %137, ptr %exn.slot, align 8
  %138 = extractvalue { ptr, i32 } %136, 1
  store i32 %138, ptr %ehselector.slot, align 4
  br label %ehcleanup236

lpad229:                                          ; preds = %invoke.cont228
  %139 = landingpad { ptr, i32 }
          cleanup
  %140 = extractvalue { ptr, i32 } %139, 0
  store ptr %140, ptr %exn.slot, align 8
  %141 = extractvalue { ptr, i32 } %139, 1
  store i32 %141, ptr %ehselector.slot, align 4
  br label %ehcleanup235

lpad231:                                          ; preds = %invoke.cont232, %invoke.cont230
  %142 = landingpad { ptr, i32 }
          cleanup
  %143 = extractvalue { ptr, i32 } %142, 0
  store ptr %143, ptr %exn.slot, align 8
  %144 = extractvalue { ptr, i32 } %142, 1
  store i32 %144, ptr %ehselector.slot, align 4
  call void @_ZNSt7__cxx1112basic_stringIcSt11char_traitsIcESaIcEED1Ev(ptr noundef nonnull align 8 dereferenceable(32) %ref.tmp221) #13
  br label %ehcleanup235

ehcleanup235:                                     ; preds = %lpad231, %lpad229
  call void @_ZNSt7__cxx1112basic_stringIcSt11char_traitsIcESaIcEED1Ev(ptr noundef nonnull align 8 dereferenceable(32) %ref.tmp225) #13
  br label %ehcleanup236

ehcleanup236:                                     ; preds = %ehcleanup235, %lpad227
  call void @_ZNSaIcED1Ev(ptr noundef nonnull align 1 dereferenceable(1) %ref.tmp226) #13
  %cleanup.is_active238 = load i1, ptr %cleanup.isactive233, align 1
  br i1 %cleanup.is_active238, label %cleanup.action239, label %cleanup.done240

cleanup.action239:                                ; preds = %ehcleanup236
  call void @__cxa_free_exception(ptr %exception220) #13
  br label %cleanup.done240

cleanup.done240:                                  ; preds = %cleanup.action239, %ehcleanup236
  invoke void @__cxa_end_catch()
          to label %invoke.cont242 unwind label %terminate.lpad

invoke.cont242:                                   ; preds = %cleanup.done240
  br label %ehcleanup247

try.cont243:                                      ; No predecessors!
  store i32 0, ptr %cleanup.dest.slot, align 4
  br label %cleanup244

cleanup244:                                       ; preds = %try.cont243, %invoke.cont213, %invoke.cont209
  call void @_ZNSt10shared_ptrIKN6Assimp4STEP7EXPRESS8DataTypeEED2Ev(ptr noundef nonnull align 8 dereferenceable(16) %arg197) #13
  %cleanup.dest245 = load i32, ptr %cleanup.dest.slot, align 4
  switch i32 %cleanup.dest245, label %unreachable [
    i32 0, label %cleanup.cont246
    i32 10, label %do.end248
  ]

cleanup.cont246:                                  ; preds = %cleanup244
  br label %do.end248

do.end248:                                        ; preds = %cleanup.cont246, %cleanup244
  %145 = load i64, ptr %base, align 8
  ret i64 %145

ehcleanup247:                                     ; preds = %invoke.cont242, %catch.dispatch214, %lpad208
  call void @_ZNSt10shared_ptrIKN6Assimp4STEP7EXPRESS8DataTypeEED2Ev(ptr noundef nonnull align 8 dereferenceable(16) %arg197) #13
  br label %eh.resume

eh.resume:                                        ; preds = %ehcleanup247, %ehcleanup194, %ehcleanup141, %ehcleanup88, %ehcleanup36, %cleanup.done
  %exn249 = load ptr, ptr %exn.slot, align 8
  %sel250 = load i32, ptr %ehselector.slot, align 4
  %lpad.val = insertvalue { ptr, i32 } poison, ptr %exn249, 0
  %lpad.val251 = insertvalue { ptr, i32 } %lpad.val, i32 %sel250, 1
  resume { ptr, i32 } %lpad.val251

terminate.lpad:                                   ; preds = %cleanup.done240, %cleanup.done187, %cleanup.done134, %cleanup.done81, %cleanup.done33
  %146 = landingpad { ptr, i32 }
          catch ptr null
  %147 = extractvalue { ptr, i32 } %146, 0
  call void @__clang_call_terminate(ptr %147) #12
  unreachable

unreachable:                                      ; preds = %cleanup244, %invoke.cont232, %cleanup191, %invoke.cont179, %cleanup138, %invoke.cont126, %cleanup85, %invoke.cont73, %cleanup, %invoke.cont25, %invoke.cont4
  unreachable
}

declare noundef i64 @_ZN6Assimp4STEP11GenericFillINS_3IFC10Schema_2x315IfcBoundedCurveEEEmRKNS0_2DBERKNS0_7EXPRESS4LISTEPT_(ptr noundef nonnull align 8 dereferenceable(376), ptr noundef nonnull align 8 dereferenceable(32), ptr noundef) #3

; Function Attrs: mustprogress nounwind uwtable
define linkonce_odr void @_ZNSt6bitsetILm5EEixEm(ptr noalias sret(%"class.std::bitset<5>::reference") align 8 %agg.result, ptr noundef nonnull align 8 dereferenceable(8) %this, i64 noundef %__position) #0 comdat align 2 {
entry:
  %result.ptr = alloca ptr, align 8
  %this.addr = alloca ptr, align 8
  %__position.addr = alloca i64, align 8
  store ptr %agg.result, ptr %result.ptr, align 8
  store ptr %this, ptr %this.addr, align 8
  store i64 %__position, ptr %__position.addr, align 8
  %this1 = load ptr, ptr %this.addr, align 8
  %0 = load i64, ptr %__position.addr, align 8
  call void @_ZNSt6bitsetILm5EE9referenceC2ERS0_m(ptr noundef nonnull align 8 dereferenceable(16) %agg.result, ptr noundef nonnull align 8 dereferenceable(8) %this1, i64 noundef %0) #13
  ret void
}

; Function Attrs: mustprogress nounwind uwtable
define linkonce_odr noundef nonnull align 8 dereferenceable(16) ptr @_ZNSt6bitsetILm5EE9referenceaSEb(ptr noundef nonnull align 8 dereferenceable(16) %this, i1 noundef zeroext %__x) #0 comdat align 2 {
entry:
  %this.addr = alloca ptr, align 8
  %__x.addr = alloca i8, align 1
  store ptr %this, ptr %this.addr, align 8
  %frombool = zext i1 %__x to i8
  store i8 %frombool, ptr %__x.addr, align 1
  %this1 = load ptr, ptr %this.addr, align 8
  %0 = load i8, ptr %__x.addr, align 1
  %tobool = trunc i8 %0 to i1
  br i1 %tobool, label %if.then, label %if.else

if.then:                                          ; preds = %entry
  %_M_bpos = getelementptr inbounds %"class.std::bitset<5>::reference", ptr %this1, i32 0, i32 1
  %1 = load i64, ptr %_M_bpos, align 8
  %call = call noundef i64 @_ZNSt12_Base_bitsetILm1EE10_S_maskbitEm(i64 noundef %1) #13
  %_M_wp = getelementptr inbounds %"class.std::bitset<5>::reference", ptr %this1, i32 0, i32 0
  %2 = load ptr, ptr %_M_wp, align 8
  %3 = load i64, ptr %2, align 8
  %or = or i64 %3, %call
  store i64 %or, ptr %2, align 8
  br label %if.end

if.else:                                          ; preds = %entry
  %_M_bpos2 = getelementptr inbounds %"class.std::bitset<5>::reference", ptr %this1, i32 0, i32 1
  %4 = load i64, ptr %_M_bpos2, align 8
  %call3 = call noundef i64 @_ZNSt12_Base_bitsetILm1EE10_S_maskbitEm(i64 noundef %4) #13
  %not = xor i64 %call3, -1
  %_M_wp4 = getelementptr inbounds %"class.std::bitset<5>::reference", ptr %this1, i32 0, i32 0
  %5 = load ptr, ptr %_M_wp4, align 8
  %6 = load i64, ptr %5, align 8
  %and = and i64 %6, %not
  store i64 %and, ptr %5, align 8
  br label %if.end

if.end:                                           ; preds = %if.else, %if.then
  ret ptr %this1
}

; Function Attrs: mustprogress nounwind uwtable
define linkonce_odr void @_ZNSt6bitsetILm5EE9referenceD2Ev(ptr noundef nonnull align 8 dereferenceable(16) %this) unnamed_addr #0 comdat align 2 {
entry:
  %this.addr = alloca ptr, align 8
  store ptr %this, ptr %this.addr, align 8
  ret void
}

; Function Attrs: mustprogress uwtable
define linkonce_odr hidden void @_ZN6Assimp4STEP14GenericConvertIlEEvRT_RKSt10shared_ptrIKNS0_7EXPRESS8DataTypeEERKNS0_2DBE(ptr noundef nonnull align 8 dereferenceable(8) %a, ptr noundef nonnull align 8 dereferenceable(16) %b, ptr noundef nonnull align 8 dereferenceable(376) %db) #2 comdat {
entry:
  %a.addr = alloca ptr, align 8
  %b.addr = alloca ptr, align 8
  %db.addr = alloca ptr, align 8
  %ref.tmp = alloca %"struct.Assimp::STEP::InternGenericConvert.884", align 1
  store ptr %a, ptr %a.addr, align 8
  store ptr %b, ptr %b.addr, align 8
  store ptr %db, ptr %db.addr, align 8
  %0 = load ptr, ptr %a.addr, align 8
  %1 = load ptr, ptr %b.addr, align 8
  %2 = load ptr, ptr %db.addr, align 8
  call void @_ZN6Assimp4STEP20InternGenericConvertIlEclERlRKSt10shared_ptrIKNS0_7EXPRESS8DataTypeEERKNS0_2DBE(ptr noundef nonnull align 1 dereferenceable(1) %ref.tmp, ptr noundef nonnull align 8 dereferenceable(8) %0, ptr noundef nonnull align 8 dereferenceable(16) %1, ptr noundef nonnull align 8 dereferenceable(376) %2)
  ret void
}

; Function Attrs: mustprogress uwtable
define linkonce_odr hidden void @_ZN6Assimp4STEP14GenericConvertINS0_4LazyINS_3IFC10Schema_2x317IfcCartesianPointEEELm2ELm0EEEvRNS0_6ListOfIT_XT0_EXT1_EEERKSt10shared_ptrIKNS0_7EXPRESS8DataTypeEERKNS0_2DBE(ptr noundef nonnull align 8 dereferenceable(24) %a, ptr noundef nonnull align 8 dereferenceable(16) %b, ptr noundef nonnull align 8 dereferenceable(376) %db) #2 comdat {
entry:
  %a.addr = alloca ptr, align 8
  %b.addr = alloca ptr, align 8
  %db.addr = alloca ptr, align 8
  %ref.tmp = alloca %"struct.Assimp::STEP::InternGenericConvertList.886", align 1
  store ptr %a, ptr %a.addr, align 8
  store ptr %b, ptr %b.addr, align 8
  store ptr %db, ptr %db.addr, align 8
  %0 = load ptr, ptr %a.addr, align 8
  %1 = load ptr, ptr %b.addr, align 8
  %2 = load ptr, ptr %db.addr, align 8
  call void @_ZN6Assimp4STEP24InternGenericConvertListINS0_4LazyINS_3IFC10Schema_2x317IfcCartesianPointEEELm2ELm0EEclERNS0_6ListOfIS6_Lm2ELm0EEERKSt10shared_ptrIKNS0_7EXPRESS8DataTypeEERKNS0_2DBE(ptr noundef nonnull align 1 dereferenceable(1) %ref.tmp, ptr noundef nonnull align 8 dereferenceable(24) %0, ptr noundef nonnull align 8 dereferenceable(16) %1, ptr noundef nonnull align 8 dereferenceable(376) %2)
  ret void
}

; Function Attrs: mustprogress uwtable
define linkonce_odr hidden void @_ZN6Assimp4STEP14GenericConvertISt10shared_ptrIKNS0_7EXPRESS8DataTypeEEEEvRT_RKS6_RKNS0_2DBE(ptr noundef nonnull align 8 dereferenceable(16) %a, ptr noundef nonnull align 8 dereferenceable(16) %b, ptr noundef nonnull align 8 dereferenceable(376) %db) #2 comdat {
entry:
  %a.addr = alloca ptr, align 8
  %b.addr = alloca ptr, align 8
  %db.addr = alloca ptr, align 8
  %ref.tmp = alloca %"struct.Assimp::STEP::InternGenericConvert.888", align 1
  store ptr %a, ptr %a.addr, align 8
  store ptr %b, ptr %b.addr, align 8
  store ptr %db, ptr %db.addr, align 8
  %0 = load ptr, ptr %a.addr, align 8
  %1 = load ptr, ptr %b.addr, align 8
  %2 = load ptr, ptr %db.addr, align 8
  call void @_ZN6Assimp4STEP20InternGenericConvertISt10shared_ptrIKNS0_7EXPRESS8DataTypeEEEclERS6_RKS6_RKNS0_2DBE(ptr noundef nonnull align 1 dereferenceable(1) %ref.tmp, ptr noundef nonnull align 8 dereferenceable(16) %0, ptr noundef nonnull align 8 dereferenceable(16) %1, ptr noundef nonnull align 8 dereferenceable(376) %2)
  ret void
}

; Function Attrs: mustprogress uwtable
define hidden noundef i64 @_ZN6Assimp4STEP11GenericFillINS_3IFC10Schema_2x314IfcBezierCurveEEEmRKNS0_2DBERKNS0_7EXPRESS4LISTEPT_(ptr noundef nonnull align 8 dereferenceable(376) %db, ptr noundef nonnull align 8 dereferenceable(32) %params, ptr noundef %in) #2 {
entry:
  %db.addr = alloca ptr, align 8
  %params.addr = alloca ptr, align 8
  %in.addr = alloca ptr, align 8
  %base = alloca i64, align 8
  store ptr %db, ptr %db.addr, align 8
  store ptr %params, ptr %params.addr, align 8
  store ptr %in, ptr %in.addr, align 8
  %0 = load ptr, ptr %db.addr, align 8
  %1 = load ptr, ptr %params.addr, align 8
  %2 = load ptr, ptr %in.addr, align 8
  %call = call noundef i64 @_ZN6Assimp4STEP11GenericFillINS_3IFC10Schema_2x315IfcBSplineCurveEEEmRKNS0_2DBERKNS0_7EXPRESS4LISTEPT_(ptr noundef nonnull align 8 dereferenceable(376) %0, ptr noundef nonnull align 8 dereferenceable(32) %1, ptr noundef %2)
  store i64 %call, ptr %base, align 8
  %3 = load i64, ptr %base, align 8
  ret i64 %3
}

; Function Attrs: mustprogress uwtable
define hidden noundef i64 @_ZN6Assimp4STEP11GenericFillINS_3IFC10Schema_2x315IfcActuatorTypeEEEmRKNS0_2DBERKNS0_7EXPRESS4LISTEPT_(ptr noundef nonnull align 8 dereferenceable(376) %db, ptr noundef nonnull align 8 dereferenceable(32) %params, ptr noundef %in) #2 {
entry:
  %db.addr = alloca ptr, align 8
  %params.addr = alloca ptr, align 8
  %in.addr = alloca ptr, align 8
  %base = alloca i64, align 8
  store ptr %db, ptr %db.addr, align 8
  store ptr %params, ptr %params.addr, align 8
  store ptr %in, ptr %in.addr, align 8
  %0 = load ptr, ptr %db.addr, align 8
  %1 = load ptr, ptr %params.addr, align 8
  %2 = load ptr, ptr %in.addr, align 8
  %call = call noundef i64 @_ZN6Assimp4STEP11GenericFillINS_3IFC10Schema_2x333IfcDistributionControlElementTypeEEEmRKNS0_2DBERKNS0_7EXPRESS4LISTEPT_(ptr noundef nonnull align 8 dereferenceable(376) %0, ptr noundef nonnull align 8 dereferenceable(32) %1, ptr noundef %2)
  store i64 %call, ptr %base, align 8
  %3 = load i64, ptr %base, align 8
  ret i64 %3
}

declare noundef i64 @_ZN6Assimp4STEP11GenericFillINS_3IFC10Schema_2x333IfcDistributionControlElementTypeEEEmRKNS0_2DBERKNS0_7EXPRESS4LISTEPT_(ptr noundef nonnull align 8 dereferenceable(376), ptr noundef nonnull align 8 dereferenceable(32), ptr noundef) #3

; Function Attrs: mustprogress uwtable
define hidden noundef i64 @_ZN6Assimp4STEP11GenericFillINS_3IFC10Schema_2x329IfcDistributionControlElementEEEmRKNS0_2DBERKNS0_7EXPRESS4LISTEPT_(ptr noundef nonnull align 8 dereferenceable(376) %db, ptr noundef nonnull align 8 dereferenceable(32) %params, ptr noundef %in) #2 {
entry:
  %db.addr = alloca ptr, align 8
  %params.addr = alloca ptr, align 8
  %in.addr = alloca ptr, align 8
  %base = alloca i64, align 8
  store ptr %db, ptr %db.addr, align 8
  store ptr %params, ptr %params.addr, align 8
  store ptr %in, ptr %in.addr, align 8
  %0 = load ptr, ptr %db.addr, align 8
  %1 = load ptr, ptr %params.addr, align 8
  %2 = load ptr, ptr %in.addr, align 8
  %call = call noundef i64 @_ZN6Assimp4STEP11GenericFillINS_3IFC10Schema_2x322IfcDistributionElementEEEmRKNS0_2DBERKNS0_7EXPRESS4LISTEPT_(ptr noundef nonnull align 8 dereferenceable(376) %0, ptr noundef nonnull align 8 dereferenceable(32) %1, ptr noundef %2)
  store i64 %call, ptr %base, align 8
  %3 = load i64, ptr %base, align 8
  ret i64 %3
}

declare noundef i64 @_ZN6Assimp4STEP11GenericFillINS_3IFC10Schema_2x322IfcDistributionElementEEEmRKNS0_2DBERKNS0_7EXPRESS4LISTEPT_(ptr noundef nonnull align 8 dereferenceable(376), ptr noundef nonnull align 8 dereferenceable(32), ptr noundef) #3

; Function Attrs: mustprogress uwtable
define hidden noundef i64 @_ZN6Assimp4STEP11GenericFillINS_3IFC10Schema_2x313IfcAnnotationEEEmRKNS0_2DBERKNS0_7EXPRESS4LISTEPT_(ptr noundef nonnull align 8 dereferenceable(376) %db, ptr noundef nonnull align 8 dereferenceable(32) %params, ptr noundef %in) #2 personality ptr @__gxx_personality_v0 {
entry:
  %db.addr = alloca ptr, align 8
  %params.addr = alloca ptr, align 8
  %in.addr = alloca ptr, align 8
  %base = alloca i64, align 8
  %ref.tmp = alloca %"class.std::__cxx11::basic_string", align 8
  %ref.tmp2 = alloca %"class.std::allocator", align 1
  %exn.slot = alloca ptr, align 8
  %ehselector.slot = alloca i32, align 4
  %cleanup.isactive = alloca i1, align 1
  store ptr %db, ptr %db.addr, align 8
  store ptr %params, ptr %params.addr, align 8
  store ptr %in, ptr %in.addr, align 8
  %0 = load ptr, ptr %db.addr, align 8
  %1 = load ptr, ptr %params.addr, align 8
  %2 = load ptr, ptr %in.addr, align 8
  %call = call noundef i64 @_ZN6Assimp4STEP11GenericFillINS_3IFC10Schema_2x310IfcProductEEEmRKNS0_2DBERKNS0_7EXPRESS4LISTEPT_(ptr noundef nonnull align 8 dereferenceable(376) %0, ptr noundef nonnull align 8 dereferenceable(32) %1, ptr noundef %2)
  store i64 %call, ptr %base, align 8
  %3 = load ptr, ptr %params.addr, align 8
  %call1 = call noundef i64 @_ZNK6Assimp4STEP7EXPRESS4LIST7GetSizeEv(ptr noundef nonnull align 8 dereferenceable(32) %3)
  %cmp = icmp ult i64 %call1, 7
  br i1 %cmp, label %if.then, label %if.end

if.then:                                          ; preds = %entry
  store i1 true, ptr %cleanup.isactive, align 1
  %exception = call ptr @__cxa_allocate_exception(i64 16) #13
  call void @_ZNSaIcEC1Ev(ptr noundef nonnull align 1 dereferenceable(1) %ref.tmp2) #13
  invoke void @_ZNSt7__cxx1112basic_stringIcSt11char_traitsIcESaIcEEC2IS3_EEPKcRKS3_(ptr noundef nonnull align 8 dereferenceable(32) %ref.tmp, ptr noundef @.str.26, ptr noundef nonnull align 1 dereferenceable(1) %ref.tmp2)
          to label %invoke.cont unwind label %lpad

invoke.cont:                                      ; preds = %if.then
  invoke void @_ZN6Assimp4STEP9TypeErrorC1ERKNSt7__cxx1112basic_stringIcSt11char_traitsIcESaIcEEEmm(ptr noundef nonnull align 8 dereferenceable(16) %exception, ptr noundef nonnull align 8 dereferenceable(32) %ref.tmp, i64 noundef -1, i64 noundef 1152921504606846975)
          to label %invoke.cont4 unwind label %lpad3

invoke.cont4:                                     ; preds = %invoke.cont
  store i1 false, ptr %cleanup.isactive, align 1
  invoke void @__cxa_throw(ptr %exception, ptr @_ZTIN6Assimp4STEP9TypeErrorE, ptr @_ZN6Assimp4STEP9TypeErrorD2Ev) #14
          to label %unreachable unwind label %lpad3

lpad:                                             ; preds = %if.then
  %4 = landingpad { ptr, i32 }
          cleanup
  %5 = extractvalue { ptr, i32 } %4, 0
  store ptr %5, ptr %exn.slot, align 8
  %6 = extractvalue { ptr, i32 } %4, 1
  store i32 %6, ptr %ehselector.slot, align 4
  br label %ehcleanup

lpad3:                                            ; preds = %invoke.cont4, %invoke.cont
  %7 = landingpad { ptr, i32 }
          cleanup
  %8 = extractvalue { ptr, i32 } %7, 0
  store ptr %8, ptr %exn.slot, align 8
  %9 = extractvalue { ptr, i32 } %7, 1
  store i32 %9, ptr %ehselector.slot, align 4
  call void @_ZNSt7__cxx1112basic_stringIcSt11char_traitsIcESaIcEED1Ev(ptr noundef nonnull align 8 dereferenceable(32) %ref.tmp) #13
  br label %ehcleanup

ehcleanup:                                        ; preds = %lpad3, %lpad
  call void @_ZNSaIcED1Ev(ptr noundef nonnull align 1 dereferenceable(1) %ref.tmp2) #13
  %cleanup.is_active = load i1, ptr %cleanup.isactive, align 1
  br i1 %cleanup.is_active, label %cleanup.action, label %cleanup.done

cleanup.action:                                   ; preds = %ehcleanup
  call void @__cxa_free_exception(ptr %exception) #13
  br label %cleanup.done

cleanup.done:                                     ; preds = %cleanup.action, %ehcleanup
  br label %eh.resume

if.end:                                           ; preds = %entry
  %10 = load i64, ptr %base, align 8
  ret i64 %10

eh.resume:                                        ; preds = %cleanup.done
  %exn = load ptr, ptr %exn.slot, align 8
  %sel = load i32, ptr %ehselector.slot, align 4
  %lpad.val = insertvalue { ptr, i32 } poison, ptr %exn, 0
  %lpad.val6 = insertvalue { ptr, i32 } %lpad.val, i32 %sel, 1
  resume { ptr, i32 } %lpad.val6

unreachable:                                      ; preds = %invoke.cont4
  unreachable
}

declare noundef i64 @_ZN6Assimp4STEP11GenericFillINS_3IFC10Schema_2x310IfcProductEEEmRKNS0_2DBERKNS0_7EXPRESS4LISTEPT_(ptr noundef nonnull align 8 dereferenceable(376), ptr noundef nonnull align 8 dereferenceable(32), ptr noundef) #3

; Function Attrs: mustprogress uwtable
define hidden noundef i64 @_ZN6Assimp4STEP11GenericFillINS_3IFC10Schema_2x325IfcShellBasedSurfaceModelEEEmRKNS0_2DBERKNS0_7EXPRESS4LISTEPT_(ptr noundef nonnull align 8 dereferenceable(376) %db, ptr noundef nonnull align 8 dereferenceable(32) %params, ptr noundef %in) #2 personality ptr @__gxx_personality_v0 {
entry:
  %db.addr = alloca ptr, align 8
  %params.addr = alloca ptr, align 8
  %in.addr = alloca ptr, align 8
  %base = alloca i64, align 8
  %ref.tmp = alloca %"class.std::__cxx11::basic_string", align 8
  %ref.tmp2 = alloca %"class.std::allocator", align 1
  %exn.slot = alloca ptr, align 8
  %ehselector.slot = alloca i32, align 4
  %cleanup.isactive = alloca i1, align 1
  %arg = alloca %"class.std::shared_ptr.29", align 8
  %cleanup.dest.slot = alloca i32, align 4
  %t = alloca ptr, align 8
  %ref.tmp9 = alloca %"class.std::__cxx11::basic_string", align 8
  %ref.tmp11 = alloca %"class.std::__cxx11::basic_string", align 8
  %ref.tmp12 = alloca %"class.std::allocator", align 1
  %cleanup.isactive19 = alloca i1, align 1
  store ptr %db, ptr %db.addr, align 8
  store ptr %params, ptr %params.addr, align 8
  store ptr %in, ptr %in.addr, align 8
  %0 = load ptr, ptr %db.addr, align 8
  %1 = load ptr, ptr %params.addr, align 8
  %2 = load ptr, ptr %in.addr, align 8
  %call = call noundef i64 @_ZN6Assimp4STEP11GenericFillINS_3IFC10Schema_2x330IfcGeometricRepresentationItemEEEmRKNS0_2DBERKNS0_7EXPRESS4LISTEPT_(ptr noundef nonnull align 8 dereferenceable(376) %0, ptr noundef nonnull align 8 dereferenceable(32) %1, ptr noundef %2)
  store i64 %call, ptr %base, align 8
  %3 = load ptr, ptr %params.addr, align 8
  %call1 = call noundef i64 @_ZNK6Assimp4STEP7EXPRESS4LIST7GetSizeEv(ptr noundef nonnull align 8 dereferenceable(32) %3)
  %cmp = icmp ult i64 %call1, 1
  br i1 %cmp, label %if.then, label %if.end

if.then:                                          ; preds = %entry
  store i1 true, ptr %cleanup.isactive, align 1
  %exception = call ptr @__cxa_allocate_exception(i64 16) #13
  call void @_ZNSaIcEC1Ev(ptr noundef nonnull align 1 dereferenceable(1) %ref.tmp2) #13
  invoke void @_ZNSt7__cxx1112basic_stringIcSt11char_traitsIcESaIcEEC2IS3_EEPKcRKS3_(ptr noundef nonnull align 8 dereferenceable(32) %ref.tmp, ptr noundef @.str.27, ptr noundef nonnull align 1 dereferenceable(1) %ref.tmp2)
          to label %invoke.cont unwind label %lpad

invoke.cont:                                      ; preds = %if.then
  invoke void @_ZN6Assimp4STEP9TypeErrorC1ERKNSt7__cxx1112basic_stringIcSt11char_traitsIcESaIcEEEmm(ptr noundef nonnull align 8 dereferenceable(16) %exception, ptr noundef nonnull align 8 dereferenceable(32) %ref.tmp, i64 noundef -1, i64 noundef 1152921504606846975)
          to label %invoke.cont4 unwind label %lpad3

invoke.cont4:                                     ; preds = %invoke.cont
  store i1 false, ptr %cleanup.isactive, align 1
  invoke void @__cxa_throw(ptr %exception, ptr @_ZTIN6Assimp4STEP9TypeErrorE, ptr @_ZN6Assimp4STEP9TypeErrorD2Ev) #14
          to label %unreachable unwind label %lpad3

lpad:                                             ; preds = %if.then
  %4 = landingpad { ptr, i32 }
          cleanup
  %5 = extractvalue { ptr, i32 } %4, 0
  store ptr %5, ptr %exn.slot, align 8
  %6 = extractvalue { ptr, i32 } %4, 1
  store i32 %6, ptr %ehselector.slot, align 4
  br label %ehcleanup

lpad3:                                            ; preds = %invoke.cont4, %invoke.cont
  %7 = landingpad { ptr, i32 }
          cleanup
  %8 = extractvalue { ptr, i32 } %7, 0
  store ptr %8, ptr %exn.slot, align 8
  %9 = extractvalue { ptr, i32 } %7, 1
  store i32 %9, ptr %ehselector.slot, align 4
  call void @_ZNSt7__cxx1112basic_stringIcSt11char_traitsIcESaIcEED1Ev(ptr noundef nonnull align 8 dereferenceable(32) %ref.tmp) #13
  br label %ehcleanup

ehcleanup:                                        ; preds = %lpad3, %lpad
  call void @_ZNSaIcED1Ev(ptr noundef nonnull align 1 dereferenceable(1) %ref.tmp2) #13
  %cleanup.is_active = load i1, ptr %cleanup.isactive, align 1
  br i1 %cleanup.is_active, label %cleanup.action, label %cleanup.done

cleanup.action:                                   ; preds = %ehcleanup
  call void @__cxa_free_exception(ptr %exception) #13
  br label %cleanup.done

cleanup.done:                                     ; preds = %cleanup.action, %ehcleanup
  br label %eh.resume

if.end:                                           ; preds = %entry
  br label %do.body

do.body:                                          ; preds = %if.end
  %10 = load ptr, ptr %params.addr, align 8
  %11 = load i64, ptr %base, align 8
  %inc = add i64 %11, 1
  store i64 %inc, ptr %base, align 8
  call void @_ZNK6Assimp4STEP7EXPRESS4LISTixEm(ptr sret(%"class.std::shared_ptr.29") align 8 %arg, ptr noundef nonnull align 8 dereferenceable(32) %10, i64 noundef %11)
  %12 = load ptr, ptr %in.addr, align 8
  %SbsmBoundary = getelementptr inbounds %"struct.Assimp::IFC::Schema_2x3::IfcShellBasedSurfaceModel", ptr %12, i32 0, i32 2
  %13 = load ptr, ptr %db.addr, align 8
  invoke void @_ZN6Assimp4STEP14GenericConvertINS0_7EXPRESS8DataTypeELm1ELm0EEEvRNS0_6ListOfIT_XT0_EXT1_EEERKSt10shared_ptrIKS3_ERKNS0_2DBE(ptr noundef nonnull align 8 dereferenceable(24) %SbsmBoundary, ptr noundef nonnull align 8 dereferenceable(16) %arg, ptr noundef nonnull align 8 dereferenceable(376) %13)
          to label %invoke.cont7 unwind label %lpad6

invoke.cont7:                                     ; preds = %do.body
  store i32 2, ptr %cleanup.dest.slot, align 4
  br label %cleanup

lpad6:                                            ; preds = %do.body
  %14 = landingpad { ptr, i32 }
          cleanup
          catch ptr @_ZTIN6Assimp4STEP9TypeErrorE
  %15 = extractvalue { ptr, i32 } %14, 0
  store ptr %15, ptr %exn.slot, align 8
  %16 = extractvalue { ptr, i32 } %14, 1
  store i32 %16, ptr %ehselector.slot, align 4
  br label %catch.dispatch

catch.dispatch:                                   ; preds = %lpad6
  %sel = load i32, ptr %ehselector.slot, align 4
  %17 = call i32 @llvm.eh.typeid.for(ptr @_ZTIN6Assimp4STEP9TypeErrorE) #13
  %matches = icmp eq i32 %sel, %17
  br i1 %matches, label %catch, label %ehcleanup29

catch:                                            ; preds = %catch.dispatch
  %exn = load ptr, ptr %exn.slot, align 8
  %18 = call ptr @__cxa_begin_catch(ptr %exn) #13
  store ptr %18, ptr %t, align 8
  store i1 true, ptr %cleanup.isactive19, align 1
  %exception8 = call ptr @__cxa_allocate_exception(i64 16) #13
  %19 = load ptr, ptr %t, align 8
  %vtable = load ptr, ptr %19, align 8
  %vfn = getelementptr inbounds ptr, ptr %vtable, i64 2
  %20 = load ptr, ptr %vfn, align 8
  %call10 = call noundef ptr %20(ptr noundef nonnull align 8 dereferenceable(16) %19) #13
  call void @_ZNSaIcEC1Ev(ptr noundef nonnull align 1 dereferenceable(1) %ref.tmp12) #13
  invoke void @_ZNSt7__cxx1112basic_stringIcSt11char_traitsIcESaIcEEC2IS3_EEPKcRKS3_(ptr noundef nonnull align 8 dereferenceable(32) %ref.tmp11, ptr noundef @.str.28, ptr noundef nonnull align 1 dereferenceable(1) %ref.tmp12)
          to label %invoke.cont14 unwind label %lpad13

invoke.cont14:                                    ; preds = %catch
  invoke void @_ZStplIcSt11char_traitsIcESaIcEENSt7__cxx1112basic_stringIT_T0_T1_EEPKS5_OS8_(ptr sret(%"class.std::__cxx11::basic_string") align 8 %ref.tmp9, ptr noundef %call10, ptr noundef nonnull align 8 dereferenceable(32) %ref.tmp11)
          to label %invoke.cont16 unwind label %lpad15

invoke.cont16:                                    ; preds = %invoke.cont14
  invoke void @_ZN6Assimp4STEP9TypeErrorC1ERKNSt7__cxx1112basic_stringIcSt11char_traitsIcESaIcEEEmm(ptr noundef nonnull align 8 dereferenceable(16) %exception8, ptr noundef nonnull align 8 dereferenceable(32) %ref.tmp9, i64 noundef -1, i64 noundef 1152921504606846975)
          to label %invoke.cont18 unwind label %lpad17

invoke.cont18:                                    ; preds = %invoke.cont16
  store i1 false, ptr %cleanup.isactive19, align 1
  invoke void @__cxa_throw(ptr %exception8, ptr @_ZTIN6Assimp4STEP9TypeErrorE, ptr @_ZN6Assimp4STEP9TypeErrorD2Ev) #14
          to label %unreachable unwind label %lpad17

lpad13:                                           ; preds = %catch
  %21 = landingpad { ptr, i32 }
          cleanup
  %22 = extractvalue { ptr, i32 } %21, 0
  store ptr %22, ptr %exn.slot, align 8
  %23 = extractvalue { ptr, i32 } %21, 1
  store i32 %23, ptr %ehselector.slot, align 4
  br label %ehcleanup22

lpad15:                                           ; preds = %invoke.cont14
  %24 = landingpad { ptr, i32 }
          cleanup
  %25 = extractvalue { ptr, i32 } %24, 0
  store ptr %25, ptr %exn.slot, align 8
  %26 = extractvalue { ptr, i32 } %24, 1
  store i32 %26, ptr %ehselector.slot, align 4
  br label %ehcleanup21

lpad17:                                           ; preds = %invoke.cont18, %invoke.cont16
  %27 = landingpad { ptr, i32 }
          cleanup
  %28 = extractvalue { ptr, i32 } %27, 0
  store ptr %28, ptr %exn.slot, align 8
  %29 = extractvalue { ptr, i32 } %27, 1
  store i32 %29, ptr %ehselector.slot, align 4
  call void @_ZNSt7__cxx1112basic_stringIcSt11char_traitsIcESaIcEED1Ev(ptr noundef nonnull align 8 dereferenceable(32) %ref.tmp9) #13
  br label %ehcleanup21

ehcleanup21:                                      ; preds = %lpad17, %lpad15
  call void @_ZNSt7__cxx1112basic_stringIcSt11char_traitsIcESaIcEED1Ev(ptr noundef nonnull align 8 dereferenceable(32) %ref.tmp11) #13
  br label %ehcleanup22

ehcleanup22:                                      ; preds = %ehcleanup21, %lpad13
  call void @_ZNSaIcED1Ev(ptr noundef nonnull align 1 dereferenceable(1) %ref.tmp12) #13
  %cleanup.is_active24 = load i1, ptr %cleanup.isactive19, align 1
  br i1 %cleanup.is_active24, label %cleanup.action25, label %cleanup.done26

cleanup.action25:                                 ; preds = %ehcleanup22
  call void @__cxa_free_exception(ptr %exception8) #13
  br label %cleanup.done26

cleanup.done26:                                   ; preds = %cleanup.action25, %ehcleanup22
  invoke void @__cxa_end_catch()
          to label %invoke.cont28 unwind label %terminate.lpad

invoke.cont28:                                    ; preds = %cleanup.done26
  br label %ehcleanup29

try.cont:                                         ; No predecessors!
  store i32 0, ptr %cleanup.dest.slot, align 4
  br label %cleanup

cleanup:                                          ; preds = %try.cont, %invoke.cont7
  call void @_ZNSt10shared_ptrIKN6Assimp4STEP7EXPRESS8DataTypeEED2Ev(ptr noundef nonnull align 8 dereferenceable(16) %arg) #13
  %cleanup.dest = load i32, ptr %cleanup.dest.slot, align 4
  switch i32 %cleanup.dest, label %unreachable [
    i32 0, label %cleanup.cont
    i32 2, label %do.end
  ]

cleanup.cont:                                     ; preds = %cleanup
  br label %do.end

do.end:                                           ; preds = %cleanup.cont, %cleanup
  %30 = load i64, ptr %base, align 8
  ret i64 %30

ehcleanup29:                                      ; preds = %invoke.cont28, %catch.dispatch
  call void @_ZNSt10shared_ptrIKN6Assimp4STEP7EXPRESS8DataTypeEED2Ev(ptr noundef nonnull align 8 dereferenceable(16) %arg) #13
  br label %eh.resume

eh.resume:                                        ; preds = %ehcleanup29, %cleanup.done
  %exn30 = load ptr, ptr %exn.slot, align 8
  %sel31 = load i32, ptr %ehselector.slot, align 4
  %lpad.val = insertvalue { ptr, i32 } poison, ptr %exn30, 0
  %lpad.val32 = insertvalue { ptr, i32 } %lpad.val, i32 %sel31, 1
  resume { ptr, i32 } %lpad.val32

terminate.lpad:                                   ; preds = %cleanup.done26
  %31 = landingpad { ptr, i32 }
          catch ptr null
  %32 = extractvalue { ptr, i32 } %31, 0
  call void @__clang_call_terminate(ptr %32) #12
  unreachable

unreachable:                                      ; preds = %cleanup, %invoke.cont18, %invoke.cont4
  unreachable
}

; Function Attrs: mustprogress uwtable
define linkonce_odr hidden void @_ZN6Assimp4STEP14GenericConvertINS0_7EXPRESS8DataTypeELm1ELm0EEEvRNS0_6ListOfIT_XT0_EXT1_EEERKSt10shared_ptrIKS3_ERKNS0_2DBE(ptr noundef nonnull align 8 dereferenceable(24) %a, ptr noundef nonnull align 8 dereferenceable(16) %b, ptr noundef nonnull align 8 dereferenceable(376) %db) #2 comdat {
entry:
  %a.addr = alloca ptr, align 8
  %b.addr = alloca ptr, align 8
  %db.addr = alloca ptr, align 8
  %ref.tmp = alloca %"struct.Assimp::STEP::InternGenericConvertList.889", align 1
  store ptr %a, ptr %a.addr, align 8
  store ptr %b, ptr %b.addr, align 8
  store ptr %db, ptr %db.addr, align 8
  %0 = load ptr, ptr %a.addr, align 8
  %1 = load ptr, ptr %b.addr, align 8
  %2 = load ptr, ptr %db.addr, align 8
  call void @_ZN6Assimp4STEP24InternGenericConvertListINS0_7EXPRESS8DataTypeELm1ELm0EEclERNS0_6ListOfIS3_Lm1ELm0EEERKSt10shared_ptrIKS3_ERKNS0_2DBE(ptr noundef nonnull align 1 dereferenceable(1) %ref.tmp, ptr noundef nonnull align 8 dereferenceable(24) %0, ptr noundef nonnull align 8 dereferenceable(16) %1, ptr noundef nonnull align 8 dereferenceable(376) %2)
  ret void
}

; Function Attrs: mustprogress uwtable
define hidden noundef i64 @_ZN6Assimp4STEP11GenericFillINS_3IFC10Schema_2x316IfcActionRequestEEEmRKNS0_2DBERKNS0_7EXPRESS4LISTEPT_(ptr noundef nonnull align 8 dereferenceable(376) %db, ptr noundef nonnull align 8 dereferenceable(32) %params, ptr noundef %in) #2 {
entry:
  %db.addr = alloca ptr, align 8
  %params.addr = alloca ptr, align 8
  %in.addr = alloca ptr, align 8
  %base = alloca i64, align 8
  store ptr %db, ptr %db.addr, align 8
  store ptr %params, ptr %params.addr, align 8
  store ptr %in, ptr %in.addr, align 8
  %0 = load ptr, ptr %db.addr, align 8
  %1 = load ptr, ptr %params.addr, align 8
  %2 = load ptr, ptr %in.addr, align 8
  %call = call noundef i64 @_ZN6Assimp4STEP11GenericFillINS_3IFC10Schema_2x310IfcControlEEEmRKNS0_2DBERKNS0_7EXPRESS4LISTEPT_(ptr noundef nonnull align 8 dereferenceable(376) %0, ptr noundef nonnull align 8 dereferenceable(32) %1, ptr noundef %2)
  store i64 %call, ptr %base, align 8
  %3 = load i64, ptr %base, align 8
  ret i64 %3
}

; Function Attrs: mustprogress uwtable
define hidden noundef i64 @_ZN6Assimp4STEP11GenericFillINS_3IFC10Schema_2x320IfcExtrudedAreaSolidEEEmRKNS0_2DBERKNS0_7EXPRESS4LISTEPT_(ptr noundef nonnull align 8 dereferenceable(376) %db, ptr noundef nonnull align 8 dereferenceable(32) %params, ptr noundef %in) #2 personality ptr @__gxx_personality_v0 {
entry:
  %db.addr = alloca ptr, align 8
  %params.addr = alloca ptr, align 8
  %in.addr = alloca ptr, align 8
  %base = alloca i64, align 8
  %ref.tmp = alloca %"class.std::__cxx11::basic_string", align 8
  %ref.tmp2 = alloca %"class.std::allocator", align 1
  %exn.slot = alloca ptr, align 8
  %ehselector.slot = alloca i32, align 4
  %cleanup.isactive = alloca i1, align 1
  %arg = alloca %"class.std::shared_ptr.29", align 8
  %cleanup.dest.slot = alloca i32, align 4
  %t = alloca ptr, align 8
  %ref.tmp9 = alloca %"class.std::__cxx11::basic_string", align 8
  %ref.tmp11 = alloca %"class.std::__cxx11::basic_string", align 8
  %ref.tmp12 = alloca %"class.std::allocator", align 1
  %cleanup.isactive19 = alloca i1, align 1
  %arg31 = alloca %"class.std::shared_ptr.29", align 8
  %t39 = alloca ptr, align 8
  %ref.tmp42 = alloca %"class.std::__cxx11::basic_string", align 8
  %ref.tmp46 = alloca %"class.std::__cxx11::basic_string", align 8
  %ref.tmp47 = alloca %"class.std::allocator", align 1
  %cleanup.isactive54 = alloca i1, align 1
  store ptr %db, ptr %db.addr, align 8
  store ptr %params, ptr %params.addr, align 8
  store ptr %in, ptr %in.addr, align 8
  %0 = load ptr, ptr %db.addr, align 8
  %1 = load ptr, ptr %params.addr, align 8
  %2 = load ptr, ptr %in.addr, align 8
  %call = call noundef i64 @_ZN6Assimp4STEP11GenericFillINS_3IFC10Schema_2x317IfcSweptAreaSolidEEEmRKNS0_2DBERKNS0_7EXPRESS4LISTEPT_(ptr noundef nonnull align 8 dereferenceable(376) %0, ptr noundef nonnull align 8 dereferenceable(32) %1, ptr noundef %2)
  store i64 %call, ptr %base, align 8
  %3 = load ptr, ptr %params.addr, align 8
  %call1 = call noundef i64 @_ZNK6Assimp4STEP7EXPRESS4LIST7GetSizeEv(ptr noundef nonnull align 8 dereferenceable(32) %3)
  %cmp = icmp ult i64 %call1, 4
  br i1 %cmp, label %if.then, label %if.end

if.then:                                          ; preds = %entry
  store i1 true, ptr %cleanup.isactive, align 1
  %exception = call ptr @__cxa_allocate_exception(i64 16) #13
  call void @_ZNSaIcEC1Ev(ptr noundef nonnull align 1 dereferenceable(1) %ref.tmp2) #13
  invoke void @_ZNSt7__cxx1112basic_stringIcSt11char_traitsIcESaIcEEC2IS3_EEPKcRKS3_(ptr noundef nonnull align 8 dereferenceable(32) %ref.tmp, ptr noundef @.str.29, ptr noundef nonnull align 1 dereferenceable(1) %ref.tmp2)
          to label %invoke.cont unwind label %lpad

invoke.cont:                                      ; preds = %if.then
  invoke void @_ZN6Assimp4STEP9TypeErrorC1ERKNSt7__cxx1112basic_stringIcSt11char_traitsIcESaIcEEEmm(ptr noundef nonnull align 8 dereferenceable(16) %exception, ptr noundef nonnull align 8 dereferenceable(32) %ref.tmp, i64 noundef -1, i64 noundef 1152921504606846975)
          to label %invoke.cont4 unwind label %lpad3

invoke.cont4:                                     ; preds = %invoke.cont
  store i1 false, ptr %cleanup.isactive, align 1
  invoke void @__cxa_throw(ptr %exception, ptr @_ZTIN6Assimp4STEP9TypeErrorE, ptr @_ZN6Assimp4STEP9TypeErrorD2Ev) #14
          to label %unreachable unwind label %lpad3

lpad:                                             ; preds = %if.then
  %4 = landingpad { ptr, i32 }
          cleanup
  %5 = extractvalue { ptr, i32 } %4, 0
  store ptr %5, ptr %exn.slot, align 8
  %6 = extractvalue { ptr, i32 } %4, 1
  store i32 %6, ptr %ehselector.slot, align 4
  br label %ehcleanup

lpad3:                                            ; preds = %invoke.cont4, %invoke.cont
  %7 = landingpad { ptr, i32 }
          cleanup
  %8 = extractvalue { ptr, i32 } %7, 0
  store ptr %8, ptr %exn.slot, align 8
  %9 = extractvalue { ptr, i32 } %7, 1
  store i32 %9, ptr %ehselector.slot, align 4
  call void @_ZNSt7__cxx1112basic_stringIcSt11char_traitsIcESaIcEED1Ev(ptr noundef nonnull align 8 dereferenceable(32) %ref.tmp) #13
  br label %ehcleanup

ehcleanup:                                        ; preds = %lpad3, %lpad
  call void @_ZNSaIcED1Ev(ptr noundef nonnull align 1 dereferenceable(1) %ref.tmp2) #13
  %cleanup.is_active = load i1, ptr %cleanup.isactive, align 1
  br i1 %cleanup.is_active, label %cleanup.action, label %cleanup.done

cleanup.action:                                   ; preds = %ehcleanup
  call void @__cxa_free_exception(ptr %exception) #13
  br label %cleanup.done

cleanup.done:                                     ; preds = %cleanup.action, %ehcleanup
  br label %eh.resume

if.end:                                           ; preds = %entry
  br label %do.body

do.body:                                          ; preds = %if.end
  %10 = load ptr, ptr %params.addr, align 8
  %11 = load i64, ptr %base, align 8
  %inc = add i64 %11, 1
  store i64 %inc, ptr %base, align 8
  call void @_ZNK6Assimp4STEP7EXPRESS4LISTixEm(ptr sret(%"class.std::shared_ptr.29") align 8 %arg, ptr noundef nonnull align 8 dereferenceable(32) %10, i64 noundef %11)
  %12 = load ptr, ptr %in.addr, align 8
  %ExtrudedDirection = getelementptr inbounds %"struct.Assimp::IFC::Schema_2x3::IfcExtrudedAreaSolid", ptr %12, i32 0, i32 2
  %13 = load ptr, ptr %db.addr, align 8
  invoke void @_ZN6Assimp4STEP14GenericConvertINS0_4LazyINS_3IFC10Schema_2x312IfcDirectionEEEEEvRT_RKSt10shared_ptrIKNS0_7EXPRESS8DataTypeEERKNS0_2DBE(ptr noundef nonnull align 8 dereferenceable(8) %ExtrudedDirection, ptr noundef nonnull align 8 dereferenceable(16) %arg, ptr noundef nonnull align 8 dereferenceable(376) %13)
          to label %invoke.cont7 unwind label %lpad6

invoke.cont7:                                     ; preds = %do.body
  store i32 2, ptr %cleanup.dest.slot, align 4
  br label %cleanup

lpad6:                                            ; preds = %do.body
  %14 = landingpad { ptr, i32 }
          cleanup
          catch ptr @_ZTIN6Assimp4STEP9TypeErrorE
  %15 = extractvalue { ptr, i32 } %14, 0
  store ptr %15, ptr %exn.slot, align 8
  %16 = extractvalue { ptr, i32 } %14, 1
  store i32 %16, ptr %ehselector.slot, align 4
  br label %catch.dispatch

catch.dispatch:                                   ; preds = %lpad6
  %sel = load i32, ptr %ehselector.slot, align 4
  %17 = call i32 @llvm.eh.typeid.for(ptr @_ZTIN6Assimp4STEP9TypeErrorE) #13
  %matches = icmp eq i32 %sel, %17
  br i1 %matches, label %catch, label %ehcleanup29

catch:                                            ; preds = %catch.dispatch
  %exn = load ptr, ptr %exn.slot, align 8
  %18 = call ptr @__cxa_begin_catch(ptr %exn) #13
  store ptr %18, ptr %t, align 8
  store i1 true, ptr %cleanup.isactive19, align 1
  %exception8 = call ptr @__cxa_allocate_exception(i64 16) #13
  %19 = load ptr, ptr %t, align 8
  %vtable = load ptr, ptr %19, align 8
  %vfn = getelementptr inbounds ptr, ptr %vtable, i64 2
  %20 = load ptr, ptr %vfn, align 8
  %call10 = call noundef ptr %20(ptr noundef nonnull align 8 dereferenceable(16) %19) #13
  call void @_ZNSaIcEC1Ev(ptr noundef nonnull align 1 dereferenceable(1) %ref.tmp12) #13
  invoke void @_ZNSt7__cxx1112basic_stringIcSt11char_traitsIcESaIcEEC2IS3_EEPKcRKS3_(ptr noundef nonnull align 8 dereferenceable(32) %ref.tmp11, ptr noundef @.str.30, ptr noundef nonnull align 1 dereferenceable(1) %ref.tmp12)
          to label %invoke.cont14 unwind label %lpad13

invoke.cont14:                                    ; preds = %catch
  invoke void @_ZStplIcSt11char_traitsIcESaIcEENSt7__cxx1112basic_stringIT_T0_T1_EEPKS5_OS8_(ptr sret(%"class.std::__cxx11::basic_string") align 8 %ref.tmp9, ptr noundef %call10, ptr noundef nonnull align 8 dereferenceable(32) %ref.tmp11)
          to label %invoke.cont16 unwind label %lpad15

invoke.cont16:                                    ; preds = %invoke.cont14
  invoke void @_ZN6Assimp4STEP9TypeErrorC1ERKNSt7__cxx1112basic_stringIcSt11char_traitsIcESaIcEEEmm(ptr noundef nonnull align 8 dereferenceable(16) %exception8, ptr noundef nonnull align 8 dereferenceable(32) %ref.tmp9, i64 noundef -1, i64 noundef 1152921504606846975)
          to label %invoke.cont18 unwind label %lpad17

invoke.cont18:                                    ; preds = %invoke.cont16
  store i1 false, ptr %cleanup.isactive19, align 1
  invoke void @__cxa_throw(ptr %exception8, ptr @_ZTIN6Assimp4STEP9TypeErrorE, ptr @_ZN6Assimp4STEP9TypeErrorD2Ev) #14
          to label %unreachable unwind label %lpad17

lpad13:                                           ; preds = %catch
  %21 = landingpad { ptr, i32 }
          cleanup
  %22 = extractvalue { ptr, i32 } %21, 0
  store ptr %22, ptr %exn.slot, align 8
  %23 = extractvalue { ptr, i32 } %21, 1
  store i32 %23, ptr %ehselector.slot, align 4
  br label %ehcleanup22

lpad15:                                           ; preds = %invoke.cont14
  %24 = landingpad { ptr, i32 }
          cleanup
  %25 = extractvalue { ptr, i32 } %24, 0
  store ptr %25, ptr %exn.slot, align 8
  %26 = extractvalue { ptr, i32 } %24, 1
  store i32 %26, ptr %ehselector.slot, align 4
  br label %ehcleanup21

lpad17:                                           ; preds = %invoke.cont18, %invoke.cont16
  %27 = landingpad { ptr, i32 }
          cleanup
  %28 = extractvalue { ptr, i32 } %27, 0
  store ptr %28, ptr %exn.slot, align 8
  %29 = extractvalue { ptr, i32 } %27, 1
  store i32 %29, ptr %ehselector.slot, align 4
  call void @_ZNSt7__cxx1112basic_stringIcSt11char_traitsIcESaIcEED1Ev(ptr noundef nonnull align 8 dereferenceable(32) %ref.tmp9) #13
  br label %ehcleanup21

ehcleanup21:                                      ; preds = %lpad17, %lpad15
  call void @_ZNSt7__cxx1112basic_stringIcSt11char_traitsIcESaIcEED1Ev(ptr noundef nonnull align 8 dereferenceable(32) %ref.tmp11) #13
  br label %ehcleanup22

ehcleanup22:                                      ; preds = %ehcleanup21, %lpad13
  call void @_ZNSaIcED1Ev(ptr noundef nonnull align 1 dereferenceable(1) %ref.tmp12) #13
  %cleanup.is_active24 = load i1, ptr %cleanup.isactive19, align 1
  br i1 %cleanup.is_active24, label %cleanup.action25, label %cleanup.done26

cleanup.action25:                                 ; preds = %ehcleanup22
  call void @__cxa_free_exception(ptr %exception8) #13
  br label %cleanup.done26

cleanup.done26:                                   ; preds = %cleanup.action25, %ehcleanup22
  invoke void @__cxa_end_catch()
          to label %invoke.cont28 unwind label %terminate.lpad

invoke.cont28:                                    ; preds = %cleanup.done26
  br label %ehcleanup29

try.cont:                                         ; No predecessors!
  store i32 0, ptr %cleanup.dest.slot, align 4
  br label %cleanup

cleanup:                                          ; preds = %try.cont, %invoke.cont7
  call void @_ZNSt10shared_ptrIKN6Assimp4STEP7EXPRESS8DataTypeEED2Ev(ptr noundef nonnull align 8 dereferenceable(16) %arg) #13
  %cleanup.dest = load i32, ptr %cleanup.dest.slot, align 4
  switch i32 %cleanup.dest, label %unreachable [
    i32 0, label %cleanup.cont
    i32 2, label %do.end
  ]

cleanup.cont:                                     ; preds = %cleanup
  br label %do.end

do.end:                                           ; preds = %cleanup.cont, %cleanup
  br label %do.body30

do.body30:                                        ; preds = %do.end
  %30 = load ptr, ptr %params.addr, align 8
  %31 = load i64, ptr %base, align 8
  %inc32 = add i64 %31, 1
  store i64 %inc32, ptr %base, align 8
  call void @_ZNK6Assimp4STEP7EXPRESS4LISTixEm(ptr sret(%"class.std::shared_ptr.29") align 8 %arg31, ptr noundef nonnull align 8 dereferenceable(32) %30, i64 noundef %31)
  %32 = load ptr, ptr %in.addr, align 8
  %Depth = getelementptr inbounds %"struct.Assimp::IFC::Schema_2x3::IfcExtrudedAreaSolid", ptr %32, i32 0, i32 3
  %33 = load ptr, ptr %db.addr, align 8
  invoke void @_ZN6Assimp4STEP14GenericConvertIdEEvRT_RKSt10shared_ptrIKNS0_7EXPRESS8DataTypeEERKNS0_2DBE(ptr noundef nonnull align 8 dereferenceable(8) %Depth, ptr noundef nonnull align 8 dereferenceable(16) %arg31, ptr noundef nonnull align 8 dereferenceable(376) %33)
          to label %invoke.cont34 unwind label %lpad33

invoke.cont34:                                    ; preds = %do.body30
  store i32 4, ptr %cleanup.dest.slot, align 4
  br label %cleanup65

ehcleanup29:                                      ; preds = %invoke.cont28, %catch.dispatch
  call void @_ZNSt10shared_ptrIKN6Assimp4STEP7EXPRESS8DataTypeEED2Ev(ptr noundef nonnull align 8 dereferenceable(16) %arg) #13
  br label %eh.resume

lpad33:                                           ; preds = %do.body30
  %34 = landingpad { ptr, i32 }
          cleanup
          catch ptr @_ZTIN6Assimp4STEP9TypeErrorE
  %35 = extractvalue { ptr, i32 } %34, 0
  store ptr %35, ptr %exn.slot, align 8
  %36 = extractvalue { ptr, i32 } %34, 1
  store i32 %36, ptr %ehselector.slot, align 4
  br label %catch.dispatch35

catch.dispatch35:                                 ; preds = %lpad33
  %sel36 = load i32, ptr %ehselector.slot, align 4
  %37 = call i32 @llvm.eh.typeid.for(ptr @_ZTIN6Assimp4STEP9TypeErrorE) #13
  %matches37 = icmp eq i32 %sel36, %37
  br i1 %matches37, label %catch38, label %ehcleanup68

catch38:                                          ; preds = %catch.dispatch35
  %exn40 = load ptr, ptr %exn.slot, align 8
  %38 = call ptr @__cxa_begin_catch(ptr %exn40) #13
  store ptr %38, ptr %t39, align 8
  store i1 true, ptr %cleanup.isactive54, align 1
  %exception41 = call ptr @__cxa_allocate_exception(i64 16) #13
  %39 = load ptr, ptr %t39, align 8
  %vtable43 = load ptr, ptr %39, align 8
  %vfn44 = getelementptr inbounds ptr, ptr %vtable43, i64 2
  %40 = load ptr, ptr %vfn44, align 8
  %call45 = call noundef ptr %40(ptr noundef nonnull align 8 dereferenceable(16) %39) #13
  call void @_ZNSaIcEC1Ev(ptr noundef nonnull align 1 dereferenceable(1) %ref.tmp47) #13
  invoke void @_ZNSt7__cxx1112basic_stringIcSt11char_traitsIcESaIcEEC2IS3_EEPKcRKS3_(ptr noundef nonnull align 8 dereferenceable(32) %ref.tmp46, ptr noundef @.str.31, ptr noundef nonnull align 1 dereferenceable(1) %ref.tmp47)
          to label %invoke.cont49 unwind label %lpad48

invoke.cont49:                                    ; preds = %catch38
  invoke void @_ZStplIcSt11char_traitsIcESaIcEENSt7__cxx1112basic_stringIT_T0_T1_EEPKS5_OS8_(ptr sret(%"class.std::__cxx11::basic_string") align 8 %ref.tmp42, ptr noundef %call45, ptr noundef nonnull align 8 dereferenceable(32) %ref.tmp46)
          to label %invoke.cont51 unwind label %lpad50

invoke.cont51:                                    ; preds = %invoke.cont49
  invoke void @_ZN6Assimp4STEP9TypeErrorC1ERKNSt7__cxx1112basic_stringIcSt11char_traitsIcESaIcEEEmm(ptr noundef nonnull align 8 dereferenceable(16) %exception41, ptr noundef nonnull align 8 dereferenceable(32) %ref.tmp42, i64 noundef -1, i64 noundef 1152921504606846975)
          to label %invoke.cont53 unwind label %lpad52

invoke.cont53:                                    ; preds = %invoke.cont51
  store i1 false, ptr %cleanup.isactive54, align 1
  invoke void @__cxa_throw(ptr %exception41, ptr @_ZTIN6Assimp4STEP9TypeErrorE, ptr @_ZN6Assimp4STEP9TypeErrorD2Ev) #14
          to label %unreachable unwind label %lpad52

lpad48:                                           ; preds = %catch38
  %41 = landingpad { ptr, i32 }
          cleanup
  %42 = extractvalue { ptr, i32 } %41, 0
  store ptr %42, ptr %exn.slot, align 8
  %43 = extractvalue { ptr, i32 } %41, 1
  store i32 %43, ptr %ehselector.slot, align 4
  br label %ehcleanup57

lpad50:                                           ; preds = %invoke.cont49
  %44 = landingpad { ptr, i32 }
          cleanup
  %45 = extractvalue { ptr, i32 } %44, 0
  store ptr %45, ptr %exn.slot, align 8
  %46 = extractvalue { ptr, i32 } %44, 1
  store i32 %46, ptr %ehselector.slot, align 4
  br label %ehcleanup56

lpad52:                                           ; preds = %invoke.cont53, %invoke.cont51
  %47 = landingpad { ptr, i32 }
          cleanup
  %48 = extractvalue { ptr, i32 } %47, 0
  store ptr %48, ptr %exn.slot, align 8
  %49 = extractvalue { ptr, i32 } %47, 1
  store i32 %49, ptr %ehselector.slot, align 4
  call void @_ZNSt7__cxx1112basic_stringIcSt11char_traitsIcESaIcEED1Ev(ptr noundef nonnull align 8 dereferenceable(32) %ref.tmp42) #13
  br label %ehcleanup56

ehcleanup56:                                      ; preds = %lpad52, %lpad50
  call void @_ZNSt7__cxx1112basic_stringIcSt11char_traitsIcESaIcEED1Ev(ptr noundef nonnull align 8 dereferenceable(32) %ref.tmp46) #13
  br label %ehcleanup57

ehcleanup57:                                      ; preds = %ehcleanup56, %lpad48
  call void @_ZNSaIcED1Ev(ptr noundef nonnull align 1 dereferenceable(1) %ref.tmp47) #13
  %cleanup.is_active59 = load i1, ptr %cleanup.isactive54, align 1
  br i1 %cleanup.is_active59, label %cleanup.action60, label %cleanup.done61

cleanup.action60:                                 ; preds = %ehcleanup57
  call void @__cxa_free_exception(ptr %exception41) #13
  br label %cleanup.done61

cleanup.done61:                                   ; preds = %cleanup.action60, %ehcleanup57
  invoke void @__cxa_end_catch()
          to label %invoke.cont63 unwind label %terminate.lpad

invoke.cont63:                                    ; preds = %cleanup.done61
  br label %ehcleanup68

try.cont64:                                       ; No predecessors!
  store i32 0, ptr %cleanup.dest.slot, align 4
  br label %cleanup65

cleanup65:                                        ; preds = %try.cont64, %invoke.cont34
  call void @_ZNSt10shared_ptrIKN6Assimp4STEP7EXPRESS8DataTypeEED2Ev(ptr noundef nonnull align 8 dereferenceable(16) %arg31) #13
  %cleanup.dest66 = load i32, ptr %cleanup.dest.slot, align 4
  switch i32 %cleanup.dest66, label %unreachable [
    i32 0, label %cleanup.cont67
    i32 4, label %do.end69
  ]

cleanup.cont67:                                   ; preds = %cleanup65
  br label %do.end69

do.end69:                                         ; preds = %cleanup.cont67, %cleanup65
  %50 = load i64, ptr %base, align 8
  ret i64 %50

ehcleanup68:                                      ; preds = %invoke.cont63, %catch.dispatch35
  call void @_ZNSt10shared_ptrIKN6Assimp4STEP7EXPRESS8DataTypeEED2Ev(ptr noundef nonnull align 8 dereferenceable(16) %arg31) #13
  br label %eh.resume

eh.resume:                                        ; preds = %ehcleanup68, %ehcleanup29, %cleanup.done
  %exn70 = load ptr, ptr %exn.slot, align 8
  %sel71 = load i32, ptr %ehselector.slot, align 4
  %lpad.val = insertvalue { ptr, i32 } poison, ptr %exn70, 0
  %lpad.val72 = insertvalue { ptr, i32 } %lpad.val, i32 %sel71, 1
  resume { ptr, i32 } %lpad.val72

terminate.lpad:                                   ; preds = %cleanup.done61, %cleanup.done26
  %51 = landingpad { ptr, i32 }
          catch ptr null
  %52 = extractvalue { ptr, i32 } %51, 0
  call void @__clang_call_terminate(ptr %52) #12
  unreachable

unreachable:                                      ; preds = %cleanup65, %invoke.cont53, %cleanup, %invoke.cont18, %invoke.cont4
  unreachable
}

declare noundef i64 @_ZN6Assimp4STEP11GenericFillINS_3IFC10Schema_2x317IfcSweptAreaSolidEEEmRKNS0_2DBERKNS0_7EXPRESS4LISTEPT_(ptr noundef nonnull align 8 dereferenceable(376), ptr noundef nonnull align 8 dereferenceable(32), ptr noundef) #3

; Function Attrs: mustprogress uwtable
define hidden noundef i64 @_ZN6Assimp4STEP11GenericFillINS_3IFC10Schema_2x39IfcSystemEEEmRKNS0_2DBERKNS0_7EXPRESS4LISTEPT_(ptr noundef nonnull align 8 dereferenceable(376) %db, ptr noundef nonnull align 8 dereferenceable(32) %params, ptr noundef %in) #2 {
entry:
  %db.addr = alloca ptr, align 8
  %params.addr = alloca ptr, align 8
  %in.addr = alloca ptr, align 8
  %base = alloca i64, align 8
  store ptr %db, ptr %db.addr, align 8
  store ptr %params, ptr %params.addr, align 8
  store ptr %in, ptr %in.addr, align 8
  %0 = load ptr, ptr %db.addr, align 8
  %1 = load ptr, ptr %params.addr, align 8
  %2 = load ptr, ptr %in.addr, align 8
  %call = call noundef i64 @_ZN6Assimp4STEP11GenericFillINS_3IFC10Schema_2x38IfcGroupEEEmRKNS0_2DBERKNS0_7EXPRESS4LISTEPT_(ptr noundef nonnull align 8 dereferenceable(376) %0, ptr noundef nonnull align 8 dereferenceable(32) %1, ptr noundef %2)
  store i64 %call, ptr %base, align 8
  %3 = load i64, ptr %base, align 8
  ret i64 %3
}

declare noundef i64 @_ZN6Assimp4STEP11GenericFillINS_3IFC10Schema_2x38IfcGroupEEEmRKNS0_2DBERKNS0_7EXPRESS4LISTEPT_(ptr noundef nonnull align 8 dereferenceable(376), ptr noundef nonnull align 8 dereferenceable(32), ptr noundef) #3

; Function Attrs: mustprogress uwtable
define hidden noundef i64 @_ZN6Assimp4STEP11GenericFillINS_3IFC10Schema_2x324IfcFillAreaStyleHatchingEEEmRKNS0_2DBERKNS0_7EXPRESS4LISTEPT_(ptr noundef nonnull align 8 dereferenceable(376) %db, ptr noundef nonnull align 8 dereferenceable(32) %params, ptr noundef %in) #2 {
entry:
  %db.addr = alloca ptr, align 8
  %params.addr = alloca ptr, align 8
  %in.addr = alloca ptr, align 8
  %base = alloca i64, align 8
  store ptr %db, ptr %db.addr, align 8
  store ptr %params, ptr %params.addr, align 8
  store ptr %in, ptr %in.addr, align 8
  %0 = load ptr, ptr %db.addr, align 8
  %1 = load ptr, ptr %params.addr, align 8
  %2 = load ptr, ptr %in.addr, align 8
  %call = call noundef i64 @_ZN6Assimp4STEP11GenericFillINS_3IFC10Schema_2x330IfcGeometricRepresentationItemEEEmRKNS0_2DBERKNS0_7EXPRESS4LISTEPT_(ptr noundef nonnull align 8 dereferenceable(376) %0, ptr noundef nonnull align 8 dereferenceable(32) %1, ptr noundef %2)
  store i64 %call, ptr %base, align 8
  %3 = load i64, ptr %base, align 8
  ret i64 %3
}

; Function Attrs: mustprogress uwtable
define hidden noundef i64 @_ZN6Assimp4STEP11GenericFillINS_3IFC10Schema_2x318IfcRelVoidsElementEEEmRKNS0_2DBERKNS0_7EXPRESS4LISTEPT_(ptr noundef nonnull align 8 dereferenceable(376) %db, ptr noundef nonnull align 8 dereferenceable(32) %params, ptr noundef %in) #2 personality ptr @__gxx_personality_v0 {
entry:
  %db.addr = alloca ptr, align 8
  %params.addr = alloca ptr, align 8
  %in.addr = alloca ptr, align 8
  %base = alloca i64, align 8
  %ref.tmp = alloca %"class.std::__cxx11::basic_string", align 8
  %ref.tmp2 = alloca %"class.std::allocator", align 1
  %exn.slot = alloca ptr, align 8
  %ehselector.slot = alloca i32, align 4
  %cleanup.isactive = alloca i1, align 1
  %arg = alloca %"class.std::shared_ptr.29", align 8
  %cleanup.dest.slot = alloca i32, align 4
  %t = alloca ptr, align 8
  %ref.tmp9 = alloca %"class.std::__cxx11::basic_string", align 8
  %ref.tmp11 = alloca %"class.std::__cxx11::basic_string", align 8
  %ref.tmp12 = alloca %"class.std::allocator", align 1
  %cleanup.isactive19 = alloca i1, align 1
  %arg31 = alloca %"class.std::shared_ptr.29", align 8
  %t39 = alloca ptr, align 8
  %ref.tmp42 = alloca %"class.std::__cxx11::basic_string", align 8
  %ref.tmp46 = alloca %"class.std::__cxx11::basic_string", align 8
  %ref.tmp47 = alloca %"class.std::allocator", align 1
  %cleanup.isactive54 = alloca i1, align 1
  store ptr %db, ptr %db.addr, align 8
  store ptr %params, ptr %params.addr, align 8
  store ptr %in, ptr %in.addr, align 8
  %0 = load ptr, ptr %db.addr, align 8
  %1 = load ptr, ptr %params.addr, align 8
  %2 = load ptr, ptr %in.addr, align 8
  %call = call noundef i64 @_ZN6Assimp4STEP11GenericFillINS_3IFC10Schema_2x314IfcRelConnectsEEEmRKNS0_2DBERKNS0_7EXPRESS4LISTEPT_(ptr noundef nonnull align 8 dereferenceable(376) %0, ptr noundef nonnull align 8 dereferenceable(32) %1, ptr noundef %2)
  store i64 %call, ptr %base, align 8
  %3 = load ptr, ptr %params.addr, align 8
  %call1 = call noundef i64 @_ZNK6Assimp4STEP7EXPRESS4LIST7GetSizeEv(ptr noundef nonnull align 8 dereferenceable(32) %3)
  %cmp = icmp ult i64 %call1, 6
  br i1 %cmp, label %if.then, label %if.end

if.then:                                          ; preds = %entry
  store i1 true, ptr %cleanup.isactive, align 1
  %exception = call ptr @__cxa_allocate_exception(i64 16) #13
  call void @_ZNSaIcEC1Ev(ptr noundef nonnull align 1 dereferenceable(1) %ref.tmp2) #13
  invoke void @_ZNSt7__cxx1112basic_stringIcSt11char_traitsIcESaIcEEC2IS3_EEPKcRKS3_(ptr noundef nonnull align 8 dereferenceable(32) %ref.tmp, ptr noundef @.str.32, ptr noundef nonnull align 1 dereferenceable(1) %ref.tmp2)
          to label %invoke.cont unwind label %lpad

invoke.cont:                                      ; preds = %if.then
  invoke void @_ZN6Assimp4STEP9TypeErrorC1ERKNSt7__cxx1112basic_stringIcSt11char_traitsIcESaIcEEEmm(ptr noundef nonnull align 8 dereferenceable(16) %exception, ptr noundef nonnull align 8 dereferenceable(32) %ref.tmp, i64 noundef -1, i64 noundef 1152921504606846975)
          to label %invoke.cont4 unwind label %lpad3

invoke.cont4:                                     ; preds = %invoke.cont
  store i1 false, ptr %cleanup.isactive, align 1
  invoke void @__cxa_throw(ptr %exception, ptr @_ZTIN6Assimp4STEP9TypeErrorE, ptr @_ZN6Assimp4STEP9TypeErrorD2Ev) #14
          to label %unreachable unwind label %lpad3

lpad:                                             ; preds = %if.then
  %4 = landingpad { ptr, i32 }
          cleanup
  %5 = extractvalue { ptr, i32 } %4, 0
  store ptr %5, ptr %exn.slot, align 8
  %6 = extractvalue { ptr, i32 } %4, 1
  store i32 %6, ptr %ehselector.slot, align 4
  br label %ehcleanup

lpad3:                                            ; preds = %invoke.cont4, %invoke.cont
  %7 = landingpad { ptr, i32 }
          cleanup
  %8 = extractvalue { ptr, i32 } %7, 0
  store ptr %8, ptr %exn.slot, align 8
  %9 = extractvalue { ptr, i32 } %7, 1
  store i32 %9, ptr %ehselector.slot, align 4
  call void @_ZNSt7__cxx1112basic_stringIcSt11char_traitsIcESaIcEED1Ev(ptr noundef nonnull align 8 dereferenceable(32) %ref.tmp) #13
  br label %ehcleanup

ehcleanup:                                        ; preds = %lpad3, %lpad
  call void @_ZNSaIcED1Ev(ptr noundef nonnull align 1 dereferenceable(1) %ref.tmp2) #13
  %cleanup.is_active = load i1, ptr %cleanup.isactive, align 1
  br i1 %cleanup.is_active, label %cleanup.action, label %cleanup.done

cleanup.action:                                   ; preds = %ehcleanup
  call void @__cxa_free_exception(ptr %exception) #13
  br label %cleanup.done

cleanup.done:                                     ; preds = %cleanup.action, %ehcleanup
  br label %eh.resume

if.end:                                           ; preds = %entry
  br label %do.body

do.body:                                          ; preds = %if.end
  %10 = load ptr, ptr %params.addr, align 8
  %11 = load i64, ptr %base, align 8
  %inc = add i64 %11, 1
  store i64 %inc, ptr %base, align 8
  call void @_ZNK6Assimp4STEP7EXPRESS4LISTixEm(ptr sret(%"class.std::shared_ptr.29") align 8 %arg, ptr noundef nonnull align 8 dereferenceable(32) %10, i64 noundef %11)
  %12 = load ptr, ptr %in.addr, align 8
  %RelatingBuildingElement = getelementptr inbounds %"struct.Assimp::IFC::Schema_2x3::IfcRelVoidsElement", ptr %12, i32 0, i32 2
  %13 = load ptr, ptr %db.addr, align 8
  invoke void @_ZN6Assimp4STEP14GenericConvertINS0_4LazyINS_3IFC10Schema_2x310IfcElementEEEEEvRT_RKSt10shared_ptrIKNS0_7EXPRESS8DataTypeEERKNS0_2DBE(ptr noundef nonnull align 8 dereferenceable(8) %RelatingBuildingElement, ptr noundef nonnull align 8 dereferenceable(16) %arg, ptr noundef nonnull align 8 dereferenceable(376) %13)
          to label %invoke.cont7 unwind label %lpad6

invoke.cont7:                                     ; preds = %do.body
  store i32 2, ptr %cleanup.dest.slot, align 4
  br label %cleanup

lpad6:                                            ; preds = %do.body
  %14 = landingpad { ptr, i32 }
          cleanup
          catch ptr @_ZTIN6Assimp4STEP9TypeErrorE
  %15 = extractvalue { ptr, i32 } %14, 0
  store ptr %15, ptr %exn.slot, align 8
  %16 = extractvalue { ptr, i32 } %14, 1
  store i32 %16, ptr %ehselector.slot, align 4
  br label %catch.dispatch

catch.dispatch:                                   ; preds = %lpad6
  %sel = load i32, ptr %ehselector.slot, align 4
  %17 = call i32 @llvm.eh.typeid.for(ptr @_ZTIN6Assimp4STEP9TypeErrorE) #13
  %matches = icmp eq i32 %sel, %17
  br i1 %matches, label %catch, label %ehcleanup29

catch:                                            ; preds = %catch.dispatch
  %exn = load ptr, ptr %exn.slot, align 8
  %18 = call ptr @__cxa_begin_catch(ptr %exn) #13
  store ptr %18, ptr %t, align 8
  store i1 true, ptr %cleanup.isactive19, align 1
  %exception8 = call ptr @__cxa_allocate_exception(i64 16) #13
  %19 = load ptr, ptr %t, align 8
  %vtable = load ptr, ptr %19, align 8
  %vfn = getelementptr inbounds ptr, ptr %vtable, i64 2
  %20 = load ptr, ptr %vfn, align 8
  %call10 = call noundef ptr %20(ptr noundef nonnull align 8 dereferenceable(16) %19) #13
  call void @_ZNSaIcEC1Ev(ptr noundef nonnull align 1 dereferenceable(1) %ref.tmp12) #13
  invoke void @_ZNSt7__cxx1112basic_stringIcSt11char_traitsIcESaIcEEC2IS3_EEPKcRKS3_(ptr noundef nonnull align 8 dereferenceable(32) %ref.tmp11, ptr noundef @.str.33, ptr noundef nonnull align 1 dereferenceable(1) %ref.tmp12)
          to label %invoke.cont14 unwind label %lpad13

invoke.cont14:                                    ; preds = %catch
  invoke void @_ZStplIcSt11char_traitsIcESaIcEENSt7__cxx1112basic_stringIT_T0_T1_EEPKS5_OS8_(ptr sret(%"class.std::__cxx11::basic_string") align 8 %ref.tmp9, ptr noundef %call10, ptr noundef nonnull align 8 dereferenceable(32) %ref.tmp11)
          to label %invoke.cont16 unwind label %lpad15

invoke.cont16:                                    ; preds = %invoke.cont14
  invoke void @_ZN6Assimp4STEP9TypeErrorC1ERKNSt7__cxx1112basic_stringIcSt11char_traitsIcESaIcEEEmm(ptr noundef nonnull align 8 dereferenceable(16) %exception8, ptr noundef nonnull align 8 dereferenceable(32) %ref.tmp9, i64 noundef -1, i64 noundef 1152921504606846975)
          to label %invoke.cont18 unwind label %lpad17

invoke.cont18:                                    ; preds = %invoke.cont16
  store i1 false, ptr %cleanup.isactive19, align 1
  invoke void @__cxa_throw(ptr %exception8, ptr @_ZTIN6Assimp4STEP9TypeErrorE, ptr @_ZN6Assimp4STEP9TypeErrorD2Ev) #14
          to label %unreachable unwind label %lpad17

lpad13:                                           ; preds = %catch
  %21 = landingpad { ptr, i32 }
          cleanup
  %22 = extractvalue { ptr, i32 } %21, 0
  store ptr %22, ptr %exn.slot, align 8
  %23 = extractvalue { ptr, i32 } %21, 1
  store i32 %23, ptr %ehselector.slot, align 4
  br label %ehcleanup22

lpad15:                                           ; preds = %invoke.cont14
  %24 = landingpad { ptr, i32 }
          cleanup
  %25 = extractvalue { ptr, i32 } %24, 0
  store ptr %25, ptr %exn.slot, align 8
  %26 = extractvalue { ptr, i32 } %24, 1
  store i32 %26, ptr %ehselector.slot, align 4
  br label %ehcleanup21

lpad17:                                           ; preds = %invoke.cont18, %invoke.cont16
  %27 = landingpad { ptr, i32 }
          cleanup
  %28 = extractvalue { ptr, i32 } %27, 0
  store ptr %28, ptr %exn.slot, align 8
  %29 = extractvalue { ptr, i32 } %27, 1
  store i32 %29, ptr %ehselector.slot, align 4
  call void @_ZNSt7__cxx1112basic_stringIcSt11char_traitsIcESaIcEED1Ev(ptr noundef nonnull align 8 dereferenceable(32) %ref.tmp9) #13
  br label %ehcleanup21

ehcleanup21:                                      ; preds = %lpad17, %lpad15
  call void @_ZNSt7__cxx1112basic_stringIcSt11char_traitsIcESaIcEED1Ev(ptr noundef nonnull align 8 dereferenceable(32) %ref.tmp11) #13
  br label %ehcleanup22

ehcleanup22:                                      ; preds = %ehcleanup21, %lpad13
  call void @_ZNSaIcED1Ev(ptr noundef nonnull align 1 dereferenceable(1) %ref.tmp12) #13
  %cleanup.is_active24 = load i1, ptr %cleanup.isactive19, align 1
  br i1 %cleanup.is_active24, label %cleanup.action25, label %cleanup.done26

cleanup.action25:                                 ; preds = %ehcleanup22
  call void @__cxa_free_exception(ptr %exception8) #13
  br label %cleanup.done26

cleanup.done26:                                   ; preds = %cleanup.action25, %ehcleanup22
  invoke void @__cxa_end_catch()
          to label %invoke.cont28 unwind label %terminate.lpad

invoke.cont28:                                    ; preds = %cleanup.done26
  br label %ehcleanup29

try.cont:                                         ; No predecessors!
  store i32 0, ptr %cleanup.dest.slot, align 4
  br label %cleanup

cleanup:                                          ; preds = %try.cont, %invoke.cont7
  call void @_ZNSt10shared_ptrIKN6Assimp4STEP7EXPRESS8DataTypeEED2Ev(ptr noundef nonnull align 8 dereferenceable(16) %arg) #13
  %cleanup.dest = load i32, ptr %cleanup.dest.slot, align 4
  switch i32 %cleanup.dest, label %unreachable [
    i32 0, label %cleanup.cont
    i32 2, label %do.end
  ]

cleanup.cont:                                     ; preds = %cleanup
  br label %do.end

do.end:                                           ; preds = %cleanup.cont, %cleanup
  br label %do.body30

do.body30:                                        ; preds = %do.end
  %30 = load ptr, ptr %params.addr, align 8
  %31 = load i64, ptr %base, align 8
  %inc32 = add i64 %31, 1
  store i64 %inc32, ptr %base, align 8
  call void @_ZNK6Assimp4STEP7EXPRESS4LISTixEm(ptr sret(%"class.std::shared_ptr.29") align 8 %arg31, ptr noundef nonnull align 8 dereferenceable(32) %30, i64 noundef %31)
  %32 = load ptr, ptr %in.addr, align 8
  %RelatedOpeningElement = getelementptr inbounds %"struct.Assimp::IFC::Schema_2x3::IfcRelVoidsElement", ptr %32, i32 0, i32 3
  %33 = load ptr, ptr %db.addr, align 8
  invoke void @_ZN6Assimp4STEP14GenericConvertINS0_4LazyINS_3IFC10Schema_2x328IfcFeatureElementSubtractionEEEEEvRT_RKSt10shared_ptrIKNS0_7EXPRESS8DataTypeEERKNS0_2DBE(ptr noundef nonnull align 8 dereferenceable(8) %RelatedOpeningElement, ptr noundef nonnull align 8 dereferenceable(16) %arg31, ptr noundef nonnull align 8 dereferenceable(376) %33)
          to label %invoke.cont34 unwind label %lpad33

invoke.cont34:                                    ; preds = %do.body30
  store i32 4, ptr %cleanup.dest.slot, align 4
  br label %cleanup65

ehcleanup29:                                      ; preds = %invoke.cont28, %catch.dispatch
  call void @_ZNSt10shared_ptrIKN6Assimp4STEP7EXPRESS8DataTypeEED2Ev(ptr noundef nonnull align 8 dereferenceable(16) %arg) #13
  br label %eh.resume

lpad33:                                           ; preds = %do.body30
  %34 = landingpad { ptr, i32 }
          cleanup
          catch ptr @_ZTIN6Assimp4STEP9TypeErrorE
  %35 = extractvalue { ptr, i32 } %34, 0
  store ptr %35, ptr %exn.slot, align 8
  %36 = extractvalue { ptr, i32 } %34, 1
  store i32 %36, ptr %ehselector.slot, align 4
  br label %catch.dispatch35

catch.dispatch35:                                 ; preds = %lpad33
  %sel36 = load i32, ptr %ehselector.slot, align 4
  %37 = call i32 @llvm.eh.typeid.for(ptr @_ZTIN6Assimp4STEP9TypeErrorE) #13
  %matches37 = icmp eq i32 %sel36, %37
  br i1 %matches37, label %catch38, label %ehcleanup68

catch38:                                          ; preds = %catch.dispatch35
  %exn40 = load ptr, ptr %exn.slot, align 8
  %38 = call ptr @__cxa_begin_catch(ptr %exn40) #13
  store ptr %38, ptr %t39, align 8
  store i1 true, ptr %cleanup.isactive54, align 1
  %exception41 = call ptr @__cxa_allocate_exception(i64 16) #13
  %39 = load ptr, ptr %t39, align 8
  %vtable43 = load ptr, ptr %39, align 8
  %vfn44 = getelementptr inbounds ptr, ptr %vtable43, i64 2
  %40 = load ptr, ptr %vfn44, align 8
  %call45 = call noundef ptr %40(ptr noundef nonnull align 8 dereferenceable(16) %39) #13
  call void @_ZNSaIcEC1Ev(ptr noundef nonnull align 1 dereferenceable(1) %ref.tmp47) #13
  invoke void @_ZNSt7__cxx1112basic_stringIcSt11char_traitsIcESaIcEEC2IS3_EEPKcRKS3_(ptr noundef nonnull align 8 dereferenceable(32) %ref.tmp46, ptr noundef @.str.34, ptr noundef nonnull align 1 dereferenceable(1) %ref.tmp47)
          to label %invoke.cont49 unwind label %lpad48

invoke.cont49:                                    ; preds = %catch38
  invoke void @_ZStplIcSt11char_traitsIcESaIcEENSt7__cxx1112basic_stringIT_T0_T1_EEPKS5_OS8_(ptr sret(%"class.std::__cxx11::basic_string") align 8 %ref.tmp42, ptr noundef %call45, ptr noundef nonnull align 8 dereferenceable(32) %ref.tmp46)
          to label %invoke.cont51 unwind label %lpad50

invoke.cont51:                                    ; preds = %invoke.cont49
  invoke void @_ZN6Assimp4STEP9TypeErrorC1ERKNSt7__cxx1112basic_stringIcSt11char_traitsIcESaIcEEEmm(ptr noundef nonnull align 8 dereferenceable(16) %exception41, ptr noundef nonnull align 8 dereferenceable(32) %ref.tmp42, i64 noundef -1, i64 noundef 1152921504606846975)
          to label %invoke.cont53 unwind label %lpad52

invoke.cont53:                                    ; preds = %invoke.cont51
  store i1 false, ptr %cleanup.isactive54, align 1
  invoke void @__cxa_throw(ptr %exception41, ptr @_ZTIN6Assimp4STEP9TypeErrorE, ptr @_ZN6Assimp4STEP9TypeErrorD2Ev) #14
          to label %unreachable unwind label %lpad52

lpad48:                                           ; preds = %catch38
  %41 = landingpad { ptr, i32 }
          cleanup
  %42 = extractvalue { ptr, i32 } %41, 0
  store ptr %42, ptr %exn.slot, align 8
  %43 = extractvalue { ptr, i32 } %41, 1
  store i32 %43, ptr %ehselector.slot, align 4
  br label %ehcleanup57

lpad50:                                           ; preds = %invoke.cont49
  %44 = landingpad { ptr, i32 }
          cleanup
  %45 = extractvalue { ptr, i32 } %44, 0
  store ptr %45, ptr %exn.slot, align 8
  %46 = extractvalue { ptr, i32 } %44, 1
  store i32 %46, ptr %ehselector.slot, align 4
  br label %ehcleanup56

lpad52:                                           ; preds = %invoke.cont53, %invoke.cont51
  %47 = landingpad { ptr, i32 }
          cleanup
  %48 = extractvalue { ptr, i32 } %47, 0
  store ptr %48, ptr %exn.slot, align 8
  %49 = extractvalue { ptr, i32 } %47, 1
  store i32 %49, ptr %ehselector.slot, align 4
  call void @_ZNSt7__cxx1112basic_stringIcSt11char_traitsIcESaIcEED1Ev(ptr noundef nonnull align 8 dereferenceable(32) %ref.tmp42) #13
  br label %ehcleanup56

ehcleanup56:                                      ; preds = %lpad52, %lpad50
  call void @_ZNSt7__cxx1112basic_stringIcSt11char_traitsIcESaIcEED1Ev(ptr noundef nonnull align 8 dereferenceable(32) %ref.tmp46) #13
  br label %ehcleanup57

ehcleanup57:                                      ; preds = %ehcleanup56, %lpad48
  call void @_ZNSaIcED1Ev(ptr noundef nonnull align 1 dereferenceable(1) %ref.tmp47) #13
  %cleanup.is_active59 = load i1, ptr %cleanup.isactive54, align 1
  br i1 %cleanup.is_active59, label %cleanup.action60, label %cleanup.done61

cleanup.action60:                                 ; preds = %ehcleanup57
  call void @__cxa_free_exception(ptr %exception41) #13
  br label %cleanup.done61

cleanup.done61:                                   ; preds = %cleanup.action60, %ehcleanup57
  invoke void @__cxa_end_catch()
          to label %invoke.cont63 unwind label %terminate.lpad

invoke.cont63:                                    ; preds = %cleanup.done61
  br label %ehcleanup68

try.cont64:                                       ; No predecessors!
  store i32 0, ptr %cleanup.dest.slot, align 4
  br label %cleanup65

cleanup65:                                        ; preds = %try.cont64, %invoke.cont34
  call void @_ZNSt10shared_ptrIKN6Assimp4STEP7EXPRESS8DataTypeEED2Ev(ptr noundef nonnull align 8 dereferenceable(16) %arg31) #13
  %cleanup.dest66 = load i32, ptr %cleanup.dest.slot, align 4
  switch i32 %cleanup.dest66, label %unreachable [
    i32 0, label %cleanup.cont67
    i32 4, label %do.end69
  ]

cleanup.cont67:                                   ; preds = %cleanup65
  br label %do.end69

do.end69:                                         ; preds = %cleanup.cont67, %cleanup65
  %50 = load i64, ptr %base, align 8
  ret i64 %50

ehcleanup68:                                      ; preds = %invoke.cont63, %catch.dispatch35
  call void @_ZNSt10shared_ptrIKN6Assimp4STEP7EXPRESS8DataTypeEED2Ev(ptr noundef nonnull align 8 dereferenceable(16) %arg31) #13
  br label %eh.resume

eh.resume:                                        ; preds = %ehcleanup68, %ehcleanup29, %cleanup.done
  %exn70 = load ptr, ptr %exn.slot, align 8
  %sel71 = load i32, ptr %ehselector.slot, align 4
  %lpad.val = insertvalue { ptr, i32 } poison, ptr %exn70, 0
  %lpad.val72 = insertvalue { ptr, i32 } %lpad.val, i32 %sel71, 1
  resume { ptr, i32 } %lpad.val72

terminate.lpad:                                   ; preds = %cleanup.done61, %cleanup.done26
  %51 = landingpad { ptr, i32 }
          catch ptr null
  %52 = extractvalue { ptr, i32 } %51, 0
  call void @__clang_call_terminate(ptr %52) #12
  unreachable

unreachable:                                      ; preds = %cleanup65, %invoke.cont53, %cleanup, %invoke.cont18, %invoke.cont4
  unreachable
}

declare noundef i64 @_ZN6Assimp4STEP11GenericFillINS_3IFC10Schema_2x314IfcRelConnectsEEEmRKNS0_2DBERKNS0_7EXPRESS4LISTEPT_(ptr noundef nonnull align 8 dereferenceable(376), ptr noundef nonnull align 8 dereferenceable(32), ptr noundef) #3

; Function Attrs: mustprogress uwtable
define linkonce_odr hidden void @_ZN6Assimp4STEP14GenericConvertINS0_4LazyINS_3IFC10Schema_2x310IfcElementEEEEEvRT_RKSt10shared_ptrIKNS0_7EXPRESS8DataTypeEERKNS0_2DBE(ptr noundef nonnull align 8 dereferenceable(8) %a, ptr noundef nonnull align 8 dereferenceable(16) %b, ptr noundef nonnull align 8 dereferenceable(376) %db) #2 comdat {
entry:
  %a.addr = alloca ptr, align 8
  %b.addr = alloca ptr, align 8
  %db.addr = alloca ptr, align 8
  %ref.tmp = alloca %"struct.Assimp::STEP::InternGenericConvert.890", align 1
  store ptr %a, ptr %a.addr, align 8
  store ptr %b, ptr %b.addr, align 8
  store ptr %db, ptr %db.addr, align 8
  %0 = load ptr, ptr %a.addr, align 8
  %1 = load ptr, ptr %b.addr, align 8
  %2 = load ptr, ptr %db.addr, align 8
  call void @_ZN6Assimp4STEP20InternGenericConvertINS0_4LazyINS_3IFC10Schema_2x310IfcElementEEEEclERS6_RKSt10shared_ptrIKNS0_7EXPRESS8DataTypeEERKNS0_2DBE(ptr noundef nonnull align 1 dereferenceable(1) %ref.tmp, ptr noundef nonnull align 8 dereferenceable(8) %0, ptr noundef nonnull align 8 dereferenceable(16) %1, ptr noundef nonnull align 8 dereferenceable(376) %2)
  ret void
}

; Function Attrs: mustprogress uwtable
define linkonce_odr hidden void @_ZN6Assimp4STEP14GenericConvertINS0_4LazyINS_3IFC10Schema_2x328IfcFeatureElementSubtractionEEEEEvRT_RKSt10shared_ptrIKNS0_7EXPRESS8DataTypeEERKNS0_2DBE(ptr noundef nonnull align 8 dereferenceable(8) %a, ptr noundef nonnull align 8 dereferenceable(16) %b, ptr noundef nonnull align 8 dereferenceable(376) %db) #2 comdat {
entry:
  %a.addr = alloca ptr, align 8
  %b.addr = alloca ptr, align 8
  %db.addr = alloca ptr, align 8
  %ref.tmp = alloca %"struct.Assimp::STEP::InternGenericConvert.891", align 1
  store ptr %a, ptr %a.addr, align 8
  store ptr %b, ptr %b.addr, align 8
  store ptr %db, ptr %db.addr, align 8
  %0 = load ptr, ptr %a.addr, align 8
  %1 = load ptr, ptr %b.addr, align 8
  %2 = load ptr, ptr %db.addr, align 8
  call void @_ZN6Assimp4STEP20InternGenericConvertINS0_4LazyINS_3IFC10Schema_2x328IfcFeatureElementSubtractionEEEEclERS6_RKSt10shared_ptrIKNS0_7EXPRESS8DataTypeEERKNS0_2DBE(ptr noundef nonnull align 1 dereferenceable(1) %ref.tmp, ptr noundef nonnull align 8 dereferenceable(8) %0, ptr noundef nonnull align 8 dereferenceable(16) %1, ptr noundef nonnull align 8 dereferenceable(376) %2)
  ret void
}

; Function Attrs: mustprogress uwtable
define hidden noundef i64 @_ZN6Assimp4STEP11GenericFillINS_3IFC10Schema_2x329IfcSurfaceCurveSweptAreaSolidEEEmRKNS0_2DBERKNS0_7EXPRESS4LISTEPT_(ptr noundef nonnull align 8 dereferenceable(376) %db, ptr noundef nonnull align 8 dereferenceable(32) %params, ptr noundef %in) #2 {
entry:
  %db.addr = alloca ptr, align 8
  %params.addr = alloca ptr, align 8
  %in.addr = alloca ptr, align 8
  %base = alloca i64, align 8
  store ptr %db, ptr %db.addr, align 8
  store ptr %params, ptr %params.addr, align 8
  store ptr %in, ptr %in.addr, align 8
  %0 = load ptr, ptr %db.addr, align 8
  %1 = load ptr, ptr %params.addr, align 8
  %2 = load ptr, ptr %in.addr, align 8
  %call = call noundef i64 @_ZN6Assimp4STEP11GenericFillINS_3IFC10Schema_2x317IfcSweptAreaSolidEEEmRKNS0_2DBERKNS0_7EXPRESS4LISTEPT_(ptr noundef nonnull align 8 dereferenceable(376) %0, ptr noundef nonnull align 8 dereferenceable(32) %1, ptr noundef %2)
  store i64 %call, ptr %base, align 8
  %3 = load i64, ptr %base, align 8
  ret i64 %3
}

; Function Attrs: mustprogress uwtable
define hidden noundef i64 @_ZN6Assimp4STEP11GenericFillINS_3IFC10Schema_2x346IfcCartesianTransformationOperator3DnonUniformEEEmRKNS0_2DBERKNS0_7EXPRESS4LISTEPT_(ptr noundef nonnull align 8 dereferenceable(376) %db, ptr noundef nonnull align 8 dereferenceable(32) %params, ptr noundef %in) #2 personality ptr @__gxx_personality_v0 {
entry:
  %db.addr = alloca ptr, align 8
  %params.addr = alloca ptr, align 8
  %in.addr = alloca ptr, align 8
  %base = alloca i64, align 8
  %ref.tmp = alloca %"class.std::__cxx11::basic_string", align 8
  %ref.tmp2 = alloca %"class.std::allocator", align 1
  %exn.slot = alloca ptr, align 8
  %ehselector.slot = alloca i32, align 4
  %cleanup.isactive = alloca i1, align 1
  %arg = alloca %"class.std::shared_ptr.29", align 8
  %cleanup.dest.slot = alloca i32, align 4
  %t = alloca ptr, align 8
  %ref.tmp12 = alloca %"class.std::__cxx11::basic_string", align 8
  %ref.tmp14 = alloca %"class.std::__cxx11::basic_string", align 8
  %ref.tmp15 = alloca %"class.std::allocator", align 1
  %cleanup.isactive22 = alloca i1, align 1
  %arg34 = alloca %"class.std::shared_ptr.29", align 8
  %t49 = alloca ptr, align 8
  %ref.tmp52 = alloca %"class.std::__cxx11::basic_string", align 8
  %ref.tmp56 = alloca %"class.std::__cxx11::basic_string", align 8
  %ref.tmp57 = alloca %"class.std::allocator", align 1
  %cleanup.isactive64 = alloca i1, align 1
  store ptr %db, ptr %db.addr, align 8
  store ptr %params, ptr %params.addr, align 8
  store ptr %in, ptr %in.addr, align 8
  %0 = load ptr, ptr %db.addr, align 8
  %1 = load ptr, ptr %params.addr, align 8
  %2 = load ptr, ptr %in.addr, align 8
  %call = call noundef i64 @_ZN6Assimp4STEP11GenericFillINS_3IFC10Schema_2x336IfcCartesianTransformationOperator3DEEEmRKNS0_2DBERKNS0_7EXPRESS4LISTEPT_(ptr noundef nonnull align 8 dereferenceable(376) %0, ptr noundef nonnull align 8 dereferenceable(32) %1, ptr noundef %2)
  store i64 %call, ptr %base, align 8
  %3 = load ptr, ptr %params.addr, align 8
  %call1 = call noundef i64 @_ZNK6Assimp4STEP7EXPRESS4LIST7GetSizeEv(ptr noundef nonnull align 8 dereferenceable(32) %3)
  %cmp = icmp ult i64 %call1, 7
  br i1 %cmp, label %if.then, label %if.end

if.then:                                          ; preds = %entry
  store i1 true, ptr %cleanup.isactive, align 1
  %exception = call ptr @__cxa_allocate_exception(i64 16) #13
  call void @_ZNSaIcEC1Ev(ptr noundef nonnull align 1 dereferenceable(1) %ref.tmp2) #13
  invoke void @_ZNSt7__cxx1112basic_stringIcSt11char_traitsIcESaIcEEC2IS3_EEPKcRKS3_(ptr noundef nonnull align 8 dereferenceable(32) %ref.tmp, ptr noundef @.str.35, ptr noundef nonnull align 1 dereferenceable(1) %ref.tmp2)
          to label %invoke.cont unwind label %lpad

invoke.cont:                                      ; preds = %if.then
  invoke void @_ZN6Assimp4STEP9TypeErrorC1ERKNSt7__cxx1112basic_stringIcSt11char_traitsIcESaIcEEEmm(ptr noundef nonnull align 8 dereferenceable(16) %exception, ptr noundef nonnull align 8 dereferenceable(32) %ref.tmp, i64 noundef -1, i64 noundef 1152921504606846975)
          to label %invoke.cont4 unwind label %lpad3

invoke.cont4:                                     ; preds = %invoke.cont
  store i1 false, ptr %cleanup.isactive, align 1
  invoke void @__cxa_throw(ptr %exception, ptr @_ZTIN6Assimp4STEP9TypeErrorE, ptr @_ZN6Assimp4STEP9TypeErrorD2Ev) #14
          to label %unreachable unwind label %lpad3

lpad:                                             ; preds = %if.then
  %4 = landingpad { ptr, i32 }
          cleanup
  %5 = extractvalue { ptr, i32 } %4, 0
  store ptr %5, ptr %exn.slot, align 8
  %6 = extractvalue { ptr, i32 } %4, 1
  store i32 %6, ptr %ehselector.slot, align 4
  br label %ehcleanup

lpad3:                                            ; preds = %invoke.cont4, %invoke.cont
  %7 = landingpad { ptr, i32 }
          cleanup
  %8 = extractvalue { ptr, i32 } %7, 0
  store ptr %8, ptr %exn.slot, align 8
  %9 = extractvalue { ptr, i32 } %7, 1
  store i32 %9, ptr %ehselector.slot, align 4
  call void @_ZNSt7__cxx1112basic_stringIcSt11char_traitsIcESaIcEED1Ev(ptr noundef nonnull align 8 dereferenceable(32) %ref.tmp) #13
  br label %ehcleanup

ehcleanup:                                        ; preds = %lpad3, %lpad
  call void @_ZNSaIcED1Ev(ptr noundef nonnull align 1 dereferenceable(1) %ref.tmp2) #13
  %cleanup.is_active = load i1, ptr %cleanup.isactive, align 1
  br i1 %cleanup.is_active, label %cleanup.action, label %cleanup.done

cleanup.action:                                   ; preds = %ehcleanup
  call void @__cxa_free_exception(ptr %exception) #13
  br label %cleanup.done

cleanup.done:                                     ; preds = %cleanup.action, %ehcleanup
  br label %eh.resume

if.end:                                           ; preds = %entry
  br label %do.body

do.body:                                          ; preds = %if.end
  %10 = load ptr, ptr %params.addr, align 8
  %11 = load i64, ptr %base, align 8
  %inc = add i64 %11, 1
  store i64 %inc, ptr %base, align 8
  call void @_ZNK6Assimp4STEP7EXPRESS4LISTixEm(ptr sret(%"class.std::shared_ptr.29") align 8 %arg, ptr noundef nonnull align 8 dereferenceable(32) %10, i64 noundef %11)
  %call6 = call noundef nonnull align 8 dereferenceable(8) ptr @_ZNKSt19__shared_ptr_accessIKN6Assimp4STEP7EXPRESS8DataTypeELN9__gnu_cxx12_Lock_policyE2ELb0ELb0EEdeEv(ptr noundef nonnull align 1 dereferenceable(1) %arg) #13
  %12 = icmp eq ptr %call6, null
  br i1 %12, label %dynamic_cast.null, label %dynamic_cast.notnull

dynamic_cast.notnull:                             ; preds = %do.body
  %13 = call ptr @__dynamic_cast(ptr %call6, ptr @_ZTIN6Assimp4STEP7EXPRESS8DataTypeE, ptr @_ZTIN6Assimp4STEP7EXPRESS5UNSETE, i64 0) #13
  br label %dynamic_cast.end

dynamic_cast.null:                                ; preds = %do.body
  br label %dynamic_cast.end

dynamic_cast.end:                                 ; preds = %dynamic_cast.null, %dynamic_cast.notnull
  %14 = phi ptr [ %13, %dynamic_cast.notnull ], [ null, %dynamic_cast.null ]
  %tobool = icmp ne ptr %14, null
  br i1 %tobool, label %if.then7, label %if.end8

if.then7:                                         ; preds = %dynamic_cast.end
  store i32 2, ptr %cleanup.dest.slot, align 4
  br label %cleanup

if.end8:                                          ; preds = %dynamic_cast.end
  %15 = load ptr, ptr %in.addr, align 8
  %Scale2 = getelementptr inbounds %"struct.Assimp::IFC::Schema_2x3::IfcCartesianTransformationOperator3DnonUniform", ptr %15, i32 0, i32 2
  %16 = load ptr, ptr %db.addr, align 8
  invoke void @_ZN6Assimp4STEP14GenericConvertINS0_5MaybeIdEEEEvRT_RKSt10shared_ptrIKNS0_7EXPRESS8DataTypeEERKNS0_2DBE(ptr noundef nonnull align 8 dereferenceable(9) %Scale2, ptr noundef nonnull align 8 dereferenceable(16) %arg, ptr noundef nonnull align 8 dereferenceable(376) %16)
          to label %invoke.cont10 unwind label %lpad9

invoke.cont10:                                    ; preds = %if.end8
  store i32 2, ptr %cleanup.dest.slot, align 4
  br label %cleanup

lpad9:                                            ; preds = %if.end8
  %17 = landingpad { ptr, i32 }
          cleanup
          catch ptr @_ZTIN6Assimp4STEP9TypeErrorE
  %18 = extractvalue { ptr, i32 } %17, 0
  store ptr %18, ptr %exn.slot, align 8
  %19 = extractvalue { ptr, i32 } %17, 1
  store i32 %19, ptr %ehselector.slot, align 4
  br label %catch.dispatch

catch.dispatch:                                   ; preds = %lpad9
  %sel = load i32, ptr %ehselector.slot, align 4
  %20 = call i32 @llvm.eh.typeid.for(ptr @_ZTIN6Assimp4STEP9TypeErrorE) #13
  %matches = icmp eq i32 %sel, %20
  br i1 %matches, label %catch, label %ehcleanup32

catch:                                            ; preds = %catch.dispatch
  %exn = load ptr, ptr %exn.slot, align 8
  %21 = call ptr @__cxa_begin_catch(ptr %exn) #13
  store ptr %21, ptr %t, align 8
  store i1 true, ptr %cleanup.isactive22, align 1
  %exception11 = call ptr @__cxa_allocate_exception(i64 16) #13
  %22 = load ptr, ptr %t, align 8
  %vtable = load ptr, ptr %22, align 8
  %vfn = getelementptr inbounds ptr, ptr %vtable, i64 2
  %23 = load ptr, ptr %vfn, align 8
  %call13 = call noundef ptr %23(ptr noundef nonnull align 8 dereferenceable(16) %22) #13
  call void @_ZNSaIcEC1Ev(ptr noundef nonnull align 1 dereferenceable(1) %ref.tmp15) #13
  invoke void @_ZNSt7__cxx1112basic_stringIcSt11char_traitsIcESaIcEEC2IS3_EEPKcRKS3_(ptr noundef nonnull align 8 dereferenceable(32) %ref.tmp14, ptr noundef @.str.36, ptr noundef nonnull align 1 dereferenceable(1) %ref.tmp15)
          to label %invoke.cont17 unwind label %lpad16

invoke.cont17:                                    ; preds = %catch
  invoke void @_ZStplIcSt11char_traitsIcESaIcEENSt7__cxx1112basic_stringIT_T0_T1_EEPKS5_OS8_(ptr sret(%"class.std::__cxx11::basic_string") align 8 %ref.tmp12, ptr noundef %call13, ptr noundef nonnull align 8 dereferenceable(32) %ref.tmp14)
          to label %invoke.cont19 unwind label %lpad18

invoke.cont19:                                    ; preds = %invoke.cont17
  invoke void @_ZN6Assimp4STEP9TypeErrorC1ERKNSt7__cxx1112basic_stringIcSt11char_traitsIcESaIcEEEmm(ptr noundef nonnull align 8 dereferenceable(16) %exception11, ptr noundef nonnull align 8 dereferenceable(32) %ref.tmp12, i64 noundef -1, i64 noundef 1152921504606846975)
          to label %invoke.cont21 unwind label %lpad20

invoke.cont21:                                    ; preds = %invoke.cont19
  store i1 false, ptr %cleanup.isactive22, align 1
  invoke void @__cxa_throw(ptr %exception11, ptr @_ZTIN6Assimp4STEP9TypeErrorE, ptr @_ZN6Assimp4STEP9TypeErrorD2Ev) #14
          to label %unreachable unwind label %lpad20

lpad16:                                           ; preds = %catch
  %24 = landingpad { ptr, i32 }
          cleanup
  %25 = extractvalue { ptr, i32 } %24, 0
  store ptr %25, ptr %exn.slot, align 8
  %26 = extractvalue { ptr, i32 } %24, 1
  store i32 %26, ptr %ehselector.slot, align 4
  br label %ehcleanup25

lpad18:                                           ; preds = %invoke.cont17
  %27 = landingpad { ptr, i32 }
          cleanup
  %28 = extractvalue { ptr, i32 } %27, 0
  store ptr %28, ptr %exn.slot, align 8
  %29 = extractvalue { ptr, i32 } %27, 1
  store i32 %29, ptr %ehselector.slot, align 4
  br label %ehcleanup24

lpad20:                                           ; preds = %invoke.cont21, %invoke.cont19
  %30 = landingpad { ptr, i32 }
          cleanup
  %31 = extractvalue { ptr, i32 } %30, 0
  store ptr %31, ptr %exn.slot, align 8
  %32 = extractvalue { ptr, i32 } %30, 1
  store i32 %32, ptr %ehselector.slot, align 4
  call void @_ZNSt7__cxx1112basic_stringIcSt11char_traitsIcESaIcEED1Ev(ptr noundef nonnull align 8 dereferenceable(32) %ref.tmp12) #13
  br label %ehcleanup24

ehcleanup24:                                      ; preds = %lpad20, %lpad18
  call void @_ZNSt7__cxx1112basic_stringIcSt11char_traitsIcESaIcEED1Ev(ptr noundef nonnull align 8 dereferenceable(32) %ref.tmp14) #13
  br label %ehcleanup25

ehcleanup25:                                      ; preds = %ehcleanup24, %lpad16
  call void @_ZNSaIcED1Ev(ptr noundef nonnull align 1 dereferenceable(1) %ref.tmp15) #13
  %cleanup.is_active27 = load i1, ptr %cleanup.isactive22, align 1
  br i1 %cleanup.is_active27, label %cleanup.action28, label %cleanup.done29

cleanup.action28:                                 ; preds = %ehcleanup25
  call void @__cxa_free_exception(ptr %exception11) #13
  br label %cleanup.done29

cleanup.done29:                                   ; preds = %cleanup.action28, %ehcleanup25
  invoke void @__cxa_end_catch()
          to label %invoke.cont31 unwind label %terminate.lpad

invoke.cont31:                                    ; preds = %cleanup.done29
  br label %ehcleanup32

try.cont:                                         ; No predecessors!
  store i32 0, ptr %cleanup.dest.slot, align 4
  br label %cleanup

cleanup:                                          ; preds = %try.cont, %invoke.cont10, %if.then7
  call void @_ZNSt10shared_ptrIKN6Assimp4STEP7EXPRESS8DataTypeEED2Ev(ptr noundef nonnull align 8 dereferenceable(16) %arg) #13
  %cleanup.dest = load i32, ptr %cleanup.dest.slot, align 4
  switch i32 %cleanup.dest, label %unreachable [
    i32 0, label %cleanup.cont
    i32 2, label %do.end
  ]

cleanup.cont:                                     ; preds = %cleanup
  br label %do.end

do.end:                                           ; preds = %cleanup.cont, %cleanup
  br label %do.body33

do.body33:                                        ; preds = %do.end
  %33 = load ptr, ptr %params.addr, align 8
  %34 = load i64, ptr %base, align 8
  %inc35 = add i64 %34, 1
  store i64 %inc35, ptr %base, align 8
  call void @_ZNK6Assimp4STEP7EXPRESS4LISTixEm(ptr sret(%"class.std::shared_ptr.29") align 8 %arg34, ptr noundef nonnull align 8 dereferenceable(32) %33, i64 noundef %34)
  %call36 = call noundef nonnull align 8 dereferenceable(8) ptr @_ZNKSt19__shared_ptr_accessIKN6Assimp4STEP7EXPRESS8DataTypeELN9__gnu_cxx12_Lock_policyE2ELb0ELb0EEdeEv(ptr noundef nonnull align 1 dereferenceable(1) %arg34) #13
  %35 = icmp eq ptr %call36, null
  br i1 %35, label %dynamic_cast.null38, label %dynamic_cast.notnull37

dynamic_cast.notnull37:                           ; preds = %do.body33
  %36 = call ptr @__dynamic_cast(ptr %call36, ptr @_ZTIN6Assimp4STEP7EXPRESS8DataTypeE, ptr @_ZTIN6Assimp4STEP7EXPRESS5UNSETE, i64 0) #13
  br label %dynamic_cast.end39

ehcleanup32:                                      ; preds = %invoke.cont31, %catch.dispatch
  call void @_ZNSt10shared_ptrIKN6Assimp4STEP7EXPRESS8DataTypeEED2Ev(ptr noundef nonnull align 8 dereferenceable(16) %arg) #13
  br label %eh.resume

dynamic_cast.null38:                              ; preds = %do.body33
  br label %dynamic_cast.end39

dynamic_cast.end39:                               ; preds = %dynamic_cast.null38, %dynamic_cast.notnull37
  %37 = phi ptr [ %36, %dynamic_cast.notnull37 ], [ null, %dynamic_cast.null38 ]
  %tobool40 = icmp ne ptr %37, null
  br i1 %tobool40, label %if.then41, label %if.end42

if.then41:                                        ; preds = %dynamic_cast.end39
  store i32 4, ptr %cleanup.dest.slot, align 4
  br label %cleanup75

if.end42:                                         ; preds = %dynamic_cast.end39
  %38 = load ptr, ptr %in.addr, align 8
  %Scale3 = getelementptr inbounds %"struct.Assimp::IFC::Schema_2x3::IfcCartesianTransformationOperator3DnonUniform", ptr %38, i32 0, i32 3
  %39 = load ptr, ptr %db.addr, align 8
  invoke void @_ZN6Assimp4STEP14GenericConvertINS0_5MaybeIdEEEEvRT_RKSt10shared_ptrIKNS0_7EXPRESS8DataTypeEERKNS0_2DBE(ptr noundef nonnull align 8 dereferenceable(9) %Scale3, ptr noundef nonnull align 8 dereferenceable(16) %arg34, ptr noundef nonnull align 8 dereferenceable(376) %39)
          to label %invoke.cont44 unwind label %lpad43

invoke.cont44:                                    ; preds = %if.end42
  store i32 4, ptr %cleanup.dest.slot, align 4
  br label %cleanup75

lpad43:                                           ; preds = %if.end42
  %40 = landingpad { ptr, i32 }
          cleanup
          catch ptr @_ZTIN6Assimp4STEP9TypeErrorE
  %41 = extractvalue { ptr, i32 } %40, 0
  store ptr %41, ptr %exn.slot, align 8
  %42 = extractvalue { ptr, i32 } %40, 1
  store i32 %42, ptr %ehselector.slot, align 4
  br label %catch.dispatch45

catch.dispatch45:                                 ; preds = %lpad43
  %sel46 = load i32, ptr %ehselector.slot, align 4
  %43 = call i32 @llvm.eh.typeid.for(ptr @_ZTIN6Assimp4STEP9TypeErrorE) #13
  %matches47 = icmp eq i32 %sel46, %43
  br i1 %matches47, label %catch48, label %ehcleanup78

catch48:                                          ; preds = %catch.dispatch45
  %exn50 = load ptr, ptr %exn.slot, align 8
  %44 = call ptr @__cxa_begin_catch(ptr %exn50) #13
  store ptr %44, ptr %t49, align 8
  store i1 true, ptr %cleanup.isactive64, align 1
  %exception51 = call ptr @__cxa_allocate_exception(i64 16) #13
  %45 = load ptr, ptr %t49, align 8
  %vtable53 = load ptr, ptr %45, align 8
  %vfn54 = getelementptr inbounds ptr, ptr %vtable53, i64 2
  %46 = load ptr, ptr %vfn54, align 8
  %call55 = call noundef ptr %46(ptr noundef nonnull align 8 dereferenceable(16) %45) #13
  call void @_ZNSaIcEC1Ev(ptr noundef nonnull align 1 dereferenceable(1) %ref.tmp57) #13
  invoke void @_ZNSt7__cxx1112basic_stringIcSt11char_traitsIcESaIcEEC2IS3_EEPKcRKS3_(ptr noundef nonnull align 8 dereferenceable(32) %ref.tmp56, ptr noundef @.str.37, ptr noundef nonnull align 1 dereferenceable(1) %ref.tmp57)
          to label %invoke.cont59 unwind label %lpad58

invoke.cont59:                                    ; preds = %catch48
  invoke void @_ZStplIcSt11char_traitsIcESaIcEENSt7__cxx1112basic_stringIT_T0_T1_EEPKS5_OS8_(ptr sret(%"class.std::__cxx11::basic_string") align 8 %ref.tmp52, ptr noundef %call55, ptr noundef nonnull align 8 dereferenceable(32) %ref.tmp56)
          to label %invoke.cont61 unwind label %lpad60

invoke.cont61:                                    ; preds = %invoke.cont59
  invoke void @_ZN6Assimp4STEP9TypeErrorC1ERKNSt7__cxx1112basic_stringIcSt11char_traitsIcESaIcEEEmm(ptr noundef nonnull align 8 dereferenceable(16) %exception51, ptr noundef nonnull align 8 dereferenceable(32) %ref.tmp52, i64 noundef -1, i64 noundef 1152921504606846975)
          to label %invoke.cont63 unwind label %lpad62

invoke.cont63:                                    ; preds = %invoke.cont61
  store i1 false, ptr %cleanup.isactive64, align 1
  invoke void @__cxa_throw(ptr %exception51, ptr @_ZTIN6Assimp4STEP9TypeErrorE, ptr @_ZN6Assimp4STEP9TypeErrorD2Ev) #14
          to label %unreachable unwind label %lpad62

lpad58:                                           ; preds = %catch48
  %47 = landingpad { ptr, i32 }
          cleanup
  %48 = extractvalue { ptr, i32 } %47, 0
  store ptr %48, ptr %exn.slot, align 8
  %49 = extractvalue { ptr, i32 } %47, 1
  store i32 %49, ptr %ehselector.slot, align 4
  br label %ehcleanup67

lpad60:                                           ; preds = %invoke.cont59
  %50 = landingpad { ptr, i32 }
          cleanup
  %51 = extractvalue { ptr, i32 } %50, 0
  store ptr %51, ptr %exn.slot, align 8
  %52 = extractvalue { ptr, i32 } %50, 1
  store i32 %52, ptr %ehselector.slot, align 4
  br label %ehcleanup66

lpad62:                                           ; preds = %invoke.cont63, %invoke.cont61
  %53 = landingpad { ptr, i32 }
          cleanup
  %54 = extractvalue { ptr, i32 } %53, 0
  store ptr %54, ptr %exn.slot, align 8
  %55 = extractvalue { ptr, i32 } %53, 1
  store i32 %55, ptr %ehselector.slot, align 4
  call void @_ZNSt7__cxx1112basic_stringIcSt11char_traitsIcESaIcEED1Ev(ptr noundef nonnull align 8 dereferenceable(32) %ref.tmp52) #13
  br label %ehcleanup66

ehcleanup66:                                      ; preds = %lpad62, %lpad60
  call void @_ZNSt7__cxx1112basic_stringIcSt11char_traitsIcESaIcEED1Ev(ptr noundef nonnull align 8 dereferenceable(32) %ref.tmp56) #13
  br label %ehcleanup67

ehcleanup67:                                      ; preds = %ehcleanup66, %lpad58
  call void @_ZNSaIcED1Ev(ptr noundef nonnull align 1 dereferenceable(1) %ref.tmp57) #13
  %cleanup.is_active69 = load i1, ptr %cleanup.isactive64, align 1
  br i1 %cleanup.is_active69, label %cleanup.action70, label %cleanup.done71

cleanup.action70:                                 ; preds = %ehcleanup67
  call void @__cxa_free_exception(ptr %exception51) #13
  br label %cleanup.done71

cleanup.done71:                                   ; preds = %cleanup.action70, %ehcleanup67
  invoke void @__cxa_end_catch()
          to label %invoke.cont73 unwind label %terminate.lpad

invoke.cont73:                                    ; preds = %cleanup.done71
  br label %ehcleanup78

try.cont74:                                       ; No predecessors!
  store i32 0, ptr %cleanup.dest.slot, align 4
  br label %cleanup75

cleanup75:                                        ; preds = %try.cont74, %invoke.cont44, %if.then41
  call void @_ZNSt10shared_ptrIKN6Assimp4STEP7EXPRESS8DataTypeEED2Ev(ptr noundef nonnull align 8 dereferenceable(16) %arg34) #13
  %cleanup.dest76 = load i32, ptr %cleanup.dest.slot, align 4
  switch i32 %cleanup.dest76, label %unreachable [
    i32 0, label %cleanup.cont77
    i32 4, label %do.end79
  ]

cleanup.cont77:                                   ; preds = %cleanup75
  br label %do.end79

do.end79:                                         ; preds = %cleanup.cont77, %cleanup75
  %56 = load i64, ptr %base, align 8
  ret i64 %56

ehcleanup78:                                      ; preds = %invoke.cont73, %catch.dispatch45
  call void @_ZNSt10shared_ptrIKN6Assimp4STEP7EXPRESS8DataTypeEED2Ev(ptr noundef nonnull align 8 dereferenceable(16) %arg34) #13
  br label %eh.resume

eh.resume:                                        ; preds = %ehcleanup78, %ehcleanup32, %cleanup.done
  %exn80 = load ptr, ptr %exn.slot, align 8
  %sel81 = load i32, ptr %ehselector.slot, align 4
  %lpad.val = insertvalue { ptr, i32 } poison, ptr %exn80, 0
  %lpad.val82 = insertvalue { ptr, i32 } %lpad.val, i32 %sel81, 1
  resume { ptr, i32 } %lpad.val82

terminate.lpad:                                   ; preds = %cleanup.done71, %cleanup.done29
  %57 = landingpad { ptr, i32 }
          catch ptr null
  %58 = extractvalue { ptr, i32 } %57, 0
  call void @__clang_call_terminate(ptr %58) #12
  unreachable

unreachable:                                      ; preds = %cleanup75, %invoke.cont63, %cleanup, %invoke.cont21, %invoke.cont4
  unreachable
}

declare noundef i64 @_ZN6Assimp4STEP11GenericFillINS_3IFC10Schema_2x336IfcCartesianTransformationOperator3DEEEmRKNS0_2DBERKNS0_7EXPRESS4LISTEPT_(ptr noundef nonnull align 8 dereferenceable(376), ptr noundef nonnull align 8 dereferenceable(32), ptr noundef) #3

; Function Attrs: mustprogress uwtable
define hidden noundef i64 @_ZN6Assimp4STEP11GenericFillINS_3IFC10Schema_2x318IfcCurtainWallTypeEEEmRKNS0_2DBERKNS0_7EXPRESS4LISTEPT_(ptr noundef nonnull align 8 dereferenceable(376) %db, ptr noundef nonnull align 8 dereferenceable(32) %params, ptr noundef %in) #2 {
entry:
  %db.addr = alloca ptr, align 8
  %params.addr = alloca ptr, align 8
  %in.addr = alloca ptr, align 8
  %base = alloca i64, align 8
  store ptr %db, ptr %db.addr, align 8
  store ptr %params, ptr %params.addr, align 8
  store ptr %in, ptr %in.addr, align 8
  %0 = load ptr, ptr %db.addr, align 8
  %1 = load ptr, ptr %params.addr, align 8
  %2 = load ptr, ptr %in.addr, align 8
  %call = call noundef i64 @_ZN6Assimp4STEP11GenericFillINS_3IFC10Schema_2x322IfcBuildingElementTypeEEEmRKNS0_2DBERKNS0_7EXPRESS4LISTEPT_(ptr noundef nonnull align 8 dereferenceable(376) %0, ptr noundef nonnull align 8 dereferenceable(32) %1, ptr noundef %2)
  store i64 %call, ptr %base, align 8
  %3 = load i64, ptr %base, align 8
  ret i64 %3
}

; Function Attrs: mustprogress uwtable
define hidden noundef i64 @_ZN6Assimp4STEP11GenericFillINS_3IFC10Schema_2x320IfcEquipmentStandardEEEmRKNS0_2DBERKNS0_7EXPRESS4LISTEPT_(ptr noundef nonnull align 8 dereferenceable(376) %db, ptr noundef nonnull align 8 dereferenceable(32) %params, ptr noundef %in) #2 {
entry:
  %db.addr = alloca ptr, align 8
  %params.addr = alloca ptr, align 8
  %in.addr = alloca ptr, align 8
  %base = alloca i64, align 8
  store ptr %db, ptr %db.addr, align 8
  store ptr %params, ptr %params.addr, align 8
  store ptr %in, ptr %in.addr, align 8
  %0 = load ptr, ptr %db.addr, align 8
  %1 = load ptr, ptr %params.addr, align 8
  %2 = load ptr, ptr %in.addr, align 8
  %call = call noundef i64 @_ZN6Assimp4STEP11GenericFillINS_3IFC10Schema_2x310IfcControlEEEmRKNS0_2DBERKNS0_7EXPRESS4LISTEPT_(ptr noundef nonnull align 8 dereferenceable(376) %0, ptr noundef nonnull align 8 dereferenceable(32) %1, ptr noundef %2)
  store i64 %call, ptr %base, align 8
  %3 = load i64, ptr %base, align 8
  ret i64 %3
}

; Function Attrs: mustprogress uwtable
define hidden noundef i64 @_ZN6Assimp4STEP11GenericFillINS_3IFC10Schema_2x324IfcFlowStorageDeviceTypeEEEmRKNS0_2DBERKNS0_7EXPRESS4LISTEPT_(ptr noundef nonnull align 8 dereferenceable(376) %db, ptr noundef nonnull align 8 dereferenceable(32) %params, ptr noundef %in) #2 {
entry:
  %db.addr = alloca ptr, align 8
  %params.addr = alloca ptr, align 8
  %in.addr = alloca ptr, align 8
  %base = alloca i64, align 8
  store ptr %db, ptr %db.addr, align 8
  store ptr %params, ptr %params.addr, align 8
  store ptr %in, ptr %in.addr, align 8
  %0 = load ptr, ptr %db.addr, align 8
  %1 = load ptr, ptr %params.addr, align 8
  %2 = load ptr, ptr %in.addr, align 8
  %call = call noundef i64 @_ZN6Assimp4STEP11GenericFillINS_3IFC10Schema_2x330IfcDistributionFlowElementTypeEEEmRKNS0_2DBERKNS0_7EXPRESS4LISTEPT_(ptr noundef nonnull align 8 dereferenceable(376) %0, ptr noundef nonnull align 8 dereferenceable(32) %1, ptr noundef %2)
  store i64 %call, ptr %base, align 8
  %3 = load i64, ptr %base, align 8
  ret i64 %3
}

; Function Attrs: mustprogress uwtable
define hidden noundef i64 @_ZN6Assimp4STEP11GenericFillINS_3IFC10Schema_2x320IfcDiameterDimensionEEEmRKNS0_2DBERKNS0_7EXPRESS4LISTEPT_(ptr noundef nonnull align 8 dereferenceable(376) %db, ptr noundef nonnull align 8 dereferenceable(32) %params, ptr noundef %in) #2 {
entry:
  %db.addr = alloca ptr, align 8
  %params.addr = alloca ptr, align 8
  %in.addr = alloca ptr, align 8
  %base = alloca i64, align 8
  store ptr %db, ptr %db.addr, align 8
  store ptr %params, ptr %params.addr, align 8
  store ptr %in, ptr %in.addr, align 8
  %0 = load ptr, ptr %db.addr, align 8
  %1 = load ptr, ptr %params.addr, align 8
  %2 = load ptr, ptr %in.addr, align 8
  %call = call noundef i64 @_ZN6Assimp4STEP11GenericFillINS_3IFC10Schema_2x332IfcDimensionCurveDirectedCalloutEEEmRKNS0_2DBERKNS0_7EXPRESS4LISTEPT_(ptr noundef nonnull align 8 dereferenceable(376) %0, ptr noundef nonnull align 8 dereferenceable(32) %1, ptr noundef %2)
  store i64 %call, ptr %base, align 8
  %3 = load i64, ptr %base, align 8
  ret i64 %3
}

declare noundef i64 @_ZN6Assimp4STEP11GenericFillINS_3IFC10Schema_2x332IfcDimensionCurveDirectedCalloutEEEmRKNS0_2DBERKNS0_7EXPRESS4LISTEPT_(ptr noundef nonnull align 8 dereferenceable(376), ptr noundef nonnull align 8 dereferenceable(32), ptr noundef) #3

; Function Attrs: mustprogress uwtable
define hidden noundef i64 @_ZN6Assimp4STEP11GenericFillINS_3IFC10Schema_2x322IfcSwitchingDeviceTypeEEEmRKNS0_2DBERKNS0_7EXPRESS4LISTEPT_(ptr noundef nonnull align 8 dereferenceable(376) %db, ptr noundef nonnull align 8 dereferenceable(32) %params, ptr noundef %in) #2 {
entry:
  %db.addr = alloca ptr, align 8
  %params.addr = alloca ptr, align 8
  %in.addr = alloca ptr, align 8
  %base = alloca i64, align 8
  store ptr %db, ptr %db.addr, align 8
  store ptr %params, ptr %params.addr, align 8
  store ptr %in, ptr %in.addr, align 8
  %0 = load ptr, ptr %db.addr, align 8
  %1 = load ptr, ptr %params.addr, align 8
  %2 = load ptr, ptr %in.addr, align 8
  %call = call noundef i64 @_ZN6Assimp4STEP11GenericFillINS_3IFC10Schema_2x321IfcFlowControllerTypeEEEmRKNS0_2DBERKNS0_7EXPRESS4LISTEPT_(ptr noundef nonnull align 8 dereferenceable(376) %0, ptr noundef nonnull align 8 dereferenceable(32) %1, ptr noundef %2)
  store i64 %call, ptr %base, align 8
  %3 = load i64, ptr %base, align 8
  ret i64 %3
}

declare noundef i64 @_ZN6Assimp4STEP11GenericFillINS_3IFC10Schema_2x321IfcFlowControllerTypeEEEmRKNS0_2DBERKNS0_7EXPRESS4LISTEPT_(ptr noundef nonnull align 8 dereferenceable(376), ptr noundef nonnull align 8 dereferenceable(32), ptr noundef) #3

; Function Attrs: mustprogress uwtable
define hidden noundef i64 @_ZN6Assimp4STEP11GenericFillINS_3IFC10Schema_2x39IfcWindowEEEmRKNS0_2DBERKNS0_7EXPRESS4LISTEPT_(ptr noundef nonnull align 8 dereferenceable(376) %db, ptr noundef nonnull align 8 dereferenceable(32) %params, ptr noundef %in) #2 {
entry:
  %db.addr = alloca ptr, align 8
  %params.addr = alloca ptr, align 8
  %in.addr = alloca ptr, align 8
  %base = alloca i64, align 8
  store ptr %db, ptr %db.addr, align 8
  store ptr %params, ptr %params.addr, align 8
  store ptr %in, ptr %in.addr, align 8
  %0 = load ptr, ptr %db.addr, align 8
  %1 = load ptr, ptr %params.addr, align 8
  %2 = load ptr, ptr %in.addr, align 8
  %call = call noundef i64 @_ZN6Assimp4STEP11GenericFillINS_3IFC10Schema_2x318IfcBuildingElementEEEmRKNS0_2DBERKNS0_7EXPRESS4LISTEPT_(ptr noundef nonnull align 8 dereferenceable(376) %0, ptr noundef nonnull align 8 dereferenceable(32) %1, ptr noundef %2)
  store i64 %call, ptr %base, align 8
  %3 = load i64, ptr %base, align 8
  ret i64 %3
}

; Function Attrs: mustprogress uwtable
define hidden noundef i64 @_ZN6Assimp4STEP11GenericFillINS_3IFC10Schema_2x322IfcFlowTreatmentDeviceEEEmRKNS0_2DBERKNS0_7EXPRESS4LISTEPT_(ptr noundef nonnull align 8 dereferenceable(376) %db, ptr noundef nonnull align 8 dereferenceable(32) %params, ptr noundef %in) #2 {
entry:
  %db.addr = alloca ptr, align 8
  %params.addr = alloca ptr, align 8
  %in.addr = alloca ptr, align 8
  %base = alloca i64, align 8
  store ptr %db, ptr %db.addr, align 8
  store ptr %params, ptr %params.addr, align 8
  store ptr %in, ptr %in.addr, align 8
  %0 = load ptr, ptr %db.addr, align 8
  %1 = load ptr, ptr %params.addr, align 8
  %2 = load ptr, ptr %in.addr, align 8
  %call = call noundef i64 @_ZN6Assimp4STEP11GenericFillINS_3IFC10Schema_2x326IfcDistributionFlowElementEEEmRKNS0_2DBERKNS0_7EXPRESS4LISTEPT_(ptr noundef nonnull align 8 dereferenceable(376) %0, ptr noundef nonnull align 8 dereferenceable(32) %1, ptr noundef %2)
  store i64 %call, ptr %base, align 8
  %3 = load i64, ptr %base, align 8
  ret i64 %3
}

; Function Attrs: mustprogress uwtable
define hidden noundef i64 @_ZN6Assimp4STEP11GenericFillINS_3IFC10Schema_2x314IfcChillerTypeEEEmRKNS0_2DBERKNS0_7EXPRESS4LISTEPT_(ptr noundef nonnull align 8 dereferenceable(376) %db, ptr noundef nonnull align 8 dereferenceable(32) %params, ptr noundef %in) #2 {
entry:
  %db.addr = alloca ptr, align 8
  %params.addr = alloca ptr, align 8
  %in.addr = alloca ptr, align 8
  %base = alloca i64, align 8
  store ptr %db, ptr %db.addr, align 8
  store ptr %params, ptr %params.addr, align 8
  store ptr %in, ptr %in.addr, align 8
  %0 = load ptr, ptr %db.addr, align 8
  %1 = load ptr, ptr %params.addr, align 8
  %2 = load ptr, ptr %in.addr, align 8
  %call = call noundef i64 @_ZN6Assimp4STEP11GenericFillINS_3IFC10Schema_2x329IfcEnergyConversionDeviceTypeEEEmRKNS0_2DBERKNS0_7EXPRESS4LISTEPT_(ptr noundef nonnull align 8 dereferenceable(376) %0, ptr noundef nonnull align 8 dereferenceable(32) %1, ptr noundef %2)
  store i64 %call, ptr %base, align 8
  %3 = load i64, ptr %base, align 8
  ret i64 %3
}

; Function Attrs: mustprogress uwtable
define hidden noundef i64 @_ZN6Assimp4STEP11GenericFillINS_3IFC10Schema_2x328IfcRectangleHollowProfileDefEEEmRKNS0_2DBERKNS0_7EXPRESS4LISTEPT_(ptr noundef nonnull align 8 dereferenceable(376) %db, ptr noundef nonnull align 8 dereferenceable(32) %params, ptr noundef %in) #2 {
entry:
  %db.addr = alloca ptr, align 8
  %params.addr = alloca ptr, align 8
  %in.addr = alloca ptr, align 8
  %base = alloca i64, align 8
  store ptr %db, ptr %db.addr, align 8
  store ptr %params, ptr %params.addr, align 8
  store ptr %in, ptr %in.addr, align 8
  %0 = load ptr, ptr %db.addr, align 8
  %1 = load ptr, ptr %params.addr, align 8
  %2 = load ptr, ptr %in.addr, align 8
  %call = call noundef i64 @_ZN6Assimp4STEP11GenericFillINS_3IFC10Schema_2x322IfcRectangleProfileDefEEEmRKNS0_2DBERKNS0_7EXPRESS4LISTEPT_(ptr noundef nonnull align 8 dereferenceable(376) %0, ptr noundef nonnull align 8 dereferenceable(32) %1, ptr noundef %2)
  store i64 %call, ptr %base, align 8
  %3 = load i64, ptr %base, align 8
  ret i64 %3
}

declare noundef i64 @_ZN6Assimp4STEP11GenericFillINS_3IFC10Schema_2x322IfcRectangleProfileDefEEEmRKNS0_2DBERKNS0_7EXPRESS4LISTEPT_(ptr noundef nonnull align 8 dereferenceable(376), ptr noundef nonnull align 8 dereferenceable(32), ptr noundef) #3

; Function Attrs: mustprogress uwtable
define hidden noundef i64 @_ZN6Assimp4STEP11GenericFillINS_3IFC10Schema_2x317IfcBoxedHalfSpaceEEEmRKNS0_2DBERKNS0_7EXPRESS4LISTEPT_(ptr noundef nonnull align 8 dereferenceable(376) %db, ptr noundef nonnull align 8 dereferenceable(32) %params, ptr noundef %in) #2 {
entry:
  %db.addr = alloca ptr, align 8
  %params.addr = alloca ptr, align 8
  %in.addr = alloca ptr, align 8
  %base = alloca i64, align 8
  store ptr %db, ptr %db.addr, align 8
  store ptr %params, ptr %params.addr, align 8
  store ptr %in, ptr %in.addr, align 8
  %0 = load ptr, ptr %db.addr, align 8
  %1 = load ptr, ptr %params.addr, align 8
  %2 = load ptr, ptr %in.addr, align 8
  %call = call noundef i64 @_ZN6Assimp4STEP11GenericFillINS_3IFC10Schema_2x317IfcHalfSpaceSolidEEEmRKNS0_2DBERKNS0_7EXPRESS4LISTEPT_(ptr noundef nonnull align 8 dereferenceable(376) %0, ptr noundef nonnull align 8 dereferenceable(32) %1, ptr noundef %2)
  store i64 %call, ptr %base, align 8
  %3 = load i64, ptr %base, align 8
  ret i64 %3
}

declare noundef i64 @_ZN6Assimp4STEP11GenericFillINS_3IFC10Schema_2x317IfcHalfSpaceSolidEEEmRKNS0_2DBERKNS0_7EXPRESS4LISTEPT_(ptr noundef nonnull align 8 dereferenceable(376), ptr noundef nonnull align 8 dereferenceable(32), ptr noundef) #3

; Function Attrs: mustprogress uwtable
define hidden noundef i64 @_ZN6Assimp4STEP11GenericFillINS_3IFC10Schema_2x319IfcAxis2Placement2DEEEmRKNS0_2DBERKNS0_7EXPRESS4LISTEPT_(ptr noundef nonnull align 8 dereferenceable(376) %db, ptr noundef nonnull align 8 dereferenceable(32) %params, ptr noundef %in) #2 personality ptr @__gxx_personality_v0 {
entry:
  %db.addr = alloca ptr, align 8
  %params.addr = alloca ptr, align 8
  %in.addr = alloca ptr, align 8
  %base = alloca i64, align 8
  %ref.tmp = alloca %"class.std::__cxx11::basic_string", align 8
  %ref.tmp2 = alloca %"class.std::allocator", align 1
  %exn.slot = alloca ptr, align 8
  %ehselector.slot = alloca i32, align 4
  %cleanup.isactive = alloca i1, align 1
  %arg = alloca %"class.std::shared_ptr.29", align 8
  %cleanup.dest.slot = alloca i32, align 4
  %t = alloca ptr, align 8
  %ref.tmp12 = alloca %"class.std::__cxx11::basic_string", align 8
  %ref.tmp14 = alloca %"class.std::__cxx11::basic_string", align 8
  %ref.tmp15 = alloca %"class.std::allocator", align 1
  %cleanup.isactive22 = alloca i1, align 1
  store ptr %db, ptr %db.addr, align 8
  store ptr %params, ptr %params.addr, align 8
  store ptr %in, ptr %in.addr, align 8
  %0 = load ptr, ptr %db.addr, align 8
  %1 = load ptr, ptr %params.addr, align 8
  %2 = load ptr, ptr %in.addr, align 8
  %call = call noundef i64 @_ZN6Assimp4STEP11GenericFillINS_3IFC10Schema_2x312IfcPlacementEEEmRKNS0_2DBERKNS0_7EXPRESS4LISTEPT_(ptr noundef nonnull align 8 dereferenceable(376) %0, ptr noundef nonnull align 8 dereferenceable(32) %1, ptr noundef %2)
  store i64 %call, ptr %base, align 8
  %3 = load ptr, ptr %params.addr, align 8
  %call1 = call noundef i64 @_ZNK6Assimp4STEP7EXPRESS4LIST7GetSizeEv(ptr noundef nonnull align 8 dereferenceable(32) %3)
  %cmp = icmp ult i64 %call1, 2
  br i1 %cmp, label %if.then, label %if.end

if.then:                                          ; preds = %entry
  store i1 true, ptr %cleanup.isactive, align 1
  %exception = call ptr @__cxa_allocate_exception(i64 16) #13
  call void @_ZNSaIcEC1Ev(ptr noundef nonnull align 1 dereferenceable(1) %ref.tmp2) #13
  invoke void @_ZNSt7__cxx1112basic_stringIcSt11char_traitsIcESaIcEEC2IS3_EEPKcRKS3_(ptr noundef nonnull align 8 dereferenceable(32) %ref.tmp, ptr noundef @.str.38, ptr noundef nonnull align 1 dereferenceable(1) %ref.tmp2)
          to label %invoke.cont unwind label %lpad

invoke.cont:                                      ; preds = %if.then
  invoke void @_ZN6Assimp4STEP9TypeErrorC1ERKNSt7__cxx1112basic_stringIcSt11char_traitsIcESaIcEEEmm(ptr noundef nonnull align 8 dereferenceable(16) %exception, ptr noundef nonnull align 8 dereferenceable(32) %ref.tmp, i64 noundef -1, i64 noundef 1152921504606846975)
          to label %invoke.cont4 unwind label %lpad3

invoke.cont4:                                     ; preds = %invoke.cont
  store i1 false, ptr %cleanup.isactive, align 1
  invoke void @__cxa_throw(ptr %exception, ptr @_ZTIN6Assimp4STEP9TypeErrorE, ptr @_ZN6Assimp4STEP9TypeErrorD2Ev) #14
          to label %unreachable unwind label %lpad3

lpad:                                             ; preds = %if.then
  %4 = landingpad { ptr, i32 }
          cleanup
  %5 = extractvalue { ptr, i32 } %4, 0
  store ptr %5, ptr %exn.slot, align 8
  %6 = extractvalue { ptr, i32 } %4, 1
  store i32 %6, ptr %ehselector.slot, align 4
  br label %ehcleanup

lpad3:                                            ; preds = %invoke.cont4, %invoke.cont
  %7 = landingpad { ptr, i32 }
          cleanup
  %8 = extractvalue { ptr, i32 } %7, 0
  store ptr %8, ptr %exn.slot, align 8
  %9 = extractvalue { ptr, i32 } %7, 1
  store i32 %9, ptr %ehselector.slot, align 4
  call void @_ZNSt7__cxx1112basic_stringIcSt11char_traitsIcESaIcEED1Ev(ptr noundef nonnull align 8 dereferenceable(32) %ref.tmp) #13
  br label %ehcleanup

ehcleanup:                                        ; preds = %lpad3, %lpad
  call void @_ZNSaIcED1Ev(ptr noundef nonnull align 1 dereferenceable(1) %ref.tmp2) #13
  %cleanup.is_active = load i1, ptr %cleanup.isactive, align 1
  br i1 %cleanup.is_active, label %cleanup.action, label %cleanup.done

cleanup.action:                                   ; preds = %ehcleanup
  call void @__cxa_free_exception(ptr %exception) #13
  br label %cleanup.done

cleanup.done:                                     ; preds = %cleanup.action, %ehcleanup
  br label %eh.resume

if.end:                                           ; preds = %entry
  br label %do.body

do.body:                                          ; preds = %if.end
  %10 = load ptr, ptr %params.addr, align 8
  %11 = load i64, ptr %base, align 8
  %inc = add i64 %11, 1
  store i64 %inc, ptr %base, align 8
  call void @_ZNK6Assimp4STEP7EXPRESS4LISTixEm(ptr sret(%"class.std::shared_ptr.29") align 8 %arg, ptr noundef nonnull align 8 dereferenceable(32) %10, i64 noundef %11)
  %call6 = call noundef nonnull align 8 dereferenceable(8) ptr @_ZNKSt19__shared_ptr_accessIKN6Assimp4STEP7EXPRESS8DataTypeELN9__gnu_cxx12_Lock_policyE2ELb0ELb0EEdeEv(ptr noundef nonnull align 1 dereferenceable(1) %arg) #13
  %12 = icmp eq ptr %call6, null
  br i1 %12, label %dynamic_cast.null, label %dynamic_cast.notnull

dynamic_cast.notnull:                             ; preds = %do.body
  %13 = call ptr @__dynamic_cast(ptr %call6, ptr @_ZTIN6Assimp4STEP7EXPRESS8DataTypeE, ptr @_ZTIN6Assimp4STEP7EXPRESS5UNSETE, i64 0) #13
  br label %dynamic_cast.end

dynamic_cast.null:                                ; preds = %do.body
  br label %dynamic_cast.end

dynamic_cast.end:                                 ; preds = %dynamic_cast.null, %dynamic_cast.notnull
  %14 = phi ptr [ %13, %dynamic_cast.notnull ], [ null, %dynamic_cast.null ]
  %tobool = icmp ne ptr %14, null
  br i1 %tobool, label %if.then7, label %if.end8

if.then7:                                         ; preds = %dynamic_cast.end
  store i32 2, ptr %cleanup.dest.slot, align 4
  br label %cleanup

if.end8:                                          ; preds = %dynamic_cast.end
  %15 = load ptr, ptr %in.addr, align 8
  %RefDirection = getelementptr inbounds %"struct.Assimp::IFC::Schema_2x3::IfcAxis2Placement2D", ptr %15, i32 0, i32 2
  %16 = load ptr, ptr %db.addr, align 8
  invoke void @_ZN6Assimp4STEP14GenericConvertINS0_5MaybeINS0_4LazyINS_3IFC10Schema_2x312IfcDirectionEEEEEEEvRT_RKSt10shared_ptrIKNS0_7EXPRESS8DataTypeEERKNS0_2DBE(ptr noundef nonnull align 8 dereferenceable(9) %RefDirection, ptr noundef nonnull align 8 dereferenceable(16) %arg, ptr noundef nonnull align 8 dereferenceable(376) %16)
          to label %invoke.cont10 unwind label %lpad9

invoke.cont10:                                    ; preds = %if.end8
  store i32 2, ptr %cleanup.dest.slot, align 4
  br label %cleanup

lpad9:                                            ; preds = %if.end8
  %17 = landingpad { ptr, i32 }
          cleanup
          catch ptr @_ZTIN6Assimp4STEP9TypeErrorE
  %18 = extractvalue { ptr, i32 } %17, 0
  store ptr %18, ptr %exn.slot, align 8
  %19 = extractvalue { ptr, i32 } %17, 1
  store i32 %19, ptr %ehselector.slot, align 4
  br label %catch.dispatch

catch.dispatch:                                   ; preds = %lpad9
  %sel = load i32, ptr %ehselector.slot, align 4
  %20 = call i32 @llvm.eh.typeid.for(ptr @_ZTIN6Assimp4STEP9TypeErrorE) #13
  %matches = icmp eq i32 %sel, %20
  br i1 %matches, label %catch, label %ehcleanup32

catch:                                            ; preds = %catch.dispatch
  %exn = load ptr, ptr %exn.slot, align 8
  %21 = call ptr @__cxa_begin_catch(ptr %exn) #13
  store ptr %21, ptr %t, align 8
  store i1 true, ptr %cleanup.isactive22, align 1
  %exception11 = call ptr @__cxa_allocate_exception(i64 16) #13
  %22 = load ptr, ptr %t, align 8
  %vtable = load ptr, ptr %22, align 8
  %vfn = getelementptr inbounds ptr, ptr %vtable, i64 2
  %23 = load ptr, ptr %vfn, align 8
  %call13 = call noundef ptr %23(ptr noundef nonnull align 8 dereferenceable(16) %22) #13
  call void @_ZNSaIcEC1Ev(ptr noundef nonnull align 1 dereferenceable(1) %ref.tmp15) #13
  invoke void @_ZNSt7__cxx1112basic_stringIcSt11char_traitsIcESaIcEEC2IS3_EEPKcRKS3_(ptr noundef nonnull align 8 dereferenceable(32) %ref.tmp14, ptr noundef @.str.39, ptr noundef nonnull align 1 dereferenceable(1) %ref.tmp15)
          to label %invoke.cont17 unwind label %lpad16

invoke.cont17:                                    ; preds = %catch
  invoke void @_ZStplIcSt11char_traitsIcESaIcEENSt7__cxx1112basic_stringIT_T0_T1_EEPKS5_OS8_(ptr sret(%"class.std::__cxx11::basic_string") align 8 %ref.tmp12, ptr noundef %call13, ptr noundef nonnull align 8 dereferenceable(32) %ref.tmp14)
          to label %invoke.cont19 unwind label %lpad18

invoke.cont19:                                    ; preds = %invoke.cont17
  invoke void @_ZN6Assimp4STEP9TypeErrorC1ERKNSt7__cxx1112basic_stringIcSt11char_traitsIcESaIcEEEmm(ptr noundef nonnull align 8 dereferenceable(16) %exception11, ptr noundef nonnull align 8 dereferenceable(32) %ref.tmp12, i64 noundef -1, i64 noundef 1152921504606846975)
          to label %invoke.cont21 unwind label %lpad20

invoke.cont21:                                    ; preds = %invoke.cont19
  store i1 false, ptr %cleanup.isactive22, align 1
  invoke void @__cxa_throw(ptr %exception11, ptr @_ZTIN6Assimp4STEP9TypeErrorE, ptr @_ZN6Assimp4STEP9TypeErrorD2Ev) #14
          to label %unreachable unwind label %lpad20

lpad16:                                           ; preds = %catch
  %24 = landingpad { ptr, i32 }
          cleanup
  %25 = extractvalue { ptr, i32 } %24, 0
  store ptr %25, ptr %exn.slot, align 8
  %26 = extractvalue { ptr, i32 } %24, 1
  store i32 %26, ptr %ehselector.slot, align 4
  br label %ehcleanup25

lpad18:                                           ; preds = %invoke.cont17
  %27 = landingpad { ptr, i32 }
          cleanup
  %28 = extractvalue { ptr, i32 } %27, 0
  store ptr %28, ptr %exn.slot, align 8
  %29 = extractvalue { ptr, i32 } %27, 1
  store i32 %29, ptr %ehselector.slot, align 4
  br label %ehcleanup24

lpad20:                                           ; preds = %invoke.cont21, %invoke.cont19
  %30 = landingpad { ptr, i32 }
          cleanup
  %31 = extractvalue { ptr, i32 } %30, 0
  store ptr %31, ptr %exn.slot, align 8
  %32 = extractvalue { ptr, i32 } %30, 1
  store i32 %32, ptr %ehselector.slot, align 4
  call void @_ZNSt7__cxx1112basic_stringIcSt11char_traitsIcESaIcEED1Ev(ptr noundef nonnull align 8 dereferenceable(32) %ref.tmp12) #13
  br label %ehcleanup24

ehcleanup24:                                      ; preds = %lpad20, %lpad18
  call void @_ZNSt7__cxx1112basic_stringIcSt11char_traitsIcESaIcEED1Ev(ptr noundef nonnull align 8 dereferenceable(32) %ref.tmp14) #13
  br label %ehcleanup25

ehcleanup25:                                      ; preds = %ehcleanup24, %lpad16
  call void @_ZNSaIcED1Ev(ptr noundef nonnull align 1 dereferenceable(1) %ref.tmp15) #13
  %cleanup.is_active27 = load i1, ptr %cleanup.isactive22, align 1
  br i1 %cleanup.is_active27, label %cleanup.action28, label %cleanup.done29

cleanup.action28:                                 ; preds = %ehcleanup25
  call void @__cxa_free_exception(ptr %exception11) #13
  br label %cleanup.done29

cleanup.done29:                                   ; preds = %cleanup.action28, %ehcleanup25
  invoke void @__cxa_end_catch()
          to label %invoke.cont31 unwind label %terminate.lpad

invoke.cont31:                                    ; preds = %cleanup.done29
  br label %ehcleanup32

try.cont:                                         ; No predecessors!
  store i32 0, ptr %cleanup.dest.slot, align 4
  br label %cleanup

cleanup:                                          ; preds = %try.cont, %invoke.cont10, %if.then7
  call void @_ZNSt10shared_ptrIKN6Assimp4STEP7EXPRESS8DataTypeEED2Ev(ptr noundef nonnull align 8 dereferenceable(16) %arg) #13
  %cleanup.dest = load i32, ptr %cleanup.dest.slot, align 4
  switch i32 %cleanup.dest, label %unreachable [
    i32 0, label %cleanup.cont
    i32 2, label %do.end
  ]

cleanup.cont:                                     ; preds = %cleanup
  br label %do.end

do.end:                                           ; preds = %cleanup.cont, %cleanup
  %33 = load i64, ptr %base, align 8
  ret i64 %33

ehcleanup32:                                      ; preds = %invoke.cont31, %catch.dispatch
  call void @_ZNSt10shared_ptrIKN6Assimp4STEP7EXPRESS8DataTypeEED2Ev(ptr noundef nonnull align 8 dereferenceable(16) %arg) #13
  br label %eh.resume

eh.resume:                                        ; preds = %ehcleanup32, %cleanup.done
  %exn33 = load ptr, ptr %exn.slot, align 8
  %sel34 = load i32, ptr %ehselector.slot, align 4
  %lpad.val = insertvalue { ptr, i32 } poison, ptr %exn33, 0
  %lpad.val35 = insertvalue { ptr, i32 } %lpad.val, i32 %sel34, 1
  resume { ptr, i32 } %lpad.val35

terminate.lpad:                                   ; preds = %cleanup.done29
  %34 = landingpad { ptr, i32 }
          catch ptr null
  %35 = extractvalue { ptr, i32 } %34, 0
  call void @__clang_call_terminate(ptr %35) #12
  unreachable

unreachable:                                      ; preds = %cleanup, %invoke.cont21, %invoke.cont4
  unreachable
}

declare noundef i64 @_ZN6Assimp4STEP11GenericFillINS_3IFC10Schema_2x312IfcPlacementEEEmRKNS0_2DBERKNS0_7EXPRESS4LISTEPT_(ptr noundef nonnull align 8 dereferenceable(376), ptr noundef nonnull align 8 dereferenceable(32), ptr noundef) #3

; Function Attrs: mustprogress uwtable
define linkonce_odr hidden void @_ZN6Assimp4STEP14GenericConvertINS0_5MaybeINS0_4LazyINS_3IFC10Schema_2x312IfcDirectionEEEEEEEvRT_RKSt10shared_ptrIKNS0_7EXPRESS8DataTypeEERKNS0_2DBE(ptr noundef nonnull align 8 dereferenceable(9) %a, ptr noundef nonnull align 8 dereferenceable(16) %b, ptr noundef nonnull align 8 dereferenceable(376) %db) #2 comdat {
entry:
  %a.addr = alloca ptr, align 8
  %b.addr = alloca ptr, align 8
  %db.addr = alloca ptr, align 8
  %ref.tmp = alloca %"struct.Assimp::STEP::InternGenericConvert.892", align 1
  store ptr %a, ptr %a.addr, align 8
  store ptr %b, ptr %b.addr, align 8
  store ptr %db, ptr %db.addr, align 8
  %0 = load ptr, ptr %a.addr, align 8
  %1 = load ptr, ptr %b.addr, align 8
  %2 = load ptr, ptr %db.addr, align 8
  call void @_ZN6Assimp4STEP20InternGenericConvertINS0_5MaybeINS0_4LazyINS_3IFC10Schema_2x312IfcDirectionEEEEEEclERS8_RKSt10shared_ptrIKNS0_7EXPRESS8DataTypeEERKNS0_2DBE(ptr noundef nonnull align 1 dereferenceable(1) %ref.tmp, ptr noundef nonnull align 8 dereferenceable(9) %0, ptr noundef nonnull align 8 dereferenceable(16) %1, ptr noundef nonnull align 8 dereferenceable(376) %2)
  ret void
}

; Function Attrs: mustprogress uwtable
define hidden noundef i64 @_ZN6Assimp4STEP11GenericFillINS_3IFC10Schema_2x315IfcSpaceProgramEEEmRKNS0_2DBERKNS0_7EXPRESS4LISTEPT_(ptr noundef nonnull align 8 dereferenceable(376) %db, ptr noundef nonnull align 8 dereferenceable(32) %params, ptr noundef %in) #2 {
entry:
  %db.addr = alloca ptr, align 8
  %params.addr = alloca ptr, align 8
  %in.addr = alloca ptr, align 8
  %base = alloca i64, align 8
  store ptr %db, ptr %db.addr, align 8
  store ptr %params, ptr %params.addr, align 8
  store ptr %in, ptr %in.addr, align 8
  %0 = load ptr, ptr %db.addr, align 8
  %1 = load ptr, ptr %params.addr, align 8
  %2 = load ptr, ptr %in.addr, align 8
  %call = call noundef i64 @_ZN6Assimp4STEP11GenericFillINS_3IFC10Schema_2x310IfcControlEEEmRKNS0_2DBERKNS0_7EXPRESS4LISTEPT_(ptr noundef nonnull align 8 dereferenceable(376) %0, ptr noundef nonnull align 8 dereferenceable(32) %1, ptr noundef %2)
  store i64 %call, ptr %base, align 8
  %3 = load i64, ptr %base, align 8
  ret i64 %3
}

; Function Attrs: mustprogress uwtable
define hidden noundef i64 @_ZN6Assimp4STEP11GenericFillINS_3IFC10Schema_2x38IfcPointEEEmRKNS0_2DBERKNS0_7EXPRESS4LISTEPT_(ptr noundef nonnull align 8 dereferenceable(376) %db, ptr noundef nonnull align 8 dereferenceable(32) %params, ptr noundef %in) #2 {
entry:
  %db.addr = alloca ptr, align 8
  %params.addr = alloca ptr, align 8
  %in.addr = alloca ptr, align 8
  %base = alloca i64, align 8
  store ptr %db, ptr %db.addr, align 8
  store ptr %params, ptr %params.addr, align 8
  store ptr %in, ptr %in.addr, align 8
  %0 = load ptr, ptr %db.addr, align 8
  %1 = load ptr, ptr %params.addr, align 8
  %2 = load ptr, ptr %in.addr, align 8
  %call = call noundef i64 @_ZN6Assimp4STEP11GenericFillINS_3IFC10Schema_2x330IfcGeometricRepresentationItemEEEmRKNS0_2DBERKNS0_7EXPRESS4LISTEPT_(ptr noundef nonnull align 8 dereferenceable(376) %0, ptr noundef nonnull align 8 dereferenceable(32) %1, ptr noundef %2)
  store i64 %call, ptr %base, align 8
  %3 = load i64, ptr %base, align 8
  ret i64 %3
}

; Function Attrs: mustprogress uwtable
define hidden noundef i64 @_ZN6Assimp4STEP11GenericFillINS_3IFC10Schema_2x317IfcCartesianPointEEEmRKNS0_2DBERKNS0_7EXPRESS4LISTEPT_(ptr noundef nonnull align 8 dereferenceable(376) %db, ptr noundef nonnull align 8 dereferenceable(32) %params, ptr noundef %in) #2 personality ptr @__gxx_personality_v0 {
entry:
  %db.addr = alloca ptr, align 8
  %params.addr = alloca ptr, align 8
  %in.addr = alloca ptr, align 8
  %base = alloca i64, align 8
  %ref.tmp = alloca %"class.std::__cxx11::basic_string", align 8
  %ref.tmp2 = alloca %"class.std::allocator", align 1
  %exn.slot = alloca ptr, align 8
  %ehselector.slot = alloca i32, align 4
  %cleanup.isactive = alloca i1, align 1
  %arg = alloca %"class.std::shared_ptr.29", align 8
  %cleanup.dest.slot = alloca i32, align 4
  %t = alloca ptr, align 8
  %ref.tmp9 = alloca %"class.std::__cxx11::basic_string", align 8
  %ref.tmp11 = alloca %"class.std::__cxx11::basic_string", align 8
  %ref.tmp12 = alloca %"class.std::allocator", align 1
  %cleanup.isactive19 = alloca i1, align 1
  store ptr %db, ptr %db.addr, align 8
  store ptr %params, ptr %params.addr, align 8
  store ptr %in, ptr %in.addr, align 8
  %0 = load ptr, ptr %db.addr, align 8
  %1 = load ptr, ptr %params.addr, align 8
  %2 = load ptr, ptr %in.addr, align 8
  %call = call noundef i64 @_ZN6Assimp4STEP11GenericFillINS_3IFC10Schema_2x38IfcPointEEEmRKNS0_2DBERKNS0_7EXPRESS4LISTEPT_(ptr noundef nonnull align 8 dereferenceable(376) %0, ptr noundef nonnull align 8 dereferenceable(32) %1, ptr noundef %2)
  store i64 %call, ptr %base, align 8
  %3 = load ptr, ptr %params.addr, align 8
  %call1 = call noundef i64 @_ZNK6Assimp4STEP7EXPRESS4LIST7GetSizeEv(ptr noundef nonnull align 8 dereferenceable(32) %3)
  %cmp = icmp ult i64 %call1, 1
  br i1 %cmp, label %if.then, label %if.end

if.then:                                          ; preds = %entry
  store i1 true, ptr %cleanup.isactive, align 1
  %exception = call ptr @__cxa_allocate_exception(i64 16) #13
  call void @_ZNSaIcEC1Ev(ptr noundef nonnull align 1 dereferenceable(1) %ref.tmp2) #13
  invoke void @_ZNSt7__cxx1112basic_stringIcSt11char_traitsIcESaIcEEC2IS3_EEPKcRKS3_(ptr noundef nonnull align 8 dereferenceable(32) %ref.tmp, ptr noundef @.str.40, ptr noundef nonnull align 1 dereferenceable(1) %ref.tmp2)
          to label %invoke.cont unwind label %lpad

invoke.cont:                                      ; preds = %if.then
  invoke void @_ZN6Assimp4STEP9TypeErrorC1ERKNSt7__cxx1112basic_stringIcSt11char_traitsIcESaIcEEEmm(ptr noundef nonnull align 8 dereferenceable(16) %exception, ptr noundef nonnull align 8 dereferenceable(32) %ref.tmp, i64 noundef -1, i64 noundef 1152921504606846975)
          to label %invoke.cont4 unwind label %lpad3

invoke.cont4:                                     ; preds = %invoke.cont
  store i1 false, ptr %cleanup.isactive, align 1
  invoke void @__cxa_throw(ptr %exception, ptr @_ZTIN6Assimp4STEP9TypeErrorE, ptr @_ZN6Assimp4STEP9TypeErrorD2Ev) #14
          to label %unreachable unwind label %lpad3

lpad:                                             ; preds = %if.then
  %4 = landingpad { ptr, i32 }
          cleanup
  %5 = extractvalue { ptr, i32 } %4, 0
  store ptr %5, ptr %exn.slot, align 8
  %6 = extractvalue { ptr, i32 } %4, 1
  store i32 %6, ptr %ehselector.slot, align 4
  br label %ehcleanup

lpad3:                                            ; preds = %invoke.cont4, %invoke.cont
  %7 = landingpad { ptr, i32 }
          cleanup
  %8 = extractvalue { ptr, i32 } %7, 0
  store ptr %8, ptr %exn.slot, align 8
  %9 = extractvalue { ptr, i32 } %7, 1
  store i32 %9, ptr %ehselector.slot, align 4
  call void @_ZNSt7__cxx1112basic_stringIcSt11char_traitsIcESaIcEED1Ev(ptr noundef nonnull align 8 dereferenceable(32) %ref.tmp) #13
  br label %ehcleanup

ehcleanup:                                        ; preds = %lpad3, %lpad
  call void @_ZNSaIcED1Ev(ptr noundef nonnull align 1 dereferenceable(1) %ref.tmp2) #13
  %cleanup.is_active = load i1, ptr %cleanup.isactive, align 1
