target datalayout = "e-m:e-p270:32:32-p271:32:32-p272:64:64-i64:64-i128:128-f80:128-n8:16:32:64-S128"
target triple = "x86_64-unknown-linux-gnu"

%"class.Assimp::MD5::MD5Parser" = type { %"class.std::vector", ptr, ptr, i32, i32 }
%"class.std::vector" = type { %"struct.std::_Vector_base" }
%"struct.std::_Vector_base" = type { %"struct.std::_Vector_base<Assimp::MD5::Section, std::allocator<Assimp::MD5::Section>>::_Vector_impl" }
%"struct.std::_Vector_base<Assimp::MD5::Section, std::allocator<Assimp::MD5::Section>>::_Vector_impl" = type { %"struct.std::_Vector_base<Assimp::MD5::Section, std::allocator<Assimp::MD5::Section>>::_Vector_impl_data" }
%"struct.std::_Vector_base<Assimp::MD5::Section, std::allocator<Assimp::MD5::Section>>::_Vector_impl_data" = type { ptr, ptr, ptr }
%"class.std::__cxx11::basic_string" = type { %"struct.std::__cxx11::basic_string<char>::_Alloc_hider", i64, %union.anon }
%"struct.std::__cxx11::basic_string<char>::_Alloc_hider" = type { ptr }
%union.anon = type { i64, [8 x i8] }
%"class.std::allocator.5" = type { i8 }
%"class.__gnu_cxx::__normal_iterator.19" = type { ptr }
%"struct.Assimp::MD5::Section" = type { i32, %"class.std::vector.0", %"class.std::__cxx11::basic_string", %"class.std::__cxx11::basic_string" }
%"class.std::vector.0" = type { %"struct.std::_Vector_base.1" }
%"struct.std::_Vector_base.1" = type { %"struct.std::_Vector_base<Assimp::MD5::Element, std::allocator<Assimp::MD5::Element>>::_Vector_impl" }
%"struct.std::_Vector_base<Assimp::MD5::Element, std::allocator<Assimp::MD5::Element>>::_Vector_impl" = type { %"struct.std::_Vector_base<Assimp::MD5::Element, std::allocator<Assimp::MD5::Element>>::_Vector_impl_data" }
%"struct.std::_Vector_base<Assimp::MD5::Element, std::allocator<Assimp::MD5::Element>>::_Vector_impl_data" = type { ptr, ptr, ptr }
%"struct.Assimp::MD5::Element" = type { ptr, i32 }
%"class.Assimp::Formatter::basic_formatter" = type { %"class.std::__cxx11::basic_ostringstream" }
%"class.std::__cxx11::basic_ostringstream" = type { %"class.std::basic_ostream.base", %"class.std::__cxx11::basic_stringbuf", %"class.std::basic_ios" }
%"class.std::basic_ostream.base" = type { ptr }
%"class.std::__cxx11::basic_stringbuf" = type { %"class.std::basic_streambuf", i32, %"class.std::__cxx11::basic_string" }
%"class.std::basic_streambuf" = type { ptr, ptr, ptr, ptr, ptr, ptr, ptr, %"class.std::locale" }
%"class.std::locale" = type { ptr }
%"class.std::basic_ios" = type { %"class.std::ios_base", ptr, i8, i8, ptr, ptr, ptr, ptr }
%"class.std::ios_base" = type { ptr, i64, i64, i32, i32, i32, ptr, %"struct.std::ios_base::_Words", [8 x %"struct.std::ios_base::_Words"], i32, ptr, %"class.std::locale" }
%"struct.std::ios_base::_Words" = type { ptr, i64 }
%"class.__gnu_cxx::__normal_iterator.66" = type { ptr }
%"class.__gnu_cxx::__normal_iterator" = type { ptr }
%"class.__gnu_cxx::__normal_iterator.20" = type { ptr }
%"class.Assimp::MD5::MD5MeshParser" = type { %"class.std::vector.9", %"class.std::vector.14" }
%"class.std::vector.9" = type { %"struct.std::_Vector_base.10" }
%"struct.std::_Vector_base.10" = type { %"struct.std::_Vector_base<Assimp::MD5::MeshDesc, std::allocator<Assimp::MD5::MeshDesc>>::_Vector_impl" }
%"struct.std::_Vector_base<Assimp::MD5::MeshDesc, std::allocator<Assimp::MD5::MeshDesc>>::_Vector_impl" = type { %"struct.std::_Vector_base<Assimp::MD5::MeshDesc, std::allocator<Assimp::MD5::MeshDesc>>::_Vector_impl_data" }
%"struct.std::_Vector_base<Assimp::MD5::MeshDesc, std::allocator<Assimp::MD5::MeshDesc>>::_Vector_impl_data" = type { ptr, ptr, ptr }
%"class.std::vector.14" = type { %"struct.std::_Vector_base.15" }
%"struct.std::_Vector_base.15" = type { %"struct.std::_Vector_base<Assimp::MD5::BoneDesc, std::allocator<Assimp::MD5::BoneDesc>>::_Vector_impl" }
%"struct.std::_Vector_base<Assimp::MD5::BoneDesc, std::allocator<Assimp::MD5::BoneDesc>>::_Vector_impl" = type { %"struct.std::_Vector_base<Assimp::MD5::BoneDesc, std::allocator<Assimp::MD5::BoneDesc>>::_Vector_impl_data" }
%"struct.std::_Vector_base<Assimp::MD5::BoneDesc, std::allocator<Assimp::MD5::BoneDesc>>::_Vector_impl_data" = type { ptr, ptr, ptr }
%"struct.Assimp::MD5::BaseJointDescription" = type { %struct.aiString, i32 }
%struct.aiString = type { i32, [1024 x i8] }
%"struct.Assimp::MD5::BoneDesc" = type { %"struct.Assimp::MD5::BaseJointDescription", %class.aiVector3t, %class.aiVector3t, %class.aiQuaterniont, %class.aiMatrix4x4t, %class.aiMatrix4x4t, i32 }
%class.aiVector3t = type { float, float, float }
%class.aiQuaterniont = type { float, float, float, float }
%class.aiMatrix4x4t = type { float, float, float, float, float, float, float, float, float, float, float, float, float, float, float, float }
%"struct.Assimp::MD5::MeshDesc" = type <{ %"class.std::vector.21", %"class.std::vector.26", %"class.std::vector.31", %struct.aiString, [4 x i8] }>
%"class.std::vector.21" = type { %"struct.std::_Vector_base.22" }
%"struct.std::_Vector_base.22" = type { %"struct.std::_Vector_base<Assimp::MD5::WeightDesc, std::allocator<Assimp::MD5::WeightDesc>>::_Vector_impl" }
%"struct.std::_Vector_base<Assimp::MD5::WeightDesc, std::allocator<Assimp::MD5::WeightDesc>>::_Vector_impl" = type { %"struct.std::_Vector_base<Assimp::MD5::WeightDesc, std::allocator<Assimp::MD5::WeightDesc>>::_Vector_impl_data" }
%"struct.std::_Vector_base<Assimp::MD5::WeightDesc, std::allocator<Assimp::MD5::WeightDesc>>::_Vector_impl_data" = type { ptr, ptr, ptr }
%"class.std::vector.26" = type { %"struct.std::_Vector_base.27" }
%"struct.std::_Vector_base.27" = type { %"struct.std::_Vector_base<Assimp::MD5::VertexDesc, std::allocator<Assimp::MD5::VertexDesc>>::_Vector_impl" }
%"struct.std::_Vector_base<Assimp::MD5::VertexDesc, std::allocator<Assimp::MD5::VertexDesc>>::_Vector_impl" = type { %"struct.std::_Vector_base<Assimp::MD5::VertexDesc, std::allocator<Assimp::MD5::VertexDesc>>::_Vector_impl_data" }
%"struct.std::_Vector_base<Assimp::MD5::VertexDesc, std::allocator<Assimp::MD5::VertexDesc>>::_Vector_impl_data" = type { ptr, ptr, ptr }
%"class.std::vector.31" = type { %"struct.std::_Vector_base.32" }
%"struct.std::_Vector_base.32" = type { %"struct.std::_Vector_base<aiFace, std::allocator<aiFace>>::_Vector_impl" }
%"struct.std::_Vector_base<aiFace, std::allocator<aiFace>>::_Vector_impl" = type { %"struct.std::_Vector_base<aiFace, std::allocator<aiFace>>::_Vector_impl_data" }
%"struct.std::_Vector_base<aiFace, std::allocator<aiFace>>::_Vector_impl_data" = type { ptr, ptr, ptr }
%"struct.Assimp::MD5::VertexDesc" = type { %class.aiVector2t, i32, i32 }
%class.aiVector2t = type { float, float }
%struct.aiFace = type { i32, ptr }
%"struct.Assimp::MD5::WeightDesc" = type { i32, float, %class.aiVector3t }
%"class.__gnu_cxx::__normal_iterator.70" = type { ptr }
%"class.__gnu_cxx::__normal_iterator.72" = type { ptr }
%"class.Assimp::MD5::MD5AnimParser" = type <{ float, [4 x i8], %"class.std::vector.36", %"class.std::vector.41", %"class.std::vector.46", i32, [4 x i8] }>
%"class.std::vector.36" = type { %"struct.std::_Vector_base.37" }
%"struct.std::_Vector_base.37" = type { %"struct.std::_Vector_base<Assimp::MD5::AnimBoneDesc, std::allocator<Assimp::MD5::AnimBoneDesc>>::_Vector_impl" }
%"struct.std::_Vector_base<Assimp::MD5::AnimBoneDesc, std::allocator<Assimp::MD5::AnimBoneDesc>>::_Vector_impl" = type { %"struct.std::_Vector_base<Assimp::MD5::AnimBoneDesc, std::allocator<Assimp::MD5::AnimBoneDesc>>::_Vector_impl_data" }
%"struct.std::_Vector_base<Assimp::MD5::AnimBoneDesc, std::allocator<Assimp::MD5::AnimBoneDesc>>::_Vector_impl_data" = type { ptr, ptr, ptr }
%"class.std::vector.41" = type { %"struct.std::_Vector_base.42" }
%"struct.std::_Vector_base.42" = type { %"struct.std::_Vector_base<Assimp::MD5::BaseFrameDesc, std::allocator<Assimp::MD5::BaseFrameDesc>>::_Vector_impl" }
%"struct.std::_Vector_base<Assimp::MD5::BaseFrameDesc, std::allocator<Assimp::MD5::BaseFrameDesc>>::_Vector_impl" = type { %"struct.std::_Vector_base<Assimp::MD5::BaseFrameDesc, std::allocator<Assimp::MD5::BaseFrameDesc>>::_Vector_impl_data" }
%"struct.std::_Vector_base<Assimp::MD5::BaseFrameDesc, std::allocator<Assimp::MD5::BaseFrameDesc>>::_Vector_impl_data" = type { ptr, ptr, ptr }
%"class.std::vector.46" = type { %"struct.std::_Vector_base.47" }
%"struct.std::_Vector_base.47" = type { %"struct.std::_Vector_base<Assimp::MD5::FrameDesc, std::allocator<Assimp::MD5::FrameDesc>>::_Vector_impl" }
%"struct.std::_Vector_base<Assimp::MD5::FrameDesc, std::allocator<Assimp::MD5::FrameDesc>>::_Vector_impl" = type { %"struct.std::_Vector_base<Assimp::MD5::FrameDesc, std::allocator<Assimp::MD5::FrameDesc>>::_Vector_impl_data" }
%"struct.std::_Vector_base<Assimp::MD5::FrameDesc, std::allocator<Assimp::MD5::FrameDesc>>::_Vector_impl_data" = type { ptr, ptr, ptr }
%"struct.Assimp::MD5::AnimBoneDesc" = type { %"struct.Assimp::MD5::BaseJointDescription", i32, i32 }
%"struct.Assimp::MD5::BaseFrameDesc" = type { %class.aiVector3t, %class.aiVector3t }
%"struct.Assimp::MD5::FrameDesc" = type { i32, %"class.std::vector.51" }
%"class.std::vector.51" = type { %"struct.std::_Vector_base.52" }
%"struct.std::_Vector_base.52" = type { %"struct.std::_Vector_base<float, std::allocator<float>>::_Vector_impl" }
%"struct.std::_Vector_base<float, std::allocator<float>>::_Vector_impl" = type { %"struct.std::_Vector_base<float, std::allocator<float>>::_Vector_impl_data" }
%"struct.std::_Vector_base<float, std::allocator<float>>::_Vector_impl_data" = type { ptr, ptr, ptr }
%"class.__gnu_cxx::__normal_iterator.73" = type { ptr }
%"class.__gnu_cxx::__normal_iterator.74" = type { ptr }
%"class.__gnu_cxx::__normal_iterator.75" = type { ptr }
%"class.__gnu_cxx::__normal_iterator.76" = type { ptr }
%"class.Assimp::MD5::MD5CameraParser" = type { float, %"class.std::vector.56", %"class.std::vector.61" }
%"class.std::vector.56" = type { %"struct.std::_Vector_base.57" }
%"struct.std::_Vector_base.57" = type { %"struct.std::_Vector_base<unsigned int, std::allocator<unsigned int>>::_Vector_impl" }
%"struct.std::_Vector_base<unsigned int, std::allocator<unsigned int>>::_Vector_impl" = type { %"struct.std::_Vector_base<unsigned int, std::allocator<unsigned int>>::_Vector_impl_data" }
%"struct.std::_Vector_base<unsigned int, std::allocator<unsigned int>>::_Vector_impl_data" = type { ptr, ptr, ptr }
%"class.std::vector.61" = type { %"struct.std::_Vector_base.62" }
%"struct.std::_Vector_base.62" = type { %"struct.std::_Vector_base<Assimp::MD5::CameraAnimFrameDesc, std::allocator<Assimp::MD5::CameraAnimFrameDesc>>::_Vector_impl" }
%"struct.std::_Vector_base<Assimp::MD5::CameraAnimFrameDesc, std::allocator<Assimp::MD5::CameraAnimFrameDesc>>::_Vector_impl" = type { %"struct.std::_Vector_base<Assimp::MD5::CameraAnimFrameDesc, std::allocator<Assimp::MD5::CameraAnimFrameDesc>>::_Vector_impl_data" }
%"struct.std::_Vector_base<Assimp::MD5::CameraAnimFrameDesc, std::allocator<Assimp::MD5::CameraAnimFrameDesc>>::_Vector_impl_data" = type { ptr, ptr, ptr }
%"struct.Assimp::MD5::CameraAnimFrameDesc" = type { %"struct.Assimp::MD5::BaseFrameDesc", float }
%"class.__gnu_cxx::__normal_iterator.78" = type { ptr }
%"class.std::allocator.23" = type { i8 }
%"class.__gnu_cxx::__normal_iterator.67" = type { ptr }
%"class.std::allocator.28" = type { i8 }
%"class.__gnu_cxx::__normal_iterator.68" = type { ptr }
%"class.std::allocator.33" = type { i8 }
%"class.__gnu_cxx::__normal_iterator.69" = type { ptr }
%"class.__gnu_cxx::__normal_iterator.71" = type { ptr }
%class.anon = type { i8 }
%"class.__gnu_cxx::__normal_iterator.77" = type { ptr }

$_ZN6Assimp8IOStreamD0Ev = comdat any

$_ZN6Assimp9LogStreamD0Ev = comdat any

$_ZN6Assimp6LoggerD0Ev = comdat any

$_ZNSt6vectorIN6Assimp3MD57SectionESaIS2_EEC2Ev = comdat any

$_ZNSt6vectorIN6Assimp3MD57SectionESaIS2_EE12emplace_backIJEEERS2_DpOT_ = comdat any

$_ZNSt6vectorIN6Assimp3MD57SectionESaIS2_EE4backEv = comdat any

$_ZNKSt6vectorIN6Assimp3MD57SectionESaIS2_EE4sizeEv = comdat any

$_ZN6Assimp6Logger5debugIJRA128_cEEEvDpOT_ = comdat any

$_ZNSt6vectorIN6Assimp3MD57SectionESaIS2_EED2Ev = comdat any

$_ZN17DeadlyImportErrorC2IJRA1024_cEEEDpOT_ = comdat any

$_ZN17DeadlyImportErrorD2Ev = comdat any

$_ZN6Assimp6Logger4warnIJRA1024_cEEEvDpOT_ = comdat any

$_ZN6Assimp3MD59MD5Parser10SkipSpacesEv = comdat any

$_ZN6Assimp10TokenMatchIcEEbRPT_PKcj = comdat any

$_ZN6Assimp3MD59MD5Parser11ReportErrorEPKc = comdat any

$_ZN6Assimp9strtoul10EPKcPS1_ = comdat any

$_ZN6Assimp3MD59MD5Parser8SkipLineEv = comdat any

$_ZN6Assimp9IsLineEndIcEEbT_ = comdat any

$_ZN6Assimp6Logger4infoIJNSt7__cxx1112basic_stringIcSt11char_traitsIcESaIcEEEEEEvDpOT_ = comdat any

$_ZSt3minImERKT_S2_S2_ = comdat any

$_ZN6Assimp3MD59MD5Parser20SkipSpacesAndLineEndEv = comdat any

$_ZN6Assimp16IsSpaceOrNewLineIcEEbT_ = comdat any

$_ZN6Assimp7IsSpaceIcEEbT_ = comdat any

$_ZNSt6vectorIN6Assimp3MD57ElementESaIS2_EE12emplace_backIJEEERS2_DpOT_ = comdat any

$_ZNSt6vectorIN6Assimp3MD57ElementESaIS2_EE4backEv = comdat any

$_ZNSt6vectorIN6Assimp3MD58MeshDescESaIS2_EEC2Ev = comdat any

$_ZNSt6vectorIN6Assimp3MD58BoneDescESaIS2_EEC2Ev = comdat any

$_ZNSt6vectorIN6Assimp3MD57SectionESaIS2_EE5beginEv = comdat any

$_ZN9__gnu_cxx17__normal_iteratorIPKN6Assimp3MD57SectionESt6vectorIS3_SaIS3_EEEC2IPS3_vEERKNS0_IT_S8_EE = comdat any

$_ZNSt6vectorIN6Assimp3MD57SectionESaIS2_EE3endEv = comdat any

$_ZN9__gnu_cxxneIPKN6Assimp3MD57SectionESt6vectorIS3_SaIS3_EEEEbRKNS_17__normal_iteratorIT_T0_EESE_ = comdat any

$_ZSteqIcSt11char_traitsIcESaIcEEbRKNSt7__cxx1112basic_stringIT_T0_T1_EEPKS5_ = comdat any

$_ZNK9__gnu_cxx17__normal_iteratorIPKN6Assimp3MD57SectionESt6vectorIS3_SaIS3_EEEdeEv = comdat any

$_ZNSt6vectorIN6Assimp3MD58MeshDescESaIS2_EE7reserveEm = comdat any

$_ZNSt6vectorIN6Assimp3MD58BoneDescESaIS2_EE7reserveEm = comdat any

$_ZNKSt6vectorIN6Assimp3MD57ElementESaIS2_EE5beginEv = comdat any

$_ZNKSt6vectorIN6Assimp3MD57ElementESaIS2_EE3endEv = comdat any

$_ZN9__gnu_cxxneIPKN6Assimp3MD57ElementESt6vectorIS3_SaIS3_EEEEbRKNS_17__normal_iteratorIT_T0_EESE_ = comdat any

$_ZNK9__gnu_cxx17__normal_iteratorIPKN6Assimp3MD57ElementESt6vectorIS3_SaIS3_EEEdeEv = comdat any

$_ZNSt6vectorIN6Assimp3MD58BoneDescESaIS2_EE12emplace_backIJEEERS2_DpOT_ = comdat any

$_ZNSt6vectorIN6Assimp3MD58BoneDescESaIS2_EE4backEv = comdat any

$_ZN6Assimp10SkipSpacesIcEEbPPKT_ = comdat any

$_ZN6Assimp8strtol10EPKcPS1_ = comdat any

$_ZN6Assimp17fast_atoreal_moveIf17DeadlyImportErrorEEPKcS3_RT_b = comdat any

$_ZN9__gnu_cxx17__normal_iteratorIPKN6Assimp3MD57ElementESt6vectorIS3_SaIS3_EEEppEv = comdat any

$_ZNSt6vectorIN6Assimp3MD58MeshDescESaIS2_EE12emplace_backIJEEERS2_DpOT_ = comdat any

$_ZNSt6vectorIN6Assimp3MD58MeshDescESaIS2_EE4backEv = comdat any

$_ZN6Assimp10TokenMatchIKcEEbRPT_PS1_j = comdat any

$_ZNSt6vectorIN6Assimp3MD510VertexDescESaIS2_EE6resizeEm = comdat any

$_ZNSt6vectorI6aiFaceSaIS0_EE6resizeEm = comdat any

$_ZNSt6vectorIN6Assimp3MD510WeightDescESaIS2_EE6resizeEm = comdat any

$_ZNKSt6vectorIN6Assimp3MD510VertexDescESaIS2_EE4sizeEv = comdat any

$_ZNSt6vectorIN6Assimp3MD510VertexDescESaIS2_EEixEm = comdat any

$_ZNKSt6vectorI6aiFaceSaIS0_EE4sizeEv = comdat any

$_ZNSt6vectorI6aiFaceSaIS0_EEixEm = comdat any

$_ZNKSt6vectorIN6Assimp3MD510WeightDescESaIS2_EE4sizeEv = comdat any

$_ZNSt6vectorIN6Assimp3MD510WeightDescESaIS2_EEixEm = comdat any

$_ZN9__gnu_cxx17__normal_iteratorIPKN6Assimp3MD57SectionESt6vectorIS3_SaIS3_EEEppEv = comdat any

$_ZNSt6vectorIN6Assimp3MD58BoneDescESaIS2_EED2Ev = comdat any

$_ZNSt6vectorIN6Assimp3MD58MeshDescESaIS2_EED2Ev = comdat any

$_ZNSt6vectorIN6Assimp3MD512AnimBoneDescESaIS2_EEC2Ev = comdat any

$_ZNSt6vectorIN6Assimp3MD513BaseFrameDescESaIS2_EEC2Ev = comdat any

$_ZNSt6vectorIN6Assimp3MD59FrameDescESaIS2_EEC2Ev = comdat any

$_ZNSt6vectorIN6Assimp3MD512AnimBoneDescESaIS2_EE12emplace_backIJEEERS2_DpOT_ = comdat any

$_ZNSt6vectorIN6Assimp3MD512AnimBoneDescESaIS2_EE4backEv = comdat any

$_ZNSt6vectorIN6Assimp3MD513BaseFrameDescESaIS2_EE12emplace_backIJEEERS2_DpOT_ = comdat any

$_ZNSt6vectorIN6Assimp3MD513BaseFrameDescESaIS2_EE4backEv = comdat any

$_ZNSt6vectorIN6Assimp3MD59FrameDescESaIS2_EE12emplace_backIJEEERS2_DpOT_ = comdat any

$_ZNSt6vectorIN6Assimp3MD59FrameDescESaIS2_EE4backEv = comdat any

$_ZNSt6vectorIfSaIfEE7reserveEm = comdat any

$_ZN6Assimp20SkipSpacesAndLineEndIcEEbPPKT_ = comdat any

$_ZNSt6vectorIfSaIfEE9push_backERKf = comdat any

$_ZNSt6vectorIN6Assimp3MD59FrameDescESaIS2_EE7reserveEm = comdat any

$_ZNSt6vectorIN6Assimp3MD512AnimBoneDescESaIS2_EE7reserveEm = comdat any

$_ZNSt6vectorIN6Assimp3MD59FrameDescESaIS2_EED2Ev = comdat any

$_ZNSt6vectorIN6Assimp3MD513BaseFrameDescESaIS2_EED2Ev = comdat any

$_ZNSt6vectorIN6Assimp3MD512AnimBoneDescESaIS2_EED2Ev = comdat any

$_ZNSt6vectorIjSaIjEEC2Ev = comdat any

$_ZNSt6vectorIN6Assimp3MD519CameraAnimFrameDescESaIS2_EEC2Ev = comdat any

$_ZNSt6vectorIN6Assimp3MD519CameraAnimFrameDescESaIS2_EE7reserveEm = comdat any

$_ZN6Assimp9fast_atofI17DeadlyImportErrorEEfPKc = comdat any

$_ZNSt6vectorIjSaIjEE7reserveEm = comdat any

$_ZNSt6vectorIjSaIjEE9push_backEOj = comdat any

$_ZNSt6vectorIN6Assimp3MD519CameraAnimFrameDescESaIS2_EE12emplace_backIJEEERS2_DpOT_ = comdat any

$_ZNSt6vectorIN6Assimp3MD519CameraAnimFrameDescESaIS2_EE4backEv = comdat any

$_ZNSt6vectorIN6Assimp3MD519CameraAnimFrameDescESaIS2_EED2Ev = comdat any

$_ZNSt6vectorIjSaIjEED2Ev = comdat any

$_ZN6Assimp8IOStreamD2Ev = comdat any

$_ZN6Assimp9LogStreamD2Ev = comdat any

$_ZN6Assimp6LoggerD2Ev = comdat any

$_ZNSt12_Vector_baseIN6Assimp3MD57SectionESaIS2_EEC2Ev = comdat any

$_ZNSt12_Vector_baseIN6Assimp3MD57SectionESaIS2_EE12_Vector_implC2Ev = comdat any

$_ZNSaIN6Assimp3MD57SectionEEC2Ev = comdat any

$_ZNSt12_Vector_baseIN6Assimp3MD57SectionESaIS2_EE17_Vector_impl_dataC2Ev = comdat any

$_ZNSt15__new_allocatorIN6Assimp3MD57SectionEEC2Ev = comdat any

$_ZN15DeadlyErrorBaseD2Ev = comdat any

$_ZN6Assimp3MD59MD5Parser8SkipLineEPKcPS3_ = comdat any

$_ZN6Assimp8SkipLineIcEEbPKT_PS3_ = comdat any

$_ZN6Assimp3MD59MD5Parser20SkipSpacesAndLineEndEPKcPS3_ = comdat any

$_ZNSt12_Vector_baseIN6Assimp3MD58MeshDescESaIS2_EEC2Ev = comdat any

$_ZNSt12_Vector_baseIN6Assimp3MD58MeshDescESaIS2_EE12_Vector_implC2Ev = comdat any

$_ZNSaIN6Assimp3MD58MeshDescEEC2Ev = comdat any

$_ZNSt12_Vector_baseIN6Assimp3MD58MeshDescESaIS2_EE17_Vector_impl_dataC2Ev = comdat any

$_ZNSt15__new_allocatorIN6Assimp3MD58MeshDescEEC2Ev = comdat any

$_ZNSt12_Vector_baseIN6Assimp3MD58BoneDescESaIS2_EEC2Ev = comdat any

$_ZNSt12_Vector_baseIN6Assimp3MD58BoneDescESaIS2_EE12_Vector_implC2Ev = comdat any

$_ZNSaIN6Assimp3MD58BoneDescEEC2Ev = comdat any

$_ZNSt12_Vector_baseIN6Assimp3MD58BoneDescESaIS2_EE17_Vector_impl_dataC2Ev = comdat any

$_ZNSt15__new_allocatorIN6Assimp3MD58BoneDescEEC2Ev = comdat any

$_ZN6Assimp6Logger4warnIJRA24_KcRPS2_RA47_S2_EEEvDpOT_ = comdat any

$_ZN6Assimp6Logger13formatMessageIJRA47_KcERPS2_EENSt7__cxx1112basic_stringIcSt11char_traitsIcESaIcEEENS_9Formatter15basic_formatterIcSA_SB_EEOT0_DpOT_ = comdat any

$_ZN6Assimp9Formatter15basic_formatterIcSt11char_traitsIcESaIcEEC2IA24_cEERKT_ = comdat any

$_ZN6Assimp9Formatter15basic_formatterIcSt11char_traitsIcESaIcEED2Ev = comdat any

$_ZN6Assimp6Logger13formatMessageIJERA47_KcEENSt7__cxx1112basic_stringIcSt11char_traitsIcESaIcEEENS_9Formatter15basic_formatterIcS8_S9_EEOT0_DpOT_ = comdat any

$_ZN6Assimp9Formatter15basic_formatterIcSt11char_traitsIcESaIcEElsIPKcTnPNSt9enable_ifIXntsr3std10is_base_ofISt9exceptionT_EE5valueEvE4typeELPv0EEERS5_RKSB_ = comdat any

$_ZN6Assimp9Formatter15basic_formatterIcSt11char_traitsIcESaIcEEC2EOS5_ = comdat any

$_ZN6Assimp6Logger13formatMessageB5cxx11ENS_9Formatter15basic_formatterIcSt11char_traitsIcESaIcEEE = comdat any

$_ZN6Assimp9Formatter15basic_formatterIcSt11char_traitsIcESaIcEElsIA47_cTnPNSt9enable_ifIXntsr3std10is_base_ofISt9exceptionT_EE5valueEvE4typeELPv0EEERS5_RKSA_ = comdat any

$_ZNK6Assimp9Formatter15basic_formatterIcSt11char_traitsIcESaIcEEcvNSt7__cxx1112basic_stringIcS3_S4_EEEv = comdat any

$_ZNSt12_Vector_baseIN6Assimp3MD512AnimBoneDescESaIS2_EEC2Ev = comdat any

$_ZNSt12_Vector_baseIN6Assimp3MD512AnimBoneDescESaIS2_EE12_Vector_implC2Ev = comdat any

$_ZNSaIN6Assimp3MD512AnimBoneDescEEC2Ev = comdat any

$_ZNSt12_Vector_baseIN6Assimp3MD512AnimBoneDescESaIS2_EE17_Vector_impl_dataC2Ev = comdat any

$_ZNSt15__new_allocatorIN6Assimp3MD512AnimBoneDescEEC2Ev = comdat any

$_ZNSt12_Vector_baseIN6Assimp3MD513BaseFrameDescESaIS2_EEC2Ev = comdat any

$_ZNSt12_Vector_baseIN6Assimp3MD513BaseFrameDescESaIS2_EE12_Vector_implC2Ev = comdat any

$_ZNSaIN6Assimp3MD513BaseFrameDescEEC2Ev = comdat any

$_ZNSt12_Vector_baseIN6Assimp3MD513BaseFrameDescESaIS2_EE17_Vector_impl_dataC2Ev = comdat any

$_ZNSt15__new_allocatorIN6Assimp3MD513BaseFrameDescEEC2Ev = comdat any

$_ZNSt12_Vector_baseIN6Assimp3MD59FrameDescESaIS2_EEC2Ev = comdat any

$_ZNSt12_Vector_baseIN6Assimp3MD59FrameDescESaIS2_EE12_Vector_implC2Ev = comdat any

$_ZNSaIN6Assimp3MD59FrameDescEEC2Ev = comdat any

$_ZNSt12_Vector_baseIN6Assimp3MD59FrameDescESaIS2_EE17_Vector_impl_dataC2Ev = comdat any

$_ZNSt15__new_allocatorIN6Assimp3MD59FrameDescEEC2Ev = comdat any

$_ZNSt12_Vector_baseIjSaIjEEC2Ev = comdat any

$_ZNSt12_Vector_baseIjSaIjEE12_Vector_implC2Ev = comdat any

$_ZNSaIjEC2Ev = comdat any

$_ZNSt12_Vector_baseIjSaIjEE17_Vector_impl_dataC2Ev = comdat any

$_ZNSt15__new_allocatorIjEC2Ev = comdat any

$_ZNSt12_Vector_baseIN6Assimp3MD519CameraAnimFrameDescESaIS2_EEC2Ev = comdat any

$_ZNSt12_Vector_baseIN6Assimp3MD519CameraAnimFrameDescESaIS2_EE12_Vector_implC2Ev = comdat any

$_ZNSaIN6Assimp3MD519CameraAnimFrameDescEEC2Ev = comdat any

$_ZNSt12_Vector_baseIN6Assimp3MD519CameraAnimFrameDescESaIS2_EE17_Vector_impl_dataC2Ev = comdat any

$_ZNSt15__new_allocatorIN6Assimp3MD519CameraAnimFrameDescEEC2Ev = comdat any

$_ZN6Assimp10SkipSpacesIcEEbPKT_PS3_ = comdat any

$_ZN6Assimp20SkipSpacesAndLineEndIcEEbPKT_PS3_ = comdat any

$_ZSt8_DestroyIPN6Assimp3MD57SectionES2_EvT_S4_RSaIT0_E = comdat any

$_ZNSt12_Vector_baseIN6Assimp3MD57SectionESaIS2_EE19_M_get_Tp_allocatorEv = comdat any

$__clang_call_terminate = comdat any

$_ZNSt12_Vector_baseIN6Assimp3MD57SectionESaIS2_EED2Ev = comdat any

$_ZSt8_DestroyIPN6Assimp3MD57SectionEEvT_S4_ = comdat any

$_ZNSt12_Destroy_auxILb0EE9__destroyIPN6Assimp3MD57SectionEEEvT_S6_ = comdat any

$_ZSt8_DestroyIN6Assimp3MD57SectionEEvPT_ = comdat any

$_ZN6Assimp3MD57SectionD2Ev = comdat any

$_ZNSt6vectorIN6Assimp3MD57ElementESaIS2_EED2Ev = comdat any

$_ZSt8_DestroyIPN6Assimp3MD57ElementES2_EvT_S4_RSaIT0_E = comdat any

$_ZNSt12_Vector_baseIN6Assimp3MD57ElementESaIS2_EE19_M_get_Tp_allocatorEv = comdat any

$_ZNSt12_Vector_baseIN6Assimp3MD57ElementESaIS2_EED2Ev = comdat any

$_ZSt8_DestroyIPN6Assimp3MD57ElementEEvT_S4_ = comdat any

$_ZNSt12_Destroy_auxILb1EE9__destroyIPN6Assimp3MD57ElementEEEvT_S6_ = comdat any

$_ZNSt12_Vector_baseIN6Assimp3MD57ElementESaIS2_EE13_M_deallocateEPS2_m = comdat any

$_ZNSt12_Vector_baseIN6Assimp3MD57ElementESaIS2_EE12_Vector_implD2Ev = comdat any

$_ZNSt16allocator_traitsISaIN6Assimp3MD57ElementEEE10deallocateERS3_PS2_m = comdat any

$_ZNSt15__new_allocatorIN6Assimp3MD57ElementEE10deallocateEPS2_m = comdat any

$_ZNSaIN6Assimp3MD57ElementEED2Ev = comdat any

$_ZNSt15__new_allocatorIN6Assimp3MD57ElementEED2Ev = comdat any

$_ZNSt12_Vector_baseIN6Assimp3MD57SectionESaIS2_EE13_M_deallocateEPS2_m = comdat any

$_ZNSt12_Vector_baseIN6Assimp3MD57SectionESaIS2_EE12_Vector_implD2Ev = comdat any

$_ZNSt16allocator_traitsISaIN6Assimp3MD57SectionEEE10deallocateERS3_PS2_m = comdat any

$_ZNSt15__new_allocatorIN6Assimp3MD57SectionEE10deallocateEPS2_m = comdat any

$_ZNSaIN6Assimp3MD57SectionEED2Ev = comdat any

$_ZNSt15__new_allocatorIN6Assimp3MD57SectionEED2Ev = comdat any

$_ZNSt16allocator_traitsISaIN6Assimp3MD57SectionEEE9constructIS2_JEEEvRS3_PT_DpOT0_ = comdat any

$_ZNSt6vectorIN6Assimp3MD57SectionESaIS2_EE17_M_realloc_insertIJEEEvN9__gnu_cxx17__normal_iteratorIPS2_S4_EEDpOT_ = comdat any

$_ZNSt15__new_allocatorIN6Assimp3MD57SectionEE9constructIS2_JEEEvPT_DpOT0_ = comdat any

$_ZN6Assimp3MD57SectionC2Ev = comdat any

$_ZNSt6vectorIN6Assimp3MD57ElementESaIS2_EEC2Ev = comdat any

$_ZNSt12_Vector_baseIN6Assimp3MD57ElementESaIS2_EEC2Ev = comdat any

$_ZNSt12_Vector_baseIN6Assimp3MD57ElementESaIS2_EE12_Vector_implC2Ev = comdat any

$_ZNSaIN6Assimp3MD57ElementEEC2Ev = comdat any

$_ZNSt12_Vector_baseIN6Assimp3MD57ElementESaIS2_EE17_Vector_impl_dataC2Ev = comdat any

$_ZNSt15__new_allocatorIN6Assimp3MD57ElementEEC2Ev = comdat any

$_ZNKSt6vectorIN6Assimp3MD57SectionESaIS2_EE12_M_check_lenEmPKc = comdat any

$_ZN9__gnu_cxxmiIPN6Assimp3MD57SectionESt6vectorIS3_SaIS3_EEEENS_17__normal_iteratorIT_T0_E15difference_typeERKSB_SE_ = comdat any

$_ZNSt12_Vector_baseIN6Assimp3MD57SectionESaIS2_EE11_M_allocateEm = comdat any

$_ZNSt6vectorIN6Assimp3MD57SectionESaIS2_EE11_S_relocateEPS2_S5_S5_RS3_ = comdat any

$_ZNK9__gnu_cxx17__normal_iteratorIPN6Assimp3MD57SectionESt6vectorIS3_SaIS3_EEE4baseEv = comdat any

$_ZNKSt6vectorIN6Assimp3MD57SectionESaIS2_EE8max_sizeEv = comdat any

$_ZSt3maxImERKT_S2_S2_ = comdat any

$_ZNSt6vectorIN6Assimp3MD57SectionESaIS2_EE11_S_max_sizeERKS3_ = comdat any

$_ZNKSt12_Vector_baseIN6Assimp3MD57SectionESaIS2_EE19_M_get_Tp_allocatorEv = comdat any

$_ZNSt16allocator_traitsISaIN6Assimp3MD57SectionEEE8max_sizeERKS3_ = comdat any

$_ZNKSt15__new_allocatorIN6Assimp3MD57SectionEE8max_sizeEv = comdat any

$_ZNKSt15__new_allocatorIN6Assimp3MD57SectionEE11_M_max_sizeEv = comdat any

$_ZNSt16allocator_traitsISaIN6Assimp3MD57SectionEEE8allocateERS3_m = comdat any

$_ZNSt15__new_allocatorIN6Assimp3MD57SectionEE8allocateEmPKv = comdat any

$_ZSt12__relocate_aIPN6Assimp3MD57SectionES3_SaIS2_EET0_T_S6_S5_RT1_ = comdat any

$_ZSt14__relocate_a_1IPN6Assimp3MD57SectionES3_SaIS2_EET0_T_S6_S5_RT1_ = comdat any

$_ZSt12__niter_baseIPN6Assimp3MD57SectionEET_S4_ = comdat any

$_ZSt19__relocate_object_aIN6Assimp3MD57SectionES2_SaIS2_EEvPT_PT0_RT1_ = comdat any

$_ZNSt16allocator_traitsISaIN6Assimp3MD57SectionEEE9constructIS2_JS2_EEEvRS3_PT_DpOT0_ = comdat any

$_ZNSt16allocator_traitsISaIN6Assimp3MD57SectionEEE7destroyIS2_EEvRS3_PT_ = comdat any

$_ZNSt15__new_allocatorIN6Assimp3MD57SectionEE9constructIS2_JS2_EEEvPT_DpOT0_ = comdat any

$_ZN6Assimp3MD57SectionC2EOS1_ = comdat any

$_ZNSt6vectorIN6Assimp3MD57ElementESaIS2_EEC2EOS4_ = comdat any

$_ZNSt12_Vector_baseIN6Assimp3MD57ElementESaIS2_EEC2EOS4_ = comdat any

$_ZNSt12_Vector_baseIN6Assimp3MD57ElementESaIS2_EE12_Vector_implC2EOS5_ = comdat any

$_ZNSaIN6Assimp3MD57ElementEEC2ERKS2_ = comdat any

$_ZNSt12_Vector_baseIN6Assimp3MD57ElementESaIS2_EE17_Vector_impl_dataC2EOS5_ = comdat any

$_ZNSt15__new_allocatorIN6Assimp3MD57ElementEEC2ERKS3_ = comdat any

$_ZNSt15__new_allocatorIN6Assimp3MD57SectionEE7destroyIS2_EEvPT_ = comdat any

$_ZNK9__gnu_cxx17__normal_iteratorIPN6Assimp3MD57SectionESt6vectorIS3_SaIS3_EEEmiEl = comdat any

$_ZNK9__gnu_cxx17__normal_iteratorIPN6Assimp3MD57SectionESt6vectorIS3_SaIS3_EEEdeEv = comdat any

$_ZN9__gnu_cxx17__normal_iteratorIPN6Assimp3MD57SectionESt6vectorIS3_SaIS3_EEEC2ERKS4_ = comdat any

$_ZN6Assimp9Formatter15basic_formatterIcSt11char_traitsIcESaIcEEC2IA128_cEERKT_ = comdat any

$_ZN6Assimp9Formatter15basic_formatterIcSt11char_traitsIcESaIcEEC2Ev = comdat any

$_ZN15DeadlyErrorBaseC2IJERA1024_cEEN6Assimp9Formatter15basic_formatterIcSt11char_traitsIcESaIcEEEOT0_DpOT_ = comdat any

$_ZN17DeadlyImportErrorD0Ev = comdat any

$_ZN6Assimp9Formatter15basic_formatterIcSt11char_traitsIcESaIcEElsIA1024_cTnPNSt9enable_ifIXntsr3std10is_base_ofISt9exceptionT_EE5valueEvE4typeELPv0EEERS5_RKSA_ = comdat any

$_ZN6Assimp9Formatter15basic_formatterIcSt11char_traitsIcESaIcEEC2IA1024_cEERKT_ = comdat any

$_ZN6Assimp9Formatter15basic_formatterIcSt11char_traitsIcESaIcEEC2INSt7__cxx1112basic_stringIcS3_S4_EEEERKT_ = comdat any

$_ZNSt16allocator_traitsISaIN6Assimp3MD57ElementEEE9constructIS2_JEEEvRS3_PT_DpOT0_ = comdat any

$_ZNSt6vectorIN6Assimp3MD57ElementESaIS2_EE17_M_realloc_insertIJEEEvN9__gnu_cxx17__normal_iteratorIPS2_S4_EEDpOT_ = comdat any

$_ZNSt6vectorIN6Assimp3MD57ElementESaIS2_EE3endEv = comdat any

$_ZNSt15__new_allocatorIN6Assimp3MD57ElementEE9constructIS2_JEEEvPT_DpOT0_ = comdat any

$_ZNKSt6vectorIN6Assimp3MD57ElementESaIS2_EE12_M_check_lenEmPKc = comdat any

$_ZN9__gnu_cxxmiIPN6Assimp3MD57ElementESt6vectorIS3_SaIS3_EEEENS_17__normal_iteratorIT_T0_E15difference_typeERKSB_SE_ = comdat any

$_ZNSt6vectorIN6Assimp3MD57ElementESaIS2_EE5beginEv = comdat any

$_ZNSt12_Vector_baseIN6Assimp3MD57ElementESaIS2_EE11_M_allocateEm = comdat any

$_ZNSt6vectorIN6Assimp3MD57ElementESaIS2_EE11_S_relocateEPS2_S5_S5_RS3_ = comdat any

$_ZNK9__gnu_cxx17__normal_iteratorIPN6Assimp3MD57ElementESt6vectorIS3_SaIS3_EEE4baseEv = comdat any

$_ZNKSt6vectorIN6Assimp3MD57ElementESaIS2_EE8max_sizeEv = comdat any

$_ZNKSt6vectorIN6Assimp3MD57ElementESaIS2_EE4sizeEv = comdat any

$_ZNSt6vectorIN6Assimp3MD57ElementESaIS2_EE11_S_max_sizeERKS3_ = comdat any

$_ZNKSt12_Vector_baseIN6Assimp3MD57ElementESaIS2_EE19_M_get_Tp_allocatorEv = comdat any

$_ZNSt16allocator_traitsISaIN6Assimp3MD57ElementEEE8max_sizeERKS3_ = comdat any

$_ZNKSt15__new_allocatorIN6Assimp3MD57ElementEE8max_sizeEv = comdat any

$_ZNKSt15__new_allocatorIN6Assimp3MD57ElementEE11_M_max_sizeEv = comdat any

$_ZN9__gnu_cxx17__normal_iteratorIPN6Assimp3MD57ElementESt6vectorIS3_SaIS3_EEEC2ERKS4_ = comdat any

$_ZNSt16allocator_traitsISaIN6Assimp3MD57ElementEEE8allocateERS3_m = comdat any

$_ZNSt15__new_allocatorIN6Assimp3MD57ElementEE8allocateEmPKv = comdat any

$_ZSt12__relocate_aIPN6Assimp3MD57ElementES3_SaIS2_EET0_T_S6_S5_RT1_ = comdat any

$_ZSt14__relocate_a_1IN6Assimp3MD57ElementES2_ENSt9enable_ifIXsr3std24__is_bitwise_relocatableIT_EE5valueEPS4_E4typeES5_S5_S5_RSaIT0_E = comdat any

$_ZSt12__niter_baseIPN6Assimp3MD57ElementEET_S4_ = comdat any

$_ZNK9__gnu_cxx17__normal_iteratorIPN6Assimp3MD57ElementESt6vectorIS3_SaIS3_EEEmiEl = comdat any

$_ZNK9__gnu_cxx17__normal_iteratorIPN6Assimp3MD57ElementESt6vectorIS3_SaIS3_EEEdeEv = comdat any

$_ZSt8_DestroyIPN6Assimp3MD58MeshDescES2_EvT_S4_RSaIT0_E = comdat any

$_ZNSt12_Vector_baseIN6Assimp3MD58MeshDescESaIS2_EE19_M_get_Tp_allocatorEv = comdat any

$_ZNSt12_Vector_baseIN6Assimp3MD58MeshDescESaIS2_EED2Ev = comdat any

$_ZSt8_DestroyIPN6Assimp3MD58MeshDescEEvT_S4_ = comdat any

$_ZNSt12_Destroy_auxILb0EE9__destroyIPN6Assimp3MD58MeshDescEEEvT_S6_ = comdat any

$_ZSt8_DestroyIN6Assimp3MD58MeshDescEEvPT_ = comdat any

$_ZN6Assimp3MD58MeshDescD2Ev = comdat any

$_ZNSt6vectorI6aiFaceSaIS0_EED2Ev = comdat any

$_ZNSt6vectorIN6Assimp3MD510VertexDescESaIS2_EED2Ev = comdat any

$_ZNSt6vectorIN6Assimp3MD510WeightDescESaIS2_EED2Ev = comdat any

$_ZSt8_DestroyIP6aiFaceS0_EvT_S2_RSaIT0_E = comdat any

$_ZNSt12_Vector_baseI6aiFaceSaIS0_EE19_M_get_Tp_allocatorEv = comdat any

$_ZNSt12_Vector_baseI6aiFaceSaIS0_EED2Ev = comdat any

$_ZSt8_DestroyIP6aiFaceEvT_S2_ = comdat any

$_ZNSt12_Destroy_auxILb0EE9__destroyIP6aiFaceEEvT_S4_ = comdat any

$_ZSt8_DestroyI6aiFaceEvPT_ = comdat any

$_ZN6aiFaceD2Ev = comdat any

$_ZNSt12_Vector_baseI6aiFaceSaIS0_EE13_M_deallocateEPS0_m = comdat any

$_ZNSt12_Vector_baseI6aiFaceSaIS0_EE12_Vector_implD2Ev = comdat any

$_ZNSt16allocator_traitsISaI6aiFaceEE10deallocateERS1_PS0_m = comdat any

$_ZNSt15__new_allocatorI6aiFaceE10deallocateEPS0_m = comdat any

$_ZNSt15__new_allocatorI6aiFaceED2Ev = comdat any

$_ZSt8_DestroyIPN6Assimp3MD510VertexDescES2_EvT_S4_RSaIT0_E = comdat any

$_ZNSt12_Vector_baseIN6Assimp3MD510VertexDescESaIS2_EE19_M_get_Tp_allocatorEv = comdat any

$_ZNSt12_Vector_baseIN6Assimp3MD510VertexDescESaIS2_EED2Ev = comdat any

$_ZSt8_DestroyIPN6Assimp3MD510VertexDescEEvT_S4_ = comdat any

$_ZNSt12_Destroy_auxILb1EE9__destroyIPN6Assimp3MD510VertexDescEEEvT_S6_ = comdat any

$_ZNSt12_Vector_baseIN6Assimp3MD510VertexDescESaIS2_EE13_M_deallocateEPS2_m = comdat any

$_ZNSt12_Vector_baseIN6Assimp3MD510VertexDescESaIS2_EE12_Vector_implD2Ev = comdat any

$_ZNSt16allocator_traitsISaIN6Assimp3MD510VertexDescEEE10deallocateERS3_PS2_m = comdat any

$_ZNSt15__new_allocatorIN6Assimp3MD510VertexDescEE10deallocateEPS2_m = comdat any

$_ZNSt15__new_allocatorIN6Assimp3MD510VertexDescEED2Ev = comdat any

$_ZSt8_DestroyIPN6Assimp3MD510WeightDescES2_EvT_S4_RSaIT0_E = comdat any

$_ZNSt12_Vector_baseIN6Assimp3MD510WeightDescESaIS2_EE19_M_get_Tp_allocatorEv = comdat any

$_ZNSt12_Vector_baseIN6Assimp3MD510WeightDescESaIS2_EED2Ev = comdat any

$_ZSt8_DestroyIPN6Assimp3MD510WeightDescEEvT_S4_ = comdat any

$_ZNSt12_Destroy_auxILb1EE9__destroyIPN6Assimp3MD510WeightDescEEEvT_S6_ = comdat any

$_ZNSt12_Vector_baseIN6Assimp3MD510WeightDescESaIS2_EE13_M_deallocateEPS2_m = comdat any

$_ZNSt12_Vector_baseIN6Assimp3MD510WeightDescESaIS2_EE12_Vector_implD2Ev = comdat any

$_ZNSt16allocator_traitsISaIN6Assimp3MD510WeightDescEEE10deallocateERS3_PS2_m = comdat any

$_ZNSt15__new_allocatorIN6Assimp3MD510WeightDescEE10deallocateEPS2_m = comdat any

$_ZNSt15__new_allocatorIN6Assimp3MD510WeightDescEED2Ev = comdat any

$_ZNSt12_Vector_baseIN6Assimp3MD58MeshDescESaIS2_EE13_M_deallocateEPS2_m = comdat any

$_ZNSt12_Vector_baseIN6Assimp3MD58MeshDescESaIS2_EE12_Vector_implD2Ev = comdat any

$_ZNSt16allocator_traitsISaIN6Assimp3MD58MeshDescEEE10deallocateERS3_PS2_m = comdat any

$_ZNSt15__new_allocatorIN6Assimp3MD58MeshDescEE10deallocateEPS2_m = comdat any

$_ZNSaIN6Assimp3MD58MeshDescEED2Ev = comdat any

$_ZNSt15__new_allocatorIN6Assimp3MD58MeshDescEED2Ev = comdat any

$_ZSt8_DestroyIPN6Assimp3MD58BoneDescES2_EvT_S4_RSaIT0_E = comdat any

$_ZNSt12_Vector_baseIN6Assimp3MD58BoneDescESaIS2_EE19_M_get_Tp_allocatorEv = comdat any

$_ZNSt12_Vector_baseIN6Assimp3MD58BoneDescESaIS2_EED2Ev = comdat any

$_ZSt8_DestroyIPN6Assimp3MD58BoneDescEEvT_S4_ = comdat any

$_ZNSt12_Destroy_auxILb1EE9__destroyIPN6Assimp3MD58BoneDescEEEvT_S6_ = comdat any

$_ZNSt12_Vector_baseIN6Assimp3MD58BoneDescESaIS2_EE13_M_deallocateEPS2_m = comdat any

$_ZNSt12_Vector_baseIN6Assimp3MD58BoneDescESaIS2_EE12_Vector_implD2Ev = comdat any

$_ZNSt16allocator_traitsISaIN6Assimp3MD58BoneDescEEE10deallocateERS3_PS2_m = comdat any

$_ZNSt15__new_allocatorIN6Assimp3MD58BoneDescEE10deallocateEPS2_m = comdat any

$_ZNSaIN6Assimp3MD58BoneDescEED2Ev = comdat any

$_ZNSt15__new_allocatorIN6Assimp3MD58BoneDescEED2Ev = comdat any

$_ZNK9__gnu_cxx17__normal_iteratorIPKN6Assimp3MD57SectionESt6vectorIS3_SaIS3_EEE4baseEv = comdat any

$_ZNKSt6vectorIN6Assimp3MD58MeshDescESaIS2_EE8max_sizeEv = comdat any

$_ZNKSt6vectorIN6Assimp3MD58MeshDescESaIS2_EE8capacityEv = comdat any

$_ZNKSt6vectorIN6Assimp3MD58MeshDescESaIS2_EE4sizeEv = comdat any

$_ZNSt6vectorIN6Assimp3MD58MeshDescESaIS2_EE20_M_allocate_and_copyIPKS2_EEPS2_mT_S9_ = comdat any

$_ZSt32__make_move_if_noexcept_iteratorIN6Assimp3MD58MeshDescEPKS2_ET0_PT_ = comdat any

$_ZNSt6vectorIN6Assimp3MD58MeshDescESaIS2_EE11_S_max_sizeERKS3_ = comdat any

$_ZNKSt12_Vector_baseIN6Assimp3MD58MeshDescESaIS2_EE19_M_get_Tp_allocatorEv = comdat any

$_ZNSt16allocator_traitsISaIN6Assimp3MD58MeshDescEEE8max_sizeERKS3_ = comdat any

$_ZNKSt15__new_allocatorIN6Assimp3MD58MeshDescEE8max_sizeEv = comdat any

$_ZNKSt15__new_allocatorIN6Assimp3MD58MeshDescEE11_M_max_sizeEv = comdat any

$_ZNSt12_Vector_baseIN6Assimp3MD58MeshDescESaIS2_EE11_M_allocateEm = comdat any

$_ZSt22__uninitialized_copy_aIPKN6Assimp3MD58MeshDescEPS2_S2_ET0_T_S7_S6_RSaIT1_E = comdat any

$_ZNSt16allocator_traitsISaIN6Assimp3MD58MeshDescEEE8allocateERS3_m = comdat any

$_ZNSt15__new_allocatorIN6Assimp3MD58MeshDescEE8allocateEmPKv = comdat any

$_ZSt18uninitialized_copyIPKN6Assimp3MD58MeshDescEPS2_ET0_T_S7_S6_ = comdat any

$_ZNSt20__uninitialized_copyILb0EE13__uninit_copyIPKN6Assimp3MD58MeshDescEPS4_EET0_T_S9_S8_ = comdat any

$_ZSt16__do_uninit_copyIPKN6Assimp3MD58MeshDescEPS2_ET0_T_S7_S6_ = comdat any

$_ZSt10_ConstructIN6Assimp3MD58MeshDescEJRKS2_EEvPT_DpOT0_ = comdat any

$_ZN6Assimp3MD58MeshDescC2ERKS1_ = comdat any

$_ZNSt6vectorIN6Assimp3MD510WeightDescESaIS2_EEC2ERKS4_ = comdat any

$_ZNSt6vectorIN6Assimp3MD510VertexDescESaIS2_EEC2ERKS4_ = comdat any

$_ZNSt6vectorI6aiFaceSaIS0_EEC2ERKS2_ = comdat any

$_ZN8aiStringC2ERKS_ = comdat any

$_ZN9__gnu_cxx14__alloc_traitsISaIN6Assimp3MD510WeightDescEES3_E17_S_select_on_copyERKS4_ = comdat any

$_ZNKSt12_Vector_baseIN6Assimp3MD510WeightDescESaIS2_EE19_M_get_Tp_allocatorEv = comdat any

$_ZNSt12_Vector_baseIN6Assimp3MD510WeightDescESaIS2_EEC2EmRKS3_ = comdat any

$_ZNSaIN6Assimp3MD510WeightDescEED2Ev = comdat any

$_ZSt22__uninitialized_copy_aIN9__gnu_cxx17__normal_iteratorIPKN6Assimp3MD510WeightDescESt6vectorIS4_SaIS4_EEEEPS4_S4_ET0_T_SD_SC_RSaIT1_E = comdat any

$_ZNKSt6vectorIN6Assimp3MD510WeightDescESaIS2_EE5beginEv = comdat any

$_ZNKSt6vectorIN6Assimp3MD510WeightDescESaIS2_EE3endEv = comdat any

$_ZNSt16allocator_traitsISaIN6Assimp3MD510WeightDescEEE37select_on_container_copy_constructionERKS3_ = comdat any

$_ZNSaIN6Assimp3MD510WeightDescEEC2ERKS2_ = comdat any

$_ZNSt15__new_allocatorIN6Assimp3MD510WeightDescEEC2ERKS3_ = comdat any

$_ZNSt12_Vector_baseIN6Assimp3MD510WeightDescESaIS2_EE12_Vector_implC2ERKS3_ = comdat any

$_ZNSt12_Vector_baseIN6Assimp3MD510WeightDescESaIS2_EE17_M_create_storageEm = comdat any

$_ZNSt12_Vector_baseIN6Assimp3MD510WeightDescESaIS2_EE17_Vector_impl_dataC2Ev = comdat any

$_ZNSt12_Vector_baseIN6Assimp3MD510WeightDescESaIS2_EE11_M_allocateEm = comdat any

$_ZNSt16allocator_traitsISaIN6Assimp3MD510WeightDescEEE8allocateERS3_m = comdat any

$_ZNSt15__new_allocatorIN6Assimp3MD510WeightDescEE8allocateEmPKv = comdat any

$_ZNKSt15__new_allocatorIN6Assimp3MD510WeightDescEE11_M_max_sizeEv = comdat any

$_ZSt18uninitialized_copyIN9__gnu_cxx17__normal_iteratorIPKN6Assimp3MD510WeightDescESt6vectorIS4_SaIS4_EEEEPS4_ET0_T_SD_SC_ = comdat any

$_ZNSt20__uninitialized_copyILb0EE13__uninit_copyIN9__gnu_cxx17__normal_iteratorIPKN6Assimp3MD510WeightDescESt6vectorIS6_SaIS6_EEEEPS6_EET0_T_SF_SE_ = comdat any

$_ZSt16__do_uninit_copyIN9__gnu_cxx17__normal_iteratorIPKN6Assimp3MD510WeightDescESt6vectorIS4_SaIS4_EEEEPS4_ET0_T_SD_SC_ = comdat any

$_ZN9__gnu_cxxneIPKN6Assimp3MD510WeightDescESt6vectorIS3_SaIS3_EEEEbRKNS_17__normal_iteratorIT_T0_EESE_ = comdat any

$_ZSt10_ConstructIN6Assimp3MD510WeightDescEJRKS2_EEvPT_DpOT0_ = comdat any

$_ZNK9__gnu_cxx17__normal_iteratorIPKN6Assimp3MD510WeightDescESt6vectorIS3_SaIS3_EEEdeEv = comdat any

$_ZN9__gnu_cxx17__normal_iteratorIPKN6Assimp3MD510WeightDescESt6vectorIS3_SaIS3_EEEppEv = comdat any

$_ZNK9__gnu_cxx17__normal_iteratorIPKN6Assimp3MD510WeightDescESt6vectorIS3_SaIS3_EEE4baseEv = comdat any

$_ZN9__gnu_cxx17__normal_iteratorIPKN6Assimp3MD510WeightDescESt6vectorIS3_SaIS3_EEEC2ERKS5_ = comdat any

$_ZN9__gnu_cxx14__alloc_traitsISaIN6Assimp3MD510VertexDescEES3_E17_S_select_on_copyERKS4_ = comdat any

$_ZNKSt12_Vector_baseIN6Assimp3MD510VertexDescESaIS2_EE19_M_get_Tp_allocatorEv = comdat any

$_ZNSt12_Vector_baseIN6Assimp3MD510VertexDescESaIS2_EEC2EmRKS3_ = comdat any

$_ZNSaIN6Assimp3MD510VertexDescEED2Ev = comdat any

$_ZSt22__uninitialized_copy_aIN9__gnu_cxx17__normal_iteratorIPKN6Assimp3MD510VertexDescESt6vectorIS4_SaIS4_EEEEPS4_S4_ET0_T_SD_SC_RSaIT1_E = comdat any

$_ZNKSt6vectorIN6Assimp3MD510VertexDescESaIS2_EE5beginEv = comdat any

$_ZNKSt6vectorIN6Assimp3MD510VertexDescESaIS2_EE3endEv = comdat any

$_ZNSt16allocator_traitsISaIN6Assimp3MD510VertexDescEEE37select_on_container_copy_constructionERKS3_ = comdat any

$_ZNSaIN6Assimp3MD510VertexDescEEC2ERKS2_ = comdat any

$_ZNSt15__new_allocatorIN6Assimp3MD510VertexDescEEC2ERKS3_ = comdat any

$_ZNSt12_Vector_baseIN6Assimp3MD510VertexDescESaIS2_EE12_Vector_implC2ERKS3_ = comdat any

$_ZNSt12_Vector_baseIN6Assimp3MD510VertexDescESaIS2_EE17_M_create_storageEm = comdat any

$_ZNSt12_Vector_baseIN6Assimp3MD510VertexDescESaIS2_EE17_Vector_impl_dataC2Ev = comdat any

$_ZNSt12_Vector_baseIN6Assimp3MD510VertexDescESaIS2_EE11_M_allocateEm = comdat any

$_ZNSt16allocator_traitsISaIN6Assimp3MD510VertexDescEEE8allocateERS3_m = comdat any

$_ZNSt15__new_allocatorIN6Assimp3MD510VertexDescEE8allocateEmPKv = comdat any

$_ZNKSt15__new_allocatorIN6Assimp3MD510VertexDescEE11_M_max_sizeEv = comdat any

$_ZSt18uninitialized_copyIN9__gnu_cxx17__normal_iteratorIPKN6Assimp3MD510VertexDescESt6vectorIS4_SaIS4_EEEEPS4_ET0_T_SD_SC_ = comdat any

$_ZNSt20__uninitialized_copyILb0EE13__uninit_copyIN9__gnu_cxx17__normal_iteratorIPKN6Assimp3MD510VertexDescESt6vectorIS6_SaIS6_EEEEPS6_EET0_T_SF_SE_ = comdat any

$_ZSt16__do_uninit_copyIN9__gnu_cxx17__normal_iteratorIPKN6Assimp3MD510VertexDescESt6vectorIS4_SaIS4_EEEEPS4_ET0_T_SD_SC_ = comdat any

$_ZN9__gnu_cxxneIPKN6Assimp3MD510VertexDescESt6vectorIS3_SaIS3_EEEEbRKNS_17__normal_iteratorIT_T0_EESE_ = comdat any

$_ZSt10_ConstructIN6Assimp3MD510VertexDescEJRKS2_EEvPT_DpOT0_ = comdat any

$_ZNK9__gnu_cxx17__normal_iteratorIPKN6Assimp3MD510VertexDescESt6vectorIS3_SaIS3_EEEdeEv = comdat any

$_ZN9__gnu_cxx17__normal_iteratorIPKN6Assimp3MD510VertexDescESt6vectorIS3_SaIS3_EEEppEv = comdat any

$_ZNK9__gnu_cxx17__normal_iteratorIPKN6Assimp3MD510VertexDescESt6vectorIS3_SaIS3_EEE4baseEv = comdat any

$_ZN9__gnu_cxx17__normal_iteratorIPKN6Assimp3MD510VertexDescESt6vectorIS3_SaIS3_EEEC2ERKS5_ = comdat any

$_ZN9__gnu_cxx14__alloc_traitsISaI6aiFaceES1_E17_S_select_on_copyERKS2_ = comdat any

$_ZNKSt12_Vector_baseI6aiFaceSaIS0_EE19_M_get_Tp_allocatorEv = comdat any

$_ZNSt12_Vector_baseI6aiFaceSaIS0_EEC2EmRKS1_ = comdat any

$_ZNSaI6aiFaceED2Ev = comdat any

$_ZSt22__uninitialized_copy_aIN9__gnu_cxx17__normal_iteratorIPK6aiFaceSt6vectorIS2_SaIS2_EEEEPS2_S2_ET0_T_SB_SA_RSaIT1_E = comdat any

$_ZNKSt6vectorI6aiFaceSaIS0_EE5beginEv = comdat any

$_ZNKSt6vectorI6aiFaceSaIS0_EE3endEv = comdat any

$_ZNSt16allocator_traitsISaI6aiFaceEE37select_on_container_copy_constructionERKS1_ = comdat any

$_ZNSaI6aiFaceEC2ERKS0_ = comdat any

$_ZNSt15__new_allocatorI6aiFaceEC2ERKS1_ = comdat any

$_ZNSt12_Vector_baseI6aiFaceSaIS0_EE12_Vector_implC2ERKS1_ = comdat any

$_ZNSt12_Vector_baseI6aiFaceSaIS0_EE17_M_create_storageEm = comdat any

$_ZNSt12_Vector_baseI6aiFaceSaIS0_EE17_Vector_impl_dataC2Ev = comdat any

$_ZNSt12_Vector_baseI6aiFaceSaIS0_EE11_M_allocateEm = comdat any

$_ZNSt16allocator_traitsISaI6aiFaceEE8allocateERS1_m = comdat any

$_ZNSt15__new_allocatorI6aiFaceE8allocateEmPKv = comdat any

$_ZNKSt15__new_allocatorI6aiFaceE11_M_max_sizeEv = comdat any

$_ZSt18uninitialized_copyIN9__gnu_cxx17__normal_iteratorIPK6aiFaceSt6vectorIS2_SaIS2_EEEEPS2_ET0_T_SB_SA_ = comdat any

$_ZNSt20__uninitialized_copyILb0EE13__uninit_copyIN9__gnu_cxx17__normal_iteratorIPK6aiFaceSt6vectorIS4_SaIS4_EEEEPS4_EET0_T_SD_SC_ = comdat any

$_ZSt16__do_uninit_copyIN9__gnu_cxx17__normal_iteratorIPK6aiFaceSt6vectorIS2_SaIS2_EEEEPS2_ET0_T_SB_SA_ = comdat any

$_ZN9__gnu_cxxneIPK6aiFaceSt6vectorIS1_SaIS1_EEEEbRKNS_17__normal_iteratorIT_T0_EESC_ = comdat any

$_ZSt10_ConstructI6aiFaceJRKS0_EEvPT_DpOT0_ = comdat any

$_ZNK9__gnu_cxx17__normal_iteratorIPK6aiFaceSt6vectorIS1_SaIS1_EEEdeEv = comdat any

$_ZN9__gnu_cxx17__normal_iteratorIPK6aiFaceSt6vectorIS1_SaIS1_EEEppEv = comdat any

$_ZNK9__gnu_cxx17__normal_iteratorIPK6aiFaceSt6vectorIS1_SaIS1_EEE4baseEv = comdat any

$_ZN6aiFaceC2ERKS_ = comdat any

$_ZN6aiFaceaSERKS_ = comdat any

$_ZN9__gnu_cxx17__normal_iteratorIPK6aiFaceSt6vectorIS1_SaIS1_EEEC2ERKS3_ = comdat any

$_ZNKSt6vectorIN6Assimp3MD58BoneDescESaIS2_EE8max_sizeEv = comdat any

$_ZNKSt6vectorIN6Assimp3MD58BoneDescESaIS2_EE8capacityEv = comdat any

$_ZNKSt6vectorIN6Assimp3MD58BoneDescESaIS2_EE4sizeEv = comdat any

$_ZNSt6vectorIN6Assimp3MD58BoneDescESaIS2_EE20_M_allocate_and_copyIPKS2_EEPS2_mT_S9_ = comdat any

$_ZSt32__make_move_if_noexcept_iteratorIN6Assimp3MD58BoneDescEPKS2_ET0_PT_ = comdat any

$_ZNSt6vectorIN6Assimp3MD58BoneDescESaIS2_EE11_S_max_sizeERKS3_ = comdat any

$_ZNKSt12_Vector_baseIN6Assimp3MD58BoneDescESaIS2_EE19_M_get_Tp_allocatorEv = comdat any

$_ZNSt16allocator_traitsISaIN6Assimp3MD58BoneDescEEE8max_sizeERKS3_ = comdat any

$_ZNKSt15__new_allocatorIN6Assimp3MD58BoneDescEE8max_sizeEv = comdat any

$_ZNKSt15__new_allocatorIN6Assimp3MD58BoneDescEE11_M_max_sizeEv = comdat any

$_ZNSt12_Vector_baseIN6Assimp3MD58BoneDescESaIS2_EE11_M_allocateEm = comdat any

$_ZSt22__uninitialized_copy_aIPKN6Assimp3MD58BoneDescEPS2_S2_ET0_T_S7_S6_RSaIT1_E = comdat any

$_ZNSt16allocator_traitsISaIN6Assimp3MD58BoneDescEEE8allocateERS3_m = comdat any

$_ZNSt15__new_allocatorIN6Assimp3MD58BoneDescEE8allocateEmPKv = comdat any

$_ZSt18uninitialized_copyIPKN6Assimp3MD58BoneDescEPS2_ET0_T_S7_S6_ = comdat any

$_ZNSt20__uninitialized_copyILb0EE13__uninit_copyIPKN6Assimp3MD58BoneDescEPS4_EET0_T_S9_S8_ = comdat any

$_ZSt16__do_uninit_copyIPKN6Assimp3MD58BoneDescEPS2_ET0_T_S7_S6_ = comdat any

$_ZSt10_ConstructIN6Assimp3MD58BoneDescEJRKS2_EEvPT_DpOT0_ = comdat any

$_ZN6Assimp3MD58BoneDescC2ERKS1_ = comdat any

$_ZN6Assimp3MD520BaseJointDescriptionC2ERKS1_ = comdat any

$_ZN9__gnu_cxx17__normal_iteratorIPKN6Assimp3MD57ElementESt6vectorIS3_SaIS3_EEEC2ERKS5_ = comdat any

$_ZNK9__gnu_cxx17__normal_iteratorIPKN6Assimp3MD57ElementESt6vectorIS3_SaIS3_EEE4baseEv = comdat any

$_ZNSt16allocator_traitsISaIN6Assimp3MD58BoneDescEEE9constructIS2_JEEEvRS3_PT_DpOT0_ = comdat any

$_ZNSt6vectorIN6Assimp3MD58BoneDescESaIS2_EE17_M_realloc_insertIJEEEvN9__gnu_cxx17__normal_iteratorIPS2_S4_EEDpOT_ = comdat any

$_ZNSt6vectorIN6Assimp3MD58BoneDescESaIS2_EE3endEv = comdat any

$_ZNSt15__new_allocatorIN6Assimp3MD58BoneDescEE9constructIS2_JEEEvPT_DpOT0_ = comdat any

$_ZN6Assimp3MD58BoneDescC2Ev = comdat any

$_ZN6Assimp3MD520BaseJointDescriptionC2Ev = comdat any

$_ZN10aiVector3tIfEC2Ev = comdat any

$_ZN13aiQuaterniontIfEC2Ev = comdat any

$_ZN12aiMatrix4x4tIfEC2Ev = comdat any

$_ZN8aiStringC2Ev = comdat any

$_ZNKSt6vectorIN6Assimp3MD58BoneDescESaIS2_EE12_M_check_lenEmPKc = comdat any

$_ZN9__gnu_cxxmiIPN6Assimp3MD58BoneDescESt6vectorIS3_SaIS3_EEEENS_17__normal_iteratorIT_T0_E15difference_typeERKSB_SE_ = comdat any

$_ZNSt6vectorIN6Assimp3MD58BoneDescESaIS2_EE5beginEv = comdat any

$_ZSt34__uninitialized_move_if_noexcept_aIPN6Assimp3MD58BoneDescES3_SaIS2_EET0_T_S6_S5_RT1_ = comdat any

$_ZNK9__gnu_cxx17__normal_iteratorIPN6Assimp3MD58BoneDescESt6vectorIS3_SaIS3_EEE4baseEv = comdat any

$_ZNSt16allocator_traitsISaIN6Assimp3MD58BoneDescEEE7destroyIS2_EEvRS3_PT_ = comdat any

$_ZN9__gnu_cxx17__normal_iteratorIPN6Assimp3MD58BoneDescESt6vectorIS3_SaIS3_EEEC2ERKS4_ = comdat any

$_ZNSt15__new_allocatorIN6Assimp3MD58BoneDescEE7destroyIS2_EEvPT_ = comdat any

$_ZNK9__gnu_cxx17__normal_iteratorIPN6Assimp3MD58BoneDescESt6vectorIS3_SaIS3_EEEmiEl = comdat any

$_ZNK9__gnu_cxx17__normal_iteratorIPN6Assimp3MD58BoneDescESt6vectorIS3_SaIS3_EEEdeEv = comdat any

$_ZN6Assimp15ASSIMP_strincmpEPKcS1_j = comdat any

$_ZNSt14numeric_limitsIfE9quiet_NaNEv = comdat any

$_ZNSt14numeric_limitsIfE8infinityEv = comdat any

$_Z18ai_str_toprintableB5cxx11PKcic = comdat any

$_ZN17DeadlyImportErrorC2IJRA22_KcNSt7__cxx1112basic_stringIcSt11char_traitsIcESaIcEEERA82_S1_EEEDpOT_ = comdat any

$_ZN6Assimp12strtoul10_64I17DeadlyImportErrorEEmPKcPS3_Pj = comdat any

$_ZSt3powff = comdat any

$_Z18ai_str_toprintableRKNSt7__cxx1112basic_stringIcSt11char_traitsIcESaIcEEEc = comdat any

$_ZSt9transformIN9__gnu_cxx17__normal_iteratorIPcNSt7__cxx1112basic_stringIcSt11char_traitsIcESaIcEEEEES9_Z18ai_str_toprintableRKS8_cEUlhE_ET0_T_SE_SD_T1_ = comdat any

$_ZN9__gnu_cxxneIPcNSt7__cxx1112basic_stringIcSt11char_traitsIcESaIcEEEEEbRKNS_17__normal_iteratorIT_T0_EESD_ = comdat any

$_ZZ18ai_str_toprintableRKNSt7__cxx1112basic_stringIcSt11char_traitsIcESaIcEEEcENKUlhE_clEh = comdat any

$_ZNK9__gnu_cxx17__normal_iteratorIPcNSt7__cxx1112basic_stringIcSt11char_traitsIcESaIcEEEEdeEv = comdat any

$_ZN9__gnu_cxx17__normal_iteratorIPcNSt7__cxx1112basic_stringIcSt11char_traitsIcESaIcEEEEppEv = comdat any

$_ZNK9__gnu_cxx17__normal_iteratorIPcNSt7__cxx1112basic_stringIcSt11char_traitsIcESaIcEEEE4baseEv = comdat any

$_ZN15DeadlyErrorBaseC2IJNSt7__cxx1112basic_stringIcSt11char_traitsIcESaIcEEERA82_KcERA22_S7_EEN6Assimp9Formatter15basic_formatterIcS4_S5_EEOT0_DpOT_ = comdat any

$_ZN6Assimp9Formatter15basic_formatterIcSt11char_traitsIcESaIcEElsIA22_cTnPNSt9enable_ifIXntsr3std10is_base_ofISt9exceptionT_EE5valueEvE4typeELPv0EEERS5_RKSA_ = comdat any

$_ZN15DeadlyErrorBaseC2IJRA82_KcENSt7__cxx1112basic_stringIcSt11char_traitsIcESaIcEEEEEN6Assimp9Formatter15basic_formatterIcS7_S8_EEOT0_DpOT_ = comdat any

$_ZN6Assimp9Formatter15basic_formatterIcSt11char_traitsIcESaIcEElsINSt7__cxx1112basic_stringIcS3_S4_EETnPNSt9enable_ifIXntsr3std10is_base_ofISt9exceptionT_EE5valueEvE4typeELPv0EEERS5_RKSC_ = comdat any

$_ZN15DeadlyErrorBaseC2IJERA82_KcEEN6Assimp9Formatter15basic_formatterIcSt11char_traitsIcESaIcEEEOT0_DpOT_ = comdat any

$_ZN6Assimp9Formatter15basic_formatterIcSt11char_traitsIcESaIcEElsIA82_cTnPNSt9enable_ifIXntsr3std10is_base_ofISt9exceptionT_EE5valueEvE4typeELPv0EEERS5_RKSA_ = comdat any

$_ZN17DeadlyImportErrorC2IJRA13_KcNSt7__cxx1112basic_stringIcSt11char_traitsIcESaIcEEERA36_S1_EEEDpOT_ = comdat any

$_ZN6Assimp6Logger4warnIJRA24_KcRPS2_RA37_S2_EEEvDpOT_ = comdat any

$_ZN15DeadlyErrorBaseC2IJNSt7__cxx1112basic_stringIcSt11char_traitsIcESaIcEEERA36_KcERA13_S7_EEN6Assimp9Formatter15basic_formatterIcS4_S5_EEOT0_DpOT_ = comdat any

$_ZN6Assimp9Formatter15basic_formatterIcSt11char_traitsIcESaIcEElsIA13_cTnPNSt9enable_ifIXntsr3std10is_base_ofISt9exceptionT_EE5valueEvE4typeELPv0EEERS5_RKSA_ = comdat any

$_ZN15DeadlyErrorBaseC2IJRA36_KcENSt7__cxx1112basic_stringIcSt11char_traitsIcESaIcEEEEEN6Assimp9Formatter15basic_formatterIcS7_S8_EEOT0_DpOT_ = comdat any

$_ZN15DeadlyErrorBaseC2IJERA36_KcEEN6Assimp9Formatter15basic_formatterIcSt11char_traitsIcESaIcEEEOT0_DpOT_ = comdat any

$_ZN6Assimp9Formatter15basic_formatterIcSt11char_traitsIcESaIcEElsIA36_cTnPNSt9enable_ifIXntsr3std10is_base_ofISt9exceptionT_EE5valueEvE4typeELPv0EEERS5_RKSA_ = comdat any

$_ZN6Assimp6Logger13formatMessageIJRA37_KcERPS2_EENSt7__cxx1112basic_stringIcSt11char_traitsIcESaIcEEENS_9Formatter15basic_formatterIcSA_SB_EEOT0_DpOT_ = comdat any

$_ZN6Assimp6Logger13formatMessageIJERA37_KcEENSt7__cxx1112basic_stringIcSt11char_traitsIcESaIcEEENS_9Formatter15basic_formatterIcS8_S9_EEOT0_DpOT_ = comdat any

$_ZN6Assimp9Formatter15basic_formatterIcSt11char_traitsIcESaIcEElsIA37_cTnPNSt9enable_ifIXntsr3std10is_base_ofISt9exceptionT_EE5valueEvE4typeELPv0EEERS5_RKSA_ = comdat any

$_ZNSt16allocator_traitsISaIN6Assimp3MD58MeshDescEEE9constructIS2_JEEEvRS3_PT_DpOT0_ = comdat any

$_ZNSt6vectorIN6Assimp3MD58MeshDescESaIS2_EE17_M_realloc_insertIJEEEvN9__gnu_cxx17__normal_iteratorIPS2_S4_EEDpOT_ = comdat any

$_ZNSt6vectorIN6Assimp3MD58MeshDescESaIS2_EE3endEv = comdat any

$_ZNSt15__new_allocatorIN6Assimp3MD58MeshDescEE9constructIS2_JEEEvPT_DpOT0_ = comdat any

$_ZN6Assimp3MD58MeshDescC2Ev = comdat any

$_ZNSt6vectorIN6Assimp3MD510WeightDescESaIS2_EEC2Ev = comdat any

$_ZNSt6vectorIN6Assimp3MD510VertexDescESaIS2_EEC2Ev = comdat any

$_ZNSt6vectorI6aiFaceSaIS0_EEC2Ev = comdat any

$_ZNSt12_Vector_baseIN6Assimp3MD510WeightDescESaIS2_EEC2Ev = comdat any

$_ZNSt12_Vector_baseIN6Assimp3MD510WeightDescESaIS2_EE12_Vector_implC2Ev = comdat any

$_ZNSaIN6Assimp3MD510WeightDescEEC2Ev = comdat any

$_ZNSt15__new_allocatorIN6Assimp3MD510WeightDescEEC2Ev = comdat any

$_ZNSt12_Vector_baseIN6Assimp3MD510VertexDescESaIS2_EEC2Ev = comdat any

$_ZNSt12_Vector_baseIN6Assimp3MD510VertexDescESaIS2_EE12_Vector_implC2Ev = comdat any

$_ZNSaIN6Assimp3MD510VertexDescEEC2Ev = comdat any

$_ZNSt15__new_allocatorIN6Assimp3MD510VertexDescEEC2Ev = comdat any

$_ZNSt12_Vector_baseI6aiFaceSaIS0_EEC2Ev = comdat any

$_ZNSt12_Vector_baseI6aiFaceSaIS0_EE12_Vector_implC2Ev = comdat any

$_ZNSaI6aiFaceEC2Ev = comdat any

$_ZNSt15__new_allocatorI6aiFaceEC2Ev = comdat any

$_ZNKSt6vectorIN6Assimp3MD58MeshDescESaIS2_EE12_M_check_lenEmPKc = comdat any

$_ZN9__gnu_cxxmiIPN6Assimp3MD58MeshDescESt6vectorIS3_SaIS3_EEEENS_17__normal_iteratorIT_T0_E15difference_typeERKSB_SE_ = comdat any

$_ZNSt6vectorIN6Assimp3MD58MeshDescESaIS2_EE5beginEv = comdat any

$_ZSt34__uninitialized_move_if_noexcept_aIPN6Assimp3MD58MeshDescES3_SaIS2_EET0_T_S6_S5_RT1_ = comdat any

$_ZNK9__gnu_cxx17__normal_iteratorIPN6Assimp3MD58MeshDescESt6vectorIS3_SaIS3_EEE4baseEv = comdat any

$_ZNSt16allocator_traitsISaIN6Assimp3MD58MeshDescEEE7destroyIS2_EEvRS3_PT_ = comdat any

$_ZN9__gnu_cxx17__normal_iteratorIPN6Assimp3MD58MeshDescESt6vectorIS3_SaIS3_EEEC2ERKS4_ = comdat any

$_ZNSt15__new_allocatorIN6Assimp3MD58MeshDescEE7destroyIS2_EEvPT_ = comdat any

$_ZNK9__gnu_cxx17__normal_iteratorIPN6Assimp3MD58MeshDescESt6vectorIS3_SaIS3_EEEmiEl = comdat any

$_ZNK9__gnu_cxx17__normal_iteratorIPN6Assimp3MD58MeshDescESt6vectorIS3_SaIS3_EEEdeEv = comdat any

$_ZNSt6vectorIN6Assimp3MD510VertexDescESaIS2_EE17_M_default_appendEm = comdat any

$_ZNSt6vectorIN6Assimp3MD510VertexDescESaIS2_EE15_M_erase_at_endEPS2_ = comdat any

$_ZNKSt6vectorIN6Assimp3MD510VertexDescESaIS2_EE8max_sizeEv = comdat any

$_ZSt27__uninitialized_default_n_aIPN6Assimp3MD510VertexDescEmS2_ET_S4_T0_RSaIT1_E = comdat any

$_ZNKSt6vectorIN6Assimp3MD510VertexDescESaIS2_EE12_M_check_lenEmPKc = comdat any

$_ZNSt6vectorIN6Assimp3MD510VertexDescESaIS2_EE11_S_relocateEPS2_S5_S5_RS3_ = comdat any

$_ZNSt6vectorIN6Assimp3MD510VertexDescESaIS2_EE11_S_max_sizeERKS3_ = comdat any

$_ZNSt16allocator_traitsISaIN6Assimp3MD510VertexDescEEE8max_sizeERKS3_ = comdat any

$_ZNKSt15__new_allocatorIN6Assimp3MD510VertexDescEE8max_sizeEv = comdat any

$_ZSt25__uninitialized_default_nIPN6Assimp3MD510VertexDescEmET_S4_T0_ = comdat any

$_ZNSt27__uninitialized_default_n_1ILb0EE18__uninit_default_nIPN6Assimp3MD510VertexDescEmEET_S6_T0_ = comdat any

$_ZSt10_ConstructIN6Assimp3MD510VertexDescEJEEvPT_DpOT0_ = comdat any

$_ZN6Assimp3MD510VertexDescC2Ev = comdat any

$_ZN10aiVector2tIfEC2Ev = comdat any

$_ZSt12__relocate_aIPN6Assimp3MD510VertexDescES3_SaIS2_EET0_T_S6_S5_RT1_ = comdat any

$_ZSt14__relocate_a_1IPN6Assimp3MD510VertexDescES3_SaIS2_EET0_T_S6_S5_RT1_ = comdat any

$_ZSt12__niter_baseIPN6Assimp3MD510VertexDescEET_S4_ = comdat any

$_ZSt19__relocate_object_aIN6Assimp3MD510VertexDescES2_SaIS2_EEvPT_PT0_RT1_ = comdat any

$_ZNSt16allocator_traitsISaIN6Assimp3MD510VertexDescEEE9constructIS2_JS2_EEEvRS3_PT_DpOT0_ = comdat any

$_ZNSt16allocator_traitsISaIN6Assimp3MD510VertexDescEEE7destroyIS2_EEvRS3_PT_ = comdat any

$_ZNSt15__new_allocatorIN6Assimp3MD510VertexDescEE9constructIS2_JS2_EEEvPT_DpOT0_ = comdat any

$_ZNSt15__new_allocatorIN6Assimp3MD510VertexDescEE7destroyIS2_EEvPT_ = comdat any

$_ZNSt6vectorI6aiFaceSaIS0_EE17_M_default_appendEm = comdat any

$_ZNSt6vectorI6aiFaceSaIS0_EE15_M_erase_at_endEPS0_ = comdat any

$_ZNKSt6vectorI6aiFaceSaIS0_EE8max_sizeEv = comdat any

$_ZSt27__uninitialized_default_n_aIP6aiFacemS0_ET_S2_T0_RSaIT1_E = comdat any

$_ZNKSt6vectorI6aiFaceSaIS0_EE12_M_check_lenEmPKc = comdat any

$_ZSt34__uninitialized_move_if_noexcept_aIP6aiFaceS1_SaIS0_EET0_T_S4_S3_RT1_ = comdat any

$_ZNSt6vectorI6aiFaceSaIS0_EE11_S_max_sizeERKS1_ = comdat any

$_ZNSt16allocator_traitsISaI6aiFaceEE8max_sizeERKS1_ = comdat any

$_ZNKSt15__new_allocatorI6aiFaceE8max_sizeEv = comdat any

$_ZSt25__uninitialized_default_nIP6aiFacemET_S2_T0_ = comdat any

$_ZNSt27__uninitialized_default_n_1ILb0EE18__uninit_default_nIP6aiFacemEET_S4_T0_ = comdat any

$_ZSt10_ConstructI6aiFaceJEEvPT_DpOT0_ = comdat any

$_ZN6aiFaceC2Ev = comdat any

$_ZSt22__uninitialized_copy_aIPK6aiFacePS0_S0_ET0_T_S5_S4_RSaIT1_E = comdat any

$_ZSt32__make_move_if_noexcept_iteratorI6aiFacePKS0_ET0_PT_ = comdat any

$_ZSt18uninitialized_copyIPK6aiFacePS0_ET0_T_S5_S4_ = comdat any

$_ZNSt20__uninitialized_copyILb0EE13__uninit_copyIPK6aiFacePS2_EET0_T_S7_S6_ = comdat any

$_ZSt16__do_uninit_copyIPK6aiFacePS0_ET0_T_S5_S4_ = comdat any

$_ZNSt6vectorIN6Assimp3MD510WeightDescESaIS2_EE17_M_default_appendEm = comdat any

$_ZNSt6vectorIN6Assimp3MD510WeightDescESaIS2_EE15_M_erase_at_endEPS2_ = comdat any

$_ZNKSt6vectorIN6Assimp3MD510WeightDescESaIS2_EE8max_sizeEv = comdat any

$_ZSt27__uninitialized_default_n_aIPN6Assimp3MD510WeightDescEmS2_ET_S4_T0_RSaIT1_E = comdat any

$_ZNKSt6vectorIN6Assimp3MD510WeightDescESaIS2_EE12_M_check_lenEmPKc = comdat any

$_ZNSt6vectorIN6Assimp3MD510WeightDescESaIS2_EE11_S_relocateEPS2_S5_S5_RS3_ = comdat any

$_ZNSt6vectorIN6Assimp3MD510WeightDescESaIS2_EE11_S_max_sizeERKS3_ = comdat any

$_ZNSt16allocator_traitsISaIN6Assimp3MD510WeightDescEEE8max_sizeERKS3_ = comdat any

$_ZNKSt15__new_allocatorIN6Assimp3MD510WeightDescEE8max_sizeEv = comdat any

$_ZSt25__uninitialized_default_nIPN6Assimp3MD510WeightDescEmET_S4_T0_ = comdat any

$_ZNSt27__uninitialized_default_n_1ILb0EE18__uninit_default_nIPN6Assimp3MD510WeightDescEmEET_S6_T0_ = comdat any

$_ZSt10_ConstructIN6Assimp3MD510WeightDescEJEEvPT_DpOT0_ = comdat any

$_ZN6Assimp3MD510WeightDescC2Ev = comdat any

$_ZSt12__relocate_aIPN6Assimp3MD510WeightDescES3_SaIS2_EET0_T_S6_S5_RT1_ = comdat any

$_ZSt14__relocate_a_1IPN6Assimp3MD510WeightDescES3_SaIS2_EET0_T_S6_S5_RT1_ = comdat any

$_ZSt12__niter_baseIPN6Assimp3MD510WeightDescEET_S4_ = comdat any

$_ZSt19__relocate_object_aIN6Assimp3MD510WeightDescES2_SaIS2_EEvPT_PT0_RT1_ = comdat any

$_ZNSt16allocator_traitsISaIN6Assimp3MD510WeightDescEEE9constructIS2_JS2_EEEvRS3_PT_DpOT0_ = comdat any

$_ZNSt16allocator_traitsISaIN6Assimp3MD510WeightDescEEE7destroyIS2_EEvRS3_PT_ = comdat any

$_ZNSt15__new_allocatorIN6Assimp3MD510WeightDescEE9constructIS2_JS2_EEEvPT_DpOT0_ = comdat any

$_ZNSt15__new_allocatorIN6Assimp3MD510WeightDescEE7destroyIS2_EEvPT_ = comdat any

$_ZSt8_DestroyIPN6Assimp3MD512AnimBoneDescES2_EvT_S4_RSaIT0_E = comdat any

$_ZNSt12_Vector_baseIN6Assimp3MD512AnimBoneDescESaIS2_EE19_M_get_Tp_allocatorEv = comdat any

$_ZNSt12_Vector_baseIN6Assimp3MD512AnimBoneDescESaIS2_EED2Ev = comdat any

$_ZSt8_DestroyIPN6Assimp3MD512AnimBoneDescEEvT_S4_ = comdat any

$_ZNSt12_Destroy_auxILb1EE9__destroyIPN6Assimp3MD512AnimBoneDescEEEvT_S6_ = comdat any

$_ZNSt12_Vector_baseIN6Assimp3MD512AnimBoneDescESaIS2_EE13_M_deallocateEPS2_m = comdat any

$_ZNSt12_Vector_baseIN6Assimp3MD512AnimBoneDescESaIS2_EE12_Vector_implD2Ev = comdat any

$_ZNSt16allocator_traitsISaIN6Assimp3MD512AnimBoneDescEEE10deallocateERS3_PS2_m = comdat any

$_ZNSt15__new_allocatorIN6Assimp3MD512AnimBoneDescEE10deallocateEPS2_m = comdat any

$_ZNSaIN6Assimp3MD512AnimBoneDescEED2Ev = comdat any

$_ZNSt15__new_allocatorIN6Assimp3MD512AnimBoneDescEED2Ev = comdat any

$_ZSt8_DestroyIPN6Assimp3MD513BaseFrameDescES2_EvT_S4_RSaIT0_E = comdat any

$_ZNSt12_Vector_baseIN6Assimp3MD513BaseFrameDescESaIS2_EE19_M_get_Tp_allocatorEv = comdat any

$_ZNSt12_Vector_baseIN6Assimp3MD513BaseFrameDescESaIS2_EED2Ev = comdat any

$_ZSt8_DestroyIPN6Assimp3MD513BaseFrameDescEEvT_S4_ = comdat any

$_ZNSt12_Destroy_auxILb1EE9__destroyIPN6Assimp3MD513BaseFrameDescEEEvT_S6_ = comdat any

$_ZNSt12_Vector_baseIN6Assimp3MD513BaseFrameDescESaIS2_EE13_M_deallocateEPS2_m = comdat any

$_ZNSt12_Vector_baseIN6Assimp3MD513BaseFrameDescESaIS2_EE12_Vector_implD2Ev = comdat any

$_ZNSt16allocator_traitsISaIN6Assimp3MD513BaseFrameDescEEE10deallocateERS3_PS2_m = comdat any

$_ZNSt15__new_allocatorIN6Assimp3MD513BaseFrameDescEE10deallocateEPS2_m = comdat any

$_ZNSaIN6Assimp3MD513BaseFrameDescEED2Ev = comdat any

$_ZNSt15__new_allocatorIN6Assimp3MD513BaseFrameDescEED2Ev = comdat any

$_ZSt8_DestroyIPN6Assimp3MD59FrameDescES2_EvT_S4_RSaIT0_E = comdat any

$_ZNSt12_Vector_baseIN6Assimp3MD59FrameDescESaIS2_EE19_M_get_Tp_allocatorEv = comdat any

$_ZNSt12_Vector_baseIN6Assimp3MD59FrameDescESaIS2_EED2Ev = comdat any

$_ZSt8_DestroyIPN6Assimp3MD59FrameDescEEvT_S4_ = comdat any

$_ZNSt12_Destroy_auxILb0EE9__destroyIPN6Assimp3MD59FrameDescEEEvT_S6_ = comdat any

$_ZSt8_DestroyIN6Assimp3MD59FrameDescEEvPT_ = comdat any

$_ZN6Assimp3MD59FrameDescD2Ev = comdat any

$_ZNSt6vectorIfSaIfEED2Ev = comdat any

$_ZSt8_DestroyIPffEvT_S1_RSaIT0_E = comdat any

$_ZNSt12_Vector_baseIfSaIfEE19_M_get_Tp_allocatorEv = comdat any

$_ZNSt12_Vector_baseIfSaIfEED2Ev = comdat any

$_ZSt8_DestroyIPfEvT_S1_ = comdat any

$_ZNSt12_Destroy_auxILb1EE9__destroyIPfEEvT_S3_ = comdat any

$_ZNSt12_Vector_baseIfSaIfEE13_M_deallocateEPfm = comdat any

$_ZNSt12_Vector_baseIfSaIfEE12_Vector_implD2Ev = comdat any

$_ZNSt16allocator_traitsISaIfEE10deallocateERS0_Pfm = comdat any

$_ZNSt15__new_allocatorIfE10deallocateEPfm = comdat any

$_ZNSaIfED2Ev = comdat any

$_ZNSt15__new_allocatorIfED2Ev = comdat any

$_ZNSt12_Vector_baseIN6Assimp3MD59FrameDescESaIS2_EE13_M_deallocateEPS2_m = comdat any

$_ZNSt12_Vector_baseIN6Assimp3MD59FrameDescESaIS2_EE12_Vector_implD2Ev = comdat any

$_ZNSt16allocator_traitsISaIN6Assimp3MD59FrameDescEEE10deallocateERS3_PS2_m = comdat any

$_ZNSt15__new_allocatorIN6Assimp3MD59FrameDescEE10deallocateEPS2_m = comdat any

$_ZNSaIN6Assimp3MD59FrameDescEED2Ev = comdat any

$_ZNSt15__new_allocatorIN6Assimp3MD59FrameDescEED2Ev = comdat any

$_ZNSt16allocator_traitsISaIN6Assimp3MD512AnimBoneDescEEE9constructIS2_JEEEvRS3_PT_DpOT0_ = comdat any

$_ZNSt6vectorIN6Assimp3MD512AnimBoneDescESaIS2_EE17_M_realloc_insertIJEEEvN9__gnu_cxx17__normal_iteratorIPS2_S4_EEDpOT_ = comdat any

$_ZNSt6vectorIN6Assimp3MD512AnimBoneDescESaIS2_EE3endEv = comdat any

$_ZNSt15__new_allocatorIN6Assimp3MD512AnimBoneDescEE9constructIS2_JEEEvPT_DpOT0_ = comdat any

$_ZN6Assimp3MD512AnimBoneDescC2Ev = comdat any

$_ZNKSt6vectorIN6Assimp3MD512AnimBoneDescESaIS2_EE12_M_check_lenEmPKc = comdat any

$_ZN9__gnu_cxxmiIPN6Assimp3MD512AnimBoneDescESt6vectorIS3_SaIS3_EEEENS_17__normal_iteratorIT_T0_E15difference_typeERKSB_SE_ = comdat any

$_ZNSt6vectorIN6Assimp3MD512AnimBoneDescESaIS2_EE5beginEv = comdat any

$_ZNSt12_Vector_baseIN6Assimp3MD512AnimBoneDescESaIS2_EE11_M_allocateEm = comdat any

$_ZSt34__uninitialized_move_if_noexcept_aIPN6Assimp3MD512AnimBoneDescES3_SaIS2_EET0_T_S6_S5_RT1_ = comdat any

$_ZNK9__gnu_cxx17__normal_iteratorIPN6Assimp3MD512AnimBoneDescESt6vectorIS3_SaIS3_EEE4baseEv = comdat any

$_ZNSt16allocator_traitsISaIN6Assimp3MD512AnimBoneDescEEE7destroyIS2_EEvRS3_PT_ = comdat any

$_ZNKSt6vectorIN6Assimp3MD512AnimBoneDescESaIS2_EE8max_sizeEv = comdat any

$_ZNKSt6vectorIN6Assimp3MD512AnimBoneDescESaIS2_EE4sizeEv = comdat any

$_ZNSt6vectorIN6Assimp3MD512AnimBoneDescESaIS2_EE11_S_max_sizeERKS3_ = comdat any

$_ZNKSt12_Vector_baseIN6Assimp3MD512AnimBoneDescESaIS2_EE19_M_get_Tp_allocatorEv = comdat any

$_ZNSt16allocator_traitsISaIN6Assimp3MD512AnimBoneDescEEE8max_sizeERKS3_ = comdat any

$_ZNKSt15__new_allocatorIN6Assimp3MD512AnimBoneDescEE8max_sizeEv = comdat any

$_ZNKSt15__new_allocatorIN6Assimp3MD512AnimBoneDescEE11_M_max_sizeEv = comdat any

$_ZN9__gnu_cxx17__normal_iteratorIPN6Assimp3MD512AnimBoneDescESt6vectorIS3_SaIS3_EEEC2ERKS4_ = comdat any

$_ZNSt16allocator_traitsISaIN6Assimp3MD512AnimBoneDescEEE8allocateERS3_m = comdat any

$_ZNSt15__new_allocatorIN6Assimp3MD512AnimBoneDescEE8allocateEmPKv = comdat any

$_ZSt22__uninitialized_copy_aIPKN6Assimp3MD512AnimBoneDescEPS2_S2_ET0_T_S7_S6_RSaIT1_E = comdat any

$_ZSt32__make_move_if_noexcept_iteratorIN6Assimp3MD512AnimBoneDescEPKS2_ET0_PT_ = comdat any

$_ZSt18uninitialized_copyIPKN6Assimp3MD512AnimBoneDescEPS2_ET0_T_S7_S6_ = comdat any

$_ZNSt20__uninitialized_copyILb0EE13__uninit_copyIPKN6Assimp3MD512AnimBoneDescEPS4_EET0_T_S9_S8_ = comdat any

$_ZSt16__do_uninit_copyIPKN6Assimp3MD512AnimBoneDescEPS2_ET0_T_S7_S6_ = comdat any

$_ZSt10_ConstructIN6Assimp3MD512AnimBoneDescEJRKS2_EEvPT_DpOT0_ = comdat any

$_ZN6Assimp3MD512AnimBoneDescC2ERKS1_ = comdat any

$_ZNSt15__new_allocatorIN6Assimp3MD512AnimBoneDescEE7destroyIS2_EEvPT_ = comdat any

$_ZNK9__gnu_cxx17__normal_iteratorIPN6Assimp3MD512AnimBoneDescESt6vectorIS3_SaIS3_EEEmiEl = comdat any

$_ZNK9__gnu_cxx17__normal_iteratorIPN6Assimp3MD512AnimBoneDescESt6vectorIS3_SaIS3_EEEdeEv = comdat any

$_ZNSt16allocator_traitsISaIN6Assimp3MD513BaseFrameDescEEE9constructIS2_JEEEvRS3_PT_DpOT0_ = comdat any

$_ZNSt6vectorIN6Assimp3MD513BaseFrameDescESaIS2_EE17_M_realloc_insertIJEEEvN9__gnu_cxx17__normal_iteratorIPS2_S4_EEDpOT_ = comdat any

$_ZNSt6vectorIN6Assimp3MD513BaseFrameDescESaIS2_EE3endEv = comdat any

$_ZNSt15__new_allocatorIN6Assimp3MD513BaseFrameDescEE9constructIS2_JEEEvPT_DpOT0_ = comdat any

$_ZN6Assimp3MD513BaseFrameDescC2Ev = comdat any

$_ZNKSt6vectorIN6Assimp3MD513BaseFrameDescESaIS2_EE12_M_check_lenEmPKc = comdat any

$_ZN9__gnu_cxxmiIPN6Assimp3MD513BaseFrameDescESt6vectorIS3_SaIS3_EEEENS_17__normal_iteratorIT_T0_E15difference_typeERKSB_SE_ = comdat any

$_ZNSt6vectorIN6Assimp3MD513BaseFrameDescESaIS2_EE5beginEv = comdat any

$_ZNSt12_Vector_baseIN6Assimp3MD513BaseFrameDescESaIS2_EE11_M_allocateEm = comdat any

$_ZNSt6vectorIN6Assimp3MD513BaseFrameDescESaIS2_EE11_S_relocateEPS2_S5_S5_RS3_ = comdat any

$_ZNK9__gnu_cxx17__normal_iteratorIPN6Assimp3MD513BaseFrameDescESt6vectorIS3_SaIS3_EEE4baseEv = comdat any

$_ZNKSt6vectorIN6Assimp3MD513BaseFrameDescESaIS2_EE8max_sizeEv = comdat any

$_ZNKSt6vectorIN6Assimp3MD513BaseFrameDescESaIS2_EE4sizeEv = comdat any

$_ZNSt6vectorIN6Assimp3MD513BaseFrameDescESaIS2_EE11_S_max_sizeERKS3_ = comdat any

$_ZNKSt12_Vector_baseIN6Assimp3MD513BaseFrameDescESaIS2_EE19_M_get_Tp_allocatorEv = comdat any

$_ZNSt16allocator_traitsISaIN6Assimp3MD513BaseFrameDescEEE8max_sizeERKS3_ = comdat any

$_ZNKSt15__new_allocatorIN6Assimp3MD513BaseFrameDescEE8max_sizeEv = comdat any

$_ZNKSt15__new_allocatorIN6Assimp3MD513BaseFrameDescEE11_M_max_sizeEv = comdat any

$_ZN9__gnu_cxx17__normal_iteratorIPN6Assimp3MD513BaseFrameDescESt6vectorIS3_SaIS3_EEEC2ERKS4_ = comdat any

$_ZNSt16allocator_traitsISaIN6Assimp3MD513BaseFrameDescEEE8allocateERS3_m = comdat any

$_ZNSt15__new_allocatorIN6Assimp3MD513BaseFrameDescEE8allocateEmPKv = comdat any

$_ZSt12__relocate_aIPN6Assimp3MD513BaseFrameDescES3_SaIS2_EET0_T_S6_S5_RT1_ = comdat any

$_ZSt14__relocate_a_1IPN6Assimp3MD513BaseFrameDescES3_SaIS2_EET0_T_S6_S5_RT1_ = comdat any

$_ZSt12__niter_baseIPN6Assimp3MD513BaseFrameDescEET_S4_ = comdat any

$_ZSt19__relocate_object_aIN6Assimp3MD513BaseFrameDescES2_SaIS2_EEvPT_PT0_RT1_ = comdat any

$_ZNSt16allocator_traitsISaIN6Assimp3MD513BaseFrameDescEEE9constructIS2_JS2_EEEvRS3_PT_DpOT0_ = comdat any

$_ZNSt16allocator_traitsISaIN6Assimp3MD513BaseFrameDescEEE7destroyIS2_EEvRS3_PT_ = comdat any

$_ZNSt15__new_allocatorIN6Assimp3MD513BaseFrameDescEE9constructIS2_JS2_EEEvPT_DpOT0_ = comdat any

$_ZNSt15__new_allocatorIN6Assimp3MD513BaseFrameDescEE7destroyIS2_EEvPT_ = comdat any

$_ZNK9__gnu_cxx17__normal_iteratorIPN6Assimp3MD513BaseFrameDescESt6vectorIS3_SaIS3_EEEmiEl = comdat any

$_ZNK9__gnu_cxx17__normal_iteratorIPN6Assimp3MD513BaseFrameDescESt6vectorIS3_SaIS3_EEEdeEv = comdat any

$_ZNSt16allocator_traitsISaIN6Assimp3MD59FrameDescEEE9constructIS2_JEEEvRS3_PT_DpOT0_ = comdat any

$_ZNSt6vectorIN6Assimp3MD59FrameDescESaIS2_EE17_M_realloc_insertIJEEEvN9__gnu_cxx17__normal_iteratorIPS2_S4_EEDpOT_ = comdat any

$_ZNSt6vectorIN6Assimp3MD59FrameDescESaIS2_EE3endEv = comdat any

$_ZNSt15__new_allocatorIN6Assimp3MD59FrameDescEE9constructIS2_JEEEvPT_DpOT0_ = comdat any

$_ZN6Assimp3MD59FrameDescC2Ev = comdat any

$_ZNSt6vectorIfSaIfEEC2Ev = comdat any

$_ZNSt12_Vector_baseIfSaIfEEC2Ev = comdat any

$_ZNSt12_Vector_baseIfSaIfEE12_Vector_implC2Ev = comdat any

$_ZNSaIfEC2Ev = comdat any

$_ZNSt12_Vector_baseIfSaIfEE17_Vector_impl_dataC2Ev = comdat any

$_ZNSt15__new_allocatorIfEC2Ev = comdat any

$_ZNKSt6vectorIN6Assimp3MD59FrameDescESaIS2_EE12_M_check_lenEmPKc = comdat any

$_ZN9__gnu_cxxmiIPN6Assimp3MD59FrameDescESt6vectorIS3_SaIS3_EEEENS_17__normal_iteratorIT_T0_E15difference_typeERKSB_SE_ = comdat any

$_ZNSt6vectorIN6Assimp3MD59FrameDescESaIS2_EE5beginEv = comdat any

$_ZNSt12_Vector_baseIN6Assimp3MD59FrameDescESaIS2_EE11_M_allocateEm = comdat any

$_ZNSt6vectorIN6Assimp3MD59FrameDescESaIS2_EE11_S_relocateEPS2_S5_S5_RS3_ = comdat any

$_ZNK9__gnu_cxx17__normal_iteratorIPN6Assimp3MD59FrameDescESt6vectorIS3_SaIS3_EEE4baseEv = comdat any

$_ZNKSt6vectorIN6Assimp3MD59FrameDescESaIS2_EE8max_sizeEv = comdat any

$_ZNKSt6vectorIN6Assimp3MD59FrameDescESaIS2_EE4sizeEv = comdat any

$_ZNSt6vectorIN6Assimp3MD59FrameDescESaIS2_EE11_S_max_sizeERKS3_ = comdat any

$_ZNKSt12_Vector_baseIN6Assimp3MD59FrameDescESaIS2_EE19_M_get_Tp_allocatorEv = comdat any

$_ZNSt16allocator_traitsISaIN6Assimp3MD59FrameDescEEE8max_sizeERKS3_ = comdat any

$_ZNKSt15__new_allocatorIN6Assimp3MD59FrameDescEE8max_sizeEv = comdat any

$_ZNKSt15__new_allocatorIN6Assimp3MD59FrameDescEE11_M_max_sizeEv = comdat any

$_ZN9__gnu_cxx17__normal_iteratorIPN6Assimp3MD59FrameDescESt6vectorIS3_SaIS3_EEEC2ERKS4_ = comdat any

$_ZNSt16allocator_traitsISaIN6Assimp3MD59FrameDescEEE8allocateERS3_m = comdat any

$_ZNSt15__new_allocatorIN6Assimp3MD59FrameDescEE8allocateEmPKv = comdat any

$_ZSt12__relocate_aIPN6Assimp3MD59FrameDescES3_SaIS2_EET0_T_S6_S5_RT1_ = comdat any

$_ZSt14__relocate_a_1IPN6Assimp3MD59FrameDescES3_SaIS2_EET0_T_S6_S5_RT1_ = comdat any

$_ZSt12__niter_baseIPN6Assimp3MD59FrameDescEET_S4_ = comdat any

$_ZSt19__relocate_object_aIN6Assimp3MD59FrameDescES2_SaIS2_EEvPT_PT0_RT1_ = comdat any

$_ZNSt16allocator_traitsISaIN6Assimp3MD59FrameDescEEE9constructIS2_JS2_EEEvRS3_PT_DpOT0_ = comdat any

$_ZNSt16allocator_traitsISaIN6Assimp3MD59FrameDescEEE7destroyIS2_EEvRS3_PT_ = comdat any

$_ZNSt15__new_allocatorIN6Assimp3MD59FrameDescEE9constructIS2_JS2_EEEvPT_DpOT0_ = comdat any

$_ZN6Assimp3MD59FrameDescC2EOS1_ = comdat any

$_ZNSt6vectorIfSaIfEEC2EOS1_ = comdat any

$_ZNSt12_Vector_baseIfSaIfEEC2EOS1_ = comdat any

$_ZNSt12_Vector_baseIfSaIfEE12_Vector_implC2EOS2_ = comdat any

$_ZNSaIfEC2ERKS_ = comdat any

$_ZNSt12_Vector_baseIfSaIfEE17_Vector_impl_dataC2EOS2_ = comdat any

$_ZNSt15__new_allocatorIfEC2ERKS0_ = comdat any

$_ZNSt15__new_allocatorIN6Assimp3MD59FrameDescEE7destroyIS2_EEvPT_ = comdat any

$_ZNK9__gnu_cxx17__normal_iteratorIPN6Assimp3MD59FrameDescESt6vectorIS3_SaIS3_EEEmiEl = comdat any

$_ZNK9__gnu_cxx17__normal_iteratorIPN6Assimp3MD59FrameDescESt6vectorIS3_SaIS3_EEEdeEv = comdat any

$_ZNKSt6vectorIfSaIfEE8max_sizeEv = comdat any

$_ZNKSt6vectorIfSaIfEE8capacityEv = comdat any

$_ZNKSt6vectorIfSaIfEE4sizeEv = comdat any

$_ZNSt12_Vector_baseIfSaIfEE11_M_allocateEm = comdat any

$_ZNSt6vectorIfSaIfEE11_S_relocateEPfS2_S2_RS0_ = comdat any

$_ZNSt6vectorIfSaIfEE11_S_max_sizeERKS0_ = comdat any

$_ZNKSt12_Vector_baseIfSaIfEE19_M_get_Tp_allocatorEv = comdat any

$_ZNSt16allocator_traitsISaIfEE8max_sizeERKS0_ = comdat any

$_ZNKSt15__new_allocatorIfE8max_sizeEv = comdat any

$_ZNKSt15__new_allocatorIfE11_M_max_sizeEv = comdat any

$_ZNSt16allocator_traitsISaIfEE8allocateERS0_m = comdat any

$_ZNSt15__new_allocatorIfE8allocateEmPKv = comdat any

$_ZSt12__relocate_aIPfS0_SaIfEET0_T_S3_S2_RT1_ = comdat any

$_ZSt14__relocate_a_1IffENSt9enable_ifIXsr3std24__is_bitwise_relocatableIT_EE5valueEPS1_E4typeES2_S2_S2_RSaIT0_E = comdat any

$_ZSt12__niter_baseIPfET_S1_ = comdat any

$_ZNSt16allocator_traitsISaIfEE9constructIfJRKfEEEvRS0_PT_DpOT0_ = comdat any

$_ZNSt6vectorIfSaIfEE17_M_realloc_insertIJRKfEEEvN9__gnu_cxx17__normal_iteratorIPfS1_EEDpOT_ = comdat any

$_ZNSt6vectorIfSaIfEE3endEv = comdat any

$_ZNSt15__new_allocatorIfE9constructIfJRKfEEEvPT_DpOT0_ = comdat any

$_ZNKSt6vectorIfSaIfEE12_M_check_lenEmPKc = comdat any

$_ZN9__gnu_cxxmiIPfSt6vectorIfSaIfEEEENS_17__normal_iteratorIT_T0_E15difference_typeERKS8_SB_ = comdat any

$_ZNSt6vectorIfSaIfEE5beginEv = comdat any

$_ZNK9__gnu_cxx17__normal_iteratorIPfSt6vectorIfSaIfEEE4baseEv = comdat any

$_ZN9__gnu_cxx17__normal_iteratorIPfSt6vectorIfSaIfEEEC2ERKS1_ = comdat any

$_ZNKSt6vectorIN6Assimp3MD59FrameDescESaIS2_EE8capacityEv = comdat any

$_ZNKSt6vectorIN6Assimp3MD512AnimBoneDescESaIS2_EE8capacityEv = comdat any

$_ZNSt6vectorIN6Assimp3MD512AnimBoneDescESaIS2_EE20_M_allocate_and_copyIPKS2_EEPS2_mT_S9_ = comdat any

$_ZSt8_DestroyIPjjEvT_S1_RSaIT0_E = comdat any

$_ZNSt12_Vector_baseIjSaIjEE19_M_get_Tp_allocatorEv = comdat any

$_ZNSt12_Vector_baseIjSaIjEED2Ev = comdat any

$_ZSt8_DestroyIPjEvT_S1_ = comdat any

$_ZNSt12_Destroy_auxILb1EE9__destroyIPjEEvT_S3_ = comdat any

$_ZNSt12_Vector_baseIjSaIjEE13_M_deallocateEPjm = comdat any

$_ZNSt12_Vector_baseIjSaIjEE12_Vector_implD2Ev = comdat any

$_ZNSt16allocator_traitsISaIjEE10deallocateERS0_Pjm = comdat any

$_ZNSt15__new_allocatorIjE10deallocateEPjm = comdat any

$_ZNSaIjED2Ev = comdat any

$_ZNSt15__new_allocatorIjED2Ev = comdat any

$_ZSt8_DestroyIPN6Assimp3MD519CameraAnimFrameDescES2_EvT_S4_RSaIT0_E = comdat any

$_ZNSt12_Vector_baseIN6Assimp3MD519CameraAnimFrameDescESaIS2_EE19_M_get_Tp_allocatorEv = comdat any

$_ZNSt12_Vector_baseIN6Assimp3MD519CameraAnimFrameDescESaIS2_EED2Ev = comdat any

$_ZSt8_DestroyIPN6Assimp3MD519CameraAnimFrameDescEEvT_S4_ = comdat any

$_ZNSt12_Destroy_auxILb1EE9__destroyIPN6Assimp3MD519CameraAnimFrameDescEEEvT_S6_ = comdat any

$_ZNSt12_Vector_baseIN6Assimp3MD519CameraAnimFrameDescESaIS2_EE13_M_deallocateEPS2_m = comdat any

$_ZNSt12_Vector_baseIN6Assimp3MD519CameraAnimFrameDescESaIS2_EE12_Vector_implD2Ev = comdat any

$_ZNSt16allocator_traitsISaIN6Assimp3MD519CameraAnimFrameDescEEE10deallocateERS3_PS2_m = comdat any

$_ZNSt15__new_allocatorIN6Assimp3MD519CameraAnimFrameDescEE10deallocateEPS2_m = comdat any

$_ZNSaIN6Assimp3MD519CameraAnimFrameDescEED2Ev = comdat any

$_ZNSt15__new_allocatorIN6Assimp3MD519CameraAnimFrameDescEED2Ev = comdat any

$_ZNKSt6vectorIN6Assimp3MD519CameraAnimFrameDescESaIS2_EE8max_sizeEv = comdat any

$_ZNKSt6vectorIN6Assimp3MD519CameraAnimFrameDescESaIS2_EE8capacityEv = comdat any

$_ZNKSt6vectorIN6Assimp3MD519CameraAnimFrameDescESaIS2_EE4sizeEv = comdat any

$_ZNSt12_Vector_baseIN6Assimp3MD519CameraAnimFrameDescESaIS2_EE11_M_allocateEm = comdat any

$_ZNSt6vectorIN6Assimp3MD519CameraAnimFrameDescESaIS2_EE11_S_relocateEPS2_S5_S5_RS3_ = comdat any

$_ZNSt6vectorIN6Assimp3MD519CameraAnimFrameDescESaIS2_EE11_S_max_sizeERKS3_ = comdat any

$_ZNKSt12_Vector_baseIN6Assimp3MD519CameraAnimFrameDescESaIS2_EE19_M_get_Tp_allocatorEv = comdat any

$_ZNSt16allocator_traitsISaIN6Assimp3MD519CameraAnimFrameDescEEE8max_sizeERKS3_ = comdat any

$_ZNKSt15__new_allocatorIN6Assimp3MD519CameraAnimFrameDescEE8max_sizeEv = comdat any

$_ZNKSt15__new_allocatorIN6Assimp3MD519CameraAnimFrameDescEE11_M_max_sizeEv = comdat any

$_ZNSt16allocator_traitsISaIN6Assimp3MD519CameraAnimFrameDescEEE8allocateERS3_m = comdat any

$_ZNSt15__new_allocatorIN6Assimp3MD519CameraAnimFrameDescEE8allocateEmPKv = comdat any

$_ZSt12__relocate_aIPN6Assimp3MD519CameraAnimFrameDescES3_SaIS2_EET0_T_S6_S5_RT1_ = comdat any

$_ZSt14__relocate_a_1IPN6Assimp3MD519CameraAnimFrameDescES3_SaIS2_EET0_T_S6_S5_RT1_ = comdat any

$_ZSt12__niter_baseIPN6Assimp3MD519CameraAnimFrameDescEET_S4_ = comdat any

$_ZSt19__relocate_object_aIN6Assimp3MD519CameraAnimFrameDescES2_SaIS2_EEvPT_PT0_RT1_ = comdat any

$_ZNSt16allocator_traitsISaIN6Assimp3MD519CameraAnimFrameDescEEE9constructIS2_JS2_EEEvRS3_PT_DpOT0_ = comdat any

$_ZNSt16allocator_traitsISaIN6Assimp3MD519CameraAnimFrameDescEEE7destroyIS2_EEvRS3_PT_ = comdat any

$_ZNSt15__new_allocatorIN6Assimp3MD519CameraAnimFrameDescEE9constructIS2_JS2_EEEvPT_DpOT0_ = comdat any

$_ZNSt15__new_allocatorIN6Assimp3MD519CameraAnimFrameDescEE7destroyIS2_EEvPT_ = comdat any

$_ZNKSt6vectorIjSaIjEE8max_sizeEv = comdat any

$_ZNKSt6vectorIjSaIjEE8capacityEv = comdat any

$_ZNKSt6vectorIjSaIjEE4sizeEv = comdat any

$_ZNSt12_Vector_baseIjSaIjEE11_M_allocateEm = comdat any

$_ZNSt6vectorIjSaIjEE11_S_relocateEPjS2_S2_RS0_ = comdat any

$_ZNSt6vectorIjSaIjEE11_S_max_sizeERKS0_ = comdat any

$_ZNKSt12_Vector_baseIjSaIjEE19_M_get_Tp_allocatorEv = comdat any

$_ZNSt16allocator_traitsISaIjEE8max_sizeERKS0_ = comdat any

$_ZNKSt15__new_allocatorIjE8max_sizeEv = comdat any

$_ZNKSt15__new_allocatorIjE11_M_max_sizeEv = comdat any

$_ZNSt16allocator_traitsISaIjEE8allocateERS0_m = comdat any

$_ZNSt15__new_allocatorIjE8allocateEmPKv = comdat any

$_ZSt12__relocate_aIPjS0_SaIjEET0_T_S3_S2_RT1_ = comdat any

$_ZSt14__relocate_a_1IjjENSt9enable_ifIXsr3std24__is_bitwise_relocatableIT_EE5valueEPS1_E4typeES2_S2_S2_RSaIT0_E = comdat any

$_ZSt12__niter_baseIPjET_S1_ = comdat any

$_ZNSt6vectorIjSaIjEE12emplace_backIJjEEERjDpOT_ = comdat any

$_ZNSt16allocator_traitsISaIjEE9constructIjJjEEEvRS0_PT_DpOT0_ = comdat any

$_ZNSt6vectorIjSaIjEE17_M_realloc_insertIJjEEEvN9__gnu_cxx17__normal_iteratorIPjS1_EEDpOT_ = comdat any

$_ZNSt6vectorIjSaIjEE3endEv = comdat any

$_ZNSt6vectorIjSaIjEE4backEv = comdat any

$_ZNSt15__new_allocatorIjE9constructIjJjEEEvPT_DpOT0_ = comdat any

$_ZNKSt6vectorIjSaIjEE12_M_check_lenEmPKc = comdat any

$_ZN9__gnu_cxxmiIPjSt6vectorIjSaIjEEEENS_17__normal_iteratorIT_T0_E15difference_typeERKS8_SB_ = comdat any

$_ZNSt6vectorIjSaIjEE5beginEv = comdat any

$_ZNK9__gnu_cxx17__normal_iteratorIPjSt6vectorIjSaIjEEE4baseEv = comdat any

$_ZN9__gnu_cxx17__normal_iteratorIPjSt6vectorIjSaIjEEEC2ERKS1_ = comdat any

$_ZNK9__gnu_cxx17__normal_iteratorIPjSt6vectorIjSaIjEEEmiEl = comdat any

$_ZNK9__gnu_cxx17__normal_iteratorIPjSt6vectorIjSaIjEEEdeEv = comdat any

$_ZNSt16allocator_traitsISaIN6Assimp3MD519CameraAnimFrameDescEEE9constructIS2_JEEEvRS3_PT_DpOT0_ = comdat any

$_ZNSt6vectorIN6Assimp3MD519CameraAnimFrameDescESaIS2_EE17_M_realloc_insertIJEEEvN9__gnu_cxx17__normal_iteratorIPS2_S4_EEDpOT_ = comdat any

$_ZNSt6vectorIN6Assimp3MD519CameraAnimFrameDescESaIS2_EE3endEv = comdat any

$_ZNSt15__new_allocatorIN6Assimp3MD519CameraAnimFrameDescEE9constructIS2_JEEEvPT_DpOT0_ = comdat any

$_ZN6Assimp3MD519CameraAnimFrameDescC2Ev = comdat any

$_ZNKSt6vectorIN6Assimp3MD519CameraAnimFrameDescESaIS2_EE12_M_check_lenEmPKc = comdat any

$_ZN9__gnu_cxxmiIPN6Assimp3MD519CameraAnimFrameDescESt6vectorIS3_SaIS3_EEEENS_17__normal_iteratorIT_T0_E15difference_typeERKSB_SE_ = comdat any

$_ZNSt6vectorIN6Assimp3MD519CameraAnimFrameDescESaIS2_EE5beginEv = comdat any

$_ZNK9__gnu_cxx17__normal_iteratorIPN6Assimp3MD519CameraAnimFrameDescESt6vectorIS3_SaIS3_EEE4baseEv = comdat any

$_ZN9__gnu_cxx17__normal_iteratorIPN6Assimp3MD519CameraAnimFrameDescESt6vectorIS3_SaIS3_EEEC2ERKS4_ = comdat any

$_ZNK9__gnu_cxx17__normal_iteratorIPN6Assimp3MD519CameraAnimFrameDescESt6vectorIS3_SaIS3_EEEmiEl = comdat any

$_ZNK9__gnu_cxx17__normal_iteratorIPN6Assimp3MD519CameraAnimFrameDescESt6vectorIS3_SaIS3_EEEdeEv = comdat any

$_ZTS17DeadlyImportError = comdat any

$_ZTS15DeadlyErrorBase = comdat any

$_ZTI15DeadlyErrorBase = comdat any

$_ZTI17DeadlyImportError = comdat any

$_ZTVN6Assimp8IOStreamE = comdat any

$_ZTSN6Assimp8IOStreamE = comdat any

$_ZTSN6Assimp6Intern22AllocateFromAssimpHeapE = comdat any

$_ZTIN6Assimp6Intern22AllocateFromAssimpHeapE = comdat any

$_ZTIN6Assimp8IOStreamE = comdat any

$_ZTVN6Assimp9LogStreamE = comdat any

$_ZTSN6Assimp9LogStreamE = comdat any

$_ZTIN6Assimp9LogStreamE = comdat any

$_ZTVN6Assimp6LoggerE = comdat any

$_ZTSN6Assimp6LoggerE = comdat any

$_ZTIN6Assimp6LoggerE = comdat any

$_ZTV17DeadlyImportError = comdat any

@.str = private unnamed_addr constant [16 x i8] c"MD5Parser begin\00", align 1
@.str.1 = private unnamed_addr constant [34 x i8] c"MD5Parser end. Parsed %i sections\00", align 1
@.str.2 = private unnamed_addr constant [18 x i8] c"[MD5] Line %u: %s\00", align 1
@_ZTVN10__cxxabiv120__si_class_type_infoE = external global [0 x ptr]
@_ZTS17DeadlyImportError = linkonce_odr constant [20 x i8] c"17DeadlyImportError\00", comdat, align 1
@_ZTS15DeadlyErrorBase = linkonce_odr constant [18 x i8] c"15DeadlyErrorBase\00", comdat, align 1
@_ZTISt13runtime_error = external constant ptr
@_ZTI15DeadlyErrorBase = linkonce_odr constant { ptr, ptr, ptr } { ptr getelementptr inbounds (ptr, ptr @_ZTVN10__cxxabiv120__si_class_type_infoE, i64 2), ptr @_ZTS15DeadlyErrorBase, ptr @_ZTISt13runtime_error }, comdat, align 8
@_ZTI17DeadlyImportError = linkonce_odr constant { ptr, ptr, ptr } { ptr getelementptr inbounds (ptr, ptr @_ZTVN10__cxxabiv120__si_class_type_infoE, i64 2), ptr @_ZTS17DeadlyImportError, ptr @_ZTI15DeadlyErrorBase }, comdat, align 8
@.str.3 = private unnamed_addr constant [11 x i8] c"MD5Version\00", align 1
@.str.4 = private unnamed_addr constant [52 x i8] c"Invalid MD5 file: MD5Version tag has not been found\00", align 1
@.str.5 = private unnamed_addr constant [44 x i8] c"MD5 version tag is unknown (10 is expected)\00", align 1
@.str.6 = private unnamed_addr constant [20 x i8] c"MD5MeshParser begin\00", align 1
@.str.7 = private unnamed_addr constant [10 x i8] c"numMeshes\00", align 1
@.str.8 = private unnamed_addr constant [10 x i8] c"numJoints\00", align 1
@.str.9 = private unnamed_addr constant [7 x i8] c"joints\00", align 1
@.str.10 = private unnamed_addr constant [23 x i8] c"Unexpected end of line\00", align 1
@.str.11 = private unnamed_addr constant [33 x i8] c"Unexpected token: ( was expected\00", align 1
@.str.12 = private unnamed_addr constant [33 x i8] c"Unexpected token: ) was expected\00", align 1
@.str.13 = private unnamed_addr constant [5 x i8] c"mesh\00", align 1
@.str.14 = private unnamed_addr constant [7 x i8] c"shader\00", align 1
@.str.15 = private unnamed_addr constant [9 x i8] c"numverts\00", align 1
@.str.16 = private unnamed_addr constant [8 x i8] c"numtris\00", align 1
@.str.17 = private unnamed_addr constant [11 x i8] c"numweights\00", align 1
@.str.18 = private unnamed_addr constant [5 x i8] c"vert\00", align 1
@.str.19 = private unnamed_addr constant [4 x i8] c"tri\00", align 1
@.str.20 = private unnamed_addr constant [7 x i8] c"weight\00", align 1
@.str.21 = private unnamed_addr constant [18 x i8] c"MD5MeshParser end\00", align 1
@.str.22 = private unnamed_addr constant [20 x i8] c"MD5AnimParser begin\00", align 1
@.str.23 = private unnamed_addr constant [10 x i8] c"hierarchy\00", align 1
@.str.24 = private unnamed_addr constant [46 x i8] c"Invalid flag combination in hierarchy section\00", align 1
@.str.25 = private unnamed_addr constant [10 x i8] c"baseframe\00", align 1
@.str.26 = private unnamed_addr constant [6 x i8] c"frame\00", align 1
@.str.27 = private unnamed_addr constant [40 x i8] c"A frame section must have a frame index\00", align 1
@.str.28 = private unnamed_addr constant [10 x i8] c"numFrames\00", align 1
@.str.29 = private unnamed_addr constant [22 x i8] c"numAnimatedComponents\00", align 1
@.str.30 = private unnamed_addr constant [10 x i8] c"frameRate\00", align 1
@.str.31 = private unnamed_addr constant [18 x i8] c"MD5AnimParser end\00", align 1
@.str.32 = private unnamed_addr constant [22 x i8] c"MD5CameraParser begin\00", align 1
@.str.33 = private unnamed_addr constant [8 x i8] c"numCuts\00", align 1
@.str.34 = private unnamed_addr constant [5 x i8] c"cuts\00", align 1
@.str.35 = private unnamed_addr constant [7 x i8] c"camera\00", align 1
@.str.36 = private unnamed_addr constant [20 x i8] c"MD5CameraParser end\00", align 1
@_ZTVN6Assimp8IOStreamE = linkonce_odr unnamed_addr constant { [10 x ptr] } { [10 x ptr] [ptr null, ptr @_ZTIN6Assimp8IOStreamE, ptr @_ZN6Assimp8IOStreamD2Ev, ptr @_ZN6Assimp8IOStreamD0Ev, ptr @__cxa_pure_virtual, ptr @__cxa_pure_virtual, ptr @__cxa_pure_virtual, ptr @__cxa_pure_virtual, ptr @__cxa_pure_virtual, ptr @__cxa_pure_virtual] }, comdat, align 8
@_ZTSN6Assimp8IOStreamE = linkonce_odr constant [19 x i8] c"N6Assimp8IOStreamE\00", comdat, align 1
@_ZTVN10__cxxabiv117__class_type_infoE = external global [0 x ptr]
@_ZTSN6Assimp6Intern22AllocateFromAssimpHeapE = linkonce_odr constant [41 x i8] c"N6Assimp6Intern22AllocateFromAssimpHeapE\00", comdat, align 1
@_ZTIN6Assimp6Intern22AllocateFromAssimpHeapE = linkonce_odr constant { ptr, ptr } { ptr getelementptr inbounds (ptr, ptr @_ZTVN10__cxxabiv117__class_type_infoE, i64 2), ptr @_ZTSN6Assimp6Intern22AllocateFromAssimpHeapE }, comdat, align 8
@_ZTIN6Assimp8IOStreamE = linkonce_odr constant { ptr, ptr, ptr } { ptr getelementptr inbounds (ptr, ptr @_ZTVN10__cxxabiv120__si_class_type_infoE, i64 2), ptr @_ZTSN6Assimp8IOStreamE, ptr @_ZTIN6Assimp6Intern22AllocateFromAssimpHeapE }, comdat, align 8
@_ZTVN6Assimp9LogStreamE = linkonce_odr unnamed_addr constant { [5 x ptr] } { [5 x ptr] [ptr null, ptr @_ZTIN6Assimp9LogStreamE, ptr @_ZN6Assimp9LogStreamD2Ev, ptr @_ZN6Assimp9LogStreamD0Ev, ptr @__cxa_pure_virtual] }, comdat, align 8
@_ZTSN6Assimp9LogStreamE = linkonce_odr constant [20 x i8] c"N6Assimp9LogStreamE\00", comdat, align 1
@_ZTIN6Assimp9LogStreamE = linkonce_odr constant { ptr, ptr, ptr } { ptr getelementptr inbounds (ptr, ptr @_ZTVN10__cxxabiv120__si_class_type_infoE, i64 2), ptr @_ZTSN6Assimp9LogStreamE, ptr @_ZTIN6Assimp6Intern22AllocateFromAssimpHeapE }, comdat, align 8
@_ZTVN6Assimp6LoggerE = linkonce_odr unnamed_addr constant { [11 x ptr] } { [11 x ptr] [ptr null, ptr @_ZTIN6Assimp6LoggerE, ptr @_ZN6Assimp6LoggerD2Ev, ptr @_ZN6Assimp6LoggerD0Ev, ptr @__cxa_pure_virtual, ptr @__cxa_pure_virtual, ptr @__cxa_pure_virtual, ptr @__cxa_pure_virtual, ptr @__cxa_pure_virtual, ptr @__cxa_pure_virtual, ptr @__cxa_pure_virtual] }, comdat, align 8
@_ZTSN6Assimp6LoggerE = linkonce_odr constant [17 x i8] c"N6Assimp6LoggerE\00", comdat, align 1
@_ZTIN6Assimp6LoggerE = linkonce_odr constant { ptr, ptr, ptr } { ptr getelementptr inbounds (ptr, ptr @_ZTVN10__cxxabiv120__si_class_type_infoE, i64 2), ptr @_ZTSN6Assimp6LoggerE, ptr @_ZTIN6Assimp6Intern22AllocateFromAssimpHeapE }, comdat, align 8
@.str.37 = private unnamed_addr constant [24 x i8] c"Converting the string \22\00", align 1
@.str.38 = private unnamed_addr constant [47 x i8] c"\22 into an inverted value resulted in overflow.\00", align 1
@.str.39 = private unnamed_addr constant [26 x i8] c"vector::_M_realloc_insert\00", align 1
@_ZTV17DeadlyImportError = linkonce_odr unnamed_addr constant { [5 x ptr] } { [5 x ptr] [ptr null, ptr @_ZTI17DeadlyImportError, ptr @_ZN17DeadlyImportErrorD2Ev, ptr @_ZN17DeadlyImportErrorD0Ev, ptr @_ZNKSt13runtime_error4whatEv] }, comdat, align 8
@.str.40 = private unnamed_addr constant [16 x i8] c"vector::reserve\00", align 1
@.str.41 = private unnamed_addr constant [4 x i8] c"nan\00", align 1
@.str.42 = private unnamed_addr constant [4 x i8] c"inf\00", align 1
@.str.43 = private unnamed_addr constant [6 x i8] c"inity\00", align 1
@.str.44 = private unnamed_addr constant [22 x i8] c"Cannot parse string \22\00", align 1
@.str.45 = private unnamed_addr constant [82 x i8] c"\22 as a real number: does not start with digit or decimal point followed by digit.\00", align 1
@_ZN6AssimpL15fast_atof_tableE = internal constant [16 x double] [double 0.000000e+00, double 1.000000e-01, double 1.000000e-02, double 1.000000e-03, double 1.000000e-04, double 1.000000e-05, double 0x3EB0C6F7A0B5ED8D, double 0x3E7AD7F29ABCAF48, double 1.000000e-08, double 1.000000e-09, double 1.000000e-10, double 0x3DA5FD7FE1796495, double 0x3D719799812DEA11, double 1.000000e-13, double 0x3D06849B86A12B9B, double 1.000000e-15], align 16
@.str.46 = private unnamed_addr constant [13 x i8] c"The string \22\00", align 1
@.str.47 = private unnamed_addr constant [36 x i8] c"\22 cannot be converted into a value.\00", align 1
@.str.48 = private unnamed_addr constant [37 x i8] c"\22 into a value resulted in overflow.\00", align 1
@.str.49 = private unnamed_addr constant [26 x i8] c"vector::_M_default_append\00", align 1

@_ZN6Assimp3MD59MD5ParserC1EPcj = hidden unnamed_addr alias void (ptr, ptr, i32), ptr @_ZN6Assimp3MD59MD5ParserC2EPcj
@_ZN6Assimp3MD513MD5MeshParserC1ERSt6vectorINS0_7SectionESaIS3_EE = hidden unnamed_addr alias void (ptr, ptr), ptr @_ZN6Assimp3MD513MD5MeshParserC2ERSt6vectorINS0_7SectionESaIS3_EE
@_ZN6Assimp3MD513MD5AnimParserC1ERSt6vectorINS0_7SectionESaIS3_EE = hidden unnamed_addr alias void (ptr, ptr), ptr @_ZN6Assimp3MD513MD5AnimParserC2ERSt6vectorINS0_7SectionESaIS3_EE
@_ZN6Assimp3MD515MD5CameraParserC1ERSt6vectorINS0_7SectionESaIS3_EE = hidden unnamed_addr alias void (ptr, ptr), ptr @_ZN6Assimp3MD515MD5CameraParserC2ERSt6vectorINS0_7SectionESaIS3_EE

; Function Attrs: mustprogress nounwind uwtable
define linkonce_odr void @_ZN6Assimp8IOStreamD0Ev(ptr noundef nonnull align 8 dereferenceable(8) %this) unnamed_addr #0 comdat align 2 {
entry:
  %this.addr = alloca ptr, align 8
  store ptr %this, ptr %this.addr, align 8
  call void @llvm.trap() #14
  unreachable
}

; Function Attrs: cold noreturn nounwind memory(inaccessiblemem: write)
declare void @llvm.trap() #1

; Function Attrs: mustprogress nounwind uwtable
define linkonce_odr void @_ZN6Assimp9LogStreamD0Ev(ptr noundef nonnull align 8 dereferenceable(8) %this) unnamed_addr #0 comdat align 2 {
entry:
  %this.addr = alloca ptr, align 8
  store ptr %this, ptr %this.addr, align 8
  call void @llvm.trap() #14
  unreachable
}

; Function Attrs: mustprogress nounwind uwtable
define linkonce_odr void @_ZN6Assimp6LoggerD0Ev(ptr noundef nonnull align 8 dereferenceable(12) %this) unnamed_addr #0 comdat align 2 {
entry:
  %this.addr = alloca ptr, align 8
  store ptr %this, ptr %this.addr, align 8
  call void @llvm.trap() #14
  unreachable
}

; Function Attrs: mustprogress uwtable
define hidden void @_ZN6Assimp3MD59MD5ParserC2EPcj(ptr noundef nonnull align 8 dereferenceable(48) %this, ptr noundef %_buffer, i32 noundef %_fileSize) unnamed_addr #2 align 2 personality ptr @__gxx_personality_v0 {
entry:
  %this.addr = alloca ptr, align 8
  %_buffer.addr = alloca ptr, align 8
  %_fileSize.addr = alloca i32, align 4
  %exn.slot = alloca ptr, align 8
  %ehselector.slot = alloca i32, align 4
  %running = alloca i8, align 1
  %sec = alloca ptr, align 8
  %szBuffer = alloca [128 x i8], align 16
  store ptr %this, ptr %this.addr, align 8
  store ptr %_buffer, ptr %_buffer.addr, align 8
  store i32 %_fileSize, ptr %_fileSize.addr, align 4
  %this1 = load ptr, ptr %this.addr, align 8
  %mSections = getelementptr inbounds %"class.Assimp::MD5::MD5Parser", ptr %this1, i32 0, i32 0
  call void @_ZNSt6vectorIN6Assimp3MD57SectionESaIS2_EEC2Ev(ptr noundef nonnull align 8 dereferenceable(24) %mSections) #15
  %buffer = getelementptr inbounds %"class.Assimp::MD5::MD5Parser", ptr %this1, i32 0, i32 1
  %0 = load ptr, ptr %_buffer.addr, align 8
  store ptr %0, ptr %buffer, align 8
  %bufferEnd = getelementptr inbounds %"class.Assimp::MD5::MD5Parser", ptr %this1, i32 0, i32 2
  store ptr null, ptr %bufferEnd, align 8
  %fileSize = getelementptr inbounds %"class.Assimp::MD5::MD5Parser", ptr %this1, i32 0, i32 3
  %1 = load i32, ptr %_fileSize.addr, align 4
  store i32 %1, ptr %fileSize, align 8
  %lineNumber = getelementptr inbounds %"class.Assimp::MD5::MD5Parser", ptr %this1, i32 0, i32 4
  store i32 0, ptr %lineNumber, align 4
  %buffer2 = getelementptr inbounds %"class.Assimp::MD5::MD5Parser", ptr %this1, i32 0, i32 1
  %2 = load ptr, ptr %buffer2, align 8
  %fileSize3 = getelementptr inbounds %"class.Assimp::MD5::MD5Parser", ptr %this1, i32 0, i32 3
  %3 = load i32, ptr %fileSize3, align 8
  %idx.ext = zext i32 %3 to i64
  %add.ptr = getelementptr inbounds i8, ptr %2, i64 %idx.ext
  %bufferEnd4 = getelementptr inbounds %"class.Assimp::MD5::MD5Parser", ptr %this1, i32 0, i32 2
  store ptr %add.ptr, ptr %bufferEnd4, align 8
  %call = invoke noundef ptr @_ZN6Assimp13DefaultLogger3getEv()
          to label %invoke.cont unwind label %lpad

invoke.cont:                                      ; preds = %entry
  invoke void @_ZN6Assimp6Logger5debugEPKc(ptr noundef nonnull align 8 dereferenceable(12) %call, ptr noundef @.str)
          to label %invoke.cont5 unwind label %lpad

invoke.cont5:                                     ; preds = %invoke.cont
  invoke void @_ZN6Assimp3MD59MD5Parser11ParseHeaderEv(ptr noundef nonnull align 8 dereferenceable(48) %this1)
          to label %invoke.cont6 unwind label %lpad

invoke.cont6:                                     ; preds = %invoke.cont5
  store i8 1, ptr %running, align 1
  br label %while.cond

while.cond:                                       ; preds = %if.end, %invoke.cont6
  %4 = load i8, ptr %running, align 1
  %tobool = trunc i8 %4 to i1
  br i1 %tobool, label %while.body, label %while.end

while.body:                                       ; preds = %while.cond
  %mSections7 = getelementptr inbounds %"class.Assimp::MD5::MD5Parser", ptr %this1, i32 0, i32 0
  %call9 = invoke noundef nonnull align 8 dereferenceable(96) ptr @_ZNSt6vectorIN6Assimp3MD57SectionESaIS2_EE12emplace_backIJEEERS2_DpOT_(ptr noundef nonnull align 8 dereferenceable(24) %mSections7)
          to label %invoke.cont8 unwind label %lpad

invoke.cont8:                                     ; preds = %while.body
  %mSections10 = getelementptr inbounds %"class.Assimp::MD5::MD5Parser", ptr %this1, i32 0, i32 0
  %call11 = call noundef nonnull align 8 dereferenceable(96) ptr @_ZNSt6vectorIN6Assimp3MD57SectionESaIS2_EE4backEv(ptr noundef nonnull align 8 dereferenceable(24) %mSections10) #15
  store ptr %call11, ptr %sec, align 8
  %5 = load ptr, ptr %sec, align 8
  %call13 = invoke noundef zeroext i1 @_ZN6Assimp3MD59MD5Parser12ParseSectionERNS0_7SectionE(ptr noundef nonnull align 8 dereferenceable(48) %this1, ptr noundef nonnull align 8 dereferenceable(96) %5)
          to label %invoke.cont12 unwind label %lpad

invoke.cont12:                                    ; preds = %invoke.cont8
  br i1 %call13, label %if.end, label %if.then

if.then:                                          ; preds = %invoke.cont12
  br label %while.end

lpad:                                             ; preds = %invoke.cont20, %if.then16, %while.end, %invoke.cont8, %while.body, %invoke.cont5, %invoke.cont, %entry
  %6 = landingpad { ptr, i32 }
          cleanup
  %7 = extractvalue { ptr, i32 } %6, 0
  store ptr %7, ptr %exn.slot, align 8
  %8 = extractvalue { ptr, i32 } %6, 1
  store i32 %8, ptr %ehselector.slot, align 4
  call void @_ZNSt6vectorIN6Assimp3MD57SectionESaIS2_EED2Ev(ptr noundef nonnull align 8 dereferenceable(24) %mSections) #15
  br label %eh.resume

if.end:                                           ; preds = %invoke.cont12
  br label %while.cond, !llvm.loop !4

while.end:                                        ; preds = %if.then, %while.cond
  %call15 = invoke noundef zeroext i1 @_ZN6Assimp13DefaultLogger12isNullLoggerEv()
          to label %invoke.cont14 unwind label %lpad

invoke.cont14:                                    ; preds = %while.end
  br i1 %call15, label %if.end23, label %if.then16

if.then16:                                        ; preds = %invoke.cont14
  %arraydecay = getelementptr inbounds [128 x i8], ptr %szBuffer, i64 0, i64 0
  %mSections17 = getelementptr inbounds %"class.Assimp::MD5::MD5Parser", ptr %this1, i32 0, i32 0
  %call18 = call noundef i64 @_ZNKSt6vectorIN6Assimp3MD57SectionESaIS2_EE4sizeEv(ptr noundef nonnull align 8 dereferenceable(24) %mSections17) #15
  %conv = trunc i64 %call18 to i32
  %call19 = call i32 (ptr, i64, ptr, ...) @snprintf(ptr noundef %arraydecay, i64 noundef 128, ptr noundef @.str.1, i32 noundef %conv) #15
  %call21 = invoke noundef ptr @_ZN6Assimp13DefaultLogger3getEv()
          to label %invoke.cont20 unwind label %lpad

invoke.cont20:                                    ; preds = %if.then16
  invoke void @_ZN6Assimp6Logger5debugIJRA128_cEEEvDpOT_(ptr noundef nonnull align 8 dereferenceable(12) %call21, ptr noundef nonnull align 1 dereferenceable(128) %szBuffer)
          to label %invoke.cont22 unwind label %lpad

invoke.cont22:                                    ; preds = %invoke.cont20
  br label %if.end23

if.end23:                                         ; preds = %invoke.cont22, %invoke.cont14
  ret void

eh.resume:                                        ; preds = %lpad
  %exn = load ptr, ptr %exn.slot, align 8
  %sel = load i32, ptr %ehselector.slot, align 4
  %lpad.val = insertvalue { ptr, i32 } poison, ptr %exn, 0
  %lpad.val24 = insertvalue { ptr, i32 } %lpad.val, i32 %sel, 1
  resume { ptr, i32 } %lpad.val24
}

; Function Attrs: mustprogress nounwind uwtable
define linkonce_odr hidden void @_ZNSt6vectorIN6Assimp3MD57SectionESaIS2_EEC2Ev(ptr noundef nonnull align 8 dereferenceable(24) %this) unnamed_addr #0 comdat align 2 {
entry:
  %this.addr = alloca ptr, align 8
  store ptr %this, ptr %this.addr, align 8
  %this1 = load ptr, ptr %this.addr, align 8
  call void @_ZNSt12_Vector_baseIN6Assimp3MD57SectionESaIS2_EEC2Ev(ptr noundef nonnull align 8 dereferenceable(24) %this1) #15
  ret void
}

declare noundef ptr @_ZN6Assimp13DefaultLogger3getEv() #3

declare i32 @__gxx_personality_v0(...)

declare void @_ZN6Assimp6Logger5debugEPKc(ptr noundef nonnull align 8 dereferenceable(12), ptr noundef) #3

; Function Attrs: mustprogress uwtable
define hidden void @_ZN6Assimp3MD59MD5Parser11ParseHeaderEv(ptr noundef nonnull align 8 dereferenceable(48) %this) #2 align 2 personality ptr @__gxx_personality_v0 {
entry:
  %this.addr = alloca ptr, align 8
  %iVer = alloca i32, align 4
  %sz = alloca ptr, align 8
  %ref.tmp = alloca %"class.std::__cxx11::basic_string", align 8
  %ref.tmp18 = alloca i64, align 8
  %ref.tmp19 = alloca i64, align 8
  %ref.tmp22 = alloca %"class.std::allocator.5", align 1
  %exn.slot = alloca ptr, align 8
  %ehselector.slot = alloca i32, align 4
  store ptr %this, ptr %this.addr, align 8
  %this1 = load ptr, ptr %this.addr, align 8
  %call = call noundef zeroext i1 @_ZN6Assimp3MD59MD5Parser10SkipSpacesEv(ptr noundef nonnull align 8 dereferenceable(48) %this1)
  %buffer = getelementptr inbounds %"class.Assimp::MD5::MD5Parser", ptr %this1, i32 0, i32 1
  %call2 = call noundef zeroext i1 @_ZN6Assimp10TokenMatchIcEEbRPT_PKcj(ptr noundef nonnull align 8 dereferenceable(8) %buffer, ptr noundef @.str.3, i32 noundef 10)
  br i1 %call2, label %if.end, label %if.then

if.then:                                          ; preds = %entry
  call void @_ZN6Assimp3MD59MD5Parser11ReportErrorEPKc(ptr noundef nonnull align 8 dereferenceable(48) %this1, ptr noundef @.str.4) #16
  unreachable

if.end:                                           ; preds = %entry
  %call3 = call noundef zeroext i1 @_ZN6Assimp3MD59MD5Parser10SkipSpacesEv(ptr noundef nonnull align 8 dereferenceable(48) %this1)
  %buffer4 = getelementptr inbounds %"class.Assimp::MD5::MD5Parser", ptr %this1, i32 0, i32 1
  %0 = load ptr, ptr %buffer4, align 8
  %buffer5 = getelementptr inbounds %"class.Assimp::MD5::MD5Parser", ptr %this1, i32 0, i32 1
  %call6 = call noundef i32 @_ZN6Assimp9strtoul10EPKcPS1_(ptr noundef %0, ptr noundef %buffer5)
  store i32 %call6, ptr %iVer, align 4
  %1 = load i32, ptr %iVer, align 4
  %cmp = icmp ne i32 10, %1
  br i1 %cmp, label %if.then7, label %if.end8

if.then7:                                         ; preds = %if.end
  call void @_ZN6Assimp3MD59MD5Parser11ReportErrorEPKc(ptr noundef nonnull align 8 dereferenceable(48) %this1, ptr noundef @.str.5) #16
  unreachable

if.end8:                                          ; preds = %if.end
  %call9 = call noundef zeroext i1 @_ZN6Assimp3MD59MD5Parser8SkipLineEv(ptr noundef nonnull align 8 dereferenceable(48) %this1)
  %buffer10 = getelementptr inbounds %"class.Assimp::MD5::MD5Parser", ptr %this1, i32 0, i32 1
  %2 = load ptr, ptr %buffer10, align 8
  %bufferEnd = getelementptr inbounds %"class.Assimp::MD5::MD5Parser", ptr %this1, i32 0, i32 2
  %3 = load ptr, ptr %bufferEnd, align 8
  %cmp11 = icmp eq ptr %2, %3
  br i1 %cmp11, label %if.then12, label %if.end13

if.then12:                                        ; preds = %if.end8
  br label %return

if.end13:                                         ; preds = %if.end8
  %buffer14 = getelementptr inbounds %"class.Assimp::MD5::MD5Parser", ptr %this1, i32 0, i32 1
  %4 = load ptr, ptr %buffer14, align 8
  store ptr %4, ptr %sz, align 8
  br label %while.cond

while.cond:                                       ; preds = %while.body, %if.end13
  %buffer15 = getelementptr inbounds %"class.Assimp::MD5::MD5Parser", ptr %this1, i32 0, i32 1
  %5 = load ptr, ptr %buffer15, align 8
  %incdec.ptr = getelementptr inbounds i8, ptr %5, i32 1
  store ptr %incdec.ptr, ptr %buffer15, align 8
  %6 = load i8, ptr %5, align 1
  %call16 = call noundef zeroext i1 @_ZN6Assimp9IsLineEndIcEEbT_(i8 noundef signext %6)
  %lnot = xor i1 %call16, true
  br i1 %lnot, label %while.body, label %while.end

while.body:                                       ; preds = %while.cond
  br label %while.cond, !llvm.loop !6

while.end:                                        ; preds = %while.cond
  %call17 = call noundef ptr @_ZN6Assimp13DefaultLogger3getEv()
  %7 = load ptr, ptr %sz, align 8
  store i64 1024, ptr %ref.tmp18, align 8
  %buffer20 = getelementptr inbounds %"class.Assimp::MD5::MD5Parser", ptr %this1, i32 0, i32 1
  %8 = load ptr, ptr %buffer20, align 8
  %9 = load ptr, ptr %sz, align 8
  %sub.ptr.lhs.cast = ptrtoint ptr %8 to i64
  %sub.ptr.rhs.cast = ptrtoint ptr %9 to i64
  %sub.ptr.sub = sub i64 %sub.ptr.lhs.cast, %sub.ptr.rhs.cast
  store i64 %sub.ptr.sub, ptr %ref.tmp19, align 8
  %call21 = call noundef nonnull align 8 dereferenceable(8) ptr @_ZSt3minImERKT_S2_S2_(ptr noundef nonnull align 8 dereferenceable(8) %ref.tmp18, ptr noundef nonnull align 8 dereferenceable(8) %ref.tmp19)
  %10 = load i64, ptr %call21, align 8
  call void @_ZNSaIcEC1Ev(ptr noundef nonnull align 1 dereferenceable(1) %ref.tmp22) #15
  invoke void @_ZNSt7__cxx1112basic_stringIcSt11char_traitsIcESaIcEEC1EPKcmRKS3_(ptr noundef nonnull align 8 dereferenceable(32) %ref.tmp, ptr noundef %7, i64 noundef %10, ptr noundef nonnull align 1 dereferenceable(1) %ref.tmp22)
          to label %invoke.cont unwind label %lpad

invoke.cont:                                      ; preds = %while.end
  invoke void @_ZN6Assimp6Logger4infoIJNSt7__cxx1112basic_stringIcSt11char_traitsIcESaIcEEEEEEvDpOT_(ptr noundef nonnull align 8 dereferenceable(12) %call17, ptr noundef nonnull align 8 dereferenceable(32) %ref.tmp)
          to label %invoke.cont24 unwind label %lpad23

invoke.cont24:                                    ; preds = %invoke.cont
  call void @_ZNSt7__cxx1112basic_stringIcSt11char_traitsIcESaIcEED1Ev(ptr noundef nonnull align 8 dereferenceable(32) %ref.tmp) #15
  call void @_ZNSaIcED1Ev(ptr noundef nonnull align 1 dereferenceable(1) %ref.tmp22) #15
  %call25 = call noundef zeroext i1 @_ZN6Assimp3MD59MD5Parser20SkipSpacesAndLineEndEv(ptr noundef nonnull align 8 dereferenceable(48) %this1)
  br label %return

return:                                           ; preds = %invoke.cont24, %if.then12
  ret void

lpad:                                             ; preds = %while.end
  %11 = landingpad { ptr, i32 }
          cleanup
  %12 = extractvalue { ptr, i32 } %11, 0
  store ptr %12, ptr %exn.slot, align 8
  %13 = extractvalue { ptr, i32 } %11, 1
  store i32 %13, ptr %ehselector.slot, align 4
  br label %ehcleanup

lpad23:                                           ; preds = %invoke.cont
  %14 = landingpad { ptr, i32 }
          cleanup
  %15 = extractvalue { ptr, i32 } %14, 0
  store ptr %15, ptr %exn.slot, align 8
  %16 = extractvalue { ptr, i32 } %14, 1
  store i32 %16, ptr %ehselector.slot, align 4
  call void @_ZNSt7__cxx1112basic_stringIcSt11char_traitsIcESaIcEED1Ev(ptr noundef nonnull align 8 dereferenceable(32) %ref.tmp) #15
  br label %ehcleanup

ehcleanup:                                        ; preds = %lpad23, %lpad
  call void @_ZNSaIcED1Ev(ptr noundef nonnull align 1 dereferenceable(1) %ref.tmp22) #15
  br label %eh.resume

eh.resume:                                        ; preds = %ehcleanup
  %exn = load ptr, ptr %exn.slot, align 8
  %sel = load i32, ptr %ehselector.slot, align 4
  %lpad.val = insertvalue { ptr, i32 } poison, ptr %exn, 0
  %lpad.val26 = insertvalue { ptr, i32 } %lpad.val, i32 %sel, 1
  resume { ptr, i32 } %lpad.val26
}

; Function Attrs: mustprogress uwtable
define linkonce_odr hidden noundef nonnull align 8 dereferenceable(96) ptr @_ZNSt6vectorIN6Assimp3MD57SectionESaIS2_EE12emplace_backIJEEERS2_DpOT_(ptr noundef nonnull align 8 dereferenceable(24) %this) #2 comdat align 2 {
entry:
  %this.addr = alloca ptr, align 8
  %agg.tmp = alloca %"class.__gnu_cxx::__normal_iterator.19", align 8
  store ptr %this, ptr %this.addr, align 8
  %this1 = load ptr, ptr %this.addr, align 8
  %_M_impl = getelementptr inbounds %"struct.std::_Vector_base", ptr %this1, i32 0, i32 0
  %_M_finish = getelementptr inbounds %"struct.std::_Vector_base<Assimp::MD5::Section, std::allocator<Assimp::MD5::Section>>::_Vector_impl_data", ptr %_M_impl, i32 0, i32 1
  %0 = load ptr, ptr %_M_finish, align 8
  %_M_impl2 = getelementptr inbounds %"struct.std::_Vector_base", ptr %this1, i32 0, i32 0
  %_M_end_of_storage = getelementptr inbounds %"struct.std::_Vector_base<Assimp::MD5::Section, std::allocator<Assimp::MD5::Section>>::_Vector_impl_data", ptr %_M_impl2, i32 0, i32 2
  %1 = load ptr, ptr %_M_end_of_storage, align 8
  %cmp = icmp ne ptr %0, %1
  br i1 %cmp, label %if.then, label %if.else

if.then:                                          ; preds = %entry
  %_M_impl3 = getelementptr inbounds %"struct.std::_Vector_base", ptr %this1, i32 0, i32 0
  %_M_impl4 = getelementptr inbounds %"struct.std::_Vector_base", ptr %this1, i32 0, i32 0
  %_M_finish5 = getelementptr inbounds %"struct.std::_Vector_base<Assimp::MD5::Section, std::allocator<Assimp::MD5::Section>>::_Vector_impl_data", ptr %_M_impl4, i32 0, i32 1
  %2 = load ptr, ptr %_M_finish5, align 8
  call void @_ZNSt16allocator_traitsISaIN6Assimp3MD57SectionEEE9constructIS2_JEEEvRS3_PT_DpOT0_(ptr noundef nonnull align 1 dereferenceable(1) %_M_impl3, ptr noundef %2) #15
  %_M_impl6 = getelementptr inbounds %"struct.std::_Vector_base", ptr %this1, i32 0, i32 0
  %_M_finish7 = getelementptr inbounds %"struct.std::_Vector_base<Assimp::MD5::Section, std::allocator<Assimp::MD5::Section>>::_Vector_impl_data", ptr %_M_impl6, i32 0, i32 1
  %3 = load ptr, ptr %_M_finish7, align 8
  %incdec.ptr = getelementptr inbounds %"struct.Assimp::MD5::Section", ptr %3, i32 1
  store ptr %incdec.ptr, ptr %_M_finish7, align 8
  br label %if.end

if.else:                                          ; preds = %entry
  %call = call ptr @_ZNSt6vectorIN6Assimp3MD57SectionESaIS2_EE3endEv(ptr noundef nonnull align 8 dereferenceable(24) %this1) #15
  %coerce.dive = getelementptr inbounds %"class.__gnu_cxx::__normal_iterator.19", ptr %agg.tmp, i32 0, i32 0
  store ptr %call, ptr %coerce.dive, align 8
  %coerce.dive8 = getelementptr inbounds %"class.__gnu_cxx::__normal_iterator.19", ptr %agg.tmp, i32 0, i32 0
  %4 = load ptr, ptr %coerce.dive8, align 8
  call void @_ZNSt6vectorIN6Assimp3MD57SectionESaIS2_EE17_M_realloc_insertIJEEEvN9__gnu_cxx17__normal_iteratorIPS2_S4_EEDpOT_(ptr noundef nonnull align 8 dereferenceable(24) %this1, ptr %4)
  br label %if.end

if.end:                                           ; preds = %if.else, %if.then
  %call9 = call noundef nonnull align 8 dereferenceable(96) ptr @_ZNSt6vectorIN6Assimp3MD57SectionESaIS2_EE4backEv(ptr noundef nonnull align 8 dereferenceable(24) %this1) #15
  ret ptr %call9
}

; Function Attrs: mustprogress nounwind uwtable
define linkonce_odr hidden noundef nonnull align 8 dereferenceable(96) ptr @_ZNSt6vectorIN6Assimp3MD57SectionESaIS2_EE4backEv(ptr noundef nonnull align 8 dereferenceable(24) %this) #0 comdat align 2 {
entry:
  %this.addr = alloca ptr, align 8
  %ref.tmp = alloca %"class.__gnu_cxx::__normal_iterator.19", align 8
  %ref.tmp2 = alloca %"class.__gnu_cxx::__normal_iterator.19", align 8
  store ptr %this, ptr %this.addr, align 8
  %this1 = load ptr, ptr %this.addr, align 8
  %call = call ptr @_ZNSt6vectorIN6Assimp3MD57SectionESaIS2_EE3endEv(ptr noundef nonnull align 8 dereferenceable(24) %this1) #15
  %coerce.dive = getelementptr inbounds %"class.__gnu_cxx::__normal_iterator.19", ptr %ref.tmp2, i32 0, i32 0
  store ptr %call, ptr %coerce.dive, align 8
  %call3 = call ptr @_ZNK9__gnu_cxx17__normal_iteratorIPN6Assimp3MD57SectionESt6vectorIS3_SaIS3_EEEmiEl(ptr noundef nonnull align 8 dereferenceable(8) %ref.tmp2, i64 noundef 1) #15
  %coerce.dive4 = getelementptr inbounds %"class.__gnu_cxx::__normal_iterator.19", ptr %ref.tmp, i32 0, i32 0
  store ptr %call3, ptr %coerce.dive4, align 8
  %call5 = call noundef nonnull align 8 dereferenceable(96) ptr @_ZNK9__gnu_cxx17__normal_iteratorIPN6Assimp3MD57SectionESt6vectorIS3_SaIS3_EEEdeEv(ptr noundef nonnull align 8 dereferenceable(8) %ref.tmp) #15
  ret ptr %call5
}

; Function Attrs: mustprogress uwtable
define hidden noundef zeroext i1 @_ZN6Assimp3MD59MD5Parser12ParseSectionERNS0_7SectionE(ptr noundef nonnull align 8 dereferenceable(48) %this, ptr noundef nonnull align 8 dereferenceable(96) %out) #2 align 2 personality ptr @__gxx_personality_v0 {
entry:
  %retval = alloca i1, align 1
  %this.addr = alloca ptr, align 8
  %out.addr = alloca ptr, align 8
  %sz = alloca ptr, align 8
  %ref.tmp = alloca %"class.std::__cxx11::basic_string", align 8
  %ref.tmp6 = alloca %"class.std::allocator.5", align 1
  %exn.slot = alloca ptr, align 8
  %ehselector.slot = alloca i32, align 4
  %running = alloca i8, align 1
  %run = alloca i8, align 1
  %elem = alloca ptr, align 8
  %ref.tmp107 = alloca %"class.std::__cxx11::basic_string", align 8
  %ref.tmp112 = alloca %"class.std::allocator.5", align 1
  store ptr %this, ptr %this.addr, align 8
  store ptr %out, ptr %out.addr, align 8
  %this1 = load ptr, ptr %this.addr, align 8
  %lineNumber = getelementptr inbounds %"class.Assimp::MD5::MD5Parser", ptr %this1, i32 0, i32 4
  %0 = load i32, ptr %lineNumber, align 4
  %1 = load ptr, ptr %out.addr, align 8
  %iLineNumber = getelementptr inbounds %"struct.Assimp::MD5::Section", ptr %1, i32 0, i32 0
  store i32 %0, ptr %iLineNumber, align 8
  %buffer = getelementptr inbounds %"class.Assimp::MD5::MD5Parser", ptr %this1, i32 0, i32 1
  %2 = load ptr, ptr %buffer, align 8
  store ptr %2, ptr %sz, align 8
  br label %while.cond

while.cond:                                       ; preds = %if.end, %entry
  %buffer2 = getelementptr inbounds %"class.Assimp::MD5::MD5Parser", ptr %this1, i32 0, i32 1
  %3 = load ptr, ptr %buffer2, align 8
  %4 = load i8, ptr %3, align 1
  %call = call noundef zeroext i1 @_ZN6Assimp16IsSpaceOrNewLineIcEEbT_(i8 noundef signext %4)
  %lnot = xor i1 %call, true
  br i1 %lnot, label %while.body, label %while.end

while.body:                                       ; preds = %while.cond
  %buffer3 = getelementptr inbounds %"class.Assimp::MD5::MD5Parser", ptr %this1, i32 0, i32 1
  %5 = load ptr, ptr %buffer3, align 8
  %incdec.ptr = getelementptr inbounds i8, ptr %5, i32 1
  store ptr %incdec.ptr, ptr %buffer3, align 8
  %buffer4 = getelementptr inbounds %"class.Assimp::MD5::MD5Parser", ptr %this1, i32 0, i32 1
  %6 = load ptr, ptr %buffer4, align 8
  %bufferEnd = getelementptr inbounds %"class.Assimp::MD5::MD5Parser", ptr %this1, i32 0, i32 2
  %7 = load ptr, ptr %bufferEnd, align 8
  %cmp = icmp eq ptr %6, %7
  br i1 %cmp, label %if.then, label %if.end

if.then:                                          ; preds = %while.body
  store i1 false, ptr %retval, align 1
  br label %return

if.end:                                           ; preds = %while.body
  br label %while.cond, !llvm.loop !7

while.end:                                        ; preds = %while.cond
  %8 = load ptr, ptr %sz, align 8
  %buffer5 = getelementptr inbounds %"class.Assimp::MD5::MD5Parser", ptr %this1, i32 0, i32 1
  %9 = load ptr, ptr %buffer5, align 8
  %10 = load ptr, ptr %sz, align 8
  %sub.ptr.lhs.cast = ptrtoint ptr %9 to i64
  %sub.ptr.rhs.cast = ptrtoint ptr %10 to i64
  %sub.ptr.sub = sub i64 %sub.ptr.lhs.cast, %sub.ptr.rhs.cast
  call void @_ZNSaIcEC1Ev(ptr noundef nonnull align 1 dereferenceable(1) %ref.tmp6) #15
  invoke void @_ZNSt7__cxx1112basic_stringIcSt11char_traitsIcESaIcEEC1EPKcmRKS3_(ptr noundef nonnull align 8 dereferenceable(32) %ref.tmp, ptr noundef %8, i64 noundef %sub.ptr.sub, ptr noundef nonnull align 1 dereferenceable(1) %ref.tmp6)
          to label %invoke.cont unwind label %lpad

invoke.cont:                                      ; preds = %while.end
  %11 = load ptr, ptr %out.addr, align 8
  %mName = getelementptr inbounds %"struct.Assimp::MD5::Section", ptr %11, i32 0, i32 2
  %call7 = call noundef nonnull align 8 dereferenceable(32) ptr @_ZNSt7__cxx1112basic_stringIcSt11char_traitsIcESaIcEEaSEOS4_(ptr noundef nonnull align 8 dereferenceable(32) %mName, ptr noundef nonnull align 8 dereferenceable(32) %ref.tmp) #15
  call void @_ZNSt7__cxx1112basic_stringIcSt11char_traitsIcESaIcEED1Ev(ptr noundef nonnull align 8 dereferenceable(32) %ref.tmp) #15
  call void @_ZNSaIcED1Ev(ptr noundef nonnull align 1 dereferenceable(1) %ref.tmp6) #15
  br label %while.cond8

while.cond8:                                      ; preds = %if.end18, %invoke.cont
  %buffer9 = getelementptr inbounds %"class.Assimp::MD5::MD5Parser", ptr %this1, i32 0, i32 1
  %12 = load ptr, ptr %buffer9, align 8
  %13 = load i8, ptr %12, align 1
  %call10 = call noundef zeroext i1 @_ZN6Assimp7IsSpaceIcEEbT_(i8 noundef signext %13)
  br i1 %call10, label %while.body11, label %while.end19

while.body11:                                     ; preds = %while.cond8
  %buffer12 = getelementptr inbounds %"class.Assimp::MD5::MD5Parser", ptr %this1, i32 0, i32 1
  %14 = load ptr, ptr %buffer12, align 8
  %incdec.ptr13 = getelementptr inbounds i8, ptr %14, i32 1
  store ptr %incdec.ptr13, ptr %buffer12, align 8
  %buffer14 = getelementptr inbounds %"class.Assimp::MD5::MD5Parser", ptr %this1, i32 0, i32 1
  %15 = load ptr, ptr %buffer14, align 8
  %bufferEnd15 = getelementptr inbounds %"class.Assimp::MD5::MD5Parser", ptr %this1, i32 0, i32 2
  %16 = load ptr, ptr %bufferEnd15, align 8
  %cmp16 = icmp eq ptr %15, %16
  br i1 %cmp16, label %if.then17, label %if.end18

if.then17:                                        ; preds = %while.body11
  store i1 false, ptr %retval, align 1
  br label %return

lpad:                                             ; preds = %while.end
  %17 = landingpad { ptr, i32 }
          cleanup
  %18 = extractvalue { ptr, i32 } %17, 0
  store ptr %18, ptr %exn.slot, align 8
  %19 = extractvalue { ptr, i32 } %17, 1
  store i32 %19, ptr %ehselector.slot, align 4
  call void @_ZNSaIcED1Ev(ptr noundef nonnull align 1 dereferenceable(1) %ref.tmp6) #15
  br label %eh.resume

if.end18:                                         ; preds = %while.body11
  br label %while.cond8, !llvm.loop !8

while.end19:                                      ; preds = %while.cond8
  store i8 1, ptr %running, align 1
  br label %while.cond20

while.cond20:                                     ; preds = %invoke.cont114, %while.end19
  %20 = load i8, ptr %running, align 1
  %tobool = trunc i8 %20 to i1
  br i1 %tobool, label %while.body21, label %while.end118

while.body21:                                     ; preds = %while.cond20
  %buffer22 = getelementptr inbounds %"class.Assimp::MD5::MD5Parser", ptr %this1, i32 0, i32 1
  %21 = load ptr, ptr %buffer22, align 8
  %22 = load i8, ptr %21, align 1
  %conv = sext i8 %22 to i32
  %cmp23 = icmp eq i32 123, %conv
  br i1 %cmp23, label %if.then24, label %if.else

if.then24:                                        ; preds = %while.body21
  %buffer25 = getelementptr inbounds %"class.Assimp::MD5::MD5Parser", ptr %this1, i32 0, i32 1
  %23 = load ptr, ptr %buffer25, align 8
  %incdec.ptr26 = getelementptr inbounds i8, ptr %23, i32 1
  store ptr %incdec.ptr26, ptr %buffer25, align 8
  %buffer27 = getelementptr inbounds %"class.Assimp::MD5::MD5Parser", ptr %this1, i32 0, i32 1
  %24 = load ptr, ptr %buffer27, align 8
  %bufferEnd28 = getelementptr inbounds %"class.Assimp::MD5::MD5Parser", ptr %this1, i32 0, i32 2
  %25 = load ptr, ptr %bufferEnd28, align 8
  %cmp29 = icmp eq ptr %24, %25
  br i1 %cmp29, label %if.then30, label %if.end31

if.then30:                                        ; preds = %if.then24
  store i1 false, ptr %retval, align 1
  br label %return

if.end31:                                         ; preds = %if.then24
  store i8 1, ptr %run, align 1
  br label %while.cond32

while.cond32:                                     ; preds = %if.end89, %if.end31
  %26 = load i8, ptr %run, align 1
  %tobool33 = trunc i8 %26 to i1
  br i1 %tobool33, label %while.body34, label %while.end90

while.body34:                                     ; preds = %while.cond32
  br label %while.cond35

while.cond35:                                     ; preds = %if.end45, %while.body34
  %buffer36 = getelementptr inbounds %"class.Assimp::MD5::MD5Parser", ptr %this1, i32 0, i32 1
  %27 = load ptr, ptr %buffer36, align 8
  %28 = load i8, ptr %27, align 1
  %call37 = call noundef zeroext i1 @_ZN6Assimp16IsSpaceOrNewLineIcEEbT_(i8 noundef signext %28)
  br i1 %call37, label %while.body38, label %while.end46

while.body38:                                     ; preds = %while.cond35
  %buffer39 = getelementptr inbounds %"class.Assimp::MD5::MD5Parser", ptr %this1, i32 0, i32 1
  %29 = load ptr, ptr %buffer39, align 8
  %incdec.ptr40 = getelementptr inbounds i8, ptr %29, i32 1
  store ptr %incdec.ptr40, ptr %buffer39, align 8
  %buffer41 = getelementptr inbounds %"class.Assimp::MD5::MD5Parser", ptr %this1, i32 0, i32 1
  %30 = load ptr, ptr %buffer41, align 8
  %bufferEnd42 = getelementptr inbounds %"class.Assimp::MD5::MD5Parser", ptr %this1, i32 0, i32 2
  %31 = load ptr, ptr %bufferEnd42, align 8
  %cmp43 = icmp eq ptr %30, %31
  br i1 %cmp43, label %if.then44, label %if.end45

if.then44:                                        ; preds = %while.body38
  store i1 false, ptr %retval, align 1
  br label %return

if.end45:                                         ; preds = %while.body38
  br label %while.cond35, !llvm.loop !9

while.end46:                                      ; preds = %while.cond35
  %buffer47 = getelementptr inbounds %"class.Assimp::MD5::MD5Parser", ptr %this1, i32 0, i32 1
  %32 = load ptr, ptr %buffer47, align 8
  %33 = load i8, ptr %32, align 1
  %conv48 = sext i8 %33 to i32
  %cmp49 = icmp eq i32 0, %conv48
  br i1 %cmp49, label %if.then50, label %if.end51

if.then50:                                        ; preds = %while.end46
  store i1 false, ptr %retval, align 1
  br label %return

if.end51:                                         ; preds = %while.end46
  %buffer52 = getelementptr inbounds %"class.Assimp::MD5::MD5Parser", ptr %this1, i32 0, i32 1
  %34 = load ptr, ptr %buffer52, align 8
  %35 = load i8, ptr %34, align 1
  %conv53 = sext i8 %35 to i32
  %cmp54 = icmp eq i32 125, %conv53
  br i1 %cmp54, label %if.then55, label %if.end58

if.then55:                                        ; preds = %if.end51
  %buffer56 = getelementptr inbounds %"class.Assimp::MD5::MD5Parser", ptr %this1, i32 0, i32 1
  %36 = load ptr, ptr %buffer56, align 8
  %incdec.ptr57 = getelementptr inbounds i8, ptr %36, i32 1
  store ptr %incdec.ptr57, ptr %buffer56, align 8
  br label %while.end90

if.end58:                                         ; preds = %if.end51
  %37 = load ptr, ptr %out.addr, align 8
  %mElements = getelementptr inbounds %"struct.Assimp::MD5::Section", ptr %37, i32 0, i32 1
  %call59 = call noundef nonnull align 8 dereferenceable(16) ptr @_ZNSt6vectorIN6Assimp3MD57ElementESaIS2_EE12emplace_backIJEEERS2_DpOT_(ptr noundef nonnull align 8 dereferenceable(24) %mElements)
  %38 = load ptr, ptr %out.addr, align 8
  %mElements60 = getelementptr inbounds %"struct.Assimp::MD5::Section", ptr %38, i32 0, i32 1
  %call61 = call noundef nonnull align 8 dereferenceable(16) ptr @_ZNSt6vectorIN6Assimp3MD57ElementESaIS2_EE4backEv(ptr noundef nonnull align 8 dereferenceable(24) %mElements60) #15
  store ptr %call61, ptr %elem, align 8
  %lineNumber62 = getelementptr inbounds %"class.Assimp::MD5::MD5Parser", ptr %this1, i32 0, i32 4
  %39 = load i32, ptr %lineNumber62, align 4
  %40 = load ptr, ptr %elem, align 8
  %iLineNumber63 = getelementptr inbounds %"struct.Assimp::MD5::Element", ptr %40, i32 0, i32 1
  store i32 %39, ptr %iLineNumber63, align 8
  %buffer64 = getelementptr inbounds %"class.Assimp::MD5::MD5Parser", ptr %this1, i32 0, i32 1
  %41 = load ptr, ptr %buffer64, align 8
  %42 = load ptr, ptr %elem, align 8
  %szStart = getelementptr inbounds %"struct.Assimp::MD5::Element", ptr %42, i32 0, i32 0
  store ptr %41, ptr %szStart, align 8
  br label %while.cond65

while.cond65:                                     ; preds = %if.end76, %if.end58
  %buffer66 = getelementptr inbounds %"class.Assimp::MD5::MD5Parser", ptr %this1, i32 0, i32 1
  %43 = load ptr, ptr %buffer66, align 8
  %44 = load i8, ptr %43, align 1
  %call67 = call noundef zeroext i1 @_ZN6Assimp9IsLineEndIcEEbT_(i8 noundef signext %44)
  %lnot68 = xor i1 %call67, true
  br i1 %lnot68, label %while.body69, label %while.end77

while.body69:                                     ; preds = %while.cond65
  %buffer70 = getelementptr inbounds %"class.Assimp::MD5::MD5Parser", ptr %this1, i32 0, i32 1
  %45 = load ptr, ptr %buffer70, align 8
  %incdec.ptr71 = getelementptr inbounds i8, ptr %45, i32 1
  store ptr %incdec.ptr71, ptr %buffer70, align 8
  %buffer72 = getelementptr inbounds %"class.Assimp::MD5::MD5Parser", ptr %this1, i32 0, i32 1
  %46 = load ptr, ptr %buffer72, align 8
  %bufferEnd73 = getelementptr inbounds %"class.Assimp::MD5::MD5Parser", ptr %this1, i32 0, i32 2
  %47 = load ptr, ptr %bufferEnd73, align 8
  %cmp74 = icmp eq ptr %46, %47
  br i1 %cmp74, label %if.then75, label %if.end76

if.then75:                                        ; preds = %while.body69
  store i1 false, ptr %retval, align 1
  br label %return

if.end76:                                         ; preds = %while.body69
  br label %while.cond65, !llvm.loop !10

while.end77:                                      ; preds = %while.cond65
  %buffer78 = getelementptr inbounds %"class.Assimp::MD5::MD5Parser", ptr %this1, i32 0, i32 1
  %48 = load ptr, ptr %buffer78, align 8
  %49 = load i8, ptr %48, align 1
  %tobool79 = icmp ne i8 %49, 0
  br i1 %tobool79, label %if.then80, label %if.end89

if.then80:                                        ; preds = %while.end77
  %lineNumber81 = getelementptr inbounds %"class.Assimp::MD5::MD5Parser", ptr %this1, i32 0, i32 4
  %50 = load i32, ptr %lineNumber81, align 4
  %inc = add i32 %50, 1
  store i32 %inc, ptr %lineNumber81, align 4
  %buffer82 = getelementptr inbounds %"class.Assimp::MD5::MD5Parser", ptr %this1, i32 0, i32 1
  %51 = load ptr, ptr %buffer82, align 8
  %incdec.ptr83 = getelementptr inbounds i8, ptr %51, i32 1
  store ptr %incdec.ptr83, ptr %buffer82, align 8
  store i8 0, ptr %51, align 1
  %buffer84 = getelementptr inbounds %"class.Assimp::MD5::MD5Parser", ptr %this1, i32 0, i32 1
  %52 = load ptr, ptr %buffer84, align 8
  %bufferEnd85 = getelementptr inbounds %"class.Assimp::MD5::MD5Parser", ptr %this1, i32 0, i32 2
  %53 = load ptr, ptr %bufferEnd85, align 8
  %cmp86 = icmp eq ptr %52, %53
  br i1 %cmp86, label %if.then87, label %if.end88

if.then87:                                        ; preds = %if.then80
  store i1 false, ptr %retval, align 1
  br label %return

if.end88:                                         ; preds = %if.then80
  br label %if.end89

if.end89:                                         ; preds = %if.end88, %while.end77
  br label %while.cond32, !llvm.loop !11

while.end90:                                      ; preds = %if.then55, %while.cond32
  br label %while.end118

if.else:                                          ; preds = %while.body21
  %buffer91 = getelementptr inbounds %"class.Assimp::MD5::MD5Parser", ptr %this1, i32 0, i32 1
  %54 = load ptr, ptr %buffer91, align 8
  %55 = load i8, ptr %54, align 1
  %call92 = call noundef zeroext i1 @_ZN6Assimp16IsSpaceOrNewLineIcEEbT_(i8 noundef signext %55)
  br i1 %call92, label %if.end116, label %if.then93

if.then93:                                        ; preds = %if.else
  %buffer94 = getelementptr inbounds %"class.Assimp::MD5::MD5Parser", ptr %this1, i32 0, i32 1
  %56 = load ptr, ptr %buffer94, align 8
  store ptr %56, ptr %sz, align 8
  br label %while.cond95

while.cond95:                                     ; preds = %if.end105, %if.then93
  %buffer96 = getelementptr inbounds %"class.Assimp::MD5::MD5Parser", ptr %this1, i32 0, i32 1
  %57 = load ptr, ptr %buffer96, align 8
  %incdec.ptr97 = getelementptr inbounds i8, ptr %57, i32 1
  store ptr %incdec.ptr97, ptr %buffer96, align 8
  %58 = load i8, ptr %57, align 1
  %call98 = call noundef zeroext i1 @_ZN6Assimp16IsSpaceOrNewLineIcEEbT_(i8 noundef signext %58)
  %lnot99 = xor i1 %call98, true
  br i1 %lnot99, label %while.body100, label %while.end106

while.body100:                                    ; preds = %while.cond95
  %buffer101 = getelementptr inbounds %"class.Assimp::MD5::MD5Parser", ptr %this1, i32 0, i32 1
  %59 = load ptr, ptr %buffer101, align 8
  %bufferEnd102 = getelementptr inbounds %"class.Assimp::MD5::MD5Parser", ptr %this1, i32 0, i32 2
  %60 = load ptr, ptr %bufferEnd102, align 8
  %cmp103 = icmp eq ptr %59, %60
  br i1 %cmp103, label %if.then104, label %if.end105

if.then104:                                       ; preds = %while.body100
  store i1 false, ptr %retval, align 1
  br label %return

if.end105:                                        ; preds = %while.body100
  br label %while.cond95, !llvm.loop !12

while.end106:                                     ; preds = %while.cond95
  %61 = load ptr, ptr %sz, align 8
  %buffer108 = getelementptr inbounds %"class.Assimp::MD5::MD5Parser", ptr %this1, i32 0, i32 1
  %62 = load ptr, ptr %buffer108, align 8
  %63 = load ptr, ptr %sz, align 8
  %sub.ptr.lhs.cast109 = ptrtoint ptr %62 to i64
  %sub.ptr.rhs.cast110 = ptrtoint ptr %63 to i64
  %sub.ptr.sub111 = sub i64 %sub.ptr.lhs.cast109, %sub.ptr.rhs.cast110
  call void @_ZNSaIcEC1Ev(ptr noundef nonnull align 1 dereferenceable(1) %ref.tmp112) #15
  invoke void @_ZNSt7__cxx1112basic_stringIcSt11char_traitsIcESaIcEEC1EPKcmRKS3_(ptr noundef nonnull align 8 dereferenceable(32) %ref.tmp107, ptr noundef %61, i64 noundef %sub.ptr.sub111, ptr noundef nonnull align 1 dereferenceable(1) %ref.tmp112)
          to label %invoke.cont114 unwind label %lpad113

invoke.cont114:                                   ; preds = %while.end106
  %64 = load ptr, ptr %out.addr, align 8
  %mGlobalValue = getelementptr inbounds %"struct.Assimp::MD5::Section", ptr %64, i32 0, i32 3
  %call115 = call noundef nonnull align 8 dereferenceable(32) ptr @_ZNSt7__cxx1112basic_stringIcSt11char_traitsIcESaIcEEaSEOS4_(ptr noundef nonnull align 8 dereferenceable(32) %mGlobalValue, ptr noundef nonnull align 8 dereferenceable(32) %ref.tmp107) #15
  call void @_ZNSt7__cxx1112basic_stringIcSt11char_traitsIcESaIcEED1Ev(ptr noundef nonnull align 8 dereferenceable(32) %ref.tmp107) #15
  call void @_ZNSaIcED1Ev(ptr noundef nonnull align 1 dereferenceable(1) %ref.tmp112) #15
  br label %while.cond20, !llvm.loop !13

lpad113:                                          ; preds = %while.end106
  %65 = landingpad { ptr, i32 }
          cleanup
  %66 = extractvalue { ptr, i32 } %65, 0
  store ptr %66, ptr %exn.slot, align 8
  %67 = extractvalue { ptr, i32 } %65, 1
  store i32 %67, ptr %ehselector.slot, align 4
  call void @_ZNSaIcED1Ev(ptr noundef nonnull align 1 dereferenceable(1) %ref.tmp112) #15
  br label %eh.resume

if.end116:                                        ; preds = %if.else
  br label %if.end117

if.end117:                                        ; preds = %if.end116
  br label %while.end118

while.end118:                                     ; preds = %if.end117, %while.end90, %while.cond20
  %buffer119 = getelementptr inbounds %"class.Assimp::MD5::MD5Parser", ptr %this1, i32 0, i32 1
  %68 = load ptr, ptr %buffer119, align 8
  %bufferEnd120 = getelementptr inbounds %"class.Assimp::MD5::MD5Parser", ptr %this1, i32 0, i32 2
  %69 = load ptr, ptr %bufferEnd120, align 8
  %cmp121 = icmp eq ptr %68, %69
  br i1 %cmp121, label %if.then122, label %if.end123

if.then122:                                       ; preds = %while.end118
  store i1 false, ptr %retval, align 1
  br label %return

if.end123:                                        ; preds = %while.end118
  br label %while.cond124

while.cond124:                                    ; preds = %if.end134, %if.end123
  %buffer125 = getelementptr inbounds %"class.Assimp::MD5::MD5Parser", ptr %this1, i32 0, i32 1
  %70 = load ptr, ptr %buffer125, align 8
  %71 = load i8, ptr %70, align 1
  %call126 = call noundef zeroext i1 @_ZN6Assimp16IsSpaceOrNewLineIcEEbT_(i8 noundef signext %71)
  br i1 %call126, label %while.body127, label %while.end135

while.body127:                                    ; preds = %while.cond124
  %buffer128 = getelementptr inbounds %"class.Assimp::MD5::MD5Parser", ptr %this1, i32 0, i32 1
  %72 = load ptr, ptr %buffer128, align 8
  %incdec.ptr129 = getelementptr inbounds i8, ptr %72, i32 1
  store ptr %incdec.ptr129, ptr %buffer128, align 8
  %buffer130 = getelementptr inbounds %"class.Assimp::MD5::MD5Parser", ptr %this1, i32 0, i32 1
  %73 = load ptr, ptr %buffer130, align 8
  %bufferEnd131 = getelementptr inbounds %"class.Assimp::MD5::MD5Parser", ptr %this1, i32 0, i32 2
  %74 = load ptr, ptr %bufferEnd131, align 8
  %cmp132 = icmp eq ptr %73, %74
  br i1 %cmp132, label %if.then133, label %if.end134

if.then133:                                       ; preds = %while.body127
  store i1 false, ptr %retval, align 1
  br label %return

if.end134:                                        ; preds = %while.body127
  br label %while.cond124, !llvm.loop !14

while.end135:                                     ; preds = %while.cond124
  %buffer136 = getelementptr inbounds %"class.Assimp::MD5::MD5Parser", ptr %this1, i32 0, i32 1
  %75 = load ptr, ptr %buffer136, align 8
  %76 = load i8, ptr %75, align 1
  %conv137 = sext i8 %76 to i32
  %cmp138 = icmp ne i32 0, %conv137
  store i1 %cmp138, ptr %retval, align 1
  br label %return

return:                                           ; preds = %while.end135, %if.then133, %if.then122, %if.then104, %if.then87, %if.then75, %if.then50, %if.then44, %if.then30, %if.then17, %if.then
  %77 = load i1, ptr %retval, align 1
  ret i1 %77

eh.resume:                                        ; preds = %lpad113, %lpad
  %exn = load ptr, ptr %exn.slot, align 8
  %sel = load i32, ptr %ehselector.slot, align 4
  %lpad.val = insertvalue { ptr, i32 } poison, ptr %exn, 0
  %lpad.val139 = insertvalue { ptr, i32 } %lpad.val, i32 %sel, 1
  resume { ptr, i32 } %lpad.val139
}

declare noundef zeroext i1 @_ZN6Assimp13DefaultLogger12isNullLoggerEv() #3

; Function Attrs: nounwind
declare i32 @snprintf(ptr noundef, i64 noundef, ptr noundef, ...) #4

; Function Attrs: mustprogress nounwind uwtable
define linkonce_odr hidden noundef i64 @_ZNKSt6vectorIN6Assimp3MD57SectionESaIS2_EE4sizeEv(ptr noundef nonnull align 8 dereferenceable(24) %this) #0 comdat align 2 {
entry:
  %this.addr = alloca ptr, align 8
  store ptr %this, ptr %this.addr, align 8
  %this1 = load ptr, ptr %this.addr, align 8
  %_M_impl = getelementptr inbounds %"struct.std::_Vector_base", ptr %this1, i32 0, i32 0
  %_M_finish = getelementptr inbounds %"struct.std::_Vector_base<Assimp::MD5::Section, std::allocator<Assimp::MD5::Section>>::_Vector_impl_data", ptr %_M_impl, i32 0, i32 1
  %0 = load ptr, ptr %_M_finish, align 8
  %_M_impl2 = getelementptr inbounds %"struct.std::_Vector_base", ptr %this1, i32 0, i32 0
  %_M_start = getelementptr inbounds %"struct.std::_Vector_base<Assimp::MD5::Section, std::allocator<Assimp::MD5::Section>>::_Vector_impl_data", ptr %_M_impl2, i32 0, i32 0
  %1 = load ptr, ptr %_M_start, align 8
  %sub.ptr.lhs.cast = ptrtoint ptr %0 to i64
  %sub.ptr.rhs.cast = ptrtoint ptr %1 to i64
  %sub.ptr.sub = sub i64 %sub.ptr.lhs.cast, %sub.ptr.rhs.cast
  %sub.ptr.div = sdiv exact i64 %sub.ptr.sub, 96
  ret i64 %sub.ptr.div
}

; Function Attrs: mustprogress uwtable
define linkonce_odr void @_ZN6Assimp6Logger5debugIJRA128_cEEEvDpOT_(ptr noundef nonnull align 8 dereferenceable(12) %this, ptr noundef nonnull align 1 dereferenceable(128) %args) #2 comdat align 2 personality ptr @__gxx_personality_v0 {
entry:
  %this.addr = alloca ptr, align 8
  %args.addr = alloca ptr, align 8
  %ref.tmp = alloca %"class.std::__cxx11::basic_string", align 8
  %agg.tmp = alloca %"class.Assimp::Formatter::basic_formatter", align 8
  %exn.slot = alloca ptr, align 8
  %ehselector.slot = alloca i32, align 4
  store ptr %this, ptr %this.addr, align 8
  store ptr %args, ptr %args.addr, align 8
  %this1 = load ptr, ptr %this.addr, align 8
  %0 = load ptr, ptr %args.addr, align 8
  call void @_ZN6Assimp9Formatter15basic_formatterIcSt11char_traitsIcESaIcEEC2IA128_cEERKT_(ptr noundef nonnull align 8 dereferenceable(376) %agg.tmp, ptr noundef nonnull align 1 dereferenceable(128) %0)
  invoke void @_ZN6Assimp6Logger13formatMessageB5cxx11ENS_9Formatter15basic_formatterIcSt11char_traitsIcESaIcEEE(ptr sret(%"class.std::__cxx11::basic_string") align 8 %ref.tmp, ptr noundef nonnull align 8 dereferenceable(12) %this1, ptr noundef %agg.tmp)
          to label %invoke.cont unwind label %lpad

invoke.cont:                                      ; preds = %entry
  %call = call noundef ptr @_ZNKSt7__cxx1112basic_stringIcSt11char_traitsIcESaIcEE5c_strEv(ptr noundef nonnull align 8 dereferenceable(32) %ref.tmp) #15
  invoke void @_ZN6Assimp6Logger5debugEPKc(ptr noundef nonnull align 8 dereferenceable(12) %this1, ptr noundef %call)
          to label %invoke.cont3 unwind label %lpad2

invoke.cont3:                                     ; preds = %invoke.cont
  call void @_ZNSt7__cxx1112basic_stringIcSt11char_traitsIcESaIcEED1Ev(ptr noundef nonnull align 8 dereferenceable(32) %ref.tmp) #15
  call void @_ZN6Assimp9Formatter15basic_formatterIcSt11char_traitsIcESaIcEED2Ev(ptr noundef nonnull align 8 dereferenceable(376) %agg.tmp) #15
  ret void

lpad:                                             ; preds = %entry
  %1 = landingpad { ptr, i32 }
          cleanup
  %2 = extractvalue { ptr, i32 } %1, 0
  store ptr %2, ptr %exn.slot, align 8
  %3 = extractvalue { ptr, i32 } %1, 1
  store i32 %3, ptr %ehselector.slot, align 4
  br label %ehcleanup

lpad2:                                            ; preds = %invoke.cont
  %4 = landingpad { ptr, i32 }
          cleanup
  %5 = extractvalue { ptr, i32 } %4, 0
  store ptr %5, ptr %exn.slot, align 8
  %6 = extractvalue { ptr, i32 } %4, 1
  store i32 %6, ptr %ehselector.slot, align 4
  call void @_ZNSt7__cxx1112basic_stringIcSt11char_traitsIcESaIcEED1Ev(ptr noundef nonnull align 8 dereferenceable(32) %ref.tmp) #15
  br label %ehcleanup

ehcleanup:                                        ; preds = %lpad2, %lpad
  call void @_ZN6Assimp9Formatter15basic_formatterIcSt11char_traitsIcESaIcEED2Ev(ptr noundef nonnull align 8 dereferenceable(376) %agg.tmp) #15
  br label %eh.resume

eh.resume:                                        ; preds = %ehcleanup
  %exn = load ptr, ptr %exn.slot, align 8
  %sel = load i32, ptr %ehselector.slot, align 4
  %lpad.val = insertvalue { ptr, i32 } poison, ptr %exn, 0
  %lpad.val4 = insertvalue { ptr, i32 } %lpad.val, i32 %sel, 1
  resume { ptr, i32 } %lpad.val4
}

; Function Attrs: mustprogress nounwind uwtable
define linkonce_odr hidden void @_ZNSt6vectorIN6Assimp3MD57SectionESaIS2_EED2Ev(ptr noundef nonnull align 8 dereferenceable(24) %this) unnamed_addr #0 comdat align 2 personality ptr @__gxx_personality_v0 {
entry:
  %this.addr = alloca ptr, align 8
  store ptr %this, ptr %this.addr, align 8
  %this1 = load ptr, ptr %this.addr, align 8
  %_M_impl = getelementptr inbounds %"struct.std::_Vector_base", ptr %this1, i32 0, i32 0
  %_M_start = getelementptr inbounds %"struct.std::_Vector_base<Assimp::MD5::Section, std::allocator<Assimp::MD5::Section>>::_Vector_impl_data", ptr %_M_impl, i32 0, i32 0
  %0 = load ptr, ptr %_M_start, align 8
  %_M_impl2 = getelementptr inbounds %"struct.std::_Vector_base", ptr %this1, i32 0, i32 0
  %_M_finish = getelementptr inbounds %"struct.std::_Vector_base<Assimp::MD5::Section, std::allocator<Assimp::MD5::Section>>::_Vector_impl_data", ptr %_M_impl2, i32 0, i32 1
  %1 = load ptr, ptr %_M_finish, align 8
  %call = call noundef nonnull align 1 dereferenceable(1) ptr @_ZNSt12_Vector_baseIN6Assimp3MD57SectionESaIS2_EE19_M_get_Tp_allocatorEv(ptr noundef nonnull align 8 dereferenceable(24) %this1) #15
  invoke void @_ZSt8_DestroyIPN6Assimp3MD57SectionES2_EvT_S4_RSaIT0_E(ptr noundef %0, ptr noundef %1, ptr noundef nonnull align 1 dereferenceable(1) %call)
          to label %invoke.cont unwind label %terminate.lpad

invoke.cont:                                      ; preds = %entry
  call void @_ZNSt12_Vector_baseIN6Assimp3MD57SectionESaIS2_EED2Ev(ptr noundef nonnull align 8 dereferenceable(24) %this1) #15
  ret void

terminate.lpad:                                   ; preds = %entry
  %2 = landingpad { ptr, i32 }
          catch ptr null
  %3 = extractvalue { ptr, i32 } %2, 0
  call void @__clang_call_terminate(ptr %3) #14
  unreachable
}

; Function Attrs: mustprogress noreturn uwtable
define hidden void @_ZN6Assimp3MD59MD5Parser11ReportErrorEPKcj(ptr noundef %error, i32 noundef %line) #5 align 2 personality ptr @__gxx_personality_v0 {
entry:
  %error.addr = alloca ptr, align 8
  %line.addr = alloca i32, align 4
  %szBuffer = alloca [1024 x i8], align 16
  %exn.slot = alloca ptr, align 8
  %ehselector.slot = alloca i32, align 4
  store ptr %error, ptr %error.addr, align 8
  store i32 %line, ptr %line.addr, align 4
  %arraydecay = getelementptr inbounds [1024 x i8], ptr %szBuffer, i64 0, i64 0
  %0 = load i32, ptr %line.addr, align 4
  %1 = load ptr, ptr %error.addr, align 8
  %call = call i32 (ptr, i64, ptr, ...) @snprintf(ptr noundef %arraydecay, i64 noundef 1024, ptr noundef @.str.2, i32 noundef %0, ptr noundef %1) #15
  %exception = call ptr @__cxa_allocate_exception(i64 16) #15
  invoke void @_ZN17DeadlyImportErrorC2IJRA1024_cEEEDpOT_(ptr noundef nonnull align 8 dereferenceable(16) %exception, ptr noundef nonnull align 1 dereferenceable(1024) %szBuffer)
          to label %invoke.cont unwind label %lpad

invoke.cont:                                      ; preds = %entry
  call void @__cxa_throw(ptr %exception, ptr @_ZTI17DeadlyImportError, ptr @_ZN17DeadlyImportErrorD2Ev) #16
  unreachable

lpad:                                             ; preds = %entry
  %2 = landingpad { ptr, i32 }
          cleanup
  %3 = extractvalue { ptr, i32 } %2, 0
  store ptr %3, ptr %exn.slot, align 8
  %4 = extractvalue { ptr, i32 } %2, 1
  store i32 %4, ptr %ehselector.slot, align 4
  call void @__cxa_free_exception(ptr %exception) #15
  br label %eh.resume

eh.resume:                                        ; preds = %lpad
  %exn = load ptr, ptr %exn.slot, align 8
  %sel = load i32, ptr %ehselector.slot, align 4
  %lpad.val = insertvalue { ptr, i32 } poison, ptr %exn, 0
  %lpad.val1 = insertvalue { ptr, i32 } %lpad.val, i32 %sel, 1
  resume { ptr, i32 } %lpad.val1
}

declare ptr @__cxa_allocate_exception(i64)

; Function Attrs: mustprogress uwtable
define linkonce_odr void @_ZN17DeadlyImportErrorC2IJRA1024_cEEEDpOT_(ptr noundef nonnull align 8 dereferenceable(16) %this, ptr noundef nonnull align 1 dereferenceable(1024) %args) unnamed_addr #2 comdat align 2 personality ptr @__gxx_personality_v0 {
entry:
  %this.addr = alloca ptr, align 8
  %args.addr = alloca ptr, align 8
  %agg.tmp = alloca %"class.Assimp::Formatter::basic_formatter", align 8
  %exn.slot = alloca ptr, align 8
  %ehselector.slot = alloca i32, align 4
  store ptr %this, ptr %this.addr, align 8
  store ptr %args, ptr %args.addr, align 8
  %this1 = load ptr, ptr %this.addr, align 8
  call void @_ZN6Assimp9Formatter15basic_formatterIcSt11char_traitsIcESaIcEEC2Ev(ptr noundef nonnull align 8 dereferenceable(376) %agg.tmp)
  %0 = load ptr, ptr %args.addr, align 8
  invoke void @_ZN15DeadlyErrorBaseC2IJERA1024_cEEN6Assimp9Formatter15basic_formatterIcSt11char_traitsIcESaIcEEEOT0_DpOT_(ptr noundef nonnull align 8 dereferenceable(16) %this1, ptr noundef %agg.tmp, ptr noundef nonnull align 1 dereferenceable(1024) %0)
          to label %invoke.cont unwind label %lpad

invoke.cont:                                      ; preds = %entry
  call void @_ZN6Assimp9Formatter15basic_formatterIcSt11char_traitsIcESaIcEED2Ev(ptr noundef nonnull align 8 dereferenceable(376) %agg.tmp) #15
  store ptr getelementptr inbounds ({ [5 x ptr] }, ptr @_ZTV17DeadlyImportError, i32 0, inrange i32 0, i32 2), ptr %this1, align 8
  ret void

lpad:                                             ; preds = %entry
  %1 = landingpad { ptr, i32 }
          cleanup
  %2 = extractvalue { ptr, i32 } %1, 0
  store ptr %2, ptr %exn.slot, align 8
  %3 = extractvalue { ptr, i32 } %1, 1
  store i32 %3, ptr %ehselector.slot, align 4
  call void @_ZN6Assimp9Formatter15basic_formatterIcSt11char_traitsIcESaIcEED2Ev(ptr noundef nonnull align 8 dereferenceable(376) %agg.tmp) #15
  br label %eh.resume

eh.resume:                                        ; preds = %lpad
  %exn = load ptr, ptr %exn.slot, align 8
  %sel = load i32, ptr %ehselector.slot, align 4
  %lpad.val = insertvalue { ptr, i32 } poison, ptr %exn, 0
  %lpad.val2 = insertvalue { ptr, i32 } %lpad.val, i32 %sel, 1
  resume { ptr, i32 } %lpad.val2
}

declare void @__cxa_free_exception(ptr)

; Function Attrs: mustprogress nounwind uwtable
define linkonce_odr void @_ZN17DeadlyImportErrorD2Ev(ptr noundef nonnull align 8 dereferenceable(16) %this) unnamed_addr #0 comdat align 2 {
entry:
  %this.addr = alloca ptr, align 8
  store ptr %this, ptr %this.addr, align 8
  %this1 = load ptr, ptr %this.addr, align 8
  call void @_ZN15DeadlyErrorBaseD2Ev(ptr noundef nonnull align 8 dereferenceable(16) %this1) #15
  ret void
}

declare void @__cxa_throw(ptr, ptr, ptr)

; Function Attrs: mustprogress uwtable
define hidden void @_ZN6Assimp3MD59MD5Parser13ReportWarningEPKcj(ptr noundef %warn, i32 noundef %line) #2 align 2 {
entry:
  %warn.addr = alloca ptr, align 8
  %line.addr = alloca i32, align 4
  %szBuffer = alloca [1024 x i8], align 16
  store ptr %warn, ptr %warn.addr, align 8
  store i32 %line, ptr %line.addr, align 4
  %arraydecay = getelementptr inbounds [1024 x i8], ptr %szBuffer, i64 0, i64 0
  %0 = load i32, ptr %line.addr, align 4
  %1 = load ptr, ptr %warn.addr, align 8
  %call = call i32 (ptr, i64, ptr, ...) @snprintf(ptr noundef %arraydecay, i64 noundef 1024, ptr noundef @.str.2, i32 noundef %0, ptr noundef %1) #15
  %call1 = call noundef ptr @_ZN6Assimp13DefaultLogger3getEv()
  call void @_ZN6Assimp6Logger4warnIJRA1024_cEEEvDpOT_(ptr noundef nonnull align 8 dereferenceable(12) %call1, ptr noundef nonnull align 1 dereferenceable(1024) %szBuffer)
  ret void
}

; Function Attrs: mustprogress uwtable
define linkonce_odr void @_ZN6Assimp6Logger4warnIJRA1024_cEEEvDpOT_(ptr noundef nonnull align 8 dereferenceable(12) %this, ptr noundef nonnull align 1 dereferenceable(1024) %args) #2 comdat align 2 personality ptr @__gxx_personality_v0 {
entry:
  %this.addr = alloca ptr, align 8
  %args.addr = alloca ptr, align 8
  %ref.tmp = alloca %"class.std::__cxx11::basic_string", align 8
  %agg.tmp = alloca %"class.Assimp::Formatter::basic_formatter", align 8
  %exn.slot = alloca ptr, align 8
  %ehselector.slot = alloca i32, align 4
  store ptr %this, ptr %this.addr, align 8
  store ptr %args, ptr %args.addr, align 8
  %this1 = load ptr, ptr %this.addr, align 8
  %0 = load ptr, ptr %args.addr, align 8
  call void @_ZN6Assimp9Formatter15basic_formatterIcSt11char_traitsIcESaIcEEC2IA1024_cEERKT_(ptr noundef nonnull align 8 dereferenceable(376) %agg.tmp, ptr noundef nonnull align 1 dereferenceable(1024) %0)
  invoke void @_ZN6Assimp6Logger13formatMessageB5cxx11ENS_9Formatter15basic_formatterIcSt11char_traitsIcESaIcEEE(ptr sret(%"class.std::__cxx11::basic_string") align 8 %ref.tmp, ptr noundef nonnull align 8 dereferenceable(12) %this1, ptr noundef %agg.tmp)
          to label %invoke.cont unwind label %lpad

invoke.cont:                                      ; preds = %entry
  %call = call noundef ptr @_ZNKSt7__cxx1112basic_stringIcSt11char_traitsIcESaIcEE5c_strEv(ptr noundef nonnull align 8 dereferenceable(32) %ref.tmp) #15
  invoke void @_ZN6Assimp6Logger4warnEPKc(ptr noundef nonnull align 8 dereferenceable(12) %this1, ptr noundef %call)
          to label %invoke.cont3 unwind label %lpad2

invoke.cont3:                                     ; preds = %invoke.cont
  call void @_ZNSt7__cxx1112basic_stringIcSt11char_traitsIcESaIcEED1Ev(ptr noundef nonnull align 8 dereferenceable(32) %ref.tmp) #15
  call void @_ZN6Assimp9Formatter15basic_formatterIcSt11char_traitsIcESaIcEED2Ev(ptr noundef nonnull align 8 dereferenceable(376) %agg.tmp) #15
  ret void

lpad:                                             ; preds = %entry
  %1 = landingpad { ptr, i32 }
          cleanup
  %2 = extractvalue { ptr, i32 } %1, 0
  store ptr %2, ptr %exn.slot, align 8
  %3 = extractvalue { ptr, i32 } %1, 1
  store i32 %3, ptr %ehselector.slot, align 4
  br label %ehcleanup

lpad2:                                            ; preds = %invoke.cont
  %4 = landingpad { ptr, i32 }
          cleanup
  %5 = extractvalue { ptr, i32 } %4, 0
  store ptr %5, ptr %exn.slot, align 8
  %6 = extractvalue { ptr, i32 } %4, 1
  store i32 %6, ptr %ehselector.slot, align 4
  call void @_ZNSt7__cxx1112basic_stringIcSt11char_traitsIcESaIcEED1Ev(ptr noundef nonnull align 8 dereferenceable(32) %ref.tmp) #15
  br label %ehcleanup

ehcleanup:                                        ; preds = %lpad2, %lpad
  call void @_ZN6Assimp9Formatter15basic_formatterIcSt11char_traitsIcESaIcEED2Ev(ptr noundef nonnull align 8 dereferenceable(376) %agg.tmp) #15
  br label %eh.resume

eh.resume:                                        ; preds = %ehcleanup
  %exn = load ptr, ptr %exn.slot, align 8
  %sel = load i32, ptr %ehselector.slot, align 4
  %lpad.val = insertvalue { ptr, i32 } poison, ptr %exn, 0
  %lpad.val4 = insertvalue { ptr, i32 } %lpad.val, i32 %sel, 1
  resume { ptr, i32 } %lpad.val4
}

; Function Attrs: mustprogress uwtable
define linkonce_odr hidden noundef zeroext i1 @_ZN6Assimp3MD59MD5Parser10SkipSpacesEv(ptr noundef nonnull align 8 dereferenceable(48) %this) #2 comdat align 2 {
entry:
  %this.addr = alloca ptr, align 8
  store ptr %this, ptr %this.addr, align 8
  %this1 = load ptr, ptr %this.addr, align 8
  %buffer = getelementptr inbounds %"class.Assimp::MD5::MD5Parser", ptr %this1, i32 0, i32 1
  %call = call noundef zeroext i1 @_ZN6Assimp10SkipSpacesIcEEbPPKT_(ptr noundef %buffer)
  ret i1 %call
}

; Function Attrs: mustprogress uwtable
define linkonce_odr hidden noundef zeroext i1 @_ZN6Assimp10TokenMatchIcEEbRPT_PKcj(ptr noundef nonnull align 8 dereferenceable(8) %in, ptr noundef %token, i32 noundef %len) #2 comdat {
entry:
  %retval = alloca i1, align 1
  %in.addr = alloca ptr, align 8
  %token.addr = alloca ptr, align 8
  %len.addr = alloca i32, align 4
  store ptr %in, ptr %in.addr, align 8
  store ptr %token, ptr %token.addr, align 8
  store i32 %len, ptr %len.addr, align 4
  %0 = load ptr, ptr %token.addr, align 8
  %1 = load ptr, ptr %in.addr, align 8
  %2 = load ptr, ptr %1, align 8
  %3 = load i32, ptr %len.addr, align 4
  %conv = zext i32 %3 to i64
  %call = call i32 @strncmp(ptr noundef %0, ptr noundef %2, i64 noundef %conv) #17
  %tobool = icmp ne i32 %call, 0
  br i1 %tobool, label %if.end8, label %land.lhs.true

land.lhs.true:                                    ; preds = %entry
  %4 = load ptr, ptr %in.addr, align 8
  %5 = load ptr, ptr %4, align 8
  %6 = load i32, ptr %len.addr, align 4
  %idxprom = zext i32 %6 to i64
  %arrayidx = getelementptr inbounds i8, ptr %5, i64 %idxprom
  %7 = load i8, ptr %arrayidx, align 1
  %call1 = call noundef zeroext i1 @_ZN6Assimp16IsSpaceOrNewLineIcEEbT_(i8 noundef signext %7)
  br i1 %call1, label %if.then, label %if.end8

if.then:                                          ; preds = %land.lhs.true
  %8 = load ptr, ptr %in.addr, align 8
  %9 = load ptr, ptr %8, align 8
  %10 = load i32, ptr %len.addr, align 4
  %idxprom2 = zext i32 %10 to i64
  %arrayidx3 = getelementptr inbounds i8, ptr %9, i64 %idxprom2
  %11 = load i8, ptr %arrayidx3, align 1
  %conv4 = sext i8 %11 to i32
  %cmp = icmp ne i32 %conv4, 0
  br i1 %cmp, label %if.then5, label %if.else

if.then5:                                         ; preds = %if.then
  %12 = load i32, ptr %len.addr, align 4
  %add = add i32 %12, 1
  %13 = load ptr, ptr %in.addr, align 8
  %14 = load ptr, ptr %13, align 8
  %idx.ext = zext i32 %add to i64
  %add.ptr = getelementptr inbounds i8, ptr %14, i64 %idx.ext
  store ptr %add.ptr, ptr %13, align 8
  br label %if.end

if.else:                                          ; preds = %if.then
  %15 = load i32, ptr %len.addr, align 4
  %16 = load ptr, ptr %in.addr, align 8
  %17 = load ptr, ptr %16, align 8
  %idx.ext6 = zext i32 %15 to i64
  %add.ptr7 = getelementptr inbounds i8, ptr %17, i64 %idx.ext6
  store ptr %add.ptr7, ptr %16, align 8
  br label %if.end

if.end:                                           ; preds = %if.else, %if.then5
  store i1 true, ptr %retval, align 1
  br label %return

if.end8:                                          ; preds = %land.lhs.true, %entry
  store i1 false, ptr %retval, align 1
  br label %return

return:                                           ; preds = %if.end8, %if.end
  %18 = load i1, ptr %retval, align 1
  ret i1 %18
}

; Function Attrs: mustprogress noreturn uwtable
define linkonce_odr hidden void @_ZN6Assimp3MD59MD5Parser11ReportErrorEPKc(ptr noundef nonnull align 8 dereferenceable(48) %this, ptr noundef %error) #5 comdat align 2 {
entry:
  %this.addr = alloca ptr, align 8
  %error.addr = alloca ptr, align 8
  store ptr %this, ptr %this.addr, align 8
  store ptr %error, ptr %error.addr, align 8
  %this1 = load ptr, ptr %this.addr, align 8
  %0 = load ptr, ptr %error.addr, align 8
  %lineNumber = getelementptr inbounds %"class.Assimp::MD5::MD5Parser", ptr %this1, i32 0, i32 4
  %1 = load i32, ptr %lineNumber, align 4
  call void @_ZN6Assimp3MD59MD5Parser11ReportErrorEPKcj(ptr noundef %0, i32 noundef %1) #16
  unreachable
}

; Function Attrs: mustprogress nounwind uwtable
define linkonce_odr hidden noundef i32 @_ZN6Assimp9strtoul10EPKcPS1_(ptr noundef %in, ptr noundef %out) #0 comdat {
entry:
  %in.addr = alloca ptr, align 8
  %out.addr = alloca ptr, align 8
  %value = alloca i32, align 4
  store ptr %in, ptr %in.addr, align 8
  store ptr %out, ptr %out.addr, align 8
  store i32 0, ptr %value, align 4
  br label %for.cond

for.cond:                                         ; preds = %if.end, %entry
  %0 = load ptr, ptr %in.addr, align 8
  %1 = load i8, ptr %0, align 1
  %conv = sext i8 %1 to i32
  %cmp = icmp slt i32 %conv, 48
  br i1 %cmp, label %if.then, label %lor.lhs.false

lor.lhs.false:                                    ; preds = %for.cond
  %2 = load ptr, ptr %in.addr, align 8
  %3 = load i8, ptr %2, align 1
  %conv1 = sext i8 %3 to i32
  %cmp2 = icmp sgt i32 %conv1, 57
  br i1 %cmp2, label %if.then, label %if.end

if.then:                                          ; preds = %lor.lhs.false, %for.cond
  br label %for.end

if.end:                                           ; preds = %lor.lhs.false
  %4 = load i32, ptr %value, align 4
  %mul = mul i32 %4, 10
  %5 = load ptr, ptr %in.addr, align 8
  %6 = load i8, ptr %5, align 1
  %conv3 = sext i8 %6 to i32
  %sub = sub nsw i32 %conv3, 48
  %add = add i32 %mul, %sub
  store i32 %add, ptr %value, align 4
  %7 = load ptr, ptr %in.addr, align 8
  %incdec.ptr = getelementptr inbounds i8, ptr %7, i32 1
  store ptr %incdec.ptr, ptr %in.addr, align 8
  br label %for.cond, !llvm.loop !15

for.end:                                          ; preds = %if.then
  %8 = load ptr, ptr %out.addr, align 8
  %tobool = icmp ne ptr %8, null
  br i1 %tobool, label %if.then4, label %if.end5

if.then4:                                         ; preds = %for.end
  %9 = load ptr, ptr %in.addr, align 8
  %10 = load ptr, ptr %out.addr, align 8
  store ptr %9, ptr %10, align 8
  br label %if.end5

if.end5:                                          ; preds = %if.then4, %for.end
  %11 = load i32, ptr %value, align 4
  ret i32 %11
}

; Function Attrs: mustprogress uwtable
define linkonce_odr hidden noundef zeroext i1 @_ZN6Assimp3MD59MD5Parser8SkipLineEv(ptr noundef nonnull align 8 dereferenceable(48) %this) #2 comdat align 2 {
entry:
  %this.addr = alloca ptr, align 8
  store ptr %this, ptr %this.addr, align 8
  %this1 = load ptr, ptr %this.addr, align 8
  %buffer = getelementptr inbounds %"class.Assimp::MD5::MD5Parser", ptr %this1, i32 0, i32 1
  %0 = load ptr, ptr %buffer, align 8
  %buffer2 = getelementptr inbounds %"class.Assimp::MD5::MD5Parser", ptr %this1, i32 0, i32 1
  %call = call noundef zeroext i1 @_ZN6Assimp3MD59MD5Parser8SkipLineEPKcPS3_(ptr noundef nonnull align 8 dereferenceable(48) %this1, ptr noundef %0, ptr noundef %buffer2)
  ret i1 %call
}

; Function Attrs: mustprogress nounwind uwtable
define linkonce_odr hidden noundef zeroext i1 @_ZN6Assimp9IsLineEndIcEEbT_(i8 noundef signext %in) #0 comdat {
entry:
  %in.addr = alloca i8, align 1
  store i8 %in, ptr %in.addr, align 1
  %0 = load i8, ptr %in.addr, align 1
  %conv = sext i8 %0 to i32
  %cmp = icmp eq i32 %conv, 13
  br i1 %cmp, label %lor.end, label %lor.lhs.false

lor.lhs.false:                                    ; preds = %entry
  %1 = load i8, ptr %in.addr, align 1
  %conv1 = sext i8 %1 to i32
  %cmp2 = icmp eq i32 %conv1, 10
  br i1 %cmp2, label %lor.end, label %lor.lhs.false3

lor.lhs.false3:                                   ; preds = %lor.lhs.false
  %2 = load i8, ptr %in.addr, align 1
  %conv4 = sext i8 %2 to i32
  %cmp5 = icmp eq i32 %conv4, 0
  br i1 %cmp5, label %lor.end, label %lor.rhs

lor.rhs:                                          ; preds = %lor.lhs.false3
  %3 = load i8, ptr %in.addr, align 1
  %conv6 = sext i8 %3 to i32
  %cmp7 = icmp eq i32 %conv6, 12
  br label %lor.end

lor.end:                                          ; preds = %lor.rhs, %lor.lhs.false3, %lor.lhs.false, %entry
  %4 = phi i1 [ true, %lor.lhs.false3 ], [ true, %lor.lhs.false ], [ true, %entry ], [ %cmp7, %lor.rhs ]
  ret i1 %4
}

; Function Attrs: mustprogress uwtable
define linkonce_odr void @_ZN6Assimp6Logger4infoIJNSt7__cxx1112basic_stringIcSt11char_traitsIcESaIcEEEEEEvDpOT_(ptr noundef nonnull align 8 dereferenceable(12) %this, ptr noundef nonnull align 8 dereferenceable(32) %args) #2 comdat align 2 personality ptr @__gxx_personality_v0 {
entry:
  %this.addr = alloca ptr, align 8
  %args.addr = alloca ptr, align 8
  %ref.tmp = alloca %"class.std::__cxx11::basic_string", align 8
  %agg.tmp = alloca %"class.Assimp::Formatter::basic_formatter", align 8
  %exn.slot = alloca ptr, align 8
  %ehselector.slot = alloca i32, align 4
  store ptr %this, ptr %this.addr, align 8
  store ptr %args, ptr %args.addr, align 8
  %this1 = load ptr, ptr %this.addr, align 8
  %0 = load ptr, ptr %args.addr, align 8
  call void @_ZN6Assimp9Formatter15basic_formatterIcSt11char_traitsIcESaIcEEC2INSt7__cxx1112basic_stringIcS3_S4_EEEERKT_(ptr noundef nonnull align 8 dereferenceable(376) %agg.tmp, ptr noundef nonnull align 8 dereferenceable(32) %0)
  invoke void @_ZN6Assimp6Logger13formatMessageB5cxx11ENS_9Formatter15basic_formatterIcSt11char_traitsIcESaIcEEE(ptr sret(%"class.std::__cxx11::basic_string") align 8 %ref.tmp, ptr noundef nonnull align 8 dereferenceable(12) %this1, ptr noundef %agg.tmp)
          to label %invoke.cont unwind label %lpad

invoke.cont:                                      ; preds = %entry
  %call = call noundef ptr @_ZNKSt7__cxx1112basic_stringIcSt11char_traitsIcESaIcEE5c_strEv(ptr noundef nonnull align 8 dereferenceable(32) %ref.tmp) #15
  invoke void @_ZN6Assimp6Logger4infoEPKc(ptr noundef nonnull align 8 dereferenceable(12) %this1, ptr noundef %call)
          to label %invoke.cont3 unwind label %lpad2

invoke.cont3:                                     ; preds = %invoke.cont
  call void @_ZNSt7__cxx1112basic_stringIcSt11char_traitsIcESaIcEED1Ev(ptr noundef nonnull align 8 dereferenceable(32) %ref.tmp) #15
  call void @_ZN6Assimp9Formatter15basic_formatterIcSt11char_traitsIcESaIcEED2Ev(ptr noundef nonnull align 8 dereferenceable(376) %agg.tmp) #15
  ret void

lpad:                                             ; preds = %entry
  %1 = landingpad { ptr, i32 }
          cleanup
  %2 = extractvalue { ptr, i32 } %1, 0
  store ptr %2, ptr %exn.slot, align 8
  %3 = extractvalue { ptr, i32 } %1, 1
  store i32 %3, ptr %ehselector.slot, align 4
  br label %ehcleanup

lpad2:                                            ; preds = %invoke.cont
  %4 = landingpad { ptr, i32 }
          cleanup
  %5 = extractvalue { ptr, i32 } %4, 0
  store ptr %5, ptr %exn.slot, align 8
  %6 = extractvalue { ptr, i32 } %4, 1
  store i32 %6, ptr %ehselector.slot, align 4
  call void @_ZNSt7__cxx1112basic_stringIcSt11char_traitsIcESaIcEED1Ev(ptr noundef nonnull align 8 dereferenceable(32) %ref.tmp) #15
  br label %ehcleanup

ehcleanup:                                        ; preds = %lpad2, %lpad
  call void @_ZN6Assimp9Formatter15basic_formatterIcSt11char_traitsIcESaIcEED2Ev(ptr noundef nonnull align 8 dereferenceable(376) %agg.tmp) #15
  br label %eh.resume

eh.resume:                                        ; preds = %ehcleanup
  %exn = load ptr, ptr %exn.slot, align 8
  %sel = load i32, ptr %ehselector.slot, align 4
  %lpad.val = insertvalue { ptr, i32 } poison, ptr %exn, 0
  %lpad.val4 = insertvalue { ptr, i32 } %lpad.val, i32 %sel, 1
  resume { ptr, i32 } %lpad.val4
}

; Function Attrs: mustprogress nounwind uwtable
define linkonce_odr noundef nonnull align 8 dereferenceable(8) ptr @_ZSt3minImERKT_S2_S2_(ptr noundef nonnull align 8 dereferenceable(8) %__a, ptr noundef nonnull align 8 dereferenceable(8) %__b) #0 comdat {
entry:
  %retval = alloca ptr, align 8
  %__a.addr = alloca ptr, align 8
  %__b.addr = alloca ptr, align 8
  store ptr %__a, ptr %__a.addr, align 8
  store ptr %__b, ptr %__b.addr, align 8
  %0 = load ptr, ptr %__b.addr, align 8
  %1 = load i64, ptr %0, align 8
  %2 = load ptr, ptr %__a.addr, align 8
  %3 = load i64, ptr %2, align 8
  %cmp = icmp ult i64 %1, %3
  br i1 %cmp, label %if.then, label %if.end

if.then:                                          ; preds = %entry
  %4 = load ptr, ptr %__b.addr, align 8
  store ptr %4, ptr %retval, align 8
  br label %return

if.end:                                           ; preds = %entry
  %5 = load ptr, ptr %__a.addr, align 8
  store ptr %5, ptr %retval, align 8
  br label %return

return:                                           ; preds = %if.end, %if.then
  %6 = load ptr, ptr %retval, align 8
  ret ptr %6
}

; Function Attrs: nounwind
declare void @_ZNSaIcEC1Ev(ptr noundef nonnull align 1 dereferenceable(1)) unnamed_addr #4

declare void @_ZNSt7__cxx1112basic_stringIcSt11char_traitsIcESaIcEEC1EPKcmRKS3_(ptr noundef nonnull align 8 dereferenceable(32), ptr noundef, i64 noundef, ptr noundef nonnull align 1 dereferenceable(1)) unnamed_addr #3

; Function Attrs: nounwind
declare void @_ZNSt7__cxx1112basic_stringIcSt11char_traitsIcESaIcEED1Ev(ptr noundef nonnull align 8 dereferenceable(32)) unnamed_addr #4

; Function Attrs: nounwind
declare void @_ZNSaIcED1Ev(ptr noundef nonnull align 1 dereferenceable(1)) unnamed_addr #4

; Function Attrs: mustprogress uwtable
define linkonce_odr hidden noundef zeroext i1 @_ZN6Assimp3MD59MD5Parser20SkipSpacesAndLineEndEv(ptr noundef nonnull align 8 dereferenceable(48) %this) #2 comdat align 2 {
entry:
  %this.addr = alloca ptr, align 8
  store ptr %this, ptr %this.addr, align 8
  %this1 = load ptr, ptr %this.addr, align 8
  %buffer = getelementptr inbounds %"class.Assimp::MD5::MD5Parser", ptr %this1, i32 0, i32 1
  %0 = load ptr, ptr %buffer, align 8
  %buffer2 = getelementptr inbounds %"class.Assimp::MD5::MD5Parser", ptr %this1, i32 0, i32 1
  %call = call noundef zeroext i1 @_ZN6Assimp3MD59MD5Parser20SkipSpacesAndLineEndEPKcPS3_(ptr noundef nonnull align 8 dereferenceable(48) %this1, ptr noundef %0, ptr noundef %buffer2)
  ret i1 %call
}

; Function Attrs: mustprogress uwtable
define linkonce_odr hidden noundef zeroext i1 @_ZN6Assimp16IsSpaceOrNewLineIcEEbT_(i8 noundef signext %in) #2 comdat {
entry:
  %in.addr = alloca i8, align 1
  store i8 %in, ptr %in.addr, align 1
  %0 = load i8, ptr %in.addr, align 1
  %call = call noundef zeroext i1 @_ZN6Assimp7IsSpaceIcEEbT_(i8 noundef signext %0)
  br i1 %call, label %lor.end, label %lor.rhs

lor.rhs:                                          ; preds = %entry
  %1 = load i8, ptr %in.addr, align 1
  %call1 = call noundef zeroext i1 @_ZN6Assimp9IsLineEndIcEEbT_(i8 noundef signext %1)
  br label %lor.end

lor.end:                                          ; preds = %lor.rhs, %entry
  %2 = phi i1 [ true, %entry ], [ %call1, %lor.rhs ]
  ret i1 %2
}

; Function Attrs: nounwind
declare noundef nonnull align 8 dereferenceable(32) ptr @_ZNSt7__cxx1112basic_stringIcSt11char_traitsIcESaIcEEaSEOS4_(ptr noundef nonnull align 8 dereferenceable(32), ptr noundef nonnull align 8 dereferenceable(32)) #4

; Function Attrs: mustprogress nounwind uwtable
define linkonce_odr hidden noundef zeroext i1 @_ZN6Assimp7IsSpaceIcEEbT_(i8 noundef signext %in) #0 comdat {
entry:
  %in.addr = alloca i8, align 1
  store i8 %in, ptr %in.addr, align 1
  %0 = load i8, ptr %in.addr, align 1
  %conv = sext i8 %0 to i32
  %cmp = icmp eq i32 %conv, 32
  br i1 %cmp, label %lor.end, label %lor.rhs

lor.rhs:                                          ; preds = %entry
  %1 = load i8, ptr %in.addr, align 1
  %conv1 = sext i8 %1 to i32
  %cmp2 = icmp eq i32 %conv1, 9
  br label %lor.end

lor.end:                                          ; preds = %lor.rhs, %entry
  %2 = phi i1 [ true, %entry ], [ %cmp2, %lor.rhs ]
  ret i1 %2
}

; Function Attrs: mustprogress uwtable
define linkonce_odr hidden noundef nonnull align 8 dereferenceable(16) ptr @_ZNSt6vectorIN6Assimp3MD57ElementESaIS2_EE12emplace_backIJEEERS2_DpOT_(ptr noundef nonnull align 8 dereferenceable(24) %this) #2 comdat align 2 {
entry:
  %this.addr = alloca ptr, align 8
  %agg.tmp = alloca %"class.__gnu_cxx::__normal_iterator.66", align 8
  store ptr %this, ptr %this.addr, align 8
  %this1 = load ptr, ptr %this.addr, align 8
  %_M_impl = getelementptr inbounds %"struct.std::_Vector_base.1", ptr %this1, i32 0, i32 0
  %_M_finish = getelementptr inbounds %"struct.std::_Vector_base<Assimp::MD5::Element, std::allocator<Assimp::MD5::Element>>::_Vector_impl_data", ptr %_M_impl, i32 0, i32 1
  %0 = load ptr, ptr %_M_finish, align 8
  %_M_impl2 = getelementptr inbounds %"struct.std::_Vector_base.1", ptr %this1, i32 0, i32 0
  %_M_end_of_storage = getelementptr inbounds %"struct.std::_Vector_base<Assimp::MD5::Element, std::allocator<Assimp::MD5::Element>>::_Vector_impl_data", ptr %_M_impl2, i32 0, i32 2
  %1 = load ptr, ptr %_M_end_of_storage, align 8
  %cmp = icmp ne ptr %0, %1
  br i1 %cmp, label %if.then, label %if.else

if.then:                                          ; preds = %entry
  %_M_impl3 = getelementptr inbounds %"struct.std::_Vector_base.1", ptr %this1, i32 0, i32 0
  %_M_impl4 = getelementptr inbounds %"struct.std::_Vector_base.1", ptr %this1, i32 0, i32 0
  %_M_finish5 = getelementptr inbounds %"struct.std::_Vector_base<Assimp::MD5::Element, std::allocator<Assimp::MD5::Element>>::_Vector_impl_data", ptr %_M_impl4, i32 0, i32 1
  %2 = load ptr, ptr %_M_finish5, align 8
  call void @_ZNSt16allocator_traitsISaIN6Assimp3MD57ElementEEE9constructIS2_JEEEvRS3_PT_DpOT0_(ptr noundef nonnull align 1 dereferenceable(1) %_M_impl3, ptr noundef %2) #15
  %_M_impl6 = getelementptr inbounds %"struct.std::_Vector_base.1", ptr %this1, i32 0, i32 0
  %_M_finish7 = getelementptr inbounds %"struct.std::_Vector_base<Assimp::MD5::Element, std::allocator<Assimp::MD5::Element>>::_Vector_impl_data", ptr %_M_impl6, i32 0, i32 1
  %3 = load ptr, ptr %_M_finish7, align 8
  %incdec.ptr = getelementptr inbounds %"struct.Assimp::MD5::Element", ptr %3, i32 1
  store ptr %incdec.ptr, ptr %_M_finish7, align 8
  br label %if.end

if.else:                                          ; preds = %entry
  %call = call ptr @_ZNSt6vectorIN6Assimp3MD57ElementESaIS2_EE3endEv(ptr noundef nonnull align 8 dereferenceable(24) %this1) #15
  %coerce.dive = getelementptr inbounds %"class.__gnu_cxx::__normal_iterator.66", ptr %agg.tmp, i32 0, i32 0
  store ptr %call, ptr %coerce.dive, align 8
  %coerce.dive8 = getelementptr inbounds %"class.__gnu_cxx::__normal_iterator.66", ptr %agg.tmp, i32 0, i32 0
  %4 = load ptr, ptr %coerce.dive8, align 8
  call void @_ZNSt6vectorIN6Assimp3MD57ElementESaIS2_EE17_M_realloc_insertIJEEEvN9__gnu_cxx17__normal_iteratorIPS2_S4_EEDpOT_(ptr noundef nonnull align 8 dereferenceable(24) %this1, ptr %4)
  br label %if.end

if.end:                                           ; preds = %if.else, %if.then
  %call9 = call noundef nonnull align 8 dereferenceable(16) ptr @_ZNSt6vectorIN6Assimp3MD57ElementESaIS2_EE4backEv(ptr noundef nonnull align 8 dereferenceable(24) %this1) #15
  ret ptr %call9
}

; Function Attrs: mustprogress nounwind uwtable
define linkonce_odr hidden noundef nonnull align 8 dereferenceable(16) ptr @_ZNSt6vectorIN6Assimp3MD57ElementESaIS2_EE4backEv(ptr noundef nonnull align 8 dereferenceable(24) %this) #0 comdat align 2 {
entry:
  %this.addr = alloca ptr, align 8
  %ref.tmp = alloca %"class.__gnu_cxx::__normal_iterator.66", align 8
  %ref.tmp2 = alloca %"class.__gnu_cxx::__normal_iterator.66", align 8
  store ptr %this, ptr %this.addr, align 8
  %this1 = load ptr, ptr %this.addr, align 8
  %call = call ptr @_ZNSt6vectorIN6Assimp3MD57ElementESaIS2_EE3endEv(ptr noundef nonnull align 8 dereferenceable(24) %this1) #15
  %coerce.dive = getelementptr inbounds %"class.__gnu_cxx::__normal_iterator.66", ptr %ref.tmp2, i32 0, i32 0
  store ptr %call, ptr %coerce.dive, align 8
  %call3 = call ptr @_ZNK9__gnu_cxx17__normal_iteratorIPN6Assimp3MD57ElementESt6vectorIS3_SaIS3_EEEmiEl(ptr noundef nonnull align 8 dereferenceable(8) %ref.tmp2, i64 noundef 1) #15
  %coerce.dive4 = getelementptr inbounds %"class.__gnu_cxx::__normal_iterator.66", ptr %ref.tmp, i32 0, i32 0
  store ptr %call3, ptr %coerce.dive4, align 8
  %call5 = call noundef nonnull align 8 dereferenceable(16) ptr @_ZNK9__gnu_cxx17__normal_iteratorIPN6Assimp3MD57ElementESt6vectorIS3_SaIS3_EEEdeEv(ptr noundef nonnull align 8 dereferenceable(8) %ref.tmp) #15
  ret ptr %call5
}

; Function Attrs: mustprogress uwtable
define hidden void @_ZN6Assimp3MD513MD5MeshParserC2ERSt6vectorINS0_7SectionESaIS3_EE(ptr noundef nonnull align 8 dereferenceable(48) %this, ptr noundef nonnull align 8 dereferenceable(24) %mSections) unnamed_addr #2 align 2 personality ptr @__gxx_personality_v0 {
entry:
  %this.addr = alloca ptr, align 8
  %mSections.addr = alloca ptr, align 8
  %exn.slot = alloca ptr, align 8
  %ehselector.slot = alloca i32, align 4
  %iter = alloca %"class.__gnu_cxx::__normal_iterator", align 8
  %ref.tmp = alloca %"class.__gnu_cxx::__normal_iterator.19", align 8
  %iterEnd = alloca %"class.__gnu_cxx::__normal_iterator", align 8
  %ref.tmp4 = alloca %"class.__gnu_cxx::__normal_iterator.19", align 8
  %__range5 = alloca ptr, align 8
  %__begin5 = alloca %"class.__gnu_cxx::__normal_iterator.20", align 8
  %__end5 = alloca %"class.__gnu_cxx::__normal_iterator.20", align 8
  %elem = alloca ptr, align 8
  %desc = alloca ptr, align 8
  %sz = alloca ptr, align 8
  %szStart57 = alloca ptr, align 8
  %szEnd = alloca ptr, align 8
  %desc209 = alloca ptr, align 8
  %__range6 = alloca ptr, align 8
  %__begin6 = alloca %"class.__gnu_cxx::__normal_iterator.20", align 8
  %__end6 = alloca %"class.__gnu_cxx::__normal_iterator.20", align 8
  %elem221 = alloca ptr, align 8
  %sz223 = alloca ptr, align 8
  %szStart248 = alloca ptr, align 8
  %szEnd263 = alloca ptr, align 8
  %idx = alloca i32, align 4
  %vert = alloca ptr, align 8
  %idx422 = alloca i32, align 4
  %face = alloca ptr, align 8
  %i = alloca i32, align 4
  %idx466 = alloca i32, align 4
  %weight = alloca ptr, align 8
  store ptr %this, ptr %this.addr, align 8
  store ptr %mSections, ptr %mSections.addr, align 8
  %this1 = load ptr, ptr %this.addr, align 8
  %mMeshes = getelementptr inbounds %"class.Assimp::MD5::MD5MeshParser", ptr %this1, i32 0, i32 0
  call void @_ZNSt6vectorIN6Assimp3MD58MeshDescESaIS2_EEC2Ev(ptr noundef nonnull align 8 dereferenceable(24) %mMeshes) #15
  %mJoints = getelementptr inbounds %"class.Assimp::MD5::MD5MeshParser", ptr %this1, i32 0, i32 1
  call void @_ZNSt6vectorIN6Assimp3MD58BoneDescESaIS2_EEC2Ev(ptr noundef nonnull align 8 dereferenceable(24) %mJoints) #15
  %call = invoke noundef ptr @_ZN6Assimp13DefaultLogger3getEv()
          to label %invoke.cont unwind label %lpad

invoke.cont:                                      ; preds = %entry
  invoke void @_ZN6Assimp6Logger5debugEPKc(ptr noundef nonnull align 8 dereferenceable(12) %call, ptr noundef @.str.6)
          to label %invoke.cont2 unwind label %lpad

invoke.cont2:                                     ; preds = %invoke.cont
  %0 = load ptr, ptr %mSections.addr, align 8
  %call3 = call ptr @_ZNSt6vectorIN6Assimp3MD57SectionESaIS2_EE5beginEv(ptr noundef nonnull align 8 dereferenceable(24) %0) #15
  %coerce.dive = getelementptr inbounds %"class.__gnu_cxx::__normal_iterator.19", ptr %ref.tmp, i32 0, i32 0
  store ptr %call3, ptr %coerce.dive, align 8
  call void @_ZN9__gnu_cxx17__normal_iteratorIPKN6Assimp3MD57SectionESt6vectorIS3_SaIS3_EEEC2IPS3_vEERKNS0_IT_S8_EE(ptr noundef nonnull align 8 dereferenceable(8) %iter, ptr noundef nonnull align 8 dereferenceable(8) %ref.tmp) #15
  %1 = load ptr, ptr %mSections.addr, align 8
  %call5 = call ptr @_ZNSt6vectorIN6Assimp3MD57SectionESaIS2_EE3endEv(ptr noundef nonnull align 8 dereferenceable(24) %1) #15
  %coerce.dive6 = getelementptr inbounds %"class.__gnu_cxx::__normal_iterator.19", ptr %ref.tmp4, i32 0, i32 0
  store ptr %call5, ptr %coerce.dive6, align 8
  call void @_ZN9__gnu_cxx17__normal_iteratorIPKN6Assimp3MD57SectionESt6vectorIS3_SaIS3_EEEC2IPS3_vEERKNS0_IT_S8_EE(ptr noundef nonnull align 8 dereferenceable(8) %iterEnd, ptr noundef nonnull align 8 dereferenceable(8) %ref.tmp4) #15
  br label %for.cond

for.cond:                                         ; preds = %for.inc567, %invoke.cont2
  %call7 = call noundef zeroext i1 @_ZN9__gnu_cxxneIPKN6Assimp3MD57SectionESt6vectorIS3_SaIS3_EEEEbRKNS_17__normal_iteratorIT_T0_EESE_(ptr noundef nonnull align 8 dereferenceable(8) %iter, ptr noundef nonnull align 8 dereferenceable(8) %iterEnd) #15
  br i1 %call7, label %for.body, label %for.end569

for.body:                                         ; preds = %for.cond
  %call8 = call noundef nonnull align 8 dereferenceable(96) ptr @_ZNK9__gnu_cxx17__normal_iteratorIPKN6Assimp3MD57SectionESt6vectorIS3_SaIS3_EEEdeEv(ptr noundef nonnull align 8 dereferenceable(8) %iter) #15
  %mName = getelementptr inbounds %"struct.Assimp::MD5::Section", ptr %call8, i32 0, i32 2
  %call10 = invoke noundef zeroext i1 @_ZSteqIcSt11char_traitsIcESaIcEEbRKNSt7__cxx1112basic_stringIT_T0_T1_EEPKS5_(ptr noundef nonnull align 8 dereferenceable(32) %mName, ptr noundef @.str.7)
          to label %invoke.cont9 unwind label %lpad

invoke.cont9:                                     ; preds = %for.body
  br i1 %call10, label %if.then, label %if.else

if.then:                                          ; preds = %invoke.cont9
  %mMeshes11 = getelementptr inbounds %"class.Assimp::MD5::MD5MeshParser", ptr %this1, i32 0, i32 0
  %call12 = call noundef nonnull align 8 dereferenceable(96) ptr @_ZNK9__gnu_cxx17__normal_iteratorIPKN6Assimp3MD57SectionESt6vectorIS3_SaIS3_EEEdeEv(ptr noundef nonnull align 8 dereferenceable(8) %iter) #15
  %mGlobalValue = getelementptr inbounds %"struct.Assimp::MD5::Section", ptr %call12, i32 0, i32 3
  %call13 = call noundef ptr @_ZNKSt7__cxx1112basic_stringIcSt11char_traitsIcESaIcEE5c_strEv(ptr noundef nonnull align 8 dereferenceable(32) %mGlobalValue) #15
  %call15 = invoke noundef i32 @_ZN6Assimp9strtoul10EPKcPS1_(ptr noundef %call13, ptr noundef null)
          to label %invoke.cont14 unwind label %lpad

invoke.cont14:                                    ; preds = %if.then
  %conv = zext i32 %call15 to i64
  invoke void @_ZNSt6vectorIN6Assimp3MD58MeshDescESaIS2_EE7reserveEm(ptr noundef nonnull align 8 dereferenceable(24) %mMeshes11, i64 noundef %conv)
          to label %invoke.cont16 unwind label %lpad

invoke.cont16:                                    ; preds = %invoke.cont14
  br label %if.end566

lpad:                                             ; preds = %invoke.cont570, %for.end569, %if.then549, %if.then542, %invoke.cont538, %if.end535, %if.then532, %invoke.cont528, %if.end525, %if.then522, %invoke.cont518, %if.end516, %if.then513, %if.end510, %if.then507, %if.then500, %invoke.cont496, %if.end495, %if.then492, %invoke.cont488, %if.end484, %if.then479, %if.then471, %invoke.cont467, %if.end465, %if.then462, %if.then459, %if.else456, %if.end448, %if.then445, %for.body442, %if.end434, %if.then429, %if.end421, %if.then418, %if.then415, %if.else412, %if.end409, %if.then406, %invoke.cont402, %if.end401, %if.then398, %if.end395, %if.then392, %if.then385, %invoke.cont381, %if.end378, %if.then375, %invoke.cont371, %if.end369, %if.then366, %if.end363, %if.then360, %if.then349, %if.then341, %invoke.cont337, %if.end336, %if.then333, %if.then330, %if.else327, %invoke.cont323, %if.end322, %if.then319, %if.then316, %if.else313, %invoke.cont309, %if.end308, %if.then305, %if.then302, %if.else299, %invoke.cont295, %if.end294, %if.then291, %if.then288, %if.else285, %if.then230, %if.then227, %for.body220, %if.then205, %if.else200, %if.then195, %if.then188, %invoke.cont184, %if.end181, %if.then178, %invoke.cont174, %if.end171, %if.then168, %invoke.cont164, %if.end162, %if.then159, %if.end156, %if.then153, %if.then146, %if.end143, %if.then140, %if.then133, %invoke.cont129, %if.end127, %if.then124, %invoke.cont120, %if.end118, %if.then115, %invoke.cont111, %if.end110, %if.then107, %if.end104, %if.then101, %if.then94, %invoke.cont90, %if.end89, %if.then87, %if.end80, %for.body43, %if.else30, %invoke.cont26, %if.then21, %if.else, %invoke.cont14, %if.then, %for.body, %invoke.cont, %entry
  %2 = landingpad { ptr, i32 }
          cleanup
  %3 = extractvalue { ptr, i32 } %2, 0
  store ptr %3, ptr %exn.slot, align 8
  %4 = extractvalue { ptr, i32 } %2, 1
  store i32 %4, ptr %ehselector.slot, align 4
  call void @_ZNSt6vectorIN6Assimp3MD58BoneDescESaIS2_EED2Ev(ptr noundef nonnull align 8 dereferenceable(24) %mJoints) #15
  call void @_ZNSt6vectorIN6Assimp3MD58MeshDescESaIS2_EED2Ev(ptr noundef nonnull align 8 dereferenceable(24) %mMeshes) #15
  br label %eh.resume

if.else:                                          ; preds = %invoke.cont9
  %call17 = call noundef nonnull align 8 dereferenceable(96) ptr @_ZNK9__gnu_cxx17__normal_iteratorIPKN6Assimp3MD57SectionESt6vectorIS3_SaIS3_EEEdeEv(ptr noundef nonnull align 8 dereferenceable(8) %iter) #15
  %mName18 = getelementptr inbounds %"struct.Assimp::MD5::Section", ptr %call17, i32 0, i32 2
  %call20 = invoke noundef zeroext i1 @_ZSteqIcSt11char_traitsIcESaIcEEbRKNSt7__cxx1112basic_stringIT_T0_T1_EEPKS5_(ptr noundef nonnull align 8 dereferenceable(32) %mName18, ptr noundef @.str.8)
          to label %invoke.cont19 unwind label %lpad

invoke.cont19:                                    ; preds = %if.else
  br i1 %call20, label %if.then21, label %if.else30

if.then21:                                        ; preds = %invoke.cont19
  %mJoints22 = getelementptr inbounds %"class.Assimp::MD5::MD5MeshParser", ptr %this1, i32 0, i32 1
  %call23 = call noundef nonnull align 8 dereferenceable(96) ptr @_ZNK9__gnu_cxx17__normal_iteratorIPKN6Assimp3MD57SectionESt6vectorIS3_SaIS3_EEEdeEv(ptr noundef nonnull align 8 dereferenceable(8) %iter) #15
  %mGlobalValue24 = getelementptr inbounds %"struct.Assimp::MD5::Section", ptr %call23, i32 0, i32 3
  %call25 = call noundef ptr @_ZNKSt7__cxx1112basic_stringIcSt11char_traitsIcESaIcEE5c_strEv(ptr noundef nonnull align 8 dereferenceable(32) %mGlobalValue24) #15
  %call27 = invoke noundef i32 @_ZN6Assimp9strtoul10EPKcPS1_(ptr noundef %call25, ptr noundef null)
          to label %invoke.cont26 unwind label %lpad

invoke.cont26:                                    ; preds = %if.then21
  %conv28 = zext i32 %call27 to i64
  invoke void @_ZNSt6vectorIN6Assimp3MD58BoneDescESaIS2_EE7reserveEm(ptr noundef nonnull align 8 dereferenceable(24) %mJoints22, i64 noundef %conv28)
          to label %invoke.cont29 unwind label %lpad

invoke.cont29:                                    ; preds = %invoke.cont26
  br label %if.end565

if.else30:                                        ; preds = %invoke.cont19
  %call31 = call noundef nonnull align 8 dereferenceable(96) ptr @_ZNK9__gnu_cxx17__normal_iteratorIPKN6Assimp3MD57SectionESt6vectorIS3_SaIS3_EEEdeEv(ptr noundef nonnull align 8 dereferenceable(8) %iter) #15
  %mName32 = getelementptr inbounds %"struct.Assimp::MD5::Section", ptr %call31, i32 0, i32 2
  %call34 = invoke noundef zeroext i1 @_ZSteqIcSt11char_traitsIcESaIcEEbRKNSt7__cxx1112basic_stringIT_T0_T1_EEPKS5_(ptr noundef nonnull align 8 dereferenceable(32) %mName32, ptr noundef @.str.9)
          to label %invoke.cont33 unwind label %lpad

invoke.cont33:                                    ; preds = %if.else30
  br i1 %call34, label %if.then35, label %if.else200

if.then35:                                        ; preds = %invoke.cont33
  %call36 = call noundef nonnull align 8 dereferenceable(96) ptr @_ZNK9__gnu_cxx17__normal_iteratorIPKN6Assimp3MD57SectionESt6vectorIS3_SaIS3_EEEdeEv(ptr noundef nonnull align 8 dereferenceable(8) %iter) #15
  %mElements = getelementptr inbounds %"struct.Assimp::MD5::Section", ptr %call36, i32 0, i32 1
  store ptr %mElements, ptr %__range5, align 8
  %5 = load ptr, ptr %__range5, align 8
  %call37 = call ptr @_ZNKSt6vectorIN6Assimp3MD57ElementESaIS2_EE5beginEv(ptr noundef nonnull align 8 dereferenceable(24) %5) #15
  %coerce.dive38 = getelementptr inbounds %"class.__gnu_cxx::__normal_iterator.20", ptr %__begin5, i32 0, i32 0
  store ptr %call37, ptr %coerce.dive38, align 8
  %6 = load ptr, ptr %__range5, align 8
  %call39 = call ptr @_ZNKSt6vectorIN6Assimp3MD57ElementESaIS2_EE3endEv(ptr noundef nonnull align 8 dereferenceable(24) %6) #15
  %coerce.dive40 = getelementptr inbounds %"class.__gnu_cxx::__normal_iterator.20", ptr %__end5, i32 0, i32 0
  store ptr %call39, ptr %coerce.dive40, align 8
  br label %for.cond41

for.cond41:                                       ; preds = %for.inc, %if.then35
  %call42 = call noundef zeroext i1 @_ZN9__gnu_cxxneIPKN6Assimp3MD57ElementESt6vectorIS3_SaIS3_EEEEbRKNS_17__normal_iteratorIT_T0_EESE_(ptr noundef nonnull align 8 dereferenceable(8) %__begin5, ptr noundef nonnull align 8 dereferenceable(8) %__end5) #15
  br i1 %call42, label %for.body43, label %for.end

for.body43:                                       ; preds = %for.cond41
  %call44 = call noundef nonnull align 8 dereferenceable(16) ptr @_ZNK9__gnu_cxx17__normal_iteratorIPKN6Assimp3MD57ElementESt6vectorIS3_SaIS3_EEEdeEv(ptr noundef nonnull align 8 dereferenceable(8) %__begin5) #15
  store ptr %call44, ptr %elem, align 8
  %mJoints45 = getelementptr inbounds %"class.Assimp::MD5::MD5MeshParser", ptr %this1, i32 0, i32 1
  %call47 = invoke noundef nonnull align 4 dereferenceable(1204) ptr @_ZNSt6vectorIN6Assimp3MD58BoneDescESaIS2_EE12emplace_backIJEEERS2_DpOT_(ptr noundef nonnull align 8 dereferenceable(24) %mJoints45)
          to label %invoke.cont46 unwind label %lpad

invoke.cont46:                                    ; preds = %for.body43
  %mJoints48 = getelementptr inbounds %"class.Assimp::MD5::MD5MeshParser", ptr %this1, i32 0, i32 1
  %call49 = call noundef nonnull align 4 dereferenceable(1204) ptr @_ZNSt6vectorIN6Assimp3MD58BoneDescESaIS2_EE4backEv(ptr noundef nonnull align 8 dereferenceable(24) %mJoints48) #15
  store ptr %call49, ptr %desc, align 8
  %7 = load ptr, ptr %elem, align 8
  %szStart = getelementptr inbounds %"struct.Assimp::MD5::Element", ptr %7, i32 0, i32 0
  %8 = load ptr, ptr %szStart, align 8
  store ptr %8, ptr %sz, align 8
  %9 = load ptr, ptr %desc, align 8
  %mName50 = getelementptr inbounds %"struct.Assimp::MD5::BaseJointDescription", ptr %9, i32 0, i32 0
  %length = getelementptr inbounds %struct.aiString, ptr %mName50, i32 0, i32 0
  store i32 0, ptr %length, align 4
  br label %while.cond

while.cond:                                       ; preds = %while.body, %invoke.cont46
  %10 = load ptr, ptr %sz, align 8
  %11 = load i8, ptr %10, align 1
  %conv51 = sext i8 %11 to i32
  %cmp = icmp ne i32 34, %conv51
  br i1 %cmp, label %land.rhs, label %land.end

land.rhs:                                         ; preds = %while.cond
  %12 = load ptr, ptr %sz, align 8
  %13 = load i8, ptr %12, align 1
  %conv52 = sext i8 %13 to i32
  %cmp53 = icmp ne i32 0, %conv52
  br label %land.end

land.end:                                         ; preds = %land.rhs, %while.cond
  %14 = phi i1 [ false, %while.cond ], [ %cmp53, %land.rhs ]
  br i1 %14, label %while.body, label %while.end

while.body:                                       ; preds = %land.end
  %15 = load ptr, ptr %sz, align 8
  %incdec.ptr = getelementptr inbounds i8, ptr %15, i32 1
  store ptr %incdec.ptr, ptr %sz, align 8
  br label %while.cond, !llvm.loop !16

while.end:                                        ; preds = %land.end
  %16 = load ptr, ptr %sz, align 8
  %17 = load i8, ptr %16, align 1
  %conv54 = sext i8 %17 to i32
  %cmp55 = icmp ne i32 0, %conv54
  br i1 %cmp55, label %if.then56, label %if.end80

if.then56:                                        ; preds = %while.end
  %18 = load ptr, ptr %sz, align 8
  %incdec.ptr58 = getelementptr inbounds i8, ptr %18, i32 1
  store ptr %incdec.ptr58, ptr %sz, align 8
  store ptr %incdec.ptr58, ptr %szStart57, align 8
  br label %while.cond59

while.cond59:                                     ; preds = %while.body66, %if.then56
  %19 = load ptr, ptr %sz, align 8
  %20 = load i8, ptr %19, align 1
  %conv60 = sext i8 %20 to i32
  %cmp61 = icmp ne i32 34, %conv60
  br i1 %cmp61, label %land.rhs62, label %land.end65

land.rhs62:                                       ; preds = %while.cond59
  %21 = load ptr, ptr %sz, align 8
  %22 = load i8, ptr %21, align 1
  %conv63 = sext i8 %22 to i32
  %cmp64 = icmp ne i32 0, %conv63
  br label %land.end65

land.end65:                                       ; preds = %land.rhs62, %while.cond59
  %23 = phi i1 [ false, %while.cond59 ], [ %cmp64, %land.rhs62 ]
  br i1 %23, label %while.body66, label %while.end68

while.body66:                                     ; preds = %land.end65
  %24 = load ptr, ptr %sz, align 8
  %incdec.ptr67 = getelementptr inbounds i8, ptr %24, i32 1
  store ptr %incdec.ptr67, ptr %sz, align 8
  br label %while.cond59, !llvm.loop !17

while.end68:                                      ; preds = %land.end65
  %25 = load ptr, ptr %sz, align 8
  %26 = load i8, ptr %25, align 1
  %conv69 = sext i8 %26 to i32
  %cmp70 = icmp ne i32 0, %conv69
  br i1 %cmp70, label %if.then71, label %if.end

if.then71:                                        ; preds = %while.end68
  %27 = load ptr, ptr %sz, align 8
  %incdec.ptr72 = getelementptr inbounds i8, ptr %27, i32 1
  store ptr %incdec.ptr72, ptr %sz, align 8
  store ptr %27, ptr %szEnd, align 8
  %28 = load ptr, ptr %szEnd, align 8
  %29 = load ptr, ptr %szStart57, align 8
  %sub.ptr.lhs.cast = ptrtoint ptr %28 to i64
  %sub.ptr.rhs.cast = ptrtoint ptr %29 to i64
  %sub.ptr.sub = sub i64 %sub.ptr.lhs.cast, %sub.ptr.rhs.cast
  %conv73 = trunc i64 %sub.ptr.sub to i32
  %30 = load ptr, ptr %desc, align 8
  %mName74 = getelementptr inbounds %"struct.Assimp::MD5::BaseJointDescription", ptr %30, i32 0, i32 0
  %length75 = getelementptr inbounds %struct.aiString, ptr %mName74, i32 0, i32 0
  store i32 %conv73, ptr %length75, align 4
  %31 = load ptr, ptr %desc, align 8
  %mName76 = getelementptr inbounds %"struct.Assimp::MD5::BaseJointDescription", ptr %31, i32 0, i32 0
  %data = getelementptr inbounds %struct.aiString, ptr %mName76, i32 0, i32 1
  %arraydecay = getelementptr inbounds [1024 x i8], ptr %data, i64 0, i64 0
  %32 = load ptr, ptr %szStart57, align 8
  %33 = load ptr, ptr %desc, align 8
  %mName77 = getelementptr inbounds %"struct.Assimp::MD5::BaseJointDescription", ptr %33, i32 0, i32 0
  %length78 = getelementptr inbounds %struct.aiString, ptr %mName77, i32 0, i32 0
  %34 = load i32, ptr %length78, align 4
  %conv79 = zext i32 %34 to i64
  call void @llvm.memcpy.p0.p0.i64(ptr align 4 %arraydecay, ptr align 1 %32, i64 %conv79, i1 false)
  br label %if.end

if.end:                                           ; preds = %if.then71, %while.end68
  br label %if.end80

if.end80:                                         ; preds = %if.end, %while.end
  %35 = load ptr, ptr %desc, align 8
  %mName81 = getelementptr inbounds %"struct.Assimp::MD5::BaseJointDescription", ptr %35, i32 0, i32 0
  %data82 = getelementptr inbounds %struct.aiString, ptr %mName81, i32 0, i32 1
  %36 = load ptr, ptr %desc, align 8
  %mName83 = getelementptr inbounds %"struct.Assimp::MD5::BaseJointDescription", ptr %36, i32 0, i32 0
  %length84 = getelementptr inbounds %struct.aiString, ptr %mName83, i32 0, i32 0
  %37 = load i32, ptr %length84, align 4
  %idxprom = zext i32 %37 to i64
  %arrayidx = getelementptr inbounds [1024 x i8], ptr %data82, i64 0, i64 %idxprom
  store i8 0, ptr %arrayidx, align 1
  %call86 = invoke noundef zeroext i1 @_ZN6Assimp10SkipSpacesIcEEbPPKT_(ptr noundef %sz)
          to label %invoke.cont85 unwind label %lpad

invoke.cont85:                                    ; preds = %if.end80
  br i1 %call86, label %if.end89, label %if.then87

if.then87:                                        ; preds = %invoke.cont85
  %38 = load ptr, ptr %elem, align 8
  %iLineNumber = getelementptr inbounds %"struct.Assimp::MD5::Element", ptr %38, i32 0, i32 1
  %39 = load i32, ptr %iLineNumber, align 8
  invoke void @_ZN6Assimp3MD59MD5Parser13ReportWarningEPKcj(ptr noundef @.str.10, i32 noundef %39)
          to label %invoke.cont88 unwind label %lpad

invoke.cont88:                                    ; preds = %if.then87
  br label %if.end89

if.end89:                                         ; preds = %invoke.cont88, %invoke.cont85
  %40 = load ptr, ptr %sz, align 8
  %call91 = invoke noundef i32 @_ZN6Assimp8strtol10EPKcPS1_(ptr noundef %40, ptr noundef %sz)
          to label %invoke.cont90 unwind label %lpad

invoke.cont90:                                    ; preds = %if.end89
  %41 = load ptr, ptr %desc, align 8
  %mParentIndex = getelementptr inbounds %"struct.Assimp::MD5::BaseJointDescription", ptr %41, i32 0, i32 1
  store i32 %call91, ptr %mParentIndex, align 4
  %call93 = invoke noundef zeroext i1 @_ZN6Assimp10SkipSpacesIcEEbPPKT_(ptr noundef %sz)
          to label %invoke.cont92 unwind label %lpad

invoke.cont92:                                    ; preds = %invoke.cont90
  br i1 %call93, label %if.end97, label %if.then94

if.then94:                                        ; preds = %invoke.cont92
  %42 = load ptr, ptr %elem, align 8
  %iLineNumber95 = getelementptr inbounds %"struct.Assimp::MD5::Element", ptr %42, i32 0, i32 1
  %43 = load i32, ptr %iLineNumber95, align 8
  invoke void @_ZN6Assimp3MD59MD5Parser13ReportWarningEPKcj(ptr noundef @.str.10, i32 noundef %43)
          to label %invoke.cont96 unwind label %lpad

invoke.cont96:                                    ; preds = %if.then94
  br label %if.end97

if.end97:                                         ; preds = %invoke.cont96, %invoke.cont92
  %44 = load ptr, ptr %sz, align 8
  %incdec.ptr98 = getelementptr inbounds i8, ptr %44, i32 1
  store ptr %incdec.ptr98, ptr %sz, align 8
  %45 = load i8, ptr %44, align 1
  %conv99 = sext i8 %45 to i32
  %cmp100 = icmp ne i32 40, %conv99
  br i1 %cmp100, label %if.then101, label %if.end104

if.then101:                                       ; preds = %if.end97
  %46 = load ptr, ptr %elem, align 8
  %iLineNumber102 = getelementptr inbounds %"struct.Assimp::MD5::Element", ptr %46, i32 0, i32 1
  %47 = load i32, ptr %iLineNumber102, align 8
  invoke void @_ZN6Assimp3MD59MD5Parser13ReportWarningEPKcj(ptr noundef @.str.11, i32 noundef %47)
          to label %invoke.cont103 unwind label %lpad

invoke.cont103:                                   ; preds = %if.then101
  br label %if.end104

if.end104:                                        ; preds = %invoke.cont103, %if.end97
  %call106 = invoke noundef zeroext i1 @_ZN6Assimp10SkipSpacesIcEEbPPKT_(ptr noundef %sz)
          to label %invoke.cont105 unwind label %lpad

invoke.cont105:                                   ; preds = %if.end104
  br i1 %call106, label %if.end110, label %if.then107

if.then107:                                       ; preds = %invoke.cont105
  %48 = load ptr, ptr %elem, align 8
  %iLineNumber108 = getelementptr inbounds %"struct.Assimp::MD5::Element", ptr %48, i32 0, i32 1
  %49 = load i32, ptr %iLineNumber108, align 8
  invoke void @_ZN6Assimp3MD59MD5Parser13ReportWarningEPKcj(ptr noundef @.str.10, i32 noundef %49)
          to label %invoke.cont109 unwind label %lpad

invoke.cont109:                                   ; preds = %if.then107
  br label %if.end110

if.end110:                                        ; preds = %invoke.cont109, %invoke.cont105
  %50 = load ptr, ptr %sz, align 8
  %51 = load ptr, ptr %desc, align 8
  %mPositionXYZ = getelementptr inbounds %"struct.Assimp::MD5::BoneDesc", ptr %51, i32 0, i32 1
  %x = getelementptr inbounds %class.aiVector3t, ptr %mPositionXYZ, i32 0, i32 0
  %call112 = invoke noundef ptr @_ZN6Assimp17fast_atoreal_moveIf17DeadlyImportErrorEEPKcS3_RT_b(ptr noundef %50, ptr noundef nonnull align 4 dereferenceable(4) %x, i1 noundef zeroext true)
          to label %invoke.cont111 unwind label %lpad

invoke.cont111:                                   ; preds = %if.end110
  store ptr %call112, ptr %sz, align 8
  %call114 = invoke noundef zeroext i1 @_ZN6Assimp10SkipSpacesIcEEbPPKT_(ptr noundef %sz)
          to label %invoke.cont113 unwind label %lpad

invoke.cont113:                                   ; preds = %invoke.cont111
  br i1 %call114, label %if.end118, label %if.then115

if.then115:                                       ; preds = %invoke.cont113
  %52 = load ptr, ptr %elem, align 8
  %iLineNumber116 = getelementptr inbounds %"struct.Assimp::MD5::Element", ptr %52, i32 0, i32 1
  %53 = load i32, ptr %iLineNumber116, align 8
  invoke void @_ZN6Assimp3MD59MD5Parser13ReportWarningEPKcj(ptr noundef @.str.10, i32 noundef %53)
          to label %invoke.cont117 unwind label %lpad

invoke.cont117:                                   ; preds = %if.then115
  br label %if.end118

if.end118:                                        ; preds = %invoke.cont117, %invoke.cont113
  %54 = load ptr, ptr %sz, align 8
  %55 = load ptr, ptr %desc, align 8
  %mPositionXYZ119 = getelementptr inbounds %"struct.Assimp::MD5::BoneDesc", ptr %55, i32 0, i32 1
  %y = getelementptr inbounds %class.aiVector3t, ptr %mPositionXYZ119, i32 0, i32 1
  %call121 = invoke noundef ptr @_ZN6Assimp17fast_atoreal_moveIf17DeadlyImportErrorEEPKcS3_RT_b(ptr noundef %54, ptr noundef nonnull align 4 dereferenceable(4) %y, i1 noundef zeroext true)
          to label %invoke.cont120 unwind label %lpad

invoke.cont120:                                   ; preds = %if.end118
  store ptr %call121, ptr %sz, align 8
  %call123 = invoke noundef zeroext i1 @_ZN6Assimp10SkipSpacesIcEEbPPKT_(ptr noundef %sz)
          to label %invoke.cont122 unwind label %lpad

invoke.cont122:                                   ; preds = %invoke.cont120
  br i1 %call123, label %if.end127, label %if.then124

if.then124:                                       ; preds = %invoke.cont122
  %56 = load ptr, ptr %elem, align 8
  %iLineNumber125 = getelementptr inbounds %"struct.Assimp::MD5::Element", ptr %56, i32 0, i32 1
  %57 = load i32, ptr %iLineNumber125, align 8
  invoke void @_ZN6Assimp3MD59MD5Parser13ReportWarningEPKcj(ptr noundef @.str.10, i32 noundef %57)
          to label %invoke.cont126 unwind label %lpad

invoke.cont126:                                   ; preds = %if.then124
  br label %if.end127

if.end127:                                        ; preds = %invoke.cont126, %invoke.cont122
  %58 = load ptr, ptr %sz, align 8
  %59 = load ptr, ptr %desc, align 8
  %mPositionXYZ128 = getelementptr inbounds %"struct.Assimp::MD5::BoneDesc", ptr %59, i32 0, i32 1
  %z = getelementptr inbounds %class.aiVector3t, ptr %mPositionXYZ128, i32 0, i32 2
  %call130 = invoke noundef ptr @_ZN6Assimp17fast_atoreal_moveIf17DeadlyImportErrorEEPKcS3_RT_b(ptr noundef %58, ptr noundef nonnull align 4 dereferenceable(4) %z, i1 noundef zeroext true)
          to label %invoke.cont129 unwind label %lpad

invoke.cont129:                                   ; preds = %if.end127
  store ptr %call130, ptr %sz, align 8
  %call132 = invoke noundef zeroext i1 @_ZN6Assimp10SkipSpacesIcEEbPPKT_(ptr noundef %sz)
          to label %invoke.cont131 unwind label %lpad

invoke.cont131:                                   ; preds = %invoke.cont129
  br i1 %call132, label %if.end136, label %if.then133

if.then133:                                       ; preds = %invoke.cont131
  %60 = load ptr, ptr %elem, align 8
  %iLineNumber134 = getelementptr inbounds %"struct.Assimp::MD5::Element", ptr %60, i32 0, i32 1
  %61 = load i32, ptr %iLineNumber134, align 8
  invoke void @_ZN6Assimp3MD59MD5Parser13ReportWarningEPKcj(ptr noundef @.str.10, i32 noundef %61)
          to label %invoke.cont135 unwind label %lpad

invoke.cont135:                                   ; preds = %if.then133
  br label %if.end136

if.end136:                                        ; preds = %invoke.cont135, %invoke.cont131
  %62 = load ptr, ptr %sz, align 8
  %incdec.ptr137 = getelementptr inbounds i8, ptr %62, i32 1
  store ptr %incdec.ptr137, ptr %sz, align 8
  %63 = load i8, ptr %62, align 1
  %conv138 = sext i8 %63 to i32
  %cmp139 = icmp ne i32 41, %conv138
  br i1 %cmp139, label %if.then140, label %if.end143

if.then140:                                       ; preds = %if.end136
  %64 = load ptr, ptr %elem, align 8
  %iLineNumber141 = getelementptr inbounds %"struct.Assimp::MD5::Element", ptr %64, i32 0, i32 1
  %65 = load i32, ptr %iLineNumber141, align 8
  invoke void @_ZN6Assimp3MD59MD5Parser13ReportWarningEPKcj(ptr noundef @.str.12, i32 noundef %65)
          to label %invoke.cont142 unwind label %lpad

invoke.cont142:                                   ; preds = %if.then140
  br label %if.end143

if.end143:                                        ; preds = %invoke.cont142, %if.end136
  %call145 = invoke noundef zeroext i1 @_ZN6Assimp10SkipSpacesIcEEbPPKT_(ptr noundef %sz)
          to label %invoke.cont144 unwind label %lpad

invoke.cont144:                                   ; preds = %if.end143
  br i1 %call145, label %if.end149, label %if.then146

if.then146:                                       ; preds = %invoke.cont144
  %66 = load ptr, ptr %elem, align 8
  %iLineNumber147 = getelementptr inbounds %"struct.Assimp::MD5::Element", ptr %66, i32 0, i32 1
  %67 = load i32, ptr %iLineNumber147, align 8
  invoke void @_ZN6Assimp3MD59MD5Parser13ReportWarningEPKcj(ptr noundef @.str.10, i32 noundef %67)
          to label %invoke.cont148 unwind label %lpad

invoke.cont148:                                   ; preds = %if.then146
  br label %if.end149

if.end149:                                        ; preds = %invoke.cont148, %invoke.cont144
  %68 = load ptr, ptr %sz, align 8
  %incdec.ptr150 = getelementptr inbounds i8, ptr %68, i32 1
  store ptr %incdec.ptr150, ptr %sz, align 8
  %69 = load i8, ptr %68, align 1
  %conv151 = sext i8 %69 to i32
  %cmp152 = icmp ne i32 40, %conv151
  br i1 %cmp152, label %if.then153, label %if.end156

if.then153:                                       ; preds = %if.end149
  %70 = load ptr, ptr %elem, align 8
  %iLineNumber154 = getelementptr inbounds %"struct.Assimp::MD5::Element", ptr %70, i32 0, i32 1
  %71 = load i32, ptr %iLineNumber154, align 8
  invoke void @_ZN6Assimp3MD59MD5Parser13ReportWarningEPKcj(ptr noundef @.str.11, i32 noundef %71)
          to label %invoke.cont155 unwind label %lpad

invoke.cont155:                                   ; preds = %if.then153
  br label %if.end156

if.end156:                                        ; preds = %invoke.cont155, %if.end149
  %call158 = invoke noundef zeroext i1 @_ZN6Assimp10SkipSpacesIcEEbPPKT_(ptr noundef %sz)
          to label %invoke.cont157 unwind label %lpad

invoke.cont157:                                   ; preds = %if.end156
  br i1 %call158, label %if.end162, label %if.then159

if.then159:                                       ; preds = %invoke.cont157
  %72 = load ptr, ptr %elem, align 8
  %iLineNumber160 = getelementptr inbounds %"struct.Assimp::MD5::Element", ptr %72, i32 0, i32 1
  %73 = load i32, ptr %iLineNumber160, align 8
  invoke void @_ZN6Assimp3MD59MD5Parser13ReportWarningEPKcj(ptr noundef @.str.10, i32 noundef %73)
          to label %invoke.cont161 unwind label %lpad

invoke.cont161:                                   ; preds = %if.then159
  br label %if.end162

if.end162:                                        ; preds = %invoke.cont161, %invoke.cont157
  %74 = load ptr, ptr %sz, align 8
  %75 = load ptr, ptr %desc, align 8
  %mRotationQuat = getelementptr inbounds %"struct.Assimp::MD5::BoneDesc", ptr %75, i32 0, i32 2
  %x163 = getelementptr inbounds %class.aiVector3t, ptr %mRotationQuat, i32 0, i32 0
  %call165 = invoke noundef ptr @_ZN6Assimp17fast_atoreal_moveIf17DeadlyImportErrorEEPKcS3_RT_b(ptr noundef %74, ptr noundef nonnull align 4 dereferenceable(4) %x163, i1 noundef zeroext true)
          to label %invoke.cont164 unwind label %lpad

invoke.cont164:                                   ; preds = %if.end162
  store ptr %call165, ptr %sz, align 8
  %call167 = invoke noundef zeroext i1 @_ZN6Assimp10SkipSpacesIcEEbPPKT_(ptr noundef %sz)
          to label %invoke.cont166 unwind label %lpad

invoke.cont166:                                   ; preds = %invoke.cont164
  br i1 %call167, label %if.end171, label %if.then168

if.then168:                                       ; preds = %invoke.cont166
  %76 = load ptr, ptr %elem, align 8
  %iLineNumber169 = getelementptr inbounds %"struct.Assimp::MD5::Element", ptr %76, i32 0, i32 1
  %77 = load i32, ptr %iLineNumber169, align 8
  invoke void @_ZN6Assimp3MD59MD5Parser13ReportWarningEPKcj(ptr noundef @.str.10, i32 noundef %77)
          to label %invoke.cont170 unwind label %lpad

invoke.cont170:                                   ; preds = %if.then168
  br label %if.end171

if.end171:                                        ; preds = %invoke.cont170, %invoke.cont166
  %78 = load ptr, ptr %sz, align 8
  %79 = load ptr, ptr %desc, align 8
  %mRotationQuat172 = getelementptr inbounds %"struct.Assimp::MD5::BoneDesc", ptr %79, i32 0, i32 2
  %y173 = getelementptr inbounds %class.aiVector3t, ptr %mRotationQuat172, i32 0, i32 1
  %call175 = invoke noundef ptr @_ZN6Assimp17fast_atoreal_moveIf17DeadlyImportErrorEEPKcS3_RT_b(ptr noundef %78, ptr noundef nonnull align 4 dereferenceable(4) %y173, i1 noundef zeroext true)
          to label %invoke.cont174 unwind label %lpad

invoke.cont174:                                   ; preds = %if.end171
  store ptr %call175, ptr %sz, align 8
  %call177 = invoke noundef zeroext i1 @_ZN6Assimp10SkipSpacesIcEEbPPKT_(ptr noundef %sz)
          to label %invoke.cont176 unwind label %lpad

invoke.cont176:                                   ; preds = %invoke.cont174
  br i1 %call177, label %if.end181, label %if.then178

if.then178:                                       ; preds = %invoke.cont176
  %80 = load ptr, ptr %elem, align 8
  %iLineNumber179 = getelementptr inbounds %"struct.Assimp::MD5::Element", ptr %80, i32 0, i32 1
  %81 = load i32, ptr %iLineNumber179, align 8
  invoke void @_ZN6Assimp3MD59MD5Parser13ReportWarningEPKcj(ptr noundef @.str.10, i32 noundef %81)
          to label %invoke.cont180 unwind label %lpad

invoke.cont180:                                   ; preds = %if.then178
  br label %if.end181

if.end181:                                        ; preds = %invoke.cont180, %invoke.cont176
  %82 = load ptr, ptr %sz, align 8
  %83 = load ptr, ptr %desc, align 8
  %mRotationQuat182 = getelementptr inbounds %"struct.Assimp::MD5::BoneDesc", ptr %83, i32 0, i32 2
  %z183 = getelementptr inbounds %class.aiVector3t, ptr %mRotationQuat182, i32 0, i32 2
  %call185 = invoke noundef ptr @_ZN6Assimp17fast_atoreal_moveIf17DeadlyImportErrorEEPKcS3_RT_b(ptr noundef %82, ptr noundef nonnull align 4 dereferenceable(4) %z183, i1 noundef zeroext true)
          to label %invoke.cont184 unwind label %lpad

invoke.cont184:                                   ; preds = %if.end181
  store ptr %call185, ptr %sz, align 8
  %call187 = invoke noundef zeroext i1 @_ZN6Assimp10SkipSpacesIcEEbPPKT_(ptr noundef %sz)
          to label %invoke.cont186 unwind label %lpad

invoke.cont186:                                   ; preds = %invoke.cont184
  br i1 %call187, label %if.end191, label %if.then188

if.then188:                                       ; preds = %invoke.cont186
  %84 = load ptr, ptr %elem, align 8
  %iLineNumber189 = getelementptr inbounds %"struct.Assimp::MD5::Element", ptr %84, i32 0, i32 1
  %85 = load i32, ptr %iLineNumber189, align 8
  invoke void @_ZN6Assimp3MD59MD5Parser13ReportWarningEPKcj(ptr noundef @.str.10, i32 noundef %85)
          to label %invoke.cont190 unwind label %lpad

invoke.cont190:                                   ; preds = %if.then188
  br label %if.end191

if.end191:                                        ; preds = %invoke.cont190, %invoke.cont186
  %86 = load ptr, ptr %sz, align 8
  %incdec.ptr192 = getelementptr inbounds i8, ptr %86, i32 1
  store ptr %incdec.ptr192, ptr %sz, align 8
  %87 = load i8, ptr %86, align 1
  %conv193 = sext i8 %87 to i32
  %cmp194 = icmp ne i32 41, %conv193
  br i1 %cmp194, label %if.then195, label %if.end198

if.then195:                                       ; preds = %if.end191
  %88 = load ptr, ptr %elem, align 8
  %iLineNumber196 = getelementptr inbounds %"struct.Assimp::MD5::Element", ptr %88, i32 0, i32 1
  %89 = load i32, ptr %iLineNumber196, align 8
  invoke void @_ZN6Assimp3MD59MD5Parser13ReportWarningEPKcj(ptr noundef @.str.12, i32 noundef %89)
          to label %invoke.cont197 unwind label %lpad

invoke.cont197:                                   ; preds = %if.then195
  br label %if.end198

if.end198:                                        ; preds = %invoke.cont197, %if.end191
  br label %for.inc

for.inc:                                          ; preds = %if.end198
  %call199 = call noundef nonnull align 8 dereferenceable(8) ptr @_ZN9__gnu_cxx17__normal_iteratorIPKN6Assimp3MD57ElementESt6vectorIS3_SaIS3_EEEppEv(ptr noundef nonnull align 8 dereferenceable(8) %__begin5) #15
  br label %for.cond41

for.end:                                          ; preds = %for.cond41
  br label %if.end564

if.else200:                                       ; preds = %invoke.cont33
  %call201 = call noundef nonnull align 8 dereferenceable(96) ptr @_ZNK9__gnu_cxx17__normal_iteratorIPKN6Assimp3MD57SectionESt6vectorIS3_SaIS3_EEEdeEv(ptr noundef nonnull align 8 dereferenceable(8) %iter) #15
  %mName202 = getelementptr inbounds %"struct.Assimp::MD5::Section", ptr %call201, i32 0, i32 2
  %call204 = invoke noundef zeroext i1 @_ZSteqIcSt11char_traitsIcESaIcEEbRKNSt7__cxx1112basic_stringIT_T0_T1_EEPKS5_(ptr noundef nonnull align 8 dereferenceable(32) %mName202, ptr noundef @.str.13)
          to label %invoke.cont203 unwind label %lpad

invoke.cont203:                                   ; preds = %if.else200
  br i1 %call204, label %if.then205, label %if.end563

if.then205:                                       ; preds = %invoke.cont203
  %mMeshes206 = getelementptr inbounds %"class.Assimp::MD5::MD5MeshParser", ptr %this1, i32 0, i32 0
  %call208 = invoke noundef nonnull align 8 dereferenceable(1100) ptr @_ZNSt6vectorIN6Assimp3MD58MeshDescESaIS2_EE12emplace_backIJEEERS2_DpOT_(ptr noundef nonnull align 8 dereferenceable(24) %mMeshes206)
          to label %invoke.cont207 unwind label %lpad

invoke.cont207:                                   ; preds = %if.then205
  %mMeshes210 = getelementptr inbounds %"class.Assimp::MD5::MD5MeshParser", ptr %this1, i32 0, i32 0
  %call211 = call noundef nonnull align 8 dereferenceable(1100) ptr @_ZNSt6vectorIN6Assimp3MD58MeshDescESaIS2_EE4backEv(ptr noundef nonnull align 8 dereferenceable(24) %mMeshes210) #15
  store ptr %call211, ptr %desc209, align 8
  %call212 = call noundef nonnull align 8 dereferenceable(96) ptr @_ZNK9__gnu_cxx17__normal_iteratorIPKN6Assimp3MD57SectionESt6vectorIS3_SaIS3_EEEdeEv(ptr noundef nonnull align 8 dereferenceable(8) %iter) #15
  %mElements213 = getelementptr inbounds %"struct.Assimp::MD5::Section", ptr %call212, i32 0, i32 1
  store ptr %mElements213, ptr %__range6, align 8
  %90 = load ptr, ptr %__range6, align 8
  %call214 = call ptr @_ZNKSt6vectorIN6Assimp3MD57ElementESaIS2_EE5beginEv(ptr noundef nonnull align 8 dereferenceable(24) %90) #15
  %coerce.dive215 = getelementptr inbounds %"class.__gnu_cxx::__normal_iterator.20", ptr %__begin6, i32 0, i32 0
  store ptr %call214, ptr %coerce.dive215, align 8
  %91 = load ptr, ptr %__range6, align 8
  %call216 = call ptr @_ZNKSt6vectorIN6Assimp3MD57ElementESaIS2_EE3endEv(ptr noundef nonnull align 8 dereferenceable(24) %91) #15
  %coerce.dive217 = getelementptr inbounds %"class.__gnu_cxx::__normal_iterator.20", ptr %__end6, i32 0, i32 0
  store ptr %call216, ptr %coerce.dive217, align 8
  br label %for.cond218

for.cond218:                                      ; preds = %for.inc560, %invoke.cont207
  %call219 = call noundef zeroext i1 @_ZN9__gnu_cxxneIPKN6Assimp3MD57ElementESt6vectorIS3_SaIS3_EEEEbRKNS_17__normal_iteratorIT_T0_EESE_(ptr noundef nonnull align 8 dereferenceable(8) %__begin6, ptr noundef nonnull align 8 dereferenceable(8) %__end6) #15
  br i1 %call219, label %for.body220, label %for.end562

for.body220:                                      ; preds = %for.cond218
  %call222 = call noundef nonnull align 8 dereferenceable(16) ptr @_ZNK9__gnu_cxx17__normal_iteratorIPKN6Assimp3MD57ElementESt6vectorIS3_SaIS3_EEEdeEv(ptr noundef nonnull align 8 dereferenceable(8) %__begin6) #15
  store ptr %call222, ptr %elem221, align 8
  %92 = load ptr, ptr %elem221, align 8
  %szStart224 = getelementptr inbounds %"struct.Assimp::MD5::Element", ptr %92, i32 0, i32 0
  %93 = load ptr, ptr %szStart224, align 8
  store ptr %93, ptr %sz223, align 8
  %call226 = invoke noundef zeroext i1 @_ZN6Assimp10TokenMatchIKcEEbRPT_PS1_j(ptr noundef nonnull align 8 dereferenceable(8) %sz223, ptr noundef @.str.14, i32 noundef 6)
          to label %invoke.cont225 unwind label %lpad

invoke.cont225:                                   ; preds = %for.body220
  br i1 %call226, label %if.then227, label %if.else285

if.then227:                                       ; preds = %invoke.cont225
  %call229 = invoke noundef zeroext i1 @_ZN6Assimp10SkipSpacesIcEEbPPKT_(ptr noundef %sz223)
          to label %invoke.cont228 unwind label %lpad

invoke.cont228:                                   ; preds = %if.then227
  br i1 %call229, label %if.end233, label %if.then230

if.then230:                                       ; preds = %invoke.cont228
  %94 = load ptr, ptr %elem221, align 8
  %iLineNumber231 = getelementptr inbounds %"struct.Assimp::MD5::Element", ptr %94, i32 0, i32 1
  %95 = load i32, ptr %iLineNumber231, align 8
  invoke void @_ZN6Assimp3MD59MD5Parser13ReportWarningEPKcj(ptr noundef @.str.10, i32 noundef %95)
          to label %invoke.cont232 unwind label %lpad

invoke.cont232:                                   ; preds = %if.then230
  br label %if.end233

if.end233:                                        ; preds = %invoke.cont232, %invoke.cont228
  %96 = load ptr, ptr %desc209, align 8
  %mShader = getelementptr inbounds %"struct.Assimp::MD5::MeshDesc", ptr %96, i32 0, i32 3
  %length234 = getelementptr inbounds %struct.aiString, ptr %mShader, i32 0, i32 0
  store i32 0, ptr %length234, align 8
  br label %while.cond235

while.cond235:                                    ; preds = %while.body242, %if.end233
  %97 = load ptr, ptr %sz223, align 8
  %98 = load i8, ptr %97, align 1
  %conv236 = sext i8 %98 to i32
  %cmp237 = icmp ne i32 34, %conv236
  br i1 %cmp237, label %land.rhs238, label %land.end241

land.rhs238:                                      ; preds = %while.cond235
  %99 = load ptr, ptr %sz223, align 8
  %100 = load i8, ptr %99, align 1
  %conv239 = sext i8 %100 to i32
  %cmp240 = icmp ne i32 0, %conv239
  br label %land.end241

land.end241:                                      ; preds = %land.rhs238, %while.cond235
  %101 = phi i1 [ false, %while.cond235 ], [ %cmp240, %land.rhs238 ]
  br i1 %101, label %while.body242, label %while.end244

while.body242:                                    ; preds = %land.end241
  %102 = load ptr, ptr %sz223, align 8
  %incdec.ptr243 = getelementptr inbounds i8, ptr %102, i32 1
  store ptr %incdec.ptr243, ptr %sz223, align 8
  br label %while.cond235, !llvm.loop !18

while.end244:                                     ; preds = %land.end241
  %103 = load ptr, ptr %sz223, align 8
  %104 = load i8, ptr %103, align 1
  %conv245 = sext i8 %104 to i32
  %cmp246 = icmp ne i32 0, %conv245
  br i1 %cmp246, label %if.then247, label %if.end278

if.then247:                                       ; preds = %while.end244
  %105 = load ptr, ptr %sz223, align 8
  %incdec.ptr249 = getelementptr inbounds i8, ptr %105, i32 1
  store ptr %incdec.ptr249, ptr %sz223, align 8
  store ptr %incdec.ptr249, ptr %szStart248, align 8
  br label %while.cond250

while.cond250:                                    ; preds = %while.body257, %if.then247
  %106 = load ptr, ptr %sz223, align 8
  %107 = load i8, ptr %106, align 1
  %conv251 = sext i8 %107 to i32
  %cmp252 = icmp ne i32 34, %conv251
  br i1 %cmp252, label %land.rhs253, label %land.end256

land.rhs253:                                      ; preds = %while.cond250
  %108 = load ptr, ptr %sz223, align 8
  %109 = load i8, ptr %108, align 1
  %conv254 = sext i8 %109 to i32
  %cmp255 = icmp ne i32 0, %conv254
  br label %land.end256

land.end256:                                      ; preds = %land.rhs253, %while.cond250
  %110 = phi i1 [ false, %while.cond250 ], [ %cmp255, %land.rhs253 ]
  br i1 %110, label %while.body257, label %while.end259

while.body257:                                    ; preds = %land.end256
  %111 = load ptr, ptr %sz223, align 8
  %incdec.ptr258 = getelementptr inbounds i8, ptr %111, i32 1
  store ptr %incdec.ptr258, ptr %sz223, align 8
  br label %while.cond250, !llvm.loop !19

while.end259:                                     ; preds = %land.end256
  %112 = load ptr, ptr %sz223, align 8
  %113 = load i8, ptr %112, align 1
  %conv260 = sext i8 %113 to i32
  %cmp261 = icmp ne i32 0, %conv260
  br i1 %cmp261, label %if.then262, label %if.end277

if.then262:                                       ; preds = %while.end259
  %114 = load ptr, ptr %sz223, align 8
  %incdec.ptr264 = getelementptr inbounds i8, ptr %114, i32 1
  store ptr %incdec.ptr264, ptr %sz223, align 8
  store ptr %114, ptr %szEnd263, align 8
  %115 = load ptr, ptr %szEnd263, align 8
  %116 = load ptr, ptr %szStart248, align 8
  %sub.ptr.lhs.cast265 = ptrtoint ptr %115 to i64
  %sub.ptr.rhs.cast266 = ptrtoint ptr %116 to i64
  %sub.ptr.sub267 = sub i64 %sub.ptr.lhs.cast265, %sub.ptr.rhs.cast266
  %conv268 = trunc i64 %sub.ptr.sub267 to i32
  %117 = load ptr, ptr %desc209, align 8
  %mShader269 = getelementptr inbounds %"struct.Assimp::MD5::MeshDesc", ptr %117, i32 0, i32 3
  %length270 = getelementptr inbounds %struct.aiString, ptr %mShader269, i32 0, i32 0
  store i32 %conv268, ptr %length270, align 8
  %118 = load ptr, ptr %desc209, align 8
  %mShader271 = getelementptr inbounds %"struct.Assimp::MD5::MeshDesc", ptr %118, i32 0, i32 3
  %data272 = getelementptr inbounds %struct.aiString, ptr %mShader271, i32 0, i32 1
  %arraydecay273 = getelementptr inbounds [1024 x i8], ptr %data272, i64 0, i64 0
  %119 = load ptr, ptr %szStart248, align 8
  %120 = load ptr, ptr %desc209, align 8
  %mShader274 = getelementptr inbounds %"struct.Assimp::MD5::MeshDesc", ptr %120, i32 0, i32 3
  %length275 = getelementptr inbounds %struct.aiString, ptr %mShader274, i32 0, i32 0
  %121 = load i32, ptr %length275, align 8
  %conv276 = zext i32 %121 to i64
  call void @llvm.memcpy.p0.p0.i64(ptr align 4 %arraydecay273, ptr align 1 %119, i64 %conv276, i1 false)
  br label %if.end277

if.end277:                                        ; preds = %if.then262, %while.end259
  br label %if.end278

if.end278:                                        ; preds = %if.end277, %while.end244
  %122 = load ptr, ptr %desc209, align 8
  %mShader279 = getelementptr inbounds %"struct.Assimp::MD5::MeshDesc", ptr %122, i32 0, i32 3
  %data280 = getelementptr inbounds %struct.aiString, ptr %mShader279, i32 0, i32 1
  %123 = load ptr, ptr %desc209, align 8
  %mShader281 = getelementptr inbounds %"struct.Assimp::MD5::MeshDesc", ptr %123, i32 0, i32 3
  %length282 = getelementptr inbounds %struct.aiString, ptr %mShader281, i32 0, i32 0
  %124 = load i32, ptr %length282, align 8
  %idxprom283 = zext i32 %124 to i64
  %arrayidx284 = getelementptr inbounds [1024 x i8], ptr %data280, i64 0, i64 %idxprom283
  store i8 0, ptr %arrayidx284, align 1
  br label %if.end559

if.else285:                                       ; preds = %invoke.cont225
  %call287 = invoke noundef zeroext i1 @_ZN6Assimp10TokenMatchIKcEEbRPT_PS1_j(ptr noundef nonnull align 8 dereferenceable(8) %sz223, ptr noundef @.str.15, i32 noundef 8)
          to label %invoke.cont286 unwind label %lpad

invoke.cont286:                                   ; preds = %if.else285
  br i1 %call287, label %if.then288, label %if.else299

if.then288:                                       ; preds = %invoke.cont286
  %call290 = invoke noundef zeroext i1 @_ZN6Assimp10SkipSpacesIcEEbPPKT_(ptr noundef %sz223)
          to label %invoke.cont289 unwind label %lpad

invoke.cont289:                                   ; preds = %if.then288
  br i1 %call290, label %if.end294, label %if.then291

if.then291:                                       ; preds = %invoke.cont289
  %125 = load ptr, ptr %elem221, align 8
  %iLineNumber292 = getelementptr inbounds %"struct.Assimp::MD5::Element", ptr %125, i32 0, i32 1
  %126 = load i32, ptr %iLineNumber292, align 8
  invoke void @_ZN6Assimp3MD59MD5Parser13ReportWarningEPKcj(ptr noundef @.str.10, i32 noundef %126)
          to label %invoke.cont293 unwind label %lpad

invoke.cont293:                                   ; preds = %if.then291
  br label %if.end294

if.end294:                                        ; preds = %invoke.cont293, %invoke.cont289
  %127 = load ptr, ptr %desc209, align 8
  %mVertices = getelementptr inbounds %"struct.Assimp::MD5::MeshDesc", ptr %127, i32 0, i32 1
  %128 = load ptr, ptr %sz223, align 8
  %call296 = invoke noundef i32 @_ZN6Assimp9strtoul10EPKcPS1_(ptr noundef %128, ptr noundef null)
          to label %invoke.cont295 unwind label %lpad

invoke.cont295:                                   ; preds = %if.end294
  %conv297 = zext i32 %call296 to i64
  invoke void @_ZNSt6vectorIN6Assimp3MD510VertexDescESaIS2_EE6resizeEm(ptr noundef nonnull align 8 dereferenceable(24) %mVertices, i64 noundef %conv297)
          to label %invoke.cont298 unwind label %lpad

invoke.cont298:                                   ; preds = %invoke.cont295
  br label %if.end558

if.else299:                                       ; preds = %invoke.cont286
  %call301 = invoke noundef zeroext i1 @_ZN6Assimp10TokenMatchIKcEEbRPT_PS1_j(ptr noundef nonnull align 8 dereferenceable(8) %sz223, ptr noundef @.str.16, i32 noundef 7)
          to label %invoke.cont300 unwind label %lpad

invoke.cont300:                                   ; preds = %if.else299
  br i1 %call301, label %if.then302, label %if.else313

if.then302:                                       ; preds = %invoke.cont300
  %call304 = invoke noundef zeroext i1 @_ZN6Assimp10SkipSpacesIcEEbPPKT_(ptr noundef %sz223)
          to label %invoke.cont303 unwind label %lpad

invoke.cont303:                                   ; preds = %if.then302
  br i1 %call304, label %if.end308, label %if.then305

if.then305:                                       ; preds = %invoke.cont303
  %129 = load ptr, ptr %elem221, align 8
  %iLineNumber306 = getelementptr inbounds %"struct.Assimp::MD5::Element", ptr %129, i32 0, i32 1
  %130 = load i32, ptr %iLineNumber306, align 8
  invoke void @_ZN6Assimp3MD59MD5Parser13ReportWarningEPKcj(ptr noundef @.str.10, i32 noundef %130)
          to label %invoke.cont307 unwind label %lpad

invoke.cont307:                                   ; preds = %if.then305
  br label %if.end308

if.end308:                                        ; preds = %invoke.cont307, %invoke.cont303
  %131 = load ptr, ptr %desc209, align 8
  %mFaces = getelementptr inbounds %"struct.Assimp::MD5::MeshDesc", ptr %131, i32 0, i32 2
  %132 = load ptr, ptr %sz223, align 8
  %call310 = invoke noundef i32 @_ZN6Assimp9strtoul10EPKcPS1_(ptr noundef %132, ptr noundef null)
          to label %invoke.cont309 unwind label %lpad

invoke.cont309:                                   ; preds = %if.end308
  %conv311 = zext i32 %call310 to i64
  invoke void @_ZNSt6vectorI6aiFaceSaIS0_EE6resizeEm(ptr noundef nonnull align 8 dereferenceable(24) %mFaces, i64 noundef %conv311)
          to label %invoke.cont312 unwind label %lpad

invoke.cont312:                                   ; preds = %invoke.cont309
  br label %if.end557

if.else313:                                       ; preds = %invoke.cont300
  %call315 = invoke noundef zeroext i1 @_ZN6Assimp10TokenMatchIKcEEbRPT_PS1_j(ptr noundef nonnull align 8 dereferenceable(8) %sz223, ptr noundef @.str.17, i32 noundef 10)
          to label %invoke.cont314 unwind label %lpad

invoke.cont314:                                   ; preds = %if.else313
  br i1 %call315, label %if.then316, label %if.else327

if.then316:                                       ; preds = %invoke.cont314
  %call318 = invoke noundef zeroext i1 @_ZN6Assimp10SkipSpacesIcEEbPPKT_(ptr noundef %sz223)
          to label %invoke.cont317 unwind label %lpad

invoke.cont317:                                   ; preds = %if.then316
  br i1 %call318, label %if.end322, label %if.then319

if.then319:                                       ; preds = %invoke.cont317
  %133 = load ptr, ptr %elem221, align 8
  %iLineNumber320 = getelementptr inbounds %"struct.Assimp::MD5::Element", ptr %133, i32 0, i32 1
  %134 = load i32, ptr %iLineNumber320, align 8
  invoke void @_ZN6Assimp3MD59MD5Parser13ReportWarningEPKcj(ptr noundef @.str.10, i32 noundef %134)
          to label %invoke.cont321 unwind label %lpad

invoke.cont321:                                   ; preds = %if.then319
  br label %if.end322

if.end322:                                        ; preds = %invoke.cont321, %invoke.cont317
  %135 = load ptr, ptr %desc209, align 8
  %mWeights = getelementptr inbounds %"struct.Assimp::MD5::MeshDesc", ptr %135, i32 0, i32 0
  %136 = load ptr, ptr %sz223, align 8
  %call324 = invoke noundef i32 @_ZN6Assimp9strtoul10EPKcPS1_(ptr noundef %136, ptr noundef null)
          to label %invoke.cont323 unwind label %lpad

invoke.cont323:                                   ; preds = %if.end322
  %conv325 = zext i32 %call324 to i64
  invoke void @_ZNSt6vectorIN6Assimp3MD510WeightDescESaIS2_EE6resizeEm(ptr noundef nonnull align 8 dereferenceable(24) %mWeights, i64 noundef %conv325)
          to label %invoke.cont326 unwind label %lpad

invoke.cont326:                                   ; preds = %invoke.cont323
  br label %if.end556

if.else327:                                       ; preds = %invoke.cont314
  %call329 = invoke noundef zeroext i1 @_ZN6Assimp10TokenMatchIKcEEbRPT_PS1_j(ptr noundef nonnull align 8 dereferenceable(8) %sz223, ptr noundef @.str.18, i32 noundef 4)
          to label %invoke.cont328 unwind label %lpad

invoke.cont328:                                   ; preds = %if.else327
  br i1 %call329, label %if.then330, label %if.else412

if.then330:                                       ; preds = %invoke.cont328
  %call332 = invoke noundef zeroext i1 @_ZN6Assimp10SkipSpacesIcEEbPPKT_(ptr noundef %sz223)
          to label %invoke.cont331 unwind label %lpad

invoke.cont331:                                   ; preds = %if.then330
  br i1 %call332, label %if.end336, label %if.then333

if.then333:                                       ; preds = %invoke.cont331
  %137 = load ptr, ptr %elem221, align 8
  %iLineNumber334 = getelementptr inbounds %"struct.Assimp::MD5::Element", ptr %137, i32 0, i32 1
  %138 = load i32, ptr %iLineNumber334, align 8
  invoke void @_ZN6Assimp3MD59MD5Parser13ReportWarningEPKcj(ptr noundef @.str.10, i32 noundef %138)
          to label %invoke.cont335 unwind label %lpad

invoke.cont335:                                   ; preds = %if.then333
  br label %if.end336

if.end336:                                        ; preds = %invoke.cont335, %invoke.cont331
  %139 = load ptr, ptr %sz223, align 8
  %call338 = invoke noundef i32 @_ZN6Assimp9strtoul10EPKcPS1_(ptr noundef %139, ptr noundef %sz223)
          to label %invoke.cont337 unwind label %lpad

invoke.cont337:                                   ; preds = %if.end336
  store i32 %call338, ptr %idx, align 4
  %call340 = invoke noundef zeroext i1 @_ZN6Assimp10SkipSpacesIcEEbPPKT_(ptr noundef %sz223)
          to label %invoke.cont339 unwind label %lpad

invoke.cont339:                                   ; preds = %invoke.cont337
  br i1 %call340, label %if.end344, label %if.then341

if.then341:                                       ; preds = %invoke.cont339
  %140 = load ptr, ptr %elem221, align 8
  %iLineNumber342 = getelementptr inbounds %"struct.Assimp::MD5::Element", ptr %140, i32 0, i32 1
  %141 = load i32, ptr %iLineNumber342, align 8
  invoke void @_ZN6Assimp3MD59MD5Parser13ReportWarningEPKcj(ptr noundef @.str.10, i32 noundef %141)
          to label %invoke.cont343 unwind label %lpad

invoke.cont343:                                   ; preds = %if.then341
  br label %if.end344

if.end344:                                        ; preds = %invoke.cont343, %invoke.cont339
  %142 = load i32, ptr %idx, align 4
  %conv345 = zext i32 %142 to i64
  %143 = load ptr, ptr %desc209, align 8
  %mVertices346 = getelementptr inbounds %"struct.Assimp::MD5::MeshDesc", ptr %143, i32 0, i32 1
  %call347 = call noundef i64 @_ZNKSt6vectorIN6Assimp3MD510VertexDescESaIS2_EE4sizeEv(ptr noundef nonnull align 8 dereferenceable(24) %mVertices346) #15
  %cmp348 = icmp uge i64 %conv345, %call347
  br i1 %cmp348, label %if.then349, label %if.end353

if.then349:                                       ; preds = %if.end344
  %144 = load ptr, ptr %desc209, align 8
  %mVertices350 = getelementptr inbounds %"struct.Assimp::MD5::MeshDesc", ptr %144, i32 0, i32 1
  %145 = load i32, ptr %idx, align 4
  %add = add i32 %145, 1
  %conv351 = zext i32 %add to i64
  invoke void @_ZNSt6vectorIN6Assimp3MD510VertexDescESaIS2_EE6resizeEm(ptr noundef nonnull align 8 dereferenceable(24) %mVertices350, i64 noundef %conv351)
          to label %invoke.cont352 unwind label %lpad

invoke.cont352:                                   ; preds = %if.then349
  br label %if.end353

if.end353:                                        ; preds = %invoke.cont352, %if.end344
  %146 = load ptr, ptr %desc209, align 8
  %mVertices354 = getelementptr inbounds %"struct.Assimp::MD5::MeshDesc", ptr %146, i32 0, i32 1
  %147 = load i32, ptr %idx, align 4
  %conv355 = zext i32 %147 to i64
  %call356 = call noundef nonnull align 4 dereferenceable(16) ptr @_ZNSt6vectorIN6Assimp3MD510VertexDescESaIS2_EEixEm(ptr noundef nonnull align 8 dereferenceable(24) %mVertices354, i64 noundef %conv355) #15
  store ptr %call356, ptr %vert, align 8
  %148 = load ptr, ptr %sz223, align 8
  %incdec.ptr357 = getelementptr inbounds i8, ptr %148, i32 1
  store ptr %incdec.ptr357, ptr %sz223, align 8
  %149 = load i8, ptr %148, align 1
  %conv358 = sext i8 %149 to i32
  %cmp359 = icmp ne i32 40, %conv358
  br i1 %cmp359, label %if.then360, label %if.end363

if.then360:                                       ; preds = %if.end353
  %150 = load ptr, ptr %elem221, align 8
  %iLineNumber361 = getelementptr inbounds %"struct.Assimp::MD5::Element", ptr %150, i32 0, i32 1
  %151 = load i32, ptr %iLineNumber361, align 8
  invoke void @_ZN6Assimp3MD59MD5Parser13ReportWarningEPKcj(ptr noundef @.str.11, i32 noundef %151)
          to label %invoke.cont362 unwind label %lpad

invoke.cont362:                                   ; preds = %if.then360
  br label %if.end363

if.end363:                                        ; preds = %invoke.cont362, %if.end353
  %call365 = invoke noundef zeroext i1 @_ZN6Assimp10SkipSpacesIcEEbPPKT_(ptr noundef %sz223)
          to label %invoke.cont364 unwind label %lpad

invoke.cont364:                                   ; preds = %if.end363
  br i1 %call365, label %if.end369, label %if.then366

if.then366:                                       ; preds = %invoke.cont364
  %152 = load ptr, ptr %elem221, align 8
  %iLineNumber367 = getelementptr inbounds %"struct.Assimp::MD5::Element", ptr %152, i32 0, i32 1
  %153 = load i32, ptr %iLineNumber367, align 8
  invoke void @_ZN6Assimp3MD59MD5Parser13ReportWarningEPKcj(ptr noundef @.str.10, i32 noundef %153)
          to label %invoke.cont368 unwind label %lpad

invoke.cont368:                                   ; preds = %if.then366
  br label %if.end369

if.end369:                                        ; preds = %invoke.cont368, %invoke.cont364
  %154 = load ptr, ptr %sz223, align 8
  %155 = load ptr, ptr %vert, align 8
  %mUV = getelementptr inbounds %"struct.Assimp::MD5::VertexDesc", ptr %155, i32 0, i32 0
  %x370 = getelementptr inbounds %class.aiVector2t, ptr %mUV, i32 0, i32 0
  %call372 = invoke noundef ptr @_ZN6Assimp17fast_atoreal_moveIf17DeadlyImportErrorEEPKcS3_RT_b(ptr noundef %154, ptr noundef nonnull align 4 dereferenceable(4) %x370, i1 noundef zeroext true)
          to label %invoke.cont371 unwind label %lpad

invoke.cont371:                                   ; preds = %if.end369
  store ptr %call372, ptr %sz223, align 8
  %call374 = invoke noundef zeroext i1 @_ZN6Assimp10SkipSpacesIcEEbPPKT_(ptr noundef %sz223)
          to label %invoke.cont373 unwind label %lpad

invoke.cont373:                                   ; preds = %invoke.cont371
  br i1 %call374, label %if.end378, label %if.then375

if.then375:                                       ; preds = %invoke.cont373
  %156 = load ptr, ptr %elem221, align 8
  %iLineNumber376 = getelementptr inbounds %"struct.Assimp::MD5::Element", ptr %156, i32 0, i32 1
  %157 = load i32, ptr %iLineNumber376, align 8
  invoke void @_ZN6Assimp3MD59MD5Parser13ReportWarningEPKcj(ptr noundef @.str.10, i32 noundef %157)
          to label %invoke.cont377 unwind label %lpad

invoke.cont377:                                   ; preds = %if.then375
  br label %if.end378

if.end378:                                        ; preds = %invoke.cont377, %invoke.cont373
  %158 = load ptr, ptr %sz223, align 8
  %159 = load ptr, ptr %vert, align 8
  %mUV379 = getelementptr inbounds %"struct.Assimp::MD5::VertexDesc", ptr %159, i32 0, i32 0
  %y380 = getelementptr inbounds %class.aiVector2t, ptr %mUV379, i32 0, i32 1
  %call382 = invoke noundef ptr @_ZN6Assimp17fast_atoreal_moveIf17DeadlyImportErrorEEPKcS3_RT_b(ptr noundef %158, ptr noundef nonnull align 4 dereferenceable(4) %y380, i1 noundef zeroext true)
          to label %invoke.cont381 unwind label %lpad

invoke.cont381:                                   ; preds = %if.end378
  store ptr %call382, ptr %sz223, align 8
  %call384 = invoke noundef zeroext i1 @_ZN6Assimp10SkipSpacesIcEEbPPKT_(ptr noundef %sz223)
          to label %invoke.cont383 unwind label %lpad

invoke.cont383:                                   ; preds = %invoke.cont381
  br i1 %call384, label %if.end388, label %if.then385

if.then385:                                       ; preds = %invoke.cont383
  %160 = load ptr, ptr %elem221, align 8
  %iLineNumber386 = getelementptr inbounds %"struct.Assimp::MD5::Element", ptr %160, i32 0, i32 1
  %161 = load i32, ptr %iLineNumber386, align 8
  invoke void @_ZN6Assimp3MD59MD5Parser13ReportWarningEPKcj(ptr noundef @.str.10, i32 noundef %161)
          to label %invoke.cont387 unwind label %lpad

invoke.cont387:                                   ; preds = %if.then385
  br label %if.end388

if.end388:                                        ; preds = %invoke.cont387, %invoke.cont383
  %162 = load ptr, ptr %sz223, align 8
  %incdec.ptr389 = getelementptr inbounds i8, ptr %162, i32 1
  store ptr %incdec.ptr389, ptr %sz223, align 8
  %163 = load i8, ptr %162, align 1
  %conv390 = sext i8 %163 to i32
  %cmp391 = icmp ne i32 41, %conv390
  br i1 %cmp391, label %if.then392, label %if.end395

if.then392:                                       ; preds = %if.end388
  %164 = load ptr, ptr %elem221, align 8
  %iLineNumber393 = getelementptr inbounds %"struct.Assimp::MD5::Element", ptr %164, i32 0, i32 1
  %165 = load i32, ptr %iLineNumber393, align 8
  invoke void @_ZN6Assimp3MD59MD5Parser13ReportWarningEPKcj(ptr noundef @.str.12, i32 noundef %165)
          to label %invoke.cont394 unwind label %lpad

invoke.cont394:                                   ; preds = %if.then392
  br label %if.end395

if.end395:                                        ; preds = %invoke.cont394, %if.end388
  %call397 = invoke noundef zeroext i1 @_ZN6Assimp10SkipSpacesIcEEbPPKT_(ptr noundef %sz223)
          to label %invoke.cont396 unwind label %lpad

invoke.cont396:                                   ; preds = %if.end395
  br i1 %call397, label %if.end401, label %if.then398

if.then398:                                       ; preds = %invoke.cont396
  %166 = load ptr, ptr %elem221, align 8
  %iLineNumber399 = getelementptr inbounds %"struct.Assimp::MD5::Element", ptr %166, i32 0, i32 1
  %167 = load i32, ptr %iLineNumber399, align 8
  invoke void @_ZN6Assimp3MD59MD5Parser13ReportWarningEPKcj(ptr noundef @.str.10, i32 noundef %167)
          to label %invoke.cont400 unwind label %lpad

invoke.cont400:                                   ; preds = %if.then398
  br label %if.end401

if.end401:                                        ; preds = %invoke.cont400, %invoke.cont396
  %168 = load ptr, ptr %sz223, align 8
  %call403 = invoke noundef i32 @_ZN6Assimp9strtoul10EPKcPS1_(ptr noundef %168, ptr noundef %sz223)
          to label %invoke.cont402 unwind label %lpad

invoke.cont402:                                   ; preds = %if.end401
  %169 = load ptr, ptr %vert, align 8
  %mFirstWeight = getelementptr inbounds %"struct.Assimp::MD5::VertexDesc", ptr %169, i32 0, i32 1
  store i32 %call403, ptr %mFirstWeight, align 4
  %call405 = invoke noundef zeroext i1 @_ZN6Assimp10SkipSpacesIcEEbPPKT_(ptr noundef %sz223)
          to label %invoke.cont404 unwind label %lpad

invoke.cont404:                                   ; preds = %invoke.cont402
  br i1 %call405, label %if.end409, label %if.then406

if.then406:                                       ; preds = %invoke.cont404
  %170 = load ptr, ptr %elem221, align 8
  %iLineNumber407 = getelementptr inbounds %"struct.Assimp::MD5::Element", ptr %170, i32 0, i32 1
  %171 = load i32, ptr %iLineNumber407, align 8
  invoke void @_ZN6Assimp3MD59MD5Parser13ReportWarningEPKcj(ptr noundef @.str.10, i32 noundef %171)
          to label %invoke.cont408 unwind label %lpad

invoke.cont408:                                   ; preds = %if.then406
  br label %if.end409

if.end409:                                        ; preds = %invoke.cont408, %invoke.cont404
  %172 = load ptr, ptr %sz223, align 8
  %call411 = invoke noundef i32 @_ZN6Assimp9strtoul10EPKcPS1_(ptr noundef %172, ptr noundef %sz223)
          to label %invoke.cont410 unwind label %lpad

invoke.cont410:                                   ; preds = %if.end409
  %173 = load ptr, ptr %vert, align 8
  %mNumWeights = getelementptr inbounds %"struct.Assimp::MD5::VertexDesc", ptr %173, i32 0, i32 2
  store i32 %call411, ptr %mNumWeights, align 4
  br label %if.end555

if.else412:                                       ; preds = %invoke.cont328
  %call414 = invoke noundef zeroext i1 @_ZN6Assimp10TokenMatchIKcEEbRPT_PS1_j(ptr noundef nonnull align 8 dereferenceable(8) %sz223, ptr noundef @.str.19, i32 noundef 3)
          to label %invoke.cont413 unwind label %lpad

invoke.cont413:                                   ; preds = %if.else412
  br i1 %call414, label %if.then415, label %if.else456

if.then415:                                       ; preds = %invoke.cont413
  %call417 = invoke noundef zeroext i1 @_ZN6Assimp10SkipSpacesIcEEbPPKT_(ptr noundef %sz223)
          to label %invoke.cont416 unwind label %lpad

invoke.cont416:                                   ; preds = %if.then415
  br i1 %call417, label %if.end421, label %if.then418

if.then418:                                       ; preds = %invoke.cont416
  %174 = load ptr, ptr %elem221, align 8
  %iLineNumber419 = getelementptr inbounds %"struct.Assimp::MD5::Element", ptr %174, i32 0, i32 1
  %175 = load i32, ptr %iLineNumber419, align 8
  invoke void @_ZN6Assimp3MD59MD5Parser13ReportWarningEPKcj(ptr noundef @.str.10, i32 noundef %175)
          to label %invoke.cont420 unwind label %lpad

invoke.cont420:                                   ; preds = %if.then418
  br label %if.end421

if.end421:                                        ; preds = %invoke.cont420, %invoke.cont416
  %176 = load ptr, ptr %sz223, align 8
  %call424 = invoke noundef i32 @_ZN6Assimp9strtoul10EPKcPS1_(ptr noundef %176, ptr noundef %sz223)
          to label %invoke.cont423 unwind label %lpad

invoke.cont423:                                   ; preds = %if.end421
  store i32 %call424, ptr %idx422, align 4
  %177 = load i32, ptr %idx422, align 4
  %conv425 = zext i32 %177 to i64
  %178 = load ptr, ptr %desc209, align 8
  %mFaces426 = getelementptr inbounds %"struct.Assimp::MD5::MeshDesc", ptr %178, i32 0, i32 2
  %call427 = call noundef i64 @_ZNKSt6vectorI6aiFaceSaIS0_EE4sizeEv(ptr noundef nonnull align 8 dereferenceable(24) %mFaces426) #15
  %cmp428 = icmp uge i64 %conv425, %call427
  br i1 %cmp428, label %if.then429, label %if.end434

if.then429:                                       ; preds = %invoke.cont423
  %179 = load ptr, ptr %desc209, align 8
  %mFaces430 = getelementptr inbounds %"struct.Assimp::MD5::MeshDesc", ptr %179, i32 0, i32 2
  %180 = load i32, ptr %idx422, align 4
  %add431 = add i32 %180, 1
  %conv432 = zext i32 %add431 to i64
  invoke void @_ZNSt6vectorI6aiFaceSaIS0_EE6resizeEm(ptr noundef nonnull align 8 dereferenceable(24) %mFaces430, i64 noundef %conv432)
          to label %invoke.cont433 unwind label %lpad

invoke.cont433:                                   ; preds = %if.then429
  br label %if.end434

if.end434:                                        ; preds = %invoke.cont433, %invoke.cont423
  %181 = load ptr, ptr %desc209, align 8
  %mFaces435 = getelementptr inbounds %"struct.Assimp::MD5::MeshDesc", ptr %181, i32 0, i32 2
  %182 = load i32, ptr %idx422, align 4
  %conv436 = zext i32 %182 to i64
  %call437 = call noundef nonnull align 8 dereferenceable(16) ptr @_ZNSt6vectorI6aiFaceSaIS0_EEixEm(ptr noundef nonnull align 8 dereferenceable(24) %mFaces435, i64 noundef %conv436) #15
  store ptr %call437, ptr %face, align 8
  %183 = load ptr, ptr %face, align 8
  %mNumIndices = getelementptr inbounds %struct.aiFace, ptr %183, i32 0, i32 0
  store i32 3, ptr %mNumIndices, align 8
  %call439 = invoke noalias noundef nonnull ptr @_Znam(i64 noundef 12) #18
          to label %invoke.cont438 unwind label %lpad

invoke.cont438:                                   ; preds = %if.end434
  %184 = load ptr, ptr %face, align 8
  %mIndices = getelementptr inbounds %struct.aiFace, ptr %184, i32 0, i32 1
  store ptr %call439, ptr %mIndices, align 8
  store i32 0, ptr %i, align 4
  br label %for.cond440

for.cond440:                                      ; preds = %for.inc454, %invoke.cont438
  %185 = load i32, ptr %i, align 4
  %cmp441 = icmp ult i32 %185, 3
  br i1 %cmp441, label %for.body442, label %for.end455

for.body442:                                      ; preds = %for.cond440
  %call444 = invoke noundef zeroext i1 @_ZN6Assimp10SkipSpacesIcEEbPPKT_(ptr noundef %sz223)
          to label %invoke.cont443 unwind label %lpad

invoke.cont443:                                   ; preds = %for.body442
  br i1 %call444, label %if.end448, label %if.then445

if.then445:                                       ; preds = %invoke.cont443
  %186 = load ptr, ptr %elem221, align 8
  %iLineNumber446 = getelementptr inbounds %"struct.Assimp::MD5::Element", ptr %186, i32 0, i32 1
  %187 = load i32, ptr %iLineNumber446, align 8
  invoke void @_ZN6Assimp3MD59MD5Parser13ReportWarningEPKcj(ptr noundef @.str.10, i32 noundef %187)
          to label %invoke.cont447 unwind label %lpad

invoke.cont447:                                   ; preds = %if.then445
  br label %if.end448

if.end448:                                        ; preds = %invoke.cont447, %invoke.cont443
  %188 = load ptr, ptr %sz223, align 8
  %call450 = invoke noundef i32 @_ZN6Assimp9strtoul10EPKcPS1_(ptr noundef %188, ptr noundef %sz223)
          to label %invoke.cont449 unwind label %lpad

invoke.cont449:                                   ; preds = %if.end448
  %189 = load ptr, ptr %face, align 8
  %mIndices451 = getelementptr inbounds %struct.aiFace, ptr %189, i32 0, i32 1
  %190 = load ptr, ptr %mIndices451, align 8
  %191 = load i32, ptr %i, align 4
  %idxprom452 = zext i32 %191 to i64
  %arrayidx453 = getelementptr inbounds i32, ptr %190, i64 %idxprom452
  store i32 %call450, ptr %arrayidx453, align 4
  br label %for.inc454

for.inc454:                                       ; preds = %invoke.cont449
  %192 = load i32, ptr %i, align 4
  %inc = add i32 %192, 1
  store i32 %inc, ptr %i, align 4
  br label %for.cond440, !llvm.loop !20

for.end455:                                       ; preds = %for.cond440
  br label %if.end554

if.else456:                                       ; preds = %invoke.cont413
  %call458 = invoke noundef zeroext i1 @_ZN6Assimp10TokenMatchIKcEEbRPT_PS1_j(ptr noundef nonnull align 8 dereferenceable(8) %sz223, ptr noundef @.str.20, i32 noundef 6)
          to label %invoke.cont457 unwind label %lpad

invoke.cont457:                                   ; preds = %if.else456
  br i1 %call458, label %if.then459, label %if.end553

if.then459:                                       ; preds = %invoke.cont457
  %call461 = invoke noundef zeroext i1 @_ZN6Assimp10SkipSpacesIcEEbPPKT_(ptr noundef %sz223)
          to label %invoke.cont460 unwind label %lpad

invoke.cont460:                                   ; preds = %if.then459
  br i1 %call461, label %if.end465, label %if.then462

if.then462:                                       ; preds = %invoke.cont460
  %193 = load ptr, ptr %elem221, align 8
  %iLineNumber463 = getelementptr inbounds %"struct.Assimp::MD5::Element", ptr %193, i32 0, i32 1
  %194 = load i32, ptr %iLineNumber463, align 8
  invoke void @_ZN6Assimp3MD59MD5Parser13ReportWarningEPKcj(ptr noundef @.str.10, i32 noundef %194)
          to label %invoke.cont464 unwind label %lpad

invoke.cont464:                                   ; preds = %if.then462
  br label %if.end465

if.end465:                                        ; preds = %invoke.cont464, %invoke.cont460
  %195 = load ptr, ptr %sz223, align 8
  %call468 = invoke noundef i32 @_ZN6Assimp9strtoul10EPKcPS1_(ptr noundef %195, ptr noundef %sz223)
          to label %invoke.cont467 unwind label %lpad

invoke.cont467:                                   ; preds = %if.end465
  store i32 %call468, ptr %idx466, align 4
  %call470 = invoke noundef zeroext i1 @_ZN6Assimp10SkipSpacesIcEEbPPKT_(ptr noundef %sz223)
          to label %invoke.cont469 unwind label %lpad

invoke.cont469:                                   ; preds = %invoke.cont467
  br i1 %call470, label %if.end474, label %if.then471

if.then471:                                       ; preds = %invoke.cont469
  %196 = load ptr, ptr %elem221, align 8
  %iLineNumber472 = getelementptr inbounds %"struct.Assimp::MD5::Element", ptr %196, i32 0, i32 1
  %197 = load i32, ptr %iLineNumber472, align 8
  invoke void @_ZN6Assimp3MD59MD5Parser13ReportWarningEPKcj(ptr noundef @.str.10, i32 noundef %197)
          to label %invoke.cont473 unwind label %lpad

invoke.cont473:                                   ; preds = %if.then471
  br label %if.end474

if.end474:                                        ; preds = %invoke.cont473, %invoke.cont469
  %198 = load i32, ptr %idx466, align 4
  %conv475 = zext i32 %198 to i64
  %199 = load ptr, ptr %desc209, align 8
  %mWeights476 = getelementptr inbounds %"struct.Assimp::MD5::MeshDesc", ptr %199, i32 0, i32 0
  %call477 = call noundef i64 @_ZNKSt6vectorIN6Assimp3MD510WeightDescESaIS2_EE4sizeEv(ptr noundef nonnull align 8 dereferenceable(24) %mWeights476) #15
  %cmp478 = icmp uge i64 %conv475, %call477
  br i1 %cmp478, label %if.then479, label %if.end484

if.then479:                                       ; preds = %if.end474
  %200 = load ptr, ptr %desc209, align 8
  %mWeights480 = getelementptr inbounds %"struct.Assimp::MD5::MeshDesc", ptr %200, i32 0, i32 0
  %201 = load i32, ptr %idx466, align 4
  %add481 = add i32 %201, 1
  %conv482 = zext i32 %add481 to i64
  invoke void @_ZNSt6vectorIN6Assimp3MD510WeightDescESaIS2_EE6resizeEm(ptr noundef nonnull align 8 dereferenceable(24) %mWeights480, i64 noundef %conv482)
          to label %invoke.cont483 unwind label %lpad

invoke.cont483:                                   ; preds = %if.then479
  br label %if.end484

if.end484:                                        ; preds = %invoke.cont483, %if.end474
  %202 = load ptr, ptr %desc209, align 8
  %mWeights485 = getelementptr inbounds %"struct.Assimp::MD5::MeshDesc", ptr %202, i32 0, i32 0
  %203 = load i32, ptr %idx466, align 4
  %conv486 = zext i32 %203 to i64
  %call487 = call noundef nonnull align 4 dereferenceable(20) ptr @_ZNSt6vectorIN6Assimp3MD510WeightDescESaIS2_EEixEm(ptr noundef nonnull align 8 dereferenceable(24) %mWeights485, i64 noundef %conv486) #15
  store ptr %call487, ptr %weight, align 8
  %204 = load ptr, ptr %sz223, align 8
  %call489 = invoke noundef i32 @_ZN6Assimp9strtoul10EPKcPS1_(ptr noundef %204, ptr noundef %sz223)
          to label %invoke.cont488 unwind label %lpad

invoke.cont488:                                   ; preds = %if.end484
  %205 = load ptr, ptr %weight, align 8
  %mBone = getelementptr inbounds %"struct.Assimp::MD5::WeightDesc", ptr %205, i32 0, i32 0
  store i32 %call489, ptr %mBone, align 4
  %call491 = invoke noundef zeroext i1 @_ZN6Assimp10SkipSpacesIcEEbPPKT_(ptr noundef %sz223)
          to label %invoke.cont490 unwind label %lpad

invoke.cont490:                                   ; preds = %invoke.cont488
  br i1 %call491, label %if.end495, label %if.then492

if.then492:                                       ; preds = %invoke.cont490
  %206 = load ptr, ptr %elem221, align 8
  %iLineNumber493 = getelementptr inbounds %"struct.Assimp::MD5::Element", ptr %206, i32 0, i32 1
  %207 = load i32, ptr %iLineNumber493, align 8
  invoke void @_ZN6Assimp3MD59MD5Parser13ReportWarningEPKcj(ptr noundef @.str.10, i32 noundef %207)
          to label %invoke.cont494 unwind label %lpad

invoke.cont494:                                   ; preds = %if.then492
  br label %if.end495

if.end495:                                        ; preds = %invoke.cont494, %invoke.cont490
  %208 = load ptr, ptr %sz223, align 8
  %209 = load ptr, ptr %weight, align 8
  %mWeight = getelementptr inbounds %"struct.Assimp::MD5::WeightDesc", ptr %209, i32 0, i32 1
  %call497 = invoke noundef ptr @_ZN6Assimp17fast_atoreal_moveIf17DeadlyImportErrorEEPKcS3_RT_b(ptr noundef %208, ptr noundef nonnull align 4 dereferenceable(4) %mWeight, i1 noundef zeroext true)
          to label %invoke.cont496 unwind label %lpad

invoke.cont496:                                   ; preds = %if.end495
  store ptr %call497, ptr %sz223, align 8
  %call499 = invoke noundef zeroext i1 @_ZN6Assimp10SkipSpacesIcEEbPPKT_(ptr noundef %sz223)
          to label %invoke.cont498 unwind label %lpad

invoke.cont498:                                   ; preds = %invoke.cont496
  br i1 %call499, label %if.end503, label %if.then500

if.then500:                                       ; preds = %invoke.cont498
  %210 = load ptr, ptr %elem221, align 8
  %iLineNumber501 = getelementptr inbounds %"struct.Assimp::MD5::Element", ptr %210, i32 0, i32 1
  %211 = load i32, ptr %iLineNumber501, align 8
  invoke void @_ZN6Assimp3MD59MD5Parser13ReportWarningEPKcj(ptr noundef @.str.10, i32 noundef %211)
          to label %invoke.cont502 unwind label %lpad

invoke.cont502:                                   ; preds = %if.then500
  br label %if.end503

if.end503:                                        ; preds = %invoke.cont502, %invoke.cont498
  %212 = load ptr, ptr %sz223, align 8
  %incdec.ptr504 = getelementptr inbounds i8, ptr %212, i32 1
  store ptr %incdec.ptr504, ptr %sz223, align 8
  %213 = load i8, ptr %212, align 1
  %conv505 = sext i8 %213 to i32
  %cmp506 = icmp ne i32 40, %conv505
  br i1 %cmp506, label %if.then507, label %if.end510

if.then507:                                       ; preds = %if.end503
  %214 = load ptr, ptr %elem221, align 8
  %iLineNumber508 = getelementptr inbounds %"struct.Assimp::MD5::Element", ptr %214, i32 0, i32 1
  %215 = load i32, ptr %iLineNumber508, align 8
  invoke void @_ZN6Assimp3MD59MD5Parser13ReportWarningEPKcj(ptr noundef @.str.11, i32 noundef %215)
          to label %invoke.cont509 unwind label %lpad

invoke.cont509:                                   ; preds = %if.then507
  br label %if.end510

if.end510:                                        ; preds = %invoke.cont509, %if.end503
  %call512 = invoke noundef zeroext i1 @_ZN6Assimp10SkipSpacesIcEEbPPKT_(ptr noundef %sz223)
          to label %invoke.cont511 unwind label %lpad

invoke.cont511:                                   ; preds = %if.end510
  br i1 %call512, label %if.end516, label %if.then513

if.then513:                                       ; preds = %invoke.cont511
  %216 = load ptr, ptr %elem221, align 8
  %iLineNumber514 = getelementptr inbounds %"struct.Assimp::MD5::Element", ptr %216, i32 0, i32 1
  %217 = load i32, ptr %iLineNumber514, align 8
  invoke void @_ZN6Assimp3MD59MD5Parser13ReportWarningEPKcj(ptr noundef @.str.10, i32 noundef %217)
          to label %invoke.cont515 unwind label %lpad

invoke.cont515:                                   ; preds = %if.then513
  br label %if.end516

if.end516:                                        ; preds = %invoke.cont515, %invoke.cont511
  %218 = load ptr, ptr %sz223, align 8
  %219 = load ptr, ptr %weight, align 8
  %vOffsetPosition = getelementptr inbounds %"struct.Assimp::MD5::WeightDesc", ptr %219, i32 0, i32 2
  %x517 = getelementptr inbounds %class.aiVector3t, ptr %vOffsetPosition, i32 0, i32 0
  %call519 = invoke noundef ptr @_ZN6Assimp17fast_atoreal_moveIf17DeadlyImportErrorEEPKcS3_RT_b(ptr noundef %218, ptr noundef nonnull align 4 dereferenceable(4) %x517, i1 noundef zeroext true)
          to label %invoke.cont518 unwind label %lpad

invoke.cont518:                                   ; preds = %if.end516
  store ptr %call519, ptr %sz223, align 8
  %call521 = invoke noundef zeroext i1 @_ZN6Assimp10SkipSpacesIcEEbPPKT_(ptr noundef %sz223)
          to label %invoke.cont520 unwind label %lpad

invoke.cont520:                                   ; preds = %invoke.cont518
  br i1 %call521, label %if.end525, label %if.then522

if.then522:                                       ; preds = %invoke.cont520
  %220 = load ptr, ptr %elem221, align 8
  %iLineNumber523 = getelementptr inbounds %"struct.Assimp::MD5::Element", ptr %220, i32 0, i32 1
  %221 = load i32, ptr %iLineNumber523, align 8
  invoke void @_ZN6Assimp3MD59MD5Parser13ReportWarningEPKcj(ptr noundef @.str.10, i32 noundef %221)
          to label %invoke.cont524 unwind label %lpad

invoke.cont524:                                   ; preds = %if.then522
  br label %if.end525

if.end525:                                        ; preds = %invoke.cont524, %invoke.cont520
  %222 = load ptr, ptr %sz223, align 8
  %223 = load ptr, ptr %weight, align 8
  %vOffsetPosition526 = getelementptr inbounds %"struct.Assimp::MD5::WeightDesc", ptr %223, i32 0, i32 2
  %y527 = getelementptr inbounds %class.aiVector3t, ptr %vOffsetPosition526, i32 0, i32 1
  %call529 = invoke noundef ptr @_ZN6Assimp17fast_atoreal_moveIf17DeadlyImportErrorEEPKcS3_RT_b(ptr noundef %222, ptr noundef nonnull align 4 dereferenceable(4) %y527, i1 noundef zeroext true)
          to label %invoke.cont528 unwind label %lpad

invoke.cont528:                                   ; preds = %if.end525
  store ptr %call529, ptr %sz223, align 8
  %call531 = invoke noundef zeroext i1 @_ZN6Assimp10SkipSpacesIcEEbPPKT_(ptr noundef %sz223)
          to label %invoke.cont530 unwind label %lpad

invoke.cont530:                                   ; preds = %invoke.cont528
  br i1 %call531, label %if.end535, label %if.then532

if.then532:                                       ; preds = %invoke.cont530
  %224 = load ptr, ptr %elem221, align 8
  %iLineNumber533 = getelementptr inbounds %"struct.Assimp::MD5::Element", ptr %224, i32 0, i32 1
  %225 = load i32, ptr %iLineNumber533, align 8
  invoke void @_ZN6Assimp3MD59MD5Parser13ReportWarningEPKcj(ptr noundef @.str.10, i32 noundef %225)
          to label %invoke.cont534 unwind label %lpad

invoke.cont534:                                   ; preds = %if.then532
  br label %if.end535

if.end535:                                        ; preds = %invoke.cont534, %invoke.cont530
  %226 = load ptr, ptr %sz223, align 8
  %227 = load ptr, ptr %weight, align 8
