target datalayout = "e-m:e-p270:32:32-p271:32:32-p272:64:64-i64:64-i128:128-f80:128-n8:16:32:64-S128"
target triple = "x86_64-unknown-linux-gnu"

%"class.std::__cxx11::basic_string" = type { %"struct.std::__cxx11::basic_string<char>::_Alloc_hider", i64, %union.anon }
%"struct.std::__cxx11::basic_string<char>::_Alloc_hider" = type { ptr }
%union.anon = type { i64, [8 x i8] }
%"struct.std::piecewise_construct_t" = type { i8 }
%"struct.std::_Vector_base" = type { %"struct.std::_Vector_base<std::__cxx11::basic_string<char>, std::allocator<std::__cxx11::basic_string<char>>>::_Vector_impl" }
%"struct.std::_Vector_base<std::__cxx11::basic_string<char>, std::allocator<std::__cxx11::basic_string<char>>>::_Vector_impl" = type { %"struct.std::_Vector_base<std::__cxx11::basic_string<char>, std::allocator<std::__cxx11::basic_string<char>>>::_Vector_impl_data" }
%"struct.std::_Vector_base<std::__cxx11::basic_string<char>, std::allocator<std::__cxx11::basic_string<char>>>::_Vector_impl_data" = type { ptr, ptr, ptr }
%"class.Assimp::ObjExporter" = type { %"class.std::__cxx11::basic_ostringstream", %"class.std::__cxx11::basic_ostringstream", %"class.std::__cxx11::basic_string", ptr, %"class.std::vector.3", %"class.std::vector.3", %"class.std::vector.8", %"class.std::vector.13", i8, %"class.Assimp::ObjExporter::indexMap", %"class.Assimp::ObjExporter::indexMap", %"class.Assimp::ObjExporter::indexMap.21", %"class.std::vector.28", %"class.std::__cxx11::basic_string" }
%"class.std::__cxx11::basic_ostringstream" = type { %"class.std::basic_ostream.base", %"class.std::__cxx11::basic_stringbuf", %"class.std::basic_ios" }
%"class.std::basic_ostream.base" = type { ptr }
%"class.std::__cxx11::basic_stringbuf" = type { %"class.std::basic_streambuf", i32, %"class.std::__cxx11::basic_string" }
%"class.std::basic_streambuf" = type { ptr, ptr, ptr, ptr, ptr, ptr, ptr, %"class.std::locale" }
%"class.std::locale" = type { ptr }
%"class.std::basic_ios" = type { %"class.std::ios_base", ptr, i8, i8, ptr, ptr, ptr, ptr }
%"class.std::ios_base" = type { ptr, i64, i64, i32, i32, i32, ptr, %"struct.std::ios_base::_Words", [8 x %"struct.std::ios_base::_Words"], i32, ptr, %"class.std::locale" }
%"struct.std::ios_base::_Words" = type { ptr, i64 }
%"class.std::vector.3" = type { %"struct.std::_Vector_base.4" }
%"struct.std::_Vector_base.4" = type { %"struct.std::_Vector_base<aiVector3t<float>, std::allocator<aiVector3t<float>>>::_Vector_impl" }
%"struct.std::_Vector_base<aiVector3t<float>, std::allocator<aiVector3t<float>>>::_Vector_impl" = type { %"struct.std::_Vector_base<aiVector3t<float>, std::allocator<aiVector3t<float>>>::_Vector_impl_data" }
%"struct.std::_Vector_base<aiVector3t<float>, std::allocator<aiVector3t<float>>>::_Vector_impl_data" = type { ptr, ptr, ptr }
%"class.std::vector.8" = type { %"struct.std::_Vector_base.9" }
%"struct.std::_Vector_base.9" = type { %"struct.std::_Vector_base<aiColor4t<float>, std::allocator<aiColor4t<float>>>::_Vector_impl" }
%"struct.std::_Vector_base<aiColor4t<float>, std::allocator<aiColor4t<float>>>::_Vector_impl" = type { %"struct.std::_Vector_base<aiColor4t<float>, std::allocator<aiColor4t<float>>>::_Vector_impl_data" }
%"struct.std::_Vector_base<aiColor4t<float>, std::allocator<aiColor4t<float>>>::_Vector_impl_data" = type { ptr, ptr, ptr }
%"class.std::vector.13" = type { %"struct.std::_Vector_base.14" }
%"struct.std::_Vector_base.14" = type { %"struct.std::_Vector_base<Assimp::ObjExporter::vertexData, std::allocator<Assimp::ObjExporter::vertexData>>::_Vector_impl" }
%"struct.std::_Vector_base<Assimp::ObjExporter::vertexData, std::allocator<Assimp::ObjExporter::vertexData>>::_Vector_impl" = type { %"struct.std::_Vector_base<Assimp::ObjExporter::vertexData, std::allocator<Assimp::ObjExporter::vertexData>>::_Vector_impl_data" }
%"struct.std::_Vector_base<Assimp::ObjExporter::vertexData, std::allocator<Assimp::ObjExporter::vertexData>>::_Vector_impl_data" = type { ptr, ptr, ptr }
%"class.Assimp::ObjExporter::indexMap" = type { i32, %"class.std::map" }
%"class.std::map" = type { %"class.std::_Rb_tree" }
%"class.std::_Rb_tree" = type { %"struct.std::_Rb_tree<aiVector3t<float>, std::pair<const aiVector3t<float>, int>, std::_Select1st<std::pair<const aiVector3t<float>, int>>, Assimp::ObjExporter::aiVectorCompare>::_Rb_tree_impl" }
%"struct.std::_Rb_tree<aiVector3t<float>, std::pair<const aiVector3t<float>, int>, std::_Select1st<std::pair<const aiVector3t<float>, int>>, Assimp::ObjExporter::aiVectorCompare>::_Rb_tree_impl" = type { %"struct.std::_Rb_tree_key_compare", %"struct.std::_Rb_tree_header" }
%"struct.std::_Rb_tree_key_compare" = type { %"struct.Assimp::ObjExporter::aiVectorCompare" }
%"struct.Assimp::ObjExporter::aiVectorCompare" = type { i8 }
%"struct.std::_Rb_tree_header" = type { %"struct.std::_Rb_tree_node_base", i64 }
%"struct.std::_Rb_tree_node_base" = type { i32, ptr, ptr, ptr }
%"class.Assimp::ObjExporter::indexMap.21" = type { i32, %"class.std::map.22" }
%"class.std::map.22" = type { %"class.std::_Rb_tree.23" }
%"class.std::_Rb_tree.23" = type { %"struct.std::_Rb_tree<Assimp::ObjExporter::vertexData, std::pair<const Assimp::ObjExporter::vertexData, int>, std::_Select1st<std::pair<const Assimp::ObjExporter::vertexData, int>>, Assimp::ObjExporter::vertexDataCompare>::_Rb_tree_impl" }
%"struct.std::_Rb_tree<Assimp::ObjExporter::vertexData, std::pair<const Assimp::ObjExporter::vertexData, int>, std::_Select1st<std::pair<const Assimp::ObjExporter::vertexData, int>>, Assimp::ObjExporter::vertexDataCompare>::_Rb_tree_impl" = type { %"struct.std::_Rb_tree_key_compare.27", %"struct.std::_Rb_tree_header" }
%"struct.std::_Rb_tree_key_compare.27" = type { %"struct.Assimp::ObjExporter::vertexDataCompare" }
%"struct.Assimp::ObjExporter::vertexDataCompare" = type { i8 }
%"class.std::vector.28" = type { %"struct.std::_Vector_base.29" }
%"struct.std::_Vector_base.29" = type { %"struct.std::_Vector_base<Assimp::ObjExporter::MeshInstance, std::allocator<Assimp::ObjExporter::MeshInstance>>::_Vector_impl" }
%"struct.std::_Vector_base<Assimp::ObjExporter::MeshInstance, std::allocator<Assimp::ObjExporter::MeshInstance>>::_Vector_impl" = type { %"struct.std::_Vector_base<Assimp::ObjExporter::MeshInstance, std::allocator<Assimp::ObjExporter::MeshInstance>>::_Vector_impl_data" }
%"struct.std::_Vector_base<Assimp::ObjExporter::MeshInstance, std::allocator<Assimp::ObjExporter::MeshInstance>>::_Vector_impl_data" = type { ptr, ptr, ptr }
%"class.std::allocator.0" = type { i8 }
%"class.std::unique_ptr" = type { %"struct.std::__uniq_ptr_data" }
%"struct.std::__uniq_ptr_data" = type { %"class.std::__uniq_ptr_impl" }
%"class.std::__uniq_ptr_impl" = type { %"class.std::tuple" }
%"class.std::tuple" = type { %"struct.std::_Tuple_impl" }
%"struct.std::_Tuple_impl" = type { %"struct.std::_Head_base.35" }
%"struct.std::_Head_base.35" = type { ptr }
%"class.std::fpos" = type { i64, %struct.__mbstate_t }
%struct.__mbstate_t = type { i32, %union.anon.36 }
%union.anon.36 = type { i32 }
%"class.Assimp::Formatter::basic_formatter" = type { %"class.std::__cxx11::basic_ostringstream" }
%class.aiMatrix4x4t = type { float, float, float, float, float, float, float, float, float, float, float, float, float, float, float, float }
%"class.__gnu_cxx::__normal_iterator" = type { ptr }
%"class.__gnu_cxx::__normal_iterator.37" = type { ptr }
%"class.__gnu_cxx::__normal_iterator.38" = type { ptr }
%"class.__gnu_cxx::__normal_iterator.44" = type { ptr }
%"class.__gnu_cxx::__normal_iterator.50" = type { ptr }
%struct.aiScene = type { i32, ptr, i32, ptr, i32, ptr, i32, ptr, i32, ptr, i32, ptr, i32, ptr, ptr, %struct.aiString, i32, ptr, ptr }
%struct.aiString = type { i32, [1024 x i8] }
%"struct.Assimp::ObjExporter::vertexData" = type { %class.aiVector3t, %struct.aiColor3D }
%class.aiVector3t = type { float, float, float }
%struct.aiColor3D = type { float, float, float }
%"struct.Assimp::ObjExporter::MeshInstance" = type { %"class.std::__cxx11::basic_string", %"class.std::__cxx11::basic_string", %"class.std::vector.39" }
%"class.std::vector.39" = type { %"struct.std::_Vector_base.40" }
%"struct.std::_Vector_base.40" = type { %"struct.std::_Vector_base<Assimp::ObjExporter::Face, std::allocator<Assimp::ObjExporter::Face>>::_Vector_impl" }
%"struct.std::_Vector_base<Assimp::ObjExporter::Face, std::allocator<Assimp::ObjExporter::Face>>::_Vector_impl" = type { %"struct.std::_Vector_base<Assimp::ObjExporter::Face, std::allocator<Assimp::ObjExporter::Face>>::_Vector_impl_data" }
%"struct.std::_Vector_base<Assimp::ObjExporter::Face, std::allocator<Assimp::ObjExporter::Face>>::_Vector_impl_data" = type { ptr, ptr, ptr }
%"struct.Assimp::ObjExporter::Face" = type { i8, %"class.std::vector.45" }
%"class.std::vector.45" = type { %"struct.std::_Vector_base.46" }
%"struct.std::_Vector_base.46" = type { %"struct.std::_Vector_base<Assimp::ObjExporter::FaceVertex, std::allocator<Assimp::ObjExporter::FaceVertex>>::_Vector_impl" }
%"struct.std::_Vector_base<Assimp::ObjExporter::FaceVertex, std::allocator<Assimp::ObjExporter::FaceVertex>>::_Vector_impl" = type { %"struct.std::_Vector_base<Assimp::ObjExporter::FaceVertex, std::allocator<Assimp::ObjExporter::FaceVertex>>::_Vector_impl_data" }
%"struct.std::_Vector_base<Assimp::ObjExporter::FaceVertex, std::allocator<Assimp::ObjExporter::FaceVertex>>::_Vector_impl_data" = type { ptr, ptr, ptr }
%"struct.Assimp::ObjExporter::FaceVertex" = type { i32, i32, i32 }
%class.aiColor4t = type { float, float, float, float }
%struct.aiNode = type { %struct.aiString, %class.aiMatrix4x4t, ptr, i32, ptr, i32, ptr, ptr }
%struct.aiMesh = type { i32, i32, i32, ptr, ptr, ptr, ptr, [8 x ptr], [8 x ptr], [8 x i32], ptr, i32, ptr, i32, %struct.aiString, i32, ptr, i32, %struct.aiAABB, ptr }
%struct.aiAABB = type { %class.aiVector3t, %class.aiVector3t }
%"struct.std::_Rb_tree_iterator" = type { ptr }
%"struct.std::pair" = type { %"struct.Assimp::ObjExporter::vertexData", i32 }
%"struct.std::_Rb_tree_iterator.57" = type { ptr }
%"struct.std::pair.53" = type { %class.aiVector3t, i32 }
%class.aiMatrix3x3t = type { float, float, float, float, float, float, float, float, float }
%struct.aiFace = type { i32, ptr }
%"class.Assimp::IOSystem" = type { ptr, %"class.std::vector" }
%"class.std::vector" = type { %"struct.std::_Vector_base" }
%"struct.std::_Rb_tree_node" = type <{ %"struct.std::_Rb_tree_node_base", %"struct.__gnu_cxx::__aligned_membuf", [4 x i8] }>
%"struct.__gnu_cxx::__aligned_membuf" = type { [28 x i8] }
%"struct.std::_Rb_tree_node.51" = type { %"struct.std::_Rb_tree_node_base", %"struct.__gnu_cxx::__aligned_membuf.52" }
%"struct.__gnu_cxx::__aligned_membuf.52" = type { [16 x i8] }
%"class.__gnu_cxx::__normal_iterator.55" = type { ptr }
%"class.__gnu_cxx::__normal_iterator.56" = type { ptr }
%struct._Guard = type { ptr }
%"struct.std::_Rb_tree_const_iterator" = type { ptr }
%"class.std::tuple.58" = type { %"struct.std::_Tuple_impl.59" }
%"struct.std::_Tuple_impl.59" = type { %"struct.std::_Head_base.60" }
%"struct.std::_Head_base.60" = type { ptr }
%"class.std::tuple.61" = type { i8 }
%"struct.std::_Select1st" = type { i8 }
%"struct.std::_Rb_tree<Assimp::ObjExporter::vertexData, std::pair<const Assimp::ObjExporter::vertexData, int>, std::_Select1st<std::pair<const Assimp::ObjExporter::vertexData, int>>, Assimp::ObjExporter::vertexDataCompare>::_Auto_node" = type { ptr, ptr }
%"struct.std::pair.62" = type { ptr, ptr }
%"struct.std::_Rb_tree_const_iterator.67" = type { ptr }
%"class.std::tuple.68" = type { %"struct.std::_Tuple_impl.69" }
%"struct.std::_Tuple_impl.69" = type { %"struct.std::_Head_base.70" }
%"struct.std::_Head_base.70" = type { ptr }
%"struct.std::_Select1st.65" = type { i8 }
%"struct.std::_Rb_tree<aiVector3t<float>, std::pair<const aiVector3t<float>, int>, std::_Select1st<std::pair<const aiVector3t<float>, int>>, Assimp::ObjExporter::aiVectorCompare>::_Auto_node" = type { ptr, ptr }

$_ZN6Assimp8IOStreamD0Ev = comdat any

$_ZNSt6vectorINSt7__cxx1112basic_stringIcSt11char_traitsIcESaIcEEESaIS5_EED2Ev = comdat any

$_ZN6Assimp8IOSystemD0Ev = comdat any

$_ZStplIcSt11char_traitsIcESaIcEENSt7__cxx1112basic_stringIT_T0_T1_EEPKS5_OS8_ = comdat any

$_ZNSt7__cxx1112basic_stringIcSt11char_traitsIcESaIcEEC2IS3_EEPKcRKS3_ = comdat any

$_ZN17DeadlyExportErrorC2IJNSt7__cxx1112basic_stringIcSt11char_traitsIcESaIcEEEEEEDpOT_ = comdat any

$_ZN17DeadlyExportErrorD2Ev = comdat any

$_ZNSt10unique_ptrIN6Assimp8IOStreamESt14default_deleteIS1_EEC2IS3_vEEPS1_ = comdat any

$_ZSteqIN6Assimp8IOStreamESt14default_deleteIS1_EEbRKSt10unique_ptrIT_T0_EDn = comdat any

$_ZNKSt10unique_ptrIN6Assimp8IOStreamESt14default_deleteIS1_EEptEv = comdat any

$_ZNKSt4fposI11__mbstate_tEcvlEv = comdat any

$_ZNSt10unique_ptrIN6Assimp8IOStreamESt14default_deleteIS1_EED2Ev = comdat any

$_ZN6Assimp8IOSystem4OpenERKNSt7__cxx1112basic_stringIcSt11char_traitsIcESaIcEEES8_ = comdat any

$_ZNSt6vectorI10aiVector3tIfESaIS1_EEC2Ev = comdat any

$_ZNSt6vectorI9aiColor4tIfESaIS1_EEC2Ev = comdat any

$_ZNSt6vectorIN6Assimp11ObjExporter10vertexDataESaIS2_EEC2Ev = comdat any

$_ZN6Assimp11ObjExporter8indexMapI10aiVector3tIfENS0_15aiVectorCompareEEC2Ev = comdat any

$_ZN6Assimp11ObjExporter8indexMapINS0_10vertexDataENS0_17vertexDataCompareEEC2Ev = comdat any

$_ZNSt6vectorIN6Assimp11ObjExporter12MeshInstanceESaIS2_EEC2Ev = comdat any

$_ZNSt8ios_base9precisionEl = comdat any

$_ZNSt6vectorIN6Assimp11ObjExporter12MeshInstanceESaIS2_EED2Ev = comdat any

$_ZN6Assimp11ObjExporter8indexMapINS0_10vertexDataENS0_17vertexDataCompareEED2Ev = comdat any

$_ZN6Assimp11ObjExporter8indexMapI10aiVector3tIfENS0_15aiVectorCompareEED2Ev = comdat any

$_ZNSt6vectorIN6Assimp11ObjExporter10vertexDataESaIS2_EED2Ev = comdat any

$_ZNSt6vectorI9aiColor4tIfESaIS1_EED2Ev = comdat any

$_ZNSt6vectorI10aiVector3tIfESaIS1_EED2Ev = comdat any

$_ZStplIcSt11char_traitsIcESaIcEENSt7__cxx1112basic_stringIT_T0_T1_EEOS8_RKS8_ = comdat any

$_ZStplIcSt11char_traitsIcESaIcEENSt7__cxx1112basic_stringIT_T0_T1_EERKS8_SA_ = comdat any

$_ZN8aiStringC2Ev = comdat any

$_ZNK10aiMaterial3GetEPKcjjR8aiString = comdat any

$_ZN6Assimp13ASSIMP_itoa10ILm13EEEjRAT__ci = comdat any

$_ZN9aiColor4tIfEC2Ev = comdat any

$_ZNK10aiMaterial3GetEPKcjjR9aiColor4tIfE = comdat any

$_ZNK10aiMaterial3GetEPKcjjRf = comdat any

$_ZN12aiMatrix4x4tIfEC2Ev = comdat any

$_ZN6Assimp11ObjExporter8indexMapINS0_10vertexDataENS0_17vertexDataCompareEE7getKeysERSt6vectorIS2_SaIS2_EE = comdat any

$_ZNKSt6vectorIN6Assimp11ObjExporter10vertexDataESaIS2_EE4sizeEv = comdat any

$_ZNSt6vectorIN6Assimp11ObjExporter10vertexDataESaIS2_EE5beginEv = comdat any

$_ZNSt6vectorIN6Assimp11ObjExporter10vertexDataESaIS2_EE3endEv = comdat any

$_ZN9__gnu_cxxneIPN6Assimp11ObjExporter10vertexDataESt6vectorIS3_SaIS3_EEEEbRKNS_17__normal_iteratorIT_T0_EESD_ = comdat any

$_ZNK9__gnu_cxx17__normal_iteratorIPN6Assimp11ObjExporter10vertexDataESt6vectorIS3_SaIS3_EEEdeEv = comdat any

$_ZN9__gnu_cxx17__normal_iteratorIPN6Assimp11ObjExporter10vertexDataESt6vectorIS3_SaIS3_EEEppEv = comdat any

$_ZN6Assimp11ObjExporter8indexMapI10aiVector3tIfENS0_15aiVectorCompareEE7getKeysERSt6vectorIS3_SaIS3_EE = comdat any

$_ZNKSt6vectorI10aiVector3tIfESaIS1_EE4sizeEv = comdat any

$_ZNSt6vectorI10aiVector3tIfESaIS1_EE5beginEv = comdat any

$_ZNSt6vectorI10aiVector3tIfESaIS1_EE3endEv = comdat any

$_ZN9__gnu_cxxneIP10aiVector3tIfESt6vectorIS2_SaIS2_EEEEbRKNS_17__normal_iteratorIT_T0_EESC_ = comdat any

$_ZNK9__gnu_cxx17__normal_iteratorIP10aiVector3tIfESt6vectorIS2_SaIS2_EEEdeEv = comdat any

$_ZN9__gnu_cxx17__normal_iteratorIP10aiVector3tIfESt6vectorIS2_SaIS2_EEEppEv = comdat any

$_ZNSt6vectorIN6Assimp11ObjExporter12MeshInstanceESaIS2_EE5beginEv = comdat any

$_ZNSt6vectorIN6Assimp11ObjExporter12MeshInstanceESaIS2_EE3endEv = comdat any

$_ZN9__gnu_cxxneIPN6Assimp11ObjExporter12MeshInstanceESt6vectorIS3_SaIS3_EEEEbRKNS_17__normal_iteratorIT_T0_EESD_ = comdat any

$_ZNK9__gnu_cxx17__normal_iteratorIPN6Assimp11ObjExporter12MeshInstanceESt6vectorIS3_SaIS3_EEEdeEv = comdat any

$_ZNKSt6vectorIN6Assimp11ObjExporter4FaceESaIS2_EE4sizeEv = comdat any

$_ZNKSt6vectorIN6Assimp11ObjExporter4FaceESaIS2_EE5beginEv = comdat any

$_ZNKSt6vectorIN6Assimp11ObjExporter4FaceESaIS2_EE3endEv = comdat any

$_ZN9__gnu_cxxneIPKN6Assimp11ObjExporter4FaceESt6vectorIS3_SaIS3_EEEEbRKNS_17__normal_iteratorIT_T0_EESE_ = comdat any

$_ZNK9__gnu_cxx17__normal_iteratorIPKN6Assimp11ObjExporter4FaceESt6vectorIS3_SaIS3_EEEdeEv = comdat any

$_ZNKSt6vectorIN6Assimp11ObjExporter10FaceVertexESaIS2_EE5beginEv = comdat any

$_ZNKSt6vectorIN6Assimp11ObjExporter10FaceVertexESaIS2_EE3endEv = comdat any

$_ZN9__gnu_cxxneIPKN6Assimp11ObjExporter10FaceVertexESt6vectorIS3_SaIS3_EEEEbRKNS_17__normal_iteratorIT_T0_EESE_ = comdat any

$_ZNK9__gnu_cxx17__normal_iteratorIPKN6Assimp11ObjExporter10FaceVertexESt6vectorIS3_SaIS3_EEEdeEv = comdat any

$_ZN9__gnu_cxx17__normal_iteratorIPKN6Assimp11ObjExporter10FaceVertexESt6vectorIS3_SaIS3_EEEppEv = comdat any

$_ZN9__gnu_cxx17__normal_iteratorIPKN6Assimp11ObjExporter4FaceESt6vectorIS3_SaIS3_EEEppEv = comdat any

$_ZN9__gnu_cxx17__normal_iteratorIPN6Assimp11ObjExporter12MeshInstanceESt6vectorIS3_SaIS3_EEEppEv = comdat any

$_ZNSt6vectorIN6Assimp11ObjExporter12MeshInstanceESaIS2_EE12emplace_backIJEEERS2_DpOT_ = comdat any

$_ZNSt6vectorIN6Assimp11ObjExporter12MeshInstanceESaIS2_EE4backEv = comdat any

$_ZNSt6vectorIN6Assimp11ObjExporter4FaceESaIS2_EE6resizeEm = comdat any

$_ZNSt6vectorIN6Assimp11ObjExporter4FaceESaIS2_EEixEm = comdat any

$_ZNSt6vectorIN6Assimp11ObjExporter10FaceVertexESaIS2_EE6resizeEm = comdat any

$_ZmlIfE10aiVector3tIT_ERK12aiMatrix4x4tIS1_ERKS2_ = comdat any

$_ZN6Assimp11ObjExporter8indexMapINS0_10vertexDataENS0_17vertexDataCompareEE8getIndexERKS2_ = comdat any

$_ZN9aiColor3DC2Efff = comdat any

$_ZNSt6vectorIN6Assimp11ObjExporter10FaceVertexESaIS2_EEixEm = comdat any

$_ZmlIfE10aiVector3tIT_ERK12aiMatrix3x3tIS1_ERKS2_ = comdat any

$_ZN12aiMatrix3x3tIfEC2ERK12aiMatrix4x4tIfE = comdat any

$_ZN6Assimp11ObjExporter8indexMapI10aiVector3tIfENS0_15aiVectorCompareEE8getIndexERKS3_ = comdat any

$_ZNK12aiMatrix4x4tIfEmlERKS0_ = comdat any

$_ZN6Assimp8IOStreamD2Ev = comdat any

$_ZN6Assimp8IOSystemD2Ev = comdat any

$_ZN6Assimp8IOSystem13PushDirectoryERKNSt7__cxx1112basic_stringIcSt11char_traitsIcESaIcEEE = comdat any

$_ZNK6Assimp8IOSystem9StackSizeEv = comdat any

$_ZN6Assimp8IOSystem12PopDirectoryEv = comdat any

$_ZN6Assimp8IOSystem15CreateDirectoryERKNSt7__cxx1112basic_stringIcSt11char_traitsIcESaIcEEE = comdat any

$_ZN6Assimp8IOSystem15ChangeDirectoryERKNSt7__cxx1112basic_stringIcSt11char_traitsIcESaIcEEE = comdat any

$_ZN6Assimp8IOSystem10DeleteFileERKNSt7__cxx1112basic_stringIcSt11char_traitsIcESaIcEEE = comdat any

$_ZN15DeadlyErrorBaseD2Ev = comdat any

$_ZNSt12_Vector_baseI10aiVector3tIfESaIS1_EEC2Ev = comdat any

$_ZNSt12_Vector_baseI10aiVector3tIfESaIS1_EE12_Vector_implC2Ev = comdat any

$_ZNSaI10aiVector3tIfEEC2Ev = comdat any

$_ZNSt12_Vector_baseI10aiVector3tIfESaIS1_EE17_Vector_impl_dataC2Ev = comdat any

$_ZNSt15__new_allocatorI10aiVector3tIfEEC2Ev = comdat any

$_ZNSt12_Vector_baseI9aiColor4tIfESaIS1_EEC2Ev = comdat any

$_ZNSt12_Vector_baseI9aiColor4tIfESaIS1_EE12_Vector_implC2Ev = comdat any

$_ZNSaI9aiColor4tIfEEC2Ev = comdat any

$_ZNSt12_Vector_baseI9aiColor4tIfESaIS1_EE17_Vector_impl_dataC2Ev = comdat any

$_ZNSt15__new_allocatorI9aiColor4tIfEEC2Ev = comdat any

$_ZNSt12_Vector_baseIN6Assimp11ObjExporter10vertexDataESaIS2_EEC2Ev = comdat any

$_ZNSt12_Vector_baseIN6Assimp11ObjExporter10vertexDataESaIS2_EE12_Vector_implC2Ev = comdat any

$_ZNSaIN6Assimp11ObjExporter10vertexDataEEC2Ev = comdat any

$_ZNSt12_Vector_baseIN6Assimp11ObjExporter10vertexDataESaIS2_EE17_Vector_impl_dataC2Ev = comdat any

$_ZNSt15__new_allocatorIN6Assimp11ObjExporter10vertexDataEEC2Ev = comdat any

$_ZNSt12_Vector_baseIN6Assimp11ObjExporter12MeshInstanceESaIS2_EEC2Ev = comdat any

$_ZNSt12_Vector_baseIN6Assimp11ObjExporter12MeshInstanceESaIS2_EE12_Vector_implC2Ev = comdat any

$_ZNSaIN6Assimp11ObjExporter12MeshInstanceEEC2Ev = comdat any

$_ZNSt12_Vector_baseIN6Assimp11ObjExporter12MeshInstanceESaIS2_EE17_Vector_impl_dataC2Ev = comdat any

$_ZNSt15__new_allocatorIN6Assimp11ObjExporter12MeshInstanceEEC2Ev = comdat any

$_ZNSt3mapIN6Assimp11ObjExporter10vertexDataEiNS1_17vertexDataCompareESaISt4pairIKS2_iEEED2Ev = comdat any

$_ZNSt8_Rb_treeIN6Assimp11ObjExporter10vertexDataESt4pairIKS2_iESt10_Select1stIS5_ENS1_17vertexDataCompareESaIS5_EED2Ev = comdat any

$_ZNSt8_Rb_treeIN6Assimp11ObjExporter10vertexDataESt4pairIKS2_iESt10_Select1stIS5_ENS1_17vertexDataCompareESaIS5_EE8_M_eraseEPSt13_Rb_tree_nodeIS5_E = comdat any

$_ZNSt8_Rb_treeIN6Assimp11ObjExporter10vertexDataESt4pairIKS2_iESt10_Select1stIS5_ENS1_17vertexDataCompareESaIS5_EE8_M_beginEv = comdat any

$__clang_call_terminate = comdat any

$_ZNSt8_Rb_treeIN6Assimp11ObjExporter10vertexDataESt4pairIKS2_iESt10_Select1stIS5_ENS1_17vertexDataCompareESaIS5_EE13_Rb_tree_implIS8_Lb1EED2Ev = comdat any

$_ZNSt8_Rb_treeIN6Assimp11ObjExporter10vertexDataESt4pairIKS2_iESt10_Select1stIS5_ENS1_17vertexDataCompareESaIS5_EE8_S_rightEPSt18_Rb_tree_node_base = comdat any

$_ZNSt8_Rb_treeIN6Assimp11ObjExporter10vertexDataESt4pairIKS2_iESt10_Select1stIS5_ENS1_17vertexDataCompareESaIS5_EE7_S_leftEPSt18_Rb_tree_node_base = comdat any

$_ZNSt8_Rb_treeIN6Assimp11ObjExporter10vertexDataESt4pairIKS2_iESt10_Select1stIS5_ENS1_17vertexDataCompareESaIS5_EE12_M_drop_nodeEPSt13_Rb_tree_nodeIS5_E = comdat any

$_ZNSt8_Rb_treeIN6Assimp11ObjExporter10vertexDataESt4pairIKS2_iESt10_Select1stIS5_ENS1_17vertexDataCompareESaIS5_EE15_M_destroy_nodeEPSt13_Rb_tree_nodeIS5_E = comdat any

$_ZNSt8_Rb_treeIN6Assimp11ObjExporter10vertexDataESt4pairIKS2_iESt10_Select1stIS5_ENS1_17vertexDataCompareESaIS5_EE11_M_put_nodeEPSt13_Rb_tree_nodeIS5_E = comdat any

$_ZNSt16allocator_traitsISaISt13_Rb_tree_nodeISt4pairIKN6Assimp11ObjExporter10vertexDataEiEEEE7destroyIS6_EEvRS8_PT_ = comdat any

$_ZNSt8_Rb_treeIN6Assimp11ObjExporter10vertexDataESt4pairIKS2_iESt10_Select1stIS5_ENS1_17vertexDataCompareESaIS5_EE21_M_get_Node_allocatorEv = comdat any

$_ZNSt13_Rb_tree_nodeISt4pairIKN6Assimp11ObjExporter10vertexDataEiEE9_M_valptrEv = comdat any

$_ZNSt15__new_allocatorISt13_Rb_tree_nodeISt4pairIKN6Assimp11ObjExporter10vertexDataEiEEE7destroyIS6_EEvPT_ = comdat any

$_ZN9__gnu_cxx16__aligned_membufISt4pairIKN6Assimp11ObjExporter10vertexDataEiEE6_M_ptrEv = comdat any

$_ZN9__gnu_cxx16__aligned_membufISt4pairIKN6Assimp11ObjExporter10vertexDataEiEE7_M_addrEv = comdat any

$_ZNSt16allocator_traitsISaISt13_Rb_tree_nodeISt4pairIKN6Assimp11ObjExporter10vertexDataEiEEEE10deallocateERS8_PS7_m = comdat any

$_ZNSt15__new_allocatorISt13_Rb_tree_nodeISt4pairIKN6Assimp11ObjExporter10vertexDataEiEEE10deallocateEPS7_m = comdat any

$_ZNKSt8_Rb_treeIN6Assimp11ObjExporter10vertexDataESt4pairIKS2_iESt10_Select1stIS5_ENS1_17vertexDataCompareESaIS5_EE9_M_mbeginEv = comdat any

$_ZNSaISt13_Rb_tree_nodeISt4pairIKN6Assimp11ObjExporter10vertexDataEiEEED2Ev = comdat any

$_ZNSt15__new_allocatorISt13_Rb_tree_nodeISt4pairIKN6Assimp11ObjExporter10vertexDataEiEEED2Ev = comdat any

$_ZNSt3mapI10aiVector3tIfEiN6Assimp11ObjExporter15aiVectorCompareESaISt4pairIKS1_iEEED2Ev = comdat any

$_ZNSt8_Rb_treeI10aiVector3tIfESt4pairIKS1_iESt10_Select1stIS4_EN6Assimp11ObjExporter15aiVectorCompareESaIS4_EED2Ev = comdat any

$_ZNSt8_Rb_treeI10aiVector3tIfESt4pairIKS1_iESt10_Select1stIS4_EN6Assimp11ObjExporter15aiVectorCompareESaIS4_EE8_M_eraseEPSt13_Rb_tree_nodeIS4_E = comdat any

$_ZNSt8_Rb_treeI10aiVector3tIfESt4pairIKS1_iESt10_Select1stIS4_EN6Assimp11ObjExporter15aiVectorCompareESaIS4_EE8_M_beginEv = comdat any

$_ZNSt8_Rb_treeI10aiVector3tIfESt4pairIKS1_iESt10_Select1stIS4_EN6Assimp11ObjExporter15aiVectorCompareESaIS4_EE13_Rb_tree_implIS9_Lb1EED2Ev = comdat any

$_ZNSt8_Rb_treeI10aiVector3tIfESt4pairIKS1_iESt10_Select1stIS4_EN6Assimp11ObjExporter15aiVectorCompareESaIS4_EE8_S_rightEPSt18_Rb_tree_node_base = comdat any

$_ZNSt8_Rb_treeI10aiVector3tIfESt4pairIKS1_iESt10_Select1stIS4_EN6Assimp11ObjExporter15aiVectorCompareESaIS4_EE7_S_leftEPSt18_Rb_tree_node_base = comdat any

$_ZNSt8_Rb_treeI10aiVector3tIfESt4pairIKS1_iESt10_Select1stIS4_EN6Assimp11ObjExporter15aiVectorCompareESaIS4_EE12_M_drop_nodeEPSt13_Rb_tree_nodeIS4_E = comdat any

$_ZNSt8_Rb_treeI10aiVector3tIfESt4pairIKS1_iESt10_Select1stIS4_EN6Assimp11ObjExporter15aiVectorCompareESaIS4_EE15_M_destroy_nodeEPSt13_Rb_tree_nodeIS4_E = comdat any

$_ZNSt8_Rb_treeI10aiVector3tIfESt4pairIKS1_iESt10_Select1stIS4_EN6Assimp11ObjExporter15aiVectorCompareESaIS4_EE11_M_put_nodeEPSt13_Rb_tree_nodeIS4_E = comdat any

$_ZNSt16allocator_traitsISaISt13_Rb_tree_nodeISt4pairIK10aiVector3tIfEiEEEE7destroyIS5_EEvRS7_PT_ = comdat any

$_ZNSt8_Rb_treeI10aiVector3tIfESt4pairIKS1_iESt10_Select1stIS4_EN6Assimp11ObjExporter15aiVectorCompareESaIS4_EE21_M_get_Node_allocatorEv = comdat any

$_ZNSt13_Rb_tree_nodeISt4pairIK10aiVector3tIfEiEE9_M_valptrEv = comdat any

$_ZNSt15__new_allocatorISt13_Rb_tree_nodeISt4pairIK10aiVector3tIfEiEEE7destroyIS5_EEvPT_ = comdat any

$_ZN9__gnu_cxx16__aligned_membufISt4pairIK10aiVector3tIfEiEE6_M_ptrEv = comdat any

$_ZN9__gnu_cxx16__aligned_membufISt4pairIK10aiVector3tIfEiEE7_M_addrEv = comdat any

$_ZNSt16allocator_traitsISaISt13_Rb_tree_nodeISt4pairIK10aiVector3tIfEiEEEE10deallocateERS7_PS6_m = comdat any

$_ZNSt15__new_allocatorISt13_Rb_tree_nodeISt4pairIK10aiVector3tIfEiEEE10deallocateEPS6_m = comdat any

$_ZNKSt8_Rb_treeI10aiVector3tIfESt4pairIKS1_iESt10_Select1stIS4_EN6Assimp11ObjExporter15aiVectorCompareESaIS4_EE9_M_mbeginEv = comdat any

$_ZNSaISt13_Rb_tree_nodeISt4pairIK10aiVector3tIfEiEEED2Ev = comdat any

$_ZNSt15__new_allocatorISt13_Rb_tree_nodeISt4pairIK10aiVector3tIfEiEEED2Ev = comdat any

$aiGetMaterialFloat = comdat any

$_ZNSt6vectorINSt7__cxx1112basic_stringIcSt11char_traitsIcESaIcEEESaIS5_EE9push_backERKS5_ = comdat any

$_ZNSt16allocator_traitsISaINSt7__cxx1112basic_stringIcSt11char_traitsIcESaIcEEEEE9constructIS5_JRKS5_EEEvRS6_PT_DpOT0_ = comdat any

$_ZNSt6vectorINSt7__cxx1112basic_stringIcSt11char_traitsIcESaIcEEESaIS5_EE17_M_realloc_insertIJRKS5_EEEvN9__gnu_cxx17__normal_iteratorIPS5_S7_EEDpOT_ = comdat any

$_ZNSt6vectorINSt7__cxx1112basic_stringIcSt11char_traitsIcESaIcEEESaIS5_EE3endEv = comdat any

$_ZNSt15__new_allocatorINSt7__cxx1112basic_stringIcSt11char_traitsIcESaIcEEEE9constructIS5_JRKS5_EEEvPT_DpOT0_ = comdat any

$_ZNKSt6vectorINSt7__cxx1112basic_stringIcSt11char_traitsIcESaIcEEESaIS5_EE12_M_check_lenEmPKc = comdat any

$_ZN9__gnu_cxxmiIPNSt7__cxx1112basic_stringIcSt11char_traitsIcESaIcEEESt6vectorIS6_SaIS6_EEEENS_17__normal_iteratorIT_T0_E15difference_typeERKSE_SH_ = comdat any

$_ZNSt6vectorINSt7__cxx1112basic_stringIcSt11char_traitsIcESaIcEEESaIS5_EE5beginEv = comdat any

$_ZNSt12_Vector_baseINSt7__cxx1112basic_stringIcSt11char_traitsIcESaIcEEESaIS5_EE11_M_allocateEm = comdat any

$_ZNSt6vectorINSt7__cxx1112basic_stringIcSt11char_traitsIcESaIcEEESaIS5_EE11_S_relocateEPS5_S8_S8_RS6_ = comdat any

$_ZNK9__gnu_cxx17__normal_iteratorIPNSt7__cxx1112basic_stringIcSt11char_traitsIcESaIcEEESt6vectorIS6_SaIS6_EEE4baseEv = comdat any

$_ZNSt12_Vector_baseINSt7__cxx1112basic_stringIcSt11char_traitsIcESaIcEEESaIS5_EE19_M_get_Tp_allocatorEv = comdat any

$_ZNSt16allocator_traitsISaINSt7__cxx1112basic_stringIcSt11char_traitsIcESaIcEEEEE7destroyIS5_EEvRS6_PT_ = comdat any

$_ZSt8_DestroyIPNSt7__cxx1112basic_stringIcSt11char_traitsIcESaIcEEES5_EvT_S7_RSaIT0_E = comdat any

$_ZNSt12_Vector_baseINSt7__cxx1112basic_stringIcSt11char_traitsIcESaIcEEESaIS5_EE13_M_deallocateEPS5_m = comdat any

$_ZNKSt6vectorINSt7__cxx1112basic_stringIcSt11char_traitsIcESaIcEEESaIS5_EE8max_sizeEv = comdat any

$_ZNKSt6vectorINSt7__cxx1112basic_stringIcSt11char_traitsIcESaIcEEESaIS5_EE4sizeEv = comdat any

$_ZSt3maxImERKT_S2_S2_ = comdat any

$_ZNSt6vectorINSt7__cxx1112basic_stringIcSt11char_traitsIcESaIcEEESaIS5_EE11_S_max_sizeERKS6_ = comdat any

$_ZNKSt12_Vector_baseINSt7__cxx1112basic_stringIcSt11char_traitsIcESaIcEEESaIS5_EE19_M_get_Tp_allocatorEv = comdat any

$_ZNSt16allocator_traitsISaINSt7__cxx1112basic_stringIcSt11char_traitsIcESaIcEEEEE8max_sizeERKS6_ = comdat any

$_ZSt3minImERKT_S2_S2_ = comdat any

$_ZNKSt15__new_allocatorINSt7__cxx1112basic_stringIcSt11char_traitsIcESaIcEEEE8max_sizeEv = comdat any

$_ZNKSt15__new_allocatorINSt7__cxx1112basic_stringIcSt11char_traitsIcESaIcEEEE11_M_max_sizeEv = comdat any

$_ZN9__gnu_cxx17__normal_iteratorIPNSt7__cxx1112basic_stringIcSt11char_traitsIcESaIcEEESt6vectorIS6_SaIS6_EEEC2ERKS7_ = comdat any

$_ZNSt16allocator_traitsISaINSt7__cxx1112basic_stringIcSt11char_traitsIcESaIcEEEEE8allocateERS6_m = comdat any

$_ZNSt15__new_allocatorINSt7__cxx1112basic_stringIcSt11char_traitsIcESaIcEEEE8allocateEmPKv = comdat any

$_ZSt12__relocate_aIPNSt7__cxx1112basic_stringIcSt11char_traitsIcESaIcEEES6_SaIS5_EET0_T_S9_S8_RT1_ = comdat any

$_ZSt14__relocate_a_1IPNSt7__cxx1112basic_stringIcSt11char_traitsIcESaIcEEES6_SaIS5_EET0_T_S9_S8_RT1_ = comdat any

$_ZSt12__niter_baseIPNSt7__cxx1112basic_stringIcSt11char_traitsIcESaIcEEEET_S7_ = comdat any

$_ZSt19__relocate_object_aINSt7__cxx1112basic_stringIcSt11char_traitsIcESaIcEEES5_SaIS5_EEvPT_PT0_RT1_ = comdat any

$_ZNSt16allocator_traitsISaINSt7__cxx1112basic_stringIcSt11char_traitsIcESaIcEEEEE9constructIS5_JS5_EEEvRS6_PT_DpOT0_ = comdat any

$_ZNSt15__new_allocatorINSt7__cxx1112basic_stringIcSt11char_traitsIcESaIcEEEE9constructIS5_JS5_EEEvPT_DpOT0_ = comdat any

$_ZNSt15__new_allocatorINSt7__cxx1112basic_stringIcSt11char_traitsIcESaIcEEEE7destroyIS5_EEvPT_ = comdat any

$_ZSt8_DestroyIPNSt7__cxx1112basic_stringIcSt11char_traitsIcESaIcEEEEvT_S7_ = comdat any

$_ZNSt12_Destroy_auxILb0EE9__destroyIPNSt7__cxx1112basic_stringIcSt11char_traitsIcESaIcEEEEEvT_S9_ = comdat any

$_ZSt8_DestroyINSt7__cxx1112basic_stringIcSt11char_traitsIcESaIcEEEEvPT_ = comdat any

$_ZNSt16allocator_traitsISaINSt7__cxx1112basic_stringIcSt11char_traitsIcESaIcEEEEE10deallocateERS6_PS5_m = comdat any

$_ZNSt15__new_allocatorINSt7__cxx1112basic_stringIcSt11char_traitsIcESaIcEEEE10deallocateEPS5_m = comdat any

$_ZNKSt6vectorINSt7__cxx1112basic_stringIcSt11char_traitsIcESaIcEEESaIS5_EE5emptyEv = comdat any

$_ZNSt6vectorINSt7__cxx1112basic_stringIcSt11char_traitsIcESaIcEEESaIS5_EE8pop_backEv = comdat any

$_ZN9__gnu_cxxeqIPKNSt7__cxx1112basic_stringIcSt11char_traitsIcESaIcEEESt6vectorIS6_SaIS6_EEEEbRKNS_17__normal_iteratorIT_T0_EESH_ = comdat any

$_ZNKSt6vectorINSt7__cxx1112basic_stringIcSt11char_traitsIcESaIcEEESaIS5_EE5beginEv = comdat any

$_ZNKSt6vectorINSt7__cxx1112basic_stringIcSt11char_traitsIcESaIcEEESaIS5_EE3endEv = comdat any

$_ZNK9__gnu_cxx17__normal_iteratorIPKNSt7__cxx1112basic_stringIcSt11char_traitsIcESaIcEEESt6vectorIS6_SaIS6_EEE4baseEv = comdat any

$_ZN9__gnu_cxx17__normal_iteratorIPKNSt7__cxx1112basic_stringIcSt11char_traitsIcESaIcEEESt6vectorIS6_SaIS6_EEEC2ERKS8_ = comdat any

$_ZNSt12_Vector_baseINSt7__cxx1112basic_stringIcSt11char_traitsIcESaIcEEESaIS5_EED2Ev = comdat any

$_ZNSt12_Vector_baseINSt7__cxx1112basic_stringIcSt11char_traitsIcESaIcEEESaIS5_EE12_Vector_implD2Ev = comdat any

$_ZNSaINSt7__cxx1112basic_stringIcSt11char_traitsIcESaIcEEEED2Ev = comdat any

$_ZNSt15__new_allocatorINSt7__cxx1112basic_stringIcSt11char_traitsIcESaIcEEEED2Ev = comdat any

$_ZNSt11char_traitsIcE6lengthEPKc = comdat any

$_ZNSt7__cxx1112basic_stringIcSt11char_traitsIcESaIcEE12_M_constructIPKcEEvT_S8_St20forward_iterator_tag = comdat any

$_ZNSt7__cxx1112basic_stringIcSt11char_traitsIcESaIcEE12_Alloc_hiderD2Ev = comdat any

$_ZSt8distanceIPKcENSt15iterator_traitsIT_E15difference_typeES3_S3_ = comdat any

$_ZZNSt7__cxx1112basic_stringIcSt11char_traitsIcESaIcEE12_M_constructIPKcEEvT_S8_St20forward_iterator_tagEN6_GuardC2EPS4_ = comdat any

$_ZZNSt7__cxx1112basic_stringIcSt11char_traitsIcESaIcEE12_M_constructIPKcEEvT_S8_St20forward_iterator_tagEN6_GuardD2Ev = comdat any

$_ZSt10__distanceIPKcENSt15iterator_traitsIT_E15difference_typeES3_S3_St26random_access_iterator_tag = comdat any

$_ZSt19__iterator_categoryIPKcENSt15iterator_traitsIT_E17iterator_categoryERKS3_ = comdat any

$_ZN6Assimp9Formatter15basic_formatterIcSt11char_traitsIcESaIcEEC2Ev = comdat any

$_ZN15DeadlyErrorBaseC2IJENSt7__cxx1112basic_stringIcSt11char_traitsIcESaIcEEEEEN6Assimp9Formatter15basic_formatterIcS4_S5_EEOT0_DpOT_ = comdat any

$_ZN6Assimp9Formatter15basic_formatterIcSt11char_traitsIcESaIcEED2Ev = comdat any

$_ZN17DeadlyExportErrorD0Ev = comdat any

$_ZN6Assimp9Formatter15basic_formatterIcSt11char_traitsIcESaIcEElsINSt7__cxx1112basic_stringIcS3_S4_EETnPNSt9enable_ifIXntsr3std10is_base_ofISt9exceptionT_EE5valueEvE4typeELPv0EEERS5_RKSC_ = comdat any

$_ZN6Assimp9Formatter15basic_formatterIcSt11char_traitsIcESaIcEEC2EOS5_ = comdat any

$_ZNK6Assimp9Formatter15basic_formatterIcSt11char_traitsIcESaIcEEcvNSt7__cxx1112basic_stringIcS3_S4_EEEv = comdat any

$_ZNSt15__uniq_ptr_dataIN6Assimp8IOStreamESt14default_deleteIS1_ELb1ELb1EECI2St15__uniq_ptr_implIS1_S3_EEPS1_ = comdat any

$_ZNSt15__uniq_ptr_implIN6Assimp8IOStreamESt14default_deleteIS1_EEC2EPS1_ = comdat any

$_ZNSt5tupleIJPN6Assimp8IOStreamESt14default_deleteIS1_EEEC2ILb1ETnNSt9enable_ifIXclsr17_TupleConstraintsIXT_ES2_S4_EE37__is_implicitly_default_constructibleEEbE4typeELb1EEEv = comdat any

$_ZNSt15__uniq_ptr_implIN6Assimp8IOStreamESt14default_deleteIS1_EE6_M_ptrEv = comdat any

$_ZNSt11_Tuple_implILm0EJPN6Assimp8IOStreamESt14default_deleteIS1_EEEC2Ev = comdat any

$_ZNSt11_Tuple_implILm1EJSt14default_deleteIN6Assimp8IOStreamEEEEC2Ev = comdat any

$_ZNSt10_Head_baseILm0EPN6Assimp8IOStreamELb0EEC2Ev = comdat any

$_ZNSt10_Head_baseILm1ESt14default_deleteIN6Assimp8IOStreamEELb1EEC2Ev = comdat any

$_ZSt3getILm0EJPN6Assimp8IOStreamESt14default_deleteIS1_EEERNSt13tuple_elementIXT_ESt5tupleIJDpT0_EEE4typeERS9_ = comdat any

$_ZSt12__get_helperILm0EPN6Assimp8IOStreamEJSt14default_deleteIS1_EEERT0_RSt11_Tuple_implIXT_EJS5_DpT1_EE = comdat any

$_ZNSt11_Tuple_implILm0EJPN6Assimp8IOStreamESt14default_deleteIS1_EEE7_M_headERS5_ = comdat any

$_ZNSt10_Head_baseILm0EPN6Assimp8IOStreamELb0EE7_M_headERS3_ = comdat any

$_ZNSt10unique_ptrIN6Assimp8IOStreamESt14default_deleteIS1_EE11get_deleterEv = comdat any

$_ZNKSt14default_deleteIN6Assimp8IOStreamEEclEPS1_ = comdat any

$_ZNSt15__uniq_ptr_implIN6Assimp8IOStreamESt14default_deleteIS1_EE10_M_deleterEv = comdat any

$_ZSt3getILm1EJPN6Assimp8IOStreamESt14default_deleteIS1_EEERNSt13tuple_elementIXT_ESt5tupleIJDpT0_EEE4typeERS9_ = comdat any

$_ZSt12__get_helperILm1ESt14default_deleteIN6Assimp8IOStreamEEJEERT0_RSt11_Tuple_implIXT_EJS4_DpT1_EE = comdat any

$_ZNSt11_Tuple_implILm1EJSt14default_deleteIN6Assimp8IOStreamEEEE7_M_headERS4_ = comdat any

$_ZNSt10_Head_baseILm1ESt14default_deleteIN6Assimp8IOStreamEELb1EE7_M_headERS4_ = comdat any

$_ZNKSt10unique_ptrIN6Assimp8IOStreamESt14default_deleteIS1_EEcvbEv = comdat any

$_ZNKSt10unique_ptrIN6Assimp8IOStreamESt14default_deleteIS1_EE3getEv = comdat any

$_ZNKSt15__uniq_ptr_implIN6Assimp8IOStreamESt14default_deleteIS1_EE6_M_ptrEv = comdat any

$_ZSt3getILm0EJPN6Assimp8IOStreamESt14default_deleteIS1_EEERKNSt13tuple_elementIXT_ESt5tupleIJDpT0_EEE4typeERKS9_ = comdat any

$_ZSt12__get_helperILm0EPN6Assimp8IOStreamEJSt14default_deleteIS1_EEERKT0_RKSt11_Tuple_implIXT_EJS5_DpT1_EE = comdat any

$_ZNSt11_Tuple_implILm0EJPN6Assimp8IOStreamESt14default_deleteIS1_EEE7_M_headERKS5_ = comdat any

$_ZNSt10_Head_baseILm0EPN6Assimp8IOStreamELb0EE7_M_headERKS3_ = comdat any

$_ZNSt3mapI10aiVector3tIfEiN6Assimp11ObjExporter15aiVectorCompareESaISt4pairIKS1_iEEEC2Ev = comdat any

$_ZNSt8_Rb_treeI10aiVector3tIfESt4pairIKS1_iESt10_Select1stIS4_EN6Assimp11ObjExporter15aiVectorCompareESaIS4_EEC2Ev = comdat any

$_ZNSt8_Rb_treeI10aiVector3tIfESt4pairIKS1_iESt10_Select1stIS4_EN6Assimp11ObjExporter15aiVectorCompareESaIS4_EE13_Rb_tree_implIS9_Lb1EEC2Ev = comdat any

$_ZNSaISt13_Rb_tree_nodeISt4pairIK10aiVector3tIfEiEEEC2Ev = comdat any

$_ZNSt20_Rb_tree_key_compareIN6Assimp11ObjExporter15aiVectorCompareEEC2Ev = comdat any

$_ZNSt15_Rb_tree_headerC2Ev = comdat any

$_ZNSt15__new_allocatorISt13_Rb_tree_nodeISt4pairIK10aiVector3tIfEiEEEC2Ev = comdat any

$_ZNSt15_Rb_tree_header8_M_resetEv = comdat any

$_ZNSt3mapIN6Assimp11ObjExporter10vertexDataEiNS1_17vertexDataCompareESaISt4pairIKS2_iEEEC2Ev = comdat any

$_ZNSt8_Rb_treeIN6Assimp11ObjExporter10vertexDataESt4pairIKS2_iESt10_Select1stIS5_ENS1_17vertexDataCompareESaIS5_EEC2Ev = comdat any

$_ZNSt8_Rb_treeIN6Assimp11ObjExporter10vertexDataESt4pairIKS2_iESt10_Select1stIS5_ENS1_17vertexDataCompareESaIS5_EE13_Rb_tree_implIS8_Lb1EEC2Ev = comdat any

$_ZNSaISt13_Rb_tree_nodeISt4pairIKN6Assimp11ObjExporter10vertexDataEiEEEC2Ev = comdat any

$_ZNSt20_Rb_tree_key_compareIN6Assimp11ObjExporter17vertexDataCompareEEC2Ev = comdat any

$_ZNSt15__new_allocatorISt13_Rb_tree_nodeISt4pairIKN6Assimp11ObjExporter10vertexDataEiEEEC2Ev = comdat any

$_ZSt8_DestroyIP10aiVector3tIfES1_EvT_S3_RSaIT0_E = comdat any

$_ZNSt12_Vector_baseI10aiVector3tIfESaIS1_EE19_M_get_Tp_allocatorEv = comdat any

$_ZNSt12_Vector_baseI10aiVector3tIfESaIS1_EED2Ev = comdat any

$_ZSt8_DestroyIP10aiVector3tIfEEvT_S3_ = comdat any

$_ZNSt12_Destroy_auxILb1EE9__destroyIP10aiVector3tIfEEEvT_S5_ = comdat any

$_ZNSt12_Vector_baseI10aiVector3tIfESaIS1_EE13_M_deallocateEPS1_m = comdat any

$_ZNSt12_Vector_baseI10aiVector3tIfESaIS1_EE12_Vector_implD2Ev = comdat any

$_ZNSt16allocator_traitsISaI10aiVector3tIfEEE10deallocateERS2_PS1_m = comdat any

$_ZNSt15__new_allocatorI10aiVector3tIfEE10deallocateEPS1_m = comdat any

$_ZNSaI10aiVector3tIfEED2Ev = comdat any

$_ZNSt15__new_allocatorI10aiVector3tIfEED2Ev = comdat any

$_ZSt8_DestroyIP9aiColor4tIfES1_EvT_S3_RSaIT0_E = comdat any

$_ZNSt12_Vector_baseI9aiColor4tIfESaIS1_EE19_M_get_Tp_allocatorEv = comdat any

$_ZNSt12_Vector_baseI9aiColor4tIfESaIS1_EED2Ev = comdat any

$_ZSt8_DestroyIP9aiColor4tIfEEvT_S3_ = comdat any

$_ZNSt12_Destroy_auxILb1EE9__destroyIP9aiColor4tIfEEEvT_S5_ = comdat any

$_ZNSt12_Vector_baseI9aiColor4tIfESaIS1_EE13_M_deallocateEPS1_m = comdat any

$_ZNSt12_Vector_baseI9aiColor4tIfESaIS1_EE12_Vector_implD2Ev = comdat any

$_ZNSt16allocator_traitsISaI9aiColor4tIfEEE10deallocateERS2_PS1_m = comdat any

$_ZNSt15__new_allocatorI9aiColor4tIfEE10deallocateEPS1_m = comdat any

$_ZNSaI9aiColor4tIfEED2Ev = comdat any

$_ZNSt15__new_allocatorI9aiColor4tIfEED2Ev = comdat any

$_ZSt8_DestroyIPN6Assimp11ObjExporter10vertexDataES2_EvT_S4_RSaIT0_E = comdat any

$_ZNSt12_Vector_baseIN6Assimp11ObjExporter10vertexDataESaIS2_EE19_M_get_Tp_allocatorEv = comdat any

$_ZNSt12_Vector_baseIN6Assimp11ObjExporter10vertexDataESaIS2_EED2Ev = comdat any

$_ZSt8_DestroyIPN6Assimp11ObjExporter10vertexDataEEvT_S4_ = comdat any

$_ZNSt12_Destroy_auxILb1EE9__destroyIPN6Assimp11ObjExporter10vertexDataEEEvT_S6_ = comdat any

$_ZNSt12_Vector_baseIN6Assimp11ObjExporter10vertexDataESaIS2_EE13_M_deallocateEPS2_m = comdat any

$_ZNSt12_Vector_baseIN6Assimp11ObjExporter10vertexDataESaIS2_EE12_Vector_implD2Ev = comdat any

$_ZNSt16allocator_traitsISaIN6Assimp11ObjExporter10vertexDataEEE10deallocateERS3_PS2_m = comdat any

$_ZNSt15__new_allocatorIN6Assimp11ObjExporter10vertexDataEE10deallocateEPS2_m = comdat any

$_ZNSaIN6Assimp11ObjExporter10vertexDataEED2Ev = comdat any

$_ZNSt15__new_allocatorIN6Assimp11ObjExporter10vertexDataEED2Ev = comdat any

$_ZSt8_DestroyIPN6Assimp11ObjExporter12MeshInstanceES2_EvT_S4_RSaIT0_E = comdat any

$_ZNSt12_Vector_baseIN6Assimp11ObjExporter12MeshInstanceESaIS2_EE19_M_get_Tp_allocatorEv = comdat any

$_ZNSt12_Vector_baseIN6Assimp11ObjExporter12MeshInstanceESaIS2_EED2Ev = comdat any

$_ZSt8_DestroyIPN6Assimp11ObjExporter12MeshInstanceEEvT_S4_ = comdat any

$_ZNSt12_Destroy_auxILb0EE9__destroyIPN6Assimp11ObjExporter12MeshInstanceEEEvT_S6_ = comdat any

$_ZSt8_DestroyIN6Assimp11ObjExporter12MeshInstanceEEvPT_ = comdat any

$_ZN6Assimp11ObjExporter12MeshInstanceD2Ev = comdat any

$_ZNSt6vectorIN6Assimp11ObjExporter4FaceESaIS2_EED2Ev = comdat any

$_ZSt8_DestroyIPN6Assimp11ObjExporter4FaceES2_EvT_S4_RSaIT0_E = comdat any

$_ZNSt12_Vector_baseIN6Assimp11ObjExporter4FaceESaIS2_EE19_M_get_Tp_allocatorEv = comdat any

$_ZNSt12_Vector_baseIN6Assimp11ObjExporter4FaceESaIS2_EED2Ev = comdat any

$_ZSt8_DestroyIPN6Assimp11ObjExporter4FaceEEvT_S4_ = comdat any

$_ZNSt12_Destroy_auxILb0EE9__destroyIPN6Assimp11ObjExporter4FaceEEEvT_S6_ = comdat any

$_ZSt8_DestroyIN6Assimp11ObjExporter4FaceEEvPT_ = comdat any

$_ZN6Assimp11ObjExporter4FaceD2Ev = comdat any

$_ZNSt6vectorIN6Assimp11ObjExporter10FaceVertexESaIS2_EED2Ev = comdat any

$_ZSt8_DestroyIPN6Assimp11ObjExporter10FaceVertexES2_EvT_S4_RSaIT0_E = comdat any

$_ZNSt12_Vector_baseIN6Assimp11ObjExporter10FaceVertexESaIS2_EE19_M_get_Tp_allocatorEv = comdat any

$_ZNSt12_Vector_baseIN6Assimp11ObjExporter10FaceVertexESaIS2_EED2Ev = comdat any

$_ZSt8_DestroyIPN6Assimp11ObjExporter10FaceVertexEEvT_S4_ = comdat any

$_ZNSt12_Destroy_auxILb1EE9__destroyIPN6Assimp11ObjExporter10FaceVertexEEEvT_S6_ = comdat any

$_ZNSt12_Vector_baseIN6Assimp11ObjExporter10FaceVertexESaIS2_EE13_M_deallocateEPS2_m = comdat any

$_ZNSt12_Vector_baseIN6Assimp11ObjExporter10FaceVertexESaIS2_EE12_Vector_implD2Ev = comdat any

$_ZNSt16allocator_traitsISaIN6Assimp11ObjExporter10FaceVertexEEE10deallocateERS3_PS2_m = comdat any

$_ZNSt15__new_allocatorIN6Assimp11ObjExporter10FaceVertexEE10deallocateEPS2_m = comdat any

$_ZNSaIN6Assimp11ObjExporter10FaceVertexEED2Ev = comdat any

$_ZNSt15__new_allocatorIN6Assimp11ObjExporter10FaceVertexEED2Ev = comdat any

$_ZNSt12_Vector_baseIN6Assimp11ObjExporter4FaceESaIS2_EE13_M_deallocateEPS2_m = comdat any

$_ZNSt12_Vector_baseIN6Assimp11ObjExporter4FaceESaIS2_EE12_Vector_implD2Ev = comdat any

$_ZNSt16allocator_traitsISaIN6Assimp11ObjExporter4FaceEEE10deallocateERS3_PS2_m = comdat any

$_ZNSt15__new_allocatorIN6Assimp11ObjExporter4FaceEE10deallocateEPS2_m = comdat any

$_ZNSaIN6Assimp11ObjExporter4FaceEED2Ev = comdat any

$_ZNSt15__new_allocatorIN6Assimp11ObjExporter4FaceEED2Ev = comdat any

$_ZNSt12_Vector_baseIN6Assimp11ObjExporter12MeshInstanceESaIS2_EE13_M_deallocateEPS2_m = comdat any

$_ZNSt12_Vector_baseIN6Assimp11ObjExporter12MeshInstanceESaIS2_EE12_Vector_implD2Ev = comdat any

$_ZNSt16allocator_traitsISaIN6Assimp11ObjExporter12MeshInstanceEEE10deallocateERS3_PS2_m = comdat any

$_ZNSt15__new_allocatorIN6Assimp11ObjExporter12MeshInstanceEE10deallocateEPS2_m = comdat any

$_ZNSaIN6Assimp11ObjExporter12MeshInstanceEED2Ev = comdat any

$_ZNSt15__new_allocatorIN6Assimp11ObjExporter12MeshInstanceEED2Ev = comdat any

$_ZN6Assimp13ASSIMP_itoa10EPcji = comdat any

$_ZNSt6vectorIN6Assimp11ObjExporter10vertexDataESaIS2_EE6resizeEm = comdat any

$_ZNKSt3mapIN6Assimp11ObjExporter10vertexDataEiNS1_17vertexDataCompareESaISt4pairIKS2_iEEE4sizeEv = comdat any

$_ZNSt3mapIN6Assimp11ObjExporter10vertexDataEiNS1_17vertexDataCompareESaISt4pairIKS2_iEEE5beginEv = comdat any

$_ZStneRKSt17_Rb_tree_iteratorISt4pairIKN6Assimp11ObjExporter10vertexDataEiEES8_ = comdat any

$_ZNSt3mapIN6Assimp11ObjExporter10vertexDataEiNS1_17vertexDataCompareESaISt4pairIKS2_iEEE3endEv = comdat any

$_ZNKSt17_Rb_tree_iteratorISt4pairIKN6Assimp11ObjExporter10vertexDataEiEEptEv = comdat any

$_ZNSt6vectorIN6Assimp11ObjExporter10vertexDataESaIS2_EEixEm = comdat any

$_ZN6Assimp11ObjExporter10vertexDataaSERKS1_ = comdat any

$_ZNSt17_Rb_tree_iteratorISt4pairIKN6Assimp11ObjExporter10vertexDataEiEEppEv = comdat any

$_ZNSt6vectorIN6Assimp11ObjExporter10vertexDataESaIS2_EE17_M_default_appendEm = comdat any

$_ZNSt6vectorIN6Assimp11ObjExporter10vertexDataESaIS2_EE15_M_erase_at_endEPS2_ = comdat any

$_ZNKSt6vectorIN6Assimp11ObjExporter10vertexDataESaIS2_EE8max_sizeEv = comdat any

$_ZSt27__uninitialized_default_n_aIPN6Assimp11ObjExporter10vertexDataEmS2_ET_S4_T0_RSaIT1_E = comdat any

$_ZNKSt6vectorIN6Assimp11ObjExporter10vertexDataESaIS2_EE12_M_check_lenEmPKc = comdat any

$_ZNSt12_Vector_baseIN6Assimp11ObjExporter10vertexDataESaIS2_EE11_M_allocateEm = comdat any

$_ZSt34__uninitialized_move_if_noexcept_aIPN6Assimp11ObjExporter10vertexDataES3_SaIS2_EET0_T_S6_S5_RT1_ = comdat any

$_ZNSt6vectorIN6Assimp11ObjExporter10vertexDataESaIS2_EE11_S_max_sizeERKS3_ = comdat any

$_ZNKSt12_Vector_baseIN6Assimp11ObjExporter10vertexDataESaIS2_EE19_M_get_Tp_allocatorEv = comdat any

$_ZNSt16allocator_traitsISaIN6Assimp11ObjExporter10vertexDataEEE8max_sizeERKS3_ = comdat any

$_ZNKSt15__new_allocatorIN6Assimp11ObjExporter10vertexDataEE8max_sizeEv = comdat any

$_ZNKSt15__new_allocatorIN6Assimp11ObjExporter10vertexDataEE11_M_max_sizeEv = comdat any

$_ZSt25__uninitialized_default_nIPN6Assimp11ObjExporter10vertexDataEmET_S4_T0_ = comdat any

$_ZNSt27__uninitialized_default_n_1ILb0EE18__uninit_default_nIPN6Assimp11ObjExporter10vertexDataEmEET_S6_T0_ = comdat any

$_ZSt10_ConstructIN6Assimp11ObjExporter10vertexDataEJEEvPT_DpOT0_ = comdat any

$_ZN6Assimp11ObjExporter10vertexDataC2Ev = comdat any

$_ZN10aiVector3tIfEC2Ev = comdat any

$_ZN9aiColor3DC2Ev = comdat any

$_ZNSt16allocator_traitsISaIN6Assimp11ObjExporter10vertexDataEEE8allocateERS3_m = comdat any

$_ZNSt15__new_allocatorIN6Assimp11ObjExporter10vertexDataEE8allocateEmPKv = comdat any

$_ZSt22__uninitialized_copy_aIPKN6Assimp11ObjExporter10vertexDataEPS2_S2_ET0_T_S7_S6_RSaIT1_E = comdat any

$_ZSt32__make_move_if_noexcept_iteratorIN6Assimp11ObjExporter10vertexDataEPKS2_ET0_PT_ = comdat any

$_ZSt18uninitialized_copyIPKN6Assimp11ObjExporter10vertexDataEPS2_ET0_T_S7_S6_ = comdat any

$_ZNSt20__uninitialized_copyILb0EE13__uninit_copyIPKN6Assimp11ObjExporter10vertexDataEPS4_EET0_T_S9_S8_ = comdat any

$_ZSt16__do_uninit_copyIPKN6Assimp11ObjExporter10vertexDataEPS2_ET0_T_S7_S6_ = comdat any

$_ZSt10_ConstructIN6Assimp11ObjExporter10vertexDataEJRKS2_EEvPT_DpOT0_ = comdat any

$_ZN6Assimp11ObjExporter10vertexDataC2ERKS1_ = comdat any

$_ZN9aiColor3DC2ERKS_ = comdat any

$_ZNKSt8_Rb_treeIN6Assimp11ObjExporter10vertexDataESt4pairIKS2_iESt10_Select1stIS5_ENS1_17vertexDataCompareESaIS5_EE4sizeEv = comdat any

$_ZNSt8_Rb_treeIN6Assimp11ObjExporter10vertexDataESt4pairIKS2_iESt10_Select1stIS5_ENS1_17vertexDataCompareESaIS5_EE5beginEv = comdat any

$_ZNSt17_Rb_tree_iteratorISt4pairIKN6Assimp11ObjExporter10vertexDataEiEEC2EPSt18_Rb_tree_node_base = comdat any

$_ZNSt8_Rb_treeIN6Assimp11ObjExporter10vertexDataESt4pairIKS2_iESt10_Select1stIS5_ENS1_17vertexDataCompareESaIS5_EE3endEv = comdat any

$_ZN9aiColor3DaSERKS_ = comdat any

$_ZN9__gnu_cxx17__normal_iteratorIPN6Assimp11ObjExporter10vertexDataESt6vectorIS3_SaIS3_EEEC2ERKS4_ = comdat any

$_ZNK9__gnu_cxx17__normal_iteratorIPN6Assimp11ObjExporter10vertexDataESt6vectorIS3_SaIS3_EEE4baseEv = comdat any

$_ZNSt6vectorI10aiVector3tIfESaIS1_EE6resizeEm = comdat any

$_ZNKSt3mapI10aiVector3tIfEiN6Assimp11ObjExporter15aiVectorCompareESaISt4pairIKS1_iEEE4sizeEv = comdat any

$_ZNSt3mapI10aiVector3tIfEiN6Assimp11ObjExporter15aiVectorCompareESaISt4pairIKS1_iEEE5beginEv = comdat any

$_ZStneRKSt17_Rb_tree_iteratorISt4pairIK10aiVector3tIfEiEES7_ = comdat any

$_ZNSt3mapI10aiVector3tIfEiN6Assimp11ObjExporter15aiVectorCompareESaISt4pairIKS1_iEEE3endEv = comdat any

$_ZNKSt17_Rb_tree_iteratorISt4pairIK10aiVector3tIfEiEEptEv = comdat any

$_ZNSt6vectorI10aiVector3tIfESaIS1_EEixEm = comdat any

$_ZNSt17_Rb_tree_iteratorISt4pairIK10aiVector3tIfEiEEppEv = comdat any

$_ZNSt6vectorI10aiVector3tIfESaIS1_EE17_M_default_appendEm = comdat any

$_ZNSt6vectorI10aiVector3tIfESaIS1_EE15_M_erase_at_endEPS1_ = comdat any

$_ZNKSt6vectorI10aiVector3tIfESaIS1_EE8max_sizeEv = comdat any

$_ZSt27__uninitialized_default_n_aIP10aiVector3tIfEmS1_ET_S3_T0_RSaIT1_E = comdat any

$_ZNKSt6vectorI10aiVector3tIfESaIS1_EE12_M_check_lenEmPKc = comdat any

$_ZNSt12_Vector_baseI10aiVector3tIfESaIS1_EE11_M_allocateEm = comdat any

$_ZNSt6vectorI10aiVector3tIfESaIS1_EE11_S_relocateEPS1_S4_S4_RS2_ = comdat any

$_ZNSt6vectorI10aiVector3tIfESaIS1_EE11_S_max_sizeERKS2_ = comdat any

$_ZNKSt12_Vector_baseI10aiVector3tIfESaIS1_EE19_M_get_Tp_allocatorEv = comdat any

$_ZNSt16allocator_traitsISaI10aiVector3tIfEEE8max_sizeERKS2_ = comdat any

$_ZNKSt15__new_allocatorI10aiVector3tIfEE8max_sizeEv = comdat any

$_ZNKSt15__new_allocatorI10aiVector3tIfEE11_M_max_sizeEv = comdat any

$_ZSt25__uninitialized_default_nIP10aiVector3tIfEmET_S3_T0_ = comdat any

$_ZNSt27__uninitialized_default_n_1ILb0EE18__uninit_default_nIP10aiVector3tIfEmEET_S5_T0_ = comdat any

$_ZSt10_ConstructI10aiVector3tIfEJEEvPT_DpOT0_ = comdat any

$_ZNSt16allocator_traitsISaI10aiVector3tIfEEE8allocateERS2_m = comdat any

$_ZNSt15__new_allocatorI10aiVector3tIfEE8allocateEmPKv = comdat any

$_ZSt12__relocate_aIP10aiVector3tIfES2_SaIS1_EET0_T_S5_S4_RT1_ = comdat any

$_ZSt14__relocate_a_1IP10aiVector3tIfES2_SaIS1_EET0_T_S5_S4_RT1_ = comdat any

$_ZSt12__niter_baseIP10aiVector3tIfEET_S3_ = comdat any

$_ZSt19__relocate_object_aI10aiVector3tIfES1_SaIS1_EEvPT_PT0_RT1_ = comdat any

$_ZNSt16allocator_traitsISaI10aiVector3tIfEEE9constructIS1_JS1_EEEvRS2_PT_DpOT0_ = comdat any

$_ZNSt16allocator_traitsISaI10aiVector3tIfEEE7destroyIS1_EEvRS2_PT_ = comdat any

$_ZNSt15__new_allocatorI10aiVector3tIfEE9constructIS1_JS1_EEEvPT_DpOT0_ = comdat any

$_ZNSt15__new_allocatorI10aiVector3tIfEE7destroyIS1_EEvPT_ = comdat any

$_ZNKSt8_Rb_treeI10aiVector3tIfESt4pairIKS1_iESt10_Select1stIS4_EN6Assimp11ObjExporter15aiVectorCompareESaIS4_EE4sizeEv = comdat any

$_ZNSt8_Rb_treeI10aiVector3tIfESt4pairIKS1_iESt10_Select1stIS4_EN6Assimp11ObjExporter15aiVectorCompareESaIS4_EE5beginEv = comdat any

$_ZNSt17_Rb_tree_iteratorISt4pairIK10aiVector3tIfEiEEC2EPSt18_Rb_tree_node_base = comdat any

$_ZNSt8_Rb_treeI10aiVector3tIfESt4pairIKS1_iESt10_Select1stIS4_EN6Assimp11ObjExporter15aiVectorCompareESaIS4_EE3endEv = comdat any

$_ZN9__gnu_cxx17__normal_iteratorIP10aiVector3tIfESt6vectorIS2_SaIS2_EEEC2ERKS3_ = comdat any

$_ZNK9__gnu_cxx17__normal_iteratorIP10aiVector3tIfESt6vectorIS2_SaIS2_EEE4baseEv = comdat any

$_ZN9__gnu_cxx17__normal_iteratorIPN6Assimp11ObjExporter12MeshInstanceESt6vectorIS3_SaIS3_EEEC2ERKS4_ = comdat any

$_ZNK9__gnu_cxx17__normal_iteratorIPN6Assimp11ObjExporter12MeshInstanceESt6vectorIS3_SaIS3_EEE4baseEv = comdat any

$_ZN9__gnu_cxx17__normal_iteratorIPKN6Assimp11ObjExporter4FaceESt6vectorIS3_SaIS3_EEEC2ERKS5_ = comdat any

$_ZNK9__gnu_cxx17__normal_iteratorIPKN6Assimp11ObjExporter4FaceESt6vectorIS3_SaIS3_EEE4baseEv = comdat any

$_ZN9__gnu_cxx17__normal_iteratorIPKN6Assimp11ObjExporter10FaceVertexESt6vectorIS3_SaIS3_EEEC2ERKS5_ = comdat any

$_ZNK9__gnu_cxx17__normal_iteratorIPKN6Assimp11ObjExporter10FaceVertexESt6vectorIS3_SaIS3_EEE4baseEv = comdat any

$_ZNSt16allocator_traitsISaIN6Assimp11ObjExporter12MeshInstanceEEE9constructIS2_JEEEvRS3_PT_DpOT0_ = comdat any

$_ZNSt6vectorIN6Assimp11ObjExporter12MeshInstanceESaIS2_EE17_M_realloc_insertIJEEEvN9__gnu_cxx17__normal_iteratorIPS2_S4_EEDpOT_ = comdat any

$_ZNSt15__new_allocatorIN6Assimp11ObjExporter12MeshInstanceEE9constructIS2_JEEEvPT_DpOT0_ = comdat any

$_ZN6Assimp11ObjExporter12MeshInstanceC2Ev = comdat any

$_ZNSt6vectorIN6Assimp11ObjExporter4FaceESaIS2_EEC2Ev = comdat any

$_ZNSt12_Vector_baseIN6Assimp11ObjExporter4FaceESaIS2_EEC2Ev = comdat any

$_ZNSt12_Vector_baseIN6Assimp11ObjExporter4FaceESaIS2_EE12_Vector_implC2Ev = comdat any

$_ZNSaIN6Assimp11ObjExporter4FaceEEC2Ev = comdat any

$_ZNSt12_Vector_baseIN6Assimp11ObjExporter4FaceESaIS2_EE17_Vector_impl_dataC2Ev = comdat any

$_ZNSt15__new_allocatorIN6Assimp11ObjExporter4FaceEEC2Ev = comdat any

$_ZNKSt6vectorIN6Assimp11ObjExporter12MeshInstanceESaIS2_EE12_M_check_lenEmPKc = comdat any

$_ZN9__gnu_cxxmiIPN6Assimp11ObjExporter12MeshInstanceESt6vectorIS3_SaIS3_EEEENS_17__normal_iteratorIT_T0_E15difference_typeERKSB_SE_ = comdat any

$_ZNSt12_Vector_baseIN6Assimp11ObjExporter12MeshInstanceESaIS2_EE11_M_allocateEm = comdat any

$_ZNSt6vectorIN6Assimp11ObjExporter12MeshInstanceESaIS2_EE11_S_relocateEPS2_S5_S5_RS3_ = comdat any

$_ZNKSt6vectorIN6Assimp11ObjExporter12MeshInstanceESaIS2_EE8max_sizeEv = comdat any

$_ZNKSt6vectorIN6Assimp11ObjExporter12MeshInstanceESaIS2_EE4sizeEv = comdat any

$_ZNSt6vectorIN6Assimp11ObjExporter12MeshInstanceESaIS2_EE11_S_max_sizeERKS3_ = comdat any

$_ZNKSt12_Vector_baseIN6Assimp11ObjExporter12MeshInstanceESaIS2_EE19_M_get_Tp_allocatorEv = comdat any

$_ZNSt16allocator_traitsISaIN6Assimp11ObjExporter12MeshInstanceEEE8max_sizeERKS3_ = comdat any

$_ZNKSt15__new_allocatorIN6Assimp11ObjExporter12MeshInstanceEE8max_sizeEv = comdat any

$_ZNKSt15__new_allocatorIN6Assimp11ObjExporter12MeshInstanceEE11_M_max_sizeEv = comdat any

$_ZNSt16allocator_traitsISaIN6Assimp11ObjExporter12MeshInstanceEEE8allocateERS3_m = comdat any

$_ZNSt15__new_allocatorIN6Assimp11ObjExporter12MeshInstanceEE8allocateEmPKv = comdat any

$_ZSt12__relocate_aIPN6Assimp11ObjExporter12MeshInstanceES3_SaIS2_EET0_T_S6_S5_RT1_ = comdat any

$_ZSt14__relocate_a_1IPN6Assimp11ObjExporter12MeshInstanceES3_SaIS2_EET0_T_S6_S5_RT1_ = comdat any

$_ZSt12__niter_baseIPN6Assimp11ObjExporter12MeshInstanceEET_S4_ = comdat any

$_ZSt19__relocate_object_aIN6Assimp11ObjExporter12MeshInstanceES2_SaIS2_EEvPT_PT0_RT1_ = comdat any

$_ZNSt16allocator_traitsISaIN6Assimp11ObjExporter12MeshInstanceEEE9constructIS2_JS2_EEEvRS3_PT_DpOT0_ = comdat any

$_ZNSt16allocator_traitsISaIN6Assimp11ObjExporter12MeshInstanceEEE7destroyIS2_EEvRS3_PT_ = comdat any

$_ZNSt15__new_allocatorIN6Assimp11ObjExporter12MeshInstanceEE9constructIS2_JS2_EEEvPT_DpOT0_ = comdat any

$_ZN6Assimp11ObjExporter12MeshInstanceC2EOS1_ = comdat any

$_ZNSt6vectorIN6Assimp11ObjExporter4FaceESaIS2_EEC2EOS4_ = comdat any

$_ZNSt12_Vector_baseIN6Assimp11ObjExporter4FaceESaIS2_EEC2EOS4_ = comdat any

$_ZNSt12_Vector_baseIN6Assimp11ObjExporter4FaceESaIS2_EE12_Vector_implC2EOS5_ = comdat any

$_ZNSaIN6Assimp11ObjExporter4FaceEEC2ERKS2_ = comdat any

$_ZNSt12_Vector_baseIN6Assimp11ObjExporter4FaceESaIS2_EE17_Vector_impl_dataC2EOS5_ = comdat any

$_ZNSt15__new_allocatorIN6Assimp11ObjExporter4FaceEEC2ERKS3_ = comdat any

$_ZNSt15__new_allocatorIN6Assimp11ObjExporter12MeshInstanceEE7destroyIS2_EEvPT_ = comdat any

$_ZNK9__gnu_cxx17__normal_iteratorIPN6Assimp11ObjExporter12MeshInstanceESt6vectorIS3_SaIS3_EEEmiEl = comdat any

$_ZNSt6vectorIN6Assimp11ObjExporter4FaceESaIS2_EE17_M_default_appendEm = comdat any

$_ZNSt6vectorIN6Assimp11ObjExporter4FaceESaIS2_EE15_M_erase_at_endEPS2_ = comdat any

$_ZNKSt6vectorIN6Assimp11ObjExporter4FaceESaIS2_EE8max_sizeEv = comdat any

$_ZSt27__uninitialized_default_n_aIPN6Assimp11ObjExporter4FaceEmS2_ET_S4_T0_RSaIT1_E = comdat any

$_ZNKSt6vectorIN6Assimp11ObjExporter4FaceESaIS2_EE12_M_check_lenEmPKc = comdat any

$_ZNSt12_Vector_baseIN6Assimp11ObjExporter4FaceESaIS2_EE11_M_allocateEm = comdat any

$_ZNSt6vectorIN6Assimp11ObjExporter4FaceESaIS2_EE11_S_relocateEPS2_S5_S5_RS3_ = comdat any

$_ZNSt6vectorIN6Assimp11ObjExporter4FaceESaIS2_EE11_S_max_sizeERKS3_ = comdat any

$_ZNKSt12_Vector_baseIN6Assimp11ObjExporter4FaceESaIS2_EE19_M_get_Tp_allocatorEv = comdat any

$_ZNSt16allocator_traitsISaIN6Assimp11ObjExporter4FaceEEE8max_sizeERKS3_ = comdat any

$_ZNKSt15__new_allocatorIN6Assimp11ObjExporter4FaceEE8max_sizeEv = comdat any

$_ZNKSt15__new_allocatorIN6Assimp11ObjExporter4FaceEE11_M_max_sizeEv = comdat any

$_ZSt25__uninitialized_default_nIPN6Assimp11ObjExporter4FaceEmET_S4_T0_ = comdat any

$_ZNSt27__uninitialized_default_n_1ILb0EE18__uninit_default_nIPN6Assimp11ObjExporter4FaceEmEET_S6_T0_ = comdat any

$_ZSt10_ConstructIN6Assimp11ObjExporter4FaceEJEEvPT_DpOT0_ = comdat any

$_ZN6Assimp11ObjExporter4FaceC2Ev = comdat any

$_ZNSt6vectorIN6Assimp11ObjExporter10FaceVertexESaIS2_EEC2Ev = comdat any

$_ZNSt12_Vector_baseIN6Assimp11ObjExporter10FaceVertexESaIS2_EEC2Ev = comdat any

$_ZNSt12_Vector_baseIN6Assimp11ObjExporter10FaceVertexESaIS2_EE12_Vector_implC2Ev = comdat any

$_ZNSaIN6Assimp11ObjExporter10FaceVertexEEC2Ev = comdat any

$_ZNSt12_Vector_baseIN6Assimp11ObjExporter10FaceVertexESaIS2_EE17_Vector_impl_dataC2Ev = comdat any

$_ZNSt15__new_allocatorIN6Assimp11ObjExporter10FaceVertexEEC2Ev = comdat any

$_ZNSt16allocator_traitsISaIN6Assimp11ObjExporter4FaceEEE8allocateERS3_m = comdat any

$_ZNSt15__new_allocatorIN6Assimp11ObjExporter4FaceEE8allocateEmPKv = comdat any

$_ZSt12__relocate_aIPN6Assimp11ObjExporter4FaceES3_SaIS2_EET0_T_S6_S5_RT1_ = comdat any

$_ZSt14__relocate_a_1IPN6Assimp11ObjExporter4FaceES3_SaIS2_EET0_T_S6_S5_RT1_ = comdat any

$_ZSt12__niter_baseIPN6Assimp11ObjExporter4FaceEET_S4_ = comdat any

$_ZSt19__relocate_object_aIN6Assimp11ObjExporter4FaceES2_SaIS2_EEvPT_PT0_RT1_ = comdat any

$_ZNSt16allocator_traitsISaIN6Assimp11ObjExporter4FaceEEE9constructIS2_JS2_EEEvRS3_PT_DpOT0_ = comdat any

$_ZNSt16allocator_traitsISaIN6Assimp11ObjExporter4FaceEEE7destroyIS2_EEvRS3_PT_ = comdat any

$_ZNSt15__new_allocatorIN6Assimp11ObjExporter4FaceEE9constructIS2_JS2_EEEvPT_DpOT0_ = comdat any

$_ZN6Assimp11ObjExporter4FaceC2EOS1_ = comdat any

$_ZNSt6vectorIN6Assimp11ObjExporter10FaceVertexESaIS2_EEC2EOS4_ = comdat any

$_ZNSt12_Vector_baseIN6Assimp11ObjExporter10FaceVertexESaIS2_EEC2EOS4_ = comdat any

$_ZNSt12_Vector_baseIN6Assimp11ObjExporter10FaceVertexESaIS2_EE12_Vector_implC2EOS5_ = comdat any

$_ZNSaIN6Assimp11ObjExporter10FaceVertexEEC2ERKS2_ = comdat any

$_ZNSt12_Vector_baseIN6Assimp11ObjExporter10FaceVertexESaIS2_EE17_Vector_impl_dataC2EOS5_ = comdat any

$_ZNSt15__new_allocatorIN6Assimp11ObjExporter10FaceVertexEEC2ERKS3_ = comdat any

$_ZNSt15__new_allocatorIN6Assimp11ObjExporter4FaceEE7destroyIS2_EEvPT_ = comdat any

$_ZNKSt6vectorIN6Assimp11ObjExporter10FaceVertexESaIS2_EE4sizeEv = comdat any

$_ZNSt6vectorIN6Assimp11ObjExporter10FaceVertexESaIS2_EE17_M_default_appendEm = comdat any

$_ZNSt6vectorIN6Assimp11ObjExporter10FaceVertexESaIS2_EE15_M_erase_at_endEPS2_ = comdat any

$_ZNKSt6vectorIN6Assimp11ObjExporter10FaceVertexESaIS2_EE8max_sizeEv = comdat any

$_ZSt27__uninitialized_default_n_aIPN6Assimp11ObjExporter10FaceVertexEmS2_ET_S4_T0_RSaIT1_E = comdat any

$_ZNKSt6vectorIN6Assimp11ObjExporter10FaceVertexESaIS2_EE12_M_check_lenEmPKc = comdat any

$_ZNSt12_Vector_baseIN6Assimp11ObjExporter10FaceVertexESaIS2_EE11_M_allocateEm = comdat any

$_ZNSt6vectorIN6Assimp11ObjExporter10FaceVertexESaIS2_EE11_S_relocateEPS2_S5_S5_RS3_ = comdat any

$_ZNSt6vectorIN6Assimp11ObjExporter10FaceVertexESaIS2_EE11_S_max_sizeERKS3_ = comdat any

$_ZNKSt12_Vector_baseIN6Assimp11ObjExporter10FaceVertexESaIS2_EE19_M_get_Tp_allocatorEv = comdat any

$_ZNSt16allocator_traitsISaIN6Assimp11ObjExporter10FaceVertexEEE8max_sizeERKS3_ = comdat any

$_ZNKSt15__new_allocatorIN6Assimp11ObjExporter10FaceVertexEE8max_sizeEv = comdat any

$_ZNKSt15__new_allocatorIN6Assimp11ObjExporter10FaceVertexEE11_M_max_sizeEv = comdat any

$_ZSt25__uninitialized_default_nIPN6Assimp11ObjExporter10FaceVertexEmET_S4_T0_ = comdat any

$_ZNSt27__uninitialized_default_n_1ILb0EE18__uninit_default_nIPN6Assimp11ObjExporter10FaceVertexEmEET_S6_T0_ = comdat any

$_ZSt10_ConstructIN6Assimp11ObjExporter10FaceVertexEJEEvPT_DpOT0_ = comdat any

$_ZN6Assimp11ObjExporter10FaceVertexC2Ev = comdat any

$_ZNSt16allocator_traitsISaIN6Assimp11ObjExporter10FaceVertexEEE8allocateERS3_m = comdat any

$_ZNSt15__new_allocatorIN6Assimp11ObjExporter10FaceVertexEE8allocateEmPKv = comdat any

$_ZSt12__relocate_aIPN6Assimp11ObjExporter10FaceVertexES3_SaIS2_EET0_T_S6_S5_RT1_ = comdat any

$_ZSt14__relocate_a_1IPN6Assimp11ObjExporter10FaceVertexES3_SaIS2_EET0_T_S6_S5_RT1_ = comdat any

$_ZSt12__niter_baseIPN6Assimp11ObjExporter10FaceVertexEET_S4_ = comdat any

$_ZSt19__relocate_object_aIN6Assimp11ObjExporter10FaceVertexES2_SaIS2_EEvPT_PT0_RT1_ = comdat any

$_ZNSt16allocator_traitsISaIN6Assimp11ObjExporter10FaceVertexEEE9constructIS2_JS2_EEEvRS3_PT_DpOT0_ = comdat any

$_ZNSt16allocator_traitsISaIN6Assimp11ObjExporter10FaceVertexEEE7destroyIS2_EEvRS3_PT_ = comdat any

$_ZNSt15__new_allocatorIN6Assimp11ObjExporter10FaceVertexEE9constructIS2_JS2_EEEvPT_DpOT0_ = comdat any

$_ZNSt15__new_allocatorIN6Assimp11ObjExporter10FaceVertexEE7destroyIS2_EEvPT_ = comdat any

$_ZNSt3mapIN6Assimp11ObjExporter10vertexDataEiNS1_17vertexDataCompareESaISt4pairIKS2_iEEE4findERS5_ = comdat any

$_ZNSt3mapIN6Assimp11ObjExporter10vertexDataEiNS1_17vertexDataCompareESaISt4pairIKS2_iEEEixERS5_ = comdat any

$_ZNSt8_Rb_treeIN6Assimp11ObjExporter10vertexDataESt4pairIKS2_iESt10_Select1stIS5_ENS1_17vertexDataCompareESaIS5_EE4findERS4_ = comdat any

$_ZNSt8_Rb_treeIN6Assimp11ObjExporter10vertexDataESt4pairIKS2_iESt10_Select1stIS5_ENS1_17vertexDataCompareESaIS5_EE14_M_lower_boundEPSt13_Rb_tree_nodeIS5_EPSt18_Rb_tree_node_baseRS4_ = comdat any

$_ZNSt8_Rb_treeIN6Assimp11ObjExporter10vertexDataESt4pairIKS2_iESt10_Select1stIS5_ENS1_17vertexDataCompareESaIS5_EE6_M_endEv = comdat any

$_ZSteqRKSt17_Rb_tree_iteratorISt4pairIKN6Assimp11ObjExporter10vertexDataEiEES8_ = comdat any

$_ZNK6Assimp11ObjExporter17vertexDataCompareclERKNS0_10vertexDataES4_ = comdat any

$_ZNSt8_Rb_treeIN6Assimp11ObjExporter10vertexDataESt4pairIKS2_iESt10_Select1stIS5_ENS1_17vertexDataCompareESaIS5_EE6_S_keyEPKSt18_Rb_tree_node_base = comdat any

$_ZNSt8_Rb_treeIN6Assimp11ObjExporter10vertexDataESt4pairIKS2_iESt10_Select1stIS5_ENS1_17vertexDataCompareESaIS5_EE6_S_keyEPKSt13_Rb_tree_nodeIS5_E = comdat any

$_ZNKSt10_Select1stISt4pairIKN6Assimp11ObjExporter10vertexDataEiEEclERKS5_ = comdat any

$_ZNKSt13_Rb_tree_nodeISt4pairIKN6Assimp11ObjExporter10vertexDataEiEE9_M_valptrEv = comdat any

$_ZNK9__gnu_cxx16__aligned_membufISt4pairIKN6Assimp11ObjExporter10vertexDataEiEE6_M_ptrEv = comdat any

$_ZNK9__gnu_cxx16__aligned_membufISt4pairIKN6Assimp11ObjExporter10vertexDataEiEE7_M_addrEv = comdat any

$_ZNSt3mapIN6Assimp11ObjExporter10vertexDataEiNS1_17vertexDataCompareESaISt4pairIKS2_iEEE11lower_boundERS5_ = comdat any

$_ZNKSt3mapIN6Assimp11ObjExporter10vertexDataEiNS1_17vertexDataCompareESaISt4pairIKS2_iEEE8key_compEv = comdat any

$_ZNKSt17_Rb_tree_iteratorISt4pairIKN6Assimp11ObjExporter10vertexDataEiEEdeEv = comdat any

$_ZNSt8_Rb_treeIN6Assimp11ObjExporter10vertexDataESt4pairIKS2_iESt10_Select1stIS5_ENS1_17vertexDataCompareESaIS5_EE22_M_emplace_hint_uniqueIJRKSt21piecewise_construct_tSt5tupleIJRS4_EESF_IJEEEEESt17_Rb_tree_iteratorIS5_ESt23_Rb_tree_const_iteratorIS5_EDpOT_ = comdat any

$_ZNSt23_Rb_tree_const_iteratorISt4pairIKN6Assimp11ObjExporter10vertexDataEiEEC2ERKSt17_Rb_tree_iteratorIS5_E = comdat any

$_ZNSt5tupleIJRKN6Assimp11ObjExporter10vertexDataEEEC2ILb1ETnNSt9enable_ifIXclsr4_TCCIXT_EEE29__is_implicitly_constructibleIS4_EEEbE4typeELb1EEES4_ = comdat any

$_ZNSt8_Rb_treeIN6Assimp11ObjExporter10vertexDataESt4pairIKS2_iESt10_Select1stIS5_ENS1_17vertexDataCompareESaIS5_EE11lower_boundERS4_ = comdat any

$_ZNKSt8_Rb_treeIN6Assimp11ObjExporter10vertexDataESt4pairIKS2_iESt10_Select1stIS5_ENS1_17vertexDataCompareESaIS5_EE8key_compEv = comdat any

$_ZNSt8_Rb_treeIN6Assimp11ObjExporter10vertexDataESt4pairIKS2_iESt10_Select1stIS5_ENS1_17vertexDataCompareESaIS5_EE10_Auto_nodeC2IJRKSt21piecewise_construct_tSt5tupleIJRS4_EESG_IJEEEEERSA_DpOT_ = comdat any

$_ZNSt8_Rb_treeIN6Assimp11ObjExporter10vertexDataESt4pairIKS2_iESt10_Select1stIS5_ENS1_17vertexDataCompareESaIS5_EE29_M_get_insert_hint_unique_posESt23_Rb_tree_const_iteratorIS5_ERS4_ = comdat any

$_ZNKSt8_Rb_treeIN6Assimp11ObjExporter10vertexDataESt4pairIKS2_iESt10_Select1stIS5_ENS1_17vertexDataCompareESaIS5_EE10_Auto_node6_M_keyEv = comdat any

$_ZNSt8_Rb_treeIN6Assimp11ObjExporter10vertexDataESt4pairIKS2_iESt10_Select1stIS5_ENS1_17vertexDataCompareESaIS5_EE10_Auto_node9_M_insertES3_IPSt18_Rb_tree_node_baseSD_E = comdat any

$_ZNSt8_Rb_treeIN6Assimp11ObjExporter10vertexDataESt4pairIKS2_iESt10_Select1stIS5_ENS1_17vertexDataCompareESaIS5_EE10_Auto_nodeD2Ev = comdat any

$_ZNSt8_Rb_treeIN6Assimp11ObjExporter10vertexDataESt4pairIKS2_iESt10_Select1stIS5_ENS1_17vertexDataCompareESaIS5_EE14_M_create_nodeIJRKSt21piecewise_construct_tSt5tupleIJRS4_EESF_IJEEEEEPSt13_Rb_tree_nodeIS5_EDpOT_ = comdat any

$_ZNSt8_Rb_treeIN6Assimp11ObjExporter10vertexDataESt4pairIKS2_iESt10_Select1stIS5_ENS1_17vertexDataCompareESaIS5_EE11_M_get_nodeEv = comdat any

$_ZNSt8_Rb_treeIN6Assimp11ObjExporter10vertexDataESt4pairIKS2_iESt10_Select1stIS5_ENS1_17vertexDataCompareESaIS5_EE17_M_construct_nodeIJRKSt21piecewise_construct_tSt5tupleIJRS4_EESF_IJEEEEEvPSt13_Rb_tree_nodeIS5_EDpOT_ = comdat any

$_ZNSt16allocator_traitsISaISt13_Rb_tree_nodeISt4pairIKN6Assimp11ObjExporter10vertexDataEiEEEE8allocateERS8_m = comdat any

$_ZNSt15__new_allocatorISt13_Rb_tree_nodeISt4pairIKN6Assimp11ObjExporter10vertexDataEiEEE8allocateEmPKv = comdat any

$_ZNKSt15__new_allocatorISt13_Rb_tree_nodeISt4pairIKN6Assimp11ObjExporter10vertexDataEiEEE11_M_max_sizeEv = comdat any

$_ZNSt16allocator_traitsISaISt13_Rb_tree_nodeISt4pairIKN6Assimp11ObjExporter10vertexDataEiEEEE9constructIS6_JRKSt21piecewise_construct_tSt5tupleIJRS5_EESE_IJEEEEEvRS8_PT_DpOT0_ = comdat any

$_ZNSt15__new_allocatorISt13_Rb_tree_nodeISt4pairIKN6Assimp11ObjExporter10vertexDataEiEEE9constructIS6_JRKSt21piecewise_construct_tSt5tupleIJRS5_EESD_IJEEEEEvPT_DpOT0_ = comdat any

$_ZNSt5tupleIJRKN6Assimp11ObjExporter10vertexDataEEEC2EOS5_ = comdat any

$_ZNSt4pairIKN6Assimp11ObjExporter10vertexDataEiEC2IJRS3_EJEEESt21piecewise_construct_tSt5tupleIJDpT_EES8_IJDpT0_EE = comdat any

$_ZNSt11_Tuple_implILm0EJRKN6Assimp11ObjExporter10vertexDataEEEC2EOS5_ = comdat any

$_ZNSt4pairIKN6Assimp11ObjExporter10vertexDataEiEC2IJRS3_EJLm0EEJETpTnmJEEERSt5tupleIJDpT_EERS7_IJDpT1_EESt12_Index_tupleIJXspT0_EEESG_IJXspT2_EEE = comdat any

$_ZSt3getILm0EJRKN6Assimp11ObjExporter10vertexDataEEERNSt13tuple_elementIXT_ESt5tupleIJDpT0_EEE4typeERS9_ = comdat any

$_ZSt12__get_helperILm0ERKN6Assimp11ObjExporter10vertexDataEJEERT0_RSt11_Tuple_implIXT_EJS5_DpT1_EE = comdat any

$_ZNSt11_Tuple_implILm0EJRKN6Assimp11ObjExporter10vertexDataEEE7_M_headERS5_ = comdat any

$_ZNSt10_Head_baseILm0ERKN6Assimp11ObjExporter10vertexDataELb0EE7_M_headERS5_ = comdat any

$_ZNKSt23_Rb_tree_const_iteratorISt4pairIKN6Assimp11ObjExporter10vertexDataEiEE13_M_const_castEv = comdat any

$_ZNSt8_Rb_treeIN6Assimp11ObjExporter10vertexDataESt4pairIKS2_iESt10_Select1stIS5_ENS1_17vertexDataCompareESaIS5_EE12_M_rightmostEv = comdat any

$_ZNSt4pairIPSt18_Rb_tree_node_baseS1_EC2IS1_S1_TnNSt9enable_ifIXaaclsr5_PCCPE18_ConstructiblePairIT_T0_EEclsr5_PCCPE26_ImplicitlyConvertiblePairIS5_S6_EEEbE4typeELb1EEERKS1_SA_ = comdat any

$_ZNSt8_Rb_treeIN6Assimp11ObjExporter10vertexDataESt4pairIKS2_iESt10_Select1stIS5_ENS1_17vertexDataCompareESaIS5_EE24_M_get_insert_unique_posERS4_ = comdat any

$_ZNSt8_Rb_treeIN6Assimp11ObjExporter10vertexDataESt4pairIKS2_iESt10_Select1stIS5_ENS1_17vertexDataCompareESaIS5_EE11_M_leftmostEv = comdat any

$_ZNSt4pairIPSt18_Rb_tree_node_baseS1_EC2IRS1_S4_TnNSt9enable_ifIXaaclsr5_PCCPE22_MoveConstructiblePairIT_T0_EEclsr5_PCCPE30_ImplicitlyMoveConvertiblePairIS6_S7_EEEbE4typeELb1EEEOS6_OS7_ = comdat any

$_ZNSt17_Rb_tree_iteratorISt4pairIKN6Assimp11ObjExporter10vertexDataEiEEmmEv = comdat any

$_ZNSt4pairIPSt18_Rb_tree_node_baseS1_EC2IRPSt13_Rb_tree_nodeIS_IKN6Assimp11ObjExporter10vertexDataEiEERS1_TnNSt9enable_ifIXaaclsr5_PCCPE22_MoveConstructiblePairIT_T0_EEclsr5_PCCPE30_ImplicitlyMoveConvertiblePairISF_SG_EEEbE4typeELb1EEEOSF_OSG_ = comdat any

$_ZNSt8_Rb_treeIN6Assimp11ObjExporter10vertexDataESt4pairIKS2_iESt10_Select1stIS5_ENS1_17vertexDataCompareESaIS5_EE14_M_insert_nodeEPSt18_Rb_tree_node_baseSC_PSt13_Rb_tree_nodeIS5_E = comdat any

$_ZNSt11_Tuple_implILm0EJRKN6Assimp11ObjExporter10vertexDataEEEC2ES4_ = comdat any

$_ZNSt10_Head_baseILm0ERKN6Assimp11ObjExporter10vertexDataELb0EEC2ES4_ = comdat any

$_ZNSt3mapI10aiVector3tIfEiN6Assimp11ObjExporter15aiVectorCompareESaISt4pairIKS1_iEEE4findERS6_ = comdat any

$_ZNSt3mapI10aiVector3tIfEiN6Assimp11ObjExporter15aiVectorCompareESaISt4pairIKS1_iEEEixERS6_ = comdat any

$_ZNSt8_Rb_treeI10aiVector3tIfESt4pairIKS1_iESt10_Select1stIS4_EN6Assimp11ObjExporter15aiVectorCompareESaIS4_EE4findERS3_ = comdat any

$_ZNSt8_Rb_treeI10aiVector3tIfESt4pairIKS1_iESt10_Select1stIS4_EN6Assimp11ObjExporter15aiVectorCompareESaIS4_EE14_M_lower_boundEPSt13_Rb_tree_nodeIS4_EPSt18_Rb_tree_node_baseRS3_ = comdat any

$_ZNSt8_Rb_treeI10aiVector3tIfESt4pairIKS1_iESt10_Select1stIS4_EN6Assimp11ObjExporter15aiVectorCompareESaIS4_EE6_M_endEv = comdat any

$_ZSteqRKSt17_Rb_tree_iteratorISt4pairIK10aiVector3tIfEiEES7_ = comdat any

$_ZNK6Assimp11ObjExporter15aiVectorCompareclERK10aiVector3tIfES5_ = comdat any

$_ZNSt8_Rb_treeI10aiVector3tIfESt4pairIKS1_iESt10_Select1stIS4_EN6Assimp11ObjExporter15aiVectorCompareESaIS4_EE6_S_keyEPKSt18_Rb_tree_node_base = comdat any

$_ZNSt8_Rb_treeI10aiVector3tIfESt4pairIKS1_iESt10_Select1stIS4_EN6Assimp11ObjExporter15aiVectorCompareESaIS4_EE6_S_keyEPKSt13_Rb_tree_nodeIS4_E = comdat any

$_ZNKSt10_Select1stISt4pairIK10aiVector3tIfEiEEclERKS4_ = comdat any

$_ZNKSt13_Rb_tree_nodeISt4pairIK10aiVector3tIfEiEE9_M_valptrEv = comdat any

$_ZNK9__gnu_cxx16__aligned_membufISt4pairIK10aiVector3tIfEiEE6_M_ptrEv = comdat any

$_ZNK9__gnu_cxx16__aligned_membufISt4pairIK10aiVector3tIfEiEE7_M_addrEv = comdat any

$_ZNSt3mapI10aiVector3tIfEiN6Assimp11ObjExporter15aiVectorCompareESaISt4pairIKS1_iEEE11lower_boundERS6_ = comdat any

$_ZNKSt3mapI10aiVector3tIfEiN6Assimp11ObjExporter15aiVectorCompareESaISt4pairIKS1_iEEE8key_compEv = comdat any

$_ZNKSt17_Rb_tree_iteratorISt4pairIK10aiVector3tIfEiEEdeEv = comdat any

$_ZNSt8_Rb_treeI10aiVector3tIfESt4pairIKS1_iESt10_Select1stIS4_EN6Assimp11ObjExporter15aiVectorCompareESaIS4_EE22_M_emplace_hint_uniqueIJRKSt21piecewise_construct_tSt5tupleIJRS3_EESG_IJEEEEESt17_Rb_tree_iteratorIS4_ESt23_Rb_tree_const_iteratorIS4_EDpOT_ = comdat any

$_ZNSt23_Rb_tree_const_iteratorISt4pairIK10aiVector3tIfEiEEC2ERKSt17_Rb_tree_iteratorIS4_E = comdat any

$_ZNSt5tupleIJRK10aiVector3tIfEEEC2ILb1ETnNSt9enable_ifIXclsr4_TCCIXT_EEE29__is_implicitly_constructibleIS3_EEEbE4typeELb1EEES3_ = comdat any

$_ZNSt8_Rb_treeI10aiVector3tIfESt4pairIKS1_iESt10_Select1stIS4_EN6Assimp11ObjExporter15aiVectorCompareESaIS4_EE11lower_boundERS3_ = comdat any

$_ZNKSt8_Rb_treeI10aiVector3tIfESt4pairIKS1_iESt10_Select1stIS4_EN6Assimp11ObjExporter15aiVectorCompareESaIS4_EE8key_compEv = comdat any

$_ZNSt8_Rb_treeI10aiVector3tIfESt4pairIKS1_iESt10_Select1stIS4_EN6Assimp11ObjExporter15aiVectorCompareESaIS4_EE10_Auto_nodeC2IJRKSt21piecewise_construct_tSt5tupleIJRS3_EESH_IJEEEEERSB_DpOT_ = comdat any

$_ZNSt8_Rb_treeI10aiVector3tIfESt4pairIKS1_iESt10_Select1stIS4_EN6Assimp11ObjExporter15aiVectorCompareESaIS4_EE29_M_get_insert_hint_unique_posESt23_Rb_tree_const_iteratorIS4_ERS3_ = comdat any

$_ZNKSt8_Rb_treeI10aiVector3tIfESt4pairIKS1_iESt10_Select1stIS4_EN6Assimp11ObjExporter15aiVectorCompareESaIS4_EE10_Auto_node6_M_keyEv = comdat any

$_ZNSt8_Rb_treeI10aiVector3tIfESt4pairIKS1_iESt10_Select1stIS4_EN6Assimp11ObjExporter15aiVectorCompareESaIS4_EE10_Auto_node9_M_insertES2_IPSt18_Rb_tree_node_baseSE_E = comdat any

$_ZNSt8_Rb_treeI10aiVector3tIfESt4pairIKS1_iESt10_Select1stIS4_EN6Assimp11ObjExporter15aiVectorCompareESaIS4_EE10_Auto_nodeD2Ev = comdat any

$_ZNSt8_Rb_treeI10aiVector3tIfESt4pairIKS1_iESt10_Select1stIS4_EN6Assimp11ObjExporter15aiVectorCompareESaIS4_EE14_M_create_nodeIJRKSt21piecewise_construct_tSt5tupleIJRS3_EESG_IJEEEEEPSt13_Rb_tree_nodeIS4_EDpOT_ = comdat any

$_ZNSt8_Rb_treeI10aiVector3tIfESt4pairIKS1_iESt10_Select1stIS4_EN6Assimp11ObjExporter15aiVectorCompareESaIS4_EE11_M_get_nodeEv = comdat any

$_ZNSt8_Rb_treeI10aiVector3tIfESt4pairIKS1_iESt10_Select1stIS4_EN6Assimp11ObjExporter15aiVectorCompareESaIS4_EE17_M_construct_nodeIJRKSt21piecewise_construct_tSt5tupleIJRS3_EESG_IJEEEEEvPSt13_Rb_tree_nodeIS4_EDpOT_ = comdat any

$_ZNSt16allocator_traitsISaISt13_Rb_tree_nodeISt4pairIK10aiVector3tIfEiEEEE8allocateERS7_m = comdat any

$_ZNSt15__new_allocatorISt13_Rb_tree_nodeISt4pairIK10aiVector3tIfEiEEE8allocateEmPKv = comdat any

$_ZNKSt15__new_allocatorISt13_Rb_tree_nodeISt4pairIK10aiVector3tIfEiEEE11_M_max_sizeEv = comdat any

$_ZNSt16allocator_traitsISaISt13_Rb_tree_nodeISt4pairIK10aiVector3tIfEiEEEE9constructIS5_JRKSt21piecewise_construct_tSt5tupleIJRS4_EESD_IJEEEEEvRS7_PT_DpOT0_ = comdat any

$_ZNSt15__new_allocatorISt13_Rb_tree_nodeISt4pairIK10aiVector3tIfEiEEE9constructIS5_JRKSt21piecewise_construct_tSt5tupleIJRS4_EESC_IJEEEEEvPT_DpOT0_ = comdat any

$_ZNSt5tupleIJRK10aiVector3tIfEEEC2EOS4_ = comdat any

$_ZNSt4pairIK10aiVector3tIfEiEC2IJRS2_EJEEESt21piecewise_construct_tSt5tupleIJDpT_EES7_IJDpT0_EE = comdat any

$_ZNSt11_Tuple_implILm0EJRK10aiVector3tIfEEEC2EOS4_ = comdat any

$_ZNSt4pairIK10aiVector3tIfEiEC2IJRS2_EJLm0EEJETpTnmJEEERSt5tupleIJDpT_EERS6_IJDpT1_EESt12_Index_tupleIJXspT0_EEESF_IJXspT2_EEE = comdat any

$_ZSt3getILm0EJRK10aiVector3tIfEEERNSt13tuple_elementIXT_ESt5tupleIJDpT0_EEE4typeERS8_ = comdat any

$_ZSt12__get_helperILm0ERK10aiVector3tIfEJEERT0_RSt11_Tuple_implIXT_EJS4_DpT1_EE = comdat any

$_ZNSt11_Tuple_implILm0EJRK10aiVector3tIfEEE7_M_headERS4_ = comdat any

$_ZNSt10_Head_baseILm0ERK10aiVector3tIfELb0EE7_M_headERS4_ = comdat any

$_ZNKSt23_Rb_tree_const_iteratorISt4pairIK10aiVector3tIfEiEE13_M_const_castEv = comdat any

$_ZNSt8_Rb_treeI10aiVector3tIfESt4pairIKS1_iESt10_Select1stIS4_EN6Assimp11ObjExporter15aiVectorCompareESaIS4_EE12_M_rightmostEv = comdat any

$_ZNSt8_Rb_treeI10aiVector3tIfESt4pairIKS1_iESt10_Select1stIS4_EN6Assimp11ObjExporter15aiVectorCompareESaIS4_EE24_M_get_insert_unique_posERS3_ = comdat any

$_ZNSt8_Rb_treeI10aiVector3tIfESt4pairIKS1_iESt10_Select1stIS4_EN6Assimp11ObjExporter15aiVectorCompareESaIS4_EE11_M_leftmostEv = comdat any

$_ZNSt17_Rb_tree_iteratorISt4pairIK10aiVector3tIfEiEEmmEv = comdat any

$_ZNSt4pairIPSt18_Rb_tree_node_baseS1_EC2IRPSt13_Rb_tree_nodeIS_IK10aiVector3tIfEiEERS1_TnNSt9enable_ifIXaaclsr5_PCCPE22_MoveConstructiblePairIT_T0_EEclsr5_PCCPE30_ImplicitlyMoveConvertiblePairISE_SF_EEEbE4typeELb1EEEOSE_OSF_ = comdat any

$_ZNSt8_Rb_treeI10aiVector3tIfESt4pairIKS1_iESt10_Select1stIS4_EN6Assimp11ObjExporter15aiVectorCompareESaIS4_EE14_M_insert_nodeEPSt18_Rb_tree_node_baseSD_PSt13_Rb_tree_nodeIS4_E = comdat any

$_ZNSt11_Tuple_implILm0EJRK10aiVector3tIfEEEC2ES3_ = comdat any

$_ZNSt10_Head_baseILm0ERK10aiVector3tIfELb0EEC2ES3_ = comdat any

$_ZN12aiMatrix4x4tIfEmLERKS0_ = comdat any

$_ZN12aiMatrix4x4tIfEC2Effffffffffffffff = comdat any

$_ZTVN6Assimp8IOSystemE = comdat any

$_ZTS17DeadlyExportError = comdat any

$_ZTS15DeadlyErrorBase = comdat any

$_ZTI15DeadlyErrorBase = comdat any

$_ZTI17DeadlyExportError = comdat any

$_ZTVN6Assimp8IOStreamE = comdat any

$_ZTSN6Assimp8IOStreamE = comdat any

$_ZTSN6Assimp6Intern22AllocateFromAssimpHeapE = comdat any

$_ZTIN6Assimp6Intern22AllocateFromAssimpHeapE = comdat any

$_ZTIN6Assimp8IOStreamE = comdat any

$_ZTSN6Assimp8IOSystemE = comdat any

$_ZTIN6Assimp8IOSystemE = comdat any

$_ZTV17DeadlyExportError = comdat any

$_ZSt19piecewise_construct = comdat any

@_ZTVN6Assimp8IOSystemE = linkonce_odr unnamed_addr constant { [16 x ptr] } { [16 x ptr] [ptr null, ptr @_ZTIN6Assimp8IOSystemE, ptr @_ZN6Assimp8IOSystemD2Ev, ptr @_ZN6Assimp8IOSystemD0Ev, ptr @__cxa_pure_virtual, ptr @__cxa_pure_virtual, ptr @__cxa_pure_virtual, ptr @__cxa_pure_virtual, ptr @_ZNK6Assimp8IOSystem12ComparePathsEPKcS2_, ptr @_ZN6Assimp8IOSystem13PushDirectoryERKNSt7__cxx1112basic_stringIcSt11char_traitsIcESaIcEEE, ptr @_ZNK6Assimp8IOSystem16CurrentDirectoryB5cxx11Ev, ptr @_ZNK6Assimp8IOSystem9StackSizeEv, ptr @_ZN6Assimp8IOSystem12PopDirectoryEv, ptr @_ZN6Assimp8IOSystem15CreateDirectoryERKNSt7__cxx1112basic_stringIcSt11char_traitsIcESaIcEEE, ptr @_ZN6Assimp8IOSystem15ChangeDirectoryERKNSt7__cxx1112basic_stringIcSt11char_traitsIcESaIcEEE, ptr @_ZN6Assimp8IOSystem10DeleteFileERKNSt7__cxx1112basic_stringIcSt11char_traitsIcESaIcEEE] }, comdat, align 8
@.str = private unnamed_addr constant [69 x i8] c"output data creation failed. Most likely the file became too large: \00", align 1
@_ZTVN10__cxxabiv120__si_class_type_infoE = external global [0 x ptr]
@_ZTS17DeadlyExportError = linkonce_odr constant [20 x i8] c"17DeadlyExportError\00", comdat, align 1
@_ZTS15DeadlyErrorBase = linkonce_odr constant [18 x i8] c"15DeadlyErrorBase\00", comdat, align 1
@_ZTISt13runtime_error = external constant ptr
@_ZTI15DeadlyErrorBase = linkonce_odr constant { ptr, ptr, ptr } { ptr getelementptr inbounds (ptr, ptr @_ZTVN10__cxxabiv120__si_class_type_infoE, i64 2), ptr @_ZTS15DeadlyErrorBase, ptr @_ZTISt13runtime_error }, comdat, align 8
@_ZTI17DeadlyExportError = linkonce_odr constant { ptr, ptr, ptr } { ptr getelementptr inbounds (ptr, ptr @_ZTVN10__cxxabiv120__si_class_type_infoE, i64 2), ptr @_ZTS17DeadlyExportError, ptr @_ZTI15DeadlyErrorBase }, comdat, align 8
@.str.1 = private unnamed_addr constant [3 x i8] c"wt\00", align 1
@.str.2 = private unnamed_addr constant [34 x i8] c"could not open output .obj file: \00", align 1
@.str.3 = private unnamed_addr constant [34 x i8] c"could not open output .mtl file: \00", align 1
@_ZL11MaterialExtB5cxx11 = internal global %"class.std::__cxx11::basic_string" zeroinitializer, align 8
@.str.4 = private unnamed_addr constant [5 x i8] c".mtl\00", align 1
@__dso_handle = external hidden global i8
@.str.5 = private unnamed_addr constant [2 x i8] c"\0A\00", align 1
@.str.6 = private unnamed_addr constant [2 x i8] c"C\00", align 1
@.str.7 = private unnamed_addr constant [3 x i8] c"/\\\00", align 1
@.str.8 = private unnamed_addr constant [72 x i8] c"# File produced by Open Asset Import Library (http://www.assimp.sf.net)\00", align 1
@.str.9 = private unnamed_addr constant [12 x i8] c"# (assimp v\00", align 1
@.str.10 = private unnamed_addr constant [2 x i8] c")\00", align 1
@_ZZN6Assimp11ObjExporter15GetMaterialNameB5cxx11EjE8EmptyStrB5cxx11 = internal global %"class.std::__cxx11::basic_string" zeroinitializer, align 8
@_ZGVZN6Assimp11ObjExporter15GetMaterialNameB5cxx11EjE8EmptyStrB5cxx11 = internal global i64 0, align 8
@.str.11 = private unnamed_addr constant [10 x i8] c"?mat.name\00", align 1
@.str.12 = private unnamed_addr constant [11 x i8] c"$Material_\00", align 1
@.str.13 = private unnamed_addr constant [8 x i8] c"newmtl \00", align 1
@.str.14 = private unnamed_addr constant [13 x i8] c"$clr.diffuse\00", align 1
@.str.15 = private unnamed_addr constant [4 x i8] c"Kd \00", align 1
@.str.16 = private unnamed_addr constant [2 x i8] c" \00", align 1
@.str.17 = private unnamed_addr constant [13 x i8] c"$clr.ambient\00", align 1
@.str.18 = private unnamed_addr constant [4 x i8] c"Ka \00", align 1
@.str.19 = private unnamed_addr constant [14 x i8] c"$clr.specular\00", align 1
@.str.20 = private unnamed_addr constant [4 x i8] c"Ks \00", align 1
@.str.21 = private unnamed_addr constant [14 x i8] c"$clr.emissive\00", align 1
@.str.22 = private unnamed_addr constant [4 x i8] c"Ke \00", align 1
@.str.23 = private unnamed_addr constant [17 x i8] c"$clr.transparent\00", align 1
@.str.24 = private unnamed_addr constant [4 x i8] c"Tf \00", align 1
@.str.25 = private unnamed_addr constant [13 x i8] c"$mat.opacity\00", align 1
@.str.26 = private unnamed_addr constant [3 x i8] c"d \00", align 1
@.str.27 = private unnamed_addr constant [14 x i8] c"$mat.refracti\00", align 1
@.str.28 = private unnamed_addr constant [4 x i8] c"Ni \00", align 1
@.str.29 = private unnamed_addr constant [15 x i8] c"$mat.shininess\00", align 1
@.str.30 = private unnamed_addr constant [4 x i8] c"Ns \00", align 1
@.str.31 = private unnamed_addr constant [7 x i8] c"illum \00", align 1
@.str.32 = private unnamed_addr constant [10 x i8] c"$tex.file\00", align 1
@.str.33 = private unnamed_addr constant [8 x i8] c"map_Kd \00", align 1
@.str.34 = private unnamed_addr constant [8 x i8] c"map_Ka \00", align 1
@.str.35 = private unnamed_addr constant [8 x i8] c"map_Ks \00", align 1
@.str.36 = private unnamed_addr constant [8 x i8] c"map_Ns \00", align 1
@.str.37 = private unnamed_addr constant [7 x i8] c"map_d \00", align 1
@.str.38 = private unnamed_addr constant [6 x i8] c"bump \00", align 1
@.str.39 = private unnamed_addr constant [10 x i8] c"map_bump \00", align 1
@.str.40 = private unnamed_addr constant [8 x i8] c"mtllib \00", align 1
@.str.41 = private unnamed_addr constant [3 x i8] c"# \00", align 1
@.str.42 = private unnamed_addr constant [18 x i8] c" vertex positions\00", align 1
@.str.43 = private unnamed_addr constant [3 x i8] c"v \00", align 1
@.str.44 = private unnamed_addr constant [29 x i8] c" vertex positions and colors\00", align 1
@.str.45 = private unnamed_addr constant [16 x i8] c" UV coordinates\00", align 1
@.str.46 = private unnamed_addr constant [4 x i8] c"vt \00", align 1
@.str.47 = private unnamed_addr constant [16 x i8] c" vertex normals\00", align 1
@.str.48 = private unnamed_addr constant [4 x i8] c"vn \00", align 1
@.str.49 = private unnamed_addr constant [9 x i8] c"# Mesh '\00", align 1
@.str.50 = private unnamed_addr constant [8 x i8] c"' with \00", align 1
@.str.51 = private unnamed_addr constant [7 x i8] c" faces\00", align 1
@.str.52 = private unnamed_addr constant [3 x i8] c"g \00", align 1
@.str.53 = private unnamed_addr constant [8 x i8] c"usemtl \00", align 1
@_ZTVN6Assimp8IOStreamE = linkonce_odr unnamed_addr constant { [10 x ptr] } { [10 x ptr] [ptr null, ptr @_ZTIN6Assimp8IOStreamE, ptr @_ZN6Assimp8IOStreamD2Ev, ptr @_ZN6Assimp8IOStreamD0Ev, ptr @__cxa_pure_virtual, ptr @__cxa_pure_virtual, ptr @__cxa_pure_virtual, ptr @__cxa_pure_virtual, ptr @__cxa_pure_virtual, ptr @__cxa_pure_virtual] }, comdat, align 8
@_ZTSN6Assimp8IOStreamE = linkonce_odr constant [19 x i8] c"N6Assimp8IOStreamE\00", comdat, align 1
@_ZTVN10__cxxabiv117__class_type_infoE = external global [0 x ptr]
@_ZTSN6Assimp6Intern22AllocateFromAssimpHeapE = linkonce_odr constant [41 x i8] c"N6Assimp6Intern22AllocateFromAssimpHeapE\00", comdat, align 1
@_ZTIN6Assimp6Intern22AllocateFromAssimpHeapE = linkonce_odr constant { ptr, ptr } { ptr getelementptr inbounds (ptr, ptr @_ZTVN10__cxxabiv117__class_type_infoE, i64 2), ptr @_ZTSN6Assimp6Intern22AllocateFromAssimpHeapE }, comdat, align 8
@_ZTIN6Assimp8IOStreamE = linkonce_odr constant { ptr, ptr, ptr } { ptr getelementptr inbounds (ptr, ptr @_ZTVN10__cxxabiv120__si_class_type_infoE, i64 2), ptr @_ZTSN6Assimp8IOStreamE, ptr @_ZTIN6Assimp6Intern22AllocateFromAssimpHeapE }, comdat, align 8
@_ZTSN6Assimp8IOSystemE = linkonce_odr constant [19 x i8] c"N6Assimp8IOSystemE\00", comdat, align 1
@_ZTIN6Assimp8IOSystemE = linkonce_odr constant { ptr, ptr, ptr } { ptr getelementptr inbounds (ptr, ptr @_ZTVN10__cxxabiv120__si_class_type_infoE, i64 2), ptr @_ZTSN6Assimp8IOSystemE, ptr @_ZTIN6Assimp6Intern22AllocateFromAssimpHeapE }, comdat, align 8
@.str.54 = private unnamed_addr constant [26 x i8] c"vector::_M_realloc_insert\00", align 1
@.str.55 = private unnamed_addr constant [50 x i8] c"basic_string: construction from null is not valid\00", align 1
@_ZTV17DeadlyExportError = linkonce_odr unnamed_addr constant { [5 x ptr] } { [5 x ptr] [ptr null, ptr @_ZTI17DeadlyExportError, ptr @_ZN17DeadlyExportErrorD2Ev, ptr @_ZN17DeadlyExportErrorD0Ev, ptr @_ZNKSt13runtime_error4whatEv] }, comdat, align 8
@.str.56 = private unnamed_addr constant [26 x i8] c"vector::_M_default_append\00", align 1
@_ZSt19piecewise_construct = linkonce_odr constant %"struct.std::piecewise_construct_t" zeroinitializer, comdat, align 1
@llvm.global_ctors = appending global [1 x { i32, ptr, ptr }] [{ i32, ptr, ptr } { i32 65535, ptr @_GLOBAL__sub_I_ObjExporter.cpp, ptr null }]

@_ZN6Assimp11ObjExporterC1EPKcPK7aiSceneb = hidden unnamed_addr alias void (ptr, ptr, ptr, i1), ptr @_ZN6Assimp11ObjExporterC2EPKcPK7aiSceneb
@_ZN6Assimp11ObjExporterD1Ev = hidden unnamed_addr alias void (ptr), ptr @_ZN6Assimp11ObjExporterD2Ev

; Function Attrs: mustprogress nounwind uwtable
define linkonce_odr void @_ZN6Assimp8IOStreamD0Ev(ptr noundef nonnull align 8 dereferenceable(8) %this) unnamed_addr #0 comdat align 2 {
entry:
  %this.addr = alloca ptr, align 8
  store ptr %this, ptr %this.addr, align 8
  call void @llvm.trap() #16
  unreachable
}

; Function Attrs: cold noreturn nounwind memory(inaccessiblemem: write)
declare void @llvm.trap() #1

; Function Attrs: mustprogress nounwind uwtable
define linkonce_odr void @_ZNSt6vectorINSt7__cxx1112basic_stringIcSt11char_traitsIcESaIcEEESaIS5_EED2Ev(ptr noundef nonnull align 8 dereferenceable(24) %this) unnamed_addr #0 comdat align 2 personality ptr @__gxx_personality_v0 {
entry:
  %this.addr = alloca ptr, align 8
  store ptr %this, ptr %this.addr, align 8
  %this1 = load ptr, ptr %this.addr, align 8
  %_M_impl = getelementptr inbounds %"struct.std::_Vector_base", ptr %this1, i32 0, i32 0
  %_M_start = getelementptr inbounds %"struct.std::_Vector_base<std::__cxx11::basic_string<char>, std::allocator<std::__cxx11::basic_string<char>>>::_Vector_impl_data", ptr %_M_impl, i32 0, i32 0
  %0 = load ptr, ptr %_M_start, align 8
  %_M_impl2 = getelementptr inbounds %"struct.std::_Vector_base", ptr %this1, i32 0, i32 0
  %_M_finish = getelementptr inbounds %"struct.std::_Vector_base<std::__cxx11::basic_string<char>, std::allocator<std::__cxx11::basic_string<char>>>::_Vector_impl_data", ptr %_M_impl2, i32 0, i32 1
  %1 = load ptr, ptr %_M_finish, align 8
  %call = call noundef nonnull align 1 dereferenceable(1) ptr @_ZNSt12_Vector_baseINSt7__cxx1112basic_stringIcSt11char_traitsIcESaIcEEESaIS5_EE19_M_get_Tp_allocatorEv(ptr noundef nonnull align 8 dereferenceable(24) %this1) #6
  invoke void @_ZSt8_DestroyIPNSt7__cxx1112basic_stringIcSt11char_traitsIcESaIcEEES5_EvT_S7_RSaIT0_E(ptr noundef %0, ptr noundef %1, ptr noundef nonnull align 1 dereferenceable(1) %call)
          to label %invoke.cont unwind label %terminate.lpad

invoke.cont:                                      ; preds = %entry
  call void @_ZNSt12_Vector_baseINSt7__cxx1112basic_stringIcSt11char_traitsIcESaIcEEESaIS5_EED2Ev(ptr noundef nonnull align 8 dereferenceable(24) %this1) #6
  ret void

terminate.lpad:                                   ; preds = %entry
  %2 = landingpad { ptr, i32 }
          catch ptr null
  %3 = extractvalue { ptr, i32 } %2, 0
  call void @__clang_call_terminate(ptr %3) #16
  unreachable
}

; Function Attrs: mustprogress nounwind uwtable
define linkonce_odr void @_ZN6Assimp8IOSystemD0Ev(ptr noundef nonnull align 8 dereferenceable(32) %this) unnamed_addr #0 comdat align 2 {
entry:
  %this.addr = alloca ptr, align 8
  store ptr %this, ptr %this.addr, align 8
  call void @llvm.trap() #16
  unreachable
}

; Function Attrs: mustprogress uwtable
define hidden void @_ZN6Assimp14ExportSceneObjEPKcPNS_8IOSystemEPK7aiScenePKNS_16ExportPropertiesE(ptr noundef %pFile, ptr noundef %pIOSystem, ptr noundef %pScene, ptr noundef %0) #2 personality ptr @__gxx_personality_v0 {
entry:
  %pFile.addr = alloca ptr, align 8
  %pIOSystem.addr = alloca ptr, align 8
  %pScene.addr = alloca ptr, align 8
  %.addr = alloca ptr, align 8
  %exporter = alloca %"class.Assimp::ObjExporter", align 8
  %exn.slot = alloca ptr, align 8
  %ehselector.slot = alloca i32, align 4
  %ref.tmp = alloca %"class.std::__cxx11::basic_string", align 8
  %ref.tmp7 = alloca %"class.std::__cxx11::basic_string", align 8
  %ref.tmp8 = alloca %"class.std::allocator.0", align 1
  %cleanup.isactive = alloca i1, align 1
  %outfile = alloca %"class.std::unique_ptr", align 8
  %ref.tmp23 = alloca %"class.std::__cxx11::basic_string", align 8
  %ref.tmp24 = alloca %"class.std::__cxx11::basic_string", align 8
  %ref.tmp25 = alloca %"class.std::allocator.0", align 1
  %cleanup.isactive32 = alloca i1, align 1
  %ref.tmp42 = alloca %"class.std::__cxx11::basic_string", align 8
  %ref.tmp47 = alloca %"class.std::fpos", align 8
  %outfile60 = alloca %"class.std::unique_ptr", align 8
  %ref.tmp61 = alloca %"class.std::__cxx11::basic_string", align 8
  %ref.tmp63 = alloca %"class.std::__cxx11::basic_string", align 8
  %ref.tmp64 = alloca %"class.std::allocator.0", align 1
  %ref.tmp76 = alloca %"class.std::__cxx11::basic_string", align 8
  %ref.tmp77 = alloca %"class.std::__cxx11::basic_string", align 8
  %cleanup.isactive84 = alloca i1, align 1
  %ref.tmp93 = alloca %"class.std::__cxx11::basic_string", align 8
  %ref.tmp98 = alloca %"class.std::fpos", align 8
  store ptr %pFile, ptr %pFile.addr, align 8
  store ptr %pIOSystem, ptr %pIOSystem.addr, align 8
  store ptr %pScene, ptr %pScene.addr, align 8
  store ptr %0, ptr %.addr, align 8
  %1 = load ptr, ptr %pFile.addr, align 8
  %2 = load ptr, ptr %pScene.addr, align 8
  call void @_ZN6Assimp11ObjExporterC1EPKcPK7aiSceneb(ptr noundef nonnull align 8 dereferenceable(1120) %exporter, ptr noundef %1, ptr noundef %2, i1 noundef zeroext false)
  %mOutput = getelementptr inbounds %"class.Assimp::ObjExporter", ptr %exporter, i32 0, i32 0
  %vtable = load ptr, ptr %mOutput, align 8
  %vbase.offset.ptr = getelementptr i8, ptr %vtable, i64 -24
  %vbase.offset = load i64, ptr %vbase.offset.ptr, align 8
  %add.ptr = getelementptr inbounds i8, ptr %mOutput, i64 %vbase.offset
  %call = invoke noundef zeroext i1 @_ZNKSt9basic_iosIcSt11char_traitsIcEE4failEv(ptr noundef nonnull align 8 dereferenceable(264) %add.ptr)
          to label %invoke.cont unwind label %lpad

invoke.cont:                                      ; preds = %entry
  br i1 %call, label %if.then, label %lor.lhs.false

lor.lhs.false:                                    ; preds = %invoke.cont
  %mOutputMat = getelementptr inbounds %"class.Assimp::ObjExporter", ptr %exporter, i32 0, i32 1
  %vtable1 = load ptr, ptr %mOutputMat, align 8
  %vbase.offset.ptr2 = getelementptr i8, ptr %vtable1, i64 -24
  %vbase.offset3 = load i64, ptr %vbase.offset.ptr2, align 8
  %add.ptr4 = getelementptr inbounds i8, ptr %mOutputMat, i64 %vbase.offset3
  %call6 = invoke noundef zeroext i1 @_ZNKSt9basic_iosIcSt11char_traitsIcEE4failEv(ptr noundef nonnull align 8 dereferenceable(264) %add.ptr4)
          to label %invoke.cont5 unwind label %lpad

invoke.cont5:                                     ; preds = %lor.lhs.false
  br i1 %call6, label %if.then, label %if.end

if.then:                                          ; preds = %invoke.cont5, %invoke.cont
  store i1 true, ptr %cleanup.isactive, align 1
  %exception = call ptr @__cxa_allocate_exception(i64 16) #6
  %3 = load ptr, ptr %pFile.addr, align 8
  call void @_ZNSaIcEC1Ev(ptr noundef nonnull align 1 dereferenceable(1) %ref.tmp8) #6
  invoke void @_ZNSt7__cxx1112basic_stringIcSt11char_traitsIcESaIcEEC2IS3_EEPKcRKS3_(ptr noundef nonnull align 8 dereferenceable(32) %ref.tmp7, ptr noundef %3, ptr noundef nonnull align 1 dereferenceable(1) %ref.tmp8)
          to label %invoke.cont10 unwind label %lpad9

invoke.cont10:                                    ; preds = %if.then
  invoke void @_ZStplIcSt11char_traitsIcESaIcEENSt7__cxx1112basic_stringIT_T0_T1_EEPKS5_OS8_(ptr sret(%"class.std::__cxx11::basic_string") align 8 %ref.tmp, ptr noundef @.str, ptr noundef nonnull align 8 dereferenceable(32) %ref.tmp7)
          to label %invoke.cont12 unwind label %lpad11

invoke.cont12:                                    ; preds = %invoke.cont10
  invoke void @_ZN17DeadlyExportErrorC2IJNSt7__cxx1112basic_stringIcSt11char_traitsIcESaIcEEEEEEDpOT_(ptr noundef nonnull align 8 dereferenceable(16) %exception, ptr noundef nonnull align 8 dereferenceable(32) %ref.tmp)
          to label %invoke.cont14 unwind label %lpad13

invoke.cont14:                                    ; preds = %invoke.cont12
  store i1 false, ptr %cleanup.isactive, align 1
  invoke void @__cxa_throw(ptr %exception, ptr @_ZTI17DeadlyExportError, ptr @_ZN17DeadlyExportErrorD2Ev) #17
          to label %unreachable unwind label %lpad13

lpad:                                             ; preds = %invoke.cont56, %if.end, %lor.lhs.false, %entry
  %4 = landingpad { ptr, i32 }
          cleanup
  %5 = extractvalue { ptr, i32 } %4, 0
  store ptr %5, ptr %exn.slot, align 8
  %6 = extractvalue { ptr, i32 } %4, 1
  store i32 %6, ptr %ehselector.slot, align 4
  br label %ehcleanup111

lpad9:                                            ; preds = %if.then
  %7 = landingpad { ptr, i32 }
          cleanup
  %8 = extractvalue { ptr, i32 } %7, 0
  store ptr %8, ptr %exn.slot, align 8
  %9 = extractvalue { ptr, i32 } %7, 1
  store i32 %9, ptr %ehselector.slot, align 4
  br label %ehcleanup15

lpad11:                                           ; preds = %invoke.cont10
  %10 = landingpad { ptr, i32 }
          cleanup
  %11 = extractvalue { ptr, i32 } %10, 0
  store ptr %11, ptr %exn.slot, align 8
  %12 = extractvalue { ptr, i32 } %10, 1
  store i32 %12, ptr %ehselector.slot, align 4
  br label %ehcleanup

lpad13:                                           ; preds = %invoke.cont14, %invoke.cont12
  %13 = landingpad { ptr, i32 }
          cleanup
  %14 = extractvalue { ptr, i32 } %13, 0
  store ptr %14, ptr %exn.slot, align 8
  %15 = extractvalue { ptr, i32 } %13, 1
  store i32 %15, ptr %ehselector.slot, align 4
  call void @_ZNSt7__cxx1112basic_stringIcSt11char_traitsIcESaIcEED1Ev(ptr noundef nonnull align 8 dereferenceable(32) %ref.tmp) #6
  br label %ehcleanup

ehcleanup:                                        ; preds = %lpad13, %lpad11
  call void @_ZNSt7__cxx1112basic_stringIcSt11char_traitsIcESaIcEED1Ev(ptr noundef nonnull align 8 dereferenceable(32) %ref.tmp7) #6
  br label %ehcleanup15

ehcleanup15:                                      ; preds = %ehcleanup, %lpad9
  call void @_ZNSaIcED1Ev(ptr noundef nonnull align 1 dereferenceable(1) %ref.tmp8) #6
  %cleanup.is_active = load i1, ptr %cleanup.isactive, align 1
  br i1 %cleanup.is_active, label %cleanup.action, label %cleanup.done

cleanup.action:                                   ; preds = %ehcleanup15
  call void @__cxa_free_exception(ptr %exception) #6
  br label %cleanup.done

cleanup.done:                                     ; preds = %cleanup.action, %ehcleanup15
  br label %ehcleanup111

if.end:                                           ; preds = %invoke.cont5
  %16 = load ptr, ptr %pIOSystem.addr, align 8
  %17 = load ptr, ptr %pFile.addr, align 8
  %vtable17 = load ptr, ptr %16, align 8
  %vfn = getelementptr inbounds ptr, ptr %vtable17, i64 4
  %18 = load ptr, ptr %vfn, align 8
  %call19 = invoke noundef ptr %18(ptr noundef nonnull align 8 dereferenceable(32) %16, ptr noundef %17, ptr noundef @.str.1)
          to label %invoke.cont18 unwind label %lpad

invoke.cont18:                                    ; preds = %if.end
  call void @_ZNSt10unique_ptrIN6Assimp8IOStreamESt14default_deleteIS1_EEC2IS3_vEEPS1_(ptr noundef nonnull align 8 dereferenceable(8) %outfile, ptr noundef %call19) #6
  %call20 = call noundef zeroext i1 @_ZSteqIN6Assimp8IOStreamESt14default_deleteIS1_EEbRKSt10unique_ptrIT_T0_EDn(ptr noundef nonnull align 8 dereferenceable(8) %outfile, ptr null) #6
  br i1 %call20, label %if.then21, label %if.end40

if.then21:                                        ; preds = %invoke.cont18
  store i1 true, ptr %cleanup.isactive32, align 1
  %exception22 = call ptr @__cxa_allocate_exception(i64 16) #6
  %19 = load ptr, ptr %pFile.addr, align 8
  call void @_ZNSaIcEC1Ev(ptr noundef nonnull align 1 dereferenceable(1) %ref.tmp25) #6
  invoke void @_ZNSt7__cxx1112basic_stringIcSt11char_traitsIcESaIcEEC2IS3_EEPKcRKS3_(ptr noundef nonnull align 8 dereferenceable(32) %ref.tmp24, ptr noundef %19, ptr noundef nonnull align 1 dereferenceable(1) %ref.tmp25)
          to label %invoke.cont27 unwind label %lpad26

invoke.cont27:                                    ; preds = %if.then21
  invoke void @_ZStplIcSt11char_traitsIcESaIcEENSt7__cxx1112basic_stringIT_T0_T1_EEPKS5_OS8_(ptr sret(%"class.std::__cxx11::basic_string") align 8 %ref.tmp23, ptr noundef @.str.2, ptr noundef nonnull align 8 dereferenceable(32) %ref.tmp24)
          to label %invoke.cont29 unwind label %lpad28

invoke.cont29:                                    ; preds = %invoke.cont27
  invoke void @_ZN17DeadlyExportErrorC2IJNSt7__cxx1112basic_stringIcSt11char_traitsIcESaIcEEEEEEDpOT_(ptr noundef nonnull align 8 dereferenceable(16) %exception22, ptr noundef nonnull align 8 dereferenceable(32) %ref.tmp23)
          to label %invoke.cont31 unwind label %lpad30

invoke.cont31:                                    ; preds = %invoke.cont29
  store i1 false, ptr %cleanup.isactive32, align 1
  invoke void @__cxa_throw(ptr %exception22, ptr @_ZTI17DeadlyExportError, ptr @_ZN17DeadlyExportErrorD2Ev) #17
          to label %unreachable unwind label %lpad30

lpad26:                                           ; preds = %if.then21
  %20 = landingpad { ptr, i32 }
          cleanup
  %21 = extractvalue { ptr, i32 } %20, 0
  store ptr %21, ptr %exn.slot, align 8
  %22 = extractvalue { ptr, i32 } %20, 1
  store i32 %22, ptr %ehselector.slot, align 4
  br label %ehcleanup35

lpad28:                                           ; preds = %invoke.cont27
  %23 = landingpad { ptr, i32 }
          cleanup
  %24 = extractvalue { ptr, i32 } %23, 0
  store ptr %24, ptr %exn.slot, align 8
  %25 = extractvalue { ptr, i32 } %23, 1
  store i32 %25, ptr %ehselector.slot, align 4
  br label %ehcleanup34

lpad30:                                           ; preds = %invoke.cont31, %invoke.cont29
  %26 = landingpad { ptr, i32 }
          cleanup
  %27 = extractvalue { ptr, i32 } %26, 0
  store ptr %27, ptr %exn.slot, align 8
  %28 = extractvalue { ptr, i32 } %26, 1
  store i32 %28, ptr %ehselector.slot, align 4
  call void @_ZNSt7__cxx1112basic_stringIcSt11char_traitsIcESaIcEED1Ev(ptr noundef nonnull align 8 dereferenceable(32) %ref.tmp23) #6
  br label %ehcleanup34

ehcleanup34:                                      ; preds = %lpad30, %lpad28
  call void @_ZNSt7__cxx1112basic_stringIcSt11char_traitsIcESaIcEED1Ev(ptr noundef nonnull align 8 dereferenceable(32) %ref.tmp24) #6
  br label %ehcleanup35

ehcleanup35:                                      ; preds = %ehcleanup34, %lpad26
  call void @_ZNSaIcED1Ev(ptr noundef nonnull align 1 dereferenceable(1) %ref.tmp25) #6
  %cleanup.is_active37 = load i1, ptr %cleanup.isactive32, align 1
  br i1 %cleanup.is_active37, label %cleanup.action38, label %cleanup.done39

cleanup.action38:                                 ; preds = %ehcleanup35
  call void @__cxa_free_exception(ptr %exception22) #6
  br label %cleanup.done39

cleanup.done39:                                   ; preds = %cleanup.action38, %ehcleanup35
  br label %ehcleanup59

if.end40:                                         ; preds = %invoke.cont18
  %call41 = call noundef ptr @_ZNKSt10unique_ptrIN6Assimp8IOStreamESt14default_deleteIS1_EEptEv(ptr noundef nonnull align 8 dereferenceable(8) %outfile) #6
  %mOutput43 = getelementptr inbounds %"class.Assimp::ObjExporter", ptr %exporter, i32 0, i32 0
  invoke void @_ZNKSt7__cxx1119basic_ostringstreamIcSt11char_traitsIcESaIcEE3strEv(ptr sret(%"class.std::__cxx11::basic_string") align 8 %ref.tmp42, ptr noundef nonnull align 8 dereferenceable(112) %mOutput43)
          to label %invoke.cont45 unwind label %lpad44

invoke.cont45:                                    ; preds = %if.end40
  %call46 = call noundef ptr @_ZNKSt7__cxx1112basic_stringIcSt11char_traitsIcESaIcEE5c_strEv(ptr noundef nonnull align 8 dereferenceable(32) %ref.tmp42) #6
  %mOutput48 = getelementptr inbounds %"class.Assimp::ObjExporter", ptr %exporter, i32 0, i32 0
  %call51 = invoke { i64, i64 } @_ZNSo5tellpEv(ptr noundef nonnull align 8 dereferenceable(8) %mOutput48)
          to label %invoke.cont50 unwind label %lpad49

invoke.cont50:                                    ; preds = %invoke.cont45
  %29 = getelementptr inbounds { i64, i64 }, ptr %ref.tmp47, i32 0, i32 0
  %30 = extractvalue { i64, i64 } %call51, 0
  store i64 %30, ptr %29, align 8
  %31 = getelementptr inbounds { i64, i64 }, ptr %ref.tmp47, i32 0, i32 1
  %32 = extractvalue { i64, i64 } %call51, 1
  store i64 %32, ptr %31, align 8
  %call53 = invoke noundef i64 @_ZNKSt4fposI11__mbstate_tEcvlEv(ptr noundef nonnull align 8 dereferenceable(16) %ref.tmp47)
          to label %invoke.cont52 unwind label %lpad49

invoke.cont52:                                    ; preds = %invoke.cont50
  %vtable54 = load ptr, ptr %call41, align 8
  %vfn55 = getelementptr inbounds ptr, ptr %vtable54, i64 3
  %33 = load ptr, ptr %vfn55, align 8
  %call57 = invoke noundef i64 %33(ptr noundef nonnull align 8 dereferenceable(8) %call41, ptr noundef %call46, i64 noundef %call53, i64 noundef 1)
          to label %invoke.cont56 unwind label %lpad49

invoke.cont56:                                    ; preds = %invoke.cont52
  call void @_ZNSt7__cxx1112basic_stringIcSt11char_traitsIcESaIcEED1Ev(ptr noundef nonnull align 8 dereferenceable(32) %ref.tmp42) #6
  call void @_ZNSt10unique_ptrIN6Assimp8IOStreamESt14default_deleteIS1_EED2Ev(ptr noundef nonnull align 8 dereferenceable(8) %outfile) #6
  %34 = load ptr, ptr %pIOSystem.addr, align 8
  invoke void @_ZN6Assimp11ObjExporter22GetMaterialLibFileNameB5cxx11Ev(ptr sret(%"class.std::__cxx11::basic_string") align 8 %ref.tmp61, ptr noundef nonnull align 8 dereferenceable(1120) %exporter)
          to label %invoke.cont62 unwind label %lpad

invoke.cont62:                                    ; preds = %invoke.cont56
  call void @_ZNSaIcEC1Ev(ptr noundef nonnull align 1 dereferenceable(1) %ref.tmp64) #6
  invoke void @_ZNSt7__cxx1112basic_stringIcSt11char_traitsIcESaIcEEC2IS3_EEPKcRKS3_(ptr noundef nonnull align 8 dereferenceable(32) %ref.tmp63, ptr noundef @.str.1, ptr noundef nonnull align 1 dereferenceable(1) %ref.tmp64)
          to label %invoke.cont66 unwind label %lpad65

invoke.cont66:                                    ; preds = %invoke.cont62
  %call69 = invoke noundef ptr @_ZN6Assimp8IOSystem4OpenERKNSt7__cxx1112basic_stringIcSt11char_traitsIcESaIcEEES8_(ptr noundef nonnull align 8 dereferenceable(32) %34, ptr noundef nonnull align 8 dereferenceable(32) %ref.tmp61, ptr noundef nonnull align 8 dereferenceable(32) %ref.tmp63)
          to label %invoke.cont68 unwind label %lpad67

invoke.cont68:                                    ; preds = %invoke.cont66
  call void @_ZNSt10unique_ptrIN6Assimp8IOStreamESt14default_deleteIS1_EEC2IS3_vEEPS1_(ptr noundef nonnull align 8 dereferenceable(8) %outfile60, ptr noundef %call69) #6
  call void @_ZNSt7__cxx1112basic_stringIcSt11char_traitsIcESaIcEED1Ev(ptr noundef nonnull align 8 dereferenceable(32) %ref.tmp63) #6
  call void @_ZNSaIcED1Ev(ptr noundef nonnull align 1 dereferenceable(1) %ref.tmp64) #6
  call void @_ZNSt7__cxx1112basic_stringIcSt11char_traitsIcESaIcEED1Ev(ptr noundef nonnull align 8 dereferenceable(32) %ref.tmp61) #6
  %call73 = call noundef zeroext i1 @_ZSteqIN6Assimp8IOStreamESt14default_deleteIS1_EEbRKSt10unique_ptrIT_T0_EDn(ptr noundef nonnull align 8 dereferenceable(8) %outfile60, ptr null) #6
  br i1 %call73, label %if.then74, label %if.end91

if.then74:                                        ; preds = %invoke.cont68
  store i1 true, ptr %cleanup.isactive84, align 1
  %exception75 = call ptr @__cxa_allocate_exception(i64 16) #6
  invoke void @_ZN6Assimp11ObjExporter22GetMaterialLibFileNameB5cxx11Ev(ptr sret(%"class.std::__cxx11::basic_string") align 8 %ref.tmp77, ptr noundef nonnull align 8 dereferenceable(1120) %exporter)
          to label %invoke.cont79 unwind label %lpad78

invoke.cont79:                                    ; preds = %if.then74
  invoke void @_ZStplIcSt11char_traitsIcESaIcEENSt7__cxx1112basic_stringIT_T0_T1_EEPKS5_OS8_(ptr sret(%"class.std::__cxx11::basic_string") align 8 %ref.tmp76, ptr noundef @.str.3, ptr noundef nonnull align 8 dereferenceable(32) %ref.tmp77)
          to label %invoke.cont81 unwind label %lpad80

invoke.cont81:                                    ; preds = %invoke.cont79
  invoke void @_ZN17DeadlyExportErrorC2IJNSt7__cxx1112basic_stringIcSt11char_traitsIcESaIcEEEEEEDpOT_(ptr noundef nonnull align 8 dereferenceable(16) %exception75, ptr noundef nonnull align 8 dereferenceable(32) %ref.tmp76)
          to label %invoke.cont83 unwind label %lpad82

invoke.cont83:                                    ; preds = %invoke.cont81
  store i1 false, ptr %cleanup.isactive84, align 1
  invoke void @__cxa_throw(ptr %exception75, ptr @_ZTI17DeadlyExportError, ptr @_ZN17DeadlyExportErrorD2Ev) #17
          to label %unreachable unwind label %lpad82

lpad44:                                           ; preds = %if.end40
  %35 = landingpad { ptr, i32 }
          cleanup
  %36 = extractvalue { ptr, i32 } %35, 0
  store ptr %36, ptr %exn.slot, align 8
  %37 = extractvalue { ptr, i32 } %35, 1
  store i32 %37, ptr %ehselector.slot, align 4
  br label %ehcleanup59

lpad49:                                           ; preds = %invoke.cont52, %invoke.cont50, %invoke.cont45
  %38 = landingpad { ptr, i32 }
          cleanup
  %39 = extractvalue { ptr, i32 } %38, 0
  store ptr %39, ptr %exn.slot, align 8
  %40 = extractvalue { ptr, i32 } %38, 1
  store i32 %40, ptr %ehselector.slot, align 4
  call void @_ZNSt7__cxx1112basic_stringIcSt11char_traitsIcESaIcEED1Ev(ptr noundef nonnull align 8 dereferenceable(32) %ref.tmp42) #6
  br label %ehcleanup59

ehcleanup59:                                      ; preds = %lpad49, %lpad44, %cleanup.done39
  call void @_ZNSt10unique_ptrIN6Assimp8IOStreamESt14default_deleteIS1_EED2Ev(ptr noundef nonnull align 8 dereferenceable(8) %outfile) #6
  br label %ehcleanup111

lpad65:                                           ; preds = %invoke.cont62
  %41 = landingpad { ptr, i32 }
          cleanup
  %42 = extractvalue { ptr, i32 } %41, 0
  store ptr %42, ptr %exn.slot, align 8
  %43 = extractvalue { ptr, i32 } %41, 1
  store i32 %43, ptr %ehselector.slot, align 4
  br label %ehcleanup71

lpad67:                                           ; preds = %invoke.cont66
  %44 = landingpad { ptr, i32 }
          cleanup
  %45 = extractvalue { ptr, i32 } %44, 0
  store ptr %45, ptr %exn.slot, align 8
  %46 = extractvalue { ptr, i32 } %44, 1
  store i32 %46, ptr %ehselector.slot, align 4
  call void @_ZNSt7__cxx1112basic_stringIcSt11char_traitsIcESaIcEED1Ev(ptr noundef nonnull align 8 dereferenceable(32) %ref.tmp63) #6
  br label %ehcleanup71

ehcleanup71:                                      ; preds = %lpad67, %lpad65
  call void @_ZNSaIcED1Ev(ptr noundef nonnull align 1 dereferenceable(1) %ref.tmp64) #6
  call void @_ZNSt7__cxx1112basic_stringIcSt11char_traitsIcESaIcEED1Ev(ptr noundef nonnull align 8 dereferenceable(32) %ref.tmp61) #6
  br label %ehcleanup111

lpad78:                                           ; preds = %if.then74
  %47 = landingpad { ptr, i32 }
          cleanup
  %48 = extractvalue { ptr, i32 } %47, 0
  store ptr %48, ptr %exn.slot, align 8
  %49 = extractvalue { ptr, i32 } %47, 1
  store i32 %49, ptr %ehselector.slot, align 4
  br label %ehcleanup87

lpad80:                                           ; preds = %invoke.cont79
  %50 = landingpad { ptr, i32 }
          cleanup
  %51 = extractvalue { ptr, i32 } %50, 0
  store ptr %51, ptr %exn.slot, align 8
  %52 = extractvalue { ptr, i32 } %50, 1
  store i32 %52, ptr %ehselector.slot, align 4
  br label %ehcleanup86

lpad82:                                           ; preds = %invoke.cont83, %invoke.cont81
  %53 = landingpad { ptr, i32 }
          cleanup
  %54 = extractvalue { ptr, i32 } %53, 0
  store ptr %54, ptr %exn.slot, align 8
  %55 = extractvalue { ptr, i32 } %53, 1
  store i32 %55, ptr %ehselector.slot, align 4
  call void @_ZNSt7__cxx1112basic_stringIcSt11char_traitsIcESaIcEED1Ev(ptr noundef nonnull align 8 dereferenceable(32) %ref.tmp76) #6
  br label %ehcleanup86

ehcleanup86:                                      ; preds = %lpad82, %lpad80
  call void @_ZNSt7__cxx1112basic_stringIcSt11char_traitsIcESaIcEED1Ev(ptr noundef nonnull align 8 dereferenceable(32) %ref.tmp77) #6
  br label %ehcleanup87

ehcleanup87:                                      ; preds = %ehcleanup86, %lpad78
  %cleanup.is_active88 = load i1, ptr %cleanup.isactive84, align 1
  br i1 %cleanup.is_active88, label %cleanup.action89, label %cleanup.done90

cleanup.action89:                                 ; preds = %ehcleanup87
  call void @__cxa_free_exception(ptr %exception75) #6
  br label %cleanup.done90

cleanup.done90:                                   ; preds = %cleanup.action89, %ehcleanup87
  br label %ehcleanup110

if.end91:                                         ; preds = %invoke.cont68
  %call92 = call noundef ptr @_ZNKSt10unique_ptrIN6Assimp8IOStreamESt14default_deleteIS1_EEptEv(ptr noundef nonnull align 8 dereferenceable(8) %outfile60) #6
  %mOutputMat94 = getelementptr inbounds %"class.Assimp::ObjExporter", ptr %exporter, i32 0, i32 1
  invoke void @_ZNKSt7__cxx1119basic_ostringstreamIcSt11char_traitsIcESaIcEE3strEv(ptr sret(%"class.std::__cxx11::basic_string") align 8 %ref.tmp93, ptr noundef nonnull align 8 dereferenceable(112) %mOutputMat94)
          to label %invoke.cont96 unwind label %lpad95

invoke.cont96:                                    ; preds = %if.end91
  %call97 = call noundef ptr @_ZNKSt7__cxx1112basic_stringIcSt11char_traitsIcESaIcEE5c_strEv(ptr noundef nonnull align 8 dereferenceable(32) %ref.tmp93) #6
  %mOutputMat99 = getelementptr inbounds %"class.Assimp::ObjExporter", ptr %exporter, i32 0, i32 1
  %call102 = invoke { i64, i64 } @_ZNSo5tellpEv(ptr noundef nonnull align 8 dereferenceable(8) %mOutputMat99)
          to label %invoke.cont101 unwind label %lpad100

invoke.cont101:                                   ; preds = %invoke.cont96
  %56 = getelementptr inbounds { i64, i64 }, ptr %ref.tmp98, i32 0, i32 0
  %57 = extractvalue { i64, i64 } %call102, 0
  store i64 %57, ptr %56, align 8
  %58 = getelementptr inbounds { i64, i64 }, ptr %ref.tmp98, i32 0, i32 1
  %59 = extractvalue { i64, i64 } %call102, 1
  store i64 %59, ptr %58, align 8
  %call104 = invoke noundef i64 @_ZNKSt4fposI11__mbstate_tEcvlEv(ptr noundef nonnull align 8 dereferenceable(16) %ref.tmp98)
          to label %invoke.cont103 unwind label %lpad100

invoke.cont103:                                   ; preds = %invoke.cont101
  %vtable105 = load ptr, ptr %call92, align 8
  %vfn106 = getelementptr inbounds ptr, ptr %vtable105, i64 3
  %60 = load ptr, ptr %vfn106, align 8
  %call108 = invoke noundef i64 %60(ptr noundef nonnull align 8 dereferenceable(8) %call92, ptr noundef %call97, i64 noundef %call104, i64 noundef 1)
          to label %invoke.cont107 unwind label %lpad100

invoke.cont107:                                   ; preds = %invoke.cont103
  call void @_ZNSt7__cxx1112basic_stringIcSt11char_traitsIcESaIcEED1Ev(ptr noundef nonnull align 8 dereferenceable(32) %ref.tmp93) #6
  call void @_ZNSt10unique_ptrIN6Assimp8IOStreamESt14default_deleteIS1_EED2Ev(ptr noundef nonnull align 8 dereferenceable(8) %outfile60) #6
  call void @_ZN6Assimp11ObjExporterD1Ev(ptr noundef nonnull align 8 dereferenceable(1120) %exporter) #6
  ret void

lpad95:                                           ; preds = %if.end91
  %61 = landingpad { ptr, i32 }
          cleanup
  %62 = extractvalue { ptr, i32 } %61, 0
  store ptr %62, ptr %exn.slot, align 8
  %63 = extractvalue { ptr, i32 } %61, 1
  store i32 %63, ptr %ehselector.slot, align 4
  br label %ehcleanup110

lpad100:                                          ; preds = %invoke.cont103, %invoke.cont101, %invoke.cont96
  %64 = landingpad { ptr, i32 }
          cleanup
  %65 = extractvalue { ptr, i32 } %64, 0
  store ptr %65, ptr %exn.slot, align 8
  %66 = extractvalue { ptr, i32 } %64, 1
  store i32 %66, ptr %ehselector.slot, align 4
  call void @_ZNSt7__cxx1112basic_stringIcSt11char_traitsIcESaIcEED1Ev(ptr noundef nonnull align 8 dereferenceable(32) %ref.tmp93) #6
  br label %ehcleanup110

ehcleanup110:                                     ; preds = %lpad100, %lpad95, %cleanup.done90
  call void @_ZNSt10unique_ptrIN6Assimp8IOStreamESt14default_deleteIS1_EED2Ev(ptr noundef nonnull align 8 dereferenceable(8) %outfile60) #6
  br label %ehcleanup111

ehcleanup111:                                     ; preds = %ehcleanup110, %ehcleanup71, %ehcleanup59, %cleanup.done, %lpad
  call void @_ZN6Assimp11ObjExporterD1Ev(ptr noundef nonnull align 8 dereferenceable(1120) %exporter) #6
  br label %eh.resume

eh.resume:                                        ; preds = %ehcleanup111
  %exn = load ptr, ptr %exn.slot, align 8
  %sel = load i32, ptr %ehselector.slot, align 4
  %lpad.val = insertvalue { ptr, i32 } poison, ptr %exn, 0
  %lpad.val112 = insertvalue { ptr, i32 } %lpad.val, i32 %sel, 1
  resume { ptr, i32 } %lpad.val112

unreachable:                                      ; preds = %invoke.cont83, %invoke.cont31, %invoke.cont14
  unreachable
}

declare noundef zeroext i1 @_ZNKSt9basic_iosIcSt11char_traitsIcEE4failEv(ptr noundef nonnull align 8 dereferenceable(264)) #3

declare i32 @__gxx_personality_v0(...)

declare ptr @__cxa_allocate_exception(i64)

; Function Attrs: mustprogress uwtable
define linkonce_odr void @_ZStplIcSt11char_traitsIcESaIcEENSt7__cxx1112basic_stringIT_T0_T1_EEPKS5_OS8_(ptr noalias sret(%"class.std::__cxx11::basic_string") align 8 %agg.result, ptr noundef %__lhs, ptr noundef nonnull align 8 dereferenceable(32) %__rhs) #2 comdat {
entry:
  %result.ptr = alloca ptr, align 8
  %__lhs.addr = alloca ptr, align 8
  %__rhs.addr = alloca ptr, align 8
  store ptr %agg.result, ptr %result.ptr, align 8
  store ptr %__lhs, ptr %__lhs.addr, align 8
  store ptr %__rhs, ptr %__rhs.addr, align 8
  %0 = load ptr, ptr %__rhs.addr, align 8
  %1 = load ptr, ptr %__lhs.addr, align 8
  %call = call noundef nonnull align 8 dereferenceable(32) ptr @_ZNSt7__cxx1112basic_stringIcSt11char_traitsIcESaIcEE6insertEmPKc(ptr noundef nonnull align 8 dereferenceable(32) %0, i64 noundef 0, ptr noundef %1)
  call void @_ZNSt7__cxx1112basic_stringIcSt11char_traitsIcESaIcEEC1EOS4_(ptr noundef nonnull align 8 dereferenceable(32) %agg.result, ptr noundef nonnull align 8 dereferenceable(32) %call) #6
  ret void
}

; Function Attrs: nounwind
declare void @_ZNSaIcEC1Ev(ptr noundef nonnull align 1 dereferenceable(1)) unnamed_addr #4

; Function Attrs: mustprogress uwtable
define linkonce_odr void @_ZNSt7__cxx1112basic_stringIcSt11char_traitsIcESaIcEEC2IS3_EEPKcRKS3_(ptr noundef nonnull align 8 dereferenceable(32) %this, ptr noundef %__s, ptr noundef nonnull align 1 dereferenceable(1) %__a) unnamed_addr #2 comdat align 2 personality ptr @__gxx_personality_v0 {
entry:
  %this.addr = alloca ptr, align 8
  %__s.addr = alloca ptr, align 8
  %__a.addr = alloca ptr, align 8
  %exn.slot = alloca ptr, align 8
  %ehselector.slot = alloca i32, align 4
  %__end = alloca ptr, align 8
  store ptr %this, ptr %this.addr, align 8
  store ptr %__s, ptr %__s.addr, align 8
  store ptr %__a, ptr %__a.addr, align 8
  %this1 = load ptr, ptr %this.addr, align 8
  %_M_dataplus = getelementptr inbounds %"class.std::__cxx11::basic_string", ptr %this1, i32 0, i32 0
  %call = call noundef ptr @_ZNSt7__cxx1112basic_stringIcSt11char_traitsIcESaIcEE13_M_local_dataEv(ptr noundef nonnull align 8 dereferenceable(32) %this1)
  %0 = load ptr, ptr %__a.addr, align 8
  call void @_ZNSt7__cxx1112basic_stringIcSt11char_traitsIcESaIcEE12_Alloc_hiderC1EPcRKS3_(ptr noundef nonnull align 8 dereferenceable(8) %_M_dataplus, ptr noundef %call, ptr noundef nonnull align 1 dereferenceable(1) %0)
  %1 = load ptr, ptr %__s.addr, align 8
  %cmp = icmp eq ptr %1, null
  br i1 %cmp, label %if.then, label %if.end

if.then:                                          ; preds = %entry
  invoke void @_ZSt19__throw_logic_errorPKc(ptr noundef @.str.55) #17
          to label %invoke.cont unwind label %lpad

invoke.cont:                                      ; preds = %if.then
  unreachable

lpad:                                             ; preds = %invoke.cont2, %if.end, %if.then
  %2 = landingpad { ptr, i32 }
          cleanup
  %3 = extractvalue { ptr, i32 } %2, 0
  store ptr %3, ptr %exn.slot, align 8
  %4 = extractvalue { ptr, i32 } %2, 1
  store i32 %4, ptr %ehselector.slot, align 4
  call void @_ZNSt7__cxx1112basic_stringIcSt11char_traitsIcESaIcEE12_Alloc_hiderD2Ev(ptr noundef nonnull align 8 dereferenceable(8) %_M_dataplus) #6
  br label %eh.resume

if.end:                                           ; preds = %entry
  %5 = load ptr, ptr %__s.addr, align 8
  %6 = load ptr, ptr %__s.addr, align 8
  %call3 = invoke noundef i64 @_ZNSt11char_traitsIcE6lengthEPKc(ptr noundef %6)
          to label %invoke.cont2 unwind label %lpad

invoke.cont2:                                     ; preds = %if.end
  %add.ptr = getelementptr inbounds i8, ptr %5, i64 %call3
  store ptr %add.ptr, ptr %__end, align 8
  %7 = load ptr, ptr %__s.addr, align 8
  %8 = load ptr, ptr %__end, align 8
  invoke void @_ZNSt7__cxx1112basic_stringIcSt11char_traitsIcESaIcEE12_M_constructIPKcEEvT_S8_St20forward_iterator_tag(ptr noundef nonnull align 8 dereferenceable(32) %this1, ptr noundef %7, ptr noundef %8)
          to label %invoke.cont4 unwind label %lpad

invoke.cont4:                                     ; preds = %invoke.cont2
  ret void

eh.resume:                                        ; preds = %lpad
  %exn = load ptr, ptr %exn.slot, align 8
  %sel = load i32, ptr %ehselector.slot, align 4
  %lpad.val = insertvalue { ptr, i32 } poison, ptr %exn, 0
  %lpad.val5 = insertvalue { ptr, i32 } %lpad.val, i32 %sel, 1
  resume { ptr, i32 } %lpad.val5
}

; Function Attrs: mustprogress uwtable
define linkonce_odr void @_ZN17DeadlyExportErrorC2IJNSt7__cxx1112basic_stringIcSt11char_traitsIcESaIcEEEEEEDpOT_(ptr noundef nonnull align 8 dereferenceable(16) %this, ptr noundef nonnull align 8 dereferenceable(32) %args) unnamed_addr #2 comdat align 2 personality ptr @__gxx_personality_v0 {
entry:
  %this.addr = alloca ptr, align 8
  %args.addr = alloca ptr, align 8
  %agg.tmp = alloca %"class.Assimp::Formatter::basic_formatter", align 8
  %exn.slot = alloca ptr, align 8
  %ehselector.slot = alloca i32, align 4
  store ptr %this, ptr %this.addr, align 8
  store ptr %args, ptr %args.addr, align 8
  %this1 = load ptr, ptr %this.addr, align 8
  call void @_ZN6Assimp9Formatter15basic_formatterIcSt11char_traitsIcESaIcEEC2Ev(ptr noundef nonnull align 8 dereferenceable(376) %agg.tmp)
  %0 = load ptr, ptr %args.addr, align 8
  invoke void @_ZN15DeadlyErrorBaseC2IJENSt7__cxx1112basic_stringIcSt11char_traitsIcESaIcEEEEEN6Assimp9Formatter15basic_formatterIcS4_S5_EEOT0_DpOT_(ptr noundef nonnull align 8 dereferenceable(16) %this1, ptr noundef %agg.tmp, ptr noundef nonnull align 8 dereferenceable(32) %0)
          to label %invoke.cont unwind label %lpad

invoke.cont:                                      ; preds = %entry
  call void @_ZN6Assimp9Formatter15basic_formatterIcSt11char_traitsIcESaIcEED2Ev(ptr noundef nonnull align 8 dereferenceable(376) %agg.tmp) #6
  store ptr getelementptr inbounds ({ [5 x ptr] }, ptr @_ZTV17DeadlyExportError, i32 0, inrange i32 0, i32 2), ptr %this1, align 8
  ret void

lpad:                                             ; preds = %entry
  %1 = landingpad { ptr, i32 }
          cleanup
  %2 = extractvalue { ptr, i32 } %1, 0
  store ptr %2, ptr %exn.slot, align 8
  %3 = extractvalue { ptr, i32 } %1, 1
  store i32 %3, ptr %ehselector.slot, align 4
  call void @_ZN6Assimp9Formatter15basic_formatterIcSt11char_traitsIcESaIcEED2Ev(ptr noundef nonnull align 8 dereferenceable(376) %agg.tmp) #6
  br label %eh.resume

eh.resume:                                        ; preds = %lpad
  %exn = load ptr, ptr %exn.slot, align 8
  %sel = load i32, ptr %ehselector.slot, align 4
  %lpad.val = insertvalue { ptr, i32 } poison, ptr %exn, 0
  %lpad.val2 = insertvalue { ptr, i32 } %lpad.val, i32 %sel, 1
  resume { ptr, i32 } %lpad.val2
}

; Function Attrs: mustprogress nounwind uwtable
define linkonce_odr void @_ZN17DeadlyExportErrorD2Ev(ptr noundef nonnull align 8 dereferenceable(16) %this) unnamed_addr #0 comdat align 2 {
entry:
  %this.addr = alloca ptr, align 8
  store ptr %this, ptr %this.addr, align 8
  %this1 = load ptr, ptr %this.addr, align 8
  call void @_ZN15DeadlyErrorBaseD2Ev(ptr noundef nonnull align 8 dereferenceable(16) %this1) #6
  ret void
}

declare void @__cxa_throw(ptr, ptr, ptr)

; Function Attrs: nounwind
declare void @_ZNSt7__cxx1112basic_stringIcSt11char_traitsIcESaIcEED1Ev(ptr noundef nonnull align 8 dereferenceable(32)) unnamed_addr #4

; Function Attrs: nounwind
declare void @_ZNSaIcED1Ev(ptr noundef nonnull align 1 dereferenceable(1)) unnamed_addr #4

declare void @__cxa_free_exception(ptr)

; Function Attrs: mustprogress nounwind uwtable
define linkonce_odr void @_ZNSt10unique_ptrIN6Assimp8IOStreamESt14default_deleteIS1_EEC2IS3_vEEPS1_(ptr noundef nonnull align 8 dereferenceable(8) %this, ptr noundef %__p) unnamed_addr #0 comdat align 2 personality ptr @__gxx_personality_v0 {
entry:
  %this.addr = alloca ptr, align 8
  %__p.addr = alloca ptr, align 8
  store ptr %this, ptr %this.addr, align 8
  store ptr %__p, ptr %__p.addr, align 8
  %this1 = load ptr, ptr %this.addr, align 8
  %_M_t = getelementptr inbounds %"class.std::unique_ptr", ptr %this1, i32 0, i32 0
  %0 = load ptr, ptr %__p.addr, align 8
  invoke void @_ZNSt15__uniq_ptr_dataIN6Assimp8IOStreamESt14default_deleteIS1_ELb1ELb1EECI2St15__uniq_ptr_implIS1_S3_EEPS1_(ptr noundef nonnull align 8 dereferenceable(8) %_M_t, ptr noundef %0)
          to label %invoke.cont unwind label %terminate.lpad

invoke.cont:                                      ; preds = %entry
  ret void

terminate.lpad:                                   ; preds = %entry
  %1 = landingpad { ptr, i32 }
          catch ptr null
  %2 = extractvalue { ptr, i32 } %1, 0
  call void @__clang_call_terminate(ptr %2) #16
  unreachable
}

; Function Attrs: mustprogress nounwind uwtable
define linkonce_odr noundef zeroext i1 @_ZSteqIN6Assimp8IOStreamESt14default_deleteIS1_EEbRKSt10unique_ptrIT_T0_EDn(ptr noundef nonnull align 8 dereferenceable(8) %__x, ptr %0) #0 comdat {
entry:
  %__x.addr = alloca ptr, align 8
  %.addr = alloca ptr, align 8
  store ptr %__x, ptr %__x.addr, align 8
  store ptr %0, ptr %.addr, align 8
  %1 = load ptr, ptr %__x.addr, align 8
  %call = call noundef zeroext i1 @_ZNKSt10unique_ptrIN6Assimp8IOStreamESt14default_deleteIS1_EEcvbEv(ptr noundef nonnull align 8 dereferenceable(8) %1) #6
  %lnot = xor i1 %call, true
  ret i1 %lnot
}

; Function Attrs: mustprogress nounwind uwtable
define linkonce_odr noundef ptr @_ZNKSt10unique_ptrIN6Assimp8IOStreamESt14default_deleteIS1_EEptEv(ptr noundef nonnull align 8 dereferenceable(8) %this) #0 comdat align 2 {
entry:
  %this.addr = alloca ptr, align 8
  store ptr %this, ptr %this.addr, align 8
  %this1 = load ptr, ptr %this.addr, align 8
  %call = call noundef ptr @_ZNKSt10unique_ptrIN6Assimp8IOStreamESt14default_deleteIS1_EE3getEv(ptr noundef nonnull align 8 dereferenceable(8) %this1) #6
  ret ptr %call
}

declare void @_ZNKSt7__cxx1119basic_ostringstreamIcSt11char_traitsIcESaIcEE3strEv(ptr sret(%"class.std::__cxx11::basic_string") align 8, ptr noundef nonnull align 8 dereferenceable(112)) #3

; Function Attrs: nounwind
declare noundef ptr @_ZNKSt7__cxx1112basic_stringIcSt11char_traitsIcESaIcEE5c_strEv(ptr noundef nonnull align 8 dereferenceable(32)) #4

declare { i64, i64 } @_ZNSo5tellpEv(ptr noundef nonnull align 8 dereferenceable(8)) #3

; Function Attrs: mustprogress nounwind uwtable
define linkonce_odr hidden noundef i64 @_ZNKSt4fposI11__mbstate_tEcvlEv(ptr noundef nonnull align 8 dereferenceable(16) %this) #0 comdat align 2 {
entry:
  %this.addr = alloca ptr, align 8
  store ptr %this, ptr %this.addr, align 8
  %this1 = load ptr, ptr %this.addr, align 8
  %_M_off = getelementptr inbounds %"class.std::fpos", ptr %this1, i32 0, i32 0
  %0 = load i64, ptr %_M_off, align 8
  ret i64 %0
}

; Function Attrs: mustprogress nounwind uwtable
define linkonce_odr void @_ZNSt10unique_ptrIN6Assimp8IOStreamESt14default_deleteIS1_EED2Ev(ptr noundef nonnull align 8 dereferenceable(8) %this) unnamed_addr #0 comdat align 2 personality ptr @__gxx_personality_v0 {
entry:
  %this.addr = alloca ptr, align 8
  %__ptr = alloca ptr, align 8
  store ptr %this, ptr %this.addr, align 8
  %this1 = load ptr, ptr %this.addr, align 8
  %_M_t = getelementptr inbounds %"class.std::unique_ptr", ptr %this1, i32 0, i32 0
  %call = call noundef nonnull align 8 dereferenceable(8) ptr @_ZNSt15__uniq_ptr_implIN6Assimp8IOStreamESt14default_deleteIS1_EE6_M_ptrEv(ptr noundef nonnull align 8 dereferenceable(8) %_M_t) #6
  store ptr %call, ptr %__ptr, align 8
  %0 = load ptr, ptr %__ptr, align 8
  %1 = load ptr, ptr %0, align 8
  %cmp = icmp ne ptr %1, null
  br i1 %cmp, label %if.then, label %if.end

if.then:                                          ; preds = %entry
  %call2 = call noundef nonnull align 1 dereferenceable(1) ptr @_ZNSt10unique_ptrIN6Assimp8IOStreamESt14default_deleteIS1_EE11get_deleterEv(ptr noundef nonnull align 8 dereferenceable(8) %this1) #6
  %2 = load ptr, ptr %__ptr, align 8
  %3 = load ptr, ptr %2, align 8
  invoke void @_ZNKSt14default_deleteIN6Assimp8IOStreamEEclEPS1_(ptr noundef nonnull align 1 dereferenceable(1) %call2, ptr noundef %3)
          to label %invoke.cont unwind label %terminate.lpad

invoke.cont:                                      ; preds = %if.then
  br label %if.end

if.end:                                           ; preds = %invoke.cont, %entry
  %4 = load ptr, ptr %__ptr, align 8
  store ptr null, ptr %4, align 8
  ret void

terminate.lpad:                                   ; preds = %if.then
  %5 = landingpad { ptr, i32 }
          catch ptr null
  %6 = extractvalue { ptr, i32 } %5, 0
  call void @__clang_call_terminate(ptr %6) #16
  unreachable
}

; Function Attrs: mustprogress uwtable
define linkonce_odr noundef ptr @_ZN6Assimp8IOSystem4OpenERKNSt7__cxx1112basic_stringIcSt11char_traitsIcESaIcEEES8_(ptr noundef nonnull align 8 dereferenceable(32) %this, ptr noundef nonnull align 8 dereferenceable(32) %pFile, ptr noundef nonnull align 8 dereferenceable(32) %pMode) #2 comdat align 2 {
entry:
  %this.addr = alloca ptr, align 8
  %pFile.addr = alloca ptr, align 8
  %pMode.addr = alloca ptr, align 8
  store ptr %this, ptr %this.addr, align 8
  store ptr %pFile, ptr %pFile.addr, align 8
  store ptr %pMode, ptr %pMode.addr, align 8
  %this1 = load ptr, ptr %this.addr, align 8
  %0 = load ptr, ptr %pFile.addr, align 8
  %call = call noundef ptr @_ZNKSt7__cxx1112basic_stringIcSt11char_traitsIcESaIcEE5c_strEv(ptr noundef nonnull align 8 dereferenceable(32) %0) #6
  %1 = load ptr, ptr %pMode.addr, align 8
  %call2 = call noundef ptr @_ZNKSt7__cxx1112basic_stringIcSt11char_traitsIcESaIcEE5c_strEv(ptr noundef nonnull align 8 dereferenceable(32) %1) #6
  %vtable = load ptr, ptr %this1, align 8
  %vfn = getelementptr inbounds ptr, ptr %vtable, i64 4
  %2 = load ptr, ptr %vfn, align 8
  %call3 = call noundef ptr %2(ptr noundef nonnull align 8 dereferenceable(32) %this1, ptr noundef %call, ptr noundef %call2)
  ret ptr %call3
}

; Function Attrs: mustprogress uwtable
define hidden void @_ZN6Assimp11ObjExporter22GetMaterialLibFileNameB5cxx11Ev(ptr noalias sret(%"class.std::__cxx11::basic_string") align 8 %agg.result, ptr noundef nonnull align 8 dereferenceable(1120) %this) #2 align 2 personality ptr @__gxx_personality_v0 {
entry:
  %result.ptr = alloca ptr, align 8
  %this.addr = alloca ptr, align 8
  %lastdot = alloca i64, align 8
  %ref.tmp = alloca %"class.std::__cxx11::basic_string", align 8
  %exn.slot = alloca ptr, align 8
  %ehselector.slot = alloca i32, align 4
  store ptr %agg.result, ptr %result.ptr, align 8
  store ptr %this, ptr %this.addr, align 8
  %this1 = load ptr, ptr %this.addr, align 8
  %filename = getelementptr inbounds %"class.Assimp::ObjExporter", ptr %this1, i32 0, i32 2
  %call = call noundef i64 @_ZNKSt7__cxx1112basic_stringIcSt11char_traitsIcESaIcEE12find_last_ofEcm(ptr noundef nonnull align 8 dereferenceable(32) %filename, i8 noundef signext 46, i64 noundef -1) #6
  store i64 %call, ptr %lastdot, align 8
  %0 = load i64, ptr %lastdot, align 8
  %cmp = icmp ne i64 %0, -1
  br i1 %cmp, label %if.then, label %if.end

if.then:                                          ; preds = %entry
  %filename2 = getelementptr inbounds %"class.Assimp::ObjExporter", ptr %this1, i32 0, i32 2
  %1 = load i64, ptr %lastdot, align 8
  call void @_ZNKSt7__cxx1112basic_stringIcSt11char_traitsIcESaIcEE6substrEmm(ptr sret(%"class.std::__cxx11::basic_string") align 8 %ref.tmp, ptr noundef nonnull align 8 dereferenceable(32) %filename2, i64 noundef 0, i64 noundef %1)
  invoke void @_ZStplIcSt11char_traitsIcESaIcEENSt7__cxx1112basic_stringIT_T0_T1_EEOS8_RKS8_(ptr sret(%"class.std::__cxx11::basic_string") align 8 %agg.result, ptr noundef nonnull align 8 dereferenceable(32) %ref.tmp, ptr noundef nonnull align 8 dereferenceable(32) @_ZL11MaterialExtB5cxx11)
          to label %invoke.cont unwind label %lpad

invoke.cont:                                      ; preds = %if.then
  call void @_ZNSt7__cxx1112basic_stringIcSt11char_traitsIcESaIcEED1Ev(ptr noundef nonnull align 8 dereferenceable(32) %ref.tmp) #6
  br label %return

lpad:                                             ; preds = %if.then
  %2 = landingpad { ptr, i32 }
          cleanup
  %3 = extractvalue { ptr, i32 } %2, 0
  store ptr %3, ptr %exn.slot, align 8
  %4 = extractvalue { ptr, i32 } %2, 1
  store i32 %4, ptr %ehselector.slot, align 4
  call void @_ZNSt7__cxx1112basic_stringIcSt11char_traitsIcESaIcEED1Ev(ptr noundef nonnull align 8 dereferenceable(32) %ref.tmp) #6
  br label %eh.resume

if.end:                                           ; preds = %entry
  %filename3 = getelementptr inbounds %"class.Assimp::ObjExporter", ptr %this1, i32 0, i32 2
  call void @_ZStplIcSt11char_traitsIcESaIcEENSt7__cxx1112basic_stringIT_T0_T1_EERKS8_SA_(ptr sret(%"class.std::__cxx11::basic_string") align 8 %agg.result, ptr noundef nonnull align 8 dereferenceable(32) %filename3, ptr noundef nonnull align 8 dereferenceable(32) @_ZL11MaterialExtB5cxx11)
  br label %return

return:                                           ; preds = %if.end, %invoke.cont
  ret void

eh.resume:                                        ; preds = %lpad
  %exn = load ptr, ptr %exn.slot, align 8
  %sel = load i32, ptr %ehselector.slot, align 4
  %lpad.val = insertvalue { ptr, i32 } poison, ptr %exn, 0
  %lpad.val4 = insertvalue { ptr, i32 } %lpad.val, i32 %sel, 1
  resume { ptr, i32 } %lpad.val4
}

; Function Attrs: mustprogress uwtable
define hidden void @_ZN6Assimp19ExportSceneObjNoMtlEPKcPNS_8IOSystemEPK7aiScenePKNS_16ExportPropertiesE(ptr noundef %pFile, ptr noundef %pIOSystem, ptr noundef %pScene, ptr noundef %0) #2 personality ptr @__gxx_personality_v0 {
entry:
  %pFile.addr = alloca ptr, align 8
  %pIOSystem.addr = alloca ptr, align 8
  %pScene.addr = alloca ptr, align 8
  %.addr = alloca ptr, align 8
  %exporter = alloca %"class.Assimp::ObjExporter", align 8
  %exn.slot = alloca ptr, align 8
  %ehselector.slot = alloca i32, align 4
  %ref.tmp = alloca %"class.std::__cxx11::basic_string", align 8
  %ref.tmp7 = alloca %"class.std::__cxx11::basic_string", align 8
  %ref.tmp8 = alloca %"class.std::allocator.0", align 1
  %cleanup.isactive = alloca i1, align 1
  %outfile = alloca %"class.std::unique_ptr", align 8
  %ref.tmp23 = alloca %"class.std::__cxx11::basic_string", align 8
  %ref.tmp24 = alloca %"class.std::__cxx11::basic_string", align 8
  %ref.tmp25 = alloca %"class.std::allocator.0", align 1
  %cleanup.isactive32 = alloca i1, align 1
  %ref.tmp42 = alloca %"class.std::__cxx11::basic_string", align 8
  %ref.tmp47 = alloca %"class.std::fpos", align 8
  store ptr %pFile, ptr %pFile.addr, align 8
  store ptr %pIOSystem, ptr %pIOSystem.addr, align 8
  store ptr %pScene, ptr %pScene.addr, align 8
  store ptr %0, ptr %.addr, align 8
  %1 = load ptr, ptr %pFile.addr, align 8
  %2 = load ptr, ptr %pScene.addr, align 8
  call void @_ZN6Assimp11ObjExporterC1EPKcPK7aiSceneb(ptr noundef nonnull align 8 dereferenceable(1120) %exporter, ptr noundef %1, ptr noundef %2, i1 noundef zeroext true)
  %mOutput = getelementptr inbounds %"class.Assimp::ObjExporter", ptr %exporter, i32 0, i32 0
  %vtable = load ptr, ptr %mOutput, align 8
  %vbase.offset.ptr = getelementptr i8, ptr %vtable, i64 -24
  %vbase.offset = load i64, ptr %vbase.offset.ptr, align 8
  %add.ptr = getelementptr inbounds i8, ptr %mOutput, i64 %vbase.offset
  %call = invoke noundef zeroext i1 @_ZNKSt9basic_iosIcSt11char_traitsIcEE4failEv(ptr noundef nonnull align 8 dereferenceable(264) %add.ptr)
          to label %invoke.cont unwind label %lpad

invoke.cont:                                      ; preds = %entry
  br i1 %call, label %if.then, label %lor.lhs.false

lor.lhs.false:                                    ; preds = %invoke.cont
  %mOutputMat = getelementptr inbounds %"class.Assimp::ObjExporter", ptr %exporter, i32 0, i32 1
  %vtable1 = load ptr, ptr %mOutputMat, align 8
  %vbase.offset.ptr2 = getelementptr i8, ptr %vtable1, i64 -24
  %vbase.offset3 = load i64, ptr %vbase.offset.ptr2, align 8
  %add.ptr4 = getelementptr inbounds i8, ptr %mOutputMat, i64 %vbase.offset3
  %call6 = invoke noundef zeroext i1 @_ZNKSt9basic_iosIcSt11char_traitsIcEE4failEv(ptr noundef nonnull align 8 dereferenceable(264) %add.ptr4)
          to label %invoke.cont5 unwind label %lpad

invoke.cont5:                                     ; preds = %lor.lhs.false
  br i1 %call6, label %if.then, label %if.end

if.then:                                          ; preds = %invoke.cont5, %invoke.cont
  store i1 true, ptr %cleanup.isactive, align 1
  %exception = call ptr @__cxa_allocate_exception(i64 16) #6
  %3 = load ptr, ptr %pFile.addr, align 8
  call void @_ZNSaIcEC1Ev(ptr noundef nonnull align 1 dereferenceable(1) %ref.tmp8) #6
  invoke void @_ZNSt7__cxx1112basic_stringIcSt11char_traitsIcESaIcEEC2IS3_EEPKcRKS3_(ptr noundef nonnull align 8 dereferenceable(32) %ref.tmp7, ptr noundef %3, ptr noundef nonnull align 1 dereferenceable(1) %ref.tmp8)
          to label %invoke.cont10 unwind label %lpad9

invoke.cont10:                                    ; preds = %if.then
  invoke void @_ZStplIcSt11char_traitsIcESaIcEENSt7__cxx1112basic_stringIT_T0_T1_EEPKS5_OS8_(ptr sret(%"class.std::__cxx11::basic_string") align 8 %ref.tmp, ptr noundef @.str, ptr noundef nonnull align 8 dereferenceable(32) %ref.tmp7)
          to label %invoke.cont12 unwind label %lpad11

invoke.cont12:                                    ; preds = %invoke.cont10
  invoke void @_ZN17DeadlyExportErrorC2IJNSt7__cxx1112basic_stringIcSt11char_traitsIcESaIcEEEEEEDpOT_(ptr noundef nonnull align 8 dereferenceable(16) %exception, ptr noundef nonnull align 8 dereferenceable(32) %ref.tmp)
          to label %invoke.cont14 unwind label %lpad13

invoke.cont14:                                    ; preds = %invoke.cont12
  store i1 false, ptr %cleanup.isactive, align 1
  invoke void @__cxa_throw(ptr %exception, ptr @_ZTI17DeadlyExportError, ptr @_ZN17DeadlyExportErrorD2Ev) #17
          to label %unreachable unwind label %lpad13

lpad:                                             ; preds = %if.end, %lor.lhs.false, %entry
  %4 = landingpad { ptr, i32 }
          cleanup
  %5 = extractvalue { ptr, i32 } %4, 0
  store ptr %5, ptr %exn.slot, align 8
  %6 = extractvalue { ptr, i32 } %4, 1
  store i32 %6, ptr %ehselector.slot, align 4
  br label %ehcleanup60

lpad9:                                            ; preds = %if.then
  %7 = landingpad { ptr, i32 }
          cleanup
  %8 = extractvalue { ptr, i32 } %7, 0
  store ptr %8, ptr %exn.slot, align 8
  %9 = extractvalue { ptr, i32 } %7, 1
  store i32 %9, ptr %ehselector.slot, align 4
  br label %ehcleanup15

lpad11:                                           ; preds = %invoke.cont10
  %10 = landingpad { ptr, i32 }
          cleanup
  %11 = extractvalue { ptr, i32 } %10, 0
  store ptr %11, ptr %exn.slot, align 8
  %12 = extractvalue { ptr, i32 } %10, 1
  store i32 %12, ptr %ehselector.slot, align 4
  br label %ehcleanup

lpad13:                                           ; preds = %invoke.cont14, %invoke.cont12
  %13 = landingpad { ptr, i32 }
          cleanup
  %14 = extractvalue { ptr, i32 } %13, 0
  store ptr %14, ptr %exn.slot, align 8
  %15 = extractvalue { ptr, i32 } %13, 1
  store i32 %15, ptr %ehselector.slot, align 4
  call void @_ZNSt7__cxx1112basic_stringIcSt11char_traitsIcESaIcEED1Ev(ptr noundef nonnull align 8 dereferenceable(32) %ref.tmp) #6
  br label %ehcleanup

ehcleanup:                                        ; preds = %lpad13, %lpad11
  call void @_ZNSt7__cxx1112basic_stringIcSt11char_traitsIcESaIcEED1Ev(ptr noundef nonnull align 8 dereferenceable(32) %ref.tmp7) #6
  br label %ehcleanup15

ehcleanup15:                                      ; preds = %ehcleanup, %lpad9
  call void @_ZNSaIcED1Ev(ptr noundef nonnull align 1 dereferenceable(1) %ref.tmp8) #6
  %cleanup.is_active = load i1, ptr %cleanup.isactive, align 1
  br i1 %cleanup.is_active, label %cleanup.action, label %cleanup.done

cleanup.action:                                   ; preds = %ehcleanup15
  call void @__cxa_free_exception(ptr %exception) #6
  br label %cleanup.done

cleanup.done:                                     ; preds = %cleanup.action, %ehcleanup15
  br label %ehcleanup60

if.end:                                           ; preds = %invoke.cont5
  %16 = load ptr, ptr %pIOSystem.addr, align 8
  %17 = load ptr, ptr %pFile.addr, align 8
  %vtable17 = load ptr, ptr %16, align 8
  %vfn = getelementptr inbounds ptr, ptr %vtable17, i64 4
  %18 = load ptr, ptr %vfn, align 8
  %call19 = invoke noundef ptr %18(ptr noundef nonnull align 8 dereferenceable(32) %16, ptr noundef %17, ptr noundef @.str.1)
          to label %invoke.cont18 unwind label %lpad

invoke.cont18:                                    ; preds = %if.end
  call void @_ZNSt10unique_ptrIN6Assimp8IOStreamESt14default_deleteIS1_EEC2IS3_vEEPS1_(ptr noundef nonnull align 8 dereferenceable(8) %outfile, ptr noundef %call19) #6
  %call20 = call noundef zeroext i1 @_ZSteqIN6Assimp8IOStreamESt14default_deleteIS1_EEbRKSt10unique_ptrIT_T0_EDn(ptr noundef nonnull align 8 dereferenceable(8) %outfile, ptr null) #6
  br i1 %call20, label %if.then21, label %if.end40

if.then21:                                        ; preds = %invoke.cont18
  store i1 true, ptr %cleanup.isactive32, align 1
  %exception22 = call ptr @__cxa_allocate_exception(i64 16) #6
  %19 = load ptr, ptr %pFile.addr, align 8
  call void @_ZNSaIcEC1Ev(ptr noundef nonnull align 1 dereferenceable(1) %ref.tmp25) #6
  invoke void @_ZNSt7__cxx1112basic_stringIcSt11char_traitsIcESaIcEEC2IS3_EEPKcRKS3_(ptr noundef nonnull align 8 dereferenceable(32) %ref.tmp24, ptr noundef %19, ptr noundef nonnull align 1 dereferenceable(1) %ref.tmp25)
          to label %invoke.cont27 unwind label %lpad26

invoke.cont27:                                    ; preds = %if.then21
  invoke void @_ZStplIcSt11char_traitsIcESaIcEENSt7__cxx1112basic_stringIT_T0_T1_EEPKS5_OS8_(ptr sret(%"class.std::__cxx11::basic_string") align 8 %ref.tmp23, ptr noundef @.str.2, ptr noundef nonnull align 8 dereferenceable(32) %ref.tmp24)
          to label %invoke.cont29 unwind label %lpad28

invoke.cont29:                                    ; preds = %invoke.cont27
  invoke void @_ZN17DeadlyExportErrorC2IJNSt7__cxx1112basic_stringIcSt11char_traitsIcESaIcEEEEEEDpOT_(ptr noundef nonnull align 8 dereferenceable(16) %exception22, ptr noundef nonnull align 8 dereferenceable(32) %ref.tmp23)
          to label %invoke.cont31 unwind label %lpad30

invoke.cont31:                                    ; preds = %invoke.cont29
  store i1 false, ptr %cleanup.isactive32, align 1
  invoke void @__cxa_throw(ptr %exception22, ptr @_ZTI17DeadlyExportError, ptr @_ZN17DeadlyExportErrorD2Ev) #17
          to label %unreachable unwind label %lpad30

lpad26:                                           ; preds = %if.then21
  %20 = landingpad { ptr, i32 }
          cleanup
  %21 = extractvalue { ptr, i32 } %20, 0
  store ptr %21, ptr %exn.slot, align 8
  %22 = extractvalue { ptr, i32 } %20, 1
  store i32 %22, ptr %ehselector.slot, align 4
  br label %ehcleanup35

lpad28:                                           ; preds = %invoke.cont27
  %23 = landingpad { ptr, i32 }
          cleanup
  %24 = extractvalue { ptr, i32 } %23, 0
  store ptr %24, ptr %exn.slot, align 8
  %25 = extractvalue { ptr, i32 } %23, 1
  store i32 %25, ptr %ehselector.slot, align 4
  br label %ehcleanup34

lpad30:                                           ; preds = %invoke.cont31, %invoke.cont29
  %26 = landingpad { ptr, i32 }
          cleanup
  %27 = extractvalue { ptr, i32 } %26, 0
  store ptr %27, ptr %exn.slot, align 8
  %28 = extractvalue { ptr, i32 } %26, 1
  store i32 %28, ptr %ehselector.slot, align 4
  call void @_ZNSt7__cxx1112basic_stringIcSt11char_traitsIcESaIcEED1Ev(ptr noundef nonnull align 8 dereferenceable(32) %ref.tmp23) #6
  br label %ehcleanup34

ehcleanup34:                                      ; preds = %lpad30, %lpad28
  call void @_ZNSt7__cxx1112basic_stringIcSt11char_traitsIcESaIcEED1Ev(ptr noundef nonnull align 8 dereferenceable(32) %ref.tmp24) #6
  br label %ehcleanup35

ehcleanup35:                                      ; preds = %ehcleanup34, %lpad26
  call void @_ZNSaIcED1Ev(ptr noundef nonnull align 1 dereferenceable(1) %ref.tmp25) #6
  %cleanup.is_active37 = load i1, ptr %cleanup.isactive32, align 1
  br i1 %cleanup.is_active37, label %cleanup.action38, label %cleanup.done39

cleanup.action38:                                 ; preds = %ehcleanup35
  call void @__cxa_free_exception(ptr %exception22) #6
  br label %cleanup.done39

cleanup.done39:                                   ; preds = %cleanup.action38, %ehcleanup35
  br label %ehcleanup59

if.end40:                                         ; preds = %invoke.cont18
  %call41 = call noundef ptr @_ZNKSt10unique_ptrIN6Assimp8IOStreamESt14default_deleteIS1_EEptEv(ptr noundef nonnull align 8 dereferenceable(8) %outfile) #6
  %mOutput43 = getelementptr inbounds %"class.Assimp::ObjExporter", ptr %exporter, i32 0, i32 0
  invoke void @_ZNKSt7__cxx1119basic_ostringstreamIcSt11char_traitsIcESaIcEE3strEv(ptr sret(%"class.std::__cxx11::basic_string") align 8 %ref.tmp42, ptr noundef nonnull align 8 dereferenceable(112) %mOutput43)
          to label %invoke.cont45 unwind label %lpad44

invoke.cont45:                                    ; preds = %if.end40
  %call46 = call noundef ptr @_ZNKSt7__cxx1112basic_stringIcSt11char_traitsIcESaIcEE5c_strEv(ptr noundef nonnull align 8 dereferenceable(32) %ref.tmp42) #6
  %mOutput48 = getelementptr inbounds %"class.Assimp::ObjExporter", ptr %exporter, i32 0, i32 0
  %call51 = invoke { i64, i64 } @_ZNSo5tellpEv(ptr noundef nonnull align 8 dereferenceable(8) %mOutput48)
          to label %invoke.cont50 unwind label %lpad49

invoke.cont50:                                    ; preds = %invoke.cont45
  %29 = getelementptr inbounds { i64, i64 }, ptr %ref.tmp47, i32 0, i32 0
  %30 = extractvalue { i64, i64 } %call51, 0
  store i64 %30, ptr %29, align 8
  %31 = getelementptr inbounds { i64, i64 }, ptr %ref.tmp47, i32 0, i32 1
  %32 = extractvalue { i64, i64 } %call51, 1
  store i64 %32, ptr %31, align 8
  %call53 = invoke noundef i64 @_ZNKSt4fposI11__mbstate_tEcvlEv(ptr noundef nonnull align 8 dereferenceable(16) %ref.tmp47)
          to label %invoke.cont52 unwind label %lpad49

invoke.cont52:                                    ; preds = %invoke.cont50
  %vtable54 = load ptr, ptr %call41, align 8
  %vfn55 = getelementptr inbounds ptr, ptr %vtable54, i64 3
  %33 = load ptr, ptr %vfn55, align 8
  %call57 = invoke noundef i64 %33(ptr noundef nonnull align 8 dereferenceable(8) %call41, ptr noundef %call46, i64 noundef %call53, i64 noundef 1)
          to label %invoke.cont56 unwind label %lpad49

invoke.cont56:                                    ; preds = %invoke.cont52
  call void @_ZNSt7__cxx1112basic_stringIcSt11char_traitsIcESaIcEED1Ev(ptr noundef nonnull align 8 dereferenceable(32) %ref.tmp42) #6
  call void @_ZNSt10unique_ptrIN6Assimp8IOStreamESt14default_deleteIS1_EED2Ev(ptr noundef nonnull align 8 dereferenceable(8) %outfile) #6
  call void @_ZN6Assimp11ObjExporterD1Ev(ptr noundef nonnull align 8 dereferenceable(1120) %exporter) #6
  ret void

lpad44:                                           ; preds = %if.end40
  %34 = landingpad { ptr, i32 }
          cleanup
  %35 = extractvalue { ptr, i32 } %34, 0
  store ptr %35, ptr %exn.slot, align 8
  %36 = extractvalue { ptr, i32 } %34, 1
  store i32 %36, ptr %ehselector.slot, align 4
  br label %ehcleanup59

lpad49:                                           ; preds = %invoke.cont52, %invoke.cont50, %invoke.cont45
  %37 = landingpad { ptr, i32 }
          cleanup
  %38 = extractvalue { ptr, i32 } %37, 0
  store ptr %38, ptr %exn.slot, align 8
  %39 = extractvalue { ptr, i32 } %37, 1
  store i32 %39, ptr %ehselector.slot, align 4
  call void @_ZNSt7__cxx1112basic_stringIcSt11char_traitsIcESaIcEED1Ev(ptr noundef nonnull align 8 dereferenceable(32) %ref.tmp42) #6
  br label %ehcleanup59

ehcleanup59:                                      ; preds = %lpad49, %lpad44, %cleanup.done39
  call void @_ZNSt10unique_ptrIN6Assimp8IOStreamESt14default_deleteIS1_EED2Ev(ptr noundef nonnull align 8 dereferenceable(8) %outfile) #6
  br label %ehcleanup60

ehcleanup60:                                      ; preds = %ehcleanup59, %cleanup.done, %lpad
  call void @_ZN6Assimp11ObjExporterD1Ev(ptr noundef nonnull align 8 dereferenceable(1120) %exporter) #6
  br label %eh.resume

eh.resume:                                        ; preds = %ehcleanup60
  %exn = load ptr, ptr %exn.slot, align 8
  %sel = load i32, ptr %ehselector.slot, align 4
  %lpad.val = insertvalue { ptr, i32 } poison, ptr %exn, 0
  %lpad.val61 = insertvalue { ptr, i32 } %lpad.val, i32 %sel, 1
  resume { ptr, i32 } %lpad.val61

unreachable:                                      ; preds = %invoke.cont31, %invoke.cont14
  unreachable
}

; Function Attrs: uwtable
define internal void @__cxx_global_var_init() #5 section ".text.startup" personality ptr @__gxx_personality_v0 {
entry:
  %ref.tmp = alloca %"class.std::allocator.0", align 1
  %exn.slot = alloca ptr, align 8
  %ehselector.slot = alloca i32, align 4
  call void @_ZNSaIcEC1Ev(ptr noundef nonnull align 1 dereferenceable(1) %ref.tmp) #6
  invoke void @_ZNSt7__cxx1112basic_stringIcSt11char_traitsIcESaIcEEC2IS3_EEPKcRKS3_(ptr noundef nonnull align 8 dereferenceable(32) @_ZL11MaterialExtB5cxx11, ptr noundef @.str.4, ptr noundef nonnull align 1 dereferenceable(1) %ref.tmp)
          to label %invoke.cont unwind label %lpad

invoke.cont:                                      ; preds = %entry
  call void @_ZNSaIcED1Ev(ptr noundef nonnull align 1 dereferenceable(1) %ref.tmp) #6
  %0 = call i32 @__cxa_atexit(ptr @_ZNSt7__cxx1112basic_stringIcSt11char_traitsIcESaIcEED1Ev, ptr @_ZL11MaterialExtB5cxx11, ptr @__dso_handle) #6
  ret void

lpad:                                             ; preds = %entry
  %1 = landingpad { ptr, i32 }
          cleanup
  %2 = extractvalue { ptr, i32 } %1, 0
  store ptr %2, ptr %exn.slot, align 8
  %3 = extractvalue { ptr, i32 } %1, 1
  store i32 %3, ptr %ehselector.slot, align 4
  call void @_ZNSaIcED1Ev(ptr noundef nonnull align 1 dereferenceable(1) %ref.tmp) #6
  br label %eh.resume

eh.resume:                                        ; preds = %lpad
  %exn = load ptr, ptr %exn.slot, align 8
  %sel = load i32, ptr %ehselector.slot, align 4
  %lpad.val = insertvalue { ptr, i32 } poison, ptr %exn, 0
  %lpad.val1 = insertvalue { ptr, i32 } %lpad.val, i32 %sel, 1
  resume { ptr, i32 } %lpad.val1
}

; Function Attrs: nounwind
declare i32 @__cxa_atexit(ptr, ptr, ptr) #6

; Function Attrs: mustprogress uwtable
define hidden void @_ZN6Assimp11ObjExporterC2EPKcPK7aiSceneb(ptr noundef nonnull align 8 dereferenceable(1120) %this, ptr noundef %_filename, ptr noundef %pScene, i1 noundef zeroext %noMtl) unnamed_addr #2 align 2 personality ptr @__gxx_personality_v0 {
entry:
  %this.addr = alloca ptr, align 8
  %_filename.addr = alloca ptr, align 8
  %pScene.addr = alloca ptr, align 8
  %noMtl.addr = alloca i8, align 1
  %exn.slot = alloca ptr, align 8
  %ehselector.slot = alloca i32, align 4
  %ref.tmp = alloca %"class.std::allocator.0", align 1
  %ref.tmp11 = alloca %"class.std::allocator.0", align 1
  %l = alloca ptr, align 8
  %ref.tmp14 = alloca %"class.std::locale", align 8
  %agg.tmp.ensured = alloca %"class.std::locale", align 8
  %agg.tmp.ensured26 = alloca %"class.std::locale", align 8
  store ptr %this, ptr %this.addr, align 8
  store ptr %_filename, ptr %_filename.addr, align 8
  store ptr %pScene, ptr %pScene.addr, align 8
  %frombool = zext i1 %noMtl to i8
  store i8 %frombool, ptr %noMtl.addr, align 1
  %this1 = load ptr, ptr %this.addr, align 8
  %mOutput = getelementptr inbounds %"class.Assimp::ObjExporter", ptr %this1, i32 0, i32 0
  call void @_ZNSt7__cxx1119basic_ostringstreamIcSt11char_traitsIcESaIcEEC1Ev(ptr noundef nonnull align 8 dereferenceable(112) %mOutput)
  %mOutputMat = getelementptr inbounds %"class.Assimp::ObjExporter", ptr %this1, i32 0, i32 1
  invoke void @_ZNSt7__cxx1119basic_ostringstreamIcSt11char_traitsIcESaIcEEC1Ev(ptr noundef nonnull align 8 dereferenceable(112) %mOutputMat)
          to label %invoke.cont unwind label %lpad

invoke.cont:                                      ; preds = %entry
  %filename = getelementptr inbounds %"class.Assimp::ObjExporter", ptr %this1, i32 0, i32 2
  %0 = load ptr, ptr %_filename.addr, align 8
  call void @_ZNSaIcEC1Ev(ptr noundef nonnull align 1 dereferenceable(1) %ref.tmp) #6
  invoke void @_ZNSt7__cxx1112basic_stringIcSt11char_traitsIcESaIcEEC2IS3_EEPKcRKS3_(ptr noundef nonnull align 8 dereferenceable(32) %filename, ptr noundef %0, ptr noundef nonnull align 1 dereferenceable(1) %ref.tmp)
          to label %invoke.cont3 unwind label %lpad2

invoke.cont3:                                     ; preds = %invoke.cont
  call void @_ZNSaIcED1Ev(ptr noundef nonnull align 1 dereferenceable(1) %ref.tmp) #6
  %pScene4 = getelementptr inbounds %"class.Assimp::ObjExporter", ptr %this1, i32 0, i32 3
  %1 = load ptr, ptr %pScene.addr, align 8
  store ptr %1, ptr %pScene4, align 8
  %vn = getelementptr inbounds %"class.Assimp::ObjExporter", ptr %this1, i32 0, i32 4
  call void @llvm.memset.p0.i64(ptr align 8 %vn, i8 0, i64 24, i1 false)
  call void @_ZNSt6vectorI10aiVector3tIfESaIS1_EEC2Ev(ptr noundef nonnull align 8 dereferenceable(24) %vn) #6
  %vt = getelementptr inbounds %"class.Assimp::ObjExporter", ptr %this1, i32 0, i32 5
  call void @llvm.memset.p0.i64(ptr align 8 %vt, i8 0, i64 24, i1 false)
  call void @_ZNSt6vectorI10aiVector3tIfESaIS1_EEC2Ev(ptr noundef nonnull align 8 dereferenceable(24) %vt) #6
  %vc = getelementptr inbounds %"class.Assimp::ObjExporter", ptr %this1, i32 0, i32 6
  call void @_ZNSt6vectorI9aiColor4tIfESaIS1_EEC2Ev(ptr noundef nonnull align 8 dereferenceable(24) %vc) #6
  %vp = getelementptr inbounds %"class.Assimp::ObjExporter", ptr %this1, i32 0, i32 7
  call void @llvm.memset.p0.i64(ptr align 8 %vp, i8 0, i64 24, i1 false)
  call void @_ZNSt6vectorIN6Assimp11ObjExporter10vertexDataESaIS2_EEC2Ev(ptr noundef nonnull align 8 dereferenceable(24) %vp) #6
  %useVc = getelementptr inbounds %"class.Assimp::ObjExporter", ptr %this1, i32 0, i32 8
  store i8 0, ptr %useVc, align 8
  %mVnMap = getelementptr inbounds %"class.Assimp::ObjExporter", ptr %this1, i32 0, i32 9
  invoke void @_ZN6Assimp11ObjExporter8indexMapI10aiVector3tIfENS0_15aiVectorCompareEEC2Ev(ptr noundef nonnull align 8 dereferenceable(56) %mVnMap)
          to label %invoke.cont6 unwind label %lpad5

invoke.cont6:                                     ; preds = %invoke.cont3
  %mVtMap = getelementptr inbounds %"class.Assimp::ObjExporter", ptr %this1, i32 0, i32 10
  invoke void @_ZN6Assimp11ObjExporter8indexMapI10aiVector3tIfENS0_15aiVectorCompareEEC2Ev(ptr noundef nonnull align 8 dereferenceable(56) %mVtMap)
          to label %invoke.cont8 unwind label %lpad7

invoke.cont8:                                     ; preds = %invoke.cont6
  %mVpMap = getelementptr inbounds %"class.Assimp::ObjExporter", ptr %this1, i32 0, i32 11
  invoke void @_ZN6Assimp11ObjExporter8indexMapINS0_10vertexDataENS0_17vertexDataCompareEEC2Ev(ptr noundef nonnull align 8 dereferenceable(56) %mVpMap)
          to label %invoke.cont10 unwind label %lpad9

invoke.cont10:                                    ; preds = %invoke.cont8
  %mMeshes = getelementptr inbounds %"class.Assimp::ObjExporter", ptr %this1, i32 0, i32 12
  call void @llvm.memset.p0.i64(ptr align 8 %mMeshes, i8 0, i64 24, i1 false)
  call void @_ZNSt6vectorIN6Assimp11ObjExporter12MeshInstanceESaIS2_EEC2Ev(ptr noundef nonnull align 8 dereferenceable(24) %mMeshes) #6
  %endl = getelementptr inbounds %"class.Assimp::ObjExporter", ptr %this1, i32 0, i32 13
  call void @_ZNSaIcEC1Ev(ptr noundef nonnull align 1 dereferenceable(1) %ref.tmp11) #6
  invoke void @_ZNSt7__cxx1112basic_stringIcSt11char_traitsIcESaIcEEC2IS3_EEPKcRKS3_(ptr noundef nonnull align 8 dereferenceable(32) %endl, ptr noundef @.str.5, ptr noundef nonnull align 1 dereferenceable(1) %ref.tmp11)
          to label %invoke.cont13 unwind label %lpad12

invoke.cont13:                                    ; preds = %invoke.cont10
  call void @_ZNSaIcED1Ev(ptr noundef nonnull align 1 dereferenceable(1) %ref.tmp11) #6
  invoke void @_ZNSt6localeC1EPKc(ptr noundef nonnull align 8 dereferenceable(8) %ref.tmp14, ptr noundef @.str.6)
          to label %invoke.cont16 unwind label %lpad15

invoke.cont16:                                    ; preds = %invoke.cont13
  store ptr %ref.tmp14, ptr %l, align 8
  %mOutput17 = getelementptr inbounds %"class.Assimp::ObjExporter", ptr %this1, i32 0, i32 0
  %vtable = load ptr, ptr %mOutput17, align 8
  %vbase.offset.ptr = getelementptr i8, ptr %vtable, i64 -24
  %vbase.offset = load i64, ptr %vbase.offset.ptr, align 8
  %add.ptr = getelementptr inbounds i8, ptr %mOutput17, i64 %vbase.offset
  %2 = load ptr, ptr %l, align 8
  invoke void @_ZNSt9basic_iosIcSt11char_traitsIcEE5imbueERKSt6locale(ptr sret(%"class.std::locale") align 8 %agg.tmp.ensured, ptr noundef nonnull align 8 dereferenceable(264) %add.ptr, ptr noundef nonnull align 8 dereferenceable(8) %2)
          to label %invoke.cont19 unwind label %lpad18

invoke.cont19:                                    ; preds = %invoke.cont16
  call void @_ZNSt6localeD1Ev(ptr noundef nonnull align 8 dereferenceable(8) %agg.tmp.ensured) #6
  %mOutput20 = getelementptr inbounds %"class.Assimp::ObjExporter", ptr %this1, i32 0, i32 0
  %vtable21 = load ptr, ptr %mOutput20, align 8
  %vbase.offset.ptr22 = getelementptr i8, ptr %vtable21, i64 -24
  %vbase.offset23 = load i64, ptr %vbase.offset.ptr22, align 8
  %add.ptr24 = getelementptr inbounds i8, ptr %mOutput20, i64 %vbase.offset23
  %call = invoke noundef i64 @_ZNSt8ios_base9precisionEl(ptr noundef nonnull align 8 dereferenceable(216) %add.ptr24, i64 noundef 9)
          to label %invoke.cont25 unwind label %lpad18

invoke.cont25:                                    ; preds = %invoke.cont19
  %mOutputMat27 = getelementptr inbounds %"class.Assimp::ObjExporter", ptr %this1, i32 0, i32 1
  %vtable28 = load ptr, ptr %mOutputMat27, align 8
  %vbase.offset.ptr29 = getelementptr i8, ptr %vtable28, i64 -24
  %vbase.offset30 = load i64, ptr %vbase.offset.ptr29, align 8
  %add.ptr31 = getelementptr inbounds i8, ptr %mOutputMat27, i64 %vbase.offset30
  %3 = load ptr, ptr %l, align 8
  invoke void @_ZNSt9basic_iosIcSt11char_traitsIcEE5imbueERKSt6locale(ptr sret(%"class.std::locale") align 8 %agg.tmp.ensured26, ptr noundef nonnull align 8 dereferenceable(264) %add.ptr31, ptr noundef nonnull align 8 dereferenceable(8) %3)
          to label %invoke.cont32 unwind label %lpad18

invoke.cont32:                                    ; preds = %invoke.cont25
  call void @_ZNSt6localeD1Ev(ptr noundef nonnull align 8 dereferenceable(8) %agg.tmp.ensured26) #6
  %mOutputMat33 = getelementptr inbounds %"class.Assimp::ObjExporter", ptr %this1, i32 0, i32 1
  %vtable34 = load ptr, ptr %mOutputMat33, align 8
  %vbase.offset.ptr35 = getelementptr i8, ptr %vtable34, i64 -24
  %vbase.offset36 = load i64, ptr %vbase.offset.ptr35, align 8
  %add.ptr37 = getelementptr inbounds i8, ptr %mOutputMat33, i64 %vbase.offset36
  %call39 = invoke noundef i64 @_ZNSt8ios_base9precisionEl(ptr noundef nonnull align 8 dereferenceable(216) %add.ptr37, i64 noundef 9)
          to label %invoke.cont38 unwind label %lpad18

invoke.cont38:                                    ; preds = %invoke.cont32
  %4 = load i8, ptr %noMtl.addr, align 1
  %tobool = trunc i8 %4 to i1
  invoke void @_ZN6Assimp11ObjExporter17WriteGeometryFileEb(ptr noundef nonnull align 8 dereferenceable(1120) %this1, i1 noundef zeroext %tobool)
          to label %invoke.cont40 unwind label %lpad18

invoke.cont40:                                    ; preds = %invoke.cont38
  %5 = load i8, ptr %noMtl.addr, align 1
  %tobool41 = trunc i8 %5 to i1
  br i1 %tobool41, label %if.end, label %if.then

if.then:                                          ; preds = %invoke.cont40
  invoke void @_ZN6Assimp11ObjExporter17WriteMaterialFileEv(ptr noundef nonnull align 8 dereferenceable(1120) %this1)
          to label %invoke.cont42 unwind label %lpad18

invoke.cont42:                                    ; preds = %if.then
  br label %if.end

lpad:                                             ; preds = %entry
  %6 = landingpad { ptr, i32 }
          cleanup
  %7 = extractvalue { ptr, i32 } %6, 0
  store ptr %7, ptr %exn.slot, align 8
  %8 = extractvalue { ptr, i32 } %6, 1
  store i32 %8, ptr %ehselector.slot, align 4
  br label %ehcleanup53

lpad2:                                            ; preds = %invoke.cont
  %9 = landingpad { ptr, i32 }
          cleanup
  %10 = extractvalue { ptr, i32 } %9, 0
  store ptr %10, ptr %exn.slot, align 8
  %11 = extractvalue { ptr, i32 } %9, 1
  store i32 %11, ptr %ehselector.slot, align 4
  call void @_ZNSaIcED1Ev(ptr noundef nonnull align 1 dereferenceable(1) %ref.tmp) #6
  br label %ehcleanup52

lpad5:                                            ; preds = %invoke.cont3
  %12 = landingpad { ptr, i32 }
          cleanup
  %13 = extractvalue { ptr, i32 } %12, 0
  store ptr %13, ptr %exn.slot, align 8
  %14 = extractvalue { ptr, i32 } %12, 1
  store i32 %14, ptr %ehselector.slot, align 4
  br label %ehcleanup47

lpad7:                                            ; preds = %invoke.cont6
  %15 = landingpad { ptr, i32 }
          cleanup
  %16 = extractvalue { ptr, i32 } %15, 0
  store ptr %16, ptr %exn.slot, align 8
  %17 = extractvalue { ptr, i32 } %15, 1
  store i32 %17, ptr %ehselector.slot, align 4
  br label %ehcleanup46

lpad9:                                            ; preds = %invoke.cont8
  %18 = landingpad { ptr, i32 }
          cleanup
  %19 = extractvalue { ptr, i32 } %18, 0
  store ptr %19, ptr %exn.slot, align 8
  %20 = extractvalue { ptr, i32 } %18, 1
  store i32 %20, ptr %ehselector.slot, align 4
  br label %ehcleanup45

lpad12:                                           ; preds = %invoke.cont10
  %21 = landingpad { ptr, i32 }
          cleanup
  %22 = extractvalue { ptr, i32 } %21, 0
  store ptr %22, ptr %exn.slot, align 8
  %23 = extractvalue { ptr, i32 } %21, 1
  store i32 %23, ptr %ehselector.slot, align 4
  call void @_ZNSaIcED1Ev(ptr noundef nonnull align 1 dereferenceable(1) %ref.tmp11) #6
  br label %ehcleanup43

lpad15:                                           ; preds = %invoke.cont13
  %24 = landingpad { ptr, i32 }
          cleanup
  %25 = extractvalue { ptr, i32 } %24, 0
  store ptr %25, ptr %exn.slot, align 8
  %26 = extractvalue { ptr, i32 } %24, 1
  store i32 %26, ptr %ehselector.slot, align 4
  br label %ehcleanup

lpad18:                                           ; preds = %if.then, %invoke.cont38, %invoke.cont32, %invoke.cont25, %invoke.cont19, %invoke.cont16
  %27 = landingpad { ptr, i32 }
          cleanup
  %28 = extractvalue { ptr, i32 } %27, 0
  store ptr %28, ptr %exn.slot, align 8
  %29 = extractvalue { ptr, i32 } %27, 1
  store i32 %29, ptr %ehselector.slot, align 4
  call void @_ZNSt6localeD1Ev(ptr noundef nonnull align 8 dereferenceable(8) %ref.tmp14) #6
  br label %ehcleanup

if.end:                                           ; preds = %invoke.cont42, %invoke.cont40
  call void @_ZNSt6localeD1Ev(ptr noundef nonnull align 8 dereferenceable(8) %ref.tmp14) #6
  ret void

ehcleanup:                                        ; preds = %lpad18, %lpad15
  call void @_ZNSt7__cxx1112basic_stringIcSt11char_traitsIcESaIcEED1Ev(ptr noundef nonnull align 8 dereferenceable(32) %endl) #6
  br label %ehcleanup43

ehcleanup43:                                      ; preds = %ehcleanup, %lpad12
  call void @_ZNSt6vectorIN6Assimp11ObjExporter12MeshInstanceESaIS2_EED2Ev(ptr noundef nonnull align 8 dereferenceable(24) %mMeshes) #6
  call void @_ZN6Assimp11ObjExporter8indexMapINS0_10vertexDataENS0_17vertexDataCompareEED2Ev(ptr noundef nonnull align 8 dereferenceable(56) %mVpMap) #6
  br label %ehcleanup45

ehcleanup45:                                      ; preds = %ehcleanup43, %lpad9
  call void @_ZN6Assimp11ObjExporter8indexMapI10aiVector3tIfENS0_15aiVectorCompareEED2Ev(ptr noundef nonnull align 8 dereferenceable(56) %mVtMap) #6
  br label %ehcleanup46

ehcleanup46:                                      ; preds = %ehcleanup45, %lpad7
  call void @_ZN6Assimp11ObjExporter8indexMapI10aiVector3tIfENS0_15aiVectorCompareEED2Ev(ptr noundef nonnull align 8 dereferenceable(56) %mVnMap) #6
  br label %ehcleanup47

ehcleanup47:                                      ; preds = %ehcleanup46, %lpad5
  call void @_ZNSt6vectorIN6Assimp11ObjExporter10vertexDataESaIS2_EED2Ev(ptr noundef nonnull align 8 dereferenceable(24) %vp) #6
  call void @_ZNSt6vectorI9aiColor4tIfESaIS1_EED2Ev(ptr noundef nonnull align 8 dereferenceable(24) %vc) #6
  call void @_ZNSt6vectorI10aiVector3tIfESaIS1_EED2Ev(ptr noundef nonnull align 8 dereferenceable(24) %vt) #6
  call void @_ZNSt6vectorI10aiVector3tIfESaIS1_EED2Ev(ptr noundef nonnull align 8 dereferenceable(24) %vn) #6
  call void @_ZNSt7__cxx1112basic_stringIcSt11char_traitsIcESaIcEED1Ev(ptr noundef nonnull align 8 dereferenceable(32) %filename) #6
  br label %ehcleanup52

ehcleanup52:                                      ; preds = %ehcleanup47, %lpad2
  call void @_ZNSt7__cxx1119basic_ostringstreamIcSt11char_traitsIcESaIcEED1Ev(ptr noundef nonnull align 8 dereferenceable(112) %mOutputMat) #6
  br label %ehcleanup53

ehcleanup53:                                      ; preds = %ehcleanup52, %lpad
  call void @_ZNSt7__cxx1119basic_ostringstreamIcSt11char_traitsIcESaIcEED1Ev(ptr noundef nonnull align 8 dereferenceable(112) %mOutput) #6
  br label %eh.resume

eh.resume:                                        ; preds = %ehcleanup53
  %exn = load ptr, ptr %exn.slot, align 8
  %sel = load i32, ptr %ehselector.slot, align 4
  %lpad.val = insertvalue { ptr, i32 } poison, ptr %exn, 0
  %lpad.val54 = insertvalue { ptr, i32 } %lpad.val, i32 %sel, 1
  resume { ptr, i32 } %lpad.val54
}

declare void @_ZNSt7__cxx1119basic_ostringstreamIcSt11char_traitsIcESaIcEEC1Ev(ptr noundef nonnull align 8 dereferenceable(112)) unnamed_addr #3

; Function Attrs: nocallback nofree nounwind willreturn memory(argmem: write)
declare void @llvm.memset.p0.i64(ptr nocapture writeonly, i8, i64, i1 immarg) #7

; Function Attrs: mustprogress nounwind uwtable
define linkonce_odr hidden void @_ZNSt6vectorI10aiVector3tIfESaIS1_EEC2Ev(ptr noundef nonnull align 8 dereferenceable(24) %this) unnamed_addr #0 comdat align 2 {
entry:
  %this.addr = alloca ptr, align 8
  store ptr %this, ptr %this.addr, align 8
  %this1 = load ptr, ptr %this.addr, align 8
  call void @_ZNSt12_Vector_baseI10aiVector3tIfESaIS1_EEC2Ev(ptr noundef nonnull align 8 dereferenceable(24) %this1) #6
  ret void
}

; Function Attrs: mustprogress nounwind uwtable
define linkonce_odr hidden void @_ZNSt6vectorI9aiColor4tIfESaIS1_EEC2Ev(ptr noundef nonnull align 8 dereferenceable(24) %this) unnamed_addr #0 comdat align 2 {
entry:
  %this.addr = alloca ptr, align 8
  store ptr %this, ptr %this.addr, align 8
  %this1 = load ptr, ptr %this.addr, align 8
  call void @_ZNSt12_Vector_baseI9aiColor4tIfESaIS1_EEC2Ev(ptr noundef nonnull align 8 dereferenceable(24) %this1) #6
  ret void
}

; Function Attrs: mustprogress nounwind uwtable
define linkonce_odr hidden void @_ZNSt6vectorIN6Assimp11ObjExporter10vertexDataESaIS2_EEC2Ev(ptr noundef nonnull align 8 dereferenceable(24) %this) unnamed_addr #0 comdat align 2 {
entry:
  %this.addr = alloca ptr, align 8
  store ptr %this, ptr %this.addr, align 8
  %this1 = load ptr, ptr %this.addr, align 8
  call void @_ZNSt12_Vector_baseIN6Assimp11ObjExporter10vertexDataESaIS2_EEC2Ev(ptr noundef nonnull align 8 dereferenceable(24) %this1) #6
  ret void
}

; Function Attrs: mustprogress nounwind uwtable
define linkonce_odr hidden void @_ZN6Assimp11ObjExporter8indexMapI10aiVector3tIfENS0_15aiVectorCompareEEC2Ev(ptr noundef nonnull align 8 dereferenceable(56) %this) unnamed_addr #0 comdat align 2 {
entry:
  %this.addr = alloca ptr, align 8
  store ptr %this, ptr %this.addr, align 8
  %this1 = load ptr, ptr %this.addr, align 8
  %mNextIndex = getelementptr inbounds %"class.Assimp::ObjExporter::indexMap", ptr %this1, i32 0, i32 0
  store i32 1, ptr %mNextIndex, align 8
  %vecMap = getelementptr inbounds %"class.Assimp::ObjExporter::indexMap", ptr %this1, i32 0, i32 1
  call void @_ZNSt3mapI10aiVector3tIfEiN6Assimp11ObjExporter15aiVectorCompareESaISt4pairIKS1_iEEEC2Ev(ptr noundef nonnull align 8 dereferenceable(48) %vecMap) #6
  ret void
}

; Function Attrs: mustprogress nounwind uwtable
define linkonce_odr hidden void @_ZN6Assimp11ObjExporter8indexMapINS0_10vertexDataENS0_17vertexDataCompareEEC2Ev(ptr noundef nonnull align 8 dereferenceable(56) %this) unnamed_addr #0 comdat align 2 {
entry:
  %this.addr = alloca ptr, align 8
  store ptr %this, ptr %this.addr, align 8
  %this1 = load ptr, ptr %this.addr, align 8
  %mNextIndex = getelementptr inbounds %"class.Assimp::ObjExporter::indexMap.21", ptr %this1, i32 0, i32 0
  store i32 1, ptr %mNextIndex, align 8
  %vecMap = getelementptr inbounds %"class.Assimp::ObjExporter::indexMap.21", ptr %this1, i32 0, i32 1
  call void @_ZNSt3mapIN6Assimp11ObjExporter10vertexDataEiNS1_17vertexDataCompareESaISt4pairIKS2_iEEEC2Ev(ptr noundef nonnull align 8 dereferenceable(48) %vecMap) #6
  ret void
}

; Function Attrs: mustprogress nounwind uwtable
define linkonce_odr hidden void @_ZNSt6vectorIN6Assimp11ObjExporter12MeshInstanceESaIS2_EEC2Ev(ptr noundef nonnull align 8 dereferenceable(24) %this) unnamed_addr #0 comdat align 2 {
entry:
  %this.addr = alloca ptr, align 8
  store ptr %this, ptr %this.addr, align 8
  %this1 = load ptr, ptr %this.addr, align 8
  call void @_ZNSt12_Vector_baseIN6Assimp11ObjExporter12MeshInstanceESaIS2_EEC2Ev(ptr noundef nonnull align 8 dereferenceable(24) %this1) #6
  ret void
}

declare void @_ZNSt6localeC1EPKc(ptr noundef nonnull align 8 dereferenceable(8), ptr noundef) unnamed_addr #3

declare void @_ZNSt9basic_iosIcSt11char_traitsIcEE5imbueERKSt6locale(ptr sret(%"class.std::locale") align 8, ptr noundef nonnull align 8 dereferenceable(264), ptr noundef nonnull align 8 dereferenceable(8)) #3

; Function Attrs: nounwind
declare void @_ZNSt6localeD1Ev(ptr noundef nonnull align 8 dereferenceable(8)) unnamed_addr #4

; Function Attrs: mustprogress nounwind uwtable
define linkonce_odr noundef i64 @_ZNSt8ios_base9precisionEl(ptr noundef nonnull align 8 dereferenceable(216) %this, i64 noundef %__prec) #0 comdat align 2 {
entry:
  %this.addr = alloca ptr, align 8
  %__prec.addr = alloca i64, align 8
  %__old = alloca i64, align 8
  store ptr %this, ptr %this.addr, align 8
  store i64 %__prec, ptr %__prec.addr, align 8
  %this1 = load ptr, ptr %this.addr, align 8
  %_M_precision = getelementptr inbounds %"class.std::ios_base", ptr %this1, i32 0, i32 1
  %0 = load i64, ptr %_M_precision, align 8
  store i64 %0, ptr %__old, align 8
  %1 = load i64, ptr %__prec.addr, align 8
  %_M_precision2 = getelementptr inbounds %"class.std::ios_base", ptr %this1, i32 0, i32 1
  store i64 %1, ptr %_M_precision2, align 8
  %2 = load i64, ptr %__old, align 8
  ret i64 %2
}

; Function Attrs: mustprogress uwtable
define hidden void @_ZN6Assimp11ObjExporter17WriteGeometryFileEb(ptr noundef nonnull align 8 dereferenceable(1120) %this, i1 noundef zeroext %noMtl) #2 align 2 personality ptr @__gxx_personality_v0 {
entry:
  %this.addr = alloca ptr, align 8
  %noMtl.addr = alloca i8, align 1
  %ref.tmp = alloca %"class.std::__cxx11::basic_string", align 8
  %exn.slot = alloca ptr, align 8
  %ehselector.slot = alloca i32, align 4
  %mBase = alloca %class.aiMatrix4x4t, align 4
  %__range2 = alloca ptr, align 8
  %__begin2 = alloca %"class.__gnu_cxx::__normal_iterator", align 8
  %__end2 = alloca %"class.__gnu_cxx::__normal_iterator", align 8
  %v = alloca ptr, align 8
  %__range246 = alloca ptr, align 8
  %__begin248 = alloca %"class.__gnu_cxx::__normal_iterator", align 8
  %__end251 = alloca %"class.__gnu_cxx::__normal_iterator", align 8
  %v57 = alloca ptr, align 8
  %__range1 = alloca ptr, align 8
  %__begin1 = alloca %"class.__gnu_cxx::__normal_iterator.37", align 8
  %__end1 = alloca %"class.__gnu_cxx::__normal_iterator.37", align 8
  %v105 = alloca ptr, align 8
  %__range1133 = alloca ptr, align 8
  %__begin1135 = alloca %"class.__gnu_cxx::__normal_iterator.37", align 8
  %__end1138 = alloca %"class.__gnu_cxx::__normal_iterator.37", align 8
  %v144 = alloca ptr, align 8
  %__range1164 = alloca ptr, align 8
  %__begin1165 = alloca %"class.__gnu_cxx::__normal_iterator.38", align 8
  %__end1168 = alloca %"class.__gnu_cxx::__normal_iterator.38", align 8
  %m = alloca ptr, align 8
  %__range2202 = alloca ptr, align 8
  %__begin2204 = alloca %"class.__gnu_cxx::__normal_iterator.44", align 8
  %__end2207 = alloca %"class.__gnu_cxx::__normal_iterator.44", align 8
  %f = alloca ptr, align 8
  %__range3 = alloca ptr, align 8
  %__begin3 = alloca %"class.__gnu_cxx::__normal_iterator.50", align 8
  %__end3 = alloca %"class.__gnu_cxx::__normal_iterator.50", align 8
  %fv = alloca ptr, align 8
  store ptr %this, ptr %this.addr, align 8
  %frombool = zext i1 %noMtl to i8
  store i8 %frombool, ptr %noMtl.addr, align 1
  %this1 = load ptr, ptr %this.addr, align 8
  %mOutput = getelementptr inbounds %"class.Assimp::ObjExporter", ptr %this1, i32 0, i32 0
  call void @_ZN6Assimp11ObjExporter11WriteHeaderERNSt7__cxx1119basic_ostringstreamIcSt11char_traitsIcESaIcEEE(ptr noundef nonnull align 8 dereferenceable(1120) %this1, ptr noundef nonnull align 8 dereferenceable(112) %mOutput)
  %0 = load i8, ptr %noMtl.addr, align 1
  %tobool = trunc i8 %0 to i1
  br i1 %tobool, label %if.end, label %if.then

if.then:                                          ; preds = %entry
  %mOutput2 = getelementptr inbounds %"class.Assimp::ObjExporter", ptr %this1, i32 0, i32 0
  %call = call noundef nonnull align 8 dereferenceable(8) ptr @_ZStlsISt11char_traitsIcEERSt13basic_ostreamIcT_ES5_PKc(ptr noundef nonnull align 8 dereferenceable(8) %mOutput2, ptr noundef @.str.40)
  call void @_ZN6Assimp11ObjExporter18GetMaterialLibNameB5cxx11Ev(ptr sret(%"class.std::__cxx11::basic_string") align 8 %ref.tmp, ptr noundef nonnull align 8 dereferenceable(1120) %this1)
  %call3 = invoke noundef nonnull align 8 dereferenceable(8) ptr @_ZStlsIcSt11char_traitsIcESaIcEERSt13basic_ostreamIT_T0_ES7_RKNSt7__cxx1112basic_stringIS4_S5_T1_EE(ptr noundef nonnull align 8 dereferenceable(8) %call, ptr noundef nonnull align 8 dereferenceable(32) %ref.tmp)
          to label %invoke.cont unwind label %lpad

invoke.cont:                                      ; preds = %if.then
  %endl = getelementptr inbounds %"class.Assimp::ObjExporter", ptr %this1, i32 0, i32 13
  %call5 = invoke noundef nonnull align 8 dereferenceable(8) ptr @_ZStlsIcSt11char_traitsIcESaIcEERSt13basic_ostreamIT_T0_ES7_RKNSt7__cxx1112basic_stringIS4_S5_T1_EE(ptr noundef nonnull align 8 dereferenceable(8) %call3, ptr noundef nonnull align 8 dereferenceable(32) %endl)
          to label %invoke.cont4 unwind label %lpad

invoke.cont4:                                     ; preds = %invoke.cont
  %endl6 = getelementptr inbounds %"class.Assimp::ObjExporter", ptr %this1, i32 0, i32 13
  %call8 = invoke noundef nonnull align 8 dereferenceable(8) ptr @_ZStlsIcSt11char_traitsIcESaIcEERSt13basic_ostreamIT_T0_ES7_RKNSt7__cxx1112basic_stringIS4_S5_T1_EE(ptr noundef nonnull align 8 dereferenceable(8) %call5, ptr noundef nonnull align 8 dereferenceable(32) %endl6)
          to label %invoke.cont7 unwind label %lpad

invoke.cont7:                                     ; preds = %invoke.cont4
  call void @_ZNSt7__cxx1112basic_stringIcSt11char_traitsIcESaIcEED1Ev(ptr noundef nonnull align 8 dereferenceable(32) %ref.tmp) #6
  br label %if.end

lpad:                                             ; preds = %invoke.cont4, %invoke.cont, %if.then
  %1 = landingpad { ptr, i32 }
          cleanup
  %2 = extractvalue { ptr, i32 } %1, 0
  store ptr %2, ptr %exn.slot, align 8
  %3 = extractvalue { ptr, i32 } %1, 1
  store i32 %3, ptr %ehselector.slot, align 4
  call void @_ZNSt7__cxx1112basic_stringIcSt11char_traitsIcESaIcEED1Ev(ptr noundef nonnull align 8 dereferenceable(32) %ref.tmp) #6
  br label %eh.resume

if.end:                                           ; preds = %invoke.cont7, %entry
  call void @_ZN12aiMatrix4x4tIfEC2Ev(ptr noundef nonnull align 4 dereferenceable(64) %mBase) #6
  %pScene = getelementptr inbounds %"class.Assimp::ObjExporter", ptr %this1, i32 0, i32 3
  %4 = load ptr, ptr %pScene, align 8
  %mRootNode = getelementptr inbounds %struct.aiScene, ptr %4, i32 0, i32 1
  %5 = load ptr, ptr %mRootNode, align 8
  call void @_ZN6Assimp11ObjExporter7AddNodeEPK6aiNodeRK12aiMatrix4x4tIfE(ptr noundef nonnull align 8 dereferenceable(1120) %this1, ptr noundef %5, ptr noundef nonnull align 4 dereferenceable(64) %mBase)
  %mVpMap = getelementptr inbounds %"class.Assimp::ObjExporter", ptr %this1, i32 0, i32 11
  %vp = getelementptr inbounds %"class.Assimp::ObjExporter", ptr %this1, i32 0, i32 7
  call void @_ZN6Assimp11ObjExporter8indexMapINS0_10vertexDataENS0_17vertexDataCompareEE7getKeysERSt6vectorIS2_SaIS2_EE(ptr noundef nonnull align 8 dereferenceable(56) %mVpMap, ptr noundef nonnull align 8 dereferenceable(24) %vp)
  %useVc = getelementptr inbounds %"class.Assimp::ObjExporter", ptr %this1, i32 0, i32 8
  %6 = load i8, ptr %useVc, align 8
  %tobool9 = trunc i8 %6 to i1
  br i1 %tobool9, label %if.else, label %if.then10

if.then10:                                        ; preds = %if.end
  %mOutput11 = getelementptr inbounds %"class.Assimp::ObjExporter", ptr %this1, i32 0, i32 0
  %call12 = call noundef nonnull align 8 dereferenceable(8) ptr @_ZStlsISt11char_traitsIcEERSt13basic_ostreamIcT_ES5_PKc(ptr noundef nonnull align 8 dereferenceable(8) %mOutput11, ptr noundef @.str.41)
  %vp13 = getelementptr inbounds %"class.Assimp::ObjExporter", ptr %this1, i32 0, i32 7
  %call14 = call noundef i64 @_ZNKSt6vectorIN6Assimp11ObjExporter10vertexDataESaIS2_EE4sizeEv(ptr noundef nonnull align 8 dereferenceable(24) %vp13) #6
  %call15 = call noundef nonnull align 8 dereferenceable(8) ptr @_ZNSolsEm(ptr noundef nonnull align 8 dereferenceable(8) %call12, i64 noundef %call14)
  %call16 = call noundef nonnull align 8 dereferenceable(8) ptr @_ZStlsISt11char_traitsIcEERSt13basic_ostreamIcT_ES5_PKc(ptr noundef nonnull align 8 dereferenceable(8) %call15, ptr noundef @.str.42)
  %endl17 = getelementptr inbounds %"class.Assimp::ObjExporter", ptr %this1, i32 0, i32 13
  %call18 = call noundef nonnull align 8 dereferenceable(8) ptr @_ZStlsIcSt11char_traitsIcESaIcEERSt13basic_ostreamIT_T0_ES7_RKNSt7__cxx1112basic_stringIS4_S5_T1_EE(ptr noundef nonnull align 8 dereferenceable(8) %call16, ptr noundef nonnull align 8 dereferenceable(32) %endl17)
  %vp19 = getelementptr inbounds %"class.Assimp::ObjExporter", ptr %this1, i32 0, i32 7
  store ptr %vp19, ptr %__range2, align 8
  %7 = load ptr, ptr %__range2, align 8
  %call20 = call ptr @_ZNSt6vectorIN6Assimp11ObjExporter10vertexDataESaIS2_EE5beginEv(ptr noundef nonnull align 8 dereferenceable(24) %7) #6
  %coerce.dive = getelementptr inbounds %"class.__gnu_cxx::__normal_iterator", ptr %__begin2, i32 0, i32 0
  store ptr %call20, ptr %coerce.dive, align 8
  %8 = load ptr, ptr %__range2, align 8
  %call21 = call ptr @_ZNSt6vectorIN6Assimp11ObjExporter10vertexDataESaIS2_EE3endEv(ptr noundef nonnull align 8 dereferenceable(24) %8) #6
  %coerce.dive22 = getelementptr inbounds %"class.__gnu_cxx::__normal_iterator", ptr %__end2, i32 0, i32 0
  store ptr %call21, ptr %coerce.dive22, align 8
  br label %for.cond

for.cond:                                         ; preds = %for.inc, %if.then10
  %call23 = call noundef zeroext i1 @_ZN9__gnu_cxxneIPN6Assimp11ObjExporter10vertexDataESt6vectorIS3_SaIS3_EEEEbRKNS_17__normal_iteratorIT_T0_EESD_(ptr noundef nonnull align 8 dereferenceable(8) %__begin2, ptr noundef nonnull align 8 dereferenceable(8) %__end2) #6
  br i1 %call23, label %for.body, label %for.end

for.body:                                         ; preds = %for.cond
  %call24 = call noundef nonnull align 4 dereferenceable(24) ptr @_ZNK9__gnu_cxx17__normal_iteratorIPN6Assimp11ObjExporter10vertexDataESt6vectorIS3_SaIS3_EEEdeEv(ptr noundef nonnull align 8 dereferenceable(8) %__begin2) #6
  store ptr %call24, ptr %v, align 8
  %mOutput25 = getelementptr inbounds %"class.Assimp::ObjExporter", ptr %this1, i32 0, i32 0
  %call26 = call noundef nonnull align 8 dereferenceable(8) ptr @_ZStlsISt11char_traitsIcEERSt13basic_ostreamIcT_ES5_PKc(ptr noundef nonnull align 8 dereferenceable(8) %mOutput25, ptr noundef @.str.43)
  %9 = load ptr, ptr %v, align 8
  %vp27 = getelementptr inbounds %"struct.Assimp::ObjExporter::vertexData", ptr %9, i32 0, i32 0
  %x = getelementptr inbounds %class.aiVector3t, ptr %vp27, i32 0, i32 0
  %10 = load float, ptr %x, align 4
  %call28 = call noundef nonnull align 8 dereferenceable(8) ptr @_ZNSolsEf(ptr noundef nonnull align 8 dereferenceable(8) %call26, float noundef %10)
  %call29 = call noundef nonnull align 8 dereferenceable(8) ptr @_ZStlsISt11char_traitsIcEERSt13basic_ostreamIcT_ES5_PKc(ptr noundef nonnull align 8 dereferenceable(8) %call28, ptr noundef @.str.16)
  %11 = load ptr, ptr %v, align 8
  %vp30 = getelementptr inbounds %"struct.Assimp::ObjExporter::vertexData", ptr %11, i32 0, i32 0
  %y = getelementptr inbounds %class.aiVector3t, ptr %vp30, i32 0, i32 1
  %12 = load float, ptr %y, align 4
  %call31 = call noundef nonnull align 8 dereferenceable(8) ptr @_ZNSolsEf(ptr noundef nonnull align 8 dereferenceable(8) %call29, float noundef %12)
  %call32 = call noundef nonnull align 8 dereferenceable(8) ptr @_ZStlsISt11char_traitsIcEERSt13basic_ostreamIcT_ES5_PKc(ptr noundef nonnull align 8 dereferenceable(8) %call31, ptr noundef @.str.16)
  %13 = load ptr, ptr %v, align 8
  %vp33 = getelementptr inbounds %"struct.Assimp::ObjExporter::vertexData", ptr %13, i32 0, i32 0
  %z = getelementptr inbounds %class.aiVector3t, ptr %vp33, i32 0, i32 2
  %14 = load float, ptr %z, align 4
  %call34 = call noundef nonnull align 8 dereferenceable(8) ptr @_ZNSolsEf(ptr noundef nonnull align 8 dereferenceable(8) %call32, float noundef %14)
  %endl35 = getelementptr inbounds %"class.Assimp::ObjExporter", ptr %this1, i32 0, i32 13
  %call36 = call noundef nonnull align 8 dereferenceable(8) ptr @_ZStlsIcSt11char_traitsIcESaIcEERSt13basic_ostreamIT_T0_ES7_RKNSt7__cxx1112basic_stringIS4_S5_T1_EE(ptr noundef nonnull align 8 dereferenceable(8) %call34, ptr noundef nonnull align 8 dereferenceable(32) %endl35)
  br label %for.inc

for.inc:                                          ; preds = %for.body
  %call37 = call noundef nonnull align 8 dereferenceable(8) ptr @_ZN9__gnu_cxx17__normal_iteratorIPN6Assimp11ObjExporter10vertexDataESt6vectorIS3_SaIS3_EEEppEv(ptr noundef nonnull align 8 dereferenceable(8) %__begin2) #6
  br label %for.cond

for.end:                                          ; preds = %for.cond
  br label %if.end85

if.else:                                          ; preds = %if.end
  %mOutput38 = getelementptr inbounds %"class.Assimp::ObjExporter", ptr %this1, i32 0, i32 0
  %call39 = call noundef nonnull align 8 dereferenceable(8) ptr @_ZStlsISt11char_traitsIcEERSt13basic_ostreamIcT_ES5_PKc(ptr noundef nonnull align 8 dereferenceable(8) %mOutput38, ptr noundef @.str.41)
  %vp40 = getelementptr inbounds %"class.Assimp::ObjExporter", ptr %this1, i32 0, i32 7
  %call41 = call noundef i64 @_ZNKSt6vectorIN6Assimp11ObjExporter10vertexDataESaIS2_EE4sizeEv(ptr noundef nonnull align 8 dereferenceable(24) %vp40) #6
  %call42 = call noundef nonnull align 8 dereferenceable(8) ptr @_ZNSolsEm(ptr noundef nonnull align 8 dereferenceable(8) %call39, i64 noundef %call41)
  %call43 = call noundef nonnull align 8 dereferenceable(8) ptr @_ZStlsISt11char_traitsIcEERSt13basic_ostreamIcT_ES5_PKc(ptr noundef nonnull align 8 dereferenceable(8) %call42, ptr noundef @.str.44)
  %endl44 = getelementptr inbounds %"class.Assimp::ObjExporter", ptr %this1, i32 0, i32 13
  %call45 = call noundef nonnull align 8 dereferenceable(8) ptr @_ZStlsIcSt11char_traitsIcESaIcEERSt13basic_ostreamIT_T0_ES7_RKNSt7__cxx1112basic_stringIS4_S5_T1_EE(ptr noundef nonnull align 8 dereferenceable(8) %call43, ptr noundef nonnull align 8 dereferenceable(32) %endl44)
  %vp47 = getelementptr inbounds %"class.Assimp::ObjExporter", ptr %this1, i32 0, i32 7
  store ptr %vp47, ptr %__range246, align 8
  %15 = load ptr, ptr %__range246, align 8
  %call49 = call ptr @_ZNSt6vectorIN6Assimp11ObjExporter10vertexDataESaIS2_EE5beginEv(ptr noundef nonnull align 8 dereferenceable(24) %15) #6
  %coerce.dive50 = getelementptr inbounds %"class.__gnu_cxx::__normal_iterator", ptr %__begin248, i32 0, i32 0
  store ptr %call49, ptr %coerce.dive50, align 8
  %16 = load ptr, ptr %__range246, align 8
  %call52 = call ptr @_ZNSt6vectorIN6Assimp11ObjExporter10vertexDataESaIS2_EE3endEv(ptr noundef nonnull align 8 dereferenceable(24) %16) #6
  %coerce.dive53 = getelementptr inbounds %"class.__gnu_cxx::__normal_iterator", ptr %__end251, i32 0, i32 0
  store ptr %call52, ptr %coerce.dive53, align 8
  br label %for.cond54

for.cond54:                                       ; preds = %for.inc82, %if.else
  %call55 = call noundef zeroext i1 @_ZN9__gnu_cxxneIPN6Assimp11ObjExporter10vertexDataESt6vectorIS3_SaIS3_EEEEbRKNS_17__normal_iteratorIT_T0_EESD_(ptr noundef nonnull align 8 dereferenceable(8) %__begin248, ptr noundef nonnull align 8 dereferenceable(8) %__end251) #6
  br i1 %call55, label %for.body56, label %for.end84

for.body56:                                       ; preds = %for.cond54
  %call58 = call noundef nonnull align 4 dereferenceable(24) ptr @_ZNK9__gnu_cxx17__normal_iteratorIPN6Assimp11ObjExporter10vertexDataESt6vectorIS3_SaIS3_EEEdeEv(ptr noundef nonnull align 8 dereferenceable(8) %__begin248) #6
  store ptr %call58, ptr %v57, align 8
  %mOutput59 = getelementptr inbounds %"class.Assimp::ObjExporter", ptr %this1, i32 0, i32 0
  %call60 = call noundef nonnull align 8 dereferenceable(8) ptr @_ZStlsISt11char_traitsIcEERSt13basic_ostreamIcT_ES5_PKc(ptr noundef nonnull align 8 dereferenceable(8) %mOutput59, ptr noundef @.str.43)
  %17 = load ptr, ptr %v57, align 8
  %vp61 = getelementptr inbounds %"struct.Assimp::ObjExporter::vertexData", ptr %17, i32 0, i32 0
  %x62 = getelementptr inbounds %class.aiVector3t, ptr %vp61, i32 0, i32 0
  %18 = load float, ptr %x62, align 4
  %call63 = call noundef nonnull align 8 dereferenceable(8) ptr @_ZNSolsEf(ptr noundef nonnull align 8 dereferenceable(8) %call60, float noundef %18)
  %call64 = call noundef nonnull align 8 dereferenceable(8) ptr @_ZStlsISt11char_traitsIcEERSt13basic_ostreamIcT_ES5_PKc(ptr noundef nonnull align 8 dereferenceable(8) %call63, ptr noundef @.str.16)
  %19 = load ptr, ptr %v57, align 8
  %vp65 = getelementptr inbounds %"struct.Assimp::ObjExporter::vertexData", ptr %19, i32 0, i32 0
  %y66 = getelementptr inbounds %class.aiVector3t, ptr %vp65, i32 0, i32 1
  %20 = load float, ptr %y66, align 4
  %call67 = call noundef nonnull align 8 dereferenceable(8) ptr @_ZNSolsEf(ptr noundef nonnull align 8 dereferenceable(8) %call64, float noundef %20)
  %call68 = call noundef nonnull align 8 dereferenceable(8) ptr @_ZStlsISt11char_traitsIcEERSt13basic_ostreamIcT_ES5_PKc(ptr noundef nonnull align 8 dereferenceable(8) %call67, ptr noundef @.str.16)
  %21 = load ptr, ptr %v57, align 8
  %vp69 = getelementptr inbounds %"struct.Assimp::ObjExporter::vertexData", ptr %21, i32 0, i32 0
  %z70 = getelementptr inbounds %class.aiVector3t, ptr %vp69, i32 0, i32 2
  %22 = load float, ptr %z70, align 4
  %call71 = call noundef nonnull align 8 dereferenceable(8) ptr @_ZNSolsEf(ptr noundef nonnull align 8 dereferenceable(8) %call68, float noundef %22)
  %call72 = call noundef nonnull align 8 dereferenceable(8) ptr @_ZStlsISt11char_traitsIcEERSt13basic_ostreamIcT_ES5_PKc(ptr noundef nonnull align 8 dereferenceable(8) %call71, ptr noundef @.str.16)
  %23 = load ptr, ptr %v57, align 8
  %vc = getelementptr inbounds %"struct.Assimp::ObjExporter::vertexData", ptr %23, i32 0, i32 1
  %r = getelementptr inbounds %struct.aiColor3D, ptr %vc, i32 0, i32 0
  %24 = load float, ptr %r, align 4
  %call73 = call noundef nonnull align 8 dereferenceable(8) ptr @_ZNSolsEf(ptr noundef nonnull align 8 dereferenceable(8) %call72, float noundef %24)
  %call74 = call noundef nonnull align 8 dereferenceable(8) ptr @_ZStlsISt11char_traitsIcEERSt13basic_ostreamIcT_ES5_PKc(ptr noundef nonnull align 8 dereferenceable(8) %call73, ptr noundef @.str.16)
  %25 = load ptr, ptr %v57, align 8
  %vc75 = getelementptr inbounds %"struct.Assimp::ObjExporter::vertexData", ptr %25, i32 0, i32 1
  %g = getelementptr inbounds %struct.aiColor3D, ptr %vc75, i32 0, i32 1
  %26 = load float, ptr %g, align 4
  %call76 = call noundef nonnull align 8 dereferenceable(8) ptr @_ZNSolsEf(ptr noundef nonnull align 8 dereferenceable(8) %call74, float noundef %26)
  %call77 = call noundef nonnull align 8 dereferenceable(8) ptr @_ZStlsISt11char_traitsIcEERSt13basic_ostreamIcT_ES5_PKc(ptr noundef nonnull align 8 dereferenceable(8) %call76, ptr noundef @.str.16)
  %27 = load ptr, ptr %v57, align 8
  %vc78 = getelementptr inbounds %"struct.Assimp::ObjExporter::vertexData", ptr %27, i32 0, i32 1
  %b = getelementptr inbounds %struct.aiColor3D, ptr %vc78, i32 0, i32 2
  %28 = load float, ptr %b, align 4
  %call79 = call noundef nonnull align 8 dereferenceable(8) ptr @_ZNSolsEf(ptr noundef nonnull align 8 dereferenceable(8) %call77, float noundef %28)
  %endl80 = getelementptr inbounds %"class.Assimp::ObjExporter", ptr %this1, i32 0, i32 13
  %call81 = call noundef nonnull align 8 dereferenceable(8) ptr @_ZStlsIcSt11char_traitsIcESaIcEERSt13basic_ostreamIT_T0_ES7_RKNSt7__cxx1112basic_stringIS4_S5_T1_EE(ptr noundef nonnull align 8 dereferenceable(8) %call79, ptr noundef nonnull align 8 dereferenceable(32) %endl80)
  br label %for.inc82

for.inc82:                                        ; preds = %for.body56
  %call83 = call noundef nonnull align 8 dereferenceable(8) ptr @_ZN9__gnu_cxx17__normal_iteratorIPN6Assimp11ObjExporter10vertexDataESt6vectorIS3_SaIS3_EEEppEv(ptr noundef nonnull align 8 dereferenceable(8) %__begin248) #6
  br label %for.cond54

for.end84:                                        ; preds = %for.cond54
  br label %if.end85

if.end85:                                         ; preds = %for.end84, %for.end
  %mOutput86 = getelementptr inbounds %"class.Assimp::ObjExporter", ptr %this1, i32 0, i32 0
  %endl87 = getelementptr inbounds %"class.Assimp::ObjExporter", ptr %this1, i32 0, i32 13
  %call88 = call noundef nonnull align 8 dereferenceable(8) ptr @_ZStlsIcSt11char_traitsIcESaIcEERSt13basic_ostreamIT_T0_ES7_RKNSt7__cxx1112basic_stringIS4_S5_T1_EE(ptr noundef nonnull align 8 dereferenceable(8) %mOutput86, ptr noundef nonnull align 8 dereferenceable(32) %endl87)
  %mVtMap = getelementptr inbounds %"class.Assimp::ObjExporter", ptr %this1, i32 0, i32 10
  %vt = getelementptr inbounds %"class.Assimp::ObjExporter", ptr %this1, i32 0, i32 5
  call void @_ZN6Assimp11ObjExporter8indexMapI10aiVector3tIfENS0_15aiVectorCompareEE7getKeysERSt6vectorIS3_SaIS3_EE(ptr noundef nonnull align 8 dereferenceable(56) %mVtMap, ptr noundef nonnull align 8 dereferenceable(24) %vt)
  %mOutput89 = getelementptr inbounds %"class.Assimp::ObjExporter", ptr %this1, i32 0, i32 0
  %call90 = call noundef nonnull align 8 dereferenceable(8) ptr @_ZStlsISt11char_traitsIcEERSt13basic_ostreamIcT_ES5_PKc(ptr noundef nonnull align 8 dereferenceable(8) %mOutput89, ptr noundef @.str.41)
  %vt91 = getelementptr inbounds %"class.Assimp::ObjExporter", ptr %this1, i32 0, i32 5
  %call92 = call noundef i64 @_ZNKSt6vectorI10aiVector3tIfESaIS1_EE4sizeEv(ptr noundef nonnull align 8 dereferenceable(24) %vt91) #6
  %call93 = call noundef nonnull align 8 dereferenceable(8) ptr @_ZNSolsEm(ptr noundef nonnull align 8 dereferenceable(8) %call90, i64 noundef %call92)
  %call94 = call noundef nonnull align 8 dereferenceable(8) ptr @_ZStlsISt11char_traitsIcEERSt13basic_ostreamIcT_ES5_PKc(ptr noundef nonnull align 8 dereferenceable(8) %call93, ptr noundef @.str.45)
  %endl95 = getelementptr inbounds %"class.Assimp::ObjExporter", ptr %this1, i32 0, i32 13
  %call96 = call noundef nonnull align 8 dereferenceable(8) ptr @_ZStlsIcSt11char_traitsIcESaIcEERSt13basic_ostreamIT_T0_ES7_RKNSt7__cxx1112basic_stringIS4_S5_T1_EE(ptr noundef nonnull align 8 dereferenceable(8) %call94, ptr noundef nonnull align 8 dereferenceable(32) %endl95)
  %vt97 = getelementptr inbounds %"class.Assimp::ObjExporter", ptr %this1, i32 0, i32 5
  store ptr %vt97, ptr %__range1, align 8
  %29 = load ptr, ptr %__range1, align 8
  %call98 = call ptr @_ZNSt6vectorI10aiVector3tIfESaIS1_EE5beginEv(ptr noundef nonnull align 8 dereferenceable(24) %29) #6
  %coerce.dive99 = getelementptr inbounds %"class.__gnu_cxx::__normal_iterator.37", ptr %__begin1, i32 0, i32 0
  store ptr %call98, ptr %coerce.dive99, align 8
  %30 = load ptr, ptr %__range1, align 8
  %call100 = call ptr @_ZNSt6vectorI10aiVector3tIfESaIS1_EE3endEv(ptr noundef nonnull align 8 dereferenceable(24) %30) #6
  %coerce.dive101 = getelementptr inbounds %"class.__gnu_cxx::__normal_iterator.37", ptr %__end1, i32 0, i32 0
  store ptr %call100, ptr %coerce.dive101, align 8
  br label %for.cond102

for.cond102:                                      ; preds = %for.inc119, %if.end85
  %call103 = call noundef zeroext i1 @_ZN9__gnu_cxxneIP10aiVector3tIfESt6vectorIS2_SaIS2_EEEEbRKNS_17__normal_iteratorIT_T0_EESC_(ptr noundef nonnull align 8 dereferenceable(8) %__begin1, ptr noundef nonnull align 8 dereferenceable(8) %__end1) #6
  br i1 %call103, label %for.body104, label %for.end121

for.body104:                                      ; preds = %for.cond102
  %call106 = call noundef nonnull align 4 dereferenceable(12) ptr @_ZNK9__gnu_cxx17__normal_iteratorIP10aiVector3tIfESt6vectorIS2_SaIS2_EEEdeEv(ptr noundef nonnull align 8 dereferenceable(8) %__begin1) #6
  store ptr %call106, ptr %v105, align 8
  %mOutput107 = getelementptr inbounds %"class.Assimp::ObjExporter", ptr %this1, i32 0, i32 0
  %call108 = call noundef nonnull align 8 dereferenceable(8) ptr @_ZStlsISt11char_traitsIcEERSt13basic_ostreamIcT_ES5_PKc(ptr noundef nonnull align 8 dereferenceable(8) %mOutput107, ptr noundef @.str.46)
  %31 = load ptr, ptr %v105, align 8
  %x109 = getelementptr inbounds %class.aiVector3t, ptr %31, i32 0, i32 0
  %32 = load float, ptr %x109, align 4
  %call110 = call noundef nonnull align 8 dereferenceable(8) ptr @_ZNSolsEf(ptr noundef nonnull align 8 dereferenceable(8) %call108, float noundef %32)
  %call111 = call noundef nonnull align 8 dereferenceable(8) ptr @_ZStlsISt11char_traitsIcEERSt13basic_ostreamIcT_ES5_PKc(ptr noundef nonnull align 8 dereferenceable(8) %call110, ptr noundef @.str.16)
  %33 = load ptr, ptr %v105, align 8
  %y112 = getelementptr inbounds %class.aiVector3t, ptr %33, i32 0, i32 1
  %34 = load float, ptr %y112, align 4
  %call113 = call noundef nonnull align 8 dereferenceable(8) ptr @_ZNSolsEf(ptr noundef nonnull align 8 dereferenceable(8) %call111, float noundef %34)
  %call114 = call noundef nonnull align 8 dereferenceable(8) ptr @_ZStlsISt11char_traitsIcEERSt13basic_ostreamIcT_ES5_PKc(ptr noundef nonnull align 8 dereferenceable(8) %call113, ptr noundef @.str.16)
  %35 = load ptr, ptr %v105, align 8
  %z115 = getelementptr inbounds %class.aiVector3t, ptr %35, i32 0, i32 2
  %36 = load float, ptr %z115, align 4
  %call116 = call noundef nonnull align 8 dereferenceable(8) ptr @_ZNSolsEf(ptr noundef nonnull align 8 dereferenceable(8) %call114, float noundef %36)
  %endl117 = getelementptr inbounds %"class.Assimp::ObjExporter", ptr %this1, i32 0, i32 13
  %call118 = call noundef nonnull align 8 dereferenceable(8) ptr @_ZStlsIcSt11char_traitsIcESaIcEERSt13basic_ostreamIT_T0_ES7_RKNSt7__cxx1112basic_stringIS4_S5_T1_EE(ptr noundef nonnull align 8 dereferenceable(8) %call116, ptr noundef nonnull align 8 dereferenceable(32) %endl117)
  br label %for.inc119

for.inc119:                                       ; preds = %for.body104
  %call120 = call noundef nonnull align 8 dereferenceable(8) ptr @_ZN9__gnu_cxx17__normal_iteratorIP10aiVector3tIfESt6vectorIS2_SaIS2_EEEppEv(ptr noundef nonnull align 8 dereferenceable(8) %__begin1) #6
  br label %for.cond102

for.end121:                                       ; preds = %for.cond102
  %mOutput122 = getelementptr inbounds %"class.Assimp::ObjExporter", ptr %this1, i32 0, i32 0
  %endl123 = getelementptr inbounds %"class.Assimp::ObjExporter", ptr %this1, i32 0, i32 13
  %call124 = call noundef nonnull align 8 dereferenceable(8) ptr @_ZStlsIcSt11char_traitsIcESaIcEERSt13basic_ostreamIT_T0_ES7_RKNSt7__cxx1112basic_stringIS4_S5_T1_EE(ptr noundef nonnull align 8 dereferenceable(8) %mOutput122, ptr noundef nonnull align 8 dereferenceable(32) %endl123)
  %mVnMap = getelementptr inbounds %"class.Assimp::ObjExporter", ptr %this1, i32 0, i32 9
  %vn = getelementptr inbounds %"class.Assimp::ObjExporter", ptr %this1, i32 0, i32 4
  call void @_ZN6Assimp11ObjExporter8indexMapI10aiVector3tIfENS0_15aiVectorCompareEE7getKeysERSt6vectorIS3_SaIS3_EE(ptr noundef nonnull align 8 dereferenceable(56) %mVnMap, ptr noundef nonnull align 8 dereferenceable(24) %vn)
  %mOutput125 = getelementptr inbounds %"class.Assimp::ObjExporter", ptr %this1, i32 0, i32 0
  %call126 = call noundef nonnull align 8 dereferenceable(8) ptr @_ZStlsISt11char_traitsIcEERSt13basic_ostreamIcT_ES5_PKc(ptr noundef nonnull align 8 dereferenceable(8) %mOutput125, ptr noundef @.str.41)
  %vn127 = getelementptr inbounds %"class.Assimp::ObjExporter", ptr %this1, i32 0, i32 4
  %call128 = call noundef i64 @_ZNKSt6vectorI10aiVector3tIfESaIS1_EE4sizeEv(ptr noundef nonnull align 8 dereferenceable(24) %vn127) #6
  %call129 = call noundef nonnull align 8 dereferenceable(8) ptr @_ZNSolsEm(ptr noundef nonnull align 8 dereferenceable(8) %call126, i64 noundef %call128)
  %call130 = call noundef nonnull align 8 dereferenceable(8) ptr @_ZStlsISt11char_traitsIcEERSt13basic_ostreamIcT_ES5_PKc(ptr noundef nonnull align 8 dereferenceable(8) %call129, ptr noundef @.str.47)
  %endl131 = getelementptr inbounds %"class.Assimp::ObjExporter", ptr %this1, i32 0, i32 13
  %call132 = call noundef nonnull align 8 dereferenceable(8) ptr @_ZStlsIcSt11char_traitsIcESaIcEERSt13basic_ostreamIT_T0_ES7_RKNSt7__cxx1112basic_stringIS4_S5_T1_EE(ptr noundef nonnull align 8 dereferenceable(8) %call130, ptr noundef nonnull align 8 dereferenceable(32) %endl131)
  %vn134 = getelementptr inbounds %"class.Assimp::ObjExporter", ptr %this1, i32 0, i32 4
  store ptr %vn134, ptr %__range1133, align 8
  %37 = load ptr, ptr %__range1133, align 8
  %call136 = call ptr @_ZNSt6vectorI10aiVector3tIfESaIS1_EE5beginEv(ptr noundef nonnull align 8 dereferenceable(24) %37) #6
  %coerce.dive137 = getelementptr inbounds %"class.__gnu_cxx::__normal_iterator.37", ptr %__begin1135, i32 0, i32 0
  store ptr %call136, ptr %coerce.dive137, align 8
  %38 = load ptr, ptr %__range1133, align 8
  %call139 = call ptr @_ZNSt6vectorI10aiVector3tIfESaIS1_EE3endEv(ptr noundef nonnull align 8 dereferenceable(24) %38) #6
  %coerce.dive140 = getelementptr inbounds %"class.__gnu_cxx::__normal_iterator.37", ptr %__end1138, i32 0, i32 0
  store ptr %call139, ptr %coerce.dive140, align 8
  br label %for.cond141

for.cond141:                                      ; preds = %for.inc158, %for.end121
  %call142 = call noundef zeroext i1 @_ZN9__gnu_cxxneIP10aiVector3tIfESt6vectorIS2_SaIS2_EEEEbRKNS_17__normal_iteratorIT_T0_EESC_(ptr noundef nonnull align 8 dereferenceable(8) %__begin1135, ptr noundef nonnull align 8 dereferenceable(8) %__end1138) #6
  br i1 %call142, label %for.body143, label %for.end160

for.body143:                                      ; preds = %for.cond141
  %call145 = call noundef nonnull align 4 dereferenceable(12) ptr @_ZNK9__gnu_cxx17__normal_iteratorIP10aiVector3tIfESt6vectorIS2_SaIS2_EEEdeEv(ptr noundef nonnull align 8 dereferenceable(8) %__begin1135) #6
  store ptr %call145, ptr %v144, align 8
  %mOutput146 = getelementptr inbounds %"class.Assimp::ObjExporter", ptr %this1, i32 0, i32 0
  %call147 = call noundef nonnull align 8 dereferenceable(8) ptr @_ZStlsISt11char_traitsIcEERSt13basic_ostreamIcT_ES5_PKc(ptr noundef nonnull align 8 dereferenceable(8) %mOutput146, ptr noundef @.str.48)
  %39 = load ptr, ptr %v144, align 8
  %x148 = getelementptr inbounds %class.aiVector3t, ptr %39, i32 0, i32 0
  %40 = load float, ptr %x148, align 4
  %call149 = call noundef nonnull align 8 dereferenceable(8) ptr @_ZNSolsEf(ptr noundef nonnull align 8 dereferenceable(8) %call147, float noundef %40)
  %call150 = call noundef nonnull align 8 dereferenceable(8) ptr @_ZStlsISt11char_traitsIcEERSt13basic_ostreamIcT_ES5_PKc(ptr noundef nonnull align 8 dereferenceable(8) %call149, ptr noundef @.str.16)
  %41 = load ptr, ptr %v144, align 8
  %y151 = getelementptr inbounds %class.aiVector3t, ptr %41, i32 0, i32 1
  %42 = load float, ptr %y151, align 4
  %call152 = call noundef nonnull align 8 dereferenceable(8) ptr @_ZNSolsEf(ptr noundef nonnull align 8 dereferenceable(8) %call150, float noundef %42)
  %call153 = call noundef nonnull align 8 dereferenceable(8) ptr @_ZStlsISt11char_traitsIcEERSt13basic_ostreamIcT_ES5_PKc(ptr noundef nonnull align 8 dereferenceable(8) %call152, ptr noundef @.str.16)
  %43 = load ptr, ptr %v144, align 8
  %z154 = getelementptr inbounds %class.aiVector3t, ptr %43, i32 0, i32 2
  %44 = load float, ptr %z154, align 4
  %call155 = call noundef nonnull align 8 dereferenceable(8) ptr @_ZNSolsEf(ptr noundef nonnull align 8 dereferenceable(8) %call153, float noundef %44)
  %endl156 = getelementptr inbounds %"class.Assimp::ObjExporter", ptr %this1, i32 0, i32 13
  %call157 = call noundef nonnull align 8 dereferenceable(8) ptr @_ZStlsIcSt11char_traitsIcESaIcEERSt13basic_ostreamIT_T0_ES7_RKNSt7__cxx1112basic_stringIS4_S5_T1_EE(ptr noundef nonnull align 8 dereferenceable(8) %call155, ptr noundef nonnull align 8 dereferenceable(32) %endl156)
  br label %for.inc158

for.inc158:                                       ; preds = %for.body143
  %call159 = call noundef nonnull align 8 dereferenceable(8) ptr @_ZN9__gnu_cxx17__normal_iteratorIP10aiVector3tIfESt6vectorIS2_SaIS2_EEEppEv(ptr noundef nonnull align 8 dereferenceable(8) %__begin1135) #6
  br label %for.cond141

for.end160:                                       ; preds = %for.cond141
  %mOutput161 = getelementptr inbounds %"class.Assimp::ObjExporter", ptr %this1, i32 0, i32 0
  %endl162 = getelementptr inbounds %"class.Assimp::ObjExporter", ptr %this1, i32 0, i32 13
  %call163 = call noundef nonnull align 8 dereferenceable(8) ptr @_ZStlsIcSt11char_traitsIcESaIcEERSt13basic_ostreamIT_T0_ES7_RKNSt7__cxx1112basic_stringIS4_S5_T1_EE(ptr noundef nonnull align 8 dereferenceable(8) %mOutput161, ptr noundef nonnull align 8 dereferenceable(32) %endl162)
  %mMeshes = getelementptr inbounds %"class.Assimp::ObjExporter", ptr %this1, i32 0, i32 12
  store ptr %mMeshes, ptr %__range1164, align 8
  %45 = load ptr, ptr %__range1164, align 8
  %call166 = call ptr @_ZNSt6vectorIN6Assimp11ObjExporter12MeshInstanceESaIS2_EE5beginEv(ptr noundef nonnull align 8 dereferenceable(24) %45) #6
  %coerce.dive167 = getelementptr inbounds %"class.__gnu_cxx::__normal_iterator.38", ptr %__begin1165, i32 0, i32 0
  store ptr %call166, ptr %coerce.dive167, align 8
  %46 = load ptr, ptr %__range1164, align 8
  %call169 = call ptr @_ZNSt6vectorIN6Assimp11ObjExporter12MeshInstanceESaIS2_EE3endEv(ptr noundef nonnull align 8 dereferenceable(24) %46) #6
  %coerce.dive170 = getelementptr inbounds %"class.__gnu_cxx::__normal_iterator.38", ptr %__end1168, i32 0, i32 0
  store ptr %call169, ptr %coerce.dive170, align 8
  br label %for.cond171

for.cond171:                                      ; preds = %for.inc271, %for.end160
  %call172 = call noundef zeroext i1 @_ZN9__gnu_cxxneIPN6Assimp11ObjExporter12MeshInstanceESt6vectorIS3_SaIS3_EEEEbRKNS_17__normal_iteratorIT_T0_EESD_(ptr noundef nonnull align 8 dereferenceable(8) %__begin1165, ptr noundef nonnull align 8 dereferenceable(8) %__end1168) #6
  br i1 %call172, label %for.body173, label %for.end273

for.body173:                                      ; preds = %for.cond171
  %call174 = call noundef nonnull align 8 dereferenceable(88) ptr @_ZNK9__gnu_cxx17__normal_iteratorIPN6Assimp11ObjExporter12MeshInstanceESt6vectorIS3_SaIS3_EEEdeEv(ptr noundef nonnull align 8 dereferenceable(8) %__begin1165) #6
  store ptr %call174, ptr %m, align 8
  %mOutput175 = getelementptr inbounds %"class.Assimp::ObjExporter", ptr %this1, i32 0, i32 0
  %call176 = call noundef nonnull align 8 dereferenceable(8) ptr @_ZStlsISt11char_traitsIcEERSt13basic_ostreamIcT_ES5_PKc(ptr noundef nonnull align 8 dereferenceable(8) %mOutput175, ptr noundef @.str.49)
  %47 = load ptr, ptr %m, align 8
  %name = getelementptr inbounds %"struct.Assimp::ObjExporter::MeshInstance", ptr %47, i32 0, i32 0
  %call177 = call noundef nonnull align 8 dereferenceable(8) ptr @_ZStlsIcSt11char_traitsIcESaIcEERSt13basic_ostreamIT_T0_ES7_RKNSt7__cxx1112basic_stringIS4_S5_T1_EE(ptr noundef nonnull align 8 dereferenceable(8) %call176, ptr noundef nonnull align 8 dereferenceable(32) %name)
  %call178 = call noundef nonnull align 8 dereferenceable(8) ptr @_ZStlsISt11char_traitsIcEERSt13basic_ostreamIcT_ES5_PKc(ptr noundef nonnull align 8 dereferenceable(8) %call177, ptr noundef @.str.50)
  %48 = load ptr, ptr %m, align 8
  %faces = getelementptr inbounds %"struct.Assimp::ObjExporter::MeshInstance", ptr %48, i32 0, i32 2
  %call179 = call noundef i64 @_ZNKSt6vectorIN6Assimp11ObjExporter4FaceESaIS2_EE4sizeEv(ptr noundef nonnull align 8 dereferenceable(24) %faces) #6
  %call180 = call noundef nonnull align 8 dereferenceable(8) ptr @_ZNSolsEm(ptr noundef nonnull align 8 dereferenceable(8) %call178, i64 noundef %call179)
  %call181 = call noundef nonnull align 8 dereferenceable(8) ptr @_ZStlsISt11char_traitsIcEERSt13basic_ostreamIcT_ES5_PKc(ptr noundef nonnull align 8 dereferenceable(8) %call180, ptr noundef @.str.51)
  %endl182 = getelementptr inbounds %"class.Assimp::ObjExporter", ptr %this1, i32 0, i32 13
  %call183 = call noundef nonnull align 8 dereferenceable(8) ptr @_ZStlsIcSt11char_traitsIcESaIcEERSt13basic_ostreamIT_T0_ES7_RKNSt7__cxx1112basic_stringIS4_S5_T1_EE(ptr noundef nonnull align 8 dereferenceable(8) %call181, ptr noundef nonnull align 8 dereferenceable(32) %endl182)
  %49 = load ptr, ptr %m, align 8
  %name184 = getelementptr inbounds %"struct.Assimp::ObjExporter::MeshInstance", ptr %49, i32 0, i32 0
  %call185 = call noundef zeroext i1 @_ZNKSt7__cxx1112basic_stringIcSt11char_traitsIcESaIcEE5emptyEv(ptr noundef nonnull align 8 dereferenceable(32) %name184) #6
  br i1 %call185, label %if.end193, label %if.then186

if.then186:                                       ; preds = %for.body173
  %mOutput187 = getelementptr inbounds %"class.Assimp::ObjExporter", ptr %this1, i32 0, i32 0
  %call188 = call noundef nonnull align 8 dereferenceable(8) ptr @_ZStlsISt11char_traitsIcEERSt13basic_ostreamIcT_ES5_PKc(ptr noundef nonnull align 8 dereferenceable(8) %mOutput187, ptr noundef @.str.52)
  %50 = load ptr, ptr %m, align 8
  %name189 = getelementptr inbounds %"struct.Assimp::ObjExporter::MeshInstance", ptr %50, i32 0, i32 0
  %call190 = call noundef nonnull align 8 dereferenceable(8) ptr @_ZStlsIcSt11char_traitsIcESaIcEERSt13basic_ostreamIT_T0_ES7_RKNSt7__cxx1112basic_stringIS4_S5_T1_EE(ptr noundef nonnull align 8 dereferenceable(8) %call188, ptr noundef nonnull align 8 dereferenceable(32) %name189)
  %endl191 = getelementptr inbounds %"class.Assimp::ObjExporter", ptr %this1, i32 0, i32 13
  %call192 = call noundef nonnull align 8 dereferenceable(8) ptr @_ZStlsIcSt11char_traitsIcESaIcEERSt13basic_ostreamIT_T0_ES7_RKNSt7__cxx1112basic_stringIS4_S5_T1_EE(ptr noundef nonnull align 8 dereferenceable(8) %call190, ptr noundef nonnull align 8 dereferenceable(32) %endl191)
  br label %if.end193

if.end193:                                        ; preds = %if.then186, %for.body173
  %51 = load i8, ptr %noMtl.addr, align 1
  %tobool194 = trunc i8 %51 to i1
  br i1 %tobool194, label %if.end201, label %if.then195

if.then195:                                       ; preds = %if.end193
  %mOutput196 = getelementptr inbounds %"class.Assimp::ObjExporter", ptr %this1, i32 0, i32 0
  %call197 = call noundef nonnull align 8 dereferenceable(8) ptr @_ZStlsISt11char_traitsIcEERSt13basic_ostreamIcT_ES5_PKc(ptr noundef nonnull align 8 dereferenceable(8) %mOutput196, ptr noundef @.str.53)
  %52 = load ptr, ptr %m, align 8
  %matname = getelementptr inbounds %"struct.Assimp::ObjExporter::MeshInstance", ptr %52, i32 0, i32 1
  %call198 = call noundef nonnull align 8 dereferenceable(8) ptr @_ZStlsIcSt11char_traitsIcESaIcEERSt13basic_ostreamIT_T0_ES7_RKNSt7__cxx1112basic_stringIS4_S5_T1_EE(ptr noundef nonnull align 8 dereferenceable(8) %call197, ptr noundef nonnull align 8 dereferenceable(32) %matname)
  %endl199 = getelementptr inbounds %"class.Assimp::ObjExporter", ptr %this1, i32 0, i32 13
  %call200 = call noundef nonnull align 8 dereferenceable(8) ptr @_ZStlsIcSt11char_traitsIcESaIcEERSt13basic_ostreamIT_T0_ES7_RKNSt7__cxx1112basic_stringIS4_S5_T1_EE(ptr noundef nonnull align 8 dereferenceable(8) %call198, ptr noundef nonnull align 8 dereferenceable(32) %endl199)
  br label %if.end201

if.end201:                                        ; preds = %if.then195, %if.end193
  %53 = load ptr, ptr %m, align 8
  %faces203 = getelementptr inbounds %"struct.Assimp::ObjExporter::MeshInstance", ptr %53, i32 0, i32 2
  store ptr %faces203, ptr %__range2202, align 8
  %54 = load ptr, ptr %__range2202, align 8
  %call205 = call ptr @_ZNKSt6vectorIN6Assimp11ObjExporter4FaceESaIS2_EE5beginEv(ptr noundef nonnull align 8 dereferenceable(24) %54) #6
  %coerce.dive206 = getelementptr inbounds %"class.__gnu_cxx::__normal_iterator.44", ptr %__begin2204, i32 0, i32 0
  store ptr %call205, ptr %coerce.dive206, align 8
  %55 = load ptr, ptr %__range2202, align 8
  %call208 = call ptr @_ZNKSt6vectorIN6Assimp11ObjExporter4FaceESaIS2_EE3endEv(ptr noundef nonnull align 8 dereferenceable(24) %55) #6
  %coerce.dive209 = getelementptr inbounds %"class.__gnu_cxx::__normal_iterator.44", ptr %__end2207, i32 0, i32 0
  store ptr %call208, ptr %coerce.dive209, align 8
  br label %for.cond210

for.cond210:                                      ; preds = %for.inc265, %if.end201
  %call211 = call noundef zeroext i1 @_ZN9__gnu_cxxneIPKN6Assimp11ObjExporter4FaceESt6vectorIS3_SaIS3_EEEEbRKNS_17__normal_iteratorIT_T0_EESE_(ptr noundef nonnull align 8 dereferenceable(8) %__begin2204, ptr noundef nonnull align 8 dereferenceable(8) %__end2207) #6
  br i1 %call211, label %for.body212, label %for.end267

for.body212:                                      ; preds = %for.cond210
  %call213 = call noundef nonnull align 8 dereferenceable(32) ptr @_ZNK9__gnu_cxx17__normal_iteratorIPKN6Assimp11ObjExporter4FaceESt6vectorIS3_SaIS3_EEEdeEv(ptr noundef nonnull align 8 dereferenceable(8) %__begin2204) #6
  store ptr %call213, ptr %f, align 8
  %mOutput214 = getelementptr inbounds %"class.Assimp::ObjExporter", ptr %this1, i32 0, i32 0
  %56 = load ptr, ptr %f, align 8
  %kind = getelementptr inbounds %"struct.Assimp::ObjExporter::Face", ptr %56, i32 0, i32 0
  %57 = load i8, ptr %kind, align 8
  %call215 = call noundef nonnull align 8 dereferenceable(8) ptr @_ZStlsISt11char_traitsIcEERSt13basic_ostreamIcT_ES5_c(ptr noundef nonnull align 8 dereferenceable(8) %mOutput214, i8 noundef signext %57)
  %call216 = call noundef nonnull align 8 dereferenceable(8) ptr @_ZStlsISt11char_traitsIcEERSt13basic_ostreamIcT_ES5_c(ptr noundef nonnull align 8 dereferenceable(8) %call215, i8 noundef signext 32)
  %58 = load ptr, ptr %f, align 8
  %indices = getelementptr inbounds %"struct.Assimp::ObjExporter::Face", ptr %58, i32 0, i32 1
  store ptr %indices, ptr %__range3, align 8
  %59 = load ptr, ptr %__range3, align 8
  %call217 = call ptr @_ZNKSt6vectorIN6Assimp11ObjExporter10FaceVertexESaIS2_EE5beginEv(ptr noundef nonnull align 8 dereferenceable(24) %59) #6
  %coerce.dive218 = getelementptr inbounds %"class.__gnu_cxx::__normal_iterator.50", ptr %__begin3, i32 0, i32 0
  store ptr %call217, ptr %coerce.dive218, align 8
  %60 = load ptr, ptr %__range3, align 8
  %call219 = call ptr @_ZNKSt6vectorIN6Assimp11ObjExporter10FaceVertexESaIS2_EE3endEv(ptr noundef nonnull align 8 dereferenceable(24) %60) #6
  %coerce.dive220 = getelementptr inbounds %"class.__gnu_cxx::__normal_iterator.50", ptr %__end3, i32 0, i32 0
  store ptr %call219, ptr %coerce.dive220, align 8
  br label %for.cond221

for.cond221:                                      ; preds = %for.inc259, %for.body212
  %call222 = call noundef zeroext i1 @_ZN9__gnu_cxxneIPKN6Assimp11ObjExporter10FaceVertexESt6vectorIS3_SaIS3_EEEEbRKNS_17__normal_iteratorIT_T0_EESE_(ptr noundef nonnull align 8 dereferenceable(8) %__begin3, ptr noundef nonnull align 8 dereferenceable(8) %__end3) #6
  br i1 %call222, label %for.body223, label %for.end261

for.body223:                                      ; preds = %for.cond221
  %call224 = call noundef nonnull align 4 dereferenceable(12) ptr @_ZNK9__gnu_cxx17__normal_iteratorIPKN6Assimp11ObjExporter10FaceVertexESt6vectorIS3_SaIS3_EEEdeEv(ptr noundef nonnull align 8 dereferenceable(8) %__begin3) #6
  store ptr %call224, ptr %fv, align 8
  %mOutput225 = getelementptr inbounds %"class.Assimp::ObjExporter", ptr %this1, i32 0, i32 0
  %call226 = call noundef nonnull align 8 dereferenceable(8) ptr @_ZStlsISt11char_traitsIcEERSt13basic_ostreamIcT_ES5_c(ptr noundef nonnull align 8 dereferenceable(8) %mOutput225, i8 noundef signext 32)
  %61 = load ptr, ptr %fv, align 8
  %vp227 = getelementptr inbounds %"struct.Assimp::ObjExporter::FaceVertex", ptr %61, i32 0, i32 0
  %62 = load i32, ptr %vp227, align 4
  %call228 = call noundef nonnull align 8 dereferenceable(8) ptr @_ZNSolsEj(ptr noundef nonnull align 8 dereferenceable(8) %call226, i32 noundef %62)
  %63 = load ptr, ptr %f, align 8
  %kind229 = getelementptr inbounds %"struct.Assimp::ObjExporter::Face", ptr %63, i32 0, i32 0
  %64 = load i8, ptr %kind229, align 8
  %conv = sext i8 %64 to i32
  %cmp = icmp ne i32 %conv, 112
  br i1 %cmp, label %if.then230, label %if.end258

if.then230:                                       ; preds = %for.body223
  %65 = load ptr, ptr %fv, align 8
  %vt231 = getelementptr inbounds %"struct.Assimp::ObjExporter::FaceVertex", ptr %65, i32 0, i32 2
  %66 = load i32, ptr %vt231, align 4
  %tobool232 = icmp ne i32 %66, 0
  br i1 %tobool232, label %if.then236, label %lor.lhs.false

lor.lhs.false:                                    ; preds = %if.then230
  %67 = load ptr, ptr %f, align 8
  %kind233 = getelementptr inbounds %"struct.Assimp::ObjExporter::Face", ptr %67, i32 0, i32 0
  %68 = load i8, ptr %kind233, align 8
  %conv234 = sext i8 %68 to i32
  %cmp235 = icmp eq i32 %conv234, 102
  br i1 %cmp235, label %if.then236, label %if.end239

if.then236:                                       ; preds = %lor.lhs.false, %if.then230
  %mOutput237 = getelementptr inbounds %"class.Assimp::ObjExporter", ptr %this1, i32 0, i32 0
  %call238 = call noundef nonnull align 8 dereferenceable(8) ptr @_ZStlsISt11char_traitsIcEERSt13basic_ostreamIcT_ES5_c(ptr noundef nonnull align 8 dereferenceable(8) %mOutput237, i8 noundef signext 47)
  br label %if.end239

if.end239:                                        ; preds = %if.then236, %lor.lhs.false
  %69 = load ptr, ptr %fv, align 8
  %vt240 = getelementptr inbounds %"struct.Assimp::ObjExporter::FaceVertex", ptr %69, i32 0, i32 2
  %70 = load i32, ptr %vt240, align 4
  %tobool241 = icmp ne i32 %70, 0
  br i1 %tobool241, label %if.then242, label %if.end246

if.then242:                                       ; preds = %if.end239
  %mOutput243 = getelementptr inbounds %"class.Assimp::ObjExporter", ptr %this1, i32 0, i32 0
  %71 = load ptr, ptr %fv, align 8
  %vt244 = getelementptr inbounds %"struct.Assimp::ObjExporter::FaceVertex", ptr %71, i32 0, i32 2
  %72 = load i32, ptr %vt244, align 4
  %call245 = call noundef nonnull align 8 dereferenceable(8) ptr @_ZNSolsEj(ptr noundef nonnull align 8 dereferenceable(8) %mOutput243, i32 noundef %72)
  br label %if.end246

if.end246:                                        ; preds = %if.then242, %if.end239
  %73 = load ptr, ptr %f, align 8
  %kind247 = getelementptr inbounds %"struct.Assimp::ObjExporter::Face", ptr %73, i32 0, i32 0
  %74 = load i8, ptr %kind247, align 8
  %conv248 = sext i8 %74 to i32
  %cmp249 = icmp eq i32 %conv248, 102
  br i1 %cmp249, label %land.lhs.true, label %if.end257

land.lhs.true:                                    ; preds = %if.end246
  %75 = load ptr, ptr %fv, align 8
  %vn250 = getelementptr inbounds %"struct.Assimp::ObjExporter::FaceVertex", ptr %75, i32 0, i32 1
  %76 = load i32, ptr %vn250, align 4
  %tobool251 = icmp ne i32 %76, 0
  br i1 %tobool251, label %if.then252, label %if.end257

if.then252:                                       ; preds = %land.lhs.true
  %mOutput253 = getelementptr inbounds %"class.Assimp::ObjExporter", ptr %this1, i32 0, i32 0
  %call254 = call noundef nonnull align 8 dereferenceable(8) ptr @_ZStlsISt11char_traitsIcEERSt13basic_ostreamIcT_ES5_c(ptr noundef nonnull align 8 dereferenceable(8) %mOutput253, i8 noundef signext 47)
  %77 = load ptr, ptr %fv, align 8
  %vn255 = getelementptr inbounds %"struct.Assimp::ObjExporter::FaceVertex", ptr %77, i32 0, i32 1
  %78 = load i32, ptr %vn255, align 4
  %call256 = call noundef nonnull align 8 dereferenceable(8) ptr @_ZNSolsEj(ptr noundef nonnull align 8 dereferenceable(8) %call254, i32 noundef %78)
  br label %if.end257

if.end257:                                        ; preds = %if.then252, %land.lhs.true, %if.end246
  br label %if.end258

if.end258:                                        ; preds = %if.end257, %for.body223
  br label %for.inc259

for.inc259:                                       ; preds = %if.end258
  %call260 = call noundef nonnull align 8 dereferenceable(8) ptr @_ZN9__gnu_cxx17__normal_iteratorIPKN6Assimp11ObjExporter10FaceVertexESt6vectorIS3_SaIS3_EEEppEv(ptr noundef nonnull align 8 dereferenceable(8) %__begin3) #6
  br label %for.cond221

for.end261:                                       ; preds = %for.cond221
  %mOutput262 = getelementptr inbounds %"class.Assimp::ObjExporter", ptr %this1, i32 0, i32 0
  %endl263 = getelementptr inbounds %"class.Assimp::ObjExporter", ptr %this1, i32 0, i32 13
  %call264 = call noundef nonnull align 8 dereferenceable(8) ptr @_ZStlsIcSt11char_traitsIcESaIcEERSt13basic_ostreamIT_T0_ES7_RKNSt7__cxx1112basic_stringIS4_S5_T1_EE(ptr noundef nonnull align 8 dereferenceable(8) %mOutput262, ptr noundef nonnull align 8 dereferenceable(32) %endl263)
  br label %for.inc265

for.inc265:                                       ; preds = %for.end261
  %call266 = call noundef nonnull align 8 dereferenceable(8) ptr @_ZN9__gnu_cxx17__normal_iteratorIPKN6Assimp11ObjExporter4FaceESt6vectorIS3_SaIS3_EEEppEv(ptr noundef nonnull align 8 dereferenceable(8) %__begin2204) #6
  br label %for.cond210

for.end267:                                       ; preds = %for.cond210
  %mOutput268 = getelementptr inbounds %"class.Assimp::ObjExporter", ptr %this1, i32 0, i32 0
  %endl269 = getelementptr inbounds %"class.Assimp::ObjExporter", ptr %this1, i32 0, i32 13
  %call270 = call noundef nonnull align 8 dereferenceable(8) ptr @_ZStlsIcSt11char_traitsIcESaIcEERSt13basic_ostreamIT_T0_ES7_RKNSt7__cxx1112basic_stringIS4_S5_T1_EE(ptr noundef nonnull align 8 dereferenceable(8) %mOutput268, ptr noundef nonnull align 8 dereferenceable(32) %endl269)
  br label %for.inc271

for.inc271:                                       ; preds = %for.end267
  %call272 = call noundef nonnull align 8 dereferenceable(8) ptr @_ZN9__gnu_cxx17__normal_iteratorIPN6Assimp11ObjExporter12MeshInstanceESt6vectorIS3_SaIS3_EEEppEv(ptr noundef nonnull align 8 dereferenceable(8) %__begin1165) #6
  br label %for.cond171

for.end273:                                       ; preds = %for.cond171
  ret void

eh.resume:                                        ; preds = %lpad
  %exn = load ptr, ptr %exn.slot, align 8
  %sel = load i32, ptr %ehselector.slot, align 4
  %lpad.val = insertvalue { ptr, i32 } poison, ptr %exn, 0
  %lpad.val274 = insertvalue { ptr, i32 } %lpad.val, i32 %sel, 1
  resume { ptr, i32 } %lpad.val274
}

; Function Attrs: mustprogress uwtable
define hidden void @_ZN6Assimp11ObjExporter17WriteMaterialFileEv(ptr noundef nonnull align 8 dereferenceable(1120) %this) #2 align 2 personality ptr @__gxx_personality_v0 {
entry:
  %this.addr = alloca ptr, align 8
  %i = alloca i32, align 4
  %mat = alloca ptr, align 8
  %illum = alloca i32, align 4
  %ref.tmp = alloca %"class.std::__cxx11::basic_string", align 8
  %exn.slot = alloca ptr, align 8
  %ehselector.slot = alloca i32, align 4
  %c = alloca %class.aiColor4t, align 4
  %o = alloca float, align 4
  %s = alloca %struct.aiString, align 4
  store ptr %this, ptr %this.addr, align 8
  %this1 = load ptr, ptr %this.addr, align 8
  %mOutputMat = getelementptr inbounds %"class.Assimp::ObjExporter", ptr %this1, i32 0, i32 1
  call void @_ZN6Assimp11ObjExporter11WriteHeaderERNSt7__cxx1119basic_ostringstreamIcSt11char_traitsIcESaIcEEE(ptr noundef nonnull align 8 dereferenceable(1120) %this1, ptr noundef nonnull align 8 dereferenceable(112) %mOutputMat)
  store i32 0, ptr %i, align 4
  br label %for.cond

for.cond:                                         ; preds = %for.inc, %entry
  %0 = load i32, ptr %i, align 4
  %pScene = getelementptr inbounds %"class.Assimp::ObjExporter", ptr %this1, i32 0, i32 3
  %1 = load ptr, ptr %pScene, align 8
  %mNumMaterials = getelementptr inbounds %struct.aiScene, ptr %1, i32 0, i32 4
  %2 = load i32, ptr %mNumMaterials, align 8
  %cmp = icmp ult i32 %0, %2
  br i1 %cmp, label %for.body, label %for.end

for.body:                                         ; preds = %for.cond
  %pScene2 = getelementptr inbounds %"class.Assimp::ObjExporter", ptr %this1, i32 0, i32 3
  %3 = load ptr, ptr %pScene2, align 8
  %mMaterials = getelementptr inbounds %struct.aiScene, ptr %3, i32 0, i32 5
  %4 = load ptr, ptr %mMaterials, align 8
  %5 = load i32, ptr %i, align 4
  %idxprom = zext i32 %5 to i64
  %arrayidx = getelementptr inbounds ptr, ptr %4, i64 %idxprom
  %6 = load ptr, ptr %arrayidx, align 8
  store ptr %6, ptr %mat, align 8
  store i32 1, ptr %illum, align 4
  %mOutputMat3 = getelementptr inbounds %"class.Assimp::ObjExporter", ptr %this1, i32 0, i32 1
  %call = call noundef nonnull align 8 dereferenceable(8) ptr @_ZStlsISt11char_traitsIcEERSt13basic_ostreamIcT_ES5_PKc(ptr noundef nonnull align 8 dereferenceable(8) %mOutputMat3, ptr noundef @.str.13)
  %7 = load i32, ptr %i, align 4
  call void @_ZN6Assimp11ObjExporter15GetMaterialNameB5cxx11Ej(ptr sret(%"class.std::__cxx11::basic_string") align 8 %ref.tmp, ptr noundef nonnull align 8 dereferenceable(1120) %this1, i32 noundef %7)
  %call4 = invoke noundef nonnull align 8 dereferenceable(8) ptr @_ZStlsIcSt11char_traitsIcESaIcEERSt13basic_ostreamIT_T0_ES7_RKNSt7__cxx1112basic_stringIS4_S5_T1_EE(ptr noundef nonnull align 8 dereferenceable(8) %call, ptr noundef nonnull align 8 dereferenceable(32) %ref.tmp)
          to label %invoke.cont unwind label %lpad

invoke.cont:                                      ; preds = %for.body
  %endl = getelementptr inbounds %"class.Assimp::ObjExporter", ptr %this1, i32 0, i32 13
  %call6 = invoke noundef nonnull align 8 dereferenceable(8) ptr @_ZStlsIcSt11char_traitsIcESaIcEERSt13basic_ostreamIT_T0_ES7_RKNSt7__cxx1112basic_stringIS4_S5_T1_EE(ptr noundef nonnull align 8 dereferenceable(8) %call4, ptr noundef nonnull align 8 dereferenceable(32) %endl)
          to label %invoke.cont5 unwind label %lpad

invoke.cont5:                                     ; preds = %invoke.cont
  call void @_ZNSt7__cxx1112basic_stringIcSt11char_traitsIcESaIcEED1Ev(ptr noundef nonnull align 8 dereferenceable(32) %ref.tmp) #6
  call void @_ZN9aiColor4tIfEC2Ev(ptr noundef nonnull align 4 dereferenceable(16) %c) #6
  %8 = load ptr, ptr %mat, align 8
  %call7 = call noundef i32 @_ZNK10aiMaterial3GetEPKcjjR9aiColor4tIfE(ptr noundef nonnull align 8 dereferenceable(16) %8, ptr noundef @.str.14, i32 noundef 0, i32 noundef 0, ptr noundef nonnull align 4 dereferenceable(16) %c)
  %cmp8 = icmp eq i32 0, %call7
  br i1 %cmp8, label %if.then, label %if.end

if.then:                                          ; preds = %invoke.cont5
  %mOutputMat9 = getelementptr inbounds %"class.Assimp::ObjExporter", ptr %this1, i32 0, i32 1
  %call10 = call noundef nonnull align 8 dereferenceable(8) ptr @_ZStlsISt11char_traitsIcEERSt13basic_ostreamIcT_ES5_PKc(ptr noundef nonnull align 8 dereferenceable(8) %mOutputMat9, ptr noundef @.str.15)
  %r = getelementptr inbounds %class.aiColor4t, ptr %c, i32 0, i32 0
  %9 = load float, ptr %r, align 4
  %call11 = call noundef nonnull align 8 dereferenceable(8) ptr @_ZNSolsEf(ptr noundef nonnull align 8 dereferenceable(8) %call10, float noundef %9)
  %call12 = call noundef nonnull align 8 dereferenceable(8) ptr @_ZStlsISt11char_traitsIcEERSt13basic_ostreamIcT_ES5_PKc(ptr noundef nonnull align 8 dereferenceable(8) %call11, ptr noundef @.str.16)
  %g = getelementptr inbounds %class.aiColor4t, ptr %c, i32 0, i32 1
  %10 = load float, ptr %g, align 4
  %call13 = call noundef nonnull align 8 dereferenceable(8) ptr @_ZNSolsEf(ptr noundef nonnull align 8 dereferenceable(8) %call12, float noundef %10)
  %call14 = call noundef nonnull align 8 dereferenceable(8) ptr @_ZStlsISt11char_traitsIcEERSt13basic_ostreamIcT_ES5_PKc(ptr noundef nonnull align 8 dereferenceable(8) %call13, ptr noundef @.str.16)
  %b = getelementptr inbounds %class.aiColor4t, ptr %c, i32 0, i32 2
  %11 = load float, ptr %b, align 4
  %call15 = call noundef nonnull align 8 dereferenceable(8) ptr @_ZNSolsEf(ptr noundef nonnull align 8 dereferenceable(8) %call14, float noundef %11)
  %endl16 = getelementptr inbounds %"class.Assimp::ObjExporter", ptr %this1, i32 0, i32 13
  %call17 = call noundef nonnull align 8 dereferenceable(8) ptr @_ZStlsIcSt11char_traitsIcESaIcEERSt13basic_ostreamIT_T0_ES7_RKNSt7__cxx1112basic_stringIS4_S5_T1_EE(ptr noundef nonnull align 8 dereferenceable(8) %call15, ptr noundef nonnull align 8 dereferenceable(32) %endl16)
  br label %if.end

lpad:                                             ; preds = %invoke.cont, %for.body
  %12 = landingpad { ptr, i32 }
          cleanup
  %13 = extractvalue { ptr, i32 } %12, 0
  store ptr %13, ptr %exn.slot, align 8
  %14 = extractvalue { ptr, i32 } %12, 1
  store i32 %14, ptr %ehselector.slot, align 4
  call void @_ZNSt7__cxx1112basic_stringIcSt11char_traitsIcESaIcEED1Ev(ptr noundef nonnull align 8 dereferenceable(32) %ref.tmp) #6
  br label %eh.resume

if.end:                                           ; preds = %if.then, %invoke.cont5
  %15 = load ptr, ptr %mat, align 8
  %call18 = call noundef i32 @_ZNK10aiMaterial3GetEPKcjjR9aiColor4tIfE(ptr noundef nonnull align 8 dereferenceable(16) %15, ptr noundef @.str.17, i32 noundef 0, i32 noundef 0, ptr noundef nonnull align 4 dereferenceable(16) %c)
  %cmp19 = icmp eq i32 0, %call18
  br i1 %cmp19, label %if.then20, label %if.end33

if.then20:                                        ; preds = %if.end
  %mOutputMat21 = getelementptr inbounds %"class.Assimp::ObjExporter", ptr %this1, i32 0, i32 1
  %call22 = call noundef nonnull align 8 dereferenceable(8) ptr @_ZStlsISt11char_traitsIcEERSt13basic_ostreamIcT_ES5_PKc(ptr noundef nonnull align 8 dereferenceable(8) %mOutputMat21, ptr noundef @.str.18)
  %r23 = getelementptr inbounds %class.aiColor4t, ptr %c, i32 0, i32 0
  %16 = load float, ptr %r23, align 4
  %call24 = call noundef nonnull align 8 dereferenceable(8) ptr @_ZNSolsEf(ptr noundef nonnull align 8 dereferenceable(8) %call22, float noundef %16)
  %call25 = call noundef nonnull align 8 dereferenceable(8) ptr @_ZStlsISt11char_traitsIcEERSt13basic_ostreamIcT_ES5_PKc(ptr noundef nonnull align 8 dereferenceable(8) %call24, ptr noundef @.str.16)
  %g26 = getelementptr inbounds %class.aiColor4t, ptr %c, i32 0, i32 1
  %17 = load float, ptr %g26, align 4
  %call27 = call noundef nonnull align 8 dereferenceable(8) ptr @_ZNSolsEf(ptr noundef nonnull align 8 dereferenceable(8) %call25, float noundef %17)
  %call28 = call noundef nonnull align 8 dereferenceable(8) ptr @_ZStlsISt11char_traitsIcEERSt13basic_ostreamIcT_ES5_PKc(ptr noundef nonnull align 8 dereferenceable(8) %call27, ptr noundef @.str.16)
  %b29 = getelementptr inbounds %class.aiColor4t, ptr %c, i32 0, i32 2
  %18 = load float, ptr %b29, align 4
  %call30 = call noundef nonnull align 8 dereferenceable(8) ptr @_ZNSolsEf(ptr noundef nonnull align 8 dereferenceable(8) %call28, float noundef %18)
  %endl31 = getelementptr inbounds %"class.Assimp::ObjExporter", ptr %this1, i32 0, i32 13
  %call32 = call noundef nonnull align 8 dereferenceable(8) ptr @_ZStlsIcSt11char_traitsIcESaIcEERSt13basic_ostreamIT_T0_ES7_RKNSt7__cxx1112basic_stringIS4_S5_T1_EE(ptr noundef nonnull align 8 dereferenceable(8) %call30, ptr noundef nonnull align 8 dereferenceable(32) %endl31)
  br label %if.end33

if.end33:                                         ; preds = %if.then20, %if.end
  %19 = load ptr, ptr %mat, align 8
  %call34 = call noundef i32 @_ZNK10aiMaterial3GetEPKcjjR9aiColor4tIfE(ptr noundef nonnull align 8 dereferenceable(16) %19, ptr noundef @.str.19, i32 noundef 0, i32 noundef 0, ptr noundef nonnull align 4 dereferenceable(16) %c)
  %cmp35 = icmp eq i32 0, %call34
  br i1 %cmp35, label %if.then36, label %if.end49

if.then36:                                        ; preds = %if.end33
  %mOutputMat37 = getelementptr inbounds %"class.Assimp::ObjExporter", ptr %this1, i32 0, i32 1
  %call38 = call noundef nonnull align 8 dereferenceable(8) ptr @_ZStlsISt11char_traitsIcEERSt13basic_ostreamIcT_ES5_PKc(ptr noundef nonnull align 8 dereferenceable(8) %mOutputMat37, ptr noundef @.str.20)
  %r39 = getelementptr inbounds %class.aiColor4t, ptr %c, i32 0, i32 0
  %20 = load float, ptr %r39, align 4
  %call40 = call noundef nonnull align 8 dereferenceable(8) ptr @_ZNSolsEf(ptr noundef nonnull align 8 dereferenceable(8) %call38, float noundef %20)
  %call41 = call noundef nonnull align 8 dereferenceable(8) ptr @_ZStlsISt11char_traitsIcEERSt13basic_ostreamIcT_ES5_PKc(ptr noundef nonnull align 8 dereferenceable(8) %call40, ptr noundef @.str.16)
  %g42 = getelementptr inbounds %class.aiColor4t, ptr %c, i32 0, i32 1
  %21 = load float, ptr %g42, align 4
  %call43 = call noundef nonnull align 8 dereferenceable(8) ptr @_ZNSolsEf(ptr noundef nonnull align 8 dereferenceable(8) %call41, float noundef %21)
  %call44 = call noundef nonnull align 8 dereferenceable(8) ptr @_ZStlsISt11char_traitsIcEERSt13basic_ostreamIcT_ES5_PKc(ptr noundef nonnull align 8 dereferenceable(8) %call43, ptr noundef @.str.16)
  %b45 = getelementptr inbounds %class.aiColor4t, ptr %c, i32 0, i32 2
  %22 = load float, ptr %b45, align 4
  %call46 = call noundef nonnull align 8 dereferenceable(8) ptr @_ZNSolsEf(ptr noundef nonnull align 8 dereferenceable(8) %call44, float noundef %22)
  %endl47 = getelementptr inbounds %"class.Assimp::ObjExporter", ptr %this1, i32 0, i32 13
  %call48 = call noundef nonnull align 8 dereferenceable(8) ptr @_ZStlsIcSt11char_traitsIcESaIcEERSt13basic_ostreamIT_T0_ES7_RKNSt7__cxx1112basic_stringIS4_S5_T1_EE(ptr noundef nonnull align 8 dereferenceable(8) %call46, ptr noundef nonnull align 8 dereferenceable(32) %endl47)
  br label %if.end49

if.end49:                                         ; preds = %if.then36, %if.end33
  %23 = load ptr, ptr %mat, align 8
  %call50 = call noundef i32 @_ZNK10aiMaterial3GetEPKcjjR9aiColor4tIfE(ptr noundef nonnull align 8 dereferenceable(16) %23, ptr noundef @.str.21, i32 noundef 0, i32 noundef 0, ptr noundef nonnull align 4 dereferenceable(16) %c)
  %cmp51 = icmp eq i32 0, %call50
  br i1 %cmp51, label %if.then52, label %if.end65

if.then52:                                        ; preds = %if.end49
  %mOutputMat53 = getelementptr inbounds %"class.Assimp::ObjExporter", ptr %this1, i32 0, i32 1
  %call54 = call noundef nonnull align 8 dereferenceable(8) ptr @_ZStlsISt11char_traitsIcEERSt13basic_ostreamIcT_ES5_PKc(ptr noundef nonnull align 8 dereferenceable(8) %mOutputMat53, ptr noundef @.str.22)
  %r55 = getelementptr inbounds %class.aiColor4t, ptr %c, i32 0, i32 0
  %24 = load float, ptr %r55, align 4
  %call56 = call noundef nonnull align 8 dereferenceable(8) ptr @_ZNSolsEf(ptr noundef nonnull align 8 dereferenceable(8) %call54, float noundef %24)
  %call57 = call noundef nonnull align 8 dereferenceable(8) ptr @_ZStlsISt11char_traitsIcEERSt13basic_ostreamIcT_ES5_PKc(ptr noundef nonnull align 8 dereferenceable(8) %call56, ptr noundef @.str.16)
  %g58 = getelementptr inbounds %class.aiColor4t, ptr %c, i32 0, i32 1
  %25 = load float, ptr %g58, align 4
  %call59 = call noundef nonnull align 8 dereferenceable(8) ptr @_ZNSolsEf(ptr noundef nonnull align 8 dereferenceable(8) %call57, float noundef %25)
  %call60 = call noundef nonnull align 8 dereferenceable(8) ptr @_ZStlsISt11char_traitsIcEERSt13basic_ostreamIcT_ES5_PKc(ptr noundef nonnull align 8 dereferenceable(8) %call59, ptr noundef @.str.16)
  %b61 = getelementptr inbounds %class.aiColor4t, ptr %c, i32 0, i32 2
  %26 = load float, ptr %b61, align 4
  %call62 = call noundef nonnull align 8 dereferenceable(8) ptr @_ZNSolsEf(ptr noundef nonnull align 8 dereferenceable(8) %call60, float noundef %26)
  %endl63 = getelementptr inbounds %"class.Assimp::ObjExporter", ptr %this1, i32 0, i32 13
  %call64 = call noundef nonnull align 8 dereferenceable(8) ptr @_ZStlsIcSt11char_traitsIcESaIcEERSt13basic_ostreamIT_T0_ES7_RKNSt7__cxx1112basic_stringIS4_S5_T1_EE(ptr noundef nonnull align 8 dereferenceable(8) %call62, ptr noundef nonnull align 8 dereferenceable(32) %endl63)
  br label %if.end65

if.end65:                                         ; preds = %if.then52, %if.end49
  %27 = load ptr, ptr %mat, align 8
  %call66 = call noundef i32 @_ZNK10aiMaterial3GetEPKcjjR9aiColor4tIfE(ptr noundef nonnull align 8 dereferenceable(16) %27, ptr noundef @.str.23, i32 noundef 0, i32 noundef 0, ptr noundef nonnull align 4 dereferenceable(16) %c)
  %cmp67 = icmp eq i32 0, %call66
  br i1 %cmp67, label %if.then68, label %if.end81

if.then68:                                        ; preds = %if.end65
  %mOutputMat69 = getelementptr inbounds %"class.Assimp::ObjExporter", ptr %this1, i32 0, i32 1
  %call70 = call noundef nonnull align 8 dereferenceable(8) ptr @_ZStlsISt11char_traitsIcEERSt13basic_ostreamIcT_ES5_PKc(ptr noundef nonnull align 8 dereferenceable(8) %mOutputMat69, ptr noundef @.str.24)
  %r71 = getelementptr inbounds %class.aiColor4t, ptr %c, i32 0, i32 0
  %28 = load float, ptr %r71, align 4
  %call72 = call noundef nonnull align 8 dereferenceable(8) ptr @_ZNSolsEf(ptr noundef nonnull align 8 dereferenceable(8) %call70, float noundef %28)
  %call73 = call noundef nonnull align 8 dereferenceable(8) ptr @_ZStlsISt11char_traitsIcEERSt13basic_ostreamIcT_ES5_PKc(ptr noundef nonnull align 8 dereferenceable(8) %call72, ptr noundef @.str.16)
  %g74 = getelementptr inbounds %class.aiColor4t, ptr %c, i32 0, i32 1
  %29 = load float, ptr %g74, align 4
  %call75 = call noundef nonnull align 8 dereferenceable(8) ptr @_ZNSolsEf(ptr noundef nonnull align 8 dereferenceable(8) %call73, float noundef %29)
  %call76 = call noundef nonnull align 8 dereferenceable(8) ptr @_ZStlsISt11char_traitsIcEERSt13basic_ostreamIcT_ES5_PKc(ptr noundef nonnull align 8 dereferenceable(8) %call75, ptr noundef @.str.16)
  %b77 = getelementptr inbounds %class.aiColor4t, ptr %c, i32 0, i32 2
  %30 = load float, ptr %b77, align 4
  %call78 = call noundef nonnull align 8 dereferenceable(8) ptr @_ZNSolsEf(ptr noundef nonnull align 8 dereferenceable(8) %call76, float noundef %30)
  %endl79 = getelementptr inbounds %"class.Assimp::ObjExporter", ptr %this1, i32 0, i32 13
  %call80 = call noundef nonnull align 8 dereferenceable(8) ptr @_ZStlsIcSt11char_traitsIcESaIcEERSt13basic_ostreamIT_T0_ES7_RKNSt7__cxx1112basic_stringIS4_S5_T1_EE(ptr noundef nonnull align 8 dereferenceable(8) %call78, ptr noundef nonnull align 8 dereferenceable(32) %endl79)
  br label %if.end81

if.end81:                                         ; preds = %if.then68, %if.end65
  %31 = load ptr, ptr %mat, align 8
  %call82 = call noundef i32 @_ZNK10aiMaterial3GetEPKcjjRf(ptr noundef nonnull align 8 dereferenceable(16) %31, ptr noundef @.str.25, i32 noundef 0, i32 noundef 0, ptr noundef nonnull align 4 dereferenceable(4) %o)
  %cmp83 = icmp eq i32 0, %call82
  br i1 %cmp83, label %if.then84, label %if.end90

if.then84:                                        ; preds = %if.end81
  %mOutputMat85 = getelementptr inbounds %"class.Assimp::ObjExporter", ptr %this1, i32 0, i32 1
  %call86 = call noundef nonnull align 8 dereferenceable(8) ptr @_ZStlsISt11char_traitsIcEERSt13basic_ostreamIcT_ES5_PKc(ptr noundef nonnull align 8 dereferenceable(8) %mOutputMat85, ptr noundef @.str.26)
  %32 = load float, ptr %o, align 4
  %call87 = call noundef nonnull align 8 dereferenceable(8) ptr @_ZNSolsEf(ptr noundef nonnull align 8 dereferenceable(8) %call86, float noundef %32)
  %endl88 = getelementptr inbounds %"class.Assimp::ObjExporter", ptr %this1, i32 0, i32 13
  %call89 = call noundef nonnull align 8 dereferenceable(8) ptr @_ZStlsIcSt11char_traitsIcESaIcEERSt13basic_ostreamIT_T0_ES7_RKNSt7__cxx1112basic_stringIS4_S5_T1_EE(ptr noundef nonnull align 8 dereferenceable(8) %call87, ptr noundef nonnull align 8 dereferenceable(32) %endl88)
  br label %if.end90

if.end90:                                         ; preds = %if.then84, %if.end81
  %33 = load ptr, ptr %mat, align 8
  %call91 = call noundef i32 @_ZNK10aiMaterial3GetEPKcjjRf(ptr noundef nonnull align 8 dereferenceable(16) %33, ptr noundef @.str.27, i32 noundef 0, i32 noundef 0, ptr noundef nonnull align 4 dereferenceable(4) %o)
  %cmp92 = icmp eq i32 0, %call91
  br i1 %cmp92, label %if.then93, label %if.end99

if.then93:                                        ; preds = %if.end90
  %mOutputMat94 = getelementptr inbounds %"class.Assimp::ObjExporter", ptr %this1, i32 0, i32 1
  %call95 = call noundef nonnull align 8 dereferenceable(8) ptr @_ZStlsISt11char_traitsIcEERSt13basic_ostreamIcT_ES5_PKc(ptr noundef nonnull align 8 dereferenceable(8) %mOutputMat94, ptr noundef @.str.28)
  %34 = load float, ptr %o, align 4
  %call96 = call noundef nonnull align 8 dereferenceable(8) ptr @_ZNSolsEf(ptr noundef nonnull align 8 dereferenceable(8) %call95, float noundef %34)
  %endl97 = getelementptr inbounds %"class.Assimp::ObjExporter", ptr %this1, i32 0, i32 13
  %call98 = call noundef nonnull align 8 dereferenceable(8) ptr @_ZStlsIcSt11char_traitsIcESaIcEERSt13basic_ostreamIT_T0_ES7_RKNSt7__cxx1112basic_stringIS4_S5_T1_EE(ptr noundef nonnull align 8 dereferenceable(8) %call96, ptr noundef nonnull align 8 dereferenceable(32) %endl97)
  br label %if.end99

if.end99:                                         ; preds = %if.then93, %if.end90
  %35 = load ptr, ptr %mat, align 8
  %call100 = call noundef i32 @_ZNK10aiMaterial3GetEPKcjjRf(ptr noundef nonnull align 8 dereferenceable(16) %35, ptr noundef @.str.29, i32 noundef 0, i32 noundef 0, ptr noundef nonnull align 4 dereferenceable(4) %o)
  %cmp101 = icmp eq i32 0, %call100
  br i1 %cmp101, label %land.lhs.true, label %if.end108

land.lhs.true:                                    ; preds = %if.end99
  %36 = load float, ptr %o, align 4
  %tobool = fcmp une float %36, 0.000000e+00
  br i1 %tobool, label %if.then102, label %if.end108

if.then102:                                       ; preds = %land.lhs.true
  %mOutputMat103 = getelementptr inbounds %"class.Assimp::ObjExporter", ptr %this1, i32 0, i32 1
  %call104 = call noundef nonnull align 8 dereferenceable(8) ptr @_ZStlsISt11char_traitsIcEERSt13basic_ostreamIcT_ES5_PKc(ptr noundef nonnull align 8 dereferenceable(8) %mOutputMat103, ptr noundef @.str.30)
  %37 = load float, ptr %o, align 4
  %call105 = call noundef nonnull align 8 dereferenceable(8) ptr @_ZNSolsEf(ptr noundef nonnull align 8 dereferenceable(8) %call104, float noundef %37)
  %endl106 = getelementptr inbounds %"class.Assimp::ObjExporter", ptr %this1, i32 0, i32 13
  %call107 = call noundef nonnull align 8 dereferenceable(8) ptr @_ZStlsIcSt11char_traitsIcESaIcEERSt13basic_ostreamIT_T0_ES7_RKNSt7__cxx1112basic_stringIS4_S5_T1_EE(ptr noundef nonnull align 8 dereferenceable(8) %call105, ptr noundef nonnull align 8 dereferenceable(32) %endl106)
  store i32 2, ptr %illum, align 4
  br label %if.end108

if.end108:                                        ; preds = %if.then102, %land.lhs.true, %if.end99
  %mOutputMat109 = getelementptr inbounds %"class.Assimp::ObjExporter", ptr %this1, i32 0, i32 1
  %call110 = call noundef nonnull align 8 dereferenceable(8) ptr @_ZStlsISt11char_traitsIcEERSt13basic_ostreamIcT_ES5_PKc(ptr noundef nonnull align 8 dereferenceable(8) %mOutputMat109, ptr noundef @.str.31)
  %38 = load i32, ptr %illum, align 4
  %call111 = call noundef nonnull align 8 dereferenceable(8) ptr @_ZNSolsEi(ptr noundef nonnull align 8 dereferenceable(8) %call110, i32 noundef %38)
  %endl112 = getelementptr inbounds %"class.Assimp::ObjExporter", ptr %this1, i32 0, i32 13
  %call113 = call noundef nonnull align 8 dereferenceable(8) ptr @_ZStlsIcSt11char_traitsIcESaIcEERSt13basic_ostreamIT_T0_ES7_RKNSt7__cxx1112basic_stringIS4_S5_T1_EE(ptr noundef nonnull align 8 dereferenceable(8) %call111, ptr noundef nonnull align 8 dereferenceable(32) %endl112)
  call void @_ZN8aiStringC2Ev(ptr noundef nonnull align 4 dereferenceable(1028) %s) #6
  %39 = load ptr, ptr %mat, align 8
  %call114 = call noundef i32 @_ZNK10aiMaterial3GetEPKcjjR8aiString(ptr noundef nonnull align 8 dereferenceable(16) %39, ptr noundef @.str.32, i32 noundef 1, i32 noundef 0, ptr noundef nonnull align 4 dereferenceable(1028) %s)
  %cmp115 = icmp eq i32 0, %call114
  br i1 %cmp115, label %if.then116, label %if.end122

if.then116:                                       ; preds = %if.end108
  %mOutputMat117 = getelementptr inbounds %"class.Assimp::ObjExporter", ptr %this1, i32 0, i32 1
  %call118 = call noundef nonnull align 8 dereferenceable(8) ptr @_ZStlsISt11char_traitsIcEERSt13basic_ostreamIcT_ES5_PKc(ptr noundef nonnull align 8 dereferenceable(8) %mOutputMat117, ptr noundef @.str.33)
  %data = getelementptr inbounds %struct.aiString, ptr %s, i32 0, i32 1
  %arraydecay = getelementptr inbounds [1024 x i8], ptr %data, i64 0, i64 0
  %call119 = call noundef nonnull align 8 dereferenceable(8) ptr @_ZStlsISt11char_traitsIcEERSt13basic_ostreamIcT_ES5_PKc(ptr noundef nonnull align 8 dereferenceable(8) %call118, ptr noundef %arraydecay)
  %endl120 = getelementptr inbounds %"class.Assimp::ObjExporter", ptr %this1, i32 0, i32 13
  %call121 = call noundef nonnull align 8 dereferenceable(8) ptr @_ZStlsIcSt11char_traitsIcESaIcEERSt13basic_ostreamIT_T0_ES7_RKNSt7__cxx1112basic_stringIS4_S5_T1_EE(ptr noundef nonnull align 8 dereferenceable(8) %call119, ptr noundef nonnull align 8 dereferenceable(32) %endl120)
  br label %if.end122

if.end122:                                        ; preds = %if.then116, %if.end108
  %40 = load ptr, ptr %mat, align 8
  %call123 = call noundef i32 @_ZNK10aiMaterial3GetEPKcjjR8aiString(ptr noundef nonnull align 8 dereferenceable(16) %40, ptr noundef @.str.32, i32 noundef 3, i32 noundef 0, ptr noundef nonnull align 4 dereferenceable(1028) %s)
  %cmp124 = icmp eq i32 0, %call123
  br i1 %cmp124, label %if.then125, label %if.end133

if.then125:                                       ; preds = %if.end122
  %mOutputMat126 = getelementptr inbounds %"class.Assimp::ObjExporter", ptr %this1, i32 0, i32 1
  %call127 = call noundef nonnull align 8 dereferenceable(8) ptr @_ZStlsISt11char_traitsIcEERSt13basic_ostreamIcT_ES5_PKc(ptr noundef nonnull align 8 dereferenceable(8) %mOutputMat126, ptr noundef @.str.34)
  %data128 = getelementptr inbounds %struct.aiString, ptr %s, i32 0, i32 1
  %arraydecay129 = getelementptr inbounds [1024 x i8], ptr %data128, i64 0, i64 0
  %call130 = call noundef nonnull align 8 dereferenceable(8) ptr @_ZStlsISt11char_traitsIcEERSt13basic_ostreamIcT_ES5_PKc(ptr noundef nonnull align 8 dereferenceable(8) %call127, ptr noundef %arraydecay129)
  %endl131 = getelementptr inbounds %"class.Assimp::ObjExporter", ptr %this1, i32 0, i32 13
  %call132 = call noundef nonnull align 8 dereferenceable(8) ptr @_ZStlsIcSt11char_traitsIcESaIcEERSt13basic_ostreamIT_T0_ES7_RKNSt7__cxx1112basic_stringIS4_S5_T1_EE(ptr noundef nonnull align 8 dereferenceable(8) %call130, ptr noundef nonnull align 8 dereferenceable(32) %endl131)
  br label %if.end133

if.end133:                                        ; preds = %if.then125, %if.end122
  %41 = load ptr, ptr %mat, align 8
  %call134 = call noundef i32 @_ZNK10aiMaterial3GetEPKcjjR8aiString(ptr noundef nonnull align 8 dereferenceable(16) %41, ptr noundef @.str.32, i32 noundef 2, i32 noundef 0, ptr noundef nonnull align 4 dereferenceable(1028) %s)
  %cmp135 = icmp eq i32 0, %call134
  br i1 %cmp135, label %if.then136, label %if.end144

if.then136:                                       ; preds = %if.end133
  %mOutputMat137 = getelementptr inbounds %"class.Assimp::ObjExporter", ptr %this1, i32 0, i32 1
  %call138 = call noundef nonnull align 8 dereferenceable(8) ptr @_ZStlsISt11char_traitsIcEERSt13basic_ostreamIcT_ES5_PKc(ptr noundef nonnull align 8 dereferenceable(8) %mOutputMat137, ptr noundef @.str.35)
  %data139 = getelementptr inbounds %struct.aiString, ptr %s, i32 0, i32 1
  %arraydecay140 = getelementptr inbounds [1024 x i8], ptr %data139, i64 0, i64 0
  %call141 = call noundef nonnull align 8 dereferenceable(8) ptr @_ZStlsISt11char_traitsIcEERSt13basic_ostreamIcT_ES5_PKc(ptr noundef nonnull align 8 dereferenceable(8) %call138, ptr noundef %arraydecay140)
  %endl142 = getelementptr inbounds %"class.Assimp::ObjExporter", ptr %this1, i32 0, i32 13
  %call143 = call noundef nonnull align 8 dereferenceable(8) ptr @_ZStlsIcSt11char_traitsIcESaIcEERSt13basic_ostreamIT_T0_ES7_RKNSt7__cxx1112basic_stringIS4_S5_T1_EE(ptr noundef nonnull align 8 dereferenceable(8) %call141, ptr noundef nonnull align 8 dereferenceable(32) %endl142)
  br label %if.end144

if.end144:                                        ; preds = %if.then136, %if.end133
  %42 = load ptr, ptr %mat, align 8
  %call145 = call noundef i32 @_ZNK10aiMaterial3GetEPKcjjR8aiString(ptr noundef nonnull align 8 dereferenceable(16) %42, ptr noundef @.str.32, i32 noundef 7, i32 noundef 0, ptr noundef nonnull align 4 dereferenceable(1028) %s)
  %cmp146 = icmp eq i32 0, %call145
  br i1 %cmp146, label %if.then147, label %if.end155

if.then147:                                       ; preds = %if.end144
  %mOutputMat148 = getelementptr inbounds %"class.Assimp::ObjExporter", ptr %this1, i32 0, i32 1
  %call149 = call noundef nonnull align 8 dereferenceable(8) ptr @_ZStlsISt11char_traitsIcEERSt13basic_ostreamIcT_ES5_PKc(ptr noundef nonnull align 8 dereferenceable(8) %mOutputMat148, ptr noundef @.str.36)
  %data150 = getelementptr inbounds %struct.aiString, ptr %s, i32 0, i32 1
  %arraydecay151 = getelementptr inbounds [1024 x i8], ptr %data150, i64 0, i64 0
  %call152 = call noundef nonnull align 8 dereferenceable(8) ptr @_ZStlsISt11char_traitsIcEERSt13basic_ostreamIcT_ES5_PKc(ptr noundef nonnull align 8 dereferenceable(8) %call149, ptr noundef %arraydecay151)
  %endl153 = getelementptr inbounds %"class.Assimp::ObjExporter", ptr %this1, i32 0, i32 13
  %call154 = call noundef nonnull align 8 dereferenceable(8) ptr @_ZStlsIcSt11char_traitsIcESaIcEERSt13basic_ostreamIT_T0_ES7_RKNSt7__cxx1112basic_stringIS4_S5_T1_EE(ptr noundef nonnull align 8 dereferenceable(8) %call152, ptr noundef nonnull align 8 dereferenceable(32) %endl153)
  br label %if.end155

if.end155:                                        ; preds = %if.then147, %if.end144
  %43 = load ptr, ptr %mat, align 8
  %call156 = call noundef i32 @_ZNK10aiMaterial3GetEPKcjjR8aiString(ptr noundef nonnull align 8 dereferenceable(16) %43, ptr noundef @.str.32, i32 noundef 8, i32 noundef 0, ptr noundef nonnull align 4 dereferenceable(1028) %s)
  %cmp157 = icmp eq i32 0, %call156
  br i1 %cmp157, label %if.then158, label %if.end166

if.then158:                                       ; preds = %if.end155
  %mOutputMat159 = getelementptr inbounds %"class.Assimp::ObjExporter", ptr %this1, i32 0, i32 1
  %call160 = call noundef nonnull align 8 dereferenceable(8) ptr @_ZStlsISt11char_traitsIcEERSt13basic_ostreamIcT_ES5_PKc(ptr noundef nonnull align 8 dereferenceable(8) %mOutputMat159, ptr noundef @.str.37)
  %data161 = getelementptr inbounds %struct.aiString, ptr %s, i32 0, i32 1
  %arraydecay162 = getelementptr inbounds [1024 x i8], ptr %data161, i64 0, i64 0
  %call163 = call noundef nonnull align 8 dereferenceable(8) ptr @_ZStlsISt11char_traitsIcEERSt13basic_ostreamIcT_ES5_PKc(ptr noundef nonnull align 8 dereferenceable(8) %call160, ptr noundef %arraydecay162)
  %endl164 = getelementptr inbounds %"class.Assimp::ObjExporter", ptr %this1, i32 0, i32 13
  %call165 = call noundef nonnull align 8 dereferenceable(8) ptr @_ZStlsIcSt11char_traitsIcESaIcEERSt13basic_ostreamIT_T0_ES7_RKNSt7__cxx1112basic_stringIS4_S5_T1_EE(ptr noundef nonnull align 8 dereferenceable(8) %call163, ptr noundef nonnull align 8 dereferenceable(32) %endl164)
  br label %if.end166

if.end166:                                        ; preds = %if.then158, %if.end155
  %44 = load ptr, ptr %mat, align 8
  %call167 = call noundef i32 @_ZNK10aiMaterial3GetEPKcjjR8aiString(ptr noundef nonnull align 8 dereferenceable(16) %44, ptr noundef @.str.32, i32 noundef 5, i32 noundef 0, ptr noundef nonnull align 4 dereferenceable(1028) %s)
  %cmp168 = icmp eq i32 0, %call167
  br i1 %cmp168, label %if.then171, label %lor.lhs.false

lor.lhs.false:                                    ; preds = %if.end166
  %45 = load ptr, ptr %mat, align 8
  %call169 = call noundef i32 @_ZNK10aiMaterial3GetEPKcjjR8aiString(ptr noundef nonnull align 8 dereferenceable(16) %45, ptr noundef @.str.32, i32 noundef 6, i32 noundef 0, ptr noundef nonnull align 4 dereferenceable(1028) %s)
  %cmp170 = icmp eq i32 0, %call169
  br i1 %cmp170, label %if.then171, label %if.end186

if.then171:                                       ; preds = %lor.lhs.false, %if.end166
  %mOutputMat172 = getelementptr inbounds %"class.Assimp::ObjExporter", ptr %this1, i32 0, i32 1
  %call173 = call noundef nonnull align 8 dereferenceable(8) ptr @_ZStlsISt11char_traitsIcEERSt13basic_ostreamIcT_ES5_PKc(ptr noundef nonnull align 8 dereferenceable(8) %mOutputMat172, ptr noundef @.str.38)
  %data174 = getelementptr inbounds %struct.aiString, ptr %s, i32 0, i32 1
  %arraydecay175 = getelementptr inbounds [1024 x i8], ptr %data174, i64 0, i64 0
  %call176 = call noundef nonnull align 8 dereferenceable(8) ptr @_ZStlsISt11char_traitsIcEERSt13basic_ostreamIcT_ES5_PKc(ptr noundef nonnull align 8 dereferenceable(8) %call173, ptr noundef %arraydecay175)
  %endl177 = getelementptr inbounds %"class.Assimp::ObjExporter", ptr %this1, i32 0, i32 13
  %call178 = call noundef nonnull align 8 dereferenceable(8) ptr @_ZStlsIcSt11char_traitsIcESaIcEERSt13basic_ostreamIT_T0_ES7_RKNSt7__cxx1112basic_stringIS4_S5_T1_EE(ptr noundef nonnull align 8 dereferenceable(8) %call176, ptr noundef nonnull align 8 dereferenceable(32) %endl177)
  %mOutputMat179 = getelementptr inbounds %"class.Assimp::ObjExporter", ptr %this1, i32 0, i32 1
  %call180 = call noundef nonnull align 8 dereferenceable(8) ptr @_ZStlsISt11char_traitsIcEERSt13basic_ostreamIcT_ES5_PKc(ptr noundef nonnull align 8 dereferenceable(8) %mOutputMat179, ptr noundef @.str.39)
  %data181 = getelementptr inbounds %struct.aiString, ptr %s, i32 0, i32 1
  %arraydecay182 = getelementptr inbounds [1024 x i8], ptr %data181, i64 0, i64 0
  %call183 = call noundef nonnull align 8 dereferenceable(8) ptr @_ZStlsISt11char_traitsIcEERSt13basic_ostreamIcT_ES5_PKc(ptr noundef nonnull align 8 dereferenceable(8) %call180, ptr noundef %arraydecay182)
  %endl184 = getelementptr inbounds %"class.Assimp::ObjExporter", ptr %this1, i32 0, i32 13
  %call185 = call noundef nonnull align 8 dereferenceable(8) ptr @_ZStlsIcSt11char_traitsIcESaIcEERSt13basic_ostreamIT_T0_ES7_RKNSt7__cxx1112basic_stringIS4_S5_T1_EE(ptr noundef nonnull align 8 dereferenceable(8) %call183, ptr noundef nonnull align 8 dereferenceable(32) %endl184)
  br label %if.end186

if.end186:                                        ; preds = %if.then171, %lor.lhs.false
  %mOutputMat187 = getelementptr inbounds %"class.Assimp::ObjExporter", ptr %this1, i32 0, i32 1
  %endl188 = getelementptr inbounds %"class.Assimp::ObjExporter", ptr %this1, i32 0, i32 13
  %call189 = call noundef nonnull align 8 dereferenceable(8) ptr @_ZStlsIcSt11char_traitsIcESaIcEERSt13basic_ostreamIT_T0_ES7_RKNSt7__cxx1112basic_stringIS4_S5_T1_EE(ptr noundef nonnull align 8 dereferenceable(8) %mOutputMat187, ptr noundef nonnull align 8 dereferenceable(32) %endl188)
  br label %for.inc

for.inc:                                          ; preds = %if.end186
  %46 = load i32, ptr %i, align 4
  %inc = add i32 %46, 1
