; ModuleID = 'bench/nlohmann_json/original/unit-element_access1.cpp.ll'
source_filename = "bench/nlohmann_json/original/unit-element_access1.cpp.ll"
target datalayout = "e-m:e-p270:32:32-p271:32:32-p272:64:64-i64:64-i128:128-f80:128-n8:16:32:64-S128"
target triple = "x86_64-unknown-linux-gnu"

%"struct.std::array.125" = type { [400 x i8] }
%"struct.std::array.126" = type { [100 x %"struct.std::array.127"] }
%"struct.std::array.127" = type { [2 x i8] }
%"struct.std::array.129" = type { [79 x %"struct.nlohmann::json_abi_v3_11_3::detail::dtoa_impl::cached_power"] }
%"struct.nlohmann::json_abi_v3_11_3::detail::dtoa_impl::cached_power" = type { i64, i32, i32 }
%"class.std::allocator.10" = type { i8 }
%"class.nlohmann::json_abi_v3_11_3::detail::iter_impl.2" = type { ptr, %"struct.nlohmann::json_abi_v3_11_3::detail::internal_iterator" }
%"struct.nlohmann::json_abi_v3_11_3::detail::internal_iterator" = type { %"struct.std::_Rb_tree_iterator", %"class.__gnu_cxx::__normal_iterator", %"class.nlohmann::json_abi_v3_11_3::detail::primitive_iterator_t" }
%"struct.std::_Rb_tree_iterator" = type { ptr }
%"class.__gnu_cxx::__normal_iterator" = type { ptr }
%"class.nlohmann::json_abi_v3_11_3::detail::primitive_iterator_t" = type { i64 }
%"class.nlohmann::json_abi_v3_11_3::detail::iter_impl" = type { ptr, %"struct.nlohmann::json_abi_v3_11_3::detail::internal_iterator" }
%"struct.doctest::detail::Subcase" = type { %"struct.doctest::SubcaseSignature", i8, [7 x i8] }
%"struct.doctest::SubcaseSignature" = type <{ %"class.doctest::String", ptr, i32, [4 x i8] }>
%"class.doctest::String" = type { %union.anon }
%union.anon = type { %"struct.doctest::String::view", [8 x i8] }
%"struct.doctest::String::view" = type { ptr, i32, i32 }
%"class.nlohmann::json_abi_v3_11_3::basic_json" = type { %"struct.nlohmann::json_abi_v3_11_3::basic_json<>::data" }
%"struct.nlohmann::json_abi_v3_11_3::basic_json<>::data" = type { i8, %"union.nlohmann::json_abi_v3_11_3::basic_json<>::json_value" }
%"union.nlohmann::json_abi_v3_11_3::basic_json<>::json_value" = type { ptr }
%"class.nlohmann::json_abi_v3_11_3::detail::json_ref" = type { %"class.nlohmann::json_abi_v3_11_3::basic_json", ptr }
%"struct.doctest::detail::Result" = type { i8, %"class.doctest::String" }
%"struct.doctest::detail::Expression_lhs" = type <{ ptr, i32, [4 x i8] }>
%"struct.doctest::detail::ExpressionDecomposer" = type { i32 }
%"struct.doctest::detail::Expression_lhs.0" = type <{ ptr, i32, [4 x i8] }>
%"struct.doctest::detail::ResultBuilder" = type { %"struct.doctest::AssertData" }
%"struct.doctest::AssertData" = type { ptr, i32, ptr, i32, ptr, i8, i8, %"class.doctest::String", %"class.doctest::String", i8, ptr, %"class.doctest::AssertData::StringContains" }
%"class.doctest::AssertData::StringContains" = type <{ %"class.doctest::Contains", i8, [7 x i8] }>
%"class.doctest::Contains" = type { %"class.doctest::String" }
%"struct.doctest::detail::Expression_lhs.3" = type <{ ptr, i32, [4 x i8] }>
%"struct.doctest::detail::Expression_lhs.5" = type <{ ptr, i32, [4 x i8] }>
%"struct.doctest::detail::Expression_lhs.7" = type { i8, i32 }
%"struct.doctest::ContextOptions" = type <{ ptr, %"class.doctest::String", ptr, %"class.doctest::String", %"class.doctest::String", i32, i32, i32, i32, i32, i8, i8, i8, i8, i8, i8, i8, i8, i8, i8, i8, i8, i8, i8, i8, i8, i8, i8, i8, i8, i8, i8, i8, i8, i8, i8, i8, i8 }>
%"struct.std::_Vector_base<nlohmann::json_abi_v3_11_3::basic_json<>, std::allocator<nlohmann::json_abi_v3_11_3::basic_json<>>>::_Vector_impl_data" = type { ptr, ptr, ptr }
%"struct.std::_Vector_base<unsigned char, std::allocator<unsigned char>>::_Vector_impl_data" = type { ptr, ptr, ptr }
%"class.nlohmann::json_abi_v3_11_3::byte_container_with_subtype" = type <{ %"class.std::vector", i64, i8, [7 x i8] }>
%"class.std::vector" = type { %"struct.std::_Vector_base" }
%"struct.std::_Vector_base" = type { %"struct.std::_Vector_base<unsigned char, std::allocator<unsigned char>>::_Vector_impl" }
%"struct.std::_Vector_base<unsigned char, std::allocator<unsigned char>>::_Vector_impl" = type { %"struct.std::_Vector_base<unsigned char, std::allocator<unsigned char>>::_Vector_impl_data" }
%"struct.doctest::detail::TestCase" = type { %"struct.doctest::TestCaseData", ptr, %"class.doctest::String", i32, %"class.doctest::String" }
%"struct.doctest::TestCaseData" = type { %"class.doctest::String", i32, ptr, ptr, ptr, i8, i8, i8, i8, i8, i32, double }
%"class.std::__cxx11::basic_string" = type { %"struct.std::__cxx11::basic_string<char>::_Alloc_hider", i64, %union.anon.13 }
%"struct.std::__cxx11::basic_string<char>::_Alloc_hider" = type { ptr }
%union.anon.13 = type { i64, [8 x i8] }
%"class.nlohmann::json_abi_v3_11_3::detail::type_error" = type { %"class.nlohmann::json_abi_v3_11_3::detail::exception" }
%"class.nlohmann::json_abi_v3_11_3::detail::exception" = type { %"class.std::exception", i32, %"class.std::runtime_error" }
%"class.std::exception" = type { ptr }
%"class.std::runtime_error" = type { %"class.std::exception", %"struct.std::__cow_string" }
%"struct.std::__cow_string" = type { %union.anon.9 }
%union.anon.9 = type { ptr }
%"struct.std::_Rb_tree<std::__cxx11::basic_string<char>, std::pair<const std::__cxx11::basic_string<char>, nlohmann::json_abi_v3_11_3::basic_json<>>, std::_Select1st<std::pair<const std::__cxx11::basic_string<char>, nlohmann::json_abi_v3_11_3::basic_json<>>>, std::less<std::__cxx11::basic_string<char>>>::_Alloc_node" = type { ptr }
%"struct.std::_Rb_tree_node_base" = type { i32, ptr, ptr, ptr }
%"class.nlohmann::json_abi_v3_11_3::detail::out_of_range" = type { %"class.nlohmann::json_abi_v3_11_3::detail::exception" }
%"class.nlohmann::json_abi_v3_11_3::detail::invalid_iterator" = type { %"class.nlohmann::json_abi_v3_11_3::detail::exception" }
%"struct.std::_Rb_tree_node" = type { %"struct.std::_Rb_tree_node_base", %"struct.__gnu_cxx::__aligned_membuf" }
%"struct.__gnu_cxx::__aligned_membuf" = type { [48 x i8] }
%"class.std::vector.17" = type { %"struct.std::_Vector_base.18" }
%"struct.std::_Vector_base.18" = type { %"struct.std::_Vector_base<nlohmann::json_abi_v3_11_3::basic_json<>, std::allocator<nlohmann::json_abi_v3_11_3::basic_json<>>>::_Vector_impl" }
%"struct.std::_Vector_base<nlohmann::json_abi_v3_11_3::basic_json<>, std::allocator<nlohmann::json_abi_v3_11_3::basic_json<>>>::_Vector_impl" = type { %"struct.std::_Vector_base<nlohmann::json_abi_v3_11_3::basic_json<>, std::allocator<nlohmann::json_abi_v3_11_3::basic_json<>>>::_Vector_impl_data" }
%"struct.std::pair.66" = type { %"class.std::__cxx11::basic_string", %"class.nlohmann::json_abi_v3_11_3::basic_json" }
%"class.nlohmann::json_abi_v3_11_3::detail::serializer" = type <{ %"class.std::shared_ptr", %"struct.std::array", ptr, i8, i8, %"struct.std::array.117", i8, [5 x i8], %"class.std::__cxx11::basic_string", i32, [4 x i8] }>
%"class.std::shared_ptr" = type { %"class.std::__shared_ptr" }
%"class.std::__shared_ptr" = type { ptr, %"class.std::__shared_count" }
%"class.std::__shared_count" = type { ptr }
%"struct.std::array" = type { [64 x i8] }
%"struct.std::array.117" = type { [512 x i8] }
%"class.nlohmann::json_abi_v3_11_3::detail::output_adapter" = type { %"class.std::shared_ptr" }
%"class.std::ios_base" = type { ptr, i64, i64, i32, i32, i32, ptr, %"struct.std::ios_base::_Words", [8 x %"struct.std::ios_base::_Words"], i32, ptr, %"class.std::locale" }
%"struct.std::ios_base::_Words" = type { ptr, i64 }
%"class.std::locale" = type { ptr }
%"class.std::_Sp_counted_base" = type { ptr, i32, i32 }
%"class.std::_Sp_counted_ptr_inplace" = type { %"class.std::_Sp_counted_base", %"class.std::_Sp_counted_ptr_inplace<nlohmann::json_abi_v3_11_3::detail::output_stream_adapter<char>, std::allocator<void>, __gnu_cxx::_S_atomic>::_Impl" }
%"class.std::_Sp_counted_ptr_inplace<nlohmann::json_abi_v3_11_3::detail::output_stream_adapter<char>, std::allocator<void>, __gnu_cxx::_S_atomic>::_Impl" = type { %"struct.__gnu_cxx::__aligned_buffer" }
%"struct.__gnu_cxx::__aligned_buffer" = type { %"union.std::aligned_storage<16, 8>::type" }
%"union.std::aligned_storage<16, 8>::type" = type { [16 x i8] }
%struct.lconv = type { ptr, ptr, ptr, ptr, ptr, ptr, ptr, ptr, ptr, ptr, i8, i8, i8, i8, i8, i8, i8, i8, i8, i8, i8, i8, i8, i8 }
%"class.std::type_info" = type { ptr, ptr }
%"class.nlohmann::json_abi_v3_11_3::detail::output_stream_adapter" = type { %"struct.nlohmann::json_abi_v3_11_3::detail::output_adapter_protocol", ptr }
%"struct.nlohmann::json_abi_v3_11_3::detail::output_adapter_protocol" = type { ptr }
%"struct.nlohmann::json_abi_v3_11_3::detail::dtoa_impl::diyfp" = type <{ i64, i32, [4 x i8] }>
%"struct.doctest::detail::TestSuite" = type { ptr, ptr, i8, i8, i8, i8, i8, i32, double }

$_ZN7doctest6detail8TestCaseD2Ev = comdat any

$_ZN8nlohmann16json_abi_v3_11_36detail8json_refINS0_10basic_jsonISt3mapSt6vectorNSt7__cxx1112basic_stringIcSt11char_traitsIcESaIcEEEblmdSaNS0_14adl_serializerES5_IhSaIhEEvEEED2Ev = comdat any

$_ZN8nlohmann16json_abi_v3_11_310basic_jsonISt3mapSt6vectorNSt7__cxx1112basic_stringIcSt11char_traitsIcESaIcEEEblmdSaNS0_14adl_serializerES3_IhSaIhEEvEC2ESt16initializer_listINS0_6detail8json_refISD_EEEbNSF_7value_tE = comdat any

$_ZN8nlohmann16json_abi_v3_11_310basic_jsonISt3mapSt6vectorNSt7__cxx1112basic_stringIcSt11char_traitsIcESaIcEEEblmdSaNS0_14adl_serializerES3_IhSaIhEEvED2Ev = comdat any

$_ZN8nlohmann16json_abi_v3_11_310basic_jsonISt3mapSt6vectorNSt7__cxx1112basic_stringIcSt11char_traitsIcESaIcEEEblmdSaNS0_14adl_serializerES3_IhSaIhEEvEC2ERKSD_ = comdat any

$_ZN8nlohmann16json_abi_v3_11_310basic_jsonISt3mapSt6vectorNSt7__cxx1112basic_stringIcSt11char_traitsIcESaIcEEEblmdSaNS0_14adl_serializerES3_IhSaIhEEvE2atEm = comdat any

$_ZN7doctest6detail14Expression_lhsIRN8nlohmann16json_abi_v3_11_310basic_jsonISt3mapSt6vectorNSt7__cxx1112basic_stringIcSt11char_traitsIcESaIcEEEblmdSaNS3_14adl_serializerES6_IhSaIhEEvEEEeqISG_EEDTcmcvveqclL_ZNS0_7declvalISH_EEOT_vEEclsr7doctest6detailE7declvalISL_EEtlNS0_6ResultEEESM_ = comdat any

$_ZNK8nlohmann16json_abi_v3_11_310basic_jsonISt3mapSt6vectorNSt7__cxx1112basic_stringIcSt11char_traitsIcESaIcEEEblmdSaNS0_14adl_serializerES3_IhSaIhEEvE2atEm = comdat any

$_ZN7doctest6detail14Expression_lhsIRKN8nlohmann16json_abi_v3_11_310basic_jsonISt3mapSt6vectorNSt7__cxx1112basic_stringIcSt11char_traitsIcESaIcEEEblmdSaNS3_14adl_serializerES6_IhSaIhEEvEEEeqISG_EEDTcmcvveqclL_ZNS0_7declvalISI_EEOT_vEEclsr7doctest6detailE7declvalISM_EEtlNS0_6ResultEEESN_ = comdat any

$__clang_call_terminate = comdat any

$_ZN7doctest6detail13ResultBuilderD2Ev = comdat any

$_ZN8nlohmann16json_abi_v3_11_310basic_jsonISt3mapSt6vectorNSt7__cxx1112basic_stringIcSt11char_traitsIcESaIcEEEblmdSaNS0_14adl_serializerES3_IhSaIhEEvEixEm = comdat any

$_ZNK8nlohmann16json_abi_v3_11_310basic_jsonISt3mapSt6vectorNSt7__cxx1112basic_stringIcSt11char_traitsIcESaIcEEEblmdSaNS0_14adl_serializerES3_IhSaIhEEvEixEm = comdat any

$_ZN8nlohmann16json_abi_v3_11_310basic_jsonISt3mapSt6vectorNSt7__cxx1112basic_stringIcSt11char_traitsIcESaIcEEEblmdSaNS0_14adl_serializerES3_IhSaIhEEvE5eraseEm = comdat any

$_ZN8nlohmann16json_abi_v3_11_310basic_jsonISt3mapSt6vectorNSt7__cxx1112basic_stringIcSt11char_traitsIcESaIcEEEblmdSaNS0_14adl_serializerES3_IhSaIhEEvE5eraseINS0_6detail9iter_implISD_EETnNSt9enable_ifIXoosr3std7is_sameIT_SH_EE5valuesr3std7is_sameISJ_NSG_IKSD_EEEE5valueEiE4typeELi0EEESJ_SJ_ = comdat any

$_ZNK8nlohmann16json_abi_v3_11_36detail9iter_implINS0_10basic_jsonISt3mapSt6vectorNSt7__cxx1112basic_stringIcSt11char_traitsIcESaIcEEEblmdSaNS0_14adl_serializerES5_IhSaIhEEvEEEdeEv = comdat any

$_ZN8nlohmann16json_abi_v3_11_310basic_jsonISt3mapSt6vectorNSt7__cxx1112basic_stringIcSt11char_traitsIcESaIcEEEblmdSaNS0_14adl_serializerES3_IhSaIhEEvE5eraseINS0_6detail9iter_implIKSD_EETnNSt9enable_ifIXoosr3std7is_sameIT_NSG_ISD_EEEE5valuesr3std7is_sameISK_SI_EE5valueEiE4typeELi0EEESK_SK_ = comdat any

$_ZNK8nlohmann16json_abi_v3_11_36detail9iter_implIKNS0_10basic_jsonISt3mapSt6vectorNSt7__cxx1112basic_stringIcSt11char_traitsIcESaIcEEEblmdSaNS0_14adl_serializerES5_IhSaIhEEvEEEdeEv = comdat any

$_ZN8nlohmann16json_abi_v3_11_310basic_jsonISt3mapSt6vectorNSt7__cxx1112basic_stringIcSt11char_traitsIcESaIcEEEblmdSaNS0_14adl_serializerES3_IhSaIhEEvE5eraseINS0_6detail9iter_implISD_EETnNSt9enable_ifIXoosr3std7is_sameIT_SH_EE5valuesr3std7is_sameISJ_NSG_IKSD_EEEE5valueEiE4typeELi0EEESJ_SJ_SJ_ = comdat any

$_ZN7doctest6detail14Expression_lhsIRN8nlohmann16json_abi_v3_11_36detail9iter_implINS3_10basic_jsonISt3mapSt6vectorNSt7__cxx1112basic_stringIcSt11char_traitsIcESaIcEEEblmdSaNS3_14adl_serializerES8_IhSaIhEEvEEEEEeqISJ_EEDTcmcvveqclL_ZNS0_7declvalISK_EEOT_vEEclsr7doctest6detailE7declvalISO_EEtlNS0_6ResultEEESP_ = comdat any

$_ZN8nlohmann16json_abi_v3_11_310basic_jsonISt3mapSt6vectorNSt7__cxx1112basic_stringIcSt11char_traitsIcESaIcEEEblmdSaNS0_14adl_serializerES3_IhSaIhEEvE5eraseINS0_6detail9iter_implIKSD_EETnNSt9enable_ifIXoosr3std7is_sameIT_NSG_ISD_EEEE5valuesr3std7is_sameISK_SI_EE5valueEiE4typeELi0EEESK_SK_SK_ = comdat any

$_ZN7doctest6detail14Expression_lhsIRN8nlohmann16json_abi_v3_11_36detail9iter_implIKNS3_10basic_jsonISt3mapSt6vectorNSt7__cxx1112basic_stringIcSt11char_traitsIcESaIcEEEblmdSaNS3_14adl_serializerES8_IhSaIhEEvEEEEEeqISK_EEDTcmcvveqclL_ZNS0_7declvalISL_EEOT_vEEclsr7doctest6detailE7declvalISP_EEtlNS0_6ResultEEESQ_ = comdat any

$_ZN7doctest6detail14Expression_lhsIRN8nlohmann16json_abi_v3_11_310basic_jsonISt3mapSt6vectorNSt7__cxx1112basic_stringIcSt11char_traitsIcESaIcEEEblmdSaNS3_14adl_serializerES6_IhSaIhEEvEEEeqISH_EEDTcmcvveqclL_ZNS0_7declvalISH_EEOT_vEEclsr7doctest6detailE7declvalISL_EEtlNS0_6ResultEEESM_ = comdat any

$_ZN7doctest6detail14Expression_lhsIRKN8nlohmann16json_abi_v3_11_310basic_jsonISt3mapSt6vectorNSt7__cxx1112basic_stringIcSt11char_traitsIcESaIcEEEblmdSaNS3_14adl_serializerES6_IhSaIhEEvEEEeqISI_EEDTcmcvveqclL_ZNS0_7declvalISI_EEOT_vEEclsr7doctest6detailE7declvalISM_EEtlNS0_6ResultEEESN_ = comdat any

$_ZN7doctest6detail14Expression_lhsIN8nlohmann16json_abi_v3_11_36detail7value_tEEeqIS5_EEDTcmcvveqclL_ZNS0_7declvalIS5_EEOT_vEEclsr7doctest6detailE7declvalIS9_EEtlNS0_6ResultEEESA_ = comdat any

$_ZN7doctest6detail14Expression_lhsIRN8nlohmann16json_abi_v3_11_36detail9iter_implIKNS3_10basic_jsonISt3mapSt6vectorNSt7__cxx1112basic_stringIcSt11char_traitsIcESaIcEEEblmdSaNS3_14adl_serializerES8_IhSaIhEEvEEEEEeqINS5_ISI_EEEEDTcmcvveqclL_ZNS0_7declvalISL_EEOT_vEEclsr7doctest6detailE7declvalISQ_EEtlNS0_6ResultEEESR_ = comdat any

$_ZN8nlohmann16json_abi_v3_11_36detail10type_error6createIDnTnNSt9enable_ifIXsr21is_basic_json_contextIT_EE5valueEiE4typeELi0EEES2_iRKNSt7__cxx1112basic_stringIcSt11char_traitsIcESaIcEEES5_ = comdat any

$_ZN8nlohmann16json_abi_v3_11_36detail10type_errorD2Ev = comdat any

$_ZN8nlohmann16json_abi_v3_11_310basic_jsonISt3mapSt6vectorNSt7__cxx1112basic_stringIcSt11char_traitsIcESaIcEEEblmdSaNS0_14adl_serializerES3_IhSaIhEEvE4dataD2Ev = comdat any

$_ZSt9__find_ifIPKN8nlohmann16json_abi_v3_11_36detail8json_refINS1_10basic_jsonISt3mapSt6vectorNSt7__cxx1112basic_stringIcSt11char_traitsIcESaIcEEEblmdSaNS1_14adl_serializerES6_IhSaIhEEvEEEEN9__gnu_cxx5__ops12_Iter_negateIZNSG_C1ESt16initializer_listISH_EbNS2_7value_tEEUlRSI_E_EEET_ST_ST_T0_St26random_access_iterator_tag = comdat any

$_ZN8nlohmann16json_abi_v3_11_36detail6concatINSt7__cxx1112basic_stringIcSt11char_traitsIcESaIcEEEJS8_S8_RKS8_EEET_DpOT0_ = comdat any

$_ZN8nlohmann16json_abi_v3_11_36detail6concatINSt7__cxx1112basic_stringIcSt11char_traitsIcESaIcEEEJRA17_KcRKS8_cS8_RA3_S9_EEET_DpOT0_ = comdat any

$_ZNSt7__cxx119to_stringEi = comdat any

$_ZN8nlohmann16json_abi_v3_11_36detail10type_errorD0Ev = comdat any

$_ZNK8nlohmann16json_abi_v3_11_36detail9exception4whatEv = comdat any

$_ZN8nlohmann16json_abi_v3_11_36detail9exceptionD2Ev = comdat any

$_ZN8nlohmann16json_abi_v3_11_36detail9exceptionD0Ev = comdat any

$_ZNSt8_Rb_treeINSt7__cxx1112basic_stringIcSt11char_traitsIcESaIcEEESt4pairIKS5_N8nlohmann16json_abi_v3_11_310basic_jsonISt3mapSt6vectorS5_blmdSaNS9_14adl_serializerESC_IhSaIhEEvEEESt10_Select1stISH_ESt4lessIS5_ESaISH_EE17_M_emplace_uniqueIJS5_SG_EEES6_ISt17_Rb_tree_iteratorISH_EbEDpOT_ = comdat any

$_ZNSt6vectorIN8nlohmann16json_abi_v3_11_310basic_jsonISt3mapS_NSt7__cxx1112basic_stringIcSt11char_traitsIcESaIcEEEblmdSaNS1_14adl_serializerES_IhSaIhEEvEESaISD_EE19_M_range_initializeIPKNS1_6detail8json_refISD_EEEEvT_SM_St20forward_iterator_tag = comdat any

$_ZSt8_DestroyIPN8nlohmann16json_abi_v3_11_310basic_jsonISt3mapSt6vectorNSt7__cxx1112basic_stringIcSt11char_traitsIcESaIcEEEblmdSaNS1_14adl_serializerES4_IhSaIhEEvEEEvT_SG_ = comdat any

$_ZN8nlohmann16json_abi_v3_11_310basic_jsonISt3mapSt6vectorNSt7__cxx1112basic_stringIcSt11char_traitsIcESaIcEEEblmdSaNS0_14adl_serializerES3_IhSaIhEEvE10json_value7destroyENS0_6detail7value_tE = comdat any

$_ZNSt6vectorIN8nlohmann16json_abi_v3_11_310basic_jsonISt3mapS_NSt7__cxx1112basic_stringIcSt11char_traitsIcESaIcEEEblmdSaNS1_14adl_serializerES_IhSaIhEEvEESaISD_EED2Ev = comdat any

$_ZNSt8_Rb_treeINSt7__cxx1112basic_stringIcSt11char_traitsIcESaIcEEESt4pairIKS5_N8nlohmann16json_abi_v3_11_310basic_jsonISt3mapSt6vectorS5_blmdSaNS9_14adl_serializerESC_IhSaIhEEvEEESt10_Select1stISH_ESt4lessIS5_ESaISH_EE8_M_eraseEPSt13_Rb_tree_nodeISH_E = comdat any

$_ZNSt8_Rb_treeINSt7__cxx1112basic_stringIcSt11char_traitsIcESaIcEEESt4pairIKS5_N8nlohmann16json_abi_v3_11_310basic_jsonISt3mapSt6vectorS5_blmdSaNS9_14adl_serializerESC_IhSaIhEEvEEESt10_Select1stISH_ESt4lessIS5_ESaISH_EE7_M_copyILb0ENSN_11_Alloc_nodeEEEPSt13_Rb_tree_nodeISH_ESS_PSt18_Rb_tree_node_baseRT0_ = comdat any

$_ZNSt8_Rb_treeINSt7__cxx1112basic_stringIcSt11char_traitsIcESaIcEEESt4pairIKS5_N8nlohmann16json_abi_v3_11_310basic_jsonISt3mapSt6vectorS5_blmdSaNS9_14adl_serializerESC_IhSaIhEEvEEESt10_Select1stISH_ESt4lessIS5_ESaISH_EE17_M_construct_nodeIJRKSH_EEEvPSt13_Rb_tree_nodeISH_EDpOT_ = comdat any

$_ZNSt6vectorIN8nlohmann16json_abi_v3_11_310basic_jsonISt3mapS_NSt7__cxx1112basic_stringIcSt11char_traitsIcESaIcEEEblmdSaNS1_14adl_serializerES_IhSaIhEEvEESaISD_EEC2ERKSF_ = comdat any

$_ZN8nlohmann16json_abi_v3_11_36detail12out_of_range6createIPNS0_10basic_jsonISt3mapSt6vectorNSt7__cxx1112basic_stringIcSt11char_traitsIcESaIcEEEblmdSaNS0_14adl_serializerES6_IhSaIhEEvEETnNSt9enable_ifIXsr21is_basic_json_contextIT_EE5valueEiE4typeELi0EEES2_iRKSC_SJ_ = comdat any

$_ZN8nlohmann16json_abi_v3_11_36detail6concatINSt7__cxx1112basic_stringIcSt11char_traitsIcESaIcEEEJRA13_KcS8_RA17_S9_EEET_DpOT0_ = comdat any

$_ZNSt7__cxx119to_stringEm = comdat any

$_ZN8nlohmann16json_abi_v3_11_36detail12out_of_rangeD2Ev = comdat any

$_ZN8nlohmann16json_abi_v3_11_36detail10type_error6createIPNS0_10basic_jsonISt3mapSt6vectorNSt7__cxx1112basic_stringIcSt11char_traitsIcESaIcEEEblmdSaNS0_14adl_serializerES6_IhSaIhEEvEETnNSt9enable_ifIXsr21is_basic_json_contextIT_EE5valueEiE4typeELi0EEES2_iRKSC_SJ_ = comdat any

$_ZN8nlohmann16json_abi_v3_11_36detail6concatINSt7__cxx1112basic_stringIcSt11char_traitsIcESaIcEEEJRA22_KcPS9_EEET_DpOT0_ = comdat any

$_ZNK8nlohmann16json_abi_v3_11_310basic_jsonISt3mapSt6vectorNSt7__cxx1112basic_stringIcSt11char_traitsIcESaIcEEEblmdSaNS0_14adl_serializerES3_IhSaIhEEvE9type_nameEv = comdat any

$_ZN8nlohmann16json_abi_v3_11_36detail12out_of_rangeD0Ev = comdat any

$_ZN8nlohmann16json_abi_v3_11_3eqERKNS0_10basic_jsonISt3mapSt6vectorNSt7__cxx1112basic_stringIcSt11char_traitsIcESaIcEEEblmdSaNS0_14adl_serializerES3_IhSaIhEEvEESF_ = comdat any

$_ZN7doctest6detail19stringifyBinaryExprIN8nlohmann16json_abi_v3_11_310basic_jsonISt3mapSt6vectorNSt7__cxx1112basic_stringIcSt11char_traitsIcESaIcEEEblmdSaNS3_14adl_serializerES6_IhSaIhEEvEESG_EENS_6StringERKT_PKcRKT0_ = comdat any

$_ZN8nlohmann16json_abi_v3_11_310basic_jsonISt3mapSt6vectorNSt7__cxx1112basic_stringIcSt11char_traitsIcESaIcEEEblmdSaNS0_14adl_serializerES3_IhSaIhEEvE18compares_unorderedERKSD_SF_b = comdat any

$_ZN8nlohmann16json_abi_v3_11_3lsERSoRKNS0_10basic_jsonISt3mapSt6vectorNSt7__cxx1112basic_stringIcSt11char_traitsIcESaIcEEEblmdSaNS0_14adl_serializerES4_IhSaIhEEvEE = comdat any

$_ZN8nlohmann16json_abi_v3_11_36detail10serializerINS0_10basic_jsonISt3mapSt6vectorNSt7__cxx1112basic_stringIcSt11char_traitsIcESaIcEEEblmdSaNS0_14adl_serializerES5_IhSaIhEEvEEEC2ESt10shared_ptrINS1_23output_adapter_protocolIcEEEcNS1_15error_handler_tE = comdat any

$_ZNSt10shared_ptrIN8nlohmann16json_abi_v3_11_36detail23output_adapter_protocolIcEEED2Ev = comdat any

$_ZN8nlohmann16json_abi_v3_11_36detail14output_adapterIcNSt7__cxx1112basic_stringIcSt11char_traitsIcESaIcEEEED2Ev = comdat any

$_ZN8nlohmann16json_abi_v3_11_36detail10serializerINS0_10basic_jsonISt3mapSt6vectorNSt7__cxx1112basic_stringIcSt11char_traitsIcESaIcEEEblmdSaNS0_14adl_serializerES5_IhSaIhEEvEEE4dumpERKSF_bbjj = comdat any

$_ZN8nlohmann16json_abi_v3_11_36detail10serializerINS0_10basic_jsonISt3mapSt6vectorNSt7__cxx1112basic_stringIcSt11char_traitsIcESaIcEEEblmdSaNS0_14adl_serializerES5_IhSaIhEEvEEED2Ev = comdat any

$_ZNSt23_Sp_counted_ptr_inplaceIN8nlohmann16json_abi_v3_11_36detail21output_stream_adapterIcEESaIvELN9__gnu_cxx12_Lock_policyE2EED2Ev = comdat any

$_ZNSt23_Sp_counted_ptr_inplaceIN8nlohmann16json_abi_v3_11_36detail21output_stream_adapterIcEESaIvELN9__gnu_cxx12_Lock_policyE2EED0Ev = comdat any

$_ZNSt23_Sp_counted_ptr_inplaceIN8nlohmann16json_abi_v3_11_36detail21output_stream_adapterIcEESaIvELN9__gnu_cxx12_Lock_policyE2EE10_M_disposeEv = comdat any

$_ZNSt23_Sp_counted_ptr_inplaceIN8nlohmann16json_abi_v3_11_36detail21output_stream_adapterIcEESaIvELN9__gnu_cxx12_Lock_policyE2EE10_M_destroyEv = comdat any

$_ZNSt23_Sp_counted_ptr_inplaceIN8nlohmann16json_abi_v3_11_36detail21output_stream_adapterIcEESaIvELN9__gnu_cxx12_Lock_policyE2EE14_M_get_deleterERKSt9type_info = comdat any

$_ZN8nlohmann16json_abi_v3_11_36detail21output_stream_adapterIcE15write_characterEc = comdat any

$_ZN8nlohmann16json_abi_v3_11_36detail21output_stream_adapterIcE16write_charactersEPKcm = comdat any

$_ZN8nlohmann16json_abi_v3_11_36detail21output_stream_adapterIcED2Ev = comdat any

$_ZN8nlohmann16json_abi_v3_11_36detail21output_stream_adapterIcED0Ev = comdat any

$_ZN8nlohmann16json_abi_v3_11_36detail10serializerINS0_10basic_jsonISt3mapSt6vectorNSt7__cxx1112basic_stringIcSt11char_traitsIcESaIcEEEblmdSaNS0_14adl_serializerES5_IhSaIhEEvEEE12dump_escapedERKSB_b = comdat any

$_ZN8nlohmann16json_abi_v3_11_36detail10serializerINS0_10basic_jsonISt3mapSt6vectorNSt7__cxx1112basic_stringIcSt11char_traitsIcESaIcEEEblmdSaNS0_14adl_serializerES5_IhSaIhEEvEEE12dump_integerIlTnNSt9enable_ifIXoooooosr3std11is_integralIT_EE5valuesr3std7is_sameISJ_mEE5valuesr3std7is_sameISJ_lEE5valuesr3std7is_sameISJ_hEE5valueEiE4typeELi0EEEvSJ_ = comdat any

$_ZN8nlohmann16json_abi_v3_11_36detail6concatINSt7__cxx1112basic_stringIcSt11char_traitsIcESaIcEEEJRA29_KcS8_RA5_S9_S8_EEET_DpOT0_ = comdat any

$_ZN8nlohmann16json_abi_v3_11_36detail10serializerINS0_10basic_jsonISt3mapSt6vectorNSt7__cxx1112basic_stringIcSt11char_traitsIcESaIcEEEblmdSaNS0_14adl_serializerES5_IhSaIhEEvEEE9hex_bytesEh = comdat any

$_ZN8nlohmann16json_abi_v3_11_36detail6concatINSt7__cxx1112basic_stringIcSt11char_traitsIcESaIcEEEJRA39_KcS8_EEET_DpOT0_ = comdat any

$_ZN8nlohmann16json_abi_v3_11_36detail8to_charsIdEEPcS3_PKcT_ = comdat any

$_ZN8nlohmann16json_abi_v3_11_36detail9dtoa_impl6grisu2EPcRiS4_NS2_5diyfpES5_S5_ = comdat any

$_ZN8nlohmann16json_abi_v3_11_36detail9dtoa_impl16grisu2_digit_genEPcRiS4_NS2_5diyfpES5_S5_ = comdat any

$_ZN8nlohmann16json_abi_v3_11_36detail20external_constructorILNS1_7value_tE3EE9constructINS0_10basic_jsonISt3mapSt6vectorNSt7__cxx1112basic_stringIcSt11char_traitsIcESaIcEEEblmdSaNS0_14adl_serializerES8_IhSaIhEEvEEA7_cTnNSt9enable_ifIXntsr3std7is_sameIT0_NT_8string_tEEE5valueEiE4typeELi0EEEvRSM_RKSL_ = comdat any

$_ZN8nlohmann16json_abi_v3_11_36detail12out_of_range6createIPKNS0_10basic_jsonISt3mapSt6vectorNSt7__cxx1112basic_stringIcSt11char_traitsIcESaIcEEEblmdSaNS0_14adl_serializerES6_IhSaIhEEvEETnNSt9enable_ifIXsr21is_basic_json_contextIT_EE5valueEiE4typeELi0EEES2_iRKSC_SK_ = comdat any

$_ZN8nlohmann16json_abi_v3_11_36detail10type_error6createIPKNS0_10basic_jsonISt3mapSt6vectorNSt7__cxx1112basic_stringIcSt11char_traitsIcESaIcEEEblmdSaNS0_14adl_serializerES6_IhSaIhEEvEETnNSt9enable_ifIXsr21is_basic_json_contextIT_EE5valueEiE4typeELi0EEES2_iRKSC_SK_ = comdat any

$_ZN8nlohmann16json_abi_v3_11_36detail6concatINSt7__cxx1112basic_stringIcSt11char_traitsIcESaIcEEEJRA52_KcPS9_EEET_DpOT0_ = comdat any

$_ZNSt6vectorIN8nlohmann16json_abi_v3_11_310basic_jsonISt3mapS_NSt7__cxx1112basic_stringIcSt11char_traitsIcESaIcEEEblmdSaNS1_14adl_serializerES_IhSaIhEEvEESaISD_EE17_M_default_appendEm = comdat any

$_ZNSt6vectorIN8nlohmann16json_abi_v3_11_310basic_jsonISt3mapS_NSt7__cxx1112basic_stringIcSt11char_traitsIcESaIcEEEblmdSaNS1_14adl_serializerES_IhSaIhEEvEESaISD_EE5eraseEN9__gnu_cxx17__normal_iteratorIPKSD_SF_EE = comdat any

$_ZN8nlohmann16json_abi_v3_11_36detail6concatINSt7__cxx1112basic_stringIcSt11char_traitsIcESaIcEEEJRA25_KcPS9_EEET_DpOT0_ = comdat any

$_ZN8nlohmann16json_abi_v3_11_36detail16invalid_iterator6createIPNS0_10basic_jsonISt3mapSt6vectorNSt7__cxx1112basic_stringIcSt11char_traitsIcESaIcEEEblmdSaNS0_14adl_serializerES6_IhSaIhEEvEETnNSt9enable_ifIXsr21is_basic_json_contextIT_EE5valueEiE4typeELi0EEES2_iRKSC_SJ_ = comdat any

$_ZN8nlohmann16json_abi_v3_11_36detail16invalid_iteratorD2Ev = comdat any

$_ZN8nlohmann16json_abi_v3_11_36detail16invalid_iteratorD0Ev = comdat any

$_ZN8nlohmann16json_abi_v3_11_36detail16invalid_iterator6createIPKNS0_10basic_jsonISt3mapSt6vectorNSt7__cxx1112basic_stringIcSt11char_traitsIcESaIcEEEblmdSaNS0_14adl_serializerES6_IhSaIhEEvEETnNSt9enable_ifIXsr21is_basic_json_contextIT_EE5valueEiE4typeELi0EEES2_iRKSC_SK_ = comdat any

$_ZNSt8_Rb_treeINSt7__cxx1112basic_stringIcSt11char_traitsIcESaIcEEESt4pairIKS5_N8nlohmann16json_abi_v3_11_310basic_jsonISt3mapSt6vectorS5_blmdSaNS9_14adl_serializerESC_IhSaIhEEvEEESt10_Select1stISH_ESt4lessIS5_ESaISH_EE12_M_erase_auxESt23_Rb_tree_const_iteratorISH_ESP_ = comdat any

$_ZNSt6vectorIN8nlohmann16json_abi_v3_11_310basic_jsonISt3mapS_NSt7__cxx1112basic_stringIcSt11char_traitsIcESaIcEEEblmdSaNS1_14adl_serializerES_IhSaIhEEvEESaISD_EE8_M_eraseEN9__gnu_cxx17__normal_iteratorIPSD_SF_EESJ_ = comdat any

$_ZNK8nlohmann16json_abi_v3_11_36detail9iter_implINS0_10basic_jsonISt3mapSt6vectorNSt7__cxx1112basic_stringIcSt11char_traitsIcESaIcEEEblmdSaNS0_14adl_serializerES5_IhSaIhEEvEEEeqISG_TnNSt9enable_ifIXoosr3std7is_sameIT_SG_EE5valuesr3std7is_sameISJ_NS2_IKSF_EEEE5valueEDnE4typeELDn0EEEbRKSJ_ = comdat any

$_ZN7doctest6detail19stringifyBinaryExprIN8nlohmann16json_abi_v3_11_36detail9iter_implINS3_10basic_jsonISt3mapSt6vectorNSt7__cxx1112basic_stringIcSt11char_traitsIcESaIcEEEblmdSaNS3_14adl_serializerES8_IhSaIhEEvEEEESJ_EENS_6StringERKT_PKcRKT0_ = comdat any

$_ZNK8nlohmann16json_abi_v3_11_36detail9iter_implIKNS0_10basic_jsonISt3mapSt6vectorNSt7__cxx1112basic_stringIcSt11char_traitsIcESaIcEEEblmdSaNS0_14adl_serializerES5_IhSaIhEEvEEEeqISH_TnNSt9enable_ifIXoosr3std7is_sameIT_SH_EE5valuesr3std7is_sameISK_NS2_ISF_EEEE5valueEDnE4typeELDn0EEEbRKSK_ = comdat any

$_ZN7doctest6detail19stringifyBinaryExprIN8nlohmann16json_abi_v3_11_36detail9iter_implIKNS3_10basic_jsonISt3mapSt6vectorNSt7__cxx1112basic_stringIcSt11char_traitsIcESaIcEEEblmdSaNS3_14adl_serializerES8_IhSaIhEEvEEEESK_EENS_6StringERKT_PKcRKT0_ = comdat any

$_ZN8nlohmann16json_abi_v3_11_36detail9iter_implINS0_10basic_jsonISt3mapSt6vectorNSt7__cxx1112basic_stringIcSt11char_traitsIcESaIcEEEblmdSaNS0_14adl_serializerES5_IhSaIhEEvEEEpLEl = comdat any

$_ZN8nlohmann16json_abi_v3_11_36detail9iter_implIKNS0_10basic_jsonISt3mapSt6vectorNSt7__cxx1112basic_stringIcSt11char_traitsIcESaIcEEEblmdSaNS0_14adl_serializerES5_IhSaIhEEvEEEpLEl = comdat any

$_ZN8nlohmann16json_abi_v3_11_36detail20external_constructorILNS1_7value_tE3EE9constructINS0_10basic_jsonISt3mapSt6vectorNSt7__cxx1112basic_stringIcSt11char_traitsIcESaIcEEEblmdSaNS0_14adl_serializerES8_IhSaIhEEvEEA4_cTnNSt9enable_ifIXntsr3std7is_sameIT0_NT_8string_tEEE5valueEiE4typeELi0EEEvRSM_RKSL_ = comdat any

$_ZN7doctest6detail19stringifyBinaryExprIN8nlohmann16json_abi_v3_11_36detail7value_tES5_EENS_6StringERKT_PKcRKT0_ = comdat any

$_ZNK8nlohmann16json_abi_v3_11_36detail9iter_implIKNS0_10basic_jsonISt3mapSt6vectorNSt7__cxx1112basic_stringIcSt11char_traitsIcESaIcEEEblmdSaNS0_14adl_serializerES5_IhSaIhEEvEEEeqINS2_ISF_EETnNSt9enable_ifIXoosr3std7is_sameIT_SH_EE5valuesr3std7is_sameISL_SJ_EE5valueEDnE4typeELDn0EEEbRKSL_ = comdat any

$_ZN7doctest6detail19stringifyBinaryExprIN8nlohmann16json_abi_v3_11_36detail9iter_implIKNS3_10basic_jsonISt3mapSt6vectorNSt7__cxx1112basic_stringIcSt11char_traitsIcESaIcEEEblmdSaNS3_14adl_serializerES8_IhSaIhEEvEEEENS5_ISI_EEEENS_6StringERKT_PKcRKT0_ = comdat any

$_ZTSN8nlohmann16json_abi_v3_11_36detail12out_of_rangeE = comdat any

$_ZTSN8nlohmann16json_abi_v3_11_36detail9exceptionE = comdat any

$_ZTIN8nlohmann16json_abi_v3_11_36detail9exceptionE = comdat any

$_ZTIN8nlohmann16json_abi_v3_11_36detail12out_of_rangeE = comdat any

$_ZTSN8nlohmann16json_abi_v3_11_36detail10type_errorE = comdat any

$_ZTIN8nlohmann16json_abi_v3_11_36detail10type_errorE = comdat any

$_ZTSN8nlohmann16json_abi_v3_11_36detail16invalid_iteratorE = comdat any

$_ZTIN8nlohmann16json_abi_v3_11_36detail16invalid_iteratorE = comdat any

$_ZZNSt8__detail18__to_chars_10_implIjEEvPcjT_E8__digits = comdat any

$_ZTVN8nlohmann16json_abi_v3_11_36detail10type_errorE = comdat any

$_ZTVN8nlohmann16json_abi_v3_11_36detail9exceptionE = comdat any

$_ZTVN8nlohmann16json_abi_v3_11_36detail12out_of_rangeE = comdat any

$_ZZNSt8__detail18__to_chars_10_implImEEvPcjT_E8__digits = comdat any

$_ZTVSt23_Sp_counted_ptr_inplaceIN8nlohmann16json_abi_v3_11_36detail21output_stream_adapterIcEESaIvELN9__gnu_cxx12_Lock_policyE2EE = comdat any

$_ZTSSt23_Sp_counted_ptr_inplaceIN8nlohmann16json_abi_v3_11_36detail21output_stream_adapterIcEESaIvELN9__gnu_cxx12_Lock_policyE2EE = comdat any

$_ZTSSt16_Sp_counted_baseILN9__gnu_cxx12_Lock_policyE2EE = comdat any

$_ZTSSt11_Mutex_baseILN9__gnu_cxx12_Lock_policyE2EE = comdat any

$_ZTISt11_Mutex_baseILN9__gnu_cxx12_Lock_policyE2EE = comdat any

$_ZTISt16_Sp_counted_baseILN9__gnu_cxx12_Lock_policyE2EE = comdat any

$_ZTISt23_Sp_counted_ptr_inplaceIN8nlohmann16json_abi_v3_11_36detail21output_stream_adapterIcEESaIvELN9__gnu_cxx12_Lock_policyE2EE = comdat any

$_ZTVN8nlohmann16json_abi_v3_11_36detail21output_stream_adapterIcEE = comdat any

$_ZTSN8nlohmann16json_abi_v3_11_36detail21output_stream_adapterIcEE = comdat any

$_ZTSN8nlohmann16json_abi_v3_11_36detail23output_adapter_protocolIcEE = comdat any

$_ZTIN8nlohmann16json_abi_v3_11_36detail23output_adapter_protocolIcEE = comdat any

$_ZTIN8nlohmann16json_abi_v3_11_36detail21output_stream_adapterIcEE = comdat any

$_ZTSSt19_Sp_make_shared_tag = comdat any

$_ZZNSt19_Sp_make_shared_tag5_S_tiEvE5__tag = comdat any

$_ZZN8nlohmann16json_abi_v3_11_36detail10serializerINS0_10basic_jsonISt3mapSt6vectorNSt7__cxx1112basic_stringIcSt11char_traitsIcESaIcEEEblmdSaNS0_14adl_serializerES5_IhSaIhEEvEEE6decodeERhRjhE5utf8d = comdat any

$_ZZN8nlohmann16json_abi_v3_11_36detail10serializerINS0_10basic_jsonISt3mapSt6vectorNSt7__cxx1112basic_stringIcSt11char_traitsIcESaIcEEEblmdSaNS0_14adl_serializerES5_IhSaIhEEvEEE12dump_integerIhTnNSt9enable_ifIXoooooosr3std11is_integralIT_EE5valuesr3std7is_sameISJ_mEE5valuesr3std7is_sameISJ_lEE5valuesr3std7is_sameISJ_hEE5valueEiE4typeELi0EEEvSJ_E12digits_to_99 = comdat any

$_ZZN8nlohmann16json_abi_v3_11_36detail10serializerINS0_10basic_jsonISt3mapSt6vectorNSt7__cxx1112basic_stringIcSt11char_traitsIcESaIcEEEblmdSaNS0_14adl_serializerES5_IhSaIhEEvEEE12dump_integerImTnNSt9enable_ifIXoooooosr3std11is_integralIT_EE5valuesr3std7is_sameISJ_mEE5valuesr3std7is_sameISJ_lEE5valuesr3std7is_sameISJ_hEE5valueEiE4typeELi0EEEvSJ_E12digits_to_99 = comdat any

$_ZZN8nlohmann16json_abi_v3_11_36detail10serializerINS0_10basic_jsonISt3mapSt6vectorNSt7__cxx1112basic_stringIcSt11char_traitsIcESaIcEEEblmdSaNS0_14adl_serializerES5_IhSaIhEEvEEE12dump_integerIlTnNSt9enable_ifIXoooooosr3std11is_integralIT_EE5valuesr3std7is_sameISJ_mEE5valuesr3std7is_sameISJ_lEE5valuesr3std7is_sameISJ_hEE5valueEiE4typeELi0EEEvSJ_E12digits_to_99 = comdat any

$_ZZN8nlohmann16json_abi_v3_11_36detail9dtoa_impl36get_cached_power_for_binary_exponentEiE13kCachedPowers = comdat any

$_ZTVN8nlohmann16json_abi_v3_11_36detail16invalid_iteratorE = comdat any

@.str = private unnamed_addr constant [1 x i8] zeroinitializer, align 1
@.str.2 = private unnamed_addr constant [131 x i8] c"generated/home/dtcxzyw/WorkSpace/Projects/compilers/llvm-opt-benchmark/bench/nlohmann_json/json/tests/src/unit-element_access1.cpp\00", align 1
@.str.3 = private unnamed_addr constant [17 x i8] c"element access 1\00", align 1
@.str.4 = private unnamed_addr constant [6 x i8] c"array\00", align 1
@.str.5 = private unnamed_addr constant [7 x i8] c"string\00", align 1
@.str.6 = private unnamed_addr constant [46 x i8] c"access specified element with bounds checking\00", align 1
@.str.7 = private unnamed_addr constant [21 x i8] c"access within bounds\00", align 1
@.str.8 = private unnamed_addr constant [19 x i8] c"j.at(0) == json(1)\00", align 1
@.str.9 = private unnamed_addr constant [20 x i8] c"j.at(1) == json(1u)\00", align 1
@.str.10 = private unnamed_addr constant [22 x i8] c"j.at(2) == json(true)\00", align 1
@.str.11 = private unnamed_addr constant [25 x i8] c"j.at(3) == json(nullptr)\00", align 1
@.str.12 = private unnamed_addr constant [26 x i8] c"j.at(4) == json(\22string\22)\00", align 1
@.str.13 = private unnamed_addr constant [23 x i8] c"j.at(5) == json(42.23)\00", align 1
@.str.14 = private unnamed_addr constant [26 x i8] c"j.at(6) == json::object()\00", align 1
@.str.15 = private unnamed_addr constant [27 x i8] c"j.at(7) == json({1, 2, 3})\00", align 1
@.str.16 = private unnamed_addr constant [25 x i8] c"j_const.at(0) == json(1)\00", align 1
@.str.17 = private unnamed_addr constant [26 x i8] c"j_const.at(1) == json(1u)\00", align 1
@.str.18 = private unnamed_addr constant [28 x i8] c"j_const.at(2) == json(true)\00", align 1
@.str.19 = private unnamed_addr constant [31 x i8] c"j_const.at(3) == json(nullptr)\00", align 1
@.str.20 = private unnamed_addr constant [32 x i8] c"j_const.at(4) == json(\22string\22)\00", align 1
@.str.21 = private unnamed_addr constant [29 x i8] c"j_const.at(5) == json(42.23)\00", align 1
@.str.22 = private unnamed_addr constant [32 x i8] c"j_const.at(6) == json::object()\00", align 1
@.str.23 = private unnamed_addr constant [33 x i8] c"j_const.at(7) == json({1, 2, 3})\00", align 1
@.str.24 = private unnamed_addr constant [22 x i8] c"access outside bounds\00", align 1
@.str.25 = private unnamed_addr constant [8 x i8] c"j.at(8)\00", align 1
@.str.26 = private unnamed_addr constant [20 x i8] c"json::out_of_range&\00", align 1
@.str.27 = private unnamed_addr constant [64 x i8] c"[json.exception.out_of_range.401] array index 8 is out of range\00", align 1
@_ZTVN10__cxxabiv120__si_class_type_infoE = external global [0 x ptr]
@_ZTSN8nlohmann16json_abi_v3_11_36detail12out_of_rangeE = linkonce_odr dso_local constant [51 x i8] c"N8nlohmann16json_abi_v3_11_36detail12out_of_rangeE\00", comdat, align 1
@_ZTSN8nlohmann16json_abi_v3_11_36detail9exceptionE = linkonce_odr dso_local constant [47 x i8] c"N8nlohmann16json_abi_v3_11_36detail9exceptionE\00", comdat, align 1
@_ZTISt9exception = external constant ptr
@_ZTIN8nlohmann16json_abi_v3_11_36detail9exceptionE = linkonce_odr dso_local constant { ptr, ptr, ptr } { ptr getelementptr inbounds (ptr, ptr @_ZTVN10__cxxabiv120__si_class_type_infoE, i64 2), ptr @_ZTSN8nlohmann16json_abi_v3_11_36detail9exceptionE, ptr @_ZTISt9exception }, comdat, align 8
@_ZTIN8nlohmann16json_abi_v3_11_36detail12out_of_rangeE = linkonce_odr dso_local constant { ptr, ptr, ptr } { ptr getelementptr inbounds (ptr, ptr @_ZTVN10__cxxabiv120__si_class_type_infoE, i64 2), ptr @_ZTSN8nlohmann16json_abi_v3_11_36detail12out_of_rangeE, ptr @_ZTIN8nlohmann16json_abi_v3_11_36detail9exceptionE }, comdat, align 8
@.str.28 = private unnamed_addr constant [14 x i8] c"j_const.at(8)\00", align 1
@.str.29 = private unnamed_addr constant [25 x i8] c"access on non-array type\00", align 1
@.str.30 = private unnamed_addr constant [5 x i8] c"null\00", align 1
@.str.31 = private unnamed_addr constant [17 x i8] c"j_nonarray.at(0)\00", align 1
@.str.32 = private unnamed_addr constant [18 x i8] c"json::type_error&\00", align 1
@.str.33 = private unnamed_addr constant [58 x i8] c"[json.exception.type_error.304] cannot use at() with null\00", align 1
@_ZTSN8nlohmann16json_abi_v3_11_36detail10type_errorE = linkonce_odr dso_local constant [49 x i8] c"N8nlohmann16json_abi_v3_11_36detail10type_errorE\00", comdat, align 1
@_ZTIN8nlohmann16json_abi_v3_11_36detail10type_errorE = linkonce_odr dso_local constant { ptr, ptr, ptr } { ptr getelementptr inbounds (ptr, ptr @_ZTVN10__cxxabiv120__si_class_type_infoE, i64 2), ptr @_ZTSN8nlohmann16json_abi_v3_11_36detail10type_errorE, ptr @_ZTIN8nlohmann16json_abi_v3_11_36detail9exceptionE }, comdat, align 8
@.str.34 = private unnamed_addr constant [23 x i8] c"j_nonarray_const.at(0)\00", align 1
@.str.35 = private unnamed_addr constant [8 x i8] c"boolean\00", align 1
@.str.36 = private unnamed_addr constant [61 x i8] c"[json.exception.type_error.304] cannot use at() with boolean\00", align 1
@.str.37 = private unnamed_addr constant [60 x i8] c"[json.exception.type_error.304] cannot use at() with string\00", align 1
@.str.38 = private unnamed_addr constant [7 x i8] c"object\00", align 1
@.str.39 = private unnamed_addr constant [60 x i8] c"[json.exception.type_error.304] cannot use at() with object\00", align 1
@.str.40 = private unnamed_addr constant [17 x i8] c"number (integer)\00", align 1
@.str.41 = private unnamed_addr constant [60 x i8] c"[json.exception.type_error.304] cannot use at() with number\00", align 1
@.str.42 = private unnamed_addr constant [18 x i8] c"number (unsigned)\00", align 1
@.str.43 = private unnamed_addr constant [24 x i8] c"number (floating-point)\00", align 1
@.str.44 = private unnamed_addr constant [15 x i8] c"front and back\00", align 1
@.str.45 = private unnamed_addr constant [21 x i8] c"j.front() == json(1)\00", align 1
@.str.46 = private unnamed_addr constant [27 x i8] c"j_const.front() == json(1)\00", align 1
@.str.47 = private unnamed_addr constant [28 x i8] c"j.back() == json({1, 2, 3})\00", align 1
@.str.48 = private unnamed_addr constant [34 x i8] c"j_const.back() == json({1, 2, 3})\00", align 1
@.str.49 = private unnamed_addr constant [25 x i8] c"access specified element\00", align 1
@.str.50 = private unnamed_addr constant [16 x i8] c"j[0] == json(1)\00", align 1
@.str.51 = private unnamed_addr constant [17 x i8] c"j[1] == json(1u)\00", align 1
@.str.52 = private unnamed_addr constant [19 x i8] c"j[2] == json(true)\00", align 1
@.str.53 = private unnamed_addr constant [22 x i8] c"j[3] == json(nullptr)\00", align 1
@.str.54 = private unnamed_addr constant [23 x i8] c"j[4] == json(\22string\22)\00", align 1
@.str.55 = private unnamed_addr constant [20 x i8] c"j[5] == json(42.23)\00", align 1
@.str.56 = private unnamed_addr constant [23 x i8] c"j[6] == json::object()\00", align 1
@.str.57 = private unnamed_addr constant [24 x i8] c"j[7] == json({1, 2, 3})\00", align 1
@.str.58 = private unnamed_addr constant [22 x i8] c"j_const[0] == json(1)\00", align 1
@.str.59 = private unnamed_addr constant [23 x i8] c"j_const[1] == json(1u)\00", align 1
@.str.60 = private unnamed_addr constant [25 x i8] c"j_const[2] == json(true)\00", align 1
@.str.61 = private unnamed_addr constant [28 x i8] c"j_const[3] == json(nullptr)\00", align 1
@.str.62 = private unnamed_addr constant [29 x i8] c"j_const[4] == json(\22string\22)\00", align 1
@.str.63 = private unnamed_addr constant [26 x i8] c"j_const[5] == json(42.23)\00", align 1
@.str.64 = private unnamed_addr constant [29 x i8] c"j_const[6] == json::object()\00", align 1
@.str.65 = private unnamed_addr constant [30 x i8] c"j_const[7] == json({1, 2, 3})\00", align 1
@.str.66 = private unnamed_addr constant [15 x i8] c"standard tests\00", align 1
@.str.67 = private unnamed_addr constant [14 x i8] c"j_nonarray[0]\00", align 1
@.str.68 = private unnamed_addr constant [20 x i8] c"j_nonarray_const[0]\00", align 1
@.str.69 = private unnamed_addr constant [88 x i8] c"[json.exception.type_error.305] cannot use operator[] with a numeric argument with null\00", align 1
@.str.70 = private unnamed_addr constant [49 x i8] c"implicit transformation to properly filled array\00", align 1
@.str.71 = private unnamed_addr constant [52 x i8] c"j_nonarray == json({nullptr, nullptr, nullptr, 42})\00", align 1
@.str.72 = private unnamed_addr constant [91 x i8] c"[json.exception.type_error.305] cannot use operator[] with a numeric argument with boolean\00", align 1
@.str.73 = private unnamed_addr constant [90 x i8] c"[json.exception.type_error.305] cannot use operator[] with a numeric argument with string\00", align 1
@.str.74 = private unnamed_addr constant [90 x i8] c"[json.exception.type_error.305] cannot use operator[] with a numeric argument with object\00", align 1
@.str.75 = private unnamed_addr constant [90 x i8] c"[json.exception.type_error.305] cannot use operator[] with a numeric argument with number\00", align 1
@.str.76 = private unnamed_addr constant [25 x i8] c"remove specified element\00", align 1
@.str.77 = private unnamed_addr constant [24 x i8] c"remove element by index\00", align 1
@.str.78 = private unnamed_addr constant [80 x i8] c"jarray == json({1u, true, nullptr, \22string\22, 42.23, json::object(), {1, 2, 3}})\00", align 1
@.str.79 = private unnamed_addr constant [79 x i8] c"jarray == json({1, true, nullptr, \22string\22, 42.23, json::object(), {1, 2, 3}})\00", align 1
@.str.80 = private unnamed_addr constant [77 x i8] c"jarray == json({1, 1u, nullptr, \22string\22, 42.23, json::object(), {1, 2, 3}})\00", align 1
@.str.81 = private unnamed_addr constant [74 x i8] c"jarray == json({1, 1u, true, \22string\22, 42.23, json::object(), {1, 2, 3}})\00", align 1
@.str.82 = private unnamed_addr constant [73 x i8] c"jarray == json({1, 1u, true, nullptr, 42.23, json::object(), {1, 2, 3}})\00", align 1
@.str.83 = private unnamed_addr constant [76 x i8] c"jarray == json({1, 1u, true, nullptr, \22string\22, json::object(), {1, 2, 3}})\00", align 1
@.str.84 = private unnamed_addr constant [67 x i8] c"jarray == json({1, 1u, true, nullptr, \22string\22, 42.23, {1, 2, 3}})\00", align 1
@.str.85 = private unnamed_addr constant [72 x i8] c"jarray == json({1, 1u, true, nullptr, \22string\22, 42.23, json::object()})\00", align 1
@.str.86 = private unnamed_addr constant [16 x i8] c"jarray.erase(8)\00", align 1
@.str.87 = private unnamed_addr constant [27 x i8] c"remove element by iterator\00", align 1
@.str.88 = private unnamed_addr constant [15 x i8] c"erase(begin())\00", align 1
@.str.89 = private unnamed_addr constant [17 x i8] c"*it2 == json(1u)\00", align 1
@.str.90 = private unnamed_addr constant [22 x i8] c"erase(begin(), end())\00", align 1
@.str.91 = private unnamed_addr constant [24 x i8] c"jarray == json::array()\00", align 1
@.str.92 = private unnamed_addr constant [20 x i8] c"it2 == jarray.end()\00", align 1
@.str.93 = private unnamed_addr constant [21 x i8] c"it2 == jarray.cend()\00", align 1
@.str.94 = private unnamed_addr constant [24 x i8] c"erase(begin(), begin())\00", align 1
@.str.95 = private unnamed_addr constant [83 x i8] c"jarray == json({1, 1u, true, nullptr, \22string\22, 42.23, json::object(), {1, 2, 3}})\00", align 1
@.str.96 = private unnamed_addr constant [16 x i8] c"*it2 == json(1)\00", align 1
@.str.97 = private unnamed_addr constant [16 x i8] c"erase at offset\00", align 1
@.str.98 = private unnamed_addr constant [20 x i8] c"*it2 == json(42.23)\00", align 1
@.str.99 = private unnamed_addr constant [15 x i8] c"erase subrange\00", align 1
@.str.100 = private unnamed_addr constant [57 x i8] c"jarray == json({1, 1u, true, json::object(), {1, 2, 3}})\00", align 1
@.str.101 = private unnamed_addr constant [23 x i8] c"*it2 == json::object()\00", align 1
@.str.102 = private unnamed_addr constant [17 x i8] c"different arrays\00", align 1
@.str.103 = private unnamed_addr constant [4 x i8] c"foo\00", align 1
@.str.104 = private unnamed_addr constant [4 x i8] c"bar\00", align 1
@.str.105 = private unnamed_addr constant [30 x i8] c"jarray.erase(jarray2.begin())\00", align 1
@.str.106 = private unnamed_addr constant [24 x i8] c"json::invalid_iterator&\00", align 1
@.str.107 = private unnamed_addr constant [74 x i8] c"[json.exception.invalid_iterator.202] iterator does not fit current value\00", align 1
@_ZTSN8nlohmann16json_abi_v3_11_36detail16invalid_iteratorE = linkonce_odr dso_local constant [55 x i8] c"N8nlohmann16json_abi_v3_11_36detail16invalid_iteratorE\00", comdat, align 1
@_ZTIN8nlohmann16json_abi_v3_11_36detail16invalid_iteratorE = linkonce_odr dso_local constant { ptr, ptr, ptr } { ptr getelementptr inbounds (ptr, ptr @_ZTVN10__cxxabiv120__si_class_type_infoE, i64 2), ptr @_ZTSN8nlohmann16json_abi_v3_11_36detail16invalid_iteratorE, ptr @_ZTIN8nlohmann16json_abi_v3_11_36detail9exceptionE }, comdat, align 8
@.str.108 = private unnamed_addr constant [44 x i8] c"jarray.erase(jarray.begin(), jarray2.end())\00", align 1
@.str.109 = private unnamed_addr constant [73 x i8] c"[json.exception.invalid_iterator.203] iterators do not fit current value\00", align 1
@.str.110 = private unnamed_addr constant [44 x i8] c"jarray.erase(jarray2.begin(), jarray.end())\00", align 1
@.str.111 = private unnamed_addr constant [45 x i8] c"jarray.erase(jarray2.begin(), jarray2.end())\00", align 1
@.str.112 = private unnamed_addr constant [31 x i8] c"jarray.erase(jarray2.cbegin())\00", align 1
@.str.113 = private unnamed_addr constant [46 x i8] c"jarray.erase(jarray.cbegin(), jarray2.cend())\00", align 1
@.str.114 = private unnamed_addr constant [46 x i8] c"jarray.erase(jarray2.cbegin(), jarray.cend())\00", align 1
@.str.115 = private unnamed_addr constant [47 x i8] c"jarray.erase(jarray2.cbegin(), jarray2.cend())\00", align 1
@.str.116 = private unnamed_addr constant [42 x i8] c"remove element by index in non-array type\00", align 1
@.str.117 = private unnamed_addr constant [21 x i8] c"j_nonobject.erase(0)\00", align 1
@.str.118 = private unnamed_addr constant [61 x i8] c"[json.exception.type_error.307] cannot use erase() with null\00", align 1
@.str.119 = private unnamed_addr constant [64 x i8] c"[json.exception.type_error.307] cannot use erase() with boolean\00", align 1
@.str.120 = private unnamed_addr constant [63 x i8] c"[json.exception.type_error.307] cannot use erase() with string\00", align 1
@.str.121 = private unnamed_addr constant [63 x i8] c"[json.exception.type_error.307] cannot use erase() with object\00", align 1
@.str.122 = private unnamed_addr constant [63 x i8] c"[json.exception.type_error.307] cannot use erase() with number\00", align 1
@.str.123 = private unnamed_addr constant [13 x i8] c"other values\00", align 1
@.str.124 = private unnamed_addr constant [10 x i8] c"j.front()\00", align 1
@.str.125 = private unnamed_addr constant [55 x i8] c"[json.exception.invalid_iterator.214] cannot get value\00", align 1
@.str.126 = private unnamed_addr constant [9 x i8] c"j.back()\00", align 1
@.str.127 = private unnamed_addr constant [15 x i8] c"j.front() == j\00", align 1
@.str.128 = private unnamed_addr constant [14 x i8] c"j.back() == j\00", align 1
@.str.129 = private unnamed_addr constant [17 x i8] c"number (boolean)\00", align 1
@.str.130 = private unnamed_addr constant [24 x i8] c"number (floating point)\00", align 1
@.str.131 = private unnamed_addr constant [30 x i8] c"erase with one valid iterator\00", align 1
@.str.132 = private unnamed_addr constant [19 x i8] c"j.erase(j.begin())\00", align 1
@.str.133 = private unnamed_addr constant [32 x i8] c"j.type() == json::value_t::null\00", align 1
@.str.134 = private unnamed_addr constant [14 x i8] c"it == j.end()\00", align 1
@.str.135 = private unnamed_addr constant [7 x i8] c"binary\00", align 1
@.str.136 = private unnamed_addr constant [32 x i8] c"erase with one invalid iterator\00", align 1
@.str.137 = private unnamed_addr constant [17 x i8] c"j.erase(j.end())\00", align 1
@.str.138 = private unnamed_addr constant [60 x i8] c"[json.exception.invalid_iterator.205] iterator out of range\00", align 1
@.str.139 = private unnamed_addr constant [18 x i8] c"j.erase(j.cend())\00", align 1
@.str.140 = private unnamed_addr constant [31 x i8] c"erase with two valid iterators\00", align 1
@.str.141 = private unnamed_addr constant [28 x i8] c"j.erase(j.begin(), j.end())\00", align 1
@.str.142 = private unnamed_addr constant [30 x i8] c"j.erase(j.cbegin(), j.cend())\00", align 1
@.str.143 = private unnamed_addr constant [33 x i8] c"erase with two invalid iterators\00", align 1
@.str.144 = private unnamed_addr constant [26 x i8] c"j.erase(j.end(), j.end())\00", align 1
@.str.145 = private unnamed_addr constant [61 x i8] c"[json.exception.invalid_iterator.204] iterators out of range\00", align 1
@.str.146 = private unnamed_addr constant [30 x i8] c"j.erase(j.begin(), j.begin())\00", align 1
@.str.147 = private unnamed_addr constant [28 x i8] c"j.erase(j.cend(), j.cend())\00", align 1
@.str.148 = private unnamed_addr constant [32 x i8] c"j.erase(j.cbegin(), j.cbegin())\00", align 1
@.str.149 = private unnamed_addr constant [43 x i8] c"cannot create object from initializer list\00", align 1
@.str.150 = private unnamed_addr constant [11 x i8] c"type_error\00", align 1
@.str.151 = private unnamed_addr constant [17 x i8] c"[json.exception.\00", align 1
@.str.152 = private unnamed_addr constant [3 x i8] c"] \00", align 1
@_ZZNSt8__detail18__to_chars_10_implIjEEvPcjT_E8__digits = linkonce_odr dso_local local_unnamed_addr constant [201 x i8] c"00010203040506070809101112131415161718192021222324252627282930313233343536373839404142434445464748495051525354555657585960616263646566676869707172737475767778798081828384858687888990919293949596979899\00", comdat, align 16
@_ZTVN8nlohmann16json_abi_v3_11_36detail10type_errorE = linkonce_odr dso_local unnamed_addr constant { [5 x ptr] } { [5 x ptr] [ptr null, ptr @_ZTIN8nlohmann16json_abi_v3_11_36detail10type_errorE, ptr @_ZN8nlohmann16json_abi_v3_11_36detail10type_errorD2Ev, ptr @_ZN8nlohmann16json_abi_v3_11_36detail10type_errorD0Ev, ptr @_ZNK8nlohmann16json_abi_v3_11_36detail9exception4whatEv] }, comdat, align 8
@_ZTVN8nlohmann16json_abi_v3_11_36detail9exceptionE = linkonce_odr dso_local unnamed_addr constant { [5 x ptr] } { [5 x ptr] [ptr null, ptr @_ZTIN8nlohmann16json_abi_v3_11_36detail9exceptionE, ptr @_ZN8nlohmann16json_abi_v3_11_36detail9exceptionD2Ev, ptr @_ZN8nlohmann16json_abi_v3_11_36detail9exceptionD0Ev, ptr @_ZNK8nlohmann16json_abi_v3_11_36detail9exception4whatEv] }, comdat, align 8
@.str.155 = private unnamed_addr constant [49 x i8] c"cannot create std::vector larger than max_size()\00", align 1
@.str.156 = private unnamed_addr constant [16 x i8] c"vector::reserve\00", align 1
@.str.157 = private unnamed_addr constant [26 x i8] c"vector::_M_realloc_insert\00", align 1
@_ZTISt12out_of_range = external constant ptr
@.str.158 = private unnamed_addr constant [13 x i8] c"array index \00", align 1
@.str.159 = private unnamed_addr constant [17 x i8] c" is out of range\00", align 1
@.str.160 = private unnamed_addr constant [22 x i8] c"cannot use at() with \00", align 1
@.str.161 = private unnamed_addr constant [74 x i8] c"vector::_M_range_check: __n (which is %zu) >= this->size() (which is %zu)\00", align 1
@.str.162 = private unnamed_addr constant [13 x i8] c"out_of_range\00", align 1
@_ZTVN8nlohmann16json_abi_v3_11_36detail12out_of_rangeE = linkonce_odr dso_local unnamed_addr constant { [5 x ptr] } { [5 x ptr] [ptr null, ptr @_ZTIN8nlohmann16json_abi_v3_11_36detail12out_of_rangeE, ptr @_ZN8nlohmann16json_abi_v3_11_36detail12out_of_rangeD2Ev, ptr @_ZN8nlohmann16json_abi_v3_11_36detail12out_of_rangeD0Ev, ptr @_ZNK8nlohmann16json_abi_v3_11_36detail9exception4whatEv] }, comdat, align 8
@_ZZNSt8__detail18__to_chars_10_implImEEvPcjT_E8__digits = linkonce_odr dso_local local_unnamed_addr constant [201 x i8] c"00010203040506070809101112131415161718192021222324252627282930313233343536373839404142434445464748495051525354555657585960616263646566676869707172737475767778798081828384858687888990919293949596979899\00", comdat, align 16
@.str.163 = private unnamed_addr constant [10 x i8] c"discarded\00", align 1
@.str.164 = private unnamed_addr constant [7 x i8] c"number\00", align 1
@.str.165 = private unnamed_addr constant [5 x i8] c" == \00", align 1
@_ZTVSt23_Sp_counted_ptr_inplaceIN8nlohmann16json_abi_v3_11_36detail21output_stream_adapterIcEESaIvELN9__gnu_cxx12_Lock_policyE2EE = linkonce_odr dso_local unnamed_addr constant { [7 x ptr] } { [7 x ptr] [ptr null, ptr @_ZTISt23_Sp_counted_ptr_inplaceIN8nlohmann16json_abi_v3_11_36detail21output_stream_adapterIcEESaIvELN9__gnu_cxx12_Lock_policyE2EE, ptr @_ZNSt23_Sp_counted_ptr_inplaceIN8nlohmann16json_abi_v3_11_36detail21output_stream_adapterIcEESaIvELN9__gnu_cxx12_Lock_policyE2EED2Ev, ptr @_ZNSt23_Sp_counted_ptr_inplaceIN8nlohmann16json_abi_v3_11_36detail21output_stream_adapterIcEESaIvELN9__gnu_cxx12_Lock_policyE2EED0Ev, ptr @_ZNSt23_Sp_counted_ptr_inplaceIN8nlohmann16json_abi_v3_11_36detail21output_stream_adapterIcEESaIvELN9__gnu_cxx12_Lock_policyE2EE10_M_disposeEv, ptr @_ZNSt23_Sp_counted_ptr_inplaceIN8nlohmann16json_abi_v3_11_36detail21output_stream_adapterIcEESaIvELN9__gnu_cxx12_Lock_policyE2EE10_M_destroyEv, ptr @_ZNSt23_Sp_counted_ptr_inplaceIN8nlohmann16json_abi_v3_11_36detail21output_stream_adapterIcEESaIvELN9__gnu_cxx12_Lock_policyE2EE14_M_get_deleterERKSt9type_info] }, comdat, align 8
@_ZTSSt23_Sp_counted_ptr_inplaceIN8nlohmann16json_abi_v3_11_36detail21output_stream_adapterIcEESaIvELN9__gnu_cxx12_Lock_policyE2EE = linkonce_odr dso_local constant [126 x i8] c"St23_Sp_counted_ptr_inplaceIN8nlohmann16json_abi_v3_11_36detail21output_stream_adapterIcEESaIvELN9__gnu_cxx12_Lock_policyE2EE\00", comdat, align 1
@_ZTSSt16_Sp_counted_baseILN9__gnu_cxx12_Lock_policyE2EE = linkonce_odr dso_local constant [52 x i8] c"St16_Sp_counted_baseILN9__gnu_cxx12_Lock_policyE2EE\00", comdat, align 1
@_ZTVN10__cxxabiv117__class_type_infoE = external global [0 x ptr]
@_ZTSSt11_Mutex_baseILN9__gnu_cxx12_Lock_policyE2EE = linkonce_odr dso_local constant [47 x i8] c"St11_Mutex_baseILN9__gnu_cxx12_Lock_policyE2EE\00", comdat, align 1
@_ZTISt11_Mutex_baseILN9__gnu_cxx12_Lock_policyE2EE = linkonce_odr dso_local constant { ptr, ptr } { ptr getelementptr inbounds (ptr, ptr @_ZTVN10__cxxabiv117__class_type_infoE, i64 2), ptr @_ZTSSt11_Mutex_baseILN9__gnu_cxx12_Lock_policyE2EE }, comdat, align 8
@_ZTISt16_Sp_counted_baseILN9__gnu_cxx12_Lock_policyE2EE = linkonce_odr dso_local constant { ptr, ptr, ptr } { ptr getelementptr inbounds (ptr, ptr @_ZTVN10__cxxabiv120__si_class_type_infoE, i64 2), ptr @_ZTSSt16_Sp_counted_baseILN9__gnu_cxx12_Lock_policyE2EE, ptr @_ZTISt11_Mutex_baseILN9__gnu_cxx12_Lock_policyE2EE }, comdat, align 8
@_ZTISt23_Sp_counted_ptr_inplaceIN8nlohmann16json_abi_v3_11_36detail21output_stream_adapterIcEESaIvELN9__gnu_cxx12_Lock_policyE2EE = linkonce_odr dso_local constant { ptr, ptr, ptr } { ptr getelementptr inbounds (ptr, ptr @_ZTVN10__cxxabiv120__si_class_type_infoE, i64 2), ptr @_ZTSSt23_Sp_counted_ptr_inplaceIN8nlohmann16json_abi_v3_11_36detail21output_stream_adapterIcEESaIvELN9__gnu_cxx12_Lock_policyE2EE, ptr @_ZTISt16_Sp_counted_baseILN9__gnu_cxx12_Lock_policyE2EE }, comdat, align 8
@_ZTVN8nlohmann16json_abi_v3_11_36detail21output_stream_adapterIcEE = linkonce_odr dso_local unnamed_addr constant { [6 x ptr] } { [6 x ptr] [ptr null, ptr @_ZTIN8nlohmann16json_abi_v3_11_36detail21output_stream_adapterIcEE, ptr @_ZN8nlohmann16json_abi_v3_11_36detail21output_stream_adapterIcE15write_characterEc, ptr @_ZN8nlohmann16json_abi_v3_11_36detail21output_stream_adapterIcE16write_charactersEPKcm, ptr @_ZN8nlohmann16json_abi_v3_11_36detail21output_stream_adapterIcED2Ev, ptr @_ZN8nlohmann16json_abi_v3_11_36detail21output_stream_adapterIcED0Ev] }, comdat, align 8
@_ZTSN8nlohmann16json_abi_v3_11_36detail21output_stream_adapterIcEE = linkonce_odr dso_local constant [63 x i8] c"N8nlohmann16json_abi_v3_11_36detail21output_stream_adapterIcEE\00", comdat, align 1
@_ZTSN8nlohmann16json_abi_v3_11_36detail23output_adapter_protocolIcEE = linkonce_odr dso_local constant [65 x i8] c"N8nlohmann16json_abi_v3_11_36detail23output_adapter_protocolIcEE\00", comdat, align 1
@_ZTIN8nlohmann16json_abi_v3_11_36detail23output_adapter_protocolIcEE = linkonce_odr dso_local constant { ptr, ptr } { ptr getelementptr inbounds (ptr, ptr @_ZTVN10__cxxabiv117__class_type_infoE, i64 2), ptr @_ZTSN8nlohmann16json_abi_v3_11_36detail23output_adapter_protocolIcEE }, comdat, align 8
@_ZTIN8nlohmann16json_abi_v3_11_36detail21output_stream_adapterIcEE = linkonce_odr dso_local constant { ptr, ptr, ptr } { ptr getelementptr inbounds (ptr, ptr @_ZTVN10__cxxabiv120__si_class_type_infoE, i64 2), ptr @_ZTSN8nlohmann16json_abi_v3_11_36detail21output_stream_adapterIcEE, ptr @_ZTIN8nlohmann16json_abi_v3_11_36detail23output_adapter_protocolIcEE }, comdat, align 8
@_ZTSSt19_Sp_make_shared_tag = linkonce_odr dso_local constant [24 x i8] c"St19_Sp_make_shared_tag\00", comdat, align 1
@_ZZNSt19_Sp_make_shared_tag5_S_tiEvE5__tag = linkonce_odr dso_local constant [16 x i8] zeroinitializer, comdat, align 8
@__libc_single_threaded = external local_unnamed_addr global i8, align 1
@.str.166 = private unnamed_addr constant [3 x i8] c"{}\00", align 1
@.str.167 = private unnamed_addr constant [3 x i8] c"{\0A\00", align 1
@.str.168 = private unnamed_addr constant [4 x i8] c"\22: \00", align 1
@.str.169 = private unnamed_addr constant [3 x i8] c",\0A\00", align 1
@.str.170 = private unnamed_addr constant [3 x i8] c"\22:\00", align 1
@.str.171 = private unnamed_addr constant [3 x i8] c"[]\00", align 1
@.str.172 = private unnamed_addr constant [3 x i8] c"[\0A\00", align 1
@.str.173 = private unnamed_addr constant [11 x i8] c"\22bytes\22: [\00", align 1
@.str.174 = private unnamed_addr constant [3 x i8] c", \00", align 1
@.str.175 = private unnamed_addr constant [4 x i8] c"],\0A\00", align 1
@.str.176 = private unnamed_addr constant [12 x i8] c"\22subtype\22: \00", align 1
@.str.177 = private unnamed_addr constant [11 x i8] c"{\22bytes\22:[\00", align 1
@.str.178 = private unnamed_addr constant [13 x i8] c"],\22subtype\22:\00", align 1
@.str.179 = private unnamed_addr constant [6 x i8] c"null}\00", align 1
@.str.180 = private unnamed_addr constant [5 x i8] c"true\00", align 1
@.str.181 = private unnamed_addr constant [6 x i8] c"false\00", align 1
@.str.182 = private unnamed_addr constant [12 x i8] c"<discarded>\00", align 1
@.str.183 = private unnamed_addr constant [7 x i8] c"\\u%04x\00", align 1
@.str.184 = private unnamed_addr constant [13 x i8] c"\\u%04x\\u%04x\00", align 1
@.str.185 = private unnamed_addr constant [29 x i8] c"invalid UTF-8 byte at index \00", align 1
@.str.186 = private unnamed_addr constant [5 x i8] c": 0x\00", align 1
@.str.187 = private unnamed_addr constant [39 x i8] c"incomplete UTF-8 string; last byte: 0x\00", align 1
@.str.188 = private unnamed_addr constant [7 x i8] c"\\ufffd\00", align 1
@.str.189 = private unnamed_addr constant [4 x i8] c"\EF\BF\BD\00", align 1
@_ZZN8nlohmann16json_abi_v3_11_36detail10serializerINS0_10basic_jsonISt3mapSt6vectorNSt7__cxx1112basic_stringIcSt11char_traitsIcESaIcEEEblmdSaNS0_14adl_serializerES5_IhSaIhEEvEEE6decodeERhRjhE5utf8d = linkonce_odr dso_local local_unnamed_addr constant %"struct.std::array.125" { [400 x i8] c"\00\00\00\00\00\00\00\00\00\00\00\00\00\00\00\00\00\00\00\00\00\00\00\00\00\00\00\00\00\00\00\00\00\00\00\00\00\00\00\00\00\00\00\00\00\00\00\00\00\00\00\00\00\00\00\00\00\00\00\00\00\00\00\00\00\00\00\00\00\00\00\00\00\00\00\00\00\00\00\00\00\00\00\00\00\00\00\00\00\00\00\00\00\00\00\00\00\00\00\00\00\00\00\00\00\00\00\00\00\00\00\00\00\00\00\00\00\00\00\00\00\00\00\00\00\00\00\00\01\01\01\01\01\01\01\01\01\01\01\01\01\01\01\01\09\09\09\09\09\09\09\09\09\09\09\09\09\09\09\09\07\07\07\07\07\07\07\07\07\07\07\07\07\07\07\07\07\07\07\07\07\07\07\07\07\07\07\07\07\07\07\07\08\08\02\02\02\02\02\02\02\02\02\02\02\02\02\02\02\02\02\02\02\02\02\02\02\02\02\02\02\02\02\02\0A\03\03\03\03\03\03\03\03\03\03\03\03\04\03\03\0B\06\06\06\05\08\08\08\08\08\08\08\08\08\08\08\00\01\02\03\05\08\07\01\01\01\04\06\01\01\01\01\01\01\01\01\01\01\01\01\01\01\01\01\01\01\01\01\01\00\01\01\01\01\01\00\01\00\01\01\01\01\01\01\01\02\01\01\01\01\01\02\01\02\01\01\01\01\01\01\01\01\01\01\01\01\01\02\01\01\01\01\01\01\01\01\01\02\01\01\01\01\01\01\01\02\01\01\01\01\01\01\01\01\01\01\01\01\01\03\01\03\01\01\01\01\01\01\01\03\01\01\01\01\01\03\01\03\01\01\01\01\01\01\01\03\01\01\01\01\01\01\01\01\01\01\01\01\01\01" }, comdat, align 1
@.str.190 = private unnamed_addr constant [3 x i8] c"FF\00", align 1
@.str.191 = private unnamed_addr constant [17 x i8] c"0123456789ABCDEF\00", align 1
@_ZZN8nlohmann16json_abi_v3_11_36detail10serializerINS0_10basic_jsonISt3mapSt6vectorNSt7__cxx1112basic_stringIcSt11char_traitsIcESaIcEEEblmdSaNS0_14adl_serializerES5_IhSaIhEEvEEE12dump_integerIhTnNSt9enable_ifIXoooooosr3std11is_integralIT_EE5valuesr3std7is_sameISJ_mEE5valuesr3std7is_sameISJ_lEE5valuesr3std7is_sameISJ_hEE5valueEiE4typeELi0EEEvSJ_E12digits_to_99 = linkonce_odr dso_local local_unnamed_addr constant %"struct.std::array.126" { [100 x %"struct.std::array.127"] [%"struct.std::array.127" { [2 x i8] c"00" }, %"struct.std::array.127" { [2 x i8] c"01" }, %"struct.std::array.127" { [2 x i8] c"02" }, %"struct.std::array.127" { [2 x i8] c"03" }, %"struct.std::array.127" { [2 x i8] c"04" }, %"struct.std::array.127" { [2 x i8] c"05" }, %"struct.std::array.127" { [2 x i8] c"06" }, %"struct.std::array.127" { [2 x i8] c"07" }, %"struct.std::array.127" { [2 x i8] c"08" }, %"struct.std::array.127" { [2 x i8] c"09" }, %"struct.std::array.127" { [2 x i8] c"10" }, %"struct.std::array.127" { [2 x i8] c"11" }, %"struct.std::array.127" { [2 x i8] c"12" }, %"struct.std::array.127" { [2 x i8] c"13" }, %"struct.std::array.127" { [2 x i8] c"14" }, %"struct.std::array.127" { [2 x i8] c"15" }, %"struct.std::array.127" { [2 x i8] c"16" }, %"struct.std::array.127" { [2 x i8] c"17" }, %"struct.std::array.127" { [2 x i8] c"18" }, %"struct.std::array.127" { [2 x i8] c"19" }, %"struct.std::array.127" { [2 x i8] c"20" }, %"struct.std::array.127" { [2 x i8] c"21" }, %"struct.std::array.127" { [2 x i8] c"22" }, %"struct.std::array.127" { [2 x i8] c"23" }, %"struct.std::array.127" { [2 x i8] c"24" }, %"struct.std::array.127" { [2 x i8] c"25" }, %"struct.std::array.127" { [2 x i8] c"26" }, %"struct.std::array.127" { [2 x i8] c"27" }, %"struct.std::array.127" { [2 x i8] c"28" }, %"struct.std::array.127" { [2 x i8] c"29" }, %"struct.std::array.127" { [2 x i8] c"30" }, %"struct.std::array.127" { [2 x i8] c"31" }, %"struct.std::array.127" { [2 x i8] c"32" }, %"struct.std::array.127" { [2 x i8] c"33" }, %"struct.std::array.127" { [2 x i8] c"34" }, %"struct.std::array.127" { [2 x i8] c"35" }, %"struct.std::array.127" { [2 x i8] c"36" }, %"struct.std::array.127" { [2 x i8] c"37" }, %"struct.std::array.127" { [2 x i8] c"38" }, %"struct.std::array.127" { [2 x i8] c"39" }, %"struct.std::array.127" { [2 x i8] c"40" }, %"struct.std::array.127" { [2 x i8] c"41" }, %"struct.std::array.127" { [2 x i8] c"42" }, %"struct.std::array.127" { [2 x i8] c"43" }, %"struct.std::array.127" { [2 x i8] c"44" }, %"struct.std::array.127" { [2 x i8] c"45" }, %"struct.std::array.127" { [2 x i8] c"46" }, %"struct.std::array.127" { [2 x i8] c"47" }, %"struct.std::array.127" { [2 x i8] c"48" }, %"struct.std::array.127" { [2 x i8] c"49" }, %"struct.std::array.127" { [2 x i8] c"50" }, %"struct.std::array.127" { [2 x i8] c"51" }, %"struct.std::array.127" { [2 x i8] c"52" }, %"struct.std::array.127" { [2 x i8] c"53" }, %"struct.std::array.127" { [2 x i8] c"54" }, %"struct.std::array.127" { [2 x i8] c"55" }, %"struct.std::array.127" { [2 x i8] c"56" }, %"struct.std::array.127" { [2 x i8] c"57" }, %"struct.std::array.127" { [2 x i8] c"58" }, %"struct.std::array.127" { [2 x i8] c"59" }, %"struct.std::array.127" { [2 x i8] c"60" }, %"struct.std::array.127" { [2 x i8] c"61" }, %"struct.std::array.127" { [2 x i8] c"62" }, %"struct.std::array.127" { [2 x i8] c"63" }, %"struct.std::array.127" { [2 x i8] c"64" }, %"struct.std::array.127" { [2 x i8] c"65" }, %"struct.std::array.127" { [2 x i8] c"66" }, %"struct.std::array.127" { [2 x i8] c"67" }, %"struct.std::array.127" { [2 x i8] c"68" }, %"struct.std::array.127" { [2 x i8] c"69" }, %"struct.std::array.127" { [2 x i8] c"70" }, %"struct.std::array.127" { [2 x i8] c"71" }, %"struct.std::array.127" { [2 x i8] c"72" }, %"struct.std::array.127" { [2 x i8] c"73" }, %"struct.std::array.127" { [2 x i8] c"74" }, %"struct.std::array.127" { [2 x i8] c"75" }, %"struct.std::array.127" { [2 x i8] c"76" }, %"struct.std::array.127" { [2 x i8] c"77" }, %"struct.std::array.127" { [2 x i8] c"78" }, %"struct.std::array.127" { [2 x i8] c"79" }, %"struct.std::array.127" { [2 x i8] c"80" }, %"struct.std::array.127" { [2 x i8] c"81" }, %"struct.std::array.127" { [2 x i8] c"82" }, %"struct.std::array.127" { [2 x i8] c"83" }, %"struct.std::array.127" { [2 x i8] c"84" }, %"struct.std::array.127" { [2 x i8] c"85" }, %"struct.std::array.127" { [2 x i8] c"86" }, %"struct.std::array.127" { [2 x i8] c"87" }, %"struct.std::array.127" { [2 x i8] c"88" }, %"struct.std::array.127" { [2 x i8] c"89" }, %"struct.std::array.127" { [2 x i8] c"90" }, %"struct.std::array.127" { [2 x i8] c"91" }, %"struct.std::array.127" { [2 x i8] c"92" }, %"struct.std::array.127" { [2 x i8] c"93" }, %"struct.std::array.127" { [2 x i8] c"94" }, %"struct.std::array.127" { [2 x i8] c"95" }, %"struct.std::array.127" { [2 x i8] c"96" }, %"struct.std::array.127" { [2 x i8] c"97" }, %"struct.std::array.127" { [2 x i8] c"98" }, %"struct.std::array.127" { [2 x i8] c"99" }] }, comdat, align 1
@_ZZN8nlohmann16json_abi_v3_11_36detail10serializerINS0_10basic_jsonISt3mapSt6vectorNSt7__cxx1112basic_stringIcSt11char_traitsIcESaIcEEEblmdSaNS0_14adl_serializerES5_IhSaIhEEvEEE12dump_integerImTnNSt9enable_ifIXoooooosr3std11is_integralIT_EE5valuesr3std7is_sameISJ_mEE5valuesr3std7is_sameISJ_lEE5valuesr3std7is_sameISJ_hEE5valueEiE4typeELi0EEEvSJ_E12digits_to_99 = linkonce_odr dso_local local_unnamed_addr constant %"struct.std::array.126" { [100 x %"struct.std::array.127"] [%"struct.std::array.127" { [2 x i8] c"00" }, %"struct.std::array.127" { [2 x i8] c"01" }, %"struct.std::array.127" { [2 x i8] c"02" }, %"struct.std::array.127" { [2 x i8] c"03" }, %"struct.std::array.127" { [2 x i8] c"04" }, %"struct.std::array.127" { [2 x i8] c"05" }, %"struct.std::array.127" { [2 x i8] c"06" }, %"struct.std::array.127" { [2 x i8] c"07" }, %"struct.std::array.127" { [2 x i8] c"08" }, %"struct.std::array.127" { [2 x i8] c"09" }, %"struct.std::array.127" { [2 x i8] c"10" }, %"struct.std::array.127" { [2 x i8] c"11" }, %"struct.std::array.127" { [2 x i8] c"12" }, %"struct.std::array.127" { [2 x i8] c"13" }, %"struct.std::array.127" { [2 x i8] c"14" }, %"struct.std::array.127" { [2 x i8] c"15" }, %"struct.std::array.127" { [2 x i8] c"16" }, %"struct.std::array.127" { [2 x i8] c"17" }, %"struct.std::array.127" { [2 x i8] c"18" }, %"struct.std::array.127" { [2 x i8] c"19" }, %"struct.std::array.127" { [2 x i8] c"20" }, %"struct.std::array.127" { [2 x i8] c"21" }, %"struct.std::array.127" { [2 x i8] c"22" }, %"struct.std::array.127" { [2 x i8] c"23" }, %"struct.std::array.127" { [2 x i8] c"24" }, %"struct.std::array.127" { [2 x i8] c"25" }, %"struct.std::array.127" { [2 x i8] c"26" }, %"struct.std::array.127" { [2 x i8] c"27" }, %"struct.std::array.127" { [2 x i8] c"28" }, %"struct.std::array.127" { [2 x i8] c"29" }, %"struct.std::array.127" { [2 x i8] c"30" }, %"struct.std::array.127" { [2 x i8] c"31" }, %"struct.std::array.127" { [2 x i8] c"32" }, %"struct.std::array.127" { [2 x i8] c"33" }, %"struct.std::array.127" { [2 x i8] c"34" }, %"struct.std::array.127" { [2 x i8] c"35" }, %"struct.std::array.127" { [2 x i8] c"36" }, %"struct.std::array.127" { [2 x i8] c"37" }, %"struct.std::array.127" { [2 x i8] c"38" }, %"struct.std::array.127" { [2 x i8] c"39" }, %"struct.std::array.127" { [2 x i8] c"40" }, %"struct.std::array.127" { [2 x i8] c"41" }, %"struct.std::array.127" { [2 x i8] c"42" }, %"struct.std::array.127" { [2 x i8] c"43" }, %"struct.std::array.127" { [2 x i8] c"44" }, %"struct.std::array.127" { [2 x i8] c"45" }, %"struct.std::array.127" { [2 x i8] c"46" }, %"struct.std::array.127" { [2 x i8] c"47" }, %"struct.std::array.127" { [2 x i8] c"48" }, %"struct.std::array.127" { [2 x i8] c"49" }, %"struct.std::array.127" { [2 x i8] c"50" }, %"struct.std::array.127" { [2 x i8] c"51" }, %"struct.std::array.127" { [2 x i8] c"52" }, %"struct.std::array.127" { [2 x i8] c"53" }, %"struct.std::array.127" { [2 x i8] c"54" }, %"struct.std::array.127" { [2 x i8] c"55" }, %"struct.std::array.127" { [2 x i8] c"56" }, %"struct.std::array.127" { [2 x i8] c"57" }, %"struct.std::array.127" { [2 x i8] c"58" }, %"struct.std::array.127" { [2 x i8] c"59" }, %"struct.std::array.127" { [2 x i8] c"60" }, %"struct.std::array.127" { [2 x i8] c"61" }, %"struct.std::array.127" { [2 x i8] c"62" }, %"struct.std::array.127" { [2 x i8] c"63" }, %"struct.std::array.127" { [2 x i8] c"64" }, %"struct.std::array.127" { [2 x i8] c"65" }, %"struct.std::array.127" { [2 x i8] c"66" }, %"struct.std::array.127" { [2 x i8] c"67" }, %"struct.std::array.127" { [2 x i8] c"68" }, %"struct.std::array.127" { [2 x i8] c"69" }, %"struct.std::array.127" { [2 x i8] c"70" }, %"struct.std::array.127" { [2 x i8] c"71" }, %"struct.std::array.127" { [2 x i8] c"72" }, %"struct.std::array.127" { [2 x i8] c"73" }, %"struct.std::array.127" { [2 x i8] c"74" }, %"struct.std::array.127" { [2 x i8] c"75" }, %"struct.std::array.127" { [2 x i8] c"76" }, %"struct.std::array.127" { [2 x i8] c"77" }, %"struct.std::array.127" { [2 x i8] c"78" }, %"struct.std::array.127" { [2 x i8] c"79" }, %"struct.std::array.127" { [2 x i8] c"80" }, %"struct.std::array.127" { [2 x i8] c"81" }, %"struct.std::array.127" { [2 x i8] c"82" }, %"struct.std::array.127" { [2 x i8] c"83" }, %"struct.std::array.127" { [2 x i8] c"84" }, %"struct.std::array.127" { [2 x i8] c"85" }, %"struct.std::array.127" { [2 x i8] c"86" }, %"struct.std::array.127" { [2 x i8] c"87" }, %"struct.std::array.127" { [2 x i8] c"88" }, %"struct.std::array.127" { [2 x i8] c"89" }, %"struct.std::array.127" { [2 x i8] c"90" }, %"struct.std::array.127" { [2 x i8] c"91" }, %"struct.std::array.127" { [2 x i8] c"92" }, %"struct.std::array.127" { [2 x i8] c"93" }, %"struct.std::array.127" { [2 x i8] c"94" }, %"struct.std::array.127" { [2 x i8] c"95" }, %"struct.std::array.127" { [2 x i8] c"96" }, %"struct.std::array.127" { [2 x i8] c"97" }, %"struct.std::array.127" { [2 x i8] c"98" }, %"struct.std::array.127" { [2 x i8] c"99" }] }, comdat, align 1
@_ZZN8nlohmann16json_abi_v3_11_36detail10serializerINS0_10basic_jsonISt3mapSt6vectorNSt7__cxx1112basic_stringIcSt11char_traitsIcESaIcEEEblmdSaNS0_14adl_serializerES5_IhSaIhEEvEEE12dump_integerIlTnNSt9enable_ifIXoooooosr3std11is_integralIT_EE5valuesr3std7is_sameISJ_mEE5valuesr3std7is_sameISJ_lEE5valuesr3std7is_sameISJ_hEE5valueEiE4typeELi0EEEvSJ_E12digits_to_99 = linkonce_odr dso_local local_unnamed_addr constant %"struct.std::array.126" { [100 x %"struct.std::array.127"] [%"struct.std::array.127" { [2 x i8] c"00" }, %"struct.std::array.127" { [2 x i8] c"01" }, %"struct.std::array.127" { [2 x i8] c"02" }, %"struct.std::array.127" { [2 x i8] c"03" }, %"struct.std::array.127" { [2 x i8] c"04" }, %"struct.std::array.127" { [2 x i8] c"05" }, %"struct.std::array.127" { [2 x i8] c"06" }, %"struct.std::array.127" { [2 x i8] c"07" }, %"struct.std::array.127" { [2 x i8] c"08" }, %"struct.std::array.127" { [2 x i8] c"09" }, %"struct.std::array.127" { [2 x i8] c"10" }, %"struct.std::array.127" { [2 x i8] c"11" }, %"struct.std::array.127" { [2 x i8] c"12" }, %"struct.std::array.127" { [2 x i8] c"13" }, %"struct.std::array.127" { [2 x i8] c"14" }, %"struct.std::array.127" { [2 x i8] c"15" }, %"struct.std::array.127" { [2 x i8] c"16" }, %"struct.std::array.127" { [2 x i8] c"17" }, %"struct.std::array.127" { [2 x i8] c"18" }, %"struct.std::array.127" { [2 x i8] c"19" }, %"struct.std::array.127" { [2 x i8] c"20" }, %"struct.std::array.127" { [2 x i8] c"21" }, %"struct.std::array.127" { [2 x i8] c"22" }, %"struct.std::array.127" { [2 x i8] c"23" }, %"struct.std::array.127" { [2 x i8] c"24" }, %"struct.std::array.127" { [2 x i8] c"25" }, %"struct.std::array.127" { [2 x i8] c"26" }, %"struct.std::array.127" { [2 x i8] c"27" }, %"struct.std::array.127" { [2 x i8] c"28" }, %"struct.std::array.127" { [2 x i8] c"29" }, %"struct.std::array.127" { [2 x i8] c"30" }, %"struct.std::array.127" { [2 x i8] c"31" }, %"struct.std::array.127" { [2 x i8] c"32" }, %"struct.std::array.127" { [2 x i8] c"33" }, %"struct.std::array.127" { [2 x i8] c"34" }, %"struct.std::array.127" { [2 x i8] c"35" }, %"struct.std::array.127" { [2 x i8] c"36" }, %"struct.std::array.127" { [2 x i8] c"37" }, %"struct.std::array.127" { [2 x i8] c"38" }, %"struct.std::array.127" { [2 x i8] c"39" }, %"struct.std::array.127" { [2 x i8] c"40" }, %"struct.std::array.127" { [2 x i8] c"41" }, %"struct.std::array.127" { [2 x i8] c"42" }, %"struct.std::array.127" { [2 x i8] c"43" }, %"struct.std::array.127" { [2 x i8] c"44" }, %"struct.std::array.127" { [2 x i8] c"45" }, %"struct.std::array.127" { [2 x i8] c"46" }, %"struct.std::array.127" { [2 x i8] c"47" }, %"struct.std::array.127" { [2 x i8] c"48" }, %"struct.std::array.127" { [2 x i8] c"49" }, %"struct.std::array.127" { [2 x i8] c"50" }, %"struct.std::array.127" { [2 x i8] c"51" }, %"struct.std::array.127" { [2 x i8] c"52" }, %"struct.std::array.127" { [2 x i8] c"53" }, %"struct.std::array.127" { [2 x i8] c"54" }, %"struct.std::array.127" { [2 x i8] c"55" }, %"struct.std::array.127" { [2 x i8] c"56" }, %"struct.std::array.127" { [2 x i8] c"57" }, %"struct.std::array.127" { [2 x i8] c"58" }, %"struct.std::array.127" { [2 x i8] c"59" }, %"struct.std::array.127" { [2 x i8] c"60" }, %"struct.std::array.127" { [2 x i8] c"61" }, %"struct.std::array.127" { [2 x i8] c"62" }, %"struct.std::array.127" { [2 x i8] c"63" }, %"struct.std::array.127" { [2 x i8] c"64" }, %"struct.std::array.127" { [2 x i8] c"65" }, %"struct.std::array.127" { [2 x i8] c"66" }, %"struct.std::array.127" { [2 x i8] c"67" }, %"struct.std::array.127" { [2 x i8] c"68" }, %"struct.std::array.127" { [2 x i8] c"69" }, %"struct.std::array.127" { [2 x i8] c"70" }, %"struct.std::array.127" { [2 x i8] c"71" }, %"struct.std::array.127" { [2 x i8] c"72" }, %"struct.std::array.127" { [2 x i8] c"73" }, %"struct.std::array.127" { [2 x i8] c"74" }, %"struct.std::array.127" { [2 x i8] c"75" }, %"struct.std::array.127" { [2 x i8] c"76" }, %"struct.std::array.127" { [2 x i8] c"77" }, %"struct.std::array.127" { [2 x i8] c"78" }, %"struct.std::array.127" { [2 x i8] c"79" }, %"struct.std::array.127" { [2 x i8] c"80" }, %"struct.std::array.127" { [2 x i8] c"81" }, %"struct.std::array.127" { [2 x i8] c"82" }, %"struct.std::array.127" { [2 x i8] c"83" }, %"struct.std::array.127" { [2 x i8] c"84" }, %"struct.std::array.127" { [2 x i8] c"85" }, %"struct.std::array.127" { [2 x i8] c"86" }, %"struct.std::array.127" { [2 x i8] c"87" }, %"struct.std::array.127" { [2 x i8] c"88" }, %"struct.std::array.127" { [2 x i8] c"89" }, %"struct.std::array.127" { [2 x i8] c"90" }, %"struct.std::array.127" { [2 x i8] c"91" }, %"struct.std::array.127" { [2 x i8] c"92" }, %"struct.std::array.127" { [2 x i8] c"93" }, %"struct.std::array.127" { [2 x i8] c"94" }, %"struct.std::array.127" { [2 x i8] c"95" }, %"struct.std::array.127" { [2 x i8] c"96" }, %"struct.std::array.127" { [2 x i8] c"97" }, %"struct.std::array.127" { [2 x i8] c"98" }, %"struct.std::array.127" { [2 x i8] c"99" }] }, comdat, align 1
@_ZZN8nlohmann16json_abi_v3_11_36detail9dtoa_impl36get_cached_power_for_binary_exponentEiE13kCachedPowers = linkonce_odr dso_local local_unnamed_addr constant %"struct.std::array.129" { [79 x %"struct.nlohmann::json_abi_v3_11_3::detail::dtoa_impl::cached_power"] [%"struct.nlohmann::json_abi_v3_11_3::detail::dtoa_impl::cached_power" { i64 -6093090917745768758, i32 -1060, i32 -300 }, %"struct.nlohmann::json_abi_v3_11_3::detail::dtoa_impl::cached_power" { i64 -38366372719436721, i32 -1034, i32 -292 }, %"struct.nlohmann::json_abi_v3_11_3::detail::dtoa_impl::cached_power" { i64 -4731433901725329908, i32 -1007, i32 -284 }, %"struct.nlohmann::json_abi_v3_11_3::detail::dtoa_impl::cached_power" { i64 -8228041688891786180, i32 -980, i32 -276 }, %"struct.nlohmann::json_abi_v3_11_3::detail::dtoa_impl::cached_power" { i64 -3219690930897053053, i32 -954, i32 -268 }, %"struct.nlohmann::json_abi_v3_11_3::detail::dtoa_impl::cached_power" { i64 -7101705404292871755, i32 -927, i32 -260 }, %"struct.nlohmann::json_abi_v3_11_3::detail::dtoa_impl::cached_power" { i64 -1541319077368263733, i32 -901, i32 -252 }, %"struct.nlohmann::json_abi_v3_11_3::detail::dtoa_impl::cached_power" { i64 -5851220927660403859, i32 -874, i32 -244 }, %"struct.nlohmann::json_abi_v3_11_3::detail::dtoa_impl::cached_power" { i64 -9062348037703676329, i32 -847, i32 -236 }, %"struct.nlohmann::json_abi_v3_11_3::detail::dtoa_impl::cached_power" { i64 -4462904269766699465, i32 -821, i32 -228 }, %"struct.nlohmann::json_abi_v3_11_3::detail::dtoa_impl::cached_power" { i64 -8027971522334779313, i32 -794, i32 -220 }, %"struct.nlohmann::json_abi_v3_11_3::detail::dtoa_impl::cached_power" { i64 -2921563150702462265, i32 -768, i32 -212 }, %"struct.nlohmann::json_abi_v3_11_3::detail::dtoa_impl::cached_power" { i64 -6879582898840692748, i32 -741, i32 -204 }, %"struct.nlohmann::json_abi_v3_11_3::detail::dtoa_impl::cached_power" { i64 -1210330751515841307, i32 -715, i32 -196 }, %"struct.nlohmann::json_abi_v3_11_3::detail::dtoa_impl::cached_power" { i64 -5604615407819967858, i32 -688, i32 -188 }, %"struct.nlohmann::json_abi_v3_11_3::detail::dtoa_impl::cached_power" { i64 -8878612607581929669, i32 -661, i32 -180 }, %"struct.nlohmann::json_abi_v3_11_3::detail::dtoa_impl::cached_power" { i64 -4189117143640191558, i32 -635, i32 -172 }, %"struct.nlohmann::json_abi_v3_11_3::detail::dtoa_impl::cached_power" { i64 -7823984217374209642, i32 -608, i32 -164 }, %"struct.nlohmann::json_abi_v3_11_3::detail::dtoa_impl::cached_power" { i64 -2617598379430861436, i32 -582, i32 -156 }, %"struct.nlohmann::json_abi_v3_11_3::detail::dtoa_impl::cached_power" { i64 -6653111496142234890, i32 -555, i32 -148 }, %"struct.nlohmann::json_abi_v3_11_3::detail::dtoa_impl::cached_power" { i64 -872862063775190746, i32 -529, i32 -140 }, %"struct.nlohmann::json_abi_v3_11_3::detail::dtoa_impl::cached_power" { i64 -5353181642124984136, i32 -502, i32 -132 }, %"struct.nlohmann::json_abi_v3_11_3::detail::dtoa_impl::cached_power" { i64 -8691279853972075893, i32 -475, i32 -124 }, %"struct.nlohmann::json_abi_v3_11_3::detail::dtoa_impl::cached_power" { i64 -3909969587797413805, i32 -449, i32 -116 }, %"struct.nlohmann::json_abi_v3_11_3::detail::dtoa_impl::cached_power" { i64 -7616003081050118571, i32 -422, i32 -108 }, %"struct.nlohmann::json_abi_v3_11_3::detail::dtoa_impl::cached_power" { i64 -2307682335666372931, i32 -396, i32 -100 }, %"struct.nlohmann::json_abi_v3_11_3::detail::dtoa_impl::cached_power" { i64 -6422206049907525489, i32 -369, i32 -92 }, %"struct.nlohmann::json_abi_v3_11_3::detail::dtoa_impl::cached_power" { i64 -528786136287117932, i32 -343, i32 -84 }, %"struct.nlohmann::json_abi_v3_11_3::detail::dtoa_impl::cached_power" { i64 -5096825099203863601, i32 -316, i32 -76 }, %"struct.nlohmann::json_abi_v3_11_3::detail::dtoa_impl::cached_power" { i64 -8500279345513818773, i32 -289, i32 -68 }, %"struct.nlohmann::json_abi_v3_11_3::detail::dtoa_impl::cached_power" { i64 -3625356651333078602, i32 -263, i32 -60 }, %"struct.nlohmann::json_abi_v3_11_3::detail::dtoa_impl::cached_power" { i64 -7403949918844649556, i32 -236, i32 -52 }, %"struct.nlohmann::json_abi_v3_11_3::detail::dtoa_impl::cached_power" { i64 -1991698500497491194, i32 -210, i32 -44 }, %"struct.nlohmann::json_abi_v3_11_3::detail::dtoa_impl::cached_power" { i64 -6186779746782440749, i32 -183, i32 -36 }, %"struct.nlohmann::json_abi_v3_11_3::detail::dtoa_impl::cached_power" { i64 -177973607073265138, i32 -157, i32 -28 }, %"struct.nlohmann::json_abi_v3_11_3::detail::dtoa_impl::cached_power" { i64 -4835449396872013077, i32 -130, i32 -20 }, %"struct.nlohmann::json_abi_v3_11_3::detail::dtoa_impl::cached_power" { i64 -8305539271883716404, i32 -103, i32 -12 }, %"struct.nlohmann::json_abi_v3_11_3::detail::dtoa_impl::cached_power" { i64 -3335171328526686932, i32 -77, i32 -4 }, %"struct.nlohmann::json_abi_v3_11_3::detail::dtoa_impl::cached_power" { i64 -7187745005283311616, i32 -50, i32 4 }, %"struct.nlohmann::json_abi_v3_11_3::detail::dtoa_impl::cached_power" { i64 -1669528073709551616, i32 -24, i32 12 }, %"struct.nlohmann::json_abi_v3_11_3::detail::dtoa_impl::cached_power" { i64 -5946744073709551616, i32 3, i32 20 }, %"struct.nlohmann::json_abi_v3_11_3::detail::dtoa_impl::cached_power" { i64 -9133518327554766460, i32 30, i32 28 }, %"struct.nlohmann::json_abi_v3_11_3::detail::dtoa_impl::cached_power" { i64 -4568956265895094861, i32 56, i32 36 }, %"struct.nlohmann::json_abi_v3_11_3::detail::dtoa_impl::cached_power" { i64 -8106986416796705680, i32 83, i32 44 }, %"struct.nlohmann::json_abi_v3_11_3::detail::dtoa_impl::cached_power" { i64 -3039304518611664792, i32 109, i32 52 }, %"struct.nlohmann::json_abi_v3_11_3::detail::dtoa_impl::cached_power" { i64 -6967307053960650171, i32 136, i32 60 }, %"struct.nlohmann::json_abi_v3_11_3::detail::dtoa_impl::cached_power" { i64 -1341049929119499481, i32 162, i32 68 }, %"struct.nlohmann::json_abi_v3_11_3::detail::dtoa_impl::cached_power" { i64 -5702008784649933400, i32 189, i32 76 }, %"struct.nlohmann::json_abi_v3_11_3::detail::dtoa_impl::cached_power" { i64 -8951176327949752869, i32 216, i32 84 }, %"struct.nlohmann::json_abi_v3_11_3::detail::dtoa_impl::cached_power" { i64 -4297245513042813542, i32 242, i32 92 }, %"struct.nlohmann::json_abi_v3_11_3::detail::dtoa_impl::cached_power" { i64 -7904546130479028392, i32 269, i32 100 }, %"struct.nlohmann::json_abi_v3_11_3::detail::dtoa_impl::cached_power" { i64 -2737644984756826646, i32 295, i32 108 }, %"struct.nlohmann::json_abi_v3_11_3::detail::dtoa_impl::cached_power" { i64 -6742553186979055798, i32 322, i32 116 }, %"struct.nlohmann::json_abi_v3_11_3::detail::dtoa_impl::cached_power" { i64 -1006140569036166267, i32 348, i32 124 }, %"struct.nlohmann::json_abi_v3_11_3::detail::dtoa_impl::cached_power" { i64 -5452481866653427593, i32 375, i32 132 }, %"struct.nlohmann::json_abi_v3_11_3::detail::dtoa_impl::cached_power" { i64 -8765264286586255934, i32 402, i32 140 }, %"struct.nlohmann::json_abi_v3_11_3::detail::dtoa_impl::cached_power" { i64 -4020214983419339459, i32 428, i32 148 }, %"struct.nlohmann::json_abi_v3_11_3::detail::dtoa_impl::cached_power" { i64 -7698142301602209613, i32 455, i32 156 }, %"struct.nlohmann::json_abi_v3_11_3::detail::dtoa_impl::cached_power" { i64 -2430079312244744221, i32 481, i32 164 }, %"struct.nlohmann::json_abi_v3_11_3::detail::dtoa_impl::cached_power" { i64 -6513398903789220827, i32 508, i32 172 }, %"struct.nlohmann::json_abi_v3_11_3::detail::dtoa_impl::cached_power" { i64 -664674077828931748, i32 534, i32 180 }, %"struct.nlohmann::json_abi_v3_11_3::detail::dtoa_impl::cached_power" { i64 -5198069505264599346, i32 561, i32 188 }, %"struct.nlohmann::json_abi_v3_11_3::detail::dtoa_impl::cached_power" { i64 -8575712306248138270, i32 588, i32 196 }, %"struct.nlohmann::json_abi_v3_11_3::detail::dtoa_impl::cached_power" { i64 -3737760522056206171, i32 614, i32 204 }, %"struct.nlohmann::json_abi_v3_11_3::detail::dtoa_impl::cached_power" { i64 -7487697328667536417, i32 641, i32 212 }, %"struct.nlohmann::json_abi_v3_11_3::detail::dtoa_impl::cached_power" { i64 -2116491865831296966, i32 667, i32 220 }, %"struct.nlohmann::json_abi_v3_11_3::detail::dtoa_impl::cached_power" { i64 -6279758049420528746, i32 694, i32 228 }, %"struct.nlohmann::json_abi_v3_11_3::detail::dtoa_impl::cached_power" { i64 -316522074587315140, i32 720, i32 236 }, %"struct.nlohmann::json_abi_v3_11_3::detail::dtoa_impl::cached_power" { i64 -4938676049251384304, i32 747, i32 244 }, %"struct.nlohmann::json_abi_v3_11_3::detail::dtoa_impl::cached_power" { i64 -8382449121214030822, i32 774, i32 252 }, %"struct.nlohmann::json_abi_v3_11_3::detail::dtoa_impl::cached_power" { i64 -3449775934753242068, i32 800, i32 260 }, %"struct.nlohmann::json_abi_v3_11_3::detail::dtoa_impl::cached_power" { i64 -7273132090830278359, i32 827, i32 268 }, %"struct.nlohmann::json_abi_v3_11_3::detail::dtoa_impl::cached_power" { i64 -1796764746270372707, i32 853, i32 276 }, %"struct.nlohmann::json_abi_v3_11_3::detail::dtoa_impl::cached_power" { i64 -6041542782089432023, i32 880, i32 284 }, %"struct.nlohmann::json_abi_v3_11_3::detail::dtoa_impl::cached_power" { i64 -9204148869281624187, i32 907, i32 292 }, %"struct.nlohmann::json_abi_v3_11_3::detail::dtoa_impl::cached_power" { i64 -4674203974643163859, i32 933, i32 300 }, %"struct.nlohmann::json_abi_v3_11_3::detail::dtoa_impl::cached_power" { i64 -8185402070463610993, i32 960, i32 308 }, %"struct.nlohmann::json_abi_v3_11_3::detail::dtoa_impl::cached_power" { i64 -3156152948152813503, i32 986, i32 316 }, %"struct.nlohmann::json_abi_v3_11_3::detail::dtoa_impl::cached_power" { i64 -7054365918152680535, i32 1013, i32 324 }] }, comdat, align 8
@.str.192 = private unnamed_addr constant [52 x i8] c"cannot use operator[] with a numeric argument with \00", align 1
@.str.193 = private unnamed_addr constant [26 x i8] c"vector::_M_default_append\00", align 1
@.str.194 = private unnamed_addr constant [25 x i8] c"cannot use erase() with \00", align 1
@.str.195 = private unnamed_addr constant [36 x i8] c"iterator does not fit current value\00", align 1
@.str.196 = private unnamed_addr constant [22 x i8] c"iterator out of range\00", align 1
@.str.197 = private unnamed_addr constant [17 x i8] c"invalid_iterator\00", align 1
@_ZTVN8nlohmann16json_abi_v3_11_36detail16invalid_iteratorE = linkonce_odr dso_local unnamed_addr constant { [5 x ptr] } { [5 x ptr] [ptr null, ptr @_ZTIN8nlohmann16json_abi_v3_11_36detail16invalid_iteratorE, ptr @_ZN8nlohmann16json_abi_v3_11_36detail16invalid_iteratorD2Ev, ptr @_ZN8nlohmann16json_abi_v3_11_36detail16invalid_iteratorD0Ev, ptr @_ZNK8nlohmann16json_abi_v3_11_36detail9exception4whatEv] }, comdat, align 8
@.str.198 = private unnamed_addr constant [17 x i8] c"cannot get value\00", align 1
@.str.199 = private unnamed_addr constant [35 x i8] c"iterators do not fit current value\00", align 1
@.str.200 = private unnamed_addr constant [23 x i8] c"iterators out of range\00", align 1
@.str.201 = private unnamed_addr constant [49 x i8] c"cannot compare iterators of different containers\00", align 1
@.str.202 = private unnamed_addr constant [4 x i8] c"{?}\00", align 1
@.str.203 = private unnamed_addr constant [41 x i8] c"cannot use offsets with object iterators\00", align 1
@llvm.global_ctors = appending global [1 x { i32, ptr, ptr }] [{ i32, ptr, ptr } { i32 65535, ptr @_GLOBAL__sub_I_unit_element_access1.cpp, ptr null }]
@switch.table._ZNK8nlohmann16json_abi_v3_11_310basic_jsonISt3mapSt6vectorNSt7__cxx1112basic_stringIcSt11char_traitsIcESaIcEEEblmdSaNS0_14adl_serializerES3_IhSaIhEEvE9type_nameEv = private unnamed_addr constant [10 x ptr] [ptr @.str.30, ptr @.str.38, ptr @.str.4, ptr @.str.5, ptr @.str.35, ptr @.str.164, ptr @.str.164, ptr @.str.164, ptr @.str.135, ptr @.str.163], align 8

declare noundef i32 @_ZN7doctest6detail12setTestSuiteERKNS0_9TestSuiteE(ptr noundef nonnull align 8 dereferenceable(40)) local_unnamed_addr #0

; Function Attrs: mustprogress nocallback nofree nounwind willreturn memory(argmem: write)
declare void @llvm.memset.p0.i64(ptr nocapture writeonly, i8, i64, i1 immarg) #1

declare noundef nonnull align 8 dereferenceable(40) ptr @_ZN7doctest6detail9TestSuitemlEPKc(ptr noundef nonnull align 8 dereferenceable(40), ptr noundef) local_unnamed_addr #0

declare noundef i32 @_ZN7doctest6detail7regTestERKNS0_8TestCaseE(ptr noundef nonnull align 8 dereferenceable(144)) local_unnamed_addr #0

; Function Attrs: mustprogress uwtable
define internal void @_ZL19DOCTEST_ANON_FUNC_2v() #2 personality ptr @__gxx_personality_v0 {
entry:
  %ref.tmp.i.i.i.i6177 = alloca %"class.std::allocator.10", align 1
  %ref.tmp.i.i.i.i6154 = alloca %"class.std::allocator.10", align 1
  %ref.tmp.i.i.i.i = alloca %"class.std::allocator.10", align 1
  %tmp.i4092 = alloca %"class.nlohmann::json_abi_v3_11_3::detail::iter_impl.2", align 8
  %ref.tmp.i4075 = alloca %"class.nlohmann::json_abi_v3_11_3::detail::iter_impl.2", align 8
  %tmp.i4050 = alloca %"class.nlohmann::json_abi_v3_11_3::detail::iter_impl", align 8
  %ref.tmp.i4033 = alloca %"class.nlohmann::json_abi_v3_11_3::detail::iter_impl", align 8
  %tmp.i4004 = alloca %"class.nlohmann::json_abi_v3_11_3::detail::iter_impl.2", align 8
  %ref.tmp.i3987 = alloca %"class.nlohmann::json_abi_v3_11_3::detail::iter_impl.2", align 8
  %tmp.i3961 = alloca %"class.nlohmann::json_abi_v3_11_3::detail::iter_impl", align 8
  %ref.tmp.i3944 = alloca %"class.nlohmann::json_abi_v3_11_3::detail::iter_impl", align 8
  %tmp.i3914 = alloca %"class.nlohmann::json_abi_v3_11_3::detail::iter_impl.2", align 8
  %ref.tmp.i3897 = alloca %"class.nlohmann::json_abi_v3_11_3::detail::iter_impl.2", align 8
  %tmp.i3871 = alloca %"class.nlohmann::json_abi_v3_11_3::detail::iter_impl", align 8
  %ref.tmp.i3854 = alloca %"class.nlohmann::json_abi_v3_11_3::detail::iter_impl", align 8
  %tmp.i3824 = alloca %"class.nlohmann::json_abi_v3_11_3::detail::iter_impl.2", align 8
  %ref.tmp.i3807 = alloca %"class.nlohmann::json_abi_v3_11_3::detail::iter_impl.2", align 8
  %tmp.i3781 = alloca %"class.nlohmann::json_abi_v3_11_3::detail::iter_impl", align 8
  %ref.tmp.i3764 = alloca %"class.nlohmann::json_abi_v3_11_3::detail::iter_impl", align 8
  %tmp.i3734 = alloca %"class.nlohmann::json_abi_v3_11_3::detail::iter_impl.2", align 8
  %ref.tmp.i3717 = alloca %"class.nlohmann::json_abi_v3_11_3::detail::iter_impl.2", align 8
  %tmp.i3691 = alloca %"class.nlohmann::json_abi_v3_11_3::detail::iter_impl", align 8
  %ref.tmp.i3674 = alloca %"class.nlohmann::json_abi_v3_11_3::detail::iter_impl", align 8
  %tmp.i3650 = alloca %"class.nlohmann::json_abi_v3_11_3::detail::iter_impl.2", align 8
  %ref.tmp.i3633 = alloca %"class.nlohmann::json_abi_v3_11_3::detail::iter_impl.2", align 8
  %tmp.i3610 = alloca %"class.nlohmann::json_abi_v3_11_3::detail::iter_impl", align 8
  %ref.tmp.i3593 = alloca %"class.nlohmann::json_abi_v3_11_3::detail::iter_impl", align 8
  %tmp.i1124 = alloca %"class.nlohmann::json_abi_v3_11_3::detail::iter_impl.2", align 8
  %tmp.i = alloca %"class.nlohmann::json_abi_v3_11_3::detail::iter_impl", align 8
  %ref.tmp.i1079 = alloca %"class.nlohmann::json_abi_v3_11_3::detail::iter_impl.2", align 8
  %ref.tmp.i = alloca %"class.nlohmann::json_abi_v3_11_3::detail::iter_impl", align 8
  %ref.tmp = alloca %"struct.doctest::detail::Subcase", align 8
  %ref.tmp1 = alloca %"class.doctest::String", align 8
  %j = alloca %"class.nlohmann::json_abi_v3_11_3::basic_json", align 8
  %ref.tmp4 = alloca [8 x %"class.nlohmann::json_abi_v3_11_3::detail::json_ref"], align 8
  %ref.tmp22 = alloca %"class.nlohmann::json_abi_v3_11_3::basic_json", align 8
  %ref.tmp29 = alloca [3 x %"class.nlohmann::json_abi_v3_11_3::detail::json_ref"], align 8
  %j_const = alloca %"class.nlohmann::json_abi_v3_11_3::basic_json", align 8
  %ref.tmp82 = alloca %"struct.doctest::detail::Subcase", align 8
  %ref.tmp83 = alloca %"class.doctest::String", align 8
  %ref.tmp93 = alloca %"struct.doctest::detail::Subcase", align 8
  %ref.tmp94 = alloca %"class.doctest::String", align 8
  %ref.tmp103 = alloca %"struct.doctest::detail::Result", align 8
  %ref.tmp104 = alloca %"struct.doctest::detail::Expression_lhs", align 8
  %ref.tmp105 = alloca %"struct.doctest::detail::ExpressionDecomposer", align 4
  %ref.tmp111 = alloca %"class.nlohmann::json_abi_v3_11_3::basic_json", align 8
  %ref.tmp120 = alloca %"struct.doctest::detail::Result", align 8
  %ref.tmp121 = alloca %"struct.doctest::detail::Expression_lhs", align 8
  %ref.tmp122 = alloca %"struct.doctest::detail::ExpressionDecomposer", align 4
  %ref.tmp128 = alloca %"class.nlohmann::json_abi_v3_11_3::basic_json", align 8
  %ref.tmp137 = alloca %"struct.doctest::detail::Result", align 8
  %ref.tmp138 = alloca %"struct.doctest::detail::Expression_lhs", align 8
  %ref.tmp139 = alloca %"struct.doctest::detail::ExpressionDecomposer", align 4
  %ref.tmp145 = alloca %"class.nlohmann::json_abi_v3_11_3::basic_json", align 8
  %ref.tmp154 = alloca %"struct.doctest::detail::Result", align 8
  %ref.tmp155 = alloca %"struct.doctest::detail::Expression_lhs", align 8
  %ref.tmp156 = alloca %"struct.doctest::detail::ExpressionDecomposer", align 4
  %ref.tmp162 = alloca %"class.nlohmann::json_abi_v3_11_3::basic_json", align 8
  %ref.tmp170 = alloca %"struct.doctest::detail::Result", align 8
  %ref.tmp171 = alloca %"struct.doctest::detail::Expression_lhs", align 8
  %ref.tmp172 = alloca %"struct.doctest::detail::ExpressionDecomposer", align 4
  %ref.tmp178 = alloca %"class.nlohmann::json_abi_v3_11_3::basic_json", align 8
  %ref.tmp187 = alloca %"struct.doctest::detail::Result", align 8
  %ref.tmp188 = alloca %"struct.doctest::detail::Expression_lhs", align 8
  %ref.tmp189 = alloca %"struct.doctest::detail::ExpressionDecomposer", align 4
  %ref.tmp195 = alloca %"class.nlohmann::json_abi_v3_11_3::basic_json", align 8
  %ref.tmp204 = alloca %"struct.doctest::detail::Result", align 8
  %ref.tmp205 = alloca %"struct.doctest::detail::Expression_lhs", align 8
  %ref.tmp206 = alloca %"struct.doctest::detail::ExpressionDecomposer", align 4
  %ref.tmp212 = alloca %"class.nlohmann::json_abi_v3_11_3::basic_json", align 8
  %ref.tmp222 = alloca %"struct.doctest::detail::Result", align 8
  %ref.tmp223 = alloca %"struct.doctest::detail::Expression_lhs", align 8
  %ref.tmp224 = alloca %"struct.doctest::detail::ExpressionDecomposer", align 4
  %ref.tmp230 = alloca %"class.nlohmann::json_abi_v3_11_3::basic_json", align 8
  %ref.tmp232 = alloca [3 x %"class.nlohmann::json_abi_v3_11_3::detail::json_ref"], align 8
  %ref.tmp276 = alloca %"struct.doctest::detail::Result", align 8
  %ref.tmp277 = alloca %"struct.doctest::detail::Expression_lhs.0", align 8
  %ref.tmp278 = alloca %"struct.doctest::detail::ExpressionDecomposer", align 4
  %ref.tmp284 = alloca %"class.nlohmann::json_abi_v3_11_3::basic_json", align 8
  %ref.tmp293 = alloca %"struct.doctest::detail::Result", align 8
  %ref.tmp294 = alloca %"struct.doctest::detail::Expression_lhs.0", align 8
  %ref.tmp295 = alloca %"struct.doctest::detail::ExpressionDecomposer", align 4
  %ref.tmp301 = alloca %"class.nlohmann::json_abi_v3_11_3::basic_json", align 8
  %ref.tmp310 = alloca %"struct.doctest::detail::Result", align 8
  %ref.tmp311 = alloca %"struct.doctest::detail::Expression_lhs.0", align 8
  %ref.tmp312 = alloca %"struct.doctest::detail::ExpressionDecomposer", align 4
  %ref.tmp318 = alloca %"class.nlohmann::json_abi_v3_11_3::basic_json", align 8
  %ref.tmp327 = alloca %"struct.doctest::detail::Result", align 8
  %ref.tmp328 = alloca %"struct.doctest::detail::Expression_lhs.0", align 8
  %ref.tmp329 = alloca %"struct.doctest::detail::ExpressionDecomposer", align 4
  %ref.tmp335 = alloca %"class.nlohmann::json_abi_v3_11_3::basic_json", align 8
  %ref.tmp343 = alloca %"struct.doctest::detail::Result", align 8
  %ref.tmp344 = alloca %"struct.doctest::detail::Expression_lhs.0", align 8
  %ref.tmp345 = alloca %"struct.doctest::detail::ExpressionDecomposer", align 4
  %ref.tmp351 = alloca %"class.nlohmann::json_abi_v3_11_3::basic_json", align 8
  %ref.tmp360 = alloca %"struct.doctest::detail::Result", align 8
  %ref.tmp361 = alloca %"struct.doctest::detail::Expression_lhs.0", align 8
  %ref.tmp362 = alloca %"struct.doctest::detail::ExpressionDecomposer", align 4
  %ref.tmp368 = alloca %"class.nlohmann::json_abi_v3_11_3::basic_json", align 8
  %ref.tmp377 = alloca %"struct.doctest::detail::Result", align 8
  %ref.tmp378 = alloca %"struct.doctest::detail::Expression_lhs.0", align 8
  %ref.tmp379 = alloca %"struct.doctest::detail::ExpressionDecomposer", align 4
  %ref.tmp385 = alloca %"class.nlohmann::json_abi_v3_11_3::basic_json", align 8
  %ref.tmp395 = alloca %"struct.doctest::detail::Result", align 8
  %ref.tmp396 = alloca %"struct.doctest::detail::Expression_lhs.0", align 8
  %ref.tmp397 = alloca %"struct.doctest::detail::ExpressionDecomposer", align 4
  %ref.tmp403 = alloca %"class.nlohmann::json_abi_v3_11_3::basic_json", align 8
  %ref.tmp405 = alloca [3 x %"class.nlohmann::json_abi_v3_11_3::detail::json_ref"], align 8
  %ref.tmp450 = alloca %"struct.doctest::detail::Subcase", align 8
  %ref.tmp451 = alloca %"class.doctest::String", align 8
  %DOCTEST_RB = alloca %"struct.doctest::detail::ResultBuilder", align 8
  %ref.tmp463 = alloca %"class.doctest::String", align 8
  %DOCTEST_RB497 = alloca %"struct.doctest::detail::ResultBuilder", align 8
  %ref.tmp498 = alloca %"class.doctest::String", align 8
  %ref.tmp538 = alloca %"struct.doctest::detail::Subcase", align 8
  %ref.tmp539 = alloca %"class.doctest::String", align 8
  %ref.tmp548 = alloca %"struct.doctest::detail::Subcase", align 8
  %ref.tmp549 = alloca %"class.doctest::String", align 8
  %j_nonarray = alloca %"class.nlohmann::json_abi_v3_11_3::basic_json", align 8
  %j_nonarray_const = alloca %"class.nlohmann::json_abi_v3_11_3::basic_json", align 8
  %DOCTEST_RB568 = alloca %"struct.doctest::detail::ResultBuilder", align 8
  %ref.tmp569 = alloca %"class.doctest::String", align 8
  %DOCTEST_RB613 = alloca %"struct.doctest::detail::ResultBuilder", align 8
  %ref.tmp614 = alloca %"class.doctest::String", align 8
  %ref.tmp656 = alloca %"struct.doctest::detail::Subcase", align 8
  %ref.tmp657 = alloca %"class.doctest::String", align 8
  %j_nonarray666 = alloca %"class.nlohmann::json_abi_v3_11_3::basic_json", align 8
  %j_nonarray_const668 = alloca %"class.nlohmann::json_abi_v3_11_3::basic_json", align 8
  %DOCTEST_RB678 = alloca %"struct.doctest::detail::ResultBuilder", align 8
  %ref.tmp679 = alloca %"class.doctest::String", align 8
  %DOCTEST_RB723 = alloca %"struct.doctest::detail::ResultBuilder", align 8
  %ref.tmp724 = alloca %"class.doctest::String", align 8
  %ref.tmp766 = alloca %"struct.doctest::detail::Subcase", align 8
  %ref.tmp767 = alloca %"class.doctest::String", align 8
  %j_nonarray776 = alloca %"class.nlohmann::json_abi_v3_11_3::basic_json", align 8
  %j_nonarray_const778 = alloca %"class.nlohmann::json_abi_v3_11_3::basic_json", align 8
  %DOCTEST_RB788 = alloca %"struct.doctest::detail::ResultBuilder", align 8
  %ref.tmp789 = alloca %"class.doctest::String", align 8
  %DOCTEST_RB833 = alloca %"struct.doctest::detail::ResultBuilder", align 8
  %ref.tmp834 = alloca %"class.doctest::String", align 8
  %ref.tmp876 = alloca %"struct.doctest::detail::Subcase", align 8
  %ref.tmp877 = alloca %"class.doctest::String", align 8
  %j_nonarray886 = alloca %"class.nlohmann::json_abi_v3_11_3::basic_json", align 8
  %j_nonarray_const888 = alloca %"class.nlohmann::json_abi_v3_11_3::basic_json", align 8
  %DOCTEST_RB898 = alloca %"struct.doctest::detail::ResultBuilder", align 8
  %ref.tmp899 = alloca %"class.doctest::String", align 8
  %DOCTEST_RB943 = alloca %"struct.doctest::detail::ResultBuilder", align 8
  %ref.tmp944 = alloca %"class.doctest::String", align 8
  %ref.tmp986 = alloca %"struct.doctest::detail::Subcase", align 8
  %ref.tmp987 = alloca %"class.doctest::String", align 8
  %j_nonarray996 = alloca %"class.nlohmann::json_abi_v3_11_3::basic_json", align 8
  %j_nonarray_const998 = alloca %"class.nlohmann::json_abi_v3_11_3::basic_json", align 8
  %DOCTEST_RB1008 = alloca %"struct.doctest::detail::ResultBuilder", align 8
  %ref.tmp1009 = alloca %"class.doctest::String", align 8
  %DOCTEST_RB1053 = alloca %"struct.doctest::detail::ResultBuilder", align 8
  %ref.tmp1054 = alloca %"class.doctest::String", align 8
  %ref.tmp1096 = alloca %"struct.doctest::detail::Subcase", align 8
  %ref.tmp1097 = alloca %"class.doctest::String", align 8
  %j_nonarray1106 = alloca %"class.nlohmann::json_abi_v3_11_3::basic_json", align 8
  %j_nonarray_const1108 = alloca %"class.nlohmann::json_abi_v3_11_3::basic_json", align 8
  %DOCTEST_RB1118 = alloca %"struct.doctest::detail::ResultBuilder", align 8
  %ref.tmp1119 = alloca %"class.doctest::String", align 8
  %DOCTEST_RB1163 = alloca %"struct.doctest::detail::ResultBuilder", align 8
  %ref.tmp1164 = alloca %"class.doctest::String", align 8
  %ref.tmp1206 = alloca %"struct.doctest::detail::Subcase", align 8
  %ref.tmp1207 = alloca %"class.doctest::String", align 8
  %j_nonarray1216 = alloca %"class.nlohmann::json_abi_v3_11_3::basic_json", align 8
  %j_nonarray_const1218 = alloca %"class.nlohmann::json_abi_v3_11_3::basic_json", align 8
  %DOCTEST_RB1228 = alloca %"struct.doctest::detail::ResultBuilder", align 8
  %ref.tmp1229 = alloca %"class.doctest::String", align 8
  %DOCTEST_RB1273 = alloca %"struct.doctest::detail::ResultBuilder", align 8
  %ref.tmp1274 = alloca %"class.doctest::String", align 8
  %ref.tmp1320 = alloca %"struct.doctest::detail::Subcase", align 8
  %ref.tmp1321 = alloca %"class.doctest::String", align 8
  %ref.tmp1330 = alloca %"struct.doctest::detail::Result", align 8
  %ref.tmp1331 = alloca %"struct.doctest::detail::Expression_lhs", align 8
  %ref.tmp1332 = alloca %"struct.doctest::detail::ExpressionDecomposer", align 4
  %ref.tmp1338 = alloca %"class.nlohmann::json_abi_v3_11_3::basic_json", align 8
  %ref.tmp1347 = alloca %"struct.doctest::detail::Result", align 8
  %ref.tmp1348 = alloca %"struct.doctest::detail::Expression_lhs.0", align 8
  %ref.tmp1349 = alloca %"struct.doctest::detail::ExpressionDecomposer", align 4
  %ref.tmp1355 = alloca %"class.nlohmann::json_abi_v3_11_3::basic_json", align 8
  %ref.tmp1364 = alloca %"struct.doctest::detail::Result", align 8
  %ref.tmp1365 = alloca %"struct.doctest::detail::Expression_lhs", align 8
  %ref.tmp1366 = alloca %"struct.doctest::detail::ExpressionDecomposer", align 4
  %ref.tmp1372 = alloca %"class.nlohmann::json_abi_v3_11_3::basic_json", align 8
  %ref.tmp1374 = alloca [3 x %"class.nlohmann::json_abi_v3_11_3::detail::json_ref"], align 8
  %ref.tmp1418 = alloca %"struct.doctest::detail::Result", align 8
  %ref.tmp1419 = alloca %"struct.doctest::detail::Expression_lhs.0", align 8
  %ref.tmp1420 = alloca %"struct.doctest::detail::ExpressionDecomposer", align 4
  %ref.tmp1426 = alloca %"class.nlohmann::json_abi_v3_11_3::basic_json", align 8
  %ref.tmp1428 = alloca [3 x %"class.nlohmann::json_abi_v3_11_3::detail::json_ref"], align 8
  %ref.tmp1474 = alloca %"struct.doctest::detail::Subcase", align 8
  %ref.tmp1475 = alloca %"class.doctest::String", align 8
  %ref.tmp1484 = alloca %"struct.doctest::detail::Subcase", align 8
  %ref.tmp1485 = alloca %"class.doctest::String", align 8
  %ref.tmp1494 = alloca %"struct.doctest::detail::Result", align 8
  %ref.tmp1495 = alloca %"struct.doctest::detail::Expression_lhs", align 8
  %ref.tmp1496 = alloca %"struct.doctest::detail::ExpressionDecomposer", align 4
  %ref.tmp1502 = alloca %"class.nlohmann::json_abi_v3_11_3::basic_json", align 8
  %ref.tmp1511 = alloca %"struct.doctest::detail::Result", align 8
  %ref.tmp1512 = alloca %"struct.doctest::detail::Expression_lhs", align 8
  %ref.tmp1513 = alloca %"struct.doctest::detail::ExpressionDecomposer", align 4
  %ref.tmp1519 = alloca %"class.nlohmann::json_abi_v3_11_3::basic_json", align 8
  %ref.tmp1528 = alloca %"struct.doctest::detail::Result", align 8
  %ref.tmp1529 = alloca %"struct.doctest::detail::Expression_lhs", align 8
  %ref.tmp1530 = alloca %"struct.doctest::detail::ExpressionDecomposer", align 4
  %ref.tmp1536 = alloca %"class.nlohmann::json_abi_v3_11_3::basic_json", align 8
  %ref.tmp1545 = alloca %"struct.doctest::detail::Result", align 8
  %ref.tmp1546 = alloca %"struct.doctest::detail::Expression_lhs", align 8
  %ref.tmp1547 = alloca %"struct.doctest::detail::ExpressionDecomposer", align 4
  %ref.tmp1553 = alloca %"class.nlohmann::json_abi_v3_11_3::basic_json", align 8
  %ref.tmp1561 = alloca %"struct.doctest::detail::Result", align 8
  %ref.tmp1562 = alloca %"struct.doctest::detail::Expression_lhs", align 8
  %ref.tmp1563 = alloca %"struct.doctest::detail::ExpressionDecomposer", align 4
  %ref.tmp1569 = alloca %"class.nlohmann::json_abi_v3_11_3::basic_json", align 8
  %ref.tmp1578 = alloca %"struct.doctest::detail::Result", align 8
  %ref.tmp1579 = alloca %"struct.doctest::detail::Expression_lhs", align 8
  %ref.tmp1580 = alloca %"struct.doctest::detail::ExpressionDecomposer", align 4
  %ref.tmp1586 = alloca %"class.nlohmann::json_abi_v3_11_3::basic_json", align 8
  %ref.tmp1595 = alloca %"struct.doctest::detail::Result", align 8
  %ref.tmp1596 = alloca %"struct.doctest::detail::Expression_lhs", align 8
  %ref.tmp1597 = alloca %"struct.doctest::detail::ExpressionDecomposer", align 4
  %ref.tmp1603 = alloca %"class.nlohmann::json_abi_v3_11_3::basic_json", align 8
  %ref.tmp1613 = alloca %"struct.doctest::detail::Result", align 8
  %ref.tmp1614 = alloca %"struct.doctest::detail::Expression_lhs", align 8
  %ref.tmp1615 = alloca %"struct.doctest::detail::ExpressionDecomposer", align 4
  %ref.tmp1621 = alloca %"class.nlohmann::json_abi_v3_11_3::basic_json", align 8
  %ref.tmp1623 = alloca [3 x %"class.nlohmann::json_abi_v3_11_3::detail::json_ref"], align 8
  %ref.tmp1667 = alloca %"struct.doctest::detail::Result", align 8
  %ref.tmp1668 = alloca %"struct.doctest::detail::Expression_lhs.0", align 8
  %ref.tmp1669 = alloca %"struct.doctest::detail::ExpressionDecomposer", align 4
  %ref.tmp1675 = alloca %"class.nlohmann::json_abi_v3_11_3::basic_json", align 8
  %ref.tmp1684 = alloca %"struct.doctest::detail::Result", align 8
  %ref.tmp1685 = alloca %"struct.doctest::detail::Expression_lhs.0", align 8
  %ref.tmp1686 = alloca %"struct.doctest::detail::ExpressionDecomposer", align 4
  %ref.tmp1692 = alloca %"class.nlohmann::json_abi_v3_11_3::basic_json", align 8
  %ref.tmp1701 = alloca %"struct.doctest::detail::Result", align 8
  %ref.tmp1702 = alloca %"struct.doctest::detail::Expression_lhs.0", align 8
  %ref.tmp1703 = alloca %"struct.doctest::detail::ExpressionDecomposer", align 4
  %ref.tmp1709 = alloca %"class.nlohmann::json_abi_v3_11_3::basic_json", align 8
  %ref.tmp1718 = alloca %"struct.doctest::detail::Result", align 8
  %ref.tmp1719 = alloca %"struct.doctest::detail::Expression_lhs.0", align 8
  %ref.tmp1720 = alloca %"struct.doctest::detail::ExpressionDecomposer", align 4
  %ref.tmp1726 = alloca %"class.nlohmann::json_abi_v3_11_3::basic_json", align 8
  %ref.tmp1734 = alloca %"struct.doctest::detail::Result", align 8
  %ref.tmp1735 = alloca %"struct.doctest::detail::Expression_lhs.0", align 8
  %ref.tmp1736 = alloca %"struct.doctest::detail::ExpressionDecomposer", align 4
  %ref.tmp1742 = alloca %"class.nlohmann::json_abi_v3_11_3::basic_json", align 8
  %ref.tmp1751 = alloca %"struct.doctest::detail::Result", align 8
  %ref.tmp1752 = alloca %"struct.doctest::detail::Expression_lhs.0", align 8
  %ref.tmp1753 = alloca %"struct.doctest::detail::ExpressionDecomposer", align 4
  %ref.tmp1759 = alloca %"class.nlohmann::json_abi_v3_11_3::basic_json", align 8
  %ref.tmp1768 = alloca %"struct.doctest::detail::Result", align 8
  %ref.tmp1769 = alloca %"struct.doctest::detail::Expression_lhs.0", align 8
  %ref.tmp1770 = alloca %"struct.doctest::detail::ExpressionDecomposer", align 4
  %ref.tmp1776 = alloca %"class.nlohmann::json_abi_v3_11_3::basic_json", align 8
  %ref.tmp1786 = alloca %"struct.doctest::detail::Result", align 8
  %ref.tmp1787 = alloca %"struct.doctest::detail::Expression_lhs.0", align 8
  %ref.tmp1788 = alloca %"struct.doctest::detail::ExpressionDecomposer", align 4
  %ref.tmp1794 = alloca %"class.nlohmann::json_abi_v3_11_3::basic_json", align 8
  %ref.tmp1796 = alloca [3 x %"class.nlohmann::json_abi_v3_11_3::detail::json_ref"], align 8
  %ref.tmp1842 = alloca %"struct.doctest::detail::Subcase", align 8
  %ref.tmp1843 = alloca %"class.doctest::String", align 8
  %ref.tmp1852 = alloca %"struct.doctest::detail::Subcase", align 8
  %ref.tmp1853 = alloca %"class.doctest::String", align 8
  %ref.tmp1862 = alloca %"struct.doctest::detail::Subcase", align 8
  %ref.tmp1863 = alloca %"class.doctest::String", align 8
  %j_nonarray1872 = alloca %"class.nlohmann::json_abi_v3_11_3::basic_json", align 8
  %j_nonarray_const1874 = alloca %"class.nlohmann::json_abi_v3_11_3::basic_json", align 8
  %DOCTEST_RB1878 = alloca %"struct.doctest::detail::ResultBuilder", align 8
  %ref.tmp1879 = alloca %"class.doctest::String", align 8
  %DOCTEST_RB1911 = alloca %"struct.doctest::detail::ResultBuilder", align 8
  %ref.tmp1912 = alloca %"class.doctest::String", align 8
  %ref.tmp1954 = alloca %"struct.doctest::detail::Subcase", align 8
  %ref.tmp1955 = alloca %"class.doctest::String", align 8
  %j_nonarray1964 = alloca %"class.nlohmann::json_abi_v3_11_3::basic_json", align 8
  %agg.tmp1965 = alloca %"class.nlohmann::json_abi_v3_11_3::basic_json", align 8
  %ref.tmp1972 = alloca %"struct.doctest::detail::Result", align 8
  %ref.tmp1973 = alloca %"struct.doctest::detail::Expression_lhs", align 8
  %ref.tmp1974 = alloca %"struct.doctest::detail::ExpressionDecomposer", align 4
  %ref.tmp1979 = alloca %"class.nlohmann::json_abi_v3_11_3::basic_json", align 8
  %ref.tmp1981 = alloca [4 x %"class.nlohmann::json_abi_v3_11_3::detail::json_ref"], align 8
  %ref.tmp2033 = alloca %"struct.doctest::detail::Subcase", align 8
  %ref.tmp2034 = alloca %"class.doctest::String", align 8
  %j_nonarray2043 = alloca %"class.nlohmann::json_abi_v3_11_3::basic_json", align 8
  %j_nonarray_const2045 = alloca %"class.nlohmann::json_abi_v3_11_3::basic_json", align 8
  %DOCTEST_RB2055 = alloca %"struct.doctest::detail::ResultBuilder", align 8
  %ref.tmp2056 = alloca %"class.doctest::String", align 8
  %DOCTEST_RB2100 = alloca %"struct.doctest::detail::ResultBuilder", align 8
  %ref.tmp2101 = alloca %"class.doctest::String", align 8
  %ref.tmp2143 = alloca %"struct.doctest::detail::Subcase", align 8
  %ref.tmp2144 = alloca %"class.doctest::String", align 8
  %j_nonarray2153 = alloca %"class.nlohmann::json_abi_v3_11_3::basic_json", align 8
  %j_nonarray_const2155 = alloca %"class.nlohmann::json_abi_v3_11_3::basic_json", align 8
  %DOCTEST_RB2165 = alloca %"struct.doctest::detail::ResultBuilder", align 8
  %ref.tmp2166 = alloca %"class.doctest::String", align 8
  %DOCTEST_RB2210 = alloca %"struct.doctest::detail::ResultBuilder", align 8
  %ref.tmp2211 = alloca %"class.doctest::String", align 8
  %ref.tmp2253 = alloca %"struct.doctest::detail::Subcase", align 8
  %ref.tmp2254 = alloca %"class.doctest::String", align 8
  %j_nonarray2263 = alloca %"class.nlohmann::json_abi_v3_11_3::basic_json", align 8
  %j_nonarray_const2265 = alloca %"class.nlohmann::json_abi_v3_11_3::basic_json", align 8
  %DOCTEST_RB2275 = alloca %"struct.doctest::detail::ResultBuilder", align 8
  %ref.tmp2276 = alloca %"class.doctest::String", align 8
  %DOCTEST_RB2320 = alloca %"struct.doctest::detail::ResultBuilder", align 8
  %ref.tmp2321 = alloca %"class.doctest::String", align 8
  %ref.tmp2363 = alloca %"struct.doctest::detail::Subcase", align 8
  %ref.tmp2364 = alloca %"class.doctest::String", align 8
  %j_nonarray2373 = alloca %"class.nlohmann::json_abi_v3_11_3::basic_json", align 8
  %j_nonarray_const2375 = alloca %"class.nlohmann::json_abi_v3_11_3::basic_json", align 8
  %DOCTEST_RB2385 = alloca %"struct.doctest::detail::ResultBuilder", align 8
  %ref.tmp2386 = alloca %"class.doctest::String", align 8
  %DOCTEST_RB2430 = alloca %"struct.doctest::detail::ResultBuilder", align 8
  %ref.tmp2431 = alloca %"class.doctest::String", align 8
  %ref.tmp2473 = alloca %"struct.doctest::detail::Subcase", align 8
  %ref.tmp2474 = alloca %"class.doctest::String", align 8
  %j_nonarray2483 = alloca %"class.nlohmann::json_abi_v3_11_3::basic_json", align 8
  %j_nonarray_const2485 = alloca %"class.nlohmann::json_abi_v3_11_3::basic_json", align 8
  %DOCTEST_RB2495 = alloca %"struct.doctest::detail::ResultBuilder", align 8
  %ref.tmp2496 = alloca %"class.doctest::String", align 8
  %DOCTEST_RB2540 = alloca %"struct.doctest::detail::ResultBuilder", align 8
  %ref.tmp2541 = alloca %"class.doctest::String", align 8
  %ref.tmp2583 = alloca %"struct.doctest::detail::Subcase", align 8
  %ref.tmp2584 = alloca %"class.doctest::String", align 8
  %j_nonarray2593 = alloca %"class.nlohmann::json_abi_v3_11_3::basic_json", align 8
  %j_nonarray_const2595 = alloca %"class.nlohmann::json_abi_v3_11_3::basic_json", align 8
  %DOCTEST_RB2605 = alloca %"struct.doctest::detail::ResultBuilder", align 8
  %ref.tmp2606 = alloca %"class.doctest::String", align 8
  %DOCTEST_RB2650 = alloca %"struct.doctest::detail::ResultBuilder", align 8
  %ref.tmp2651 = alloca %"class.doctest::String", align 8
  %ref.tmp2697 = alloca %"struct.doctest::detail::Subcase", align 8
  %ref.tmp2698 = alloca %"class.doctest::String", align 8
  %ref.tmp2707 = alloca %"struct.doctest::detail::Subcase", align 8
  %ref.tmp2708 = alloca %"class.doctest::String", align 8
  %jarray = alloca %"class.nlohmann::json_abi_v3_11_3::basic_json", align 8
  %ref.tmp2718 = alloca [8 x %"class.nlohmann::json_abi_v3_11_3::detail::json_ref"], align 8
  %ref.tmp2739 = alloca %"class.nlohmann::json_abi_v3_11_3::basic_json", align 8
  %ref.tmp2746 = alloca [3 x %"class.nlohmann::json_abi_v3_11_3::detail::json_ref"], align 8
  %ref.tmp2815 = alloca %"struct.doctest::detail::Result", align 8
  %ref.tmp2816 = alloca %"struct.doctest::detail::Expression_lhs", align 8
  %ref.tmp2817 = alloca %"struct.doctest::detail::ExpressionDecomposer", align 4
  %ref.tmp2821 = alloca %"class.nlohmann::json_abi_v3_11_3::basic_json", align 8
  %ref.tmp2823 = alloca [7 x %"class.nlohmann::json_abi_v3_11_3::detail::json_ref"], align 8
  %ref.tmp2841 = alloca %"class.nlohmann::json_abi_v3_11_3::basic_json", align 8
  %ref.tmp2848 = alloca [3 x %"class.nlohmann::json_abi_v3_11_3::detail::json_ref"], align 8
  %jarray2923 = alloca %"class.nlohmann::json_abi_v3_11_3::basic_json", align 8
  %ref.tmp2925 = alloca [8 x %"class.nlohmann::json_abi_v3_11_3::detail::json_ref"], align 8
  %ref.tmp2946 = alloca %"class.nlohmann::json_abi_v3_11_3::basic_json", align 8
  %ref.tmp2953 = alloca [3 x %"class.nlohmann::json_abi_v3_11_3::detail::json_ref"], align 8
  %ref.tmp3022 = alloca %"struct.doctest::detail::Result", align 8
  %ref.tmp3023 = alloca %"struct.doctest::detail::Expression_lhs", align 8
  %ref.tmp3024 = alloca %"struct.doctest::detail::ExpressionDecomposer", align 4
  %ref.tmp3028 = alloca %"class.nlohmann::json_abi_v3_11_3::basic_json", align 8
  %ref.tmp3030 = alloca [7 x %"class.nlohmann::json_abi_v3_11_3::detail::json_ref"], align 8
  %ref.tmp3048 = alloca %"class.nlohmann::json_abi_v3_11_3::basic_json", align 8
  %ref.tmp3055 = alloca [3 x %"class.nlohmann::json_abi_v3_11_3::detail::json_ref"], align 8
  %jarray3130 = alloca %"class.nlohmann::json_abi_v3_11_3::basic_json", align 8
  %ref.tmp3132 = alloca [8 x %"class.nlohmann::json_abi_v3_11_3::detail::json_ref"], align 8
  %ref.tmp3153 = alloca %"class.nlohmann::json_abi_v3_11_3::basic_json", align 8
  %ref.tmp3160 = alloca [3 x %"class.nlohmann::json_abi_v3_11_3::detail::json_ref"], align 8
  %ref.tmp3229 = alloca %"struct.doctest::detail::Result", align 8
  %ref.tmp3230 = alloca %"struct.doctest::detail::Expression_lhs", align 8
  %ref.tmp3231 = alloca %"struct.doctest::detail::ExpressionDecomposer", align 4
  %ref.tmp3235 = alloca %"class.nlohmann::json_abi_v3_11_3::basic_json", align 8
  %ref.tmp3237 = alloca [7 x %"class.nlohmann::json_abi_v3_11_3::detail::json_ref"], align 8
  %ref.tmp3255 = alloca %"class.nlohmann::json_abi_v3_11_3::basic_json", align 8
  %ref.tmp3262 = alloca [3 x %"class.nlohmann::json_abi_v3_11_3::detail::json_ref"], align 8
  %jarray3337 = alloca %"class.nlohmann::json_abi_v3_11_3::basic_json", align 8
  %ref.tmp3339 = alloca [8 x %"class.nlohmann::json_abi_v3_11_3::detail::json_ref"], align 8
  %ref.tmp3360 = alloca %"class.nlohmann::json_abi_v3_11_3::basic_json", align 8
  %ref.tmp3367 = alloca [3 x %"class.nlohmann::json_abi_v3_11_3::detail::json_ref"], align 8
  %ref.tmp3436 = alloca %"struct.doctest::detail::Result", align 8
  %ref.tmp3437 = alloca %"struct.doctest::detail::Expression_lhs", align 8
  %ref.tmp3438 = alloca %"struct.doctest::detail::ExpressionDecomposer", align 4
  %ref.tmp3442 = alloca %"class.nlohmann::json_abi_v3_11_3::basic_json", align 8
  %ref.tmp3444 = alloca [7 x %"class.nlohmann::json_abi_v3_11_3::detail::json_ref"], align 8
  %ref.tmp3462 = alloca %"class.nlohmann::json_abi_v3_11_3::basic_json", align 8
  %ref.tmp3469 = alloca [3 x %"class.nlohmann::json_abi_v3_11_3::detail::json_ref"], align 8
  %jarray3544 = alloca %"class.nlohmann::json_abi_v3_11_3::basic_json", align 8
  %ref.tmp3546 = alloca [8 x %"class.nlohmann::json_abi_v3_11_3::detail::json_ref"], align 8
  %ref.tmp3567 = alloca %"class.nlohmann::json_abi_v3_11_3::basic_json", align 8
  %ref.tmp3574 = alloca [3 x %"class.nlohmann::json_abi_v3_11_3::detail::json_ref"], align 8
  %ref.tmp3643 = alloca %"struct.doctest::detail::Result", align 8
  %ref.tmp3644 = alloca %"struct.doctest::detail::Expression_lhs", align 8
  %ref.tmp3645 = alloca %"struct.doctest::detail::ExpressionDecomposer", align 4
  %ref.tmp3649 = alloca %"class.nlohmann::json_abi_v3_11_3::basic_json", align 8
  %ref.tmp3651 = alloca [7 x %"class.nlohmann::json_abi_v3_11_3::detail::json_ref"], align 8
  %ref.tmp3670 = alloca %"class.nlohmann::json_abi_v3_11_3::basic_json", align 8
  %ref.tmp3677 = alloca [3 x %"class.nlohmann::json_abi_v3_11_3::detail::json_ref"], align 8
  %jarray3752 = alloca %"class.nlohmann::json_abi_v3_11_3::basic_json", align 8
  %ref.tmp3754 = alloca [8 x %"class.nlohmann::json_abi_v3_11_3::detail::json_ref"], align 8
  %ref.tmp3775 = alloca %"class.nlohmann::json_abi_v3_11_3::basic_json", align 8
  %ref.tmp3782 = alloca [3 x %"class.nlohmann::json_abi_v3_11_3::detail::json_ref"], align 8
  %ref.tmp3851 = alloca %"struct.doctest::detail::Result", align 8
  %ref.tmp3852 = alloca %"struct.doctest::detail::Expression_lhs", align 8
  %ref.tmp3853 = alloca %"struct.doctest::detail::ExpressionDecomposer", align 4
  %ref.tmp3857 = alloca %"class.nlohmann::json_abi_v3_11_3::basic_json", align 8
  %ref.tmp3859 = alloca [7 x %"class.nlohmann::json_abi_v3_11_3::detail::json_ref"], align 8
  %ref.tmp3877 = alloca %"class.nlohmann::json_abi_v3_11_3::basic_json", align 8
  %ref.tmp3884 = alloca [3 x %"class.nlohmann::json_abi_v3_11_3::detail::json_ref"], align 8
  %jarray3959 = alloca %"class.nlohmann::json_abi_v3_11_3::basic_json", align 8
  %ref.tmp3961 = alloca [8 x %"class.nlohmann::json_abi_v3_11_3::detail::json_ref"], align 8
  %ref.tmp3982 = alloca %"class.nlohmann::json_abi_v3_11_3::basic_json", align 8
  %ref.tmp3989 = alloca [3 x %"class.nlohmann::json_abi_v3_11_3::detail::json_ref"], align 8
  %ref.tmp4058 = alloca %"struct.doctest::detail::Result", align 8
  %ref.tmp4059 = alloca %"struct.doctest::detail::Expression_lhs", align 8
  %ref.tmp4060 = alloca %"struct.doctest::detail::ExpressionDecomposer", align 4
  %ref.tmp4064 = alloca %"class.nlohmann::json_abi_v3_11_3::basic_json", align 8
  %ref.tmp4066 = alloca [7 x %"class.nlohmann::json_abi_v3_11_3::detail::json_ref"], align 8
  %ref.tmp4088 = alloca [3 x %"class.nlohmann::json_abi_v3_11_3::detail::json_ref"], align 8
  %jarray4162 = alloca %"class.nlohmann::json_abi_v3_11_3::basic_json", align 8
  %ref.tmp4164 = alloca [8 x %"class.nlohmann::json_abi_v3_11_3::detail::json_ref"], align 8
  %ref.tmp4185 = alloca %"class.nlohmann::json_abi_v3_11_3::basic_json", align 8
  %ref.tmp4192 = alloca [3 x %"class.nlohmann::json_abi_v3_11_3::detail::json_ref"], align 8
  %ref.tmp4261 = alloca %"struct.doctest::detail::Result", align 8
  %ref.tmp4262 = alloca %"struct.doctest::detail::Expression_lhs", align 8
  %ref.tmp4263 = alloca %"struct.doctest::detail::ExpressionDecomposer", align 4
  %ref.tmp4267 = alloca %"class.nlohmann::json_abi_v3_11_3::basic_json", align 8
  %ref.tmp4269 = alloca [7 x %"class.nlohmann::json_abi_v3_11_3::detail::json_ref"], align 8
  %ref.tmp4290 = alloca %"class.nlohmann::json_abi_v3_11_3::basic_json", align 8
  %jarray4333 = alloca %"class.nlohmann::json_abi_v3_11_3::basic_json", align 8
  %ref.tmp4335 = alloca [8 x %"class.nlohmann::json_abi_v3_11_3::detail::json_ref"], align 8
  %ref.tmp4356 = alloca %"class.nlohmann::json_abi_v3_11_3::basic_json", align 8
  %ref.tmp4363 = alloca [3 x %"class.nlohmann::json_abi_v3_11_3::detail::json_ref"], align 8
  %DOCTEST_RB4437 = alloca %"struct.doctest::detail::ResultBuilder", align 8
  %ref.tmp4438 = alloca %"class.doctest::String", align 8
  %ref.tmp4478 = alloca %"struct.doctest::detail::Subcase", align 8
  %ref.tmp4479 = alloca %"class.doctest::String", align 8
  %ref.tmp4488 = alloca %"struct.doctest::detail::Subcase", align 8
  %ref.tmp4489 = alloca %"class.doctest::String", align 8
  %jarray4498 = alloca %"class.nlohmann::json_abi_v3_11_3::basic_json", align 8
  %ref.tmp4500 = alloca [8 x %"class.nlohmann::json_abi_v3_11_3::detail::json_ref"], align 8
  %ref.tmp4521 = alloca %"class.nlohmann::json_abi_v3_11_3::basic_json", align 8
  %ref.tmp4528 = alloca [3 x %"class.nlohmann::json_abi_v3_11_3::detail::json_ref"], align 8
  %it2 = alloca %"class.nlohmann::json_abi_v3_11_3::detail::iter_impl", align 8
  %agg.tmp4595 = alloca %"class.nlohmann::json_abi_v3_11_3::detail::iter_impl", align 8
  %ref.tmp4598 = alloca %"struct.doctest::detail::Result", align 8
  %ref.tmp4599 = alloca %"struct.doctest::detail::Expression_lhs", align 8
  %ref.tmp4600 = alloca %"struct.doctest::detail::ExpressionDecomposer", align 4
  %ref.tmp4604 = alloca %"class.nlohmann::json_abi_v3_11_3::basic_json", align 8
  %ref.tmp4606 = alloca [7 x %"class.nlohmann::json_abi_v3_11_3::detail::json_ref"], align 8
  %ref.tmp4624 = alloca %"class.nlohmann::json_abi_v3_11_3::basic_json", align 8
  %ref.tmp4631 = alloca [3 x %"class.nlohmann::json_abi_v3_11_3::detail::json_ref"], align 8
  %ref.tmp4705 = alloca %"struct.doctest::detail::Result", align 8
  %ref.tmp4706 = alloca %"struct.doctest::detail::Expression_lhs", align 8
  %ref.tmp4707 = alloca %"struct.doctest::detail::ExpressionDecomposer", align 4
  %ref.tmp4713 = alloca %"class.nlohmann::json_abi_v3_11_3::basic_json", align 8
  %jarray4723 = alloca %"class.nlohmann::json_abi_v3_11_3::basic_json", align 8
  %ref.tmp4725 = alloca [8 x %"class.nlohmann::json_abi_v3_11_3::detail::json_ref"], align 8
  %ref.tmp4746 = alloca %"class.nlohmann::json_abi_v3_11_3::basic_json", align 8
  %ref.tmp4753 = alloca [3 x %"class.nlohmann::json_abi_v3_11_3::detail::json_ref"], align 8
  %it24820 = alloca %"class.nlohmann::json_abi_v3_11_3::detail::iter_impl.2", align 8
  %agg.tmp4821 = alloca %"class.nlohmann::json_abi_v3_11_3::detail::iter_impl.2", align 8
  %ref.tmp4824 = alloca %"struct.doctest::detail::Result", align 8
  %ref.tmp4825 = alloca %"struct.doctest::detail::Expression_lhs", align 8
  %ref.tmp4826 = alloca %"struct.doctest::detail::ExpressionDecomposer", align 4
  %ref.tmp4830 = alloca %"class.nlohmann::json_abi_v3_11_3::basic_json", align 8
  %ref.tmp4832 = alloca [7 x %"class.nlohmann::json_abi_v3_11_3::detail::json_ref"], align 8
  %ref.tmp4850 = alloca %"class.nlohmann::json_abi_v3_11_3::basic_json", align 8
  %ref.tmp4857 = alloca [3 x %"class.nlohmann::json_abi_v3_11_3::detail::json_ref"], align 8
  %ref.tmp4931 = alloca %"struct.doctest::detail::Result", align 8
  %ref.tmp4932 = alloca %"struct.doctest::detail::Expression_lhs.0", align 8
  %ref.tmp4933 = alloca %"struct.doctest::detail::ExpressionDecomposer", align 4
  %ref.tmp4939 = alloca %"class.nlohmann::json_abi_v3_11_3::basic_json", align 8
  %ref.tmp4951 = alloca %"struct.doctest::detail::Subcase", align 8
  %ref.tmp4952 = alloca %"class.doctest::String", align 8
  %jarray4961 = alloca %"class.nlohmann::json_abi_v3_11_3::basic_json", align 8
  %ref.tmp4963 = alloca [8 x %"class.nlohmann::json_abi_v3_11_3::detail::json_ref"], align 8
  %ref.tmp4984 = alloca %"class.nlohmann::json_abi_v3_11_3::basic_json", align 8
  %ref.tmp4991 = alloca [3 x %"class.nlohmann::json_abi_v3_11_3::detail::json_ref"], align 8
  %it25058 = alloca %"class.nlohmann::json_abi_v3_11_3::detail::iter_impl", align 8
  %agg.tmp5059 = alloca %"class.nlohmann::json_abi_v3_11_3::detail::iter_impl", align 8
  %agg.tmp5060 = alloca %"class.nlohmann::json_abi_v3_11_3::detail::iter_impl", align 8
  %ref.tmp5063 = alloca %"struct.doctest::detail::Result", align 8
  %ref.tmp5064 = alloca %"struct.doctest::detail::Expression_lhs", align 8
  %ref.tmp5065 = alloca %"struct.doctest::detail::ExpressionDecomposer", align 4
  %ref.tmp5069 = alloca %"class.nlohmann::json_abi_v3_11_3::basic_json", align 8
  %ref.tmp5079 = alloca %"struct.doctest::detail::Result", align 8
  %ref.tmp5080 = alloca %"struct.doctest::detail::Expression_lhs.3", align 8
  %ref.tmp5081 = alloca %"struct.doctest::detail::ExpressionDecomposer", align 4
  %ref.tmp5085 = alloca %"class.nlohmann::json_abi_v3_11_3::detail::iter_impl", align 8
  %jarray5092 = alloca %"class.nlohmann::json_abi_v3_11_3::basic_json", align 8
  %ref.tmp5094 = alloca [8 x %"class.nlohmann::json_abi_v3_11_3::detail::json_ref"], align 8
  %ref.tmp5115 = alloca %"class.nlohmann::json_abi_v3_11_3::basic_json", align 8
  %ref.tmp5122 = alloca [3 x %"class.nlohmann::json_abi_v3_11_3::detail::json_ref"], align 8
  %it25189 = alloca %"class.nlohmann::json_abi_v3_11_3::detail::iter_impl.2", align 8
  %agg.tmp5190 = alloca %"class.nlohmann::json_abi_v3_11_3::detail::iter_impl.2", align 8
  %agg.tmp5191 = alloca %"class.nlohmann::json_abi_v3_11_3::detail::iter_impl.2", align 8
  %ref.tmp5194 = alloca %"struct.doctest::detail::Result", align 8
  %ref.tmp5195 = alloca %"struct.doctest::detail::Expression_lhs", align 8
  %ref.tmp5196 = alloca %"struct.doctest::detail::ExpressionDecomposer", align 4
  %ref.tmp5200 = alloca %"class.nlohmann::json_abi_v3_11_3::basic_json", align 8
  %ref.tmp5210 = alloca %"struct.doctest::detail::Result", align 8
  %ref.tmp5211 = alloca %"struct.doctest::detail::Expression_lhs.5", align 8
  %ref.tmp5212 = alloca %"struct.doctest::detail::ExpressionDecomposer", align 4
  %ref.tmp5216 = alloca %"class.nlohmann::json_abi_v3_11_3::detail::iter_impl.2", align 8
  %ref.tmp5225 = alloca %"struct.doctest::detail::Subcase", align 8
  %ref.tmp5226 = alloca %"class.doctest::String", align 8
  %jarray5235 = alloca %"class.nlohmann::json_abi_v3_11_3::basic_json", align 8
  %ref.tmp5237 = alloca [8 x %"class.nlohmann::json_abi_v3_11_3::detail::json_ref"], align 8
  %ref.tmp5258 = alloca %"class.nlohmann::json_abi_v3_11_3::basic_json", align 8
  %ref.tmp5265 = alloca [3 x %"class.nlohmann::json_abi_v3_11_3::detail::json_ref"], align 8
  %it25332 = alloca %"class.nlohmann::json_abi_v3_11_3::detail::iter_impl", align 8
  %agg.tmp5333 = alloca %"class.nlohmann::json_abi_v3_11_3::detail::iter_impl", align 8
  %agg.tmp5334 = alloca %"class.nlohmann::json_abi_v3_11_3::detail::iter_impl", align 8
  %ref.tmp5337 = alloca %"struct.doctest::detail::Result", align 8
  %ref.tmp5338 = alloca %"struct.doctest::detail::Expression_lhs", align 8
  %ref.tmp5339 = alloca %"struct.doctest::detail::ExpressionDecomposer", align 4
  %ref.tmp5343 = alloca %"class.nlohmann::json_abi_v3_11_3::basic_json", align 8
  %ref.tmp5345 = alloca [8 x %"class.nlohmann::json_abi_v3_11_3::detail::json_ref"], align 8
  %ref.tmp5366 = alloca %"class.nlohmann::json_abi_v3_11_3::basic_json", align 8
  %ref.tmp5373 = alloca [3 x %"class.nlohmann::json_abi_v3_11_3::detail::json_ref"], align 8
  %ref.tmp5447 = alloca %"struct.doctest::detail::Result", align 8
  %ref.tmp5448 = alloca %"struct.doctest::detail::Expression_lhs", align 8
  %ref.tmp5449 = alloca %"struct.doctest::detail::ExpressionDecomposer", align 4
  %ref.tmp5455 = alloca %"class.nlohmann::json_abi_v3_11_3::basic_json", align 8
  %jarray5465 = alloca %"class.nlohmann::json_abi_v3_11_3::basic_json", align 8
  %ref.tmp5467 = alloca [8 x %"class.nlohmann::json_abi_v3_11_3::detail::json_ref"], align 8
  %ref.tmp5488 = alloca %"class.nlohmann::json_abi_v3_11_3::basic_json", align 8
  %ref.tmp5495 = alloca [3 x %"class.nlohmann::json_abi_v3_11_3::detail::json_ref"], align 8
  %it25562 = alloca %"class.nlohmann::json_abi_v3_11_3::detail::iter_impl.2", align 8
  %agg.tmp5563 = alloca %"class.nlohmann::json_abi_v3_11_3::detail::iter_impl.2", align 8
  %agg.tmp5564 = alloca %"class.nlohmann::json_abi_v3_11_3::detail::iter_impl.2", align 8
  %ref.tmp5567 = alloca %"struct.doctest::detail::Result", align 8
  %ref.tmp5568 = alloca %"struct.doctest::detail::Expression_lhs", align 8
  %ref.tmp5569 = alloca %"struct.doctest::detail::ExpressionDecomposer", align 4
  %ref.tmp5573 = alloca %"class.nlohmann::json_abi_v3_11_3::basic_json", align 8
  %ref.tmp5575 = alloca [8 x %"class.nlohmann::json_abi_v3_11_3::detail::json_ref"], align 8
  %ref.tmp5596 = alloca %"class.nlohmann::json_abi_v3_11_3::basic_json", align 8
  %ref.tmp5603 = alloca [3 x %"class.nlohmann::json_abi_v3_11_3::detail::json_ref"], align 8
  %ref.tmp5677 = alloca %"struct.doctest::detail::Result", align 8
  %ref.tmp5678 = alloca %"struct.doctest::detail::Expression_lhs.0", align 8
  %ref.tmp5679 = alloca %"struct.doctest::detail::ExpressionDecomposer", align 4
  %ref.tmp5685 = alloca %"class.nlohmann::json_abi_v3_11_3::basic_json", align 8
  %ref.tmp5697 = alloca %"struct.doctest::detail::Subcase", align 8
  %ref.tmp5698 = alloca %"class.doctest::String", align 8
  %jarray5707 = alloca %"class.nlohmann::json_abi_v3_11_3::basic_json", align 8
  %ref.tmp5709 = alloca [8 x %"class.nlohmann::json_abi_v3_11_3::detail::json_ref"], align 8
  %ref.tmp5730 = alloca %"class.nlohmann::json_abi_v3_11_3::basic_json", align 8
  %ref.tmp5737 = alloca [3 x %"class.nlohmann::json_abi_v3_11_3::detail::json_ref"], align 8
  %it = alloca %"class.nlohmann::json_abi_v3_11_3::detail::iter_impl", align 8
  %it25807 = alloca %"class.nlohmann::json_abi_v3_11_3::detail::iter_impl", align 8
  %agg.tmp5808 = alloca %"class.nlohmann::json_abi_v3_11_3::detail::iter_impl", align 8
  %ref.tmp5810 = alloca %"struct.doctest::detail::Result", align 8
  %ref.tmp5811 = alloca %"struct.doctest::detail::Expression_lhs", align 8
  %ref.tmp5812 = alloca %"struct.doctest::detail::ExpressionDecomposer", align 4
  %ref.tmp5816 = alloca %"class.nlohmann::json_abi_v3_11_3::basic_json", align 8
  %ref.tmp5818 = alloca [7 x %"class.nlohmann::json_abi_v3_11_3::detail::json_ref"], align 8
  %ref.tmp5837 = alloca %"class.nlohmann::json_abi_v3_11_3::basic_json", align 8
  %ref.tmp5844 = alloca [3 x %"class.nlohmann::json_abi_v3_11_3::detail::json_ref"], align 8
  %ref.tmp5918 = alloca %"struct.doctest::detail::Result", align 8
  %ref.tmp5919 = alloca %"struct.doctest::detail::Expression_lhs", align 8
  %ref.tmp5920 = alloca %"struct.doctest::detail::ExpressionDecomposer", align 4
  %ref.tmp5926 = alloca %"class.nlohmann::json_abi_v3_11_3::basic_json", align 8
  %jarray5936 = alloca %"class.nlohmann::json_abi_v3_11_3::basic_json", align 8
  %ref.tmp5938 = alloca [8 x %"class.nlohmann::json_abi_v3_11_3::detail::json_ref"], align 8
  %ref.tmp5959 = alloca %"class.nlohmann::json_abi_v3_11_3::basic_json", align 8
  %ref.tmp5966 = alloca [3 x %"class.nlohmann::json_abi_v3_11_3::detail::json_ref"], align 8
  %it6033 = alloca %"class.nlohmann::json_abi_v3_11_3::detail::iter_impl.2", align 8
  %it26037 = alloca %"class.nlohmann::json_abi_v3_11_3::detail::iter_impl.2", align 8
  %agg.tmp6038 = alloca %"class.nlohmann::json_abi_v3_11_3::detail::iter_impl.2", align 8
  %ref.tmp6040 = alloca %"struct.doctest::detail::Result", align 8
  %ref.tmp6041 = alloca %"struct.doctest::detail::Expression_lhs", align 8
  %ref.tmp6042 = alloca %"struct.doctest::detail::ExpressionDecomposer", align 4
  %ref.tmp6046 = alloca %"class.nlohmann::json_abi_v3_11_3::basic_json", align 8
  %ref.tmp6048 = alloca [7 x %"class.nlohmann::json_abi_v3_11_3::detail::json_ref"], align 8
  %ref.tmp6067 = alloca %"class.nlohmann::json_abi_v3_11_3::basic_json", align 8
  %ref.tmp6074 = alloca [3 x %"class.nlohmann::json_abi_v3_11_3::detail::json_ref"], align 8
  %ref.tmp6148 = alloca %"struct.doctest::detail::Result", align 8
  %ref.tmp6149 = alloca %"struct.doctest::detail::Expression_lhs.0", align 8
  %ref.tmp6150 = alloca %"struct.doctest::detail::ExpressionDecomposer", align 4
  %ref.tmp6156 = alloca %"class.nlohmann::json_abi_v3_11_3::basic_json", align 8
  %ref.tmp6168 = alloca %"struct.doctest::detail::Subcase", align 8
  %ref.tmp6169 = alloca %"class.doctest::String", align 8
  %jarray6178 = alloca %"class.nlohmann::json_abi_v3_11_3::basic_json", align 8
  %ref.tmp6180 = alloca [8 x %"class.nlohmann::json_abi_v3_11_3::detail::json_ref"], align 8
  %ref.tmp6201 = alloca %"class.nlohmann::json_abi_v3_11_3::basic_json", align 8
  %ref.tmp6208 = alloca [3 x %"class.nlohmann::json_abi_v3_11_3::detail::json_ref"], align 8
  %it26275 = alloca %"class.nlohmann::json_abi_v3_11_3::detail::iter_impl", align 8
  %agg.tmp6276 = alloca %"class.nlohmann::json_abi_v3_11_3::detail::iter_impl", align 8
  %agg.tmp6280 = alloca %"class.nlohmann::json_abi_v3_11_3::detail::iter_impl", align 8
  %ref.tmp6284 = alloca %"struct.doctest::detail::Result", align 8
  %ref.tmp6285 = alloca %"struct.doctest::detail::Expression_lhs", align 8
  %ref.tmp6286 = alloca %"struct.doctest::detail::ExpressionDecomposer", align 4
  %ref.tmp6290 = alloca %"class.nlohmann::json_abi_v3_11_3::basic_json", align 8
  %ref.tmp6292 = alloca [5 x %"class.nlohmann::json_abi_v3_11_3::detail::json_ref"], align 8
  %ref.tmp6305 = alloca %"class.nlohmann::json_abi_v3_11_3::basic_json", align 8
  %ref.tmp6312 = alloca [3 x %"class.nlohmann::json_abi_v3_11_3::detail::json_ref"], align 8
  %ref.tmp6386 = alloca %"struct.doctest::detail::Result", align 8
  %ref.tmp6387 = alloca %"struct.doctest::detail::Expression_lhs", align 8
  %ref.tmp6388 = alloca %"struct.doctest::detail::ExpressionDecomposer", align 4
  %ref.tmp6394 = alloca %"class.nlohmann::json_abi_v3_11_3::basic_json", align 8
  %jarray6405 = alloca %"class.nlohmann::json_abi_v3_11_3::basic_json", align 8
  %ref.tmp6407 = alloca [8 x %"class.nlohmann::json_abi_v3_11_3::detail::json_ref"], align 8
  %ref.tmp6428 = alloca %"class.nlohmann::json_abi_v3_11_3::basic_json", align 8
  %ref.tmp6435 = alloca [3 x %"class.nlohmann::json_abi_v3_11_3::detail::json_ref"], align 8
  %it26502 = alloca %"class.nlohmann::json_abi_v3_11_3::detail::iter_impl.2", align 8
  %agg.tmp6503 = alloca %"class.nlohmann::json_abi_v3_11_3::detail::iter_impl.2", align 8
  %agg.tmp6507 = alloca %"class.nlohmann::json_abi_v3_11_3::detail::iter_impl.2", align 8
  %ref.tmp6511 = alloca %"struct.doctest::detail::Result", align 8
  %ref.tmp6512 = alloca %"struct.doctest::detail::Expression_lhs", align 8
  %ref.tmp6513 = alloca %"struct.doctest::detail::ExpressionDecomposer", align 4
  %ref.tmp6517 = alloca %"class.nlohmann::json_abi_v3_11_3::basic_json", align 8
  %ref.tmp6519 = alloca [5 x %"class.nlohmann::json_abi_v3_11_3::detail::json_ref"], align 8
  %ref.tmp6532 = alloca %"class.nlohmann::json_abi_v3_11_3::basic_json", align 8
  %ref.tmp6539 = alloca [3 x %"class.nlohmann::json_abi_v3_11_3::detail::json_ref"], align 8
  %ref.tmp6613 = alloca %"struct.doctest::detail::Result", align 8
  %ref.tmp6614 = alloca %"struct.doctest::detail::Expression_lhs.0", align 8
  %ref.tmp6615 = alloca %"struct.doctest::detail::ExpressionDecomposer", align 4
  %ref.tmp6621 = alloca %"class.nlohmann::json_abi_v3_11_3::basic_json", align 8
  %ref.tmp6634 = alloca %"struct.doctest::detail::Subcase", align 8
  %ref.tmp6635 = alloca %"class.doctest::String", align 8
  %jarray6644 = alloca %"class.nlohmann::json_abi_v3_11_3::basic_json", align 8
  %ref.tmp6646 = alloca [8 x %"class.nlohmann::json_abi_v3_11_3::detail::json_ref"], align 8
  %ref.tmp6667 = alloca %"class.nlohmann::json_abi_v3_11_3::basic_json", align 8
  %ref.tmp6674 = alloca [3 x %"class.nlohmann::json_abi_v3_11_3::detail::json_ref"], align 8
  %jarray2 = alloca %"class.nlohmann::json_abi_v3_11_3::basic_json", align 8
  %ref.tmp6742 = alloca [2 x %"class.nlohmann::json_abi_v3_11_3::detail::json_ref"], align 8
  %DOCTEST_RB6781 = alloca %"struct.doctest::detail::ResultBuilder", align 8
  %ref.tmp6782 = alloca %"class.doctest::String", align 8
  %agg.tmp6787 = alloca %"class.nlohmann::json_abi_v3_11_3::detail::iter_impl", align 8
  %tmp = alloca %"class.nlohmann::json_abi_v3_11_3::detail::iter_impl", align 8
  %DOCTEST_RB6826 = alloca %"struct.doctest::detail::ResultBuilder", align 8
  %ref.tmp6827 = alloca %"class.doctest::String", align 8
  %agg.tmp6832 = alloca %"class.nlohmann::json_abi_v3_11_3::detail::iter_impl", align 8
  %agg.tmp6833 = alloca %"class.nlohmann::json_abi_v3_11_3::detail::iter_impl", align 8
  %tmp6834 = alloca %"class.nlohmann::json_abi_v3_11_3::detail::iter_impl", align 8
  %DOCTEST_RB6873 = alloca %"struct.doctest::detail::ResultBuilder", align 8
  %ref.tmp6874 = alloca %"class.doctest::String", align 8
  %agg.tmp6879 = alloca %"class.nlohmann::json_abi_v3_11_3::detail::iter_impl", align 8
  %agg.tmp6880 = alloca %"class.nlohmann::json_abi_v3_11_3::detail::iter_impl", align 8
  %tmp6881 = alloca %"class.nlohmann::json_abi_v3_11_3::detail::iter_impl", align 8
  %DOCTEST_RB6920 = alloca %"struct.doctest::detail::ResultBuilder", align 8
  %ref.tmp6921 = alloca %"class.doctest::String", align 8
  %agg.tmp6926 = alloca %"class.nlohmann::json_abi_v3_11_3::detail::iter_impl", align 8
  %agg.tmp6927 = alloca %"class.nlohmann::json_abi_v3_11_3::detail::iter_impl", align 8
  %tmp6928 = alloca %"class.nlohmann::json_abi_v3_11_3::detail::iter_impl", align 8
  %jarray6963 = alloca %"class.nlohmann::json_abi_v3_11_3::basic_json", align 8
  %ref.tmp6965 = alloca [8 x %"class.nlohmann::json_abi_v3_11_3::detail::json_ref"], align 8
  %ref.tmp6986 = alloca %"class.nlohmann::json_abi_v3_11_3::basic_json", align 8
  %ref.tmp6993 = alloca [3 x %"class.nlohmann::json_abi_v3_11_3::detail::json_ref"], align 8
  %jarray27060 = alloca %"class.nlohmann::json_abi_v3_11_3::basic_json", align 8
  %ref.tmp7062 = alloca [2 x %"class.nlohmann::json_abi_v3_11_3::detail::json_ref"], align 8
  %DOCTEST_RB7101 = alloca %"struct.doctest::detail::ResultBuilder", align 8
  %ref.tmp7102 = alloca %"class.doctest::String", align 8
  %agg.tmp7107 = alloca %"class.nlohmann::json_abi_v3_11_3::detail::iter_impl.2", align 8
  %tmp7108 = alloca %"class.nlohmann::json_abi_v3_11_3::detail::iter_impl.2", align 8
  %DOCTEST_RB7147 = alloca %"struct.doctest::detail::ResultBuilder", align 8
  %ref.tmp7148 = alloca %"class.doctest::String", align 8
  %agg.tmp7153 = alloca %"class.nlohmann::json_abi_v3_11_3::detail::iter_impl.2", align 8
  %agg.tmp7154 = alloca %"class.nlohmann::json_abi_v3_11_3::detail::iter_impl.2", align 8
  %tmp7155 = alloca %"class.nlohmann::json_abi_v3_11_3::detail::iter_impl.2", align 8
  %DOCTEST_RB7194 = alloca %"struct.doctest::detail::ResultBuilder", align 8
  %ref.tmp7195 = alloca %"class.doctest::String", align 8
  %agg.tmp7200 = alloca %"class.nlohmann::json_abi_v3_11_3::detail::iter_impl.2", align 8
  %agg.tmp7201 = alloca %"class.nlohmann::json_abi_v3_11_3::detail::iter_impl.2", align 8
  %tmp7202 = alloca %"class.nlohmann::json_abi_v3_11_3::detail::iter_impl.2", align 8
  %DOCTEST_RB7241 = alloca %"struct.doctest::detail::ResultBuilder", align 8
  %ref.tmp7242 = alloca %"class.doctest::String", align 8
  %agg.tmp7247 = alloca %"class.nlohmann::json_abi_v3_11_3::detail::iter_impl.2", align 8
  %agg.tmp7248 = alloca %"class.nlohmann::json_abi_v3_11_3::detail::iter_impl.2", align 8
  %tmp7249 = alloca %"class.nlohmann::json_abi_v3_11_3::detail::iter_impl.2", align 8
  %ref.tmp7288 = alloca %"struct.doctest::detail::Subcase", align 8
  %ref.tmp7289 = alloca %"class.doctest::String", align 8
  %ref.tmp7298 = alloca %"struct.doctest::detail::Subcase", align 8
  %ref.tmp7299 = alloca %"class.doctest::String", align 8
  %j_nonobject = alloca %"class.nlohmann::json_abi_v3_11_3::basic_json", align 8
  %DOCTEST_RB7316 = alloca %"struct.doctest::detail::ResultBuilder", align 8
  %ref.tmp7317 = alloca %"class.doctest::String", align 8
  %ref.tmp7357 = alloca %"struct.doctest::detail::Subcase", align 8
  %ref.tmp7358 = alloca %"class.doctest::String", align 8
  %j_nonobject7367 = alloca %"class.nlohmann::json_abi_v3_11_3::basic_json", align 8
  %DOCTEST_RB7376 = alloca %"struct.doctest::detail::ResultBuilder", align 8
  %ref.tmp7377 = alloca %"class.doctest::String", align 8
  %ref.tmp7417 = alloca %"struct.doctest::detail::Subcase", align 8
  %ref.tmp7418 = alloca %"class.doctest::String", align 8
  %j_nonobject7427 = alloca %"class.nlohmann::json_abi_v3_11_3::basic_json", align 8
  %DOCTEST_RB7436 = alloca %"struct.doctest::detail::ResultBuilder", align 8
  %ref.tmp7437 = alloca %"class.doctest::String", align 8
  %ref.tmp7477 = alloca %"struct.doctest::detail::Subcase", align 8
  %ref.tmp7478 = alloca %"class.doctest::String", align 8
  %j_nonobject7487 = alloca %"class.nlohmann::json_abi_v3_11_3::basic_json", align 8
  %DOCTEST_RB7496 = alloca %"struct.doctest::detail::ResultBuilder", align 8
  %ref.tmp7497 = alloca %"class.doctest::String", align 8
  %ref.tmp7537 = alloca %"struct.doctest::detail::Subcase", align 8
  %ref.tmp7538 = alloca %"class.doctest::String", align 8
  %j_nonobject7547 = alloca %"class.nlohmann::json_abi_v3_11_3::basic_json", align 8
  %DOCTEST_RB7556 = alloca %"struct.doctest::detail::ResultBuilder", align 8
  %ref.tmp7557 = alloca %"class.doctest::String", align 8
  %ref.tmp7597 = alloca %"struct.doctest::detail::Subcase", align 8
  %ref.tmp7598 = alloca %"class.doctest::String", align 8
  %j_nonobject7607 = alloca %"class.nlohmann::json_abi_v3_11_3::basic_json", align 8
  %DOCTEST_RB7616 = alloca %"struct.doctest::detail::ResultBuilder", align 8
  %ref.tmp7617 = alloca %"class.doctest::String", align 8
  %ref.tmp7657 = alloca %"struct.doctest::detail::Subcase", align 8
  %ref.tmp7658 = alloca %"class.doctest::String", align 8
  %j_nonobject7667 = alloca %"class.nlohmann::json_abi_v3_11_3::basic_json", align 8
  %DOCTEST_RB7676 = alloca %"struct.doctest::detail::ResultBuilder", align 8
  %ref.tmp7677 = alloca %"class.doctest::String", align 8
  %ref.tmp7725 = alloca %"struct.doctest::detail::Subcase", align 8
  %ref.tmp7726 = alloca %"class.doctest::String", align 8
  %ref.tmp7734 = alloca %"struct.doctest::detail::Subcase", align 8
  %ref.tmp7735 = alloca %"class.doctest::String", align 8
  %ref.tmp7744 = alloca %"struct.doctest::detail::Subcase", align 8
  %ref.tmp7745 = alloca %"class.doctest::String", align 8
  %j7754 = alloca %"class.nlohmann::json_abi_v3_11_3::basic_json", align 8
  %DOCTEST_RB7762 = alloca %"struct.doctest::detail::ResultBuilder", align 8
  %ref.tmp7763 = alloca %"class.doctest::String", align 8
  %DOCTEST_RB7807 = alloca %"struct.doctest::detail::ResultBuilder", align 8
  %ref.tmp7808 = alloca %"class.doctest::String", align 8
  %j7847 = alloca %"class.nlohmann::json_abi_v3_11_3::basic_json", align 8
  %DOCTEST_RB7855 = alloca %"struct.doctest::detail::ResultBuilder", align 8
  %ref.tmp7856 = alloca %"class.doctest::String", align 8
  %DOCTEST_RB7900 = alloca %"struct.doctest::detail::ResultBuilder", align 8
  %ref.tmp7901 = alloca %"class.doctest::String", align 8
  %ref.tmp7942 = alloca %"struct.doctest::detail::Subcase", align 8
  %ref.tmp7943 = alloca %"class.doctest::String", align 8
  %j7952 = alloca %"class.nlohmann::json_abi_v3_11_3::basic_json", align 8
  %ref.tmp7954 = alloca %"struct.doctest::detail::Result", align 8
  %ref.tmp7955 = alloca %"struct.doctest::detail::Expression_lhs", align 8
  %ref.tmp7956 = alloca %"struct.doctest::detail::ExpressionDecomposer", align 4
  %ref.tmp7968 = alloca %"struct.doctest::detail::Result", align 8
  %ref.tmp7969 = alloca %"struct.doctest::detail::Expression_lhs", align 8
  %ref.tmp7970 = alloca %"struct.doctest::detail::ExpressionDecomposer", align 4
  %j7982 = alloca %"class.nlohmann::json_abi_v3_11_3::basic_json", align 8
  %ref.tmp7984 = alloca %"struct.doctest::detail::Result", align 8
  %ref.tmp7985 = alloca %"struct.doctest::detail::Expression_lhs.0", align 8
  %ref.tmp7986 = alloca %"struct.doctest::detail::ExpressionDecomposer", align 4
  %ref.tmp7998 = alloca %"struct.doctest::detail::Result", align 8
  %ref.tmp7999 = alloca %"struct.doctest::detail::Expression_lhs.0", align 8
  %ref.tmp8000 = alloca %"struct.doctest::detail::ExpressionDecomposer", align 4
  %ref.tmp8014 = alloca %"struct.doctest::detail::Subcase", align 8
  %ref.tmp8015 = alloca %"class.doctest::String", align 8
  %j8024 = alloca %"class.nlohmann::json_abi_v3_11_3::basic_json", align 8
  %ref.tmp8026 = alloca %"struct.doctest::detail::Result", align 8
  %ref.tmp8027 = alloca %"struct.doctest::detail::Expression_lhs", align 8
  %ref.tmp8028 = alloca %"struct.doctest::detail::ExpressionDecomposer", align 4
  %ref.tmp8040 = alloca %"struct.doctest::detail::Result", align 8
  %ref.tmp8041 = alloca %"struct.doctest::detail::Expression_lhs", align 8
  %ref.tmp8042 = alloca %"struct.doctest::detail::ExpressionDecomposer", align 4
  %j8054 = alloca %"class.nlohmann::json_abi_v3_11_3::basic_json", align 8
  %ref.tmp8056 = alloca %"struct.doctest::detail::Result", align 8
  %ref.tmp8057 = alloca %"struct.doctest::detail::Expression_lhs.0", align 8
  %ref.tmp8058 = alloca %"struct.doctest::detail::ExpressionDecomposer", align 4
  %ref.tmp8070 = alloca %"struct.doctest::detail::Result", align 8
  %ref.tmp8071 = alloca %"struct.doctest::detail::Expression_lhs.0", align 8
  %ref.tmp8072 = alloca %"struct.doctest::detail::ExpressionDecomposer", align 4
  %ref.tmp8086 = alloca %"struct.doctest::detail::Subcase", align 8
  %ref.tmp8087 = alloca %"class.doctest::String", align 8
  %j8096 = alloca %"class.nlohmann::json_abi_v3_11_3::basic_json", align 8
  %ref.tmp8098 = alloca %"struct.doctest::detail::Result", align 8
  %ref.tmp8099 = alloca %"struct.doctest::detail::Expression_lhs", align 8
  %ref.tmp8100 = alloca %"struct.doctest::detail::ExpressionDecomposer", align 4
  %ref.tmp8112 = alloca %"struct.doctest::detail::Result", align 8
  %ref.tmp8113 = alloca %"struct.doctest::detail::Expression_lhs", align 8
  %ref.tmp8114 = alloca %"struct.doctest::detail::ExpressionDecomposer", align 4
  %j8126 = alloca %"class.nlohmann::json_abi_v3_11_3::basic_json", align 8
  %ref.tmp8128 = alloca %"struct.doctest::detail::Result", align 8
  %ref.tmp8129 = alloca %"struct.doctest::detail::Expression_lhs.0", align 8
  %ref.tmp8130 = alloca %"struct.doctest::detail::ExpressionDecomposer", align 4
  %ref.tmp8142 = alloca %"struct.doctest::detail::Result", align 8
  %ref.tmp8143 = alloca %"struct.doctest::detail::Expression_lhs.0", align 8
  %ref.tmp8144 = alloca %"struct.doctest::detail::ExpressionDecomposer", align 4
  %ref.tmp8158 = alloca %"struct.doctest::detail::Subcase", align 8
  %ref.tmp8159 = alloca %"class.doctest::String", align 8
  %j8168 = alloca %"class.nlohmann::json_abi_v3_11_3::basic_json", align 8
  %ref.tmp8170 = alloca %"struct.doctest::detail::Result", align 8
  %ref.tmp8171 = alloca %"struct.doctest::detail::Expression_lhs", align 8
  %ref.tmp8172 = alloca %"struct.doctest::detail::ExpressionDecomposer", align 4
  %ref.tmp8184 = alloca %"struct.doctest::detail::Result", align 8
  %ref.tmp8185 = alloca %"struct.doctest::detail::Expression_lhs", align 8
  %ref.tmp8186 = alloca %"struct.doctest::detail::ExpressionDecomposer", align 4
  %j8198 = alloca %"class.nlohmann::json_abi_v3_11_3::basic_json", align 8
  %ref.tmp8200 = alloca %"struct.doctest::detail::Result", align 8
  %ref.tmp8201 = alloca %"struct.doctest::detail::Expression_lhs.0", align 8
  %ref.tmp8202 = alloca %"struct.doctest::detail::ExpressionDecomposer", align 4
  %ref.tmp8214 = alloca %"struct.doctest::detail::Result", align 8
  %ref.tmp8215 = alloca %"struct.doctest::detail::Expression_lhs.0", align 8
  %ref.tmp8216 = alloca %"struct.doctest::detail::ExpressionDecomposer", align 4
  %ref.tmp8230 = alloca %"struct.doctest::detail::Subcase", align 8
  %ref.tmp8231 = alloca %"class.doctest::String", align 8
  %j8240 = alloca %"class.nlohmann::json_abi_v3_11_3::basic_json", align 8
  %ref.tmp8242 = alloca %"struct.doctest::detail::Result", align 8
  %ref.tmp8243 = alloca %"struct.doctest::detail::Expression_lhs", align 8
  %ref.tmp8244 = alloca %"struct.doctest::detail::ExpressionDecomposer", align 4
  %ref.tmp8256 = alloca %"struct.doctest::detail::Result", align 8
  %ref.tmp8257 = alloca %"struct.doctest::detail::Expression_lhs", align 8
  %ref.tmp8258 = alloca %"struct.doctest::detail::ExpressionDecomposer", align 4
  %j8270 = alloca %"class.nlohmann::json_abi_v3_11_3::basic_json", align 8
  %ref.tmp8272 = alloca %"struct.doctest::detail::Result", align 8
  %ref.tmp8273 = alloca %"struct.doctest::detail::Expression_lhs.0", align 8
  %ref.tmp8274 = alloca %"struct.doctest::detail::ExpressionDecomposer", align 4
  %ref.tmp8286 = alloca %"struct.doctest::detail::Result", align 8
  %ref.tmp8287 = alloca %"struct.doctest::detail::Expression_lhs.0", align 8
  %ref.tmp8288 = alloca %"struct.doctest::detail::ExpressionDecomposer", align 4
  %ref.tmp8304 = alloca %"struct.doctest::detail::Subcase", align 8
  %ref.tmp8305 = alloca %"class.doctest::String", align 8
  %ref.tmp8314 = alloca %"struct.doctest::detail::Subcase", align 8
  %ref.tmp8315 = alloca %"class.doctest::String", align 8
  %j8324 = alloca %"class.nlohmann::json_abi_v3_11_3::basic_json", align 8
  %DOCTEST_RB8332 = alloca %"struct.doctest::detail::ResultBuilder", align 8
  %ref.tmp8333 = alloca %"class.doctest::String", align 8
  %agg.tmp8338 = alloca %"class.nlohmann::json_abi_v3_11_3::detail::iter_impl", align 8
  %tmp8339 = alloca %"class.nlohmann::json_abi_v3_11_3::detail::iter_impl", align 8
  %j8373 = alloca %"class.nlohmann::json_abi_v3_11_3::basic_json", align 8
  %DOCTEST_RB8381 = alloca %"struct.doctest::detail::ResultBuilder", align 8
  %ref.tmp8382 = alloca %"class.doctest::String", align 8
  %agg.tmp8387 = alloca %"class.nlohmann::json_abi_v3_11_3::detail::iter_impl", align 8
  %tmp8388 = alloca %"class.nlohmann::json_abi_v3_11_3::detail::iter_impl", align 8
  %ref.tmp8424 = alloca %"struct.doctest::detail::Subcase", align 8
  %ref.tmp8425 = alloca %"class.doctest::String", align 8
  %j8434 = alloca %"class.nlohmann::json_abi_v3_11_3::basic_json", align 8
  %it8436 = alloca %"class.nlohmann::json_abi_v3_11_3::detail::iter_impl", align 8
  %agg.tmp8437 = alloca %"class.nlohmann::json_abi_v3_11_3::detail::iter_impl", align 8
  %ref.tmp8440 = alloca %"struct.doctest::detail::Result", align 8
  %ref.tmp8441 = alloca %"struct.doctest::detail::Expression_lhs.7", align 8
  %ref.tmp8442 = alloca %"struct.doctest::detail::ExpressionDecomposer", align 4
  %ref.tmp8448 = alloca i8, align 1
  %ref.tmp8454 = alloca %"struct.doctest::detail::Result", align 8
  %ref.tmp8455 = alloca %"struct.doctest::detail::Expression_lhs.3", align 8
  %ref.tmp8456 = alloca %"struct.doctest::detail::ExpressionDecomposer", align 4
  %ref.tmp8460 = alloca %"class.nlohmann::json_abi_v3_11_3::detail::iter_impl", align 8
  %j8467 = alloca %"class.nlohmann::json_abi_v3_11_3::basic_json", align 8
  %it8469 = alloca %"class.nlohmann::json_abi_v3_11_3::detail::iter_impl.2", align 8
  %agg.tmp8470 = alloca %"class.nlohmann::json_abi_v3_11_3::detail::iter_impl.2", align 8
  %ref.tmp8473 = alloca %"struct.doctest::detail::Result", align 8
  %ref.tmp8474 = alloca %"struct.doctest::detail::Expression_lhs.7", align 8
  %ref.tmp8475 = alloca %"struct.doctest::detail::ExpressionDecomposer", align 4
  %ref.tmp8481 = alloca i8, align 1
  %ref.tmp8487 = alloca %"struct.doctest::detail::Result", align 8
  %ref.tmp8488 = alloca %"struct.doctest::detail::Expression_lhs.5", align 8
  %ref.tmp8489 = alloca %"struct.doctest::detail::ExpressionDecomposer", align 4
  %ref.tmp8493 = alloca %"class.nlohmann::json_abi_v3_11_3::detail::iter_impl", align 8
  %ref.tmp8502 = alloca %"struct.doctest::detail::Subcase", align 8
  %ref.tmp8503 = alloca %"class.doctest::String", align 8
  %j8512 = alloca %"class.nlohmann::json_abi_v3_11_3::basic_json", align 8
  %it8514 = alloca %"class.nlohmann::json_abi_v3_11_3::detail::iter_impl", align 8
  %agg.tmp8515 = alloca %"class.nlohmann::json_abi_v3_11_3::detail::iter_impl", align 8
  %ref.tmp8518 = alloca %"struct.doctest::detail::Result", align 8
  %ref.tmp8519 = alloca %"struct.doctest::detail::Expression_lhs.7", align 8
  %ref.tmp8520 = alloca %"struct.doctest::detail::ExpressionDecomposer", align 4
  %ref.tmp8526 = alloca i8, align 1
  %ref.tmp8532 = alloca %"struct.doctest::detail::Result", align 8
  %ref.tmp8533 = alloca %"struct.doctest::detail::Expression_lhs.3", align 8
  %ref.tmp8534 = alloca %"struct.doctest::detail::ExpressionDecomposer", align 4
  %ref.tmp8538 = alloca %"class.nlohmann::json_abi_v3_11_3::detail::iter_impl", align 8
  %j8545 = alloca %"class.nlohmann::json_abi_v3_11_3::basic_json", align 8
  %it8547 = alloca %"class.nlohmann::json_abi_v3_11_3::detail::iter_impl.2", align 8
  %agg.tmp8548 = alloca %"class.nlohmann::json_abi_v3_11_3::detail::iter_impl.2", align 8
  %ref.tmp8551 = alloca %"struct.doctest::detail::Result", align 8
  %ref.tmp8552 = alloca %"struct.doctest::detail::Expression_lhs.7", align 8
  %ref.tmp8553 = alloca %"struct.doctest::detail::ExpressionDecomposer", align 4
  %ref.tmp8559 = alloca i8, align 1
  %ref.tmp8565 = alloca %"struct.doctest::detail::Result", align 8
  %ref.tmp8566 = alloca %"struct.doctest::detail::Expression_lhs.5", align 8
  %ref.tmp8567 = alloca %"struct.doctest::detail::ExpressionDecomposer", align 4
  %ref.tmp8571 = alloca %"class.nlohmann::json_abi_v3_11_3::detail::iter_impl", align 8
  %ref.tmp8580 = alloca %"struct.doctest::detail::Subcase", align 8
  %ref.tmp8581 = alloca %"class.doctest::String", align 8
  %j8590 = alloca %"class.nlohmann::json_abi_v3_11_3::basic_json", align 8
  %it8592 = alloca %"class.nlohmann::json_abi_v3_11_3::detail::iter_impl", align 8
  %agg.tmp8593 = alloca %"class.nlohmann::json_abi_v3_11_3::detail::iter_impl", align 8
  %ref.tmp8596 = alloca %"struct.doctest::detail::Result", align 8
  %ref.tmp8597 = alloca %"struct.doctest::detail::Expression_lhs.7", align 8
  %ref.tmp8598 = alloca %"struct.doctest::detail::ExpressionDecomposer", align 4
  %ref.tmp8604 = alloca i8, align 1
  %ref.tmp8610 = alloca %"struct.doctest::detail::Result", align 8
  %ref.tmp8611 = alloca %"struct.doctest::detail::Expression_lhs.3", align 8
  %ref.tmp8612 = alloca %"struct.doctest::detail::ExpressionDecomposer", align 4
  %ref.tmp8616 = alloca %"class.nlohmann::json_abi_v3_11_3::detail::iter_impl", align 8
  %j8623 = alloca %"class.nlohmann::json_abi_v3_11_3::basic_json", align 8
  %it8625 = alloca %"class.nlohmann::json_abi_v3_11_3::detail::iter_impl.2", align 8
  %agg.tmp8626 = alloca %"class.nlohmann::json_abi_v3_11_3::detail::iter_impl.2", align 8
  %ref.tmp8629 = alloca %"struct.doctest::detail::Result", align 8
  %ref.tmp8630 = alloca %"struct.doctest::detail::Expression_lhs.7", align 8
  %ref.tmp8631 = alloca %"struct.doctest::detail::ExpressionDecomposer", align 4
  %ref.tmp8637 = alloca i8, align 1
  %ref.tmp8643 = alloca %"struct.doctest::detail::Result", align 8
  %ref.tmp8644 = alloca %"struct.doctest::detail::Expression_lhs.5", align 8
  %ref.tmp8645 = alloca %"struct.doctest::detail::ExpressionDecomposer", align 4
  %ref.tmp8649 = alloca %"class.nlohmann::json_abi_v3_11_3::detail::iter_impl", align 8
  %ref.tmp8658 = alloca %"struct.doctest::detail::Subcase", align 8
  %ref.tmp8659 = alloca %"class.doctest::String", align 8
  %j8668 = alloca %"class.nlohmann::json_abi_v3_11_3::basic_json", align 8
  %it8670 = alloca %"class.nlohmann::json_abi_v3_11_3::detail::iter_impl", align 8
  %agg.tmp8671 = alloca %"class.nlohmann::json_abi_v3_11_3::detail::iter_impl", align 8
  %ref.tmp8674 = alloca %"struct.doctest::detail::Result", align 8
  %ref.tmp8675 = alloca %"struct.doctest::detail::Expression_lhs.7", align 8
  %ref.tmp8676 = alloca %"struct.doctest::detail::ExpressionDecomposer", align 4
  %ref.tmp8682 = alloca i8, align 1
  %ref.tmp8688 = alloca %"struct.doctest::detail::Result", align 8
  %ref.tmp8689 = alloca %"struct.doctest::detail::Expression_lhs.3", align 8
  %ref.tmp8690 = alloca %"struct.doctest::detail::ExpressionDecomposer", align 4
  %ref.tmp8694 = alloca %"class.nlohmann::json_abi_v3_11_3::detail::iter_impl", align 8
  %j8701 = alloca %"class.nlohmann::json_abi_v3_11_3::basic_json", align 8
  %it8703 = alloca %"class.nlohmann::json_abi_v3_11_3::detail::iter_impl.2", align 8
  %agg.tmp8704 = alloca %"class.nlohmann::json_abi_v3_11_3::detail::iter_impl.2", align 8
  %ref.tmp8707 = alloca %"struct.doctest::detail::Result", align 8
  %ref.tmp8708 = alloca %"struct.doctest::detail::Expression_lhs.7", align 8
  %ref.tmp8709 = alloca %"struct.doctest::detail::ExpressionDecomposer", align 4
  %ref.tmp8715 = alloca i8, align 1
  %ref.tmp8721 = alloca %"struct.doctest::detail::Result", align 8
  %ref.tmp8722 = alloca %"struct.doctest::detail::Expression_lhs.5", align 8
  %ref.tmp8723 = alloca %"struct.doctest::detail::ExpressionDecomposer", align 4
  %ref.tmp8727 = alloca %"class.nlohmann::json_abi_v3_11_3::detail::iter_impl", align 8
  %ref.tmp8736 = alloca %"struct.doctest::detail::Subcase", align 8
  %ref.tmp8737 = alloca %"class.doctest::String", align 8
  %j8746 = alloca %"class.nlohmann::json_abi_v3_11_3::basic_json", align 8
  %it8748 = alloca %"class.nlohmann::json_abi_v3_11_3::detail::iter_impl", align 8
  %agg.tmp8749 = alloca %"class.nlohmann::json_abi_v3_11_3::detail::iter_impl", align 8
  %ref.tmp8752 = alloca %"struct.doctest::detail::Result", align 8
  %ref.tmp8753 = alloca %"struct.doctest::detail::Expression_lhs.7", align 8
  %ref.tmp8754 = alloca %"struct.doctest::detail::ExpressionDecomposer", align 4
  %ref.tmp8760 = alloca i8, align 1
  %ref.tmp8766 = alloca %"struct.doctest::detail::Result", align 8
  %ref.tmp8767 = alloca %"struct.doctest::detail::Expression_lhs.3", align 8
  %ref.tmp8768 = alloca %"struct.doctest::detail::ExpressionDecomposer", align 4
  %ref.tmp8772 = alloca %"class.nlohmann::json_abi_v3_11_3::detail::iter_impl", align 8
  %j8779 = alloca %"class.nlohmann::json_abi_v3_11_3::basic_json", align 8
  %it8781 = alloca %"class.nlohmann::json_abi_v3_11_3::detail::iter_impl.2", align 8
  %agg.tmp8782 = alloca %"class.nlohmann::json_abi_v3_11_3::detail::iter_impl.2", align 8
  %ref.tmp8785 = alloca %"struct.doctest::detail::Result", align 8
  %ref.tmp8786 = alloca %"struct.doctest::detail::Expression_lhs.7", align 8
  %ref.tmp8787 = alloca %"struct.doctest::detail::ExpressionDecomposer", align 4
  %ref.tmp8793 = alloca i8, align 1
  %ref.tmp8799 = alloca %"struct.doctest::detail::Result", align 8
  %ref.tmp8800 = alloca %"struct.doctest::detail::Expression_lhs.5", align 8
  %ref.tmp8801 = alloca %"struct.doctest::detail::ExpressionDecomposer", align 4
  %ref.tmp8805 = alloca %"class.nlohmann::json_abi_v3_11_3::detail::iter_impl", align 8
  %ref.tmp8814 = alloca %"struct.doctest::detail::Subcase", align 8
  %ref.tmp8815 = alloca %"class.doctest::String", align 8
  %j8824 = alloca %"class.nlohmann::json_abi_v3_11_3::basic_json", align 8
  %it8841 = alloca %"class.nlohmann::json_abi_v3_11_3::detail::iter_impl", align 8
  %agg.tmp8842 = alloca %"class.nlohmann::json_abi_v3_11_3::detail::iter_impl", align 8
  %ref.tmp8845 = alloca %"struct.doctest::detail::Result", align 8
  %ref.tmp8846 = alloca %"struct.doctest::detail::Expression_lhs.7", align 8
  %ref.tmp8847 = alloca %"struct.doctest::detail::ExpressionDecomposer", align 4
  %ref.tmp8853 = alloca i8, align 1
  %ref.tmp8859 = alloca %"struct.doctest::detail::Result", align 8
  %ref.tmp8860 = alloca %"struct.doctest::detail::Expression_lhs.3", align 8
  %ref.tmp8861 = alloca %"struct.doctest::detail::ExpressionDecomposer", align 4
  %ref.tmp8865 = alloca %"class.nlohmann::json_abi_v3_11_3::detail::iter_impl", align 8
  %j8872 = alloca %"class.nlohmann::json_abi_v3_11_3::basic_json", align 8
  %it8889 = alloca %"class.nlohmann::json_abi_v3_11_3::detail::iter_impl.2", align 8
  %agg.tmp8890 = alloca %"class.nlohmann::json_abi_v3_11_3::detail::iter_impl.2", align 8
  %ref.tmp8893 = alloca %"struct.doctest::detail::Result", align 8
  %ref.tmp8894 = alloca %"struct.doctest::detail::Expression_lhs.7", align 8
  %ref.tmp8895 = alloca %"struct.doctest::detail::ExpressionDecomposer", align 4
  %ref.tmp8901 = alloca i8, align 1
  %ref.tmp8907 = alloca %"struct.doctest::detail::Result", align 8
  %ref.tmp8908 = alloca %"struct.doctest::detail::Expression_lhs.5", align 8
  %ref.tmp8909 = alloca %"struct.doctest::detail::ExpressionDecomposer", align 4
  %ref.tmp8913 = alloca %"class.nlohmann::json_abi_v3_11_3::detail::iter_impl", align 8
  %ref.tmp8924 = alloca %"struct.doctest::detail::Subcase", align 8
  %ref.tmp8925 = alloca %"class.doctest::String", align 8
  %ref.tmp8934 = alloca %"struct.doctest::detail::Subcase", align 8
  %ref.tmp8935 = alloca %"class.doctest::String", align 8
  %j8944 = alloca %"class.nlohmann::json_abi_v3_11_3::basic_json", align 8
  %DOCTEST_RB8953 = alloca %"struct.doctest::detail::ResultBuilder", align 8
  %ref.tmp8954 = alloca %"class.doctest::String", align 8
  %agg.tmp8959 = alloca %"class.nlohmann::json_abi_v3_11_3::detail::iter_impl", align 8
  %tmp8960 = alloca %"class.nlohmann::json_abi_v3_11_3::detail::iter_impl", align 8
  %j8994 = alloca %"class.nlohmann::json_abi_v3_11_3::basic_json", align 8
  %DOCTEST_RB9003 = alloca %"struct.doctest::detail::ResultBuilder", align 8
  %ref.tmp9004 = alloca %"class.doctest::String", align 8
  %agg.tmp9009 = alloca %"class.nlohmann::json_abi_v3_11_3::detail::iter_impl.2", align 8
  %tmp9010 = alloca %"class.nlohmann::json_abi_v3_11_3::detail::iter_impl.2", align 8
  %ref.tmp9046 = alloca %"struct.doctest::detail::Subcase", align 8
  %ref.tmp9047 = alloca %"class.doctest::String", align 8
  %j9056 = alloca %"class.nlohmann::json_abi_v3_11_3::basic_json", align 8
  %DOCTEST_RB9065 = alloca %"struct.doctest::detail::ResultBuilder", align 8
  %ref.tmp9066 = alloca %"class.doctest::String", align 8
  %agg.tmp9071 = alloca %"class.nlohmann::json_abi_v3_11_3::detail::iter_impl", align 8
  %tmp9072 = alloca %"class.nlohmann::json_abi_v3_11_3::detail::iter_impl", align 8
  %j9106 = alloca %"class.nlohmann::json_abi_v3_11_3::basic_json", align 8
  %DOCTEST_RB9115 = alloca %"struct.doctest::detail::ResultBuilder", align 8
  %ref.tmp9116 = alloca %"class.doctest::String", align 8
  %agg.tmp9121 = alloca %"class.nlohmann::json_abi_v3_11_3::detail::iter_impl.2", align 8
  %tmp9122 = alloca %"class.nlohmann::json_abi_v3_11_3::detail::iter_impl.2", align 8
  %ref.tmp9158 = alloca %"struct.doctest::detail::Subcase", align 8
  %ref.tmp9159 = alloca %"class.doctest::String", align 8
  %j9168 = alloca %"class.nlohmann::json_abi_v3_11_3::basic_json", align 8
  %DOCTEST_RB9177 = alloca %"struct.doctest::detail::ResultBuilder", align 8
  %ref.tmp9178 = alloca %"class.doctest::String", align 8
  %agg.tmp9183 = alloca %"class.nlohmann::json_abi_v3_11_3::detail::iter_impl", align 8
  %tmp9184 = alloca %"class.nlohmann::json_abi_v3_11_3::detail::iter_impl", align 8
  %j9218 = alloca %"class.nlohmann::json_abi_v3_11_3::basic_json", align 8
  %DOCTEST_RB9227 = alloca %"struct.doctest::detail::ResultBuilder", align 8
  %ref.tmp9228 = alloca %"class.doctest::String", align 8
  %agg.tmp9233 = alloca %"class.nlohmann::json_abi_v3_11_3::detail::iter_impl.2", align 8
  %tmp9234 = alloca %"class.nlohmann::json_abi_v3_11_3::detail::iter_impl.2", align 8
  %ref.tmp9270 = alloca %"struct.doctest::detail::Subcase", align 8
  %ref.tmp9271 = alloca %"class.doctest::String", align 8
  %j9280 = alloca %"class.nlohmann::json_abi_v3_11_3::basic_json", align 8
  %DOCTEST_RB9289 = alloca %"struct.doctest::detail::ResultBuilder", align 8
  %ref.tmp9290 = alloca %"class.doctest::String", align 8
  %agg.tmp9295 = alloca %"class.nlohmann::json_abi_v3_11_3::detail::iter_impl", align 8
  %tmp9296 = alloca %"class.nlohmann::json_abi_v3_11_3::detail::iter_impl", align 8
  %j9330 = alloca %"class.nlohmann::json_abi_v3_11_3::basic_json", align 8
  %DOCTEST_RB9339 = alloca %"struct.doctest::detail::ResultBuilder", align 8
  %ref.tmp9340 = alloca %"class.doctest::String", align 8
  %agg.tmp9345 = alloca %"class.nlohmann::json_abi_v3_11_3::detail::iter_impl.2", align 8
  %tmp9346 = alloca %"class.nlohmann::json_abi_v3_11_3::detail::iter_impl.2", align 8
  %ref.tmp9382 = alloca %"struct.doctest::detail::Subcase", align 8
  %ref.tmp9383 = alloca %"class.doctest::String", align 8
  %j9392 = alloca %"class.nlohmann::json_abi_v3_11_3::basic_json", align 8
  %DOCTEST_RB9401 = alloca %"struct.doctest::detail::ResultBuilder", align 8
  %ref.tmp9402 = alloca %"class.doctest::String", align 8
  %agg.tmp9407 = alloca %"class.nlohmann::json_abi_v3_11_3::detail::iter_impl", align 8
  %tmp9408 = alloca %"class.nlohmann::json_abi_v3_11_3::detail::iter_impl", align 8
  %j9442 = alloca %"class.nlohmann::json_abi_v3_11_3::basic_json", align 8
  %DOCTEST_RB9451 = alloca %"struct.doctest::detail::ResultBuilder", align 8
  %ref.tmp9452 = alloca %"class.doctest::String", align 8
  %agg.tmp9457 = alloca %"class.nlohmann::json_abi_v3_11_3::detail::iter_impl.2", align 8
  %tmp9458 = alloca %"class.nlohmann::json_abi_v3_11_3::detail::iter_impl.2", align 8
  %ref.tmp9496 = alloca %"struct.doctest::detail::Subcase", align 8
  %ref.tmp9497 = alloca %"class.doctest::String", align 8
  %ref.tmp9506 = alloca %"struct.doctest::detail::Subcase", align 8
  %ref.tmp9507 = alloca %"class.doctest::String", align 8
  %j9516 = alloca %"class.nlohmann::json_abi_v3_11_3::basic_json", align 8
  %DOCTEST_RB9524 = alloca %"struct.doctest::detail::ResultBuilder", align 8
  %ref.tmp9525 = alloca %"class.doctest::String", align 8
  %agg.tmp9530 = alloca %"class.nlohmann::json_abi_v3_11_3::detail::iter_impl", align 8
  %agg.tmp9531 = alloca %"class.nlohmann::json_abi_v3_11_3::detail::iter_impl", align 8
  %tmp9532 = alloca %"class.nlohmann::json_abi_v3_11_3::detail::iter_impl", align 8
  %j9566 = alloca %"class.nlohmann::json_abi_v3_11_3::basic_json", align 8
  %DOCTEST_RB9574 = alloca %"struct.doctest::detail::ResultBuilder", align 8
  %ref.tmp9575 = alloca %"class.doctest::String", align 8
  %agg.tmp9580 = alloca %"class.nlohmann::json_abi_v3_11_3::detail::iter_impl.2", align 8
  %agg.tmp9581 = alloca %"class.nlohmann::json_abi_v3_11_3::detail::iter_impl.2", align 8
  %tmp9582 = alloca %"class.nlohmann::json_abi_v3_11_3::detail::iter_impl.2", align 8
  %ref.tmp9618 = alloca %"struct.doctest::detail::Subcase", align 8
  %ref.tmp9619 = alloca %"class.doctest::String", align 8
  %j9628 = alloca %"class.nlohmann::json_abi_v3_11_3::basic_json", align 8
  %it9630 = alloca %"class.nlohmann::json_abi_v3_11_3::detail::iter_impl", align 8
  %agg.tmp9631 = alloca %"class.nlohmann::json_abi_v3_11_3::detail::iter_impl", align 8
  %agg.tmp9632 = alloca %"class.nlohmann::json_abi_v3_11_3::detail::iter_impl", align 8
  %ref.tmp9635 = alloca %"struct.doctest::detail::Result", align 8
  %ref.tmp9636 = alloca %"struct.doctest::detail::Expression_lhs.7", align 8
  %ref.tmp9637 = alloca %"struct.doctest::detail::ExpressionDecomposer", align 4
  %ref.tmp9643 = alloca i8, align 1
  %ref.tmp9649 = alloca %"struct.doctest::detail::Result", align 8
  %ref.tmp9650 = alloca %"struct.doctest::detail::Expression_lhs.3", align 8
  %ref.tmp9651 = alloca %"struct.doctest::detail::ExpressionDecomposer", align 4
  %ref.tmp9655 = alloca %"class.nlohmann::json_abi_v3_11_3::detail::iter_impl", align 8
  %j9662 = alloca %"class.nlohmann::json_abi_v3_11_3::basic_json", align 8
  %it9664 = alloca %"class.nlohmann::json_abi_v3_11_3::detail::iter_impl.2", align 8
  %agg.tmp9665 = alloca %"class.nlohmann::json_abi_v3_11_3::detail::iter_impl.2", align 8
  %agg.tmp9666 = alloca %"class.nlohmann::json_abi_v3_11_3::detail::iter_impl.2", align 8
  %ref.tmp9669 = alloca %"struct.doctest::detail::Result", align 8
  %ref.tmp9670 = alloca %"struct.doctest::detail::Expression_lhs.7", align 8
  %ref.tmp9671 = alloca %"struct.doctest::detail::ExpressionDecomposer", align 4
  %ref.tmp9677 = alloca i8, align 1
  %ref.tmp9683 = alloca %"struct.doctest::detail::Result", align 8
  %ref.tmp9684 = alloca %"struct.doctest::detail::Expression_lhs.5", align 8
  %ref.tmp9685 = alloca %"struct.doctest::detail::ExpressionDecomposer", align 4
  %ref.tmp9689 = alloca %"class.nlohmann::json_abi_v3_11_3::detail::iter_impl", align 8
  %ref.tmp9698 = alloca %"struct.doctest::detail::Subcase", align 8
  %ref.tmp9699 = alloca %"class.doctest::String", align 8
  %j9708 = alloca %"class.nlohmann::json_abi_v3_11_3::basic_json", align 8
  %it9710 = alloca %"class.nlohmann::json_abi_v3_11_3::detail::iter_impl", align 8
  %agg.tmp9711 = alloca %"class.nlohmann::json_abi_v3_11_3::detail::iter_impl", align 8
  %agg.tmp9712 = alloca %"class.nlohmann::json_abi_v3_11_3::detail::iter_impl", align 8
  %ref.tmp9715 = alloca %"struct.doctest::detail::Result", align 8
  %ref.tmp9716 = alloca %"struct.doctest::detail::Expression_lhs.7", align 8
  %ref.tmp9717 = alloca %"struct.doctest::detail::ExpressionDecomposer", align 4
  %ref.tmp9723 = alloca i8, align 1
  %ref.tmp9729 = alloca %"struct.doctest::detail::Result", align 8
  %ref.tmp9730 = alloca %"struct.doctest::detail::Expression_lhs.3", align 8
  %ref.tmp9731 = alloca %"struct.doctest::detail::ExpressionDecomposer", align 4
  %ref.tmp9735 = alloca %"class.nlohmann::json_abi_v3_11_3::detail::iter_impl", align 8
  %j9742 = alloca %"class.nlohmann::json_abi_v3_11_3::basic_json", align 8
  %it9744 = alloca %"class.nlohmann::json_abi_v3_11_3::detail::iter_impl.2", align 8
  %agg.tmp9745 = alloca %"class.nlohmann::json_abi_v3_11_3::detail::iter_impl.2", align 8
  %agg.tmp9746 = alloca %"class.nlohmann::json_abi_v3_11_3::detail::iter_impl.2", align 8
  %ref.tmp9749 = alloca %"struct.doctest::detail::Result", align 8
  %ref.tmp9750 = alloca %"struct.doctest::detail::Expression_lhs.7", align 8
  %ref.tmp9751 = alloca %"struct.doctest::detail::ExpressionDecomposer", align 4
  %ref.tmp9757 = alloca i8, align 1
  %ref.tmp9763 = alloca %"struct.doctest::detail::Result", align 8
  %ref.tmp9764 = alloca %"struct.doctest::detail::Expression_lhs.5", align 8
  %ref.tmp9765 = alloca %"struct.doctest::detail::ExpressionDecomposer", align 4
  %ref.tmp9769 = alloca %"class.nlohmann::json_abi_v3_11_3::detail::iter_impl", align 8
  %ref.tmp9778 = alloca %"struct.doctest::detail::Subcase", align 8
  %ref.tmp9779 = alloca %"class.doctest::String", align 8
  %j9788 = alloca %"class.nlohmann::json_abi_v3_11_3::basic_json", align 8
  %it9790 = alloca %"class.nlohmann::json_abi_v3_11_3::detail::iter_impl", align 8
  %agg.tmp9791 = alloca %"class.nlohmann::json_abi_v3_11_3::detail::iter_impl", align 8
  %agg.tmp9792 = alloca %"class.nlohmann::json_abi_v3_11_3::detail::iter_impl", align 8
  %ref.tmp9795 = alloca %"struct.doctest::detail::Result", align 8
  %ref.tmp9796 = alloca %"struct.doctest::detail::Expression_lhs.7", align 8
  %ref.tmp9797 = alloca %"struct.doctest::detail::ExpressionDecomposer", align 4
  %ref.tmp9803 = alloca i8, align 1
  %ref.tmp9809 = alloca %"struct.doctest::detail::Result", align 8
  %ref.tmp9810 = alloca %"struct.doctest::detail::Expression_lhs.3", align 8
  %ref.tmp9811 = alloca %"struct.doctest::detail::ExpressionDecomposer", align 4
  %ref.tmp9815 = alloca %"class.nlohmann::json_abi_v3_11_3::detail::iter_impl", align 8
  %j9822 = alloca %"class.nlohmann::json_abi_v3_11_3::basic_json", align 8
  %it9824 = alloca %"class.nlohmann::json_abi_v3_11_3::detail::iter_impl.2", align 8
  %agg.tmp9825 = alloca %"class.nlohmann::json_abi_v3_11_3::detail::iter_impl.2", align 8
  %agg.tmp9826 = alloca %"class.nlohmann::json_abi_v3_11_3::detail::iter_impl.2", align 8
  %ref.tmp9829 = alloca %"struct.doctest::detail::Result", align 8
  %ref.tmp9830 = alloca %"struct.doctest::detail::Expression_lhs.7", align 8
  %ref.tmp9831 = alloca %"struct.doctest::detail::ExpressionDecomposer", align 4
  %ref.tmp9837 = alloca i8, align 1
  %ref.tmp9843 = alloca %"struct.doctest::detail::Result", align 8
  %ref.tmp9844 = alloca %"struct.doctest::detail::Expression_lhs.5", align 8
  %ref.tmp9845 = alloca %"struct.doctest::detail::ExpressionDecomposer", align 4
  %ref.tmp9849 = alloca %"class.nlohmann::json_abi_v3_11_3::detail::iter_impl", align 8
  %ref.tmp9858 = alloca %"struct.doctest::detail::Subcase", align 8
  %ref.tmp9859 = alloca %"class.doctest::String", align 8
  %j9868 = alloca %"class.nlohmann::json_abi_v3_11_3::basic_json", align 8
  %it9870 = alloca %"class.nlohmann::json_abi_v3_11_3::detail::iter_impl", align 8
  %agg.tmp9871 = alloca %"class.nlohmann::json_abi_v3_11_3::detail::iter_impl", align 8
  %agg.tmp9872 = alloca %"class.nlohmann::json_abi_v3_11_3::detail::iter_impl", align 8
  %ref.tmp9875 = alloca %"struct.doctest::detail::Result", align 8
  %ref.tmp9876 = alloca %"struct.doctest::detail::Expression_lhs.7", align 8
  %ref.tmp9877 = alloca %"struct.doctest::detail::ExpressionDecomposer", align 4
  %ref.tmp9883 = alloca i8, align 1
  %ref.tmp9889 = alloca %"struct.doctest::detail::Result", align 8
  %ref.tmp9890 = alloca %"struct.doctest::detail::Expression_lhs.3", align 8
  %ref.tmp9891 = alloca %"struct.doctest::detail::ExpressionDecomposer", align 4
  %ref.tmp9895 = alloca %"class.nlohmann::json_abi_v3_11_3::detail::iter_impl", align 8
  %j9902 = alloca %"class.nlohmann::json_abi_v3_11_3::basic_json", align 8
  %it9904 = alloca %"class.nlohmann::json_abi_v3_11_3::detail::iter_impl.2", align 8
  %agg.tmp9905 = alloca %"class.nlohmann::json_abi_v3_11_3::detail::iter_impl.2", align 8
  %agg.tmp9906 = alloca %"class.nlohmann::json_abi_v3_11_3::detail::iter_impl.2", align 8
  %ref.tmp9909 = alloca %"struct.doctest::detail::Result", align 8
  %ref.tmp9910 = alloca %"struct.doctest::detail::Expression_lhs.7", align 8
  %ref.tmp9911 = alloca %"struct.doctest::detail::ExpressionDecomposer", align 4
  %ref.tmp9917 = alloca i8, align 1
  %ref.tmp9923 = alloca %"struct.doctest::detail::Result", align 8
  %ref.tmp9924 = alloca %"struct.doctest::detail::Expression_lhs.5", align 8
  %ref.tmp9925 = alloca %"struct.doctest::detail::ExpressionDecomposer", align 4
  %ref.tmp9929 = alloca %"class.nlohmann::json_abi_v3_11_3::detail::iter_impl", align 8
  %ref.tmp9938 = alloca %"struct.doctest::detail::Subcase", align 8
  %ref.tmp9939 = alloca %"class.doctest::String", align 8
  %j9948 = alloca %"class.nlohmann::json_abi_v3_11_3::basic_json", align 8
  %it9950 = alloca %"class.nlohmann::json_abi_v3_11_3::detail::iter_impl", align 8
  %agg.tmp9951 = alloca %"class.nlohmann::json_abi_v3_11_3::detail::iter_impl", align 8
  %agg.tmp9952 = alloca %"class.nlohmann::json_abi_v3_11_3::detail::iter_impl", align 8
  %ref.tmp9955 = alloca %"struct.doctest::detail::Result", align 8
  %ref.tmp9956 = alloca %"struct.doctest::detail::Expression_lhs.7", align 8
  %ref.tmp9957 = alloca %"struct.doctest::detail::ExpressionDecomposer", align 4
  %ref.tmp9963 = alloca i8, align 1
  %ref.tmp9969 = alloca %"struct.doctest::detail::Result", align 8
  %ref.tmp9970 = alloca %"struct.doctest::detail::Expression_lhs.3", align 8
  %ref.tmp9971 = alloca %"struct.doctest::detail::ExpressionDecomposer", align 4
  %ref.tmp9975 = alloca %"class.nlohmann::json_abi_v3_11_3::detail::iter_impl", align 8
  %j9982 = alloca %"class.nlohmann::json_abi_v3_11_3::basic_json", align 8
  %it9984 = alloca %"class.nlohmann::json_abi_v3_11_3::detail::iter_impl.2", align 8
  %agg.tmp9985 = alloca %"class.nlohmann::json_abi_v3_11_3::detail::iter_impl.2", align 8
  %agg.tmp9986 = alloca %"class.nlohmann::json_abi_v3_11_3::detail::iter_impl.2", align 8
  %ref.tmp9989 = alloca %"struct.doctest::detail::Result", align 8
  %ref.tmp9990 = alloca %"struct.doctest::detail::Expression_lhs.7", align 8
  %ref.tmp9991 = alloca %"struct.doctest::detail::ExpressionDecomposer", align 4
  %ref.tmp9997 = alloca i8, align 1
  %ref.tmp10003 = alloca %"struct.doctest::detail::Result", align 8
  %ref.tmp10004 = alloca %"struct.doctest::detail::Expression_lhs.5", align 8
  %ref.tmp10005 = alloca %"struct.doctest::detail::ExpressionDecomposer", align 4
  %ref.tmp10009 = alloca %"class.nlohmann::json_abi_v3_11_3::detail::iter_impl", align 8
  %ref.tmp10018 = alloca %"struct.doctest::detail::Subcase", align 8
  %ref.tmp10019 = alloca %"class.doctest::String", align 8
  %j10028 = alloca %"class.nlohmann::json_abi_v3_11_3::basic_json", align 8
  %it10045 = alloca %"class.nlohmann::json_abi_v3_11_3::detail::iter_impl", align 8
  %agg.tmp10046 = alloca %"class.nlohmann::json_abi_v3_11_3::detail::iter_impl", align 8
  %agg.tmp10047 = alloca %"class.nlohmann::json_abi_v3_11_3::detail::iter_impl", align 8
  %ref.tmp10050 = alloca %"struct.doctest::detail::Result", align 8
  %ref.tmp10051 = alloca %"struct.doctest::detail::Expression_lhs.7", align 8
  %ref.tmp10052 = alloca %"struct.doctest::detail::ExpressionDecomposer", align 4
  %ref.tmp10058 = alloca i8, align 1
  %ref.tmp10064 = alloca %"struct.doctest::detail::Result", align 8
  %ref.tmp10065 = alloca %"struct.doctest::detail::Expression_lhs.3", align 8
  %ref.tmp10066 = alloca %"struct.doctest::detail::ExpressionDecomposer", align 4
  %ref.tmp10070 = alloca %"class.nlohmann::json_abi_v3_11_3::detail::iter_impl", align 8
  %j10077 = alloca %"class.nlohmann::json_abi_v3_11_3::basic_json", align 8
  %it10094 = alloca %"class.nlohmann::json_abi_v3_11_3::detail::iter_impl.2", align 8
  %agg.tmp10095 = alloca %"class.nlohmann::json_abi_v3_11_3::detail::iter_impl.2", align 8
  %agg.tmp10096 = alloca %"class.nlohmann::json_abi_v3_11_3::detail::iter_impl.2", align 8
  %ref.tmp10099 = alloca %"struct.doctest::detail::Result", align 8
  %ref.tmp10100 = alloca %"struct.doctest::detail::Expression_lhs.7", align 8
  %ref.tmp10101 = alloca %"struct.doctest::detail::ExpressionDecomposer", align 4
  %ref.tmp10107 = alloca i8, align 1
  %ref.tmp10113 = alloca %"struct.doctest::detail::Result", align 8
  %ref.tmp10114 = alloca %"struct.doctest::detail::Expression_lhs.5", align 8
  %ref.tmp10115 = alloca %"struct.doctest::detail::ExpressionDecomposer", align 4
  %ref.tmp10119 = alloca %"class.nlohmann::json_abi_v3_11_3::detail::iter_impl", align 8
  %ref.tmp10130 = alloca %"struct.doctest::detail::Subcase", align 8
  %ref.tmp10131 = alloca %"class.doctest::String", align 8
  %ref.tmp10140 = alloca %"struct.doctest::detail::Subcase", align 8
  %ref.tmp10141 = alloca %"class.doctest::String", align 8
  %j10150 = alloca %"class.nlohmann::json_abi_v3_11_3::basic_json", align 8
  %DOCTEST_RB10159 = alloca %"struct.doctest::detail::ResultBuilder", align 8
  %ref.tmp10160 = alloca %"class.doctest::String", align 8
  %agg.tmp10165 = alloca %"class.nlohmann::json_abi_v3_11_3::detail::iter_impl", align 8
  %agg.tmp10166 = alloca %"class.nlohmann::json_abi_v3_11_3::detail::iter_impl", align 8
  %tmp10167 = alloca %"class.nlohmann::json_abi_v3_11_3::detail::iter_impl", align 8
  %DOCTEST_RB10206 = alloca %"struct.doctest::detail::ResultBuilder", align 8
  %ref.tmp10207 = alloca %"class.doctest::String", align 8
  %agg.tmp10212 = alloca %"class.nlohmann::json_abi_v3_11_3::detail::iter_impl", align 8
  %agg.tmp10213 = alloca %"class.nlohmann::json_abi_v3_11_3::detail::iter_impl", align 8
  %tmp10214 = alloca %"class.nlohmann::json_abi_v3_11_3::detail::iter_impl", align 8
  %j10248 = alloca %"class.nlohmann::json_abi_v3_11_3::basic_json", align 8
  %DOCTEST_RB10257 = alloca %"struct.doctest::detail::ResultBuilder", align 8
  %ref.tmp10258 = alloca %"class.doctest::String", align 8
  %agg.tmp10263 = alloca %"class.nlohmann::json_abi_v3_11_3::detail::iter_impl.2", align 8
  %agg.tmp10264 = alloca %"class.nlohmann::json_abi_v3_11_3::detail::iter_impl.2", align 8
  %tmp10265 = alloca %"class.nlohmann::json_abi_v3_11_3::detail::iter_impl.2", align 8
  %DOCTEST_RB10304 = alloca %"struct.doctest::detail::ResultBuilder", align 8
  %ref.tmp10305 = alloca %"class.doctest::String", align 8
  %agg.tmp10310 = alloca %"class.nlohmann::json_abi_v3_11_3::detail::iter_impl.2", align 8
  %agg.tmp10311 = alloca %"class.nlohmann::json_abi_v3_11_3::detail::iter_impl.2", align 8
  %tmp10312 = alloca %"class.nlohmann::json_abi_v3_11_3::detail::iter_impl.2", align 8
  %ref.tmp10348 = alloca %"struct.doctest::detail::Subcase", align 8
  %ref.tmp10349 = alloca %"class.doctest::String", align 8
  %j10358 = alloca %"class.nlohmann::json_abi_v3_11_3::basic_json", align 8
  %DOCTEST_RB10367 = alloca %"struct.doctest::detail::ResultBuilder", align 8
  %ref.tmp10368 = alloca %"class.doctest::String", align 8
  %agg.tmp10373 = alloca %"class.nlohmann::json_abi_v3_11_3::detail::iter_impl", align 8
  %agg.tmp10374 = alloca %"class.nlohmann::json_abi_v3_11_3::detail::iter_impl", align 8
  %tmp10375 = alloca %"class.nlohmann::json_abi_v3_11_3::detail::iter_impl", align 8
  %DOCTEST_RB10414 = alloca %"struct.doctest::detail::ResultBuilder", align 8
  %ref.tmp10415 = alloca %"class.doctest::String", align 8
  %agg.tmp10420 = alloca %"class.nlohmann::json_abi_v3_11_3::detail::iter_impl", align 8
  %agg.tmp10421 = alloca %"class.nlohmann::json_abi_v3_11_3::detail::iter_impl", align 8
  %tmp10422 = alloca %"class.nlohmann::json_abi_v3_11_3::detail::iter_impl", align 8
  %j10456 = alloca %"class.nlohmann::json_abi_v3_11_3::basic_json", align 8
  %DOCTEST_RB10465 = alloca %"struct.doctest::detail::ResultBuilder", align 8
  %ref.tmp10466 = alloca %"class.doctest::String", align 8
  %agg.tmp10471 = alloca %"class.nlohmann::json_abi_v3_11_3::detail::iter_impl.2", align 8
  %agg.tmp10472 = alloca %"class.nlohmann::json_abi_v3_11_3::detail::iter_impl.2", align 8
  %tmp10473 = alloca %"class.nlohmann::json_abi_v3_11_3::detail::iter_impl.2", align 8
  %DOCTEST_RB10512 = alloca %"struct.doctest::detail::ResultBuilder", align 8
  %ref.tmp10513 = alloca %"class.doctest::String", align 8
  %agg.tmp10518 = alloca %"class.nlohmann::json_abi_v3_11_3::detail::iter_impl.2", align 8
  %agg.tmp10519 = alloca %"class.nlohmann::json_abi_v3_11_3::detail::iter_impl.2", align 8
  %tmp10520 = alloca %"class.nlohmann::json_abi_v3_11_3::detail::iter_impl.2", align 8
  %ref.tmp10556 = alloca %"struct.doctest::detail::Subcase", align 8
  %ref.tmp10557 = alloca %"class.doctest::String", align 8
  %j10566 = alloca %"class.nlohmann::json_abi_v3_11_3::basic_json", align 8
  %DOCTEST_RB10575 = alloca %"struct.doctest::detail::ResultBuilder", align 8
  %ref.tmp10576 = alloca %"class.doctest::String", align 8
  %agg.tmp10581 = alloca %"class.nlohmann::json_abi_v3_11_3::detail::iter_impl", align 8
  %agg.tmp10582 = alloca %"class.nlohmann::json_abi_v3_11_3::detail::iter_impl", align 8
  %tmp10583 = alloca %"class.nlohmann::json_abi_v3_11_3::detail::iter_impl", align 8
  %DOCTEST_RB10622 = alloca %"struct.doctest::detail::ResultBuilder", align 8
  %ref.tmp10623 = alloca %"class.doctest::String", align 8
  %agg.tmp10628 = alloca %"class.nlohmann::json_abi_v3_11_3::detail::iter_impl", align 8
  %agg.tmp10629 = alloca %"class.nlohmann::json_abi_v3_11_3::detail::iter_impl", align 8
  %tmp10630 = alloca %"class.nlohmann::json_abi_v3_11_3::detail::iter_impl", align 8
  %j10664 = alloca %"class.nlohmann::json_abi_v3_11_3::basic_json", align 8
  %DOCTEST_RB10673 = alloca %"struct.doctest::detail::ResultBuilder", align 8
  %ref.tmp10674 = alloca %"class.doctest::String", align 8
  %agg.tmp10679 = alloca %"class.nlohmann::json_abi_v3_11_3::detail::iter_impl.2", align 8
  %agg.tmp10680 = alloca %"class.nlohmann::json_abi_v3_11_3::detail::iter_impl.2", align 8
  %tmp10681 = alloca %"class.nlohmann::json_abi_v3_11_3::detail::iter_impl.2", align 8
  %DOCTEST_RB10720 = alloca %"struct.doctest::detail::ResultBuilder", align 8
  %ref.tmp10721 = alloca %"class.doctest::String", align 8
  %agg.tmp10726 = alloca %"class.nlohmann::json_abi_v3_11_3::detail::iter_impl.2", align 8
  %agg.tmp10727 = alloca %"class.nlohmann::json_abi_v3_11_3::detail::iter_impl.2", align 8
  %tmp10728 = alloca %"class.nlohmann::json_abi_v3_11_3::detail::iter_impl.2", align 8
  %ref.tmp10764 = alloca %"struct.doctest::detail::Subcase", align 8
  %ref.tmp10765 = alloca %"class.doctest::String", align 8
  %j10774 = alloca %"class.nlohmann::json_abi_v3_11_3::basic_json", align 8
  %DOCTEST_RB10783 = alloca %"struct.doctest::detail::ResultBuilder", align 8
  %ref.tmp10784 = alloca %"class.doctest::String", align 8
  %agg.tmp10789 = alloca %"class.nlohmann::json_abi_v3_11_3::detail::iter_impl", align 8
  %agg.tmp10790 = alloca %"class.nlohmann::json_abi_v3_11_3::detail::iter_impl", align 8
  %tmp10791 = alloca %"class.nlohmann::json_abi_v3_11_3::detail::iter_impl", align 8
  %DOCTEST_RB10830 = alloca %"struct.doctest::detail::ResultBuilder", align 8
  %ref.tmp10831 = alloca %"class.doctest::String", align 8
  %agg.tmp10836 = alloca %"class.nlohmann::json_abi_v3_11_3::detail::iter_impl", align 8
  %agg.tmp10837 = alloca %"class.nlohmann::json_abi_v3_11_3::detail::iter_impl", align 8
  %tmp10838 = alloca %"class.nlohmann::json_abi_v3_11_3::detail::iter_impl", align 8
  %j10872 = alloca %"class.nlohmann::json_abi_v3_11_3::basic_json", align 8
  %DOCTEST_RB10881 = alloca %"struct.doctest::detail::ResultBuilder", align 8
  %ref.tmp10882 = alloca %"class.doctest::String", align 8
  %agg.tmp10887 = alloca %"class.nlohmann::json_abi_v3_11_3::detail::iter_impl.2", align 8
  %agg.tmp10888 = alloca %"class.nlohmann::json_abi_v3_11_3::detail::iter_impl.2", align 8
  %tmp10889 = alloca %"class.nlohmann::json_abi_v3_11_3::detail::iter_impl.2", align 8
  %DOCTEST_RB10928 = alloca %"struct.doctest::detail::ResultBuilder", align 8
  %ref.tmp10929 = alloca %"class.doctest::String", align 8
  %agg.tmp10934 = alloca %"class.nlohmann::json_abi_v3_11_3::detail::iter_impl.2", align 8
  %agg.tmp10935 = alloca %"class.nlohmann::json_abi_v3_11_3::detail::iter_impl.2", align 8
  %tmp10936 = alloca %"class.nlohmann::json_abi_v3_11_3::detail::iter_impl.2", align 8
  %ref.tmp10972 = alloca %"struct.doctest::detail::Subcase", align 8
  %ref.tmp10973 = alloca %"class.doctest::String", align 8
  %j10982 = alloca %"class.nlohmann::json_abi_v3_11_3::basic_json", align 8
  %DOCTEST_RB10991 = alloca %"struct.doctest::detail::ResultBuilder", align 8
  %ref.tmp10992 = alloca %"class.doctest::String", align 8
  %agg.tmp10997 = alloca %"class.nlohmann::json_abi_v3_11_3::detail::iter_impl", align 8
  %agg.tmp10998 = alloca %"class.nlohmann::json_abi_v3_11_3::detail::iter_impl", align 8
  %tmp10999 = alloca %"class.nlohmann::json_abi_v3_11_3::detail::iter_impl", align 8
  %DOCTEST_RB11038 = alloca %"struct.doctest::detail::ResultBuilder", align 8
  %ref.tmp11039 = alloca %"class.doctest::String", align 8
  %agg.tmp11044 = alloca %"class.nlohmann::json_abi_v3_11_3::detail::iter_impl", align 8
  %agg.tmp11045 = alloca %"class.nlohmann::json_abi_v3_11_3::detail::iter_impl", align 8
  %tmp11046 = alloca %"class.nlohmann::json_abi_v3_11_3::detail::iter_impl", align 8
  %j11080 = alloca %"class.nlohmann::json_abi_v3_11_3::basic_json", align 8
  %DOCTEST_RB11089 = alloca %"struct.doctest::detail::ResultBuilder", align 8
  %ref.tmp11090 = alloca %"class.doctest::String", align 8
  %agg.tmp11095 = alloca %"class.nlohmann::json_abi_v3_11_3::detail::iter_impl.2", align 8
  %agg.tmp11096 = alloca %"class.nlohmann::json_abi_v3_11_3::detail::iter_impl.2", align 8
  %tmp11097 = alloca %"class.nlohmann::json_abi_v3_11_3::detail::iter_impl.2", align 8
  %DOCTEST_RB11136 = alloca %"struct.doctest::detail::ResultBuilder", align 8
  %ref.tmp11137 = alloca %"class.doctest::String", align 8
  %agg.tmp11142 = alloca %"class.nlohmann::json_abi_v3_11_3::detail::iter_impl.2", align 8
  %agg.tmp11143 = alloca %"class.nlohmann::json_abi_v3_11_3::detail::iter_impl.2", align 8
  %tmp11144 = alloca %"class.nlohmann::json_abi_v3_11_3::detail::iter_impl.2", align 8
  call void @_ZN7doctest6StringC1EPKc(ptr noundef nonnull align 8 dereferenceable(24) %ref.tmp1, ptr noundef nonnull @.str.4)
  invoke void @_ZN7doctest6detail7SubcaseC1ERKNS_6StringEPKci(ptr noundef nonnull align 8 dereferenceable(41) %ref.tmp, ptr noundef nonnull align 8 dereferenceable(24) %ref.tmp1, ptr noundef nonnull @.str.2, i32 noundef 17)
          to label %invoke.cont unwind label %lpad

invoke.cont:                                      ; preds = %entry
  call void @_ZN7doctest6StringD1Ev(ptr noundef nonnull align 8 dereferenceable(24) %ref.tmp1) #20
  %call = invoke noundef zeroext i1 @_ZNK7doctest6detail7SubcasecvbEv(ptr noundef nonnull align 8 dereferenceable(41) %ref.tmp)
          to label %invoke.cont3 unwind label %lpad2

invoke.cont3:                                     ; preds = %invoke.cont
  br i1 %call, label %if.then, label %if.end7723

if.then:                                          ; preds = %invoke.cont3
  %m_value.i.i.i = getelementptr inbounds %"struct.nlohmann::json_abi_v3_11_3::basic_json<>::data", ptr %ref.tmp4, i64 0, i32 1
  store i64 0, ptr %ref.tmp4, align 8
  store i8 5, ptr %ref.tmp4, align 8
  store i64 1, ptr %m_value.i.i.i, align 8
  %value_ref.i = getelementptr inbounds %"class.nlohmann::json_abi_v3_11_3::detail::json_ref", ptr %ref.tmp4, i64 0, i32 1
  %arrayinit.element = getelementptr inbounds %"class.nlohmann::json_abi_v3_11_3::detail::json_ref", ptr %ref.tmp4, i64 1
  %m_value.i.i.i778 = getelementptr inbounds %"class.nlohmann::json_abi_v3_11_3::detail::json_ref", ptr %ref.tmp4, i64 1, i32 0, i32 0, i32 1
  call void @llvm.memset.p0.i64(ptr noundef nonnull align 8 dereferenceable(16) %value_ref.i, i8 0, i64 16, i1 false)
  store i8 6, ptr %arrayinit.element, align 8
  store i64 1, ptr %m_value.i.i.i778, align 8
  %value_ref.i780 = getelementptr inbounds %"class.nlohmann::json_abi_v3_11_3::detail::json_ref", ptr %ref.tmp4, i64 1, i32 1
  %arrayinit.element10 = getelementptr inbounds %"class.nlohmann::json_abi_v3_11_3::detail::json_ref", ptr %ref.tmp4, i64 2
  %m_value.i.i.i781 = getelementptr inbounds %"class.nlohmann::json_abi_v3_11_3::detail::json_ref", ptr %ref.tmp4, i64 2, i32 0, i32 0, i32 1
  call void @llvm.memset.p0.i64(ptr noundef nonnull align 8 dereferenceable(16) %value_ref.i780, i8 0, i64 16, i1 false)
  store i8 4, ptr %arrayinit.element10, align 8
  store i64 1, ptr %m_value.i.i.i781, align 8
  %value_ref.i782 = getelementptr inbounds %"class.nlohmann::json_abi_v3_11_3::detail::json_ref", ptr %ref.tmp4, i64 2, i32 1
  store ptr null, ptr %value_ref.i782, align 8
  %arrayinit.element13 = getelementptr inbounds %"class.nlohmann::json_abi_v3_11_3::detail::json_ref", ptr %ref.tmp4, i64 3
  store i8 0, ptr %arrayinit.element13, align 8
  %m_value.i.i.i.i = getelementptr inbounds %"class.nlohmann::json_abi_v3_11_3::detail::json_ref", ptr %ref.tmp4, i64 3, i32 0, i32 0, i32 1
  %arrayinit.element16 = getelementptr inbounds %"class.nlohmann::json_abi_v3_11_3::detail::json_ref", ptr %ref.tmp4, i64 4
  call void @llvm.memset.p0.i64(ptr noundef nonnull align 8 dereferenceable(32) %m_value.i.i.i.i, i8 0, i64 32, i1 false)
  invoke void @_ZN8nlohmann16json_abi_v3_11_36detail20external_constructorILNS1_7value_tE3EE9constructINS0_10basic_jsonISt3mapSt6vectorNSt7__cxx1112basic_stringIcSt11char_traitsIcESaIcEEEblmdSaNS0_14adl_serializerES8_IhSaIhEEvEEA7_cTnNSt9enable_ifIXntsr3std7is_sameIT0_NT_8string_tEEE5valueEiE4typeELi0EEEvRSM_RKSL_(ptr noundef nonnull align 8 dereferenceable(16) %arrayinit.element16, ptr noundef nonnull align 1 dereferenceable(7) @.str.5)
          to label %invoke.cont17 unwind label %lpad.i.i

lpad.i.i:                                         ; preds = %if.then
  %0 = landingpad { ptr, i32 }
          cleanup
  call void @_ZN8nlohmann16json_abi_v3_11_310basic_jsonISt3mapSt6vectorNSt7__cxx1112basic_stringIcSt11char_traitsIcESaIcEEEblmdSaNS0_14adl_serializerES3_IhSaIhEEvE4dataD2Ev(ptr noundef nonnull align 8 dereferenceable(16) %arrayinit.element16) #20
  br label %arraydestroy.body75.preheader

invoke.cont17:                                    ; preds = %if.then
  %value_ref.i783 = getelementptr inbounds %"class.nlohmann::json_abi_v3_11_3::detail::json_ref", ptr %ref.tmp4, i64 4, i32 1
  %arrayinit.element18 = getelementptr inbounds %"class.nlohmann::json_abi_v3_11_3::detail::json_ref", ptr %ref.tmp4, i64 5
  %m_value.i.i.i784 = getelementptr inbounds %"class.nlohmann::json_abi_v3_11_3::detail::json_ref", ptr %ref.tmp4, i64 5, i32 0, i32 0, i32 1
  call void @llvm.memset.p0.i64(ptr noundef nonnull align 8 dereferenceable(16) %value_ref.i783, i8 0, i64 16, i1 false)
  store i8 7, ptr %arrayinit.element18, align 8
  store double 4.223000e+01, ptr %m_value.i.i.i784, align 8
  %value_ref.i785 = getelementptr inbounds %"class.nlohmann::json_abi_v3_11_3::detail::json_ref", ptr %ref.tmp4, i64 5, i32 1
  store ptr null, ptr %value_ref.i785, align 8
  %arrayinit.element21 = getelementptr inbounds %"class.nlohmann::json_abi_v3_11_3::detail::json_ref", ptr %ref.tmp4, i64 6
  invoke void @_ZN8nlohmann16json_abi_v3_11_310basic_jsonISt3mapSt6vectorNSt7__cxx1112basic_stringIcSt11char_traitsIcESaIcEEEblmdSaNS0_14adl_serializerES3_IhSaIhEEvEC2ESt16initializer_listINS0_6detail8json_refISD_EEEbNSF_7value_tE(ptr noundef nonnull align 8 dereferenceable(16) %ref.tmp22, ptr null, i64 0, i1 noundef zeroext false, i8 noundef zeroext 1)
          to label %invoke.cont24 unwind label %lpad6

invoke.cont24:                                    ; preds = %invoke.cont17
  call void @llvm.memcpy.p0.p0.i64(ptr noundef nonnull align 8 dereferenceable(16) %arrayinit.element21, ptr noundef nonnull align 8 dereferenceable(16) %ref.tmp22, i64 16, i1 false)
  store i8 0, ptr %ref.tmp22, align 8
  %m_value.i.i = getelementptr inbounds %"struct.nlohmann::json_abi_v3_11_3::basic_json<>::data", ptr %ref.tmp22, i64 0, i32 1
  store ptr null, ptr %m_value.i.i, align 8
  %value_ref.i786 = getelementptr inbounds %"class.nlohmann::json_abi_v3_11_3::detail::json_ref", ptr %ref.tmp4, i64 6, i32 1
  store ptr null, ptr %value_ref.i786, align 8
  %arrayinit.element27 = getelementptr inbounds %"class.nlohmann::json_abi_v3_11_3::detail::json_ref", ptr %ref.tmp4, i64 7
  %m_value.i.i.i787 = getelementptr inbounds %"struct.nlohmann::json_abi_v3_11_3::basic_json<>::data", ptr %ref.tmp29, i64 0, i32 1
  store i64 0, ptr %ref.tmp29, align 8
  store i8 5, ptr %ref.tmp29, align 8
  store i64 1, ptr %m_value.i.i.i787, align 8
  %value_ref.i789 = getelementptr inbounds %"class.nlohmann::json_abi_v3_11_3::detail::json_ref", ptr %ref.tmp29, i64 0, i32 1
  %arrayinit.element35 = getelementptr inbounds %"class.nlohmann::json_abi_v3_11_3::detail::json_ref", ptr %ref.tmp29, i64 1
  %m_value.i.i.i790 = getelementptr inbounds %"class.nlohmann::json_abi_v3_11_3::detail::json_ref", ptr %ref.tmp29, i64 1, i32 0, i32 0, i32 1
  call void @llvm.memset.p0.i64(ptr noundef nonnull align 8 dereferenceable(16) %value_ref.i789, i8 0, i64 16, i1 false)
  store i8 5, ptr %arrayinit.element35, align 8
  store i64 2, ptr %m_value.i.i.i790, align 8
  %value_ref.i792 = getelementptr inbounds %"class.nlohmann::json_abi_v3_11_3::detail::json_ref", ptr %ref.tmp29, i64 1, i32 1
  %arrayinit.element38 = getelementptr inbounds %"class.nlohmann::json_abi_v3_11_3::detail::json_ref", ptr %ref.tmp29, i64 2
  %m_value.i.i.i793 = getelementptr inbounds %"class.nlohmann::json_abi_v3_11_3::detail::json_ref", ptr %ref.tmp29, i64 2, i32 0, i32 0, i32 1
  call void @llvm.memset.p0.i64(ptr noundef nonnull align 8 dereferenceable(16) %value_ref.i792, i8 0, i64 16, i1 false)
  store i8 5, ptr %arrayinit.element38, align 8
  store i64 3, ptr %m_value.i.i.i793, align 8
  %value_ref.i795 = getelementptr inbounds %"class.nlohmann::json_abi_v3_11_3::detail::json_ref", ptr %ref.tmp29, i64 2, i32 1
  store ptr null, ptr %value_ref.i795, align 8
  invoke void @_ZN8nlohmann16json_abi_v3_11_310basic_jsonISt3mapSt6vectorNSt7__cxx1112basic_stringIcSt11char_traitsIcESaIcEEEblmdSaNS0_14adl_serializerES3_IhSaIhEEvEC2ESt16initializer_listINS0_6detail8json_refISD_EEEbNSF_7value_tE(ptr noundef nonnull align 8 dereferenceable(16) %arrayinit.element27, ptr nonnull %ref.tmp29, i64 3, i1 noundef zeroext true, i8 noundef zeroext 2)
          to label %invoke.cont43 unwind label %lpad42

invoke.cont43:                                    ; preds = %invoke.cont24
  %value_ref.i796 = getelementptr inbounds %"class.nlohmann::json_abi_v3_11_3::detail::json_ref", ptr %ref.tmp4, i64 7, i32 1
  store ptr null, ptr %value_ref.i796, align 8
  invoke void @_ZN8nlohmann16json_abi_v3_11_310basic_jsonISt3mapSt6vectorNSt7__cxx1112basic_stringIcSt11char_traitsIcESaIcEEEblmdSaNS0_14adl_serializerES3_IhSaIhEEvEC2ESt16initializer_listINS0_6detail8json_refISD_EEEbNSF_7value_tE(ptr noundef nonnull align 8 dereferenceable(16) %j, ptr nonnull %ref.tmp4, i64 8, i1 noundef zeroext true, i8 noundef zeroext 2)
          to label %invoke.cont48 unwind label %lpad47

invoke.cont48:                                    ; preds = %invoke.cont43
  %1 = getelementptr inbounds %"class.nlohmann::json_abi_v3_11_3::detail::json_ref", ptr %ref.tmp4, i64 8
  br label %arraydestroy.body49

arraydestroy.body49:                              ; preds = %_ZN8nlohmann16json_abi_v3_11_36detail8json_refINS0_10basic_jsonISt3mapSt6vectorNSt7__cxx1112basic_stringIcSt11char_traitsIcESaIcEEEblmdSaNS0_14adl_serializerES5_IhSaIhEEvEEED2Ev.exit, %invoke.cont48
  %arraydestroy.elementPast50 = phi ptr [ %1, %invoke.cont48 ], [ %arraydestroy.element51, %_ZN8nlohmann16json_abi_v3_11_36detail8json_refINS0_10basic_jsonISt3mapSt6vectorNSt7__cxx1112basic_stringIcSt11char_traitsIcESaIcEEEblmdSaNS0_14adl_serializerES5_IhSaIhEEvEEED2Ev.exit ]
  %arraydestroy.element51 = getelementptr inbounds %"class.nlohmann::json_abi_v3_11_3::detail::json_ref", ptr %arraydestroy.elementPast50, i64 -1
  %m_value.i.i.i797 = getelementptr %"class.nlohmann::json_abi_v3_11_3::detail::json_ref", ptr %arraydestroy.elementPast50, i64 -1, i32 0, i32 0, i32 1
  %2 = load i8, ptr %arraydestroy.element51, align 8
  invoke void @_ZN8nlohmann16json_abi_v3_11_310basic_jsonISt3mapSt6vectorNSt7__cxx1112basic_stringIcSt11char_traitsIcESaIcEEEblmdSaNS0_14adl_serializerES3_IhSaIhEEvE10json_value7destroyENS0_6detail7value_tE(ptr noundef nonnull align 8 dereferenceable(8) %m_value.i.i.i797, i8 noundef zeroext %2)
          to label %_ZN8nlohmann16json_abi_v3_11_36detail8json_refINS0_10basic_jsonISt3mapSt6vectorNSt7__cxx1112basic_stringIcSt11char_traitsIcESaIcEEEblmdSaNS0_14adl_serializerES5_IhSaIhEEvEEED2Ev.exit unwind label %terminate.lpad.i.i.i

terminate.lpad.i.i.i:                             ; preds = %arraydestroy.body49
  %3 = landingpad { ptr, i32 }
          catch ptr null
  %4 = extractvalue { ptr, i32 } %3, 0
  call void @__clang_call_terminate(ptr %4) #21
  unreachable

_ZN8nlohmann16json_abi_v3_11_36detail8json_refINS0_10basic_jsonISt3mapSt6vectorNSt7__cxx1112basic_stringIcSt11char_traitsIcESaIcEEEblmdSaNS0_14adl_serializerES5_IhSaIhEEvEEED2Ev.exit: ; preds = %arraydestroy.body49
  %arraydestroy.done52 = icmp eq ptr %arraydestroy.element51, %ref.tmp4
  br i1 %arraydestroy.done52, label %arraydestroy.done53, label %arraydestroy.body49

arraydestroy.done53:                              ; preds = %_ZN8nlohmann16json_abi_v3_11_36detail8json_refINS0_10basic_jsonISt3mapSt6vectorNSt7__cxx1112basic_stringIcSt11char_traitsIcESaIcEEEblmdSaNS0_14adl_serializerES5_IhSaIhEEvEEED2Ev.exit
  %5 = getelementptr inbounds %"class.nlohmann::json_abi_v3_11_3::detail::json_ref", ptr %ref.tmp29, i64 3
  br label %arraydestroy.body61

arraydestroy.body61:                              ; preds = %_ZN8nlohmann16json_abi_v3_11_36detail8json_refINS0_10basic_jsonISt3mapSt6vectorNSt7__cxx1112basic_stringIcSt11char_traitsIcESaIcEEEblmdSaNS0_14adl_serializerES5_IhSaIhEEvEEED2Ev.exit800, %arraydestroy.done53
  %arraydestroy.elementPast62 = phi ptr [ %5, %arraydestroy.done53 ], [ %arraydestroy.element63, %_ZN8nlohmann16json_abi_v3_11_36detail8json_refINS0_10basic_jsonISt3mapSt6vectorNSt7__cxx1112basic_stringIcSt11char_traitsIcESaIcEEEblmdSaNS0_14adl_serializerES5_IhSaIhEEvEEED2Ev.exit800 ]
  %arraydestroy.element63 = getelementptr inbounds %"class.nlohmann::json_abi_v3_11_3::detail::json_ref", ptr %arraydestroy.elementPast62, i64 -1
  %m_value.i.i.i798 = getelementptr %"class.nlohmann::json_abi_v3_11_3::detail::json_ref", ptr %arraydestroy.elementPast62, i64 -1, i32 0, i32 0, i32 1
  %6 = load i8, ptr %arraydestroy.element63, align 8
  invoke void @_ZN8nlohmann16json_abi_v3_11_310basic_jsonISt3mapSt6vectorNSt7__cxx1112basic_stringIcSt11char_traitsIcESaIcEEEblmdSaNS0_14adl_serializerES3_IhSaIhEEvE10json_value7destroyENS0_6detail7value_tE(ptr noundef nonnull align 8 dereferenceable(8) %m_value.i.i.i798, i8 noundef zeroext %6)
          to label %_ZN8nlohmann16json_abi_v3_11_36detail8json_refINS0_10basic_jsonISt3mapSt6vectorNSt7__cxx1112basic_stringIcSt11char_traitsIcESaIcEEEblmdSaNS0_14adl_serializerES5_IhSaIhEEvEEED2Ev.exit800 unwind label %terminate.lpad.i.i.i799

terminate.lpad.i.i.i799:                          ; preds = %arraydestroy.body61
  %7 = landingpad { ptr, i32 }
          catch ptr null
  %8 = extractvalue { ptr, i32 } %7, 0
  call void @__clang_call_terminate(ptr %8) #21
  unreachable

_ZN8nlohmann16json_abi_v3_11_36detail8json_refINS0_10basic_jsonISt3mapSt6vectorNSt7__cxx1112basic_stringIcSt11char_traitsIcESaIcEEEblmdSaNS0_14adl_serializerES5_IhSaIhEEvEEED2Ev.exit800: ; preds = %arraydestroy.body61
  %arraydestroy.done64 = icmp eq ptr %arraydestroy.element63, %ref.tmp29
  br i1 %arraydestroy.done64, label %arraydestroy.done65, label %arraydestroy.body61

arraydestroy.done65:                              ; preds = %_ZN8nlohmann16json_abi_v3_11_36detail8json_refINS0_10basic_jsonISt3mapSt6vectorNSt7__cxx1112basic_stringIcSt11char_traitsIcESaIcEEEblmdSaNS0_14adl_serializerES5_IhSaIhEEvEEED2Ev.exit800
  %9 = load i8, ptr %ref.tmp22, align 8
  invoke void @_ZN8nlohmann16json_abi_v3_11_310basic_jsonISt3mapSt6vectorNSt7__cxx1112basic_stringIcSt11char_traitsIcESaIcEEEblmdSaNS0_14adl_serializerES3_IhSaIhEEvE10json_value7destroyENS0_6detail7value_tE(ptr noundef nonnull align 8 dereferenceable(8) %m_value.i.i, i8 noundef zeroext %9)
          to label %_ZN8nlohmann16json_abi_v3_11_310basic_jsonISt3mapSt6vectorNSt7__cxx1112basic_stringIcSt11char_traitsIcESaIcEEEblmdSaNS0_14adl_serializerES3_IhSaIhEEvED2Ev.exit unwind label %terminate.lpad.i.i

terminate.lpad.i.i:                               ; preds = %arraydestroy.done65
  %10 = landingpad { ptr, i32 }
          catch ptr null
  %11 = extractvalue { ptr, i32 } %10, 0
  call void @__clang_call_terminate(ptr %11) #21
  unreachable

_ZN8nlohmann16json_abi_v3_11_310basic_jsonISt3mapSt6vectorNSt7__cxx1112basic_stringIcSt11char_traitsIcESaIcEEEblmdSaNS0_14adl_serializerES3_IhSaIhEEvED2Ev.exit: ; preds = %arraydestroy.done65
  invoke void @_ZN8nlohmann16json_abi_v3_11_310basic_jsonISt3mapSt6vectorNSt7__cxx1112basic_stringIcSt11char_traitsIcESaIcEEEblmdSaNS0_14adl_serializerES3_IhSaIhEEvEC2ERKSD_(ptr noundef nonnull align 8 dereferenceable(16) %j_const, ptr noundef nonnull align 8 dereferenceable(16) %j)
          to label %invoke.cont81 unwind label %lpad80

invoke.cont81:                                    ; preds = %_ZN8nlohmann16json_abi_v3_11_310basic_jsonISt3mapSt6vectorNSt7__cxx1112basic_stringIcSt11char_traitsIcESaIcEEEblmdSaNS0_14adl_serializerES3_IhSaIhEEvED2Ev.exit
  invoke void @_ZN7doctest6StringC1EPKc(ptr noundef nonnull align 8 dereferenceable(24) %ref.tmp83, ptr noundef nonnull @.str.6)
          to label %invoke.cont85 unwind label %lpad84

invoke.cont85:                                    ; preds = %invoke.cont81
  invoke void @_ZN7doctest6detail7SubcaseC1ERKNS_6StringEPKci(ptr noundef nonnull align 8 dereferenceable(41) %ref.tmp82, ptr noundef nonnull align 8 dereferenceable(24) %ref.tmp83, ptr noundef nonnull @.str.2, i32 noundef 22)
          to label %invoke.cont87 unwind label %lpad86

invoke.cont87:                                    ; preds = %invoke.cont85
  call void @_ZN7doctest6StringD1Ev(ptr noundef nonnull align 8 dereferenceable(24) %ref.tmp83) #20
  %call91 = invoke noundef zeroext i1 @_ZNK7doctest6detail7SubcasecvbEv(ptr noundef nonnull align 8 dereferenceable(41) %ref.tmp82)
          to label %invoke.cont90 unwind label %lpad89

invoke.cont90:                                    ; preds = %invoke.cont87
  br i1 %call91, label %if.then92, label %if.end1318

if.then92:                                        ; preds = %invoke.cont90
  invoke void @_ZN7doctest6StringC1EPKc(ptr noundef nonnull align 8 dereferenceable(24) %ref.tmp94, ptr noundef nonnull @.str.7)
          to label %invoke.cont95 unwind label %lpad89

invoke.cont95:                                    ; preds = %if.then92
  invoke void @_ZN7doctest6detail7SubcaseC1ERKNS_6StringEPKci(ptr noundef nonnull align 8 dereferenceable(41) %ref.tmp93, ptr noundef nonnull align 8 dereferenceable(24) %ref.tmp94, ptr noundef nonnull @.str.2, i32 noundef 24)
          to label %invoke.cont97 unwind label %lpad96

invoke.cont97:                                    ; preds = %invoke.cont95
  call void @_ZN7doctest6StringD1Ev(ptr noundef nonnull align 8 dereferenceable(24) %ref.tmp94) #20
  %call101 = invoke noundef zeroext i1 @_ZNK7doctest6detail7SubcasecvbEv(ptr noundef nonnull align 8 dereferenceable(41) %ref.tmp93)
          to label %invoke.cont100 unwind label %lpad99

invoke.cont100:                                   ; preds = %invoke.cont97
  br i1 %call101, label %if.then102, label %if.end

if.then102:                                       ; preds = %invoke.cont100
  invoke void @_ZN7doctest6detail20ExpressionDecomposerC1ENS_10assertType4EnumE(ptr noundef nonnull align 4 dereferenceable(4) %ref.tmp105, i32 noundef 10)
          to label %invoke.cont106 unwind label %lpad99

invoke.cont106:                                   ; preds = %if.then102
  %call108 = invoke noundef nonnull align 8 dereferenceable(16) ptr @_ZN8nlohmann16json_abi_v3_11_310basic_jsonISt3mapSt6vectorNSt7__cxx1112basic_stringIcSt11char_traitsIcESaIcEEEblmdSaNS0_14adl_serializerES3_IhSaIhEEvE2atEm(ptr noundef nonnull align 8 dereferenceable(16) %j, i64 noundef 0)
          to label %_ZN8nlohmann16json_abi_v3_11_310basic_jsonISt3mapSt6vectorNSt7__cxx1112basic_stringIcSt11char_traitsIcESaIcEEEblmdSaNS0_14adl_serializerES3_IhSaIhEEvEC2IiiTnNSt9enable_ifIXaantsr6detail13is_basic_jsonIT0_EE5valuesr6detail18is_compatible_typeISD_SG_EE5valueEiE4typeELi0EEEOT_.exit unwind label %lpad99

_ZN8nlohmann16json_abi_v3_11_310basic_jsonISt3mapSt6vectorNSt7__cxx1112basic_stringIcSt11char_traitsIcESaIcEEEblmdSaNS0_14adl_serializerES3_IhSaIhEEvEC2IiiTnNSt9enable_ifIXaantsr6detail13is_basic_jsonIT0_EE5valuesr6detail18is_compatible_typeISD_SG_EE5valueEiE4typeELi0EEEOT_.exit: ; preds = %invoke.cont106
  %12 = load i32, ptr %ref.tmp105, align 4
  store ptr %call108, ptr %ref.tmp104, align 8
  %13 = getelementptr inbounds { ptr, i32 }, ptr %ref.tmp104, i64 0, i32 1
  store i32 %12, ptr %13, align 8
  %m_value.i.i802 = getelementptr inbounds %"struct.nlohmann::json_abi_v3_11_3::basic_json<>::data", ptr %ref.tmp111, i64 0, i32 1
  store i64 0, ptr %ref.tmp111, align 8
  store i8 5, ptr %ref.tmp111, align 8
  store i64 1, ptr %m_value.i.i802, align 8
  invoke void @_ZN7doctest6detail14Expression_lhsIRN8nlohmann16json_abi_v3_11_310basic_jsonISt3mapSt6vectorNSt7__cxx1112basic_stringIcSt11char_traitsIcESaIcEEEblmdSaNS3_14adl_serializerES6_IhSaIhEEvEEEeqISG_EEDTcmcvveqclL_ZNS0_7declvalISH_EEOT_vEEclsr7doctest6detailE7declvalISL_EEtlNS0_6ResultEEESM_(ptr nonnull sret(%"struct.doctest::detail::Result") align 8 %ref.tmp103, ptr noundef nonnull align 8 dereferenceable(12) %ref.tmp104, ptr noundef nonnull align 8 dereferenceable(16) %ref.tmp111)
          to label %invoke.cont114 unwind label %lpad113

invoke.cont114:                                   ; preds = %_ZN8nlohmann16json_abi_v3_11_310basic_jsonISt3mapSt6vectorNSt7__cxx1112basic_stringIcSt11char_traitsIcESaIcEEEblmdSaNS0_14adl_serializerES3_IhSaIhEEvEC2IiiTnNSt9enable_ifIXaantsr6detail13is_basic_jsonIT0_EE5valuesr6detail18is_compatible_typeISD_SG_EE5valueEiE4typeELi0EEEOT_.exit
  %call117 = invoke noundef zeroext i1 @_ZN7doctest6detail13decomp_assertENS_10assertType4EnumEPKciS4_RKNS0_6ResultE(i32 noundef 10, ptr noundef nonnull @.str.2, i32 noundef 26, ptr noundef nonnull @.str.8, ptr noundef nonnull align 8 dereferenceable(32) %ref.tmp103)
          to label %invoke.cont116 unwind label %lpad115

invoke.cont116:                                   ; preds = %invoke.cont114
  %m_decomp.i = getelementptr inbounds %"struct.doctest::detail::Result", ptr %ref.tmp103, i64 0, i32 1
  call void @_ZN7doctest6StringD1Ev(ptr noundef nonnull align 8 dereferenceable(24) %m_decomp.i) #20
  %14 = load i8, ptr %ref.tmp111, align 8
  invoke void @_ZN8nlohmann16json_abi_v3_11_310basic_jsonISt3mapSt6vectorNSt7__cxx1112basic_stringIcSt11char_traitsIcESaIcEEEblmdSaNS0_14adl_serializerES3_IhSaIhEEvE10json_value7destroyENS0_6detail7value_tE(ptr noundef nonnull align 8 dereferenceable(8) %m_value.i.i802, i8 noundef zeroext %14)
          to label %_ZN8nlohmann16json_abi_v3_11_310basic_jsonISt3mapSt6vectorNSt7__cxx1112basic_stringIcSt11char_traitsIcESaIcEEEblmdSaNS0_14adl_serializerES3_IhSaIhEEvED2Ev.exit805 unwind label %terminate.lpad.i.i804

terminate.lpad.i.i804:                            ; preds = %invoke.cont116
  %15 = landingpad { ptr, i32 }
          catch ptr null
  %16 = extractvalue { ptr, i32 } %15, 0
  call void @__clang_call_terminate(ptr %16) #21
  unreachable

_ZN8nlohmann16json_abi_v3_11_310basic_jsonISt3mapSt6vectorNSt7__cxx1112basic_stringIcSt11char_traitsIcESaIcEEEblmdSaNS0_14adl_serializerES3_IhSaIhEEvED2Ev.exit805: ; preds = %invoke.cont116
  invoke void @_ZN7doctest6detail20ExpressionDecomposerC1ENS_10assertType4EnumE(ptr noundef nonnull align 4 dereferenceable(4) %ref.tmp122, i32 noundef 10)
          to label %invoke.cont123 unwind label %lpad99

invoke.cont123:                                   ; preds = %_ZN8nlohmann16json_abi_v3_11_310basic_jsonISt3mapSt6vectorNSt7__cxx1112basic_stringIcSt11char_traitsIcESaIcEEEblmdSaNS0_14adl_serializerES3_IhSaIhEEvED2Ev.exit805
  %call125 = invoke noundef nonnull align 8 dereferenceable(16) ptr @_ZN8nlohmann16json_abi_v3_11_310basic_jsonISt3mapSt6vectorNSt7__cxx1112basic_stringIcSt11char_traitsIcESaIcEEEblmdSaNS0_14adl_serializerES3_IhSaIhEEvE2atEm(ptr noundef nonnull align 8 dereferenceable(16) %j, i64 noundef 1)
          to label %_ZN8nlohmann16json_abi_v3_11_310basic_jsonISt3mapSt6vectorNSt7__cxx1112basic_stringIcSt11char_traitsIcESaIcEEEblmdSaNS0_14adl_serializerES3_IhSaIhEEvEC2IjjTnNSt9enable_ifIXaantsr6detail13is_basic_jsonIT0_EE5valuesr6detail18is_compatible_typeISD_SG_EE5valueEiE4typeELi0EEEOT_.exit unwind label %lpad99

_ZN8nlohmann16json_abi_v3_11_310basic_jsonISt3mapSt6vectorNSt7__cxx1112basic_stringIcSt11char_traitsIcESaIcEEEblmdSaNS0_14adl_serializerES3_IhSaIhEEvEC2IjjTnNSt9enable_ifIXaantsr6detail13is_basic_jsonIT0_EE5valuesr6detail18is_compatible_typeISD_SG_EE5valueEiE4typeELi0EEEOT_.exit: ; preds = %invoke.cont123
  %17 = load i32, ptr %ref.tmp122, align 4
  store ptr %call125, ptr %ref.tmp121, align 8
  %18 = getelementptr inbounds { ptr, i32 }, ptr %ref.tmp121, i64 0, i32 1
  store i32 %17, ptr %18, align 8
  %m_value.i.i808 = getelementptr inbounds %"struct.nlohmann::json_abi_v3_11_3::basic_json<>::data", ptr %ref.tmp128, i64 0, i32 1
  store i64 0, ptr %ref.tmp128, align 8
  store i8 6, ptr %ref.tmp128, align 8
  store i64 1, ptr %m_value.i.i808, align 8
  invoke void @_ZN7doctest6detail14Expression_lhsIRN8nlohmann16json_abi_v3_11_310basic_jsonISt3mapSt6vectorNSt7__cxx1112basic_stringIcSt11char_traitsIcESaIcEEEblmdSaNS3_14adl_serializerES6_IhSaIhEEvEEEeqISG_EEDTcmcvveqclL_ZNS0_7declvalISH_EEOT_vEEclsr7doctest6detailE7declvalISL_EEtlNS0_6ResultEEESM_(ptr nonnull sret(%"struct.doctest::detail::Result") align 8 %ref.tmp120, ptr noundef nonnull align 8 dereferenceable(12) %ref.tmp121, ptr noundef nonnull align 8 dereferenceable(16) %ref.tmp128)
          to label %invoke.cont131 unwind label %lpad130

invoke.cont131:                                   ; preds = %_ZN8nlohmann16json_abi_v3_11_310basic_jsonISt3mapSt6vectorNSt7__cxx1112basic_stringIcSt11char_traitsIcESaIcEEEblmdSaNS0_14adl_serializerES3_IhSaIhEEvEC2IjjTnNSt9enable_ifIXaantsr6detail13is_basic_jsonIT0_EE5valuesr6detail18is_compatible_typeISD_SG_EE5valueEiE4typeELi0EEEOT_.exit
  %call134 = invoke noundef zeroext i1 @_ZN7doctest6detail13decomp_assertENS_10assertType4EnumEPKciS4_RKNS0_6ResultE(i32 noundef 10, ptr noundef nonnull @.str.2, i32 noundef 27, ptr noundef nonnull @.str.9, ptr noundef nonnull align 8 dereferenceable(32) %ref.tmp120)
          to label %invoke.cont133 unwind label %lpad132

invoke.cont133:                                   ; preds = %invoke.cont131
  %m_decomp.i811 = getelementptr inbounds %"struct.doctest::detail::Result", ptr %ref.tmp120, i64 0, i32 1
  call void @_ZN7doctest6StringD1Ev(ptr noundef nonnull align 8 dereferenceable(24) %m_decomp.i811) #20
  %19 = load i8, ptr %ref.tmp128, align 8
  invoke void @_ZN8nlohmann16json_abi_v3_11_310basic_jsonISt3mapSt6vectorNSt7__cxx1112basic_stringIcSt11char_traitsIcESaIcEEEblmdSaNS0_14adl_serializerES3_IhSaIhEEvE10json_value7destroyENS0_6detail7value_tE(ptr noundef nonnull align 8 dereferenceable(8) %m_value.i.i808, i8 noundef zeroext %19)
          to label %_ZN8nlohmann16json_abi_v3_11_310basic_jsonISt3mapSt6vectorNSt7__cxx1112basic_stringIcSt11char_traitsIcESaIcEEEblmdSaNS0_14adl_serializerES3_IhSaIhEEvED2Ev.exit814 unwind label %terminate.lpad.i.i813

terminate.lpad.i.i813:                            ; preds = %invoke.cont133
  %20 = landingpad { ptr, i32 }
          catch ptr null
  %21 = extractvalue { ptr, i32 } %20, 0
  call void @__clang_call_terminate(ptr %21) #21
  unreachable

_ZN8nlohmann16json_abi_v3_11_310basic_jsonISt3mapSt6vectorNSt7__cxx1112basic_stringIcSt11char_traitsIcESaIcEEEblmdSaNS0_14adl_serializerES3_IhSaIhEEvED2Ev.exit814: ; preds = %invoke.cont133
  invoke void @_ZN7doctest6detail20ExpressionDecomposerC1ENS_10assertType4EnumE(ptr noundef nonnull align 4 dereferenceable(4) %ref.tmp139, i32 noundef 10)
          to label %invoke.cont140 unwind label %lpad99

invoke.cont140:                                   ; preds = %_ZN8nlohmann16json_abi_v3_11_310basic_jsonISt3mapSt6vectorNSt7__cxx1112basic_stringIcSt11char_traitsIcESaIcEEEblmdSaNS0_14adl_serializerES3_IhSaIhEEvED2Ev.exit814
  %call142 = invoke noundef nonnull align 8 dereferenceable(16) ptr @_ZN8nlohmann16json_abi_v3_11_310basic_jsonISt3mapSt6vectorNSt7__cxx1112basic_stringIcSt11char_traitsIcESaIcEEEblmdSaNS0_14adl_serializerES3_IhSaIhEEvE2atEm(ptr noundef nonnull align 8 dereferenceable(16) %j, i64 noundef 2)
          to label %_ZN8nlohmann16json_abi_v3_11_310basic_jsonISt3mapSt6vectorNSt7__cxx1112basic_stringIcSt11char_traitsIcESaIcEEEblmdSaNS0_14adl_serializerES3_IhSaIhEEvEC2IbbTnNSt9enable_ifIXaantsr6detail13is_basic_jsonIT0_EE5valuesr6detail18is_compatible_typeISD_SG_EE5valueEiE4typeELi0EEEOT_.exit unwind label %lpad99

_ZN8nlohmann16json_abi_v3_11_310basic_jsonISt3mapSt6vectorNSt7__cxx1112basic_stringIcSt11char_traitsIcESaIcEEEblmdSaNS0_14adl_serializerES3_IhSaIhEEvEC2IbbTnNSt9enable_ifIXaantsr6detail13is_basic_jsonIT0_EE5valuesr6detail18is_compatible_typeISD_SG_EE5valueEiE4typeELi0EEEOT_.exit: ; preds = %invoke.cont140
  %22 = load i32, ptr %ref.tmp139, align 4
  store ptr %call142, ptr %ref.tmp138, align 8
  %23 = getelementptr inbounds { ptr, i32 }, ptr %ref.tmp138, i64 0, i32 1
  store i32 %22, ptr %23, align 8
  %m_value.i.i817 = getelementptr inbounds %"struct.nlohmann::json_abi_v3_11_3::basic_json<>::data", ptr %ref.tmp145, i64 0, i32 1
  store i64 0, ptr %ref.tmp145, align 8
  store i8 4, ptr %ref.tmp145, align 8
  store i64 1, ptr %m_value.i.i817, align 8
  invoke void @_ZN7doctest6detail14Expression_lhsIRN8nlohmann16json_abi_v3_11_310basic_jsonISt3mapSt6vectorNSt7__cxx1112basic_stringIcSt11char_traitsIcESaIcEEEblmdSaNS3_14adl_serializerES6_IhSaIhEEvEEEeqISG_EEDTcmcvveqclL_ZNS0_7declvalISH_EEOT_vEEclsr7doctest6detailE7declvalISL_EEtlNS0_6ResultEEESM_(ptr nonnull sret(%"struct.doctest::detail::Result") align 8 %ref.tmp137, ptr noundef nonnull align 8 dereferenceable(12) %ref.tmp138, ptr noundef nonnull align 8 dereferenceable(16) %ref.tmp145)
          to label %invoke.cont148 unwind label %lpad147

invoke.cont148:                                   ; preds = %_ZN8nlohmann16json_abi_v3_11_310basic_jsonISt3mapSt6vectorNSt7__cxx1112basic_stringIcSt11char_traitsIcESaIcEEEblmdSaNS0_14adl_serializerES3_IhSaIhEEvEC2IbbTnNSt9enable_ifIXaantsr6detail13is_basic_jsonIT0_EE5valuesr6detail18is_compatible_typeISD_SG_EE5valueEiE4typeELi0EEEOT_.exit
  %call151 = invoke noundef zeroext i1 @_ZN7doctest6detail13decomp_assertENS_10assertType4EnumEPKciS4_RKNS0_6ResultE(i32 noundef 10, ptr noundef nonnull @.str.2, i32 noundef 28, ptr noundef nonnull @.str.10, ptr noundef nonnull align 8 dereferenceable(32) %ref.tmp137)
          to label %invoke.cont150 unwind label %lpad149

invoke.cont150:                                   ; preds = %invoke.cont148
  %m_decomp.i819 = getelementptr inbounds %"struct.doctest::detail::Result", ptr %ref.tmp137, i64 0, i32 1
  call void @_ZN7doctest6StringD1Ev(ptr noundef nonnull align 8 dereferenceable(24) %m_decomp.i819) #20
  %24 = load i8, ptr %ref.tmp145, align 8
  invoke void @_ZN8nlohmann16json_abi_v3_11_310basic_jsonISt3mapSt6vectorNSt7__cxx1112basic_stringIcSt11char_traitsIcESaIcEEEblmdSaNS0_14adl_serializerES3_IhSaIhEEvE10json_value7destroyENS0_6detail7value_tE(ptr noundef nonnull align 8 dereferenceable(8) %m_value.i.i817, i8 noundef zeroext %24)
          to label %_ZN8nlohmann16json_abi_v3_11_310basic_jsonISt3mapSt6vectorNSt7__cxx1112basic_stringIcSt11char_traitsIcESaIcEEEblmdSaNS0_14adl_serializerES3_IhSaIhEEvED2Ev.exit822 unwind label %terminate.lpad.i.i821

terminate.lpad.i.i821:                            ; preds = %invoke.cont150
  %25 = landingpad { ptr, i32 }
          catch ptr null
  %26 = extractvalue { ptr, i32 } %25, 0
  call void @__clang_call_terminate(ptr %26) #21
  unreachable

_ZN8nlohmann16json_abi_v3_11_310basic_jsonISt3mapSt6vectorNSt7__cxx1112basic_stringIcSt11char_traitsIcESaIcEEEblmdSaNS0_14adl_serializerES3_IhSaIhEEvED2Ev.exit822: ; preds = %invoke.cont150
  invoke void @_ZN7doctest6detail20ExpressionDecomposerC1ENS_10assertType4EnumE(ptr noundef nonnull align 4 dereferenceable(4) %ref.tmp156, i32 noundef 10)
          to label %invoke.cont157 unwind label %lpad99

invoke.cont157:                                   ; preds = %_ZN8nlohmann16json_abi_v3_11_310basic_jsonISt3mapSt6vectorNSt7__cxx1112basic_stringIcSt11char_traitsIcESaIcEEEblmdSaNS0_14adl_serializerES3_IhSaIhEEvED2Ev.exit822
  %call159 = invoke noundef nonnull align 8 dereferenceable(16) ptr @_ZN8nlohmann16json_abi_v3_11_310basic_jsonISt3mapSt6vectorNSt7__cxx1112basic_stringIcSt11char_traitsIcESaIcEEEblmdSaNS0_14adl_serializerES3_IhSaIhEEvE2atEm(ptr noundef nonnull align 8 dereferenceable(16) %j, i64 noundef 3)
          to label %invoke.cont160 unwind label %lpad99

invoke.cont160:                                   ; preds = %invoke.cont157
  %27 = load i32, ptr %ref.tmp156, align 4
  store ptr %call159, ptr %ref.tmp155, align 8
  %28 = getelementptr inbounds { ptr, i32 }, ptr %ref.tmp155, i64 0, i32 1
  store i32 %27, ptr %28, align 8
  store i8 0, ptr %ref.tmp162, align 8
  %m_value.i.i.i825 = getelementptr inbounds %"struct.nlohmann::json_abi_v3_11_3::basic_json<>::data", ptr %ref.tmp162, i64 0, i32 1
  store ptr null, ptr %m_value.i.i.i825, align 8
  invoke void @_ZN7doctest6detail14Expression_lhsIRN8nlohmann16json_abi_v3_11_310basic_jsonISt3mapSt6vectorNSt7__cxx1112basic_stringIcSt11char_traitsIcESaIcEEEblmdSaNS3_14adl_serializerES6_IhSaIhEEvEEEeqISG_EEDTcmcvveqclL_ZNS0_7declvalISH_EEOT_vEEclsr7doctest6detailE7declvalISL_EEtlNS0_6ResultEEESM_(ptr nonnull sret(%"struct.doctest::detail::Result") align 8 %ref.tmp154, ptr noundef nonnull align 8 dereferenceable(12) %ref.tmp155, ptr noundef nonnull align 8 dereferenceable(16) %ref.tmp162)
          to label %invoke.cont164 unwind label %lpad163

invoke.cont164:                                   ; preds = %invoke.cont160
  %call167 = invoke noundef zeroext i1 @_ZN7doctest6detail13decomp_assertENS_10assertType4EnumEPKciS4_RKNS0_6ResultE(i32 noundef 10, ptr noundef nonnull @.str.2, i32 noundef 29, ptr noundef nonnull @.str.11, ptr noundef nonnull align 8 dereferenceable(32) %ref.tmp154)
          to label %invoke.cont166 unwind label %lpad165

invoke.cont166:                                   ; preds = %invoke.cont164
  %m_decomp.i826 = getelementptr inbounds %"struct.doctest::detail::Result", ptr %ref.tmp154, i64 0, i32 1
  call void @_ZN7doctest6StringD1Ev(ptr noundef nonnull align 8 dereferenceable(24) %m_decomp.i826) #20
  %29 = load i8, ptr %ref.tmp162, align 8
  invoke void @_ZN8nlohmann16json_abi_v3_11_310basic_jsonISt3mapSt6vectorNSt7__cxx1112basic_stringIcSt11char_traitsIcESaIcEEEblmdSaNS0_14adl_serializerES3_IhSaIhEEvE10json_value7destroyENS0_6detail7value_tE(ptr noundef nonnull align 8 dereferenceable(8) %m_value.i.i.i825, i8 noundef zeroext %29)
          to label %_ZN8nlohmann16json_abi_v3_11_310basic_jsonISt3mapSt6vectorNSt7__cxx1112basic_stringIcSt11char_traitsIcESaIcEEEblmdSaNS0_14adl_serializerES3_IhSaIhEEvED2Ev.exit829 unwind label %terminate.lpad.i.i828

terminate.lpad.i.i828:                            ; preds = %invoke.cont166
  %30 = landingpad { ptr, i32 }
          catch ptr null
  %31 = extractvalue { ptr, i32 } %30, 0
  call void @__clang_call_terminate(ptr %31) #21
  unreachable

_ZN8nlohmann16json_abi_v3_11_310basic_jsonISt3mapSt6vectorNSt7__cxx1112basic_stringIcSt11char_traitsIcESaIcEEEblmdSaNS0_14adl_serializerES3_IhSaIhEEvED2Ev.exit829: ; preds = %invoke.cont166
  invoke void @_ZN7doctest6detail20ExpressionDecomposerC1ENS_10assertType4EnumE(ptr noundef nonnull align 4 dereferenceable(4) %ref.tmp172, i32 noundef 10)
          to label %invoke.cont173 unwind label %lpad99

invoke.cont173:                                   ; preds = %_ZN8nlohmann16json_abi_v3_11_310basic_jsonISt3mapSt6vectorNSt7__cxx1112basic_stringIcSt11char_traitsIcESaIcEEEblmdSaNS0_14adl_serializerES3_IhSaIhEEvED2Ev.exit829
  %call175 = invoke noundef nonnull align 8 dereferenceable(16) ptr @_ZN8nlohmann16json_abi_v3_11_310basic_jsonISt3mapSt6vectorNSt7__cxx1112basic_stringIcSt11char_traitsIcESaIcEEEblmdSaNS0_14adl_serializerES3_IhSaIhEEvE2atEm(ptr noundef nonnull align 8 dereferenceable(16) %j, i64 noundef 4)
          to label %invoke.cont176 unwind label %lpad99

invoke.cont176:                                   ; preds = %invoke.cont173
  %32 = load i32, ptr %ref.tmp172, align 4
  store ptr %call175, ptr %ref.tmp171, align 8
  %33 = getelementptr inbounds { ptr, i32 }, ptr %ref.tmp171, i64 0, i32 1
  store i32 %32, ptr %33, align 8
  call void @llvm.memset.p0.i64(ptr noundef nonnull align 8 dereferenceable(16) %ref.tmp178, i8 0, i64 16, i1 false)
  invoke void @_ZN8nlohmann16json_abi_v3_11_36detail20external_constructorILNS1_7value_tE3EE9constructINS0_10basic_jsonISt3mapSt6vectorNSt7__cxx1112basic_stringIcSt11char_traitsIcESaIcEEEblmdSaNS0_14adl_serializerES8_IhSaIhEEvEEA7_cTnNSt9enable_ifIXntsr3std7is_sameIT0_NT_8string_tEEE5valueEiE4typeELi0EEEvRSM_RKSL_(ptr noundef nonnull align 8 dereferenceable(16) %ref.tmp178, ptr noundef nonnull align 1 dereferenceable(7) @.str.5)
          to label %invoke.cont179 unwind label %lpad.i

lpad.i:                                           ; preds = %invoke.cont176
  %34 = landingpad { ptr, i32 }
          cleanup
  call void @_ZN8nlohmann16json_abi_v3_11_310basic_jsonISt3mapSt6vectorNSt7__cxx1112basic_stringIcSt11char_traitsIcESaIcEEEblmdSaNS0_14adl_serializerES3_IhSaIhEEvE4dataD2Ev(ptr noundef nonnull align 8 dereferenceable(16) %ref.tmp178) #20
  br label %ehcleanup449

invoke.cont179:                                   ; preds = %invoke.cont176
  invoke void @_ZN7doctest6detail14Expression_lhsIRN8nlohmann16json_abi_v3_11_310basic_jsonISt3mapSt6vectorNSt7__cxx1112basic_stringIcSt11char_traitsIcESaIcEEEblmdSaNS3_14adl_serializerES6_IhSaIhEEvEEEeqISG_EEDTcmcvveqclL_ZNS0_7declvalISH_EEOT_vEEclsr7doctest6detailE7declvalISL_EEtlNS0_6ResultEEESM_(ptr nonnull sret(%"struct.doctest::detail::Result") align 8 %ref.tmp170, ptr noundef nonnull align 8 dereferenceable(12) %ref.tmp171, ptr noundef nonnull align 8 dereferenceable(16) %ref.tmp178)
          to label %invoke.cont181 unwind label %lpad180

invoke.cont181:                                   ; preds = %invoke.cont179
  %call184 = invoke noundef zeroext i1 @_ZN7doctest6detail13decomp_assertENS_10assertType4EnumEPKciS4_RKNS0_6ResultE(i32 noundef 10, ptr noundef nonnull @.str.2, i32 noundef 30, ptr noundef nonnull @.str.12, ptr noundef nonnull align 8 dereferenceable(32) %ref.tmp170)
          to label %invoke.cont183 unwind label %lpad182

invoke.cont183:                                   ; preds = %invoke.cont181
  %m_decomp.i833 = getelementptr inbounds %"struct.doctest::detail::Result", ptr %ref.tmp170, i64 0, i32 1
  call void @_ZN7doctest6StringD1Ev(ptr noundef nonnull align 8 dereferenceable(24) %m_decomp.i833) #20
  %m_value.i.i834 = getelementptr inbounds %"struct.nlohmann::json_abi_v3_11_3::basic_json<>::data", ptr %ref.tmp178, i64 0, i32 1
  %35 = load i8, ptr %ref.tmp178, align 8
  invoke void @_ZN8nlohmann16json_abi_v3_11_310basic_jsonISt3mapSt6vectorNSt7__cxx1112basic_stringIcSt11char_traitsIcESaIcEEEblmdSaNS0_14adl_serializerES3_IhSaIhEEvE10json_value7destroyENS0_6detail7value_tE(ptr noundef nonnull align 8 dereferenceable(8) %m_value.i.i834, i8 noundef zeroext %35)
          to label %_ZN8nlohmann16json_abi_v3_11_310basic_jsonISt3mapSt6vectorNSt7__cxx1112basic_stringIcSt11char_traitsIcESaIcEEEblmdSaNS0_14adl_serializerES3_IhSaIhEEvED2Ev.exit836 unwind label %terminate.lpad.i.i835

terminate.lpad.i.i835:                            ; preds = %invoke.cont183
  %36 = landingpad { ptr, i32 }
          catch ptr null
  %37 = extractvalue { ptr, i32 } %36, 0
  call void @__clang_call_terminate(ptr %37) #21
  unreachable

_ZN8nlohmann16json_abi_v3_11_310basic_jsonISt3mapSt6vectorNSt7__cxx1112basic_stringIcSt11char_traitsIcESaIcEEEblmdSaNS0_14adl_serializerES3_IhSaIhEEvED2Ev.exit836: ; preds = %invoke.cont183
  invoke void @_ZN7doctest6detail20ExpressionDecomposerC1ENS_10assertType4EnumE(ptr noundef nonnull align 4 dereferenceable(4) %ref.tmp189, i32 noundef 10)
          to label %invoke.cont190 unwind label %lpad99

invoke.cont190:                                   ; preds = %_ZN8nlohmann16json_abi_v3_11_310basic_jsonISt3mapSt6vectorNSt7__cxx1112basic_stringIcSt11char_traitsIcESaIcEEEblmdSaNS0_14adl_serializerES3_IhSaIhEEvED2Ev.exit836
  %call192 = invoke noundef nonnull align 8 dereferenceable(16) ptr @_ZN8nlohmann16json_abi_v3_11_310basic_jsonISt3mapSt6vectorNSt7__cxx1112basic_stringIcSt11char_traitsIcESaIcEEEblmdSaNS0_14adl_serializerES3_IhSaIhEEvE2atEm(ptr noundef nonnull align 8 dereferenceable(16) %j, i64 noundef 5)
          to label %_ZN8nlohmann16json_abi_v3_11_310basic_jsonISt3mapSt6vectorNSt7__cxx1112basic_stringIcSt11char_traitsIcESaIcEEEblmdSaNS0_14adl_serializerES3_IhSaIhEEvEC2IddTnNSt9enable_ifIXaantsr6detail13is_basic_jsonIT0_EE5valuesr6detail18is_compatible_typeISD_SG_EE5valueEiE4typeELi0EEEOT_.exit unwind label %lpad99

_ZN8nlohmann16json_abi_v3_11_310basic_jsonISt3mapSt6vectorNSt7__cxx1112basic_stringIcSt11char_traitsIcESaIcEEEblmdSaNS0_14adl_serializerES3_IhSaIhEEvEC2IddTnNSt9enable_ifIXaantsr6detail13is_basic_jsonIT0_EE5valuesr6detail18is_compatible_typeISD_SG_EE5valueEiE4typeELi0EEEOT_.exit: ; preds = %invoke.cont190
  %38 = load i32, ptr %ref.tmp189, align 4
  store ptr %call192, ptr %ref.tmp188, align 8
  %39 = getelementptr inbounds { ptr, i32 }, ptr %ref.tmp188, i64 0, i32 1
  store i32 %38, ptr %39, align 8
  %m_value.i.i839 = getelementptr inbounds %"struct.nlohmann::json_abi_v3_11_3::basic_json<>::data", ptr %ref.tmp195, i64 0, i32 1
  store i64 0, ptr %ref.tmp195, align 8
  store i8 7, ptr %ref.tmp195, align 8
  store double 4.223000e+01, ptr %m_value.i.i839, align 8
  invoke void @_ZN7doctest6detail14Expression_lhsIRN8nlohmann16json_abi_v3_11_310basic_jsonISt3mapSt6vectorNSt7__cxx1112basic_stringIcSt11char_traitsIcESaIcEEEblmdSaNS3_14adl_serializerES6_IhSaIhEEvEEEeqISG_EEDTcmcvveqclL_ZNS0_7declvalISH_EEOT_vEEclsr7doctest6detailE7declvalISL_EEtlNS0_6ResultEEESM_(ptr nonnull sret(%"struct.doctest::detail::Result") align 8 %ref.tmp187, ptr noundef nonnull align 8 dereferenceable(12) %ref.tmp188, ptr noundef nonnull align 8 dereferenceable(16) %ref.tmp195)
          to label %invoke.cont198 unwind label %lpad197

invoke.cont198:                                   ; preds = %_ZN8nlohmann16json_abi_v3_11_310basic_jsonISt3mapSt6vectorNSt7__cxx1112basic_stringIcSt11char_traitsIcESaIcEEEblmdSaNS0_14adl_serializerES3_IhSaIhEEvEC2IddTnNSt9enable_ifIXaantsr6detail13is_basic_jsonIT0_EE5valuesr6detail18is_compatible_typeISD_SG_EE5valueEiE4typeELi0EEEOT_.exit
  %call201 = invoke noundef zeroext i1 @_ZN7doctest6detail13decomp_assertENS_10assertType4EnumEPKciS4_RKNS0_6ResultE(i32 noundef 10, ptr noundef nonnull @.str.2, i32 noundef 31, ptr noundef nonnull @.str.13, ptr noundef nonnull align 8 dereferenceable(32) %ref.tmp187)
          to label %invoke.cont200 unwind label %lpad199

invoke.cont200:                                   ; preds = %invoke.cont198
  %m_decomp.i841 = getelementptr inbounds %"struct.doctest::detail::Result", ptr %ref.tmp187, i64 0, i32 1
  call void @_ZN7doctest6StringD1Ev(ptr noundef nonnull align 8 dereferenceable(24) %m_decomp.i841) #20
  %40 = load i8, ptr %ref.tmp195, align 8
  invoke void @_ZN8nlohmann16json_abi_v3_11_310basic_jsonISt3mapSt6vectorNSt7__cxx1112basic_stringIcSt11char_traitsIcESaIcEEEblmdSaNS0_14adl_serializerES3_IhSaIhEEvE10json_value7destroyENS0_6detail7value_tE(ptr noundef nonnull align 8 dereferenceable(8) %m_value.i.i839, i8 noundef zeroext %40)
          to label %_ZN8nlohmann16json_abi_v3_11_310basic_jsonISt3mapSt6vectorNSt7__cxx1112basic_stringIcSt11char_traitsIcESaIcEEEblmdSaNS0_14adl_serializerES3_IhSaIhEEvED2Ev.exit844 unwind label %terminate.lpad.i.i843

terminate.lpad.i.i843:                            ; preds = %invoke.cont200
  %41 = landingpad { ptr, i32 }
          catch ptr null
  %42 = extractvalue { ptr, i32 } %41, 0
  call void @__clang_call_terminate(ptr %42) #21
  unreachable

_ZN8nlohmann16json_abi_v3_11_310basic_jsonISt3mapSt6vectorNSt7__cxx1112basic_stringIcSt11char_traitsIcESaIcEEEblmdSaNS0_14adl_serializerES3_IhSaIhEEvED2Ev.exit844: ; preds = %invoke.cont200
  invoke void @_ZN7doctest6detail20ExpressionDecomposerC1ENS_10assertType4EnumE(ptr noundef nonnull align 4 dereferenceable(4) %ref.tmp206, i32 noundef 10)
          to label %invoke.cont207 unwind label %lpad99

invoke.cont207:                                   ; preds = %_ZN8nlohmann16json_abi_v3_11_310basic_jsonISt3mapSt6vectorNSt7__cxx1112basic_stringIcSt11char_traitsIcESaIcEEEblmdSaNS0_14adl_serializerES3_IhSaIhEEvED2Ev.exit844
  %call209 = invoke noundef nonnull align 8 dereferenceable(16) ptr @_ZN8nlohmann16json_abi_v3_11_310basic_jsonISt3mapSt6vectorNSt7__cxx1112basic_stringIcSt11char_traitsIcESaIcEEEblmdSaNS0_14adl_serializerES3_IhSaIhEEvE2atEm(ptr noundef nonnull align 8 dereferenceable(16) %j, i64 noundef 6)
          to label %invoke.cont210 unwind label %lpad99

invoke.cont210:                                   ; preds = %invoke.cont207
  %43 = load i32, ptr %ref.tmp206, align 4
  store ptr %call209, ptr %ref.tmp205, align 8
  %44 = getelementptr inbounds { ptr, i32 }, ptr %ref.tmp205, i64 0, i32 1
  store i32 %43, ptr %44, align 8
  invoke void @_ZN8nlohmann16json_abi_v3_11_310basic_jsonISt3mapSt6vectorNSt7__cxx1112basic_stringIcSt11char_traitsIcESaIcEEEblmdSaNS0_14adl_serializerES3_IhSaIhEEvEC2ESt16initializer_listINS0_6detail8json_refISD_EEEbNSF_7value_tE(ptr noundef nonnull align 8 dereferenceable(16) %ref.tmp212, ptr null, i64 0, i1 noundef zeroext false, i8 noundef zeroext 1)
          to label %invoke.cont214 unwind label %lpad99

invoke.cont214:                                   ; preds = %invoke.cont210
  invoke void @_ZN7doctest6detail14Expression_lhsIRN8nlohmann16json_abi_v3_11_310basic_jsonISt3mapSt6vectorNSt7__cxx1112basic_stringIcSt11char_traitsIcESaIcEEEblmdSaNS3_14adl_serializerES6_IhSaIhEEvEEEeqISG_EEDTcmcvveqclL_ZNS0_7declvalISH_EEOT_vEEclsr7doctest6detailE7declvalISL_EEtlNS0_6ResultEEESM_(ptr nonnull sret(%"struct.doctest::detail::Result") align 8 %ref.tmp204, ptr noundef nonnull align 8 dereferenceable(12) %ref.tmp205, ptr noundef nonnull align 8 dereferenceable(16) %ref.tmp212)
          to label %invoke.cont216 unwind label %lpad215

invoke.cont216:                                   ; preds = %invoke.cont214
  %call219 = invoke noundef zeroext i1 @_ZN7doctest6detail13decomp_assertENS_10assertType4EnumEPKciS4_RKNS0_6ResultE(i32 noundef 10, ptr noundef nonnull @.str.2, i32 noundef 32, ptr noundef nonnull @.str.14, ptr noundef nonnull align 8 dereferenceable(32) %ref.tmp204)
          to label %invoke.cont218 unwind label %lpad217

invoke.cont218:                                   ; preds = %invoke.cont216
  %m_decomp.i848 = getelementptr inbounds %"struct.doctest::detail::Result", ptr %ref.tmp204, i64 0, i32 1
  call void @_ZN7doctest6StringD1Ev(ptr noundef nonnull align 8 dereferenceable(24) %m_decomp.i848) #20
  %m_value.i.i849 = getelementptr inbounds %"struct.nlohmann::json_abi_v3_11_3::basic_json<>::data", ptr %ref.tmp212, i64 0, i32 1
  %45 = load i8, ptr %ref.tmp212, align 8
  invoke void @_ZN8nlohmann16json_abi_v3_11_310basic_jsonISt3mapSt6vectorNSt7__cxx1112basic_stringIcSt11char_traitsIcESaIcEEEblmdSaNS0_14adl_serializerES3_IhSaIhEEvE10json_value7destroyENS0_6detail7value_tE(ptr noundef nonnull align 8 dereferenceable(8) %m_value.i.i849, i8 noundef zeroext %45)
          to label %_ZN8nlohmann16json_abi_v3_11_310basic_jsonISt3mapSt6vectorNSt7__cxx1112basic_stringIcSt11char_traitsIcESaIcEEEblmdSaNS0_14adl_serializerES3_IhSaIhEEvED2Ev.exit851 unwind label %terminate.lpad.i.i850

terminate.lpad.i.i850:                            ; preds = %invoke.cont218
  %46 = landingpad { ptr, i32 }
          catch ptr null
  %47 = extractvalue { ptr, i32 } %46, 0
  call void @__clang_call_terminate(ptr %47) #21
  unreachable

_ZN8nlohmann16json_abi_v3_11_310basic_jsonISt3mapSt6vectorNSt7__cxx1112basic_stringIcSt11char_traitsIcESaIcEEEblmdSaNS0_14adl_serializerES3_IhSaIhEEvED2Ev.exit851: ; preds = %invoke.cont218
  invoke void @_ZN7doctest6detail20ExpressionDecomposerC1ENS_10assertType4EnumE(ptr noundef nonnull align 4 dereferenceable(4) %ref.tmp224, i32 noundef 10)
          to label %invoke.cont225 unwind label %lpad99

invoke.cont225:                                   ; preds = %_ZN8nlohmann16json_abi_v3_11_310basic_jsonISt3mapSt6vectorNSt7__cxx1112basic_stringIcSt11char_traitsIcESaIcEEEblmdSaNS0_14adl_serializerES3_IhSaIhEEvED2Ev.exit851
  %call227 = invoke noundef nonnull align 8 dereferenceable(16) ptr @_ZN8nlohmann16json_abi_v3_11_310basic_jsonISt3mapSt6vectorNSt7__cxx1112basic_stringIcSt11char_traitsIcESaIcEEEblmdSaNS0_14adl_serializerES3_IhSaIhEEvE2atEm(ptr noundef nonnull align 8 dereferenceable(16) %j, i64 noundef 7)
          to label %invoke.cont228 unwind label %lpad99

invoke.cont228:                                   ; preds = %invoke.cont225
  %48 = load i32, ptr %ref.tmp224, align 4
  store ptr %call227, ptr %ref.tmp223, align 8
  %49 = getelementptr inbounds { ptr, i32 }, ptr %ref.tmp223, i64 0, i32 1
  store i32 %48, ptr %49, align 8
  %m_value.i.i.i854 = getelementptr inbounds %"struct.nlohmann::json_abi_v3_11_3::basic_json<>::data", ptr %ref.tmp232, i64 0, i32 1
  store i64 0, ptr %ref.tmp232, align 8
  store i8 5, ptr %ref.tmp232, align 8
  store i64 1, ptr %m_value.i.i.i854, align 8
  %value_ref.i856 = getelementptr inbounds %"class.nlohmann::json_abi_v3_11_3::detail::json_ref", ptr %ref.tmp232, i64 0, i32 1
  %arrayinit.element238 = getelementptr inbounds %"class.nlohmann::json_abi_v3_11_3::detail::json_ref", ptr %ref.tmp232, i64 1
  %m_value.i.i.i857 = getelementptr inbounds %"class.nlohmann::json_abi_v3_11_3::detail::json_ref", ptr %ref.tmp232, i64 1, i32 0, i32 0, i32 1
  call void @llvm.memset.p0.i64(ptr noundef nonnull align 8 dereferenceable(16) %value_ref.i856, i8 0, i64 16, i1 false)
  store i8 5, ptr %arrayinit.element238, align 8
  store i64 2, ptr %m_value.i.i.i857, align 8
  %value_ref.i859 = getelementptr inbounds %"class.nlohmann::json_abi_v3_11_3::detail::json_ref", ptr %ref.tmp232, i64 1, i32 1
  %arrayinit.element241 = getelementptr inbounds %"class.nlohmann::json_abi_v3_11_3::detail::json_ref", ptr %ref.tmp232, i64 2
  %m_value.i.i.i860 = getelementptr inbounds %"class.nlohmann::json_abi_v3_11_3::detail::json_ref", ptr %ref.tmp232, i64 2, i32 0, i32 0, i32 1
  call void @llvm.memset.p0.i64(ptr noundef nonnull align 8 dereferenceable(16) %value_ref.i859, i8 0, i64 16, i1 false)
  store i8 5, ptr %arrayinit.element241, align 8
  store i64 3, ptr %m_value.i.i.i860, align 8
  %value_ref.i862 = getelementptr inbounds %"class.nlohmann::json_abi_v3_11_3::detail::json_ref", ptr %ref.tmp232, i64 2, i32 1
  store ptr null, ptr %value_ref.i862, align 8
  invoke void @_ZN8nlohmann16json_abi_v3_11_310basic_jsonISt3mapSt6vectorNSt7__cxx1112basic_stringIcSt11char_traitsIcESaIcEEEblmdSaNS0_14adl_serializerES3_IhSaIhEEvEC2ESt16initializer_listINS0_6detail8json_refISD_EEEbNSF_7value_tE(ptr noundef nonnull align 8 dereferenceable(16) %ref.tmp230, ptr nonnull %ref.tmp232, i64 3, i1 noundef zeroext true, i8 noundef zeroext 2)
          to label %invoke.cont255 unwind label %lpad254

invoke.cont255:                                   ; preds = %invoke.cont228
  invoke void @_ZN7doctest6detail14Expression_lhsIRN8nlohmann16json_abi_v3_11_310basic_jsonISt3mapSt6vectorNSt7__cxx1112basic_stringIcSt11char_traitsIcESaIcEEEblmdSaNS3_14adl_serializerES6_IhSaIhEEvEEEeqISG_EEDTcmcvveqclL_ZNS0_7declvalISH_EEOT_vEEclsr7doctest6detailE7declvalISL_EEtlNS0_6ResultEEESM_(ptr nonnull sret(%"struct.doctest::detail::Result") align 8 %ref.tmp222, ptr noundef nonnull align 8 dereferenceable(12) %ref.tmp223, ptr noundef nonnull align 8 dereferenceable(16) %ref.tmp230)
          to label %invoke.cont257 unwind label %lpad256

invoke.cont257:                                   ; preds = %invoke.cont255
  %call260 = invoke noundef zeroext i1 @_ZN7doctest6detail13decomp_assertENS_10assertType4EnumEPKciS4_RKNS0_6ResultE(i32 noundef 10, ptr noundef nonnull @.str.2, i32 noundef 33, ptr noundef nonnull @.str.15, ptr noundef nonnull align 8 dereferenceable(32) %ref.tmp222)
          to label %invoke.cont259 unwind label %lpad258

invoke.cont259:                                   ; preds = %invoke.cont257
  %m_decomp.i863 = getelementptr inbounds %"struct.doctest::detail::Result", ptr %ref.tmp222, i64 0, i32 1
  call void @_ZN7doctest6StringD1Ev(ptr noundef nonnull align 8 dereferenceable(24) %m_decomp.i863) #20
  %m_value.i.i864 = getelementptr inbounds %"struct.nlohmann::json_abi_v3_11_3::basic_json<>::data", ptr %ref.tmp230, i64 0, i32 1
  %50 = load i8, ptr %ref.tmp230, align 8
  invoke void @_ZN8nlohmann16json_abi_v3_11_310basic_jsonISt3mapSt6vectorNSt7__cxx1112basic_stringIcSt11char_traitsIcESaIcEEEblmdSaNS0_14adl_serializerES3_IhSaIhEEvE10json_value7destroyENS0_6detail7value_tE(ptr noundef nonnull align 8 dereferenceable(8) %m_value.i.i864, i8 noundef zeroext %50)
          to label %_ZN8nlohmann16json_abi_v3_11_310basic_jsonISt3mapSt6vectorNSt7__cxx1112basic_stringIcSt11char_traitsIcESaIcEEEblmdSaNS0_14adl_serializerES3_IhSaIhEEvED2Ev.exit866 unwind label %terminate.lpad.i.i865

terminate.lpad.i.i865:                            ; preds = %invoke.cont259
  %51 = landingpad { ptr, i32 }
          catch ptr null
  %52 = extractvalue { ptr, i32 } %51, 0
  call void @__clang_call_terminate(ptr %52) #21
  unreachable

_ZN8nlohmann16json_abi_v3_11_310basic_jsonISt3mapSt6vectorNSt7__cxx1112basic_stringIcSt11char_traitsIcESaIcEEEblmdSaNS0_14adl_serializerES3_IhSaIhEEvED2Ev.exit866: ; preds = %invoke.cont259
  %53 = getelementptr inbounds %"class.nlohmann::json_abi_v3_11_3::detail::json_ref", ptr %ref.tmp232, i64 3
  br label %arraydestroy.body264

arraydestroy.body264:                             ; preds = %_ZN8nlohmann16json_abi_v3_11_36detail8json_refINS0_10basic_jsonISt3mapSt6vectorNSt7__cxx1112basic_stringIcSt11char_traitsIcESaIcEEEblmdSaNS0_14adl_serializerES5_IhSaIhEEvEEED2Ev.exit869, %_ZN8nlohmann16json_abi_v3_11_310basic_jsonISt3mapSt6vectorNSt7__cxx1112basic_stringIcSt11char_traitsIcESaIcEEEblmdSaNS0_14adl_serializerES3_IhSaIhEEvED2Ev.exit866
  %arraydestroy.elementPast265 = phi ptr [ %53, %_ZN8nlohmann16json_abi_v3_11_310basic_jsonISt3mapSt6vectorNSt7__cxx1112basic_stringIcSt11char_traitsIcESaIcEEEblmdSaNS0_14adl_serializerES3_IhSaIhEEvED2Ev.exit866 ], [ %arraydestroy.element266, %_ZN8nlohmann16json_abi_v3_11_36detail8json_refINS0_10basic_jsonISt3mapSt6vectorNSt7__cxx1112basic_stringIcSt11char_traitsIcESaIcEEEblmdSaNS0_14adl_serializerES5_IhSaIhEEvEEED2Ev.exit869 ]
  %arraydestroy.element266 = getelementptr inbounds %"class.nlohmann::json_abi_v3_11_3::detail::json_ref", ptr %arraydestroy.elementPast265, i64 -1
  %m_value.i.i.i867 = getelementptr %"class.nlohmann::json_abi_v3_11_3::detail::json_ref", ptr %arraydestroy.elementPast265, i64 -1, i32 0, i32 0, i32 1
  %54 = load i8, ptr %arraydestroy.element266, align 8
  invoke void @_ZN8nlohmann16json_abi_v3_11_310basic_jsonISt3mapSt6vectorNSt7__cxx1112basic_stringIcSt11char_traitsIcESaIcEEEblmdSaNS0_14adl_serializerES3_IhSaIhEEvE10json_value7destroyENS0_6detail7value_tE(ptr noundef nonnull align 8 dereferenceable(8) %m_value.i.i.i867, i8 noundef zeroext %54)
          to label %_ZN8nlohmann16json_abi_v3_11_36detail8json_refINS0_10basic_jsonISt3mapSt6vectorNSt7__cxx1112basic_stringIcSt11char_traitsIcESaIcEEEblmdSaNS0_14adl_serializerES5_IhSaIhEEvEEED2Ev.exit869 unwind label %terminate.lpad.i.i.i868

terminate.lpad.i.i.i868:                          ; preds = %arraydestroy.body264
  %55 = landingpad { ptr, i32 }
          catch ptr null
  %56 = extractvalue { ptr, i32 } %55, 0
  call void @__clang_call_terminate(ptr %56) #21
  unreachable

_ZN8nlohmann16json_abi_v3_11_36detail8json_refINS0_10basic_jsonISt3mapSt6vectorNSt7__cxx1112basic_stringIcSt11char_traitsIcESaIcEEEblmdSaNS0_14adl_serializerES5_IhSaIhEEvEEED2Ev.exit869: ; preds = %arraydestroy.body264
  %arraydestroy.done267 = icmp eq ptr %arraydestroy.element266, %ref.tmp232
  br i1 %arraydestroy.done267, label %arraydestroy.done268, label %arraydestroy.body264

arraydestroy.done268:                             ; preds = %_ZN8nlohmann16json_abi_v3_11_36detail8json_refINS0_10basic_jsonISt3mapSt6vectorNSt7__cxx1112basic_stringIcSt11char_traitsIcESaIcEEEblmdSaNS0_14adl_serializerES5_IhSaIhEEvEEED2Ev.exit869
  invoke void @_ZN7doctest6detail20ExpressionDecomposerC1ENS_10assertType4EnumE(ptr noundef nonnull align 4 dereferenceable(4) %ref.tmp278, i32 noundef 10)
          to label %invoke.cont279 unwind label %lpad99

invoke.cont279:                                   ; preds = %arraydestroy.done268
  %call281 = invoke noundef nonnull align 8 dereferenceable(16) ptr @_ZNK8nlohmann16json_abi_v3_11_310basic_jsonISt3mapSt6vectorNSt7__cxx1112basic_stringIcSt11char_traitsIcESaIcEEEblmdSaNS0_14adl_serializerES3_IhSaIhEEvE2atEm(ptr noundef nonnull align 8 dereferenceable(16) %j_const, i64 noundef 0)
          to label %_ZN8nlohmann16json_abi_v3_11_310basic_jsonISt3mapSt6vectorNSt7__cxx1112basic_stringIcSt11char_traitsIcESaIcEEEblmdSaNS0_14adl_serializerES3_IhSaIhEEvEC2IiiTnNSt9enable_ifIXaantsr6detail13is_basic_jsonIT0_EE5valuesr6detail18is_compatible_typeISD_SG_EE5valueEiE4typeELi0EEEOT_.exit875 unwind label %lpad99

_ZN8nlohmann16json_abi_v3_11_310basic_jsonISt3mapSt6vectorNSt7__cxx1112basic_stringIcSt11char_traitsIcESaIcEEEblmdSaNS0_14adl_serializerES3_IhSaIhEEvEC2IiiTnNSt9enable_ifIXaantsr6detail13is_basic_jsonIT0_EE5valuesr6detail18is_compatible_typeISD_SG_EE5valueEiE4typeELi0EEEOT_.exit875: ; preds = %invoke.cont279
  %57 = load i32, ptr %ref.tmp278, align 4
  store ptr %call281, ptr %ref.tmp277, align 8
  %58 = getelementptr inbounds { ptr, i32 }, ptr %ref.tmp277, i64 0, i32 1
  store i32 %57, ptr %58, align 8
  %m_value.i.i872 = getelementptr inbounds %"struct.nlohmann::json_abi_v3_11_3::basic_json<>::data", ptr %ref.tmp284, i64 0, i32 1
  store i64 0, ptr %ref.tmp284, align 8
  store i8 5, ptr %ref.tmp284, align 8
  store i64 1, ptr %m_value.i.i872, align 8
  invoke void @_ZN7doctest6detail14Expression_lhsIRKN8nlohmann16json_abi_v3_11_310basic_jsonISt3mapSt6vectorNSt7__cxx1112basic_stringIcSt11char_traitsIcESaIcEEEblmdSaNS3_14adl_serializerES6_IhSaIhEEvEEEeqISG_EEDTcmcvveqclL_ZNS0_7declvalISI_EEOT_vEEclsr7doctest6detailE7declvalISM_EEtlNS0_6ResultEEESN_(ptr nonnull sret(%"struct.doctest::detail::Result") align 8 %ref.tmp276, ptr noundef nonnull align 8 dereferenceable(12) %ref.tmp277, ptr noundef nonnull align 8 dereferenceable(16) %ref.tmp284)
          to label %invoke.cont287 unwind label %lpad286

invoke.cont287:                                   ; preds = %_ZN8nlohmann16json_abi_v3_11_310basic_jsonISt3mapSt6vectorNSt7__cxx1112basic_stringIcSt11char_traitsIcESaIcEEEblmdSaNS0_14adl_serializerES3_IhSaIhEEvEC2IiiTnNSt9enable_ifIXaantsr6detail13is_basic_jsonIT0_EE5valuesr6detail18is_compatible_typeISD_SG_EE5valueEiE4typeELi0EEEOT_.exit875
  %call290 = invoke noundef zeroext i1 @_ZN7doctest6detail13decomp_assertENS_10assertType4EnumEPKciS4_RKNS0_6ResultE(i32 noundef 10, ptr noundef nonnull @.str.2, i32 noundef 35, ptr noundef nonnull @.str.16, ptr noundef nonnull align 8 dereferenceable(32) %ref.tmp276)
          to label %invoke.cont289 unwind label %lpad288

invoke.cont289:                                   ; preds = %invoke.cont287
  %m_decomp.i876 = getelementptr inbounds %"struct.doctest::detail::Result", ptr %ref.tmp276, i64 0, i32 1
  call void @_ZN7doctest6StringD1Ev(ptr noundef nonnull align 8 dereferenceable(24) %m_decomp.i876) #20
  %59 = load i8, ptr %ref.tmp284, align 8
  invoke void @_ZN8nlohmann16json_abi_v3_11_310basic_jsonISt3mapSt6vectorNSt7__cxx1112basic_stringIcSt11char_traitsIcESaIcEEEblmdSaNS0_14adl_serializerES3_IhSaIhEEvE10json_value7destroyENS0_6detail7value_tE(ptr noundef nonnull align 8 dereferenceable(8) %m_value.i.i872, i8 noundef zeroext %59)
          to label %_ZN8nlohmann16json_abi_v3_11_310basic_jsonISt3mapSt6vectorNSt7__cxx1112basic_stringIcSt11char_traitsIcESaIcEEEblmdSaNS0_14adl_serializerES3_IhSaIhEEvED2Ev.exit879 unwind label %terminate.lpad.i.i878

terminate.lpad.i.i878:                            ; preds = %invoke.cont289
  %60 = landingpad { ptr, i32 }
          catch ptr null
  %61 = extractvalue { ptr, i32 } %60, 0
  call void @__clang_call_terminate(ptr %61) #21
  unreachable

_ZN8nlohmann16json_abi_v3_11_310basic_jsonISt3mapSt6vectorNSt7__cxx1112basic_stringIcSt11char_traitsIcESaIcEEEblmdSaNS0_14adl_serializerES3_IhSaIhEEvED2Ev.exit879: ; preds = %invoke.cont289
  invoke void @_ZN7doctest6detail20ExpressionDecomposerC1ENS_10assertType4EnumE(ptr noundef nonnull align 4 dereferenceable(4) %ref.tmp295, i32 noundef 10)
          to label %invoke.cont296 unwind label %lpad99

invoke.cont296:                                   ; preds = %_ZN8nlohmann16json_abi_v3_11_310basic_jsonISt3mapSt6vectorNSt7__cxx1112basic_stringIcSt11char_traitsIcESaIcEEEblmdSaNS0_14adl_serializerES3_IhSaIhEEvED2Ev.exit879
  %call298 = invoke noundef nonnull align 8 dereferenceable(16) ptr @_ZNK8nlohmann16json_abi_v3_11_310basic_jsonISt3mapSt6vectorNSt7__cxx1112basic_stringIcSt11char_traitsIcESaIcEEEblmdSaNS0_14adl_serializerES3_IhSaIhEEvE2atEm(ptr noundef nonnull align 8 dereferenceable(16) %j_const, i64 noundef 1)
          to label %_ZN8nlohmann16json_abi_v3_11_310basic_jsonISt3mapSt6vectorNSt7__cxx1112basic_stringIcSt11char_traitsIcESaIcEEEblmdSaNS0_14adl_serializerES3_IhSaIhEEvEC2IjjTnNSt9enable_ifIXaantsr6detail13is_basic_jsonIT0_EE5valuesr6detail18is_compatible_typeISD_SG_EE5valueEiE4typeELi0EEEOT_.exit885 unwind label %lpad99

_ZN8nlohmann16json_abi_v3_11_310basic_jsonISt3mapSt6vectorNSt7__cxx1112basic_stringIcSt11char_traitsIcESaIcEEEblmdSaNS0_14adl_serializerES3_IhSaIhEEvEC2IjjTnNSt9enable_ifIXaantsr6detail13is_basic_jsonIT0_EE5valuesr6detail18is_compatible_typeISD_SG_EE5valueEiE4typeELi0EEEOT_.exit885: ; preds = %invoke.cont296
  %62 = load i32, ptr %ref.tmp295, align 4
  store ptr %call298, ptr %ref.tmp294, align 8
  %63 = getelementptr inbounds { ptr, i32 }, ptr %ref.tmp294, i64 0, i32 1
  store i32 %62, ptr %63, align 8
  %m_value.i.i882 = getelementptr inbounds %"struct.nlohmann::json_abi_v3_11_3::basic_json<>::data", ptr %ref.tmp301, i64 0, i32 1
  store i64 0, ptr %ref.tmp301, align 8
  store i8 6, ptr %ref.tmp301, align 8
  store i64 1, ptr %m_value.i.i882, align 8
  invoke void @_ZN7doctest6detail14Expression_lhsIRKN8nlohmann16json_abi_v3_11_310basic_jsonISt3mapSt6vectorNSt7__cxx1112basic_stringIcSt11char_traitsIcESaIcEEEblmdSaNS3_14adl_serializerES6_IhSaIhEEvEEEeqISG_EEDTcmcvveqclL_ZNS0_7declvalISI_EEOT_vEEclsr7doctest6detailE7declvalISM_EEtlNS0_6ResultEEESN_(ptr nonnull sret(%"struct.doctest::detail::Result") align 8 %ref.tmp293, ptr noundef nonnull align 8 dereferenceable(12) %ref.tmp294, ptr noundef nonnull align 8 dereferenceable(16) %ref.tmp301)
          to label %invoke.cont304 unwind label %lpad303

