target datalayout = "e-m:e-p270:32:32-p271:32:32-p272:64:64-i64:64-i128:128-f80:128-n8:16:32:64-S128"
target triple = "x86_64-unknown-linux-gnu"

%"class.std::ios_base::Init" = type { i8 }
%class.symbol = type { ptr }
%"struct.std::piecewise_construct_t" = type { i8 }
%"class.std::set" = type { %"class.std::_Rb_tree.171" }
%"class.std::_Rb_tree.171" = type { %"struct.std::_Rb_tree<func_decl *, func_decl *, std::_Identity<func_decl *>, std::less<func_decl *>>::_Rb_tree_impl" }
%"struct.std::_Rb_tree<func_decl *, func_decl *, std::_Identity<func_decl *>, std::less<func_decl *>>::_Rb_tree_impl" = type { %"struct.std::_Rb_tree_key_compare.175", %"struct.std::_Rb_tree_header" }
%"struct.std::_Rb_tree_key_compare.175" = type { %"struct.std::less.176" }
%"struct.std::less.176" = type { i8 }
%"struct.std::_Rb_tree_header" = type { %"struct.std::_Rb_tree_node_base", i64 }
%"struct.std::_Rb_tree_node_base" = type { i32, ptr, ptr, ptr }
%"class.core_hashtable<obj_map<func_decl, ptr_vector<datalog::rule> *>::obj_map_entry, obj_hash<obj_map<func_decl, ptr_vector<datalog::rule> *>::key_data>, default_eq<obj_map<func_decl, ptr_vector<datalog::rule> *>::key_data>>::iterator" = type { ptr, ptr }
%"struct.std::pair" = type <{ %"struct.std::_Rb_tree_const_iterator", i8, [7 x i8] }>
%"struct.std::_Rb_tree_const_iterator" = type { ptr }
%"class.datalog::aig_exporter" = type { ptr, ptr, ptr, ptr, %class.aig_manager, %class.obj_map, i32, [4 x i8], %class.obj_map.0, i32, %"class.std::map", i32, %class.ref_vector, %class.ref_vector, %class.ref_vector, %class.ref_vector, %class.svector, %"class.std::__cxx11::basic_stringstream" }
%class.aig_manager = type { ptr }
%class.obj_map = type { %class.core_hashtable }
%class.core_hashtable = type <{ ptr, i32, i32, i32, [4 x i8] }>
%class.obj_map.0 = type { %class.core_hashtable.1 }
%class.core_hashtable.1 = type <{ ptr, i32, i32, i32, [4 x i8] }>
%"class.std::map" = type { %"class.std::_Rb_tree" }
%"class.std::_Rb_tree" = type { %"struct.std::_Rb_tree<std::pair<unsigned int, unsigned int>, std::pair<const std::pair<unsigned int, unsigned int>, unsigned int>, std::_Select1st<std::pair<const std::pair<unsigned int, unsigned int>, unsigned int>>, std::less<std::pair<unsigned int, unsigned int>>>::_Rb_tree_impl" }
%"struct.std::_Rb_tree<std::pair<unsigned int, unsigned int>, std::pair<const std::pair<unsigned int, unsigned int>, unsigned int>, std::_Select1st<std::pair<const std::pair<unsigned int, unsigned int>, unsigned int>>, std::less<std::pair<unsigned int, unsigned int>>>::_Rb_tree_impl" = type { %"struct.std::_Rb_tree_key_compare", %"struct.std::_Rb_tree_header" }
%"struct.std::_Rb_tree_key_compare" = type { %"struct.std::less" }
%"struct.std::less" = type { i8 }
%class.ref_vector = type { %class.ref_vector_core }
%class.ref_vector_core = type { %class.ref_manager_wrapper, %class.ptr_vector }
%class.ref_manager_wrapper = type { ptr }
%class.ptr_vector = type { %class.vector }
%class.vector = type { ptr }
%class.svector = type { %class.vector.5 }
%class.vector.5 = type { ptr }
%"class.std::__cxx11::basic_stringstream" = type { %"class.std::basic_iostream.base", %"class.std::__cxx11::basic_stringbuf", %"class.std::basic_ios" }
%"class.std::basic_iostream.base" = type { %"class.std::basic_istream.base", %"class.std::basic_ostream.base" }
%"class.std::basic_istream.base" = type { ptr, i64 }
%"class.std::basic_ostream.base" = type { ptr }
%"class.std::__cxx11::basic_stringbuf" = type { %"class.std::basic_streambuf", i32, %"class.std::__cxx11::basic_string" }
%"class.std::basic_streambuf" = type { ptr, ptr, ptr, ptr, ptr, ptr, ptr, %"class.std::locale" }
%"class.std::locale" = type { ptr }
%"class.std::__cxx11::basic_string" = type { %"struct.std::__cxx11::basic_string<char>::_Alloc_hider", i64, %union.anon }
%"struct.std::__cxx11::basic_string<char>::_Alloc_hider" = type { ptr }
%union.anon = type { i64, [8 x i8] }
%"class.std::basic_ios" = type { %"class.std::ios_base", ptr, i8, i8, ptr, ptr, ptr, ptr }
%"class.std::ios_base" = type { ptr, i64, i64, i32, i32, i32, ptr, %"struct.std::ios_base::_Words", [8 x %"struct.std::ios_base::_Words"], i32, ptr, %"class.std::locale" }
%"struct.std::ios_base::_Words" = type { ptr, i64 }
%"struct.obj_map<func_decl, ptr_vector<datalog::rule> *>::key_data" = type { ptr, ptr }
%"struct.std::pair.179" = type { ptr, %"class.datalog::relation_fact" }
%"class.datalog::relation_fact" = type { %class.ref_vector.48 }
%class.ref_vector.48 = type { %class.ref_vector_core.49 }
%class.ref_vector_core.49 = type { %class.ref_manager_wrapper.50, %class.ptr_vector.51 }
%class.ref_manager_wrapper.50 = type { ptr }
%class.ptr_vector.51 = type { %class.vector.52 }
%class.vector.52 = type { ptr }
%"class.datalog::context" = type <{ ptr, ptr, ptr, %class.params_ref, ptr, i8, i8, [6 x i8], %class.symbol, %"class.datalog::dl_decl_util", %class.th_rewriter, %class.var_subst, %"class.datalog::rule_manager", %"class.datalog::context::contains_pred", %"class.datalog::rule_properties", %"class.datalog::rule_transformer", %class.trail_stack, %class.ref_vector.89, %class.bind_variables, %class.obj_map.125, %class.obj_hashtable.26, %class.map.130, %class.obj_map.134, %"class.datalog::rule_set", %"class.datalog::rule_set", %class.expr_free_vars, i32, [4 x i8], %class.ref_vector, %class.svector.123, %class.vector.139, %class.ref_vector, %class.ref, %class.ref.140, ptr, %class.scoped_ptr.141, i8, i8, i8, i8, i32, %class.obj_ref, %class.obj_ref, i32, [4 x i8] }>
%class.params_ref = type { ptr }
%"class.datalog::dl_decl_util" = type <{ ptr, %class.scoped_ptr.42, %class.scoped_ptr.43, i32, [4 x i8] }>
%class.scoped_ptr.42 = type { ptr }
%class.scoped_ptr.43 = type { ptr }
%class.th_rewriter = type { ptr, %class.params_ref }
%class.var_subst = type { %class.beta_reducer, i8, [7 x i8] }
%class.beta_reducer = type <{ %class.rewriter_tpl, %struct.beta_reducer_cfg, [7 x i8] }>
%class.rewriter_tpl = type { %class.rewriter_core, ptr, i32, %class.ptr_vector, %class.var_shifter, %class.inv_var_shifter, %class.obj_ref, %class.obj_ref.55, %class.obj_ref.55, %class.svector }
%class.rewriter_core = type { ptr, ptr, i8, i8, %class.ptr_vector.44, ptr, %class.svector.46, %class.ref_vector, %class.ptr_vector.44, ptr, %class.ref_vector.48, %class.obj_hashtable, ptr, i32, %class.svector.53 }
%class.svector.46 = type { %class.vector.47 }
%class.vector.47 = type { ptr }
%class.ptr_vector.44 = type { %class.vector.45 }
%class.vector.45 = type { ptr }
%class.obj_hashtable = type { %class.core_hashtable.base.25, [4 x i8] }
%class.core_hashtable.base.25 = type <{ ptr, i32, i32, i32 }>
%class.svector.53 = type { %class.vector.54 }
%class.vector.54 = type { ptr }
%class.var_shifter = type <{ %class.var_shifter_core, i32, i32, i32, [4 x i8] }>
%class.var_shifter_core = type { %class.rewriter_core }
%class.inv_var_shifter = type <{ %class.var_shifter_core, i32, [4 x i8] }>
%class.obj_ref.55 = type { ptr, ptr }
%struct.beta_reducer_cfg = type { i8 }
%"class.datalog::rule_manager" = type { ptr, ptr, %"class.datalog::rule_counter", %class.used_vars, %class.uint_set, %class.expr_free_vars, %class.ref_vector.48, %class.obj_ref.55, %class.ref_vector, %class.svector.66, %class.hnf, %class.qe_lite, %class.label_rewriter, %"struct.datalog::uninterpreted_function_finder_proc", %"struct.datalog::quantifier_finder_proc", [5 x i8], %class.expr_sparse_mark, %"struct.datalog::fd_finder_proc" }
%"class.datalog::rule_counter" = type { %class.var_counter }
%class.var_counter = type { %class.counter, %class.ast_fast_mark, %class.expr_free_vars, %class.ptr_vector, %class.svector }
%class.counter = type { %class.u_map }
%class.u_map = type { %class.map }
%class.map = type { %class.table2map }
%class.table2map = type { %class.core_hashtable.56 }
%class.core_hashtable.56 = type <{ ptr, i32, i32, i32, [4 x i8] }>
%class.ast_fast_mark = type { %class.ptr_buffer }
%class.ptr_buffer = type { %class.buffer }
%class.buffer = type { ptr, i32, i32, [16 x %"union.std::aligned_storage<8, 8>::type"] }
%"union.std::aligned_storage<8, 8>::type" = type { [8 x i8] }
%class.used_vars = type { %class.ptr_vector.58, %class.hashtable, %class.svector.64, i32, i32 }
%class.ptr_vector.58 = type { %class.vector.59 }
%class.vector.59 = type { ptr }
%class.hashtable = type { %class.core_hashtable.base.63, [4 x i8] }
%class.core_hashtable.base.63 = type <{ ptr, i32, i32, i32 }>
%class.svector.64 = type { %class.vector.65 }
%class.vector.65 = type { ptr }
%class.uint_set = type { %class.svector }
%class.svector.66 = type { %class.vector.67 }
%class.vector.67 = type { ptr }
%class.hnf = type { ptr }
%class.qe_lite = type { ptr }
%class.label_rewriter = type { i32, %class.rewriter_tpl.68 }
%class.rewriter_tpl.68 = type { %class.rewriter_core, ptr, i32, %class.ptr_vector, %class.var_shifter, %class.inv_var_shifter, %class.obj_ref, %class.obj_ref.55, %class.obj_ref.55, %class.svector }
%"struct.datalog::uninterpreted_function_finder_proc" = type { ptr, %"class.datatype::util", %"class.datalog::dl_decl_util", i8, ptr }
%"class.datatype::util" = type { ptr, i32, ptr, %class.obj_map.69, %class.obj_map.74, %class.obj_map.79, %class.obj_map.32, %class.obj_map.32, %class.obj_map.32, %class.obj_map.84, %class.obj_map.84, %class.obj_map.84, %class.ref_vector.89, %class.ref_vector_core.94, %class.ptr_vector.97, i32, %class.ptr_vector.58 }
%class.obj_map.69 = type { %class.core_hashtable.70 }
%class.core_hashtable.70 = type <{ ptr, i32, i32, i32, [4 x i8] }>
%class.obj_map.74 = type { %class.core_hashtable.75 }
%class.core_hashtable.75 = type <{ ptr, i32, i32, i32, [4 x i8] }>
%class.obj_map.79 = type { %class.core_hashtable.80 }
%class.core_hashtable.80 = type <{ ptr, i32, i32, i32, [4 x i8] }>
%class.obj_map.32 = type { %class.core_hashtable.33 }
%class.core_hashtable.33 = type <{ ptr, i32, i32, i32, [4 x i8] }>
%class.obj_map.84 = type { %class.core_hashtable.85 }
%class.core_hashtable.85 = type <{ ptr, i32, i32, i32, [4 x i8] }>
%class.ref_vector_core.94 = type { %class.ptr_vector.95 }
%class.ptr_vector.95 = type { %class.vector.96 }
%class.vector.96 = type { ptr }
%class.ptr_vector.97 = type { %class.vector.98 }
%class.vector.98 = type { ptr }
%"struct.datalog::quantifier_finder_proc" = type { i8, i8, i8 }
%class.expr_sparse_mark = type { %class.obj_hashtable }
%"struct.datalog::fd_finder_proc" = type <{ ptr, %class.bv_util, i8, [7 x i8] }>
%class.bv_util = type { %class.bv_recognizers, ptr, ptr }
%class.bv_recognizers = type { i32 }
%"class.datalog::context::contains_pred" = type { %class.i_expr_pred, ptr }
%class.i_expr_pred = type { ptr }
%"class.datalog::rule_properties" = type <{ ptr, ptr, ptr, ptr, %"class.datatype::util", %"class.datalog::dl_decl_util", %class.arith_util, %class.bv_util, %class.array_util, %"class.recfun::util", i8, [7 x i8], ptr, %class.obj_map.99, %class.obj_map.104, %class.ptr_vector.12, %class.ptr_vector.12, %class.ptr_vector.12, i8, i8, [6 x i8] }>
%class.arith_util = type { ptr, ptr }
%class.array_util = type { %class.array_recognizers, ptr }
%class.array_recognizers = type { i32 }
%"class.recfun::util" = type { ptr, i32, ptr }
%class.obj_map.99 = type { %class.core_hashtable.100 }
%class.core_hashtable.100 = type <{ ptr, i32, i32, i32, [4 x i8] }>
%class.obj_map.104 = type { %class.core_hashtable.105 }
%class.core_hashtable.105 = type <{ ptr, i32, i32, i32, [4 x i8] }>
%class.ptr_vector.12 = type { %class.vector.13 }
%class.vector.13 = type { ptr }
%"class.datalog::rule_transformer" = type { ptr, ptr, i8, %class.svector.109 }
%class.svector.109 = type { %class.vector.110 }
%class.vector.110 = type { ptr }
%class.trail_stack = type { %class.ptr_vector.111, %class.svector, %class.region }
%class.ptr_vector.111 = type { %class.vector.112 }
%class.vector.112 = type { ptr }
%class.region = type { ptr, ptr, ptr, ptr, ptr }
%class.ref_vector.89 = type { %class.ref_vector_core.90 }
%class.ref_vector_core.90 = type { %class.ref_manager_wrapper.91, %class.ptr_vector.92 }
%class.ref_manager_wrapper.91 = type { ptr }
%class.ptr_vector.92 = type { %class.vector.93 }
%class.vector.93 = type { ptr }
%class.bind_variables = type { ptr, %class.ref_vector.48, %class.obj_map.113, %class.obj_map.118, %class.ref_vector, %class.ptr_vector.58, %class.svector.123, %class.ptr_vector, %class.ptr_vector }
%class.obj_map.113 = type { %class.core_hashtable.114 }
%class.core_hashtable.114 = type <{ ptr, i32, i32, i32, [4 x i8] }>
%class.obj_map.118 = type { %class.core_hashtable.119 }
%class.core_hashtable.119 = type <{ ptr, i32, i32, i32, [4 x i8] }>
%class.obj_map.125 = type { %class.core_hashtable.126 }
%class.core_hashtable.126 = type <{ ptr, i32, i32, i32, [4 x i8] }>
%class.obj_hashtable.26 = type { %class.core_hashtable.base.30, [4 x i8] }
%class.core_hashtable.base.30 = type <{ ptr, i32, i32, i32 }>
%class.map.130 = type { %class.table2map.131 }
%class.table2map.131 = type { %class.core_hashtable.132 }
%class.core_hashtable.132 = type <{ ptr, i32, i32, i32, [4 x i8] }>
%class.obj_map.134 = type { %class.core_hashtable.135 }
%class.core_hashtable.135 = type <{ ptr, i32, i32, i32, [4 x i8] }>
%"class.datalog::rule_set" = type { ptr, ptr, %class.ref_vector.9, %class.obj_map.14, %"class.datalog::rule_dependencies", %class.scoped_ptr, %class.obj_hashtable.26, %class.obj_map.32, %class.obj_map.32, %class.ref_vector.37, %class.ptr_vector.12 }
%class.ref_vector.9 = type { %class.ref_vector_core.10 }
%class.ref_vector_core.10 = type { %class.ref_manager_wrapper.11, %class.ptr_vector.12 }
%class.ref_manager_wrapper.11 = type { ptr }
%class.obj_map.14 = type { %class.core_hashtable.15 }
%class.core_hashtable.15 = type <{ ptr, i32, i32, i32, [4 x i8] }>
%"class.datalog::rule_dependencies" = type { %class.obj_map.19, ptr, %class.ptr_vector, %class.expr_sparse_mark, %class.obj_hashtable.26 }
%class.obj_map.19 = type { %class.core_hashtable.20 }
%class.core_hashtable.20 = type <{ ptr, i32, i32, i32, [4 x i8] }>
%class.scoped_ptr = type { ptr }
%class.ref_vector.37 = type { %class.ref_vector_core.38 }
%class.ref_vector_core.38 = type { %class.ref_manager_wrapper.39, %class.ptr_vector.40 }
%class.ref_manager_wrapper.39 = type { ptr }
%class.ptr_vector.40 = type { %class.vector.41 }
%class.vector.41 = type { ptr }
%class.expr_free_vars = type { %class.expr_sparse_mark, %class.ptr_vector.58, %class.ptr_vector }
%class.svector.123 = type { %class.vector.124 }
%class.vector.124 = type { ptr }
%class.vector.139 = type { ptr }
%class.ref = type { ptr }
%class.ref.140 = type { ptr }
%class.scoped_ptr.141 = type { ptr }
%class.obj_ref = type { ptr, ptr }
%struct.obj_hash = type { i8 }
%struct.default_eq = type { i8 }
%struct.obj_hash.2 = type { i8 }
%struct.default_eq.3 = type { i8 }
%"struct.std::pair.212" = type <{ %"struct.std::_Rb_tree_iterator.214", i8, [7 x i8] }>
%"struct.std::_Rb_tree_iterator.214" = type { ptr }
%"class.obj_map<func_decl, ptr_vector<datalog::rule> *>::obj_map_entry" = type { %"struct.obj_map<func_decl, ptr_vector<datalog::rule> *>::key_data" }
%class.vector.178 = type { ptr }
%class.ast_manager = type { %class.reslimit, %class.small_object_allocator, %class.family_manager, %class.parray_manager, %class.dependency_manager, %class.parray_manager.155, %class.ptr_vector.158, i32, i8, %class.ast_table, %class.obj_map.161, %class.id_gen, %class.id_gen, ptr, ptr, ptr, ptr, ptr, i32, i8, [3 x i8], %class.u_map.166, ptr, i8, i8, ptr, %class.symbol, %class.obj_map.32, ptr }
%class.reslimit = type { %"struct.std::atomic", i8, i64, i64, %class.svector.142, %class.ptr_vector.144 }
%"struct.std::atomic" = type { %"struct.std::__atomic_base" }
%"struct.std::__atomic_base" = type { i32 }
%class.svector.142 = type { %class.vector.143 }
%class.vector.143 = type { ptr }
%class.ptr_vector.144 = type { %class.vector.145 }
%class.vector.145 = type { ptr }
%class.small_object_allocator = type { [32 x ptr], [32 x ptr], i64 }
%class.family_manager = type { i32, %class.symbol_table, %class.svector.123 }
%class.symbol_table = type { %class.core_hashtable.146, %class.vector.148, %class.svector.149 }
%class.core_hashtable.146 = type <{ ptr, i32, i32, i32, [4 x i8] }>
%class.vector.148 = type { ptr }
%class.svector.149 = type { %class.vector.150 }
%class.vector.150 = type { ptr }
%class.parray_manager = type { ptr, ptr, %class.ptr_vector.151, %class.ptr_vector.151 }
%class.ptr_vector.151 = type { %class.vector.152 }
%class.vector.152 = type { ptr }
%class.dependency_manager = type { ptr, ptr, %class.ptr_vector.153 }
%class.ptr_vector.153 = type { %class.vector.154 }
%class.vector.154 = type { ptr }
%class.parray_manager.155 = type { ptr, ptr, %class.ptr_vector.156, %class.ptr_vector.156 }
%class.ptr_vector.156 = type { %class.vector.157 }
%class.vector.157 = type { ptr }
%class.ptr_vector.158 = type { %class.vector.159 }
%class.vector.159 = type { ptr }
%class.ast_table = type { %class.chashtable }
%class.chashtable = type { ptr, i32, i32, i32, i32, i32, i32, i32, ptr, ptr, ptr }
%class.obj_map.161 = type { %class.core_hashtable.162 }
%class.core_hashtable.162 = type <{ ptr, i32, i32, i32, [4 x i8] }>
%class.id_gen = type { i32, %class.svector }
%class.u_map.166 = type { %class.map.167 }
%class.map.167 = type { %class.table2map.168 }
%class.table2map.168 = type { %class.core_hashtable.169 }
%class.core_hashtable.169 = type <{ ptr, i32, i32, i32, [4 x i8] }>
%"struct.obj_map<func_decl, unsigned int>::key_data" = type <{ ptr, i32, [4 x i8] }>
%class.expr_offset = type <{ ptr, i32, [4 x i8] }>
%class.app = type { %class.expr, ptr, i32, [0 x ptr] }
%class.expr = type { %class.ast }
%class.ast = type { i32, i24, i32, i32 }
%class.ref_vector.191 = type { %class.ref_vector_core.192 }
%class.ref_vector_core.192 = type { %class.ref_manager_wrapper.193, %class.ptr_vector.194 }
%class.ref_manager_wrapper.193 = type { ptr }
%class.ptr_vector.194 = type { %class.vector.195 }
%class.vector.195 = type { ptr }
%class.substitution = type <{ ptr, %class.var_offset_map, %class.svector.183, %class.ref_vector, %class.svector, %class.svector.185, %class.expr_offset_map, %class.ref_vector, %class.expr_offset_map.188, i32, [4 x i8] }>
%class.var_offset_map = type <{ %class.svector.181, i32, i32, i32, [4 x i8] }>
%class.svector.181 = type { %class.vector.182 }
%class.vector.182 = type { ptr }
%class.svector.183 = type { %class.vector.184 }
%class.vector.184 = type { ptr }
%class.svector.185 = type { %class.vector.186 }
%class.vector.186 = type { ptr }
%class.expr_offset_map = type <{ %class.vector.187, i32, [4 x i8] }>
%class.vector.187 = type { ptr }
%class.expr_offset_map.188 = type <{ %class.vector.189, i32, [4 x i8] }>
%class.vector.189 = type { ptr }
%"class.std::allocator.6" = type { i8 }
%class.aig_ref = type { ptr, ptr }
%"class.core_hashtable<obj_hash_entry<func_decl>, obj_ptr_hash<func_decl>, ptr_eq<func_decl>>::iterator" = type { ptr, ptr }
%"class.datalog::rule" = type { %"class.datalog::accounted_object.base", ptr, ptr, i32, i32, i32, i32, %class.symbol, [0 x ptr] }
%"class.datalog::accounted_object.base" = type <{ ptr, ptr, %"struct.datalog::costs", %"struct.datalog::costs", i8 }>
%"struct.datalog::costs" = type { i32, i32 }
%class.default_exception = type { %class.z3_exception, %"class.std::__cxx11::basic_string" }
%class.z3_exception = type { ptr }
%"struct.std::pair.196" = type { i32, i32 }
%"struct.std::_Rb_tree_const_iterator.198" = type { ptr }
%"struct.std::_Rb_tree_iterator" = type { ptr }
%"struct.std::pair.199" = type { %"struct.std::pair.196", i32 }
%class.core_hashtable.27 = type <{ ptr, i32, i32, i32, [4 x i8] }>
%class.obj_hash_entry = type { ptr }
%"struct.obj_map<const expr, unsigned int>::key_data" = type <{ ptr, i32, [4 x i8] }>
%"class.std::tuple" = type { %"struct.std::_Tuple_impl" }
%"struct.std::_Tuple_impl" = type { %"struct.std::_Head_base" }
%"struct.std::_Head_base" = type { ptr }
%"class.std::tuple.219" = type { i8 }
%"struct.std::_Rb_tree_node" = type { %"struct.std::_Rb_tree_node_base", %"struct.__gnu_cxx::__aligned_membuf" }
%"struct.__gnu_cxx::__aligned_membuf" = type { [8 x i8] }
%"struct.std::_Rb_tree_node.201" = type <{ %"struct.std::_Rb_tree_node_base", %"struct.__gnu_cxx::__aligned_membuf.202", [4 x i8] }>
%"struct.__gnu_cxx::__aligned_membuf.202" = type { [12 x i8] }
%"class.obj_map<const expr, unsigned int>::obj_map_entry" = type { %"struct.obj_map<const expr, unsigned int>::key_data" }
%"class.obj_map<func_decl, unsigned int>::obj_map_entry" = type { %"struct.obj_map<func_decl, unsigned int>::key_data" }
%class.var = type { %class.expr, i32, ptr }
%"struct.var_offset_map<expr_offset>::data" = type { %class.expr_offset, i32, [4 x i8] }
%"struct.std::pair.203" = type { ptr, ptr }
%"struct.std::pair.205" = type { %"class.std::move_iterator", ptr }
%"class.std::move_iterator" = type { ptr }
%class.svector.207 = type { %class.vector.208 }
%class.vector.208 = type { ptr }
%class.svector.209 = type { %class.vector.210 }
%class.vector.210 = type { ptr }
%class.decl = type { %class.ast, %class.symbol, ptr }
%class.decl_info = type <{ i32, i32, %class.vector.211, i8, [7 x i8] }>
%class.vector.211 = type { ptr }
%struct._Guard = type { ptr }
%"struct.std::pair.216" = type { ptr, ptr }
%"struct.std::_Identity" = type { i8 }
%"struct.std::_Rb_tree<func_decl *, func_decl *, std::_Identity<func_decl *>, std::less<func_decl *>>::_Alloc_node" = type { ptr }
%"struct.std::_Select1st" = type { i8 }
%"struct.std::_Rb_tree<std::pair<unsigned int, unsigned int>, std::pair<const std::pair<unsigned int, unsigned int>, unsigned int>, std::_Select1st<std::pair<const std::pair<unsigned int, unsigned int>, unsigned int>>, std::less<std::pair<unsigned int, unsigned int>>>::_Auto_node" = type { ptr, ptr }

$_ZNK7datalog7context11get_managerEv = comdat any

$_ZN7datalog7context16get_rule_managerEv = comdat any

$_ZN7obj_mapI9func_decljEC2Ev = comdat any

$_ZN7obj_mapIK4exprjEC2Ev = comdat any

$_ZNSt3mapISt4pairIjjEjSt4lessIS1_ESaIS0_IKS1_jEEEC2Ev = comdat any

$_ZN10ref_vectorI4expr11ast_managerEC2ERS1_ = comdat any

$_ZN7svectorIjjEC2Ev = comdat any

$_ZNSt3setIP9func_declSt4lessIS1_ESaIS1_EEC2Ev = comdat any

$_ZNK7datalog8rule_set19begin_grouped_rulesEv = comdat any

$_ZNK7datalog8rule_set17end_grouped_rulesEv = comdat any

$_ZNK14core_hashtableIN7obj_mapI9func_declP10ptr_vectorIN7datalog4ruleEEE13obj_map_entryE8obj_hashINS7_8key_dataEE10default_eqISA_EE8iteratorneERKSF_ = comdat any

$_ZNSt3setIP9func_declSt4lessIS1_ESaIS1_EE6insertERKS1_ = comdat any

$_ZN14core_hashtableIN7obj_mapI9func_declP10ptr_vectorIN7datalog4ruleEEE13obj_map_entryE8obj_hashINS7_8key_dataEE10default_eqISA_EE8iteratorptEv = comdat any

$_ZN14core_hashtableIN7obj_mapI9func_declP10ptr_vectorIN7datalog4ruleEEE13obj_map_entryE8obj_hashINS7_8key_dataEE10default_eqISA_EE8iteratorppEv = comdat any

$_ZNK6vectorISt4pairIP9func_declN7datalog13relation_factEELb1EjE5beginEv = comdat any

$_ZNK6vectorISt4pairIP9func_declN7datalog13relation_factEELb1EjE3endEv = comdat any

$_ZNKSt3setIP9func_declSt4lessIS1_ESaIS1_EE4sizeEv = comdat any

$_ZN15ref_vector_coreI4expr19ref_manager_wrapperIS0_11ast_managerEE9push_backEPS0_ = comdat any

$_ZN11ast_manager14mk_fresh_constEPKcP4sortb = comdat any

$_ZNK11ast_manager12mk_bool_sortEv = comdat any

$_ZNSt3setIP9func_declSt4lessIS1_ESaIS1_EED2Ev = comdat any

$_ZN7svectorIjjED2Ev = comdat any

$_ZN10ref_vectorI4expr11ast_managerED2Ev = comdat any

$_ZNSt3mapISt4pairIjjEjSt4lessIS1_ESaIS0_IKS1_jEEED2Ev = comdat any

$_ZN7obj_mapIK4exprjED2Ev = comdat any

$_ZN7obj_mapI9func_decljED2Ev = comdat any

$_ZNK15ref_vector_coreI4expr19ref_manager_wrapperIS0_11ast_managerEE4sizeEv = comdat any

$_ZNK15ref_vector_coreI4expr19ref_manager_wrapperIS0_11ast_managerEE3getEj = comdat any

$_ZNK7obj_mapI9func_decljE4findEPS0_Rj = comdat any

$_ZN7obj_mapI9func_decljE6insertEPS0_RKj = comdat any

$_ZNK10ref_vectorI4expr11ast_managerEixEj = comdat any

$_ZN11ast_manager6mk_notEP4expr = comdat any

$_ZNK3app12get_num_argsEv = comdat any

$_ZNK3app7get_argEj = comdat any

$_Z6is_varPK3ast = comdat any

$_Z6to_varP3ast = comdat any

$_ZN11expr_offsetC2Ev = comdat any

$_ZNK12substitution4findEP3varjR11expr_offset = comdat any

$_ZN11ast_manager5mk_eqEP4exprS1_ = comdat any

$_ZNK11expr_offset8get_exprEv = comdat any

$_ZN12substitution6insertEP3varjRK11expr_offset = comdat any

$_ZN11expr_offsetC2EP4exprj = comdat any

$_ZN10ref_vectorI3var11ast_managerEC2ERS1_ = comdat any

$_ZN7datalog12rule_manager11get_counterEv = comdat any

$_ZNK7obj_mapI9func_declP10ptr_vectorIN7datalog4ruleEEE8key_data9get_valueEv = comdat any

$_ZN6vectorIPN7datalog4ruleELb0EjE5beginEv = comdat any

$_ZN6vectorIPN7datalog4ruleELb0EjE3endEv = comdat any

$_ZNK7datalog4rule22get_positive_tail_sizeEv = comdat any

$_ZNSt7__cxx1112basic_stringIcSt11char_traitsIcESaIcEEC2IS3_EEPKcRKS3_ = comdat any

$_ZN17default_exceptionC2EONSt7__cxx1112basic_stringIcSt11char_traitsIcESaIcEEE = comdat any

$_ZN17default_exceptionD2Ev = comdat any

$_ZNK7datalog4rule27get_uninterpreted_tail_sizeEv = comdat any

$_ZN15ref_vector_coreI4expr19ref_manager_wrapperIS0_11ast_managerEE5resetEv = comdat any

$_ZNK7datalog4rule8get_tailEj = comdat any

$_ZNK3app8get_declEv = comdat any

$_ZNK7datalog4rule8get_headEv = comdat any

$_ZN12substitution7reserveEjj = comdat any

$_ZNK7datalog4rule13get_tail_sizeEv = comdat any

$_ZN7obj_refI4expr11ast_managerEC2ERS1_ = comdat any

$_ZN12substitution5applyEP4exprR7obj_refIS0_11ast_managerE = comdat any

$_ZNK7obj_refI4expr11ast_managerEcvPS0_Ev = comdat any

$_ZN7obj_refI4expr11ast_managerED2Ev = comdat any

$_ZN11ast_manager6mk_andEjPKP4expr = comdat any

$_ZN15ref_vector_coreI4expr19ref_manager_wrapperIS0_11ast_managerEE4dataEv = comdat any

$_ZNK15ref_vector_coreI3app19ref_manager_wrapperIS0_11ast_managerEE4sizeEv = comdat any

$_ZNK7datalog13relation_factixEj = comdat any

$_ZN11ast_manager5mk_orEjPKP4expr = comdat any

$_ZN6vectorIjLb0EjE9push_backEOj = comdat any

$_ZNK7datalog8rule_set21get_output_predicatesEv = comdat any

$_ZNK14core_hashtableI14obj_hash_entryI9func_declE12obj_ptr_hashIS1_E6ptr_eqIS1_EE5beginEv = comdat any

$_ZNK14core_hashtableI14obj_hash_entryI9func_declE12obj_ptr_hashIS1_E6ptr_eqIS1_EE3endEv = comdat any

$_ZNK14core_hashtableI14obj_hash_entryI9func_declE12obj_ptr_hashIS1_E6ptr_eqIS1_EE8iteratorneERKS8_ = comdat any

$_ZN14core_hashtableI14obj_hash_entryI9func_declE12obj_ptr_hashIS1_E6ptr_eqIS1_EE8iteratordeEv = comdat any

$_ZN14core_hashtableI14obj_hash_entryI9func_declE12obj_ptr_hashIS1_E6ptr_eqIS1_EE8iteratorppEv = comdat any

$_ZNK6vectorIjLb0EjE4sizeEv = comdat any

$_ZN6vectorIjLb0EjEixEj = comdat any

$_ZN12substitutionD2Ev = comdat any

$_ZN10ref_vectorI3var11ast_managerED2Ev = comdat any

$_ZNK7obj_mapIK4exprjE4findEPS1_Rj = comdat any

$_Z17is_uninterp_constPK4expr = comdat any

$_ZNK3ast8get_kindEv = comdat any

$_Z6to_appPK3ast = comdat any

$_ZNK3app13get_decl_kindEv = comdat any

$_ZN7obj_mapIK4exprjE6insertEPS1_RKj = comdat any

$_ZSt4swapIjENSt9enable_ifIXsr6__and_ISt6__not_ISt15__is_tuple_likeIT_EESt21is_move_constructibleIS3_ESt18is_move_assignableIS3_EEE5valueEvE4typeERS3_SC_ = comdat any

$_ZNSt4pairIjjEC2IRjS2_TnNSt9enable_ifIXaaclsr5_PCCPE22_MoveConstructiblePairIT_T0_EEclsr5_PCCPE30_ImplicitlyMoveConvertiblePairIS4_S5_EEEbE4typeELb1EEEOS4_OS5_ = comdat any

$_ZNSt3mapISt4pairIjjEjSt4lessIS1_ESaIS0_IKS1_jEEE4findERS4_ = comdat any

$_ZNSt23_Rb_tree_const_iteratorISt4pairIKS0_IjjEjEEC2ERKSt17_Rb_tree_iteratorIS3_E = comdat any

$_ZStneRKSt23_Rb_tree_const_iteratorISt4pairIKS0_IjjEjEES6_ = comdat any

$_ZNSt3mapISt4pairIjjEjSt4lessIS1_ESaIS0_IKS1_jEEE3endEv = comdat any

$_ZNKSt23_Rb_tree_const_iteratorISt4pairIKS0_IjjEjEEptEv = comdat any

$_ZNSt3mapISt4pairIjjEjSt4lessIS1_ESaIS0_IKS1_jEEEixERS4_ = comdat any

$_ZN6vectorIjLb0EjE9push_backERKj = comdat any

$_ZNSt8_Rb_treeISt4pairIjjES0_IKS1_jESt10_Select1stIS3_ESt4lessIS1_ESaIS3_EEC2Ev = comdat any

$_ZNSt8_Rb_treeISt4pairIjjES0_IKS1_jESt10_Select1stIS3_ESt4lessIS1_ESaIS3_EE13_Rb_tree_implIS7_Lb1EEC2Ev = comdat any

$_ZNSaISt13_Rb_tree_nodeISt4pairIKS0_IjjEjEEEC2Ev = comdat any

$_ZNSt20_Rb_tree_key_compareISt4lessISt4pairIjjEEEC2Ev = comdat any

$_ZNSt15_Rb_tree_headerC2Ev = comdat any

$_ZNSt15__new_allocatorISt13_Rb_tree_nodeISt4pairIKS1_IjjEjEEEC2Ev = comdat any

$_ZNSt15_Rb_tree_header8_M_resetEv = comdat any

$__clang_call_terminate = comdat any

$_ZNSt8_Rb_treeIP9func_declS1_St9_IdentityIS1_ESt4lessIS1_ESaIS1_EEC2Ev = comdat any

$_ZNSt8_Rb_treeIP9func_declS1_St9_IdentityIS1_ESt4lessIS1_ESaIS1_EE13_Rb_tree_implIS5_Lb1EEC2Ev = comdat any

$_ZNSaISt13_Rb_tree_nodeIP9func_declEEC2Ev = comdat any

$_ZNSt20_Rb_tree_key_compareISt4lessIP9func_declEEC2Ev = comdat any

$_ZNSt15__new_allocatorISt13_Rb_tree_nodeIP9func_declEEC2Ev = comdat any

$_ZNK7obj_mapI9func_declP10ptr_vectorIN7datalog4ruleEEE5beginEv = comdat any

$_ZNK14core_hashtableIN7obj_mapI9func_declP10ptr_vectorIN7datalog4ruleEEE13obj_map_entryE8obj_hashINS7_8key_dataEE10default_eqISA_EE5beginEv = comdat any

$_ZN14core_hashtableIN7obj_mapI9func_declP10ptr_vectorIN7datalog4ruleEEE13obj_map_entryE8obj_hashINS7_8key_dataEE10default_eqISA_EE8iteratorC2EPS8_SG_ = comdat any

$_ZN14core_hashtableIN7obj_mapI9func_declP10ptr_vectorIN7datalog4ruleEEE13obj_map_entryE8obj_hashINS7_8key_dataEE10default_eqISA_EE8iterator12move_to_usedEv = comdat any

$_ZNK7obj_mapI9func_declP10ptr_vectorIN7datalog4ruleEEE13obj_map_entry7is_usedEv = comdat any

$_ZNK7obj_mapI9func_declP10ptr_vectorIN7datalog4ruleEEE3endEv = comdat any

$_ZNK14core_hashtableIN7obj_mapI9func_declP10ptr_vectorIN7datalog4ruleEEE13obj_map_entryE8obj_hashINS7_8key_dataEE10default_eqISA_EE3endEv = comdat any

$_ZN11ast_manager8mk_constEP9func_decl = comdat any

$_ZN11ast_manager18mk_fresh_func_declEPKcjPKP4sortS3_b = comdat any

$_ZNSt8_Rb_treeIP9func_declS1_St9_IdentityIS1_ESt4lessIS1_ESaIS1_EED2Ev = comdat any

$_ZNSt8_Rb_treeIP9func_declS1_St9_IdentityIS1_ESt4lessIS1_ESaIS1_EE8_M_eraseEPSt13_Rb_tree_nodeIS1_E = comdat any

$_ZNSt8_Rb_treeIP9func_declS1_St9_IdentityIS1_ESt4lessIS1_ESaIS1_EE8_M_beginEv = comdat any

$_ZNSt8_Rb_treeIP9func_declS1_St9_IdentityIS1_ESt4lessIS1_ESaIS1_EE13_Rb_tree_implIS5_Lb1EED2Ev = comdat any

$_ZNSt8_Rb_treeIP9func_declS1_St9_IdentityIS1_ESt4lessIS1_ESaIS1_EE8_S_rightEPSt18_Rb_tree_node_base = comdat any

$_ZNSt8_Rb_treeIP9func_declS1_St9_IdentityIS1_ESt4lessIS1_ESaIS1_EE7_S_leftEPSt18_Rb_tree_node_base = comdat any

$_ZNSt8_Rb_treeIP9func_declS1_St9_IdentityIS1_ESt4lessIS1_ESaIS1_EE12_M_drop_nodeEPSt13_Rb_tree_nodeIS1_E = comdat any

$_ZNSt8_Rb_treeIP9func_declS1_St9_IdentityIS1_ESt4lessIS1_ESaIS1_EE15_M_destroy_nodeEPSt13_Rb_tree_nodeIS1_E = comdat any

$_ZNSt8_Rb_treeIP9func_declS1_St9_IdentityIS1_ESt4lessIS1_ESaIS1_EE11_M_put_nodeEPSt13_Rb_tree_nodeIS1_E = comdat any

$_ZNSt16allocator_traitsISaISt13_Rb_tree_nodeIP9func_declEEE7destroyIS2_EEvRS4_PT_ = comdat any

$_ZNSt8_Rb_treeIP9func_declS1_St9_IdentityIS1_ESt4lessIS1_ESaIS1_EE21_M_get_Node_allocatorEv = comdat any

$_ZNSt13_Rb_tree_nodeIP9func_declE9_M_valptrEv = comdat any

$_ZNSt15__new_allocatorISt13_Rb_tree_nodeIP9func_declEE7destroyIS2_EEvPT_ = comdat any

$_ZN9__gnu_cxx16__aligned_membufIP9func_declE6_M_ptrEv = comdat any

$_ZN9__gnu_cxx16__aligned_membufIP9func_declE7_M_addrEv = comdat any

$_ZNSt16allocator_traitsISaISt13_Rb_tree_nodeIP9func_declEEE10deallocateERS4_PS3_m = comdat any

$_ZNSt15__new_allocatorISt13_Rb_tree_nodeIP9func_declEE10deallocateEPS3_m = comdat any

$_ZNKSt8_Rb_treeIP9func_declS1_St9_IdentityIS1_ESt4lessIS1_ESaIS1_EE9_M_mbeginEv = comdat any

$_ZNSaISt13_Rb_tree_nodeIP9func_declEED2Ev = comdat any

$_ZNSt15__new_allocatorISt13_Rb_tree_nodeIP9func_declEED2Ev = comdat any

$_ZN6vectorIjLb0EjED2Ev = comdat any

$_ZN6vectorIjLb0EjE7destroyEv = comdat any

$_ZN6vectorIjLb0EjE11free_memoryEv = comdat any

$_ZN15ref_vector_coreI4expr19ref_manager_wrapperIS0_11ast_managerEED2Ev = comdat any

$_ZN15ref_vector_coreI4expr19ref_manager_wrapperIS0_11ast_managerEE13dec_range_refEPKPS0_S7_ = comdat any

$_ZNK6vectorIP4exprLb0EjE4dataEv = comdat any

$_ZNK6vectorIP4exprLb0EjE4sizeEv = comdat any

$_ZN10ptr_vectorI4exprED2Ev = comdat any

$_ZN15ref_vector_coreI4expr19ref_manager_wrapperIS0_11ast_managerEE7dec_refEPS0_ = comdat any

$_ZN19ref_manager_wrapperI4expr11ast_managerE7dec_refEPS0_ = comdat any

$_ZN11ast_manager7dec_refEP3ast = comdat any

$_ZN3ast7dec_refEv = comdat any

$_ZNK3ast13get_ref_countEv = comdat any

$_ZN6vectorIP4exprLb0EjED2Ev = comdat any

$_ZN6vectorIP4exprLb0EjE7destroyEv = comdat any

$_ZN6vectorIP4exprLb0EjE11free_memoryEv = comdat any

$_ZNSt8_Rb_treeISt4pairIjjES0_IKS1_jESt10_Select1stIS3_ESt4lessIS1_ESaIS3_EED2Ev = comdat any

$_ZNSt8_Rb_treeISt4pairIjjES0_IKS1_jESt10_Select1stIS3_ESt4lessIS1_ESaIS3_EE8_M_eraseEPSt13_Rb_tree_nodeIS3_E = comdat any

$_ZNSt8_Rb_treeISt4pairIjjES0_IKS1_jESt10_Select1stIS3_ESt4lessIS1_ESaIS3_EE8_M_beginEv = comdat any

$_ZNSt8_Rb_treeISt4pairIjjES0_IKS1_jESt10_Select1stIS3_ESt4lessIS1_ESaIS3_EE13_Rb_tree_implIS7_Lb1EED2Ev = comdat any

$_ZNSt8_Rb_treeISt4pairIjjES0_IKS1_jESt10_Select1stIS3_ESt4lessIS1_ESaIS3_EE8_S_rightEPSt18_Rb_tree_node_base = comdat any

$_ZNSt8_Rb_treeISt4pairIjjES0_IKS1_jESt10_Select1stIS3_ESt4lessIS1_ESaIS3_EE7_S_leftEPSt18_Rb_tree_node_base = comdat any

$_ZNSt8_Rb_treeISt4pairIjjES0_IKS1_jESt10_Select1stIS3_ESt4lessIS1_ESaIS3_EE12_M_drop_nodeEPSt13_Rb_tree_nodeIS3_E = comdat any

$_ZNSt8_Rb_treeISt4pairIjjES0_IKS1_jESt10_Select1stIS3_ESt4lessIS1_ESaIS3_EE15_M_destroy_nodeEPSt13_Rb_tree_nodeIS3_E = comdat any

$_ZNSt8_Rb_treeISt4pairIjjES0_IKS1_jESt10_Select1stIS3_ESt4lessIS1_ESaIS3_EE11_M_put_nodeEPSt13_Rb_tree_nodeIS3_E = comdat any

$_ZNSt16allocator_traitsISaISt13_Rb_tree_nodeISt4pairIKS1_IjjEjEEEE7destroyIS4_EEvRS6_PT_ = comdat any

$_ZNSt8_Rb_treeISt4pairIjjES0_IKS1_jESt10_Select1stIS3_ESt4lessIS1_ESaIS3_EE21_M_get_Node_allocatorEv = comdat any

$_ZNSt13_Rb_tree_nodeISt4pairIKS0_IjjEjEE9_M_valptrEv = comdat any

$_ZNSt15__new_allocatorISt13_Rb_tree_nodeISt4pairIKS1_IjjEjEEE7destroyIS4_EEvPT_ = comdat any

$_ZN9__gnu_cxx16__aligned_membufISt4pairIKS1_IjjEjEE6_M_ptrEv = comdat any

$_ZN9__gnu_cxx16__aligned_membufISt4pairIKS1_IjjEjEE7_M_addrEv = comdat any

$_ZNSt16allocator_traitsISaISt13_Rb_tree_nodeISt4pairIKS1_IjjEjEEEE10deallocateERS6_PS5_m = comdat any

$_ZNSt15__new_allocatorISt13_Rb_tree_nodeISt4pairIKS1_IjjEjEEE10deallocateEPS5_m = comdat any

$_ZNKSt8_Rb_treeISt4pairIjjES0_IKS1_jESt10_Select1stIS3_ESt4lessIS1_ESaIS3_EE9_M_mbeginEv = comdat any

$_ZNSaISt13_Rb_tree_nodeISt4pairIKS0_IjjEjEEED2Ev = comdat any

$_ZNSt15__new_allocatorISt13_Rb_tree_nodeISt4pairIKS1_IjjEjEEED2Ev = comdat any

$_ZN14core_hashtableIN7obj_mapIK4exprjE13obj_map_entryE8obj_hashINS3_8key_dataEE10default_eqIS6_EED2Ev = comdat any

$_ZN14core_hashtableIN7obj_mapIK4exprjE13obj_map_entryE8obj_hashINS3_8key_dataEE10default_eqIS6_EE12delete_tableEv = comdat any

$_Z12dealloc_vectIN7obj_mapIK4exprjE13obj_map_entryEEvPT_j = comdat any

$_ZN14core_hashtableIN7obj_mapI9func_decljE13obj_map_entryE8obj_hashINS2_8key_dataEE10default_eqIS5_EED2Ev = comdat any

$_ZN14core_hashtableIN7obj_mapI9func_decljE13obj_map_entryE8obj_hashINS2_8key_dataEE10default_eqIS5_EE12delete_tableEv = comdat any

$_Z12dealloc_vectIN7obj_mapI9func_decljE13obj_map_entryEEvPT_j = comdat any

$_ZNK12substitution4findEjjR11expr_offset = comdat any

$_ZNK3var7get_idxEv = comdat any

$_ZNK14var_offset_mapI11expr_offsetE4findEjjRS0_ = comdat any

$_ZNK6vectorIN14var_offset_mapI11expr_offsetE4dataELb0EjEixEj = comdat any

$_ZNK11ast_manager9get_eq_opEPK4expr = comdat any

$_ZN12substitution6insertEjjRK11expr_offset = comdat any

$_ZN6vectorISt4pairIjjELb0EjE9push_backEOS1_ = comdat any

$_ZN14var_offset_mapI11expr_offsetE6insertEjjRKS0_ = comdat any

$_ZN6vectorISt4pairIjjELb0EjE13expand_vectorEv = comdat any

$_ZNK6vectorISt4pairIjjELb0EjE4sizeEv = comdat any

$_ZSt20uninitialized_move_nIPSt4pairIjjEjS2_ES0_IT_T1_ES3_T0_S4_ = comdat any

$_ZN6vectorISt4pairIjjELb0EjE7destroyEv = comdat any

$_ZSt27__uninitialized_copy_n_pairISt13move_iteratorIPSt4pairIjjEEjS3_ES1_IT_T1_ES5_T0_S6_ = comdat any

$_ZSt18make_move_iteratorIPSt4pairIjjEESt13move_iteratorIT_ES4_ = comdat any

$_ZNKSt13move_iteratorIPSt4pairIjjEE4baseEv = comdat any

$_ZNSt4pairIPS_IjjES1_EC2IS1_RS1_TnNSt9enable_ifIXaaclsr5_PCCPE22_MoveConstructiblePairIT_T0_EEclsr5_PCCPE30_ImplicitlyMoveConvertiblePairIS6_S7_EEEbE4typeELb1EEEOS6_OS7_ = comdat any

$_ZSt27__uninitialized_copy_n_pairISt13move_iteratorIPSt4pairIjjEEjS3_ES1_IT_T1_ES5_T0_S6_St26random_access_iterator_tag = comdat any

$_ZSt19__iterator_categoryISt13move_iteratorIPSt4pairIjjEEENSt15iterator_traitsIT_E17iterator_categoryERKS6_ = comdat any

$_ZSt18uninitialized_copyISt13move_iteratorIPSt4pairIjjEES3_ET0_T_S6_S5_ = comdat any

$_ZNKSt13move_iteratorIPSt4pairIjjEEplEl = comdat any

$_ZSt4nextISt13move_iteratorIPSt4pairIjjEEET_S5_NSt15iterator_traitsIS5_E15difference_typeE = comdat any

$_ZNSt4pairISt13move_iteratorIPS_IjjEES2_EC2IRS3_RS2_TnNSt9enable_ifIXaaclsr5_PCCPE22_MoveConstructiblePairIT_T0_EEclsr5_PCCPE30_ImplicitlyMoveConvertiblePairIS9_SA_EEEbE4typeELb1EEEOS9_OSA_ = comdat any

$_ZNSt20__uninitialized_copyILb0EE13__uninit_copyISt13move_iteratorIPSt4pairIjjEES5_EET0_T_S8_S7_ = comdat any

$_ZSt16__do_uninit_copyISt13move_iteratorIPSt4pairIjjEES3_ET0_T_S6_S5_ = comdat any

$_ZStneIPSt4pairIjjEEbRKSt13move_iteratorIT_ES7_ = comdat any

$_ZSt10_ConstructISt4pairIjjEJS1_EEvPT_DpOT0_ = comdat any

$_ZNKSt13move_iteratorIPSt4pairIjjEEdeEv = comdat any

$_ZNSt13move_iteratorIPSt4pairIjjEEppEv = comdat any

$_ZSt8_DestroyIPSt4pairIjjEEvT_S3_ = comdat any

$_ZSteqIPSt4pairIjjEEbRKSt13move_iteratorIT_ES7_ = comdat any

$_ZNSt12_Destroy_auxILb1EE9__destroyIPSt4pairIjjEEEvT_S5_ = comdat any

$_ZNSt13move_iteratorIPSt4pairIjjEEC2ES2_ = comdat any

$_ZSt7advanceISt13move_iteratorIPSt4pairIjjEElEvRT_T0_ = comdat any

$_ZSt9__advanceISt13move_iteratorIPSt4pairIjjEElEvRT_T0_St26random_access_iterator_tag = comdat any

$_ZNSt13move_iteratorIPSt4pairIjjEEmmEv = comdat any

$_ZNSt13move_iteratorIPSt4pairIjjEEpLEl = comdat any

$_ZN6vectorISt4pairIjjELb0EjE11free_memoryEv = comdat any

$_ZN6vectorIN14var_offset_mapI11expr_offsetE4dataELb0EjEixEj = comdat any

$_ZN12z3_exceptionC2Ev = comdat any

$_ZN12z3_exceptionD2Ev = comdat any

$_ZN14var_offset_mapI11expr_offsetE7reserveEjj = comdat any

$_ZN6vectorIN14var_offset_mapI11expr_offsetE4dataELb0EjE6resizeEj = comdat any

$_ZN14var_offset_mapI11expr_offsetE5resetEv = comdat any

$_ZNK6vectorIN14var_offset_mapI11expr_offsetE4dataELb0EjE4sizeEv = comdat any

$_ZN6vectorIN14var_offset_mapI11expr_offsetE4dataELb0EjE6shrinkEj = comdat any

$_ZNK6vectorIN14var_offset_mapI11expr_offsetE4dataELb0EjE8capacityEv = comdat any

$_ZN6vectorIN14var_offset_mapI11expr_offsetE4dataELb0EjE13expand_vectorEv = comdat any

$_ZN14var_offset_mapI11expr_offsetE4dataC2Ev = comdat any

$_ZN6vectorIN14var_offset_mapI11expr_offsetE4dataELb0EjE5beginEv = comdat any

$_ZN6vectorIN14var_offset_mapI11expr_offsetE4dataELb0EjE3endEv = comdat any

$_ZN12substitution5applyEjPKjRK11expr_offsetR7obj_refI4expr11ast_managerE = comdat any

$_ZNK15ref_vector_coreI3app19ref_manager_wrapperIS0_11ast_managerEE3getEj = comdat any

$_ZNK6vectorIP3appLb0EjEixEj = comdat any

$_ZN15expr_offset_mapIN12substitution5colorEED2Ev = comdat any

$_ZN15expr_offset_mapIP4exprED2Ev = comdat any

$_ZN7svectorI11expr_offsetjED2Ev = comdat any

$_ZN7svectorISt4pairIjjEjED2Ev = comdat any

$_ZN14var_offset_mapI11expr_offsetED2Ev = comdat any

$_ZN6vectorI7svectorIN15expr_offset_mapIN12substitution5colorEE4dataEjELb1EjED2Ev = comdat any

$_ZN6vectorI7svectorIN15expr_offset_mapIN12substitution5colorEE4dataEjELb1EjE7destroyEv = comdat any

$_ZN6vectorI7svectorIN15expr_offset_mapIN12substitution5colorEE4dataEjELb1EjE16destroy_elementsEv = comdat any

$_ZN6vectorI7svectorIN15expr_offset_mapIN12substitution5colorEE4dataEjELb1EjE11free_memoryEv = comdat any

$_ZSt9destroy_nIP7svectorIN15expr_offset_mapIN12substitution5colorEE4dataEjEjET_S8_T0_ = comdat any

$_ZNK6vectorI7svectorIN15expr_offset_mapIN12substitution5colorEE4dataEjELb1EjE4sizeEv = comdat any

$_ZSt10_Destroy_nIP7svectorIN15expr_offset_mapIN12substitution5colorEE4dataEjEjET_S8_T0_ = comdat any

$_ZNSt14_Destroy_n_auxILb0EE11__destroy_nIP7svectorIN15expr_offset_mapIN12substitution5colorEE4dataEjEjEET_SA_T0_ = comdat any

$_ZSt8_DestroyI7svectorIN15expr_offset_mapIN12substitution5colorEE4dataEjEEvPT_ = comdat any

$_ZN7svectorIN15expr_offset_mapIN12substitution5colorEE4dataEjED2Ev = comdat any

$_ZN6vectorIN15expr_offset_mapIN12substitution5colorEE4dataELb0EjED2Ev = comdat any

$_ZN6vectorIN15expr_offset_mapIN12substitution5colorEE4dataELb0EjE7destroyEv = comdat any

$_ZN6vectorIN15expr_offset_mapIN12substitution5colorEE4dataELb0EjE11free_memoryEv = comdat any

$_ZN6vectorI7svectorIN15expr_offset_mapIP4exprE4dataEjELb1EjED2Ev = comdat any

$_ZN6vectorI7svectorIN15expr_offset_mapIP4exprE4dataEjELb1EjE7destroyEv = comdat any

$_ZN6vectorI7svectorIN15expr_offset_mapIP4exprE4dataEjELb1EjE16destroy_elementsEv = comdat any

$_ZN6vectorI7svectorIN15expr_offset_mapIP4exprE4dataEjELb1EjE11free_memoryEv = comdat any

$_ZSt9destroy_nIP7svectorIN15expr_offset_mapIP4exprE4dataEjEjET_S8_T0_ = comdat any

$_ZNK6vectorI7svectorIN15expr_offset_mapIP4exprE4dataEjELb1EjE4sizeEv = comdat any

$_ZSt10_Destroy_nIP7svectorIN15expr_offset_mapIP4exprE4dataEjEjET_S8_T0_ = comdat any

$_ZNSt14_Destroy_n_auxILb0EE11__destroy_nIP7svectorIN15expr_offset_mapIP4exprE4dataEjEjEET_SA_T0_ = comdat any

$_ZSt8_DestroyI7svectorIN15expr_offset_mapIP4exprE4dataEjEEvPT_ = comdat any

$_ZN7svectorIN15expr_offset_mapIP4exprE4dataEjED2Ev = comdat any

$_ZN6vectorIN15expr_offset_mapIP4exprE4dataELb0EjED2Ev = comdat any

$_ZN6vectorIN15expr_offset_mapIP4exprE4dataELb0EjE7destroyEv = comdat any

$_ZN6vectorIN15expr_offset_mapIP4exprE4dataELb0EjE11free_memoryEv = comdat any

$_ZN6vectorI11expr_offsetLb0EjED2Ev = comdat any

$_ZN6vectorI11expr_offsetLb0EjE7destroyEv = comdat any

$_ZN6vectorI11expr_offsetLb0EjE11free_memoryEv = comdat any

$_ZN6vectorISt4pairIjjELb0EjED2Ev = comdat any

$_ZN7svectorIN14var_offset_mapI11expr_offsetE4dataEjED2Ev = comdat any

$_ZN6vectorIN14var_offset_mapI11expr_offsetE4dataELb0EjED2Ev = comdat any

$_ZN6vectorIN14var_offset_mapI11expr_offsetE4dataELb0EjE7destroyEv = comdat any

$_ZN6vectorIN14var_offset_mapI11expr_offsetE4dataELb0EjE11free_memoryEv = comdat any

$_ZN15ref_vector_coreI3var19ref_manager_wrapperIS0_11ast_managerEED2Ev = comdat any

$_ZN15ref_vector_coreI3var19ref_manager_wrapperIS0_11ast_managerEE13dec_range_refEPKPS0_S7_ = comdat any

$_ZNK6vectorIP3varLb0EjE4dataEv = comdat any

$_ZNK6vectorIP3varLb0EjE4sizeEv = comdat any

$_ZN10ptr_vectorI3varED2Ev = comdat any

$_ZN15ref_vector_coreI3var19ref_manager_wrapperIS0_11ast_managerEE7dec_refEPS0_ = comdat any

$_ZN19ref_manager_wrapperI3var11ast_managerE7dec_refEPS0_ = comdat any

$_ZN6vectorIP3varLb0EjED2Ev = comdat any

$_ZN6vectorIP3varLb0EjE7destroyEv = comdat any

$_ZN6vectorIP3varLb0EjE11free_memoryEv = comdat any

$_ZNK3app13get_family_idEv = comdat any

$_ZNK4decl13get_family_idEv = comdat any

$_ZNK9decl_info13get_family_idEv = comdat any

$_ZNK4decl13get_decl_kindEv = comdat any

$_ZNK9decl_info13get_decl_kindEv = comdat any

$_ZN6vectorIjLb0EjE13expand_vectorEv = comdat any

$_ZN6vectorIjLb0EjEC2Ev = comdat any

$_ZNK6vectorIP3appLb0EjE4sizeEv = comdat any

$_ZN7obj_refI4expr11ast_managerE7dec_refEv = comdat any

$_ZNSt11char_traitsIcE6lengthEPKc = comdat any

$_ZNSt7__cxx1112basic_stringIcSt11char_traitsIcESaIcEE12_M_constructIPKcEEvT_S8_St20forward_iterator_tag = comdat any

$_ZNSt7__cxx1112basic_stringIcSt11char_traitsIcESaIcEE12_Alloc_hiderD2Ev = comdat any

$_ZSt8distanceIPKcENSt15iterator_traitsIT_E15difference_typeES3_S3_ = comdat any

$_ZZNSt7__cxx1112basic_stringIcSt11char_traitsIcESaIcEE12_M_constructIPKcEEvT_S8_St20forward_iterator_tagEN6_GuardC2EPS4_ = comdat any

$_ZZNSt7__cxx1112basic_stringIcSt11char_traitsIcESaIcEE12_M_constructIPKcEEvT_S8_St20forward_iterator_tagEN6_GuardD2Ev = comdat any

$_ZSt10__distanceIPKcENSt15iterator_traitsIT_E15difference_typeES3_S3_St26random_access_iterator_tag = comdat any

$_ZSt19__iterator_categoryIPKcENSt15iterator_traitsIT_E17iterator_categoryERKS3_ = comdat any

$_ZN19ref_manager_wrapperI4expr11ast_managerEC2ERS1_ = comdat any

$_ZN15ref_vector_coreI4expr19ref_manager_wrapperIS0_11ast_managerEEC2ERKS3_ = comdat any

$_ZN10ptr_vectorI4exprEC2Ev = comdat any

$_ZN6vectorIP4exprLb0EjEC2Ev = comdat any

$_ZN15ref_vector_coreI4expr19ref_manager_wrapperIS0_11ast_managerEE7inc_refEPS0_ = comdat any

$_ZN6vectorIP4exprLb0EjE9push_backERKS1_ = comdat any

$_ZN19ref_manager_wrapperI4expr11ast_managerE7inc_refEPS0_ = comdat any

$_ZN11ast_manager7inc_refEP3ast = comdat any

$_ZN3ast7inc_refEv = comdat any

$_ZN6vectorIP4exprLb0EjE13expand_vectorEv = comdat any

$_ZNK15ref_vector_coreI4expr19ref_manager_wrapperIS0_11ast_managerEEixEj = comdat any

$_ZNK6vectorIP4exprLb0EjEixEj = comdat any

$_ZN6vectorIP4exprLb0EjE5resetEv = comdat any

$_ZN14core_hashtableIN7obj_mapI9func_decljE13obj_map_entryE8obj_hashINS2_8key_dataEE10default_eqIS5_EEC2EjRKS6_RKS8_ = comdat any

$_ZN14core_hashtableIN7obj_mapI9func_decljE13obj_map_entryE8obj_hashINS2_8key_dataEE10default_eqIS5_EE11alloc_tableEj = comdat any

$_Z10alloc_vectIN7obj_mapI9func_decljE13obj_map_entryEEPT_j = comdat any

$_ZN7obj_mapI9func_decljE13obj_map_entryC2Ev = comdat any

$_ZN7obj_mapI9func_decljE8key_dataC2Ev = comdat any

$_ZN14core_hashtableI14obj_hash_entryI9func_declE12obj_ptr_hashIS1_E6ptr_eqIS1_EE8iteratorC2EPS2_S9_ = comdat any

$_ZN14core_hashtableI14obj_hash_entryI9func_declE12obj_ptr_hashIS1_E6ptr_eqIS1_EE8iterator12move_to_usedEv = comdat any

$_ZNK14obj_hash_entryI9func_declE7is_usedEv = comdat any

$_ZN14obj_hash_entryI9func_declE8get_dataEv = comdat any

$_ZN14core_hashtableIN7obj_mapIK4exprjE13obj_map_entryE8obj_hashINS3_8key_dataEE10default_eqIS6_EEC2EjRKS7_RKS9_ = comdat any

$_ZN14core_hashtableIN7obj_mapIK4exprjE13obj_map_entryE8obj_hashINS3_8key_dataEE10default_eqIS6_EE11alloc_tableEj = comdat any

$_Z10alloc_vectIN7obj_mapIK4exprjE13obj_map_entryEEPT_j = comdat any

$_ZN7obj_mapIK4exprjE13obj_map_entryC2Ev = comdat any

$_ZN7obj_mapIK4exprjE8key_dataC2Ev = comdat any

$_ZN14core_hashtableIN7obj_mapI9func_declP10ptr_vectorIN7datalog4ruleEEE13obj_map_entryE8obj_hashINS7_8key_dataEE10default_eqISA_EE8iteratordeEv = comdat any

$_ZN7obj_mapI9func_declP10ptr_vectorIN7datalog4ruleEEE13obj_map_entry8get_dataEv = comdat any

$_ZNSt8_Rb_treeIP9func_declS1_St9_IdentityIS1_ESt4lessIS1_ESaIS1_EE16_M_insert_uniqueIRKS1_EESt4pairISt17_Rb_tree_iteratorIS1_EbEOT_ = comdat any

$_ZNSt4pairISt23_Rb_tree_const_iteratorIP9func_declEbEC2IRSt17_Rb_tree_iteratorIS2_ERbTnNSt9enable_ifIXaaclsr5_PCCPE22_MoveConstructiblePairIT_T0_EEclsr5_PCCPE30_ImplicitlyMoveConvertiblePairISB_SC_EEEbE4typeELb1EEEOSB_OSC_ = comdat any

$_ZNSt8_Rb_treeIP9func_declS1_St9_IdentityIS1_ESt4lessIS1_ESaIS1_EE24_M_get_insert_unique_posERKS1_ = comdat any

$_ZNKSt9_IdentityIP9func_declEclERKS1_ = comdat any

$_ZNSt8_Rb_treeIP9func_declS1_St9_IdentityIS1_ESt4lessIS1_ESaIS1_EE11_Alloc_nodeC2ERS7_ = comdat any

$_ZNSt8_Rb_treeIP9func_declS1_St9_IdentityIS1_ESt4lessIS1_ESaIS1_EE10_M_insert_IRKS1_NS7_11_Alloc_nodeEEESt17_Rb_tree_iteratorIS1_EPSt18_Rb_tree_node_baseSF_OT_RT0_ = comdat any

$_ZNSt4pairISt17_Rb_tree_iteratorIP9func_declEbEC2IS3_bTnNSt9enable_ifIXaaclsr5_PCCPE22_MoveConstructiblePairIT_T0_EEclsr5_PCCPE30_ImplicitlyMoveConvertiblePairIS7_S8_EEEbE4typeELb1EEEOS7_OS8_ = comdat any

$_ZNSt17_Rb_tree_iteratorIP9func_declEC2EPSt18_Rb_tree_node_base = comdat any

$_ZNSt8_Rb_treeIP9func_declS1_St9_IdentityIS1_ESt4lessIS1_ESaIS1_EE6_M_endEv = comdat any

$_ZNKSt4lessIP9func_declEclES1_S1_ = comdat any

$_ZNSt8_Rb_treeIP9func_declS1_St9_IdentityIS1_ESt4lessIS1_ESaIS1_EE6_S_keyEPKSt13_Rb_tree_nodeIS1_E = comdat any

$_ZSteqRKSt17_Rb_tree_iteratorIP9func_declES4_ = comdat any

$_ZNSt8_Rb_treeIP9func_declS1_St9_IdentityIS1_ESt4lessIS1_ESaIS1_EE5beginEv = comdat any

$_ZNSt4pairIPSt18_Rb_tree_node_baseS1_EC2IRPSt13_Rb_tree_nodeIP9func_declERS1_TnNSt9enable_ifIXaaclsr5_PCCPE22_MoveConstructiblePairIT_T0_EEclsr5_PCCPE30_ImplicitlyMoveConvertiblePairISC_SD_EEEbE4typeELb1EEEOSC_OSD_ = comdat any

$_ZNSt17_Rb_tree_iteratorIP9func_declEmmEv = comdat any

$_ZNSt8_Rb_treeIP9func_declS1_St9_IdentityIS1_ESt4lessIS1_ESaIS1_EE6_S_keyEPKSt18_Rb_tree_node_base = comdat any

$_ZNSt4pairIPSt18_Rb_tree_node_baseS1_EC2IS1_S1_TnNSt9enable_ifIXaaclsr5_PCCPE18_ConstructiblePairIT_T0_EEclsr5_PCCPE26_ImplicitlyConvertiblePairIS5_S6_EEEbE4typeELb1EEERKS1_SA_ = comdat any

$_ZNKSt13_Rb_tree_nodeIP9func_declE9_M_valptrEv = comdat any

$_ZNK9__gnu_cxx16__aligned_membufIP9func_declE6_M_ptrEv = comdat any

$_ZNK9__gnu_cxx16__aligned_membufIP9func_declE7_M_addrEv = comdat any

$_ZNKSt8_Rb_treeIP9func_declS1_St9_IdentityIS1_ESt4lessIS1_ESaIS1_EE11_Alloc_nodeclIRKS1_EEPSt13_Rb_tree_nodeIS1_EOT_ = comdat any

$_ZNSt8_Rb_treeIP9func_declS1_St9_IdentityIS1_ESt4lessIS1_ESaIS1_EE14_M_create_nodeIJRKS1_EEEPSt13_Rb_tree_nodeIS1_EDpOT_ = comdat any

$_ZNSt8_Rb_treeIP9func_declS1_St9_IdentityIS1_ESt4lessIS1_ESaIS1_EE11_M_get_nodeEv = comdat any

$_ZNSt8_Rb_treeIP9func_declS1_St9_IdentityIS1_ESt4lessIS1_ESaIS1_EE17_M_construct_nodeIJRKS1_EEEvPSt13_Rb_tree_nodeIS1_EDpOT_ = comdat any

$_ZNSt16allocator_traitsISaISt13_Rb_tree_nodeIP9func_declEEE8allocateERS4_m = comdat any

$_ZNSt15__new_allocatorISt13_Rb_tree_nodeIP9func_declEE8allocateEmPKv = comdat any

$_ZNKSt15__new_allocatorISt13_Rb_tree_nodeIP9func_declEE11_M_max_sizeEv = comdat any

$_ZNSt16allocator_traitsISaISt13_Rb_tree_nodeIP9func_declEEE9constructIS2_JRKS2_EEEvRS4_PT_DpOT0_ = comdat any

$_ZNSt15__new_allocatorISt13_Rb_tree_nodeIP9func_declEE9constructIS2_JRKS2_EEEvPT_DpOT0_ = comdat any

$_ZNSt23_Rb_tree_const_iteratorIP9func_declEC2ERKSt17_Rb_tree_iteratorIS1_E = comdat any

$_ZNK6vectorISt4pairIP9func_declN7datalog13relation_factEELb1EjE4sizeEv = comdat any

$_ZNKSt8_Rb_treeIP9func_declS1_St9_IdentityIS1_ESt4lessIS1_ESaIS1_EE4sizeEv = comdat any

$_ZNK7obj_mapI9func_decljE9find_coreEPS0_ = comdat any

$_ZN7obj_mapI9func_decljE13obj_map_entry8get_dataEv = comdat any

$_ZNK14core_hashtableIN7obj_mapI9func_decljE13obj_map_entryE8obj_hashINS2_8key_dataEE10default_eqIS5_EE9find_coreERKS5_ = comdat any

$_ZN7obj_mapI9func_decljE8key_dataC2EPS0_ = comdat any

$_ZNK14core_hashtableIN7obj_mapI9func_decljE13obj_map_entryE8obj_hashINS2_8key_dataEE10default_eqIS5_EE8get_hashERKS5_ = comdat any

$_ZNK7obj_mapI9func_decljE13obj_map_entry7is_usedEv = comdat any

$_ZNK7obj_mapI9func_decljE13obj_map_entry8get_hashEv = comdat any

$_ZNK14core_hashtableIN7obj_mapI9func_decljE13obj_map_entryE8obj_hashINS2_8key_dataEE10default_eqIS5_EE6equalsERKS5_SB_ = comdat any

$_ZNK7obj_mapI9func_decljE13obj_map_entry7is_freeEv = comdat any

$_ZNK8obj_hashIN7obj_mapI9func_decljE8key_dataEEclERKS3_ = comdat any

$_ZNK7obj_mapI9func_decljE8key_data4hashEv = comdat any

$_ZNK3ast4hashEv = comdat any

$_ZNK10default_eqIN7obj_mapI9func_decljE8key_dataEEclERKS3_S6_ = comdat any

$_ZNK7obj_mapI9func_decljE8key_dataeqERKS2_ = comdat any

$_ZN14core_hashtableIN7obj_mapI9func_decljE13obj_map_entryE8obj_hashINS2_8key_dataEE10default_eqIS5_EE6insertEOS5_ = comdat any

$_ZN7obj_mapI9func_decljE8key_dataC2EPS0_RKj = comdat any

$_ZN14core_hashtableIN7obj_mapI9func_decljE13obj_map_entryE8obj_hashINS2_8key_dataEE10default_eqIS5_EE12expand_tableEv = comdat any

$_ZN7obj_mapI9func_decljE13obj_map_entry8set_dataEONS1_8key_dataE = comdat any

$_ZN7obj_mapI9func_decljE13obj_map_entry8set_hashEj = comdat any

$_ZN14core_hashtableIN7obj_mapI9func_decljE13obj_map_entryE8obj_hashINS2_8key_dataEE10default_eqIS5_EE10move_tableEPS3_jSA_j = comdat any

$_ZN19ref_manager_wrapperI3var11ast_managerEC2ERS1_ = comdat any

$_ZN15ref_vector_coreI3var19ref_manager_wrapperIS0_11ast_managerEEC2ERKS3_ = comdat any

$_ZN10ptr_vectorI3varEC2Ev = comdat any

$_ZN6vectorIP3varLb0EjEC2Ev = comdat any

$_ZNK6vectorIPN7datalog4ruleELb0EjE4sizeEv = comdat any

$_ZNK7obj_mapIK4exprjE9find_coreEPS1_ = comdat any

$_ZN7obj_mapIK4exprjE13obj_map_entry8get_dataEv = comdat any

$_ZNK14core_hashtableIN7obj_mapIK4exprjE13obj_map_entryE8obj_hashINS3_8key_dataEE10default_eqIS6_EE9find_coreERKS6_ = comdat any

$_ZN7obj_mapIK4exprjE8key_dataC2EPS1_ = comdat any

$_ZNK14core_hashtableIN7obj_mapIK4exprjE13obj_map_entryE8obj_hashINS3_8key_dataEE10default_eqIS6_EE8get_hashERKS6_ = comdat any

$_ZNK7obj_mapIK4exprjE13obj_map_entry7is_usedEv = comdat any

$_ZNK7obj_mapIK4exprjE13obj_map_entry8get_hashEv = comdat any

$_ZNK14core_hashtableIN7obj_mapIK4exprjE13obj_map_entryE8obj_hashINS3_8key_dataEE10default_eqIS6_EE6equalsERKS6_SC_ = comdat any

$_ZNK7obj_mapIK4exprjE13obj_map_entry7is_freeEv = comdat any

$_ZNK8obj_hashIN7obj_mapIK4exprjE8key_dataEEclERKS4_ = comdat any

$_ZNK7obj_mapIK4exprjE8key_data4hashEv = comdat any

$_ZNK10default_eqIN7obj_mapIK4exprjE8key_dataEEclERKS4_S7_ = comdat any

$_ZNK7obj_mapIK4exprjE8key_dataeqERKS3_ = comdat any

$_ZN14core_hashtableIN7obj_mapIK4exprjE13obj_map_entryE8obj_hashINS3_8key_dataEE10default_eqIS6_EE6insertEOS6_ = comdat any

$_ZN7obj_mapIK4exprjE8key_dataC2EPS1_RKj = comdat any

$_ZN14core_hashtableIN7obj_mapIK4exprjE13obj_map_entryE8obj_hashINS3_8key_dataEE10default_eqIS6_EE12expand_tableEv = comdat any

$_ZN7obj_mapIK4exprjE13obj_map_entry8set_dataEONS2_8key_dataE = comdat any

$_ZN7obj_mapIK4exprjE13obj_map_entry8set_hashEj = comdat any

$_ZN14core_hashtableIN7obj_mapIK4exprjE13obj_map_entryE8obj_hashINS3_8key_dataEE10default_eqIS6_EE10move_tableEPS4_jSB_j = comdat any

$_ZNSt8_Rb_treeISt4pairIjjES0_IKS1_jESt10_Select1stIS3_ESt4lessIS1_ESaIS3_EE4findERS2_ = comdat any

$_ZNSt8_Rb_treeISt4pairIjjES0_IKS1_jESt10_Select1stIS3_ESt4lessIS1_ESaIS3_EE14_M_lower_boundEPSt13_Rb_tree_nodeIS3_EPSt18_Rb_tree_node_baseRS2_ = comdat any

$_ZNSt8_Rb_treeISt4pairIjjES0_IKS1_jESt10_Select1stIS3_ESt4lessIS1_ESaIS3_EE6_M_endEv = comdat any

$_ZSteqRKSt17_Rb_tree_iteratorISt4pairIKS0_IjjEjEES6_ = comdat any

$_ZNSt8_Rb_treeISt4pairIjjES0_IKS1_jESt10_Select1stIS3_ESt4lessIS1_ESaIS3_EE3endEv = comdat any

$_ZNKSt4lessISt4pairIjjEEclERKS1_S4_ = comdat any

$_ZNSt8_Rb_treeISt4pairIjjES0_IKS1_jESt10_Select1stIS3_ESt4lessIS1_ESaIS3_EE6_S_keyEPKSt18_Rb_tree_node_base = comdat any

$_ZNSt8_Rb_treeISt4pairIjjES0_IKS1_jESt10_Select1stIS3_ESt4lessIS1_ESaIS3_EE6_S_keyEPKSt13_Rb_tree_nodeIS3_E = comdat any

$_ZNSt17_Rb_tree_iteratorISt4pairIKS0_IjjEjEEC2EPSt18_Rb_tree_node_base = comdat any

$_ZNKSt10_Select1stISt4pairIKS0_IjjEjEEclERKS3_ = comdat any

$_ZNKSt13_Rb_tree_nodeISt4pairIKS0_IjjEjEE9_M_valptrEv = comdat any

$_ZNK9__gnu_cxx16__aligned_membufISt4pairIKS1_IjjEjEE6_M_ptrEv = comdat any

$_ZNK9__gnu_cxx16__aligned_membufISt4pairIKS1_IjjEjEE7_M_addrEv = comdat any

$_ZStltIjjEbRKSt4pairIT_T0_ES5_ = comdat any

$_ZNSt3mapISt4pairIjjEjSt4lessIS1_ESaIS0_IKS1_jEEE11lower_boundERS4_ = comdat any

$_ZNKSt3mapISt4pairIjjEjSt4lessIS1_ESaIS0_IKS1_jEEE8key_compEv = comdat any

$_ZNKSt17_Rb_tree_iteratorISt4pairIKS0_IjjEjEEdeEv = comdat any

$_ZNSt8_Rb_treeISt4pairIjjES0_IKS1_jESt10_Select1stIS3_ESt4lessIS1_ESaIS3_EE22_M_emplace_hint_uniqueIJRKSt21piecewise_construct_tSt5tupleIJRS2_EESE_IJEEEEESt17_Rb_tree_iteratorIS3_ESt23_Rb_tree_const_iteratorIS3_EDpOT_ = comdat any

$_ZNSt5tupleIJRKSt4pairIjjEEEC2ILb1ETnNSt9enable_ifIXclsr4_TCCIXT_EEE29__is_implicitly_constructibleIS3_EEEbE4typeELb1EEES3_ = comdat any

$_ZNSt8_Rb_treeISt4pairIjjES0_IKS1_jESt10_Select1stIS3_ESt4lessIS1_ESaIS3_EE11lower_boundERS2_ = comdat any

$_ZNKSt8_Rb_treeISt4pairIjjES0_IKS1_jESt10_Select1stIS3_ESt4lessIS1_ESaIS3_EE8key_compEv = comdat any

$_ZNSt8_Rb_treeISt4pairIjjES0_IKS1_jESt10_Select1stIS3_ESt4lessIS1_ESaIS3_EE10_Auto_nodeC2IJRKSt21piecewise_construct_tSt5tupleIJRS2_EESF_IJEEEEERS9_DpOT_ = comdat any

$_ZNSt8_Rb_treeISt4pairIjjES0_IKS1_jESt10_Select1stIS3_ESt4lessIS1_ESaIS3_EE29_M_get_insert_hint_unique_posESt23_Rb_tree_const_iteratorIS3_ERS2_ = comdat any

$_ZNKSt8_Rb_treeISt4pairIjjES0_IKS1_jESt10_Select1stIS3_ESt4lessIS1_ESaIS3_EE10_Auto_node6_M_keyEv = comdat any

$_ZNSt8_Rb_treeISt4pairIjjES0_IKS1_jESt10_Select1stIS3_ESt4lessIS1_ESaIS3_EE10_Auto_node9_M_insertES0_IPSt18_Rb_tree_node_baseSC_E = comdat any

$_ZNSt8_Rb_treeISt4pairIjjES0_IKS1_jESt10_Select1stIS3_ESt4lessIS1_ESaIS3_EE10_Auto_nodeD2Ev = comdat any

$_ZNSt8_Rb_treeISt4pairIjjES0_IKS1_jESt10_Select1stIS3_ESt4lessIS1_ESaIS3_EE14_M_create_nodeIJRKSt21piecewise_construct_tSt5tupleIJRS2_EESE_IJEEEEEPSt13_Rb_tree_nodeIS3_EDpOT_ = comdat any

$_ZNSt8_Rb_treeISt4pairIjjES0_IKS1_jESt10_Select1stIS3_ESt4lessIS1_ESaIS3_EE11_M_get_nodeEv = comdat any

$_ZNSt8_Rb_treeISt4pairIjjES0_IKS1_jESt10_Select1stIS3_ESt4lessIS1_ESaIS3_EE17_M_construct_nodeIJRKSt21piecewise_construct_tSt5tupleIJRS2_EESE_IJEEEEEvPSt13_Rb_tree_nodeIS3_EDpOT_ = comdat any

$_ZNSt16allocator_traitsISaISt13_Rb_tree_nodeISt4pairIKS1_IjjEjEEEE8allocateERS6_m = comdat any

$_ZNSt15__new_allocatorISt13_Rb_tree_nodeISt4pairIKS1_IjjEjEEE8allocateEmPKv = comdat any

$_ZNKSt15__new_allocatorISt13_Rb_tree_nodeISt4pairIKS1_IjjEjEEE11_M_max_sizeEv = comdat any

$_ZNSt16allocator_traitsISaISt13_Rb_tree_nodeISt4pairIKS1_IjjEjEEEE9constructIS4_JRKSt21piecewise_construct_tSt5tupleIJRS3_EESC_IJEEEEEvRS6_PT_DpOT0_ = comdat any

$_ZNSt15__new_allocatorISt13_Rb_tree_nodeISt4pairIKS1_IjjEjEEE9constructIS4_JRKSt21piecewise_construct_tSt5tupleIJRS3_EESB_IJEEEEEvPT_DpOT0_ = comdat any

$_ZNSt5tupleIJRKSt4pairIjjEEEC2EOS4_ = comdat any

$_ZNSt4pairIKS_IjjEjEC2IJRS1_EJEEESt21piecewise_construct_tSt5tupleIJDpT_EES6_IJDpT0_EE = comdat any

$_ZNSt11_Tuple_implILm0EJRKSt4pairIjjEEEC2EOS4_ = comdat any

$_ZNSt4pairIKS_IjjEjEC2IJRS1_EJLm0EEJETpTnmJEEERSt5tupleIJDpT_EERS5_IJDpT1_EESt12_Index_tupleIJXspT0_EEESE_IJXspT2_EEE = comdat any

$_ZSt3getILm0EJRKSt4pairIjjEEERNSt13tuple_elementIXT_ESt5tupleIJDpT0_EEE4typeERS8_ = comdat any

$_ZSt12__get_helperILm0ERKSt4pairIjjEJEERT0_RSt11_Tuple_implIXT_EJS4_DpT1_EE = comdat any

$_ZNSt11_Tuple_implILm0EJRKSt4pairIjjEEE7_M_headERS4_ = comdat any

$_ZNSt10_Head_baseILm0ERKSt4pairIjjELb0EE7_M_headERS4_ = comdat any

$_ZNKSt23_Rb_tree_const_iteratorISt4pairIKS0_IjjEjEE13_M_const_castEv = comdat any

$_ZNKSt8_Rb_treeISt4pairIjjES0_IKS1_jESt10_Select1stIS3_ESt4lessIS1_ESaIS3_EE4sizeEv = comdat any

$_ZNSt8_Rb_treeISt4pairIjjES0_IKS1_jESt10_Select1stIS3_ESt4lessIS1_ESaIS3_EE12_M_rightmostEv = comdat any

$_ZNSt8_Rb_treeISt4pairIjjES0_IKS1_jESt10_Select1stIS3_ESt4lessIS1_ESaIS3_EE24_M_get_insert_unique_posERS2_ = comdat any

$_ZNSt8_Rb_treeISt4pairIjjES0_IKS1_jESt10_Select1stIS3_ESt4lessIS1_ESaIS3_EE11_M_leftmostEv = comdat any

$_ZNSt4pairIPSt18_Rb_tree_node_baseS1_EC2IRS1_S4_TnNSt9enable_ifIXaaclsr5_PCCPE22_MoveConstructiblePairIT_T0_EEclsr5_PCCPE30_ImplicitlyMoveConvertiblePairIS6_S7_EEEbE4typeELb1EEEOS6_OS7_ = comdat any

$_ZNSt17_Rb_tree_iteratorISt4pairIKS0_IjjEjEEmmEv = comdat any

$_ZNSt17_Rb_tree_iteratorISt4pairIKS0_IjjEjEEppEv = comdat any

$_ZNSt8_Rb_treeISt4pairIjjES0_IKS1_jESt10_Select1stIS3_ESt4lessIS1_ESaIS3_EE5beginEv = comdat any

$_ZNSt4pairIPSt18_Rb_tree_node_baseS1_EC2IRPSt13_Rb_tree_nodeIS_IKS_IjjEjEERS1_TnNSt9enable_ifIXaaclsr5_PCCPE22_MoveConstructiblePairIT_T0_EEclsr5_PCCPE30_ImplicitlyMoveConvertiblePairISD_SE_EEEbE4typeELb1EEEOSD_OSE_ = comdat any

$_ZNSt8_Rb_treeISt4pairIjjES0_IKS1_jESt10_Select1stIS3_ESt4lessIS1_ESaIS3_EE14_M_insert_nodeEPSt18_Rb_tree_node_baseSB_PSt13_Rb_tree_nodeIS3_E = comdat any

$_ZNSt11_Tuple_implILm0EJRKSt4pairIjjEEEC2ES3_ = comdat any

$_ZNSt10_Head_baseILm0ERKSt4pairIjjELb0EEC2ES3_ = comdat any

$_ZSt19piecewise_construct = comdat any

@_ZStL8__ioinit = internal global %"class.std::ios_base::Init" zeroinitializer, align 1
@__dso_handle = external hidden global i8
@.str = private unnamed_addr constant [8 x i8] c"rule_id\00", align 1
@.str.1 = private unnamed_addr constant [10 x i8] c"rule_id_p\00", align 1
@.str.2 = private unnamed_addr constant [10 x i8] c"latch_var\00", align 1
@.str.3 = private unnamed_addr constant [11 x i8] c"latch_varp\00", align 1
@.str.4 = private unnamed_addr constant [33 x i8] c"non-linear clauses not supported\00", align 1
@_ZTI17default_exception = external constant ptr
@.str.5 = private unnamed_addr constant [34 x i8] c"negation of queries not supported\00", align 1
@.str.6 = private unnamed_addr constant [5 x i8] c"aag \00", align 1
@.str.7 = private unnamed_addr constant [4 x i8] c" 1 \00", align 1
@.str.8 = private unnamed_addr constant [112 x i8] c"generated/home/dtcxzyw/WorkSpace/Projects/compilers/llvm-opt-benchmark/bench/z3/z3/src/muz/rel/aig_exporter.cpp\00", align 1
@.str.9 = private unnamed_addr constant [29 x i8] c"UNEXPECTED CODE WAS REACHED.\00", align 1
@_ZN6symbol4nullE = external global %class.symbol, align 8
@.str.10 = private unnamed_addr constant [43 x i8] c"Overflow encountered when expanding vector\00", align 1
@_ZTV17default_exception = external unnamed_addr constant { [6 x ptr] }, align 8
@_ZTV12z3_exception = external unnamed_addr constant { [6 x ptr] }, align 8
@.str.11 = private unnamed_addr constant [50 x i8] c"basic_string: construction from null is not valid\00", align 1
@.str.12 = private unnamed_addr constant [104 x i8] c"generated/home/dtcxzyw/WorkSpace/Projects/compilers/llvm-opt-benchmark/bench/z3/z3/src/util/hashtable.h\00", align 1
@_ZSt19piecewise_construct = linkonce_odr constant %"struct.std::piecewise_construct_t" zeroinitializer, comdat, align 1
@llvm.global_ctors = appending global [1 x { i32, ptr, ptr }] [{ i32, ptr, ptr } { i32 65535, ptr @_GLOBAL__sub_I_aig_exporter.cpp, ptr null }]

@_ZN7datalog12aig_exporterC1ERKNS_8rule_setERNS_7contextEPK6vectorISt4pairIP9func_declNS_13relation_factEELb1EjE = hidden unnamed_addr alias void (ptr, ptr, ptr, ptr), ptr @_ZN7datalog12aig_exporterC2ERKNS_8rule_setERNS_7contextEPK6vectorISt4pairIP9func_declNS_13relation_factEELb1EjE

; Function Attrs: uwtable
define internal void @__cxx_global_var_init() #0 section ".text.startup" {
entry:
  call void @_ZNSt8ios_base4InitC1Ev(ptr noundef nonnull align 1 dereferenceable(1) @_ZStL8__ioinit)
  %0 = call i32 @__cxa_atexit(ptr @_ZNSt8ios_base4InitD1Ev, ptr @_ZStL8__ioinit, ptr @__dso_handle) #3
  ret void
}

declare void @_ZNSt8ios_base4InitC1Ev(ptr noundef nonnull align 1 dereferenceable(1)) unnamed_addr #1

; Function Attrs: nounwind
declare void @_ZNSt8ios_base4InitD1Ev(ptr noundef nonnull align 1 dereferenceable(1)) unnamed_addr #2

; Function Attrs: nounwind
declare i32 @__cxa_atexit(ptr, ptr, ptr) #3

; Function Attrs: mustprogress uwtable
define hidden void @_ZN7datalog12aig_exporterC2ERKNS_8rule_setERNS_7contextEPK6vectorISt4pairIP9func_declNS_13relation_factEELb1EjE(ptr noundef nonnull align 8 dereferenceable(624) %this, ptr noundef nonnull align 8 dereferenceable(248) %rules, ptr noundef nonnull align 8 dereferenceable(3556) %ctx, ptr noundef %facts) unnamed_addr #4 align 2 personality ptr @__gxx_personality_v0 {
entry:
  %this.addr = alloca ptr, align 8
  %rules.addr = alloca ptr, align 8
  %ctx.addr = alloca ptr, align 8
  %facts.addr = alloca ptr, align 8
  %exn.slot = alloca ptr, align 8
  %ehselector.slot = alloca i32, align 4
  %predicates = alloca %"class.std::set", align 8
  %I = alloca %"class.core_hashtable<obj_map<func_decl, ptr_vector<datalog::rule> *>::obj_map_entry, obj_hash<obj_map<func_decl, ptr_vector<datalog::rule> *>::key_data>, default_eq<obj_map<func_decl, ptr_vector<datalog::rule> *>::key_data>>::iterator", align 8
  %E = alloca %"class.core_hashtable<obj_map<func_decl, ptr_vector<datalog::rule> *>::obj_map_entry, obj_hash<obj_map<func_decl, ptr_vector<datalog::rule> *>::key_data>, default_eq<obj_map<func_decl, ptr_vector<datalog::rule> *>::key_data>>::iterator", align 8
  %coerce = alloca %"struct.std::pair", align 8
  %I37 = alloca ptr, align 8
  %E40 = alloca ptr, align 8
  %coerce47 = alloca %"struct.std::pair", align 8
  %num_preds = alloca i32, align 4
  %preds_bitsize = alloca i32, align 4
  %i = alloca i32, align 4
  store ptr %this, ptr %this.addr, align 8
  store ptr %rules, ptr %rules.addr, align 8
  store ptr %ctx, ptr %ctx.addr, align 8
  store ptr %facts, ptr %facts.addr, align 8
  %this1 = load ptr, ptr %this.addr, align 8
  %m_rules = getelementptr inbounds %"class.datalog::aig_exporter", ptr %this1, i32 0, i32 0
  %0 = load ptr, ptr %rules.addr, align 8
  store ptr %0, ptr %m_rules, align 8
  %m_facts = getelementptr inbounds %"class.datalog::aig_exporter", ptr %this1, i32 0, i32 1
  %1 = load ptr, ptr %facts.addr, align 8
  store ptr %1, ptr %m_facts, align 8
  %m = getelementptr inbounds %"class.datalog::aig_exporter", ptr %this1, i32 0, i32 2
  %2 = load ptr, ptr %ctx.addr, align 8
  %call = call noundef nonnull align 8 dereferenceable(976) ptr @_ZNK7datalog7context11get_managerEv(ptr noundef nonnull align 8 dereferenceable(3556) %2)
  store ptr %call, ptr %m, align 8
  %m_rm = getelementptr inbounds %"class.datalog::aig_exporter", ptr %this1, i32 0, i32 3
  %3 = load ptr, ptr %ctx.addr, align 8
  %call2 = call noundef nonnull align 8 dereferenceable(1368) ptr @_ZN7datalog7context16get_rule_managerEv(ptr noundef nonnull align 8 dereferenceable(3556) %3)
  store ptr %call2, ptr %m_rm, align 8
  %m_aigm = getelementptr inbounds %"class.datalog::aig_exporter", ptr %this1, i32 0, i32 4
  %m3 = getelementptr inbounds %"class.datalog::aig_exporter", ptr %this1, i32 0, i32 2
  %4 = load ptr, ptr %m3, align 8
  call void @_ZN11aig_managerC1ER11ast_manageryb(ptr noundef nonnull align 8 dereferenceable(8) %m_aigm, ptr noundef nonnull align 8 dereferenceable(976) %4, i64 noundef -1, i1 noundef zeroext true)
  %m_decl_id_map = getelementptr inbounds %"class.datalog::aig_exporter", ptr %this1, i32 0, i32 5
  invoke void @_ZN7obj_mapI9func_decljEC2Ev(ptr noundef nonnull align 8 dereferenceable(24) %m_decl_id_map)
          to label %invoke.cont unwind label %lpad

invoke.cont:                                      ; preds = %entry
  %m_next_decl_id = getelementptr inbounds %"class.datalog::aig_exporter", ptr %this1, i32 0, i32 6
  store i32 1, ptr %m_next_decl_id, align 8
  %m_aig_expr_id_map = getelementptr inbounds %"class.datalog::aig_exporter", ptr %this1, i32 0, i32 8
  invoke void @_ZN7obj_mapIK4exprjEC2Ev(ptr noundef nonnull align 8 dereferenceable(24) %m_aig_expr_id_map)
          to label %invoke.cont5 unwind label %lpad4

invoke.cont5:                                     ; preds = %invoke.cont
  %m_next_aig_expr_id = getelementptr inbounds %"class.datalog::aig_exporter", ptr %this1, i32 0, i32 9
  store i32 2, ptr %m_next_aig_expr_id, align 8
  %m_and_gates_map = getelementptr inbounds %"class.datalog::aig_exporter", ptr %this1, i32 0, i32 10
  call void @_ZNSt3mapISt4pairIjjEjSt4lessIS1_ESaIS0_IKS1_jEEEC2Ev(ptr noundef nonnull align 8 dereferenceable(48) %m_and_gates_map) #3
  %m_num_and_gates = getelementptr inbounds %"class.datalog::aig_exporter", ptr %this1, i32 0, i32 11
  store i32 0, ptr %m_num_and_gates, align 8
  %m_latch_vars = getelementptr inbounds %"class.datalog::aig_exporter", ptr %this1, i32 0, i32 12
  %m6 = getelementptr inbounds %"class.datalog::aig_exporter", ptr %this1, i32 0, i32 2
  %5 = load ptr, ptr %m6, align 8
  invoke void @_ZN10ref_vectorI4expr11ast_managerEC2ERS1_(ptr noundef nonnull align 8 dereferenceable(16) %m_latch_vars, ptr noundef nonnull align 8 dereferenceable(976) %5)
          to label %invoke.cont8 unwind label %lpad7

invoke.cont8:                                     ; preds = %invoke.cont5
  %m_latch_varsp = getelementptr inbounds %"class.datalog::aig_exporter", ptr %this1, i32 0, i32 13
  %m9 = getelementptr inbounds %"class.datalog::aig_exporter", ptr %this1, i32 0, i32 2
  %6 = load ptr, ptr %m9, align 8
  invoke void @_ZN10ref_vectorI4expr11ast_managerEC2ERS1_(ptr noundef nonnull align 8 dereferenceable(16) %m_latch_varsp, ptr noundef nonnull align 8 dereferenceable(976) %6)
          to label %invoke.cont11 unwind label %lpad10

invoke.cont11:                                    ; preds = %invoke.cont8
  %m_ruleid_var_set = getelementptr inbounds %"class.datalog::aig_exporter", ptr %this1, i32 0, i32 14
  %m12 = getelementptr inbounds %"class.datalog::aig_exporter", ptr %this1, i32 0, i32 2
  %7 = load ptr, ptr %m12, align 8
  invoke void @_ZN10ref_vectorI4expr11ast_managerEC2ERS1_(ptr noundef nonnull align 8 dereferenceable(16) %m_ruleid_var_set, ptr noundef nonnull align 8 dereferenceable(976) %7)
          to label %invoke.cont14 unwind label %lpad13

invoke.cont14:                                    ; preds = %invoke.cont11
  %m_ruleid_varp_set = getelementptr inbounds %"class.datalog::aig_exporter", ptr %this1, i32 0, i32 15
  %m15 = getelementptr inbounds %"class.datalog::aig_exporter", ptr %this1, i32 0, i32 2
  %8 = load ptr, ptr %m15, align 8
  invoke void @_ZN10ref_vectorI4expr11ast_managerEC2ERS1_(ptr noundef nonnull align 8 dereferenceable(16) %m_ruleid_varp_set, ptr noundef nonnull align 8 dereferenceable(976) %8)
          to label %invoke.cont17 unwind label %lpad16

invoke.cont17:                                    ; preds = %invoke.cont14
  %m_input_vars = getelementptr inbounds %"class.datalog::aig_exporter", ptr %this1, i32 0, i32 16
  invoke void @_ZN7svectorIjjEC2Ev(ptr noundef nonnull align 8 dereferenceable(8) %m_input_vars)
          to label %invoke.cont19 unwind label %lpad18

invoke.cont19:                                    ; preds = %invoke.cont17
  %m_buffer = getelementptr inbounds %"class.datalog::aig_exporter", ptr %this1, i32 0, i32 17
  invoke void @_ZNSt7__cxx1118basic_stringstreamIcSt11char_traitsIcESaIcEEC1Ev(ptr noundef nonnull align 8 dereferenceable(128) %m_buffer)
          to label %invoke.cont21 unwind label %lpad20

invoke.cont21:                                    ; preds = %invoke.cont19
  call void @_ZNSt3setIP9func_declSt4lessIS1_ESaIS1_EEC2Ev(ptr noundef nonnull align 8 dereferenceable(48) %predicates) #3
  %m_rules22 = getelementptr inbounds %"class.datalog::aig_exporter", ptr %this1, i32 0, i32 0
  %9 = load ptr, ptr %m_rules22, align 8
  %call25 = invoke { ptr, ptr } @_ZNK7datalog8rule_set19begin_grouped_rulesEv(ptr noundef nonnull align 8 dereferenceable(248) %9)
          to label %invoke.cont24 unwind label %lpad23

invoke.cont24:                                    ; preds = %invoke.cont21
  %10 = getelementptr inbounds { ptr, ptr }, ptr %I, i32 0, i32 0
  %11 = extractvalue { ptr, ptr } %call25, 0
  store ptr %11, ptr %10, align 8
  %12 = getelementptr inbounds { ptr, ptr }, ptr %I, i32 0, i32 1
  %13 = extractvalue { ptr, ptr } %call25, 1
  store ptr %13, ptr %12, align 8
  %m_rules26 = getelementptr inbounds %"class.datalog::aig_exporter", ptr %this1, i32 0, i32 0
  %14 = load ptr, ptr %m_rules26, align 8
  %call28 = invoke { ptr, ptr } @_ZNK7datalog8rule_set17end_grouped_rulesEv(ptr noundef nonnull align 8 dereferenceable(248) %14)
          to label %invoke.cont27 unwind label %lpad23

invoke.cont27:                                    ; preds = %invoke.cont24
  %15 = getelementptr inbounds { ptr, ptr }, ptr %E, i32 0, i32 0
  %16 = extractvalue { ptr, ptr } %call28, 0
  store ptr %16, ptr %15, align 8
  %17 = getelementptr inbounds { ptr, ptr }, ptr %E, i32 0, i32 1
  %18 = extractvalue { ptr, ptr } %call28, 1
  store ptr %18, ptr %17, align 8
  br label %for.cond

for.cond:                                         ; preds = %invoke.cont35, %invoke.cont27
  %call30 = invoke noundef zeroext i1 @_ZNK14core_hashtableIN7obj_mapI9func_declP10ptr_vectorIN7datalog4ruleEEE13obj_map_entryE8obj_hashINS7_8key_dataEE10default_eqISA_EE8iteratorneERKSF_(ptr noundef nonnull align 8 dereferenceable(16) %I, ptr noundef nonnull align 8 dereferenceable(16) %E)
          to label %invoke.cont29 unwind label %lpad23

invoke.cont29:                                    ; preds = %for.cond
  br i1 %call30, label %for.body, label %for.end

for.body:                                         ; preds = %invoke.cont29
  %call32 = invoke noundef ptr @_ZN14core_hashtableIN7obj_mapI9func_declP10ptr_vectorIN7datalog4ruleEEE13obj_map_entryE8obj_hashINS7_8key_dataEE10default_eqISA_EE8iteratorptEv(ptr noundef nonnull align 8 dereferenceable(16) %I)
          to label %invoke.cont31 unwind label %lpad23

invoke.cont31:                                    ; preds = %for.body
  %m_key = getelementptr inbounds %"struct.obj_map<func_decl, ptr_vector<datalog::rule> *>::key_data", ptr %call32, i32 0, i32 0
  %call34 = invoke { ptr, i8 } @_ZNSt3setIP9func_declSt4lessIS1_ESaIS1_EE6insertERKS1_(ptr noundef nonnull align 8 dereferenceable(48) %predicates, ptr noundef nonnull align 8 dereferenceable(8) %m_key)
          to label %invoke.cont33 unwind label %lpad23

invoke.cont33:                                    ; preds = %invoke.cont31
  %19 = getelementptr inbounds { ptr, i8 }, ptr %coerce, i32 0, i32 0
  %20 = extractvalue { ptr, i8 } %call34, 0
  store ptr %20, ptr %19, align 8
  %21 = getelementptr inbounds { ptr, i8 }, ptr %coerce, i32 0, i32 1
  %22 = extractvalue { ptr, i8 } %call34, 1
  store i8 %22, ptr %21, align 8
  br label %for.inc

for.inc:                                          ; preds = %invoke.cont33
  %call36 = invoke noundef nonnull align 8 dereferenceable(16) ptr @_ZN14core_hashtableIN7obj_mapI9func_declP10ptr_vectorIN7datalog4ruleEEE13obj_map_entryE8obj_hashINS7_8key_dataEE10default_eqISA_EE8iteratorppEv(ptr noundef nonnull align 8 dereferenceable(16) %I)
          to label %invoke.cont35 unwind label %lpad23

invoke.cont35:                                    ; preds = %for.inc
  br label %for.cond, !llvm.loop !4

lpad:                                             ; preds = %entry
  %23 = landingpad { ptr, i32 }
          cleanup
  %24 = extractvalue { ptr, i32 } %23, 0
  store ptr %24, ptr %exn.slot, align 8
  %25 = extractvalue { ptr, i32 } %23, 1
  store i32 %25, ptr %ehselector.slot, align 4
  br label %ehcleanup85

lpad4:                                            ; preds = %invoke.cont
  %26 = landingpad { ptr, i32 }
          cleanup
  %27 = extractvalue { ptr, i32 } %26, 0
  store ptr %27, ptr %exn.slot, align 8
  %28 = extractvalue { ptr, i32 } %26, 1
  store i32 %28, ptr %ehselector.slot, align 4
  br label %ehcleanup84

lpad7:                                            ; preds = %invoke.cont5
  %29 = landingpad { ptr, i32 }
          cleanup
  %30 = extractvalue { ptr, i32 } %29, 0
  store ptr %30, ptr %exn.slot, align 8
  %31 = extractvalue { ptr, i32 } %29, 1
  store i32 %31, ptr %ehselector.slot, align 4
  br label %ehcleanup82

lpad10:                                           ; preds = %invoke.cont8
  %32 = landingpad { ptr, i32 }
          cleanup
  %33 = extractvalue { ptr, i32 } %32, 0
  store ptr %33, ptr %exn.slot, align 8
  %34 = extractvalue { ptr, i32 } %32, 1
  store i32 %34, ptr %ehselector.slot, align 4
  br label %ehcleanup81

lpad13:                                           ; preds = %invoke.cont11
  %35 = landingpad { ptr, i32 }
          cleanup
  %36 = extractvalue { ptr, i32 } %35, 0
  store ptr %36, ptr %exn.slot, align 8
  %37 = extractvalue { ptr, i32 } %35, 1
  store i32 %37, ptr %ehselector.slot, align 4
  br label %ehcleanup80

lpad16:                                           ; preds = %invoke.cont14
  %38 = landingpad { ptr, i32 }
          cleanup
  %39 = extractvalue { ptr, i32 } %38, 0
  store ptr %39, ptr %exn.slot, align 8
  %40 = extractvalue { ptr, i32 } %38, 1
  store i32 %40, ptr %ehselector.slot, align 4
  br label %ehcleanup79

lpad18:                                           ; preds = %invoke.cont17
  %41 = landingpad { ptr, i32 }
          cleanup
  %42 = extractvalue { ptr, i32 } %41, 0
  store ptr %42, ptr %exn.slot, align 8
  %43 = extractvalue { ptr, i32 } %41, 1
  store i32 %43, ptr %ehselector.slot, align 4
  br label %ehcleanup78

lpad20:                                           ; preds = %invoke.cont19
  %44 = landingpad { ptr, i32 }
          cleanup
  %45 = extractvalue { ptr, i32 } %44, 0
  store ptr %45, ptr %exn.slot, align 8
  %46 = extractvalue { ptr, i32 } %44, 1
  store i32 %46, ptr %ehselector.slot, align 4
  br label %ehcleanup

lpad23:                                           ; preds = %invoke.cont71, %invoke.cont69, %invoke.cont64, %invoke.cont62, %invoke.cont60, %for.body56, %for.end49, %for.body44, %invoke.cont38, %for.end, %for.inc, %invoke.cont31, %for.body, %for.cond, %invoke.cont24, %invoke.cont21
  %47 = landingpad { ptr, i32 }
          cleanup
  %48 = extractvalue { ptr, i32 } %47, 0
  store ptr %48, ptr %exn.slot, align 8
  %49 = extractvalue { ptr, i32 } %47, 1
  store i32 %49, ptr %ehselector.slot, align 4
  call void @_ZNSt3setIP9func_declSt4lessIS1_ESaIS1_EED2Ev(ptr noundef nonnull align 8 dereferenceable(48) %predicates) #3
  call void @_ZNSt7__cxx1118basic_stringstreamIcSt11char_traitsIcESaIcEED1Ev(ptr noundef nonnull align 8 dereferenceable(128) %m_buffer) #3
  br label %ehcleanup

for.end:                                          ; preds = %invoke.cont29
  %50 = load ptr, ptr %facts.addr, align 8
  %call39 = invoke noundef ptr @_ZNK6vectorISt4pairIP9func_declN7datalog13relation_factEELb1EjE5beginEv(ptr noundef nonnull align 8 dereferenceable(8) %50)
          to label %invoke.cont38 unwind label %lpad23

invoke.cont38:                                    ; preds = %for.end
  store ptr %call39, ptr %I37, align 8
  %51 = load ptr, ptr %facts.addr, align 8
  %call42 = invoke noundef ptr @_ZNK6vectorISt4pairIP9func_declN7datalog13relation_factEELb1EjE3endEv(ptr noundef nonnull align 8 dereferenceable(8) %51)
          to label %invoke.cont41 unwind label %lpad23

invoke.cont41:                                    ; preds = %invoke.cont38
  store ptr %call42, ptr %E40, align 8
  br label %for.cond43

for.cond43:                                       ; preds = %for.inc48, %invoke.cont41
  %52 = load ptr, ptr %I37, align 8
  %53 = load ptr, ptr %E40, align 8
  %cmp = icmp ne ptr %52, %53
  br i1 %cmp, label %for.body44, label %for.end49

for.body44:                                       ; preds = %for.cond43
  %54 = load ptr, ptr %I37, align 8
  %first = getelementptr inbounds %"struct.std::pair.179", ptr %54, i32 0, i32 0
  %call46 = invoke { ptr, i8 } @_ZNSt3setIP9func_declSt4lessIS1_ESaIS1_EE6insertERKS1_(ptr noundef nonnull align 8 dereferenceable(48) %predicates, ptr noundef nonnull align 8 dereferenceable(8) %first)
          to label %invoke.cont45 unwind label %lpad23

invoke.cont45:                                    ; preds = %for.body44
  %55 = getelementptr inbounds { ptr, i8 }, ptr %coerce47, i32 0, i32 0
  %56 = extractvalue { ptr, i8 } %call46, 0
  store ptr %56, ptr %55, align 8
  %57 = getelementptr inbounds { ptr, i8 }, ptr %coerce47, i32 0, i32 1
  %58 = extractvalue { ptr, i8 } %call46, 1
  store i8 %58, ptr %57, align 8
  br label %for.inc48

for.inc48:                                        ; preds = %invoke.cont45
  %59 = load ptr, ptr %I37, align 8
  %incdec.ptr = getelementptr inbounds %"struct.std::pair.179", ptr %59, i32 1
  store ptr %incdec.ptr, ptr %I37, align 8
  br label %for.cond43, !llvm.loop !6

for.end49:                                        ; preds = %for.cond43
  %call50 = call noundef i64 @_ZNKSt3setIP9func_declSt4lessIS1_ESaIS1_EE4sizeEv(ptr noundef nonnull align 8 dereferenceable(48) %predicates) #3
  %conv = trunc i64 %call50 to i32
  %add = add i32 %conv, 1
  store i32 %add, ptr %num_preds, align 4
  %60 = load i32, ptr %num_preds, align 4
  %call52 = invoke noundef i32 @_Z4log2j(i32 noundef %60)
          to label %invoke.cont51 unwind label %lpad23

invoke.cont51:                                    ; preds = %for.end49
  store i32 %call52, ptr %preds_bitsize, align 4
  %61 = load i32, ptr %preds_bitsize, align 4
  %shl = shl i32 1, %61
  %62 = load i32, ptr %num_preds, align 4
  %cmp53 = icmp ult i32 %shl, %62
  br i1 %cmp53, label %if.then, label %if.end

if.then:                                          ; preds = %invoke.cont51
  %63 = load i32, ptr %preds_bitsize, align 4
  %inc = add i32 %63, 1
  store i32 %inc, ptr %preds_bitsize, align 4
  br label %if.end

if.end:                                           ; preds = %if.then, %invoke.cont51
  store i32 0, ptr %i, align 4
  br label %for.cond54

for.cond54:                                       ; preds = %for.inc75, %if.end
  %64 = load i32, ptr %i, align 4
  %65 = load i32, ptr %preds_bitsize, align 4
  %cmp55 = icmp ult i32 %64, %65
  br i1 %cmp55, label %for.body56, label %for.end77

for.body56:                                       ; preds = %for.cond54
  %m_ruleid_var_set57 = getelementptr inbounds %"class.datalog::aig_exporter", ptr %this1, i32 0, i32 14
  %m58 = getelementptr inbounds %"class.datalog::aig_exporter", ptr %this1, i32 0, i32 2
  %66 = load ptr, ptr %m58, align 8
  %m59 = getelementptr inbounds %"class.datalog::aig_exporter", ptr %this1, i32 0, i32 2
  %67 = load ptr, ptr %m59, align 8
  %call61 = invoke noundef ptr @_ZNK11ast_manager12mk_bool_sortEv(ptr noundef nonnull align 8 dereferenceable(976) %67)
          to label %invoke.cont60 unwind label %lpad23

invoke.cont60:                                    ; preds = %for.body56
  %call63 = invoke noundef ptr @_ZN11ast_manager14mk_fresh_constEPKcP4sortb(ptr noundef nonnull align 8 dereferenceable(976) %66, ptr noundef @.str, ptr noundef %call61, i1 noundef zeroext true)
          to label %invoke.cont62 unwind label %lpad23

invoke.cont62:                                    ; preds = %invoke.cont60
  %call65 = invoke noundef nonnull align 8 dereferenceable(16) ptr @_ZN15ref_vector_coreI4expr19ref_manager_wrapperIS0_11ast_managerEE9push_backEPS0_(ptr noundef nonnull align 8 dereferenceable(16) %m_ruleid_var_set57, ptr noundef %call63)
          to label %invoke.cont64 unwind label %lpad23

invoke.cont64:                                    ; preds = %invoke.cont62
  %m_ruleid_varp_set66 = getelementptr inbounds %"class.datalog::aig_exporter", ptr %this1, i32 0, i32 15
  %m67 = getelementptr inbounds %"class.datalog::aig_exporter", ptr %this1, i32 0, i32 2
  %68 = load ptr, ptr %m67, align 8
  %m68 = getelementptr inbounds %"class.datalog::aig_exporter", ptr %this1, i32 0, i32 2
  %69 = load ptr, ptr %m68, align 8
  %call70 = invoke noundef ptr @_ZNK11ast_manager12mk_bool_sortEv(ptr noundef nonnull align 8 dereferenceable(976) %69)
          to label %invoke.cont69 unwind label %lpad23

invoke.cont69:                                    ; preds = %invoke.cont64
  %call72 = invoke noundef ptr @_ZN11ast_manager14mk_fresh_constEPKcP4sortb(ptr noundef nonnull align 8 dereferenceable(976) %68, ptr noundef @.str.1, ptr noundef %call70, i1 noundef zeroext true)
          to label %invoke.cont71 unwind label %lpad23

invoke.cont71:                                    ; preds = %invoke.cont69
  %call74 = invoke noundef nonnull align 8 dereferenceable(16) ptr @_ZN15ref_vector_coreI4expr19ref_manager_wrapperIS0_11ast_managerEE9push_backEPS0_(ptr noundef nonnull align 8 dereferenceable(16) %m_ruleid_varp_set66, ptr noundef %call72)
          to label %invoke.cont73 unwind label %lpad23

invoke.cont73:                                    ; preds = %invoke.cont71
  br label %for.inc75

for.inc75:                                        ; preds = %invoke.cont73
  %70 = load i32, ptr %i, align 4
  %inc76 = add i32 %70, 1
  store i32 %inc76, ptr %i, align 4
  br label %for.cond54, !llvm.loop !7

for.end77:                                        ; preds = %for.cond54
  call void @_ZNSt3setIP9func_declSt4lessIS1_ESaIS1_EED2Ev(ptr noundef nonnull align 8 dereferenceable(48) %predicates) #3
  ret void

ehcleanup:                                        ; preds = %lpad23, %lpad20
  call void @_ZN7svectorIjjED2Ev(ptr noundef nonnull align 8 dereferenceable(8) %m_input_vars) #3
  br label %ehcleanup78

ehcleanup78:                                      ; preds = %ehcleanup, %lpad18
  call void @_ZN10ref_vectorI4expr11ast_managerED2Ev(ptr noundef nonnull align 8 dereferenceable(16) %m_ruleid_varp_set) #3
  br label %ehcleanup79

ehcleanup79:                                      ; preds = %ehcleanup78, %lpad16
  call void @_ZN10ref_vectorI4expr11ast_managerED2Ev(ptr noundef nonnull align 8 dereferenceable(16) %m_ruleid_var_set) #3
  br label %ehcleanup80

ehcleanup80:                                      ; preds = %ehcleanup79, %lpad13
  call void @_ZN10ref_vectorI4expr11ast_managerED2Ev(ptr noundef nonnull align 8 dereferenceable(16) %m_latch_varsp) #3
  br label %ehcleanup81

ehcleanup81:                                      ; preds = %ehcleanup80, %lpad10
  call void @_ZN10ref_vectorI4expr11ast_managerED2Ev(ptr noundef nonnull align 8 dereferenceable(16) %m_latch_vars) #3
  br label %ehcleanup82

ehcleanup82:                                      ; preds = %ehcleanup81, %lpad7
  call void @_ZNSt3mapISt4pairIjjEjSt4lessIS1_ESaIS0_IKS1_jEEED2Ev(ptr noundef nonnull align 8 dereferenceable(48) %m_and_gates_map) #3
  call void @_ZN7obj_mapIK4exprjED2Ev(ptr noundef nonnull align 8 dereferenceable(24) %m_aig_expr_id_map) #3
  br label %ehcleanup84

ehcleanup84:                                      ; preds = %ehcleanup82, %lpad4
  call void @_ZN7obj_mapI9func_decljED2Ev(ptr noundef nonnull align 8 dereferenceable(24) %m_decl_id_map) #3
  br label %ehcleanup85

ehcleanup85:                                      ; preds = %ehcleanup84, %lpad
  call void @_ZN11aig_managerD1Ev(ptr noundef nonnull align 8 dereferenceable(8) %m_aigm) #3
  br label %eh.resume

eh.resume:                                        ; preds = %ehcleanup85
  %exn = load ptr, ptr %exn.slot, align 8
  %sel = load i32, ptr %ehselector.slot, align 4
  %lpad.val = insertvalue { ptr, i32 } poison, ptr %exn, 0
  %lpad.val86 = insertvalue { ptr, i32 } %lpad.val, i32 %sel, 1
  resume { ptr, i32 } %lpad.val86
}

; Function Attrs: mustprogress nounwind uwtable
define linkonce_odr hidden noundef nonnull align 8 dereferenceable(976) ptr @_ZNK7datalog7context11get_managerEv(ptr noundef nonnull align 8 dereferenceable(3556) %this) #5 comdat align 2 {
entry:
  %this.addr = alloca ptr, align 8
  store ptr %this, ptr %this.addr, align 8
  %this1 = load ptr, ptr %this.addr, align 8
  %m = getelementptr inbounds %"class.datalog::context", ptr %this1, i32 0, i32 0
  %0 = load ptr, ptr %m, align 8
  ret ptr %0
}

; Function Attrs: mustprogress nounwind uwtable
define linkonce_odr hidden noundef nonnull align 8 dereferenceable(1368) ptr @_ZN7datalog7context16get_rule_managerEv(ptr noundef nonnull align 8 dereferenceable(3556) %this) #5 comdat align 2 {
entry:
  %this.addr = alloca ptr, align 8
  store ptr %this, ptr %this.addr, align 8
  %this1 = load ptr, ptr %this.addr, align 8
  %m_rule_manager = getelementptr inbounds %"class.datalog::context", ptr %this1, i32 0, i32 12
  ret ptr %m_rule_manager
}

declare void @_ZN11aig_managerC1ER11ast_manageryb(ptr noundef nonnull align 8 dereferenceable(8), ptr noundef nonnull align 8 dereferenceable(976), i64 noundef, i1 noundef zeroext) unnamed_addr #1

; Function Attrs: mustprogress uwtable
define linkonce_odr hidden void @_ZN7obj_mapI9func_decljEC2Ev(ptr noundef nonnull align 8 dereferenceable(24) %this) unnamed_addr #4 comdat align 2 {
entry:
  %this.addr = alloca ptr, align 8
  %ref.tmp = alloca %struct.obj_hash, align 1
  %ref.tmp2 = alloca %struct.default_eq, align 1
  store ptr %this, ptr %this.addr, align 8
  %this1 = load ptr, ptr %this.addr, align 8
  %m_table = getelementptr inbounds %class.obj_map, ptr %this1, i32 0, i32 0
  call void @_ZN14core_hashtableIN7obj_mapI9func_decljE13obj_map_entryE8obj_hashINS2_8key_dataEE10default_eqIS5_EEC2EjRKS6_RKS8_(ptr noundef nonnull align 8 dereferenceable(20) %m_table, i32 noundef 8, ptr noundef nonnull align 1 dereferenceable(1) %ref.tmp, ptr noundef nonnull align 1 dereferenceable(1) %ref.tmp2)
  ret void
}

declare i32 @__gxx_personality_v0(...)

; Function Attrs: mustprogress uwtable
define linkonce_odr hidden void @_ZN7obj_mapIK4exprjEC2Ev(ptr noundef nonnull align 8 dereferenceable(24) %this) unnamed_addr #4 comdat align 2 {
entry:
  %this.addr = alloca ptr, align 8
  %ref.tmp = alloca %struct.obj_hash.2, align 1
  %ref.tmp2 = alloca %struct.default_eq.3, align 1
  store ptr %this, ptr %this.addr, align 8
  %this1 = load ptr, ptr %this.addr, align 8
  %m_table = getelementptr inbounds %class.obj_map.0, ptr %this1, i32 0, i32 0
  call void @_ZN14core_hashtableIN7obj_mapIK4exprjE13obj_map_entryE8obj_hashINS3_8key_dataEE10default_eqIS6_EEC2EjRKS7_RKS9_(ptr noundef nonnull align 8 dereferenceable(20) %m_table, i32 noundef 8, ptr noundef nonnull align 1 dereferenceable(1) %ref.tmp, ptr noundef nonnull align 1 dereferenceable(1) %ref.tmp2)
  ret void
}

; Function Attrs: mustprogress nounwind uwtable
define linkonce_odr hidden void @_ZNSt3mapISt4pairIjjEjSt4lessIS1_ESaIS0_IKS1_jEEEC2Ev(ptr noundef nonnull align 8 dereferenceable(48) %this) unnamed_addr #5 comdat align 2 {
entry:
  %this.addr = alloca ptr, align 8
  store ptr %this, ptr %this.addr, align 8
  %this1 = load ptr, ptr %this.addr, align 8
  %_M_t = getelementptr inbounds %"class.std::map", ptr %this1, i32 0, i32 0
  call void @_ZNSt8_Rb_treeISt4pairIjjES0_IKS1_jESt10_Select1stIS3_ESt4lessIS1_ESaIS3_EEC2Ev(ptr noundef nonnull align 8 dereferenceable(48) %_M_t) #3
  ret void
}

; Function Attrs: mustprogress uwtable
define linkonce_odr hidden void @_ZN10ref_vectorI4expr11ast_managerEC2ERS1_(ptr noundef nonnull align 8 dereferenceable(16) %this, ptr noundef nonnull align 8 dereferenceable(976) %m) unnamed_addr #4 comdat align 2 {
entry:
  %this.addr = alloca ptr, align 8
  %m.addr = alloca ptr, align 8
  %ref.tmp = alloca %class.ref_manager_wrapper, align 8
  store ptr %this, ptr %this.addr, align 8
  store ptr %m, ptr %m.addr, align 8
  %this1 = load ptr, ptr %this.addr, align 8
  %0 = load ptr, ptr %m.addr, align 8
  call void @_ZN19ref_manager_wrapperI4expr11ast_managerEC2ERS1_(ptr noundef nonnull align 8 dereferenceable(8) %ref.tmp, ptr noundef nonnull align 8 dereferenceable(976) %0)
  call void @_ZN15ref_vector_coreI4expr19ref_manager_wrapperIS0_11ast_managerEEC2ERKS3_(ptr noundef nonnull align 8 dereferenceable(16) %this1, ptr noundef nonnull align 8 dereferenceable(8) %ref.tmp)
  ret void
}

; Function Attrs: mustprogress nounwind uwtable
define linkonce_odr hidden void @_ZN7svectorIjjEC2Ev(ptr noundef nonnull align 8 dereferenceable(8) %this) unnamed_addr #5 comdat align 2 {
entry:
  %this.addr = alloca ptr, align 8
  store ptr %this, ptr %this.addr, align 8
  %this1 = load ptr, ptr %this.addr, align 8
  %0 = getelementptr inbounds i8, ptr %this1, i64 0
  call void @llvm.memset.p0.i64(ptr align 8 %0, i8 0, i64 8, i1 false)
  call void @_ZN6vectorIjLb0EjEC2Ev(ptr noundef nonnull align 8 dereferenceable(8) %this1) #3
  ret void
}

declare void @_ZNSt7__cxx1118basic_stringstreamIcSt11char_traitsIcESaIcEEC1Ev(ptr noundef nonnull align 8 dereferenceable(128)) unnamed_addr #1

; Function Attrs: mustprogress nounwind uwtable
define linkonce_odr hidden void @_ZNSt3setIP9func_declSt4lessIS1_ESaIS1_EEC2Ev(ptr noundef nonnull align 8 dereferenceable(48) %this) unnamed_addr #5 comdat align 2 {
entry:
  %this.addr = alloca ptr, align 8
  store ptr %this, ptr %this.addr, align 8
  %this1 = load ptr, ptr %this.addr, align 8
  %_M_t = getelementptr inbounds %"class.std::set", ptr %this1, i32 0, i32 0
  call void @_ZNSt8_Rb_treeIP9func_declS1_St9_IdentityIS1_ESt4lessIS1_ESaIS1_EEC2Ev(ptr noundef nonnull align 8 dereferenceable(48) %_M_t) #3
  ret void
}

; Function Attrs: mustprogress uwtable
define linkonce_odr hidden { ptr, ptr } @_ZNK7datalog8rule_set19begin_grouped_rulesEv(ptr noundef nonnull align 8 dereferenceable(248) %this) #4 comdat align 2 {
entry:
  %retval = alloca %"class.core_hashtable<obj_map<func_decl, ptr_vector<datalog::rule> *>::obj_map_entry, obj_hash<obj_map<func_decl, ptr_vector<datalog::rule> *>::key_data>, default_eq<obj_map<func_decl, ptr_vector<datalog::rule> *>::key_data>>::iterator", align 8
  %this.addr = alloca ptr, align 8
  store ptr %this, ptr %this.addr, align 8
  %this1 = load ptr, ptr %this.addr, align 8
  %m_head2rules = getelementptr inbounds %"class.datalog::rule_set", ptr %this1, i32 0, i32 3
  %call = call { ptr, ptr } @_ZNK7obj_mapI9func_declP10ptr_vectorIN7datalog4ruleEEE5beginEv(ptr noundef nonnull align 8 dereferenceable(24) %m_head2rules)
  %0 = getelementptr inbounds { ptr, ptr }, ptr %retval, i32 0, i32 0
  %1 = extractvalue { ptr, ptr } %call, 0
  store ptr %1, ptr %0, align 8
  %2 = getelementptr inbounds { ptr, ptr }, ptr %retval, i32 0, i32 1
  %3 = extractvalue { ptr, ptr } %call, 1
  store ptr %3, ptr %2, align 8
  %4 = load { ptr, ptr }, ptr %retval, align 8
  ret { ptr, ptr } %4
}

; Function Attrs: mustprogress uwtable
define linkonce_odr hidden { ptr, ptr } @_ZNK7datalog8rule_set17end_grouped_rulesEv(ptr noundef nonnull align 8 dereferenceable(248) %this) #4 comdat align 2 {
entry:
  %retval = alloca %"class.core_hashtable<obj_map<func_decl, ptr_vector<datalog::rule> *>::obj_map_entry, obj_hash<obj_map<func_decl, ptr_vector<datalog::rule> *>::key_data>, default_eq<obj_map<func_decl, ptr_vector<datalog::rule> *>::key_data>>::iterator", align 8
  %this.addr = alloca ptr, align 8
  store ptr %this, ptr %this.addr, align 8
  %this1 = load ptr, ptr %this.addr, align 8
  %m_head2rules = getelementptr inbounds %"class.datalog::rule_set", ptr %this1, i32 0, i32 3
  %call = call { ptr, ptr } @_ZNK7obj_mapI9func_declP10ptr_vectorIN7datalog4ruleEEE3endEv(ptr noundef nonnull align 8 dereferenceable(24) %m_head2rules)
  %0 = getelementptr inbounds { ptr, ptr }, ptr %retval, i32 0, i32 0
  %1 = extractvalue { ptr, ptr } %call, 0
  store ptr %1, ptr %0, align 8
  %2 = getelementptr inbounds { ptr, ptr }, ptr %retval, i32 0, i32 1
  %3 = extractvalue { ptr, ptr } %call, 1
  store ptr %3, ptr %2, align 8
  %4 = load { ptr, ptr }, ptr %retval, align 8
  ret { ptr, ptr } %4
}

; Function Attrs: mustprogress nounwind uwtable
define linkonce_odr hidden noundef zeroext i1 @_ZNK14core_hashtableIN7obj_mapI9func_declP10ptr_vectorIN7datalog4ruleEEE13obj_map_entryE8obj_hashINS7_8key_dataEE10default_eqISA_EE8iteratorneERKSF_(ptr noundef nonnull align 8 dereferenceable(16) %this, ptr noundef nonnull align 8 dereferenceable(16) %it) #5 comdat align 2 {
entry:
  %this.addr = alloca ptr, align 8
  %it.addr = alloca ptr, align 8
  store ptr %this, ptr %this.addr, align 8
  store ptr %it, ptr %it.addr, align 8
  %this1 = load ptr, ptr %this.addr, align 8
  %m_curr = getelementptr inbounds %"class.core_hashtable<obj_map<func_decl, ptr_vector<datalog::rule> *>::obj_map_entry, obj_hash<obj_map<func_decl, ptr_vector<datalog::rule> *>::key_data>, default_eq<obj_map<func_decl, ptr_vector<datalog::rule> *>::key_data>>::iterator", ptr %this1, i32 0, i32 0
  %0 = load ptr, ptr %m_curr, align 8
  %1 = load ptr, ptr %it.addr, align 8
  %m_curr2 = getelementptr inbounds %"class.core_hashtable<obj_map<func_decl, ptr_vector<datalog::rule> *>::obj_map_entry, obj_hash<obj_map<func_decl, ptr_vector<datalog::rule> *>::key_data>, default_eq<obj_map<func_decl, ptr_vector<datalog::rule> *>::key_data>>::iterator", ptr %1, i32 0, i32 0
  %2 = load ptr, ptr %m_curr2, align 8
  %cmp = icmp ne ptr %0, %2
  ret i1 %cmp
}

; Function Attrs: mustprogress uwtable
define linkonce_odr hidden { ptr, i8 } @_ZNSt3setIP9func_declSt4lessIS1_ESaIS1_EE6insertERKS1_(ptr noundef nonnull align 8 dereferenceable(48) %this, ptr noundef nonnull align 8 dereferenceable(8) %__x) #4 comdat align 2 {
entry:
  %retval = alloca %"struct.std::pair", align 8
  %this.addr = alloca ptr, align 8
  %__x.addr = alloca ptr, align 8
  %__p = alloca %"struct.std::pair.212", align 8
  store ptr %this, ptr %this.addr, align 8
  store ptr %__x, ptr %__x.addr, align 8
  %this1 = load ptr, ptr %this.addr, align 8
  %_M_t = getelementptr inbounds %"class.std::set", ptr %this1, i32 0, i32 0
  %0 = load ptr, ptr %__x.addr, align 8
  %call = call { ptr, i8 } @_ZNSt8_Rb_treeIP9func_declS1_St9_IdentityIS1_ESt4lessIS1_ESaIS1_EE16_M_insert_uniqueIRKS1_EESt4pairISt17_Rb_tree_iteratorIS1_EbEOT_(ptr noundef nonnull align 8 dereferenceable(48) %_M_t, ptr noundef nonnull align 8 dereferenceable(8) %0)
  %1 = getelementptr inbounds { ptr, i8 }, ptr %__p, i32 0, i32 0
  %2 = extractvalue { ptr, i8 } %call, 0
  store ptr %2, ptr %1, align 8
  %3 = getelementptr inbounds { ptr, i8 }, ptr %__p, i32 0, i32 1
  %4 = extractvalue { ptr, i8 } %call, 1
  store i8 %4, ptr %3, align 8
  %first = getelementptr inbounds %"struct.std::pair.212", ptr %__p, i32 0, i32 0
  %second = getelementptr inbounds %"struct.std::pair.212", ptr %__p, i32 0, i32 1
  call void @_ZNSt4pairISt23_Rb_tree_const_iteratorIP9func_declEbEC2IRSt17_Rb_tree_iteratorIS2_ERbTnNSt9enable_ifIXaaclsr5_PCCPE22_MoveConstructiblePairIT_T0_EEclsr5_PCCPE30_ImplicitlyMoveConvertiblePairISB_SC_EEEbE4typeELb1EEEOSB_OSC_(ptr noundef nonnull align 8 dereferenceable(9) %retval, ptr noundef nonnull align 8 dereferenceable(8) %first, ptr noundef nonnull align 1 dereferenceable(1) %second)
  %5 = load { ptr, i8 }, ptr %retval, align 8
  ret { ptr, i8 } %5
}

; Function Attrs: mustprogress uwtable
define linkonce_odr hidden noundef ptr @_ZN14core_hashtableIN7obj_mapI9func_declP10ptr_vectorIN7datalog4ruleEEE13obj_map_entryE8obj_hashINS7_8key_dataEE10default_eqISA_EE8iteratorptEv(ptr noundef nonnull align 8 dereferenceable(16) %this) #4 comdat align 2 {
entry:
  %this.addr = alloca ptr, align 8
  store ptr %this, ptr %this.addr, align 8
  %this1 = load ptr, ptr %this.addr, align 8
  %call = call noundef nonnull align 8 dereferenceable(16) ptr @_ZN14core_hashtableIN7obj_mapI9func_declP10ptr_vectorIN7datalog4ruleEEE13obj_map_entryE8obj_hashINS7_8key_dataEE10default_eqISA_EE8iteratordeEv(ptr noundef nonnull align 8 dereferenceable(16) %this1)
  ret ptr %call
}

; Function Attrs: mustprogress uwtable
define linkonce_odr hidden noundef nonnull align 8 dereferenceable(16) ptr @_ZN14core_hashtableIN7obj_mapI9func_declP10ptr_vectorIN7datalog4ruleEEE13obj_map_entryE8obj_hashINS7_8key_dataEE10default_eqISA_EE8iteratorppEv(ptr noundef nonnull align 8 dereferenceable(16) %this) #4 comdat align 2 {
entry:
  %this.addr = alloca ptr, align 8
  store ptr %this, ptr %this.addr, align 8
  %this1 = load ptr, ptr %this.addr, align 8
  %m_curr = getelementptr inbounds %"class.core_hashtable<obj_map<func_decl, ptr_vector<datalog::rule> *>::obj_map_entry, obj_hash<obj_map<func_decl, ptr_vector<datalog::rule> *>::key_data>, default_eq<obj_map<func_decl, ptr_vector<datalog::rule> *>::key_data>>::iterator", ptr %this1, i32 0, i32 0
  %0 = load ptr, ptr %m_curr, align 8
  %incdec.ptr = getelementptr inbounds %"class.obj_map<func_decl, ptr_vector<datalog::rule> *>::obj_map_entry", ptr %0, i32 1
  store ptr %incdec.ptr, ptr %m_curr, align 8
  call void @_ZN14core_hashtableIN7obj_mapI9func_declP10ptr_vectorIN7datalog4ruleEEE13obj_map_entryE8obj_hashINS7_8key_dataEE10default_eqISA_EE8iterator12move_to_usedEv(ptr noundef nonnull align 8 dereferenceable(16) %this1)
  ret ptr %this1
}

; Function Attrs: mustprogress nounwind uwtable
define linkonce_odr hidden noundef ptr @_ZNK6vectorISt4pairIP9func_declN7datalog13relation_factEELb1EjE5beginEv(ptr noundef nonnull align 8 dereferenceable(8) %this) #5 comdat align 2 {
entry:
  %this.addr = alloca ptr, align 8
  store ptr %this, ptr %this.addr, align 8
  %this1 = load ptr, ptr %this.addr, align 8
  %m_data = getelementptr inbounds %class.vector.178, ptr %this1, i32 0, i32 0
  %0 = load ptr, ptr %m_data, align 8
  ret ptr %0
}

; Function Attrs: mustprogress uwtable
define linkonce_odr hidden noundef ptr @_ZNK6vectorISt4pairIP9func_declN7datalog13relation_factEELb1EjE3endEv(ptr noundef nonnull align 8 dereferenceable(8) %this) #4 comdat align 2 {
entry:
  %this.addr = alloca ptr, align 8
  store ptr %this, ptr %this.addr, align 8
  %this1 = load ptr, ptr %this.addr, align 8
  %m_data = getelementptr inbounds %class.vector.178, ptr %this1, i32 0, i32 0
  %0 = load ptr, ptr %m_data, align 8
  %call = call noundef i32 @_ZNK6vectorISt4pairIP9func_declN7datalog13relation_factEELb1EjE4sizeEv(ptr noundef nonnull align 8 dereferenceable(8) %this1)
  %idx.ext = zext i32 %call to i64
  %add.ptr = getelementptr inbounds %"struct.std::pair.179", ptr %0, i64 %idx.ext
  ret ptr %add.ptr
}

; Function Attrs: mustprogress nounwind uwtable
define linkonce_odr hidden noundef i64 @_ZNKSt3setIP9func_declSt4lessIS1_ESaIS1_EE4sizeEv(ptr noundef nonnull align 8 dereferenceable(48) %this) #5 comdat align 2 {
entry:
  %this.addr = alloca ptr, align 8
  store ptr %this, ptr %this.addr, align 8
  %this1 = load ptr, ptr %this.addr, align 8
  %_M_t = getelementptr inbounds %"class.std::set", ptr %this1, i32 0, i32 0
  %call = call noundef i64 @_ZNKSt8_Rb_treeIP9func_declS1_St9_IdentityIS1_ESt4lessIS1_ESaIS1_EE4sizeEv(ptr noundef nonnull align 8 dereferenceable(48) %_M_t) #3
  ret i64 %call
}

declare noundef i32 @_Z4log2j(i32 noundef) #1

; Function Attrs: mustprogress uwtable
define linkonce_odr hidden noundef nonnull align 8 dereferenceable(16) ptr @_ZN15ref_vector_coreI4expr19ref_manager_wrapperIS0_11ast_managerEE9push_backEPS0_(ptr noundef nonnull align 8 dereferenceable(16) %this, ptr noundef %n) #4 comdat align 2 {
entry:
  %this.addr = alloca ptr, align 8
  %n.addr = alloca ptr, align 8
  store ptr %this, ptr %this.addr, align 8
  store ptr %n, ptr %n.addr, align 8
  %this1 = load ptr, ptr %this.addr, align 8
  %0 = load ptr, ptr %n.addr, align 8
  call void @_ZN15ref_vector_coreI4expr19ref_manager_wrapperIS0_11ast_managerEE7inc_refEPS0_(ptr noundef nonnull align 8 dereferenceable(16) %this1, ptr noundef %0)
  %m_nodes = getelementptr inbounds %class.ref_vector_core, ptr %this1, i32 0, i32 1
  %call = call noundef nonnull align 8 dereferenceable(8) ptr @_ZN6vectorIP4exprLb0EjE9push_backERKS1_(ptr noundef nonnull align 8 dereferenceable(8) %m_nodes, ptr noundef nonnull align 8 dereferenceable(8) %n.addr)
  ret ptr %this1
}

; Function Attrs: mustprogress uwtable
define linkonce_odr hidden noundef ptr @_ZN11ast_manager14mk_fresh_constEPKcP4sortb(ptr noundef nonnull align 8 dereferenceable(976) %this, ptr noundef %prefix, ptr noundef %s, i1 noundef zeroext %skolem) #4 comdat align 2 {
entry:
  %this.addr = alloca ptr, align 8
  %prefix.addr = alloca ptr, align 8
  %s.addr = alloca ptr, align 8
  %skolem.addr = alloca i8, align 1
  store ptr %this, ptr %this.addr, align 8
  store ptr %prefix, ptr %prefix.addr, align 8
  store ptr %s, ptr %s.addr, align 8
  %frombool = zext i1 %skolem to i8
  store i8 %frombool, ptr %skolem.addr, align 1
  %this1 = load ptr, ptr %this.addr, align 8
  %0 = load ptr, ptr %prefix.addr, align 8
  %1 = load ptr, ptr %s.addr, align 8
  %2 = load i8, ptr %skolem.addr, align 1
  %tobool = trunc i8 %2 to i1
  %call = call noundef ptr @_ZN11ast_manager18mk_fresh_func_declEPKcjPKP4sortS3_b(ptr noundef nonnull align 8 dereferenceable(976) %this1, ptr noundef %0, i32 noundef 0, ptr noundef null, ptr noundef %1, i1 noundef zeroext %tobool)
  %call2 = call noundef ptr @_ZN11ast_manager8mk_constEP9func_decl(ptr noundef nonnull align 8 dereferenceable(976) %this1, ptr noundef %call)
  ret ptr %call2
}

; Function Attrs: mustprogress nounwind uwtable
define linkonce_odr hidden noundef ptr @_ZNK11ast_manager12mk_bool_sortEv(ptr noundef nonnull align 8 dereferenceable(976) %this) #5 comdat align 2 {
entry:
  %this.addr = alloca ptr, align 8
  store ptr %this, ptr %this.addr, align 8
  %this1 = load ptr, ptr %this.addr, align 8
  %m_bool_sort = getelementptr inbounds %class.ast_manager, ptr %this1, i32 0, i32 13
  %0 = load ptr, ptr %m_bool_sort, align 8
  ret ptr %0
}

; Function Attrs: mustprogress nounwind uwtable
define linkonce_odr hidden void @_ZNSt3setIP9func_declSt4lessIS1_ESaIS1_EED2Ev(ptr noundef nonnull align 8 dereferenceable(48) %this) unnamed_addr #5 comdat align 2 {
entry:
  %this.addr = alloca ptr, align 8
  store ptr %this, ptr %this.addr, align 8
  %this1 = load ptr, ptr %this.addr, align 8
  %_M_t = getelementptr inbounds %"class.std::set", ptr %this1, i32 0, i32 0
  call void @_ZNSt8_Rb_treeIP9func_declS1_St9_IdentityIS1_ESt4lessIS1_ESaIS1_EED2Ev(ptr noundef nonnull align 8 dereferenceable(48) %_M_t) #3
  ret void
}

; Function Attrs: nounwind
declare void @_ZNSt7__cxx1118basic_stringstreamIcSt11char_traitsIcESaIcEED1Ev(ptr noundef nonnull align 8 dereferenceable(128)) unnamed_addr #2

; Function Attrs: mustprogress nounwind uwtable
define linkonce_odr hidden void @_ZN7svectorIjjED2Ev(ptr noundef nonnull align 8 dereferenceable(8) %this) unnamed_addr #5 comdat align 2 {
entry:
  %this.addr = alloca ptr, align 8
  store ptr %this, ptr %this.addr, align 8
  %this1 = load ptr, ptr %this.addr, align 8
  call void @_ZN6vectorIjLb0EjED2Ev(ptr noundef nonnull align 8 dereferenceable(8) %this1) #3
  ret void
}

; Function Attrs: mustprogress nounwind uwtable
define linkonce_odr hidden void @_ZN10ref_vectorI4expr11ast_managerED2Ev(ptr noundef nonnull align 8 dereferenceable(16) %this) unnamed_addr #5 comdat align 2 {
entry:
  %this.addr = alloca ptr, align 8
  store ptr %this, ptr %this.addr, align 8
  %this1 = load ptr, ptr %this.addr, align 8
  call void @_ZN15ref_vector_coreI4expr19ref_manager_wrapperIS0_11ast_managerEED2Ev(ptr noundef nonnull align 8 dereferenceable(16) %this1) #3
  ret void
}

; Function Attrs: mustprogress nounwind uwtable
define linkonce_odr hidden void @_ZNSt3mapISt4pairIjjEjSt4lessIS1_ESaIS0_IKS1_jEEED2Ev(ptr noundef nonnull align 8 dereferenceable(48) %this) unnamed_addr #5 comdat align 2 {
entry:
  %this.addr = alloca ptr, align 8
  store ptr %this, ptr %this.addr, align 8
  %this1 = load ptr, ptr %this.addr, align 8
  %_M_t = getelementptr inbounds %"class.std::map", ptr %this1, i32 0, i32 0
  call void @_ZNSt8_Rb_treeISt4pairIjjES0_IKS1_jESt10_Select1stIS3_ESt4lessIS1_ESaIS3_EED2Ev(ptr noundef nonnull align 8 dereferenceable(48) %_M_t) #3
  ret void
}

; Function Attrs: mustprogress nounwind uwtable
define linkonce_odr hidden void @_ZN7obj_mapIK4exprjED2Ev(ptr noundef nonnull align 8 dereferenceable(24) %this) unnamed_addr #5 comdat align 2 {
entry:
  %this.addr = alloca ptr, align 8
  store ptr %this, ptr %this.addr, align 8
  %this1 = load ptr, ptr %this.addr, align 8
  %m_table = getelementptr inbounds %class.obj_map.0, ptr %this1, i32 0, i32 0
  call void @_ZN14core_hashtableIN7obj_mapIK4exprjE13obj_map_entryE8obj_hashINS3_8key_dataEE10default_eqIS6_EED2Ev(ptr noundef nonnull align 8 dereferenceable(20) %m_table) #3
  ret void
}

; Function Attrs: mustprogress nounwind uwtable
define linkonce_odr hidden void @_ZN7obj_mapI9func_decljED2Ev(ptr noundef nonnull align 8 dereferenceable(24) %this) unnamed_addr #5 comdat align 2 {
entry:
  %this.addr = alloca ptr, align 8
  store ptr %this, ptr %this.addr, align 8
  %this1 = load ptr, ptr %this.addr, align 8
  %m_table = getelementptr inbounds %class.obj_map, ptr %this1, i32 0, i32 0
  call void @_ZN14core_hashtableIN7obj_mapI9func_decljE13obj_map_entryE8obj_hashINS2_8key_dataEE10default_eqIS5_EED2Ev(ptr noundef nonnull align 8 dereferenceable(20) %m_table) #3
  ret void
}

; Function Attrs: nounwind
declare void @_ZN11aig_managerD1Ev(ptr noundef nonnull align 8 dereferenceable(8)) unnamed_addr #2

; Function Attrs: mustprogress uwtable
define hidden void @_ZN7datalog12aig_exporter13mk_latch_varsEj(ptr noundef nonnull align 8 dereferenceable(624) %this, i32 noundef %n) #4 align 2 {
entry:
  %this.addr = alloca ptr, align 8
  %n.addr = alloca i32, align 4
  %i = alloca i32, align 4
  store ptr %this, ptr %this.addr, align 8
  store i32 %n, ptr %n.addr, align 4
  %this1 = load ptr, ptr %this.addr, align 8
  %m_latch_vars = getelementptr inbounds %"class.datalog::aig_exporter", ptr %this1, i32 0, i32 12
  %call = call noundef i32 @_ZNK15ref_vector_coreI4expr19ref_manager_wrapperIS0_11ast_managerEE4sizeEv(ptr noundef nonnull align 8 dereferenceable(16) %m_latch_vars)
  store i32 %call, ptr %i, align 4
  br label %for.cond

for.cond:                                         ; preds = %for.inc, %entry
  %0 = load i32, ptr %i, align 4
  %1 = load i32, ptr %n.addr, align 4
  %cmp = icmp ule i32 %0, %1
  br i1 %cmp, label %for.body, label %for.end

for.body:                                         ; preds = %for.cond
  %m_latch_vars2 = getelementptr inbounds %"class.datalog::aig_exporter", ptr %this1, i32 0, i32 12
  %m = getelementptr inbounds %"class.datalog::aig_exporter", ptr %this1, i32 0, i32 2
  %2 = load ptr, ptr %m, align 8
  %m3 = getelementptr inbounds %"class.datalog::aig_exporter", ptr %this1, i32 0, i32 2
  %3 = load ptr, ptr %m3, align 8
  %call4 = call noundef ptr @_ZNK11ast_manager12mk_bool_sortEv(ptr noundef nonnull align 8 dereferenceable(976) %3)
  %call5 = call noundef ptr @_ZN11ast_manager14mk_fresh_constEPKcP4sortb(ptr noundef nonnull align 8 dereferenceable(976) %2, ptr noundef @.str.2, ptr noundef %call4, i1 noundef zeroext true)
  %call6 = call noundef nonnull align 8 dereferenceable(16) ptr @_ZN15ref_vector_coreI4expr19ref_manager_wrapperIS0_11ast_managerEE9push_backEPS0_(ptr noundef nonnull align 8 dereferenceable(16) %m_latch_vars2, ptr noundef %call5)
  %m_latch_varsp = getelementptr inbounds %"class.datalog::aig_exporter", ptr %this1, i32 0, i32 13
  %m7 = getelementptr inbounds %"class.datalog::aig_exporter", ptr %this1, i32 0, i32 2
  %4 = load ptr, ptr %m7, align 8
  %m8 = getelementptr inbounds %"class.datalog::aig_exporter", ptr %this1, i32 0, i32 2
  %5 = load ptr, ptr %m8, align 8
  %call9 = call noundef ptr @_ZNK11ast_manager12mk_bool_sortEv(ptr noundef nonnull align 8 dereferenceable(976) %5)
  %call10 = call noundef ptr @_ZN11ast_manager14mk_fresh_constEPKcP4sortb(ptr noundef nonnull align 8 dereferenceable(976) %4, ptr noundef @.str.3, ptr noundef %call9, i1 noundef zeroext true)
  %call11 = call noundef nonnull align 8 dereferenceable(16) ptr @_ZN15ref_vector_coreI4expr19ref_manager_wrapperIS0_11ast_managerEE9push_backEPS0_(ptr noundef nonnull align 8 dereferenceable(16) %m_latch_varsp, ptr noundef %call10)
  br label %for.inc

for.inc:                                          ; preds = %for.body
  %6 = load i32, ptr %i, align 4
  %inc = add i32 %6, 1
  store i32 %inc, ptr %i, align 4
  br label %for.cond, !llvm.loop !8

for.end:                                          ; preds = %for.cond
  ret void
}

; Function Attrs: mustprogress nounwind uwtable
define linkonce_odr hidden noundef i32 @_ZNK15ref_vector_coreI4expr19ref_manager_wrapperIS0_11ast_managerEE4sizeEv(ptr noundef nonnull align 8 dereferenceable(16) %this) #5 comdat align 2 {
entry:
  %this.addr = alloca ptr, align 8
  store ptr %this, ptr %this.addr, align 8
  %this1 = load ptr, ptr %this.addr, align 8
  %m_nodes = getelementptr inbounds %class.ref_vector_core, ptr %this1, i32 0, i32 1
  %call = call noundef i32 @_ZNK6vectorIP4exprLb0EjE4sizeEv(ptr noundef nonnull align 8 dereferenceable(8) %m_nodes)
  ret i32 %call
}

; Function Attrs: mustprogress uwtable
define hidden noundef ptr @_ZN7datalog12aig_exporter13get_latch_varEjRK10ref_vectorI4expr11ast_managerE(ptr noundef nonnull align 8 dereferenceable(624) %this, i32 noundef %i, ptr noundef nonnull align 8 dereferenceable(16) %vars) #4 align 2 {
entry:
  %this.addr = alloca ptr, align 8
  %i.addr = alloca i32, align 4
  %vars.addr = alloca ptr, align 8
  store ptr %this, ptr %this.addr, align 8
  store i32 %i, ptr %i.addr, align 4
  store ptr %vars, ptr %vars.addr, align 8
  %this1 = load ptr, ptr %this.addr, align 8
  %0 = load i32, ptr %i.addr, align 4
  call void @_ZN7datalog12aig_exporter13mk_latch_varsEj(ptr noundef nonnull align 8 dereferenceable(624) %this1, i32 noundef %0)
  %1 = load ptr, ptr %vars.addr, align 8
  %2 = load i32, ptr %i.addr, align 4
  %call = call noundef ptr @_ZNK15ref_vector_coreI4expr19ref_manager_wrapperIS0_11ast_managerEE3getEj(ptr noundef nonnull align 8 dereferenceable(16) %1, i32 noundef %2)
  ret ptr %call
}

; Function Attrs: mustprogress nounwind uwtable
define linkonce_odr hidden noundef ptr @_ZNK15ref_vector_coreI4expr19ref_manager_wrapperIS0_11ast_managerEE3getEj(ptr noundef nonnull align 8 dereferenceable(16) %this, i32 noundef %idx) #5 comdat align 2 {
entry:
  %this.addr = alloca ptr, align 8
  %idx.addr = alloca i32, align 4
  store ptr %this, ptr %this.addr, align 8
  store i32 %idx, ptr %idx.addr, align 4
  %this1 = load ptr, ptr %this.addr, align 8
  %m_nodes = getelementptr inbounds %class.ref_vector_core, ptr %this1, i32 0, i32 1
  %0 = load i32, ptr %idx.addr, align 4
  %call = call noundef nonnull align 8 dereferenceable(8) ptr @_ZNK6vectorIP4exprLb0EjEixEj(ptr noundef nonnull align 8 dereferenceable(8) %m_nodes, i32 noundef %0)
  %1 = load ptr, ptr %call, align 8
  ret ptr %1
}

; Function Attrs: mustprogress uwtable
define hidden void @_ZN7datalog12aig_exporter14assert_pred_idEP9func_declRK10ref_vectorI4expr11ast_managerERS6_(ptr noundef nonnull align 8 dereferenceable(624) %this, ptr noundef %decl, ptr noundef nonnull align 8 dereferenceable(16) %vars, ptr noundef nonnull align 8 dereferenceable(16) %exprs) #4 align 2 {
entry:
  %this.addr = alloca ptr, align 8
  %decl.addr = alloca ptr, align 8
  %vars.addr = alloca ptr, align 8
  %exprs.addr = alloca ptr, align 8
  %id = alloca i32, align 4
  %i = alloca i32, align 4
  store ptr %this, ptr %this.addr, align 8
  store ptr %decl, ptr %decl.addr, align 8
  store ptr %vars, ptr %vars.addr, align 8
  store ptr %exprs, ptr %exprs.addr, align 8
  %this1 = load ptr, ptr %this.addr, align 8
  store i32 0, ptr %id, align 4
  %0 = load ptr, ptr %decl.addr, align 8
  %tobool = icmp ne ptr %0, null
  br i1 %tobool, label %land.lhs.true, label %if.end

land.lhs.true:                                    ; preds = %entry
  %m_decl_id_map = getelementptr inbounds %"class.datalog::aig_exporter", ptr %this1, i32 0, i32 5
  %1 = load ptr, ptr %decl.addr, align 8
  %call = call noundef zeroext i1 @_ZNK7obj_mapI9func_decljE4findEPS0_Rj(ptr noundef nonnull align 8 dereferenceable(24) %m_decl_id_map, ptr noundef %1, ptr noundef nonnull align 4 dereferenceable(4) %id)
  br i1 %call, label %if.end, label %if.then

if.then:                                          ; preds = %land.lhs.true
  %m_next_decl_id = getelementptr inbounds %"class.datalog::aig_exporter", ptr %this1, i32 0, i32 6
  %2 = load i32, ptr %m_next_decl_id, align 8
  %inc = add i32 %2, 1
  store i32 %inc, ptr %m_next_decl_id, align 8
  store i32 %2, ptr %id, align 4
  %m_decl_id_map2 = getelementptr inbounds %"class.datalog::aig_exporter", ptr %this1, i32 0, i32 5
  %3 = load ptr, ptr %decl.addr, align 8
  call void @_ZN7obj_mapI9func_decljE6insertEPS0_RKj(ptr noundef nonnull align 8 dereferenceable(24) %m_decl_id_map2, ptr noundef %3, ptr noundef nonnull align 4 dereferenceable(4) %id)
  br label %if.end

if.end:                                           ; preds = %if.then, %land.lhs.true, %entry
  store i32 0, ptr %i, align 4
  br label %for.cond

for.cond:                                         ; preds = %for.inc, %if.end
  %4 = load i32, ptr %i, align 4
  %5 = load ptr, ptr %vars.addr, align 8
  %call3 = call noundef i32 @_ZNK15ref_vector_coreI4expr19ref_manager_wrapperIS0_11ast_managerEE4sizeEv(ptr noundef nonnull align 8 dereferenceable(16) %5)
  %cmp = icmp ult i32 %4, %call3
  br i1 %cmp, label %for.body, label %for.end

for.body:                                         ; preds = %for.cond
  %6 = load ptr, ptr %exprs.addr, align 8
  %7 = load i32, ptr %id, align 4
  %8 = load i32, ptr %i, align 4
  %shl = shl i32 1, %8
  %and = and i32 %7, %shl
  %tobool4 = icmp ne i32 %and, 0
  br i1 %tobool4, label %cond.true, label %cond.false

cond.true:                                        ; preds = %for.body
  %9 = load ptr, ptr %vars.addr, align 8
  %10 = load i32, ptr %i, align 4
  %call5 = call noundef ptr @_ZNK10ref_vectorI4expr11ast_managerEixEj(ptr noundef nonnull align 8 dereferenceable(16) %9, i32 noundef %10)
  br label %cond.end

cond.false:                                       ; preds = %for.body
  %m = getelementptr inbounds %"class.datalog::aig_exporter", ptr %this1, i32 0, i32 2
  %11 = load ptr, ptr %m, align 8
  %12 = load ptr, ptr %vars.addr, align 8
  %13 = load i32, ptr %i, align 4
  %call6 = call noundef ptr @_ZNK10ref_vectorI4expr11ast_managerEixEj(ptr noundef nonnull align 8 dereferenceable(16) %12, i32 noundef %13)
  %call7 = call noundef ptr @_ZN11ast_manager6mk_notEP4expr(ptr noundef nonnull align 8 dereferenceable(976) %11, ptr noundef %call6)
  br label %cond.end

cond.end:                                         ; preds = %cond.false, %cond.true
  %cond = phi ptr [ %call5, %cond.true ], [ %call7, %cond.false ]
  %call8 = call noundef nonnull align 8 dereferenceable(16) ptr @_ZN15ref_vector_coreI4expr19ref_manager_wrapperIS0_11ast_managerEE9push_backEPS0_(ptr noundef nonnull align 8 dereferenceable(16) %6, ptr noundef %cond)
  br label %for.inc

for.inc:                                          ; preds = %cond.end
  %14 = load i32, ptr %i, align 4
  %inc9 = add i32 %14, 1
  store i32 %inc9, ptr %i, align 4
  br label %for.cond, !llvm.loop !9

for.end:                                          ; preds = %for.cond
  ret void
}

; Function Attrs: mustprogress uwtable
define linkonce_odr hidden noundef zeroext i1 @_ZNK7obj_mapI9func_decljE4findEPS0_Rj(ptr noundef nonnull align 8 dereferenceable(24) %this, ptr noundef %k, ptr noundef nonnull align 4 dereferenceable(4) %v) #4 comdat align 2 {
entry:
  %this.addr = alloca ptr, align 8
  %k.addr = alloca ptr, align 8
  %v.addr = alloca ptr, align 8
  %e = alloca ptr, align 8
  store ptr %this, ptr %this.addr, align 8
  store ptr %k, ptr %k.addr, align 8
  store ptr %v, ptr %v.addr, align 8
  %this1 = load ptr, ptr %this.addr, align 8
  %0 = load ptr, ptr %k.addr, align 8
  %call = call noundef ptr @_ZNK7obj_mapI9func_decljE9find_coreEPS0_(ptr noundef nonnull align 8 dereferenceable(24) %this1, ptr noundef %0)
  store ptr %call, ptr %e, align 8
  %1 = load ptr, ptr %e, align 8
  %tobool = icmp ne ptr %1, null
  br i1 %tobool, label %if.then, label %if.end

if.then:                                          ; preds = %entry
  %2 = load ptr, ptr %e, align 8
  %call2 = call noundef nonnull align 8 dereferenceable(12) ptr @_ZN7obj_mapI9func_decljE13obj_map_entry8get_dataEv(ptr noundef nonnull align 8 dereferenceable(16) %2)
  %m_value = getelementptr inbounds %"struct.obj_map<func_decl, unsigned int>::key_data", ptr %call2, i32 0, i32 1
  %3 = load i32, ptr %m_value, align 8
  %4 = load ptr, ptr %v.addr, align 8
  store i32 %3, ptr %4, align 4
  br label %if.end

if.end:                                           ; preds = %if.then, %entry
  %5 = load ptr, ptr %e, align 8
  %cmp = icmp ne ptr null, %5
  ret i1 %cmp
}

; Function Attrs: mustprogress uwtable
define linkonce_odr hidden void @_ZN7obj_mapI9func_decljE6insertEPS0_RKj(ptr noundef nonnull align 8 dereferenceable(24) %this, ptr noundef %k, ptr noundef nonnull align 4 dereferenceable(4) %v) #4 comdat align 2 {
entry:
  %this.addr = alloca ptr, align 8
  %k.addr = alloca ptr, align 8
  %v.addr = alloca ptr, align 8
  %ref.tmp = alloca %"struct.obj_map<func_decl, unsigned int>::key_data", align 8
  store ptr %this, ptr %this.addr, align 8
  store ptr %k, ptr %k.addr, align 8
  store ptr %v, ptr %v.addr, align 8
  %this1 = load ptr, ptr %this.addr, align 8
  %m_table = getelementptr inbounds %class.obj_map, ptr %this1, i32 0, i32 0
  %0 = load ptr, ptr %k.addr, align 8
  %1 = load ptr, ptr %v.addr, align 8
  call void @_ZN7obj_mapI9func_decljE8key_dataC2EPS0_RKj(ptr noundef nonnull align 8 dereferenceable(12) %ref.tmp, ptr noundef %0, ptr noundef nonnull align 4 dereferenceable(4) %1)
  call void @_ZN14core_hashtableIN7obj_mapI9func_decljE13obj_map_entryE8obj_hashINS2_8key_dataEE10default_eqIS5_EE6insertEOS5_(ptr noundef nonnull align 8 dereferenceable(20) %m_table, ptr noundef nonnull align 8 dereferenceable(12) %ref.tmp)
  ret void
}

; Function Attrs: mustprogress uwtable
define linkonce_odr hidden noundef ptr @_ZNK10ref_vectorI4expr11ast_managerEixEj(ptr noundef nonnull align 8 dereferenceable(16) %this, i32 noundef %idx) #4 comdat align 2 {
entry:
  %this.addr = alloca ptr, align 8
  %idx.addr = alloca i32, align 4
  store ptr %this, ptr %this.addr, align 8
  store i32 %idx, ptr %idx.addr, align 4
  %this1 = load ptr, ptr %this.addr, align 8
  %0 = load i32, ptr %idx.addr, align 4
  %call = call noundef ptr @_ZNK15ref_vector_coreI4expr19ref_manager_wrapperIS0_11ast_managerEEixEj(ptr noundef nonnull align 8 dereferenceable(16) %this1, i32 noundef %0)
  ret ptr %call
}

; Function Attrs: mustprogress uwtable
define linkonce_odr hidden noundef ptr @_ZN11ast_manager6mk_notEP4expr(ptr noundef nonnull align 8 dereferenceable(976) %this, ptr noundef %n) #4 comdat align 2 {
entry:
  %this.addr = alloca ptr, align 8
  %n.addr = alloca ptr, align 8
  store ptr %this, ptr %this.addr, align 8
  store ptr %n, ptr %n.addr, align 8
  %this1 = load ptr, ptr %this.addr, align 8
  %0 = load ptr, ptr %n.addr, align 8
  %call = call noundef ptr @_ZN11ast_manager6mk_appEiiP4expr(ptr noundef nonnull align 8 dereferenceable(976) %this1, i32 noundef 0, i32 noundef 8, ptr noundef %0)
  ret ptr %call
}

; Function Attrs: mustprogress uwtable
define hidden void @_ZN7datalog12aig_exporter18collect_var_substsER12substitutionPK3appRK10ref_vectorI4expr11ast_managerERS9_(ptr noundef nonnull align 8 dereferenceable(624) %this, ptr noundef nonnull align 8 dereferenceable(124) %subst, ptr noundef %h, ptr noundef nonnull align 8 dereferenceable(16) %vars, ptr noundef nonnull align 8 dereferenceable(16) %eqs) #4 align 2 {
entry:
  %this.addr = alloca ptr, align 8
  %subst.addr = alloca ptr, align 8
  %h.addr = alloca ptr, align 8
  %vars.addr = alloca ptr, align 8
  %eqs.addr = alloca ptr, align 8
  %i = alloca i32, align 4
  %arg = alloca ptr, align 8
  %latchvar = alloca ptr, align 8
  %v = alloca ptr, align 8
  %othervar = alloca %class.expr_offset, align 8
  %ref.tmp = alloca %class.expr_offset, align 8
  store ptr %this, ptr %this.addr, align 8
  store ptr %subst, ptr %subst.addr, align 8
  store ptr %h, ptr %h.addr, align 8
  store ptr %vars, ptr %vars.addr, align 8
  store ptr %eqs, ptr %eqs.addr, align 8
  %this1 = load ptr, ptr %this.addr, align 8
  store i32 0, ptr %i, align 4
  br label %for.cond

for.cond:                                         ; preds = %for.inc, %entry
  %0 = load i32, ptr %i, align 4
  %1 = load ptr, ptr %h.addr, align 8
  %call = call noundef i32 @_ZNK3app12get_num_argsEv(ptr noundef nonnull align 8 dereferenceable(32) %1)
  %cmp = icmp ult i32 %0, %call
  br i1 %cmp, label %for.body, label %for.end

for.body:                                         ; preds = %for.cond
  %2 = load ptr, ptr %h.addr, align 8
  %3 = load i32, ptr %i, align 4
  %call2 = call noundef ptr @_ZNK3app7get_argEj(ptr noundef nonnull align 8 dereferenceable(32) %2, i32 noundef %3)
  store ptr %call2, ptr %arg, align 8
  %4 = load i32, ptr %i, align 4
  %5 = load ptr, ptr %vars.addr, align 8
  %call3 = call noundef ptr @_ZN7datalog12aig_exporter13get_latch_varEjRK10ref_vectorI4expr11ast_managerE(ptr noundef nonnull align 8 dereferenceable(624) %this1, i32 noundef %4, ptr noundef nonnull align 8 dereferenceable(16) %5)
  store ptr %call3, ptr %latchvar, align 8
  %6 = load ptr, ptr %arg, align 8
  %call4 = call noundef zeroext i1 @_Z6is_varPK3ast(ptr noundef %6)
  br i1 %call4, label %if.then, label %if.else11

if.then:                                          ; preds = %for.body
  %7 = load ptr, ptr %arg, align 8
  %call5 = call noundef ptr @_Z6to_varP3ast(ptr noundef %7)
  store ptr %call5, ptr %v, align 8
  call void @_ZN11expr_offsetC2Ev(ptr noundef nonnull align 8 dereferenceable(12) %othervar)
  %8 = load ptr, ptr %subst.addr, align 8
  %9 = load ptr, ptr %v, align 8
  %call6 = call noundef zeroext i1 @_ZNK12substitution4findEP3varjR11expr_offset(ptr noundef nonnull align 8 dereferenceable(124) %8, ptr noundef %9, i32 noundef 0, ptr noundef nonnull align 8 dereferenceable(12) %othervar)
  br i1 %call6, label %if.then7, label %if.else

if.then7:                                         ; preds = %if.then
  %10 = load ptr, ptr %eqs.addr, align 8
  %m = getelementptr inbounds %"class.datalog::aig_exporter", ptr %this1, i32 0, i32 2
  %11 = load ptr, ptr %m, align 8
  %12 = load ptr, ptr %latchvar, align 8
  %call8 = call noundef ptr @_ZNK11expr_offset8get_exprEv(ptr noundef nonnull align 8 dereferenceable(12) %othervar)
  %call9 = call noundef ptr @_ZN11ast_manager5mk_eqEP4exprS1_(ptr noundef nonnull align 8 dereferenceable(976) %11, ptr noundef %12, ptr noundef %call8)
  %call10 = call noundef nonnull align 8 dereferenceable(16) ptr @_ZN15ref_vector_coreI4expr19ref_manager_wrapperIS0_11ast_managerEE9push_backEPS0_(ptr noundef nonnull align 8 dereferenceable(16) %10, ptr noundef %call9)
  br label %if.end

if.else:                                          ; preds = %if.then
  %13 = load ptr, ptr %subst.addr, align 8
  %14 = load ptr, ptr %v, align 8
  %15 = load ptr, ptr %latchvar, align 8
  call void @_ZN11expr_offsetC2EP4exprj(ptr noundef nonnull align 8 dereferenceable(12) %ref.tmp, ptr noundef %15, i32 noundef 0)
  call void @_ZN12substitution6insertEP3varjRK11expr_offset(ptr noundef nonnull align 8 dereferenceable(124) %13, ptr noundef %14, i32 noundef 0, ptr noundef nonnull align 8 dereferenceable(12) %ref.tmp)
  br label %if.end

if.end:                                           ; preds = %if.else, %if.then7
  br label %if.end15

if.else11:                                        ; preds = %for.body
  %16 = load ptr, ptr %eqs.addr, align 8
  %m12 = getelementptr inbounds %"class.datalog::aig_exporter", ptr %this1, i32 0, i32 2
  %17 = load ptr, ptr %m12, align 8
  %18 = load ptr, ptr %latchvar, align 8
  %19 = load ptr, ptr %arg, align 8
  %call13 = call noundef ptr @_ZN11ast_manager5mk_eqEP4exprS1_(ptr noundef nonnull align 8 dereferenceable(976) %17, ptr noundef %18, ptr noundef %19)
  %call14 = call noundef nonnull align 8 dereferenceable(16) ptr @_ZN15ref_vector_coreI4expr19ref_manager_wrapperIS0_11ast_managerEE9push_backEPS0_(ptr noundef nonnull align 8 dereferenceable(16) %16, ptr noundef %call13)
  br label %if.end15

if.end15:                                         ; preds = %if.else11, %if.end
  br label %for.inc

for.inc:                                          ; preds = %if.end15
  %20 = load i32, ptr %i, align 4
  %inc = add i32 %20, 1
  store i32 %inc, ptr %i, align 4
  br label %for.cond, !llvm.loop !10

for.end:                                          ; preds = %for.cond
  ret void
}

; Function Attrs: mustprogress nounwind uwtable
define linkonce_odr hidden noundef i32 @_ZNK3app12get_num_argsEv(ptr noundef nonnull align 8 dereferenceable(32) %this) #5 comdat align 2 {
entry:
  %this.addr = alloca ptr, align 8
  store ptr %this, ptr %this.addr, align 8
  %this1 = load ptr, ptr %this.addr, align 8
  %m_num_args = getelementptr inbounds %class.app, ptr %this1, i32 0, i32 2
  %0 = load i32, ptr %m_num_args, align 8
  ret i32 %0
}

; Function Attrs: mustprogress nounwind uwtable
define linkonce_odr hidden noundef ptr @_ZNK3app7get_argEj(ptr noundef nonnull align 8 dereferenceable(32) %this, i32 noundef %idx) #5 comdat align 2 {
entry:
  %this.addr = alloca ptr, align 8
  %idx.addr = alloca i32, align 4
  store ptr %this, ptr %this.addr, align 8
  store i32 %idx, ptr %idx.addr, align 4
  %this1 = load ptr, ptr %this.addr, align 8
  %m_args = getelementptr inbounds %class.app, ptr %this1, i32 0, i32 3
  %0 = load i32, ptr %idx.addr, align 4
  %idxprom = zext i32 %0 to i64
  %arrayidx = getelementptr inbounds [0 x ptr], ptr %m_args, i64 0, i64 %idxprom
  %1 = load ptr, ptr %arrayidx, align 8
  ret ptr %1
}

; Function Attrs: mustprogress uwtable
define linkonce_odr hidden noundef zeroext i1 @_Z6is_varPK3ast(ptr noundef %n) #4 comdat {
entry:
  %n.addr = alloca ptr, align 8
  store ptr %n, ptr %n.addr, align 8
  %0 = load ptr, ptr %n.addr, align 8
  %call = call noundef i32 @_ZNK3ast8get_kindEv(ptr noundef nonnull align 4 dereferenceable(16) %0)
  %cmp = icmp eq i32 %call, 1
  ret i1 %cmp
}

; Function Attrs: mustprogress nounwind uwtable
define linkonce_odr hidden noundef ptr @_Z6to_varP3ast(ptr noundef %n) #5 comdat {
entry:
  %n.addr = alloca ptr, align 8
  store ptr %n, ptr %n.addr, align 8
  %0 = load ptr, ptr %n.addr, align 8
  ret ptr %0
}

; Function Attrs: mustprogress nounwind uwtable
define linkonce_odr hidden void @_ZN11expr_offsetC2Ev(ptr noundef nonnull align 8 dereferenceable(12) %this) unnamed_addr #5 comdat align 2 {
entry:
  %this.addr = alloca ptr, align 8
  store ptr %this, ptr %this.addr, align 8
  %this1 = load ptr, ptr %this.addr, align 8
  %m_expr = getelementptr inbounds %class.expr_offset, ptr %this1, i32 0, i32 0
  store ptr null, ptr %m_expr, align 8
  %m_offset = getelementptr inbounds %class.expr_offset, ptr %this1, i32 0, i32 1
  store i32 0, ptr %m_offset, align 8
  ret void
}

; Function Attrs: mustprogress uwtable
define linkonce_odr hidden noundef zeroext i1 @_ZNK12substitution4findEP3varjR11expr_offset(ptr noundef nonnull align 8 dereferenceable(124) %this, ptr noundef %v, i32 noundef %offset, ptr noundef nonnull align 8 dereferenceable(12) %r) #4 comdat align 2 {
entry:
  %this.addr = alloca ptr, align 8
  %v.addr = alloca ptr, align 8
  %offset.addr = alloca i32, align 4
  %r.addr = alloca ptr, align 8
  store ptr %this, ptr %this.addr, align 8
  store ptr %v, ptr %v.addr, align 8
  store i32 %offset, ptr %offset.addr, align 4
  store ptr %r, ptr %r.addr, align 8
  %this1 = load ptr, ptr %this.addr, align 8
  %0 = load ptr, ptr %v.addr, align 8
  %call = call noundef i32 @_ZNK3var7get_idxEv(ptr noundef nonnull align 8 dereferenceable(32) %0)
  %1 = load i32, ptr %offset.addr, align 4
  %2 = load ptr, ptr %r.addr, align 8
  %call2 = call noundef zeroext i1 @_ZNK12substitution4findEjjR11expr_offset(ptr noundef nonnull align 8 dereferenceable(124) %this1, i32 noundef %call, i32 noundef %1, ptr noundef nonnull align 8 dereferenceable(12) %2)
  ret i1 %call2
}

; Function Attrs: mustprogress uwtable
define linkonce_odr hidden noundef ptr @_ZN11ast_manager5mk_eqEP4exprS1_(ptr noundef nonnull align 8 dereferenceable(976) %this, ptr noundef %lhs, ptr noundef %rhs) #4 comdat align 2 {
entry:
  %this.addr = alloca ptr, align 8
  %lhs.addr = alloca ptr, align 8
  %rhs.addr = alloca ptr, align 8
  store ptr %this, ptr %this.addr, align 8
  store ptr %lhs, ptr %lhs.addr, align 8
  store ptr %rhs, ptr %rhs.addr, align 8
  %this1 = load ptr, ptr %this.addr, align 8
  %0 = load ptr, ptr %lhs.addr, align 8
  %call = call noundef i32 @_ZNK11ast_manager9get_eq_opEPK4expr(ptr noundef nonnull align 8 dereferenceable(976) %this1, ptr noundef %0)
  %1 = load ptr, ptr %lhs.addr, align 8
  %2 = load ptr, ptr %rhs.addr, align 8
  %call2 = call noundef ptr @_ZN11ast_manager6mk_appEiiP4exprS1_(ptr noundef nonnull align 8 dereferenceable(976) %this1, i32 noundef 0, i32 noundef %call, ptr noundef %1, ptr noundef %2)
  ret ptr %call2
}

; Function Attrs: mustprogress nounwind uwtable
define linkonce_odr hidden noundef ptr @_ZNK11expr_offset8get_exprEv(ptr noundef nonnull align 8 dereferenceable(12) %this) #5 comdat align 2 {
entry:
  %this.addr = alloca ptr, align 8
  store ptr %this, ptr %this.addr, align 8
  %this1 = load ptr, ptr %this.addr, align 8
  %m_expr = getelementptr inbounds %class.expr_offset, ptr %this1, i32 0, i32 0
  %0 = load ptr, ptr %m_expr, align 8
  ret ptr %0
}

; Function Attrs: mustprogress uwtable
define linkonce_odr hidden void @_ZN12substitution6insertEP3varjRK11expr_offset(ptr noundef nonnull align 8 dereferenceable(124) %this, ptr noundef %v, i32 noundef %offset, ptr noundef nonnull align 8 dereferenceable(12) %t) #4 comdat align 2 {
entry:
  %this.addr = alloca ptr, align 8
  %v.addr = alloca ptr, align 8
  %offset.addr = alloca i32, align 4
  %t.addr = alloca ptr, align 8
  store ptr %this, ptr %this.addr, align 8
  store ptr %v, ptr %v.addr, align 8
  store i32 %offset, ptr %offset.addr, align 4
  store ptr %t, ptr %t.addr, align 8
  %this1 = load ptr, ptr %this.addr, align 8
  %0 = load ptr, ptr %v.addr, align 8
  %call = call noundef i32 @_ZNK3var7get_idxEv(ptr noundef nonnull align 8 dereferenceable(32) %0)
  %1 = load i32, ptr %offset.addr, align 4
  %2 = load ptr, ptr %t.addr, align 8
  call void @_ZN12substitution6insertEjjRK11expr_offset(ptr noundef nonnull align 8 dereferenceable(124) %this1, i32 noundef %call, i32 noundef %1, ptr noundef nonnull align 8 dereferenceable(12) %2)
  ret void
}

; Function Attrs: mustprogress nounwind uwtable
define linkonce_odr hidden void @_ZN11expr_offsetC2EP4exprj(ptr noundef nonnull align 8 dereferenceable(12) %this, ptr noundef %e, i32 noundef %o) unnamed_addr #5 comdat align 2 {
entry:
  %this.addr = alloca ptr, align 8
  %e.addr = alloca ptr, align 8
  %o.addr = alloca i32, align 4
  store ptr %this, ptr %this.addr, align 8
  store ptr %e, ptr %e.addr, align 8
  store i32 %o, ptr %o.addr, align 4
  %this1 = load ptr, ptr %this.addr, align 8
  %m_expr = getelementptr inbounds %class.expr_offset, ptr %this1, i32 0, i32 0
  %0 = load ptr, ptr %e.addr, align 8
  store ptr %0, ptr %m_expr, align 8
  %m_offset = getelementptr inbounds %class.expr_offset, ptr %this1, i32 0, i32 1
  %1 = load i32, ptr %o.addr, align 4
  store i32 %1, ptr %m_offset, align 8
  ret void
}

; Function Attrs: mustprogress uwtable
define hidden void @_ZN7datalog12aig_exporterclERSo(ptr noundef nonnull align 8 dereferenceable(624) %this, ptr noundef nonnull align 8 dereferenceable(8) %out) #4 align 2 personality ptr @__gxx_personality_v0 {
entry:
  %this.addr = alloca ptr, align 8
  %out.addr = alloca ptr, align 8
  %transition_function = alloca %class.ref_vector, align 8
  %output_preds = alloca %class.ref_vector, align 8
  %exn.slot = alloca ptr, align 8
  %ehselector.slot = alloca i32, align 4
  %input_vars = alloca %class.ref_vector.191, align 8
  %vc = alloca ptr, align 8
  %exprs = alloca %class.ref_vector, align 8
  %subst = alloca %class.substitution, align 8
  %I = alloca %"class.core_hashtable<obj_map<func_decl, ptr_vector<datalog::rule> *>::obj_map_entry, obj_hash<obj_map<func_decl, ptr_vector<datalog::rule> *>::key_data>, default_eq<obj_map<func_decl, ptr_vector<datalog::rule> *>::key_data>>::iterator", align 8
  %E = alloca %"class.core_hashtable<obj_map<func_decl, ptr_vector<datalog::rule> *>::obj_map_entry, obj_hash<obj_map<func_decl, ptr_vector<datalog::rule> *>::key_data>, default_eq<obj_map<func_decl, ptr_vector<datalog::rule> *>::key_data>>::iterator", align 8
  %II = alloca ptr, align 8
  %EE = alloca ptr, align 8
  %r = alloca ptr, align 8
  %numqs = alloca i32, align 4
  %ref.tmp = alloca %"class.std::__cxx11::basic_string", align 8
  %ref.tmp38 = alloca %"class.std::allocator.6", align 1
  %cleanup.isactive = alloca i1, align 1
  %ref.tmp49 = alloca %"class.std::__cxx11::basic_string", align 8
  %ref.tmp50 = alloca %"class.std::allocator.6", align 1
  %cleanup.isactive55 = alloca i1, align 1
  %i = alloca i32, align 4
  %e = alloca %class.obj_ref, align 8
  %I120 = alloca ptr, align 8
  %E124 = alloca ptr, align 8
  %i136 = alloca i32, align 4
  %tr = alloca ptr, align 8
  %aig = alloca %class.aig_ref, align 8
  %aig_expr = alloca %class.obj_ref, align 8
  %i183 = alloca i32, align 4
  %i205 = alloca i32, align 4
  %tr_id = alloca i32, align 4
  %latch_varp_ids = alloca %class.svector, align 8
  %i230 = alloca i32, align 4
  %in_val = alloca i32, align 4
  %latch_val = alloca i32, align 4
  %ref.tmp254 = alloca i32, align 4
  %output_id = alloca i32, align 4
  %output = alloca %class.ref_vector, align 8
  %preds = alloca ptr, align 8
  %I270 = alloca %"class.core_hashtable<obj_hash_entry<func_decl>, obj_ptr_hash<func_decl>, ptr_eq<func_decl>>::iterator", align 8
  %E273 = alloca %"class.core_hashtable<obj_hash_entry<func_decl>, obj_ptr_hash<func_decl>, ptr_eq<func_decl>>::iterator", align 8
  %out298 = alloca ptr, align 8
  %ref.tmp306 = alloca %class.aig_ref, align 8
  %i343 = alloca i32, align 4
  %i360 = alloca i32, align 4
  %ref.tmp389 = alloca %"class.std::__cxx11::basic_string", align 8
  store ptr %this, ptr %this.addr, align 8
  store ptr %out, ptr %out.addr, align 8
  %this1 = load ptr, ptr %this.addr, align 8
  %m = getelementptr inbounds %"class.datalog::aig_exporter", ptr %this1, i32 0, i32 2
  %0 = load ptr, ptr %m, align 8
  call void @_ZN10ref_vectorI4expr11ast_managerEC2ERS1_(ptr noundef nonnull align 8 dereferenceable(16) %transition_function, ptr noundef nonnull align 8 dereferenceable(976) %0)
  %m2 = getelementptr inbounds %"class.datalog::aig_exporter", ptr %this1, i32 0, i32 2
  %1 = load ptr, ptr %m2, align 8
  invoke void @_ZN10ref_vectorI4expr11ast_managerEC2ERS1_(ptr noundef nonnull align 8 dereferenceable(16) %output_preds, ptr noundef nonnull align 8 dereferenceable(976) %1)
          to label %invoke.cont unwind label %lpad

invoke.cont:                                      ; preds = %entry
  %m3 = getelementptr inbounds %"class.datalog::aig_exporter", ptr %this1, i32 0, i32 2
  %2 = load ptr, ptr %m3, align 8
  invoke void @_ZN10ref_vectorI3var11ast_managerEC2ERS1_(ptr noundef nonnull align 8 dereferenceable(16) %input_vars, ptr noundef nonnull align 8 dereferenceable(976) %2)
          to label %invoke.cont5 unwind label %lpad4

invoke.cont5:                                     ; preds = %invoke.cont
  %m_rm = getelementptr inbounds %"class.datalog::aig_exporter", ptr %this1, i32 0, i32 3
  %3 = load ptr, ptr %m_rm, align 8
  %call = invoke noundef nonnull align 8 dereferenceable(224) ptr @_ZN7datalog12rule_manager11get_counterEv(ptr noundef nonnull align 8 dereferenceable(1368) %3)
          to label %invoke.cont7 unwind label %lpad6

invoke.cont7:                                     ; preds = %invoke.cont5
  store ptr %call, ptr %vc, align 8
  %m8 = getelementptr inbounds %"class.datalog::aig_exporter", ptr %this1, i32 0, i32 2
  %4 = load ptr, ptr %m8, align 8
  invoke void @_ZN10ref_vectorI4expr11ast_managerEC2ERS1_(ptr noundef nonnull align 8 dereferenceable(16) %exprs, ptr noundef nonnull align 8 dereferenceable(976) %4)
          to label %invoke.cont9 unwind label %lpad6

invoke.cont9:                                     ; preds = %invoke.cont7
  %m10 = getelementptr inbounds %"class.datalog::aig_exporter", ptr %this1, i32 0, i32 2
  %5 = load ptr, ptr %m10, align 8
  invoke void @_ZN12substitutionC1ER11ast_manager(ptr noundef nonnull align 8 dereferenceable(124) %subst, ptr noundef nonnull align 8 dereferenceable(976) %5)
          to label %invoke.cont12 unwind label %lpad11

invoke.cont12:                                    ; preds = %invoke.cont9
  %m_rules = getelementptr inbounds %"class.datalog::aig_exporter", ptr %this1, i32 0, i32 0
  %6 = load ptr, ptr %m_rules, align 8
  %call15 = invoke { ptr, ptr } @_ZNK7datalog8rule_set19begin_grouped_rulesEv(ptr noundef nonnull align 8 dereferenceable(248) %6)
          to label %invoke.cont14 unwind label %lpad13

invoke.cont14:                                    ; preds = %invoke.cont12
  %7 = getelementptr inbounds { ptr, ptr }, ptr %I, i32 0, i32 0
  %8 = extractvalue { ptr, ptr } %call15, 0
  store ptr %8, ptr %7, align 8
  %9 = getelementptr inbounds { ptr, ptr }, ptr %I, i32 0, i32 1
  %10 = extractvalue { ptr, ptr } %call15, 1
  store ptr %10, ptr %9, align 8
  %m_rules16 = getelementptr inbounds %"class.datalog::aig_exporter", ptr %this1, i32 0, i32 0
  %11 = load ptr, ptr %m_rules16, align 8
  %call18 = invoke { ptr, ptr } @_ZNK7datalog8rule_set17end_grouped_rulesEv(ptr noundef nonnull align 8 dereferenceable(248) %11)
          to label %invoke.cont17 unwind label %lpad13

invoke.cont17:                                    ; preds = %invoke.cont14
  %12 = getelementptr inbounds { ptr, ptr }, ptr %E, i32 0, i32 0
  %13 = extractvalue { ptr, ptr } %call18, 0
  store ptr %13, ptr %12, align 8
  %14 = getelementptr inbounds { ptr, ptr }, ptr %E, i32 0, i32 1
  %15 = extractvalue { ptr, ptr } %call18, 1
  store ptr %15, ptr %14, align 8
  br label %for.cond

for.cond:                                         ; preds = %invoke.cont115, %invoke.cont17
  %call20 = invoke noundef zeroext i1 @_ZNK14core_hashtableIN7obj_mapI9func_declP10ptr_vectorIN7datalog4ruleEEE13obj_map_entryE8obj_hashINS7_8key_dataEE10default_eqISA_EE8iteratorneERKSF_(ptr noundef nonnull align 8 dereferenceable(16) %I, ptr noundef nonnull align 8 dereferenceable(16) %E)
          to label %invoke.cont19 unwind label %lpad13

invoke.cont19:                                    ; preds = %for.cond
  br i1 %call20, label %for.body, label %for.end117

for.body:                                         ; preds = %invoke.cont19
  %call22 = invoke noundef ptr @_ZN14core_hashtableIN7obj_mapI9func_declP10ptr_vectorIN7datalog4ruleEEE13obj_map_entryE8obj_hashINS7_8key_dataEE10default_eqISA_EE8iteratorptEv(ptr noundef nonnull align 8 dereferenceable(16) %I)
          to label %invoke.cont21 unwind label %lpad13

invoke.cont21:                                    ; preds = %for.body
  %call24 = invoke noundef nonnull align 8 dereferenceable(8) ptr @_ZNK7obj_mapI9func_declP10ptr_vectorIN7datalog4ruleEEE8key_data9get_valueEv(ptr noundef nonnull align 8 dereferenceable(16) %call22)
          to label %invoke.cont23 unwind label %lpad13

invoke.cont23:                                    ; preds = %invoke.cont21
  %16 = load ptr, ptr %call24, align 8
  %call26 = invoke noundef ptr @_ZN6vectorIPN7datalog4ruleELb0EjE5beginEv(ptr noundef nonnull align 8 dereferenceable(8) %16)
          to label %invoke.cont25 unwind label %lpad13

invoke.cont25:                                    ; preds = %invoke.cont23
  store ptr %call26, ptr %II, align 8
  %call28 = invoke noundef ptr @_ZN14core_hashtableIN7obj_mapI9func_declP10ptr_vectorIN7datalog4ruleEEE13obj_map_entryE8obj_hashINS7_8key_dataEE10default_eqISA_EE8iteratorptEv(ptr noundef nonnull align 8 dereferenceable(16) %I)
          to label %invoke.cont27 unwind label %lpad13

invoke.cont27:                                    ; preds = %invoke.cont25
  %call30 = invoke noundef nonnull align 8 dereferenceable(8) ptr @_ZNK7obj_mapI9func_declP10ptr_vectorIN7datalog4ruleEEE8key_data9get_valueEv(ptr noundef nonnull align 8 dereferenceable(16) %call28)
          to label %invoke.cont29 unwind label %lpad13

invoke.cont29:                                    ; preds = %invoke.cont27
  %17 = load ptr, ptr %call30, align 8
  %call32 = invoke noundef ptr @_ZN6vectorIPN7datalog4ruleELb0EjE3endEv(ptr noundef nonnull align 8 dereferenceable(8) %17)
          to label %invoke.cont31 unwind label %lpad13

invoke.cont31:                                    ; preds = %invoke.cont29
  store ptr %call32, ptr %EE, align 8
  br label %for.cond33

for.cond33:                                       ; preds = %for.inc112, %invoke.cont31
  %18 = load ptr, ptr %II, align 8
  %19 = load ptr, ptr %EE, align 8
  %cmp = icmp ne ptr %18, %19
  br i1 %cmp, label %for.body34, label %for.end113

for.body34:                                       ; preds = %for.cond33
  %20 = load ptr, ptr %II, align 8
  %21 = load ptr, ptr %20, align 8
  store ptr %21, ptr %r, align 8
  %22 = load ptr, ptr %r, align 8
  %call36 = invoke noundef i32 @_ZNK7datalog4rule22get_positive_tail_sizeEv(ptr noundef nonnull align 8 dereferenceable(80) %22)
          to label %invoke.cont35 unwind label %lpad13

invoke.cont35:                                    ; preds = %for.body34
  store i32 %call36, ptr %numqs, align 4
  %23 = load i32, ptr %numqs, align 4
  %cmp37 = icmp ugt i32 %23, 1
  br i1 %cmp37, label %if.then, label %if.end

if.then:                                          ; preds = %invoke.cont35
  store i1 true, ptr %cleanup.isactive, align 1
  %exception = call ptr @__cxa_allocate_exception(i64 40) #3
  call void @_ZNSaIcEC1Ev(ptr noundef nonnull align 1 dereferenceable(1) %ref.tmp38) #3
  invoke void @_ZNSt7__cxx1112basic_stringIcSt11char_traitsIcESaIcEEC2IS3_EEPKcRKS3_(ptr noundef nonnull align 8 dereferenceable(32) %ref.tmp, ptr noundef @.str.4, ptr noundef nonnull align 1 dereferenceable(1) %ref.tmp38)
          to label %invoke.cont40 unwind label %lpad39

invoke.cont40:                                    ; preds = %if.then
  invoke void @_ZN17default_exceptionC2EONSt7__cxx1112basic_stringIcSt11char_traitsIcESaIcEEE(ptr noundef nonnull align 8 dereferenceable(40) %exception, ptr noundef nonnull align 8 dereferenceable(32) %ref.tmp)
          to label %invoke.cont42 unwind label %lpad41

invoke.cont42:                                    ; preds = %invoke.cont40
  store i1 false, ptr %cleanup.isactive, align 1
  invoke void @__cxa_throw(ptr %exception, ptr @_ZTI17default_exception, ptr @_ZN17default_exceptionD2Ev) #16
          to label %unreachable unwind label %lpad41

lpad:                                             ; preds = %entry
  %24 = landingpad { ptr, i32 }
          cleanup
  %25 = extractvalue { ptr, i32 } %24, 0
  store ptr %25, ptr %exn.slot, align 8
  %26 = extractvalue { ptr, i32 } %24, 1
  store i32 %26, ptr %ehselector.slot, align 4
  br label %ehcleanup402

lpad4:                                            ; preds = %invoke.cont
  %27 = landingpad { ptr, i32 }
          cleanup
  %28 = extractvalue { ptr, i32 } %27, 0
  store ptr %28, ptr %exn.slot, align 8
  %29 = extractvalue { ptr, i32 } %27, 1
  store i32 %29, ptr %ehselector.slot, align 4
  br label %ehcleanup401

lpad6:                                            ; preds = %invoke.cont7, %invoke.cont5
  %30 = landingpad { ptr, i32 }
          cleanup
  %31 = extractvalue { ptr, i32 } %30, 0
  store ptr %31, ptr %exn.slot, align 8
  %32 = extractvalue { ptr, i32 } %30, 1
  store i32 %32, ptr %ehselector.slot, align 4
  br label %ehcleanup400

lpad11:                                           ; preds = %invoke.cont9
  %33 = landingpad { ptr, i32 }
          cleanup
  %34 = extractvalue { ptr, i32 } %33, 0
  store ptr %34, ptr %exn.slot, align 8
  %35 = extractvalue { ptr, i32 } %33, 1
  store i32 %35, ptr %ehselector.slot, align 4
  br label %ehcleanup399

lpad13:                                           ; preds = %invoke.cont174, %invoke.cont172, %invoke.cont170, %if.end168, %invoke.cont161, %invoke.cont159, %invoke.cont157, %for.end155, %invoke.cont149, %invoke.cont147, %invoke.cont144, %for.body141, %for.cond137, %invoke.cont133, %invoke.cont131, %for.body130, %invoke.cont122, %if.then119, %for.inc114, %invoke.cont108, %invoke.cont106, %invoke.cont104, %for.end, %for.body91, %for.cond87, %invoke.cont84, %if.end83, %invoke.cont80, %if.then79, %invoke.cont75, %invoke.cont74, %invoke.cont73, %invoke.cont71, %invoke.cont69, %invoke.cont68, %cond.end, %invoke.cont64, %cond.true, %if.end62, %if.end, %for.body34, %invoke.cont29, %invoke.cont27, %invoke.cont25, %invoke.cont23, %invoke.cont21, %for.body, %for.cond, %invoke.cont14, %invoke.cont12
  %36 = landingpad { ptr, i32 }
          cleanup
  %37 = extractvalue { ptr, i32 } %36, 0
  store ptr %37, ptr %exn.slot, align 8
  %38 = extractvalue { ptr, i32 } %36, 1
  store i32 %38, ptr %ehselector.slot, align 4
  br label %ehcleanup398

lpad39:                                           ; preds = %if.then
  %39 = landingpad { ptr, i32 }
          cleanup
  %40 = extractvalue { ptr, i32 } %39, 0
  store ptr %40, ptr %exn.slot, align 8
  %41 = extractvalue { ptr, i32 } %39, 1
  store i32 %41, ptr %ehselector.slot, align 4
  br label %ehcleanup

lpad41:                                           ; preds = %invoke.cont42, %invoke.cont40
  %42 = landingpad { ptr, i32 }
          cleanup
  %43 = extractvalue { ptr, i32 } %42, 0
  store ptr %43, ptr %exn.slot, align 8
  %44 = extractvalue { ptr, i32 } %42, 1
  store i32 %44, ptr %ehselector.slot, align 4
  call void @_ZNSt7__cxx1112basic_stringIcSt11char_traitsIcESaIcEED1Ev(ptr noundef nonnull align 8 dereferenceable(32) %ref.tmp) #3
  br label %ehcleanup

ehcleanup:                                        ; preds = %lpad41, %lpad39
  call void @_ZNSaIcED1Ev(ptr noundef nonnull align 1 dereferenceable(1) %ref.tmp38) #3
  %cleanup.is_active = load i1, ptr %cleanup.isactive, align 1
  br i1 %cleanup.is_active, label %cleanup.action, label %cleanup.done

cleanup.action:                                   ; preds = %ehcleanup
  call void @__cxa_free_exception(ptr %exception) #3
  br label %cleanup.done

cleanup.done:                                     ; preds = %cleanup.action, %ehcleanup
  br label %ehcleanup398

if.end:                                           ; preds = %invoke.cont35
  %45 = load i32, ptr %numqs, align 4
  %46 = load ptr, ptr %r, align 8
  %call45 = invoke noundef i32 @_ZNK7datalog4rule27get_uninterpreted_tail_sizeEv(ptr noundef nonnull align 8 dereferenceable(80) %46)
          to label %invoke.cont44 unwind label %lpad13

invoke.cont44:                                    ; preds = %if.end
  %cmp46 = icmp ne i32 %45, %call45
  br i1 %cmp46, label %if.then47, label %if.end62

if.then47:                                        ; preds = %invoke.cont44
  store i1 true, ptr %cleanup.isactive55, align 1
  %exception48 = call ptr @__cxa_allocate_exception(i64 40) #3
  call void @_ZNSaIcEC1Ev(ptr noundef nonnull align 1 dereferenceable(1) %ref.tmp50) #3
  invoke void @_ZNSt7__cxx1112basic_stringIcSt11char_traitsIcESaIcEEC2IS3_EEPKcRKS3_(ptr noundef nonnull align 8 dereferenceable(32) %ref.tmp49, ptr noundef @.str.5, ptr noundef nonnull align 1 dereferenceable(1) %ref.tmp50)
          to label %invoke.cont52 unwind label %lpad51

invoke.cont52:                                    ; preds = %if.then47
  invoke void @_ZN17default_exceptionC2EONSt7__cxx1112basic_stringIcSt11char_traitsIcESaIcEEE(ptr noundef nonnull align 8 dereferenceable(40) %exception48, ptr noundef nonnull align 8 dereferenceable(32) %ref.tmp49)
          to label %invoke.cont54 unwind label %lpad53

invoke.cont54:                                    ; preds = %invoke.cont52
  store i1 false, ptr %cleanup.isactive55, align 1
  invoke void @__cxa_throw(ptr %exception48, ptr @_ZTI17default_exception, ptr @_ZN17default_exceptionD2Ev) #16
          to label %unreachable unwind label %lpad53

lpad51:                                           ; preds = %if.then47
  %47 = landingpad { ptr, i32 }
          cleanup
  %48 = extractvalue { ptr, i32 } %47, 0
  store ptr %48, ptr %exn.slot, align 8
  %49 = extractvalue { ptr, i32 } %47, 1
  store i32 %49, ptr %ehselector.slot, align 4
  br label %ehcleanup57

lpad53:                                           ; preds = %invoke.cont54, %invoke.cont52
  %50 = landingpad { ptr, i32 }
          cleanup
  %51 = extractvalue { ptr, i32 } %50, 0
  store ptr %51, ptr %exn.slot, align 8
  %52 = extractvalue { ptr, i32 } %50, 1
  store i32 %52, ptr %ehselector.slot, align 4
  call void @_ZNSt7__cxx1112basic_stringIcSt11char_traitsIcESaIcEED1Ev(ptr noundef nonnull align 8 dereferenceable(32) %ref.tmp49) #3
  br label %ehcleanup57

ehcleanup57:                                      ; preds = %lpad53, %lpad51
  call void @_ZNSaIcED1Ev(ptr noundef nonnull align 1 dereferenceable(1) %ref.tmp50) #3
  %cleanup.is_active59 = load i1, ptr %cleanup.isactive55, align 1
  br i1 %cleanup.is_active59, label %cleanup.action60, label %cleanup.done61

cleanup.action60:                                 ; preds = %ehcleanup57
  call void @__cxa_free_exception(ptr %exception48) #3
  br label %cleanup.done61

cleanup.done61:                                   ; preds = %cleanup.action60, %ehcleanup57
  br label %ehcleanup398

if.end62:                                         ; preds = %invoke.cont44
  invoke void @_ZN15ref_vector_coreI4expr19ref_manager_wrapperIS0_11ast_managerEE5resetEv(ptr noundef nonnull align 8 dereferenceable(16) %exprs)
          to label %invoke.cont63 unwind label %lpad13

invoke.cont63:                                    ; preds = %if.end62
  %53 = load i32, ptr %numqs, align 4
  %tobool = icmp ne i32 %53, 0
  br i1 %tobool, label %cond.true, label %cond.false

cond.true:                                        ; preds = %invoke.cont63
  %54 = load ptr, ptr %r, align 8
  %call65 = invoke noundef ptr @_ZNK7datalog4rule8get_tailEj(ptr noundef nonnull align 8 dereferenceable(80) %54, i32 noundef 0)
          to label %invoke.cont64 unwind label %lpad13

invoke.cont64:                                    ; preds = %cond.true
  %call67 = invoke noundef ptr @_ZNK3app8get_declEv(ptr noundef nonnull align 8 dereferenceable(32) %call65)
          to label %invoke.cont66 unwind label %lpad13

invoke.cont66:                                    ; preds = %invoke.cont64
  br label %cond.end

cond.false:                                       ; preds = %invoke.cont63
  br label %cond.end

cond.end:                                         ; preds = %cond.false, %invoke.cont66
  %cond = phi ptr [ %call67, %invoke.cont66 ], [ null, %cond.false ]
  %m_ruleid_var_set = getelementptr inbounds %"class.datalog::aig_exporter", ptr %this1, i32 0, i32 14
  invoke void @_ZN7datalog12aig_exporter14assert_pred_idEP9func_declRK10ref_vectorI4expr11ast_managerERS6_(ptr noundef nonnull align 8 dereferenceable(624) %this1, ptr noundef %cond, ptr noundef nonnull align 8 dereferenceable(16) %m_ruleid_var_set, ptr noundef nonnull align 8 dereferenceable(16) %exprs)
          to label %invoke.cont68 unwind label %lpad13

invoke.cont68:                                    ; preds = %cond.end
  %55 = load ptr, ptr %r, align 8
  %call70 = invoke noundef ptr @_ZNK7datalog4rule8get_headEv(ptr noundef nonnull align 8 dereferenceable(80) %55)
          to label %invoke.cont69 unwind label %lpad13

invoke.cont69:                                    ; preds = %invoke.cont68
  %call72 = invoke noundef ptr @_ZNK3app8get_declEv(ptr noundef nonnull align 8 dereferenceable(32) %call70)
          to label %invoke.cont71 unwind label %lpad13

invoke.cont71:                                    ; preds = %invoke.cont69
  %m_ruleid_varp_set = getelementptr inbounds %"class.datalog::aig_exporter", ptr %this1, i32 0, i32 15
  invoke void @_ZN7datalog12aig_exporter14assert_pred_idEP9func_declRK10ref_vectorI4expr11ast_managerERS6_(ptr noundef nonnull align 8 dereferenceable(624) %this1, ptr noundef %call72, ptr noundef nonnull align 8 dereferenceable(16) %m_ruleid_varp_set, ptr noundef nonnull align 8 dereferenceable(16) %exprs)
          to label %invoke.cont73 unwind label %lpad13

invoke.cont73:                                    ; preds = %invoke.cont71
  invoke void @_ZN12substitution5resetEv(ptr noundef nonnull align 8 dereferenceable(124) %subst)
          to label %invoke.cont74 unwind label %lpad13

invoke.cont74:                                    ; preds = %invoke.cont73
  %56 = load ptr, ptr %vc, align 8
  %57 = load ptr, ptr %r, align 8
  %call76 = invoke noundef i32 @_ZN7datalog12rule_counter16get_max_rule_varERKNS_4ruleE(ptr noundef nonnull align 8 dereferenceable(224) %56, ptr noundef nonnull align 8 dereferenceable(80) %57)
          to label %invoke.cont75 unwind label %lpad13

invoke.cont75:                                    ; preds = %invoke.cont74
  %add = add i32 %call76, 1
  invoke void @_ZN12substitution7reserveEjj(ptr noundef nonnull align 8 dereferenceable(124) %subst, i32 noundef 1, i32 noundef %add)
          to label %invoke.cont77 unwind label %lpad13

invoke.cont77:                                    ; preds = %invoke.cont75
  %58 = load i32, ptr %numqs, align 4
  %tobool78 = icmp ne i32 %58, 0
  br i1 %tobool78, label %if.then79, label %if.end83

if.then79:                                        ; preds = %invoke.cont77
  %59 = load ptr, ptr %r, align 8
  %call81 = invoke noundef ptr @_ZNK7datalog4rule8get_tailEj(ptr noundef nonnull align 8 dereferenceable(80) %59, i32 noundef 0)
          to label %invoke.cont80 unwind label %lpad13

invoke.cont80:                                    ; preds = %if.then79
  %m_latch_vars = getelementptr inbounds %"class.datalog::aig_exporter", ptr %this1, i32 0, i32 12
  invoke void @_ZN7datalog12aig_exporter18collect_var_substsER12substitutionPK3appRK10ref_vectorI4expr11ast_managerERS9_(ptr noundef nonnull align 8 dereferenceable(624) %this1, ptr noundef nonnull align 8 dereferenceable(124) %subst, ptr noundef %call81, ptr noundef nonnull align 8 dereferenceable(16) %m_latch_vars, ptr noundef nonnull align 8 dereferenceable(16) %exprs)
          to label %invoke.cont82 unwind label %lpad13

invoke.cont82:                                    ; preds = %invoke.cont80
  br label %if.end83

if.end83:                                         ; preds = %invoke.cont82, %invoke.cont77
  %60 = load ptr, ptr %r, align 8
  %call85 = invoke noundef ptr @_ZNK7datalog4rule8get_headEv(ptr noundef nonnull align 8 dereferenceable(80) %60)
          to label %invoke.cont84 unwind label %lpad13

invoke.cont84:                                    ; preds = %if.end83
  %m_latch_varsp = getelementptr inbounds %"class.datalog::aig_exporter", ptr %this1, i32 0, i32 13
  invoke void @_ZN7datalog12aig_exporter18collect_var_substsER12substitutionPK3appRK10ref_vectorI4expr11ast_managerERS9_(ptr noundef nonnull align 8 dereferenceable(624) %this1, ptr noundef nonnull align 8 dereferenceable(124) %subst, ptr noundef %call85, ptr noundef nonnull align 8 dereferenceable(16) %m_latch_varsp, ptr noundef nonnull align 8 dereferenceable(16) %exprs)
          to label %invoke.cont86 unwind label %lpad13

invoke.cont86:                                    ; preds = %invoke.cont84
  %61 = load i32, ptr %numqs, align 4
  store i32 %61, ptr %i, align 4
  br label %for.cond87

for.cond87:                                       ; preds = %for.inc, %invoke.cont86
  %62 = load i32, ptr %i, align 4
  %63 = load ptr, ptr %r, align 8
  %call89 = invoke noundef i32 @_ZNK7datalog4rule13get_tail_sizeEv(ptr noundef nonnull align 8 dereferenceable(80) %63)
          to label %invoke.cont88 unwind label %lpad13

invoke.cont88:                                    ; preds = %for.cond87
  %cmp90 = icmp ult i32 %62, %call89
  br i1 %cmp90, label %for.body91, label %for.end

for.body91:                                       ; preds = %invoke.cont88
  %m92 = getelementptr inbounds %"class.datalog::aig_exporter", ptr %this1, i32 0, i32 2
  %64 = load ptr, ptr %m92, align 8
  invoke void @_ZN7obj_refI4expr11ast_managerEC2ERS1_(ptr noundef nonnull align 8 dereferenceable(16) %e, ptr noundef nonnull align 8 dereferenceable(976) %64)
          to label %invoke.cont93 unwind label %lpad13

invoke.cont93:                                    ; preds = %for.body91
  %65 = load ptr, ptr %r, align 8
  %66 = load i32, ptr %i, align 4
  %call96 = invoke noundef ptr @_ZNK7datalog4rule8get_tailEj(ptr noundef nonnull align 8 dereferenceable(80) %65, i32 noundef %66)
          to label %invoke.cont95 unwind label %lpad94

invoke.cont95:                                    ; preds = %invoke.cont93
  invoke void @_ZN12substitution5applyEP4exprR7obj_refIS0_11ast_managerE(ptr noundef nonnull align 8 dereferenceable(124) %subst, ptr noundef %call96, ptr noundef nonnull align 8 dereferenceable(16) %e)
          to label %invoke.cont97 unwind label %lpad94

invoke.cont97:                                    ; preds = %invoke.cont95
  %call99 = invoke noundef ptr @_ZNK7obj_refI4expr11ast_managerEcvPS0_Ev(ptr noundef nonnull align 8 dereferenceable(16) %e)
          to label %invoke.cont98 unwind label %lpad94

invoke.cont98:                                    ; preds = %invoke.cont97
  %call101 = invoke noundef nonnull align 8 dereferenceable(16) ptr @_ZN15ref_vector_coreI4expr19ref_manager_wrapperIS0_11ast_managerEE9push_backEPS0_(ptr noundef nonnull align 8 dereferenceable(16) %exprs, ptr noundef %call99)
          to label %invoke.cont100 unwind label %lpad94

invoke.cont100:                                   ; preds = %invoke.cont98
  call void @_ZN7obj_refI4expr11ast_managerED2Ev(ptr noundef nonnull align 8 dereferenceable(16) %e) #3
  br label %for.inc

for.inc:                                          ; preds = %invoke.cont100
  %67 = load i32, ptr %i, align 4
  %inc = add i32 %67, 1
  store i32 %inc, ptr %i, align 4
  br label %for.cond87, !llvm.loop !11

lpad94:                                           ; preds = %invoke.cont98, %invoke.cont97, %invoke.cont95, %invoke.cont93
  %68 = landingpad { ptr, i32 }
          cleanup
  %69 = extractvalue { ptr, i32 } %68, 0
  store ptr %69, ptr %exn.slot, align 8
  %70 = extractvalue { ptr, i32 } %68, 1
  store i32 %70, ptr %ehselector.slot, align 4
  call void @_ZN7obj_refI4expr11ast_managerED2Ev(ptr noundef nonnull align 8 dereferenceable(16) %e) #3
  br label %ehcleanup398

for.end:                                          ; preds = %invoke.cont88
  %m103 = getelementptr inbounds %"class.datalog::aig_exporter", ptr %this1, i32 0, i32 2
  %71 = load ptr, ptr %m103, align 8
  %call105 = invoke noundef i32 @_ZNK15ref_vector_coreI4expr19ref_manager_wrapperIS0_11ast_managerEE4sizeEv(ptr noundef nonnull align 8 dereferenceable(16) %exprs)
          to label %invoke.cont104 unwind label %lpad13

invoke.cont104:                                   ; preds = %for.end
  %call107 = invoke noundef ptr @_ZN15ref_vector_coreI4expr19ref_manager_wrapperIS0_11ast_managerEE4dataEv(ptr noundef nonnull align 8 dereferenceable(16) %exprs)
          to label %invoke.cont106 unwind label %lpad13

invoke.cont106:                                   ; preds = %invoke.cont104
  %call109 = invoke noundef ptr @_ZN11ast_manager6mk_andEjPKP4expr(ptr noundef nonnull align 8 dereferenceable(976) %71, i32 noundef %call105, ptr noundef %call107)
          to label %invoke.cont108 unwind label %lpad13

invoke.cont108:                                   ; preds = %invoke.cont106
  %call111 = invoke noundef nonnull align 8 dereferenceable(16) ptr @_ZN15ref_vector_coreI4expr19ref_manager_wrapperIS0_11ast_managerEE9push_backEPS0_(ptr noundef nonnull align 8 dereferenceable(16) %transition_function, ptr noundef %call109)
          to label %invoke.cont110 unwind label %lpad13

invoke.cont110:                                   ; preds = %invoke.cont108
  br label %for.inc112

for.inc112:                                       ; preds = %invoke.cont110
  %72 = load ptr, ptr %II, align 8
  %incdec.ptr = getelementptr inbounds ptr, ptr %72, i32 1
  store ptr %incdec.ptr, ptr %II, align 8
  br label %for.cond33, !llvm.loop !12

for.end113:                                       ; preds = %for.cond33
  br label %for.inc114

for.inc114:                                       ; preds = %for.end113
  %call116 = invoke noundef nonnull align 8 dereferenceable(16) ptr @_ZN14core_hashtableIN7obj_mapI9func_declP10ptr_vectorIN7datalog4ruleEEE13obj_map_entryE8obj_hashINS7_8key_dataEE10default_eqISA_EE8iteratorppEv(ptr noundef nonnull align 8 dereferenceable(16) %I)
          to label %invoke.cont115 unwind label %lpad13

invoke.cont115:                                   ; preds = %for.inc114
  br label %for.cond, !llvm.loop !13

for.end117:                                       ; preds = %invoke.cont19
  %m_facts = getelementptr inbounds %"class.datalog::aig_exporter", ptr %this1, i32 0, i32 1
  %73 = load ptr, ptr %m_facts, align 8
  %tobool118 = icmp ne ptr %73, null
  br i1 %tobool118, label %if.then119, label %if.end168

if.then119:                                       ; preds = %for.end117
  %m_facts121 = getelementptr inbounds %"class.datalog::aig_exporter", ptr %this1, i32 0, i32 1
  %74 = load ptr, ptr %m_facts121, align 8
  %call123 = invoke noundef ptr @_ZNK6vectorISt4pairIP9func_declN7datalog13relation_factEELb1EjE5beginEv(ptr noundef nonnull align 8 dereferenceable(8) %74)
          to label %invoke.cont122 unwind label %lpad13

invoke.cont122:                                   ; preds = %if.then119
  store ptr %call123, ptr %I120, align 8
  %m_facts125 = getelementptr inbounds %"class.datalog::aig_exporter", ptr %this1, i32 0, i32 1
  %75 = load ptr, ptr %m_facts125, align 8
  %call127 = invoke noundef ptr @_ZNK6vectorISt4pairIP9func_declN7datalog13relation_factEELb1EjE3endEv(ptr noundef nonnull align 8 dereferenceable(8) %75)
          to label %invoke.cont126 unwind label %lpad13

invoke.cont126:                                   ; preds = %invoke.cont122
  store ptr %call127, ptr %E124, align 8
  br label %for.cond128

for.cond128:                                      ; preds = %for.inc165, %invoke.cont126
  %76 = load ptr, ptr %I120, align 8
  %77 = load ptr, ptr %E124, align 8
  %cmp129 = icmp ne ptr %76, %77
  br i1 %cmp129, label %for.body130, label %for.end167

for.body130:                                      ; preds = %for.cond128
  invoke void @_ZN15ref_vector_coreI4expr19ref_manager_wrapperIS0_11ast_managerEE5resetEv(ptr noundef nonnull align 8 dereferenceable(16) %exprs)
          to label %invoke.cont131 unwind label %lpad13

invoke.cont131:                                   ; preds = %for.body130
  %m_ruleid_var_set132 = getelementptr inbounds %"class.datalog::aig_exporter", ptr %this1, i32 0, i32 14
  invoke void @_ZN7datalog12aig_exporter14assert_pred_idEP9func_declRK10ref_vectorI4expr11ast_managerERS6_(ptr noundef nonnull align 8 dereferenceable(624) %this1, ptr noundef null, ptr noundef nonnull align 8 dereferenceable(16) %m_ruleid_var_set132, ptr noundef nonnull align 8 dereferenceable(16) %exprs)
          to label %invoke.cont133 unwind label %lpad13

invoke.cont133:                                   ; preds = %invoke.cont131
  %78 = load ptr, ptr %I120, align 8
  %first = getelementptr inbounds %"struct.std::pair.179", ptr %78, i32 0, i32 0
  %79 = load ptr, ptr %first, align 8
  %m_ruleid_varp_set134 = getelementptr inbounds %"class.datalog::aig_exporter", ptr %this1, i32 0, i32 15
  invoke void @_ZN7datalog12aig_exporter14assert_pred_idEP9func_declRK10ref_vectorI4expr11ast_managerERS6_(ptr noundef nonnull align 8 dereferenceable(624) %this1, ptr noundef %79, ptr noundef nonnull align 8 dereferenceable(16) %m_ruleid_varp_set134, ptr noundef nonnull align 8 dereferenceable(16) %exprs)
          to label %invoke.cont135 unwind label %lpad13

invoke.cont135:                                   ; preds = %invoke.cont133
  store i32 0, ptr %i136, align 4
  br label %for.cond137

for.cond137:                                      ; preds = %for.inc153, %invoke.cont135
  %80 = load i32, ptr %i136, align 4
  %81 = load ptr, ptr %I120, align 8
  %second = getelementptr inbounds %"struct.std::pair.179", ptr %81, i32 0, i32 1
  %call139 = invoke noundef i32 @_ZNK15ref_vector_coreI3app19ref_manager_wrapperIS0_11ast_managerEE4sizeEv(ptr noundef nonnull align 8 dereferenceable(16) %second)
          to label %invoke.cont138 unwind label %lpad13

invoke.cont138:                                   ; preds = %for.cond137
  %cmp140 = icmp ult i32 %80, %call139
  br i1 %cmp140, label %for.body141, label %for.end155

for.body141:                                      ; preds = %invoke.cont138
  %m142 = getelementptr inbounds %"class.datalog::aig_exporter", ptr %this1, i32 0, i32 2
  %82 = load ptr, ptr %m142, align 8
  %83 = load i32, ptr %i136, align 4
  %m_latch_varsp143 = getelementptr inbounds %"class.datalog::aig_exporter", ptr %this1, i32 0, i32 13
  %call145 = invoke noundef ptr @_ZN7datalog12aig_exporter13get_latch_varEjRK10ref_vectorI4expr11ast_managerE(ptr noundef nonnull align 8 dereferenceable(624) %this1, i32 noundef %83, ptr noundef nonnull align 8 dereferenceable(16) %m_latch_varsp143)
          to label %invoke.cont144 unwind label %lpad13

invoke.cont144:                                   ; preds = %for.body141
  %84 = load ptr, ptr %I120, align 8
  %second146 = getelementptr inbounds %"struct.std::pair.179", ptr %84, i32 0, i32 1
  %85 = load i32, ptr %i136, align 4
  %call148 = invoke noundef ptr @_ZNK7datalog13relation_factixEj(ptr noundef nonnull align 8 dereferenceable(16) %second146, i32 noundef %85)
          to label %invoke.cont147 unwind label %lpad13

invoke.cont147:                                   ; preds = %invoke.cont144
  %call150 = invoke noundef ptr @_ZN11ast_manager5mk_eqEP4exprS1_(ptr noundef nonnull align 8 dereferenceable(976) %82, ptr noundef %call145, ptr noundef %call148)
          to label %invoke.cont149 unwind label %lpad13

invoke.cont149:                                   ; preds = %invoke.cont147
  %call152 = invoke noundef nonnull align 8 dereferenceable(16) ptr @_ZN15ref_vector_coreI4expr19ref_manager_wrapperIS0_11ast_managerEE9push_backEPS0_(ptr noundef nonnull align 8 dereferenceable(16) %exprs, ptr noundef %call150)
          to label %invoke.cont151 unwind label %lpad13

invoke.cont151:                                   ; preds = %invoke.cont149
  br label %for.inc153

for.inc153:                                       ; preds = %invoke.cont151
  %86 = load i32, ptr %i136, align 4
  %inc154 = add i32 %86, 1
  store i32 %inc154, ptr %i136, align 4
  br label %for.cond137, !llvm.loop !14

for.end155:                                       ; preds = %invoke.cont138
  %m156 = getelementptr inbounds %"class.datalog::aig_exporter", ptr %this1, i32 0, i32 2
  %87 = load ptr, ptr %m156, align 8
  %call158 = invoke noundef i32 @_ZNK15ref_vector_coreI4expr19ref_manager_wrapperIS0_11ast_managerEE4sizeEv(ptr noundef nonnull align 8 dereferenceable(16) %exprs)
          to label %invoke.cont157 unwind label %lpad13

invoke.cont157:                                   ; preds = %for.end155
  %call160 = invoke noundef ptr @_ZN15ref_vector_coreI4expr19ref_manager_wrapperIS0_11ast_managerEE4dataEv(ptr noundef nonnull align 8 dereferenceable(16) %exprs)
          to label %invoke.cont159 unwind label %lpad13

invoke.cont159:                                   ; preds = %invoke.cont157
  %call162 = invoke noundef ptr @_ZN11ast_manager6mk_andEjPKP4expr(ptr noundef nonnull align 8 dereferenceable(976) %87, i32 noundef %call158, ptr noundef %call160)
          to label %invoke.cont161 unwind label %lpad13

invoke.cont161:                                   ; preds = %invoke.cont159
  %call164 = invoke noundef nonnull align 8 dereferenceable(16) ptr @_ZN15ref_vector_coreI4expr19ref_manager_wrapperIS0_11ast_managerEE9push_backEPS0_(ptr noundef nonnull align 8 dereferenceable(16) %transition_function, ptr noundef %call162)
          to label %invoke.cont163 unwind label %lpad13

invoke.cont163:                                   ; preds = %invoke.cont161
  br label %for.inc165

for.inc165:                                       ; preds = %invoke.cont163
  %88 = load ptr, ptr %I120, align 8
  %incdec.ptr166 = getelementptr inbounds %"struct.std::pair.179", ptr %88, i32 1
  store ptr %incdec.ptr166, ptr %I120, align 8
  br label %for.cond128, !llvm.loop !15

for.end167:                                       ; preds = %for.cond128
  br label %if.end168

if.end168:                                        ; preds = %for.end167, %for.end117
  %m169 = getelementptr inbounds %"class.datalog::aig_exporter", ptr %this1, i32 0, i32 2
  %89 = load ptr, ptr %m169, align 8
  %call171 = invoke noundef i32 @_ZNK15ref_vector_coreI4expr19ref_manager_wrapperIS0_11ast_managerEE4sizeEv(ptr noundef nonnull align 8 dereferenceable(16) %transition_function)
          to label %invoke.cont170 unwind label %lpad13

invoke.cont170:                                   ; preds = %if.end168
  %call173 = invoke noundef ptr @_ZN15ref_vector_coreI4expr19ref_manager_wrapperIS0_11ast_managerEE4dataEv(ptr noundef nonnull align 8 dereferenceable(16) %transition_function)
          to label %invoke.cont172 unwind label %lpad13

invoke.cont172:                                   ; preds = %invoke.cont170
  %call175 = invoke noundef ptr @_ZN11ast_manager5mk_orEjPKP4expr(ptr noundef nonnull align 8 dereferenceable(976) %89, i32 noundef %call171, ptr noundef %call173)
          to label %invoke.cont174 unwind label %lpad13

invoke.cont174:                                   ; preds = %invoke.cont172
  store ptr %call175, ptr %tr, align 8
  %m_aigm = getelementptr inbounds %"class.datalog::aig_exporter", ptr %this1, i32 0, i32 4
  %90 = load ptr, ptr %tr, align 8
  invoke void @_ZN11aig_manager6mk_aigEP4expr(ptr sret(%class.aig_ref) align 8 %aig, ptr noundef nonnull align 8 dereferenceable(8) %m_aigm, ptr noundef %90)
          to label %invoke.cont176 unwind label %lpad13

invoke.cont176:                                   ; preds = %invoke.cont174
  %m177 = getelementptr inbounds %"class.datalog::aig_exporter", ptr %this1, i32 0, i32 2
  %91 = load ptr, ptr %m177, align 8
  invoke void @_ZN7obj_refI4expr11ast_managerEC2ERS1_(ptr noundef nonnull align 8 dereferenceable(16) %aig_expr, ptr noundef nonnull align 8 dereferenceable(976) %91)
          to label %invoke.cont179 unwind label %lpad178

invoke.cont179:                                   ; preds = %invoke.cont176
  %m_aigm180 = getelementptr inbounds %"class.datalog::aig_exporter", ptr %this1, i32 0, i32 4
  invoke void @_ZN11aig_manager10to_formulaERK7aig_refR7obj_refI4expr11ast_managerE(ptr noundef nonnull align 8 dereferenceable(8) %m_aigm180, ptr noundef nonnull align 8 dereferenceable(16) %aig, ptr noundef nonnull align 8 dereferenceable(16) %aig_expr)
          to label %invoke.cont182 unwind label %lpad181

invoke.cont182:                                   ; preds = %invoke.cont179
  store i32 0, ptr %i183, align 4
  br label %for.cond184

for.cond184:                                      ; preds = %for.inc202, %invoke.cont182
  %92 = load i32, ptr %i183, align 4
  %m_ruleid_var_set185 = getelementptr inbounds %"class.datalog::aig_exporter", ptr %this1, i32 0, i32 14
  %call187 = invoke noundef i32 @_ZNK15ref_vector_coreI4expr19ref_manager_wrapperIS0_11ast_managerEE4sizeEv(ptr noundef nonnull align 8 dereferenceable(16) %m_ruleid_var_set185)
          to label %invoke.cont186 unwind label %lpad181

invoke.cont186:                                   ; preds = %for.cond184
  %cmp188 = icmp ult i32 %92, %call187
  br i1 %cmp188, label %for.body189, label %for.end204

for.body189:                                      ; preds = %invoke.cont186
  %m_latch_vars190 = getelementptr inbounds %"class.datalog::aig_exporter", ptr %this1, i32 0, i32 12
  %m_ruleid_var_set191 = getelementptr inbounds %"class.datalog::aig_exporter", ptr %this1, i32 0, i32 14
  %93 = load i32, ptr %i183, align 4
  %call193 = invoke noundef ptr @_ZNK15ref_vector_coreI4expr19ref_manager_wrapperIS0_11ast_managerEE3getEj(ptr noundef nonnull align 8 dereferenceable(16) %m_ruleid_var_set191, i32 noundef %93)
          to label %invoke.cont192 unwind label %lpad181

invoke.cont192:                                   ; preds = %for.body189
  %call195 = invoke noundef nonnull align 8 dereferenceable(16) ptr @_ZN15ref_vector_coreI4expr19ref_manager_wrapperIS0_11ast_managerEE9push_backEPS0_(ptr noundef nonnull align 8 dereferenceable(16) %m_latch_vars190, ptr noundef %call193)
          to label %invoke.cont194 unwind label %lpad181

invoke.cont194:                                   ; preds = %invoke.cont192
  %m_latch_varsp196 = getelementptr inbounds %"class.datalog::aig_exporter", ptr %this1, i32 0, i32 13
  %m_ruleid_varp_set197 = getelementptr inbounds %"class.datalog::aig_exporter", ptr %this1, i32 0, i32 15
  %94 = load i32, ptr %i183, align 4
  %call199 = invoke noundef ptr @_ZNK15ref_vector_coreI4expr19ref_manager_wrapperIS0_11ast_managerEE3getEj(ptr noundef nonnull align 8 dereferenceable(16) %m_ruleid_varp_set197, i32 noundef %94)
          to label %invoke.cont198 unwind label %lpad181

invoke.cont198:                                   ; preds = %invoke.cont194
  %call201 = invoke noundef nonnull align 8 dereferenceable(16) ptr @_ZN15ref_vector_coreI4expr19ref_manager_wrapperIS0_11ast_managerEE9push_backEPS0_(ptr noundef nonnull align 8 dereferenceable(16) %m_latch_varsp196, ptr noundef %call199)
          to label %invoke.cont200 unwind label %lpad181

invoke.cont200:                                   ; preds = %invoke.cont198
  br label %for.inc202

for.inc202:                                       ; preds = %invoke.cont200
  %95 = load i32, ptr %i183, align 4
  %inc203 = add i32 %95, 1
  store i32 %inc203, ptr %i183, align 4
  br label %for.cond184, !llvm.loop !16

lpad178:                                          ; preds = %invoke.cont176
  %96 = landingpad { ptr, i32 }
          cleanup
  %97 = extractvalue { ptr, i32 } %96, 0
  store ptr %97, ptr %exn.slot, align 8
  %98 = extractvalue { ptr, i32 } %96, 1
  store i32 %98, ptr %ehselector.slot, align 4
  br label %ehcleanup397

lpad181:                                          ; preds = %invoke.cont227, %invoke.cont225, %for.end224, %invoke.cont218, %invoke.cont215, %invoke.cont213, %for.body211, %for.cond206, %invoke.cont198, %invoke.cont194, %invoke.cont192, %for.body189, %for.cond184, %invoke.cont179
  %99 = landingpad { ptr, i32 }
          cleanup
  %100 = extractvalue { ptr, i32 } %99, 0
  store ptr %100, ptr %exn.slot, align 8
  %101 = extractvalue { ptr, i32 } %99, 1
  store i32 %101, ptr %ehselector.slot, align 4
  br label %ehcleanup396

for.end204:                                       ; preds = %invoke.cont186
  store i32 0, ptr %i205, align 4
  br label %for.cond206

for.cond206:                                      ; preds = %for.inc222, %for.end204
  %102 = load i32, ptr %i205, align 4
  %m_latch_vars207 = getelementptr inbounds %"class.datalog::aig_exporter", ptr %this1, i32 0, i32 12
  %call209 = invoke noundef i32 @_ZNK15ref_vector_coreI4expr19ref_manager_wrapperIS0_11ast_managerEE4sizeEv(ptr noundef nonnull align 8 dereferenceable(16) %m_latch_vars207)
          to label %invoke.cont208 unwind label %lpad181

invoke.cont208:                                   ; preds = %for.cond206
  %cmp210 = icmp ult i32 %102, %call209
  br i1 %cmp210, label %for.body211, label %for.end224

for.body211:                                      ; preds = %invoke.cont208
  %m_latch_vars212 = getelementptr inbounds %"class.datalog::aig_exporter", ptr %this1, i32 0, i32 12
  %103 = load i32, ptr %i205, align 4
  %call214 = invoke noundef ptr @_ZNK15ref_vector_coreI4expr19ref_manager_wrapperIS0_11ast_managerEE3getEj(ptr noundef nonnull align 8 dereferenceable(16) %m_latch_vars212, i32 noundef %103)
          to label %invoke.cont213 unwind label %lpad181

invoke.cont213:                                   ; preds = %for.body211
  %call216 = invoke noundef i32 @_ZN7datalog12aig_exporter6mk_varEPK4expr(ptr noundef nonnull align 8 dereferenceable(624) %this1, ptr noundef %call214)
          to label %invoke.cont215 unwind label %lpad181

invoke.cont215:                                   ; preds = %invoke.cont213
  %m_latch_varsp217 = getelementptr inbounds %"class.datalog::aig_exporter", ptr %this1, i32 0, i32 13
  %104 = load i32, ptr %i205, align 4
  %call219 = invoke noundef ptr @_ZNK15ref_vector_coreI4expr19ref_manager_wrapperIS0_11ast_managerEE3getEj(ptr noundef nonnull align 8 dereferenceable(16) %m_latch_varsp217, i32 noundef %104)
          to label %invoke.cont218 unwind label %lpad181

invoke.cont218:                                   ; preds = %invoke.cont215
  %call221 = invoke noundef i32 @_ZN7datalog12aig_exporter12mk_input_varEPK4expr(ptr noundef nonnull align 8 dereferenceable(624) %this1, ptr noundef %call219)
          to label %invoke.cont220 unwind label %lpad181

invoke.cont220:                                   ; preds = %invoke.cont218
  br label %for.inc222

for.inc222:                                       ; preds = %invoke.cont220
  %105 = load i32, ptr %i205, align 4
  %inc223 = add i32 %105, 1
  store i32 %inc223, ptr %i205, align 4
  br label %for.cond206, !llvm.loop !17

for.end224:                                       ; preds = %invoke.cont208
  %call226 = invoke noundef ptr @_ZNK7obj_refI4expr11ast_managerEcvPS0_Ev(ptr noundef nonnull align 8 dereferenceable(16) %aig_expr)
          to label %invoke.cont225 unwind label %lpad181

invoke.cont225:                                   ; preds = %for.end224
  %call228 = invoke noundef i32 @_ZN7datalog12aig_exporter11expr_to_aigEPK4expr(ptr noundef nonnull align 8 dereferenceable(624) %this1, ptr noundef %call226)
          to label %invoke.cont227 unwind label %lpad181

invoke.cont227:                                   ; preds = %invoke.cont225
  store i32 %call228, ptr %tr_id, align 4
  invoke void @_ZN7svectorIjjEC2Ev(ptr noundef nonnull align 8 dereferenceable(8) %latch_varp_ids)
          to label %invoke.cont229 unwind label %lpad181

invoke.cont229:                                   ; preds = %invoke.cont227
  store i32 0, ptr %i230, align 4
  br label %for.cond231

for.cond231:                                      ; preds = %for.inc259, %invoke.cont229
  %106 = load i32, ptr %i230, align 4
  %m_latch_vars232 = getelementptr inbounds %"class.datalog::aig_exporter", ptr %this1, i32 0, i32 12
  %call235 = invoke noundef i32 @_ZNK15ref_vector_coreI4expr19ref_manager_wrapperIS0_11ast_managerEE4sizeEv(ptr noundef nonnull align 8 dereferenceable(16) %m_latch_vars232)
          to label %invoke.cont234 unwind label %lpad233

invoke.cont234:                                   ; preds = %for.cond231
  %cmp236 = icmp ult i32 %106, %call235
  br i1 %cmp236, label %for.body237, label %for.end261

for.body237:                                      ; preds = %invoke.cont234
  %107 = load i32, ptr %tr_id, align 4
  %m_latch_varsp238 = getelementptr inbounds %"class.datalog::aig_exporter", ptr %this1, i32 0, i32 13
  %108 = load i32, ptr %i230, align 4
  %call240 = invoke noundef ptr @_ZNK15ref_vector_coreI4expr19ref_manager_wrapperIS0_11ast_managerEE3getEj(ptr noundef nonnull align 8 dereferenceable(16) %m_latch_varsp238, i32 noundef %108)
          to label %invoke.cont239 unwind label %lpad233

invoke.cont239:                                   ; preds = %for.body237
  %call242 = invoke noundef i32 @_ZN7datalog12aig_exporter7get_varEPK4expr(ptr noundef nonnull align 8 dereferenceable(624) %this1, ptr noundef %call240)
          to label %invoke.cont241 unwind label %lpad233

invoke.cont241:                                   ; preds = %invoke.cont239
  %call244 = invoke noundef i32 @_ZN7datalog12aig_exporter6mk_andEjj(ptr noundef nonnull align 8 dereferenceable(624) %this1, i32 noundef %107, i32 noundef %call242)
          to label %invoke.cont243 unwind label %lpad233

invoke.cont243:                                   ; preds = %invoke.cont241
  store i32 %call244, ptr %in_val, align 4
  %109 = load i32, ptr %tr_id, align 4
  %call246 = invoke noundef i32 @_ZNK7datalog12aig_exporter3negEj(ptr noundef nonnull align 8 dereferenceable(624) %this1, i32 noundef %109)
          to label %invoke.cont245 unwind label %lpad233

invoke.cont245:                                   ; preds = %invoke.cont243
  %m_latch_vars247 = getelementptr inbounds %"class.datalog::aig_exporter", ptr %this1, i32 0, i32 12
  %110 = load i32, ptr %i230, align 4
  %call249 = invoke noundef ptr @_ZNK15ref_vector_coreI4expr19ref_manager_wrapperIS0_11ast_managerEE3getEj(ptr noundef nonnull align 8 dereferenceable(16) %m_latch_vars247, i32 noundef %110)
          to label %invoke.cont248 unwind label %lpad233

invoke.cont248:                                   ; preds = %invoke.cont245
  %call251 = invoke noundef i32 @_ZN7datalog12aig_exporter7get_varEPK4expr(ptr noundef nonnull align 8 dereferenceable(624) %this1, ptr noundef %call249)
          to label %invoke.cont250 unwind label %lpad233

invoke.cont250:                                   ; preds = %invoke.cont248
  %call253 = invoke noundef i32 @_ZN7datalog12aig_exporter6mk_andEjj(ptr noundef nonnull align 8 dereferenceable(624) %this1, i32 noundef %call246, i32 noundef %call251)
          to label %invoke.cont252 unwind label %lpad233

invoke.cont252:                                   ; preds = %invoke.cont250
  store i32 %call253, ptr %latch_val, align 4
  %111 = load i32, ptr %in_val, align 4
  %112 = load i32, ptr %latch_val, align 4
  %call256 = invoke noundef i32 @_ZN7datalog12aig_exporter5mk_orEjj(ptr noundef nonnull align 8 dereferenceable(624) %this1, i32 noundef %111, i32 noundef %112)
          to label %invoke.cont255 unwind label %lpad233

invoke.cont255:                                   ; preds = %invoke.cont252
  store i32 %call256, ptr %ref.tmp254, align 4
  %call258 = invoke noundef nonnull align 8 dereferenceable(8) ptr @_ZN6vectorIjLb0EjE9push_backEOj(ptr noundef nonnull align 8 dereferenceable(8) %latch_varp_ids, ptr noundef nonnull align 4 dereferenceable(4) %ref.tmp254)
          to label %invoke.cont257 unwind label %lpad233

invoke.cont257:                                   ; preds = %invoke.cont255
  br label %for.inc259

for.inc259:                                       ; preds = %invoke.cont257
  %113 = load i32, ptr %i230, align 4
  %inc260 = add i32 %113, 1
  store i32 %inc260, ptr %i230, align 4
  br label %for.cond231, !llvm.loop !18

lpad233:                                          ; preds = %invoke.cont387, %invoke.cont385, %for.end384, %invoke.cont378, %invoke.cont376, %invoke.cont374, %invoke.cont372, %invoke.cont370, %invoke.cont368, %for.body366, %for.cond361, %invoke.cont353, %invoke.cont351, %for.body349, %for.cond344, %invoke.cont339, %invoke.cont337, %invoke.cont335, %invoke.cont333, %invoke.cont330, %invoke.cont328, %invoke.cont326, %invoke.cont324, %invoke.cont322, %invoke.cont320, %invoke.cont317, %invoke.cont263, %for.end261, %invoke.cont255, %invoke.cont252, %invoke.cont250, %invoke.cont248, %invoke.cont245, %invoke.cont243, %invoke.cont241, %invoke.cont239, %for.body237, %for.cond231
  %114 = landingpad { ptr, i32 }
          cleanup
  %115 = extractvalue { ptr, i32 } %114, 0
  store ptr %115, ptr %exn.slot, align 8
  %116 = extractvalue { ptr, i32 } %114, 1
  store i32 %116, ptr %ehselector.slot, align 4
  br label %ehcleanup395

for.end261:                                       ; preds = %invoke.cont234
  %m_latch_varsp262 = getelementptr inbounds %"class.datalog::aig_exporter", ptr %this1, i32 0, i32 13
  invoke void @_ZN15ref_vector_coreI4expr19ref_manager_wrapperIS0_11ast_managerEE5resetEv(ptr noundef nonnull align 8 dereferenceable(16) %m_latch_varsp262)
          to label %invoke.cont263 unwind label %lpad233

invoke.cont263:                                   ; preds = %for.end261
  store i32 0, ptr %output_id, align 4
  %m264 = getelementptr inbounds %"class.datalog::aig_exporter", ptr %this1, i32 0, i32 2
  %117 = load ptr, ptr %m264, align 8
  invoke void @_ZN10ref_vectorI4expr11ast_managerEC2ERS1_(ptr noundef nonnull align 8 dereferenceable(16) %output, ptr noundef nonnull align 8 dereferenceable(976) %117)
          to label %invoke.cont265 unwind label %lpad233

invoke.cont265:                                   ; preds = %invoke.cont263
  %m_rules266 = getelementptr inbounds %"class.datalog::aig_exporter", ptr %this1, i32 0, i32 0
  %118 = load ptr, ptr %m_rules266, align 8
  %call269 = invoke noundef nonnull align 8 dereferenceable(20) ptr @_ZNK7datalog8rule_set21get_output_predicatesEv(ptr noundef nonnull align 8 dereferenceable(248) %118)
          to label %invoke.cont268 unwind label %lpad267

invoke.cont268:                                   ; preds = %invoke.cont265
  store ptr %call269, ptr %preds, align 8
  %119 = load ptr, ptr %preds, align 8
  %call272 = invoke { ptr, ptr } @_ZNK14core_hashtableI14obj_hash_entryI9func_declE12obj_ptr_hashIS1_E6ptr_eqIS1_EE5beginEv(ptr noundef nonnull align 8 dereferenceable(20) %119)
          to label %invoke.cont271 unwind label %lpad267

invoke.cont271:                                   ; preds = %invoke.cont268
  %120 = getelementptr inbounds { ptr, ptr }, ptr %I270, i32 0, i32 0
  %121 = extractvalue { ptr, ptr } %call272, 0
  store ptr %121, ptr %120, align 8
  %122 = getelementptr inbounds { ptr, ptr }, ptr %I270, i32 0, i32 1
  %123 = extractvalue { ptr, ptr } %call272, 1
  store ptr %123, ptr %122, align 8
  %124 = load ptr, ptr %preds, align 8
  %call275 = invoke { ptr, ptr } @_ZNK14core_hashtableI14obj_hash_entryI9func_declE12obj_ptr_hashIS1_E6ptr_eqIS1_EE3endEv(ptr noundef nonnull align 8 dereferenceable(20) %124)
          to label %invoke.cont274 unwind label %lpad267

invoke.cont274:                                   ; preds = %invoke.cont271
  %125 = getelementptr inbounds { ptr, ptr }, ptr %E273, i32 0, i32 0
  %126 = extractvalue { ptr, ptr } %call275, 0
  store ptr %126, ptr %125, align 8
  %127 = getelementptr inbounds { ptr, ptr }, ptr %E273, i32 0, i32 1
  %128 = extractvalue { ptr, ptr } %call275, 1
  store ptr %128, ptr %127, align 8
  br label %for.cond276

for.cond276:                                      ; preds = %invoke.cont295, %invoke.cont274
  %call278 = invoke noundef zeroext i1 @_ZNK14core_hashtableI14obj_hash_entryI9func_declE12obj_ptr_hashIS1_E6ptr_eqIS1_EE8iteratorneERKS8_(ptr noundef nonnull align 8 dereferenceable(16) %I270, ptr noundef nonnull align 8 dereferenceable(16) %E273)
          to label %invoke.cont277 unwind label %lpad267

invoke.cont277:                                   ; preds = %for.cond276
  br i1 %call278, label %for.body279, label %for.end297

for.body279:                                      ; preds = %invoke.cont277
  invoke void @_ZN15ref_vector_coreI4expr19ref_manager_wrapperIS0_11ast_managerEE5resetEv(ptr noundef nonnull align 8 dereferenceable(16) %exprs)
          to label %invoke.cont280 unwind label %lpad267

invoke.cont280:                                   ; preds = %for.body279
  %call282 = invoke noundef nonnull align 8 dereferenceable(8) ptr @_ZN14core_hashtableI14obj_hash_entryI9func_declE12obj_ptr_hashIS1_E6ptr_eqIS1_EE8iteratordeEv(ptr noundef nonnull align 8 dereferenceable(16) %I270)
          to label %invoke.cont281 unwind label %lpad267

invoke.cont281:                                   ; preds = %invoke.cont280
  %129 = load ptr, ptr %call282, align 8
  %m_ruleid_var_set283 = getelementptr inbounds %"class.datalog::aig_exporter", ptr %this1, i32 0, i32 14
  invoke void @_ZN7datalog12aig_exporter14assert_pred_idEP9func_declRK10ref_vectorI4expr11ast_managerERS6_(ptr noundef nonnull align 8 dereferenceable(624) %this1, ptr noundef %129, ptr noundef nonnull align 8 dereferenceable(16) %m_ruleid_var_set283, ptr noundef nonnull align 8 dereferenceable(16) %exprs)
          to label %invoke.cont284 unwind label %lpad267

invoke.cont284:                                   ; preds = %invoke.cont281
  %m285 = getelementptr inbounds %"class.datalog::aig_exporter", ptr %this1, i32 0, i32 2
  %130 = load ptr, ptr %m285, align 8
  %call287 = invoke noundef i32 @_ZNK15ref_vector_coreI4expr19ref_manager_wrapperIS0_11ast_managerEE4sizeEv(ptr noundef nonnull align 8 dereferenceable(16) %exprs)
          to label %invoke.cont286 unwind label %lpad267

invoke.cont286:                                   ; preds = %invoke.cont284
  %call289 = invoke noundef ptr @_ZN15ref_vector_coreI4expr19ref_manager_wrapperIS0_11ast_managerEE4dataEv(ptr noundef nonnull align 8 dereferenceable(16) %exprs)
          to label %invoke.cont288 unwind label %lpad267

invoke.cont288:                                   ; preds = %invoke.cont286
  %call291 = invoke noundef ptr @_ZN11ast_manager6mk_andEjPKP4expr(ptr noundef nonnull align 8 dereferenceable(976) %130, i32 noundef %call287, ptr noundef %call289)
          to label %invoke.cont290 unwind label %lpad267

invoke.cont290:                                   ; preds = %invoke.cont288
  %call293 = invoke noundef nonnull align 8 dereferenceable(16) ptr @_ZN15ref_vector_coreI4expr19ref_manager_wrapperIS0_11ast_managerEE9push_backEPS0_(ptr noundef nonnull align 8 dereferenceable(16) %output, ptr noundef %call291)
          to label %invoke.cont292 unwind label %lpad267

invoke.cont292:                                   ; preds = %invoke.cont290
  br label %for.inc294

for.inc294:                                       ; preds = %invoke.cont292
  %call296 = invoke noundef nonnull align 8 dereferenceable(16) ptr @_ZN14core_hashtableI14obj_hash_entryI9func_declE12obj_ptr_hashIS1_E6ptr_eqIS1_EE8iteratorppEv(ptr noundef nonnull align 8 dereferenceable(16) %I270)
          to label %invoke.cont295 unwind label %lpad267

invoke.cont295:                                   ; preds = %for.inc294
  br label %for.cond276, !llvm.loop !19

lpad267:                                          ; preds = %invoke.cont315, %invoke.cont314, %invoke.cont310, %invoke.cont304, %invoke.cont302, %invoke.cont300, %for.end297, %for.inc294, %invoke.cont290, %invoke.cont288, %invoke.cont286, %invoke.cont284, %invoke.cont281, %invoke.cont280, %for.body279, %for.cond276, %invoke.cont271, %invoke.cont268, %invoke.cont265
  %131 = landingpad { ptr, i32 }
          cleanup
  %132 = extractvalue { ptr, i32 } %131, 0
  store ptr %132, ptr %exn.slot, align 8
  %133 = extractvalue { ptr, i32 } %131, 1
  store i32 %133, ptr %ehselector.slot, align 4
  br label %ehcleanup319

for.end297:                                       ; preds = %invoke.cont277
  %m299 = getelementptr inbounds %"class.datalog::aig_exporter", ptr %this1, i32 0, i32 2
  %134 = load ptr, ptr %m299, align 8
  %call301 = invoke noundef i32 @_ZNK15ref_vector_coreI4expr19ref_manager_wrapperIS0_11ast_managerEE4sizeEv(ptr noundef nonnull align 8 dereferenceable(16) %output)
          to label %invoke.cont300 unwind label %lpad267

invoke.cont300:                                   ; preds = %for.end297
  %call303 = invoke noundef ptr @_ZN15ref_vector_coreI4expr19ref_manager_wrapperIS0_11ast_managerEE4dataEv(ptr noundef nonnull align 8 dereferenceable(16) %output)
          to label %invoke.cont302 unwind label %lpad267

invoke.cont302:                                   ; preds = %invoke.cont300
  %call305 = invoke noundef ptr @_ZN11ast_manager5mk_orEjPKP4expr(ptr noundef nonnull align 8 dereferenceable(976) %134, i32 noundef %call301, ptr noundef %call303)
          to label %invoke.cont304 unwind label %lpad267

invoke.cont304:                                   ; preds = %invoke.cont302
  store ptr %call305, ptr %out298, align 8
  %m_aigm307 = getelementptr inbounds %"class.datalog::aig_exporter", ptr %this1, i32 0, i32 4
  %135 = load ptr, ptr %out298, align 8
  invoke void @_ZN11aig_manager6mk_aigEP4expr(ptr sret(%class.aig_ref) align 8 %ref.tmp306, ptr noundef nonnull align 8 dereferenceable(8) %m_aigm307, ptr noundef %135)
          to label %invoke.cont308 unwind label %lpad267

invoke.cont308:                                   ; preds = %invoke.cont304
  %call311 = invoke noundef nonnull align 8 dereferenceable(16) ptr @_ZN7aig_refaSERKS_(ptr noundef nonnull align 8 dereferenceable(16) %aig, ptr noundef nonnull align 8 dereferenceable(16) %ref.tmp306)
          to label %invoke.cont310 unwind label %lpad309

invoke.cont310:                                   ; preds = %invoke.cont308
  call void @_ZN7aig_refD1Ev(ptr noundef nonnull align 8 dereferenceable(16) %ref.tmp306) #3
  %m_aigm313 = getelementptr inbounds %"class.datalog::aig_exporter", ptr %this1, i32 0, i32 4
  invoke void @_ZN11aig_manager10to_formulaERK7aig_refR7obj_refI4expr11ast_managerE(ptr noundef nonnull align 8 dereferenceable(8) %m_aigm313, ptr noundef nonnull align 8 dereferenceable(16) %aig, ptr noundef nonnull align 8 dereferenceable(16) %aig_expr)
          to label %invoke.cont314 unwind label %lpad267

invoke.cont314:                                   ; preds = %invoke.cont310
  %call316 = invoke noundef ptr @_ZNK7obj_refI4expr11ast_managerEcvPS0_Ev(ptr noundef nonnull align 8 dereferenceable(16) %aig_expr)
          to label %invoke.cont315 unwind label %lpad267

invoke.cont315:                                   ; preds = %invoke.cont314
  %call318 = invoke noundef i32 @_ZN7datalog12aig_exporter11expr_to_aigEPK4expr(ptr noundef nonnull align 8 dereferenceable(624) %this1, ptr noundef %call316)
          to label %invoke.cont317 unwind label %lpad267

invoke.cont317:                                   ; preds = %invoke.cont315
  store i32 %call318, ptr %output_id, align 4
  call void @_ZN10ref_vectorI4expr11ast_managerED2Ev(ptr noundef nonnull align 8 dereferenceable(16) %output) #3
  %136 = load ptr, ptr %out.addr, align 8
  %call321 = invoke noundef nonnull align 8 dereferenceable(8) ptr @_ZStlsISt11char_traitsIcEERSt13basic_ostreamIcT_ES5_PKc(ptr noundef nonnull align 8 dereferenceable(8) %136, ptr noundef @.str.6)
          to label %invoke.cont320 unwind label %lpad233

invoke.cont320:                                   ; preds = %invoke.cont317
  %m_next_aig_expr_id = getelementptr inbounds %"class.datalog::aig_exporter", ptr %this1, i32 0, i32 9
  %137 = load i32, ptr %m_next_aig_expr_id, align 8
  %sub = sub i32 %137, 1
  %div = udiv i32 %sub, 2
  %call323 = invoke noundef nonnull align 8 dereferenceable(8) ptr @_ZNSolsEj(ptr noundef nonnull align 8 dereferenceable(8) %call321, i32 noundef %div)
          to label %invoke.cont322 unwind label %lpad233

invoke.cont322:                                   ; preds = %invoke.cont320
  %call325 = invoke noundef nonnull align 8 dereferenceable(8) ptr @_ZStlsISt11char_traitsIcEERSt13basic_ostreamIcT_ES5_c(ptr noundef nonnull align 8 dereferenceable(8) %call323, i8 noundef signext 32)
          to label %invoke.cont324 unwind label %lpad233

invoke.cont324:                                   ; preds = %invoke.cont322
  %m_input_vars = getelementptr inbounds %"class.datalog::aig_exporter", ptr %this1, i32 0, i32 16
  %call327 = invoke noundef i32 @_ZNK6vectorIjLb0EjE4sizeEv(ptr noundef nonnull align 8 dereferenceable(8) %m_input_vars)
          to label %invoke.cont326 unwind label %lpad233

invoke.cont326:                                   ; preds = %invoke.cont324
  %call329 = invoke noundef nonnull align 8 dereferenceable(8) ptr @_ZNSolsEj(ptr noundef nonnull align 8 dereferenceable(8) %call325, i32 noundef %call327)
          to label %invoke.cont328 unwind label %lpad233

invoke.cont328:                                   ; preds = %invoke.cont326
  %call331 = invoke noundef nonnull align 8 dereferenceable(8) ptr @_ZStlsISt11char_traitsIcEERSt13basic_ostreamIcT_ES5_c(ptr noundef nonnull align 8 dereferenceable(8) %call329, i8 noundef signext 32)
          to label %invoke.cont330 unwind label %lpad233

invoke.cont330:                                   ; preds = %invoke.cont328
  %m_latch_vars332 = getelementptr inbounds %"class.datalog::aig_exporter", ptr %this1, i32 0, i32 12
  %call334 = invoke noundef i32 @_ZNK15ref_vector_coreI4expr19ref_manager_wrapperIS0_11ast_managerEE4sizeEv(ptr noundef nonnull align 8 dereferenceable(16) %m_latch_vars332)
          to label %invoke.cont333 unwind label %lpad233

invoke.cont333:                                   ; preds = %invoke.cont330
  %call336 = invoke noundef nonnull align 8 dereferenceable(8) ptr @_ZNSolsEj(ptr noundef nonnull align 8 dereferenceable(8) %call331, i32 noundef %call334)
          to label %invoke.cont335 unwind label %lpad233

invoke.cont335:                                   ; preds = %invoke.cont333
  %call338 = invoke noundef nonnull align 8 dereferenceable(8) ptr @_ZStlsISt11char_traitsIcEERSt13basic_ostreamIcT_ES5_PKc(ptr noundef nonnull align 8 dereferenceable(8) %call336, ptr noundef @.str.7)
          to label %invoke.cont337 unwind label %lpad233

invoke.cont337:                                   ; preds = %invoke.cont335
  %m_num_and_gates = getelementptr inbounds %"class.datalog::aig_exporter", ptr %this1, i32 0, i32 11
  %138 = load i32, ptr %m_num_and_gates, align 8
  %call340 = invoke noundef nonnull align 8 dereferenceable(8) ptr @_ZNSolsEj(ptr noundef nonnull align 8 dereferenceable(8) %call338, i32 noundef %138)
          to label %invoke.cont339 unwind label %lpad233

invoke.cont339:                                   ; preds = %invoke.cont337
  %call342 = invoke noundef nonnull align 8 dereferenceable(8) ptr @_ZStlsISt11char_traitsIcEERSt13basic_ostreamIcT_ES5_c(ptr noundef nonnull align 8 dereferenceable(8) %call340, i8 noundef signext 10)
          to label %invoke.cont341 unwind label %lpad233

invoke.cont341:                                   ; preds = %invoke.cont339
  store i32 0, ptr %i343, align 4
  br label %for.cond344

for.cond344:                                      ; preds = %for.inc357, %invoke.cont341
  %139 = load i32, ptr %i343, align 4
  %m_input_vars345 = getelementptr inbounds %"class.datalog::aig_exporter", ptr %this1, i32 0, i32 16
  %call347 = invoke noundef i32 @_ZNK6vectorIjLb0EjE4sizeEv(ptr noundef nonnull align 8 dereferenceable(8) %m_input_vars345)
          to label %invoke.cont346 unwind label %lpad233

invoke.cont346:                                   ; preds = %for.cond344
  %cmp348 = icmp ult i32 %139, %call347
  br i1 %cmp348, label %for.body349, label %for.end359

for.body349:                                      ; preds = %invoke.cont346
  %140 = load ptr, ptr %out.addr, align 8
  %m_input_vars350 = getelementptr inbounds %"class.datalog::aig_exporter", ptr %this1, i32 0, i32 16
  %141 = load i32, ptr %i343, align 4
  %call352 = invoke noundef nonnull align 4 dereferenceable(4) ptr @_ZN6vectorIjLb0EjEixEj(ptr noundef nonnull align 8 dereferenceable(8) %m_input_vars350, i32 noundef %141)
          to label %invoke.cont351 unwind label %lpad233

invoke.cont351:                                   ; preds = %for.body349
  %142 = load i32, ptr %call352, align 4
  %call354 = invoke noundef nonnull align 8 dereferenceable(8) ptr @_ZNSolsEj(ptr noundef nonnull align 8 dereferenceable(8) %140, i32 noundef %142)
          to label %invoke.cont353 unwind label %lpad233

invoke.cont353:                                   ; preds = %invoke.cont351
  %call356 = invoke noundef nonnull align 8 dereferenceable(8) ptr @_ZStlsISt11char_traitsIcEERSt13basic_ostreamIcT_ES5_c(ptr noundef nonnull align 8 dereferenceable(8) %call354, i8 noundef signext 10)
          to label %invoke.cont355 unwind label %lpad233

invoke.cont355:                                   ; preds = %invoke.cont353
  br label %for.inc357

for.inc357:                                       ; preds = %invoke.cont355
  %143 = load i32, ptr %i343, align 4
  %inc358 = add i32 %143, 1
  store i32 %inc358, ptr %i343, align 4
  br label %for.cond344, !llvm.loop !20

lpad309:                                          ; preds = %invoke.cont308
  %144 = landingpad { ptr, i32 }
          cleanup
  %145 = extractvalue { ptr, i32 } %144, 0
  store ptr %145, ptr %exn.slot, align 8
  %146 = extractvalue { ptr, i32 } %144, 1
  store i32 %146, ptr %ehselector.slot, align 4
  call void @_ZN7aig_refD1Ev(ptr noundef nonnull align 8 dereferenceable(16) %ref.tmp306) #3
  br label %ehcleanup319

ehcleanup319:                                     ; preds = %lpad309, %lpad267
  call void @_ZN10ref_vectorI4expr11ast_managerED2Ev(ptr noundef nonnull align 8 dereferenceable(16) %output) #3
  br label %ehcleanup395

for.end359:                                       ; preds = %invoke.cont346
  store i32 0, ptr %i360, align 4
  br label %for.cond361

for.cond361:                                      ; preds = %for.inc382, %for.end359
  %147 = load i32, ptr %i360, align 4
  %m_latch_vars362 = getelementptr inbounds %"class.datalog::aig_exporter", ptr %this1, i32 0, i32 12
  %call364 = invoke noundef i32 @_ZNK15ref_vector_coreI4expr19ref_manager_wrapperIS0_11ast_managerEE4sizeEv(ptr noundef nonnull align 8 dereferenceable(16) %m_latch_vars362)
          to label %invoke.cont363 unwind label %lpad233

invoke.cont363:                                   ; preds = %for.cond361
  %cmp365 = icmp ult i32 %147, %call364
  br i1 %cmp365, label %for.body366, label %for.end384

for.body366:                                      ; preds = %invoke.cont363
  %148 = load ptr, ptr %out.addr, align 8
  %m_latch_vars367 = getelementptr inbounds %"class.datalog::aig_exporter", ptr %this1, i32 0, i32 12
  %149 = load i32, ptr %i360, align 4
  %call369 = invoke noundef ptr @_ZNK15ref_vector_coreI4expr19ref_manager_wrapperIS0_11ast_managerEE3getEj(ptr noundef nonnull align 8 dereferenceable(16) %m_latch_vars367, i32 noundef %149)
          to label %invoke.cont368 unwind label %lpad233

invoke.cont368:                                   ; preds = %for.body366
  %call371 = invoke noundef i32 @_ZN7datalog12aig_exporter7get_varEPK4expr(ptr noundef nonnull align 8 dereferenceable(624) %this1, ptr noundef %call369)
          to label %invoke.cont370 unwind label %lpad233

invoke.cont370:                                   ; preds = %invoke.cont368
  %call373 = invoke noundef nonnull align 8 dereferenceable(8) ptr @_ZNSolsEj(ptr noundef nonnull align 8 dereferenceable(8) %148, i32 noundef %call371)
          to label %invoke.cont372 unwind label %lpad233

invoke.cont372:                                   ; preds = %invoke.cont370
  %call375 = invoke noundef nonnull align 8 dereferenceable(8) ptr @_ZStlsISt11char_traitsIcEERSt13basic_ostreamIcT_ES5_c(ptr noundef nonnull align 8 dereferenceable(8) %call373, i8 noundef signext 32)
          to label %invoke.cont374 unwind label %lpad233

invoke.cont374:                                   ; preds = %invoke.cont372
  %150 = load i32, ptr %i360, align 4
  %call377 = invoke noundef nonnull align 4 dereferenceable(4) ptr @_ZN6vectorIjLb0EjEixEj(ptr noundef nonnull align 8 dereferenceable(8) %latch_varp_ids, i32 noundef %150)
          to label %invoke.cont376 unwind label %lpad233

invoke.cont376:                                   ; preds = %invoke.cont374
  %151 = load i32, ptr %call377, align 4
  %call379 = invoke noundef nonnull align 8 dereferenceable(8) ptr @_ZNSolsEj(ptr noundef nonnull align 8 dereferenceable(8) %call375, i32 noundef %151)
          to label %invoke.cont378 unwind label %lpad233

invoke.cont378:                                   ; preds = %invoke.cont376
  %call381 = invoke noundef nonnull align 8 dereferenceable(8) ptr @_ZStlsISt11char_traitsIcEERSt13basic_ostreamIcT_ES5_c(ptr noundef nonnull align 8 dereferenceable(8) %call379, i8 noundef signext 10)
          to label %invoke.cont380 unwind label %lpad233

invoke.cont380:                                   ; preds = %invoke.cont378
  br label %for.inc382

for.inc382:                                       ; preds = %invoke.cont380
  %152 = load i32, ptr %i360, align 4
  %inc383 = add i32 %152, 1
  store i32 %inc383, ptr %i360, align 4
  br label %for.cond361, !llvm.loop !21

for.end384:                                       ; preds = %invoke.cont363
  %153 = load ptr, ptr %out.addr, align 8
  %154 = load i32, ptr %output_id, align 4
  %call386 = invoke noundef nonnull align 8 dereferenceable(8) ptr @_ZNSolsEj(ptr noundef nonnull align 8 dereferenceable(8) %153, i32 noundef %154)
          to label %invoke.cont385 unwind label %lpad233

invoke.cont385:                                   ; preds = %for.end384
  %call388 = invoke noundef nonnull align 8 dereferenceable(8) ptr @_ZStlsISt11char_traitsIcEERSt13basic_ostreamIcT_ES5_c(ptr noundef nonnull align 8 dereferenceable(8) %call386, i8 noundef signext 10)
          to label %invoke.cont387 unwind label %lpad233

invoke.cont387:                                   ; preds = %invoke.cont385
  %155 = load ptr, ptr %out.addr, align 8
  %m_buffer = getelementptr inbounds %"class.datalog::aig_exporter", ptr %this1, i32 0, i32 17
  invoke void @_ZNKSt7__cxx1118basic_stringstreamIcSt11char_traitsIcESaIcEE3strEv(ptr sret(%"class.std::__cxx11::basic_string") align 8 %ref.tmp389, ptr noundef nonnull align 8 dereferenceable(128) %m_buffer)
          to label %invoke.cont390 unwind label %lpad233

invoke.cont390:                                   ; preds = %invoke.cont387
  %call393 = invoke noundef nonnull align 8 dereferenceable(8) ptr @_ZStlsIcSt11char_traitsIcESaIcEERSt13basic_ostreamIT_T0_ES7_RKNSt7__cxx1112basic_stringIS4_S5_T1_EE(ptr noundef nonnull align 8 dereferenceable(8) %155, ptr noundef nonnull align 8 dereferenceable(32) %ref.tmp389)
          to label %invoke.cont392 unwind label %lpad391

invoke.cont392:                                   ; preds = %invoke.cont390
  call void @_ZNSt7__cxx1112basic_stringIcSt11char_traitsIcESaIcEED1Ev(ptr noundef nonnull align 8 dereferenceable(32) %ref.tmp389) #3
  call void @_ZN7svectorIjjED2Ev(ptr noundef nonnull align 8 dereferenceable(8) %latch_varp_ids) #3
  call void @_ZN7obj_refI4expr11ast_managerED2Ev(ptr noundef nonnull align 8 dereferenceable(16) %aig_expr) #3
  call void @_ZN7aig_refD1Ev(ptr noundef nonnull align 8 dereferenceable(16) %aig) #3
  call void @_ZN12substitutionD2Ev(ptr noundef nonnull align 8 dereferenceable(124) %subst) #3
  call void @_ZN10ref_vectorI4expr11ast_managerED2Ev(ptr noundef nonnull align 8 dereferenceable(16) %exprs) #3
  call void @_ZN10ref_vectorI3var11ast_managerED2Ev(ptr noundef nonnull align 8 dereferenceable(16) %input_vars) #3
  call void @_ZN10ref_vectorI4expr11ast_managerED2Ev(ptr noundef nonnull align 8 dereferenceable(16) %output_preds) #3
  call void @_ZN10ref_vectorI4expr11ast_managerED2Ev(ptr noundef nonnull align 8 dereferenceable(16) %transition_function) #3
  ret void

lpad391:                                          ; preds = %invoke.cont390
  %156 = landingpad { ptr, i32 }
          cleanup
  %157 = extractvalue { ptr, i32 } %156, 0
  store ptr %157, ptr %exn.slot, align 8
  %158 = extractvalue { ptr, i32 } %156, 1
  store i32 %158, ptr %ehselector.slot, align 4
  call void @_ZNSt7__cxx1112basic_stringIcSt11char_traitsIcESaIcEED1Ev(ptr noundef nonnull align 8 dereferenceable(32) %ref.tmp389) #3
  br label %ehcleanup395

ehcleanup395:                                     ; preds = %lpad391, %ehcleanup319, %lpad233
  call void @_ZN7svectorIjjED2Ev(ptr noundef nonnull align 8 dereferenceable(8) %latch_varp_ids) #3
  br label %ehcleanup396

ehcleanup396:                                     ; preds = %ehcleanup395, %lpad181
  call void @_ZN7obj_refI4expr11ast_managerED2Ev(ptr noundef nonnull align 8 dereferenceable(16) %aig_expr) #3
  br label %ehcleanup397

ehcleanup397:                                     ; preds = %ehcleanup396, %lpad178
  call void @_ZN7aig_refD1Ev(ptr noundef nonnull align 8 dereferenceable(16) %aig) #3
  br label %ehcleanup398

ehcleanup398:                                     ; preds = %ehcleanup397, %lpad94, %cleanup.done61, %cleanup.done, %lpad13
  call void @_ZN12substitutionD2Ev(ptr noundef nonnull align 8 dereferenceable(124) %subst) #3
  br label %ehcleanup399

ehcleanup399:                                     ; preds = %ehcleanup398, %lpad11
  call void @_ZN10ref_vectorI4expr11ast_managerED2Ev(ptr noundef nonnull align 8 dereferenceable(16) %exprs) #3
  br label %ehcleanup400

ehcleanup400:                                     ; preds = %ehcleanup399, %lpad6
  call void @_ZN10ref_vectorI3var11ast_managerED2Ev(ptr noundef nonnull align 8 dereferenceable(16) %input_vars) #3
  br label %ehcleanup401

ehcleanup401:                                     ; preds = %ehcleanup400, %lpad4
  call void @_ZN10ref_vectorI4expr11ast_managerED2Ev(ptr noundef nonnull align 8 dereferenceable(16) %output_preds) #3
  br label %ehcleanup402

ehcleanup402:                                     ; preds = %ehcleanup401, %lpad
  call void @_ZN10ref_vectorI4expr11ast_managerED2Ev(ptr noundef nonnull align 8 dereferenceable(16) %transition_function) #3
  br label %eh.resume

eh.resume:                                        ; preds = %ehcleanup402
  %exn = load ptr, ptr %exn.slot, align 8
  %sel = load i32, ptr %ehselector.slot, align 4
  %lpad.val = insertvalue { ptr, i32 } poison, ptr %exn, 0
  %lpad.val403 = insertvalue { ptr, i32 } %lpad.val, i32 %sel, 1
  resume { ptr, i32 } %lpad.val403

unreachable:                                      ; preds = %invoke.cont54, %invoke.cont42
  unreachable
}

; Function Attrs: mustprogress uwtable
define linkonce_odr hidden void @_ZN10ref_vectorI3var11ast_managerEC2ERS1_(ptr noundef nonnull align 8 dereferenceable(16) %this, ptr noundef nonnull align 8 dereferenceable(976) %m) unnamed_addr #4 comdat align 2 {
entry:
  %this.addr = alloca ptr, align 8
  %m.addr = alloca ptr, align 8
  %ref.tmp = alloca %class.ref_manager_wrapper.193, align 8
  store ptr %this, ptr %this.addr, align 8
  store ptr %m, ptr %m.addr, align 8
  %this1 = load ptr, ptr %this.addr, align 8
  %0 = load ptr, ptr %m.addr, align 8
  call void @_ZN19ref_manager_wrapperI3var11ast_managerEC2ERS1_(ptr noundef nonnull align 8 dereferenceable(8) %ref.tmp, ptr noundef nonnull align 8 dereferenceable(976) %0)
  call void @_ZN15ref_vector_coreI3var19ref_manager_wrapperIS0_11ast_managerEEC2ERKS3_(ptr noundef nonnull align 8 dereferenceable(16) %this1, ptr noundef nonnull align 8 dereferenceable(8) %ref.tmp)
  ret void
}

; Function Attrs: mustprogress nounwind uwtable
define linkonce_odr hidden noundef nonnull align 8 dereferenceable(224) ptr @_ZN7datalog12rule_manager11get_counterEv(ptr noundef nonnull align 8 dereferenceable(1368) %this) #5 comdat align 2 {
entry:
  %this.addr = alloca ptr, align 8
  store ptr %this, ptr %this.addr, align 8
  %this1 = load ptr, ptr %this.addr, align 8
  %m_counter = getelementptr inbounds %"class.datalog::rule_manager", ptr %this1, i32 0, i32 2
  ret ptr %m_counter
}

declare void @_ZN12substitutionC1ER11ast_manager(ptr noundef nonnull align 8 dereferenceable(124), ptr noundef nonnull align 8 dereferenceable(976)) unnamed_addr #1

; Function Attrs: mustprogress nounwind uwtable
define linkonce_odr hidden noundef nonnull align 8 dereferenceable(8) ptr @_ZNK7obj_mapI9func_declP10ptr_vectorIN7datalog4ruleEEE8key_data9get_valueEv(ptr noundef nonnull align 8 dereferenceable(16) %this) #5 comdat align 2 {
entry:
  %this.addr = alloca ptr, align 8
  store ptr %this, ptr %this.addr, align 8
  %this1 = load ptr, ptr %this.addr, align 8
  %m_value = getelementptr inbounds %"struct.obj_map<func_decl, ptr_vector<datalog::rule> *>::key_data", ptr %this1, i32 0, i32 1
  ret ptr %m_value
}

; Function Attrs: mustprogress nounwind uwtable
define linkonce_odr hidden noundef ptr @_ZN6vectorIPN7datalog4ruleELb0EjE5beginEv(ptr noundef nonnull align 8 dereferenceable(8) %this) #5 comdat align 2 {
entry:
  %this.addr = alloca ptr, align 8
  store ptr %this, ptr %this.addr, align 8
  %this1 = load ptr, ptr %this.addr, align 8
  %m_data = getelementptr inbounds %class.vector.13, ptr %this1, i32 0, i32 0
  %0 = load ptr, ptr %m_data, align 8
  ret ptr %0
}

; Function Attrs: mustprogress uwtable
define linkonce_odr hidden noundef ptr @_ZN6vectorIPN7datalog4ruleELb0EjE3endEv(ptr noundef nonnull align 8 dereferenceable(8) %this) #4 comdat align 2 {
entry:
  %this.addr = alloca ptr, align 8
  store ptr %this, ptr %this.addr, align 8
  %this1 = load ptr, ptr %this.addr, align 8
  %m_data = getelementptr inbounds %class.vector.13, ptr %this1, i32 0, i32 0
  %0 = load ptr, ptr %m_data, align 8
  %call = call noundef i32 @_ZNK6vectorIPN7datalog4ruleELb0EjE4sizeEv(ptr noundef nonnull align 8 dereferenceable(8) %this1)
  %idx.ext = zext i32 %call to i64
  %add.ptr = getelementptr inbounds ptr, ptr %0, i64 %idx.ext
  ret ptr %add.ptr
}

; Function Attrs: mustprogress nounwind uwtable
define linkonce_odr hidden noundef i32 @_ZNK7datalog4rule22get_positive_tail_sizeEv(ptr noundef nonnull align 8 dereferenceable(80) %this) #5 comdat align 2 {
entry:
  %this.addr = alloca ptr, align 8
  store ptr %this, ptr %this.addr, align 8
  %this1 = load ptr, ptr %this.addr, align 8
  %m_positive_cnt = getelementptr inbounds %"class.datalog::rule", ptr %this1, i32 0, i32 5
  %0 = load i32, ptr %m_positive_cnt, align 8
  ret i32 %0
}

declare ptr @__cxa_allocate_exception(i64)

; Function Attrs: nounwind
declare void @_ZNSaIcEC1Ev(ptr noundef nonnull align 1 dereferenceable(1)) unnamed_addr #2

; Function Attrs: mustprogress uwtable
define linkonce_odr hidden void @_ZNSt7__cxx1112basic_stringIcSt11char_traitsIcESaIcEEC2IS3_EEPKcRKS3_(ptr noundef nonnull align 8 dereferenceable(32) %this, ptr noundef %__s, ptr noundef nonnull align 1 dereferenceable(1) %__a) unnamed_addr #4 comdat align 2 personality ptr @__gxx_personality_v0 {
entry:
  %this.addr = alloca ptr, align 8
  %__s.addr = alloca ptr, align 8
  %__a.addr = alloca ptr, align 8
  %exn.slot = alloca ptr, align 8
  %ehselector.slot = alloca i32, align 4
  %__end = alloca ptr, align 8
  store ptr %this, ptr %this.addr, align 8
  store ptr %__s, ptr %__s.addr, align 8
  store ptr %__a, ptr %__a.addr, align 8
  %this1 = load ptr, ptr %this.addr, align 8
  %_M_dataplus = getelementptr inbounds %"class.std::__cxx11::basic_string", ptr %this1, i32 0, i32 0
  %call = call noundef ptr @_ZNSt7__cxx1112basic_stringIcSt11char_traitsIcESaIcEE13_M_local_dataEv(ptr noundef nonnull align 8 dereferenceable(32) %this1)
  %0 = load ptr, ptr %__a.addr, align 8
  call void @_ZNSt7__cxx1112basic_stringIcSt11char_traitsIcESaIcEE12_Alloc_hiderC1EPcRKS3_(ptr noundef nonnull align 8 dereferenceable(8) %_M_dataplus, ptr noundef %call, ptr noundef nonnull align 1 dereferenceable(1) %0)
  %1 = load ptr, ptr %__s.addr, align 8
  %cmp = icmp eq ptr %1, null
  br i1 %cmp, label %if.then, label %if.end

if.then:                                          ; preds = %entry
  invoke void @_ZSt19__throw_logic_errorPKc(ptr noundef @.str.11) #16
          to label %invoke.cont unwind label %lpad

invoke.cont:                                      ; preds = %if.then
  unreachable

lpad:                                             ; preds = %invoke.cont2, %if.end, %if.then
  %2 = landingpad { ptr, i32 }
          cleanup
  %3 = extractvalue { ptr, i32 } %2, 0
  store ptr %3, ptr %exn.slot, align 8
  %4 = extractvalue { ptr, i32 } %2, 1
  store i32 %4, ptr %ehselector.slot, align 4
  call void @_ZNSt7__cxx1112basic_stringIcSt11char_traitsIcESaIcEE12_Alloc_hiderD2Ev(ptr noundef nonnull align 8 dereferenceable(8) %_M_dataplus) #3
  br label %eh.resume

if.end:                                           ; preds = %entry
  %5 = load ptr, ptr %__s.addr, align 8
  %6 = load ptr, ptr %__s.addr, align 8
  %call3 = invoke noundef i64 @_ZNSt11char_traitsIcE6lengthEPKc(ptr noundef %6)
          to label %invoke.cont2 unwind label %lpad

invoke.cont2:                                     ; preds = %if.end
  %add.ptr = getelementptr inbounds i8, ptr %5, i64 %call3
  store ptr %add.ptr, ptr %__end, align 8
  %7 = load ptr, ptr %__s.addr, align 8
  %8 = load ptr, ptr %__end, align 8
  invoke void @_ZNSt7__cxx1112basic_stringIcSt11char_traitsIcESaIcEE12_M_constructIPKcEEvT_S8_St20forward_iterator_tag(ptr noundef nonnull align 8 dereferenceable(32) %this1, ptr noundef %7, ptr noundef %8)
          to label %invoke.cont4 unwind label %lpad

invoke.cont4:                                     ; preds = %invoke.cont2
  ret void

eh.resume:                                        ; preds = %lpad
  %exn = load ptr, ptr %exn.slot, align 8
  %sel = load i32, ptr %ehselector.slot, align 4
  %lpad.val = insertvalue { ptr, i32 } poison, ptr %exn, 0
  %lpad.val5 = insertvalue { ptr, i32 } %lpad.val, i32 %sel, 1
  resume { ptr, i32 } %lpad.val5
}

; Function Attrs: mustprogress nounwind uwtable
define linkonce_odr hidden void @_ZN17default_exceptionC2EONSt7__cxx1112basic_stringIcSt11char_traitsIcESaIcEEE(ptr noundef nonnull align 8 dereferenceable(40) %this, ptr noundef nonnull align 8 dereferenceable(32) %msg) unnamed_addr #5 comdat align 2 {
entry:
  %this.addr = alloca ptr, align 8
  %msg.addr = alloca ptr, align 8
  store ptr %this, ptr %this.addr, align 8
  store ptr %msg, ptr %msg.addr, align 8
  %this1 = load ptr, ptr %this.addr, align 8
  call void @_ZN12z3_exceptionC2Ev(ptr noundef nonnull align 8 dereferenceable(8) %this1) #3
  store ptr getelementptr inbounds ({ [6 x ptr] }, ptr @_ZTV17default_exception, i32 0, inrange i32 0, i32 2), ptr %this1, align 8
  %m_msg = getelementptr inbounds %class.default_exception, ptr %this1, i32 0, i32 1
  %0 = load ptr, ptr %msg.addr, align 8
  call void @_ZNSt7__cxx1112basic_stringIcSt11char_traitsIcESaIcEEC1EOS4_(ptr noundef nonnull align 8 dereferenceable(32) %m_msg, ptr noundef nonnull align 8 dereferenceable(32) %0) #3
  ret void
}

; Function Attrs: mustprogress nounwind uwtable
define linkonce_odr hidden void @_ZN17default_exceptionD2Ev(ptr noundef nonnull align 8 dereferenceable(40) %this) unnamed_addr #5 comdat align 2 {
entry:
  %this.addr = alloca ptr, align 8
  store ptr %this, ptr %this.addr, align 8
  %this1 = load ptr, ptr %this.addr, align 8
  store ptr getelementptr inbounds ({ [6 x ptr] }, ptr @_ZTV17default_exception, i32 0, inrange i32 0, i32 2), ptr %this1, align 8
  %m_msg = getelementptr inbounds %class.default_exception, ptr %this1, i32 0, i32 1
  call void @_ZNSt7__cxx1112basic_stringIcSt11char_traitsIcESaIcEED1Ev(ptr noundef nonnull align 8 dereferenceable(32) %m_msg) #3
  call void @_ZN12z3_exceptionD2Ev(ptr noundef nonnull align 8 dereferenceable(8) %this1) #3
  ret void
}

declare void @__cxa_throw(ptr, ptr, ptr)

; Function Attrs: nounwind
declare void @_ZNSt7__cxx1112basic_stringIcSt11char_traitsIcESaIcEED1Ev(ptr noundef nonnull align 8 dereferenceable(32)) unnamed_addr #2

; Function Attrs: nounwind
declare void @_ZNSaIcED1Ev(ptr noundef nonnull align 1 dereferenceable(1)) unnamed_addr #2

declare void @__cxa_free_exception(ptr)

; Function Attrs: mustprogress nounwind uwtable
define linkonce_odr hidden noundef i32 @_ZNK7datalog4rule27get_uninterpreted_tail_sizeEv(ptr noundef nonnull align 8 dereferenceable(80) %this) #5 comdat align 2 {
entry:
  %this.addr = alloca ptr, align 8
  store ptr %this, ptr %this.addr, align 8
  %this1 = load ptr, ptr %this.addr, align 8
  %m_uninterp_cnt = getelementptr inbounds %"class.datalog::rule", ptr %this1, i32 0, i32 6
  %0 = load i32, ptr %m_uninterp_cnt, align 4
  ret i32 %0
}

; Function Attrs: mustprogress uwtable
define linkonce_odr hidden void @_ZN15ref_vector_coreI4expr19ref_manager_wrapperIS0_11ast_managerEE5resetEv(ptr noundef nonnull align 8 dereferenceable(16) %this) #4 comdat align 2 {
entry:
  %this.addr = alloca ptr, align 8
  store ptr %this, ptr %this.addr, align 8
  %this1 = load ptr, ptr %this.addr, align 8
  %m_nodes = getelementptr inbounds %class.ref_vector_core, ptr %this1, i32 0, i32 1
  %call = call noundef ptr @_ZNK6vectorIP4exprLb0EjE4dataEv(ptr noundef nonnull align 8 dereferenceable(8) %m_nodes)
  %m_nodes2 = getelementptr inbounds %class.ref_vector_core, ptr %this1, i32 0, i32 1
  %call3 = call noundef ptr @_ZNK6vectorIP4exprLb0EjE4dataEv(ptr noundef nonnull align 8 dereferenceable(8) %m_nodes2)
  %m_nodes4 = getelementptr inbounds %class.ref_vector_core, ptr %this1, i32 0, i32 1
  %call5 = call noundef i32 @_ZNK6vectorIP4exprLb0EjE4sizeEv(ptr noundef nonnull align 8 dereferenceable(8) %m_nodes4)
  %idx.ext = zext i32 %call5 to i64
  %add.ptr = getelementptr inbounds ptr, ptr %call3, i64 %idx.ext
  call void @_ZN15ref_vector_coreI4expr19ref_manager_wrapperIS0_11ast_managerEE13dec_range_refEPKPS0_S7_(ptr noundef nonnull align 8 dereferenceable(16) %this1, ptr noundef %call, ptr noundef %add.ptr)
  %m_nodes6 = getelementptr inbounds %class.ref_vector_core, ptr %this1, i32 0, i32 1
  call void @_ZN6vectorIP4exprLb0EjE5resetEv(ptr noundef nonnull align 8 dereferenceable(8) %m_nodes6)
  ret void
}

; Function Attrs: mustprogress nounwind uwtable
define linkonce_odr hidden noundef ptr @_ZNK7datalog4rule8get_tailEj(ptr noundef nonnull align 8 dereferenceable(80) %this, i32 noundef %i) #5 comdat align 2 {
entry:
  %this.addr = alloca ptr, align 8
  %i.addr = alloca i32, align 4
  store ptr %this, ptr %this.addr, align 8
  store i32 %i, ptr %i.addr, align 4
  %this1 = load ptr, ptr %this.addr, align 8
  %m_tail = getelementptr inbounds %"class.datalog::rule", ptr %this1, i32 0, i32 8
  %0 = load i32, ptr %i.addr, align 4
  %idxprom = zext i32 %0 to i64
  %arrayidx = getelementptr inbounds [0 x ptr], ptr %m_tail, i64 0, i64 %idxprom
  %1 = load ptr, ptr %arrayidx, align 8
  %2 = ptrtoint ptr %1 to i64
  %and = and i64 %2, -8
  %3 = inttoptr i64 %and to ptr
  ret ptr %3
}

; Function Attrs: mustprogress nounwind uwtable
define linkonce_odr hidden noundef ptr @_ZNK3app8get_declEv(ptr noundef nonnull align 8 dereferenceable(32) %this) #5 comdat align 2 {
entry:
  %this.addr = alloca ptr, align 8
  store ptr %this, ptr %this.addr, align 8
  %this1 = load ptr, ptr %this.addr, align 8
  %m_decl = getelementptr inbounds %class.app, ptr %this1, i32 0, i32 1
  %0 = load ptr, ptr %m_decl, align 8
  ret ptr %0
}

; Function Attrs: mustprogress nounwind uwtable
define linkonce_odr hidden noundef ptr @_ZNK7datalog4rule8get_headEv(ptr noundef nonnull align 8 dereferenceable(80) %this) #5 comdat align 2 {
entry:
  %this.addr = alloca ptr, align 8
  store ptr %this, ptr %this.addr, align 8
  %this1 = load ptr, ptr %this.addr, align 8
  %m_head = getelementptr inbounds %"class.datalog::rule", ptr %this1, i32 0, i32 1
  %0 = load ptr, ptr %m_head, align 8
  ret ptr %0
}

declare void @_ZN12substitution5resetEv(ptr noundef nonnull align 8 dereferenceable(124)) #1

; Function Attrs: mustprogress uwtable
define linkonce_odr hidden void @_ZN12substitution7reserveEjj(ptr noundef nonnull align 8 dereferenceable(124) %this, i32 noundef %num_offsets, i32 noundef %num_vars) #4 comdat align 2 {
entry:
  %this.addr = alloca ptr, align 8
  %num_offsets.addr = alloca i32, align 4
  %num_vars.addr = alloca i32, align 4
  store ptr %this, ptr %this.addr, align 8
  store i32 %num_offsets, ptr %num_offsets.addr, align 4
  store i32 %num_vars, ptr %num_vars.addr, align 4
  %this1 = load ptr, ptr %this.addr, align 8
  %m_subst = getelementptr inbounds %class.substitution, ptr %this1, i32 0, i32 1
  %0 = load i32, ptr %num_offsets.addr, align 4
  %1 = load i32, ptr %num_vars.addr, align 4
  call void @_ZN14var_offset_mapI11expr_offsetE7reserveEjj(ptr noundef nonnull align 8 dereferenceable(20) %m_subst, i32 noundef %0, i32 noundef %1)
  ret void
}

declare noundef i32 @_ZN7datalog12rule_counter16get_max_rule_varERKNS_4ruleE(ptr noundef nonnull align 8 dereferenceable(224), ptr noundef nonnull align 8 dereferenceable(80)) #1

; Function Attrs: mustprogress nounwind uwtable
define linkonce_odr hidden noundef i32 @_ZNK7datalog4rule13get_tail_sizeEv(ptr noundef nonnull align 8 dereferenceable(80) %this) #5 comdat align 2 {
entry:
  %this.addr = alloca ptr, align 8
  store ptr %this, ptr %this.addr, align 8
  %this1 = load ptr, ptr %this.addr, align 8
  %m_tail_size = getelementptr inbounds %"class.datalog::rule", ptr %this1, i32 0, i32 3
  %0 = load i32, ptr %m_tail_size, align 8
  ret i32 %0
}

; Function Attrs: mustprogress nounwind uwtable
define linkonce_odr hidden void @_ZN7obj_refI4expr11ast_managerEC2ERS1_(ptr noundef nonnull align 8 dereferenceable(16) %this, ptr noundef nonnull align 8 dereferenceable(976) %m) unnamed_addr #5 comdat align 2 {
entry:
  %this.addr = alloca ptr, align 8
  %m.addr = alloca ptr, align 8
  store ptr %this, ptr %this.addr, align 8
  store ptr %m, ptr %m.addr, align 8
  %this1 = load ptr, ptr %this.addr, align 8
  %m_obj = getelementptr inbounds %class.obj_ref, ptr %this1, i32 0, i32 0
  store ptr null, ptr %m_obj, align 8
  %m_manager = getelementptr inbounds %class.obj_ref, ptr %this1, i32 0, i32 1
  %0 = load ptr, ptr %m.addr, align 8
  store ptr %0, ptr %m_manager, align 8
  ret void
}

; Function Attrs: mustprogress uwtable
define linkonce_odr hidden void @_ZN12substitution5applyEP4exprR7obj_refIS0_11ast_managerE(ptr noundef nonnull align 8 dereferenceable(124) %this, ptr noundef %n, ptr noundef nonnull align 8 dereferenceable(16) %result) #4 comdat align 2 {
entry:
  %this.addr = alloca ptr, align 8
  %n.addr = alloca ptr, align 8
  %result.addr = alloca ptr, align 8
  %deltas = alloca [1 x i32], align 4
  %ref.tmp = alloca %class.expr_offset, align 8
  store ptr %this, ptr %this.addr, align 8
  store ptr %n, ptr %n.addr, align 8
  store ptr %result, ptr %result.addr, align 8
  %this1 = load ptr, ptr %this.addr, align 8
  call void @llvm.memset.p0.i64(ptr align 4 %deltas, i8 0, i64 4, i1 false)
  %arraydecay = getelementptr inbounds [1 x i32], ptr %deltas, i64 0, i64 0
  %0 = load ptr, ptr %n.addr, align 8
  call void @_ZN11expr_offsetC2EP4exprj(ptr noundef nonnull align 8 dereferenceable(12) %ref.tmp, ptr noundef %0, i32 noundef 0)
  %1 = load ptr, ptr %result.addr, align 8
  call void @_ZN12substitution5applyEjPKjRK11expr_offsetR7obj_refI4expr11ast_managerE(ptr noundef nonnull align 8 dereferenceable(124) %this1, i32 noundef 1, ptr noundef %arraydecay, ptr noundef nonnull align 8 dereferenceable(12) %ref.tmp, ptr noundef nonnull align 8 dereferenceable(16) %1)
  ret void
}

; Function Attrs: mustprogress nounwind uwtable
define linkonce_odr hidden noundef ptr @_ZNK7obj_refI4expr11ast_managerEcvPS0_Ev(ptr noundef nonnull align 8 dereferenceable(16) %this) #5 comdat align 2 {
entry:
  %this.addr = alloca ptr, align 8
  store ptr %this, ptr %this.addr, align 8
  %this1 = load ptr, ptr %this.addr, align 8
  %m_obj = getelementptr inbounds %class.obj_ref, ptr %this1, i32 0, i32 0
  %0 = load ptr, ptr %m_obj, align 8
  ret ptr %0
}

; Function Attrs: mustprogress nounwind uwtable
define linkonce_odr hidden void @_ZN7obj_refI4expr11ast_managerED2Ev(ptr noundef nonnull align 8 dereferenceable(16) %this) unnamed_addr #5 comdat align 2 personality ptr @__gxx_personality_v0 {
entry:
  %this.addr = alloca ptr, align 8
  store ptr %this, ptr %this.addr, align 8
  %this1 = load ptr, ptr %this.addr, align 8
  invoke void @_ZN7obj_refI4expr11ast_managerE7dec_refEv(ptr noundef nonnull align 8 dereferenceable(16) %this1)
          to label %invoke.cont unwind label %terminate.lpad

invoke.cont:                                      ; preds = %entry
  ret void

terminate.lpad:                                   ; preds = %entry
  %0 = landingpad { ptr, i32 }
          catch ptr null
  %1 = extractvalue { ptr, i32 } %0, 0
  call void @__clang_call_terminate(ptr %1) #17
  unreachable
}

; Function Attrs: mustprogress uwtable
define linkonce_odr hidden noundef ptr @_ZN11ast_manager6mk_andEjPKP4expr(ptr noundef nonnull align 8 dereferenceable(976) %this, i32 noundef %num_args, ptr noundef %args) #4 comdat align 2 {
entry:
  %this.addr = alloca ptr, align 8
  %num_args.addr = alloca i32, align 4
  %args.addr = alloca ptr, align 8
  store ptr %this, ptr %this.addr, align 8
  store i32 %num_args, ptr %num_args.addr, align 4
  store ptr %args, ptr %args.addr, align 8
  %this1 = load ptr, ptr %this.addr, align 8
  %0 = load i32, ptr %num_args.addr, align 4
  %1 = load ptr, ptr %args.addr, align 8
  %call = call noundef ptr @_ZN11ast_manager6mk_appEiijPKP4expr(ptr noundef nonnull align 8 dereferenceable(976) %this1, i32 noundef 0, i32 noundef 5, i32 noundef %0, ptr noundef %1)
  ret ptr %call
}

; Function Attrs: mustprogress nounwind uwtable
define linkonce_odr hidden noundef ptr @_ZN15ref_vector_coreI4expr19ref_manager_wrapperIS0_11ast_managerEE4dataEv(ptr noundef nonnull align 8 dereferenceable(16) %this) #5 comdat align 2 {
entry:
  %this.addr = alloca ptr, align 8
  store ptr %this, ptr %this.addr, align 8
  %this1 = load ptr, ptr %this.addr, align 8
  %m_nodes = getelementptr inbounds %class.ref_vector_core, ptr %this1, i32 0, i32 1
  %call = call noundef ptr @_ZNK6vectorIP4exprLb0EjE4dataEv(ptr noundef nonnull align 8 dereferenceable(8) %m_nodes)
  ret ptr %call
}

; Function Attrs: mustprogress uwtable
define linkonce_odr hidden noundef i32 @_ZNK15ref_vector_coreI3app19ref_manager_wrapperIS0_11ast_managerEE4sizeEv(ptr noundef nonnull align 8 dereferenceable(16) %this) #4 comdat align 2 {
entry:
  %this.addr = alloca ptr, align 8
  store ptr %this, ptr %this.addr, align 8
  %this1 = load ptr, ptr %this.addr, align 8
  %m_nodes = getelementptr inbounds %class.ref_vector_core.49, ptr %this1, i32 0, i32 1
  %call = call noundef i32 @_ZNK6vectorIP3appLb0EjE4sizeEv(ptr noundef nonnull align 8 dereferenceable(8) %m_nodes)
  ret i32 %call
}

; Function Attrs: mustprogress uwtable
define linkonce_odr hidden noundef ptr @_ZNK7datalog13relation_factixEj(ptr noundef nonnull align 8 dereferenceable(16) %this, i32 noundef %i) #4 comdat align 2 {
entry:
  %this.addr = alloca ptr, align 8
  %i.addr = alloca i32, align 4
  store ptr %this, ptr %this.addr, align 8
  store i32 %i, ptr %i.addr, align 4
  %this1 = load ptr, ptr %this.addr, align 8
  %0 = load i32, ptr %i.addr, align 4
  %call = call noundef ptr @_ZNK15ref_vector_coreI3app19ref_manager_wrapperIS0_11ast_managerEE3getEj(ptr noundef nonnull align 8 dereferenceable(16) %this1, i32 noundef %0)
  ret ptr %call
}

; Function Attrs: mustprogress uwtable
define linkonce_odr hidden noundef ptr @_ZN11ast_manager5mk_orEjPKP4expr(ptr noundef nonnull align 8 dereferenceable(976) %this, i32 noundef %num_args, ptr noundef %args) #4 comdat align 2 {
entry:
  %this.addr = alloca ptr, align 8
  %num_args.addr = alloca i32, align 4
  %args.addr = alloca ptr, align 8
  store ptr %this, ptr %this.addr, align 8
  store i32 %num_args, ptr %num_args.addr, align 4
  store ptr %args, ptr %args.addr, align 8
  %this1 = load ptr, ptr %this.addr, align 8
  %0 = load i32, ptr %num_args.addr, align 4
  %1 = load ptr, ptr %args.addr, align 8
  %call = call noundef ptr @_ZN11ast_manager6mk_appEiijPKP4expr(ptr noundef nonnull align 8 dereferenceable(976) %this1, i32 noundef 0, i32 noundef 6, i32 noundef %0, ptr noundef %1)
  ret ptr %call
}

declare void @_ZN11aig_manager6mk_aigEP4expr(ptr sret(%class.aig_ref) align 8, ptr noundef nonnull align 8 dereferenceable(8), ptr noundef) #1

declare void @_ZN11aig_manager10to_formulaERK7aig_refR7obj_refI4expr11ast_managerE(ptr noundef nonnull align 8 dereferenceable(8), ptr noundef nonnull align 8 dereferenceable(16), ptr noundef nonnull align 8 dereferenceable(16)) #1

; Function Attrs: mustprogress uwtable
define hidden noundef i32 @_ZN7datalog12aig_exporter6mk_varEPK4expr(ptr noundef nonnull align 8 dereferenceable(624) %this, ptr noundef %e) #4 align 2 {
entry:
  %this.addr = alloca ptr, align 8
  %e.addr = alloca ptr, align 8
  %id = alloca i32, align 4
  store ptr %this, ptr %this.addr, align 8
  store ptr %e, ptr %e.addr, align 8
  %this1 = load ptr, ptr %this.addr, align 8
  %call = call noundef i32 @_ZN7datalog12aig_exporter10mk_expr_idEv(ptr noundef nonnull align 8 dereferenceable(624) %this1)
  store i32 %call, ptr %id, align 4
  %m_aig_expr_id_map = getelementptr inbounds %"class.datalog::aig_exporter", ptr %this1, i32 0, i32 8
  %0 = load ptr, ptr %e.addr, align 8
  call void @_ZN7obj_mapIK4exprjE6insertEPS1_RKj(ptr noundef nonnull align 8 dereferenceable(24) %m_aig_expr_id_map, ptr noundef %0, ptr noundef nonnull align 4 dereferenceable(4) %id)
  %1 = load i32, ptr %id, align 4
  ret i32 %1
}

; Function Attrs: mustprogress uwtable
define hidden noundef i32 @_ZN7datalog12aig_exporter12mk_input_varEPK4expr(ptr noundef nonnull align 8 dereferenceable(624) %this, ptr noundef %e) #4 align 2 {
entry:
  %this.addr = alloca ptr, align 8
  %e.addr = alloca ptr, align 8
  %id = alloca i32, align 4
  store ptr %this, ptr %this.addr, align 8
  store ptr %e, ptr %e.addr, align 8
  %this1 = load ptr, ptr %this.addr, align 8
  %call = call noundef i32 @_ZN7datalog12aig_exporter10mk_expr_idEv(ptr noundef nonnull align 8 dereferenceable(624) %this1)
  store i32 %call, ptr %id, align 4
  %m_input_vars = getelementptr inbounds %"class.datalog::aig_exporter", ptr %this1, i32 0, i32 16
  %call2 = call noundef nonnull align 8 dereferenceable(8) ptr @_ZN6vectorIjLb0EjE9push_backERKj(ptr noundef nonnull align 8 dereferenceable(8) %m_input_vars, ptr noundef nonnull align 4 dereferenceable(4) %id)
  %0 = load ptr, ptr %e.addr, align 8
  %tobool = icmp ne ptr %0, null
  br i1 %tobool, label %if.then, label %if.end

if.then:                                          ; preds = %entry
  %m_aig_expr_id_map = getelementptr inbounds %"class.datalog::aig_exporter", ptr %this1, i32 0, i32 8
  %1 = load ptr, ptr %e.addr, align 8
  call void @_ZN7obj_mapIK4exprjE6insertEPS1_RKj(ptr noundef nonnull align 8 dereferenceable(24) %m_aig_expr_id_map, ptr noundef %1, ptr noundef nonnull align 4 dereferenceable(4) %id)
  br label %if.end

if.end:                                           ; preds = %if.then, %entry
  %2 = load i32, ptr %id, align 4
  ret i32 %2
}

; Function Attrs: mustprogress uwtable
define hidden noundef i32 @_ZN7datalog12aig_exporter11expr_to_aigEPK4expr(ptr noundef nonnull align 8 dereferenceable(624) %this, ptr noundef %e) #4 align 2 {
entry:
  %retval = alloca i32, align 4
  %this.addr = alloca ptr, align 8
  %e.addr = alloca ptr, align 8
  %id = alloca i32, align 4
  %a = alloca ptr, align 8
  %i = alloca i32, align 4
  store ptr %this, ptr %this.addr, align 8
  store ptr %e, ptr %e.addr, align 8
  %this1 = load ptr, ptr %this.addr, align 8
  %m_aig_expr_id_map = getelementptr inbounds %"class.datalog::aig_exporter", ptr %this1, i32 0, i32 8
  %0 = load ptr, ptr %e.addr, align 8
  %call = call noundef zeroext i1 @_ZNK7obj_mapIK4exprjE4findEPS1_Rj(ptr noundef nonnull align 8 dereferenceable(24) %m_aig_expr_id_map, ptr noundef %0, ptr noundef nonnull align 4 dereferenceable(4) %id)
  br i1 %call, label %if.then, label %if.end

if.then:                                          ; preds = %entry
  %1 = load i32, ptr %id, align 4
  store i32 %1, ptr %retval, align 4
  br label %return

if.end:                                           ; preds = %entry
  %2 = load ptr, ptr %e.addr, align 8
  %call2 = call noundef zeroext i1 @_Z17is_uninterp_constPK4expr(ptr noundef %2)
  br i1 %call2, label %if.then3, label %if.end5

if.then3:                                         ; preds = %if.end
  %3 = load ptr, ptr %e.addr, align 8
  %call4 = call noundef i32 @_ZN7datalog12aig_exporter7get_varEPK4expr(ptr noundef nonnull align 8 dereferenceable(624) %this1, ptr noundef %3)
  store i32 %call4, ptr %retval, align 4
  br label %return

if.end5:                                          ; preds = %if.end
  %4 = load ptr, ptr %e.addr, align 8
  %call6 = call noundef i32 @_ZNK3ast8get_kindEv(ptr noundef nonnull align 4 dereferenceable(16) %4)
  switch i32 %call6, label %sw.default [
    i32 0, label %sw.bb
    i32 1, label %sw.bb23
  ]

sw.bb:                                            ; preds = %if.end5
  %5 = load ptr, ptr %e.addr, align 8
  %call7 = call noundef ptr @_Z6to_appPK3ast(ptr noundef %5)
  store ptr %call7, ptr %a, align 8
  %6 = load ptr, ptr %a, align 8
  %call8 = call noundef i32 @_ZNK3app13get_decl_kindEv(ptr noundef nonnull align 8 dereferenceable(32) %6)
  switch i32 %call8, label %sw.epilog [
    i32 6, label %sw.bb9
    i32 8, label %sw.bb17
    i32 1, label %sw.bb21
    i32 0, label %sw.bb22
  ]

sw.bb9:                                           ; preds = %sw.bb
  %7 = load ptr, ptr %a, align 8
  %call10 = call noundef ptr @_ZNK3app7get_argEj(ptr noundef nonnull align 8 dereferenceable(32) %7, i32 noundef 0)
  %call11 = call noundef i32 @_ZN7datalog12aig_exporter11expr_to_aigEPK4expr(ptr noundef nonnull align 8 dereferenceable(624) %this1, ptr noundef %call10)
  store i32 %call11, ptr %id, align 4
  store i32 1, ptr %i, align 4
  br label %for.cond

for.cond:                                         ; preds = %for.inc, %sw.bb9
  %8 = load i32, ptr %i, align 4
  %9 = load ptr, ptr %a, align 8
  %call12 = call noundef i32 @_ZNK3app12get_num_argsEv(ptr noundef nonnull align 8 dereferenceable(32) %9)
  %cmp = icmp ult i32 %8, %call12
  br i1 %cmp, label %for.body, label %for.end

for.body:                                         ; preds = %for.cond
  %10 = load i32, ptr %id, align 4
  %11 = load ptr, ptr %a, align 8
  %12 = load i32, ptr %i, align 4
  %call13 = call noundef ptr @_ZNK3app7get_argEj(ptr noundef nonnull align 8 dereferenceable(32) %11, i32 noundef %12)
  %call14 = call noundef i32 @_ZN7datalog12aig_exporter11expr_to_aigEPK4expr(ptr noundef nonnull align 8 dereferenceable(624) %this1, ptr noundef %call13)
  %call15 = call noundef i32 @_ZN7datalog12aig_exporter5mk_orEjj(ptr noundef nonnull align 8 dereferenceable(624) %this1, i32 noundef %10, i32 noundef %call14)
  store i32 %call15, ptr %id, align 4
  br label %for.inc

for.inc:                                          ; preds = %for.body
  %13 = load i32, ptr %i, align 4
  %inc = add i32 %13, 1
  store i32 %inc, ptr %i, align 4
  br label %for.cond, !llvm.loop !22

for.end:                                          ; preds = %for.cond
  %m_aig_expr_id_map16 = getelementptr inbounds %"class.datalog::aig_exporter", ptr %this1, i32 0, i32 8
  %14 = load ptr, ptr %e.addr, align 8
  call void @_ZN7obj_mapIK4exprjE6insertEPS1_RKj(ptr noundef nonnull align 8 dereferenceable(24) %m_aig_expr_id_map16, ptr noundef %14, ptr noundef nonnull align 4 dereferenceable(4) %id)
  %15 = load i32, ptr %id, align 4
  store i32 %15, ptr %retval, align 4
  br label %return

sw.bb17:                                          ; preds = %sw.bb
  %16 = load ptr, ptr %a, align 8
  %call18 = call noundef ptr @_ZNK3app7get_argEj(ptr noundef nonnull align 8 dereferenceable(32) %16, i32 noundef 0)
  %call19 = call noundef i32 @_ZN7datalog12aig_exporter11expr_to_aigEPK4expr(ptr noundef nonnull align 8 dereferenceable(624) %this1, ptr noundef %call18)
  %call20 = call noundef i32 @_ZNK7datalog12aig_exporter3negEj(ptr noundef nonnull align 8 dereferenceable(624) %this1, i32 noundef %call19)
  store i32 %call20, ptr %retval, align 4
  br label %return

sw.bb21:                                          ; preds = %sw.bb
  store i32 0, ptr %retval, align 4
  br label %return

sw.bb22:                                          ; preds = %sw.bb
  store i32 1, ptr %retval, align 4
  br label %return

sw.epilog:                                        ; preds = %sw.bb
  br label %sw.epilog25

sw.bb23:                                          ; preds = %if.end5
  %17 = load ptr, ptr %e.addr, align 8
  %call24 = call noundef i32 @_ZN7datalog12aig_exporter7get_varEPK4expr(ptr noundef nonnull align 8 dereferenceable(624) %this1, ptr noundef %17)
  store i32 %call24, ptr %retval, align 4
  br label %return

sw.default:                                       ; preds = %if.end5
  call void @_Z26notify_assertion_violationPKciS0_(ptr noundef @.str.8, i32 noundef 267, ptr noundef @.str.9)
  call void @exit(i32 noundef 114) #17
  unreachable

sw.epilog25:                                      ; preds = %sw.epilog
  call void @_Z26notify_assertion_violationPKciS0_(ptr noundef @.str.8, i32 noundef 270, ptr noundef @.str.9)
  call void @exit(i32 noundef 114) #17
  unreachable

return:                                           ; preds = %sw.bb23, %sw.bb22, %sw.bb21, %sw.bb17, %for.end, %if.then3, %if.then
  %18 = load i32, ptr %retval, align 4
  ret i32 %18
}

; Function Attrs: mustprogress uwtable
define hidden noundef i32 @_ZN7datalog12aig_exporter6mk_andEjj(ptr noundef nonnull align 8 dereferenceable(624) %this, i32 noundef %id1, i32 noundef %id2) #4 align 2 {
entry:
  %retval = alloca i32, align 4
  %this.addr = alloca ptr, align 8
  %id1.addr = alloca i32, align 4
  %id2.addr = alloca i32, align 4
  %key = alloca %"struct.std::pair.196", align 4
  %I = alloca %"struct.std::_Rb_tree_const_iterator.198", align 8
  %ref.tmp = alloca %"struct.std::_Rb_tree_iterator", align 8
  %ref.tmp2 = alloca %"struct.std::_Rb_tree_const_iterator.198", align 8
  %ref.tmp3 = alloca %"struct.std::_Rb_tree_iterator", align 8
  %id = alloca i32, align 4
  store ptr %this, ptr %this.addr, align 8
  store i32 %id1, ptr %id1.addr, align 4
  store i32 %id2, ptr %id2.addr, align 4
  %this1 = load ptr, ptr %this.addr, align 8
  %0 = load i32, ptr %id1.addr, align 4
  %1 = load i32, ptr %id2.addr, align 4
  %cmp = icmp ugt i32 %0, %1
  br i1 %cmp, label %if.then, label %if.end

if.then:                                          ; preds = %entry
  call void @_ZSt4swapIjENSt9enable_ifIXsr6__and_ISt6__not_ISt15__is_tuple_likeIT_EESt21is_move_constructibleIS3_ESt18is_move_assignableIS3_EEE5valueEvE4typeERS3_SC_(ptr noundef nonnull align 4 dereferenceable(4) %id1.addr, ptr noundef nonnull align 4 dereferenceable(4) %id2.addr) #3
  br label %if.end

if.end:                                           ; preds = %if.then, %entry
  call void @_ZNSt4pairIjjEC2IRjS2_TnNSt9enable_ifIXaaclsr5_PCCPE22_MoveConstructiblePairIT_T0_EEclsr5_PCCPE30_ImplicitlyMoveConvertiblePairIS4_S5_EEEbE4typeELb1EEEOS4_OS5_(ptr noundef nonnull align 4 dereferenceable(8) %key, ptr noundef nonnull align 4 dereferenceable(4) %id1.addr, ptr noundef nonnull align 4 dereferenceable(4) %id2.addr)
  %m_and_gates_map = getelementptr inbounds %"class.datalog::aig_exporter", ptr %this1, i32 0, i32 10
  %call = call ptr @_ZNSt3mapISt4pairIjjEjSt4lessIS1_ESaIS0_IKS1_jEEE4findERS4_(ptr noundef nonnull align 8 dereferenceable(48) %m_and_gates_map, ptr noundef nonnull align 4 dereferenceable(8) %key)
  %coerce.dive = getelementptr inbounds %"struct.std::_Rb_tree_iterator", ptr %ref.tmp, i32 0, i32 0
  store ptr %call, ptr %coerce.dive, align 8
  call void @_ZNSt23_Rb_tree_const_iteratorISt4pairIKS0_IjjEjEEC2ERKSt17_Rb_tree_iteratorIS3_E(ptr noundef nonnull align 8 dereferenceable(8) %I, ptr noundef nonnull align 8 dereferenceable(8) %ref.tmp) #3
  %m_and_gates_map4 = getelementptr inbounds %"class.datalog::aig_exporter", ptr %this1, i32 0, i32 10
  %call5 = call ptr @_ZNSt3mapISt4pairIjjEjSt4lessIS1_ESaIS0_IKS1_jEEE3endEv(ptr noundef nonnull align 8 dereferenceable(48) %m_and_gates_map4) #3
  %coerce.dive6 = getelementptr inbounds %"struct.std::_Rb_tree_iterator", ptr %ref.tmp3, i32 0, i32 0
  store ptr %call5, ptr %coerce.dive6, align 8
  call void @_ZNSt23_Rb_tree_const_iteratorISt4pairIKS0_IjjEjEEC2ERKSt17_Rb_tree_iteratorIS3_E(ptr noundef nonnull align 8 dereferenceable(8) %ref.tmp2, ptr noundef nonnull align 8 dereferenceable(8) %ref.tmp3) #3
  %call7 = call noundef zeroext i1 @_ZStneRKSt23_Rb_tree_const_iteratorISt4pairIKS0_IjjEjEES6_(ptr noundef nonnull align 8 dereferenceable(8) %I, ptr noundef nonnull align 8 dereferenceable(8) %ref.tmp2) #3
  br i1 %call7, label %if.then8, label %if.end10

if.then8:                                         ; preds = %if.end
  %call9 = call noundef ptr @_ZNKSt23_Rb_tree_const_iteratorISt4pairIKS0_IjjEjEEptEv(ptr noundef nonnull align 8 dereferenceable(8) %I) #3
  %second = getelementptr inbounds %"struct.std::pair.199", ptr %call9, i32 0, i32 1
  %2 = load i32, ptr %second, align 4
  store i32 %2, ptr %retval, align 4
  br label %return

if.end10:                                         ; preds = %if.end
  %call11 = call noundef i32 @_ZN7datalog12aig_exporter10mk_expr_idEv(ptr noundef nonnull align 8 dereferenceable(624) %this1)
  store i32 %call11, ptr %id, align 4
  %m_buffer = getelementptr inbounds %"class.datalog::aig_exporter", ptr %this1, i32 0, i32 17
  %add.ptr = getelementptr inbounds i8, ptr %m_buffer, i64 16
  %3 = load i32, ptr %id, align 4
  %call12 = call noundef nonnull align 8 dereferenceable(8) ptr @_ZNSolsEj(ptr noundef nonnull align 8 dereferenceable(8) %add.ptr, i32 noundef %3)
  %call13 = call noundef nonnull align 8 dereferenceable(8) ptr @_ZStlsISt11char_traitsIcEERSt13basic_ostreamIcT_ES5_c(ptr noundef nonnull align 8 dereferenceable(8) %call12, i8 noundef signext 32)
  %4 = load i32, ptr %id1.addr, align 4
  %call14 = call noundef nonnull align 8 dereferenceable(8) ptr @_ZNSolsEj(ptr noundef nonnull align 8 dereferenceable(8) %call13, i32 noundef %4)
  %call15 = call noundef nonnull align 8 dereferenceable(8) ptr @_ZStlsISt11char_traitsIcEERSt13basic_ostreamIcT_ES5_c(ptr noundef nonnull align 8 dereferenceable(8) %call14, i8 noundef signext 32)
  %5 = load i32, ptr %id2.addr, align 4
  %call16 = call noundef nonnull align 8 dereferenceable(8) ptr @_ZNSolsEj(ptr noundef nonnull align 8 dereferenceable(8) %call15, i32 noundef %5)
  %call17 = call noundef nonnull align 8 dereferenceable(8) ptr @_ZStlsISt11char_traitsIcEERSt13basic_ostreamIcT_ES5_c(ptr noundef nonnull align 8 dereferenceable(8) %call16, i8 noundef signext 10)
  %6 = load i32, ptr %id, align 4
  %m_and_gates_map18 = getelementptr inbounds %"class.datalog::aig_exporter", ptr %this1, i32 0, i32 10
  %call19 = call noundef nonnull align 4 dereferenceable(4) ptr @_ZNSt3mapISt4pairIjjEjSt4lessIS1_ESaIS0_IKS1_jEEEixERS4_(ptr noundef nonnull align 8 dereferenceable(48) %m_and_gates_map18, ptr noundef nonnull align 4 dereferenceable(8) %key)
  store i32 %6, ptr %call19, align 4
  %m_num_and_gates = getelementptr inbounds %"class.datalog::aig_exporter", ptr %this1, i32 0, i32 11
  %7 = load i32, ptr %m_num_and_gates, align 8
  %inc = add i32 %7, 1
  store i32 %inc, ptr %m_num_and_gates, align 8
  %8 = load i32, ptr %id, align 4
  store i32 %8, ptr %retval, align 4
  br label %return

return:                                           ; preds = %if.end10, %if.then8
  %9 = load i32, ptr %retval, align 4
  ret i32 %9
}

; Function Attrs: mustprogress uwtable
define hidden noundef i32 @_ZN7datalog12aig_exporter7get_varEPK4expr(ptr noundef nonnull align 8 dereferenceable(624) %this, ptr noundef %e) #4 align 2 {
entry:
  %retval = alloca i32, align 4
  %this.addr = alloca ptr, align 8
  %e.addr = alloca ptr, align 8
  %id = alloca i32, align 4
  store ptr %this, ptr %this.addr, align 8
  store ptr %e, ptr %e.addr, align 8
  %this1 = load ptr, ptr %this.addr, align 8
  %m_aig_expr_id_map = getelementptr inbounds %"class.datalog::aig_exporter", ptr %this1, i32 0, i32 8
  %0 = load ptr, ptr %e.addr, align 8
  %call = call noundef zeroext i1 @_ZNK7obj_mapIK4exprjE4findEPS1_Rj(ptr noundef nonnull align 8 dereferenceable(24) %m_aig_expr_id_map, ptr noundef %0, ptr noundef nonnull align 4 dereferenceable(4) %id)
  br i1 %call, label %if.then, label %if.end

if.then:                                          ; preds = %entry
  %1 = load i32, ptr %id, align 4
  store i32 %1, ptr %retval, align 4
  br label %return

if.end:                                           ; preds = %entry
  %2 = load ptr, ptr %e.addr, align 8
  %call2 = call noundef i32 @_ZN7datalog12aig_exporter12mk_input_varEPK4expr(ptr noundef nonnull align 8 dereferenceable(624) %this1, ptr noundef %2)
  store i32 %call2, ptr %retval, align 4
  br label %return

