target datalayout = "e-m:e-p270:32:32-p271:32:32-p272:64:64-i64:64-i128:128-f80:128-n8:16:32:64-S128"
target triple = "x86_64-unknown-linux-gnu"

%"class.std::ios_base::Init" = type { i8 }
%"struct.std::in_place_index_t" = type { i8 }
%"struct.std::in_place_index_t.67" = type { i8 }
%struct.app_flags = type { i24 }
%struct.array_rewriter_params = type { ptr, %class.params_ref }
%class.params_ref = type { ptr }
%class.array_rewriter = type <{ %class.array_util, i8, i8, i8, i8, i8, i8, [2 x i8] }>
%class.array_util = type { %class.array_recognizers, ptr }
%class.array_recognizers = type { i32 }
%class.obj_ref = type { ptr, ptr }
%class.ref_vector = type { %class.ref_vector_core }
%class.ref_vector_core = type { %class.ref_manager_wrapper, %class.ptr_vector.26 }
%class.ref_manager_wrapper = type { ptr }
%class.ptr_vector.26 = type { %class.vector.27 }
%class.vector.27 = type { ptr }
%class.ast_manager = type { %class.reslimit, %class.small_object_allocator, %class.family_manager, %class.parray_manager, %class.dependency_manager, %class.parray_manager.10, %class.ptr_vector.13, i32, i8, %class.ast_table, %class.obj_map, %class.id_gen, %class.id_gen, ptr, ptr, ptr, ptr, ptr, i32, i8, [3 x i8], %class.u_map, ptr, i8, i8, ptr, %class.symbol, %class.obj_map.21, ptr }
%class.reslimit = type { %"struct.std::atomic", i8, i64, i64, %class.svector, %class.ptr_vector }
%"struct.std::atomic" = type { %"struct.std::__atomic_base" }
%"struct.std::__atomic_base" = type { i32 }
%class.svector = type { %class.vector }
%class.vector = type { ptr }
%class.ptr_vector = type { %class.vector.0 }
%class.vector.0 = type { ptr }
%class.small_object_allocator = type { [32 x ptr], [32 x ptr], i64 }
%class.family_manager = type { i32, %class.symbol_table, %class.svector.4 }
%class.symbol_table = type { %class.core_hashtable, %class.vector.1, %class.svector.2 }
%class.core_hashtable = type <{ ptr, i32, i32, i32, [4 x i8] }>
%class.vector.1 = type { ptr }
%class.svector.2 = type { %class.vector.3 }
%class.vector.3 = type { ptr }
%class.svector.4 = type { %class.vector.5 }
%class.vector.5 = type { ptr }
%class.parray_manager = type { ptr, ptr, %class.ptr_vector.6, %class.ptr_vector.6 }
%class.ptr_vector.6 = type { %class.vector.7 }
%class.vector.7 = type { ptr }
%class.dependency_manager = type { ptr, ptr, %class.ptr_vector.8 }
%class.ptr_vector.8 = type { %class.vector.9 }
%class.vector.9 = type { ptr }
%class.parray_manager.10 = type { ptr, ptr, %class.ptr_vector.11, %class.ptr_vector.11 }
%class.ptr_vector.11 = type { %class.vector.12 }
%class.vector.12 = type { ptr }
%class.ptr_vector.13 = type { %class.vector.14 }
%class.vector.14 = type { ptr }
%class.ast_table = type { %class.chashtable }
%class.chashtable = type { ptr, i32, i32, i32, i32, i32, i32, i32, ptr, ptr, ptr }
%class.obj_map = type { %class.core_hashtable.15 }
%class.core_hashtable.15 = type <{ ptr, i32, i32, i32, [4 x i8] }>
%class.id_gen = type { i32, %class.svector.17 }
%class.svector.17 = type { %class.vector.18 }
%class.vector.18 = type { ptr }
%class.u_map = type { %class.map }
%class.map = type { %class.table2map }
%class.table2map = type { %class.core_hashtable.19 }
%class.core_hashtable.19 = type <{ ptr, i32, i32, i32, [4 x i8] }>
%class.symbol = type { ptr }
%class.obj_map.21 = type { %class.core_hashtable.22 }
%class.core_hashtable.22 = type <{ ptr, i32, i32, i32, [4 x i8] }>
%class.decl = type { %class.ast, %class.symbol, ptr }
%class.ast = type { i32, i24, i32, i32 }
%class.ptr_buffer = type { %class.buffer }
%class.buffer = type { ptr, i32, i32, [16 x %"union.std::aligned_storage<8, 8>::type"] }
%"union.std::aligned_storage<8, 8>::type" = type { [8 x i8] }
%class.anon = type { ptr, ptr, ptr }
%class.obj_ref.43 = type { ptr, ptr }
%class.ast_mark = type { ptr, %class.obj_mark, %class.obj_mark.46 }
%class.obj_mark = type { %struct.default_t2uint, %class.bit_vector }
%struct.default_t2uint = type { i8 }
%class.bit_vector = type { i32, i32, ptr }
%class.obj_mark.46 = type { %"struct.ast_mark::decl2uint", %class.bit_vector }
%"struct.ast_mark::decl2uint" = type { i8 }
%class.app = type { %class.expr, ptr, i32, [0 x ptr] }
%class.expr = type { %class.ast }
%class.var_subst = type { %class.beta_reducer, i8, [7 x i8] }
%class.beta_reducer = type <{ %class.rewriter_tpl, %struct.beta_reducer_cfg, [7 x i8] }>
%class.rewriter_tpl = type { %class.rewriter_core, ptr, i32, %class.ptr_vector.26, %class.var_shifter, %class.inv_var_shifter, %class.obj_ref, %class.obj_ref.42, %class.obj_ref.42, %class.svector.17 }
%class.rewriter_core = type { ptr, ptr, i8, i8, %class.ptr_vector.28, ptr, %class.svector.30, %class.ref_vector, %class.ptr_vector.28, ptr, %class.ref_vector.32, %class.obj_hashtable, ptr, i32, %class.svector.40 }
%class.svector.30 = type { %class.vector.31 }
%class.vector.31 = type { ptr }
%class.ptr_vector.28 = type { %class.vector.29 }
%class.vector.29 = type { ptr }
%class.ref_vector.32 = type { %class.ref_vector_core.33 }
%class.ref_vector_core.33 = type { %class.ref_manager_wrapper.34, %class.ptr_vector.35 }
%class.ref_manager_wrapper.34 = type { ptr }
%class.ptr_vector.35 = type { %class.vector.36 }
%class.vector.36 = type { ptr }
%class.obj_hashtable = type { %class.core_hashtable.base.39, [4 x i8] }
%class.core_hashtable.base.39 = type <{ ptr, i32, i32, i32 }>
%class.svector.40 = type { %class.vector.41 }
%class.vector.41 = type { ptr }
%class.var_shifter = type <{ %class.var_shifter_core, i32, i32, i32, [4 x i8] }>
%class.var_shifter_core = type { %class.rewriter_core }
%class.inv_var_shifter = type <{ %class.var_shifter_core, i32, [4 x i8] }>
%class.obj_ref.42 = type { ptr, ptr }
%struct.beta_reducer_cfg = type { i8 }
%class.quantifier = type { %class.expr, i32, i32, ptr, ptr, i32, i32, i8, i8, %class.symbol, %class.symbol, i32, i32, [0 x i8] }
%class.ptr_vector.44 = type { %class.vector.45 }
%class.vector.45 = type { ptr }
%class.func_decl = type { %class.decl, i32, ptr, [0 x ptr] }
%class.parameter = type { %"class.std::variant" }
%"class.std::variant" = type { %"struct.std::__detail::__variant::_Variant_base.base", [7 x i8] }
%"struct.std::__detail::__variant::_Variant_base.base" = type { %"struct.std::__detail::__variant::_Move_assign_base.base" }
%"struct.std::__detail::__variant::_Move_assign_base.base" = type { %"struct.std::__detail::__variant::_Copy_assign_base.base" }
%"struct.std::__detail::__variant::_Copy_assign_base.base" = type { %"struct.std::__detail::__variant::_Move_ctor_base.base" }
%"struct.std::__detail::__variant::_Move_ctor_base.base" = type { %"struct.std::__detail::__variant::_Copy_ctor_base.base" }
%"struct.std::__detail::__variant::_Copy_ctor_base.base" = type { %"struct.std::__detail::__variant::_Variant_storage.base" }
%"struct.std::__detail::__variant::_Variant_storage.base" = type <{ %"union.std::__detail::__variant::_Variadic_union", i8 }>
%"union.std::__detail::__variant::_Variadic_union" = type { %"union.std::__detail::__variant::_Variadic_union.54" }
%"union.std::__detail::__variant::_Variadic_union.54" = type { %"struct.std::__detail::__variant::_Uninitialized.55" }
%"struct.std::__detail::__variant::_Uninitialized.55" = type { ptr }
%"class.ref_vector<expr, ast_manager>::element_ref" = type { ptr, ptr }
%class.vector.50 = type { ptr }
%class.var = type { %class.expr, i32, ptr }
%class.anon.51 = type { i8 }
%class.decl_info = type <{ i32, i32, %class.vector.53, i8, [7 x i8] }>
%class.vector.53 = type { ptr }
%"struct.std::__detail::__variant::_Variant_storage" = type <{ %"union.std::__detail::__variant::_Variadic_union", i8, [7 x i8] }>
%"class.std::bad_variant_access" = type { %"class.std::exception", ptr }
%"class.std::exception" = type { ptr }
%class.sort_size = type { i32, i64 }
%class.sort_info = type { %class.decl_info.base, %class.sort_size }
%class.decl_info.base = type <{ i32, i32, %class.vector.53, i8 }>
%"class.std::__cxx11::basic_string" = type { %"struct.std::__cxx11::basic_string<char>::_Alloc_hider", i64, %union.anon }
%"struct.std::__cxx11::basic_string<char>::_Alloc_hider" = type { ptr }
%union.anon = type { i64, [8 x i8] }
%"class.std::allocator" = type { i8 }
%class.default_exception = type { %class.z3_exception, %"class.std::__cxx11::basic_string" }
%class.z3_exception = type { ptr }
%struct._Guard = type { ptr }
%"struct.__gnu_cxx::__ops::_Iter_comp_iter" = type { %class.anon.47 }
%class.anon.47 = type { i8 }
%"struct.__gnu_cxx::__ops::_Iter_comp_val" = type { %class.anon.47 }
%"struct.__gnu_cxx::__ops::_Val_comp_iter" = type { %class.anon.47 }
%"struct.__gnu_cxx::__ops::_Iter_comp_iter.68" = type { %class.anon.48 }
%class.anon.48 = type { i8 }
%"struct.__gnu_cxx::__ops::_Iter_comp_val.69" = type { %class.anon.48 }
%"struct.__gnu_cxx::__ops::_Val_comp_iter.70" = type { %class.anon.48 }
%"struct.std::pair" = type { ptr, ptr }
%"struct.std::pair.71" = type { %"class.std::move_iterator", ptr }
%"class.std::move_iterator" = type { ptr }

$_ZN21array_rewriter_paramsC2ERK10params_ref = comdat any

$_ZNK21array_rewriter_params10sort_storeEv = comdat any

$_ZNK21array_rewriter_params19expand_select_storeEv = comdat any

$_ZNK21array_rewriter_params15expand_store_eqEv = comdat any

$_ZNK21array_rewriter_params20expand_nested_storesEv = comdat any

$_ZNK21array_rewriter_params18blast_select_storeEv = comdat any

$_ZNK21array_rewriter_params17expand_select_iteEv = comdat any

$_ZN21array_rewriter_paramsD2Ev = comdat any

$_ZN21array_rewriter_params20collect_param_descrsER12param_descrs = comdat any

$_ZNK14array_rewriter1mEv = comdat any

$_ZN7obj_refI4expr11ast_managerEC2ERS1_ = comdat any

$_ZN10ref_vectorI4expr11ast_managerEC2ERS1_ = comdat any

$_ZNK11ast_manager7mk_trueEv = comdat any

$_ZN7obj_refI4expr11ast_managerEaSEPS0_ = comdat any

$_ZNK7obj_refI4expr11ast_managerEcvPS0_Ev = comdat any

$_ZNK15ref_vector_coreI4expr19ref_manager_wrapperIS0_11ast_managerEE4sizeEv = comdat any

$_ZN15ref_vector_coreI4expr19ref_manager_wrapperIS0_11ast_managerEE4dataEv = comdat any

$_ZN11ast_manager5mk_eqEP4exprS1_ = comdat any

$_ZNK15ref_vector_coreI4expr19ref_manager_wrapperIS0_11ast_managerEE3getEj = comdat any

$_ZN10ref_vectorI4expr11ast_managerED2Ev = comdat any

$_ZN7obj_refI4expr11ast_managerED2Ev = comdat any

$_ZNK4decl13get_decl_kindEv = comdat any

$_ZNK17array_recognizers8is_storeEP4expr = comdat any

$_Z6to_appP3ast = comdat any

$_ZNK3app8get_argsEv = comdat any

$_ZN10ptr_bufferI4exprLj16EEC2Ev = comdat any

$_ZN6bufferIP4exprLb0ELj16EE9push_backEOS1_ = comdat any

$_ZNK3app7get_argEj = comdat any

$_ZN10ptr_bufferI4exprLj16EE6appendEjPKPS0_ = comdat any

$_ZNK14array_rewriter7get_fidEv = comdat any

$_ZNK6bufferIP4exprLb0ELj16EE4dataEv = comdat any

$_ZN10ptr_bufferI4exprLj16EED2Ev = comdat any

$_Z6lex_ltjPKP4exprS2_ = comdat any

$_ZN6bufferIP4exprLb0ELj16EE5resetEv = comdat any

$_ZN6bufferIP4exprLb0ELj16EE9push_backERKS1_ = comdat any

$_ZNK17array_recognizers8is_constEP4expr = comdat any

$_ZNK17array_recognizers9is_selectEP4expr = comdat any

$_ZNK6bufferIP4exprLb0ELj16EE4sizeEv = comdat any

$_ZN6bufferIP4exprLb0ELj16EEixEj = comdat any

$_ZNK3app12get_num_argsEv = comdat any

$_ZNK10array_util8mk_storeEjPKP4expr = comdat any

$_ZeqI4expr11ast_managerEbRK7obj_refIT_T0_ES7_ = comdat any

$_ZN7obj_refI4expr11ast_managerEaSEOS2_ = comdat any

$_Z9is_lambdaPK3ast = comdat any

$_Z13to_quantifierP3ast = comdat any

$_ZN9var_substC2ER11ast_managerb = comdat any

$_ZN11var_shifterC2ER11ast_manager = comdat any

$_ZN11var_shifterclEP4exprjR7obj_refIS0_11ast_managerE = comdat any

$_ZN15ref_vector_coreI4expr19ref_manager_wrapperIS0_11ast_managerEE9push_backEPS0_ = comdat any

$_ZNK10quantifier8get_exprEv = comdat any

$_ZN15inv_var_shifterC2ER11ast_manager = comdat any

$_ZN15inv_var_shifterD2Ev = comdat any

$_ZN11var_shifterD2Ev = comdat any

$_ZN9var_substD2Ev = comdat any

$_ZNK17array_recognizers6is_mapEP4expr = comdat any

$_ZNK17array_recognizers17get_map_func_declEP4expr = comdat any

$_ZNK3app5beginEv = comdat any

$_ZNK3app3endEv = comdat any

$_ZN10ptr_vectorI4exprEC2Ev = comdat any

$_ZN6vectorIP4exprLb0EjE9push_backERKS1_ = comdat any

$_ZN6vectorIP4exprLb0EjE6appendEjPKS1_ = comdat any

$_ZNK10array_util9mk_selectEjPKP4expr = comdat any

$_ZNK6vectorIP4exprLb0EjE4sizeEv = comdat any

$_ZNK6vectorIP4exprLb0EjE4dataEv = comdat any

$_ZN10ptr_vectorI4exprED2Ev = comdat any

$_ZNK17array_recognizers11is_as_arrayEP4expr = comdat any

$_ZN7obj_refI4expr11ast_managerE5resetEv = comdat any

$_ZNK3ast13get_ref_countEv = comdat any

$_ZN11ast_manager6mk_iteEP4exprS1_S1_ = comdat any

$_ZN11ast_manager6mk_andERK10ptr_bufferI4exprLj16EE = comdat any

$_ZNK11ast_manager6is_iteEPK4exprRPS0_S4_S4_ = comdat any

$_Z15get_array_arityPK4sort = comdat any

$_ZN10ptr_vectorI4sortEC2Ev = comdat any

$_ZN6vectorIP4sortLb0EjE9push_backEOS1_ = comdat any

$_Z16get_array_domainPK4sortj = comdat any

$_ZNK6vectorIP4sortLb0EjE4dataEv = comdat any

$_ZNK9func_decl9get_rangeEv = comdat any

$_ZN7obj_refI4sort11ast_managerEC2EPS0_RS1_ = comdat any

$_ZN10ptr_vectorI4sortED2Ev = comdat any

$_ZN10array_util6mk_mapEP9func_decljPKP4expr = comdat any

$_ZN7obj_refI4expr11ast_managerEC2EPS0_RS1_ = comdat any

$_ZN10array_util14mk_const_arrayEP4sortP4expr = comdat any

$_ZNK7obj_refI4sort11ast_managerEcvPS0_Ev = comdat any

$_ZN7obj_refI4sort11ast_managerED2Ev = comdat any

$_ZNK11ast_manager6is_notEPK9func_decl = comdat any

$_ZNK11ast_manager6is_andEPK9func_decl = comdat any

$_ZN8ast_markC2Ev = comdat any

$_ZN6bufferIP4exprLb0ELj16EE6shrinkEj = comdat any

$_ZN6bufferIP4exprLb0ELj16EE5beginEv = comdat any

$_ZN6bufferIP4exprLb0ELj16EE3endEv = comdat any

$_ZNK11ast_manager8mk_falseEv = comdat any

$_ZN10array_util12mk_map_assocEP9func_decljPKP4expr = comdat any

$_ZN11ast_manager11mk_not_declEv = comdat any

$_ZN8ast_markD2Ev = comdat any

$_ZNK11ast_manager5is_orEPK9func_decl = comdat any

$_Z18unsigned2br_statusj = comdat any

$_ZN11ast_manager10mk_or_declEv = comdat any

$_ZN11ast_manager11mk_and_declEv = comdat any

$_ZNK7obj_refI4expr11ast_managerE3getEv = comdat any

$_ZN10array_util12mk_empty_setEP4sort = comdat any

$_ZN15ref_vector_coreI4expr19ref_manager_wrapperIS0_11ast_managerEE5resetEv = comdat any

$_ZN15ref_vector_coreI4expr19ref_manager_wrapperIS0_11ast_managerEE6appendERKS4_ = comdat any

$_ZN10ref_vectorI4expr11ast_managerEixEj = comdat any

$_ZN10ref_vectorI4expr11ast_managerE11element_refaSEPS0_ = comdat any

$_ZN6vectorI10ref_vectorI4expr11ast_managerELb1EjE9push_backERKS3_ = comdat any

$_ZNK10quantifier13get_num_declsEv = comdat any

$_Z9is_groundPK4expr = comdat any

$_ZNK11ast_manager5is_orEPK4expr = comdat any

$_ZNK11ast_manager6is_andEPK4expr = comdat any

$_ZN15ref_vector_coreI4expr19ref_manager_wrapperIS0_11ast_managerEE6resizeEjPS0_ = comdat any

$_ZNK11ast_manager6is_notEPK4exprRPS0_ = comdat any

$_ZN6vectorIP4exprLb0EjEixEj = comdat any

$_ZNK11ast_manager5is_eqEPK4exprRPS0_S4_ = comdat any

$_Z6is_varPK3ast = comdat any

$_ZSt4swapIP4exprENSt9enable_ifIXsr6__and_ISt6__not_ISt15__is_tuple_likeIT_EESt21is_move_constructibleIS5_ESt18is_move_assignableIS5_EEE5valueEvE4typeERS5_SE_ = comdat any

$_Z6to_varP3ast = comdat any

$_ZNK3var7get_idxEv = comdat any

$_ZN10ptr_vectorI3appEC2Ev = comdat any

$_ZN6vectorIP3appLb0EjE9push_backEOS1_ = comdat any

$_ZN6vectorIP3appLb0EjE7reverseEv = comdat any

$_ZN7svectorI6symboljEC2Ev = comdat any

$_ZN6vectorI6symbolLb0EjE9push_backEOS0_ = comdat any

$_ZN6symbolC2Ej = comdat any

$_ZN6vectorI6symbolLb0EjE7reverseEv = comdat any

$_ZN6vectorIP4sortLb0EjE7reverseEv = comdat any

$_ZNK10array_util9mk_selectERK10ref_vectorI4expr11ast_managerE = comdat any

$_ZN6vectorIP3appLb0EjE5beginEv = comdat any

$_ZN6vectorIP3appLb0EjE3endEv = comdat any

$_Z6mk_andRK10ref_vectorI4expr11ast_managerE = comdat any

$_ZNK6vectorIP4sortLb0EjE4sizeEv = comdat any

$_ZNK6vectorI6symbolLb0EjE4dataEv = comdat any

$_ZN7svectorI6symboljED2Ev = comdat any

$_ZN10ptr_vectorI3appED2Ev = comdat any

$_ZN11ast_manager6mk_andERK10ref_vectorI4exprS_E = comdat any

$_ZSt3maxIjERKT_S2_S2_ = comdat any

$_ZNK7obj_refI4expr11ast_managerEcvbEv = comdat any

$_ZNK7obj_refI4expr11ast_managerEntEv = comdat any

$_ZNK10array_util11get_managerEv = comdat any

$_ZNK11ast_manager9get_eq_opEPK4expr = comdat any

$_ZN15ref_vector_coreI4expr19ref_manager_wrapperIS0_11ast_managerEED2Ev = comdat any

$_ZN15ref_vector_coreI4expr19ref_manager_wrapperIS0_11ast_managerEE13dec_range_refEPKPS0_S7_ = comdat any

$__clang_call_terminate = comdat any

$_ZN15ref_vector_coreI4expr19ref_manager_wrapperIS0_11ast_managerEE7dec_refEPS0_ = comdat any

$_ZN19ref_manager_wrapperI4expr11ast_managerE7dec_refEPS0_ = comdat any

$_ZN11ast_manager7dec_refEP3ast = comdat any

$_ZN3ast7dec_refEv = comdat any

$_ZNK9decl_info13get_decl_kindEv = comdat any

$_Z9is_app_ofPK4exprii = comdat any

$_ZNK3ast8get_kindEv = comdat any

$_Z6to_appPK3ast = comdat any

$_ZNK3app9is_app_ofEii = comdat any

$_ZNK4decl10is_decl_ofEii = comdat any

$_ZNK9decl_info10is_decl_ofEii = comdat any

$_ZN6bufferIP4exprLb0ELj16EEC2Ev = comdat any

$_ZNK17array_recognizers13get_family_idEv = comdat any

$_ZN6bufferIP4exprLb0ELj16EED2Ev = comdat any

$_ZN6bufferIP4exprLb0ELj16EE7destroyEv = comdat any

$_ZN6bufferIP4exprLb0ELj16EE11free_memoryEv = comdat any

$_Z13dealloc_svectIP4exprEvPT_ = comdat any

$_Z13is_quantifierPK3ast = comdat any

$_ZNK10quantifier8get_kindEv = comdat any

$_ZN12beta_reducerC2ER11ast_manager = comdat any

$_ZN12beta_reducerD2Ev = comdat any

$_ZN12beta_reducerD0Ev = comdat any

$_ZN7svectorIjjED2Ev = comdat any

$_ZN7obj_refI3app11ast_managerED2Ev = comdat any

$_ZN12rewriter_tplI16beta_reducer_cfgED2Ev = comdat any

$_ZN12rewriter_tplI16beta_reducer_cfgED0Ev = comdat any

$_ZN6vectorIjLb0EjED2Ev = comdat any

$_ZN6vectorIjLb0EjE7destroyEv = comdat any

$_ZN6vectorIjLb0EjE11free_memoryEv = comdat any

$_ZN7obj_refI3app11ast_managerE7dec_refEv = comdat any

$_ZN16var_shifter_coreC2ER11ast_manager = comdat any

$_ZN16var_shifter_coreD2Ev = comdat any

$_ZN16var_shifter_coreD0Ev = comdat any

$_ZNK3app8get_declEv = comdat any

$_ZN6vectorIP4exprLb0EjED2Ev = comdat any

$_ZN6vectorIP4exprLb0EjE7destroyEv = comdat any

$_ZN6vectorIP4exprLb0EjE11free_memoryEv = comdat any

$_ZN11ast_manager6mk_andEjPKP4expr = comdat any

$_ZNK11ast_manager6is_iteEPK4expr = comdat any

$_ZNK4decl18get_num_parametersEv = comdat any

$_ZNK9decl_info18get_num_parametersEv = comdat any

$_ZNK6vectorI9parameterLb1EjE4sizeEv = comdat any

$_Z7to_sortP3ast = comdat any

$_ZNK4decl13get_parameterEj = comdat any

$_ZNK9parameter7get_astEv = comdat any

$_ZNK9decl_info13get_parameterEj = comdat any

$_ZNK6vectorI9parameterLb1EjEixEj = comdat any

$_ZSt3getIP3astJiS1_6symbolP7zstringP8rationaldjEERKT_RKSt7variantIJDpT0_EE = comdat any

$_ZSt3getILm1EJiP3ast6symbolP7zstringP8rationaldjEERKNSt19variant_alternativeIXT_ESt7variantIJDpT0_EEE4typeERKSB_ = comdat any

$_ZNKSt7variantIJiP3ast6symbolP7zstringP8rationaldjEE5indexEv = comdat any

$_ZSt26__throw_bad_variant_accessb = comdat any

$_ZNKSt7variantIJiP3ast6symbolP7zstringP8rationaldjEE22valueless_by_exceptionEv = comdat any

$_ZNSt8__detail9__variant5__getILm1ERKSt7variantIJiP3ast6symbolP7zstringP8rationaldjEEEEDcOT0_ = comdat any

$_ZSt26__throw_bad_variant_accessPKc = comdat any

$_ZNSt18bad_variant_accessC2EPKc = comdat any

$_ZNSt18bad_variant_accessD2Ev = comdat any

$_ZNSt9exceptionC2Ev = comdat any

$_ZNSt18bad_variant_accessD0Ev = comdat any

$_ZNKSt18bad_variant_access4whatEv = comdat any

$_ZNKSt8__detail9__variant16_Variant_storageILb1EJiP3ast6symbolP7zstringP8rationaldjEE8_M_validEv = comdat any

$_ZNSt8__detail9__variant7__get_nILm1ERKNS0_15_Variadic_unionIJiP3ast6symbolP7zstringP8rationaldjEEEEEDcOT0_ = comdat any

$_ZNKRSt8__detail9__variant14_UninitializedIP3astLb1EE6_M_getEv = comdat any

$_ZN6vectorIP4sortLb0EjED2Ev = comdat any

$_ZN6vectorIP4sortLb0EjE7destroyEv = comdat any

$_ZN6vectorIP4sortLb0EjE11free_memoryEv = comdat any

$_ZN9parameterC2EP3ast = comdat any

$_ZNSt7variantIJiP3ast6symbolP7zstringP8rationaldjEEC2IRS1_vvS1_vEEOT_ = comdat any

$_ZNSt7variantIJiP3ast6symbolP7zstringP8rationaldjEEC2ILm1EJRS1_ES1_vEESt16in_place_index_tIXT_EEDpOT0_ = comdat any

$_ZNSt8__detail9__variant13_Variant_baseIJiP3ast6symbolP7zstringP8rationaldjEEC2ILm1EJRS3_EEESt16in_place_index_tIXT_EEDpOT0_ = comdat any

$_ZNSt27_Enable_default_constructorILb1ESt7variantIJiP3ast6symbolP7zstringP8rationaldjEEEC2ESt31_Enable_default_constructor_tag = comdat any

$_ZNSt8__detail9__variant17_Move_assign_baseILb1EJiP3ast6symbolP7zstringP8rationaldjEECI2NS0_16_Variant_storageILb1EJiS3_S4_S6_S8_djEEEILm1EJRS3_EEESt16in_place_index_tIXT_EEDpOT0_ = comdat any

$_ZNSt8__detail9__variant17_Copy_assign_baseILb1EJiP3ast6symbolP7zstringP8rationaldjEECI2NS0_16_Variant_storageILb1EJiS3_S4_S6_S8_djEEEILm1EJRS3_EEESt16in_place_index_tIXT_EEDpOT0_ = comdat any

$_ZNSt8__detail9__variant15_Move_ctor_baseILb1EJiP3ast6symbolP7zstringP8rationaldjEECI2NS0_16_Variant_storageILb1EJiS3_S4_S6_S8_djEEEILm1EJRS3_EEESt16in_place_index_tIXT_EEDpOT0_ = comdat any

$_ZNSt8__detail9__variant15_Copy_ctor_baseILb1EJiP3ast6symbolP7zstringP8rationaldjEECI2NS0_16_Variant_storageILb1EJiS3_S4_S6_S8_djEEEILm1EJRS3_EEESt16in_place_index_tIXT_EEDpOT0_ = comdat any

$_ZNSt8__detail9__variant16_Variant_storageILb1EJiP3ast6symbolP7zstringP8rationaldjEEC2ILm1EJRS3_EEESt16in_place_index_tIXT_EEDpOT0_ = comdat any

$_ZNSt8__detail9__variant15_Variadic_unionIJiP3ast6symbolP7zstringP8rationaldjEEC2ILm1EJRS3_EEESt16in_place_index_tIXT_EEDpOT0_ = comdat any

$_ZNSt8__detail9__variant15_Variadic_unionIJP3ast6symbolP7zstringP8rationaldjEEC2IJRS3_EEESt16in_place_index_tILm0EEDpOT_ = comdat any

$_ZNSt8__detail9__variant14_UninitializedIP3astLb1EEC2IJRS3_EEESt16in_place_index_tILm0EEDpOT_ = comdat any

$_Z10is_decl_ofPK9func_declii = comdat any

$_ZNK4decl13get_family_idEv = comdat any

$_ZNK9decl_info13get_family_idEv = comdat any

$_ZN8obj_markI4expr10bit_vector14default_t2uintIS0_EEC2ERKS3_ = comdat any

$_ZN8obj_markI4decl10bit_vectorN8ast_mark9decl2uintEEC2ERKS3_ = comdat any

$_ZN8obj_markI4expr10bit_vector14default_t2uintIS0_EED2Ev = comdat any

$_ZN10bit_vectorC2Ev = comdat any

$_ZN10bit_vectorD2Ev = comdat any

$_Z13dealloc_svectIjEvPT_ = comdat any

$_ZN8obj_markI4decl10bit_vectorN8ast_mark9decl2uintEED2Ev = comdat any

$_Z6is_appPK3ast = comdat any

$_ZNK3app9is_groundEv = comdat any

$_ZNK3app5flagsEv = comdat any

$_ZNK11ast_manager6is_notEPK4expr = comdat any

$_ZNK11ast_manager5is_eqEPK4expr = comdat any

$_ZNK15ref_vector_coreI4expr19ref_manager_wrapperIS0_11ast_managerEE4dataEv = comdat any

$_ZNK10ref_vectorI4expr11ast_managerE11get_managerEv = comdat any

$_ZN6vectorI6symbolLb0EjED2Ev = comdat any

$_ZN6vectorI6symbolLb0EjE7destroyEv = comdat any

$_ZN6vectorI6symbolLb0EjE11free_memoryEv = comdat any

$_ZN6vectorIP3appLb0EjED2Ev = comdat any

$_ZN6vectorIP3appLb0EjE7destroyEv = comdat any

$_ZN6vectorIP3appLb0EjE11free_memoryEv = comdat any

$_ZNK4sort11is_infiniteEv = comdat any

$_ZNK4sort11is_very_bigEv = comdat any

$_ZNK4sort16get_num_elementsEv = comdat any

$_ZNK9sort_size4sizeEv = comdat any

$_ZNK4sort8get_infoEv = comdat any

$_ZNK9sort_info11is_infiniteEv = comdat any

$_ZNK9sort_size11is_infiniteEv = comdat any

$_ZNK9sort_info11is_very_bigEv = comdat any

$_ZNK9sort_size11is_very_bigEv = comdat any

$_ZNK9sort_info16get_num_elementsEv = comdat any

$_ZN7obj_refI4expr11ast_managerE7inc_refEv = comdat any

$_ZN11ast_manager7inc_refEP3ast = comdat any

$_ZN3ast7inc_refEv = comdat any

$_ZN7obj_refI4expr11ast_managerE7dec_refEv = comdat any

$_ZN7obj_refI4sort11ast_managerE7inc_refEv = comdat any

$_ZN7obj_refI4sort11ast_managerE7dec_refEv = comdat any

$_ZN19ref_manager_wrapperI4expr11ast_managerEC2ERS1_ = comdat any

$_ZN15ref_vector_coreI4expr19ref_manager_wrapperIS0_11ast_managerEEC2ERKS3_ = comdat any

$_ZN6vectorI6symbolLb0EjEC2Ev = comdat any

$_ZN15ref_vector_coreI4expr19ref_manager_wrapperIS0_11ast_managerEE7inc_refEPS0_ = comdat any

$_ZN19ref_manager_wrapperI4expr11ast_managerE7inc_refEPS0_ = comdat any

$_ZN6vectorIP4sortLb0EjEC2Ev = comdat any

$_ZN6vectorIP4exprLb0EjEC2Ev = comdat any

$_ZSt4swapIP4sortENSt9enable_ifIXsr6__and_ISt6__not_ISt15__is_tuple_likeIT_EESt21is_move_constructibleIS5_ESt18is_move_assignableIS5_EEE5valueEvE4typeERS5_SE_ = comdat any

$_ZNK6vectorIP4exprLb0EjEixEj = comdat any

$_ZN6bufferIP4exprLb0ELj16EE6expandEv = comdat any

$_ZN6vectorIP4exprLb0EjE13expand_vectorEv = comdat any

$_ZNSt7__cxx1112basic_stringIcSt11char_traitsIcESaIcEEC2IS3_EEPKcRKS3_ = comdat any

$_ZN17default_exceptionC2EONSt7__cxx1112basic_stringIcSt11char_traitsIcESaIcEEE = comdat any

$_ZN17default_exceptionD2Ev = comdat any

$_ZNSt11char_traitsIcE6lengthEPKc = comdat any

$_ZNSt7__cxx1112basic_stringIcSt11char_traitsIcESaIcEE12_M_constructIPKcEEvT_S8_St20forward_iterator_tag = comdat any

$_ZNSt7__cxx1112basic_stringIcSt11char_traitsIcESaIcEE12_Alloc_hiderD2Ev = comdat any

$_ZSt8distanceIPKcENSt15iterator_traitsIT_E15difference_typeES3_S3_ = comdat any

$_ZZNSt7__cxx1112basic_stringIcSt11char_traitsIcESaIcEE12_M_constructIPKcEEvT_S8_St20forward_iterator_tagEN6_GuardC2EPS4_ = comdat any

$_ZZNSt7__cxx1112basic_stringIcSt11char_traitsIcESaIcEE12_M_constructIPKcEEvT_S8_St20forward_iterator_tagEN6_GuardD2Ev = comdat any

$_ZSt10__distanceIPKcENSt15iterator_traitsIT_E15difference_typeES3_S3_St26random_access_iterator_tag = comdat any

$_ZSt19__iterator_categoryIPKcENSt15iterator_traitsIT_E17iterator_categoryERKS3_ = comdat any

$_ZN12z3_exceptionC2Ev = comdat any

$_ZN12z3_exceptionD2Ev = comdat any

$_ZN6vectorIP4sortLb0EjE13expand_vectorEv = comdat any

$_ZN6bufferIP4exprLb0ELj16EE8pop_backEv = comdat any

$_ZSt4__lgl = comdat any

$_ZNK3ast6get_idEv = comdat any

$_ZSt9iter_swapIPP4exprS2_EvT_T0_ = comdat any

$_ZSt13move_backwardIPP4exprS2_ET0_T_S4_S3_ = comdat any

$_ZSt22__copy_move_backward_aILb1EPP4exprS2_ET1_T0_S4_S3_ = comdat any

$_ZSt12__miter_baseIPP4exprET_S3_ = comdat any

$_ZSt12__niter_wrapIPP4exprET_RKS3_S3_ = comdat any

$_ZSt23__copy_move_backward_a1ILb1EPP4exprS2_ET1_T0_S4_S3_ = comdat any

$_ZSt12__niter_baseIPP4exprET_S3_ = comdat any

$_ZSt23__copy_move_backward_a2ILb1EPP4exprS2_ET1_T0_S4_S3_ = comdat any

$_ZNSt20__copy_move_backwardILb1ELb1ESt26random_access_iterator_tagE13__copy_move_bIP4exprEEPT_PKS5_S8_S6_ = comdat any

$_ZN6vectorIP4exprLb0EjE5resetEv = comdat any

$_ZNK15ref_vector_coreI4expr19ref_manager_wrapperIS0_11ast_managerEEixEj = comdat any

$_ZN10ref_vectorI4expr11ast_managerE11element_refC2ERPS0_RS1_ = comdat any

$_ZN6vectorI10ref_vectorI4expr11ast_managerELb1EjE13expand_vectorEv = comdat any

$_ZN10ref_vectorI4expr11ast_managerEC2ERKS2_ = comdat any

$_ZNK6vectorI10ref_vectorI4expr11ast_managerELb1EjE4sizeEv = comdat any

$_ZSt20uninitialized_move_nIP10ref_vectorI4expr11ast_managerEjS4_ESt4pairIT_T1_ES6_T0_S7_ = comdat any

$_ZN6vectorI10ref_vectorI4expr11ast_managerELb1EjE7destroyEv = comdat any

$_ZSt27__uninitialized_copy_n_pairISt13move_iteratorIP10ref_vectorI4expr11ast_managerEEjS5_ESt4pairIT_T1_ES8_T0_S9_ = comdat any

$_ZSt18make_move_iteratorIP10ref_vectorI4expr11ast_managerEESt13move_iteratorIT_ES6_ = comdat any

$_ZNKSt13move_iteratorIP10ref_vectorI4expr11ast_managerEE4baseEv = comdat any

$_ZNSt4pairIP10ref_vectorI4expr11ast_managerES4_EC2IS4_RS4_TnNSt9enable_ifIXaaclsr5_PCCPE22_MoveConstructiblePairIT_T0_EEclsr5_PCCPE30_ImplicitlyMoveConvertiblePairIS9_SA_EEEbE4typeELb1EEEOS9_OSA_ = comdat any

$_ZSt27__uninitialized_copy_n_pairISt13move_iteratorIP10ref_vectorI4expr11ast_managerEEjS5_ESt4pairIT_T1_ES8_T0_S9_St26random_access_iterator_tag = comdat any

$_ZSt19__iterator_categoryISt13move_iteratorIP10ref_vectorI4expr11ast_managerEEENSt15iterator_traitsIT_E17iterator_categoryERKS8_ = comdat any

$_ZSt18uninitialized_copyISt13move_iteratorIP10ref_vectorI4expr11ast_managerEES5_ET0_T_S8_S7_ = comdat any

$_ZNKSt13move_iteratorIP10ref_vectorI4expr11ast_managerEEplEl = comdat any

$_ZSt4nextISt13move_iteratorIP10ref_vectorI4expr11ast_managerEEET_S7_NSt15iterator_traitsIS7_E15difference_typeE = comdat any

$_ZNSt4pairISt13move_iteratorIP10ref_vectorI4expr11ast_managerEES5_EC2IRS6_RS5_TnNSt9enable_ifIXaaclsr5_PCCPE22_MoveConstructiblePairIT_T0_EEclsr5_PCCPE30_ImplicitlyMoveConvertiblePairISC_SD_EEEbE4typeELb1EEEOSC_OSD_ = comdat any

$_ZNSt20__uninitialized_copyILb0EE13__uninit_copyISt13move_iteratorIP10ref_vectorI4expr11ast_managerEES7_EET0_T_SA_S9_ = comdat any

$_ZSt16__do_uninit_copyISt13move_iteratorIP10ref_vectorI4expr11ast_managerEES5_ET0_T_S8_S7_ = comdat any

$_ZStneIP10ref_vectorI4expr11ast_managerEEbRKSt13move_iteratorIT_ES9_ = comdat any

$_ZSt10_ConstructI10ref_vectorI4expr11ast_managerEJS3_EEvPT_DpOT0_ = comdat any

$_ZNKSt13move_iteratorIP10ref_vectorI4expr11ast_managerEEdeEv = comdat any

$_ZNSt13move_iteratorIP10ref_vectorI4expr11ast_managerEEppEv = comdat any

$_ZSt8_DestroyIP10ref_vectorI4expr11ast_managerEEvT_S5_ = comdat any

$_ZSteqIP10ref_vectorI4expr11ast_managerEEbRKSt13move_iteratorIT_ES9_ = comdat any

$_ZN10ref_vectorI4expr11ast_managerEC2EOS2_ = comdat any

$_ZN15ref_vector_coreI4expr19ref_manager_wrapperIS0_11ast_managerEEC2EOS4_ = comdat any

$_ZN10ptr_vectorI4exprEC2EOS1_ = comdat any

$_ZN6vectorIP4exprLb0EjEC2EOS2_ = comdat any

$_ZSt4swapIPP4exprENSt9enable_ifIXsr6__and_ISt6__not_ISt15__is_tuple_likeIT_EESt21is_move_constructibleIS6_ESt18is_move_assignableIS6_EEE5valueEvE4typeERS6_SF_ = comdat any

$_ZNSt12_Destroy_auxILb0EE9__destroyIP10ref_vectorI4expr11ast_managerEEEvT_S7_ = comdat any

$_ZSt8_DestroyI10ref_vectorI4expr11ast_managerEEvPT_ = comdat any

$_ZNSt13move_iteratorIP10ref_vectorI4expr11ast_managerEEC2ES4_ = comdat any

$_ZSt7advanceISt13move_iteratorIP10ref_vectorI4expr11ast_managerEElEvRT_T0_ = comdat any

$_ZSt9__advanceISt13move_iteratorIP10ref_vectorI4expr11ast_managerEElEvRT_T0_St26random_access_iterator_tag = comdat any

$_ZNSt13move_iteratorIP10ref_vectorI4expr11ast_managerEEmmEv = comdat any

$_ZNSt13move_iteratorIP10ref_vectorI4expr11ast_managerEEpLEl = comdat any

$_ZN6vectorI10ref_vectorI4expr11ast_managerELb1EjE16destroy_elementsEv = comdat any

$_ZN6vectorI10ref_vectorI4expr11ast_managerELb1EjE11free_memoryEv = comdat any

$_ZSt9destroy_nIP10ref_vectorI4expr11ast_managerEjET_S5_T0_ = comdat any

$_ZSt10_Destroy_nIP10ref_vectorI4expr11ast_managerEjET_S5_T0_ = comdat any

$_ZNSt14_Destroy_n_auxILb0EE11__destroy_nIP10ref_vectorI4expr11ast_managerEjEET_S7_T0_ = comdat any

$_ZN6vectorIP4exprLb0EjE6shrinkEj = comdat any

$_ZN6vectorIP3appLb0EjEC2Ev = comdat any

$_ZN6vectorIP3appLb0EjE13expand_vectorEv = comdat any

$_ZNK6vectorIP3appLb0EjE4sizeEv = comdat any

$_ZSt4swapIP3appENSt9enable_ifIXsr6__and_ISt6__not_ISt15__is_tuple_likeIT_EESt21is_move_constructibleIS5_ESt18is_move_assignableIS5_EEE5valueEvE4typeERS5_SE_ = comdat any

$_ZN6vectorI6symbolLb0EjE13expand_vectorEv = comdat any

$_ZNK6vectorI6symbolLb0EjE4sizeEv = comdat any

$_ZSt4swapI6symbolENSt9enable_ifIXsr6__and_ISt6__not_ISt15__is_tuple_likeIT_EESt21is_move_constructibleIS4_ESt18is_move_assignableIS4_EEE5valueEvE4typeERS4_SD_ = comdat any

$_ZTV12beta_reducer = comdat any

$_ZTS12beta_reducer = comdat any

$_ZTS12rewriter_tplI16beta_reducer_cfgE = comdat any

$_ZTI12rewriter_tplI16beta_reducer_cfgE = comdat any

$_ZTI12beta_reducer = comdat any

$_ZTV12rewriter_tplI16beta_reducer_cfgE = comdat any

$_ZTV16var_shifter_core = comdat any

$_ZTS16var_shifter_core = comdat any

$_ZTI16var_shifter_core = comdat any

$_ZTSSt18bad_variant_access = comdat any

$_ZTISt18bad_variant_access = comdat any

$_ZTVSt18bad_variant_access = comdat any

$_ZSt14in_place_indexILm1EE = comdat any

$_ZSt14in_place_indexILm0EE = comdat any

@_ZStL8__ioinit = internal global %"class.std::ios_base::Init" zeroinitializer, align 1
@__dso_handle = external hidden global i8
@.str = private unnamed_addr constant [119 x i8] c"generated/home/dtcxzyw/WorkSpace/Projects/compilers/llvm-opt-benchmark/bench/z3/z3/src/ast/rewriter/array_rewriter.cpp\00", align 1
@.str.1 = private unnamed_addr constant [29 x i8] c"UNEXPECTED CODE WAS REACHED.\00", align 1
@.str.2 = private unnamed_addr constant [9 x i8] c"rewriter\00", align 1
@.str.3 = private unnamed_addr constant [11 x i8] c"sort_store\00", align 1
@.str.4 = private unnamed_addr constant [20 x i8] c"expand_select_store\00", align 1
@.str.5 = private unnamed_addr constant [16 x i8] c"expand_store_eq\00", align 1
@.str.6 = private unnamed_addr constant [21 x i8] c"expand_nested_stores\00", align 1
@.str.7 = private unnamed_addr constant [19 x i8] c"blast_select_store\00", align 1
@.str.8 = private unnamed_addr constant [18 x i8] c"expand_select_ite\00", align 1
@.str.9 = private unnamed_addr constant [79 x i8] c"conservatively replace a (select (store ...) ...) term by an if-then-else term\00", align 1
@.str.10 = private unnamed_addr constant [6 x i8] c"false\00", align 1
@.str.11 = private unnamed_addr constant [72 x i8] c"eagerly replace all (select (store ..) ..) term by an if-then-else term\00", align 1
@.str.12 = private unnamed_addr constant [45 x i8] c"replace nested stores by a lambda expression\00", align 1
@.str.13 = private unnamed_addr constant [35 x i8] c"expand select over ite expressions\00", align 1
@.str.14 = private unnamed_addr constant [65 x i8] c"reduce (store ...) = (store ...) with a common base into selects\00", align 1
@.str.15 = private unnamed_addr constant [62 x i8] c"sort nested stores when the indices are known to be different\00", align 1
@_ZTV12beta_reducer = linkonce_odr hidden unnamed_addr constant { [4 x ptr] } { [4 x ptr] [ptr null, ptr @_ZTI12beta_reducer, ptr @_ZN12beta_reducerD2Ev, ptr @_ZN12beta_reducerD0Ev] }, comdat, align 8
@_ZTVN10__cxxabiv120__si_class_type_infoE = external global [0 x ptr]
@_ZTS12beta_reducer = linkonce_odr hidden constant [15 x i8] c"12beta_reducer\00", comdat, align 1
@_ZTS12rewriter_tplI16beta_reducer_cfgE = linkonce_odr hidden constant [35 x i8] c"12rewriter_tplI16beta_reducer_cfgE\00", comdat, align 1
@_ZTI13rewriter_core = external constant ptr
@_ZTI12rewriter_tplI16beta_reducer_cfgE = linkonce_odr hidden constant { ptr, ptr, ptr } { ptr getelementptr inbounds (ptr, ptr @_ZTVN10__cxxabiv120__si_class_type_infoE, i64 2), ptr @_ZTS12rewriter_tplI16beta_reducer_cfgE, ptr @_ZTI13rewriter_core }, comdat, align 8
@_ZTI12beta_reducer = linkonce_odr hidden constant { ptr, ptr, ptr } { ptr getelementptr inbounds (ptr, ptr @_ZTVN10__cxxabiv120__si_class_type_infoE, i64 2), ptr @_ZTS12beta_reducer, ptr @_ZTI12rewriter_tplI16beta_reducer_cfgE }, comdat, align 8
@_ZTV12rewriter_tplI16beta_reducer_cfgE = linkonce_odr hidden unnamed_addr constant { [4 x ptr] } { [4 x ptr] [ptr null, ptr @_ZTI12rewriter_tplI16beta_reducer_cfgE, ptr @_ZN12rewriter_tplI16beta_reducer_cfgED2Ev, ptr @_ZN12rewriter_tplI16beta_reducer_cfgED0Ev] }, comdat, align 8
@_ZTV11var_shifter = external unnamed_addr constant { [5 x ptr] }, align 8
@_ZTV16var_shifter_core = linkonce_odr hidden unnamed_addr constant { [5 x ptr] } { [5 x ptr] [ptr null, ptr @_ZTI16var_shifter_core, ptr @_ZN16var_shifter_coreD2Ev, ptr @_ZN16var_shifter_coreD0Ev, ptr @__cxa_pure_virtual] }, comdat, align 8
@_ZTS16var_shifter_core = linkonce_odr hidden constant [19 x i8] c"16var_shifter_core\00", comdat, align 1
@_ZTI16var_shifter_core = linkonce_odr hidden constant { ptr, ptr, ptr } { ptr getelementptr inbounds (ptr, ptr @_ZTVN10__cxxabiv120__si_class_type_infoE, i64 2), ptr @_ZTS16var_shifter_core, ptr @_ZTI13rewriter_core }, comdat, align 8
@_ZTV15inv_var_shifter = external unnamed_addr constant { [5 x ptr] }, align 8
@.str.16 = private unnamed_addr constant [31 x i8] c"std::get: variant is valueless\00", align 1
@.str.17 = private unnamed_addr constant [34 x i8] c"std::get: wrong index for variant\00", align 1
@_ZTSSt18bad_variant_access = linkonce_odr constant [23 x i8] c"St18bad_variant_access\00", comdat, align 1
@_ZTISt9exception = external constant ptr
@_ZTISt18bad_variant_access = linkonce_odr constant { ptr, ptr, ptr } { ptr getelementptr inbounds (ptr, ptr @_ZTVN10__cxxabiv120__si_class_type_infoE, i64 2), ptr @_ZTSSt18bad_variant_access, ptr @_ZTISt9exception }, comdat, align 8
@_ZTVSt18bad_variant_access = linkonce_odr unnamed_addr constant { [5 x ptr] } { [5 x ptr] [ptr null, ptr @_ZTISt18bad_variant_access, ptr @_ZNSt18bad_variant_accessD2Ev, ptr @_ZNSt18bad_variant_accessD0Ev, ptr @_ZNKSt18bad_variant_access4whatEv] }, comdat, align 8
@_ZTVSt9exception = external unnamed_addr constant { [5 x ptr] }, align 8
@_ZSt14in_place_indexILm1EE = linkonce_odr constant %"struct.std::in_place_index_t" zeroinitializer, comdat, align 1
@_ZSt14in_place_indexILm0EE = linkonce_odr constant %"struct.std::in_place_index_t.67" zeroinitializer, comdat, align 1
@_ZTV8ast_mark = external unnamed_addr constant { [6 x ptr] }, align 8
@_ZN3app16g_constant_flagsE = external global %struct.app_flags, align 4
@.str.18 = private unnamed_addr constant [43 x i8] c"Overflow encountered when expanding vector\00", align 1
@_ZTI17default_exception = external constant ptr
@.str.19 = private unnamed_addr constant [50 x i8] c"basic_string: construction from null is not valid\00", align 1
@_ZTV17default_exception = external unnamed_addr constant { [6 x ptr] }, align 8
@_ZTV12z3_exception = external unnamed_addr constant { [6 x ptr] }, align 8
@llvm.global_ctors = appending global [1 x { i32, ptr, ptr }] [{ i32, ptr, ptr } { i32 65535, ptr @_GLOBAL__sub_I_array_rewriter.cpp, ptr null }]

; Function Attrs: uwtable
define internal void @__cxx_global_var_init() #0 section ".text.startup" {
entry:
  call void @_ZNSt8ios_base4InitC1Ev(ptr noundef nonnull align 1 dereferenceable(1) @_ZStL8__ioinit)
  %0 = call i32 @__cxa_atexit(ptr @_ZNSt8ios_base4InitD1Ev, ptr @_ZStL8__ioinit, ptr @__dso_handle) #3
  ret void
}

declare void @_ZNSt8ios_base4InitC1Ev(ptr noundef nonnull align 1 dereferenceable(1)) unnamed_addr #1

; Function Attrs: nounwind
declare void @_ZNSt8ios_base4InitD1Ev(ptr noundef nonnull align 1 dereferenceable(1)) unnamed_addr #2

; Function Attrs: nounwind
declare i32 @__cxa_atexit(ptr, ptr, ptr) #3

; Function Attrs: mustprogress uwtable
define hidden void @_ZN14array_rewriter11updt_paramsERK10params_ref(ptr noundef nonnull align 8 dereferenceable(22) %this, ptr noundef nonnull align 8 dereferenceable(8) %_p) #4 align 2 personality ptr @__gxx_personality_v0 {
entry:
  %this.addr = alloca ptr, align 8
  %_p.addr = alloca ptr, align 8
  %p = alloca %struct.array_rewriter_params, align 8
  %exn.slot = alloca ptr, align 8
  %ehselector.slot = alloca i32, align 4
  store ptr %this, ptr %this.addr, align 8
  store ptr %_p, ptr %_p.addr, align 8
  %this1 = load ptr, ptr %this.addr, align 8
  %0 = load ptr, ptr %_p.addr, align 8
  call void @_ZN21array_rewriter_paramsC2ERK10params_ref(ptr noundef nonnull align 8 dereferenceable(16) %p, ptr noundef nonnull align 8 dereferenceable(8) %0)
  %call = invoke noundef zeroext i1 @_ZNK21array_rewriter_params10sort_storeEv(ptr noundef nonnull align 8 dereferenceable(16) %p)
          to label %invoke.cont unwind label %lpad

invoke.cont:                                      ; preds = %entry
  %m_sort_store = getelementptr inbounds %class.array_rewriter, ptr %this1, i32 0, i32 1
  %frombool = zext i1 %call to i8
  store i8 %frombool, ptr %m_sort_store, align 8
  %call3 = invoke noundef zeroext i1 @_ZNK21array_rewriter_params19expand_select_storeEv(ptr noundef nonnull align 8 dereferenceable(16) %p)
          to label %invoke.cont2 unwind label %lpad

invoke.cont2:                                     ; preds = %invoke.cont
  %m_expand_select_store = getelementptr inbounds %class.array_rewriter, ptr %this1, i32 0, i32 3
  %frombool4 = zext i1 %call3 to i8
  store i8 %frombool4, ptr %m_expand_select_store, align 2
  %call6 = invoke noundef zeroext i1 @_ZNK21array_rewriter_params15expand_store_eqEv(ptr noundef nonnull align 8 dereferenceable(16) %p)
          to label %invoke.cont5 unwind label %lpad

invoke.cont5:                                     ; preds = %invoke.cont2
  %m_expand_store_eq = getelementptr inbounds %class.array_rewriter, ptr %this1, i32 0, i32 4
  %frombool7 = zext i1 %call6 to i8
  store i8 %frombool7, ptr %m_expand_store_eq, align 1
  %call9 = invoke noundef zeroext i1 @_ZNK21array_rewriter_params20expand_nested_storesEv(ptr noundef nonnull align 8 dereferenceable(16) %p)
          to label %invoke.cont8 unwind label %lpad

invoke.cont8:                                     ; preds = %invoke.cont5
  %m_expand_nested_stores = getelementptr inbounds %class.array_rewriter, ptr %this1, i32 0, i32 6
  %frombool10 = zext i1 %call9 to i8
  store i8 %frombool10, ptr %m_expand_nested_stores, align 1
  %call12 = invoke noundef zeroext i1 @_ZNK21array_rewriter_params18blast_select_storeEv(ptr noundef nonnull align 8 dereferenceable(16) %p)
          to label %invoke.cont11 unwind label %lpad

invoke.cont11:                                    ; preds = %invoke.cont8
  %m_blast_select_store = getelementptr inbounds %class.array_rewriter, ptr %this1, i32 0, i32 2
  %frombool13 = zext i1 %call12 to i8
  store i8 %frombool13, ptr %m_blast_select_store, align 1
  %call15 = invoke noundef zeroext i1 @_ZNK21array_rewriter_params17expand_select_iteEv(ptr noundef nonnull align 8 dereferenceable(16) %p)
          to label %invoke.cont14 unwind label %lpad

invoke.cont14:                                    ; preds = %invoke.cont11
  %m_expand_select_ite = getelementptr inbounds %class.array_rewriter, ptr %this1, i32 0, i32 5
  %frombool16 = zext i1 %call15 to i8
  store i8 %frombool16, ptr %m_expand_select_ite, align 4
  call void @_ZN21array_rewriter_paramsD2Ev(ptr noundef nonnull align 8 dereferenceable(16) %p) #3
  ret void

lpad:                                             ; preds = %invoke.cont11, %invoke.cont8, %invoke.cont5, %invoke.cont2, %invoke.cont, %entry
  %1 = landingpad { ptr, i32 }
          cleanup
  %2 = extractvalue { ptr, i32 } %1, 0
  store ptr %2, ptr %exn.slot, align 8
  %3 = extractvalue { ptr, i32 } %1, 1
  store i32 %3, ptr %ehselector.slot, align 4
  call void @_ZN21array_rewriter_paramsD2Ev(ptr noundef nonnull align 8 dereferenceable(16) %p) #3
  br label %eh.resume

eh.resume:                                        ; preds = %lpad
  %exn = load ptr, ptr %exn.slot, align 8
  %sel = load i32, ptr %ehselector.slot, align 4
  %lpad.val = insertvalue { ptr, i32 } poison, ptr %exn, 0
  %lpad.val17 = insertvalue { ptr, i32 } %lpad.val, i32 %sel, 1
  resume { ptr, i32 } %lpad.val17
}

; Function Attrs: mustprogress uwtable
define linkonce_odr hidden void @_ZN21array_rewriter_paramsC2ERK10params_ref(ptr noundef nonnull align 8 dereferenceable(16) %this, ptr noundef nonnull align 8 dereferenceable(8) %_p) unnamed_addr #4 comdat align 2 {
entry:
  %this.addr = alloca ptr, align 8
  %_p.addr = alloca ptr, align 8
  store ptr %this, ptr %this.addr, align 8
  store ptr %_p, ptr %_p.addr, align 8
  %this1 = load ptr, ptr %this.addr, align 8
  %p = getelementptr inbounds %struct.array_rewriter_params, ptr %this1, i32 0, i32 0
  %0 = load ptr, ptr %_p.addr, align 8
  store ptr %0, ptr %p, align 8
  %g = getelementptr inbounds %struct.array_rewriter_params, ptr %this1, i32 0, i32 1
  call void @_ZN7gparams10get_moduleEPKc(ptr sret(%class.params_ref) align 8 %g, ptr noundef @.str.2)
  ret void
}

; Function Attrs: mustprogress uwtable
define linkonce_odr hidden noundef zeroext i1 @_ZNK21array_rewriter_params10sort_storeEv(ptr noundef nonnull align 8 dereferenceable(16) %this) #4 comdat align 2 {
entry:
  %this.addr = alloca ptr, align 8
  store ptr %this, ptr %this.addr, align 8
  %this1 = load ptr, ptr %this.addr, align 8
  %p = getelementptr inbounds %struct.array_rewriter_params, ptr %this1, i32 0, i32 0
  %0 = load ptr, ptr %p, align 8
  %g = getelementptr inbounds %struct.array_rewriter_params, ptr %this1, i32 0, i32 1
  %call = call noundef zeroext i1 @_ZNK10params_ref8get_boolEPKcRKS_b(ptr noundef nonnull align 8 dereferenceable(8) %0, ptr noundef @.str.3, ptr noundef nonnull align 8 dereferenceable(8) %g, i1 noundef zeroext false)
  ret i1 %call
}

declare i32 @__gxx_personality_v0(...)

; Function Attrs: mustprogress uwtable
define linkonce_odr hidden noundef zeroext i1 @_ZNK21array_rewriter_params19expand_select_storeEv(ptr noundef nonnull align 8 dereferenceable(16) %this) #4 comdat align 2 {
entry:
  %this.addr = alloca ptr, align 8
  store ptr %this, ptr %this.addr, align 8
  %this1 = load ptr, ptr %this.addr, align 8
  %p = getelementptr inbounds %struct.array_rewriter_params, ptr %this1, i32 0, i32 0
  %0 = load ptr, ptr %p, align 8
  %g = getelementptr inbounds %struct.array_rewriter_params, ptr %this1, i32 0, i32 1
  %call = call noundef zeroext i1 @_ZNK10params_ref8get_boolEPKcRKS_b(ptr noundef nonnull align 8 dereferenceable(8) %0, ptr noundef @.str.4, ptr noundef nonnull align 8 dereferenceable(8) %g, i1 noundef zeroext false)
  ret i1 %call
}

; Function Attrs: mustprogress uwtable
define linkonce_odr hidden noundef zeroext i1 @_ZNK21array_rewriter_params15expand_store_eqEv(ptr noundef nonnull align 8 dereferenceable(16) %this) #4 comdat align 2 {
entry:
  %this.addr = alloca ptr, align 8
  store ptr %this, ptr %this.addr, align 8
  %this1 = load ptr, ptr %this.addr, align 8
  %p = getelementptr inbounds %struct.array_rewriter_params, ptr %this1, i32 0, i32 0
  %0 = load ptr, ptr %p, align 8
  %g = getelementptr inbounds %struct.array_rewriter_params, ptr %this1, i32 0, i32 1
  %call = call noundef zeroext i1 @_ZNK10params_ref8get_boolEPKcRKS_b(ptr noundef nonnull align 8 dereferenceable(8) %0, ptr noundef @.str.5, ptr noundef nonnull align 8 dereferenceable(8) %g, i1 noundef zeroext false)
  ret i1 %call
}

; Function Attrs: mustprogress uwtable
define linkonce_odr hidden noundef zeroext i1 @_ZNK21array_rewriter_params20expand_nested_storesEv(ptr noundef nonnull align 8 dereferenceable(16) %this) #4 comdat align 2 {
entry:
  %this.addr = alloca ptr, align 8
  store ptr %this, ptr %this.addr, align 8
  %this1 = load ptr, ptr %this.addr, align 8
  %p = getelementptr inbounds %struct.array_rewriter_params, ptr %this1, i32 0, i32 0
  %0 = load ptr, ptr %p, align 8
  %g = getelementptr inbounds %struct.array_rewriter_params, ptr %this1, i32 0, i32 1
  %call = call noundef zeroext i1 @_ZNK10params_ref8get_boolEPKcRKS_b(ptr noundef nonnull align 8 dereferenceable(8) %0, ptr noundef @.str.6, ptr noundef nonnull align 8 dereferenceable(8) %g, i1 noundef zeroext false)
  ret i1 %call
}

; Function Attrs: mustprogress uwtable
define linkonce_odr hidden noundef zeroext i1 @_ZNK21array_rewriter_params18blast_select_storeEv(ptr noundef nonnull align 8 dereferenceable(16) %this) #4 comdat align 2 {
entry:
  %this.addr = alloca ptr, align 8
  store ptr %this, ptr %this.addr, align 8
  %this1 = load ptr, ptr %this.addr, align 8
  %p = getelementptr inbounds %struct.array_rewriter_params, ptr %this1, i32 0, i32 0
  %0 = load ptr, ptr %p, align 8
  %g = getelementptr inbounds %struct.array_rewriter_params, ptr %this1, i32 0, i32 1
  %call = call noundef zeroext i1 @_ZNK10params_ref8get_boolEPKcRKS_b(ptr noundef nonnull align 8 dereferenceable(8) %0, ptr noundef @.str.7, ptr noundef nonnull align 8 dereferenceable(8) %g, i1 noundef zeroext false)
  ret i1 %call
}

; Function Attrs: mustprogress uwtable
define linkonce_odr hidden noundef zeroext i1 @_ZNK21array_rewriter_params17expand_select_iteEv(ptr noundef nonnull align 8 dereferenceable(16) %this) #4 comdat align 2 {
entry:
  %this.addr = alloca ptr, align 8
  store ptr %this, ptr %this.addr, align 8
  %this1 = load ptr, ptr %this.addr, align 8
  %p = getelementptr inbounds %struct.array_rewriter_params, ptr %this1, i32 0, i32 0
  %0 = load ptr, ptr %p, align 8
  %g = getelementptr inbounds %struct.array_rewriter_params, ptr %this1, i32 0, i32 1
  %call = call noundef zeroext i1 @_ZNK10params_ref8get_boolEPKcRKS_b(ptr noundef nonnull align 8 dereferenceable(8) %0, ptr noundef @.str.8, ptr noundef nonnull align 8 dereferenceable(8) %g, i1 noundef zeroext false)
  ret i1 %call
}

; Function Attrs: mustprogress nounwind uwtable
define linkonce_odr hidden void @_ZN21array_rewriter_paramsD2Ev(ptr noundef nonnull align 8 dereferenceable(16) %this) unnamed_addr #5 comdat align 2 {
entry:
  %this.addr = alloca ptr, align 8
  store ptr %this, ptr %this.addr, align 8
  %this1 = load ptr, ptr %this.addr, align 8
  %g = getelementptr inbounds %struct.array_rewriter_params, ptr %this1, i32 0, i32 1
  call void @_ZN10params_refD1Ev(ptr noundef nonnull align 8 dereferenceable(8) %g) #3
  ret void
}

; Function Attrs: mustprogress uwtable
define hidden void @_ZN14array_rewriter16get_param_descrsER12param_descrs(ptr noundef nonnull align 8 dereferenceable(8) %r) #4 align 2 {
entry:
  %r.addr = alloca ptr, align 8
  store ptr %r, ptr %r.addr, align 8
  %0 = load ptr, ptr %r.addr, align 8
  call void @_ZN21array_rewriter_params20collect_param_descrsER12param_descrs(ptr noundef nonnull align 8 dereferenceable(8) %0)
  ret void
}

; Function Attrs: mustprogress uwtable
define linkonce_odr hidden void @_ZN21array_rewriter_params20collect_param_descrsER12param_descrs(ptr noundef nonnull align 8 dereferenceable(8) %d) #4 comdat align 2 {
entry:
  %d.addr = alloca ptr, align 8
  store ptr %d, ptr %d.addr, align 8
  %0 = load ptr, ptr %d.addr, align 8
  call void @_ZN12param_descrs6insertEPKc12cmd_arg_kindS1_S1_S1_(ptr noundef nonnull align 8 dereferenceable(8) %0, ptr noundef @.str.4, i32 noundef 1, ptr noundef @.str.9, ptr noundef @.str.10, ptr noundef @.str.2)
  %1 = load ptr, ptr %d.addr, align 8
  call void @_ZN12param_descrs6insertEPKc12cmd_arg_kindS1_S1_S1_(ptr noundef nonnull align 8 dereferenceable(8) %1, ptr noundef @.str.7, i32 noundef 1, ptr noundef @.str.11, ptr noundef @.str.10, ptr noundef @.str.2)
  %2 = load ptr, ptr %d.addr, align 8
  call void @_ZN12param_descrs6insertEPKc12cmd_arg_kindS1_S1_S1_(ptr noundef nonnull align 8 dereferenceable(8) %2, ptr noundef @.str.6, i32 noundef 1, ptr noundef @.str.12, ptr noundef @.str.10, ptr noundef @.str.2)
  %3 = load ptr, ptr %d.addr, align 8
  call void @_ZN12param_descrs6insertEPKc12cmd_arg_kindS1_S1_S1_(ptr noundef nonnull align 8 dereferenceable(8) %3, ptr noundef @.str.8, i32 noundef 1, ptr noundef @.str.13, ptr noundef @.str.10, ptr noundef @.str.2)
  %4 = load ptr, ptr %d.addr, align 8
  call void @_ZN12param_descrs6insertEPKc12cmd_arg_kindS1_S1_S1_(ptr noundef nonnull align 8 dereferenceable(8) %4, ptr noundef @.str.5, i32 noundef 1, ptr noundef @.str.14, ptr noundef @.str.10, ptr noundef @.str.2)
  %5 = load ptr, ptr %d.addr, align 8
  call void @_ZN12param_descrs6insertEPKc12cmd_arg_kindS1_S1_S1_(ptr noundef nonnull align 8 dereferenceable(8) %5, ptr noundef @.str.3, i32 noundef 1, ptr noundef @.str.15, ptr noundef @.str.10, ptr noundef @.str.2)
  ret void
}

; Function Attrs: mustprogress uwtable
define hidden noundef i32 @_ZN14array_rewriter11mk_app_coreEP9func_decljPKP4exprR7obj_refIS2_11ast_managerE(ptr noundef nonnull align 8 dereferenceable(22) %this, ptr noundef %f, i32 noundef %num_args, ptr noundef %args, ptr noundef nonnull align 8 dereferenceable(16) %result) #4 align 2 personality ptr @__gxx_personality_v0 {
entry:
  %retval = alloca i32, align 4
  %this.addr = alloca ptr, align 8
  %f.addr = alloca ptr, align 8
  %num_args.addr = alloca i32, align 4
  %args.addr = alloca ptr, align 8
  %result.addr = alloca ptr, align 8
  %st = alloca i32, align 4
  %e0 = alloca ptr, align 8
  %e1 = alloca ptr, align 8
  %a = alloca %class.obj_ref, align 8
  %val = alloca %class.obj_ref, align 8
  %exn.slot = alloca ptr, align 8
  %ehselector.slot = alloca i32, align 4
  %vindex = alloca %class.ref_vector, align 8
  %all_eq = alloca i8, align 1
  %i = alloca i32, align 4
  %sz = alloca i32, align 4
  store ptr %this, ptr %this.addr, align 8
  store ptr %f, ptr %f.addr, align 8
  store i32 %num_args, ptr %num_args.addr, align 4
  store ptr %args, ptr %args.addr, align 8
  store ptr %result, ptr %result.addr, align 8
  %this1 = load ptr, ptr %this.addr, align 8
  store i32 5, ptr %st, align 4
  %0 = load ptr, ptr %f.addr, align 8
  %call = call noundef zeroext i1 @_Z13is_partial_eqPK9func_decl(ptr noundef %0)
  br i1 %call, label %if.then, label %if.end74

if.then:                                          ; preds = %entry
  %1 = load ptr, ptr %args.addr, align 8
  %arrayidx = getelementptr inbounds ptr, ptr %1, i64 0
  %2 = load ptr, ptr %arrayidx, align 8
  store ptr %2, ptr %e0, align 8
  %3 = load ptr, ptr %args.addr, align 8
  %arrayidx2 = getelementptr inbounds ptr, ptr %3, i64 1
  %4 = load ptr, ptr %arrayidx2, align 8
  store ptr %4, ptr %e1, align 8
  %call3 = call noundef nonnull align 8 dereferenceable(976) ptr @_ZNK14array_rewriter1mEv(ptr noundef nonnull align 8 dereferenceable(22) %this1)
  call void @_ZN7obj_refI4expr11ast_managerEC2ERS1_(ptr noundef nonnull align 8 dereferenceable(16) %a, ptr noundef nonnull align 8 dereferenceable(976) %call3)
  %call4 = invoke noundef nonnull align 8 dereferenceable(976) ptr @_ZNK14array_rewriter1mEv(ptr noundef nonnull align 8 dereferenceable(22) %this1)
          to label %invoke.cont unwind label %lpad

invoke.cont:                                      ; preds = %if.then
  invoke void @_ZN7obj_refI4expr11ast_managerEC2ERS1_(ptr noundef nonnull align 8 dereferenceable(16) %val, ptr noundef nonnull align 8 dereferenceable(976) %call4)
          to label %invoke.cont5 unwind label %lpad

invoke.cont5:                                     ; preds = %invoke.cont
  %call8 = invoke noundef nonnull align 8 dereferenceable(976) ptr @_ZNK14array_rewriter1mEv(ptr noundef nonnull align 8 dereferenceable(22) %this1)
          to label %invoke.cont7 unwind label %lpad6

invoke.cont7:                                     ; preds = %invoke.cont5
  invoke void @_ZN10ref_vectorI4expr11ast_managerEC2ERS1_(ptr noundef nonnull align 8 dereferenceable(16) %vindex, ptr noundef nonnull align 8 dereferenceable(976) %call8)
          to label %invoke.cont9 unwind label %lpad6

invoke.cont9:                                     ; preds = %invoke.cont7
  %5 = load ptr, ptr %e0, align 8
  %6 = load ptr, ptr %e1, align 8
  %cmp = icmp eq ptr %5, %6
  br i1 %cmp, label %if.then10, label %if.else

if.then10:                                        ; preds = %invoke.cont9
  %call13 = invoke noundef nonnull align 8 dereferenceable(976) ptr @_ZNK14array_rewriter1mEv(ptr noundef nonnull align 8 dereferenceable(22) %this1)
          to label %invoke.cont12 unwind label %lpad11

invoke.cont12:                                    ; preds = %if.then10
  %call15 = invoke noundef ptr @_ZNK11ast_manager7mk_trueEv(ptr noundef nonnull align 8 dereferenceable(976) %call13)
          to label %invoke.cont14 unwind label %lpad11

invoke.cont14:                                    ; preds = %invoke.cont12
  %7 = load ptr, ptr %result.addr, align 8
  %call17 = invoke noundef nonnull align 8 dereferenceable(16) ptr @_ZN7obj_refI4expr11ast_managerEaSEPS0_(ptr noundef nonnull align 8 dereferenceable(16) %7, ptr noundef %call15)
          to label %invoke.cont16 unwind label %lpad11

invoke.cont16:                                    ; preds = %invoke.cont14
  store i32 4, ptr %st, align 4
  br label %if.end72

lpad:                                             ; preds = %invoke.cont, %if.then
  %8 = landingpad { ptr, i32 }
          cleanup
  %9 = extractvalue { ptr, i32 } %8, 0
  store ptr %9, ptr %exn.slot, align 8
  %10 = extractvalue { ptr, i32 } %8, 1
  store i32 %10, ptr %ehselector.slot, align 4
  br label %ehcleanup73

lpad6:                                            ; preds = %invoke.cont7, %invoke.cont5
  %11 = landingpad { ptr, i32 }
          cleanup
  %12 = extractvalue { ptr, i32 } %11, 0
  store ptr %12, ptr %exn.slot, align 8
  %13 = extractvalue { ptr, i32 } %11, 1
  store i32 %13, ptr %ehselector.slot, align 4
  br label %ehcleanup

lpad11:                                           ; preds = %invoke.cont65, %invoke.cont63, %if.then62, %for.body, %if.then49, %land.lhs.true45, %if.else41, %invoke.cont37, %invoke.cont35, %invoke.cont33, %invoke.cont31, %invoke.cont30, %invoke.cont28, %invoke.cont26, %if.then25, %land.lhs.true, %if.else, %invoke.cont14, %invoke.cont12, %if.then10
  %14 = landingpad { ptr, i32 }
          cleanup
  %15 = extractvalue { ptr, i32 } %14, 0
  store ptr %15, ptr %exn.slot, align 8
  %16 = extractvalue { ptr, i32 } %14, 1
  store i32 %16, ptr %ehselector.slot, align 4
  call void @_ZN10ref_vectorI4expr11ast_managerED2Ev(ptr noundef nonnull align 8 dereferenceable(16) %vindex) #3
  br label %ehcleanup

if.else:                                          ; preds = %invoke.cont9
  %m_util = getelementptr inbounds %class.array_rewriter, ptr %this1, i32 0, i32 0
  %17 = load ptr, ptr %e0, align 8
  %call19 = invoke noundef zeroext i1 @_ZN17array_recognizers12is_store_extEP4exprR7obj_refIS0_11ast_managerER10ref_vectorIS0_S3_ES5_(ptr noundef nonnull align 4 dereferenceable(4) %m_util, ptr noundef %17, ptr noundef nonnull align 8 dereferenceable(16) %a, ptr noundef nonnull align 8 dereferenceable(16) %vindex, ptr noundef nonnull align 8 dereferenceable(16) %val)
          to label %invoke.cont18 unwind label %lpad11

invoke.cont18:                                    ; preds = %if.else
  br i1 %call19, label %if.then20, label %if.end71

if.then20:                                        ; preds = %invoke.cont18
  %18 = load i32, ptr %num_args.addr, align 4
  %cmp21 = icmp eq i32 %18, 2
  br i1 %cmp21, label %land.lhs.true, label %if.else41

land.lhs.true:                                    ; preds = %if.then20
  %call23 = invoke noundef ptr @_ZNK7obj_refI4expr11ast_managerEcvPS0_Ev(ptr noundef nonnull align 8 dereferenceable(16) %a)
          to label %invoke.cont22 unwind label %lpad11

invoke.cont22:                                    ; preds = %land.lhs.true
  %19 = load ptr, ptr %e1, align 8
  %cmp24 = icmp eq ptr %call23, %19
  br i1 %cmp24, label %if.then25, label %if.else41

if.then25:                                        ; preds = %invoke.cont22
  %call27 = invoke noundef i32 @_ZNK15ref_vector_coreI4expr19ref_manager_wrapperIS0_11ast_managerEE4sizeEv(ptr noundef nonnull align 8 dereferenceable(16) %vindex)
          to label %invoke.cont26 unwind label %lpad11

invoke.cont26:                                    ; preds = %if.then25
  %call29 = invoke noundef ptr @_ZN15ref_vector_coreI4expr19ref_manager_wrapperIS0_11ast_managerEE4dataEv(ptr noundef nonnull align 8 dereferenceable(16) %vindex)
          to label %invoke.cont28 unwind label %lpad11

invoke.cont28:                                    ; preds = %invoke.cont26
  %20 = load ptr, ptr %result.addr, align 8
  invoke void @_ZN14array_rewriter9mk_selectEjPKP4exprR7obj_refIS0_11ast_managerE(ptr noundef nonnull align 8 dereferenceable(22) %this1, i32 noundef %call27, ptr noundef %call29, ptr noundef nonnull align 8 dereferenceable(16) %20)
          to label %invoke.cont30 unwind label %lpad11

invoke.cont30:                                    ; preds = %invoke.cont28
  %call32 = invoke noundef nonnull align 8 dereferenceable(976) ptr @_ZNK14array_rewriter1mEv(ptr noundef nonnull align 8 dereferenceable(22) %this1)
          to label %invoke.cont31 unwind label %lpad11

invoke.cont31:                                    ; preds = %invoke.cont30
  %21 = load ptr, ptr %result.addr, align 8
  %call34 = invoke noundef ptr @_ZNK7obj_refI4expr11ast_managerEcvPS0_Ev(ptr noundef nonnull align 8 dereferenceable(16) %21)
          to label %invoke.cont33 unwind label %lpad11

invoke.cont33:                                    ; preds = %invoke.cont31
  %call36 = invoke noundef ptr @_ZNK7obj_refI4expr11ast_managerEcvPS0_Ev(ptr noundef nonnull align 8 dereferenceable(16) %val)
          to label %invoke.cont35 unwind label %lpad11

invoke.cont35:                                    ; preds = %invoke.cont33
  %call38 = invoke noundef ptr @_ZN11ast_manager5mk_eqEP4exprS1_(ptr noundef nonnull align 8 dereferenceable(976) %call32, ptr noundef %call34, ptr noundef %call36)
          to label %invoke.cont37 unwind label %lpad11

invoke.cont37:                                    ; preds = %invoke.cont35
  %22 = load ptr, ptr %result.addr, align 8
  %call40 = invoke noundef nonnull align 8 dereferenceable(16) ptr @_ZN7obj_refI4expr11ast_managerEaSEPS0_(ptr noundef nonnull align 8 dereferenceable(16) %22, ptr noundef %call38)
          to label %invoke.cont39 unwind label %lpad11

invoke.cont39:                                    ; preds = %invoke.cont37
  store i32 3, ptr %st, align 4
  br label %if.end70

if.else41:                                        ; preds = %invoke.cont22, %if.then20
  %call43 = invoke noundef ptr @_ZNK7obj_refI4expr11ast_managerEcvPS0_Ev(ptr noundef nonnull align 8 dereferenceable(16) %a)
          to label %invoke.cont42 unwind label %lpad11

invoke.cont42:                                    ; preds = %if.else41
  %23 = load ptr, ptr %e1, align 8
  %cmp44 = icmp eq ptr %call43, %23
  br i1 %cmp44, label %land.lhs.true45, label %if.end69

land.lhs.true45:                                  ; preds = %invoke.cont42
  %call47 = invoke noundef i32 @_ZNK15ref_vector_coreI4expr19ref_manager_wrapperIS0_11ast_managerEE4sizeEv(ptr noundef nonnull align 8 dereferenceable(16) %vindex)
          to label %invoke.cont46 unwind label %lpad11

invoke.cont46:                                    ; preds = %land.lhs.true45
  %24 = load i32, ptr %num_args.addr, align 4
  %add = add i32 %24, 2
  %cmp48 = icmp eq i32 %call47, %add
  br i1 %cmp48, label %if.then49, label %if.end69

if.then49:                                        ; preds = %invoke.cont46
  store i8 1, ptr %all_eq, align 1
  store i32 0, ptr %i, align 4
  %call51 = invoke noundef i32 @_ZNK15ref_vector_coreI4expr19ref_manager_wrapperIS0_11ast_managerEE4sizeEv(ptr noundef nonnull align 8 dereferenceable(16) %vindex)
          to label %invoke.cont50 unwind label %lpad11

invoke.cont50:                                    ; preds = %if.then49
  store i32 %call51, ptr %sz, align 4
  br label %for.cond

for.cond:                                         ; preds = %for.inc, %invoke.cont50
  %25 = load i8, ptr %all_eq, align 1
  %tobool = trunc i8 %25 to i1
  br i1 %tobool, label %land.rhs, label %land.end

land.rhs:                                         ; preds = %for.cond
  %26 = load i32, ptr %i, align 4
  %27 = load i32, ptr %sz, align 4
  %cmp52 = icmp ult i32 %26, %27
  br label %land.end

land.end:                                         ; preds = %land.rhs, %for.cond
  %28 = phi i1 [ false, %for.cond ], [ %cmp52, %land.rhs ]
  br i1 %28, label %for.body, label %for.end

for.body:                                         ; preds = %land.end
  %29 = load i32, ptr %i, align 4
  %call54 = invoke noundef ptr @_ZNK15ref_vector_coreI4expr19ref_manager_wrapperIS0_11ast_managerEE3getEj(ptr noundef nonnull align 8 dereferenceable(16) %vindex, i32 noundef %29)
          to label %invoke.cont53 unwind label %lpad11

invoke.cont53:                                    ; preds = %for.body
  %30 = load ptr, ptr %args.addr, align 8
  %31 = load i32, ptr %i, align 4
  %add55 = add i32 2, %31
  %idxprom = zext i32 %add55 to i64
  %arrayidx56 = getelementptr inbounds ptr, ptr %30, i64 %idxprom
  %32 = load ptr, ptr %arrayidx56, align 8
  %cmp57 = icmp eq ptr %call54, %32
  %conv = zext i1 %cmp57 to i32
  %33 = load i8, ptr %all_eq, align 1
  %tobool58 = trunc i8 %33 to i1
  %conv59 = zext i1 %tobool58 to i32
  %and = and i32 %conv59, %conv
  %tobool60 = icmp ne i32 %and, 0
  %frombool = zext i1 %tobool60 to i8
  store i8 %frombool, ptr %all_eq, align 1
  br label %for.inc

for.inc:                                          ; preds = %invoke.cont53
  %34 = load i32, ptr %i, align 4
  %inc = add i32 %34, 1
  store i32 %inc, ptr %i, align 4
  br label %for.cond, !llvm.loop !4

for.end:                                          ; preds = %land.end
  %35 = load i8, ptr %all_eq, align 1
  %tobool61 = trunc i8 %35 to i1
  br i1 %tobool61, label %if.then62, label %if.end

if.then62:                                        ; preds = %for.end
  %call64 = invoke noundef nonnull align 8 dereferenceable(976) ptr @_ZNK14array_rewriter1mEv(ptr noundef nonnull align 8 dereferenceable(22) %this1)
          to label %invoke.cont63 unwind label %lpad11

invoke.cont63:                                    ; preds = %if.then62
  %call66 = invoke noundef ptr @_ZNK11ast_manager7mk_trueEv(ptr noundef nonnull align 8 dereferenceable(976) %call64)
          to label %invoke.cont65 unwind label %lpad11

invoke.cont65:                                    ; preds = %invoke.cont63
  %36 = load ptr, ptr %result.addr, align 8
  %call68 = invoke noundef nonnull align 8 dereferenceable(16) ptr @_ZN7obj_refI4expr11ast_managerEaSEPS0_(ptr noundef nonnull align 8 dereferenceable(16) %36, ptr noundef %call66)
          to label %invoke.cont67 unwind label %lpad11

invoke.cont67:                                    ; preds = %invoke.cont65
  store i32 4, ptr %st, align 4
  br label %if.end

if.end:                                           ; preds = %invoke.cont67, %for.end
  br label %if.end69

if.end69:                                         ; preds = %if.end, %invoke.cont46, %invoke.cont42
  br label %if.end70

if.end70:                                         ; preds = %if.end69, %invoke.cont39
  br label %if.end71

if.end71:                                         ; preds = %if.end70, %invoke.cont18
  br label %if.end72

if.end72:                                         ; preds = %if.end71, %invoke.cont16
  %37 = load i32, ptr %st, align 4
  store i32 %37, ptr %retval, align 4
  call void @_ZN10ref_vectorI4expr11ast_managerED2Ev(ptr noundef nonnull align 8 dereferenceable(16) %vindex) #3
  call void @_ZN7obj_refI4expr11ast_managerED2Ev(ptr noundef nonnull align 8 dereferenceable(16) %val) #3
  call void @_ZN7obj_refI4expr11ast_managerED2Ev(ptr noundef nonnull align 8 dereferenceable(16) %a) #3
  br label %return

ehcleanup:                                        ; preds = %lpad11, %lpad6
  call void @_ZN7obj_refI4expr11ast_managerED2Ev(ptr noundef nonnull align 8 dereferenceable(16) %val) #3
  br label %ehcleanup73

ehcleanup73:                                      ; preds = %ehcleanup, %lpad
  call void @_ZN7obj_refI4expr11ast_managerED2Ev(ptr noundef nonnull align 8 dereferenceable(16) %a) #3
  br label %eh.resume

if.end74:                                         ; preds = %entry
  %38 = load ptr, ptr %f.addr, align 8
  %call75 = call noundef i32 @_ZNK4decl13get_decl_kindEv(ptr noundef nonnull align 8 dereferenceable(32) %38)
  switch i32 %call75, label %sw.default [
    i32 1, label %sw.bb
    i32 0, label %sw.bb77
    i32 5, label %sw.bb79
    i32 6, label %sw.bb83
    i32 7, label %sw.bb85
    i32 10, label %sw.bb87
    i32 9, label %sw.bb91
    i32 8, label %sw.bb94
  ]

sw.bb:                                            ; preds = %if.end74
  %39 = load i32, ptr %num_args.addr, align 4
  %40 = load ptr, ptr %args.addr, align 8
  %41 = load ptr, ptr %result.addr, align 8
  %call76 = call noundef i32 @_ZN14array_rewriter14mk_select_coreEjPKP4exprR7obj_refIS0_11ast_managerE(ptr noundef nonnull align 8 dereferenceable(22) %this1, i32 noundef %39, ptr noundef %40, ptr noundef nonnull align 8 dereferenceable(16) %41)
  store i32 %call76, ptr %st, align 4
  br label %sw.epilog

sw.bb77:                                          ; preds = %if.end74
  %42 = load i32, ptr %num_args.addr, align 4
  %43 = load ptr, ptr %args.addr, align 8
  %44 = load ptr, ptr %result.addr, align 8
  %call78 = call noundef i32 @_ZN14array_rewriter13mk_store_coreEjPKP4exprR7obj_refIS0_11ast_managerE(ptr noundef nonnull align 8 dereferenceable(22) %this1, i32 noundef %42, ptr noundef %43, ptr noundef nonnull align 8 dereferenceable(16) %44)
  store i32 %call78, ptr %st, align 4
  br label %sw.epilog

sw.bb79:                                          ; preds = %if.end74
  %m_util80 = getelementptr inbounds %class.array_rewriter, ptr %this1, i32 0, i32 0
  %45 = load ptr, ptr %f.addr, align 8
  %call81 = call noundef ptr @_ZNK17array_recognizers17get_map_func_declEP9func_decl(ptr noundef nonnull align 4 dereferenceable(4) %m_util80, ptr noundef %45)
  %46 = load i32, ptr %num_args.addr, align 4
  %47 = load ptr, ptr %args.addr, align 8
  %48 = load ptr, ptr %result.addr, align 8
  %call82 = call noundef i32 @_ZN14array_rewriter11mk_map_coreEP9func_decljPKP4exprR7obj_refIS2_11ast_managerE(ptr noundef nonnull align 8 dereferenceable(22) %this1, ptr noundef %call81, i32 noundef %46, ptr noundef %47, ptr noundef nonnull align 8 dereferenceable(16) %48)
  store i32 %call82, ptr %st, align 4
  br label %sw.epilog

sw.bb83:                                          ; preds = %if.end74
  %49 = load i32, ptr %num_args.addr, align 4
  %50 = load ptr, ptr %args.addr, align 8
  %51 = load ptr, ptr %result.addr, align 8
  %call84 = call noundef i32 @_ZN14array_rewriter12mk_set_unionEjPKP4exprR7obj_refIS0_11ast_managerE(ptr noundef nonnull align 8 dereferenceable(22) %this1, i32 noundef %49, ptr noundef %50, ptr noundef nonnull align 8 dereferenceable(16) %51)
  store i32 %call84, ptr %st, align 4
  br label %sw.epilog

sw.bb85:                                          ; preds = %if.end74
  %52 = load i32, ptr %num_args.addr, align 4
  %53 = load ptr, ptr %args.addr, align 8
  %54 = load ptr, ptr %result.addr, align 8
  %call86 = call noundef i32 @_ZN14array_rewriter16mk_set_intersectEjPKP4exprR7obj_refIS0_11ast_managerE(ptr noundef nonnull align 8 dereferenceable(22) %this1, i32 noundef %52, ptr noundef %53, ptr noundef nonnull align 8 dereferenceable(16) %54)
  store i32 %call86, ptr %st, align 4
  br label %sw.epilog

sw.bb87:                                          ; preds = %if.end74
  %55 = load ptr, ptr %args.addr, align 8
  %arrayidx88 = getelementptr inbounds ptr, ptr %55, i64 0
  %56 = load ptr, ptr %arrayidx88, align 8
  %57 = load ptr, ptr %args.addr, align 8
  %arrayidx89 = getelementptr inbounds ptr, ptr %57, i64 1
  %58 = load ptr, ptr %arrayidx89, align 8
  %59 = load ptr, ptr %result.addr, align 8
  %call90 = call noundef i32 @_ZN14array_rewriter13mk_set_subsetEP4exprS1_R7obj_refIS0_11ast_managerE(ptr noundef nonnull align 8 dereferenceable(22) %this1, ptr noundef %56, ptr noundef %58, ptr noundef nonnull align 8 dereferenceable(16) %59)
  store i32 %call90, ptr %st, align 4
  br label %sw.epilog

sw.bb91:                                          ; preds = %if.end74
  %60 = load ptr, ptr %args.addr, align 8
  %arrayidx92 = getelementptr inbounds ptr, ptr %60, i64 0
  %61 = load ptr, ptr %arrayidx92, align 8
  %62 = load ptr, ptr %result.addr, align 8
  %call93 = call noundef i32 @_ZN14array_rewriter17mk_set_complementEP4exprR7obj_refIS0_11ast_managerE(ptr noundef nonnull align 8 dereferenceable(22) %this1, ptr noundef %61, ptr noundef nonnull align 8 dereferenceable(16) %62)
  store i32 %call93, ptr %st, align 4
  br label %sw.epilog

sw.bb94:                                          ; preds = %if.end74
  %63 = load ptr, ptr %args.addr, align 8
  %arrayidx95 = getelementptr inbounds ptr, ptr %63, i64 0
  %64 = load ptr, ptr %arrayidx95, align 8
  %65 = load ptr, ptr %args.addr, align 8
  %arrayidx96 = getelementptr inbounds ptr, ptr %65, i64 1
  %66 = load ptr, ptr %arrayidx96, align 8
  %67 = load ptr, ptr %result.addr, align 8
  %call97 = call noundef i32 @_ZN14array_rewriter17mk_set_differenceEP4exprS1_R7obj_refIS0_11ast_managerE(ptr noundef nonnull align 8 dereferenceable(22) %this1, ptr noundef %64, ptr noundef %66, ptr noundef nonnull align 8 dereferenceable(16) %67)
  store i32 %call97, ptr %st, align 4
  br label %sw.epilog

sw.default:                                       ; preds = %if.end74
  store i32 5, ptr %st, align 4
  br label %sw.epilog

sw.epilog:                                        ; preds = %sw.default, %sw.bb94, %sw.bb91, %sw.bb87, %sw.bb85, %sw.bb83, %sw.bb79, %sw.bb77, %sw.bb
  %68 = load i32, ptr %st, align 4
  store i32 %68, ptr %retval, align 4
  br label %return

return:                                           ; preds = %sw.epilog, %if.end72
  %69 = load i32, ptr %retval, align 4
  ret i32 %69

eh.resume:                                        ; preds = %ehcleanup73
  %exn = load ptr, ptr %exn.slot, align 8
  %sel = load i32, ptr %ehselector.slot, align 4
  %lpad.val = insertvalue { ptr, i32 } poison, ptr %exn, 0
  %lpad.val98 = insertvalue { ptr, i32 } %lpad.val, i32 %sel, 1
  resume { ptr, i32 } %lpad.val98
}

declare noundef zeroext i1 @_Z13is_partial_eqPK9func_decl(ptr noundef) #1

; Function Attrs: mustprogress uwtable
define linkonce_odr hidden noundef nonnull align 8 dereferenceable(976) ptr @_ZNK14array_rewriter1mEv(ptr noundef nonnull align 8 dereferenceable(22) %this) #4 comdat align 2 {
entry:
  %this.addr = alloca ptr, align 8
  store ptr %this, ptr %this.addr, align 8
  %this1 = load ptr, ptr %this.addr, align 8
  %m_util = getelementptr inbounds %class.array_rewriter, ptr %this1, i32 0, i32 0
  %call = call noundef nonnull align 8 dereferenceable(976) ptr @_ZNK10array_util11get_managerEv(ptr noundef nonnull align 8 dereferenceable(16) %m_util)
  ret ptr %call
}

; Function Attrs: mustprogress nounwind uwtable
define linkonce_odr hidden void @_ZN7obj_refI4expr11ast_managerEC2ERS1_(ptr noundef nonnull align 8 dereferenceable(16) %this, ptr noundef nonnull align 8 dereferenceable(976) %m) unnamed_addr #5 comdat align 2 {
entry:
  %this.addr = alloca ptr, align 8
  %m.addr = alloca ptr, align 8
  store ptr %this, ptr %this.addr, align 8
  store ptr %m, ptr %m.addr, align 8
  %this1 = load ptr, ptr %this.addr, align 8
  %m_obj = getelementptr inbounds %class.obj_ref, ptr %this1, i32 0, i32 0
  store ptr null, ptr %m_obj, align 8
  %m_manager = getelementptr inbounds %class.obj_ref, ptr %this1, i32 0, i32 1
  %0 = load ptr, ptr %m.addr, align 8
  store ptr %0, ptr %m_manager, align 8
  ret void
}

; Function Attrs: mustprogress uwtable
define linkonce_odr hidden void @_ZN10ref_vectorI4expr11ast_managerEC2ERS1_(ptr noundef nonnull align 8 dereferenceable(16) %this, ptr noundef nonnull align 8 dereferenceable(976) %m) unnamed_addr #4 comdat align 2 {
entry:
  %this.addr = alloca ptr, align 8
  %m.addr = alloca ptr, align 8
  %ref.tmp = alloca %class.ref_manager_wrapper, align 8
  store ptr %this, ptr %this.addr, align 8
  store ptr %m, ptr %m.addr, align 8
  %this1 = load ptr, ptr %this.addr, align 8
  %0 = load ptr, ptr %m.addr, align 8
  call void @_ZN19ref_manager_wrapperI4expr11ast_managerEC2ERS1_(ptr noundef nonnull align 8 dereferenceable(8) %ref.tmp, ptr noundef nonnull align 8 dereferenceable(976) %0)
  call void @_ZN15ref_vector_coreI4expr19ref_manager_wrapperIS0_11ast_managerEEC2ERKS3_(ptr noundef nonnull align 8 dereferenceable(16) %this1, ptr noundef nonnull align 8 dereferenceable(8) %ref.tmp)
  ret void
}

; Function Attrs: mustprogress nounwind uwtable
define linkonce_odr hidden noundef ptr @_ZNK11ast_manager7mk_trueEv(ptr noundef nonnull align 8 dereferenceable(976) %this) #5 comdat align 2 {
entry:
  %this.addr = alloca ptr, align 8
  store ptr %this, ptr %this.addr, align 8
  %this1 = load ptr, ptr %this.addr, align 8
  %m_true = getelementptr inbounds %class.ast_manager, ptr %this1, i32 0, i32 15
  %0 = load ptr, ptr %m_true, align 8
  ret ptr %0
}

; Function Attrs: mustprogress uwtable
define linkonce_odr hidden noundef nonnull align 8 dereferenceable(16) ptr @_ZN7obj_refI4expr11ast_managerEaSEPS0_(ptr noundef nonnull align 8 dereferenceable(16) %this, ptr noundef %n) #4 comdat align 2 {
entry:
  %this.addr = alloca ptr, align 8
  %n.addr = alloca ptr, align 8
  store ptr %this, ptr %this.addr, align 8
  store ptr %n, ptr %n.addr, align 8
  %this1 = load ptr, ptr %this.addr, align 8
  %0 = load ptr, ptr %n.addr, align 8
  %tobool = icmp ne ptr %0, null
  br i1 %tobool, label %if.then, label %if.end

if.then:                                          ; preds = %entry
  %m_manager = getelementptr inbounds %class.obj_ref, ptr %this1, i32 0, i32 1
  %1 = load ptr, ptr %m_manager, align 8
  %2 = load ptr, ptr %n.addr, align 8
  call void @_ZN11ast_manager7inc_refEP3ast(ptr noundef nonnull align 8 dereferenceable(976) %1, ptr noundef %2)
  br label %if.end

if.end:                                           ; preds = %if.then, %entry
  call void @_ZN7obj_refI4expr11ast_managerE7dec_refEv(ptr noundef nonnull align 8 dereferenceable(16) %this1)
  %3 = load ptr, ptr %n.addr, align 8
  %m_obj = getelementptr inbounds %class.obj_ref, ptr %this1, i32 0, i32 0
  store ptr %3, ptr %m_obj, align 8
  ret ptr %this1
}

declare noundef zeroext i1 @_ZN17array_recognizers12is_store_extEP4exprR7obj_refIS0_11ast_managerER10ref_vectorIS0_S3_ES5_(ptr noundef nonnull align 4 dereferenceable(4), ptr noundef, ptr noundef nonnull align 8 dereferenceable(16), ptr noundef nonnull align 8 dereferenceable(16), ptr noundef nonnull align 8 dereferenceable(16)) #1

; Function Attrs: mustprogress nounwind uwtable
define linkonce_odr hidden noundef ptr @_ZNK7obj_refI4expr11ast_managerEcvPS0_Ev(ptr noundef nonnull align 8 dereferenceable(16) %this) #5 comdat align 2 {
entry:
  %this.addr = alloca ptr, align 8
  store ptr %this, ptr %this.addr, align 8
  %this1 = load ptr, ptr %this.addr, align 8
  %m_obj = getelementptr inbounds %class.obj_ref, ptr %this1, i32 0, i32 0
  %0 = load ptr, ptr %m_obj, align 8
  ret ptr %0
}

; Function Attrs: mustprogress uwtable
define hidden void @_ZN14array_rewriter9mk_selectEjPKP4exprR7obj_refIS0_11ast_managerE(ptr noundef nonnull align 8 dereferenceable(22) %this, i32 noundef %num_args, ptr noundef %args, ptr noundef nonnull align 8 dereferenceable(16) %result) #4 align 2 {
entry:
  %this.addr = alloca ptr, align 8
  %num_args.addr = alloca i32, align 4
  %args.addr = alloca ptr, align 8
  %result.addr = alloca ptr, align 8
  store ptr %this, ptr %this.addr, align 8
  store i32 %num_args, ptr %num_args.addr, align 4
  store ptr %args, ptr %args.addr, align 8
  store ptr %result, ptr %result.addr, align 8
  %this1 = load ptr, ptr %this.addr, align 8
  %0 = load i32, ptr %num_args.addr, align 4
  %1 = load ptr, ptr %args.addr, align 8
  %2 = load ptr, ptr %result.addr, align 8
  %call = call noundef i32 @_ZN14array_rewriter14mk_select_coreEjPKP4exprR7obj_refIS0_11ast_managerE(ptr noundef nonnull align 8 dereferenceable(22) %this1, i32 noundef %0, ptr noundef %1, ptr noundef nonnull align 8 dereferenceable(16) %2)
  %cmp = icmp eq i32 %call, 5
  br i1 %cmp, label %if.then, label %if.end

if.then:                                          ; preds = %entry
  %call2 = call noundef nonnull align 8 dereferenceable(976) ptr @_ZNK14array_rewriter1mEv(ptr noundef nonnull align 8 dereferenceable(22) %this1)
  %call3 = call noundef i32 @_ZNK14array_rewriter7get_fidEv(ptr noundef nonnull align 8 dereferenceable(22) %this1)
  %3 = load i32, ptr %num_args.addr, align 4
  %4 = load ptr, ptr %args.addr, align 8
  %call4 = call noundef ptr @_ZN11ast_manager6mk_appEiijPKP4expr(ptr noundef nonnull align 8 dereferenceable(976) %call2, i32 noundef %call3, i32 noundef 1, i32 noundef %3, ptr noundef %4)
  %5 = load ptr, ptr %result.addr, align 8
  %call5 = call noundef nonnull align 8 dereferenceable(16) ptr @_ZN7obj_refI4expr11ast_managerEaSEPS0_(ptr noundef nonnull align 8 dereferenceable(16) %5, ptr noundef %call4)
  br label %if.end

if.end:                                           ; preds = %if.then, %entry
  ret void
}

; Function Attrs: mustprogress uwtable
define linkonce_odr hidden noundef i32 @_ZNK15ref_vector_coreI4expr19ref_manager_wrapperIS0_11ast_managerEE4sizeEv(ptr noundef nonnull align 8 dereferenceable(16) %this) #4 comdat align 2 {
entry:
  %this.addr = alloca ptr, align 8
  store ptr %this, ptr %this.addr, align 8
  %this1 = load ptr, ptr %this.addr, align 8
  %m_nodes = getelementptr inbounds %class.ref_vector_core, ptr %this1, i32 0, i32 1
  %call = call noundef i32 @_ZNK6vectorIP4exprLb0EjE4sizeEv(ptr noundef nonnull align 8 dereferenceable(8) %m_nodes)
  ret i32 %call
}

; Function Attrs: mustprogress nounwind uwtable
define linkonce_odr hidden noundef ptr @_ZN15ref_vector_coreI4expr19ref_manager_wrapperIS0_11ast_managerEE4dataEv(ptr noundef nonnull align 8 dereferenceable(16) %this) #5 comdat align 2 {
entry:
  %this.addr = alloca ptr, align 8
  store ptr %this, ptr %this.addr, align 8
  %this1 = load ptr, ptr %this.addr, align 8
  %m_nodes = getelementptr inbounds %class.ref_vector_core, ptr %this1, i32 0, i32 1
  %call = call noundef ptr @_ZNK6vectorIP4exprLb0EjE4dataEv(ptr noundef nonnull align 8 dereferenceable(8) %m_nodes)
  ret ptr %call
}

; Function Attrs: mustprogress uwtable
define linkonce_odr hidden noundef ptr @_ZN11ast_manager5mk_eqEP4exprS1_(ptr noundef nonnull align 8 dereferenceable(976) %this, ptr noundef %lhs, ptr noundef %rhs) #4 comdat align 2 {
entry:
  %this.addr = alloca ptr, align 8
  %lhs.addr = alloca ptr, align 8
  %rhs.addr = alloca ptr, align 8
  store ptr %this, ptr %this.addr, align 8
  store ptr %lhs, ptr %lhs.addr, align 8
  store ptr %rhs, ptr %rhs.addr, align 8
  %this1 = load ptr, ptr %this.addr, align 8
  %0 = load ptr, ptr %lhs.addr, align 8
  %call = call noundef i32 @_ZNK11ast_manager9get_eq_opEPK4expr(ptr noundef nonnull align 8 dereferenceable(976) %this1, ptr noundef %0)
  %1 = load ptr, ptr %lhs.addr, align 8
  %2 = load ptr, ptr %rhs.addr, align 8
  %call2 = call noundef ptr @_ZN11ast_manager6mk_appEiiP4exprS1_(ptr noundef nonnull align 8 dereferenceable(976) %this1, i32 noundef 0, i32 noundef %call, ptr noundef %1, ptr noundef %2)
  ret ptr %call2
}

; Function Attrs: mustprogress uwtable
define linkonce_odr hidden noundef ptr @_ZNK15ref_vector_coreI4expr19ref_manager_wrapperIS0_11ast_managerEE3getEj(ptr noundef nonnull align 8 dereferenceable(16) %this, i32 noundef %idx) #4 comdat align 2 {
entry:
  %this.addr = alloca ptr, align 8
  %idx.addr = alloca i32, align 4
  store ptr %this, ptr %this.addr, align 8
  store i32 %idx, ptr %idx.addr, align 4
  %this1 = load ptr, ptr %this.addr, align 8
  %m_nodes = getelementptr inbounds %class.ref_vector_core, ptr %this1, i32 0, i32 1
  %0 = load i32, ptr %idx.addr, align 4
  %call = call noundef nonnull align 8 dereferenceable(8) ptr @_ZNK6vectorIP4exprLb0EjEixEj(ptr noundef nonnull align 8 dereferenceable(8) %m_nodes, i32 noundef %0)
  %1 = load ptr, ptr %call, align 8
  ret ptr %1
}

; Function Attrs: mustprogress nounwind uwtable
define linkonce_odr hidden void @_ZN10ref_vectorI4expr11ast_managerED2Ev(ptr noundef nonnull align 8 dereferenceable(16) %this) unnamed_addr #5 comdat align 2 {
entry:
  %this.addr = alloca ptr, align 8
  store ptr %this, ptr %this.addr, align 8
  %this1 = load ptr, ptr %this.addr, align 8
  call void @_ZN15ref_vector_coreI4expr19ref_manager_wrapperIS0_11ast_managerEED2Ev(ptr noundef nonnull align 8 dereferenceable(16) %this1) #3
  ret void
}

; Function Attrs: mustprogress nounwind uwtable
define linkonce_odr hidden void @_ZN7obj_refI4expr11ast_managerED2Ev(ptr noundef nonnull align 8 dereferenceable(16) %this) unnamed_addr #5 comdat align 2 personality ptr @__gxx_personality_v0 {
entry:
  %this.addr = alloca ptr, align 8
  store ptr %this, ptr %this.addr, align 8
  %this1 = load ptr, ptr %this.addr, align 8
  invoke void @_ZN7obj_refI4expr11ast_managerE7dec_refEv(ptr noundef nonnull align 8 dereferenceable(16) %this1)
          to label %invoke.cont unwind label %terminate.lpad

invoke.cont:                                      ; preds = %entry
  ret void

terminate.lpad:                                   ; preds = %entry
  %0 = landingpad { ptr, i32 }
          catch ptr null
  %1 = extractvalue { ptr, i32 } %0, 0
  call void @__clang_call_terminate(ptr %1) #15
  unreachable
}

; Function Attrs: mustprogress uwtable
define linkonce_odr hidden noundef i32 @_ZNK4decl13get_decl_kindEv(ptr noundef nonnull align 8 dereferenceable(32) %this) #4 comdat align 2 {
entry:
  %this.addr = alloca ptr, align 8
  store ptr %this, ptr %this.addr, align 8
  %this1 = load ptr, ptr %this.addr, align 8
  %m_info = getelementptr inbounds %class.decl, ptr %this1, i32 0, i32 2
  %0 = load ptr, ptr %m_info, align 8
  %cmp = icmp eq ptr %0, null
  br i1 %cmp, label %cond.true, label %cond.false

cond.true:                                        ; preds = %entry
  br label %cond.end

cond.false:                                       ; preds = %entry
  %m_info2 = getelementptr inbounds %class.decl, ptr %this1, i32 0, i32 2
  %1 = load ptr, ptr %m_info2, align 8
  %call = call noundef i32 @_ZNK9decl_info13get_decl_kindEv(ptr noundef nonnull align 8 dereferenceable(17) %1)
  br label %cond.end

cond.end:                                         ; preds = %cond.false, %cond.true
  %cond = phi i32 [ -1, %cond.true ], [ %call, %cond.false ]
  ret i32 %cond
}

; Function Attrs: mustprogress uwtable
define hidden noundef i32 @_ZN14array_rewriter14mk_select_coreEjPKP4exprR7obj_refIS0_11ast_managerE(ptr noundef nonnull align 8 dereferenceable(22) %this, i32 noundef %num_args, ptr noundef %args, ptr noundef nonnull align 8 dereferenceable(16) %result) #4 align 2 personality ptr @__gxx_personality_v0 {
entry:
  %retval = alloca i32, align 4
  %this.addr = alloca ptr, align 8
  %num_args.addr = alloca i32, align 4
  %args.addr = alloca ptr, align 8
  %result.addr = alloca ptr, align 8
  %st = alloca i32, align 4
  %arg0 = alloca ptr, align 8
  %new_args = alloca %class.ptr_buffer, align 8
  %exn.slot = alloca ptr, align 8
  %ehselector.slot = alloca i32, align 4
  %are_values = alloca %class.anon, align 8
  %array = alloca ptr, align 8
  %is_leaf = alloca i8, align 1
  %should_expand = alloca i8, align 1
  %new_args53 = alloca %class.ptr_buffer, align 8
  %sel_a_j = alloca ptr, align 8
  %v = alloca ptr, align 8
  %eqs = alloca %class.ptr_buffer, align 8
  %num_indices = alloca i32, align 4
  %i = alloca i32, align 4
  %ref.tmp = alloca ptr, align 8
  %cleanup.dest.slot = alloca i32, align 4
  %c = alloca ptr, align 8
  %th = alloca ptr, align 8
  %el = alloca ptr, align 8
  %args1 = alloca %class.ptr_vector.26, align 8
  %args2 = alloca %class.ptr_vector.26, align 8
  store ptr %this, ptr %this.addr, align 8
  store i32 %num_args, ptr %num_args.addr, align 4
  store ptr %args, ptr %args.addr, align 8
  store ptr %result, ptr %result.addr, align 8
  %this1 = load ptr, ptr %this.addr, align 8
  %0 = load i32, ptr %num_args.addr, align 4
  %1 = load ptr, ptr %args.addr, align 8
  %2 = load ptr, ptr %result.addr, align 8
  %call = call noundef i32 @_ZN14array_rewriter20mk_select_same_storeEjPKP4exprR7obj_refIS0_11ast_managerE(ptr noundef nonnull align 8 dereferenceable(22) %this1, i32 noundef %0, ptr noundef %1, ptr noundef nonnull align 8 dereferenceable(16) %2)
  store i32 %call, ptr %st, align 4
  %3 = load i32, ptr %st, align 4
  %cmp = icmp ne i32 %3, 5
  br i1 %cmp, label %if.then, label %if.end

if.then:                                          ; preds = %entry
  %4 = load i32, ptr %st, align 4
  store i32 %4, ptr %retval, align 4
  br label %return

if.end:                                           ; preds = %entry
  %5 = load ptr, ptr %result.addr, align 8
  call void @_ZN7obj_refI4expr11ast_managerE5resetEv(ptr noundef nonnull align 8 dereferenceable(16) %5)
  %m_util = getelementptr inbounds %class.array_rewriter, ptr %this1, i32 0, i32 0
  %6 = load ptr, ptr %args.addr, align 8
  %arrayidx = getelementptr inbounds ptr, ptr %6, i64 0
  %7 = load ptr, ptr %arrayidx, align 8
  %call2 = call noundef zeroext i1 @_ZNK17array_recognizers8is_storeEP4expr(ptr noundef nonnull align 4 dereferenceable(4) %m_util, ptr noundef %7)
  br i1 %call2, label %if.then3, label %if.end109

if.then3:                                         ; preds = %if.end
  %8 = load i32, ptr %num_args.addr, align 4
  %sub = sub i32 %8, 1
  %9 = load ptr, ptr %args.addr, align 8
  %add.ptr = getelementptr inbounds ptr, ptr %9, i64 1
  %10 = load ptr, ptr %args.addr, align 8
  %arrayidx4 = getelementptr inbounds ptr, ptr %10, i64 0
  %11 = load ptr, ptr %arrayidx4, align 8
  %call5 = call noundef ptr @_Z6to_appP3ast(ptr noundef %11)
  %call6 = call noundef ptr @_ZNK3app8get_argsEv(ptr noundef nonnull align 8 dereferenceable(32) %call5)
  %add.ptr7 = getelementptr inbounds ptr, ptr %call6, i64 1
  %call8 = call noundef i32 @_ZN14array_rewriter12compare_argsEjPKP4exprS3_(ptr noundef nonnull align 8 dereferenceable(22) %this1, i32 noundef %sub, ptr noundef %add.ptr, ptr noundef %add.ptr7)
  switch i32 %call8, label %sw.default [
    i32 1, label %sw.bb
    i32 -1, label %sw.bb9
  ]

sw.bb:                                            ; preds = %if.then3
  call void @_Z26notify_assertion_violationPKciS0_(ptr noundef @.str, i32 noundef 336, ptr noundef @.str.1)
  call void @exit(i32 noundef 114) #15
  unreachable

sw.bb9:                                           ; preds = %if.then3
  %12 = load ptr, ptr %args.addr, align 8
  %arrayidx10 = getelementptr inbounds ptr, ptr %12, i64 0
  %13 = load ptr, ptr %arrayidx10, align 8
  %call11 = call noundef ptr @_Z6to_appP3ast(ptr noundef %13)
  %call12 = call noundef ptr @_ZNK3app7get_argEj(ptr noundef nonnull align 8 dereferenceable(32) %call11, i32 noundef 0)
  store ptr %call12, ptr %arg0, align 8
  br label %while.cond

while.cond:                                       ; preds = %while.body, %sw.bb9
  %m_util13 = getelementptr inbounds %class.array_rewriter, ptr %this1, i32 0, i32 0
  %14 = load ptr, ptr %arg0, align 8
  %call14 = call noundef zeroext i1 @_ZNK17array_recognizers8is_storeEP4expr(ptr noundef nonnull align 4 dereferenceable(4) %m_util13, ptr noundef %14)
  br i1 %call14, label %land.rhs, label %land.end

land.rhs:                                         ; preds = %while.cond
  %15 = load i32, ptr %num_args.addr, align 4
  %sub15 = sub i32 %15, 1
  %16 = load ptr, ptr %args.addr, align 8
  %add.ptr16 = getelementptr inbounds ptr, ptr %16, i64 1
  %17 = load ptr, ptr %arg0, align 8
  %call17 = call noundef ptr @_Z6to_appP3ast(ptr noundef %17)
  %call18 = call noundef ptr @_ZNK3app8get_argsEv(ptr noundef nonnull align 8 dereferenceable(32) %call17)
  %add.ptr19 = getelementptr inbounds ptr, ptr %call18, i64 1
  %call20 = call noundef i32 @_ZN14array_rewriter12compare_argsEjPKP4exprS3_(ptr noundef nonnull align 8 dereferenceable(22) %this1, i32 noundef %sub15, ptr noundef %add.ptr16, ptr noundef %add.ptr19)
  %cmp21 = icmp eq i32 %call20, -1
  br label %land.end

land.end:                                         ; preds = %land.rhs, %while.cond
  %18 = phi i1 [ false, %while.cond ], [ %cmp21, %land.rhs ]
  br i1 %18, label %while.body, label %while.end

while.body:                                       ; preds = %land.end
  %19 = load ptr, ptr %arg0, align 8
  %call22 = call noundef ptr @_Z6to_appP3ast(ptr noundef %19)
  %call23 = call noundef ptr @_ZNK3app7get_argEj(ptr noundef nonnull align 8 dereferenceable(32) %call22, i32 noundef 0)
  store ptr %call23, ptr %arg0, align 8
  br label %while.cond, !llvm.loop !6

while.end:                                        ; preds = %land.end
  call void @_ZN10ptr_bufferI4exprLj16EEC2Ev(ptr noundef nonnull align 8 dereferenceable(144) %new_args) #3
  invoke void @_ZN6bufferIP4exprLb0ELj16EE9push_backERKS1_(ptr noundef nonnull align 8 dereferenceable(144) %new_args, ptr noundef nonnull align 8 dereferenceable(8) %arg0)
          to label %invoke.cont unwind label %lpad

invoke.cont:                                      ; preds = %while.end
  %20 = load i32, ptr %num_args.addr, align 4
  %sub24 = sub i32 %20, 1
  %21 = load ptr, ptr %args.addr, align 8
  %add.ptr25 = getelementptr inbounds ptr, ptr %21, i64 1
  invoke void @_ZN10ptr_bufferI4exprLj16EE6appendEjPKPS0_(ptr noundef nonnull align 8 dereferenceable(144) %new_args, i32 noundef %sub24, ptr noundef %add.ptr25)
          to label %invoke.cont26 unwind label %lpad

invoke.cont26:                                    ; preds = %invoke.cont
  %call28 = invoke noundef nonnull align 8 dereferenceable(976) ptr @_ZNK14array_rewriter1mEv(ptr noundef nonnull align 8 dereferenceable(22) %this1)
          to label %invoke.cont27 unwind label %lpad

invoke.cont27:                                    ; preds = %invoke.cont26
  %call30 = invoke noundef i32 @_ZNK14array_rewriter7get_fidEv(ptr noundef nonnull align 8 dereferenceable(22) %this1)
          to label %invoke.cont29 unwind label %lpad

invoke.cont29:                                    ; preds = %invoke.cont27
  %22 = load i32, ptr %num_args.addr, align 4
  %call32 = invoke noundef ptr @_ZNK6bufferIP4exprLb0ELj16EE4dataEv(ptr noundef nonnull align 8 dereferenceable(144) %new_args)
          to label %invoke.cont31 unwind label %lpad

invoke.cont31:                                    ; preds = %invoke.cont29
  %call34 = invoke noundef ptr @_ZN11ast_manager6mk_appEiijPKP4expr(ptr noundef nonnull align 8 dereferenceable(976) %call28, i32 noundef %call30, i32 noundef 1, i32 noundef %22, ptr noundef %call32)
          to label %invoke.cont33 unwind label %lpad

invoke.cont33:                                    ; preds = %invoke.cont31
  %23 = load ptr, ptr %result.addr, align 8
  %call36 = invoke noundef nonnull align 8 dereferenceable(16) ptr @_ZN7obj_refI4expr11ast_managerEaSEPS0_(ptr noundef nonnull align 8 dereferenceable(16) %23, ptr noundef %call34)
          to label %invoke.cont35 unwind label %lpad

invoke.cont35:                                    ; preds = %invoke.cont33
  store i32 0, ptr %retval, align 4
  call void @_ZN10ptr_bufferI4exprLj16EED2Ev(ptr noundef nonnull align 8 dereferenceable(144) %new_args) #3
  br label %return

lpad:                                             ; preds = %invoke.cont33, %invoke.cont31, %invoke.cont29, %invoke.cont27, %invoke.cont26, %invoke.cont, %while.end
  %24 = landingpad { ptr, i32 }
          cleanup
  %25 = extractvalue { ptr, i32 } %24, 0
  store ptr %25, ptr %exn.slot, align 8
  %26 = extractvalue { ptr, i32 } %24, 1
  store i32 %26, ptr %ehselector.slot, align 4
  call void @_ZN10ptr_bufferI4exprLj16EED2Ev(ptr noundef nonnull align 8 dereferenceable(144) %new_args) #3
  br label %eh.resume

sw.default:                                       ; preds = %if.then3
  %27 = getelementptr inbounds %class.anon, ptr %are_values, i32 0, i32 0
  store ptr %num_args.addr, ptr %27, align 8
  %28 = getelementptr inbounds %class.anon, ptr %are_values, i32 0, i32 1
  store ptr %this1, ptr %28, align 8
  %29 = getelementptr inbounds %class.anon, ptr %are_values, i32 0, i32 2
  store ptr %args.addr, ptr %29, align 8
  %30 = load ptr, ptr %args.addr, align 8
  %arrayidx37 = getelementptr inbounds ptr, ptr %30, i64 0
  %31 = load ptr, ptr %arrayidx37, align 8
  %call38 = call noundef ptr @_Z6to_appP3ast(ptr noundef %31)
  %call39 = call noundef ptr @_ZNK3app7get_argEj(ptr noundef nonnull align 8 dereferenceable(32) %call38, i32 noundef 0)
  store ptr %call39, ptr %array, align 8
  %m_util40 = getelementptr inbounds %class.array_rewriter, ptr %this1, i32 0, i32 0
  %32 = load ptr, ptr %array, align 8
  %call41 = call noundef zeroext i1 @_ZNK17array_recognizers8is_constEP4expr(ptr noundef nonnull align 4 dereferenceable(4) %m_util40, ptr noundef %32)
  %frombool = zext i1 %call41 to i8
  store i8 %frombool, ptr %is_leaf, align 1
  %m_blast_select_store = getelementptr inbounds %class.array_rewriter, ptr %this1, i32 0, i32 2
  %33 = load i8, ptr %m_blast_select_store, align 1
  %tobool = trunc i8 %33 to i1
  br i1 %tobool, label %lor.end, label %lor.lhs.false

lor.lhs.false:                                    ; preds = %sw.default
  %34 = load i8, ptr %is_leaf, align 1
  %tobool42 = trunc i8 %34 to i1
  br i1 %tobool42, label %lor.end, label %lor.lhs.false43

lor.lhs.false43:                                  ; preds = %lor.lhs.false
  %call44 = call noundef zeroext i1 @"_ZZN14array_rewriter14mk_select_coreEjPKP4exprR7obj_refIS0_11ast_managerEENK3$_0clEv"(ptr noundef nonnull align 8 dereferenceable(24) %are_values)
  br i1 %call44, label %lor.end, label %lor.rhs

lor.rhs:                                          ; preds = %lor.lhs.false43
  %m_expand_select_store = getelementptr inbounds %class.array_rewriter, ptr %this1, i32 0, i32 3
  %35 = load i8, ptr %m_expand_select_store, align 2
  %tobool45 = trunc i8 %35 to i1
  br i1 %tobool45, label %land.rhs46, label %land.end49

land.rhs46:                                       ; preds = %lor.rhs
  %36 = load ptr, ptr %array, align 8
  %call47 = call noundef i32 @_ZNK3ast13get_ref_countEv(ptr noundef nonnull align 4 dereferenceable(16) %36)
  %cmp48 = icmp eq i32 %call47, 1
  br label %land.end49

land.end49:                                       ; preds = %land.rhs46, %lor.rhs
  %37 = phi i1 [ false, %lor.rhs ], [ %cmp48, %land.rhs46 ]
  br label %lor.end

lor.end:                                          ; preds = %land.end49, %lor.lhs.false43, %lor.lhs.false, %sw.default
  %38 = phi i1 [ true, %lor.lhs.false43 ], [ true, %lor.lhs.false ], [ true, %sw.default ], [ %37, %land.end49 ]
  %frombool50 = zext i1 %38 to i8
  store i8 %frombool50, ptr %should_expand, align 1
  %39 = load i8, ptr %should_expand, align 1
  %tobool51 = trunc i8 %39 to i1
  br i1 %tobool51, label %if.then52, label %if.end108

if.then52:                                        ; preds = %lor.end
  call void @_ZN10ptr_bufferI4exprLj16EEC2Ev(ptr noundef nonnull align 8 dereferenceable(144) %new_args53) #3
  invoke void @_ZN6bufferIP4exprLb0ELj16EE9push_backERKS1_(ptr noundef nonnull align 8 dereferenceable(144) %new_args53, ptr noundef nonnull align 8 dereferenceable(8) %array)
          to label %invoke.cont55 unwind label %lpad54

invoke.cont55:                                    ; preds = %if.then52
  %40 = load i32, ptr %num_args.addr, align 4
  %sub56 = sub i32 %40, 1
  %41 = load ptr, ptr %args.addr, align 8
  %add.ptr57 = getelementptr inbounds ptr, ptr %41, i64 1
  invoke void @_ZN10ptr_bufferI4exprLj16EE6appendEjPKPS0_(ptr noundef nonnull align 8 dereferenceable(144) %new_args53, i32 noundef %sub56, ptr noundef %add.ptr57)
          to label %invoke.cont58 unwind label %lpad54

invoke.cont58:                                    ; preds = %invoke.cont55
  %call60 = invoke noundef nonnull align 8 dereferenceable(976) ptr @_ZNK14array_rewriter1mEv(ptr noundef nonnull align 8 dereferenceable(22) %this1)
          to label %invoke.cont59 unwind label %lpad54

invoke.cont59:                                    ; preds = %invoke.cont58
  %call62 = invoke noundef i32 @_ZNK14array_rewriter7get_fidEv(ptr noundef nonnull align 8 dereferenceable(22) %this1)
          to label %invoke.cont61 unwind label %lpad54

invoke.cont61:                                    ; preds = %invoke.cont59
  %42 = load i32, ptr %num_args.addr, align 4
  %call64 = invoke noundef ptr @_ZNK6bufferIP4exprLb0ELj16EE4dataEv(ptr noundef nonnull align 8 dereferenceable(144) %new_args53)
          to label %invoke.cont63 unwind label %lpad54

invoke.cont63:                                    ; preds = %invoke.cont61
  %call66 = invoke noundef ptr @_ZN11ast_manager6mk_appEiijPKP4expr(ptr noundef nonnull align 8 dereferenceable(976) %call60, i32 noundef %call62, i32 noundef 1, i32 noundef %42, ptr noundef %call64)
          to label %invoke.cont65 unwind label %lpad54

invoke.cont65:                                    ; preds = %invoke.cont63
  store ptr %call66, ptr %sel_a_j, align 8
  %43 = load ptr, ptr %args.addr, align 8
  %arrayidx67 = getelementptr inbounds ptr, ptr %43, i64 0
  %44 = load ptr, ptr %arrayidx67, align 8
  %call69 = invoke noundef ptr @_Z6to_appP3ast(ptr noundef %44)
          to label %invoke.cont68 unwind label %lpad54

invoke.cont68:                                    ; preds = %invoke.cont65
  %45 = load i32, ptr %num_args.addr, align 4
  %call71 = invoke noundef ptr @_ZNK3app7get_argEj(ptr noundef nonnull align 8 dereferenceable(32) %call69, i32 noundef %45)
          to label %invoke.cont70 unwind label %lpad54

invoke.cont70:                                    ; preds = %invoke.cont68
  store ptr %call71, ptr %v, align 8
  call void @_ZN10ptr_bufferI4exprLj16EEC2Ev(ptr noundef nonnull align 8 dereferenceable(144) %eqs) #3
  %46 = load i32, ptr %num_args.addr, align 4
  %sub72 = sub i32 %46, 1
  store i32 %sub72, ptr %num_indices, align 4
  store i32 0, ptr %i, align 4
  br label %for.cond

for.cond:                                         ; preds = %for.inc, %invoke.cont70
  %47 = load i32, ptr %i, align 4
  %48 = load i32, ptr %num_indices, align 4
  %cmp73 = icmp ult i32 %47, %48
  br i1 %cmp73, label %for.body, label %for.end

for.body:                                         ; preds = %for.cond
  %call76 = invoke noundef nonnull align 8 dereferenceable(976) ptr @_ZNK14array_rewriter1mEv(ptr noundef nonnull align 8 dereferenceable(22) %this1)
          to label %invoke.cont75 unwind label %lpad74

invoke.cont75:                                    ; preds = %for.body
  %49 = load ptr, ptr %args.addr, align 8
  %arrayidx77 = getelementptr inbounds ptr, ptr %49, i64 0
  %50 = load ptr, ptr %arrayidx77, align 8
  %call79 = invoke noundef ptr @_Z6to_appP3ast(ptr noundef %50)
          to label %invoke.cont78 unwind label %lpad74

invoke.cont78:                                    ; preds = %invoke.cont75
  %51 = load i32, ptr %i, align 4
  %add = add i32 %51, 1
  %call81 = invoke noundef ptr @_ZNK3app7get_argEj(ptr noundef nonnull align 8 dereferenceable(32) %call79, i32 noundef %add)
          to label %invoke.cont80 unwind label %lpad74

invoke.cont80:                                    ; preds = %invoke.cont78
  %52 = load ptr, ptr %args.addr, align 8
  %53 = load i32, ptr %i, align 4
  %add82 = add i32 %53, 1
  %idxprom = zext i32 %add82 to i64
  %arrayidx83 = getelementptr inbounds ptr, ptr %52, i64 %idxprom
  %54 = load ptr, ptr %arrayidx83, align 8
  %call85 = invoke noundef ptr @_ZN11ast_manager5mk_eqEP4exprS1_(ptr noundef nonnull align 8 dereferenceable(976) %call76, ptr noundef %call81, ptr noundef %54)
          to label %invoke.cont84 unwind label %lpad74

invoke.cont84:                                    ; preds = %invoke.cont80
  store ptr %call85, ptr %ref.tmp, align 8
  invoke void @_ZN6bufferIP4exprLb0ELj16EE9push_backEOS1_(ptr noundef nonnull align 8 dereferenceable(144) %eqs, ptr noundef nonnull align 8 dereferenceable(8) %ref.tmp)
          to label %invoke.cont86 unwind label %lpad74

invoke.cont86:                                    ; preds = %invoke.cont84
  br label %for.inc

for.inc:                                          ; preds = %invoke.cont86
  %55 = load i32, ptr %i, align 4
  %inc = add i32 %55, 1
  store i32 %inc, ptr %i, align 4
  br label %for.cond, !llvm.loop !7

lpad54:                                           ; preds = %invoke.cont68, %invoke.cont65, %invoke.cont63, %invoke.cont61, %invoke.cont59, %invoke.cont58, %invoke.cont55, %if.then52
  %56 = landingpad { ptr, i32 }
          cleanup
  %57 = extractvalue { ptr, i32 } %56, 0
  store ptr %57, ptr %exn.slot, align 8
  %58 = extractvalue { ptr, i32 } %56, 1
  store i32 %58, ptr %ehselector.slot, align 4
  br label %ehcleanup

lpad74:                                           ; preds = %invoke.cont103, %invoke.cont101, %invoke.cont99, %invoke.cont97, %if.else, %invoke.cont93, %invoke.cont91, %invoke.cont89, %if.then88, %invoke.cont84, %invoke.cont80, %invoke.cont78, %invoke.cont75, %for.body
  %59 = landingpad { ptr, i32 }
          cleanup
  %60 = extractvalue { ptr, i32 } %59, 0
  store ptr %60, ptr %exn.slot, align 8
  %61 = extractvalue { ptr, i32 } %59, 1
  store i32 %61, ptr %ehselector.slot, align 4
  call void @_ZN10ptr_bufferI4exprLj16EED2Ev(ptr noundef nonnull align 8 dereferenceable(144) %eqs) #3
  br label %ehcleanup

for.end:                                          ; preds = %for.cond
  %62 = load i32, ptr %num_indices, align 4
  %cmp87 = icmp eq i32 %62, 1
  br i1 %cmp87, label %if.then88, label %if.else

if.then88:                                        ; preds = %for.end
  %call90 = invoke noundef nonnull align 8 dereferenceable(976) ptr @_ZNK14array_rewriter1mEv(ptr noundef nonnull align 8 dereferenceable(22) %this1)
          to label %invoke.cont89 unwind label %lpad74

invoke.cont89:                                    ; preds = %if.then88
  %call92 = invoke noundef nonnull align 8 dereferenceable(8) ptr @_ZN6bufferIP4exprLb0ELj16EEixEj(ptr noundef nonnull align 8 dereferenceable(144) %eqs, i32 noundef 0)
          to label %invoke.cont91 unwind label %lpad74

invoke.cont91:                                    ; preds = %invoke.cont89
  %63 = load ptr, ptr %call92, align 8
  %64 = load ptr, ptr %v, align 8
  %65 = load ptr, ptr %sel_a_j, align 8
  %call94 = invoke noundef ptr @_ZN11ast_manager6mk_iteEP4exprS1_S1_(ptr noundef nonnull align 8 dereferenceable(976) %call90, ptr noundef %63, ptr noundef %64, ptr noundef %65)
          to label %invoke.cont93 unwind label %lpad74

invoke.cont93:                                    ; preds = %invoke.cont91
  %66 = load ptr, ptr %result.addr, align 8
  %call96 = invoke noundef nonnull align 8 dereferenceable(16) ptr @_ZN7obj_refI4expr11ast_managerEaSEPS0_(ptr noundef nonnull align 8 dereferenceable(16) %66, ptr noundef %call94)
          to label %invoke.cont95 unwind label %lpad74

invoke.cont95:                                    ; preds = %invoke.cont93
  store i32 1, ptr %retval, align 4
  store i32 1, ptr %cleanup.dest.slot, align 4
  br label %cleanup

if.else:                                          ; preds = %for.end
  %call98 = invoke noundef nonnull align 8 dereferenceable(976) ptr @_ZNK14array_rewriter1mEv(ptr noundef nonnull align 8 dereferenceable(22) %this1)
          to label %invoke.cont97 unwind label %lpad74

invoke.cont97:                                    ; preds = %if.else
  %call100 = invoke noundef nonnull align 8 dereferenceable(976) ptr @_ZNK14array_rewriter1mEv(ptr noundef nonnull align 8 dereferenceable(22) %this1)
          to label %invoke.cont99 unwind label %lpad74

invoke.cont99:                                    ; preds = %invoke.cont97
  %call102 = invoke noundef ptr @_ZN11ast_manager6mk_andERK10ptr_bufferI4exprLj16EE(ptr noundef nonnull align 8 dereferenceable(976) %call100, ptr noundef nonnull align 8 dereferenceable(144) %eqs)
          to label %invoke.cont101 unwind label %lpad74

invoke.cont101:                                   ; preds = %invoke.cont99
  %67 = load ptr, ptr %v, align 8
  %68 = load ptr, ptr %sel_a_j, align 8
  %call104 = invoke noundef ptr @_ZN11ast_manager6mk_iteEP4exprS1_S1_(ptr noundef nonnull align 8 dereferenceable(976) %call98, ptr noundef %call102, ptr noundef %67, ptr noundef %68)
          to label %invoke.cont103 unwind label %lpad74

invoke.cont103:                                   ; preds = %invoke.cont101
  %69 = load ptr, ptr %result.addr, align 8
  %call106 = invoke noundef nonnull align 8 dereferenceable(16) ptr @_ZN7obj_refI4expr11ast_managerEaSEPS0_(ptr noundef nonnull align 8 dereferenceable(16) %69, ptr noundef %call104)
          to label %invoke.cont105 unwind label %lpad74

invoke.cont105:                                   ; preds = %invoke.cont103
  store i32 2, ptr %retval, align 4
  store i32 1, ptr %cleanup.dest.slot, align 4
  br label %cleanup

cleanup:                                          ; preds = %invoke.cont105, %invoke.cont95
  call void @_ZN10ptr_bufferI4exprLj16EED2Ev(ptr noundef nonnull align 8 dereferenceable(144) %eqs) #3
  call void @_ZN10ptr_bufferI4exprLj16EED2Ev(ptr noundef nonnull align 8 dereferenceable(144) %new_args53) #3
  br label %return

ehcleanup:                                        ; preds = %lpad74, %lpad54
  call void @_ZN10ptr_bufferI4exprLj16EED2Ev(ptr noundef nonnull align 8 dereferenceable(144) %new_args53) #3
  br label %eh.resume

if.end108:                                        ; preds = %lor.end
  store i32 5, ptr %retval, align 4
  br label %return

if.end109:                                        ; preds = %if.end
  %call110 = call noundef nonnull align 8 dereferenceable(976) ptr @_ZNK14array_rewriter1mEv(ptr noundef nonnull align 8 dereferenceable(22) %this1)
  %70 = load ptr, ptr %args.addr, align 8
  %arrayidx111 = getelementptr inbounds ptr, ptr %70, i64 0
  %71 = load ptr, ptr %arrayidx111, align 8
  %call112 = call noundef zeroext i1 @_ZNK11ast_manager6is_iteEPK4exprRPS0_S4_S4_(ptr noundef nonnull align 8 dereferenceable(976) %call110, ptr noundef %71, ptr noundef nonnull align 8 dereferenceable(8) %c, ptr noundef nonnull align 8 dereferenceable(8) %th, ptr noundef nonnull align 8 dereferenceable(8) %el)
  br i1 %call112, label %land.lhs.true, label %if.end154

land.lhs.true:                                    ; preds = %if.end109
  %m_expand_select_ite = getelementptr inbounds %class.array_rewriter, ptr %this1, i32 0, i32 5
  %72 = load i8, ptr %m_expand_select_ite, align 4
  %tobool113 = trunc i8 %72 to i1
  br i1 %tobool113, label %if.then120, label %lor.lhs.false114

lor.lhs.false114:                                 ; preds = %land.lhs.true
  %73 = load ptr, ptr %th, align 8
  %call115 = call noundef i32 @_ZNK3ast13get_ref_countEv(ptr noundef nonnull align 4 dereferenceable(16) %73)
  %cmp116 = icmp eq i32 %call115, 1
  br i1 %cmp116, label %if.then120, label %lor.lhs.false117

lor.lhs.false117:                                 ; preds = %lor.lhs.false114
  %74 = load ptr, ptr %el, align 8
  %call118 = call noundef i32 @_ZNK3ast13get_ref_countEv(ptr noundef nonnull align 4 dereferenceable(16) %74)
  %cmp119 = icmp eq i32 %call118, 1
  br i1 %cmp119, label %if.then120, label %if.end154

if.then120:                                       ; preds = %lor.lhs.false117, %lor.lhs.false114, %land.lhs.true
  call void @_ZN10ptr_vectorI4exprEC2Ev(ptr noundef nonnull align 8 dereferenceable(8) %args1)
  invoke void @_ZN10ptr_vectorI4exprEC2Ev(ptr noundef nonnull align 8 dereferenceable(8) %args2)
          to label %invoke.cont122 unwind label %lpad121

invoke.cont122:                                   ; preds = %if.then120
  %call125 = invoke noundef nonnull align 8 dereferenceable(8) ptr @_ZN6vectorIP4exprLb0EjE9push_backERKS1_(ptr noundef nonnull align 8 dereferenceable(8) %args1, ptr noundef nonnull align 8 dereferenceable(8) %th)
          to label %invoke.cont124 unwind label %lpad123

invoke.cont124:                                   ; preds = %invoke.cont122
  %75 = load i32, ptr %num_args.addr, align 4
  %sub126 = sub i32 %75, 1
  %76 = load ptr, ptr %args.addr, align 8
  %add.ptr127 = getelementptr inbounds ptr, ptr %76, i64 1
  invoke void @_ZN6vectorIP4exprLb0EjE6appendEjPKS1_(ptr noundef nonnull align 8 dereferenceable(8) %args1, i32 noundef %sub126, ptr noundef %add.ptr127)
          to label %invoke.cont128 unwind label %lpad123

invoke.cont128:                                   ; preds = %invoke.cont124
  %call130 = invoke noundef nonnull align 8 dereferenceable(8) ptr @_ZN6vectorIP4exprLb0EjE9push_backERKS1_(ptr noundef nonnull align 8 dereferenceable(8) %args2, ptr noundef nonnull align 8 dereferenceable(8) %el)
          to label %invoke.cont129 unwind label %lpad123

invoke.cont129:                                   ; preds = %invoke.cont128
  %77 = load i32, ptr %num_args.addr, align 4
  %sub131 = sub i32 %77, 1
  %78 = load ptr, ptr %args.addr, align 8
  %add.ptr132 = getelementptr inbounds ptr, ptr %78, i64 1
  invoke void @_ZN6vectorIP4exprLb0EjE6appendEjPKS1_(ptr noundef nonnull align 8 dereferenceable(8) %args2, i32 noundef %sub131, ptr noundef %add.ptr132)
          to label %invoke.cont133 unwind label %lpad123

invoke.cont133:                                   ; preds = %invoke.cont129
  %call135 = invoke noundef nonnull align 8 dereferenceable(976) ptr @_ZNK14array_rewriter1mEv(ptr noundef nonnull align 8 dereferenceable(22) %this1)
          to label %invoke.cont134 unwind label %lpad123

invoke.cont134:                                   ; preds = %invoke.cont133
  %79 = load ptr, ptr %c, align 8
  %m_util136 = getelementptr inbounds %class.array_rewriter, ptr %this1, i32 0, i32 0
  %80 = load i32, ptr %num_args.addr, align 4
  %call138 = invoke noundef ptr @_ZNK6vectorIP4exprLb0EjE4dataEv(ptr noundef nonnull align 8 dereferenceable(8) %args1)
          to label %invoke.cont137 unwind label %lpad123

invoke.cont137:                                   ; preds = %invoke.cont134
  %call140 = invoke noundef ptr @_ZNK10array_util9mk_selectEjPKP4expr(ptr noundef nonnull align 8 dereferenceable(16) %m_util136, i32 noundef %80, ptr noundef %call138)
          to label %invoke.cont139 unwind label %lpad123

invoke.cont139:                                   ; preds = %invoke.cont137
  %m_util141 = getelementptr inbounds %class.array_rewriter, ptr %this1, i32 0, i32 0
  %81 = load i32, ptr %num_args.addr, align 4
  %call143 = invoke noundef ptr @_ZNK6vectorIP4exprLb0EjE4dataEv(ptr noundef nonnull align 8 dereferenceable(8) %args2)
          to label %invoke.cont142 unwind label %lpad123

invoke.cont142:                                   ; preds = %invoke.cont139
  %call145 = invoke noundef ptr @_ZNK10array_util9mk_selectEjPKP4expr(ptr noundef nonnull align 8 dereferenceable(16) %m_util141, i32 noundef %81, ptr noundef %call143)
          to label %invoke.cont144 unwind label %lpad123

invoke.cont144:                                   ; preds = %invoke.cont142
  %call147 = invoke noundef ptr @_ZN11ast_manager6mk_iteEP4exprS1_S1_(ptr noundef nonnull align 8 dereferenceable(976) %call135, ptr noundef %79, ptr noundef %call140, ptr noundef %call145)
          to label %invoke.cont146 unwind label %lpad123

invoke.cont146:                                   ; preds = %invoke.cont144
  %82 = load ptr, ptr %result.addr, align 8
  %call149 = invoke noundef nonnull align 8 dereferenceable(16) ptr @_ZN7obj_refI4expr11ast_managerEaSEPS0_(ptr noundef nonnull align 8 dereferenceable(16) %82, ptr noundef %call147)
          to label %invoke.cont148 unwind label %lpad123

invoke.cont148:                                   ; preds = %invoke.cont146
  store i32 1, ptr %retval, align 4
  store i32 1, ptr %cleanup.dest.slot, align 4
  call void @_ZN10ptr_vectorI4exprED2Ev(ptr noundef nonnull align 8 dereferenceable(8) %args2) #3
  call void @_ZN10ptr_vectorI4exprED2Ev(ptr noundef nonnull align 8 dereferenceable(8) %args1) #3
  br label %return

lpad121:                                          ; preds = %if.then120
  %83 = landingpad { ptr, i32 }
          cleanup
  %84 = extractvalue { ptr, i32 } %83, 0
  store ptr %84, ptr %exn.slot, align 8
  %85 = extractvalue { ptr, i32 } %83, 1
  store i32 %85, ptr %ehselector.slot, align 4
  br label %ehcleanup153

lpad123:                                          ; preds = %invoke.cont146, %invoke.cont144, %invoke.cont142, %invoke.cont139, %invoke.cont137, %invoke.cont134, %invoke.cont133, %invoke.cont129, %invoke.cont128, %invoke.cont124, %invoke.cont122
  %86 = landingpad { ptr, i32 }
          cleanup
  %87 = extractvalue { ptr, i32 } %86, 0
  store ptr %87, ptr %exn.slot, align 8
  %88 = extractvalue { ptr, i32 } %86, 1
  store i32 %88, ptr %ehselector.slot, align 4
  call void @_ZN10ptr_vectorI4exprED2Ev(ptr noundef nonnull align 8 dereferenceable(8) %args2) #3
  br label %ehcleanup153

ehcleanup153:                                     ; preds = %lpad123, %lpad121
  call void @_ZN10ptr_vectorI4exprED2Ev(ptr noundef nonnull align 8 dereferenceable(8) %args1) #3
  br label %eh.resume

if.end154:                                        ; preds = %lor.lhs.false117, %if.end109
  store i32 5, ptr %retval, align 4
  br label %return

return:                                           ; preds = %if.end154, %invoke.cont148, %if.end108, %cleanup, %invoke.cont35, %if.then
  %89 = load i32, ptr %retval, align 4
  ret i32 %89

eh.resume:                                        ; preds = %ehcleanup153, %ehcleanup, %lpad
  %exn = load ptr, ptr %exn.slot, align 8
  %sel = load i32, ptr %ehselector.slot, align 4
  %lpad.val = insertvalue { ptr, i32 } poison, ptr %exn, 0
  %lpad.val155 = insertvalue { ptr, i32 } %lpad.val, i32 %sel, 1
  resume { ptr, i32 } %lpad.val155
}

; Function Attrs: mustprogress uwtable
define hidden noundef i32 @_ZN14array_rewriter13mk_store_coreEjPKP4exprR7obj_refIS0_11ast_managerE(ptr noundef nonnull align 8 dereferenceable(22) %this, i32 noundef %num_args, ptr noundef %args, ptr noundef nonnull align 8 dereferenceable(16) %result) #4 align 2 personality ptr @__gxx_personality_v0 {
entry:
  %retval = alloca i32, align 4
  %this.addr = alloca ptr, align 8
  %num_args.addr = alloca i32, align 4
  %args.addr = alloca ptr, align 8
  %result.addr = alloca ptr, align 8
  %r = alloca i32, align 4
  %new_args = alloca %class.ptr_buffer, align 8
  %ref.tmp = alloca ptr, align 8
  %exn.slot = alloca ptr, align 8
  %ehselector.slot = alloca i32, align 4
  %new_args34 = alloca %class.ptr_buffer, align 8
  %ref.tmp35 = alloca ptr, align 8
  %nested_store = alloca ptr, align 8
  %v = alloca ptr, align 8
  store ptr %this, ptr %this.addr, align 8
  store i32 %num_args, ptr %num_args.addr, align 4
  store ptr %args, ptr %args.addr, align 8
  store ptr %result, ptr %result.addr, align 8
  %this1 = load ptr, ptr %this.addr, align 8
  %m_util = getelementptr inbounds %class.array_rewriter, ptr %this1, i32 0, i32 0
  %0 = load ptr, ptr %args.addr, align 8
  %arrayidx = getelementptr inbounds ptr, ptr %0, i64 0
  %1 = load ptr, ptr %arrayidx, align 8
  %call = call noundef zeroext i1 @_ZNK17array_recognizers8is_storeEP4expr(ptr noundef nonnull align 4 dereferenceable(4) %m_util, ptr noundef %1)
  br i1 %call, label %if.then, label %if.end78

if.then:                                          ; preds = %entry
  %2 = load i32, ptr %num_args.addr, align 4
  %sub = sub i32 %2, 2
  %3 = load ptr, ptr %args.addr, align 8
  %add.ptr = getelementptr inbounds ptr, ptr %3, i64 1
  %4 = load ptr, ptr %args.addr, align 8
  %arrayidx2 = getelementptr inbounds ptr, ptr %4, i64 0
  %5 = load ptr, ptr %arrayidx2, align 8
  %call3 = call noundef ptr @_Z6to_appP3ast(ptr noundef %5)
  %call4 = call noundef ptr @_ZNK3app8get_argsEv(ptr noundef nonnull align 8 dereferenceable(32) %call3)
  %add.ptr5 = getelementptr inbounds ptr, ptr %call4, i64 1
  %call6 = call noundef i32 @_ZN14array_rewriter12compare_argsEjPKP4exprS3_(ptr noundef nonnull align 8 dereferenceable(22) %this1, i32 noundef %sub, ptr noundef %add.ptr, ptr noundef %add.ptr5)
  store i32 %call6, ptr %r, align 4
  %6 = load i32, ptr %r, align 4
  switch i32 %6, label %sw.epilog [
    i32 1, label %sw.bb
    i32 -1, label %sw.bb25
    i32 0, label %sw.bb77
  ]

sw.bb:                                            ; preds = %if.then
  call void @_ZN10ptr_bufferI4exprLj16EEC2Ev(ptr noundef nonnull align 8 dereferenceable(144) %new_args) #3
  %7 = load ptr, ptr %args.addr, align 8
  %arrayidx7 = getelementptr inbounds ptr, ptr %7, i64 0
  %8 = load ptr, ptr %arrayidx7, align 8
  %call8 = invoke noundef ptr @_Z6to_appP3ast(ptr noundef %8)
          to label %invoke.cont unwind label %lpad

invoke.cont:                                      ; preds = %sw.bb
  %call10 = invoke noundef ptr @_ZNK3app7get_argEj(ptr noundef nonnull align 8 dereferenceable(32) %call8, i32 noundef 0)
          to label %invoke.cont9 unwind label %lpad

invoke.cont9:                                     ; preds = %invoke.cont
  store ptr %call10, ptr %ref.tmp, align 8
  invoke void @_ZN6bufferIP4exprLb0ELj16EE9push_backEOS1_(ptr noundef nonnull align 8 dereferenceable(144) %new_args, ptr noundef nonnull align 8 dereferenceable(8) %ref.tmp)
          to label %invoke.cont11 unwind label %lpad

invoke.cont11:                                    ; preds = %invoke.cont9
  %9 = load i32, ptr %num_args.addr, align 4
  %sub12 = sub i32 %9, 1
  %10 = load ptr, ptr %args.addr, align 8
  %add.ptr13 = getelementptr inbounds ptr, ptr %10, i64 1
  invoke void @_ZN10ptr_bufferI4exprLj16EE6appendEjPKPS0_(ptr noundef nonnull align 8 dereferenceable(144) %new_args, i32 noundef %sub12, ptr noundef %add.ptr13)
          to label %invoke.cont14 unwind label %lpad

invoke.cont14:                                    ; preds = %invoke.cont11
  %call16 = invoke noundef nonnull align 8 dereferenceable(976) ptr @_ZNK14array_rewriter1mEv(ptr noundef nonnull align 8 dereferenceable(22) %this1)
          to label %invoke.cont15 unwind label %lpad

invoke.cont15:                                    ; preds = %invoke.cont14
  %call18 = invoke noundef i32 @_ZNK14array_rewriter7get_fidEv(ptr noundef nonnull align 8 dereferenceable(22) %this1)
          to label %invoke.cont17 unwind label %lpad

invoke.cont17:                                    ; preds = %invoke.cont15
  %11 = load i32, ptr %num_args.addr, align 4
  %call20 = invoke noundef ptr @_ZNK6bufferIP4exprLb0ELj16EE4dataEv(ptr noundef nonnull align 8 dereferenceable(144) %new_args)
          to label %invoke.cont19 unwind label %lpad

invoke.cont19:                                    ; preds = %invoke.cont17
  %call22 = invoke noundef ptr @_ZN11ast_manager6mk_appEiijPKP4expr(ptr noundef nonnull align 8 dereferenceable(976) %call16, i32 noundef %call18, i32 noundef 0, i32 noundef %11, ptr noundef %call20)
          to label %invoke.cont21 unwind label %lpad

invoke.cont21:                                    ; preds = %invoke.cont19
  %12 = load ptr, ptr %result.addr, align 8
  %call24 = invoke noundef nonnull align 8 dereferenceable(16) ptr @_ZN7obj_refI4expr11ast_managerEaSEPS0_(ptr noundef nonnull align 8 dereferenceable(16) %12, ptr noundef %call22)
          to label %invoke.cont23 unwind label %lpad

invoke.cont23:                                    ; preds = %invoke.cont21
  store i32 4, ptr %retval, align 4
  call void @_ZN10ptr_bufferI4exprLj16EED2Ev(ptr noundef nonnull align 8 dereferenceable(144) %new_args) #3
  br label %return

lpad:                                             ; preds = %invoke.cont21, %invoke.cont19, %invoke.cont17, %invoke.cont15, %invoke.cont14, %invoke.cont11, %invoke.cont9, %invoke.cont, %sw.bb
  %13 = landingpad { ptr, i32 }
          cleanup
  %14 = extractvalue { ptr, i32 } %13, 0
  store ptr %14, ptr %exn.slot, align 8
  %15 = extractvalue { ptr, i32 } %13, 1
  store i32 %15, ptr %ehselector.slot, align 4
  call void @_ZN10ptr_bufferI4exprLj16EED2Ev(ptr noundef nonnull align 8 dereferenceable(144) %new_args) #3
  br label %eh.resume

sw.bb25:                                          ; preds = %if.then
  %m_sort_store = getelementptr inbounds %class.array_rewriter, ptr %this1, i32 0, i32 1
  %16 = load i8, ptr %m_sort_store, align 8
  %tobool = trunc i8 %16 to i1
  br i1 %tobool, label %land.lhs.true, label %if.end

land.lhs.true:                                    ; preds = %sw.bb25
  %17 = load i32, ptr %num_args.addr, align 4
  %sub26 = sub i32 %17, 2
  %18 = load ptr, ptr %args.addr, align 8
  %add.ptr27 = getelementptr inbounds ptr, ptr %18, i64 1
  %19 = load ptr, ptr %args.addr, align 8
  %arrayidx28 = getelementptr inbounds ptr, ptr %19, i64 0
  %20 = load ptr, ptr %arrayidx28, align 8
  %call29 = call noundef ptr @_Z6to_appP3ast(ptr noundef %20)
  %call30 = call noundef ptr @_ZNK3app8get_argsEv(ptr noundef nonnull align 8 dereferenceable(32) %call29)
  %add.ptr31 = getelementptr inbounds ptr, ptr %call30, i64 1
  %call32 = call noundef zeroext i1 @_Z6lex_ltjPKP4exprS2_(i32 noundef %sub26, ptr noundef %add.ptr27, ptr noundef %add.ptr31)
  br i1 %call32, label %if.then33, label %if.end

if.then33:                                        ; preds = %land.lhs.true
  call void @_ZN10ptr_bufferI4exprLj16EEC2Ev(ptr noundef nonnull align 8 dereferenceable(144) %new_args34) #3
  %21 = load ptr, ptr %args.addr, align 8
  %arrayidx36 = getelementptr inbounds ptr, ptr %21, i64 0
  %22 = load ptr, ptr %arrayidx36, align 8
  %call39 = invoke noundef ptr @_Z6to_appP3ast(ptr noundef %22)
          to label %invoke.cont38 unwind label %lpad37

invoke.cont38:                                    ; preds = %if.then33
  %call41 = invoke noundef ptr @_ZNK3app7get_argEj(ptr noundef nonnull align 8 dereferenceable(32) %call39, i32 noundef 0)
          to label %invoke.cont40 unwind label %lpad37

invoke.cont40:                                    ; preds = %invoke.cont38
  store ptr %call41, ptr %ref.tmp35, align 8
  invoke void @_ZN6bufferIP4exprLb0ELj16EE9push_backEOS1_(ptr noundef nonnull align 8 dereferenceable(144) %new_args34, ptr noundef nonnull align 8 dereferenceable(8) %ref.tmp35)
          to label %invoke.cont42 unwind label %lpad37

invoke.cont42:                                    ; preds = %invoke.cont40
  %23 = load i32, ptr %num_args.addr, align 4
  %sub43 = sub i32 %23, 1
  %24 = load ptr, ptr %args.addr, align 8
  %add.ptr44 = getelementptr inbounds ptr, ptr %24, i64 1
  invoke void @_ZN10ptr_bufferI4exprLj16EE6appendEjPKPS0_(ptr noundef nonnull align 8 dereferenceable(144) %new_args34, i32 noundef %sub43, ptr noundef %add.ptr44)
          to label %invoke.cont45 unwind label %lpad37

invoke.cont45:                                    ; preds = %invoke.cont42
  %call47 = invoke noundef nonnull align 8 dereferenceable(976) ptr @_ZNK14array_rewriter1mEv(ptr noundef nonnull align 8 dereferenceable(22) %this1)
          to label %invoke.cont46 unwind label %lpad37

invoke.cont46:                                    ; preds = %invoke.cont45
  %call49 = invoke noundef i32 @_ZNK14array_rewriter7get_fidEv(ptr noundef nonnull align 8 dereferenceable(22) %this1)
          to label %invoke.cont48 unwind label %lpad37

invoke.cont48:                                    ; preds = %invoke.cont46
  %25 = load i32, ptr %num_args.addr, align 4
  %call51 = invoke noundef ptr @_ZNK6bufferIP4exprLb0ELj16EE4dataEv(ptr noundef nonnull align 8 dereferenceable(144) %new_args34)
          to label %invoke.cont50 unwind label %lpad37

invoke.cont50:                                    ; preds = %invoke.cont48
  %call53 = invoke noundef ptr @_ZN11ast_manager6mk_appEiijPKP4expr(ptr noundef nonnull align 8 dereferenceable(976) %call47, i32 noundef %call49, i32 noundef 0, i32 noundef %25, ptr noundef %call51)
          to label %invoke.cont52 unwind label %lpad37

invoke.cont52:                                    ; preds = %invoke.cont50
  store ptr %call53, ptr %nested_store, align 8
  invoke void @_ZN6bufferIP4exprLb0ELj16EE5resetEv(ptr noundef nonnull align 8 dereferenceable(144) %new_args34)
          to label %invoke.cont54 unwind label %lpad37

invoke.cont54:                                    ; preds = %invoke.cont52
  invoke void @_ZN6bufferIP4exprLb0ELj16EE9push_backERKS1_(ptr noundef nonnull align 8 dereferenceable(144) %new_args34, ptr noundef nonnull align 8 dereferenceable(8) %nested_store)
          to label %invoke.cont55 unwind label %lpad37

invoke.cont55:                                    ; preds = %invoke.cont54
  %26 = load i32, ptr %num_args.addr, align 4
  %sub56 = sub i32 %26, 1
  %27 = load ptr, ptr %args.addr, align 8
  %arrayidx57 = getelementptr inbounds ptr, ptr %27, i64 0
  %28 = load ptr, ptr %arrayidx57, align 8
  %call59 = invoke noundef ptr @_Z6to_appP3ast(ptr noundef %28)
          to label %invoke.cont58 unwind label %lpad37

invoke.cont58:                                    ; preds = %invoke.cont55
  %call61 = invoke noundef ptr @_ZNK3app8get_argsEv(ptr noundef nonnull align 8 dereferenceable(32) %call59)
          to label %invoke.cont60 unwind label %lpad37

invoke.cont60:                                    ; preds = %invoke.cont58
  %add.ptr62 = getelementptr inbounds ptr, ptr %call61, i64 1
  invoke void @_ZN10ptr_bufferI4exprLj16EE6appendEjPKPS0_(ptr noundef nonnull align 8 dereferenceable(144) %new_args34, i32 noundef %sub56, ptr noundef %add.ptr62)
          to label %invoke.cont63 unwind label %lpad37

invoke.cont63:                                    ; preds = %invoke.cont60
  %call65 = invoke noundef nonnull align 8 dereferenceable(976) ptr @_ZNK14array_rewriter1mEv(ptr noundef nonnull align 8 dereferenceable(22) %this1)
          to label %invoke.cont64 unwind label %lpad37

invoke.cont64:                                    ; preds = %invoke.cont63
  %call67 = invoke noundef i32 @_ZNK14array_rewriter7get_fidEv(ptr noundef nonnull align 8 dereferenceable(22) %this1)
          to label %invoke.cont66 unwind label %lpad37

invoke.cont66:                                    ; preds = %invoke.cont64
  %29 = load i32, ptr %num_args.addr, align 4
  %call69 = invoke noundef ptr @_ZNK6bufferIP4exprLb0ELj16EE4dataEv(ptr noundef nonnull align 8 dereferenceable(144) %new_args34)
          to label %invoke.cont68 unwind label %lpad37

invoke.cont68:                                    ; preds = %invoke.cont66
  %call71 = invoke noundef ptr @_ZN11ast_manager6mk_appEiijPKP4expr(ptr noundef nonnull align 8 dereferenceable(976) %call65, i32 noundef %call67, i32 noundef 0, i32 noundef %29, ptr noundef %call69)
          to label %invoke.cont70 unwind label %lpad37

invoke.cont70:                                    ; preds = %invoke.cont68
  %30 = load ptr, ptr %result.addr, align 8
  %call73 = invoke noundef nonnull align 8 dereferenceable(16) ptr @_ZN7obj_refI4expr11ast_managerEaSEPS0_(ptr noundef nonnull align 8 dereferenceable(16) %30, ptr noundef %call71)
          to label %invoke.cont72 unwind label %lpad37

invoke.cont72:                                    ; preds = %invoke.cont70
  store i32 1, ptr %retval, align 4
  call void @_ZN10ptr_bufferI4exprLj16EED2Ev(ptr noundef nonnull align 8 dereferenceable(144) %new_args34) #3
  br label %return

lpad37:                                           ; preds = %invoke.cont70, %invoke.cont68, %invoke.cont66, %invoke.cont64, %invoke.cont63, %invoke.cont60, %invoke.cont58, %invoke.cont55, %invoke.cont54, %invoke.cont52, %invoke.cont50, %invoke.cont48, %invoke.cont46, %invoke.cont45, %invoke.cont42, %invoke.cont40, %invoke.cont38, %if.then33
  %31 = landingpad { ptr, i32 }
          cleanup
  %32 = extractvalue { ptr, i32 } %31, 0
  store ptr %32, ptr %exn.slot, align 8
  %33 = extractvalue { ptr, i32 } %31, 1
  store i32 %33, ptr %ehselector.slot, align 4
  call void @_ZN10ptr_bufferI4exprLj16EED2Ev(ptr noundef nonnull align 8 dereferenceable(144) %new_args34) #3
  br label %eh.resume

if.end:                                           ; preds = %land.lhs.true, %sw.bb25
  %34 = load i32, ptr %num_args.addr, align 4
  %35 = load ptr, ptr %args.addr, align 8
  %36 = load ptr, ptr %result.addr, align 8
  %call74 = call noundef zeroext i1 @_ZN14array_rewriter12squash_storeEjPKP4exprR7obj_refIS0_11ast_managerE(ptr noundef nonnull align 8 dereferenceable(22) %this1, i32 noundef %34, ptr noundef %35, ptr noundef nonnull align 8 dereferenceable(16) %36)
  br i1 %call74, label %if.then75, label %if.end76

if.then75:                                        ; preds = %if.end
  store i32 1, ptr %retval, align 4
  br label %return

if.end76:                                         ; preds = %if.end
  br label %sw.epilog

sw.bb77:                                          ; preds = %if.then
  br label %sw.epilog

sw.epilog:                                        ; preds = %sw.bb77, %if.end76, %if.then
  br label %if.end78

if.end78:                                         ; preds = %sw.epilog, %entry
  %m_util79 = getelementptr inbounds %class.array_rewriter, ptr %this1, i32 0, i32 0
  %37 = load ptr, ptr %args.addr, align 8
  %arrayidx80 = getelementptr inbounds ptr, ptr %37, i64 0
  %38 = load ptr, ptr %arrayidx80, align 8
  %call81 = call noundef zeroext i1 @_ZNK17array_recognizers8is_constEP4expr(ptr noundef nonnull align 4 dereferenceable(4) %m_util79, ptr noundef %38)
  br i1 %call81, label %land.lhs.true82, label %if.end91

land.lhs.true82:                                  ; preds = %if.end78
  %39 = load ptr, ptr %args.addr, align 8
  %arrayidx83 = getelementptr inbounds ptr, ptr %39, i64 0
  %40 = load ptr, ptr %arrayidx83, align 8
  %call84 = call noundef ptr @_Z6to_appP3ast(ptr noundef %40)
  %call85 = call noundef ptr @_ZNK3app7get_argEj(ptr noundef nonnull align 8 dereferenceable(32) %call84, i32 noundef 0)
  %41 = load ptr, ptr %args.addr, align 8
  %42 = load i32, ptr %num_args.addr, align 4
  %sub86 = sub i32 %42, 1
  %idxprom = zext i32 %sub86 to i64
  %arrayidx87 = getelementptr inbounds ptr, ptr %41, i64 %idxprom
  %43 = load ptr, ptr %arrayidx87, align 8
  %cmp = icmp eq ptr %call85, %43
  br i1 %cmp, label %if.then88, label %if.end91

if.then88:                                        ; preds = %land.lhs.true82
  %44 = load ptr, ptr %args.addr, align 8
  %arrayidx89 = getelementptr inbounds ptr, ptr %44, i64 0
  %45 = load ptr, ptr %arrayidx89, align 8
  %46 = load ptr, ptr %result.addr, align 8
  %call90 = call noundef nonnull align 8 dereferenceable(16) ptr @_ZN7obj_refI4expr11ast_managerEaSEPS0_(ptr noundef nonnull align 8 dereferenceable(16) %46, ptr noundef %45)
  store i32 4, ptr %retval, align 4
  br label %return

if.end91:                                         ; preds = %land.lhs.true82, %if.end78
  %47 = load ptr, ptr %args.addr, align 8
  %48 = load i32, ptr %num_args.addr, align 4
  %sub92 = sub i32 %48, 1
  %idxprom93 = zext i32 %sub92 to i64
  %arrayidx94 = getelementptr inbounds ptr, ptr %47, i64 %idxprom93
  %49 = load ptr, ptr %arrayidx94, align 8
  store ptr %49, ptr %v, align 8
  %m_util95 = getelementptr inbounds %class.array_rewriter, ptr %this1, i32 0, i32 0
  %50 = load ptr, ptr %v, align 8
  %call96 = call noundef zeroext i1 @_ZNK17array_recognizers9is_selectEP4expr(ptr noundef nonnull align 4 dereferenceable(4) %m_util95, ptr noundef %50)
  br i1 %call96, label %land.lhs.true97, label %if.end106

land.lhs.true97:                                  ; preds = %if.end91
  %51 = load i32, ptr %num_args.addr, align 4
  %sub98 = sub i32 %51, 1
  %52 = load ptr, ptr %args.addr, align 8
  %53 = load ptr, ptr %v, align 8
  %call99 = call noundef ptr @_Z6to_appP3ast(ptr noundef %53)
  %call100 = call noundef ptr @_ZNK3app8get_argsEv(ptr noundef nonnull align 8 dereferenceable(32) %call99)
  %call101 = call noundef i32 @_ZN14array_rewriter12compare_argsEjPKP4exprS3_(ptr noundef nonnull align 8 dereferenceable(22) %this1, i32 noundef %sub98, ptr noundef %52, ptr noundef %call100)
  %cmp102 = icmp eq i32 1, %call101
  br i1 %cmp102, label %if.then103, label %if.end106

if.then103:                                       ; preds = %land.lhs.true97
  %54 = load ptr, ptr %args.addr, align 8
  %arrayidx104 = getelementptr inbounds ptr, ptr %54, i64 0
  %55 = load ptr, ptr %arrayidx104, align 8
  %56 = load ptr, ptr %result.addr, align 8
  %call105 = call noundef nonnull align 8 dereferenceable(16) ptr @_ZN7obj_refI4expr11ast_managerEaSEPS0_(ptr noundef nonnull align 8 dereferenceable(16) %56, ptr noundef %55)
  store i32 4, ptr %retval, align 4
  br label %return

if.end106:                                        ; preds = %land.lhs.true97, %if.end91
  store i32 5, ptr %retval, align 4
  br label %return

return:                                           ; preds = %if.end106, %if.then103, %if.then88, %if.then75, %invoke.cont72, %invoke.cont23
  %57 = load i32, ptr %retval, align 4
  ret i32 %57

eh.resume:                                        ; preds = %lpad37, %lpad
  %exn = load ptr, ptr %exn.slot, align 8
  %sel = load i32, ptr %ehselector.slot, align 4
  %lpad.val = insertvalue { ptr, i32 } poison, ptr %exn, 0
  %lpad.val107 = insertvalue { ptr, i32 } %lpad.val, i32 %sel, 1
  resume { ptr, i32 } %lpad.val107
}

; Function Attrs: mustprogress uwtable
define hidden noundef i32 @_ZN14array_rewriter11mk_map_coreEP9func_decljPKP4exprR7obj_refIS2_11ast_managerE(ptr noundef nonnull align 8 dereferenceable(22) %this, ptr noundef %f, i32 noundef %num_args, ptr noundef %args, ptr noundef nonnull align 8 dereferenceable(16) %result) #4 align 2 personality ptr @__gxx_personality_v0 {
entry:
  %retval = alloca i32, align 4
  %this.addr = alloca ptr, align 8
  %f.addr = alloca ptr, align 8
  %num_args.addr = alloca i32, align 4
  %args.addr = alloca ptr, align 8
  %result.addr = alloca ptr, align 8
  %store_expr = alloca ptr, align 8
  %num_indices = alloca i32, align 4
  %same_store = alloca i8, align 1
  %i = alloca i32, align 4
  %a = alloca ptr, align 8
  %j = alloca i32, align 4
  %arrays = alloca %class.ptr_buffer, align 8
  %values = alloca %class.ptr_buffer, align 8
  %i29 = alloca i32, align 4
  %a33 = alloca ptr, align 8
  %exn.slot = alloca ptr, align 8
  %ehselector.slot = alloca i32, align 4
  %ref.tmp = alloca ptr, align 8
  %ref.tmp46 = alloca ptr, align 8
  %ref.tmp52 = alloca ptr, align 8
  %new_args = alloca %class.ptr_buffer, align 8
  %ref.tmp65 = alloca ptr, align 8
  %ref.tmp78 = alloca ptr, align 8
  %value = alloca %class.obj_ref, align 8
  %s = alloca %class.obj_ref.43, align 8
  %lam = alloca ptr, align 8
  %i128 = alloca i32, align 4
  %args1 = alloca %class.ref_vector, align 8
  %i153 = alloca i32, align 4
  %a157 = alloca ptr, align 8
  %mark = alloca %class.ast_mark, align 8
  %es = alloca %class.ptr_buffer, align 8
  %change = alloca i8, align 1
  %j226 = alloca i32, align 4
  %i229 = alloca i32, align 4
  %e = alloca ptr, align 8
  %__range2 = alloca ptr, align 8
  %__begin2 = alloca ptr, align 8
  %__end2 = alloca ptr, align 8
  %e283 = alloca ptr, align 8
  %arg = alloca ptr, align 8
  %s303 = alloca %class.obj_ref.43, align 8
  %cleanup.dest.slot = alloca i32, align 4
  %k = alloca i32, align 4
  %gs = alloca %class.ptr_buffer, align 8
  %and_change = alloca i8, align 1
  %i341 = alloca i32, align 4
  %g = alloca ptr, align 8
  %arg393 = alloca ptr, align 8
  %mark442 = alloca %class.ast_mark, align 8
  %es443 = alloca %class.ptr_buffer, align 8
  %j446 = alloca i32, align 4
  %change447 = alloca i8, align 1
  %i448 = alloca i32, align 4
  %e454 = alloca ptr, align 8
  %__range2496 = alloca ptr, align 8
  %__begin2497 = alloca ptr, align 8
  %__end2500 = alloca ptr, align 8
  %e506 = alloca ptr, align 8
  %s526 = alloca %class.obj_ref.43, align 8
  store ptr %this, ptr %this.addr, align 8
  store ptr %f, ptr %f.addr, align 8
  store i32 %num_args, ptr %num_args.addr, align 4
  store ptr %args, ptr %args.addr, align 8
  store ptr %result, ptr %result.addr, align 8
  %this1 = load ptr, ptr %this.addr, align 8
  store ptr null, ptr %store_expr, align 8
  store i32 0, ptr %num_indices, align 4
  store i8 1, ptr %same_store, align 1
  store i32 0, ptr %i, align 4
  br label %for.cond

for.cond:                                         ; preds = %for.inc24, %entry
  %0 = load i8, ptr %same_store, align 1
  %tobool = trunc i8 %0 to i1
  br i1 %tobool, label %land.rhs, label %land.end

land.rhs:                                         ; preds = %for.cond
  %1 = load i32, ptr %i, align 4
  %2 = load i32, ptr %num_args.addr, align 4
  %cmp = icmp ult i32 %1, %2
  br label %land.end

land.end:                                         ; preds = %land.rhs, %for.cond
  %3 = phi i1 [ false, %for.cond ], [ %cmp, %land.rhs ]
  br i1 %3, label %for.body, label %for.end26

for.body:                                         ; preds = %land.end
  %4 = load ptr, ptr %args.addr, align 8
  %5 = load i32, ptr %i, align 4
  %idxprom = zext i32 %5 to i64
  %arrayidx = getelementptr inbounds ptr, ptr %4, i64 %idxprom
  %6 = load ptr, ptr %arrayidx, align 8
  store ptr %6, ptr %a, align 8
  %m_util = getelementptr inbounds %class.array_rewriter, ptr %this1, i32 0, i32 0
  %7 = load ptr, ptr %a, align 8
  %call = call noundef zeroext i1 @_ZNK17array_recognizers8is_constEP4expr(ptr noundef nonnull align 4 dereferenceable(4) %m_util, ptr noundef %7)
  br i1 %call, label %if.then, label %if.else

if.then:                                          ; preds = %for.body
  br label %for.inc24

if.else:                                          ; preds = %for.body
  %m_util2 = getelementptr inbounds %class.array_rewriter, ptr %this1, i32 0, i32 0
  %8 = load ptr, ptr %a, align 8
  %call3 = call noundef zeroext i1 @_ZNK17array_recognizers8is_storeEP4expr(ptr noundef nonnull align 4 dereferenceable(4) %m_util2, ptr noundef %8)
  br i1 %call3, label %if.else5, label %if.then4

if.then4:                                         ; preds = %if.else
  store i8 0, ptr %same_store, align 1
  br label %if.end22

if.else5:                                         ; preds = %if.else
  %9 = load ptr, ptr %store_expr, align 8
  %tobool6 = icmp ne ptr %9, null
  br i1 %tobool6, label %if.else11, label %if.then7

if.then7:                                         ; preds = %if.else5
  %10 = load ptr, ptr %a, align 8
  %call8 = call noundef ptr @_Z6to_appP3ast(ptr noundef %10)
  %call9 = call noundef i32 @_ZNK3app12get_num_argsEv(ptr noundef nonnull align 8 dereferenceable(32) %call8)
  %sub = sub i32 %call9, 2
  store i32 %sub, ptr %num_indices, align 4
  %11 = load ptr, ptr %a, align 8
  %call10 = call noundef ptr @_Z6to_appP3ast(ptr noundef %11)
  store ptr %call10, ptr %store_expr, align 8
  br label %if.end

if.else11:                                        ; preds = %if.else5
  store i32 1, ptr %j, align 4
  br label %for.cond12

for.cond12:                                       ; preds = %for.inc, %if.else11
  %12 = load i8, ptr %same_store, align 1
  %tobool13 = trunc i8 %12 to i1
  br i1 %tobool13, label %land.rhs14, label %land.end16

land.rhs14:                                       ; preds = %for.cond12
  %13 = load i32, ptr %j, align 4
  %14 = load i32, ptr %num_indices, align 4
  %add = add i32 %14, 1
  %cmp15 = icmp ult i32 %13, %add
  br label %land.end16

land.end16:                                       ; preds = %land.rhs14, %for.cond12
  %15 = phi i1 [ false, %for.cond12 ], [ %cmp15, %land.rhs14 ]
  br i1 %15, label %for.body17, label %for.end

for.body17:                                       ; preds = %land.end16
  %16 = load ptr, ptr %store_expr, align 8
  %17 = load i32, ptr %j, align 4
  %call18 = call noundef ptr @_ZNK3app7get_argEj(ptr noundef nonnull align 8 dereferenceable(32) %16, i32 noundef %17)
  %18 = load ptr, ptr %a, align 8
  %call19 = call noundef ptr @_Z6to_appP3ast(ptr noundef %18)
  %19 = load i32, ptr %j, align 4
  %call20 = call noundef ptr @_ZNK3app7get_argEj(ptr noundef nonnull align 8 dereferenceable(32) %call19, i32 noundef %19)
  %cmp21 = icmp eq ptr %call18, %call20
  %frombool = zext i1 %cmp21 to i8
  store i8 %frombool, ptr %same_store, align 1
  br label %for.inc

for.inc:                                          ; preds = %for.body17
  %20 = load i32, ptr %j, align 4
  %inc = add i32 %20, 1
  store i32 %inc, ptr %j, align 4
  br label %for.cond12, !llvm.loop !8

for.end:                                          ; preds = %land.end16
  br label %if.end

if.end:                                           ; preds = %for.end, %if.then7
  br label %if.end22

if.end22:                                         ; preds = %if.end, %if.then4
  br label %if.end23

if.end23:                                         ; preds = %if.end22
  br label %for.inc24

for.inc24:                                        ; preds = %if.end23, %if.then
  %21 = load i32, ptr %i, align 4
  %inc25 = add i32 %21, 1
  store i32 %inc25, ptr %i, align 4
  br label %for.cond, !llvm.loop !9

for.end26:                                        ; preds = %land.end
  %22 = load i8, ptr %same_store, align 1
  %tobool27 = trunc i8 %22 to i1
  br i1 %tobool27, label %if.then28, label %if.end127

if.then28:                                        ; preds = %for.end26
  call void @_ZN10ptr_bufferI4exprLj16EEC2Ev(ptr noundef nonnull align 8 dereferenceable(144) %arrays) #3
  call void @_ZN10ptr_bufferI4exprLj16EEC2Ev(ptr noundef nonnull align 8 dereferenceable(144) %values) #3
  store i32 0, ptr %i29, align 4
  br label %for.cond30

for.cond30:                                       ; preds = %for.inc60, %if.then28
  %23 = load i32, ptr %i29, align 4
  %24 = load i32, ptr %num_args.addr, align 4
  %cmp31 = icmp ult i32 %23, %24
  br i1 %cmp31, label %for.body32, label %for.end62

for.body32:                                       ; preds = %for.cond30
  %25 = load ptr, ptr %args.addr, align 8
  %26 = load i32, ptr %i29, align 4
  %idxprom34 = zext i32 %26 to i64
  %arrayidx35 = getelementptr inbounds ptr, ptr %25, i64 %idxprom34
  %27 = load ptr, ptr %arrayidx35, align 8
  store ptr %27, ptr %a33, align 8
  %m_util36 = getelementptr inbounds %class.array_rewriter, ptr %this1, i32 0, i32 0
  %28 = load ptr, ptr %a33, align 8
  %call37 = invoke noundef zeroext i1 @_ZNK17array_recognizers8is_constEP4expr(ptr noundef nonnull align 4 dereferenceable(4) %m_util36, ptr noundef %28)
          to label %invoke.cont unwind label %lpad

invoke.cont:                                      ; preds = %for.body32
  br i1 %call37, label %if.then38, label %if.else45

if.then38:                                        ; preds = %invoke.cont
  invoke void @_ZN6bufferIP4exprLb0ELj16EE9push_backERKS1_(ptr noundef nonnull align 8 dereferenceable(144) %arrays, ptr noundef nonnull align 8 dereferenceable(8) %a33)
          to label %invoke.cont39 unwind label %lpad

invoke.cont39:                                    ; preds = %if.then38
  %29 = load ptr, ptr %a33, align 8
  %call41 = invoke noundef ptr @_Z6to_appP3ast(ptr noundef %29)
          to label %invoke.cont40 unwind label %lpad

invoke.cont40:                                    ; preds = %invoke.cont39
  %call43 = invoke noundef ptr @_ZNK3app7get_argEj(ptr noundef nonnull align 8 dereferenceable(32) %call41, i32 noundef 0)
          to label %invoke.cont42 unwind label %lpad

invoke.cont42:                                    ; preds = %invoke.cont40
  store ptr %call43, ptr %ref.tmp, align 8
  invoke void @_ZN6bufferIP4exprLb0ELj16EE9push_backEOS1_(ptr noundef nonnull align 8 dereferenceable(144) %values, ptr noundef nonnull align 8 dereferenceable(8) %ref.tmp)
          to label %invoke.cont44 unwind label %lpad

invoke.cont44:                                    ; preds = %invoke.cont42
  br label %if.end59

lpad:                                             ; preds = %invoke.cont109, %invoke.cont107, %invoke.cont105, %invoke.cont103, %invoke.cont101, %if.else100, %invoke.cont56, %invoke.cont53, %invoke.cont51, %invoke.cont49, %invoke.cont47, %if.else45, %invoke.cont42, %invoke.cont40, %invoke.cont39, %if.then38, %for.body32
  %30 = landingpad { ptr, i32 }
          cleanup
  %31 = extractvalue { ptr, i32 } %30, 0
  store ptr %31, ptr %exn.slot, align 8
  %32 = extractvalue { ptr, i32 } %30, 1
  store i32 %32, ptr %ehselector.slot, align 4
  br label %ehcleanup125

if.else45:                                        ; preds = %invoke.cont
  %33 = load ptr, ptr %a33, align 8
  %call48 = invoke noundef ptr @_Z6to_appP3ast(ptr noundef %33)
          to label %invoke.cont47 unwind label %lpad

invoke.cont47:                                    ; preds = %if.else45
  %call50 = invoke noundef ptr @_ZNK3app7get_argEj(ptr noundef nonnull align 8 dereferenceable(32) %call48, i32 noundef 0)
          to label %invoke.cont49 unwind label %lpad

invoke.cont49:                                    ; preds = %invoke.cont47
  store ptr %call50, ptr %ref.tmp46, align 8
  invoke void @_ZN6bufferIP4exprLb0ELj16EE9push_backEOS1_(ptr noundef nonnull align 8 dereferenceable(144) %arrays, ptr noundef nonnull align 8 dereferenceable(8) %ref.tmp46)
          to label %invoke.cont51 unwind label %lpad

invoke.cont51:                                    ; preds = %invoke.cont49
  %34 = load ptr, ptr %a33, align 8
  %call54 = invoke noundef ptr @_Z6to_appP3ast(ptr noundef %34)
          to label %invoke.cont53 unwind label %lpad

invoke.cont53:                                    ; preds = %invoke.cont51
  %35 = load i32, ptr %num_indices, align 4
  %add55 = add i32 %35, 1
  %call57 = invoke noundef ptr @_ZNK3app7get_argEj(ptr noundef nonnull align 8 dereferenceable(32) %call54, i32 noundef %add55)
          to label %invoke.cont56 unwind label %lpad

invoke.cont56:                                    ; preds = %invoke.cont53
  store ptr %call57, ptr %ref.tmp52, align 8
  invoke void @_ZN6bufferIP4exprLb0ELj16EE9push_backEOS1_(ptr noundef nonnull align 8 dereferenceable(144) %values, ptr noundef nonnull align 8 dereferenceable(8) %ref.tmp52)
          to label %invoke.cont58 unwind label %lpad

invoke.cont58:                                    ; preds = %invoke.cont56
  br label %if.end59

if.end59:                                         ; preds = %invoke.cont58, %invoke.cont44
  br label %for.inc60

for.inc60:                                        ; preds = %if.end59
  %36 = load i32, ptr %i29, align 4
  %inc61 = add i32 %36, 1
  store i32 %inc61, ptr %i29, align 4
  br label %for.cond30, !llvm.loop !10

for.end62:                                        ; preds = %for.cond30
  %37 = load ptr, ptr %store_expr, align 8
  %tobool63 = icmp ne ptr %37, null
  br i1 %tobool63, label %if.then64, label %if.else100

if.then64:                                        ; preds = %for.end62
  call void @_ZN10ptr_bufferI4exprLj16EEC2Ev(ptr noundef nonnull align 8 dereferenceable(144) %new_args) #3
  %m_util66 = getelementptr inbounds %class.array_rewriter, ptr %this1, i32 0, i32 0
  %38 = load ptr, ptr %f.addr, align 8
  %call69 = invoke noundef i32 @_ZNK6bufferIP4exprLb0ELj16EE4sizeEv(ptr noundef nonnull align 8 dereferenceable(144) %arrays)
          to label %invoke.cont68 unwind label %lpad67

invoke.cont68:                                    ; preds = %if.then64
  %call71 = invoke noundef ptr @_ZNK6bufferIP4exprLb0ELj16EE4dataEv(ptr noundef nonnull align 8 dereferenceable(144) %arrays)
          to label %invoke.cont70 unwind label %lpad67

invoke.cont70:                                    ; preds = %invoke.cont68
  %call73 = invoke noundef ptr @_ZN10array_util6mk_mapEP9func_decljPKP4expr(ptr noundef nonnull align 8 dereferenceable(16) %m_util66, ptr noundef %38, i32 noundef %call69, ptr noundef %call71)
          to label %invoke.cont72 unwind label %lpad67

invoke.cont72:                                    ; preds = %invoke.cont70
  store ptr %call73, ptr %ref.tmp65, align 8
  invoke void @_ZN6bufferIP4exprLb0ELj16EE9push_backEOS1_(ptr noundef nonnull align 8 dereferenceable(144) %new_args, ptr noundef nonnull align 8 dereferenceable(8) %ref.tmp65)
          to label %invoke.cont74 unwind label %lpad67

invoke.cont74:                                    ; preds = %invoke.cont72
  %39 = load i32, ptr %num_indices, align 4
  %40 = load ptr, ptr %store_expr, align 8
  %call76 = invoke noundef ptr @_ZNK3app8get_argsEv(ptr noundef nonnull align 8 dereferenceable(32) %40)
          to label %invoke.cont75 unwind label %lpad67

invoke.cont75:                                    ; preds = %invoke.cont74
  %add.ptr = getelementptr inbounds ptr, ptr %call76, i64 1
  invoke void @_ZN10ptr_bufferI4exprLj16EE6appendEjPKPS0_(ptr noundef nonnull align 8 dereferenceable(144) %new_args, i32 noundef %39, ptr noundef %add.ptr)
          to label %invoke.cont77 unwind label %lpad67

invoke.cont77:                                    ; preds = %invoke.cont75
  %call80 = invoke noundef nonnull align 8 dereferenceable(976) ptr @_ZNK14array_rewriter1mEv(ptr noundef nonnull align 8 dereferenceable(22) %this1)
          to label %invoke.cont79 unwind label %lpad67

invoke.cont79:                                    ; preds = %invoke.cont77
  %41 = load ptr, ptr %f.addr, align 8
  %call82 = invoke noundef i32 @_ZNK6bufferIP4exprLb0ELj16EE4sizeEv(ptr noundef nonnull align 8 dereferenceable(144) %values)
          to label %invoke.cont81 unwind label %lpad67

invoke.cont81:                                    ; preds = %invoke.cont79
  %call84 = invoke noundef ptr @_ZNK6bufferIP4exprLb0ELj16EE4dataEv(ptr noundef nonnull align 8 dereferenceable(144) %values)
          to label %invoke.cont83 unwind label %lpad67

invoke.cont83:                                    ; preds = %invoke.cont81
  %call86 = invoke noundef ptr @_ZN11ast_manager6mk_appEP9func_decljPKP4expr(ptr noundef nonnull align 8 dereferenceable(976) %call80, ptr noundef %41, i32 noundef %call82, ptr noundef %call84)
          to label %invoke.cont85 unwind label %lpad67

invoke.cont85:                                    ; preds = %invoke.cont83
  store ptr %call86, ptr %ref.tmp78, align 8
  invoke void @_ZN6bufferIP4exprLb0ELj16EE9push_backEOS1_(ptr noundef nonnull align 8 dereferenceable(144) %new_args, ptr noundef nonnull align 8 dereferenceable(8) %ref.tmp78)
          to label %invoke.cont87 unwind label %lpad67

invoke.cont87:                                    ; preds = %invoke.cont85
  %call89 = invoke noundef nonnull align 8 dereferenceable(976) ptr @_ZNK14array_rewriter1mEv(ptr noundef nonnull align 8 dereferenceable(22) %this1)
          to label %invoke.cont88 unwind label %lpad67

invoke.cont88:                                    ; preds = %invoke.cont87
  %call91 = invoke noundef i32 @_ZNK14array_rewriter7get_fidEv(ptr noundef nonnull align 8 dereferenceable(22) %this1)
          to label %invoke.cont90 unwind label %lpad67

invoke.cont90:                                    ; preds = %invoke.cont88
  %call93 = invoke noundef i32 @_ZNK6bufferIP4exprLb0ELj16EE4sizeEv(ptr noundef nonnull align 8 dereferenceable(144) %new_args)
          to label %invoke.cont92 unwind label %lpad67

invoke.cont92:                                    ; preds = %invoke.cont90
  %call95 = invoke noundef ptr @_ZNK6bufferIP4exprLb0ELj16EE4dataEv(ptr noundef nonnull align 8 dereferenceable(144) %new_args)
          to label %invoke.cont94 unwind label %lpad67

invoke.cont94:                                    ; preds = %invoke.cont92
  %call97 = invoke noundef ptr @_ZN11ast_manager6mk_appEiijPKP4expr(ptr noundef nonnull align 8 dereferenceable(976) %call89, i32 noundef %call91, i32 noundef 0, i32 noundef %call93, ptr noundef %call95)
          to label %invoke.cont96 unwind label %lpad67

invoke.cont96:                                    ; preds = %invoke.cont94
  %42 = load ptr, ptr %result.addr, align 8
  %call99 = invoke noundef nonnull align 8 dereferenceable(16) ptr @_ZN7obj_refI4expr11ast_managerEaSEPS0_(ptr noundef nonnull align 8 dereferenceable(16) %42, ptr noundef %call97)
          to label %invoke.cont98 unwind label %lpad67

invoke.cont98:                                    ; preds = %invoke.cont96
  call void @_ZN10ptr_bufferI4exprLj16EED2Ev(ptr noundef nonnull align 8 dereferenceable(144) %new_args) #3
  br label %if.end124

lpad67:                                           ; preds = %invoke.cont96, %invoke.cont94, %invoke.cont92, %invoke.cont90, %invoke.cont88, %invoke.cont87, %invoke.cont85, %invoke.cont83, %invoke.cont81, %invoke.cont79, %invoke.cont77, %invoke.cont75, %invoke.cont74, %invoke.cont72, %invoke.cont70, %invoke.cont68, %if.then64
  %43 = landingpad { ptr, i32 }
          cleanup
  %44 = extractvalue { ptr, i32 } %43, 0
  store ptr %44, ptr %exn.slot, align 8
  %45 = extractvalue { ptr, i32 } %43, 1
  store i32 %45, ptr %ehselector.slot, align 4
  call void @_ZN10ptr_bufferI4exprLj16EED2Ev(ptr noundef nonnull align 8 dereferenceable(144) %new_args) #3
  br label %ehcleanup125

if.else100:                                       ; preds = %for.end62
  %call102 = invoke noundef nonnull align 8 dereferenceable(976) ptr @_ZNK14array_rewriter1mEv(ptr noundef nonnull align 8 dereferenceable(22) %this1)
          to label %invoke.cont101 unwind label %lpad

invoke.cont101:                                   ; preds = %if.else100
  %46 = load ptr, ptr %f.addr, align 8
  %call104 = invoke noundef i32 @_ZNK6bufferIP4exprLb0ELj16EE4sizeEv(ptr noundef nonnull align 8 dereferenceable(144) %values)
          to label %invoke.cont103 unwind label %lpad

invoke.cont103:                                   ; preds = %invoke.cont101
  %call106 = invoke noundef ptr @_ZNK6bufferIP4exprLb0ELj16EE4dataEv(ptr noundef nonnull align 8 dereferenceable(144) %values)
          to label %invoke.cont105 unwind label %lpad

invoke.cont105:                                   ; preds = %invoke.cont103
  %call108 = invoke noundef ptr @_ZN11ast_manager6mk_appEP9func_decljPKP4expr(ptr noundef nonnull align 8 dereferenceable(976) %call102, ptr noundef %46, i32 noundef %call104, ptr noundef %call106)
          to label %invoke.cont107 unwind label %lpad

invoke.cont107:                                   ; preds = %invoke.cont105
  %call110 = invoke noundef nonnull align 8 dereferenceable(976) ptr @_ZNK14array_rewriter1mEv(ptr noundef nonnull align 8 dereferenceable(22) %this1)
          to label %invoke.cont109 unwind label %lpad

invoke.cont109:                                   ; preds = %invoke.cont107
  invoke void @_ZN7obj_refI4expr11ast_managerEC2EPS0_RS1_(ptr noundef nonnull align 8 dereferenceable(16) %value, ptr noundef %call108, ptr noundef nonnull align 8 dereferenceable(976) %call110)
          to label %invoke.cont111 unwind label %lpad

invoke.cont111:                                   ; preds = %invoke.cont109
  %47 = load ptr, ptr %f.addr, align 8
  %48 = load i32, ptr %num_args.addr, align 4
  %49 = load ptr, ptr %args.addr, align 8
  invoke void @_ZN14array_rewriter18get_map_array_sortEP9func_decljPKP4expr(ptr sret(%class.obj_ref.43) align 8 %s, ptr noundef nonnull align 8 dereferenceable(22) %this1, ptr noundef %47, i32 noundef %48, ptr noundef %49)
          to label %invoke.cont113 unwind label %lpad112

invoke.cont113:                                   ; preds = %invoke.cont111
  %m_util114 = getelementptr inbounds %class.array_rewriter, ptr %this1, i32 0, i32 0
  %call117 = invoke noundef ptr @_ZNK7obj_refI4sort11ast_managerEcvPS0_Ev(ptr noundef nonnull align 8 dereferenceable(16) %s)
          to label %invoke.cont116 unwind label %lpad115

invoke.cont116:                                   ; preds = %invoke.cont113
  %call119 = invoke noundef ptr @_ZNK7obj_refI4expr11ast_managerEcvPS0_Ev(ptr noundef nonnull align 8 dereferenceable(16) %value)
          to label %invoke.cont118 unwind label %lpad115

invoke.cont118:                                   ; preds = %invoke.cont116
  %call121 = invoke noundef ptr @_ZN10array_util14mk_const_arrayEP4sortP4expr(ptr noundef nonnull align 8 dereferenceable(16) %m_util114, ptr noundef %call117, ptr noundef %call119)
          to label %invoke.cont120 unwind label %lpad115

invoke.cont120:                                   ; preds = %invoke.cont118
  %50 = load ptr, ptr %result.addr, align 8
  %call123 = invoke noundef nonnull align 8 dereferenceable(16) ptr @_ZN7obj_refI4expr11ast_managerEaSEPS0_(ptr noundef nonnull align 8 dereferenceable(16) %50, ptr noundef %call121)
          to label %invoke.cont122 unwind label %lpad115

invoke.cont122:                                   ; preds = %invoke.cont120
  call void @_ZN7obj_refI4sort11ast_managerED2Ev(ptr noundef nonnull align 8 dereferenceable(16) %s) #3
  call void @_ZN7obj_refI4expr11ast_managerED2Ev(ptr noundef nonnull align 8 dereferenceable(16) %value) #3
  br label %if.end124

lpad112:                                          ; preds = %invoke.cont111
  %51 = landingpad { ptr, i32 }
          cleanup
  %52 = extractvalue { ptr, i32 } %51, 0
  store ptr %52, ptr %exn.slot, align 8
  %53 = extractvalue { ptr, i32 } %51, 1
  store i32 %53, ptr %ehselector.slot, align 4
  br label %ehcleanup

lpad115:                                          ; preds = %invoke.cont120, %invoke.cont118, %invoke.cont116, %invoke.cont113
  %54 = landingpad { ptr, i32 }
          cleanup
  %55 = extractvalue { ptr, i32 } %54, 0
  store ptr %55, ptr %exn.slot, align 8
  %56 = extractvalue { ptr, i32 } %54, 1
  store i32 %56, ptr %ehselector.slot, align 4
  call void @_ZN7obj_refI4sort11ast_managerED2Ev(ptr noundef nonnull align 8 dereferenceable(16) %s) #3
  br label %ehcleanup

ehcleanup:                                        ; preds = %lpad115, %lpad112
  call void @_ZN7obj_refI4expr11ast_managerED2Ev(ptr noundef nonnull align 8 dereferenceable(16) %value) #3
  br label %ehcleanup125

if.end124:                                        ; preds = %invoke.cont122, %invoke.cont98
  store i32 1, ptr %retval, align 4
  call void @_ZN10ptr_bufferI4exprLj16EED2Ev(ptr noundef nonnull align 8 dereferenceable(144) %values) #3
  call void @_ZN10ptr_bufferI4exprLj16EED2Ev(ptr noundef nonnull align 8 dereferenceable(144) %arrays) #3
  br label %return

ehcleanup125:                                     ; preds = %ehcleanup, %lpad67, %lpad
  call void @_ZN10ptr_bufferI4exprLj16EED2Ev(ptr noundef nonnull align 8 dereferenceable(144) %values) #3
  call void @_ZN10ptr_bufferI4exprLj16EED2Ev(ptr noundef nonnull align 8 dereferenceable(144) %arrays) #3
  br label %eh.resume

if.end127:                                        ; preds = %for.end26
  store ptr null, ptr %lam, align 8
  store i32 0, ptr %i128, align 4
  br label %for.cond129

for.cond129:                                      ; preds = %for.inc147, %if.end127
  %57 = load i32, ptr %i128, align 4
  %58 = load i32, ptr %num_args.addr, align 4
  %cmp130 = icmp ult i32 %57, %58
  br i1 %cmp130, label %for.body131, label %for.end149

for.body131:                                      ; preds = %for.cond129
  %59 = load ptr, ptr %args.addr, align 8
  %60 = load i32, ptr %i128, align 4
  %idxprom132 = zext i32 %60 to i64
  %arrayidx133 = getelementptr inbounds ptr, ptr %59, i64 %idxprom132
  %61 = load ptr, ptr %arrayidx133, align 8
  %call134 = call noundef zeroext i1 @_Z9is_lambdaPK3ast(ptr noundef %61)
  br i1 %call134, label %if.then135, label %if.else139

if.then135:                                       ; preds = %for.body131
  %62 = load ptr, ptr %args.addr, align 8
  %63 = load i32, ptr %i128, align 4
  %idxprom136 = zext i32 %63 to i64
  %arrayidx137 = getelementptr inbounds ptr, ptr %62, i64 %idxprom136
  %64 = load ptr, ptr %arrayidx137, align 8
  %call138 = call noundef ptr @_Z13to_quantifierP3ast(ptr noundef %64)
  store ptr %call138, ptr %lam, align 8
  br label %if.end146

if.else139:                                       ; preds = %for.body131
  %m_util140 = getelementptr inbounds %class.array_rewriter, ptr %this1, i32 0, i32 0
  %65 = load ptr, ptr %args.addr, align 8
  %66 = load i32, ptr %i128, align 4
  %idxprom141 = zext i32 %66 to i64
  %arrayidx142 = getelementptr inbounds ptr, ptr %65, i64 %idxprom141
  %67 = load ptr, ptr %arrayidx142, align 8
  %call143 = call noundef zeroext i1 @_ZNK17array_recognizers8is_constEP4expr(ptr noundef nonnull align 4 dereferenceable(4) %m_util140, ptr noundef %67)
  br i1 %call143, label %if.then144, label %if.else145

if.then144:                                       ; preds = %if.else139
  br label %for.inc147

if.else145:                                       ; preds = %if.else139
  store ptr null, ptr %lam, align 8
  br label %for.end149

if.end146:                                        ; preds = %if.then135
  br label %for.inc147

for.inc147:                                       ; preds = %if.end146, %if.then144
  %68 = load i32, ptr %i128, align 4
  %inc148 = add i32 %68, 1
  store i32 %inc148, ptr %i128, align 4
  br label %for.cond129, !llvm.loop !11

for.end149:                                       ; preds = %if.else145, %for.cond129
  %69 = load ptr, ptr %lam, align 8
  %tobool150 = icmp ne ptr %69, null
  br i1 %tobool150, label %if.then151, label %if.end205

if.then151:                                       ; preds = %for.end149
  %call152 = call noundef nonnull align 8 dereferenceable(976) ptr @_ZNK14array_rewriter1mEv(ptr noundef nonnull align 8 dereferenceable(22) %this1)
  call void @_ZN10ref_vectorI4expr11ast_managerEC2ERS1_(ptr noundef nonnull align 8 dereferenceable(16) %args1, ptr noundef nonnull align 8 dereferenceable(976) %call152)
  store i32 0, ptr %i153, align 4
  br label %for.cond154

for.cond154:                                      ; preds = %for.inc183, %if.then151
  %70 = load i32, ptr %i153, align 4
  %71 = load i32, ptr %num_args.addr, align 4
  %cmp155 = icmp ult i32 %70, %71
  br i1 %cmp155, label %for.body156, label %for.end185

for.body156:                                      ; preds = %for.cond154
  %72 = load ptr, ptr %args.addr, align 8
  %73 = load i32, ptr %i153, align 4
  %idxprom158 = zext i32 %73 to i64
  %arrayidx159 = getelementptr inbounds ptr, ptr %72, i64 %idxprom158
  %74 = load ptr, ptr %arrayidx159, align 8
  store ptr %74, ptr %a157, align 8
  %m_util160 = getelementptr inbounds %class.array_rewriter, ptr %this1, i32 0, i32 0
  %75 = load ptr, ptr %a157, align 8
  %call163 = invoke noundef zeroext i1 @_ZNK17array_recognizers8is_constEP4expr(ptr noundef nonnull align 4 dereferenceable(4) %m_util160, ptr noundef %75)
          to label %invoke.cont162 unwind label %lpad161

invoke.cont162:                                   ; preds = %for.body156
  br i1 %call163, label %if.then164, label %if.else171

if.then164:                                       ; preds = %invoke.cont162
  %76 = load ptr, ptr %a157, align 8
  %call166 = invoke noundef ptr @_Z6to_appP3ast(ptr noundef %76)
          to label %invoke.cont165 unwind label %lpad161

invoke.cont165:                                   ; preds = %if.then164
  %call168 = invoke noundef ptr @_ZNK3app7get_argEj(ptr noundef nonnull align 8 dereferenceable(32) %call166, i32 noundef 0)
          to label %invoke.cont167 unwind label %lpad161

invoke.cont167:                                   ; preds = %invoke.cont165
  %call170 = invoke noundef nonnull align 8 dereferenceable(16) ptr @_ZN15ref_vector_coreI4expr19ref_manager_wrapperIS0_11ast_managerEE9push_backEPS0_(ptr noundef nonnull align 8 dereferenceable(16) %args1, ptr noundef %call168)
          to label %invoke.cont169 unwind label %lpad161

invoke.cont169:                                   ; preds = %invoke.cont167
  br label %if.end182

lpad161:                                          ; preds = %invoke.cont200, %invoke.cont198, %invoke.cont196, %invoke.cont194, %invoke.cont192, %invoke.cont190, %invoke.cont188, %invoke.cont186, %for.end185, %invoke.cont177, %invoke.cont175, %if.then174, %if.else171, %invoke.cont167, %invoke.cont165, %if.then164, %for.body156
  %77 = landingpad { ptr, i32 }
          cleanup
  %78 = extractvalue { ptr, i32 } %77, 0
  store ptr %78, ptr %exn.slot, align 8
  %79 = extractvalue { ptr, i32 } %77, 1
  store i32 %79, ptr %ehselector.slot, align 4
  call void @_ZN10ref_vectorI4expr11ast_managerED2Ev(ptr noundef nonnull align 8 dereferenceable(16) %args1) #3
  br label %eh.resume

if.else171:                                       ; preds = %invoke.cont162
  %80 = load ptr, ptr %a157, align 8
  %call173 = invoke noundef zeroext i1 @_Z9is_lambdaPK3ast(ptr noundef %80)
          to label %invoke.cont172 unwind label %lpad161

invoke.cont172:                                   ; preds = %if.else171
  br i1 %call173, label %if.then174, label %if.end181

if.then174:                                       ; preds = %invoke.cont172
  %81 = load ptr, ptr %a157, align 8
  %call176 = invoke noundef ptr @_Z13to_quantifierP3ast(ptr noundef %81)
          to label %invoke.cont175 unwind label %lpad161

invoke.cont175:                                   ; preds = %if.then174
  store ptr %call176, ptr %lam, align 8
  %82 = load ptr, ptr %lam, align 8
  %call178 = invoke noundef ptr @_ZNK10quantifier8get_exprEv(ptr noundef nonnull align 8 dereferenceable(80) %82)
          to label %invoke.cont177 unwind label %lpad161

invoke.cont177:                                   ; preds = %invoke.cont175
  %call180 = invoke noundef nonnull align 8 dereferenceable(16) ptr @_ZN15ref_vector_coreI4expr19ref_manager_wrapperIS0_11ast_managerEE9push_backEPS0_(ptr noundef nonnull align 8 dereferenceable(16) %args1, ptr noundef %call178)
          to label %invoke.cont179 unwind label %lpad161

invoke.cont179:                                   ; preds = %invoke.cont177
  br label %if.end181

if.end181:                                        ; preds = %invoke.cont179, %invoke.cont172
  br label %if.end182

if.end182:                                        ; preds = %if.end181, %invoke.cont169
  br label %for.inc183

for.inc183:                                       ; preds = %if.end182
  %83 = load i32, ptr %i153, align 4
  %inc184 = add i32 %83, 1
  store i32 %inc184, ptr %i153, align 4
  br label %for.cond154, !llvm.loop !12

for.end185:                                       ; preds = %for.cond154
  %call187 = invoke noundef nonnull align 8 dereferenceable(976) ptr @_ZNK14array_rewriter1mEv(ptr noundef nonnull align 8 dereferenceable(22) %this1)
          to label %invoke.cont186 unwind label %lpad161

invoke.cont186:                                   ; preds = %for.end185
  %84 = load ptr, ptr %f.addr, align 8
  %call189 = invoke noundef i32 @_ZNK15ref_vector_coreI4expr19ref_manager_wrapperIS0_11ast_managerEE4sizeEv(ptr noundef nonnull align 8 dereferenceable(16) %args1)
          to label %invoke.cont188 unwind label %lpad161

invoke.cont188:                                   ; preds = %invoke.cont186
  %call191 = invoke noundef ptr @_ZN15ref_vector_coreI4expr19ref_manager_wrapperIS0_11ast_managerEE4dataEv(ptr noundef nonnull align 8 dereferenceable(16) %args1)
          to label %invoke.cont190 unwind label %lpad161

invoke.cont190:                                   ; preds = %invoke.cont188
  %call193 = invoke noundef ptr @_ZN11ast_manager6mk_appEP9func_decljPKP4expr(ptr noundef nonnull align 8 dereferenceable(976) %call187, ptr noundef %84, i32 noundef %call189, ptr noundef %call191)
          to label %invoke.cont192 unwind label %lpad161

invoke.cont192:                                   ; preds = %invoke.cont190
  %85 = load ptr, ptr %result.addr, align 8
  %call195 = invoke noundef nonnull align 8 dereferenceable(16) ptr @_ZN7obj_refI4expr11ast_managerEaSEPS0_(ptr noundef nonnull align 8 dereferenceable(16) %85, ptr noundef %call193)
          to label %invoke.cont194 unwind label %lpad161

invoke.cont194:                                   ; preds = %invoke.cont192
  %call197 = invoke noundef nonnull align 8 dereferenceable(976) ptr @_ZNK14array_rewriter1mEv(ptr noundef nonnull align 8 dereferenceable(22) %this1)
          to label %invoke.cont196 unwind label %lpad161

invoke.cont196:                                   ; preds = %invoke.cont194
  %86 = load ptr, ptr %lam, align 8
  %87 = load ptr, ptr %result.addr, align 8
  %call199 = invoke noundef ptr @_ZNK7obj_refI4expr11ast_managerEcvPS0_Ev(ptr noundef nonnull align 8 dereferenceable(16) %87)
          to label %invoke.cont198 unwind label %lpad161

invoke.cont198:                                   ; preds = %invoke.cont196
  %call201 = invoke noundef ptr @_ZN11ast_manager17update_quantifierEP10quantifierP4expr(ptr noundef nonnull align 8 dereferenceable(976) %call197, ptr noundef %86, ptr noundef %call199)
          to label %invoke.cont200 unwind label %lpad161

invoke.cont200:                                   ; preds = %invoke.cont198
  %88 = load ptr, ptr %result.addr, align 8
  %call203 = invoke noundef nonnull align 8 dereferenceable(16) ptr @_ZN7obj_refI4expr11ast_managerEaSEPS0_(ptr noundef nonnull align 8 dereferenceable(16) %88, ptr noundef %call201)
          to label %invoke.cont202 unwind label %lpad161

invoke.cont202:                                   ; preds = %invoke.cont200
  store i32 2, ptr %retval, align 4
  call void @_ZN10ref_vectorI4expr11ast_managerED2Ev(ptr noundef nonnull align 8 dereferenceable(16) %args1) #3
  br label %return

if.end205:                                        ; preds = %for.end149
  %call206 = call noundef nonnull align 8 dereferenceable(976) ptr @_ZNK14array_rewriter1mEv(ptr noundef nonnull align 8 dereferenceable(22) %this1)
  %89 = load ptr, ptr %f.addr, align 8
  %call207 = call noundef zeroext i1 @_ZNK11ast_manager6is_notEPK9func_decl(ptr noundef nonnull align 8 dereferenceable(976) %call206, ptr noundef %89)
  br i1 %call207, label %land.lhs.true, label %if.end222

land.lhs.true:                                    ; preds = %if.end205
  %m_util208 = getelementptr inbounds %class.array_rewriter, ptr %this1, i32 0, i32 0
  %90 = load ptr, ptr %args.addr, align 8
  %arrayidx209 = getelementptr inbounds ptr, ptr %90, i64 0
  %91 = load ptr, ptr %arrayidx209, align 8
  %call210 = call noundef zeroext i1 @_ZNK17array_recognizers6is_mapEP4expr(ptr noundef nonnull align 4 dereferenceable(4) %m_util208, ptr noundef %91)
  br i1 %call210, label %land.lhs.true211, label %if.end222

land.lhs.true211:                                 ; preds = %land.lhs.true
  %call212 = call noundef nonnull align 8 dereferenceable(976) ptr @_ZNK14array_rewriter1mEv(ptr noundef nonnull align 8 dereferenceable(22) %this1)
  %m_util213 = getelementptr inbounds %class.array_rewriter, ptr %this1, i32 0, i32 0
  %92 = load ptr, ptr %args.addr, align 8
  %arrayidx214 = getelementptr inbounds ptr, ptr %92, i64 0
  %93 = load ptr, ptr %arrayidx214, align 8
  %call215 = call noundef ptr @_ZNK17array_recognizers17get_map_func_declEP4expr(ptr noundef nonnull align 4 dereferenceable(4) %m_util213, ptr noundef %93)
  %call216 = call noundef zeroext i1 @_ZNK11ast_manager6is_notEPK9func_decl(ptr noundef nonnull align 8 dereferenceable(976) %call212, ptr noundef %call215)
  br i1 %call216, label %if.then217, label %if.end222

if.then217:                                       ; preds = %land.lhs.true211
  %94 = load ptr, ptr %args.addr, align 8
  %arrayidx218 = getelementptr inbounds ptr, ptr %94, i64 0
  %95 = load ptr, ptr %arrayidx218, align 8
  %call219 = call noundef ptr @_Z6to_appP3ast(ptr noundef %95)
  %call220 = call noundef ptr @_ZNK3app7get_argEj(ptr noundef nonnull align 8 dereferenceable(32) %call219, i32 noundef 0)
  %96 = load ptr, ptr %result.addr, align 8
  %call221 = call noundef nonnull align 8 dereferenceable(16) ptr @_ZN7obj_refI4expr11ast_managerEaSEPS0_(ptr noundef nonnull align 8 dereferenceable(16) %96, ptr noundef %call220)
  store i32 4, ptr %retval, align 4
  br label %return

if.end222:                                        ; preds = %land.lhs.true211, %land.lhs.true, %if.end205
  %call223 = call noundef nonnull align 8 dereferenceable(976) ptr @_ZNK14array_rewriter1mEv(ptr noundef nonnull align 8 dereferenceable(22) %this1)
  %97 = load ptr, ptr %f.addr, align 8
  %call224 = call noundef zeroext i1 @_ZNK11ast_manager6is_andEPK9func_decl(ptr noundef nonnull align 8 dereferenceable(976) %call223, ptr noundef %97)
  br i1 %call224, label %if.then225, label %if.end438

if.then225:                                       ; preds = %if.end222
  call void @_ZN8ast_markC2Ev(ptr noundef nonnull align 8 dereferenceable(56) %mark)
  call void @_ZN10ptr_bufferI4exprLj16EEC2Ev(ptr noundef nonnull align 8 dereferenceable(144) %es) #3
  store i8 0, ptr %change, align 1
  store i32 0, ptr %j226, align 4
  %98 = load i32, ptr %num_args.addr, align 4
  %99 = load ptr, ptr %args.addr, align 8
  invoke void @_ZN10ptr_bufferI4exprLj16EE6appendEjPKPS0_(ptr noundef nonnull align 8 dereferenceable(144) %es, i32 noundef %98, ptr noundef %99)
          to label %invoke.cont228 unwind label %lpad227

invoke.cont228:                                   ; preds = %if.then225
  store i32 0, ptr %i229, align 4
  br label %for.cond230

for.cond230:                                      ; preds = %for.inc272, %invoke.cont228
  %100 = load i32, ptr %i229, align 4
  %call232 = invoke noundef i32 @_ZNK6bufferIP4exprLb0ELj16EE4sizeEv(ptr noundef nonnull align 8 dereferenceable(144) %es)
          to label %invoke.cont231 unwind label %lpad227

invoke.cont231:                                   ; preds = %for.cond230
  %cmp233 = icmp ult i32 %100, %call232
  br i1 %cmp233, label %for.body234, label %for.end274

for.body234:                                      ; preds = %invoke.cont231
  %101 = load i32, ptr %i229, align 4
  %call236 = invoke noundef nonnull align 8 dereferenceable(8) ptr @_ZN6bufferIP4exprLb0ELj16EEixEj(ptr noundef nonnull align 8 dereferenceable(144) %es, i32 noundef %101)
          to label %invoke.cont235 unwind label %lpad227

invoke.cont235:                                   ; preds = %for.body234
  %102 = load ptr, ptr %call236, align 8
  store ptr %102, ptr %e, align 8
  %103 = load ptr, ptr %e, align 8
  %call238 = invoke noundef zeroext i1 @_ZNK8ast_mark9is_markedEP3ast(ptr noundef nonnull align 8 dereferenceable(56) %mark, ptr noundef %103)
          to label %invoke.cont237 unwind label %lpad227

invoke.cont237:                                   ; preds = %invoke.cont235
  br i1 %call238, label %if.then239, label %if.else240

if.then239:                                       ; preds = %invoke.cont237
  store i8 1, ptr %change, align 1
  br label %if.end271

lpad227:                                          ; preds = %invoke.cont430, %invoke.cont428, %invoke.cont426, %invoke.cont424, %invoke.cont421, %invoke.cont419, %if.then418, %invoke.cont326, %invoke.cont323, %land.lhs.true322, %if.end318, %if.then302, %invoke.cont298, %invoke.cont296, %if.then295, %invoke.cont291, %invoke.cont288, %land.lhs.true287, %for.body282, %invoke.cont276, %invoke.cont275, %for.end274, %invoke.cont265, %invoke.cont264, %if.else263, %invoke.cont260, %invoke.cont258, %invoke.cont256, %invoke.cont254, %invoke.cont253, %if.then252, %invoke.cont248, %invoke.cont245, %land.lhs.true244, %if.else240, %invoke.cont235, %for.body234, %for.cond230, %if.then225
  %104 = landingpad { ptr, i32 }
          cleanup
  %105 = extractvalue { ptr, i32 } %104, 0
  store ptr %105, ptr %exn.slot, align 8
  %106 = extractvalue { ptr, i32 } %104, 1
  store i32 %106, ptr %ehselector.slot, align 4
  br label %ehcleanup435

if.else240:                                       ; preds = %invoke.cont237
  %m_util241 = getelementptr inbounds %class.array_rewriter, ptr %this1, i32 0, i32 0
  %107 = load ptr, ptr %e, align 8
  %call243 = invoke noundef zeroext i1 @_ZNK17array_recognizers6is_mapEP4expr(ptr noundef nonnull align 4 dereferenceable(4) %m_util241, ptr noundef %107)
          to label %invoke.cont242 unwind label %lpad227

invoke.cont242:                                   ; preds = %if.else240
  br i1 %call243, label %land.lhs.true244, label %if.else263

land.lhs.true244:                                 ; preds = %invoke.cont242
  %call246 = invoke noundef nonnull align 8 dereferenceable(976) ptr @_ZNK14array_rewriter1mEv(ptr noundef nonnull align 8 dereferenceable(22) %this1)
          to label %invoke.cont245 unwind label %lpad227

invoke.cont245:                                   ; preds = %land.lhs.true244
  %m_util247 = getelementptr inbounds %class.array_rewriter, ptr %this1, i32 0, i32 0
  %108 = load ptr, ptr %e, align 8
  %call249 = invoke noundef ptr @_ZNK17array_recognizers17get_map_func_declEP4expr(ptr noundef nonnull align 4 dereferenceable(4) %m_util247, ptr noundef %108)
          to label %invoke.cont248 unwind label %lpad227

invoke.cont248:                                   ; preds = %invoke.cont245
  %call251 = invoke noundef zeroext i1 @_ZNK11ast_manager6is_andEPK9func_decl(ptr noundef nonnull align 8 dereferenceable(976) %call246, ptr noundef %call249)
          to label %invoke.cont250 unwind label %lpad227

invoke.cont250:                                   ; preds = %invoke.cont248
  br i1 %call251, label %if.then252, label %if.else263

if.then252:                                       ; preds = %invoke.cont250
  %109 = load ptr, ptr %e, align 8
  invoke void @_ZN8ast_mark4markEP3astb(ptr noundef nonnull align 8 dereferenceable(56) %mark, ptr noundef %109, i1 noundef zeroext true)
          to label %invoke.cont253 unwind label %lpad227

invoke.cont253:                                   ; preds = %if.then252
  %110 = load ptr, ptr %e, align 8
  %call255 = invoke noundef ptr @_Z6to_appP3ast(ptr noundef %110)
          to label %invoke.cont254 unwind label %lpad227

invoke.cont254:                                   ; preds = %invoke.cont253
  %call257 = invoke noundef i32 @_ZNK3app12get_num_argsEv(ptr noundef nonnull align 8 dereferenceable(32) %call255)
          to label %invoke.cont256 unwind label %lpad227

invoke.cont256:                                   ; preds = %invoke.cont254
  %111 = load ptr, ptr %e, align 8
  %call259 = invoke noundef ptr @_Z6to_appP3ast(ptr noundef %111)
          to label %invoke.cont258 unwind label %lpad227

invoke.cont258:                                   ; preds = %invoke.cont256
  %call261 = invoke noundef ptr @_ZNK3app8get_argsEv(ptr noundef nonnull align 8 dereferenceable(32) %call259)
          to label %invoke.cont260 unwind label %lpad227

invoke.cont260:                                   ; preds = %invoke.cont258
  invoke void @_ZN10ptr_bufferI4exprLj16EE6appendEjPKPS0_(ptr noundef nonnull align 8 dereferenceable(144) %es, i32 noundef %call257, ptr noundef %call261)
          to label %invoke.cont262 unwind label %lpad227

invoke.cont262:                                   ; preds = %invoke.cont260
  br label %if.end270

if.else263:                                       ; preds = %invoke.cont250, %invoke.cont242
  %112 = load ptr, ptr %e, align 8
  invoke void @_ZN8ast_mark4markEP3astb(ptr noundef nonnull align 8 dereferenceable(56) %mark, ptr noundef %112, i1 noundef zeroext true)
          to label %invoke.cont264 unwind label %lpad227

invoke.cont264:                                   ; preds = %if.else263
  %113 = load i32, ptr %i229, align 4
  %call266 = invoke noundef nonnull align 8 dereferenceable(8) ptr @_ZN6bufferIP4exprLb0ELj16EEixEj(ptr noundef nonnull align 8 dereferenceable(144) %es, i32 noundef %113)
          to label %invoke.cont265 unwind label %lpad227

invoke.cont265:                                   ; preds = %invoke.cont264
  %114 = load ptr, ptr %call266, align 8
  %115 = load i32, ptr %j226, align 4
  %inc267 = add i32 %115, 1
  store i32 %inc267, ptr %j226, align 4
  %call269 = invoke noundef nonnull align 8 dereferenceable(8) ptr @_ZN6bufferIP4exprLb0ELj16EEixEj(ptr noundef nonnull align 8 dereferenceable(144) %es, i32 noundef %115)
          to label %invoke.cont268 unwind label %lpad227

invoke.cont268:                                   ; preds = %invoke.cont265
  store ptr %114, ptr %call269, align 8
  br label %if.end270

if.end270:                                        ; preds = %invoke.cont268, %invoke.cont262
  br label %if.end271

if.end271:                                        ; preds = %if.end270, %if.then239
  br label %for.inc272

for.inc272:                                       ; preds = %if.end271
  %116 = load i32, ptr %i229, align 4
  %inc273 = add i32 %116, 1
  store i32 %inc273, ptr %i229, align 4
  br label %for.cond230, !llvm.loop !13

for.end274:                                       ; preds = %invoke.cont231
  %117 = load i32, ptr %j226, align 4
  invoke void @_ZN6bufferIP4exprLb0ELj16EE6shrinkEj(ptr noundef nonnull align 8 dereferenceable(144) %es, i32 noundef %117)
          to label %invoke.cont275 unwind label %lpad227

invoke.cont275:                                   ; preds = %for.end274
  store i32 0, ptr %j226, align 4
  store ptr %es, ptr %__range2, align 8
  %118 = load ptr, ptr %__range2, align 8
  %call277 = invoke noundef ptr @_ZN6bufferIP4exprLb0ELj16EE5beginEv(ptr noundef nonnull align 8 dereferenceable(144) %118)
          to label %invoke.cont276 unwind label %lpad227

invoke.cont276:                                   ; preds = %invoke.cont275
  store ptr %call277, ptr %__begin2, align 8
  %119 = load ptr, ptr %__range2, align 8
  %call279 = invoke noundef ptr @_ZN6bufferIP4exprLb0ELj16EE3endEv(ptr noundef nonnull align 8 dereferenceable(144) %119)
          to label %invoke.cont278 unwind label %lpad227

invoke.cont278:                                   ; preds = %invoke.cont276
  store ptr %call279, ptr %__end2, align 8
  br label %for.cond280

for.cond280:                                      ; preds = %for.inc415, %invoke.cont278
  %120 = load ptr, ptr %__begin2, align 8
  %121 = load ptr, ptr %__end2, align 8
  %cmp281 = icmp ne ptr %120, %121
  br i1 %cmp281, label %for.body282, label %for.end416

for.body282:                                      ; preds = %for.cond280
  %122 = load ptr, ptr %__begin2, align 8
  %123 = load ptr, ptr %122, align 8
  store ptr %123, ptr %e283, align 8
  %m_util284 = getelementptr inbounds %class.array_rewriter, ptr %this1, i32 0, i32 0
  %124 = load ptr, ptr %e283, align 8
  %call286 = invoke noundef zeroext i1 @_ZNK17array_recognizers6is_mapEP4expr(ptr noundef nonnull align 4 dereferenceable(4) %m_util284, ptr noundef %124)
          to label %invoke.cont285 unwind label %lpad227

invoke.cont285:                                   ; preds = %for.body282
  br i1 %call286, label %land.lhs.true287, label %if.end413

land.lhs.true287:                                 ; preds = %invoke.cont285
  %call289 = invoke noundef nonnull align 8 dereferenceable(976) ptr @_ZNK14array_rewriter1mEv(ptr noundef nonnull align 8 dereferenceable(22) %this1)
          to label %invoke.cont288 unwind label %lpad227

invoke.cont288:                                   ; preds = %land.lhs.true287
  %m_util290 = getelementptr inbounds %class.array_rewriter, ptr %this1, i32 0, i32 0
  %125 = load ptr, ptr %e283, align 8
  %call292 = invoke noundef ptr @_ZNK17array_recognizers17get_map_func_declEP4expr(ptr noundef nonnull align 4 dereferenceable(4) %m_util290, ptr noundef %125)
          to label %invoke.cont291 unwind label %lpad227

invoke.cont291:                                   ; preds = %invoke.cont288
  %call294 = invoke noundef zeroext i1 @_ZNK11ast_manager6is_notEPK9func_decl(ptr noundef nonnull align 8 dereferenceable(976) %call289, ptr noundef %call292)
          to label %invoke.cont293 unwind label %lpad227

invoke.cont293:                                   ; preds = %invoke.cont291
  br i1 %call294, label %if.then295, label %if.end413

if.then295:                                       ; preds = %invoke.cont293
  %126 = load ptr, ptr %e283, align 8
  %call297 = invoke noundef ptr @_Z6to_appP3ast(ptr noundef %126)
          to label %invoke.cont296 unwind label %lpad227

invoke.cont296:                                   ; preds = %if.then295
  %call299 = invoke noundef ptr @_ZNK3app7get_argEj(ptr noundef nonnull align 8 dereferenceable(32) %call297, i32 noundef 0)
          to label %invoke.cont298 unwind label %lpad227

invoke.cont298:                                   ; preds = %invoke.cont296
  store ptr %call299, ptr %arg, align 8
  %127 = load ptr, ptr %arg, align 8
  %call301 = invoke noundef zeroext i1 @_ZNK8ast_mark9is_markedEP3ast(ptr noundef nonnull align 8 dereferenceable(56) %mark, ptr noundef %127)
          to label %invoke.cont300 unwind label %lpad227

invoke.cont300:                                   ; preds = %invoke.cont298
  br i1 %call301, label %if.then302, label %if.end318

if.then302:                                       ; preds = %invoke.cont300
  %128 = load ptr, ptr %f.addr, align 8
  %129 = load i32, ptr %num_args.addr, align 4
  %130 = load ptr, ptr %args.addr, align 8
  invoke void @_ZN14array_rewriter18get_map_array_sortEP9func_decljPKP4expr(ptr sret(%class.obj_ref.43) align 8 %s303, ptr noundef nonnull align 8 dereferenceable(22) %this1, ptr noundef %128, i32 noundef %129, ptr noundef %130)
          to label %invoke.cont304 unwind label %lpad227

invoke.cont304:                                   ; preds = %if.then302
  %m_util305 = getelementptr inbounds %class.array_rewriter, ptr %this1, i32 0, i32 0
  %call308 = invoke noundef ptr @_ZNK7obj_refI4sort11ast_managerEcvPS0_Ev(ptr noundef nonnull align 8 dereferenceable(16) %s303)
          to label %invoke.cont307 unwind label %lpad306

invoke.cont307:                                   ; preds = %invoke.cont304
  %call310 = invoke noundef nonnull align 8 dereferenceable(976) ptr @_ZNK14array_rewriter1mEv(ptr noundef nonnull align 8 dereferenceable(22) %this1)
          to label %invoke.cont309 unwind label %lpad306

invoke.cont309:                                   ; preds = %invoke.cont307
  %call312 = invoke noundef ptr @_ZNK11ast_manager8mk_falseEv(ptr noundef nonnull align 8 dereferenceable(976) %call310)
          to label %invoke.cont311 unwind label %lpad306

invoke.cont311:                                   ; preds = %invoke.cont309
  %call314 = invoke noundef ptr @_ZN10array_util14mk_const_arrayEP4sortP4expr(ptr noundef nonnull align 8 dereferenceable(16) %m_util305, ptr noundef %call308, ptr noundef %call312)
          to label %invoke.cont313 unwind label %lpad306

invoke.cont313:                                   ; preds = %invoke.cont311
  %131 = load ptr, ptr %result.addr, align 8
  %call316 = invoke noundef nonnull align 8 dereferenceable(16) ptr @_ZN7obj_refI4expr11ast_managerEaSEPS0_(ptr noundef nonnull align 8 dereferenceable(16) %131, ptr noundef %call314)
          to label %invoke.cont315 unwind label %lpad306

invoke.cont315:                                   ; preds = %invoke.cont313
  store i32 4, ptr %retval, align 4
  store i32 1, ptr %cleanup.dest.slot, align 4
  call void @_ZN7obj_refI4sort11ast_managerED2Ev(ptr noundef nonnull align 8 dereferenceable(16) %s303) #3
  br label %cleanup

lpad306:                                          ; preds = %invoke.cont313, %invoke.cont311, %invoke.cont309, %invoke.cont307, %invoke.cont304
  %132 = landingpad { ptr, i32 }
          cleanup
  %133 = extractvalue { ptr, i32 } %132, 0
  store ptr %133, ptr %exn.slot, align 8
  %134 = extractvalue { ptr, i32 } %132, 1
  store i32 %134, ptr %ehselector.slot, align 4
  call void @_ZN7obj_refI4sort11ast_managerED2Ev(ptr noundef nonnull align 8 dereferenceable(16) %s303) #3
  br label %ehcleanup435

if.end318:                                        ; preds = %invoke.cont300
  %m_util319 = getelementptr inbounds %class.array_rewriter, ptr %this1, i32 0, i32 0
  %135 = load ptr, ptr %arg, align 8
  %call321 = invoke noundef zeroext i1 @_ZNK17array_recognizers6is_mapEP4expr(ptr noundef nonnull align 4 dereferenceable(4) %m_util319, ptr noundef %135)
          to label %invoke.cont320 unwind label %lpad227

invoke.cont320:                                   ; preds = %if.end318
  br i1 %call321, label %land.lhs.true322, label %if.end412

land.lhs.true322:                                 ; preds = %invoke.cont320
  %call324 = invoke noundef nonnull align 8 dereferenceable(976) ptr @_ZNK14array_rewriter1mEv(ptr noundef nonnull align 8 dereferenceable(22) %this1)
          to label %invoke.cont323 unwind label %lpad227

invoke.cont323:                                   ; preds = %land.lhs.true322
  %m_util325 = getelementptr inbounds %class.array_rewriter, ptr %this1, i32 0, i32 0
  %136 = load ptr, ptr %arg, align 8
  %call327 = invoke noundef ptr @_ZNK17array_recognizers17get_map_func_declEP4expr(ptr noundef nonnull align 4 dereferenceable(4) %m_util325, ptr noundef %136)
          to label %invoke.cont326 unwind label %lpad227

invoke.cont326:                                   ; preds = %invoke.cont323
  %call329 = invoke noundef zeroext i1 @_ZNK11ast_manager6is_andEPK9func_decl(ptr noundef nonnull align 8 dereferenceable(976) %call324, ptr noundef %call327)
          to label %invoke.cont328 unwind label %lpad227

invoke.cont328:                                   ; preds = %invoke.cont326
  br i1 %call329, label %if.then330, label %if.end412

if.then330:                                       ; preds = %invoke.cont328
  store i32 0, ptr %k, align 4
  call void @_ZN10ptr_bufferI4exprLj16EEC2Ev(ptr noundef nonnull align 8 dereferenceable(144) %gs) #3
  store i8 0, ptr %and_change, align 1
  %137 = load ptr, ptr %arg, align 8
  %call333 = invoke noundef ptr @_Z6to_appP3ast(ptr noundef %137)
          to label %invoke.cont332 unwind label %lpad331

invoke.cont332:                                   ; preds = %if.then330
  %call335 = invoke noundef i32 @_ZNK3app12get_num_argsEv(ptr noundef nonnull align 8 dereferenceable(32) %call333)
          to label %invoke.cont334 unwind label %lpad331

invoke.cont334:                                   ; preds = %invoke.cont332
  %138 = load ptr, ptr %arg, align 8
  %call337 = invoke noundef ptr @_Z6to_appP3ast(ptr noundef %138)
          to label %invoke.cont336 unwind label %lpad331

invoke.cont336:                                   ; preds = %invoke.cont334
  %call339 = invoke noundef ptr @_ZNK3app8get_argsEv(ptr noundef nonnull align 8 dereferenceable(32) %call337)
          to label %invoke.cont338 unwind label %lpad331

invoke.cont338:                                   ; preds = %invoke.cont336
  invoke void @_ZN10ptr_bufferI4exprLj16EE6appendEjPKPS0_(ptr noundef nonnull align 8 dereferenceable(144) %gs, i32 noundef %call335, ptr noundef %call339)
          to label %invoke.cont340 unwind label %lpad331

invoke.cont340:                                   ; preds = %invoke.cont338
  store i32 0, ptr %i341, align 4
  br label %for.cond342

for.cond342:                                      ; preds = %for.inc382, %invoke.cont340
  %139 = load i32, ptr %i341, align 4
  %call344 = invoke noundef i32 @_ZNK6bufferIP4exprLb0ELj16EE4sizeEv(ptr noundef nonnull align 8 dereferenceable(144) %gs)
          to label %invoke.cont343 unwind label %lpad331

invoke.cont343:                                   ; preds = %for.cond342
  %cmp345 = icmp ult i32 %139, %call344
  br i1 %cmp345, label %for.body346, label %for.end384

for.body346:                                      ; preds = %invoke.cont343
  %140 = load i32, ptr %i341, align 4
  %call348 = invoke noundef nonnull align 8 dereferenceable(8) ptr @_ZN6bufferIP4exprLb0ELj16EEixEj(ptr noundef nonnull align 8 dereferenceable(144) %gs, i32 noundef %140)
          to label %invoke.cont347 unwind label %lpad331

invoke.cont347:                                   ; preds = %for.body346
  %141 = load ptr, ptr %call348, align 8
  store ptr %141, ptr %g, align 8
  %142 = load ptr, ptr %g, align 8
  %call350 = invoke noundef zeroext i1 @_ZNK8ast_mark9is_markedEP3ast(ptr noundef nonnull align 8 dereferenceable(56) %mark, ptr noundef %142)
          to label %invoke.cont349 unwind label %lpad331

invoke.cont349:                                   ; preds = %invoke.cont347
  br i1 %call350, label %if.then351, label %if.else352

if.then351:                                       ; preds = %invoke.cont349
  store i8 1, ptr %change, align 1
  store i8 1, ptr %and_change, align 1
  br label %if.end381

lpad331:                                          ; preds = %invoke.cont406, %invoke.cont404, %invoke.cont402, %invoke.cont399, %invoke.cont397, %invoke.cont395, %invoke.cont392, %invoke.cont390, %invoke.cont388, %if.then387, %for.end384, %invoke.cont375, %if.else374, %invoke.cont371, %invoke.cont369, %invoke.cont367, %invoke.cont365, %if.then364, %invoke.cont360, %invoke.cont357, %land.lhs.true356, %if.else352, %invoke.cont347, %for.body346, %for.cond342, %invoke.cont338, %invoke.cont336, %invoke.cont334, %invoke.cont332, %if.then330
  %143 = landingpad { ptr, i32 }
          cleanup
  %144 = extractvalue { ptr, i32 } %143, 0
  store ptr %144, ptr %exn.slot, align 8
  %145 = extractvalue { ptr, i32 } %143, 1
  store i32 %145, ptr %ehselector.slot, align 4
  call void @_ZN10ptr_bufferI4exprLj16EED2Ev(ptr noundef nonnull align 8 dereferenceable(144) %gs) #3
  br label %ehcleanup435

if.else352:                                       ; preds = %invoke.cont349
  %m_util353 = getelementptr inbounds %class.array_rewriter, ptr %this1, i32 0, i32 0
  %146 = load ptr, ptr %g, align 8
  %call355 = invoke noundef zeroext i1 @_ZNK17array_recognizers6is_mapEP4expr(ptr noundef nonnull align 4 dereferenceable(4) %m_util353, ptr noundef %146)
          to label %invoke.cont354 unwind label %lpad331

invoke.cont354:                                   ; preds = %if.else352
  br i1 %call355, label %land.lhs.true356, label %if.else374

land.lhs.true356:                                 ; preds = %invoke.cont354
  %call358 = invoke noundef nonnull align 8 dereferenceable(976) ptr @_ZNK14array_rewriter1mEv(ptr noundef nonnull align 8 dereferenceable(22) %this1)
          to label %invoke.cont357 unwind label %lpad331

invoke.cont357:                                   ; preds = %land.lhs.true356
  %m_util359 = getelementptr inbounds %class.array_rewriter, ptr %this1, i32 0, i32 0
  %147 = load ptr, ptr %g, align 8
  %call361 = invoke noundef ptr @_ZNK17array_recognizers17get_map_func_declEP4expr(ptr noundef nonnull align 4 dereferenceable(4) %m_util359, ptr noundef %147)
          to label %invoke.cont360 unwind label %lpad331

invoke.cont360:                                   ; preds = %invoke.cont357
  %call363 = invoke noundef zeroext i1 @_ZNK11ast_manager6is_andEPK9func_decl(ptr noundef nonnull align 8 dereferenceable(976) %call358, ptr noundef %call361)
          to label %invoke.cont362 unwind label %lpad331

invoke.cont362:                                   ; preds = %invoke.cont360
  br i1 %call363, label %if.then364, label %if.else374

if.then364:                                       ; preds = %invoke.cont362
  %148 = load ptr, ptr %g, align 8
  %call366 = invoke noundef ptr @_Z6to_appP3ast(ptr noundef %148)
          to label %invoke.cont365 unwind label %lpad331

invoke.cont365:                                   ; preds = %if.then364
  %call368 = invoke noundef i32 @_ZNK3app12get_num_argsEv(ptr noundef nonnull align 8 dereferenceable(32) %call366)
          to label %invoke.cont367 unwind label %lpad331

invoke.cont367:                                   ; preds = %invoke.cont365
  %149 = load ptr, ptr %g, align 8
  %call370 = invoke noundef ptr @_Z6to_appP3ast(ptr noundef %149)
          to label %invoke.cont369 unwind label %lpad331

invoke.cont369:                                   ; preds = %invoke.cont367
  %call372 = invoke noundef ptr @_ZNK3app8get_argsEv(ptr noundef nonnull align 8 dereferenceable(32) %call370)
          to label %invoke.cont371 unwind label %lpad331

invoke.cont371:                                   ; preds = %invoke.cont369
  invoke void @_ZN10ptr_bufferI4exprLj16EE6appendEjPKPS0_(ptr noundef nonnull align 8 dereferenceable(144) %gs, i32 noundef %call368, ptr noundef %call372)
          to label %invoke.cont373 unwind label %lpad331

invoke.cont373:                                   ; preds = %invoke.cont371
  br label %if.end380

if.else374:                                       ; preds = %invoke.cont362, %invoke.cont354
  %150 = load i32, ptr %i341, align 4
  %call376 = invoke noundef nonnull align 8 dereferenceable(8) ptr @_ZN6bufferIP4exprLb0ELj16EEixEj(ptr noundef nonnull align 8 dereferenceable(144) %gs, i32 noundef %150)
          to label %invoke.cont375 unwind label %lpad331

invoke.cont375:                                   ; preds = %if.else374
  %151 = load ptr, ptr %call376, align 8
  %152 = load i32, ptr %k, align 4
  %inc377 = add i32 %152, 1
  store i32 %inc377, ptr %k, align 4
  %call379 = invoke noundef nonnull align 8 dereferenceable(8) ptr @_ZN6bufferIP4exprLb0ELj16EEixEj(ptr noundef nonnull align 8 dereferenceable(144) %gs, i32 noundef %152)
          to label %invoke.cont378 unwind label %lpad331

invoke.cont378:                                   ; preds = %invoke.cont375
  store ptr %151, ptr %call379, align 8
  br label %if.end380

if.end380:                                        ; preds = %invoke.cont378, %invoke.cont373
  br label %if.end381

if.end381:                                        ; preds = %if.end380, %if.then351
  br label %for.inc382

for.inc382:                                       ; preds = %if.end381
  %153 = load i32, ptr %i341, align 4
  %inc383 = add i32 %153, 1
  store i32 %inc383, ptr %i341, align 4
  br label %for.cond342, !llvm.loop !14

for.end384:                                       ; preds = %invoke.cont343
  %154 = load i32, ptr %k, align 4
  invoke void @_ZN6bufferIP4exprLb0ELj16EE6shrinkEj(ptr noundef nonnull align 8 dereferenceable(144) %gs, i32 noundef %154)
          to label %invoke.cont385 unwind label %lpad331

invoke.cont385:                                   ; preds = %for.end384
  %155 = load i8, ptr %and_change, align 1
  %tobool386 = trunc i8 %155 to i1
  br i1 %tobool386, label %if.then387, label %if.end410

if.then387:                                       ; preds = %invoke.cont385
  %call389 = invoke noundef ptr @_ZN6bufferIP4exprLb0ELj16EE5beginEv(ptr noundef nonnull align 8 dereferenceable(144) %gs)
          to label %invoke.cont388 unwind label %lpad331

invoke.cont388:                                   ; preds = %if.then387
  %call391 = invoke noundef ptr @_ZN6bufferIP4exprLb0ELj16EE3endEv(ptr noundef nonnull align 8 dereferenceable(144) %gs)
          to label %invoke.cont390 unwind label %lpad331

invoke.cont390:                                   ; preds = %invoke.cont388
  invoke void @"_ZSt4sortIPP4exprZN14array_rewriter11mk_map_coreEP9func_decljPKS1_R7obj_refIS0_11ast_managerEE3$_0EvT_SD_T0_"(ptr noundef %call389, ptr noundef %call391)
          to label %invoke.cont392 unwind label %lpad331

invoke.cont392:                                   ; preds = %invoke.cont390
  %m_util394 = getelementptr inbounds %class.array_rewriter, ptr %this1, i32 0, i32 0
  %156 = load ptr, ptr %f.addr, align 8
  %call396 = invoke noundef i32 @_ZNK6bufferIP4exprLb0ELj16EE4sizeEv(ptr noundef nonnull align 8 dereferenceable(144) %gs)
          to label %invoke.cont395 unwind label %lpad331

invoke.cont395:                                   ; preds = %invoke.cont392
  %call398 = invoke noundef ptr @_ZNK6bufferIP4exprLb0ELj16EE4dataEv(ptr noundef nonnull align 8 dereferenceable(144) %gs)
          to label %invoke.cont397 unwind label %lpad331

invoke.cont397:                                   ; preds = %invoke.cont395
  %call400 = invoke noundef ptr @_ZN10array_util12mk_map_assocEP9func_decljPKP4expr(ptr noundef nonnull align 8 dereferenceable(16) %m_util394, ptr noundef %156, i32 noundef %call396, ptr noundef %call398)
          to label %invoke.cont399 unwind label %lpad331

invoke.cont399:                                   ; preds = %invoke.cont397
  store ptr %call400, ptr %arg393, align 8
  %m_util401 = getelementptr inbounds %class.array_rewriter, ptr %this1, i32 0, i32 0
  %call403 = invoke noundef nonnull align 8 dereferenceable(976) ptr @_ZNK14array_rewriter1mEv(ptr noundef nonnull align 8 dereferenceable(22) %this1)
          to label %invoke.cont402 unwind label %lpad331

invoke.cont402:                                   ; preds = %invoke.cont399
  %call405 = invoke noundef ptr @_ZN11ast_manager11mk_not_declEv(ptr noundef nonnull align 8 dereferenceable(976) %call403)
          to label %invoke.cont404 unwind label %lpad331

invoke.cont404:                                   ; preds = %invoke.cont402
  %call407 = invoke noundef ptr @_ZN10array_util6mk_mapEP9func_decljPKP4expr(ptr noundef nonnull align 8 dereferenceable(16) %m_util401, ptr noundef %call405, i32 noundef 1, ptr noundef %arg393)
          to label %invoke.cont406 unwind label %lpad331

invoke.cont406:                                   ; preds = %invoke.cont404
  %157 = load i32, ptr %j226, align 4
  %call409 = invoke noundef nonnull align 8 dereferenceable(8) ptr @_ZN6bufferIP4exprLb0ELj16EEixEj(ptr noundef nonnull align 8 dereferenceable(144) %es, i32 noundef %157)
          to label %invoke.cont408 unwind label %lpad331

invoke.cont408:                                   ; preds = %invoke.cont406
  store ptr %call407, ptr %call409, align 8
  br label %if.end410

if.end410:                                        ; preds = %invoke.cont408, %invoke.cont385
  call void @_ZN10ptr_bufferI4exprLj16EED2Ev(ptr noundef nonnull align 8 dereferenceable(144) %gs) #3
  br label %if.end412

if.end412:                                        ; preds = %if.end410, %invoke.cont328, %invoke.cont320
  br label %if.end413

if.end413:                                        ; preds = %if.end412, %invoke.cont293, %invoke.cont285
  %158 = load i32, ptr %j226, align 4
  %inc414 = add i32 %158, 1
  store i32 %inc414, ptr %j226, align 4
  br label %for.inc415

for.inc415:                                       ; preds = %if.end413
  %159 = load ptr, ptr %__begin2, align 8
  %incdec.ptr = getelementptr inbounds ptr, ptr %159, i32 1
  store ptr %incdec.ptr, ptr %__begin2, align 8
  br label %for.cond280

for.end416:                                       ; preds = %for.cond280
  %160 = load i8, ptr %change, align 1
  %tobool417 = trunc i8 %160 to i1
  br i1 %tobool417, label %if.then418, label %if.end434

if.then418:                                       ; preds = %for.end416
  %call420 = invoke noundef ptr @_ZN6bufferIP4exprLb0ELj16EE5beginEv(ptr noundef nonnull align 8 dereferenceable(144) %es)
          to label %invoke.cont419 unwind label %lpad227

invoke.cont419:                                   ; preds = %if.then418
  %call422 = invoke noundef ptr @_ZN6bufferIP4exprLb0ELj16EE3endEv(ptr noundef nonnull align 8 dereferenceable(144) %es)
          to label %invoke.cont421 unwind label %lpad227

invoke.cont421:                                   ; preds = %invoke.cont419
  invoke void @"_ZSt4sortIPP4exprZN14array_rewriter11mk_map_coreEP9func_decljPKS1_R7obj_refIS0_11ast_managerEE3$_1EvT_SD_T0_"(ptr noundef %call420, ptr noundef %call422)
          to label %invoke.cont424 unwind label %lpad227

invoke.cont424:                                   ; preds = %invoke.cont421
  %m_util425 = getelementptr inbounds %class.array_rewriter, ptr %this1, i32 0, i32 0
  %161 = load ptr, ptr %f.addr, align 8
  %call427 = invoke noundef i32 @_ZNK6bufferIP4exprLb0ELj16EE4sizeEv(ptr noundef nonnull align 8 dereferenceable(144) %es)
          to label %invoke.cont426 unwind label %lpad227

invoke.cont426:                                   ; preds = %invoke.cont424
  %call429 = invoke noundef ptr @_ZNK6bufferIP4exprLb0ELj16EE4dataEv(ptr noundef nonnull align 8 dereferenceable(144) %es)
          to label %invoke.cont428 unwind label %lpad227

invoke.cont428:                                   ; preds = %invoke.cont426
  %call431 = invoke noundef ptr @_ZN10array_util12mk_map_assocEP9func_decljPKP4expr(ptr noundef nonnull align 8 dereferenceable(16) %m_util425, ptr noundef %161, i32 noundef %call427, ptr noundef %call429)
          to label %invoke.cont430 unwind label %lpad227

invoke.cont430:                                   ; preds = %invoke.cont428
  %162 = load ptr, ptr %result.addr, align 8
  %call433 = invoke noundef nonnull align 8 dereferenceable(16) ptr @_ZN7obj_refI4expr11ast_managerEaSEPS0_(ptr noundef nonnull align 8 dereferenceable(16) %162, ptr noundef %call431)
          to label %invoke.cont432 unwind label %lpad227

invoke.cont432:                                   ; preds = %invoke.cont430
  store i32 1, ptr %retval, align 4
  store i32 1, ptr %cleanup.dest.slot, align 4
  br label %cleanup

if.end434:                                        ; preds = %for.end416
  store i32 0, ptr %cleanup.dest.slot, align 4
  br label %cleanup

cleanup:                                          ; preds = %if.end434, %invoke.cont432, %invoke.cont315
  call void @_ZN10ptr_bufferI4exprLj16EED2Ev(ptr noundef nonnull align 8 dereferenceable(144) %es) #3
  call void @_ZN8ast_markD2Ev(ptr noundef nonnull align 8 dereferenceable(56) %mark) #3
  %cleanup.dest = load i32, ptr %cleanup.dest.slot, align 4
  switch i32 %cleanup.dest, label %unreachable [
    i32 0, label %cleanup.cont
    i32 1, label %return
  ]

cleanup.cont:                                     ; preds = %cleanup
  br label %if.end438

ehcleanup435:                                     ; preds = %lpad331, %lpad306, %lpad227
  call void @_ZN10ptr_bufferI4exprLj16EED2Ev(ptr noundef nonnull align 8 dereferenceable(144) %es) #3
  call void @_ZN8ast_markD2Ev(ptr noundef nonnull align 8 dereferenceable(56) %mark) #3
  br label %eh.resume

if.end438:                                        ; preds = %cleanup.cont, %if.end222
  %call439 = call noundef nonnull align 8 dereferenceable(976) ptr @_ZNK14array_rewriter1mEv(ptr noundef nonnull align 8 dereferenceable(22) %this1)
  %163 = load ptr, ptr %f.addr, align 8
  %call440 = call noundef zeroext i1 @_ZNK11ast_manager5is_orEPK9func_decl(ptr noundef nonnull align 8 dereferenceable(976) %call439, ptr noundef %163)
  br i1 %call440, label %if.then441, label %if.end564

if.then441:                                       ; preds = %if.end438
  call void @_ZN8ast_markC2Ev(ptr noundef nonnull align 8 dereferenceable(56) %mark442)
  call void @_ZN10ptr_bufferI4exprLj16EEC2Ev(ptr noundef nonnull align 8 dereferenceable(144) %es443) #3
  %164 = load i32, ptr %num_args.addr, align 4
  %165 = load ptr, ptr %args.addr, align 8
  invoke void @_ZN10ptr_bufferI4exprLj16EE6appendEjPKPS0_(ptr noundef nonnull align 8 dereferenceable(144) %es443, i32 noundef %164, ptr noundef %165)
          to label %invoke.cont445 unwind label %lpad444

invoke.cont445:                                   ; preds = %if.then441
  store i32 0, ptr %j446, align 4
  store i8 0, ptr %change447, align 1
  store i32 0, ptr %i448, align 4
  br label %for.cond449

for.cond449:                                      ; preds = %for.inc492, %invoke.cont445
  %166 = load i32, ptr %i448, align 4
  %call451 = invoke noundef i32 @_ZNK6bufferIP4exprLb0ELj16EE4sizeEv(ptr noundef nonnull align 8 dereferenceable(144) %es443)
          to label %invoke.cont450 unwind label %lpad444

invoke.cont450:                                   ; preds = %for.cond449
  %cmp452 = icmp ult i32 %166, %call451
  br i1 %cmp452, label %for.body453, label %for.end494

for.body453:                                      ; preds = %invoke.cont450
  %167 = load i32, ptr %i448, align 4
  %call456 = invoke noundef nonnull align 8 dereferenceable(8) ptr @_ZN6bufferIP4exprLb0ELj16EEixEj(ptr noundef nonnull align 8 dereferenceable(144) %es443, i32 noundef %167)
          to label %invoke.cont455 unwind label %lpad444

invoke.cont455:                                   ; preds = %for.body453
  %168 = load ptr, ptr %call456, align 8
  store ptr %168, ptr %e454, align 8
  %169 = load ptr, ptr %e454, align 8
  %call458 = invoke noundef zeroext i1 @_ZNK8ast_mark9is_markedEP3ast(ptr noundef nonnull align 8 dereferenceable(56) %mark442, ptr noundef %169)
          to label %invoke.cont457 unwind label %lpad444

invoke.cont457:                                   ; preds = %invoke.cont455
  br i1 %call458, label %if.then459, label %if.else460

if.then459:                                       ; preds = %invoke.cont457
  store i8 1, ptr %change447, align 1
  br label %if.end491

lpad444:                                          ; preds = %invoke.cont553, %invoke.cont551, %invoke.cont549, %if.then547, %if.then525, %invoke.cont521, %invoke.cont519, %land.lhs.true518, %invoke.cont514, %invoke.cont511, %land.lhs.true510, %for.body505, %invoke.cont498, %invoke.cont495, %for.end494, %invoke.cont485, %invoke.cont484, %if.else483, %invoke.cont480, %invoke.cont478, %invoke.cont476, %invoke.cont474, %invoke.cont473, %if.then472, %invoke.cont468, %invoke.cont465, %land.lhs.true464, %if.else460, %invoke.cont455, %for.body453, %for.cond449, %if.then441
  %170 = landingpad { ptr, i32 }
          cleanup
  %171 = extractvalue { ptr, i32 } %170, 0
  store ptr %171, ptr %exn.slot, align 8
  %172 = extractvalue { ptr, i32 } %170, 1
  store i32 %172, ptr %ehselector.slot, align 4
  br label %ehcleanup559

if.else460:                                       ; preds = %invoke.cont457
  %m_util461 = getelementptr inbounds %class.array_rewriter, ptr %this1, i32 0, i32 0
  %173 = load ptr, ptr %e454, align 8
  %call463 = invoke noundef zeroext i1 @_ZNK17array_recognizers6is_mapEP4expr(ptr noundef nonnull align 4 dereferenceable(4) %m_util461, ptr noundef %173)
          to label %invoke.cont462 unwind label %lpad444

invoke.cont462:                                   ; preds = %if.else460
  br i1 %call463, label %land.lhs.true464, label %if.else483

land.lhs.true464:                                 ; preds = %invoke.cont462
  %call466 = invoke noundef nonnull align 8 dereferenceable(976) ptr @_ZNK14array_rewriter1mEv(ptr noundef nonnull align 8 dereferenceable(22) %this1)
          to label %invoke.cont465 unwind label %lpad444

invoke.cont465:                                   ; preds = %land.lhs.true464
  %m_util467 = getelementptr inbounds %class.array_rewriter, ptr %this1, i32 0, i32 0
  %174 = load ptr, ptr %e454, align 8
  %call469 = invoke noundef ptr @_ZNK17array_recognizers17get_map_func_declEP4expr(ptr noundef nonnull align 4 dereferenceable(4) %m_util467, ptr noundef %174)
          to label %invoke.cont468 unwind label %lpad444

invoke.cont468:                                   ; preds = %invoke.cont465
  %call471 = invoke noundef zeroext i1 @_ZNK11ast_manager5is_orEPK9func_decl(ptr noundef nonnull align 8 dereferenceable(976) %call466, ptr noundef %call469)
          to label %invoke.cont470 unwind label %lpad444

invoke.cont470:                                   ; preds = %invoke.cont468
  br i1 %call471, label %if.then472, label %if.else483

if.then472:                                       ; preds = %invoke.cont470
  %175 = load ptr, ptr %e454, align 8
  invoke void @_ZN8ast_mark4markEP3astb(ptr noundef nonnull align 8 dereferenceable(56) %mark442, ptr noundef %175, i1 noundef zeroext true)
          to label %invoke.cont473 unwind label %lpad444

invoke.cont473:                                   ; preds = %if.then472
  %176 = load ptr, ptr %e454, align 8
  %call475 = invoke noundef ptr @_Z6to_appP3ast(ptr noundef %176)
          to label %invoke.cont474 unwind label %lpad444

invoke.cont474:                                   ; preds = %invoke.cont473
  %call477 = invoke noundef i32 @_ZNK3app12get_num_argsEv(ptr noundef nonnull align 8 dereferenceable(32) %call475)
          to label %invoke.cont476 unwind label %lpad444

invoke.cont476:                                   ; preds = %invoke.cont474
  %177 = load ptr, ptr %e454, align 8
  %call479 = invoke noundef ptr @_Z6to_appP3ast(ptr noundef %177)
          to label %invoke.cont478 unwind label %lpad444

invoke.cont478:                                   ; preds = %invoke.cont476
  %call481 = invoke noundef ptr @_ZNK3app8get_argsEv(ptr noundef nonnull align 8 dereferenceable(32) %call479)
          to label %invoke.cont480 unwind label %lpad444

invoke.cont480:                                   ; preds = %invoke.cont478
  invoke void @_ZN10ptr_bufferI4exprLj16EE6appendEjPKPS0_(ptr noundef nonnull align 8 dereferenceable(144) %es443, i32 noundef %call477, ptr noundef %call481)
          to label %invoke.cont482 unwind label %lpad444

invoke.cont482:                                   ; preds = %invoke.cont480
  br label %if.end490

if.else483:                                       ; preds = %invoke.cont470, %invoke.cont462
  %178 = load ptr, ptr %e454, align 8
  invoke void @_ZN8ast_mark4markEP3astb(ptr noundef nonnull align 8 dereferenceable(56) %mark442, ptr noundef %178, i1 noundef zeroext true)
          to label %invoke.cont484 unwind label %lpad444

invoke.cont484:                                   ; preds = %if.else483
  %179 = load i32, ptr %i448, align 4
  %call486 = invoke noundef nonnull align 8 dereferenceable(8) ptr @_ZN6bufferIP4exprLb0ELj16EEixEj(ptr noundef nonnull align 8 dereferenceable(144) %es443, i32 noundef %179)
          to label %invoke.cont485 unwind label %lpad444

invoke.cont485:                                   ; preds = %invoke.cont484
  %180 = load ptr, ptr %call486, align 8
  %181 = load i32, ptr %j446, align 4
  %inc487 = add i32 %181, 1
  store i32 %inc487, ptr %j446, align 4
  %call489 = invoke noundef nonnull align 8 dereferenceable(8) ptr @_ZN6bufferIP4exprLb0ELj16EEixEj(ptr noundef nonnull align 8 dereferenceable(144) %es443, i32 noundef %181)
          to label %invoke.cont488 unwind label %lpad444

invoke.cont488:                                   ; preds = %invoke.cont485
  store ptr %180, ptr %call489, align 8
  br label %if.end490

if.end490:                                        ; preds = %invoke.cont488, %invoke.cont482
  br label %if.end491

if.end491:                                        ; preds = %if.end490, %if.then459
  br label %for.inc492

for.inc492:                                       ; preds = %if.end491
  %182 = load i32, ptr %i448, align 4
  %inc493 = add i32 %182, 1
  store i32 %inc493, ptr %i448, align 4
  br label %for.cond449, !llvm.loop !15

for.end494:                                       ; preds = %invoke.cont450
  %183 = load i32, ptr %j446, align 4
  invoke void @_ZN6bufferIP4exprLb0ELj16EE6shrinkEj(ptr noundef nonnull align 8 dereferenceable(144) %es443, i32 noundef %183)
          to label %invoke.cont495 unwind label %lpad444

invoke.cont495:                                   ; preds = %for.end494
  store ptr %es443, ptr %__range2496, align 8
  %184 = load ptr, ptr %__range2496, align 8
  %call499 = invoke noundef ptr @_ZN6bufferIP4exprLb0ELj16EE5beginEv(ptr noundef nonnull align 8 dereferenceable(144) %184)
          to label %invoke.cont498 unwind label %lpad444

invoke.cont498:                                   ; preds = %invoke.cont495
  store ptr %call499, ptr %__begin2497, align 8
  %185 = load ptr, ptr %__range2496, align 8
  %call502 = invoke noundef ptr @_ZN6bufferIP4exprLb0ELj16EE3endEv(ptr noundef nonnull align 8 dereferenceable(144) %185)
          to label %invoke.cont501 unwind label %lpad444

invoke.cont501:                                   ; preds = %invoke.cont498
  store ptr %call502, ptr %__end2500, align 8
  br label %for.cond503

for.cond503:                                      ; preds = %for.inc543, %invoke.cont501
  %186 = load ptr, ptr %__begin2497, align 8
  %187 = load ptr, ptr %__end2500, align 8
  %cmp504 = icmp ne ptr %186, %187
  br i1 %cmp504, label %for.body505, label %for.end545

for.body505:                                      ; preds = %for.cond503
  %188 = load ptr, ptr %__begin2497, align 8
  %189 = load ptr, ptr %188, align 8
  store ptr %189, ptr %e506, align 8
  %m_util507 = getelementptr inbounds %class.array_rewriter, ptr %this1, i32 0, i32 0
  %190 = load ptr, ptr %e506, align 8
  %call509 = invoke noundef zeroext i1 @_ZNK17array_recognizers6is_mapEP4expr(ptr noundef nonnull align 4 dereferenceable(4) %m_util507, ptr noundef %190)
          to label %invoke.cont508 unwind label %lpad444

invoke.cont508:                                   ; preds = %for.body505
  br i1 %call509, label %land.lhs.true510, label %if.end542

land.lhs.true510:                                 ; preds = %invoke.cont508
  %call512 = invoke noundef nonnull align 8 dereferenceable(976) ptr @_ZNK14array_rewriter1mEv(ptr noundef nonnull align 8 dereferenceable(22) %this1)
          to label %invoke.cont511 unwind label %lpad444

invoke.cont511:                                   ; preds = %land.lhs.true510
  %m_util513 = getelementptr inbounds %class.array_rewriter, ptr %this1, i32 0, i32 0
  %191 = load ptr, ptr %e506, align 8
  %call515 = invoke noundef ptr @_ZNK17array_recognizers17get_map_func_declEP4expr(ptr noundef nonnull align 4 dereferenceable(4) %m_util513, ptr noundef %191)
          to label %invoke.cont514 unwind label %lpad444

invoke.cont514:                                   ; preds = %invoke.cont511
  %call517 = invoke noundef zeroext i1 @_ZNK11ast_manager6is_notEPK9func_decl(ptr noundef nonnull align 8 dereferenceable(976) %call512, ptr noundef %call515)
          to label %invoke.cont516 unwind label %lpad444

invoke.cont516:                                   ; preds = %invoke.cont514
  br i1 %call517, label %land.lhs.true518, label %if.end542

land.lhs.true518:                                 ; preds = %invoke.cont516
  %192 = load ptr, ptr %e506, align 8
  %call520 = invoke noundef ptr @_Z6to_appP3ast(ptr noundef %192)
          to label %invoke.cont519 unwind label %lpad444

invoke.cont519:                                   ; preds = %land.lhs.true518
  %call522 = invoke noundef ptr @_ZNK3app7get_argEj(ptr noundef nonnull align 8 dereferenceable(32) %call520, i32 noundef 0)
          to label %invoke.cont521 unwind label %lpad444

invoke.cont521:                                   ; preds = %invoke.cont519
  %call524 = invoke noundef zeroext i1 @_ZNK8ast_mark9is_markedEP3ast(ptr noundef nonnull align 8 dereferenceable(56) %mark442, ptr noundef %call522)
          to label %invoke.cont523 unwind label %lpad444

invoke.cont523:                                   ; preds = %invoke.cont521
  br i1 %call524, label %if.then525, label %if.end542

if.then525:                                       ; preds = %invoke.cont523
  %193 = load ptr, ptr %f.addr, align 8
  %194 = load i32, ptr %num_args.addr, align 4
  %195 = load ptr, ptr %args.addr, align 8
  invoke void @_ZN14array_rewriter18get_map_array_sortEP9func_decljPKP4expr(ptr sret(%class.obj_ref.43) align 8 %s526, ptr noundef nonnull align 8 dereferenceable(22) %this1, ptr noundef %193, i32 noundef %194, ptr noundef %195)
          to label %invoke.cont527 unwind label %lpad444

invoke.cont527:                                   ; preds = %if.then525
  %m_util528 = getelementptr inbounds %class.array_rewriter, ptr %this1, i32 0, i32 0
  %call531 = invoke noundef ptr @_ZNK7obj_refI4sort11ast_managerEcvPS0_Ev(ptr noundef nonnull align 8 dereferenceable(16) %s526)
          to label %invoke.cont530 unwind label %lpad529

invoke.cont530:                                   ; preds = %invoke.cont527
  %call533 = invoke noundef nonnull align 8 dereferenceable(976) ptr @_ZNK14array_rewriter1mEv(ptr noundef nonnull align 8 dereferenceable(22) %this1)
          to label %invoke.cont532 unwind label %lpad529

invoke.cont532:                                   ; preds = %invoke.cont530
  %call535 = invoke noundef ptr @_ZNK11ast_manager7mk_trueEv(ptr noundef nonnull align 8 dereferenceable(976) %call533)
          to label %invoke.cont534 unwind label %lpad529

invoke.cont534:                                   ; preds = %invoke.cont532
  %call537 = invoke noundef ptr @_ZN10array_util14mk_const_arrayEP4sortP4expr(ptr noundef nonnull align 8 dereferenceable(16) %m_util528, ptr noundef %call531, ptr noundef %call535)
          to label %invoke.cont536 unwind label %lpad529

invoke.cont536:                                   ; preds = %invoke.cont534
  %196 = load ptr, ptr %result.addr, align 8
  %call539 = invoke noundef nonnull align 8 dereferenceable(16) ptr @_ZN7obj_refI4expr11ast_managerEaSEPS0_(ptr noundef nonnull align 8 dereferenceable(16) %196, ptr noundef %call537)
          to label %invoke.cont538 unwind label %lpad529

invoke.cont538:                                   ; preds = %invoke.cont536
  store i32 4, ptr %retval, align 4
  store i32 1, ptr %cleanup.dest.slot, align 4
  call void @_ZN7obj_refI4sort11ast_managerED2Ev(ptr noundef nonnull align 8 dereferenceable(16) %s526) #3
  br label %cleanup558

lpad529:                                          ; preds = %invoke.cont536, %invoke.cont534, %invoke.cont532, %invoke.cont530, %invoke.cont527
  %197 = landingpad { ptr, i32 }
          cleanup
  %198 = extractvalue { ptr, i32 } %197, 0
  store ptr %198, ptr %exn.slot, align 8
  %199 = extractvalue { ptr, i32 } %197, 1
  store i32 %199, ptr %ehselector.slot, align 4
  call void @_ZN7obj_refI4sort11ast_managerED2Ev(ptr noundef nonnull align 8 dereferenceable(16) %s526) #3
  br label %ehcleanup559

if.end542:                                        ; preds = %invoke.cont523, %invoke.cont516, %invoke.cont508
  br label %for.inc543

for.inc543:                                       ; preds = %if.end542
  %200 = load ptr, ptr %__begin2497, align 8
  %incdec.ptr544 = getelementptr inbounds ptr, ptr %200, i32 1
  store ptr %incdec.ptr544, ptr %__begin2497, align 8
  br label %for.cond503

for.end545:                                       ; preds = %for.cond503
  %201 = load i8, ptr %change447, align 1
  %tobool546 = trunc i8 %201 to i1
  br i1 %tobool546, label %if.then547, label %if.end557

if.then547:                                       ; preds = %for.end545
  %m_util548 = getelementptr inbounds %class.array_rewriter, ptr %this1, i32 0, i32 0
  %202 = load ptr, ptr %f.addr, align 8
  %call550 = invoke noundef i32 @_ZNK6bufferIP4exprLb0ELj16EE4sizeEv(ptr noundef nonnull align 8 dereferenceable(144) %es443)
          to label %invoke.cont549 unwind label %lpad444

invoke.cont549:                                   ; preds = %if.then547
  %call552 = invoke noundef ptr @_ZNK6bufferIP4exprLb0ELj16EE4dataEv(ptr noundef nonnull align 8 dereferenceable(144) %es443)
          to label %invoke.cont551 unwind label %lpad444

invoke.cont551:                                   ; preds = %invoke.cont549
  %call554 = invoke noundef ptr @_ZN10array_util12mk_map_assocEP9func_decljPKP4expr(ptr noundef nonnull align 8 dereferenceable(16) %m_util548, ptr noundef %202, i32 noundef %call550, ptr noundef %call552)
          to label %invoke.cont553 unwind label %lpad444

invoke.cont553:                                   ; preds = %invoke.cont551
  %203 = load ptr, ptr %result.addr, align 8
  %call556 = invoke noundef nonnull align 8 dereferenceable(16) ptr @_ZN7obj_refI4expr11ast_managerEaSEPS0_(ptr noundef nonnull align 8 dereferenceable(16) %203, ptr noundef %call554)
          to label %invoke.cont555 unwind label %lpad444

invoke.cont555:                                   ; preds = %invoke.cont553
  store i32 0, ptr %retval, align 4
  store i32 1, ptr %cleanup.dest.slot, align 4
  br label %cleanup558

if.end557:                                        ; preds = %for.end545
  store i32 0, ptr %cleanup.dest.slot, align 4
  br label %cleanup558

cleanup558:                                       ; preds = %if.end557, %invoke.cont555, %invoke.cont538
  call void @_ZN10ptr_bufferI4exprLj16EED2Ev(ptr noundef nonnull align 8 dereferenceable(144) %es443) #3
  call void @_ZN8ast_markD2Ev(ptr noundef nonnull align 8 dereferenceable(56) %mark442) #3
  %cleanup.dest561 = load i32, ptr %cleanup.dest.slot, align 4
  switch i32 %cleanup.dest561, label %unreachable [
    i32 0, label %cleanup.cont562
    i32 1, label %return
  ]

cleanup.cont562:                                  ; preds = %cleanup558
  br label %if.end564

ehcleanup559:                                     ; preds = %lpad529, %lpad444
  call void @_ZN10ptr_bufferI4exprLj16EED2Ev(ptr noundef nonnull align 8 dereferenceable(144) %es443) #3
  call void @_ZN8ast_markD2Ev(ptr noundef nonnull align 8 dereferenceable(56) %mark442) #3
  br label %eh.resume

if.end564:                                        ; preds = %cleanup.cont562, %if.end438
  store i32 5, ptr %retval, align 4
  br label %return

return:                                           ; preds = %if.end564, %cleanup558, %cleanup, %if.then217, %invoke.cont202, %if.end124
  %204 = load i32, ptr %retval, align 4
  ret i32 %204

eh.resume:                                        ; preds = %ehcleanup559, %ehcleanup435, %lpad161, %ehcleanup125
  %exn = load ptr, ptr %exn.slot, align 8
  %sel = load i32, ptr %ehselector.slot, align 4
  %lpad.val = insertvalue { ptr, i32 } poison, ptr %exn, 0
  %lpad.val565 = insertvalue { ptr, i32 } %lpad.val, i32 %sel, 1
  resume { ptr, i32 } %lpad.val565

unreachable:                                      ; preds = %cleanup558, %cleanup
  unreachable
}

declare noundef ptr @_ZNK17array_recognizers17get_map_func_declEP9func_decl(ptr noundef nonnull align 4 dereferenceable(4), ptr noundef) #1

; Function Attrs: mustprogress uwtable
define hidden noundef i32 @_ZN14array_rewriter12mk_set_unionEjPKP4exprR7obj_refIS0_11ast_managerE(ptr noundef nonnull align 8 dereferenceable(22) %this, i32 noundef %num_args, ptr noundef %args, ptr noundef nonnull align 8 dereferenceable(16) %result) #4 align 2 {
entry:
  %retval = alloca i32, align 4
  %this.addr = alloca ptr, align 8
  %num_args.addr = alloca i32, align 4
  %args.addr = alloca ptr, align 8
  %result.addr = alloca ptr, align 8
  %r = alloca i32, align 4
  store ptr %this, ptr %this.addr, align 8
  store i32 %num_args, ptr %num_args.addr, align 4
  store ptr %args, ptr %args.addr, align 8
  store ptr %result, ptr %result.addr, align 8
  %this1 = load ptr, ptr %this.addr, align 8
  %0 = load i32, ptr %num_args.addr, align 4
  %cmp = icmp eq i32 %0, 1
  br i1 %cmp, label %if.then, label %if.end

if.then:                                          ; preds = %entry
  %1 = load ptr, ptr %args.addr, align 8
  %arrayidx = getelementptr inbounds ptr, ptr %1, i64 0
  %2 = load ptr, ptr %arrayidx, align 8
  %3 = load ptr, ptr %result.addr, align 8
  %call = call noundef nonnull align 8 dereferenceable(16) ptr @_ZN7obj_refI4expr11ast_managerEaSEPS0_(ptr noundef nonnull align 8 dereferenceable(16) %3, ptr noundef %2)
  store i32 4, ptr %retval, align 4
  br label %return

if.end:                                           ; preds = %entry
  %4 = load i32, ptr %num_args.addr, align 4
  %sub = sub i32 %4, 2
  %call2 = call noundef i32 @_Z18unsigned2br_statusj(i32 noundef %sub)
  store i32 %call2, ptr %r, align 4
  %m_util = getelementptr inbounds %class.array_rewriter, ptr %this1, i32 0, i32 0
  %call3 = call noundef nonnull align 8 dereferenceable(976) ptr @_ZNK14array_rewriter1mEv(ptr noundef nonnull align 8 dereferenceable(22) %this1)
  %call4 = call noundef ptr @_ZN11ast_manager10mk_or_declEv(ptr noundef nonnull align 8 dereferenceable(976) %call3)
  %5 = load i32, ptr %num_args.addr, align 4
  %6 = load ptr, ptr %args.addr, align 8
  %call5 = call noundef ptr @_ZN10array_util6mk_mapEP9func_decljPKP4expr(ptr noundef nonnull align 8 dereferenceable(16) %m_util, ptr noundef %call4, i32 noundef %5, ptr noundef %6)
  %7 = load ptr, ptr %result.addr, align 8
  %call6 = call noundef nonnull align 8 dereferenceable(16) ptr @_ZN7obj_refI4expr11ast_managerEaSEPS0_(ptr noundef nonnull align 8 dereferenceable(16) %7, ptr noundef %call5)
  %8 = load i32, ptr %r, align 4
  store i32 %8, ptr %retval, align 4
  br label %return

return:                                           ; preds = %if.end, %if.then
  %9 = load i32, ptr %retval, align 4
  ret i32 %9
}

; Function Attrs: mustprogress uwtable
define hidden noundef i32 @_ZN14array_rewriter16mk_set_intersectEjPKP4exprR7obj_refIS0_11ast_managerE(ptr noundef nonnull align 8 dereferenceable(22) %this, i32 noundef %num_args, ptr noundef %args, ptr noundef nonnull align 8 dereferenceable(16) %result) #4 align 2 {
entry:
  %retval = alloca i32, align 4
  %this.addr = alloca ptr, align 8
  %num_args.addr = alloca i32, align 4
  %args.addr = alloca ptr, align 8
  %result.addr = alloca ptr, align 8
  %r = alloca i32, align 4
  store ptr %this, ptr %this.addr, align 8
  store i32 %num_args, ptr %num_args.addr, align 4
  store ptr %args, ptr %args.addr, align 8
  store ptr %result, ptr %result.addr, align 8
  %this1 = load ptr, ptr %this.addr, align 8
  %0 = load i32, ptr %num_args.addr, align 4
  %cmp = icmp eq i32 %0, 1
  br i1 %cmp, label %if.then, label %if.end

if.then:                                          ; preds = %entry
  %1 = load ptr, ptr %args.addr, align 8
  %arrayidx = getelementptr inbounds ptr, ptr %1, i64 0
  %2 = load ptr, ptr %arrayidx, align 8
  %3 = load ptr, ptr %result.addr, align 8
  %call = call noundef nonnull align 8 dereferenceable(16) ptr @_ZN7obj_refI4expr11ast_managerEaSEPS0_(ptr noundef nonnull align 8 dereferenceable(16) %3, ptr noundef %2)
  store i32 4, ptr %retval, align 4
  br label %return

if.end:                                           ; preds = %entry
  %4 = load i32, ptr %num_args.addr, align 4
  %sub = sub i32 %4, 2
  %call2 = call noundef i32 @_Z18unsigned2br_statusj(i32 noundef %sub)
  store i32 %call2, ptr %r, align 4
  %m_util = getelementptr inbounds %class.array_rewriter, ptr %this1, i32 0, i32 0
  %call3 = call noundef nonnull align 8 dereferenceable(976) ptr @_ZNK14array_rewriter1mEv(ptr noundef nonnull align 8 dereferenceable(22) %this1)
  %call4 = call noundef ptr @_ZN11ast_manager11mk_and_declEv(ptr noundef nonnull align 8 dereferenceable(976) %call3)
  %5 = load i32, ptr %num_args.addr, align 4
  %6 = load ptr, ptr %args.addr, align 8
  %call5 = call noundef ptr @_ZN10array_util6mk_mapEP9func_decljPKP4expr(ptr noundef nonnull align 8 dereferenceable(16) %m_util, ptr noundef %call4, i32 noundef %5, ptr noundef %6)
  %7 = load ptr, ptr %result.addr, align 8
  %call6 = call noundef nonnull align 8 dereferenceable(16) ptr @_ZN7obj_refI4expr11ast_managerEaSEPS0_(ptr noundef nonnull align 8 dereferenceable(16) %7, ptr noundef %call5)
  %8 = load i32, ptr %r, align 4
  store i32 %8, ptr %retval, align 4
  br label %return

return:                                           ; preds = %if.end, %if.then
  %9 = load i32, ptr %retval, align 4
  ret i32 %9
}

; Function Attrs: mustprogress uwtable
define hidden noundef i32 @_ZN14array_rewriter13mk_set_subsetEP4exprS1_R7obj_refIS0_11ast_managerE(ptr noundef nonnull align 8 dereferenceable(22) %this, ptr noundef %arg1, ptr noundef %arg2, ptr noundef nonnull align 8 dereferenceable(16) %result) #4 align 2 {
entry:
  %this.addr = alloca ptr, align 8
  %arg1.addr = alloca ptr, align 8
  %arg2.addr = alloca ptr, align 8
  %result.addr = alloca ptr, align 8
  store ptr %this, ptr %this.addr, align 8
  store ptr %arg1, ptr %arg1.addr, align 8
  store ptr %arg2, ptr %arg2.addr, align 8
  store ptr %result, ptr %result.addr, align 8
  %this1 = load ptr, ptr %this.addr, align 8
  %0 = load ptr, ptr %arg1.addr, align 8
  %1 = load ptr, ptr %arg2.addr, align 8
  %2 = load ptr, ptr %result.addr, align 8
  %call = call noundef i32 @_ZN14array_rewriter17mk_set_differenceEP4exprS1_R7obj_refIS0_11ast_managerE(ptr noundef nonnull align 8 dereferenceable(22) %this1, ptr noundef %0, ptr noundef %1, ptr noundef nonnull align 8 dereferenceable(16) %2)
  %call2 = call noundef nonnull align 8 dereferenceable(976) ptr @_ZNK14array_rewriter1mEv(ptr noundef nonnull align 8 dereferenceable(22) %this1)
  %3 = load ptr, ptr %result.addr, align 8
  %call3 = call noundef ptr @_ZNK7obj_refI4expr11ast_managerE3getEv(ptr noundef nonnull align 8 dereferenceable(16) %3)
  %m_util = getelementptr inbounds %class.array_rewriter, ptr %this1, i32 0, i32 0
  %4 = load ptr, ptr %arg1.addr, align 8
  %call4 = call noundef ptr @_ZNK4expr8get_sortEv(ptr noundef nonnull align 4 dereferenceable(16) %4)
  %call5 = call noundef ptr @_ZN10array_util12mk_empty_setEP4sort(ptr noundef nonnull align 8 dereferenceable(16) %m_util, ptr noundef %call4)
  %call6 = call noundef ptr @_ZN11ast_manager5mk_eqEP4exprS1_(ptr noundef nonnull align 8 dereferenceable(976) %call2, ptr noundef %call3, ptr noundef %call5)
  %5 = load ptr, ptr %result.addr, align 8
  %call7 = call noundef nonnull align 8 dereferenceable(16) ptr @_ZN7obj_refI4expr11ast_managerEaSEPS0_(ptr noundef nonnull align 8 dereferenceable(16) %5, ptr noundef %call6)
  ret i32 2
}

; Function Attrs: mustprogress uwtable
define hidden noundef i32 @_ZN14array_rewriter17mk_set_complementEP4exprR7obj_refIS0_11ast_managerE(ptr noundef nonnull align 8 dereferenceable(22) %this, ptr noundef %arg, ptr noundef nonnull align 8 dereferenceable(16) %result) #4 align 2 {
entry:
  %this.addr = alloca ptr, align 8
  %arg.addr = alloca ptr, align 8
  %result.addr = alloca ptr, align 8
  %fnot = alloca ptr, align 8
  %st = alloca i32, align 4
  store ptr %this, ptr %this.addr, align 8
  store ptr %arg, ptr %arg.addr, align 8
  store ptr %result, ptr %result.addr, align 8
  %this1 = load ptr, ptr %this.addr, align 8
  %call = call noundef nonnull align 8 dereferenceable(976) ptr @_ZNK14array_rewriter1mEv(ptr noundef nonnull align 8 dereferenceable(22) %this1)
  %call2 = call noundef ptr @_ZN11ast_manager11mk_not_declEv(ptr noundef nonnull align 8 dereferenceable(976) %call)
  store ptr %call2, ptr %fnot, align 8
  %0 = load ptr, ptr %fnot, align 8
  %1 = load ptr, ptr %result.addr, align 8
  %call3 = call noundef i32 @_ZN14array_rewriter11mk_map_coreEP9func_decljPKP4exprR7obj_refIS2_11ast_managerE(ptr noundef nonnull align 8 dereferenceable(22) %this1, ptr noundef %0, i32 noundef 1, ptr noundef %arg.addr, ptr noundef nonnull align 8 dereferenceable(16) %1)
  store i32 %call3, ptr %st, align 4
  %2 = load i32, ptr %st, align 4
  %cmp = icmp eq i32 5, %2
  br i1 %cmp, label %if.then, label %if.end

if.then:                                          ; preds = %entry
  %m_util = getelementptr inbounds %class.array_rewriter, ptr %this1, i32 0, i32 0
  %3 = load ptr, ptr %fnot, align 8
  %call4 = call noundef ptr @_ZN10array_util6mk_mapEP9func_decljPKP4expr(ptr noundef nonnull align 8 dereferenceable(16) %m_util, ptr noundef %3, i32 noundef 1, ptr noundef %arg.addr)
  %4 = load ptr, ptr %result.addr, align 8
  %call5 = call noundef nonnull align 8 dereferenceable(16) ptr @_ZN7obj_refI4expr11ast_managerEaSEPS0_(ptr noundef nonnull align 8 dereferenceable(16) %4, ptr noundef %call4)
  store i32 4, ptr %st, align 4
  br label %if.end

if.end:                                           ; preds = %if.then, %entry
  %5 = load i32, ptr %st, align 4
  ret i32 %5
}

; Function Attrs: mustprogress uwtable
define hidden noundef i32 @_ZN14array_rewriter17mk_set_differenceEP4exprS1_R7obj_refIS0_11ast_managerE(ptr noundef nonnull align 8 dereferenceable(22) %this, ptr noundef %arg1, ptr noundef %arg2, ptr noundef nonnull align 8 dereferenceable(16) %result) #4 align 2 {
entry:
  %this.addr = alloca ptr, align 8
  %arg1.addr = alloca ptr, align 8
  %arg2.addr = alloca ptr, align 8
  %result.addr = alloca ptr, align 8
  %args = alloca [2 x ptr], align 16
  store ptr %this, ptr %this.addr, align 8
  store ptr %arg1, ptr %arg1.addr, align 8
  store ptr %arg2, ptr %arg2.addr, align 8
  store ptr %result, ptr %result.addr, align 8
  %this1 = load ptr, ptr %this.addr, align 8
  %arrayinit.begin = getelementptr inbounds [2 x ptr], ptr %args, i64 0, i64 0
  %0 = load ptr, ptr %arg1.addr, align 8
  store ptr %0, ptr %arrayinit.begin, align 8
  %arrayinit.element = getelementptr inbounds ptr, ptr %arrayinit.begin, i64 1
  %m_util = getelementptr inbounds %class.array_rewriter, ptr %this1, i32 0, i32 0
  %call = call noundef nonnull align 8 dereferenceable(976) ptr @_ZNK14array_rewriter1mEv(ptr noundef nonnull align 8 dereferenceable(22) %this1)
  %call2 = call noundef ptr @_ZN11ast_manager11mk_not_declEv(ptr noundef nonnull align 8 dereferenceable(976) %call)
  %call3 = call noundef ptr @_ZN10array_util6mk_mapEP9func_decljPKP4expr(ptr noundef nonnull align 8 dereferenceable(16) %m_util, ptr noundef %call2, i32 noundef 1, ptr noundef %arg2.addr)
  store ptr %call3, ptr %arrayinit.element, align 8
  %m_util4 = getelementptr inbounds %class.array_rewriter, ptr %this1, i32 0, i32 0
  %call5 = call noundef nonnull align 8 dereferenceable(976) ptr @_ZNK14array_rewriter1mEv(ptr noundef nonnull align 8 dereferenceable(22) %this1)
  %call6 = call noundef ptr @_ZN11ast_manager11mk_and_declEv(ptr noundef nonnull align 8 dereferenceable(976) %call5)
  %arraydecay = getelementptr inbounds [2 x ptr], ptr %args, i64 0, i64 0
  %call7 = call noundef ptr @_ZN10array_util6mk_mapEP9func_decljPKP4expr(ptr noundef nonnull align 8 dereferenceable(16) %m_util4, ptr noundef %call6, i32 noundef 2, ptr noundef %arraydecay)
  %1 = load ptr, ptr %result.addr, align 8
  %call8 = call noundef nonnull align 8 dereferenceable(16) ptr @_ZN7obj_refI4expr11ast_managerEaSEPS0_(ptr noundef nonnull align 8 dereferenceable(16) %1, ptr noundef %call7)
  ret i32 1
}

; Function Attrs: mustprogress uwtable
define hidden noundef i32 @_ZN14array_rewriter12compare_argsEjPKP4exprS3_(ptr noundef nonnull align 8 dereferenceable(22) %this, i32 noundef %num_args, ptr noundef %args1, ptr noundef %args2) #4 align 2 {
entry:
  %retval = alloca i32, align 4
  %this.addr = alloca ptr, align 8
  %num_args.addr = alloca i32, align 4
  %args1.addr = alloca ptr, align 8
  %args2.addr = alloca ptr, align 8
  %i = alloca i32, align 4
  store ptr %this, ptr %this.addr, align 8
  store i32 %num_args, ptr %num_args.addr, align 4
  store ptr %args1, ptr %args1.addr, align 8
  store ptr %args2, ptr %args2.addr, align 8
  %this1 = load ptr, ptr %this.addr, align 8
  store i32 0, ptr %i, align 4
  br label %for.cond

for.cond:                                         ; preds = %for.inc, %entry
  %0 = load i32, ptr %i, align 4
  %1 = load i32, ptr %num_args.addr, align 4
  %cmp = icmp ult i32 %0, %1
  br i1 %cmp, label %for.body, label %for.end

for.body:                                         ; preds = %for.cond
  %2 = load ptr, ptr %args1.addr, align 8
  %3 = load i32, ptr %i, align 4
  %idxprom = zext i32 %3 to i64
  %arrayidx = getelementptr inbounds ptr, ptr %2, i64 %idxprom
  %4 = load ptr, ptr %arrayidx, align 8
  %5 = load ptr, ptr %args2.addr, align 8
  %6 = load i32, ptr %i, align 4
  %idxprom2 = zext i32 %6 to i64
  %arrayidx3 = getelementptr inbounds ptr, ptr %5, i64 %idxprom2
  %7 = load ptr, ptr %arrayidx3, align 8
  %cmp4 = icmp eq ptr %4, %7
  br i1 %cmp4, label %if.then, label %if.end

if.then:                                          ; preds = %for.body
  br label %for.inc

if.end:                                           ; preds = %for.body
  %call = call noundef nonnull align 8 dereferenceable(976) ptr @_ZNK14array_rewriter1mEv(ptr noundef nonnull align 8 dereferenceable(22) %this1)
  %8 = load ptr, ptr %args1.addr, align 8
  %9 = load i32, ptr %i, align 4
  %idxprom5 = zext i32 %9 to i64
  %arrayidx6 = getelementptr inbounds ptr, ptr %8, i64 %idxprom5
  %10 = load ptr, ptr %arrayidx6, align 8
  %11 = load ptr, ptr %args2.addr, align 8
  %12 = load i32, ptr %i, align 4
  %idxprom7 = zext i32 %12 to i64
  %arrayidx8 = getelementptr inbounds ptr, ptr %11, i64 %idxprom7
  %13 = load ptr, ptr %arrayidx8, align 8
  %call9 = call noundef zeroext i1 @_ZNK11ast_manager12are_distinctEP4exprS1_(ptr noundef nonnull align 8 dereferenceable(976) %call, ptr noundef %10, ptr noundef %13)
  br i1 %call9, label %if.then10, label %if.end11

if.then10:                                        ; preds = %if.end
  store i32 -1, ptr %retval, align 4
  br label %return

if.end11:                                         ; preds = %if.end
  store i32 0, ptr %retval, align 4
  br label %return

for.inc:                                          ; preds = %if.then
  %14 = load i32, ptr %i, align 4
  %inc = add i32 %14, 1
  store i32 %inc, ptr %i, align 4
  br label %for.cond, !llvm.loop !16

for.end:                                          ; preds = %for.cond
  store i32 1, ptr %retval, align 4
  br label %return

return:                                           ; preds = %for.end, %if.end11, %if.then10
  %15 = load i32, ptr %retval, align 4
  ret i32 %15
}

declare noundef zeroext i1 @_ZNK11ast_manager12are_distinctEP4exprS1_(ptr noundef nonnull align 8 dereferenceable(976), ptr noundef, ptr noundef) #1

; Function Attrs: mustprogress uwtable
define linkonce_odr hidden noundef zeroext i1 @_ZNK17array_recognizers8is_storeEP4expr(ptr noundef nonnull align 4 dereferenceable(4) %this, ptr noundef %n) #4 comdat align 2 {
entry:
  %this.addr = alloca ptr, align 8
  %n.addr = alloca ptr, align 8
  store ptr %this, ptr %this.addr, align 8
  store ptr %n, ptr %n.addr, align 8
  %this1 = load ptr, ptr %this.addr, align 8
  %0 = load ptr, ptr %n.addr, align 8
  %m_fid = getelementptr inbounds %class.array_recognizers, ptr %this1, i32 0, i32 0
  %1 = load i32, ptr %m_fid, align 4
  %call = call noundef zeroext i1 @_Z9is_app_ofPK4exprii(ptr noundef %0, i32 noundef %1, i32 noundef 0)
  ret i1 %call
}

; Function Attrs: mustprogress nounwind uwtable
define linkonce_odr hidden noundef ptr @_Z6to_appP3ast(ptr noundef %n) #5 comdat {
entry:
  %n.addr = alloca ptr, align 8
  store ptr %n, ptr %n.addr, align 8
  %0 = load ptr, ptr %n.addr, align 8
  ret ptr %0
}

; Function Attrs: mustprogress nounwind uwtable
define linkonce_odr hidden noundef ptr @_ZNK3app8get_argsEv(ptr noundef nonnull align 8 dereferenceable(32) %this) #5 comdat align 2 {
entry:
  %this.addr = alloca ptr, align 8
  store ptr %this, ptr %this.addr, align 8
  %this1 = load ptr, ptr %this.addr, align 8
  %m_args = getelementptr inbounds %class.app, ptr %this1, i32 0, i32 3
  %arraydecay = getelementptr inbounds [0 x ptr], ptr %m_args, i64 0, i64 0
  ret ptr %arraydecay
}

; Function Attrs: mustprogress nounwind uwtable
define linkonce_odr hidden void @_ZN10ptr_bufferI4exprLj16EEC2Ev(ptr noundef nonnull align 8 dereferenceable(144) %this) unnamed_addr #5 comdat align 2 {
entry:
  %this.addr = alloca ptr, align 8
  store ptr %this, ptr %this.addr, align 8
  %this1 = load ptr, ptr %this.addr, align 8
  call void @_ZN6bufferIP4exprLb0ELj16EEC2Ev(ptr noundef nonnull align 8 dereferenceable(144) %this1) #3
  ret void
}

; Function Attrs: mustprogress uwtable
define linkonce_odr hidden void @_ZN6bufferIP4exprLb0ELj16EE9push_backEOS1_(ptr noundef nonnull align 8 dereferenceable(144) %this, ptr noundef nonnull align 8 dereferenceable(8) %elem) #4 comdat align 2 {
entry:
  %this.addr = alloca ptr, align 8
  %elem.addr = alloca ptr, align 8
  store ptr %this, ptr %this.addr, align 8
  store ptr %elem, ptr %elem.addr, align 8
  %this1 = load ptr, ptr %this.addr, align 8
  %m_pos = getelementptr inbounds %class.buffer, ptr %this1, i32 0, i32 1
  %0 = load i32, ptr %m_pos, align 8
  %m_capacity = getelementptr inbounds %class.buffer, ptr %this1, i32 0, i32 2
  %1 = load i32, ptr %m_capacity, align 4
  %cmp = icmp uge i32 %0, %1
  br i1 %cmp, label %if.then, label %if.end

if.then:                                          ; preds = %entry
  call void @_ZN6bufferIP4exprLb0ELj16EE6expandEv(ptr noundef nonnull align 8 dereferenceable(144) %this1)
  br label %if.end

if.end:                                           ; preds = %if.then, %entry
  %m_buffer = getelementptr inbounds %class.buffer, ptr %this1, i32 0, i32 0
  %2 = load ptr, ptr %m_buffer, align 8
  %m_pos2 = getelementptr inbounds %class.buffer, ptr %this1, i32 0, i32 1
  %3 = load i32, ptr %m_pos2, align 8
  %idx.ext = zext i32 %3 to i64
  %add.ptr = getelementptr inbounds ptr, ptr %2, i64 %idx.ext
  %4 = load ptr, ptr %elem.addr, align 8
  %5 = load ptr, ptr %4, align 8
  store ptr %5, ptr %add.ptr, align 8
  %m_pos3 = getelementptr inbounds %class.buffer, ptr %this1, i32 0, i32 1
  %6 = load i32, ptr %m_pos3, align 8
  %inc = add i32 %6, 1
  store i32 %inc, ptr %m_pos3, align 8
  ret void
}

; Function Attrs: mustprogress nounwind uwtable
define linkonce_odr hidden noundef ptr @_ZNK3app7get_argEj(ptr noundef nonnull align 8 dereferenceable(32) %this, i32 noundef %idx) #5 comdat align 2 {
entry:
  %this.addr = alloca ptr, align 8
  %idx.addr = alloca i32, align 4
  store ptr %this, ptr %this.addr, align 8
  store i32 %idx, ptr %idx.addr, align 4
  %this1 = load ptr, ptr %this.addr, align 8
  %m_args = getelementptr inbounds %class.app, ptr %this1, i32 0, i32 3
  %0 = load i32, ptr %idx.addr, align 4
  %idxprom = zext i32 %0 to i64
  %arrayidx = getelementptr inbounds [0 x ptr], ptr %m_args, i64 0, i64 %idxprom
  %1 = load ptr, ptr %arrayidx, align 8
  ret ptr %1
}

; Function Attrs: mustprogress uwtable
define linkonce_odr hidden void @_ZN10ptr_bufferI4exprLj16EE6appendEjPKPS0_(ptr noundef nonnull align 8 dereferenceable(144) %this, i32 noundef %n, ptr noundef %elems) #4 comdat align 2 {
entry:
  %this.addr = alloca ptr, align 8
  %n.addr = alloca i32, align 4
  %elems.addr = alloca ptr, align 8
  %i = alloca i32, align 4
  store ptr %this, ptr %this.addr, align 8
  store i32 %n, ptr %n.addr, align 4
  store ptr %elems, ptr %elems.addr, align 8
  %this1 = load ptr, ptr %this.addr, align 8
  store i32 0, ptr %i, align 4
  br label %for.cond

for.cond:                                         ; preds = %for.inc, %entry
  %0 = load i32, ptr %i, align 4
  %1 = load i32, ptr %n.addr, align 4
  %cmp = icmp ult i32 %0, %1
  br i1 %cmp, label %for.body, label %for.end

for.body:                                         ; preds = %for.cond
  %2 = load ptr, ptr %elems.addr, align 8
  %3 = load i32, ptr %i, align 4
  %idxprom = zext i32 %3 to i64
  %arrayidx = getelementptr inbounds ptr, ptr %2, i64 %idxprom
  call void @_ZN6bufferIP4exprLb0ELj16EE9push_backERKS1_(ptr noundef nonnull align 8 dereferenceable(144) %this1, ptr noundef nonnull align 8 dereferenceable(8) %arrayidx)
  br label %for.inc

for.inc:                                          ; preds = %for.body
  %4 = load i32, ptr %i, align 4
  %inc = add i32 %4, 1
  store i32 %inc, ptr %i, align 4
  br label %for.cond, !llvm.loop !17

for.end:                                          ; preds = %for.cond
  ret void
}

declare noundef ptr @_ZN11ast_manager6mk_appEiijPKP4expr(ptr noundef nonnull align 8 dereferenceable(976), i32 noundef, i32 noundef, i32 noundef, ptr noundef) #1

; Function Attrs: mustprogress uwtable
define linkonce_odr hidden noundef i32 @_ZNK14array_rewriter7get_fidEv(ptr noundef nonnull align 8 dereferenceable(22) %this) #4 comdat align 2 {
entry:
  %this.addr = alloca ptr, align 8
  store ptr %this, ptr %this.addr, align 8
  %this1 = load ptr, ptr %this.addr, align 8
  %m_util = getelementptr inbounds %class.array_rewriter, ptr %this1, i32 0, i32 0
  %call = call noundef i32 @_ZNK17array_recognizers13get_family_idEv(ptr noundef nonnull align 4 dereferenceable(4) %m_util)
  ret i32 %call
}

; Function Attrs: mustprogress nounwind uwtable
define linkonce_odr hidden noundef ptr @_ZNK6bufferIP4exprLb0ELj16EE4dataEv(ptr noundef nonnull align 8 dereferenceable(144) %this) #5 comdat align 2 {
entry:
  %this.addr = alloca ptr, align 8
  store ptr %this, ptr %this.addr, align 8
  %this1 = load ptr, ptr %this.addr, align 8
  %m_buffer = getelementptr inbounds %class.buffer, ptr %this1, i32 0, i32 0
  %0 = load ptr, ptr %m_buffer, align 8
  ret ptr %0
}

; Function Attrs: mustprogress nounwind uwtable
