target datalayout = "e-m:e-p270:32:32-p271:32:32-p272:64:64-i64:64-i128:128-f80:128-n8:16:32:64-S128"
target triple = "x86_64-unknown-linux-gnu"

%"class.std::ios_base::Init" = type { i8 }
%"class.sat::literal" = type { i32 }
%class.ref = type { ptr }
%class.statistics = type { %class.svector, %class.svector.0 }
%class.svector = type { %class.vector }
%class.vector = type { ptr }
%class.svector.0 = type { %class.vector.1 }
%class.vector.1 = type { ptr }
%"class.std::basic_ostream" = type { ptr, %"class.std::basic_ios" }
%"class.std::basic_ios" = type { %"class.std::ios_base", ptr, i8, i8, ptr, ptr, ptr, ptr }
%"class.std::ios_base" = type { ptr, i64, i64, i32, i32, i32, ptr, %"struct.std::ios_base::_Words", [8 x %"struct.std::ios_base::_Words"], i32, ptr, %"class.std::locale" }
%"struct.std::ios_base::_Words" = type { ptr, i64 }
%"class.std::locale" = type { ptr }
%"class.std::basic_istream" = type { ptr, i64, %"class.std::basic_ios" }
%class.symbol = type { ptr }
%class.params_ref = type { ptr }
%class.reslimit = type { %"struct.std::atomic", i8, i64, i64, %class.svector.2, %class.ptr_vector }
%"struct.std::atomic" = type { %"struct.std::__atomic_base" }
%"struct.std::__atomic_base" = type { i32 }
%class.svector.2 = type { %class.vector.3 }
%class.vector.3 = type { ptr }
%class.ptr_vector = type { %class.vector.4 }
%class.vector.4 = type { ptr }
%"class.sat::solver" = type { %"class.sat::solver_core", i8, [7 x i8], %"struct.sat::config", %"struct.sat::stats", %class.scoped_ptr, %class.scoped_ptr.5, ptr, %"class.sat::drat", [2 x %"class.sat::clause_allocator"], i8, %class.random_gen, %"class.sat::cleaner", %class.svector.19, %"class.sat::model_converter", i8, %"class.sat::simplifier", %"class.sat::scc", %"class.sat::asymm_branch", %"class.sat::probing", i8, [7 x i8], %"class.sat::mus", %"class.sat::binspr", i8, i8, [6 x i8], %"class.sat::justification", %"class.sat::literal", %class.ptr_vector.28, %class.ptr_vector.28, i32, %class.svector.12, %class.svector.12, %class.svector.12, %class.svector.12, %class.vector.48, %class.svector.19, %class.svector.49, %class.svector.22, %class.svector.22, %class.svector.22, %class.svector.22, %class.svector.22, %class.svector.12, %class.svector.12, i32, %class.svector.34, %class.svector.12, i32, %class.svector.2, %class.svector.2, %class.svector.2, %class.svector.2, %class.svector.2, i32, double, %class.svector.22, %class.svector.22, %class.svector.22, %class.svector.32, i32, i32, i32, i32, i32, i32, %"struct.sat::backoff", i32, i32, %"struct.sat::backoff", %"struct.sat::backoff", %class.var_queue, i32, i32, i32, %class.ema, %class.ema, %class.ema, %class.ema, %class.ema, %class.svector.34, %class.svector.36, %"class.std::__cxx11::basic_string", i8, %class.visit_helper, %class.svector.51, %class.scoped_limit_trail, %class.stopwatch, %class.params_ref, %"struct.sat::no_drat_params", %class.scoped_ptr.46, %class.svector.34, %"class.sat::literal_set", %"class.sat::literal_set", %class.svector.34, i32, i32, i32, i32, i8, ptr, ptr, %class.statistics, i32, i32, i32, i32, i8, i32, i32, i32, i32, i32, i32, i32, double, i32, double, i8, i8, %class.svector.34, i8, %class.svector.2, i32, i32, i32, %class.svector.34, %class.svector.34, %class.svector.32, %class.svector.12, %class.approx_set_tpl, %class.svector.34, %class.svector.34, %class.vector.18, %class.svector.34, %class.svector.44, %class.u_map, %class.svector.34 }
%"class.sat::solver_core" = type { ptr, ptr }
%"struct.sat::config" = type <{ i64, i32, i32, i32, i8, [3 x i8], i32, i32, double, i32, i8, [3 x i8], i32, i8, [3 x i8], i32, [4 x i8], double, double, i32, i32, double, double, i32, [4 x i8], %class.symbol, double, i32, i32, i8, [3 x i8], i32, i32, i8, [3 x i8], i32, i8, [3 x i8], i32, i8, [3 x i8], i32, i8, i8, i8, i8, i32, i8, i8, i8, i8, i8, i8, i8, i8, i32, i8, i8, i8, i8, i32, double, i32, [4 x i8], double, double, double, double, i32, i8, i8, [2 x i8], double, i8, i8, [2 x i8], i32, double, i32, i32, i32, i32, i32, i32, i32, i32, i8, i8, i8, i8, i32, i32, i8, i8, i8, i8, i8, i8, i8, [5 x i8], %class.symbol, i8, i8, i8, i8, i8, i8, [2 x i8], i32, i32, i32, i8, [3 x i8], double, double, double, double, double, i8, [7 x i8] }>
%"struct.sat::stats" = type { i32, i32, i32, i32, i32, i32, i32, i32, i32, i32, i32, i32, i32, i32, i32, i32, i32, i32, i32, i32, i32 }
%class.scoped_ptr = type { ptr }
%class.scoped_ptr.5 = type { ptr }
%"class.sat::drat" = type { ptr, %class.svector.6, ptr, %"class.sat::clause_allocator", ptr, ptr, %class.svector.14, %class.svector.16, %class.vector.18, %class.svector.19, i8, i8, i8, i8, i8, %"struct.sat::drat::stats" }
%class.svector.6 = type { %class.vector.7 }
%class.vector.7 = type { ptr }
%"class.sat::clause_allocator" = type { %class.sat_allocator, %class.id_gen }
%class.sat_allocator = type { ptr, i64, %class.ptr_vector.8, ptr, [65 x %class.ptr_vector.10] }
%class.ptr_vector.8 = type { %class.vector.9 }
%class.vector.9 = type { ptr }
%class.ptr_vector.10 = type { %class.vector.11 }
%class.vector.11 = type { ptr }
%class.id_gen = type { i32, %class.svector.12 }
%class.svector.14 = type { %class.vector.15 }
%class.vector.15 = type { ptr }
%class.svector.16 = type { %class.vector.17 }
%class.vector.17 = type { ptr }
%"struct.sat::drat::stats" = type { i32, i32, i32, i32 }
%class.random_gen = type { i32 }
%"class.sat::cleaner" = type { ptr, i32, i32, i32, i32 }
%"class.sat::model_converter" = type { %class.vector.21, i32, %class.svector.22, ptr, %class.svector.24 }
%class.vector.21 = type { ptr }
%class.svector.24 = type { %class.vector.25 }
%class.vector.25 = type { ptr }
%"class.sat::simplifier" = type { ptr, i32, %"class.sat::use_list", %"class.sat::ext_use_list", %"class.sat::clause_set", %class.svector.30, i32, %class.tracked_uint_set, i8, %"class.sat::tmp_clause", %class.svector.32, i32, i32, i8, i8, i8, i8, i32, i8, i8, i32, i8, i32, i8, i8, i32, i32, i32, i32, i32, i32, i32, i32, i32, i32, i8, i32, i8, i8, i32, i32, i32, i32, i32, i32, i32, i32, i32, i32, i32, i8, i32, %class.ptr_vector.28, %class.svector.34, %class.svector.36, %class.svector.36, %class.svector.34 }
%"class.sat::use_list" = type { %class.vector.26 }
%class.vector.26 = type { ptr }
%"class.sat::ext_use_list" = type { %class.vector.27 }
%class.vector.27 = type { ptr }
%"class.sat::clause_set" = type { %class.svector.12, %class.ptr_vector.28 }
%class.svector.30 = type { %class.vector.31 }
%class.vector.31 = type { ptr }
%class.tracked_uint_set = type { %class.svector.32, %class.svector.12 }
%"class.sat::tmp_clause" = type { ptr }
%"class.sat::scc" = type { ptr, i8, i8, i32, i32, %"class.sat::big" }
%"class.sat::big" = type { ptr, i32, %class.vector.38, %class.svector.22, %class.svector.39, %class.svector.39, %class.svector.34, %class.svector.34, i8, i8, %class.vector.38 }
%class.svector.39 = type { %class.vector.40 }
%class.vector.40 = type { ptr }
%class.vector.38 = type { ptr }
%"class.sat::asymm_branch" = type { ptr, %class.params_ref, i64, %class.random_gen, i32, i32, i8, i32, i32, i8, i8, i64, i32, i32, i32, %class.svector.34, %class.svector.34, %class.svector.41, %class.svector.41, %class.svector.34, %class.svector.34 }
%class.svector.41 = type { %class.vector.42 }
%class.vector.42 = type { ptr }
%"class.sat::probing" = type { ptr, i32, %"class.sat::literal_set", %class.svector.34, i32, i8, i32, i8, i8, i64, i32, %class.vector.43, %class.svector.44, %"class.sat::big" }
%class.vector.43 = type { ptr }
%"class.sat::mus" = type <{ ptr, %class.svector.34, %class.svector.34, i8, [7 x i8], %class.svector.19, i32, [4 x i8] }>
%"class.sat::binspr" = type <{ ptr, %class.scoped_ptr.46, i32, i32, %class.vector.47, i32, i32, %class.svector.22, %class.svector.22, %class.svector.34, %class.svector.34, i32, i32, i32, i32, i32, [4 x i32], [5 x i32], [5 x i32], [4 x i8] }>
%class.vector.47 = type { ptr }
%"class.sat::justification" = type <{ i32, [4 x i8], i64, i32, [4 x i8] }>
%class.ptr_vector.28 = type { %class.vector.29 }
%class.vector.29 = type { ptr }
%class.vector.48 = type { ptr }
%class.svector.19 = type { %class.vector.20 }
%class.vector.20 = type { ptr }
%class.svector.49 = type { %class.vector.50 }
%class.vector.50 = type { ptr }
%class.svector.22 = type { %class.vector.23 }
%class.vector.23 = type { ptr }
%"struct.sat::backoff" = type { i32, i32, i32, i32, i32 }
%class.var_queue = type { %class.heap }
%class.heap = type { %"struct.var_queue<svector<unsigned int>>::lt", %class.svector.39, %class.svector.39 }
%"struct.var_queue<svector<unsigned int>>::lt" = type { ptr }
%class.ema = type { double, double, double, i32, i32 }
%class.svector.36 = type { %class.vector.37 }
%class.vector.37 = type { ptr }
%"class.std::__cxx11::basic_string" = type { %"struct.std::__cxx11::basic_string<char>::_Alloc_hider", i64, %union.anon }
%"struct.std::__cxx11::basic_string<char>::_Alloc_hider" = type { ptr }
%union.anon = type { i64, [8 x i8] }
%class.visit_helper = type { %class.svector.12, i32, i32 }
%class.svector.51 = type { %class.vector.52 }
%class.vector.52 = type { ptr }
%class.scoped_limit_trail = type { %class.svector.12, i32, i32 }
%class.stopwatch = type <{ %"class.std::chrono::time_point", %"class.std::chrono::duration", i8, [7 x i8] }>
%"class.std::chrono::time_point" = type { %"class.std::chrono::duration" }
%"class.std::chrono::duration" = type { i64 }
%"struct.sat::no_drat_params" = type { %class.params_ref }
%class.scoped_ptr.46 = type { ptr }
%"class.sat::literal_set" = type { %class.tracked_uint_set }
%class.svector.32 = type { %class.vector.33 }
%class.vector.33 = type { ptr }
%class.svector.12 = type { %class.vector.13 }
%class.vector.13 = type { ptr }
%class.approx_set_tpl = type { i32 }
%class.vector.18 = type { ptr }
%class.svector.44 = type { %class.vector.45 }
%class.vector.45 = type { ptr }
%class.u_map = type { %class.map }
%class.map = type { %class.table2map }
%class.table2map = type { %class.core_hashtable }
%class.core_hashtable = type <{ ptr, i32, i32, i32, [4 x i8] }>
%class.svector.34 = type { %class.vector.35 }
%class.vector.35 = type { ptr }
%"class.std::basic_ifstream" = type { %"class.std::basic_istream.base", %"class.std::basic_filebuf", %"class.std::basic_ios" }
%"class.std::basic_istream.base" = type { ptr, i64 }
%"class.std::basic_filebuf" = type { %"class.std::basic_streambuf", %union.pthread_mutex_t, %"class.std::__basic_file", i32, %struct.__mbstate_t, %struct.__mbstate_t, %struct.__mbstate_t, ptr, i64, i8, i8, i8, i8, ptr, ptr, i8, ptr, ptr, i64, ptr, ptr }
%"class.std::basic_streambuf" = type { ptr, ptr, ptr, ptr, ptr, ptr, ptr, %"class.std::locale" }
%union.pthread_mutex_t = type { %struct.__pthread_mutex_s }
%struct.__pthread_mutex_s = type { i32, i32, i32, i32, i32, i16, i16, %struct.__pthread_internal_list }
%struct.__pthread_internal_list = type { ptr, ptr }
%"class.std::__basic_file" = type <{ ptr, i8, [7 x i8] }>
%struct.__mbstate_t = type { i32, %union.anon.53 }
%union.anon.53 = type { i32 }
%"class.sat::status" = type { i32, i32, ptr }
%class.ast_manager = type { %class.reslimit, %class.small_object_allocator, %class.family_manager, %class.parray_manager, %class.dependency_manager, %class.parray_manager.63, %class.ptr_vector.66, i32, i8, %class.ast_table, %class.obj_map, %class.id_gen, %class.id_gen, ptr, ptr, ptr, ptr, ptr, i32, i8, [3 x i8], %class.u_map.70, ptr, i8, i8, ptr, %class.symbol, %class.obj_map.75, ptr }
%class.small_object_allocator = type { [32 x ptr], [32 x ptr], i64 }
%class.family_manager = type { i32, %class.symbol_table, %class.svector.57 }
%class.symbol_table = type { %class.core_hashtable.54, %class.vector.56, %class.svector.39 }
%class.core_hashtable.54 = type <{ ptr, i32, i32, i32, [4 x i8] }>
%class.vector.56 = type { ptr }
%class.svector.57 = type { %class.vector.58 }
%class.vector.58 = type { ptr }
%class.parray_manager = type { ptr, ptr, %class.ptr_vector.59, %class.ptr_vector.59 }
%class.ptr_vector.59 = type { %class.vector.60 }
%class.vector.60 = type { ptr }
%class.dependency_manager = type { ptr, ptr, %class.ptr_vector.61 }
%class.ptr_vector.61 = type { %class.vector.62 }
%class.vector.62 = type { ptr }
%class.parray_manager.63 = type { ptr, ptr, %class.ptr_vector.64, %class.ptr_vector.64 }
%class.ptr_vector.64 = type { %class.vector.65 }
%class.vector.65 = type { ptr }
%class.ptr_vector.66 = type { %class.vector.67 }
%class.vector.67 = type { ptr }
%class.ast_table = type { %class.chashtable }
%class.chashtable = type { ptr, i32, i32, i32, i32, i32, i32, i32, ptr, ptr, ptr }
%class.obj_map = type { %class.core_hashtable.68 }
%class.core_hashtable.68 = type <{ ptr, i32, i32, i32, [4 x i8] }>
%class.u_map.70 = type { %class.map.71 }
%class.map.71 = type { %class.table2map.72 }
%class.table2map.72 = type { %class.core_hashtable.73 }
%class.core_hashtable.73 = type <{ ptr, i32, i32, i32, [4 x i8] }>
%class.obj_map.75 = type { %class.core_hashtable.76 }
%class.core_hashtable.76 = type <{ ptr, i32, i32, i32, [4 x i8] }>
%class.sat2goal = type { ptr }
%class.ref.80 = type { ptr }
%class.atom2bool_var = type { %class.expr2var.base, [7 x i8] }
%class.expr2var.base = type <{ ptr, %class.svector.12, %class.svector.81, %class.ptr_vector.83, %class.svector.12, i8 }>
%class.svector.81 = type { %class.vector.82 }
%class.vector.82 = type { ptr }
%class.ptr_vector.83 = type { %class.vector.84 }
%class.vector.84 = type { ptr }
%class.ref.85 = type { ptr }
%class.ref.89 = type { ptr }
%class.labels_vec = type { %class.svector.57 }
%class.obj_ref = type { ptr, ptr }
%class.obj_ref.90 = type { ptr, ptr }
%class.obj_ref.91 = type { ptr, ptr }
%"struct.obj_map<expr, unsigned int>::key_data" = type <{ ptr, i32, [4 x i8] }>
%class.expr2var = type <{ ptr, %class.svector.12, %class.svector.81, %class.ptr_vector.83, %class.svector.12, i8, [7 x i8] }>
%struct.sat_params = type { ptr, %class.params_ref }
%"struct.std::pair" = type { %"class.sat::literal", %"class.sat::literal" }
%"class.sat::clause" = type { i32, i32, i32, %class.approx_set_tpl, i32, [0 x %"class.sat::literal"] }
%"class.std::allocator" = type { i8 }
%"struct.std::pair.113" = type { ptr, ptr }
%class.default_exception = type { %class.z3_exception, %"class.std::__cxx11::basic_string" }
%class.z3_exception = type { ptr }
%"struct.std::pair.115" = type { %"class.std::move_iterator", ptr }
%"class.std::move_iterator" = type { ptr }
%struct._Guard = type { ptr }
%class.ast = type { i32, i24, i32, i32 }
%class.tactic = type <{ %"class.user_propagator::core", i32, [4 x i8] }>
%"class.user_propagator::core" = type { ptr }
%class.converter = type <{ ptr, i32, [4 x i8] }>
%class.goal = type <{ ptr, %class.ref.86, %class.ref.87, %class.ref.88, i32, [4 x i8], %"class.std::__cxx11::basic_string", %"class.parray_manager<ast_manager::expr_array_config>::ref", %"class.parray_manager<ast_manager::expr_array_config>::ref", %"class.parray_manager<ast_manager::expr_dependency_array_config>::ref", i32, [4 x i8] }>
%class.ref.86 = type { ptr }
%class.ref.87 = type { ptr }
%class.ref.88 = type { ptr }
%"class.parray_manager<ast_manager::expr_array_config>::ref" = type <{ ptr, i32, [4 x i8] }>
%"class.parray_manager<ast_manager::expr_dependency_array_config>::ref" = type <{ ptr, i32, [4 x i8] }>
%class.model_core = type { ptr, ptr, i32, [4 x i8], %class.obj_map.92, %class.obj_map.97, %class.ptr_vector.102, %class.ptr_vector.102, %class.ptr_vector.102 }
%class.obj_map.92 = type { %class.core_hashtable.93 }
%class.core_hashtable.93 = type <{ ptr, i32, i32, i32, [4 x i8] }>
%class.obj_map.97 = type { %class.core_hashtable.98 }
%class.core_hashtable.98 = type <{ ptr, i32, i32, i32, [4 x i8] }>
%class.ptr_vector.102 = type { %class.vector.103 }
%class.vector.103 = type { ptr }
%"struct.dependency_manager<ast_manager::expr_dependency_config>::leaf" = type { %"class.dependency_manager<ast_manager::expr_dependency_config>::dependency", ptr }
%"class.dependency_manager<ast_manager::expr_dependency_config>::dependency" = type { i32 }
%"struct.dependency_manager<ast_manager::expr_dependency_config>::join" = type { %"class.dependency_manager<ast_manager::expr_dependency_config>::dependency", [2 x ptr] }

$_ZN3sat7literalC2Ev = comdat any

$_ZN3refI6tacticEC2Ev = comdat any

$_ZN3refI6tacticED2Ev = comdat any

$_ZN10statisticsC2Ev = comdat any

$_ZN10statisticsD2Ev = comdat any

$_ZNK3sat6solver9get_modelEv = comdat any

$_ZNK6vectorI5lboolLb0EjE4sizeEv = comdat any

$_ZN3sat7literalC2Ejb = comdat any

$_ZNK6vectorI5lboolLb0EjEixEj = comdat any

$_ZN3sat7literal3negEv = comdat any

$_ZN3sat6status8assertedEv = comdat any

$_ZN8reslimitD2Ev = comdat any

$_ZN3refIN8sat2goal2mcEEC2Ev = comdat any

$_ZN13atom2bool_varC2ER11ast_manager = comdat any

$_ZNK3sat6solver8num_varsEv = comdat any

$_ZN13atom2bool_var6insertEP4exprj = comdat any

$_ZN11ast_manager8mk_constERK6symbolP4sort = comdat any

$_ZN6symbolC2Ej = comdat any

$_ZNK11ast_manager12mk_bool_sortEv = comdat any

$_ZN3refI4goalEC2EPS0_ = comdat any

$_ZN3refI4goalEdeEv = comdat any

$_ZN3refI6tacticEaSEPS0_ = comdat any

$_ZN3refI5modelEC2Ev = comdat any

$_ZN10labels_vecC2Ev = comdat any

$_ZN7obj_refI3app11ast_managerEC2ERS1_ = comdat any

$_ZN7obj_refIN18dependency_managerIN11ast_manager22expr_dependency_configEE10dependencyES1_EC2ERS1_ = comdat any

$_ZN3refI6tacticEdeEv = comdat any

$_ZNK8expr2var5beginEv = comdat any

$_ZNK8expr2var3endEv = comdat any

$_ZNK11ast_manager7is_trueEPK4expr = comdat any

$_ZN3refI5modelEdeEv = comdat any

$_ZNK7obj_refI4expr11ast_managerEcvPS0_Ev = comdat any

$_ZN7obj_refI4expr11ast_managerED2Ev = comdat any

$_ZN7obj_refIN18dependency_managerIN11ast_manager22expr_dependency_configEE10dependencyES1_ED2Ev = comdat any

$_ZN7obj_refI3app11ast_managerED2Ev = comdat any

$_ZN10labels_vecD2Ev = comdat any

$_ZN3refI5modelED2Ev = comdat any

$_ZN3refI4goalED2Ev = comdat any

$_ZN13atom2bool_varD2Ev = comdat any

$_ZN3refIN8sat2goal2mcEED2Ev = comdat any

$_ZN10sat_paramsC2ERK10params_ref = comdat any

$_ZN6vectorI7svectorIN3sat7literalEjELb1EjEC2Ev = comdat any

$_ZN10params_refC2Ev = comdat any

$_ZN7svectorIN3sat7literalEjEC2Ev = comdat any

$_ZNK6vectorIN3sat7literalELb0EjE4sizeEv = comdat any

$_ZNK6vectorIN3sat7literalELb0EjE4dataEv = comdat any

$_ZN7svectorIN3sat7literalEjED2Ev = comdat any

$_ZN6vectorI7svectorIN3sat7literalEjELb1EjED2Ev = comdat any

$_ZN10sat_paramsD2Ev = comdat any

$_ZN7svectorISt4pairIPKcjEjEC2Ev = comdat any

$_ZN7svectorISt4pairIPKcdEjEC2Ev = comdat any

$_ZN7svectorISt4pairIPKcjEjED2Ev = comdat any

$_ZN6vectorISt4pairIPKcjELb0EjEC2Ev = comdat any

$_ZN6vectorISt4pairIPKcdELb0EjEC2Ev = comdat any

$_ZN6vectorISt4pairIPKcjELb0EjED2Ev = comdat any

$_ZN6vectorISt4pairIPKcjELb0EjE7destroyEv = comdat any

$__clang_call_terminate = comdat any

$_ZN6vectorISt4pairIPKcjELb0EjE11free_memoryEv = comdat any

$_ZN7svectorISt4pairIPKcdEjED2Ev = comdat any

$_ZN6vectorISt4pairIPKcdELb0EjED2Ev = comdat any

$_ZN6vectorISt4pairIPKcdELb0EjE7destroyEv = comdat any

$_ZN6vectorISt4pairIPKcdELb0EjE11free_memoryEv = comdat any

$_ZN3sat6statusC2ENS0_2stEiPKNS_10proof_hintE = comdat any

$_ZN10ptr_vectorI8reslimitED2Ev = comdat any

$_ZN7svectorImjED2Ev = comdat any

$_ZN6vectorIP8reslimitLb0EjED2Ev = comdat any

$_ZN6vectorIP8reslimitLb0EjE7destroyEv = comdat any

$_ZN6vectorIP8reslimitLb0EjE11free_memoryEv = comdat any

$_ZN6vectorImLb0EjED2Ev = comdat any

$_ZN6vectorImLb0EjE7destroyEv = comdat any

$_ZN6vectorImLb0EjE11free_memoryEv = comdat any

$_ZNK6vectorIN3sat13justificationELb0EjE4sizeEv = comdat any

$_ZN11ast_manager8mk_constEP9func_decl = comdat any

$_ZN11ast_manager13mk_const_declERK6symbolP4sort = comdat any

$_ZN11ast_manager12mk_func_declERK6symboljPKP4sortS4_ = comdat any

$_ZN7svectorI6symboljEC2Ev = comdat any

$_ZN6vectorI6symbolLb0EjEC2Ev = comdat any

$_ZNK6vectorIN7obj_mapI4exprjE8key_dataELb0EjE5beginEv = comdat any

$_ZNK6vectorIN7obj_mapI4exprjE8key_dataELb0EjE3endEv = comdat any

$_ZNK6vectorIN7obj_mapI4exprjE8key_dataELb0EjE4sizeEv = comdat any

$_ZNK3refI6tacticEcvbEv = comdat any

$_ZNK3refI6tacticEptEv = comdat any

$_ZN7svectorI6symboljED2Ev = comdat any

$_ZN6vectorI6symbolLb0EjED2Ev = comdat any

$_ZN6vectorI6symbolLb0EjE7destroyEv = comdat any

$_ZN6vectorI6symbolLb0EjE11free_memoryEv = comdat any

$_ZNK3sat6solver13begin_clausesEv = comdat any

$_ZNK3sat6solver11end_clausesEv = comdat any

$_ZN7svectorISt4pairIN3sat7literalES2_EjEC2Ev = comdat any

$_ZN6vectorI7svectorIN3sat7literalEjELb1EjE7reserveEj = comdat any

$_ZNK6vectorISt4pairIN3sat7literalES2_ELb0EjE4sizeEv = comdat any

$_ZNK3sat6solver5valueEj = comdat any

$_ZN6vectorIN3sat7literalELb0EjE5resetEv = comdat any

$_ZN6vectorIN3sat7literalELb0EjE9push_backEOS1_ = comdat any

$_ZN6vectorIN3sat7literalELb0EjE6appendEjPKS1_ = comdat any

$_ZN3sat6clause3endEv = comdat any

$_ZN3sat6clause5beginEv = comdat any

$_ZN6vectorIN3sat7literalELb0EjE9push_backERKS1_ = comdat any

$_ZN6vectorISt4pairIN3sat7literalES2_ELb0EjEixEj = comdat any

$_ZN7svectorISt4pairIN3sat7literalES2_EjED2Ev = comdat any

$_ZNK6vectorIPN3sat6clauseELb0EjE5beginEv = comdat any

$_ZNK6vectorIPN3sat6clauseELb0EjE3endEv = comdat any

$_ZNK6vectorIPN3sat6clauseELb0EjE4sizeEv = comdat any

$_ZN6vectorISt4pairIN3sat7literalES2_ELb0EjEC2Ev = comdat any

$_ZNK6vectorI7svectorIN3sat7literalEjELb1EjE4sizeEv = comdat any

$_ZN6vectorI7svectorIN3sat7literalEjELb1EjE6resizeEj = comdat any

$_ZN6vectorI7svectorIN3sat7literalEjELb1EjE6shrinkEj = comdat any

$_ZNK6vectorI7svectorIN3sat7literalEjELb1EjE8capacityEv = comdat any

$_ZN6vectorI7svectorIN3sat7literalEjELb1EjE13expand_vectorEv = comdat any

$_ZN6vectorI7svectorIN3sat7literalEjELb1EjE3endEv = comdat any

$_ZNSt7__cxx1112basic_stringIcSt11char_traitsIcESaIcEEC2IS3_EEPKcRKS3_ = comdat any

$_ZN17default_exceptionC2EONSt7__cxx1112basic_stringIcSt11char_traitsIcESaIcEEE = comdat any

$_ZN17default_exceptionD2Ev = comdat any

$_ZSt20uninitialized_move_nIP7svectorIN3sat7literalEjEjS4_ESt4pairIT_T1_ES6_T0_S7_ = comdat any

$_ZN6vectorI7svectorIN3sat7literalEjELb1EjE7destroyEv = comdat any

$_ZNSt11char_traitsIcE6lengthEPKc = comdat any

$_ZNSt7__cxx1112basic_stringIcSt11char_traitsIcESaIcEE12_M_constructIPKcEEvT_S8_St20forward_iterator_tag = comdat any

$_ZNSt7__cxx1112basic_stringIcSt11char_traitsIcESaIcEE12_Alloc_hiderD2Ev = comdat any

$_ZSt8distanceIPKcENSt15iterator_traitsIT_E15difference_typeES3_S3_ = comdat any

$_ZZNSt7__cxx1112basic_stringIcSt11char_traitsIcESaIcEE12_M_constructIPKcEEvT_S8_St20forward_iterator_tagEN6_GuardC2EPS4_ = comdat any

$_ZZNSt7__cxx1112basic_stringIcSt11char_traitsIcESaIcEE12_M_constructIPKcEEvT_S8_St20forward_iterator_tagEN6_GuardD2Ev = comdat any

$_ZSt10__distanceIPKcENSt15iterator_traitsIT_E15difference_typeES3_S3_St26random_access_iterator_tag = comdat any

$_ZSt19__iterator_categoryIPKcENSt15iterator_traitsIT_E17iterator_categoryERKS3_ = comdat any

$_ZN12z3_exceptionC2Ev = comdat any

$_ZN12z3_exceptionD2Ev = comdat any

$_ZSt27__uninitialized_copy_n_pairISt13move_iteratorIP7svectorIN3sat7literalEjEEjS5_ESt4pairIT_T1_ES8_T0_S9_ = comdat any

$_ZSt18make_move_iteratorIP7svectorIN3sat7literalEjEESt13move_iteratorIT_ES6_ = comdat any

$_ZNKSt13move_iteratorIP7svectorIN3sat7literalEjEE4baseEv = comdat any

$_ZNSt4pairIP7svectorIN3sat7literalEjES4_EC2IS4_RS4_TnNSt9enable_ifIXaaclsr5_PCCPE22_MoveConstructiblePairIT_T0_EEclsr5_PCCPE30_ImplicitlyMoveConvertiblePairIS9_SA_EEEbE4typeELb1EEEOS9_OSA_ = comdat any

$_ZSt27__uninitialized_copy_n_pairISt13move_iteratorIP7svectorIN3sat7literalEjEEjS5_ESt4pairIT_T1_ES8_T0_S9_St26random_access_iterator_tag = comdat any

$_ZSt19__iterator_categoryISt13move_iteratorIP7svectorIN3sat7literalEjEEENSt15iterator_traitsIT_E17iterator_categoryERKS8_ = comdat any

$_ZSt18uninitialized_copyISt13move_iteratorIP7svectorIN3sat7literalEjEES5_ET0_T_S8_S7_ = comdat any

$_ZNKSt13move_iteratorIP7svectorIN3sat7literalEjEEplEl = comdat any

$_ZSt4nextISt13move_iteratorIP7svectorIN3sat7literalEjEEET_S7_NSt15iterator_traitsIS7_E15difference_typeE = comdat any

$_ZNSt4pairISt13move_iteratorIP7svectorIN3sat7literalEjEES5_EC2IRS6_RS5_TnNSt9enable_ifIXaaclsr5_PCCPE22_MoveConstructiblePairIT_T0_EEclsr5_PCCPE30_ImplicitlyMoveConvertiblePairISC_SD_EEEbE4typeELb1EEEOSC_OSD_ = comdat any

$_ZNSt20__uninitialized_copyILb0EE13__uninit_copyISt13move_iteratorIP7svectorIN3sat7literalEjEES7_EET0_T_SA_S9_ = comdat any

$_ZSt16__do_uninit_copyISt13move_iteratorIP7svectorIN3sat7literalEjEES5_ET0_T_S8_S7_ = comdat any

$_ZStneIP7svectorIN3sat7literalEjEEbRKSt13move_iteratorIT_ES9_ = comdat any

$_ZSt10_ConstructI7svectorIN3sat7literalEjEJS3_EEvPT_DpOT0_ = comdat any

$_ZNKSt13move_iteratorIP7svectorIN3sat7literalEjEEdeEv = comdat any

$_ZNSt13move_iteratorIP7svectorIN3sat7literalEjEEppEv = comdat any

$_ZSt8_DestroyIP7svectorIN3sat7literalEjEEvT_S5_ = comdat any

$_ZSteqIP7svectorIN3sat7literalEjEEbRKSt13move_iteratorIT_ES9_ = comdat any

$_ZN7svectorIN3sat7literalEjEC2EOS2_ = comdat any

$_ZN6vectorIN3sat7literalELb0EjEC2EOS2_ = comdat any

$_ZSt4swapIPN3sat7literalEENSt9enable_ifIXsr6__and_ISt6__not_ISt15__is_tuple_likeIT_EESt21is_move_constructibleIS6_ESt18is_move_assignableIS6_EEE5valueEvE4typeERS6_SF_ = comdat any

$_ZNSt12_Destroy_auxILb0EE9__destroyIP7svectorIN3sat7literalEjEEEvT_S7_ = comdat any

$_ZSt8_DestroyI7svectorIN3sat7literalEjEEvPT_ = comdat any

$_ZNSt13move_iteratorIP7svectorIN3sat7literalEjEEC2ES4_ = comdat any

$_ZSt7advanceISt13move_iteratorIP7svectorIN3sat7literalEjEElEvRT_T0_ = comdat any

$_ZSt9__advanceISt13move_iteratorIP7svectorIN3sat7literalEjEElEvRT_T0_St26random_access_iterator_tag = comdat any

$_ZNSt13move_iteratorIP7svectorIN3sat7literalEjEEmmEv = comdat any

$_ZNSt13move_iteratorIP7svectorIN3sat7literalEjEEpLEl = comdat any

$_ZN6vectorI7svectorIN3sat7literalEjELb1EjE16destroy_elementsEv = comdat any

$_ZN6vectorI7svectorIN3sat7literalEjELb1EjE11free_memoryEv = comdat any

$_ZSt9destroy_nIP7svectorIN3sat7literalEjEjET_S5_T0_ = comdat any

$_ZSt10_Destroy_nIP7svectorIN3sat7literalEjEjET_S5_T0_ = comdat any

$_ZNSt14_Destroy_n_auxILb0EE11__destroy_nIP7svectorIN3sat7literalEjEjEET_S7_T0_ = comdat any

$_ZNK3sat7literal5indexEv = comdat any

$_ZN6vectorIN3sat7literalELb0EjE13expand_vectorEv = comdat any

$_ZN6vectorI7svectorIN3sat7literalEjELb1EjE3setEjRKS3_ = comdat any

$_ZNK3sat7literal3varEv = comdat any

$_ZN3satcoENS_7literalE = comdat any

$_ZN7svectorIN3sat7literalEjEaSERKS2_ = comdat any

$_ZN6vectorIN3sat7literalELb0EjEaSERKS2_ = comdat any

$_ZN6vectorIN3sat7literalELb0EjE7destroyEv = comdat any

$_ZN6vectorIN3sat7literalELb0EjE9copy_coreERKS2_ = comdat any

$_ZN6vectorIN3sat7literalELb0EjE11free_memoryEv = comdat any

$_ZNK6vectorIN3sat7literalELb0EjE8capacityEv = comdat any

$_ZSt18uninitialized_copyIPKN3sat7literalEPS1_ET0_T_S6_S5_ = comdat any

$_ZNK6vectorIN3sat7literalELb0EjE5beginEv = comdat any

$_ZNK6vectorIN3sat7literalELb0EjE3endEv = comdat any

$_ZN6vectorIN3sat7literalELb0EjE5beginEv = comdat any

$_ZNSt20__uninitialized_copyILb0EE13__uninit_copyIPKN3sat7literalEPS3_EET0_T_S8_S7_ = comdat any

$_ZSt16__do_uninit_copyIPKN3sat7literalEPS1_ET0_T_S6_S5_ = comdat any

$_ZSt10_ConstructIN3sat7literalEJRKS1_EEvPT_DpOT0_ = comdat any

$_ZSt8_DestroyIPN3sat7literalEEvT_S3_ = comdat any

$_ZNSt12_Destroy_auxILb1EE9__destroyIPN3sat7literalEEEvT_S5_ = comdat any

$_ZN6vectorISt4pairIN3sat7literalES2_ELb0EjED2Ev = comdat any

$_ZN6vectorISt4pairIN3sat7literalES2_ELb0EjE7destroyEv = comdat any

$_ZN6vectorISt4pairIN3sat7literalES2_ELb0EjE11free_memoryEv = comdat any

$_ZN6vectorIN3sat7literalELb0EjED2Ev = comdat any

$_ZNK3sat6solver8get_coreEv = comdat any

$_ZNK6vectorI7svectorIN3sat7literalEjELb1EjEixEj = comdat any

$_ZNK6vectorIN3sat7literalELb0EjEixEj = comdat any

$_ZN3satlsERSoNS_7literalE = comdat any

$_ZN3sateqERKNS_7literalES2_ = comdat any

$_ZNK3sat7literal4signEv = comdat any

$_ZN6vectorIN3sat7literalELb0EjEC2Ev = comdat any

$_ZN7obj_refI4expr11ast_managerE7dec_refEv = comdat any

$_ZN11ast_manager7dec_refEP3ast = comdat any

$_ZN3ast7dec_refEv = comdat any

$_ZNK3ast13get_ref_countEv = comdat any

$_ZN7obj_refI3app11ast_managerE7dec_refEv = comdat any

$_ZN3refI6tacticE7dec_refEv = comdat any

$_ZN6tactic7dec_refEv = comdat any

$_Z7deallocI6tacticEvPT_ = comdat any

$_ZN3refIN8sat2goal2mcEE7dec_refEv = comdat any

$_ZN9converter7dec_refEv = comdat any

$_Z7deallocI9converterEvPT_ = comdat any

$_ZN3refI4goalE7inc_refEv = comdat any

$_ZN4goal7inc_refEv = comdat any

$_ZN3refI4goalE7dec_refEv = comdat any

$_ZN4goal7dec_refEv = comdat any

$_Z7deallocI4goalEvPT_ = comdat any

$_ZN6tactic7inc_refEv = comdat any

$_ZN3refI5modelE7dec_refEv = comdat any

$_ZN10model_core7dec_refEv = comdat any

$_Z7deallocI10model_coreEvPT_ = comdat any

$_ZN7obj_refIN18dependency_managerIN11ast_manager22expr_dependency_configEE10dependencyES1_E7dec_refEv = comdat any

$_ZN11ast_manager7dec_refEPN18dependency_managerINS_22expr_dependency_configEE10dependencyE = comdat any

$_ZN18dependency_managerIN11ast_manager22expr_dependency_configEE7dec_refEPNS2_10dependencyE = comdat any

$_ZN18dependency_managerIN11ast_manager22expr_dependency_configEE3delEPNS2_10dependencyE = comdat any

$_ZN6vectorIPN18dependency_managerIN11ast_manager22expr_dependency_configEE10dependencyELb0EjE9push_backERKS5_ = comdat any

$_ZNK6vectorIPN18dependency_managerIN11ast_manager22expr_dependency_configEE10dependencyELb0EjE5emptyEv = comdat any

$_ZN6vectorIPN18dependency_managerIN11ast_manager22expr_dependency_configEE10dependencyELb0EjE4backEv = comdat any

$_ZN6vectorIPN18dependency_managerIN11ast_manager22expr_dependency_configEE10dependencyELb0EjE8pop_backEv = comdat any

$_ZNK18dependency_managerIN11ast_manager22expr_dependency_configEE10dependency7is_leafEv = comdat any

$_ZN18dependency_managerIN11ast_manager22expr_dependency_configEE7dec_refERKP4expr = comdat any

$_ZN18dependency_managerIN11ast_manager22expr_dependency_configEE7to_leafEPNS2_10dependencyE = comdat any

$_ZN18dependency_managerIN11ast_manager22expr_dependency_configEE7to_joinEPNS2_10dependencyE = comdat any

$_ZN6vectorIPN18dependency_managerIN11ast_manager22expr_dependency_configEE10dependencyELb0EjE13expand_vectorEv = comdat any

$_ZN6vectorIPN18dependency_managerIN11ast_manager22expr_dependency_configEE10dependencyELb0EjEixEj = comdat any

$_ZNK6vectorIPN18dependency_managerIN11ast_manager22expr_dependency_configEE10dependencyELb0EjE4sizeEv = comdat any

@_ZStL8__ioinit = internal global %"class.std::ios_base::Init" zeroinitializer, align 1
@__dso_handle = external hidden global i8
@_ZN3satL12null_literalE = internal global %"class.sat::literal" zeroinitializer, align 4
@_ZL5g_tac = internal global %class.ref zeroinitializer, align 8
@_ZL4g_st = internal global %class.statistics zeroinitializer, align 8
@.str = private unnamed_addr constant [4 x i8] c"sat\00", align 1
@.str.4 = private unnamed_addr constant [15 x i8] c"produce_models\00", align 1
@_ZSt4cerr = external global %"class.std::basic_ostream", align 8
@.str.5 = private unnamed_addr constant [30 x i8] c"(error \22failed to open file '\00", align 1
@.str.6 = private unnamed_addr constant [4 x i8] c"'\22)\00", align 1
@_ZL8g_solver = internal global ptr null, align 8
@_ZSt4cout = external global %"class.std::basic_ostream", align 8
@.str.7 = private unnamed_addr constant [23 x i8] c"model checking failed\0A\00", align 1
@.str.8 = private unnamed_addr constant [17 x i8] c"model validated\0A\00", align 1
@.str.9 = private unnamed_addr constant [20 x i8] c"inconclusive model\0A\00", align 1
@.str.10 = private unnamed_addr constant [15 x i8] c"model_validate\00", align 1
@g_display_statistics = external global i8, align 1
@_ZL12g_start_time = internal global i64 0, align 8
@.str.11 = private unnamed_addr constant [9 x i8] c"parallel\00", align 1
@.str.12 = private unnamed_addr constant [19 x i8] c"cardinality.solver\00", align 1
@_ZSt3cin = external global %"class.std::basic_istream", align 8
@.str.13 = private unnamed_addr constant [10 x i8] c"drat.file\00", align 1
@_ZN6symbol4nullE = external global %class.symbol, align 8
@.str.14 = private unnamed_addr constant [12 x i8] c"dimacs.core\00", align 1
@.str.15 = private unnamed_addr constant [7 x i8] c"enable\00", align 1
@.str.16 = private unnamed_addr constant [15 x i8] c"s SATISFIABLE\0A\00", align 1
@.str.17 = private unnamed_addr constant [11 x i8] c"s UNKNOWN\0A\00", align 1
@.str.18 = private unnamed_addr constant [17 x i8] c"s UNSATISFIABLE\0A\00", align 1
@.str.19 = private unnamed_addr constant [11 x i8] c"total time\00", align 1
@.str.20 = private unnamed_addr constant [43 x i8] c"Overflow encountered when expanding vector\00", align 1
@_ZTI17default_exception = external constant ptr
@.str.21 = private unnamed_addr constant [50 x i8] c"basic_string: construction from null is not valid\00", align 1
@_ZTV17default_exception = external unnamed_addr constant { [6 x ptr] }, align 8
@_ZTV12z3_exception = external unnamed_addr constant { [6 x ptr] }, align 8
@.str.22 = private unnamed_addr constant [3 x i8] c"v \00", align 1
@.str.23 = private unnamed_addr constant [2 x i8] c"-\00", align 1
@.str.24 = private unnamed_addr constant [2 x i8] c" \00", align 1
@.str.25 = private unnamed_addr constant [3 x i8] c"0\0A\00", align 1
@.str.26 = private unnamed_addr constant [8 x i8] c"v core\0A\00", align 1
@.str.27 = private unnamed_addr constant [2 x i8] c"\0A\00", align 1
@.str.28 = private unnamed_addr constant [5 x i8] c"null\00", align 1
@.str.29 = private unnamed_addr constant [1 x i8] zeroinitializer, align 1
@llvm.global_ctors = appending global [1 x { i32, ptr, ptr }] [{ i32, ptr, ptr } { i32 65535, ptr @_GLOBAL__sub_I_dimacs_frontend.cpp, ptr null }]

; Function Attrs: uwtable
define internal void @__cxx_global_var_init() #0 section ".text.startup" {
entry:
  call void @_ZNSt8ios_base4InitC1Ev(ptr noundef nonnull align 1 dereferenceable(1) @_ZStL8__ioinit)
  %0 = call i32 @__cxa_atexit(ptr @_ZNSt8ios_base4InitD1Ev, ptr @_ZStL8__ioinit, ptr @__dso_handle) #3
  ret void
}

declare void @_ZNSt8ios_base4InitC1Ev(ptr noundef nonnull align 1 dereferenceable(1)) unnamed_addr #1

; Function Attrs: nounwind
declare void @_ZNSt8ios_base4InitD1Ev(ptr noundef nonnull align 1 dereferenceable(1)) unnamed_addr #2

; Function Attrs: nounwind
declare i32 @__cxa_atexit(ptr, ptr, ptr) #3

; Function Attrs: uwtable
define internal void @__cxx_global_var_init.1() #0 section ".text.startup" {
entry:
  call void @_ZN3sat7literalC2Ev(ptr noundef nonnull align 4 dereferenceable(4) @_ZN3satL12null_literalE)
  ret void
}

; Function Attrs: mustprogress nounwind uwtable
define linkonce_odr hidden void @_ZN3sat7literalC2Ev(ptr noundef nonnull align 4 dereferenceable(4) %this) unnamed_addr #4 comdat align 2 {
entry:
  %this.addr = alloca ptr, align 8
  store ptr %this, ptr %this.addr, align 8
  %this1 = load ptr, ptr %this.addr, align 8
  %m_val = getelementptr inbounds %"class.sat::literal", ptr %this1, i32 0, i32 0
  store i32 -2, ptr %m_val, align 4
  ret void
}

; Function Attrs: uwtable
define internal void @__cxx_global_var_init.2() #0 section ".text.startup" {
entry:
  call void @_ZN3refI6tacticEC2Ev(ptr noundef nonnull align 8 dereferenceable(8) @_ZL5g_tac)
  %0 = call i32 @__cxa_atexit(ptr @_ZN3refI6tacticED2Ev, ptr @_ZL5g_tac, ptr @__dso_handle) #3
  ret void
}

; Function Attrs: mustprogress nounwind uwtable
define linkonce_odr hidden void @_ZN3refI6tacticEC2Ev(ptr noundef nonnull align 8 dereferenceable(8) %this) unnamed_addr #4 comdat align 2 {
entry:
  %this.addr = alloca ptr, align 8
  store ptr %this, ptr %this.addr, align 8
  %this1 = load ptr, ptr %this.addr, align 8
  %m_ptr = getelementptr inbounds %class.ref, ptr %this1, i32 0, i32 0
  store ptr null, ptr %m_ptr, align 8
  ret void
}

; Function Attrs: mustprogress nounwind uwtable
define linkonce_odr hidden void @_ZN3refI6tacticED2Ev(ptr noundef nonnull align 8 dereferenceable(8) %this) unnamed_addr #4 comdat align 2 personality ptr @__gxx_personality_v0 {
entry:
  %this.addr = alloca ptr, align 8
  store ptr %this, ptr %this.addr, align 8
  %this1 = load ptr, ptr %this.addr, align 8
  invoke void @_ZN3refI6tacticE7dec_refEv(ptr noundef nonnull align 8 dereferenceable(8) %this1)
          to label %invoke.cont unwind label %terminate.lpad

invoke.cont:                                      ; preds = %entry
  ret void

terminate.lpad:                                   ; preds = %entry
  %0 = landingpad { ptr, i32 }
          catch ptr null
  %1 = extractvalue { ptr, i32 } %0, 0
  call void @__clang_call_terminate(ptr %1) #13
  unreachable
}

; Function Attrs: uwtable
define internal void @__cxx_global_var_init.3() #0 section ".text.startup" {
entry:
  call void @_ZN10statisticsC2Ev(ptr noundef nonnull align 8 dereferenceable(16) @_ZL4g_st)
  %0 = call i32 @__cxa_atexit(ptr @_ZN10statisticsD2Ev, ptr @_ZL4g_st, ptr @__dso_handle) #3
  ret void
}

; Function Attrs: mustprogress uwtable
define linkonce_odr hidden void @_ZN10statisticsC2Ev(ptr noundef nonnull align 8 dereferenceable(16) %this) unnamed_addr #5 comdat align 2 personality ptr @__gxx_personality_v0 {
entry:
  %this.addr = alloca ptr, align 8
  %exn.slot = alloca ptr, align 8
  %ehselector.slot = alloca i32, align 4
  store ptr %this, ptr %this.addr, align 8
  %this1 = load ptr, ptr %this.addr, align 8
  %m_stats = getelementptr inbounds %class.statistics, ptr %this1, i32 0, i32 0
  call void @_ZN7svectorISt4pairIPKcjEjEC2Ev(ptr noundef nonnull align 8 dereferenceable(8) %m_stats)
  %m_d_stats = getelementptr inbounds %class.statistics, ptr %this1, i32 0, i32 1
  invoke void @_ZN7svectorISt4pairIPKcdEjEC2Ev(ptr noundef nonnull align 8 dereferenceable(8) %m_d_stats)
          to label %invoke.cont unwind label %lpad

invoke.cont:                                      ; preds = %entry
  ret void

lpad:                                             ; preds = %entry
  %0 = landingpad { ptr, i32 }
          cleanup
  %1 = extractvalue { ptr, i32 } %0, 0
  store ptr %1, ptr %exn.slot, align 8
  %2 = extractvalue { ptr, i32 } %0, 1
  store i32 %2, ptr %ehselector.slot, align 4
  call void @_ZN7svectorISt4pairIPKcjEjED2Ev(ptr noundef nonnull align 8 dereferenceable(8) %m_stats) #3
  br label %eh.resume

eh.resume:                                        ; preds = %lpad
  %exn = load ptr, ptr %exn.slot, align 8
  %sel = load i32, ptr %ehselector.slot, align 4
  %lpad.val = insertvalue { ptr, i32 } poison, ptr %exn, 0
  %lpad.val2 = insertvalue { ptr, i32 } %lpad.val, i32 %sel, 1
  resume { ptr, i32 } %lpad.val2
}

; Function Attrs: mustprogress nounwind uwtable
define linkonce_odr hidden void @_ZN10statisticsD2Ev(ptr noundef nonnull align 8 dereferenceable(16) %this) unnamed_addr #4 comdat align 2 {
entry:
  %this.addr = alloca ptr, align 8
  store ptr %this, ptr %this.addr, align 8
  %this1 = load ptr, ptr %this.addr, align 8
  %m_d_stats = getelementptr inbounds %class.statistics, ptr %this1, i32 0, i32 1
  call void @_ZN7svectorISt4pairIPKcdEjED2Ev(ptr noundef nonnull align 8 dereferenceable(8) %m_d_stats) #3
  %m_stats = getelementptr inbounds %class.statistics, ptr %this1, i32 0, i32 0
  call void @_ZN7svectorISt4pairIPKcjEjED2Ev(ptr noundef nonnull align 8 dereferenceable(8) %m_stats) #3
  ret void
}

; Function Attrs: mustprogress uwtable
define hidden void @_Z15verify_solutionPKc(ptr noundef %file_name) #5 personality ptr @__gxx_personality_v0 {
entry:
  %file_name.addr = alloca ptr, align 8
  %p = alloca %class.params_ref, align 8
  %exn.slot = alloca ptr, align 8
  %ehselector.slot = alloca i32, align 4
  %limit = alloca %class.reslimit, align 8
  %solver = alloca %"class.sat::solver", align 8
  %in = alloca %"class.std::basic_ifstream", align 8
  %m = alloca ptr, align 8
  %i = alloca i32, align 4
  %lit = alloca %"class.sat::literal", align 4
  %agg.tmp = alloca %"class.sat::status", align 8
  %r = alloca i32, align 4
  store ptr %file_name, ptr %file_name.addr, align 8
  call void @_ZN7gparams10get_moduleEPKc(ptr sret(%class.params_ref) align 8 %p, ptr noundef @.str)
  invoke void @_ZN10params_ref8set_boolEPKcb(ptr noundef nonnull align 8 dereferenceable(8) %p, ptr noundef @.str.4, i1 noundef zeroext true)
          to label %invoke.cont unwind label %lpad

invoke.cont:                                      ; preds = %entry
  invoke void @_ZN8reslimitC1Ev(ptr noundef nonnull align 8 dereferenceable(40) %limit)
          to label %invoke.cont1 unwind label %lpad

invoke.cont1:                                     ; preds = %invoke.cont
  invoke void @_ZN3sat6solverC1ERK10params_refR8reslimit(ptr noundef nonnull align 8 dereferenceable(4408) %solver, ptr noundef nonnull align 8 dereferenceable(8) %p, ptr noundef nonnull align 8 dereferenceable(40) %limit)
          to label %invoke.cont3 unwind label %lpad2

invoke.cont3:                                     ; preds = %invoke.cont1
  %0 = load ptr, ptr %file_name.addr, align 8
  invoke void @_ZNSt14basic_ifstreamIcSt11char_traitsIcEEC1EPKcSt13_Ios_Openmode(ptr noundef nonnull align 8 dereferenceable(256) %in, ptr noundef %0, i32 noundef 8)
          to label %invoke.cont5 unwind label %lpad4

invoke.cont5:                                     ; preds = %invoke.cont3
  %vtable = load ptr, ptr %in, align 8
  %vbase.offset.ptr = getelementptr i8, ptr %vtable, i64 -24
  %vbase.offset = load i64, ptr %vbase.offset.ptr, align 8
  %add.ptr = getelementptr inbounds i8, ptr %in, i64 %vbase.offset
  %call = invoke noundef zeroext i1 @_ZNKSt9basic_iosIcSt11char_traitsIcEE3badEv(ptr noundef nonnull align 8 dereferenceable(264) %add.ptr)
          to label %invoke.cont7 unwind label %lpad6

invoke.cont7:                                     ; preds = %invoke.cont5
  br i1 %call, label %if.then, label %lor.lhs.false

lor.lhs.false:                                    ; preds = %invoke.cont7
  %vtable8 = load ptr, ptr %in, align 8
  %vbase.offset.ptr9 = getelementptr i8, ptr %vtable8, i64 -24
  %vbase.offset10 = load i64, ptr %vbase.offset.ptr9, align 8
  %add.ptr11 = getelementptr inbounds i8, ptr %in, i64 %vbase.offset10
  %call13 = invoke noundef zeroext i1 @_ZNKSt9basic_iosIcSt11char_traitsIcEE4failEv(ptr noundef nonnull align 8 dereferenceable(264) %add.ptr11)
          to label %invoke.cont12 unwind label %lpad6

invoke.cont12:                                    ; preds = %lor.lhs.false
  br i1 %call13, label %if.then, label %if.end

if.then:                                          ; preds = %invoke.cont12, %invoke.cont7
  %call15 = invoke noundef nonnull align 8 dereferenceable(8) ptr @_ZStlsISt11char_traitsIcEERSt13basic_ostreamIcT_ES5_PKc(ptr noundef nonnull align 8 dereferenceable(8) @_ZSt4cerr, ptr noundef @.str.5)
          to label %invoke.cont14 unwind label %lpad6

invoke.cont14:                                    ; preds = %if.then
  %1 = load ptr, ptr %file_name.addr, align 8
  %call17 = invoke noundef nonnull align 8 dereferenceable(8) ptr @_ZStlsISt11char_traitsIcEERSt13basic_ostreamIcT_ES5_PKc(ptr noundef nonnull align 8 dereferenceable(8) %call15, ptr noundef %1)
          to label %invoke.cont16 unwind label %lpad6

invoke.cont16:                                    ; preds = %invoke.cont14
  %call19 = invoke noundef nonnull align 8 dereferenceable(8) ptr @_ZStlsISt11char_traitsIcEERSt13basic_ostreamIcT_ES5_PKc(ptr noundef nonnull align 8 dereferenceable(8) %call17, ptr noundef @.str.6)
          to label %invoke.cont18 unwind label %lpad6

invoke.cont18:                                    ; preds = %invoke.cont16
  %call21 = invoke noundef nonnull align 8 dereferenceable(8) ptr @_ZNSolsEPFRSoS_E(ptr noundef nonnull align 8 dereferenceable(8) %call19, ptr noundef @_ZSt4endlIcSt11char_traitsIcEERSt13basic_ostreamIT_T0_ES6_)
          to label %invoke.cont20 unwind label %lpad6

invoke.cont20:                                    ; preds = %invoke.cont18
  call void @exit(i32 noundef 108) #13
  unreachable

lpad:                                             ; preds = %invoke.cont, %entry
  %2 = landingpad { ptr, i32 }
          cleanup
  %3 = extractvalue { ptr, i32 } %2, 0
  store ptr %3, ptr %exn.slot, align 8
  %4 = extractvalue { ptr, i32 } %2, 1
  store i32 %4, ptr %ehselector.slot, align 4
  br label %ehcleanup49

lpad2:                                            ; preds = %invoke.cont1
  %5 = landingpad { ptr, i32 }
          cleanup
  %6 = extractvalue { ptr, i32 } %5, 0
  store ptr %6, ptr %exn.slot, align 8
  %7 = extractvalue { ptr, i32 } %5, 1
  store i32 %7, ptr %ehselector.slot, align 4
  br label %ehcleanup48

lpad4:                                            ; preds = %invoke.cont3
  %8 = landingpad { ptr, i32 }
          cleanup
  %9 = extractvalue { ptr, i32 } %8, 0
  store ptr %9, ptr %exn.slot, align 8
  %10 = extractvalue { ptr, i32 } %8, 1
  store i32 %10, ptr %ehselector.slot, align 4
  br label %ehcleanup

lpad6:                                            ; preds = %sw.default, %sw.bb42, %sw.bb39, %for.end, %invoke.cont34, %sw.epilog, %sw.bb, %invoke.cont28, %for.body, %for.cond, %invoke.cont22, %if.end, %invoke.cont18, %invoke.cont16, %invoke.cont14, %if.then, %lor.lhs.false, %invoke.cont5
  %11 = landingpad { ptr, i32 }
          cleanup
  %12 = extractvalue { ptr, i32 } %11, 0
  store ptr %12, ptr %exn.slot, align 8
  %13 = extractvalue { ptr, i32 } %11, 1
  store i32 %13, ptr %ehselector.slot, align 4
  call void @_ZNSt14basic_ifstreamIcSt11char_traitsIcEED1Ev(ptr noundef nonnull align 8 dereferenceable(256) %in) #3
  br label %ehcleanup

if.end:                                           ; preds = %invoke.cont12
  %call23 = invoke noundef zeroext i1 @_Z12parse_dimacsRSiRSoRN3sat6solverE(ptr noundef nonnull align 8 dereferenceable(16) %in, ptr noundef nonnull align 8 dereferenceable(8) @_ZSt4cerr, ptr noundef nonnull align 8 dereferenceable(4408) %solver)
          to label %invoke.cont22 unwind label %lpad6

invoke.cont22:                                    ; preds = %if.end
  %14 = load ptr, ptr @_ZL8g_solver, align 8
  %call25 = invoke noundef nonnull align 8 dereferenceable(8) ptr @_ZNK3sat6solver9get_modelEv(ptr noundef nonnull align 8 dereferenceable(4408) %14)
          to label %invoke.cont24 unwind label %lpad6

invoke.cont24:                                    ; preds = %invoke.cont22
  store ptr %call25, ptr %m, align 8
  store i32 1, ptr %i, align 4
  br label %for.cond

for.cond:                                         ; preds = %for.inc, %invoke.cont24
  %15 = load i32, ptr %i, align 4
  %16 = load ptr, ptr %m, align 8
  %call27 = invoke noundef i32 @_ZNK6vectorI5lboolLb0EjE4sizeEv(ptr noundef nonnull align 8 dereferenceable(8) %16)
          to label %invoke.cont26 unwind label %lpad6

invoke.cont26:                                    ; preds = %for.cond
  %cmp = icmp ult i32 %15, %call27
  br i1 %cmp, label %for.body, label %for.end

for.body:                                         ; preds = %invoke.cont26
  %17 = load i32, ptr %i, align 4
  invoke void @_ZN3sat7literalC2Ejb(ptr noundef nonnull align 4 dereferenceable(4) %lit, i32 noundef %17, i1 noundef zeroext false)
          to label %invoke.cont28 unwind label %lpad6

invoke.cont28:                                    ; preds = %for.body
  %18 = load ptr, ptr %m, align 8
  %19 = load i32, ptr %i, align 4
  %call30 = invoke noundef nonnull align 4 dereferenceable(4) ptr @_ZNK6vectorI5lboolLb0EjEixEj(ptr noundef nonnull align 8 dereferenceable(8) %18, i32 noundef %19)
          to label %invoke.cont29 unwind label %lpad6

invoke.cont29:                                    ; preds = %invoke.cont28
  %20 = load i32, ptr %call30, align 4
  switch i32 %20, label %sw.epilog [
    i32 -1, label %sw.bb
    i32 0, label %sw.bb32
    i32 1, label %sw.bb33
  ]

sw.bb:                                            ; preds = %invoke.cont29
  invoke void @_ZN3sat7literal3negEv(ptr noundef nonnull align 4 dereferenceable(4) %lit)
          to label %invoke.cont31 unwind label %lpad6

invoke.cont31:                                    ; preds = %sw.bb
  br label %sw.epilog

sw.bb32:                                          ; preds = %invoke.cont29
  br label %sw.epilog

sw.bb33:                                          ; preds = %invoke.cont29
  br label %sw.epilog

sw.epilog:                                        ; preds = %sw.bb33, %sw.bb32, %invoke.cont31, %invoke.cont29
  invoke void @_ZN3sat6status8assertedEv(ptr sret(%"class.sat::status") align 8 %agg.tmp)
          to label %invoke.cont34 unwind label %lpad6

invoke.cont34:                                    ; preds = %sw.epilog
  %call36 = invoke noundef ptr @_ZN3sat6solver9mk_clauseEjPNS_7literalENS_6statusE(ptr noundef nonnull align 8 dereferenceable(4408) %solver, i32 noundef 1, ptr noundef %lit, ptr noundef %agg.tmp)
          to label %invoke.cont35 unwind label %lpad6

invoke.cont35:                                    ; preds = %invoke.cont34
  br label %for.inc

for.inc:                                          ; preds = %invoke.cont35
  %21 = load i32, ptr %i, align 4
  %inc = add i32 %21, 1
  store i32 %inc, ptr %i, align 4
  br label %for.cond, !llvm.loop !5

for.end:                                          ; preds = %invoke.cont26
  %call38 = invoke noundef i32 @_ZN3sat6solver5checkEjPKNS_7literalE(ptr noundef nonnull align 8 dereferenceable(4408) %solver, i32 noundef 0, ptr noundef null)
          to label %invoke.cont37 unwind label %lpad6

invoke.cont37:                                    ; preds = %for.end
  store i32 %call38, ptr %r, align 4
  %22 = load i32, ptr %r, align 4
  switch i32 %22, label %sw.default [
    i32 -1, label %sw.bb39
    i32 1, label %sw.bb42
  ]

sw.bb39:                                          ; preds = %invoke.cont37
  %call41 = invoke noundef nonnull align 8 dereferenceable(8) ptr @_ZStlsISt11char_traitsIcEERSt13basic_ostreamIcT_ES5_PKc(ptr noundef nonnull align 8 dereferenceable(8) @_ZSt4cout, ptr noundef @.str.7)
          to label %invoke.cont40 unwind label %lpad6

invoke.cont40:                                    ; preds = %sw.bb39
  br label %sw.epilog47

sw.bb42:                                          ; preds = %invoke.cont37
  %call44 = invoke noundef nonnull align 8 dereferenceable(8) ptr @_ZStlsISt11char_traitsIcEERSt13basic_ostreamIcT_ES5_PKc(ptr noundef nonnull align 8 dereferenceable(8) @_ZSt4cout, ptr noundef @.str.8)
          to label %invoke.cont43 unwind label %lpad6

invoke.cont43:                                    ; preds = %sw.bb42
  br label %sw.epilog47

sw.default:                                       ; preds = %invoke.cont37
  %call46 = invoke noundef nonnull align 8 dereferenceable(8) ptr @_ZStlsISt11char_traitsIcEERSt13basic_ostreamIcT_ES5_PKc(ptr noundef nonnull align 8 dereferenceable(8) @_ZSt4cout, ptr noundef @.str.9)
          to label %invoke.cont45 unwind label %lpad6

invoke.cont45:                                    ; preds = %sw.default
  br label %sw.epilog47

sw.epilog47:                                      ; preds = %invoke.cont45, %invoke.cont43, %invoke.cont40
  call void @_ZNSt14basic_ifstreamIcSt11char_traitsIcEED1Ev(ptr noundef nonnull align 8 dereferenceable(256) %in) #3
  call void @_ZN3sat6solverD1Ev(ptr noundef nonnull align 8 dereferenceable(4408) %solver) #3
  call void @_ZN8reslimitD2Ev(ptr noundef nonnull align 8 dereferenceable(40) %limit) #3
  call void @_ZN10params_refD1Ev(ptr noundef nonnull align 8 dereferenceable(8) %p) #3
  ret void

ehcleanup:                                        ; preds = %lpad6, %lpad4
  call void @_ZN3sat6solverD1Ev(ptr noundef nonnull align 8 dereferenceable(4408) %solver) #3
  br label %ehcleanup48

ehcleanup48:                                      ; preds = %ehcleanup, %lpad2
  call void @_ZN8reslimitD2Ev(ptr noundef nonnull align 8 dereferenceable(40) %limit) #3
  br label %ehcleanup49

ehcleanup49:                                      ; preds = %ehcleanup48, %lpad
  call void @_ZN10params_refD1Ev(ptr noundef nonnull align 8 dereferenceable(8) %p) #3
  br label %eh.resume

eh.resume:                                        ; preds = %ehcleanup49
  %exn = load ptr, ptr %exn.slot, align 8
  %sel = load i32, ptr %ehselector.slot, align 4
  %lpad.val = insertvalue { ptr, i32 } poison, ptr %exn, 0
  %lpad.val50 = insertvalue { ptr, i32 } %lpad.val, i32 %sel, 1
  resume { ptr, i32 } %lpad.val50
}

declare void @_ZN7gparams10get_moduleEPKc(ptr sret(%class.params_ref) align 8, ptr noundef) #1

declare void @_ZN10params_ref8set_boolEPKcb(ptr noundef nonnull align 8 dereferenceable(8), ptr noundef, i1 noundef zeroext) #1

declare i32 @__gxx_personality_v0(...)

declare void @_ZN8reslimitC1Ev(ptr noundef nonnull align 8 dereferenceable(40)) unnamed_addr #1

declare void @_ZN3sat6solverC1ERK10params_refR8reslimit(ptr noundef nonnull align 8 dereferenceable(4408), ptr noundef nonnull align 8 dereferenceable(8), ptr noundef nonnull align 8 dereferenceable(40)) unnamed_addr #1

declare void @_ZNSt14basic_ifstreamIcSt11char_traitsIcEEC1EPKcSt13_Ios_Openmode(ptr noundef nonnull align 8 dereferenceable(256), ptr noundef, i32 noundef) unnamed_addr #1

declare noundef zeroext i1 @_ZNKSt9basic_iosIcSt11char_traitsIcEE3badEv(ptr noundef nonnull align 8 dereferenceable(264)) #1

declare noundef zeroext i1 @_ZNKSt9basic_iosIcSt11char_traitsIcEE4failEv(ptr noundef nonnull align 8 dereferenceable(264)) #1

declare noundef nonnull align 8 dereferenceable(8) ptr @_ZStlsISt11char_traitsIcEERSt13basic_ostreamIcT_ES5_PKc(ptr noundef nonnull align 8 dereferenceable(8), ptr noundef) #1

declare noundef nonnull align 8 dereferenceable(8) ptr @_ZNSolsEPFRSoS_E(ptr noundef nonnull align 8 dereferenceable(8), ptr noundef) #1

declare noundef nonnull align 8 dereferenceable(8) ptr @_ZSt4endlIcSt11char_traitsIcEERSt13basic_ostreamIT_T0_ES6_(ptr noundef nonnull align 8 dereferenceable(8)) #1

; Function Attrs: noreturn nounwind
declare void @exit(i32 noundef) #6

declare noundef zeroext i1 @_Z12parse_dimacsRSiRSoRN3sat6solverE(ptr noundef nonnull align 8 dereferenceable(16), ptr noundef nonnull align 8 dereferenceable(8), ptr noundef nonnull align 8 dereferenceable(4408)) #1

; Function Attrs: mustprogress nounwind uwtable
define linkonce_odr hidden noundef nonnull align 8 dereferenceable(8) ptr @_ZNK3sat6solver9get_modelEv(ptr noundef nonnull align 8 dereferenceable(4408) %this) #4 comdat align 2 {
entry:
  %this.addr = alloca ptr, align 8
  store ptr %this, ptr %this.addr, align 8
  %this1 = load ptr, ptr %this.addr, align 8
  %m_model = getelementptr inbounds %"class.sat::solver", ptr %this1, i32 0, i32 13
  ret ptr %m_model
}

; Function Attrs: mustprogress nounwind uwtable
define linkonce_odr hidden noundef i32 @_ZNK6vectorI5lboolLb0EjE4sizeEv(ptr noundef nonnull align 8 dereferenceable(8) %this) #4 comdat align 2 {
entry:
  %retval = alloca i32, align 4
  %this.addr = alloca ptr, align 8
  store ptr %this, ptr %this.addr, align 8
  %this1 = load ptr, ptr %this.addr, align 8
  %m_data = getelementptr inbounds %class.vector.20, ptr %this1, i32 0, i32 0
  %0 = load ptr, ptr %m_data, align 8
  %cmp = icmp eq ptr %0, null
  br i1 %cmp, label %if.then, label %if.end

if.then:                                          ; preds = %entry
  store i32 0, ptr %retval, align 4
  br label %return

if.end:                                           ; preds = %entry
  %m_data2 = getelementptr inbounds %class.vector.20, ptr %this1, i32 0, i32 0
  %1 = load ptr, ptr %m_data2, align 8
  %arrayidx = getelementptr inbounds i32, ptr %1, i64 -1
  %2 = load i32, ptr %arrayidx, align 4
  store i32 %2, ptr %retval, align 4
  br label %return

return:                                           ; preds = %if.end, %if.then
  %3 = load i32, ptr %retval, align 4
  ret i32 %3
}

; Function Attrs: mustprogress nounwind uwtable
define linkonce_odr hidden void @_ZN3sat7literalC2Ejb(ptr noundef nonnull align 4 dereferenceable(4) %this, i32 noundef %v, i1 noundef zeroext %_sign) unnamed_addr #4 comdat align 2 {
entry:
  %this.addr = alloca ptr, align 8
  %v.addr = alloca i32, align 4
  %_sign.addr = alloca i8, align 1
  store ptr %this, ptr %this.addr, align 8
  store i32 %v, ptr %v.addr, align 4
  %frombool = zext i1 %_sign to i8
  store i8 %frombool, ptr %_sign.addr, align 1
  %this1 = load ptr, ptr %this.addr, align 8
  %m_val = getelementptr inbounds %"class.sat::literal", ptr %this1, i32 0, i32 0
  %0 = load i32, ptr %v.addr, align 4
  %shl = shl i32 %0, 1
  %1 = load i8, ptr %_sign.addr, align 1
  %tobool = trunc i8 %1 to i1
  %conv = zext i1 %tobool to i32
  %add = add i32 %shl, %conv
  store i32 %add, ptr %m_val, align 4
  ret void
}

; Function Attrs: mustprogress nounwind uwtable
define linkonce_odr hidden noundef nonnull align 4 dereferenceable(4) ptr @_ZNK6vectorI5lboolLb0EjEixEj(ptr noundef nonnull align 8 dereferenceable(8) %this, i32 noundef %idx) #4 comdat align 2 {
entry:
  %this.addr = alloca ptr, align 8
  %idx.addr = alloca i32, align 4
  store ptr %this, ptr %this.addr, align 8
  store i32 %idx, ptr %idx.addr, align 4
  %this1 = load ptr, ptr %this.addr, align 8
  %m_data = getelementptr inbounds %class.vector.20, ptr %this1, i32 0, i32 0
  %0 = load ptr, ptr %m_data, align 8
  %1 = load i32, ptr %idx.addr, align 4
  %idxprom = zext i32 %1 to i64
  %arrayidx = getelementptr inbounds i32, ptr %0, i64 %idxprom
  ret ptr %arrayidx
}

; Function Attrs: mustprogress nounwind uwtable
define linkonce_odr hidden void @_ZN3sat7literal3negEv(ptr noundef nonnull align 4 dereferenceable(4) %this) #4 comdat align 2 {
entry:
  %this.addr = alloca ptr, align 8
  store ptr %this, ptr %this.addr, align 8
  %this1 = load ptr, ptr %this.addr, align 8
  %m_val = getelementptr inbounds %"class.sat::literal", ptr %this1, i32 0, i32 0
  %0 = load i32, ptr %m_val, align 4
  %xor = xor i32 %0, 1
  %m_val2 = getelementptr inbounds %"class.sat::literal", ptr %this1, i32 0, i32 0
  store i32 %xor, ptr %m_val2, align 4
  ret void
}

declare noundef ptr @_ZN3sat6solver9mk_clauseEjPNS_7literalENS_6statusE(ptr noundef nonnull align 8 dereferenceable(4408), i32 noundef, ptr noundef, ptr noundef) #1

; Function Attrs: mustprogress uwtable
define linkonce_odr hidden void @_ZN3sat6status8assertedEv(ptr noalias sret(%"class.sat::status") align 8 %agg.result) #5 comdat align 2 {
entry:
  %result.ptr = alloca ptr, align 8
  store ptr %agg.result, ptr %result.ptr, align 8
  call void @_ZN3sat6statusC2ENS0_2stEiPKNS_10proof_hintE(ptr noundef nonnull align 8 dereferenceable(16) %agg.result, i32 noundef 1, i32 noundef -1, ptr noundef null)
  ret void
}

declare noundef i32 @_ZN3sat6solver5checkEjPKNS_7literalE(ptr noundef nonnull align 8 dereferenceable(4408), i32 noundef, ptr noundef) #1

; Function Attrs: nounwind
declare void @_ZNSt14basic_ifstreamIcSt11char_traitsIcEED1Ev(ptr noundef nonnull align 8 dereferenceable(256)) unnamed_addr #2

; Function Attrs: nounwind
declare void @_ZN3sat6solverD1Ev(ptr noundef nonnull align 8 dereferenceable(4408)) unnamed_addr #2

; Function Attrs: mustprogress nounwind uwtable
define linkonce_odr hidden void @_ZN8reslimitD2Ev(ptr noundef nonnull align 8 dereferenceable(40) %this) unnamed_addr #4 comdat align 2 {
entry:
  %this.addr = alloca ptr, align 8
  store ptr %this, ptr %this.addr, align 8
  %this1 = load ptr, ptr %this.addr, align 8
  %m_children = getelementptr inbounds %class.reslimit, ptr %this1, i32 0, i32 5
  call void @_ZN10ptr_vectorI8reslimitED2Ev(ptr noundef nonnull align 8 dereferenceable(8) %m_children) #3
  %m_limits = getelementptr inbounds %class.reslimit, ptr %this1, i32 0, i32 4
  call void @_ZN7svectorImjED2Ev(ptr noundef nonnull align 8 dereferenceable(8) %m_limits) #3
  ret void
}

; Function Attrs: nounwind
declare void @_ZN10params_refD1Ev(ptr noundef nonnull align 8 dereferenceable(8)) unnamed_addr #2

; Function Attrs: mustprogress uwtable
define hidden noundef i32 @_Z14solve_parallelRN3sat6solverE(ptr noundef nonnull align 8 dereferenceable(4408) %s) #5 personality ptr @__gxx_personality_v0 {
entry:
  %s.addr = alloca ptr, align 8
  %p = alloca %class.params_ref, align 8
  %m = alloca %class.ast_manager, align 8
  %exn.slot = alloca ptr, align 8
  %ehselector.slot = alloca i32, align 4
  %s2g = alloca %class.sat2goal, align 8
  %mc = alloca %class.ref.80, align 8
  %a2b = alloca %class.atom2bool_var, align 8
  %v = alloca i32, align 4
  %ref.tmp = alloca %class.symbol, align 8
  %g = alloca %class.ref.85, align 8
  %reason_unknown = alloca %"class.std::__cxx11::basic_string", align 8
  %md = alloca %class.ref.89, align 8
  %labels = alloca %class.labels_vec, align 8
  %pr = alloca %class.obj_ref, align 8
  %core = alloca %class.obj_ref.90, align 8
  %r = alloca i32, align 4
  %__range3 = alloca ptr, align 8
  %__begin3 = alloca ptr, align 8
  %__end3 = alloca ptr, align 8
  %kv = alloca ptr, align 8
  %lit = alloca %"class.sat::literal", align 4
  %is_true = alloca i8, align 1
  %ref.tmp52 = alloca %class.obj_ref.91, align 8
  %ref.tmp61 = alloca %"class.sat::literal", align 4
  %agg.tmp = alloca %"class.sat::status", align 8
  store ptr %s, ptr %s.addr, align 8
  call void @_ZN7gparams10get_moduleEPKc(ptr sret(%class.params_ref) align 8 %p, ptr noundef @.str)
  invoke void @_ZN11ast_managerC1E14proof_gen_modePKcb(ptr noundef nonnull align 8 dereferenceable(976) %m, i32 noundef 0, ptr noundef null, i1 noundef zeroext false)
          to label %invoke.cont unwind label %lpad

invoke.cont:                                      ; preds = %entry
  invoke void @_Z16reg_decl_pluginsR11ast_manager(ptr noundef nonnull align 8 dereferenceable(976) %m)
          to label %invoke.cont2 unwind label %lpad1

invoke.cont2:                                     ; preds = %invoke.cont
  invoke void @_ZN8sat2goalC1Ev(ptr noundef nonnull align 8 dereferenceable(8) %s2g)
          to label %invoke.cont3 unwind label %lpad1

invoke.cont3:                                     ; preds = %invoke.cont2
  invoke void @_ZN3refIN8sat2goal2mcEEC2Ev(ptr noundef nonnull align 8 dereferenceable(8) %mc)
          to label %invoke.cont4 unwind label %lpad1

invoke.cont4:                                     ; preds = %invoke.cont3
  invoke void @_ZN13atom2bool_varC2ER11ast_manager(ptr noundef nonnull align 8 dereferenceable(41) %a2b, ptr noundef nonnull align 8 dereferenceable(976) %m)
          to label %invoke.cont6 unwind label %lpad5

invoke.cont6:                                     ; preds = %invoke.cont4
  store i32 0, ptr %v, align 4
  br label %for.cond

for.cond:                                         ; preds = %for.inc, %invoke.cont6
  %0 = load i32, ptr %v, align 4
  %1 = load ptr, ptr %s.addr, align 8
  %call = invoke noundef i32 @_ZNK3sat6solver8num_varsEv(ptr noundef nonnull align 8 dereferenceable(4408) %1)
          to label %invoke.cont8 unwind label %lpad7

invoke.cont8:                                     ; preds = %for.cond
  %cmp = icmp ult i32 %0, %call
  br i1 %cmp, label %for.body, label %for.end

for.body:                                         ; preds = %invoke.cont8
  %2 = load i32, ptr %v, align 4
  invoke void @_ZN6symbolC2Ej(ptr noundef nonnull align 8 dereferenceable(8) %ref.tmp, i32 noundef %2)
          to label %invoke.cont9 unwind label %lpad7

invoke.cont9:                                     ; preds = %for.body
  %call11 = invoke noundef ptr @_ZNK11ast_manager12mk_bool_sortEv(ptr noundef nonnull align 8 dereferenceable(976) %m)
          to label %invoke.cont10 unwind label %lpad7

invoke.cont10:                                    ; preds = %invoke.cont9
  %call13 = invoke noundef ptr @_ZN11ast_manager8mk_constERK6symbolP4sort(ptr noundef nonnull align 8 dereferenceable(976) %m, ptr noundef nonnull align 8 dereferenceable(8) %ref.tmp, ptr noundef %call11)
          to label %invoke.cont12 unwind label %lpad7

invoke.cont12:                                    ; preds = %invoke.cont10
  %3 = load i32, ptr %v, align 4
  invoke void @_ZN13atom2bool_var6insertEP4exprj(ptr noundef nonnull align 8 dereferenceable(41) %a2b, ptr noundef %call13, i32 noundef %3)
          to label %invoke.cont14 unwind label %lpad7

invoke.cont14:                                    ; preds = %invoke.cont12
  br label %for.inc

for.inc:                                          ; preds = %invoke.cont14
  %4 = load i32, ptr %v, align 4
  %inc = add i32 %4, 1
  store i32 %inc, ptr %v, align 4
  br label %for.cond, !llvm.loop !7

lpad:                                             ; preds = %entry
  %5 = landingpad { ptr, i32 }
          cleanup
  %6 = extractvalue { ptr, i32 } %5, 0
  store ptr %6, ptr %exn.slot, align 8
  %7 = extractvalue { ptr, i32 } %5, 1
  store i32 %7, ptr %ehselector.slot, align 4
  br label %ehcleanup80

lpad1:                                            ; preds = %invoke.cont3, %invoke.cont2, %invoke.cont
  %8 = landingpad { ptr, i32 }
          cleanup
  %9 = extractvalue { ptr, i32 } %8, 0
  store ptr %9, ptr %exn.slot, align 8
  %10 = extractvalue { ptr, i32 } %8, 1
  store i32 %10, ptr %ehselector.slot, align 4
  br label %ehcleanup79

lpad5:                                            ; preds = %invoke.cont4
  %11 = landingpad { ptr, i32 }
          cleanup
  %12 = extractvalue { ptr, i32 } %11, 0
  store ptr %12, ptr %exn.slot, align 8
  %13 = extractvalue { ptr, i32 } %11, 1
  store i32 %13, ptr %ehselector.slot, align 4
  br label %ehcleanup78

lpad7:                                            ; preds = %invoke.cont17, %invoke.cont15, %for.end, %invoke.cont12, %invoke.cont10, %invoke.cont9, %for.body, %for.cond
  %14 = landingpad { ptr, i32 }
          cleanup
  %15 = extractvalue { ptr, i32 } %14, 0
  store ptr %15, ptr %exn.slot, align 8
  %16 = extractvalue { ptr, i32 } %14, 1
  store i32 %16, ptr %ehselector.slot, align 4
  br label %ehcleanup77

for.end:                                          ; preds = %invoke.cont8
  %call16 = invoke noalias noundef ptr @_ZN6memory8allocateEm(i64 noundef 128)
          to label %invoke.cont15 unwind label %lpad7

invoke.cont15:                                    ; preds = %for.end
  invoke void @_ZN4goalC1ER11ast_managerbb(ptr noundef nonnull align 8 dereferenceable(124) %call16, ptr noundef nonnull align 8 dereferenceable(976) %m, i1 noundef zeroext true, i1 noundef zeroext false)
          to label %invoke.cont17 unwind label %lpad7

invoke.cont17:                                    ; preds = %invoke.cont15
  invoke void @_ZN3refI4goalEC2EPS0_(ptr noundef nonnull align 8 dereferenceable(8) %g, ptr noundef %call16)
          to label %invoke.cont18 unwind label %lpad7

invoke.cont18:                                    ; preds = %invoke.cont17
  %17 = load ptr, ptr %s.addr, align 8
  %call21 = invoke noundef nonnull align 8 dereferenceable(124) ptr @_ZN3refI4goalEdeEv(ptr noundef nonnull align 8 dereferenceable(8) %g)
          to label %invoke.cont20 unwind label %lpad19

invoke.cont20:                                    ; preds = %invoke.cont18
  invoke void @_ZN8sat2goalclERN3sat6solverERK13atom2bool_varRK10params_refR4goalR3refINS_2mcEE(ptr noundef nonnull align 8 dereferenceable(8) %s2g, ptr noundef nonnull align 8 dereferenceable(4408) %17, ptr noundef nonnull align 8 dereferenceable(41) %a2b, ptr noundef nonnull align 8 dereferenceable(8) %p, ptr noundef nonnull align 8 dereferenceable(124) %call21, ptr noundef nonnull align 8 dereferenceable(8) %mc)
          to label %invoke.cont22 unwind label %lpad19

invoke.cont22:                                    ; preds = %invoke.cont20
  %call24 = invoke noundef ptr @_Z23mk_parallel_qffd_tacticR11ast_managerRK10params_ref(ptr noundef nonnull align 8 dereferenceable(976) %m, ptr noundef nonnull align 8 dereferenceable(8) %p)
          to label %invoke.cont23 unwind label %lpad19

invoke.cont23:                                    ; preds = %invoke.cont22
  %call26 = invoke noundef nonnull align 8 dereferenceable(8) ptr @_ZN3refI6tacticEaSEPS0_(ptr noundef nonnull align 8 dereferenceable(8) @_ZL5g_tac, ptr noundef %call24)
          to label %invoke.cont25 unwind label %lpad19

invoke.cont25:                                    ; preds = %invoke.cont23
  call void @_ZNSt7__cxx1112basic_stringIcSt11char_traitsIcESaIcEEC1Ev(ptr noundef nonnull align 8 dereferenceable(32) %reason_unknown) #3
  invoke void @_ZN3refI5modelEC2Ev(ptr noundef nonnull align 8 dereferenceable(8) %md)
          to label %invoke.cont28 unwind label %lpad27

invoke.cont28:                                    ; preds = %invoke.cont25
  invoke void @_ZN10labels_vecC2Ev(ptr noundef nonnull align 8 dereferenceable(8) %labels)
          to label %invoke.cont30 unwind label %lpad29

invoke.cont30:                                    ; preds = %invoke.cont28
  invoke void @_ZN7obj_refI3app11ast_managerEC2ERS1_(ptr noundef nonnull align 8 dereferenceable(16) %pr, ptr noundef nonnull align 8 dereferenceable(976) %m)
          to label %invoke.cont32 unwind label %lpad31

invoke.cont32:                                    ; preds = %invoke.cont30
  invoke void @_ZN7obj_refIN18dependency_managerIN11ast_manager22expr_dependency_configEE10dependencyES1_EC2ERS1_(ptr noundef nonnull align 8 dereferenceable(16) %core, ptr noundef nonnull align 8 dereferenceable(976) %m)
          to label %invoke.cont34 unwind label %lpad33

invoke.cont34:                                    ; preds = %invoke.cont32
  %call37 = invoke noundef nonnull align 8 dereferenceable(12) ptr @_ZN3refI6tacticEdeEv(ptr noundef nonnull align 8 dereferenceable(8) @_ZL5g_tac)
          to label %invoke.cont36 unwind label %lpad35

invoke.cont36:                                    ; preds = %invoke.cont34
  %call39 = invoke noundef i32 @_Z9check_satR6tacticR3refI4goalERS1_I5modelER10labels_vecR7obj_refI3app11ast_managerERSA_IN18dependency_managerINSC_22expr_dependency_configEE10dependencyESC_ERNSt7__cxx1112basic_stringIcSt11char_traitsIcESaIcEEE(ptr noundef nonnull align 8 dereferenceable(12) %call37, ptr noundef nonnull align 8 dereferenceable(8) %g, ptr noundef nonnull align 8 dereferenceable(8) %md, ptr noundef nonnull align 8 dereferenceable(8) %labels, ptr noundef nonnull align 8 dereferenceable(16) %pr, ptr noundef nonnull align 8 dereferenceable(16) %core, ptr noundef nonnull align 8 dereferenceable(32) %reason_unknown)
          to label %invoke.cont38 unwind label %lpad35

invoke.cont38:                                    ; preds = %invoke.cont36
  store i32 %call39, ptr %r, align 4
  %18 = load i32, ptr %r, align 4
  switch i32 %18, label %sw.default [
    i32 1, label %sw.bb
    i32 -1, label %sw.bb68
  ]

lpad19:                                           ; preds = %invoke.cont23, %invoke.cont22, %invoke.cont20, %invoke.cont18
  %19 = landingpad { ptr, i32 }
          cleanup
  %20 = extractvalue { ptr, i32 } %19, 0
  store ptr %20, ptr %exn.slot, align 8
  %21 = extractvalue { ptr, i32 } %19, 1
  store i32 %21, ptr %ehselector.slot, align 4
  br label %ehcleanup76

lpad27:                                           ; preds = %invoke.cont25
  %22 = landingpad { ptr, i32 }
          cleanup
  %23 = extractvalue { ptr, i32 } %22, 0
  store ptr %23, ptr %exn.slot, align 8
  %24 = extractvalue { ptr, i32 } %22, 1
  store i32 %24, ptr %ehselector.slot, align 4
  br label %ehcleanup75

lpad29:                                           ; preds = %invoke.cont28
  %25 = landingpad { ptr, i32 }
          cleanup
  %26 = extractvalue { ptr, i32 } %25, 0
  store ptr %26, ptr %exn.slot, align 8
  %27 = extractvalue { ptr, i32 } %25, 1
  store i32 %27, ptr %ehselector.slot, align 4
  br label %ehcleanup74

lpad31:                                           ; preds = %invoke.cont30
  %28 = landingpad { ptr, i32 }
          cleanup
  %29 = extractvalue { ptr, i32 } %28, 0
  store ptr %29, ptr %exn.slot, align 8
  %30 = extractvalue { ptr, i32 } %28, 1
  store i32 %30, ptr %ehselector.slot, align 4
  br label %ehcleanup73

lpad33:                                           ; preds = %invoke.cont32
  %31 = landingpad { ptr, i32 }
          cleanup
  %32 = extractvalue { ptr, i32 } %31, 0
  store ptr %32, ptr %exn.slot, align 8
  %33 = extractvalue { ptr, i32 } %31, 1
  store i32 %33, ptr %ehselector.slot, align 4
  br label %ehcleanup72

lpad35:                                           ; preds = %invoke.cont69, %sw.epilog, %invoke.cont63, %invoke.cont62, %invoke.cont59, %invoke.cont53, %invoke.cont51, %for.body50, %invoke.cont44, %if.then, %invoke.cont40, %sw.bb, %invoke.cont36, %invoke.cont34
  %34 = landingpad { ptr, i32 }
          cleanup
  %35 = extractvalue { ptr, i32 } %34, 0
  store ptr %35, ptr %exn.slot, align 8
  %36 = extractvalue { ptr, i32 } %34, 1
  store i32 %36, ptr %ehselector.slot, align 4
  br label %ehcleanup

sw.bb:                                            ; preds = %invoke.cont38
  %call41 = invoke noundef nonnull align 8 dereferenceable(8) ptr @_ZN7gparams7get_refEv()
          to label %invoke.cont40 unwind label %lpad35

invoke.cont40:                                    ; preds = %sw.bb
  %call43 = invoke noundef zeroext i1 @_ZNK10params_ref8get_boolEPKcb(ptr noundef nonnull align 8 dereferenceable(8) %call41, ptr noundef @.str.10, i1 noundef zeroext false)
          to label %invoke.cont42 unwind label %lpad35

invoke.cont42:                                    ; preds = %invoke.cont40
  br i1 %call43, label %if.then, label %if.end

if.then:                                          ; preds = %invoke.cont42
  store ptr %a2b, ptr %__range3, align 8
  %37 = load ptr, ptr %__range3, align 8
  %call45 = invoke noundef ptr @_ZNK8expr2var5beginEv(ptr noundef nonnull align 8 dereferenceable(41) %37)
          to label %invoke.cont44 unwind label %lpad35

invoke.cont44:                                    ; preds = %if.then
  store ptr %call45, ptr %__begin3, align 8
  %38 = load ptr, ptr %__range3, align 8
  %call47 = invoke noundef ptr @_ZNK8expr2var3endEv(ptr noundef nonnull align 8 dereferenceable(41) %38)
          to label %invoke.cont46 unwind label %lpad35

invoke.cont46:                                    ; preds = %invoke.cont44
  store ptr %call47, ptr %__end3, align 8
  br label %for.cond48

for.cond48:                                       ; preds = %for.inc66, %invoke.cont46
  %39 = load ptr, ptr %__begin3, align 8
  %40 = load ptr, ptr %__end3, align 8
  %cmp49 = icmp ne ptr %39, %40
  br i1 %cmp49, label %for.body50, label %for.end67

for.body50:                                       ; preds = %for.cond48
  %41 = load ptr, ptr %__begin3, align 8
  store ptr %41, ptr %kv, align 8
  invoke void @_ZN3sat7literalC2Ev(ptr noundef nonnull align 4 dereferenceable(4) %lit)
          to label %invoke.cont51 unwind label %lpad35

invoke.cont51:                                    ; preds = %for.body50
  %call54 = invoke noundef nonnull align 8 dereferenceable(160) ptr @_ZN3refI5modelEdeEv(ptr noundef nonnull align 8 dereferenceable(8) %md)
          to label %invoke.cont53 unwind label %lpad35

invoke.cont53:                                    ; preds = %invoke.cont51
  %42 = load ptr, ptr %kv, align 8
  %m_key = getelementptr inbounds %"struct.obj_map<expr, unsigned int>::key_data", ptr %42, i32 0, i32 0
  %43 = load ptr, ptr %m_key, align 8
  invoke void @_ZN5modelclEP4expr(ptr sret(%class.obj_ref.91) align 8 %ref.tmp52, ptr noundef nonnull align 8 dereferenceable(160) %call54, ptr noundef %43)
          to label %invoke.cont55 unwind label %lpad35

invoke.cont55:                                    ; preds = %invoke.cont53
  %call58 = invoke noundef ptr @_ZNK7obj_refI4expr11ast_managerEcvPS0_Ev(ptr noundef nonnull align 8 dereferenceable(16) %ref.tmp52)
          to label %invoke.cont57 unwind label %lpad56

invoke.cont57:                                    ; preds = %invoke.cont55
  %call60 = invoke noundef zeroext i1 @_ZNK11ast_manager7is_trueEPK4expr(ptr noundef nonnull align 8 dereferenceable(976) %m, ptr noundef %call58)
          to label %invoke.cont59 unwind label %lpad56

invoke.cont59:                                    ; preds = %invoke.cont57
  call void @_ZN7obj_refI4expr11ast_managerED2Ev(ptr noundef nonnull align 8 dereferenceable(16) %ref.tmp52) #3
  %frombool = zext i1 %call60 to i8
  store i8 %frombool, ptr %is_true, align 1
  %44 = load ptr, ptr %kv, align 8
  %m_value = getelementptr inbounds %"struct.obj_map<expr, unsigned int>::key_data", ptr %44, i32 0, i32 1
  %45 = load i32, ptr %m_value, align 8
  %46 = load i8, ptr %is_true, align 1
  %tobool = trunc i8 %46 to i1
  %lnot = xor i1 %tobool, true
  invoke void @_ZN3sat7literalC2Ejb(ptr noundef nonnull align 4 dereferenceable(4) %ref.tmp61, i32 noundef %45, i1 noundef zeroext %lnot)
          to label %invoke.cont62 unwind label %lpad35

invoke.cont62:                                    ; preds = %invoke.cont59
  call void @llvm.memcpy.p0.p0.i64(ptr align 4 %lit, ptr align 4 %ref.tmp61, i64 4, i1 false)
  %47 = load ptr, ptr %s.addr, align 8
  invoke void @_ZN3sat6status8assertedEv(ptr sret(%"class.sat::status") align 8 %agg.tmp)
          to label %invoke.cont63 unwind label %lpad35

invoke.cont63:                                    ; preds = %invoke.cont62
  %call65 = invoke noundef ptr @_ZN3sat6solver9mk_clauseEjPNS_7literalENS_6statusE(ptr noundef nonnull align 8 dereferenceable(4408) %47, i32 noundef 1, ptr noundef %lit, ptr noundef %agg.tmp)
          to label %invoke.cont64 unwind label %lpad35

invoke.cont64:                                    ; preds = %invoke.cont63
  br label %for.inc66

for.inc66:                                        ; preds = %invoke.cont64
  %48 = load ptr, ptr %__begin3, align 8
  %incdec.ptr = getelementptr inbounds %"struct.obj_map<expr, unsigned int>::key_data", ptr %48, i32 1
  store ptr %incdec.ptr, ptr %__begin3, align 8
  br label %for.cond48

lpad56:                                           ; preds = %invoke.cont57, %invoke.cont55
  %49 = landingpad { ptr, i32 }
          cleanup
  %50 = extractvalue { ptr, i32 } %49, 0
  store ptr %50, ptr %exn.slot, align 8
  %51 = extractvalue { ptr, i32 } %49, 1
  store i32 %51, ptr %ehselector.slot, align 4
  call void @_ZN7obj_refI4expr11ast_managerED2Ev(ptr noundef nonnull align 8 dereferenceable(16) %ref.tmp52) #3
  br label %ehcleanup

for.end67:                                        ; preds = %for.cond48
  br label %if.end

if.end:                                           ; preds = %for.end67, %invoke.cont42
  br label %sw.epilog

sw.bb68:                                          ; preds = %invoke.cont38
  br label %sw.epilog

sw.default:                                       ; preds = %invoke.cont38
  br label %sw.epilog

sw.epilog:                                        ; preds = %sw.default, %sw.bb68, %if.end
  invoke void @_ZL18display_statisticsv()
          to label %invoke.cont69 unwind label %lpad35

invoke.cont69:                                    ; preds = %sw.epilog
  store i8 0, ptr @g_display_statistics, align 1
  %call71 = invoke noundef nonnull align 8 dereferenceable(8) ptr @_ZN3refI6tacticEaSEPS0_(ptr noundef nonnull align 8 dereferenceable(8) @_ZL5g_tac, ptr noundef null)
          to label %invoke.cont70 unwind label %lpad35

invoke.cont70:                                    ; preds = %invoke.cont69
  %52 = load i32, ptr %r, align 4
  call void @_ZN7obj_refIN18dependency_managerIN11ast_manager22expr_dependency_configEE10dependencyES1_ED2Ev(ptr noundef nonnull align 8 dereferenceable(16) %core) #3
  call void @_ZN7obj_refI3app11ast_managerED2Ev(ptr noundef nonnull align 8 dereferenceable(16) %pr) #3
  call void @_ZN10labels_vecD2Ev(ptr noundef nonnull align 8 dereferenceable(8) %labels) #3
  call void @_ZN3refI5modelED2Ev(ptr noundef nonnull align 8 dereferenceable(8) %md) #3
  call void @_ZNSt7__cxx1112basic_stringIcSt11char_traitsIcESaIcEED1Ev(ptr noundef nonnull align 8 dereferenceable(32) %reason_unknown) #3
  call void @_ZN3refI4goalED2Ev(ptr noundef nonnull align 8 dereferenceable(8) %g) #3
  call void @_ZN13atom2bool_varD2Ev(ptr noundef nonnull align 8 dereferenceable(41) %a2b) #3
  call void @_ZN3refIN8sat2goal2mcEED2Ev(ptr noundef nonnull align 8 dereferenceable(8) %mc) #3
  call void @_ZN11ast_managerD1Ev(ptr noundef nonnull align 8 dereferenceable(976) %m) #3
  call void @_ZN10params_refD1Ev(ptr noundef nonnull align 8 dereferenceable(8) %p) #3
  ret i32 %52

ehcleanup:                                        ; preds = %lpad56, %lpad35
  call void @_ZN7obj_refIN18dependency_managerIN11ast_manager22expr_dependency_configEE10dependencyES1_ED2Ev(ptr noundef nonnull align 8 dereferenceable(16) %core) #3
  br label %ehcleanup72

ehcleanup72:                                      ; preds = %ehcleanup, %lpad33
  call void @_ZN7obj_refI3app11ast_managerED2Ev(ptr noundef nonnull align 8 dereferenceable(16) %pr) #3
  br label %ehcleanup73

ehcleanup73:                                      ; preds = %ehcleanup72, %lpad31
  call void @_ZN10labels_vecD2Ev(ptr noundef nonnull align 8 dereferenceable(8) %labels) #3
  br label %ehcleanup74

ehcleanup74:                                      ; preds = %ehcleanup73, %lpad29
  call void @_ZN3refI5modelED2Ev(ptr noundef nonnull align 8 dereferenceable(8) %md) #3
  br label %ehcleanup75

ehcleanup75:                                      ; preds = %ehcleanup74, %lpad27
  call void @_ZNSt7__cxx1112basic_stringIcSt11char_traitsIcESaIcEED1Ev(ptr noundef nonnull align 8 dereferenceable(32) %reason_unknown) #3
  br label %ehcleanup76

ehcleanup76:                                      ; preds = %ehcleanup75, %lpad19
  call void @_ZN3refI4goalED2Ev(ptr noundef nonnull align 8 dereferenceable(8) %g) #3
  br label %ehcleanup77

ehcleanup77:                                      ; preds = %ehcleanup76, %lpad7
  call void @_ZN13atom2bool_varD2Ev(ptr noundef nonnull align 8 dereferenceable(41) %a2b) #3
  br label %ehcleanup78

ehcleanup78:                                      ; preds = %ehcleanup77, %lpad5
  call void @_ZN3refIN8sat2goal2mcEED2Ev(ptr noundef nonnull align 8 dereferenceable(8) %mc) #3
  br label %ehcleanup79

ehcleanup79:                                      ; preds = %ehcleanup78, %lpad1
  call void @_ZN11ast_managerD1Ev(ptr noundef nonnull align 8 dereferenceable(976) %m) #3
  br label %ehcleanup80

ehcleanup80:                                      ; preds = %ehcleanup79, %lpad
  call void @_ZN10params_refD1Ev(ptr noundef nonnull align 8 dereferenceable(8) %p) #3
  br label %eh.resume

eh.resume:                                        ; preds = %ehcleanup80
  %exn = load ptr, ptr %exn.slot, align 8
  %sel = load i32, ptr %ehselector.slot, align 4
  %lpad.val = insertvalue { ptr, i32 } poison, ptr %exn, 0
  %lpad.val81 = insertvalue { ptr, i32 } %lpad.val, i32 %sel, 1
  resume { ptr, i32 } %lpad.val81
}

declare void @_ZN11ast_managerC1E14proof_gen_modePKcb(ptr noundef nonnull align 8 dereferenceable(976), i32 noundef, ptr noundef, i1 noundef zeroext) unnamed_addr #1

declare void @_Z16reg_decl_pluginsR11ast_manager(ptr noundef nonnull align 8 dereferenceable(976)) #1

declare void @_ZN8sat2goalC1Ev(ptr noundef nonnull align 8 dereferenceable(8)) unnamed_addr #1

; Function Attrs: mustprogress nounwind uwtable
define linkonce_odr hidden void @_ZN3refIN8sat2goal2mcEEC2Ev(ptr noundef nonnull align 8 dereferenceable(8) %this) unnamed_addr #4 comdat align 2 {
entry:
  %this.addr = alloca ptr, align 8
  store ptr %this, ptr %this.addr, align 8
  %this1 = load ptr, ptr %this.addr, align 8
  %m_ptr = getelementptr inbounds %class.ref.80, ptr %this1, i32 0, i32 0
  store ptr null, ptr %m_ptr, align 8
  ret void
}

; Function Attrs: mustprogress uwtable
define linkonce_odr hidden void @_ZN13atom2bool_varC2ER11ast_manager(ptr noundef nonnull align 8 dereferenceable(41) %this, ptr noundef nonnull align 8 dereferenceable(976) %m) unnamed_addr #5 comdat align 2 {
entry:
  %this.addr = alloca ptr, align 8
  %m.addr = alloca ptr, align 8
  store ptr %this, ptr %this.addr, align 8
  store ptr %m, ptr %m.addr, align 8
  %this1 = load ptr, ptr %this.addr, align 8
  %0 = load ptr, ptr %m.addr, align 8
  call void @_ZN8expr2varC2ER11ast_manager(ptr noundef nonnull align 8 dereferenceable(41) %this1, ptr noundef nonnull align 8 dereferenceable(976) %0)
  ret void
}

; Function Attrs: mustprogress uwtable
define linkonce_odr hidden noundef i32 @_ZNK3sat6solver8num_varsEv(ptr noundef nonnull align 8 dereferenceable(4408) %this) #5 comdat align 2 {
entry:
  %this.addr = alloca ptr, align 8
  store ptr %this, ptr %this.addr, align 8
  %this1 = load ptr, ptr %this.addr, align 8
  %m_justification = getelementptr inbounds %"class.sat::solver", ptr %this1, i32 0, i32 38
  %call = call noundef i32 @_ZNK6vectorIN3sat13justificationELb0EjE4sizeEv(ptr noundef nonnull align 8 dereferenceable(8) %m_justification)
  ret i32 %call
}

; Function Attrs: mustprogress uwtable
define linkonce_odr hidden void @_ZN13atom2bool_var6insertEP4exprj(ptr noundef nonnull align 8 dereferenceable(41) %this, ptr noundef %n, i32 noundef %v) #5 comdat align 2 {
entry:
  %this.addr = alloca ptr, align 8
  %n.addr = alloca ptr, align 8
  %v.addr = alloca i32, align 4
  store ptr %this, ptr %this.addr, align 8
  store ptr %n, ptr %n.addr, align 8
  store i32 %v, ptr %v.addr, align 4
  %this1 = load ptr, ptr %this.addr, align 8
  %0 = load ptr, ptr %n.addr, align 8
  %1 = load i32, ptr %v.addr, align 4
  call void @_ZN8expr2var6insertEP4exprj(ptr noundef nonnull align 8 dereferenceable(41) %this1, ptr noundef %0, i32 noundef %1)
  ret void
}

; Function Attrs: mustprogress uwtable
define linkonce_odr hidden noundef ptr @_ZN11ast_manager8mk_constERK6symbolP4sort(ptr noundef nonnull align 8 dereferenceable(976) %this, ptr noundef nonnull align 8 dereferenceable(8) %name, ptr noundef %s) #5 comdat align 2 {
entry:
  %this.addr = alloca ptr, align 8
  %name.addr = alloca ptr, align 8
  %s.addr = alloca ptr, align 8
  store ptr %this, ptr %this.addr, align 8
  store ptr %name, ptr %name.addr, align 8
  store ptr %s, ptr %s.addr, align 8
  %this1 = load ptr, ptr %this.addr, align 8
  %0 = load ptr, ptr %name.addr, align 8
  %1 = load ptr, ptr %s.addr, align 8
  %call = call noundef ptr @_ZN11ast_manager13mk_const_declERK6symbolP4sort(ptr noundef nonnull align 8 dereferenceable(976) %this1, ptr noundef nonnull align 8 dereferenceable(8) %0, ptr noundef %1)
  %call2 = call noundef ptr @_ZN11ast_manager8mk_constEP9func_decl(ptr noundef nonnull align 8 dereferenceable(976) %this1, ptr noundef %call)
  ret ptr %call2
}

; Function Attrs: mustprogress nounwind uwtable
define linkonce_odr hidden void @_ZN6symbolC2Ej(ptr noundef nonnull align 8 dereferenceable(8) %this, i32 noundef %idx) unnamed_addr #4 comdat align 2 {
entry:
  %this.addr = alloca ptr, align 8
  %idx.addr = alloca i32, align 4
  store ptr %this, ptr %this.addr, align 8
  store i32 %idx, ptr %idx.addr, align 4
  %this1 = load ptr, ptr %this.addr, align 8
  %m_data = getelementptr inbounds %class.symbol, ptr %this1, i32 0, i32 0
  %0 = load i32, ptr %idx.addr, align 4
  %conv = zext i32 %0 to i64
  %shl = shl i64 %conv, 3
  %or = or i64 %shl, 1
  %1 = inttoptr i64 %or to ptr
  store ptr %1, ptr %m_data, align 8
  ret void
}

; Function Attrs: mustprogress nounwind uwtable
define linkonce_odr hidden noundef ptr @_ZNK11ast_manager12mk_bool_sortEv(ptr noundef nonnull align 8 dereferenceable(976) %this) #4 comdat align 2 {
entry:
  %this.addr = alloca ptr, align 8
  store ptr %this, ptr %this.addr, align 8
  %this1 = load ptr, ptr %this.addr, align 8
  %m_bool_sort = getelementptr inbounds %class.ast_manager, ptr %this1, i32 0, i32 13
  %0 = load ptr, ptr %m_bool_sort, align 8
  ret ptr %0
}

declare noalias noundef ptr @_ZN6memory8allocateEm(i64 noundef) #1

declare void @_ZN4goalC1ER11ast_managerbb(ptr noundef nonnull align 8 dereferenceable(124), ptr noundef nonnull align 8 dereferenceable(976), i1 noundef zeroext, i1 noundef zeroext) unnamed_addr #1

; Function Attrs: mustprogress uwtable
define linkonce_odr hidden void @_ZN3refI4goalEC2EPS0_(ptr noundef nonnull align 8 dereferenceable(8) %this, ptr noundef %ptr) unnamed_addr #5 comdat align 2 {
entry:
  %this.addr = alloca ptr, align 8
  %ptr.addr = alloca ptr, align 8
  store ptr %this, ptr %this.addr, align 8
  store ptr %ptr, ptr %ptr.addr, align 8
  %this1 = load ptr, ptr %this.addr, align 8
  %m_ptr = getelementptr inbounds %class.ref.85, ptr %this1, i32 0, i32 0
  %0 = load ptr, ptr %ptr.addr, align 8
  store ptr %0, ptr %m_ptr, align 8
  call void @_ZN3refI4goalE7inc_refEv(ptr noundef nonnull align 8 dereferenceable(8) %this1)
  ret void
}

declare void @_ZN8sat2goalclERN3sat6solverERK13atom2bool_varRK10params_refR4goalR3refINS_2mcEE(ptr noundef nonnull align 8 dereferenceable(8), ptr noundef nonnull align 8 dereferenceable(4408), ptr noundef nonnull align 8 dereferenceable(41), ptr noundef nonnull align 8 dereferenceable(8), ptr noundef nonnull align 8 dereferenceable(124), ptr noundef nonnull align 8 dereferenceable(8)) #1

; Function Attrs: mustprogress nounwind uwtable
define linkonce_odr hidden noundef nonnull align 8 dereferenceable(124) ptr @_ZN3refI4goalEdeEv(ptr noundef nonnull align 8 dereferenceable(8) %this) #4 comdat align 2 {
entry:
  %this.addr = alloca ptr, align 8
  store ptr %this, ptr %this.addr, align 8
  %this1 = load ptr, ptr %this.addr, align 8
  %m_ptr = getelementptr inbounds %class.ref.85, ptr %this1, i32 0, i32 0
  %0 = load ptr, ptr %m_ptr, align 8
  ret ptr %0
}

declare noundef ptr @_Z23mk_parallel_qffd_tacticR11ast_managerRK10params_ref(ptr noundef nonnull align 8 dereferenceable(976), ptr noundef nonnull align 8 dereferenceable(8)) #1

; Function Attrs: mustprogress uwtable
define linkonce_odr hidden noundef nonnull align 8 dereferenceable(8) ptr @_ZN3refI6tacticEaSEPS0_(ptr noundef nonnull align 8 dereferenceable(8) %this, ptr noundef %ptr) #5 comdat align 2 {
entry:
  %this.addr = alloca ptr, align 8
  %ptr.addr = alloca ptr, align 8
  store ptr %this, ptr %this.addr, align 8
  store ptr %ptr, ptr %ptr.addr, align 8
  %this1 = load ptr, ptr %this.addr, align 8
  %0 = load ptr, ptr %ptr.addr, align 8
  %tobool = icmp ne ptr %0, null
  br i1 %tobool, label %if.then, label %if.end

if.then:                                          ; preds = %entry
  %1 = load ptr, ptr %ptr.addr, align 8
  call void @_ZN6tactic7inc_refEv(ptr noundef nonnull align 8 dereferenceable(12) %1)
  br label %if.end

if.end:                                           ; preds = %if.then, %entry
  call void @_ZN3refI6tacticE7dec_refEv(ptr noundef nonnull align 8 dereferenceable(8) %this1)
  %2 = load ptr, ptr %ptr.addr, align 8
  %m_ptr = getelementptr inbounds %class.ref, ptr %this1, i32 0, i32 0
  store ptr %2, ptr %m_ptr, align 8
  ret ptr %this1
}

; Function Attrs: nounwind
declare void @_ZNSt7__cxx1112basic_stringIcSt11char_traitsIcESaIcEEC1Ev(ptr noundef nonnull align 8 dereferenceable(32)) unnamed_addr #2

; Function Attrs: mustprogress nounwind uwtable
define linkonce_odr hidden void @_ZN3refI5modelEC2Ev(ptr noundef nonnull align 8 dereferenceable(8) %this) unnamed_addr #4 comdat align 2 {
entry:
  %this.addr = alloca ptr, align 8
  store ptr %this, ptr %this.addr, align 8
  %this1 = load ptr, ptr %this.addr, align 8
  %m_ptr = getelementptr inbounds %class.ref.89, ptr %this1, i32 0, i32 0
  store ptr null, ptr %m_ptr, align 8
  ret void
}

; Function Attrs: mustprogress uwtable
define linkonce_odr hidden void @_ZN10labels_vecC2Ev(ptr noundef nonnull align 8 dereferenceable(8) %this) unnamed_addr #5 comdat align 2 {
entry:
  %this.addr = alloca ptr, align 8
  store ptr %this, ptr %this.addr, align 8
  %this1 = load ptr, ptr %this.addr, align 8
  call void @_ZN7svectorI6symboljEC2Ev(ptr noundef nonnull align 8 dereferenceable(8) %this1)
  ret void
}

; Function Attrs: mustprogress nounwind uwtable
define linkonce_odr hidden void @_ZN7obj_refI3app11ast_managerEC2ERS1_(ptr noundef nonnull align 8 dereferenceable(16) %this, ptr noundef nonnull align 8 dereferenceable(976) %m) unnamed_addr #4 comdat align 2 {
entry:
  %this.addr = alloca ptr, align 8
  %m.addr = alloca ptr, align 8
  store ptr %this, ptr %this.addr, align 8
  store ptr %m, ptr %m.addr, align 8
  %this1 = load ptr, ptr %this.addr, align 8
  %m_obj = getelementptr inbounds %class.obj_ref, ptr %this1, i32 0, i32 0
  store ptr null, ptr %m_obj, align 8
  %m_manager = getelementptr inbounds %class.obj_ref, ptr %this1, i32 0, i32 1
  %0 = load ptr, ptr %m.addr, align 8
  store ptr %0, ptr %m_manager, align 8
  ret void
}

; Function Attrs: mustprogress nounwind uwtable
define linkonce_odr hidden void @_ZN7obj_refIN18dependency_managerIN11ast_manager22expr_dependency_configEE10dependencyES1_EC2ERS1_(ptr noundef nonnull align 8 dereferenceable(16) %this, ptr noundef nonnull align 8 dereferenceable(976) %m) unnamed_addr #4 comdat align 2 {
entry:
  %this.addr = alloca ptr, align 8
  %m.addr = alloca ptr, align 8
  store ptr %this, ptr %this.addr, align 8
  store ptr %m, ptr %m.addr, align 8
  %this1 = load ptr, ptr %this.addr, align 8
  %m_obj = getelementptr inbounds %class.obj_ref.90, ptr %this1, i32 0, i32 0
  store ptr null, ptr %m_obj, align 8
  %m_manager = getelementptr inbounds %class.obj_ref.90, ptr %this1, i32 0, i32 1
  %0 = load ptr, ptr %m.addr, align 8
  store ptr %0, ptr %m_manager, align 8
  ret void
}

declare noundef i32 @_Z9check_satR6tacticR3refI4goalERS1_I5modelER10labels_vecR7obj_refI3app11ast_managerERSA_IN18dependency_managerINSC_22expr_dependency_configEE10dependencyESC_ERNSt7__cxx1112basic_stringIcSt11char_traitsIcESaIcEEE(ptr noundef nonnull align 8 dereferenceable(12), ptr noundef nonnull align 8 dereferenceable(8), ptr noundef nonnull align 8 dereferenceable(8), ptr noundef nonnull align 8 dereferenceable(8), ptr noundef nonnull align 8 dereferenceable(16), ptr noundef nonnull align 8 dereferenceable(16), ptr noundef nonnull align 8 dereferenceable(32)) #1

; Function Attrs: mustprogress nounwind uwtable
define linkonce_odr hidden noundef nonnull align 8 dereferenceable(12) ptr @_ZN3refI6tacticEdeEv(ptr noundef nonnull align 8 dereferenceable(8) %this) #4 comdat align 2 {
entry:
  %this.addr = alloca ptr, align 8
  store ptr %this, ptr %this.addr, align 8
  %this1 = load ptr, ptr %this.addr, align 8
  %m_ptr = getelementptr inbounds %class.ref, ptr %this1, i32 0, i32 0
  %0 = load ptr, ptr %m_ptr, align 8
  ret ptr %0
}

declare noundef nonnull align 8 dereferenceable(8) ptr @_ZN7gparams7get_refEv() #1

declare noundef zeroext i1 @_ZNK10params_ref8get_boolEPKcb(ptr noundef nonnull align 8 dereferenceable(8), ptr noundef, i1 noundef zeroext) #1

; Function Attrs: mustprogress uwtable
define linkonce_odr hidden noundef ptr @_ZNK8expr2var5beginEv(ptr noundef nonnull align 8 dereferenceable(41) %this) #5 comdat align 2 {
entry:
  %this.addr = alloca ptr, align 8
  store ptr %this, ptr %this.addr, align 8
  %this1 = load ptr, ptr %this.addr, align 8
  %m_mapping = getelementptr inbounds %class.expr2var, ptr %this1, i32 0, i32 2
  %call = call noundef ptr @_ZNK6vectorIN7obj_mapI4exprjE8key_dataELb0EjE5beginEv(ptr noundef nonnull align 8 dereferenceable(8) %m_mapping)
  ret ptr %call
}

; Function Attrs: mustprogress uwtable
define linkonce_odr hidden noundef ptr @_ZNK8expr2var3endEv(ptr noundef nonnull align 8 dereferenceable(41) %this) #5 comdat align 2 {
entry:
  %this.addr = alloca ptr, align 8
  store ptr %this, ptr %this.addr, align 8
  %this1 = load ptr, ptr %this.addr, align 8
  %m_mapping = getelementptr inbounds %class.expr2var, ptr %this1, i32 0, i32 2
  %call = call noundef ptr @_ZNK6vectorIN7obj_mapI4exprjE8key_dataELb0EjE3endEv(ptr noundef nonnull align 8 dereferenceable(8) %m_mapping)
  ret ptr %call
}

; Function Attrs: mustprogress nounwind uwtable
define linkonce_odr hidden noundef zeroext i1 @_ZNK11ast_manager7is_trueEPK4expr(ptr noundef nonnull align 8 dereferenceable(976) %this, ptr noundef %n) #4 comdat align 2 {
entry:
  %this.addr = alloca ptr, align 8
  %n.addr = alloca ptr, align 8
  store ptr %this, ptr %this.addr, align 8
  store ptr %n, ptr %n.addr, align 8
  %this1 = load ptr, ptr %this.addr, align 8
  %0 = load ptr, ptr %n.addr, align 8
  %m_true = getelementptr inbounds %class.ast_manager, ptr %this1, i32 0, i32 15
  %1 = load ptr, ptr %m_true, align 8
  %cmp = icmp eq ptr %0, %1
  ret i1 %cmp
}

; Function Attrs: mustprogress nounwind uwtable
define linkonce_odr hidden noundef nonnull align 8 dereferenceable(160) ptr @_ZN3refI5modelEdeEv(ptr noundef nonnull align 8 dereferenceable(8) %this) #4 comdat align 2 {
entry:
  %this.addr = alloca ptr, align 8
  store ptr %this, ptr %this.addr, align 8
  %this1 = load ptr, ptr %this.addr, align 8
  %m_ptr = getelementptr inbounds %class.ref.89, ptr %this1, i32 0, i32 0
  %0 = load ptr, ptr %m_ptr, align 8
  ret ptr %0
}

declare void @_ZN5modelclEP4expr(ptr sret(%class.obj_ref.91) align 8, ptr noundef nonnull align 8 dereferenceable(160), ptr noundef) #1

; Function Attrs: mustprogress nounwind uwtable
define linkonce_odr hidden noundef ptr @_ZNK7obj_refI4expr11ast_managerEcvPS0_Ev(ptr noundef nonnull align 8 dereferenceable(16) %this) #4 comdat align 2 {
entry:
  %this.addr = alloca ptr, align 8
  store ptr %this, ptr %this.addr, align 8
  %this1 = load ptr, ptr %this.addr, align 8
  %m_obj = getelementptr inbounds %class.obj_ref.91, ptr %this1, i32 0, i32 0
  %0 = load ptr, ptr %m_obj, align 8
  ret ptr %0
}

; Function Attrs: mustprogress nounwind uwtable
define linkonce_odr hidden void @_ZN7obj_refI4expr11ast_managerED2Ev(ptr noundef nonnull align 8 dereferenceable(16) %this) unnamed_addr #4 comdat align 2 personality ptr @__gxx_personality_v0 {
entry:
  %this.addr = alloca ptr, align 8
  store ptr %this, ptr %this.addr, align 8
  %this1 = load ptr, ptr %this.addr, align 8
  invoke void @_ZN7obj_refI4expr11ast_managerE7dec_refEv(ptr noundef nonnull align 8 dereferenceable(16) %this1)
          to label %invoke.cont unwind label %terminate.lpad

invoke.cont:                                      ; preds = %entry
  ret void

terminate.lpad:                                   ; preds = %entry
  %0 = landingpad { ptr, i32 }
          catch ptr null
  %1 = extractvalue { ptr, i32 } %0, 0
  call void @__clang_call_terminate(ptr %1) #13
  unreachable
}

; Function Attrs: nocallback nofree nounwind willreturn memory(argmem: readwrite)
declare void @llvm.memcpy.p0.p0.i64(ptr noalias nocapture writeonly, ptr noalias nocapture readonly, i64, i1 immarg) #7

; Function Attrs: mustprogress uwtable
define internal void @_ZL18display_statisticsv() #5 {
entry:
  %end_time = alloca i64, align 8
  %call = call i64 @clock() #3
  store i64 %call, ptr %end_time, align 8
  %call1 = call noundef zeroext i1 @_ZNK3refI6tacticEcvbEv(ptr noundef nonnull align 8 dereferenceable(8) @_ZL5g_tac)
  br i1 %call1, label %land.lhs.true, label %if.end

land.lhs.true:                                    ; preds = %entry
  %0 = load i8, ptr @g_display_statistics, align 1
  %tobool = trunc i8 %0 to i1
  br i1 %tobool, label %if.then, label %if.end

if.then:                                          ; preds = %land.lhs.true
  %call2 = call noundef ptr @_ZNK3refI6tacticEptEv(ptr noundef nonnull align 8 dereferenceable(8) @_ZL5g_tac)
  %vtable = load ptr, ptr %call2, align 8
  %vfn = getelementptr inbounds ptr, ptr %vtable, i64 15
  %1 = load ptr, ptr %vfn, align 8
  call void %1(ptr noundef nonnull align 8 dereferenceable(12) %call2, ptr noundef nonnull align 8 dereferenceable(16) @_ZL4g_st)
  br label %if.end

if.end:                                           ; preds = %if.then, %land.lhs.true, %entry
  %2 = load ptr, ptr @_ZL8g_solver, align 8
  %tobool3 = icmp ne ptr %2, null
  br i1 %tobool3, label %land.lhs.true4, label %if.end11

land.lhs.true4:                                   ; preds = %if.end
  %3 = load i8, ptr @g_display_statistics, align 1
  %tobool5 = trunc i8 %3 to i1
  br i1 %tobool5, label %if.then6, label %if.end11

if.then6:                                         ; preds = %land.lhs.true4
  %call7 = call noundef nonnull align 8 dereferenceable(8) ptr @_ZNSo5flushEv(ptr noundef nonnull align 8 dereferenceable(8) @_ZSt4cout)
  %call8 = call noundef nonnull align 8 dereferenceable(8) ptr @_ZNSo5flushEv(ptr noundef nonnull align 8 dereferenceable(8) @_ZSt4cerr)
  %4 = load ptr, ptr @_ZL8g_solver, align 8
  call void @_ZNK3sat6solver18collect_statisticsER10statistics(ptr noundef nonnull align 8 dereferenceable(4408) %4, ptr noundef nonnull align 8 dereferenceable(16) @_ZL4g_st)
  %5 = load i64, ptr %end_time, align 8
  %conv = sitofp i64 %5 to double
  %6 = load i64, ptr @_ZL12g_start_time, align 8
  %conv9 = sitofp i64 %6 to double
  %sub = fsub double %conv, %conv9
  %div = fdiv double %sub, 1.000000e+06
  call void @_ZN10statistics6updateEPKcd(ptr noundef nonnull align 8 dereferenceable(16) @_ZL4g_st, ptr noundef @.str.19, double noundef %div)
  %call10 = call noundef nonnull align 8 dereferenceable(8) ptr @_ZNK10statistics12display_smt2ERSo(ptr noundef nonnull align 8 dereferenceable(16) @_ZL4g_st, ptr noundef nonnull align 8 dereferenceable(8) @_ZSt4cout)
  br label %if.end11

if.end11:                                         ; preds = %if.then6, %land.lhs.true4, %if.end
  store i8 0, ptr @g_display_statistics, align 1
  ret void
}

; Function Attrs: mustprogress nounwind uwtable
define linkonce_odr hidden void @_ZN7obj_refIN18dependency_managerIN11ast_manager22expr_dependency_configEE10dependencyES1_ED2Ev(ptr noundef nonnull align 8 dereferenceable(16) %this) unnamed_addr #4 comdat align 2 personality ptr @__gxx_personality_v0 {
entry:
  %this.addr = alloca ptr, align 8
  store ptr %this, ptr %this.addr, align 8
  %this1 = load ptr, ptr %this.addr, align 8
  invoke void @_ZN7obj_refIN18dependency_managerIN11ast_manager22expr_dependency_configEE10dependencyES1_E7dec_refEv(ptr noundef nonnull align 8 dereferenceable(16) %this1)
          to label %invoke.cont unwind label %terminate.lpad

invoke.cont:                                      ; preds = %entry
  ret void

terminate.lpad:                                   ; preds = %entry
  %0 = landingpad { ptr, i32 }
          catch ptr null
  %1 = extractvalue { ptr, i32 } %0, 0
  call void @__clang_call_terminate(ptr %1) #13
  unreachable
}

; Function Attrs: mustprogress nounwind uwtable
define linkonce_odr hidden void @_ZN7obj_refI3app11ast_managerED2Ev(ptr noundef nonnull align 8 dereferenceable(16) %this) unnamed_addr #4 comdat align 2 personality ptr @__gxx_personality_v0 {
entry:
  %this.addr = alloca ptr, align 8
  store ptr %this, ptr %this.addr, align 8
  %this1 = load ptr, ptr %this.addr, align 8
  invoke void @_ZN7obj_refI3app11ast_managerE7dec_refEv(ptr noundef nonnull align 8 dereferenceable(16) %this1)
          to label %invoke.cont unwind label %terminate.lpad

invoke.cont:                                      ; preds = %entry
  ret void

terminate.lpad:                                   ; preds = %entry
  %0 = landingpad { ptr, i32 }
          catch ptr null
  %1 = extractvalue { ptr, i32 } %0, 0
  call void @__clang_call_terminate(ptr %1) #13
  unreachable
}

; Function Attrs: mustprogress nounwind uwtable
define linkonce_odr hidden void @_ZN10labels_vecD2Ev(ptr noundef nonnull align 8 dereferenceable(8) %this) unnamed_addr #4 comdat align 2 {
entry:
  %this.addr = alloca ptr, align 8
  store ptr %this, ptr %this.addr, align 8
  %this1 = load ptr, ptr %this.addr, align 8
  call void @_ZN7svectorI6symboljED2Ev(ptr noundef nonnull align 8 dereferenceable(8) %this1) #3
  ret void
}

; Function Attrs: mustprogress nounwind uwtable
define linkonce_odr hidden void @_ZN3refI5modelED2Ev(ptr noundef nonnull align 8 dereferenceable(8) %this) unnamed_addr #4 comdat align 2 personality ptr @__gxx_personality_v0 {
entry:
  %this.addr = alloca ptr, align 8
  store ptr %this, ptr %this.addr, align 8
  %this1 = load ptr, ptr %this.addr, align 8
  invoke void @_ZN3refI5modelE7dec_refEv(ptr noundef nonnull align 8 dereferenceable(8) %this1)
          to label %invoke.cont unwind label %terminate.lpad

invoke.cont:                                      ; preds = %entry
  ret void

terminate.lpad:                                   ; preds = %entry
  %0 = landingpad { ptr, i32 }
          catch ptr null
  %1 = extractvalue { ptr, i32 } %0, 0
  call void @__clang_call_terminate(ptr %1) #13
  unreachable
}

; Function Attrs: nounwind
declare void @_ZNSt7__cxx1112basic_stringIcSt11char_traitsIcESaIcEED1Ev(ptr noundef nonnull align 8 dereferenceable(32)) unnamed_addr #2

; Function Attrs: mustprogress nounwind uwtable
define linkonce_odr hidden void @_ZN3refI4goalED2Ev(ptr noundef nonnull align 8 dereferenceable(8) %this) unnamed_addr #4 comdat align 2 personality ptr @__gxx_personality_v0 {
entry:
  %this.addr = alloca ptr, align 8
  store ptr %this, ptr %this.addr, align 8
  %this1 = load ptr, ptr %this.addr, align 8
  invoke void @_ZN3refI4goalE7dec_refEv(ptr noundef nonnull align 8 dereferenceable(8) %this1)
          to label %invoke.cont unwind label %terminate.lpad

invoke.cont:                                      ; preds = %entry
  ret void

terminate.lpad:                                   ; preds = %entry
  %0 = landingpad { ptr, i32 }
          catch ptr null
  %1 = extractvalue { ptr, i32 } %0, 0
  call void @__clang_call_terminate(ptr %1) #13
  unreachable
}

; Function Attrs: mustprogress nounwind uwtable
define linkonce_odr hidden void @_ZN13atom2bool_varD2Ev(ptr noundef nonnull align 8 dereferenceable(41) %this) unnamed_addr #4 comdat align 2 {
entry:
  %this.addr = alloca ptr, align 8
  store ptr %this, ptr %this.addr, align 8
  %this1 = load ptr, ptr %this.addr, align 8
  call void @_ZN8expr2varD2Ev(ptr noundef nonnull align 8 dereferenceable(41) %this1) #3
  ret void
}

; Function Attrs: mustprogress nounwind uwtable
define linkonce_odr hidden void @_ZN3refIN8sat2goal2mcEED2Ev(ptr noundef nonnull align 8 dereferenceable(8) %this) unnamed_addr #4 comdat align 2 personality ptr @__gxx_personality_v0 {
entry:
  %this.addr = alloca ptr, align 8
  store ptr %this, ptr %this.addr, align 8
  %this1 = load ptr, ptr %this.addr, align 8
  invoke void @_ZN3refIN8sat2goal2mcEE7dec_refEv(ptr noundef nonnull align 8 dereferenceable(8) %this1)
          to label %invoke.cont unwind label %terminate.lpad

invoke.cont:                                      ; preds = %entry
  ret void

terminate.lpad:                                   ; preds = %entry
  %0 = landingpad { ptr, i32 }
          catch ptr null
  %1 = extractvalue { ptr, i32 } %0, 0
  call void @__clang_call_terminate(ptr %1) #13
  unreachable
}

; Function Attrs: nounwind
declare void @_ZN11ast_managerD1Ev(ptr noundef nonnull align 8 dereferenceable(976)) unnamed_addr #2

; Function Attrs: mustprogress uwtable
define hidden noundef i32 @_Z11read_dimacsPKc(ptr noundef %file_name) #5 personality ptr @__gxx_personality_v0 {
entry:
  %file_name.addr = alloca ptr, align 8
  %p = alloca %class.params_ref, align 8
  %par = alloca %class.params_ref, align 8
  %exn.slot = alloca ptr, align 8
  %ehselector.slot = alloca i32, align 4
  %sp = alloca %struct.sat_params, align 8
  %limit = alloca %class.reslimit, align 8
  %solver = alloca %"class.sat::solver", align 8
  %in = alloca %"class.std::basic_ifstream", align 8
  %r = alloca i32, align 4
  %tracking_clauses = alloca %class.vector.38, align 8
  %p2 = alloca %class.params_ref, align 8
  %solver2 = alloca %"class.sat::solver", align 8
  %assumptions = alloca %class.svector.34, align 8
  store ptr %file_name, ptr %file_name.addr, align 8
  %call = call i64 @clock() #3
  store i64 %call, ptr @_ZL12g_start_time, align 8
  call void @_Z24register_on_timeout_procPFvvE(ptr noundef @_ZL10on_timeoutv)
  %call1 = call ptr @signal(i32 noundef 2, ptr noundef @_ZL9on_ctrl_ci) #3
  call void @_ZN7gparams10get_moduleEPKc(ptr sret(%class.params_ref) align 8 %p, ptr noundef @.str)
  invoke void @_ZN7gparams10get_moduleEPKc(ptr sret(%class.params_ref) align 8 %par, ptr noundef @.str.11)
          to label %invoke.cont unwind label %lpad

invoke.cont:                                      ; preds = %entry
  invoke void @_ZN10params_ref8set_boolEPKcb(ptr noundef nonnull align 8 dereferenceable(8) %p, ptr noundef @.str.4, i1 noundef zeroext true)
          to label %invoke.cont3 unwind label %lpad2

invoke.cont3:                                     ; preds = %invoke.cont
  invoke void @_ZN10params_ref8set_boolEPKcb(ptr noundef nonnull align 8 dereferenceable(8) %p, ptr noundef @.str.12, i1 noundef zeroext false)
          to label %invoke.cont4 unwind label %lpad2

invoke.cont4:                                     ; preds = %invoke.cont3
  invoke void @_ZN10sat_paramsC2ERK10params_ref(ptr noundef nonnull align 8 dereferenceable(16) %sp, ptr noundef nonnull align 8 dereferenceable(8) %p)
          to label %invoke.cont5 unwind label %lpad2

invoke.cont5:                                     ; preds = %invoke.cont4
  invoke void @_ZN8reslimitC1Ev(ptr noundef nonnull align 8 dereferenceable(40) %limit)
          to label %invoke.cont7 unwind label %lpad6

invoke.cont7:                                     ; preds = %invoke.cont5
  invoke void @_ZN3sat6solverC1ERK10params_refR8reslimit(ptr noundef nonnull align 8 dereferenceable(4408) %solver, ptr noundef nonnull align 8 dereferenceable(8) %p, ptr noundef nonnull align 8 dereferenceable(40) %limit)
          to label %invoke.cont9 unwind label %lpad8

invoke.cont9:                                     ; preds = %invoke.cont7
  store ptr %solver, ptr @_ZL8g_solver, align 8
  %0 = load ptr, ptr %file_name.addr, align 8
  %tobool = icmp ne ptr %0, null
  br i1 %tobool, label %if.then, label %if.else

if.then:                                          ; preds = %invoke.cont9
  %1 = load ptr, ptr %file_name.addr, align 8
  invoke void @_ZNSt14basic_ifstreamIcSt11char_traitsIcEEC1EPKcSt13_Ios_Openmode(ptr noundef nonnull align 8 dereferenceable(256) %in, ptr noundef %1, i32 noundef 8)
          to label %invoke.cont11 unwind label %lpad10

invoke.cont11:                                    ; preds = %if.then
  %vtable = load ptr, ptr %in, align 8
  %vbase.offset.ptr = getelementptr i8, ptr %vtable, i64 -24
  %vbase.offset = load i64, ptr %vbase.offset.ptr, align 8
  %add.ptr = getelementptr inbounds i8, ptr %in, i64 %vbase.offset
  %call14 = invoke noundef zeroext i1 @_ZNKSt9basic_iosIcSt11char_traitsIcEE3badEv(ptr noundef nonnull align 8 dereferenceable(264) %add.ptr)
          to label %invoke.cont13 unwind label %lpad12

invoke.cont13:                                    ; preds = %invoke.cont11
  br i1 %call14, label %if.then21, label %lor.lhs.false

lor.lhs.false:                                    ; preds = %invoke.cont13
  %vtable15 = load ptr, ptr %in, align 8
  %vbase.offset.ptr16 = getelementptr i8, ptr %vtable15, i64 -24
  %vbase.offset17 = load i64, ptr %vbase.offset.ptr16, align 8
  %add.ptr18 = getelementptr inbounds i8, ptr %in, i64 %vbase.offset17
  %call20 = invoke noundef zeroext i1 @_ZNKSt9basic_iosIcSt11char_traitsIcEE4failEv(ptr noundef nonnull align 8 dereferenceable(264) %add.ptr18)
          to label %invoke.cont19 unwind label %lpad12

invoke.cont19:                                    ; preds = %lor.lhs.false
  br i1 %call20, label %if.then21, label %if.end

if.then21:                                        ; preds = %invoke.cont19, %invoke.cont13
  %call23 = invoke noundef nonnull align 8 dereferenceable(8) ptr @_ZStlsISt11char_traitsIcEERSt13basic_ostreamIcT_ES5_PKc(ptr noundef nonnull align 8 dereferenceable(8) @_ZSt4cerr, ptr noundef @.str.5)
          to label %invoke.cont22 unwind label %lpad12

invoke.cont22:                                    ; preds = %if.then21
  %2 = load ptr, ptr %file_name.addr, align 8
  %call25 = invoke noundef nonnull align 8 dereferenceable(8) ptr @_ZStlsISt11char_traitsIcEERSt13basic_ostreamIcT_ES5_PKc(ptr noundef nonnull align 8 dereferenceable(8) %call23, ptr noundef %2)
          to label %invoke.cont24 unwind label %lpad12

invoke.cont24:                                    ; preds = %invoke.cont22
  %call27 = invoke noundef nonnull align 8 dereferenceable(8) ptr @_ZStlsISt11char_traitsIcEERSt13basic_ostreamIcT_ES5_PKc(ptr noundef nonnull align 8 dereferenceable(8) %call25, ptr noundef @.str.6)
          to label %invoke.cont26 unwind label %lpad12

invoke.cont26:                                    ; preds = %invoke.cont24
  %call29 = invoke noundef nonnull align 8 dereferenceable(8) ptr @_ZNSolsEPFRSoS_E(ptr noundef nonnull align 8 dereferenceable(8) %call27, ptr noundef @_ZSt4endlIcSt11char_traitsIcEERSt13basic_ostreamIT_T0_ES6_)
          to label %invoke.cont28 unwind label %lpad12

invoke.cont28:                                    ; preds = %invoke.cont26
  call void @exit(i32 noundef 108) #13
  unreachable

lpad:                                             ; preds = %entry
  %3 = landingpad { ptr, i32 }
          cleanup
  %4 = extractvalue { ptr, i32 } %3, 0
  store ptr %4, ptr %exn.slot, align 8
  %5 = extractvalue { ptr, i32 } %3, 1
  store i32 %5, ptr %ehselector.slot, align 4
  br label %ehcleanup111

lpad2:                                            ; preds = %invoke.cont4, %invoke.cont3, %invoke.cont
  %6 = landingpad { ptr, i32 }
          cleanup
  %7 = extractvalue { ptr, i32 } %6, 0
  store ptr %7, ptr %exn.slot, align 8
  %8 = extractvalue { ptr, i32 } %6, 1
  store i32 %8, ptr %ehselector.slot, align 4
  br label %ehcleanup110

lpad6:                                            ; preds = %invoke.cont5
  %9 = landingpad { ptr, i32 }
          cleanup
  %10 = extractvalue { ptr, i32 } %9, 0
  store ptr %10, ptr %exn.slot, align 8
  %11 = extractvalue { ptr, i32 } %9, 1
  store i32 %11, ptr %ehselector.slot, align 4
  br label %ehcleanup109

lpad8:                                            ; preds = %invoke.cont7
  %12 = landingpad { ptr, i32 }
          cleanup
  %13 = extractvalue { ptr, i32 } %12, 0
  store ptr %13, ptr %exn.slot, align 8
  %14 = extractvalue { ptr, i32 } %12, 1
  store i32 %14, ptr %ehselector.slot, align 4
  br label %ehcleanup108

lpad10:                                           ; preds = %invoke.cont47, %if.else46, %invoke.cont44, %invoke.cont42, %invoke.cont41, %if.then40, %if.then37, %if.end34, %if.else, %if.then
  %15 = landingpad { ptr, i32 }
          cleanup
  %16 = extractvalue { ptr, i32 } %15, 0
  store ptr %16, ptr %exn.slot, align 8
  %17 = extractvalue { ptr, i32 } %15, 1
  store i32 %17, ptr %ehselector.slot, align 4
  br label %ehcleanup107

lpad12:                                           ; preds = %if.end, %invoke.cont26, %invoke.cont24, %invoke.cont22, %if.then21, %lor.lhs.false, %invoke.cont11
  %18 = landingpad { ptr, i32 }
          cleanup
  %19 = extractvalue { ptr, i32 } %18, 0
  store ptr %19, ptr %exn.slot, align 8
  %20 = extractvalue { ptr, i32 } %18, 1
  store i32 %20, ptr %ehselector.slot, align 4
  call void @_ZNSt14basic_ifstreamIcSt11char_traitsIcEED1Ev(ptr noundef nonnull align 8 dereferenceable(256) %in) #3
  br label %ehcleanup107

if.end:                                           ; preds = %invoke.cont19
  %call31 = invoke noundef zeroext i1 @_Z12parse_dimacsRSiRSoRN3sat6solverE(ptr noundef nonnull align 8 dereferenceable(16) %in, ptr noundef nonnull align 8 dereferenceable(8) @_ZSt4cerr, ptr noundef nonnull align 8 dereferenceable(4408) %solver)
          to label %invoke.cont30 unwind label %lpad12

invoke.cont30:                                    ; preds = %if.end
  call void @_ZNSt14basic_ifstreamIcSt11char_traitsIcEED1Ev(ptr noundef nonnull align 8 dereferenceable(256) %in) #3
  br label %if.end34

if.else:                                          ; preds = %invoke.cont9
  %call33 = invoke noundef zeroext i1 @_Z12parse_dimacsRSiRSoRN3sat6solverE(ptr noundef nonnull align 8 dereferenceable(16) @_ZSt3cin, ptr noundef nonnull align 8 dereferenceable(8) @_ZSt4cerr, ptr noundef nonnull align 8 dereferenceable(4408) %solver)
          to label %invoke.cont32 unwind label %lpad10

invoke.cont32:                                    ; preds = %if.else
  br label %if.end34

if.end34:                                         ; preds = %invoke.cont32, %invoke.cont30
  %call36 = invoke noundef i32 @_Z19get_verbosity_levelv()
          to label %invoke.cont35 unwind label %lpad10

invoke.cont35:                                    ; preds = %if.end34
  %cmp = icmp uge i32 %call36, 20
  br i1 %cmp, label %if.then37, label %if.end51

if.then37:                                        ; preds = %invoke.cont35
  %call39 = invoke noundef zeroext i1 @_Z11is_threadedv()
          to label %invoke.cont38 unwind label %lpad10

invoke.cont38:                                    ; preds = %if.then37
  br i1 %call39, label %if.then40, label %if.else46

if.then40:                                        ; preds = %invoke.cont38
  invoke void @_Z12verbose_lockv()
          to label %invoke.cont41 unwind label %lpad10

invoke.cont41:                                    ; preds = %if.then40
  %call43 = invoke noundef nonnull align 8 dereferenceable(8) ptr @_Z14verbose_streamv()
          to label %invoke.cont42 unwind label %lpad10

invoke.cont42:                                    ; preds = %invoke.cont41
  invoke void @_ZNK3sat6solver14display_statusERSo(ptr noundef nonnull align 8 dereferenceable(4408) %solver, ptr noundef nonnull align 8 dereferenceable(8) %call43)
          to label %invoke.cont44 unwind label %lpad10

invoke.cont44:                                    ; preds = %invoke.cont42
  invoke void @_Z14verbose_unlockv()
          to label %invoke.cont45 unwind label %lpad10

invoke.cont45:                                    ; preds = %invoke.cont44
  br label %if.end50

if.else46:                                        ; preds = %invoke.cont38
  %call48 = invoke noundef nonnull align 8 dereferenceable(8) ptr @_Z14verbose_streamv()
          to label %invoke.cont47 unwind label %lpad10

invoke.cont47:                                    ; preds = %if.else46
  invoke void @_ZNK3sat6solver14display_statusERSo(ptr noundef nonnull align 8 dereferenceable(4408) %solver, ptr noundef nonnull align 8 dereferenceable(8) %call48)
          to label %invoke.cont49 unwind label %lpad10

invoke.cont49:                                    ; preds = %invoke.cont47
  br label %if.end50

if.end50:                                         ; preds = %invoke.cont49, %invoke.cont45
  br label %if.end51

if.end51:                                         ; preds = %if.end50, %invoke.cont35
  call void @_ZN6vectorI7svectorIN3sat7literalEjELb1EjEC2Ev(ptr noundef nonnull align 8 dereferenceable(8) %tracking_clauses) #3
  invoke void @_ZN10params_refC2Ev(ptr noundef nonnull align 8 dereferenceable(8) %p2)
          to label %invoke.cont53 unwind label %lpad52

invoke.cont53:                                    ; preds = %if.end51
  invoke void @_ZN10params_ref4copyERKS_(ptr noundef nonnull align 8 dereferenceable(8) %p2, ptr noundef nonnull align 8 dereferenceable(8) %p)
          to label %invoke.cont55 unwind label %lpad54

invoke.cont55:                                    ; preds = %invoke.cont53
  invoke void @_ZN10params_ref7set_symEPKcRK6symbol(ptr noundef nonnull align 8 dereferenceable(8) %p2, ptr noundef @.str.13, ptr noundef nonnull align 8 dereferenceable(8) @_ZN6symbol4nullE)
          to label %invoke.cont56 unwind label %lpad54

invoke.cont56:                                    ; preds = %invoke.cont55
  invoke void @_ZN3sat6solverC1ERK10params_refR8reslimit(ptr noundef nonnull align 8 dereferenceable(4408) %solver2, ptr noundef nonnull align 8 dereferenceable(8) %p2, ptr noundef nonnull align 8 dereferenceable(40) %limit)
          to label %invoke.cont57 unwind label %lpad54

invoke.cont57:                                    ; preds = %invoke.cont56
  %call60 = invoke noundef zeroext i1 @_ZNK10params_ref8get_boolEPKcb(ptr noundef nonnull align 8 dereferenceable(8) %p, ptr noundef @.str.14, i1 noundef zeroext false)
          to label %invoke.cont59 unwind label %lpad58

invoke.cont59:                                    ; preds = %invoke.cont57
  br i1 %call60, label %if.then61, label %if.else71

if.then61:                                        ; preds = %invoke.cont59
  store ptr %solver2, ptr @_ZL8g_solver, align 8
  invoke void @_ZN7svectorIN3sat7literalEjEC2Ev(ptr noundef nonnull align 8 dereferenceable(8) %assumptions)
          to label %invoke.cont62 unwind label %lpad58

invoke.cont62:                                    ; preds = %if.then61
  invoke void @_ZL13track_clausesRKN3sat6solverERS0_R7svectorINS_7literalEjER6vectorIS6_Lb1EjE(ptr noundef nonnull align 8 dereferenceable(4408) %solver, ptr noundef nonnull align 8 dereferenceable(4408) %solver2, ptr noundef nonnull align 8 dereferenceable(8) %assumptions, ptr noundef nonnull align 8 dereferenceable(8) %tracking_clauses)
          to label %invoke.cont64 unwind label %lpad63

invoke.cont64:                                    ; preds = %invoke.cont62
  %21 = load ptr, ptr @_ZL8g_solver, align 8
  %call66 = invoke noundef i32 @_ZNK6vectorIN3sat7literalELb0EjE4sizeEv(ptr noundef nonnull align 8 dereferenceable(8) %assumptions)
          to label %invoke.cont65 unwind label %lpad63

invoke.cont65:                                    ; preds = %invoke.cont64
  %call68 = invoke noundef ptr @_ZNK6vectorIN3sat7literalELb0EjE4dataEv(ptr noundef nonnull align 8 dereferenceable(8) %assumptions)
          to label %invoke.cont67 unwind label %lpad63

invoke.cont67:                                    ; preds = %invoke.cont65
  %call70 = invoke noundef i32 @_ZN3sat6solver5checkEjPKNS_7literalE(ptr noundef nonnull align 8 dereferenceable(4408) %21, i32 noundef %call66, ptr noundef %call68)
          to label %invoke.cont69 unwind label %lpad63

invoke.cont69:                                    ; preds = %invoke.cont67
  store i32 %call70, ptr %r, align 4
  call void @_ZN7svectorIN3sat7literalEjED2Ev(ptr noundef nonnull align 8 dereferenceable(8) %assumptions) #3
  br label %if.end81

lpad52:                                           ; preds = %if.end51
  %22 = landingpad { ptr, i32 }
          cleanup
  %23 = extractvalue { ptr, i32 } %22, 0
  store ptr %23, ptr %exn.slot, align 8
  %24 = extractvalue { ptr, i32 } %22, 1
  store i32 %24, ptr %ehselector.slot, align 4
  br label %ehcleanup106

lpad54:                                           ; preds = %invoke.cont56, %invoke.cont55, %invoke.cont53
  %25 = landingpad { ptr, i32 }
          cleanup
  %26 = extractvalue { ptr, i32 } %25, 0
  store ptr %26, ptr %exn.slot, align 8
  %27 = extractvalue { ptr, i32 } %25, 1
  store i32 %27, ptr %ehselector.slot, align 4
  br label %ehcleanup105

lpad58:                                           ; preds = %sw.epilog, %if.then101, %invoke.cont97, %sw.bb96, %sw.bb93, %if.end91, %if.then89, %invoke.cont85, %land.lhs.true, %sw.bb, %if.else77, %if.then74, %if.else71, %if.then61, %invoke.cont57
  %28 = landingpad { ptr, i32 }
          cleanup
  %29 = extractvalue { ptr, i32 } %28, 0
  store ptr %29, ptr %exn.slot, align 8
  %30 = extractvalue { ptr, i32 } %28, 1
  store i32 %30, ptr %ehselector.slot, align 4
  br label %ehcleanup

lpad63:                                           ; preds = %invoke.cont67, %invoke.cont65, %invoke.cont64, %invoke.cont62
  %31 = landingpad { ptr, i32 }
          cleanup
  %32 = extractvalue { ptr, i32 } %31, 0
  store ptr %32, ptr %exn.slot, align 8
  %33 = extractvalue { ptr, i32 } %31, 1
  store i32 %33, ptr %ehselector.slot, align 4
  call void @_ZN7svectorIN3sat7literalEjED2Ev(ptr noundef nonnull align 8 dereferenceable(8) %assumptions) #3
  br label %ehcleanup

if.else71:                                        ; preds = %invoke.cont59
  %call73 = invoke noundef zeroext i1 @_ZNK10params_ref8get_boolEPKcb(ptr noundef nonnull align 8 dereferenceable(8) %par, ptr noundef @.str.15, i1 noundef zeroext false)
          to label %invoke.cont72 unwind label %lpad58

invoke.cont72:                                    ; preds = %if.else71
  br i1 %call73, label %if.then74, label %if.else77

if.then74:                                        ; preds = %invoke.cont72
  %call76 = invoke noundef i32 @_Z14solve_parallelRN3sat6solverE(ptr noundef nonnull align 8 dereferenceable(4408) %solver)
          to label %invoke.cont75 unwind label %lpad58

invoke.cont75:                                    ; preds = %if.then74
  store i32 %call76, ptr %r, align 4
  br label %if.end80

if.else77:                                        ; preds = %invoke.cont72
  %34 = load ptr, ptr @_ZL8g_solver, align 8
  %call79 = invoke noundef i32 @_ZN3sat6solver5checkEjPKNS_7literalE(ptr noundef nonnull align 8 dereferenceable(4408) %34, i32 noundef 0, ptr noundef null)
          to label %invoke.cont78 unwind label %lpad58

invoke.cont78:                                    ; preds = %if.else77
  store i32 %call79, ptr %r, align 4
  br label %if.end80

if.end80:                                         ; preds = %invoke.cont78, %invoke.cont75
  br label %if.end81

if.end81:                                         ; preds = %if.end80, %invoke.cont69
  %35 = load i32, ptr %r, align 4
  switch i32 %35, label %sw.epilog [
    i32 1, label %sw.bb
    i32 0, label %sw.bb93
    i32 -1, label %sw.bb96
  ]

sw.bb:                                            ; preds = %if.end81
  %call83 = invoke noundef nonnull align 8 dereferenceable(8) ptr @_ZStlsISt11char_traitsIcEERSt13basic_ostreamIcT_ES5_PKc(ptr noundef nonnull align 8 dereferenceable(8) @_ZSt4cout, ptr noundef @.str.16)
          to label %invoke.cont82 unwind label %lpad58

invoke.cont82:                                    ; preds = %sw.bb
  %36 = load ptr, ptr %file_name.addr, align 8
  %tobool84 = icmp ne ptr %36, null
  br i1 %tobool84, label %land.lhs.true, label %if.end91

land.lhs.true:                                    ; preds = %invoke.cont82
  %call86 = invoke noundef nonnull align 8 dereferenceable(8) ptr @_ZN7gparams7get_refEv()
          to label %invoke.cont85 unwind label %lpad58

invoke.cont85:                                    ; preds = %land.lhs.true
  %call88 = invoke noundef zeroext i1 @_ZNK10params_ref8get_boolEPKcb(ptr noundef nonnull align 8 dereferenceable(8) %call86, ptr noundef @.str.10, i1 noundef zeroext false)
          to label %invoke.cont87 unwind label %lpad58

invoke.cont87:                                    ; preds = %invoke.cont85
  br i1 %call88, label %if.then89, label %if.end91

if.then89:                                        ; preds = %invoke.cont87
  %37 = load ptr, ptr %file_name.addr, align 8
  invoke void @_Z15verify_solutionPKc(ptr noundef %37)
          to label %invoke.cont90 unwind label %lpad58

invoke.cont90:                                    ; preds = %if.then89
  br label %if.end91

if.end91:                                         ; preds = %invoke.cont90, %invoke.cont87, %invoke.cont82
  %38 = load ptr, ptr @_ZL8g_solver, align 8
  invoke void @_ZL13display_modelRKN3sat6solverE(ptr noundef nonnull align 8 dereferenceable(4408) %38)
          to label %invoke.cont92 unwind label %lpad58

invoke.cont92:                                    ; preds = %if.end91
  br label %sw.epilog

sw.bb93:                                          ; preds = %if.end81
  %call95 = invoke noundef nonnull align 8 dereferenceable(8) ptr @_ZStlsISt11char_traitsIcEERSt13basic_ostreamIcT_ES5_PKc(ptr noundef nonnull align 8 dereferenceable(8) @_ZSt4cout, ptr noundef @.str.17)
          to label %invoke.cont94 unwind label %lpad58

invoke.cont94:                                    ; preds = %sw.bb93
  br label %sw.epilog

sw.bb96:                                          ; preds = %if.end81
  %call98 = invoke noundef nonnull align 8 dereferenceable(8) ptr @_ZStlsISt11char_traitsIcEERSt13basic_ostreamIcT_ES5_PKc(ptr noundef nonnull align 8 dereferenceable(8) @_ZSt4cout, ptr noundef @.str.18)
          to label %invoke.cont97 unwind label %lpad58

invoke.cont97:                                    ; preds = %sw.bb96
  %call100 = invoke noundef zeroext i1 @_ZNK10params_ref8get_boolEPKcb(ptr noundef nonnull align 8 dereferenceable(8) %p, ptr noundef @.str.14, i1 noundef zeroext false)
          to label %invoke.cont99 unwind label %lpad58

invoke.cont99:                                    ; preds = %invoke.cont97
  br i1 %call100, label %if.then101, label %if.end103

if.then101:                                       ; preds = %invoke.cont99
  %39 = load ptr, ptr @_ZL8g_solver, align 8
  invoke void @_ZL12display_coreRKN3sat6solverERK6vectorI7svectorINS_7literalEjELb1EjE(ptr noundef nonnull align 8 dereferenceable(4408) %39, ptr noundef nonnull align 8 dereferenceable(8) %tracking_clauses)
          to label %invoke.cont102 unwind label %lpad58

invoke.cont102:                                   ; preds = %if.then101
  br label %if.end103

if.end103:                                        ; preds = %invoke.cont102, %invoke.cont99
  br label %sw.epilog

sw.epilog:                                        ; preds = %if.end103, %invoke.cont94, %invoke.cont92, %if.end81
  invoke void @_ZL18display_statisticsv()
          to label %invoke.cont104 unwind label %lpad58

invoke.cont104:                                   ; preds = %sw.epilog
  call void @_ZN3sat6solverD1Ev(ptr noundef nonnull align 8 dereferenceable(4408) %solver2) #3
  call void @_ZN10params_refD1Ev(ptr noundef nonnull align 8 dereferenceable(8) %p2) #3
  call void @_ZN6vectorI7svectorIN3sat7literalEjELb1EjED2Ev(ptr noundef nonnull align 8 dereferenceable(8) %tracking_clauses) #3
  call void @_ZN3sat6solverD1Ev(ptr noundef nonnull align 8 dereferenceable(4408) %solver) #3
  call void @_ZN8reslimitD2Ev(ptr noundef nonnull align 8 dereferenceable(40) %limit) #3
  call void @_ZN10sat_paramsD2Ev(ptr noundef nonnull align 8 dereferenceable(16) %sp) #3
  call void @_ZN10params_refD1Ev(ptr noundef nonnull align 8 dereferenceable(8) %par) #3
  call void @_ZN10params_refD1Ev(ptr noundef nonnull align 8 dereferenceable(8) %p) #3
  ret i32 0

ehcleanup:                                        ; preds = %lpad63, %lpad58
  call void @_ZN3sat6solverD1Ev(ptr noundef nonnull align 8 dereferenceable(4408) %solver2) #3
  br label %ehcleanup105

ehcleanup105:                                     ; preds = %ehcleanup, %lpad54
  call void @_ZN10params_refD1Ev(ptr noundef nonnull align 8 dereferenceable(8) %p2) #3
  br label %ehcleanup106

ehcleanup106:                                     ; preds = %ehcleanup105, %lpad52
  call void @_ZN6vectorI7svectorIN3sat7literalEjELb1EjED2Ev(ptr noundef nonnull align 8 dereferenceable(8) %tracking_clauses) #3
  br label %ehcleanup107

ehcleanup107:                                     ; preds = %ehcleanup106, %lpad12, %lpad10
  call void @_ZN3sat6solverD1Ev(ptr noundef nonnull align 8 dereferenceable(4408) %solver) #3
  br label %ehcleanup108

ehcleanup108:                                     ; preds = %ehcleanup107, %lpad8
  call void @_ZN8reslimitD2Ev(ptr noundef nonnull align 8 dereferenceable(40) %limit) #3
  br label %ehcleanup109

ehcleanup109:                                     ; preds = %ehcleanup108, %lpad6
  call void @_ZN10sat_paramsD2Ev(ptr noundef nonnull align 8 dereferenceable(16) %sp) #3
  br label %ehcleanup110

ehcleanup110:                                     ; preds = %ehcleanup109, %lpad2
  call void @_ZN10params_refD1Ev(ptr noundef nonnull align 8 dereferenceable(8) %par) #3
  br label %ehcleanup111

ehcleanup111:                                     ; preds = %ehcleanup110, %lpad
  call void @_ZN10params_refD1Ev(ptr noundef nonnull align 8 dereferenceable(8) %p) #3
  br label %eh.resume

eh.resume:                                        ; preds = %ehcleanup111
  %exn = load ptr, ptr %exn.slot, align 8
  %sel = load i32, ptr %ehselector.slot, align 4
  %lpad.val = insertvalue { ptr, i32 } poison, ptr %exn, 0
  %lpad.val112 = insertvalue { ptr, i32 } %lpad.val, i32 %sel, 1
  resume { ptr, i32 } %lpad.val112
}

; Function Attrs: nounwind
declare i64 @clock() #2

declare void @_Z24register_on_timeout_procPFvvE(ptr noundef) #1

; Function Attrs: mustprogress uwtable
define internal void @_ZL10on_timeoutv() #5 {
entry:
  call void @_ZL18display_statisticsv()
  call void @_Exit(i32 noundef 0) #13
  unreachable
}

; Function Attrs: nounwind
declare ptr @signal(i32 noundef, ptr noundef) #2

; Function Attrs: mustprogress uwtable
define internal void @_ZL9on_ctrl_ci(i32 noundef %0) #5 {
entry:
  %.addr = alloca i32, align 4
  store i32 %0, ptr %.addr, align 4
  %call = call ptr @signal(i32 noundef 2, ptr noundef null) #3
  call void @_ZL18display_statisticsv()
  %call1 = call i32 @raise(i32 noundef 2) #3
  ret void
}

; Function Attrs: mustprogress uwtable
define linkonce_odr hidden void @_ZN10sat_paramsC2ERK10params_ref(ptr noundef nonnull align 8 dereferenceable(16) %this, ptr noundef nonnull align 8 dereferenceable(8) %_p) unnamed_addr #5 comdat align 2 {
entry:
  %this.addr = alloca ptr, align 8
  %_p.addr = alloca ptr, align 8
  store ptr %this, ptr %this.addr, align 8
  store ptr %_p, ptr %_p.addr, align 8
  %this1 = load ptr, ptr %this.addr, align 8
  %p = getelementptr inbounds %struct.sat_params, ptr %this1, i32 0, i32 0
  %0 = load ptr, ptr %_p.addr, align 8
  store ptr %0, ptr %p, align 8
  %g = getelementptr inbounds %struct.sat_params, ptr %this1, i32 0, i32 1
  call void @_ZN7gparams10get_moduleEPKc(ptr sret(%class.params_ref) align 8 %g, ptr noundef @.str)
  ret void
}

declare noundef i32 @_Z19get_verbosity_levelv() #1

declare noundef zeroext i1 @_Z11is_threadedv() #1

declare void @_Z12verbose_lockv() #1

declare void @_ZNK3sat6solver14display_statusERSo(ptr noundef nonnull align 8 dereferenceable(4408), ptr noundef nonnull align 8 dereferenceable(8)) #1

declare noundef nonnull align 8 dereferenceable(8) ptr @_Z14verbose_streamv() #1

declare void @_Z14verbose_unlockv() #1

; Function Attrs: mustprogress nounwind uwtable
define linkonce_odr hidden void @_ZN6vectorI7svectorIN3sat7literalEjELb1EjEC2Ev(ptr noundef nonnull align 8 dereferenceable(8) %this) unnamed_addr #4 comdat align 2 {
entry:
  %this.addr = alloca ptr, align 8
  store ptr %this, ptr %this.addr, align 8
  %this1 = load ptr, ptr %this.addr, align 8
  %m_data = getelementptr inbounds %class.vector.38, ptr %this1, i32 0, i32 0
  store ptr null, ptr %m_data, align 8
  ret void
}

; Function Attrs: mustprogress nounwind uwtable
define linkonce_odr hidden void @_ZN10params_refC2Ev(ptr noundef nonnull align 8 dereferenceable(8) %this) unnamed_addr #4 comdat align 2 {
entry:
  %this.addr = alloca ptr, align 8
  store ptr %this, ptr %this.addr, align 8
  %this1 = load ptr, ptr %this.addr, align 8
  %m_params = getelementptr inbounds %class.params_ref, ptr %this1, i32 0, i32 0
  store ptr null, ptr %m_params, align 8
  ret void
}

declare void @_ZN10params_ref4copyERKS_(ptr noundef nonnull align 8 dereferenceable(8), ptr noundef nonnull align 8 dereferenceable(8)) #1

declare void @_ZN10params_ref7set_symEPKcRK6symbol(ptr noundef nonnull align 8 dereferenceable(8), ptr noundef, ptr noundef nonnull align 8 dereferenceable(8)) #1

; Function Attrs: mustprogress nounwind uwtable
define linkonce_odr hidden void @_ZN7svectorIN3sat7literalEjEC2Ev(ptr noundef nonnull align 8 dereferenceable(8) %this) unnamed_addr #4 comdat align 2 {
entry:
  %this.addr = alloca ptr, align 8
  store ptr %this, ptr %this.addr, align 8
  %this1 = load ptr, ptr %this.addr, align 8
  %0 = getelementptr inbounds i8, ptr %this1, i64 0
  call void @llvm.memset.p0.i64(ptr align 8 %0, i8 0, i64 8, i1 false)
  call void @_ZN6vectorIN3sat7literalELb0EjEC2Ev(ptr noundef nonnull align 8 dereferenceable(8) %this1) #3
  ret void
}

; Function Attrs: mustprogress uwtable
define internal void @_ZL13track_clausesRKN3sat6solverERS0_R7svectorINS_7literalEjER6vectorIS6_Lb1EjE(ptr noundef nonnull align 8 dereferenceable(4408) %src, ptr noundef nonnull align 8 dereferenceable(4408) %dst, ptr noundef nonnull align 8 dereferenceable(8) %assumptions, ptr noundef nonnull align 8 dereferenceable(8) %tracking_clauses) #5 personality ptr @__gxx_personality_v0 {
entry:
  %src.addr = alloca ptr, align 8
  %dst.addr = alloca ptr, align 8
  %assumptions.addr = alloca ptr, align 8
  %tracking_clauses.addr = alloca ptr, align 8
  %v = alloca i32, align 4
  %lits = alloca %class.svector.34, align 8
  %lit = alloca %"class.sat::literal", align 4
  %exn.slot = alloca ptr, align 8
  %ehselector.slot = alloca i32, align 4
  %it = alloca ptr, align 8
  %end = alloca ptr, align 8
  %bin_clauses = alloca %class.svector.44, align 8
  %v15 = alloca i32, align 4
  %sign = alloca i8, align 1
  %ref.tmp = alloca %"class.sat::literal", align 4
  %cls = alloca ptr, align 8
  %i = alloca i32, align 4
  store ptr %src, ptr %src.addr, align 8
  store ptr %dst, ptr %dst.addr, align 8
  store ptr %assumptions, ptr %assumptions.addr, align 8
  store ptr %tracking_clauses, ptr %tracking_clauses.addr, align 8
  store i32 0, ptr %v, align 4
  br label %for.cond

for.cond:                                         ; preds = %for.inc, %entry
  %0 = load i32, ptr %v, align 4
  %1 = load ptr, ptr %src.addr, align 8
  %call = call noundef i32 @_ZNK3sat6solver8num_varsEv(ptr noundef nonnull align 8 dereferenceable(4408) %1)
  %cmp = icmp ult i32 %0, %call
  br i1 %cmp, label %for.body, label %for.end

for.body:                                         ; preds = %for.cond
  %2 = load ptr, ptr %dst.addr, align 8
  %call1 = call noundef i32 @_ZN3sat6solver6mk_varEbb(ptr noundef nonnull align 8 dereferenceable(4408) %2, i1 noundef zeroext false, i1 noundef zeroext true)
  br label %for.inc

for.inc:                                          ; preds = %for.body
  %3 = load i32, ptr %v, align 4
  %inc = add i32 %3, 1
  store i32 %inc, ptr %v, align 4
  br label %for.cond, !llvm.loop !8

for.end:                                          ; preds = %for.cond
  call void @_ZN7svectorIN3sat7literalEjEC2Ev(ptr noundef nonnull align 8 dereferenceable(8) %lits)
  invoke void @_ZN3sat7literalC2Ev(ptr noundef nonnull align 4 dereferenceable(4) %lit)
          to label %invoke.cont unwind label %lpad

invoke.cont:                                      ; preds = %for.end
  %4 = load ptr, ptr %src.addr, align 8
  %call3 = invoke noundef ptr @_ZNK3sat6solver13begin_clausesEv(ptr noundef nonnull align 8 dereferenceable(4408) %4)
          to label %invoke.cont2 unwind label %lpad

invoke.cont2:                                     ; preds = %invoke.cont
  store ptr %call3, ptr %it, align 8
  %5 = load ptr, ptr %src.addr, align 8
  %call5 = invoke noundef ptr @_ZNK3sat6solver11end_clausesEv(ptr noundef nonnull align 8 dereferenceable(4408) %5)
          to label %invoke.cont4 unwind label %lpad

invoke.cont4:                                     ; preds = %invoke.cont2
  store ptr %call5, ptr %end, align 8
  invoke void @_ZN7svectorISt4pairIN3sat7literalES2_EjEC2Ev(ptr noundef nonnull align 8 dereferenceable(8) %bin_clauses)
          to label %invoke.cont6 unwind label %lpad

invoke.cont6:                                     ; preds = %invoke.cont4
  %6 = load ptr, ptr %src.addr, align 8
  invoke void @_ZNK3sat6solver19collect_bin_clausesER7svectorISt4pairINS_7literalES3_EjEbb(ptr noundef nonnull align 8 dereferenceable(4408) %6, ptr noundef nonnull align 8 dereferenceable(8) %bin_clauses, i1 noundef zeroext false, i1 noundef zeroext false)
          to label %invoke.cont8 unwind label %lpad7

invoke.cont8:                                     ; preds = %invoke.cont6
  %7 = load ptr, ptr %tracking_clauses.addr, align 8
  %8 = load ptr, ptr %src.addr, align 8
  %call10 = invoke noundef i32 @_ZNK3sat6solver8num_varsEv(ptr noundef nonnull align 8 dereferenceable(4408) %8)
          to label %invoke.cont9 unwind label %lpad7

invoke.cont9:                                     ; preds = %invoke.cont8
  %mul = mul i32 2, %call10
  %9 = load ptr, ptr %end, align 8
  %10 = load ptr, ptr %it, align 8
  %sub.ptr.lhs.cast = ptrtoint ptr %9 to i64
  %sub.ptr.rhs.cast = ptrtoint ptr %10 to i64
  %sub.ptr.sub = sub i64 %sub.ptr.lhs.cast, %sub.ptr.rhs.cast
  %sub.ptr.div = sdiv exact i64 %sub.ptr.sub, 8
  %conv = trunc i64 %sub.ptr.div to i32
  %add = add i32 %mul, %conv
  %call12 = invoke noundef i32 @_ZNK6vectorISt4pairIN3sat7literalES2_ELb0EjE4sizeEv(ptr noundef nonnull align 8 dereferenceable(8) %bin_clauses)
          to label %invoke.cont11 unwind label %lpad7

invoke.cont11:                                    ; preds = %invoke.cont9
  %add13 = add i32 %add, %call12
  invoke void @_ZN6vectorI7svectorIN3sat7literalEjELb1EjE7reserveEj(ptr noundef nonnull align 8 dereferenceable(8) %7, i32 noundef %add13)
          to label %invoke.cont14 unwind label %lpad7

invoke.cont14:                                    ; preds = %invoke.cont11
  store i32 1, ptr %v15, align 4
  br label %for.cond16

for.cond16:                                       ; preds = %for.inc32, %invoke.cont14
  %11 = load i32, ptr %v15, align 4
  %12 = load ptr, ptr %src.addr, align 8
  %call18 = invoke noundef i32 @_ZNK3sat6solver8num_varsEv(ptr noundef nonnull align 8 dereferenceable(4408) %12)
          to label %invoke.cont17 unwind label %lpad7

invoke.cont17:                                    ; preds = %for.cond16
  %cmp19 = icmp ult i32 %11, %call18
  br i1 %cmp19, label %for.body20, label %for.end34

for.body20:                                       ; preds = %invoke.cont17
  %13 = load ptr, ptr %src.addr, align 8
  %14 = load i32, ptr %v15, align 4
  %call22 = invoke noundef i32 @_ZNK3sat6solver5valueEj(ptr noundef nonnull align 8 dereferenceable(4408) %13, i32 noundef %14)
          to label %invoke.cont21 unwind label %lpad7

invoke.cont21:                                    ; preds = %for.body20
  %cmp23 = icmp ne i32 %call22, 0
  br i1 %cmp23, label %if.then, label %if.end

if.then:                                          ; preds = %invoke.cont21
  %15 = load ptr, ptr %src.addr, align 8
  %16 = load i32, ptr %v15, align 4
  %call25 = invoke noundef i32 @_ZNK3sat6solver5valueEj(ptr noundef nonnull align 8 dereferenceable(4408) %15, i32 noundef %16)
          to label %invoke.cont24 unwind label %lpad7

invoke.cont24:                                    ; preds = %if.then
  %cmp26 = icmp eq i32 %call25, -1
  %frombool = zext i1 %cmp26 to i8
  store i8 %frombool, ptr %sign, align 1
  invoke void @_ZN6vectorIN3sat7literalELb0EjE5resetEv(ptr noundef nonnull align 8 dereferenceable(8) %lits)
          to label %invoke.cont27 unwind label %lpad7

invoke.cont27:                                    ; preds = %invoke.cont24
  %17 = load i32, ptr %v15, align 4
  %18 = load i8, ptr %sign, align 1
  %tobool = trunc i8 %18 to i1
  invoke void @_ZN3sat7literalC2Ejb(ptr noundef nonnull align 4 dereferenceable(4) %ref.tmp, i32 noundef %17, i1 noundef zeroext %tobool)
          to label %invoke.cont28 unwind label %lpad7

invoke.cont28:                                    ; preds = %invoke.cont27
  %call30 = invoke noundef nonnull align 8 dereferenceable(8) ptr @_ZN6vectorIN3sat7literalELb0EjE9push_backEOS1_(ptr noundef nonnull align 8 dereferenceable(8) %lits, ptr noundef nonnull align 4 dereferenceable(4) %ref.tmp)
          to label %invoke.cont29 unwind label %lpad7

invoke.cont29:                                    ; preds = %invoke.cont28
  %19 = load ptr, ptr %dst.addr, align 8
  %20 = load ptr, ptr %assumptions.addr, align 8
  %21 = load ptr, ptr %tracking_clauses.addr, align 8
  invoke void @_ZL12track_clauseRN3sat6solverER7svectorINS_7literalEjES5_R6vectorIS4_Lb1EjE(ptr noundef nonnull align 8 dereferenceable(4408) %19, ptr noundef nonnull align 8 dereferenceable(8) %lits, ptr noundef nonnull align 8 dereferenceable(8) %20, ptr noundef nonnull align 8 dereferenceable(8) %21)
          to label %invoke.cont31 unwind label %lpad7

invoke.cont31:                                    ; preds = %invoke.cont29
  br label %if.end

lpad:                                             ; preds = %invoke.cont4, %invoke.cont2, %invoke.cont, %for.end
  %22 = landingpad { ptr, i32 }
          cleanup
  %23 = extractvalue { ptr, i32 } %22, 0
  store ptr %23, ptr %exn.slot, align 8
  %24 = extractvalue { ptr, i32 } %22, 1
  store i32 %24, ptr %ehselector.slot, align 4
  br label %ehcleanup

lpad7:                                            ; preds = %invoke.cont66, %invoke.cont64, %invoke.cont62, %invoke.cont60, %invoke.cont59, %for.body58, %for.cond54, %invoke.cont50, %invoke.cont48, %invoke.cont41, %invoke.cont39, %invoke.cont38, %for.body37, %invoke.cont29, %invoke.cont28, %invoke.cont27, %invoke.cont24, %if.then, %for.body20, %for.cond16, %invoke.cont11, %invoke.cont9, %invoke.cont8, %invoke.cont6
  %25 = landingpad { ptr, i32 }
          cleanup
  %26 = extractvalue { ptr, i32 } %25, 0
  store ptr %26, ptr %exn.slot, align 8
  %27 = extractvalue { ptr, i32 } %25, 1
  store i32 %27, ptr %ehselector.slot, align 4
  call void @_ZN7svectorISt4pairIN3sat7literalES2_EjED2Ev(ptr noundef nonnull align 8 dereferenceable(8) %bin_clauses) #3
  br label %ehcleanup

if.end:                                           ; preds = %invoke.cont31, %invoke.cont21
  br label %for.inc32

for.inc32:                                        ; preds = %if.end
  %28 = load i32, ptr %v15, align 4
  %inc33 = add i32 %28, 1
  store i32 %inc33, ptr %v15, align 4
  br label %for.cond16, !llvm.loop !9

for.end34:                                        ; preds = %invoke.cont17
  br label %for.cond35

for.cond35:                                       ; preds = %for.inc52, %for.end34
  %29 = load ptr, ptr %it, align 8
  %30 = load ptr, ptr %end, align 8
  %cmp36 = icmp ne ptr %29, %30
  br i1 %cmp36, label %for.body37, label %for.end53

for.body37:                                       ; preds = %for.cond35
  invoke void @_ZN6vectorIN3sat7literalELb0EjE5resetEv(ptr noundef nonnull align 8 dereferenceable(8) %lits)
          to label %invoke.cont38 unwind label %lpad7

invoke.cont38:                                    ; preds = %for.body37
  %31 = load ptr, ptr %it, align 8
  %32 = load ptr, ptr %31, align 8
  store ptr %32, ptr %cls, align 8
  %33 = load ptr, ptr %cls, align 8
  %call40 = invoke noundef ptr @_ZN3sat6clause3endEv(ptr noundef nonnull align 4 dereferenceable(20) %33)
          to label %invoke.cont39 unwind label %lpad7

invoke.cont39:                                    ; preds = %invoke.cont38
  %34 = load ptr, ptr %cls, align 8
  %call42 = invoke noundef ptr @_ZN3sat6clause5beginEv(ptr noundef nonnull align 4 dereferenceable(20) %34)
          to label %invoke.cont41 unwind label %lpad7

invoke.cont41:                                    ; preds = %invoke.cont39
  %sub.ptr.lhs.cast43 = ptrtoint ptr %call40 to i64
  %sub.ptr.rhs.cast44 = ptrtoint ptr %call42 to i64
  %sub.ptr.sub45 = sub i64 %sub.ptr.lhs.cast43, %sub.ptr.rhs.cast44
  %sub.ptr.div46 = sdiv exact i64 %sub.ptr.sub45, 4
  %conv47 = trunc i64 %sub.ptr.div46 to i32
  %35 = load ptr, ptr %cls, align 8
  %call49 = invoke noundef ptr @_ZN3sat6clause5beginEv(ptr noundef nonnull align 4 dereferenceable(20) %35)
          to label %invoke.cont48 unwind label %lpad7

invoke.cont48:                                    ; preds = %invoke.cont41
  invoke void @_ZN6vectorIN3sat7literalELb0EjE6appendEjPKS1_(ptr noundef nonnull align 8 dereferenceable(8) %lits, i32 noundef %conv47, ptr noundef %call49)
          to label %invoke.cont50 unwind label %lpad7

invoke.cont50:                                    ; preds = %invoke.cont48
  %36 = load ptr, ptr %dst.addr, align 8
  %37 = load ptr, ptr %assumptions.addr, align 8
  %38 = load ptr, ptr %tracking_clauses.addr, align 8
  invoke void @_ZL12track_clauseRN3sat6solverER7svectorINS_7literalEjES5_R6vectorIS4_Lb1EjE(ptr noundef nonnull align 8 dereferenceable(4408) %36, ptr noundef nonnull align 8 dereferenceable(8) %lits, ptr noundef nonnull align 8 dereferenceable(8) %37, ptr noundef nonnull align 8 dereferenceable(8) %38)
          to label %invoke.cont51 unwind label %lpad7

invoke.cont51:                                    ; preds = %invoke.cont50
  br label %for.inc52

for.inc52:                                        ; preds = %invoke.cont51
  %39 = load ptr, ptr %it, align 8
  %incdec.ptr = getelementptr inbounds ptr, ptr %39, i32 1
  store ptr %incdec.ptr, ptr %it, align 8
  br label %for.cond35, !llvm.loop !10

for.end53:                                        ; preds = %for.cond35
  store i32 0, ptr %i, align 4
  br label %for.cond54

for.cond54:                                       ; preds = %for.inc69, %for.end53
  %40 = load i32, ptr %i, align 4
  %call56 = invoke noundef i32 @_ZNK6vectorISt4pairIN3sat7literalES2_ELb0EjE4sizeEv(ptr noundef nonnull align 8 dereferenceable(8) %bin_clauses)
          to label %invoke.cont55 unwind label %lpad7

invoke.cont55:                                    ; preds = %for.cond54
  %cmp57 = icmp ult i32 %40, %call56
  br i1 %cmp57, label %for.body58, label %for.end71

for.body58:                                       ; preds = %invoke.cont55
  invoke void @_ZN6vectorIN3sat7literalELb0EjE5resetEv(ptr noundef nonnull align 8 dereferenceable(8) %lits)
          to label %invoke.cont59 unwind label %lpad7

invoke.cont59:                                    ; preds = %for.body58
  %41 = load i32, ptr %i, align 4
  %call61 = invoke noundef nonnull align 4 dereferenceable(8) ptr @_ZN6vectorISt4pairIN3sat7literalES2_ELb0EjEixEj(ptr noundef nonnull align 8 dereferenceable(8) %bin_clauses, i32 noundef %41)
          to label %invoke.cont60 unwind label %lpad7

invoke.cont60:                                    ; preds = %invoke.cont59
  %first = getelementptr inbounds %"struct.std::pair", ptr %call61, i32 0, i32 0
  %call63 = invoke noundef nonnull align 8 dereferenceable(8) ptr @_ZN6vectorIN3sat7literalELb0EjE9push_backERKS1_(ptr noundef nonnull align 8 dereferenceable(8) %lits, ptr noundef nonnull align 4 dereferenceable(4) %first)
          to label %invoke.cont62 unwind label %lpad7

invoke.cont62:                                    ; preds = %invoke.cont60
  %42 = load i32, ptr %i, align 4
  %call65 = invoke noundef nonnull align 4 dereferenceable(8) ptr @_ZN6vectorISt4pairIN3sat7literalES2_ELb0EjEixEj(ptr noundef nonnull align 8 dereferenceable(8) %bin_clauses, i32 noundef %42)
          to label %invoke.cont64 unwind label %lpad7

invoke.cont64:                                    ; preds = %invoke.cont62
  %second = getelementptr inbounds %"struct.std::pair", ptr %call65, i32 0, i32 1
  %call67 = invoke noundef nonnull align 8 dereferenceable(8) ptr @_ZN6vectorIN3sat7literalELb0EjE9push_backERKS1_(ptr noundef nonnull align 8 dereferenceable(8) %lits, ptr noundef nonnull align 4 dereferenceable(4) %second)
          to label %invoke.cont66 unwind label %lpad7

invoke.cont66:                                    ; preds = %invoke.cont64
  %43 = load ptr, ptr %dst.addr, align 8
  %44 = load ptr, ptr %assumptions.addr, align 8
  %45 = load ptr, ptr %tracking_clauses.addr, align 8
  invoke void @_ZL12track_clauseRN3sat6solverER7svectorINS_7literalEjES5_R6vectorIS4_Lb1EjE(ptr noundef nonnull align 8 dereferenceable(4408) %43, ptr noundef nonnull align 8 dereferenceable(8) %lits, ptr noundef nonnull align 8 dereferenceable(8) %44, ptr noundef nonnull align 8 dereferenceable(8) %45)
          to label %invoke.cont68 unwind label %lpad7

invoke.cont68:                                    ; preds = %invoke.cont66
  br label %for.inc69

for.inc69:                                        ; preds = %invoke.cont68
  %46 = load i32, ptr %i, align 4
  %inc70 = add i32 %46, 1
  store i32 %inc70, ptr %i, align 4
  br label %for.cond54, !llvm.loop !11

for.end71:                                        ; preds = %invoke.cont55
  call void @_ZN7svectorISt4pairIN3sat7literalES2_EjED2Ev(ptr noundef nonnull align 8 dereferenceable(8) %bin_clauses) #3
  call void @_ZN7svectorIN3sat7literalEjED2Ev(ptr noundef nonnull align 8 dereferenceable(8) %lits) #3
  ret void

ehcleanup:                                        ; preds = %lpad7, %lpad
  call void @_ZN7svectorIN3sat7literalEjED2Ev(ptr noundef nonnull align 8 dereferenceable(8) %lits) #3
  br label %eh.resume

eh.resume:                                        ; preds = %ehcleanup
  %exn = load ptr, ptr %exn.slot, align 8
  %sel = load i32, ptr %ehselector.slot, align 4
  %lpad.val = insertvalue { ptr, i32 } poison, ptr %exn, 0
  %lpad.val72 = insertvalue { ptr, i32 } %lpad.val, i32 %sel, 1
  resume { ptr, i32 } %lpad.val72
}

; Function Attrs: mustprogress nounwind uwtable
define linkonce_odr hidden noundef i32 @_ZNK6vectorIN3sat7literalELb0EjE4sizeEv(ptr noundef nonnull align 8 dereferenceable(8) %this) #4 comdat align 2 {
entry:
  %retval = alloca i32, align 4
  %this.addr = alloca ptr, align 8
  store ptr %this, ptr %this.addr, align 8
  %this1 = load ptr, ptr %this.addr, align 8
  %m_data = getelementptr inbounds %class.vector.35, ptr %this1, i32 0, i32 0
  %0 = load ptr, ptr %m_data, align 8
  %cmp = icmp eq ptr %0, null
  br i1 %cmp, label %if.then, label %if.end

if.then:                                          ; preds = %entry
  store i32 0, ptr %retval, align 4
  br label %return

if.end:                                           ; preds = %entry
  %m_data2 = getelementptr inbounds %class.vector.35, ptr %this1, i32 0, i32 0
  %1 = load ptr, ptr %m_data2, align 8
  %arrayidx = getelementptr inbounds i32, ptr %1, i64 -1
  %2 = load i32, ptr %arrayidx, align 4
  store i32 %2, ptr %retval, align 4
  br label %return

return:                                           ; preds = %if.end, %if.then
  %3 = load i32, ptr %retval, align 4
  ret i32 %3
}

; Function Attrs: mustprogress nounwind uwtable
define linkonce_odr hidden noundef ptr @_ZNK6vectorIN3sat7literalELb0EjE4dataEv(ptr noundef nonnull align 8 dereferenceable(8) %this) #4 comdat align 2 {
entry:
  %this.addr = alloca ptr, align 8
  store ptr %this, ptr %this.addr, align 8
  %this1 = load ptr, ptr %this.addr, align 8
  %m_data = getelementptr inbounds %class.vector.35, ptr %this1, i32 0, i32 0
  %0 = load ptr, ptr %m_data, align 8
  ret ptr %0
}

; Function Attrs: mustprogress nounwind uwtable
define linkonce_odr hidden void @_ZN7svectorIN3sat7literalEjED2Ev(ptr noundef nonnull align 8 dereferenceable(8) %this) unnamed_addr #4 comdat align 2 {
entry:
  %this.addr = alloca ptr, align 8
  store ptr %this, ptr %this.addr, align 8
  %this1 = load ptr, ptr %this.addr, align 8
  call void @_ZN6vectorIN3sat7literalELb0EjED2Ev(ptr noundef nonnull align 8 dereferenceable(8) %this1) #3
  ret void
}

; Function Attrs: mustprogress uwtable
define internal void @_ZL13display_modelRKN3sat6solverE(ptr noundef nonnull align 8 dereferenceable(4408) %s) #5 {
entry:
  %s.addr = alloca ptr, align 8
  %m = alloca ptr, align 8
  %i = alloca i32, align 4
  store ptr %s, ptr %s.addr, align 8
  %0 = load ptr, ptr %s.addr, align 8
  %call = call noundef nonnull align 8 dereferenceable(8) ptr @_ZNK3sat6solver9get_modelEv(ptr noundef nonnull align 8 dereferenceable(4408) %0)
  store ptr %call, ptr %m, align 8
  %call1 = call noundef nonnull align 8 dereferenceable(8) ptr @_ZStlsISt11char_traitsIcEERSt13basic_ostreamIcT_ES5_PKc(ptr noundef nonnull align 8 dereferenceable(8) @_ZSt4cout, ptr noundef @.str.22)
  store i32 1, ptr %i, align 4
  br label %for.cond

for.cond:                                         ; preds = %for.inc, %entry
  %1 = load i32, ptr %i, align 4
  %2 = load ptr, ptr %m, align 8
  %call2 = call noundef i32 @_ZNK6vectorI5lboolLb0EjE4sizeEv(ptr noundef nonnull align 8 dereferenceable(8) %2)
  %cmp = icmp ult i32 %1, %call2
  br i1 %cmp, label %for.body, label %for.end

for.body:                                         ; preds = %for.cond
  %3 = load ptr, ptr %m, align 8
  %4 = load i32, ptr %i, align 4
  %call3 = call noundef nonnull align 4 dereferenceable(4) ptr @_ZNK6vectorI5lboolLb0EjEixEj(ptr noundef nonnull align 8 dereferenceable(8) %3, i32 noundef %4)
  %5 = load i32, ptr %call3, align 4
  switch i32 %5, label %sw.epilog [
    i32 -1, label %sw.bb
    i32 0, label %sw.bb7
    i32 1, label %sw.bb8
  ]

sw.bb:                                            ; preds = %for.body
  %call4 = call noundef nonnull align 8 dereferenceable(8) ptr @_ZStlsISt11char_traitsIcEERSt13basic_ostreamIcT_ES5_PKc(ptr noundef nonnull align 8 dereferenceable(8) @_ZSt4cout, ptr noundef @.str.23)
  %6 = load i32, ptr %i, align 4
  %call5 = call noundef nonnull align 8 dereferenceable(8) ptr @_ZNSolsEj(ptr noundef nonnull align 8 dereferenceable(8) %call4, i32 noundef %6)
  %call6 = call noundef nonnull align 8 dereferenceable(8) ptr @_ZStlsISt11char_traitsIcEERSt13basic_ostreamIcT_ES5_PKc(ptr noundef nonnull align 8 dereferenceable(8) %call5, ptr noundef @.str.24)
  br label %sw.epilog

sw.bb7:                                           ; preds = %for.body
  br label %sw.epilog

sw.bb8:                                           ; preds = %for.body
  %7 = load i32, ptr %i, align 4
  %call9 = call noundef nonnull align 8 dereferenceable(8) ptr @_ZNSolsEj(ptr noundef nonnull align 8 dereferenceable(8) @_ZSt4cout, i32 noundef %7)
  %call10 = call noundef nonnull align 8 dereferenceable(8) ptr @_ZStlsISt11char_traitsIcEERSt13basic_ostreamIcT_ES5_PKc(ptr noundef nonnull align 8 dereferenceable(8) %call9, ptr noundef @.str.24)
  br label %sw.epilog

sw.epilog:                                        ; preds = %sw.bb8, %sw.bb7, %sw.bb, %for.body
  br label %for.inc

for.inc:                                          ; preds = %sw.epilog
  %8 = load i32, ptr %i, align 4
  %inc = add i32 %8, 1
  store i32 %inc, ptr %i, align 4
  br label %for.cond, !llvm.loop !12

for.end:                                          ; preds = %for.cond
  %call11 = call noundef nonnull align 8 dereferenceable(8) ptr @_ZStlsISt11char_traitsIcEERSt13basic_ostreamIcT_ES5_PKc(ptr noundef nonnull align 8 dereferenceable(8) @_ZSt4cout, ptr noundef @.str.25)
  ret void
}

; Function Attrs: mustprogress uwtable
define internal void @_ZL12display_coreRKN3sat6solverERK6vectorI7svectorINS_7literalEjELb1EjE(ptr noundef nonnull align 8 dereferenceable(4408) %s, ptr noundef nonnull align 8 dereferenceable(8) %tracking_clauses) #5 {
entry:
  %s.addr = alloca ptr, align 8
  %tracking_clauses.addr = alloca ptr, align 8
  %c = alloca ptr, align 8
  %i = alloca i32, align 4
  %cls = alloca ptr, align 8
  %j = alloca i32, align 4
  %agg.tmp = alloca %"class.sat::literal", align 4
  store ptr %s, ptr %s.addr, align 8
  store ptr %tracking_clauses, ptr %tracking_clauses.addr, align 8
  %call = call noundef nonnull align 8 dereferenceable(8) ptr @_ZStlsISt11char_traitsIcEERSt13basic_ostreamIcT_ES5_PKc(ptr noundef nonnull align 8 dereferenceable(8) @_ZSt4cout, ptr noundef @.str.26)
  %0 = load ptr, ptr %s.addr, align 8
  %call1 = call noundef nonnull align 8 dereferenceable(8) ptr @_ZNK3sat6solver8get_coreEv(ptr noundef nonnull align 8 dereferenceable(4408) %0)
  store ptr %call1, ptr %c, align 8
  store i32 0, ptr %i, align 4
  br label %for.cond

for.cond:                                         ; preds = %for.inc14, %entry
  %1 = load i32, ptr %i, align 4
  %2 = load ptr, ptr %c, align 8
  %call2 = call noundef i32 @_ZNK6vectorIN3sat7literalELb0EjE4sizeEv(ptr noundef nonnull align 8 dereferenceable(8) %2)
  %cmp = icmp ult i32 %1, %call2
  br i1 %cmp, label %for.body, label %for.end16

for.body:                                         ; preds = %for.cond
  %3 = load ptr, ptr %tracking_clauses.addr, align 8
  %4 = load ptr, ptr %c, align 8
  %5 = load i32, ptr %i, align 4
  %call3 = call noundef nonnull align 4 dereferenceable(4) ptr @_ZNK6vectorIN3sat7literalELb0EjEixEj(ptr noundef nonnull align 8 dereferenceable(8) %4, i32 noundef %5)
  %call4 = call noundef i32 @_ZNK3sat7literal3varEv(ptr noundef nonnull align 4 dereferenceable(4) %call3)
  %call5 = call noundef nonnull align 8 dereferenceable(8) ptr @_ZNK6vectorI7svectorIN3sat7literalEjELb1EjEixEj(ptr noundef nonnull align 8 dereferenceable(8) %3, i32 noundef %call4)
  store ptr %call5, ptr %cls, align 8
  store i32 0, ptr %j, align 4
  br label %for.cond6

for.cond6:                                        ; preds = %for.inc, %for.body
  %6 = load i32, ptr %j, align 4
  %7 = load ptr, ptr %cls, align 8
  %call7 = call noundef i32 @_ZNK6vectorIN3sat7literalELb0EjE4sizeEv(ptr noundef nonnull align 8 dereferenceable(8) %7)
  %cmp8 = icmp ult i32 %6, %call7
  br i1 %cmp8, label %for.body9, label %for.end

for.body9:                                        ; preds = %for.cond6
  %8 = load ptr, ptr %cls, align 8
  %9 = load i32, ptr %j, align 4
  %call10 = call noundef nonnull align 4 dereferenceable(4) ptr @_ZNK6vectorIN3sat7literalELb0EjEixEj(ptr noundef nonnull align 8 dereferenceable(8) %8, i32 noundef %9)
  call void @llvm.memcpy.p0.p0.i64(ptr align 4 %agg.tmp, ptr align 4 %call10, i64 4, i1 false)
  %coerce.dive = getelementptr inbounds %"class.sat::literal", ptr %agg.tmp, i32 0, i32 0
  %10 = load i32, ptr %coerce.dive, align 4
  %call11 = call noundef nonnull align 8 dereferenceable(8) ptr @_ZN3satlsERSoNS_7literalE(ptr noundef nonnull align 8 dereferenceable(8) @_ZSt4cout, i32 %10)
  %call12 = call noundef nonnull align 8 dereferenceable(8) ptr @_ZStlsISt11char_traitsIcEERSt13basic_ostreamIcT_ES5_PKc(ptr noundef nonnull align 8 dereferenceable(8) %call11, ptr noundef @.str.24)
  br label %for.inc

for.inc:                                          ; preds = %for.body9
  %11 = load i32, ptr %j, align 4
  %inc = add i32 %11, 1
  store i32 %inc, ptr %j, align 4
  br label %for.cond6, !llvm.loop !13

for.end:                                          ; preds = %for.cond6
  %call13 = call noundef nonnull align 8 dereferenceable(8) ptr @_ZStlsISt11char_traitsIcEERSt13basic_ostreamIcT_ES5_PKc(ptr noundef nonnull align 8 dereferenceable(8) @_ZSt4cout, ptr noundef @.str.27)
  br label %for.inc14

for.inc14:                                        ; preds = %for.end
  %12 = load i32, ptr %i, align 4
  %inc15 = add i32 %12, 1
  store i32 %inc15, ptr %i, align 4
  br label %for.cond, !llvm.loop !14

for.end16:                                        ; preds = %for.cond
  ret void
}

; Function Attrs: mustprogress nounwind uwtable
define linkonce_odr hidden void @_ZN6vectorI7svectorIN3sat7literalEjELb1EjED2Ev(ptr noundef nonnull align 8 dereferenceable(8) %this) unnamed_addr #4 comdat align 2 personality ptr @__gxx_personality_v0 {
entry:
  %this.addr = alloca ptr, align 8
  store ptr %this, ptr %this.addr, align 8
  %this1 = load ptr, ptr %this.addr, align 8
  invoke void @_ZN6vectorI7svectorIN3sat7literalEjELb1EjE7destroyEv(ptr noundef nonnull align 8 dereferenceable(8) %this1)
          to label %invoke.cont unwind label %terminate.lpad

invoke.cont:                                      ; preds = %entry
  ret void

terminate.lpad:                                   ; preds = %entry
  %0 = landingpad { ptr, i32 }
          catch ptr null
  %1 = extractvalue { ptr, i32 } %0, 0
  call void @__clang_call_terminate(ptr %1) #13
  unreachable
}

; Function Attrs: mustprogress nounwind uwtable
define linkonce_odr hidden void @_ZN10sat_paramsD2Ev(ptr noundef nonnull align 8 dereferenceable(16) %this) unnamed_addr #4 comdat align 2 {
entry:
  %this.addr = alloca ptr, align 8
  store ptr %this, ptr %this.addr, align 8
  %this1 = load ptr, ptr %this.addr, align 8
  %g = getelementptr inbounds %struct.sat_params, ptr %this1, i32 0, i32 1
  call void @_ZN10params_refD1Ev(ptr noundef nonnull align 8 dereferenceable(8) %g) #3
  ret void
}

; Function Attrs: mustprogress nounwind uwtable
define linkonce_odr hidden void @_ZN7svectorISt4pairIPKcjEjEC2Ev(ptr noundef nonnull align 8 dereferenceable(8) %this) unnamed_addr #4 comdat align 2 {
entry:
  %this.addr = alloca ptr, align 8
  store ptr %this, ptr %this.addr, align 8
  %this1 = load ptr, ptr %this.addr, align 8
  %0 = getelementptr inbounds i8, ptr %this1, i64 0
  call void @llvm.memset.p0.i64(ptr align 8 %0, i8 0, i64 8, i1 false)
  call void @_ZN6vectorISt4pairIPKcjELb0EjEC2Ev(ptr noundef nonnull align 8 dereferenceable(8) %this1) #3
  ret void
}

; Function Attrs: mustprogress nounwind uwtable
define linkonce_odr hidden void @_ZN7svectorISt4pairIPKcdEjEC2Ev(ptr noundef nonnull align 8 dereferenceable(8) %this) unnamed_addr #4 comdat align 2 {
entry:
  %this.addr = alloca ptr, align 8
  store ptr %this, ptr %this.addr, align 8
  %this1 = load ptr, ptr %this.addr, align 8
  %0 = getelementptr inbounds i8, ptr %this1, i64 0
  call void @llvm.memset.p0.i64(ptr align 8 %0, i8 0, i64 8, i1 false)
  call void @_ZN6vectorISt4pairIPKcdELb0EjEC2Ev(ptr noundef nonnull align 8 dereferenceable(8) %this1) #3
  ret void
}

; Function Attrs: mustprogress nounwind uwtable
define linkonce_odr hidden void @_ZN7svectorISt4pairIPKcjEjED2Ev(ptr noundef nonnull align 8 dereferenceable(8) %this) unnamed_addr #4 comdat align 2 {
entry:
  %this.addr = alloca ptr, align 8
  store ptr %this, ptr %this.addr, align 8
  %this1 = load ptr, ptr %this.addr, align 8
  call void @_ZN6vectorISt4pairIPKcjELb0EjED2Ev(ptr noundef nonnull align 8 dereferenceable(8) %this1) #3
  ret void
}

; Function Attrs: nocallback nofree nounwind willreturn memory(argmem: write)
declare void @llvm.memset.p0.i64(ptr nocapture writeonly, i8, i64, i1 immarg) #8

; Function Attrs: mustprogress nounwind uwtable
define linkonce_odr hidden void @_ZN6vectorISt4pairIPKcjELb0EjEC2Ev(ptr noundef nonnull align 8 dereferenceable(8) %this) unnamed_addr #4 comdat align 2 {
entry:
  %this.addr = alloca ptr, align 8
  store ptr %this, ptr %this.addr, align 8
  %this1 = load ptr, ptr %this.addr, align 8
  %m_data = getelementptr inbounds %class.vector, ptr %this1, i32 0, i32 0
  store ptr null, ptr %m_data, align 8
  ret void
}

; Function Attrs: mustprogress nounwind uwtable
define linkonce_odr hidden void @_ZN6vectorISt4pairIPKcdELb0EjEC2Ev(ptr noundef nonnull align 8 dereferenceable(8) %this) unnamed_addr #4 comdat align 2 {
entry:
  %this.addr = alloca ptr, align 8
  store ptr %this, ptr %this.addr, align 8
  %this1 = load ptr, ptr %this.addr, align 8
  %m_data = getelementptr inbounds %class.vector.1, ptr %this1, i32 0, i32 0
  store ptr null, ptr %m_data, align 8
  ret void
}

; Function Attrs: mustprogress nounwind uwtable
define linkonce_odr hidden void @_ZN6vectorISt4pairIPKcjELb0EjED2Ev(ptr noundef nonnull align 8 dereferenceable(8) %this) unnamed_addr #4 comdat align 2 personality ptr @__gxx_personality_v0 {
entry:
  %this.addr = alloca ptr, align 8
  store ptr %this, ptr %this.addr, align 8
  %this1 = load ptr, ptr %this.addr, align 8
  invoke void @_ZN6vectorISt4pairIPKcjELb0EjE7destroyEv(ptr noundef nonnull align 8 dereferenceable(8) %this1)
          to label %invoke.cont unwind label %terminate.lpad

invoke.cont:                                      ; preds = %entry
  ret void

terminate.lpad:                                   ; preds = %entry
  %0 = landingpad { ptr, i32 }
          catch ptr null
  %1 = extractvalue { ptr, i32 } %0, 0
  call void @__clang_call_terminate(ptr %1) #13
  unreachable
}

; Function Attrs: mustprogress uwtable
define linkonce_odr hidden void @_ZN6vectorISt4pairIPKcjELb0EjE7destroyEv(ptr noundef nonnull align 8 dereferenceable(8) %this) #5 comdat align 2 {
entry:
  %this.addr = alloca ptr, align 8
  store ptr %this, ptr %this.addr, align 8
  %this1 = load ptr, ptr %this.addr, align 8
  %m_data = getelementptr inbounds %class.vector, ptr %this1, i32 0, i32 0
  %0 = load ptr, ptr %m_data, align 8
  %tobool = icmp ne ptr %0, null
  br i1 %tobool, label %if.then, label %if.end

if.then:                                          ; preds = %entry
  call void @_ZN6vectorISt4pairIPKcjELb0EjE11free_memoryEv(ptr noundef nonnull align 8 dereferenceable(8) %this1)
  br label %if.end

if.end:                                           ; preds = %if.then, %entry
  ret void
}

; Function Attrs: noreturn nounwind uwtable
define linkonce_odr hidden void @__clang_call_terminate(ptr noundef %0) #9 comdat {
  %2 = call ptr @__cxa_begin_catch(ptr %0) #3
  call void @_ZSt9terminatev() #13
  unreachable
}

declare ptr @__cxa_begin_catch(ptr)

declare void @_ZSt9terminatev()

; Function Attrs: mustprogress uwtable
define linkonce_odr hidden void @_ZN6vectorISt4pairIPKcjELb0EjE11free_memoryEv(ptr noundef nonnull align 8 dereferenceable(8) %this) #5 comdat align 2 {
entry:
  %this.addr = alloca ptr, align 8
  store ptr %this, ptr %this.addr, align 8
  %this1 = load ptr, ptr %this.addr, align 8
  %m_data = getelementptr inbounds %class.vector, ptr %this1, i32 0, i32 0
  %0 = load ptr, ptr %m_data, align 8
  %add.ptr = getelementptr inbounds i32, ptr %0, i64 -2
  call void @_ZN6memory10deallocateEPv(ptr noundef %add.ptr)
  ret void
}

declare void @_ZN6memory10deallocateEPv(ptr noundef) #1

; Function Attrs: mustprogress nounwind uwtable
define linkonce_odr hidden void @_ZN7svectorISt4pairIPKcdEjED2Ev(ptr noundef nonnull align 8 dereferenceable(8) %this) unnamed_addr #4 comdat align 2 {
entry:
  %this.addr = alloca ptr, align 8
  store ptr %this, ptr %this.addr, align 8
  %this1 = load ptr, ptr %this.addr, align 8
  call void @_ZN6vectorISt4pairIPKcdELb0EjED2Ev(ptr noundef nonnull align 8 dereferenceable(8) %this1) #3
  ret void
}

; Function Attrs: mustprogress nounwind uwtable
define linkonce_odr hidden void @_ZN6vectorISt4pairIPKcdELb0EjED2Ev(ptr noundef nonnull align 8 dereferenceable(8) %this) unnamed_addr #4 comdat align 2 personality ptr @__gxx_personality_v0 {
entry:
  %this.addr = alloca ptr, align 8
  store ptr %this, ptr %this.addr, align 8
  %this1 = load ptr, ptr %this.addr, align 8
  invoke void @_ZN6vectorISt4pairIPKcdELb0EjE7destroyEv(ptr noundef nonnull align 8 dereferenceable(8) %this1)
          to label %invoke.cont unwind label %terminate.lpad

invoke.cont:                                      ; preds = %entry
  ret void

terminate.lpad:                                   ; preds = %entry
  %0 = landingpad { ptr, i32 }
          catch ptr null
  %1 = extractvalue { ptr, i32 } %0, 0
  call void @__clang_call_terminate(ptr %1) #13
  unreachable
}

; Function Attrs: mustprogress uwtable
define linkonce_odr hidden void @_ZN6vectorISt4pairIPKcdELb0EjE7destroyEv(ptr noundef nonnull align 8 dereferenceable(8) %this) #5 comdat align 2 {
entry:
  %this.addr = alloca ptr, align 8
  store ptr %this, ptr %this.addr, align 8
  %this1 = load ptr, ptr %this.addr, align 8
  %m_data = getelementptr inbounds %class.vector.1, ptr %this1, i32 0, i32 0
  %0 = load ptr, ptr %m_data, align 8
  %tobool = icmp ne ptr %0, null
  br i1 %tobool, label %if.then, label %if.end

if.then:                                          ; preds = %entry
  call void @_ZN6vectorISt4pairIPKcdELb0EjE11free_memoryEv(ptr noundef nonnull align 8 dereferenceable(8) %this1)
  br label %if.end

if.end:                                           ; preds = %if.then, %entry
  ret void
}

; Function Attrs: mustprogress uwtable
define linkonce_odr hidden void @_ZN6vectorISt4pairIPKcdELb0EjE11free_memoryEv(ptr noundef nonnull align 8 dereferenceable(8) %this) #5 comdat align 2 {
entry:
  %this.addr = alloca ptr, align 8
  store ptr %this, ptr %this.addr, align 8
  %this1 = load ptr, ptr %this.addr, align 8
  %m_data = getelementptr inbounds %class.vector.1, ptr %this1, i32 0, i32 0
  %0 = load ptr, ptr %m_data, align 8
  %add.ptr = getelementptr inbounds i32, ptr %0, i64 -2
  call void @_ZN6memory10deallocateEPv(ptr noundef %add.ptr)
  ret void
}

; Function Attrs: mustprogress nounwind uwtable
define linkonce_odr hidden void @_ZN3sat6statusC2ENS0_2stEiPKNS_10proof_hintE(ptr noundef nonnull align 8 dereferenceable(16) %this, i32 noundef %s, i32 noundef %o, ptr noundef %ps) unnamed_addr #4 comdat align 2 {
entry:
  %this.addr = alloca ptr, align 8
  %s.addr = alloca i32, align 4
  %o.addr = alloca i32, align 4
  %ps.addr = alloca ptr, align 8
  store ptr %this, ptr %this.addr, align 8
  store i32 %s, ptr %s.addr, align 4
  store i32 %o, ptr %o.addr, align 4
  store ptr %ps, ptr %ps.addr, align 8
  %this1 = load ptr, ptr %this.addr, align 8
  %m_st = getelementptr inbounds %"class.sat::status", ptr %this1, i32 0, i32 0
  %0 = load i32, ptr %s.addr, align 4
  store i32 %0, ptr %m_st, align 8
  %m_orig = getelementptr inbounds %"class.sat::status", ptr %this1, i32 0, i32 1
  %1 = load i32, ptr %o.addr, align 4
  store i32 %1, ptr %m_orig, align 4
  %m_hint = getelementptr inbounds %"class.sat::status", ptr %this1, i32 0, i32 2
  %2 = load ptr, ptr %ps.addr, align 8
  store ptr %2, ptr %m_hint, align 8
  ret void
}

; Function Attrs: mustprogress nounwind uwtable
define linkonce_odr hidden void @_ZN10ptr_vectorI8reslimitED2Ev(ptr noundef nonnull align 8 dereferenceable(8) %this) unnamed_addr #4 comdat align 2 {
entry:
  %this.addr = alloca ptr, align 8
  store ptr %this, ptr %this.addr, align 8
  %this1 = load ptr, ptr %this.addr, align 8
  call void @_ZN6vectorIP8reslimitLb0EjED2Ev(ptr noundef nonnull align 8 dereferenceable(8) %this1) #3
  ret void
}

; Function Attrs: mustprogress nounwind uwtable
define linkonce_odr hidden void @_ZN7svectorImjED2Ev(ptr noundef nonnull align 8 dereferenceable(8) %this) unnamed_addr #4 comdat align 2 {
entry:
  %this.addr = alloca ptr, align 8
  store ptr %this, ptr %this.addr, align 8
  %this1 = load ptr, ptr %this.addr, align 8
  call void @_ZN6vectorImLb0EjED2Ev(ptr noundef nonnull align 8 dereferenceable(8) %this1) #3
  ret void
}

; Function Attrs: mustprogress nounwind uwtable
define linkonce_odr hidden void @_ZN6vectorIP8reslimitLb0EjED2Ev(ptr noundef nonnull align 8 dereferenceable(8) %this) unnamed_addr #4 comdat align 2 personality ptr @__gxx_personality_v0 {
entry:
  %this.addr = alloca ptr, align 8
  store ptr %this, ptr %this.addr, align 8
  %this1 = load ptr, ptr %this.addr, align 8
  invoke void @_ZN6vectorIP8reslimitLb0EjE7destroyEv(ptr noundef nonnull align 8 dereferenceable(8) %this1)
          to label %invoke.cont unwind label %terminate.lpad

invoke.cont:                                      ; preds = %entry
  ret void

terminate.lpad:                                   ; preds = %entry
  %0 = landingpad { ptr, i32 }
          catch ptr null
  %1 = extractvalue { ptr, i32 } %0, 0
  call void @__clang_call_terminate(ptr %1) #13
  unreachable
}

; Function Attrs: mustprogress uwtable
define linkonce_odr hidden void @_ZN6vectorIP8reslimitLb0EjE7destroyEv(ptr noundef nonnull align 8 dereferenceable(8) %this) #5 comdat align 2 {
entry:
  %this.addr = alloca ptr, align 8
  store ptr %this, ptr %this.addr, align 8
  %this1 = load ptr, ptr %this.addr, align 8
  %m_data = getelementptr inbounds %class.vector.4, ptr %this1, i32 0, i32 0
  %0 = load ptr, ptr %m_data, align 8
  %tobool = icmp ne ptr %0, null
  br i1 %tobool, label %if.then, label %if.end

if.then:                                          ; preds = %entry
  call void @_ZN6vectorIP8reslimitLb0EjE11free_memoryEv(ptr noundef nonnull align 8 dereferenceable(8) %this1)
  br label %if.end

if.end:                                           ; preds = %if.then, %entry
  ret void
}

; Function Attrs: mustprogress uwtable
define linkonce_odr hidden void @_ZN6vectorIP8reslimitLb0EjE11free_memoryEv(ptr noundef nonnull align 8 dereferenceable(8) %this) #5 comdat align 2 {
entry:
  %this.addr = alloca ptr, align 8
  store ptr %this, ptr %this.addr, align 8
  %this1 = load ptr, ptr %this.addr, align 8
  %m_data = getelementptr inbounds %class.vector.4, ptr %this1, i32 0, i32 0
  %0 = load ptr, ptr %m_data, align 8
  %add.ptr = getelementptr inbounds i32, ptr %0, i64 -2
  call void @_ZN6memory10deallocateEPv(ptr noundef %add.ptr)
  ret void
}

; Function Attrs: mustprogress nounwind uwtable
define linkonce_odr hidden void @_ZN6vectorImLb0EjED2Ev(ptr noundef nonnull align 8 dereferenceable(8) %this) unnamed_addr #4 comdat align 2 personality ptr @__gxx_personality_v0 {
entry:
  %this.addr = alloca ptr, align 8
  store ptr %this, ptr %this.addr, align 8
  %this1 = load ptr, ptr %this.addr, align 8
  invoke void @_ZN6vectorImLb0EjE7destroyEv(ptr noundef nonnull align 8 dereferenceable(8) %this1)
          to label %invoke.cont unwind label %terminate.lpad

invoke.cont:                                      ; preds = %entry
  ret void

terminate.lpad:                                   ; preds = %entry
  %0 = landingpad { ptr, i32 }
          catch ptr null
  %1 = extractvalue { ptr, i32 } %0, 0
  call void @__clang_call_terminate(ptr %1) #13
  unreachable
}

; Function Attrs: mustprogress uwtable
define linkonce_odr hidden void @_ZN6vectorImLb0EjE7destroyEv(ptr noundef nonnull align 8 dereferenceable(8) %this) #5 comdat align 2 {
entry:
  %this.addr = alloca ptr, align 8
  store ptr %this, ptr %this.addr, align 8
  %this1 = load ptr, ptr %this.addr, align 8
  %m_data = getelementptr inbounds %class.vector.3, ptr %this1, i32 0, i32 0
  %0 = load ptr, ptr %m_data, align 8
  %tobool = icmp ne ptr %0, null
  br i1 %tobool, label %if.then, label %if.end

if.then:                                          ; preds = %entry
  call void @_ZN6vectorImLb0EjE11free_memoryEv(ptr noundef nonnull align 8 dereferenceable(8) %this1)
  br label %if.end

if.end:                                           ; preds = %if.then, %entry
  ret void
}

; Function Attrs: mustprogress uwtable
define linkonce_odr hidden void @_ZN6vectorImLb0EjE11free_memoryEv(ptr noundef nonnull align 8 dereferenceable(8) %this) #5 comdat align 2 {
entry:
  %this.addr = alloca ptr, align 8
  store ptr %this, ptr %this.addr, align 8
  %this1 = load ptr, ptr %this.addr, align 8
  %m_data = getelementptr inbounds %class.vector.3, ptr %this1, i32 0, i32 0
  %0 = load ptr, ptr %m_data, align 8
  %add.ptr = getelementptr inbounds i32, ptr %0, i64 -2
  call void @_ZN6memory10deallocateEPv(ptr noundef %add.ptr)
  ret void
}

declare void @_ZN8expr2varC2ER11ast_manager(ptr noundef nonnull align 8 dereferenceable(41), ptr noundef nonnull align 8 dereferenceable(976)) unnamed_addr #1

; Function Attrs: mustprogress nounwind uwtable
define linkonce_odr hidden noundef i32 @_ZNK6vectorIN3sat13justificationELb0EjE4sizeEv(ptr noundef nonnull align 8 dereferenceable(8) %this) #4 comdat align 2 {
entry:
  %retval = alloca i32, align 4
  %this.addr = alloca ptr, align 8
  store ptr %this, ptr %this.addr, align 8
  %this1 = load ptr, ptr %this.addr, align 8
  %m_data = getelementptr inbounds %class.vector.50, ptr %this1, i32 0, i32 0
  %0 = load ptr, ptr %m_data, align 8
  %cmp = icmp eq ptr %0, null
  br i1 %cmp, label %if.then, label %if.end

if.then:                                          ; preds = %entry
  store i32 0, ptr %retval, align 4
  br label %return

if.end:                                           ; preds = %entry
  %m_data2 = getelementptr inbounds %class.vector.50, ptr %this1, i32 0, i32 0
  %1 = load ptr, ptr %m_data2, align 8
  %arrayidx = getelementptr inbounds i32, ptr %1, i64 -1
  %2 = load i32, ptr %arrayidx, align 4
  store i32 %2, ptr %retval, align 4
  br label %return

return:                                           ; preds = %if.end, %if.then
  %3 = load i32, ptr %retval, align 4
  ret i32 %3
}

declare void @_ZN8expr2var6insertEP4exprj(ptr noundef nonnull align 8 dereferenceable(41), ptr noundef, i32 noundef) #1

; Function Attrs: mustprogress uwtable
define linkonce_odr hidden noundef ptr @_ZN11ast_manager8mk_constEP9func_decl(ptr noundef nonnull align 8 dereferenceable(976) %this, ptr noundef %decl) #5 comdat align 2 {
entry:
  %this.addr = alloca ptr, align 8
  %decl.addr = alloca ptr, align 8
  store ptr %this, ptr %this.addr, align 8
  store ptr %decl, ptr %decl.addr, align 8
  %this1 = load ptr, ptr %this.addr, align 8
  %0 = load ptr, ptr %decl.addr, align 8
  %call = call noundef ptr @_ZN11ast_manager6mk_appEP9func_decljPKP4expr(ptr noundef nonnull align 8 dereferenceable(976) %this1, ptr noundef %0, i32 noundef 0, ptr noundef null)
  ret ptr %call
}

; Function Attrs: mustprogress uwtable
define linkonce_odr hidden noundef ptr @_ZN11ast_manager13mk_const_declERK6symbolP4sort(ptr noundef nonnull align 8 dereferenceable(976) %this, ptr noundef nonnull align 8 dereferenceable(8) %name, ptr noundef %s) #5 comdat align 2 {
entry:
  %this.addr = alloca ptr, align 8
  %name.addr = alloca ptr, align 8
  %s.addr = alloca ptr, align 8
  store ptr %this, ptr %this.addr, align 8
  store ptr %name, ptr %name.addr, align 8
  store ptr %s, ptr %s.addr, align 8
  %this1 = load ptr, ptr %this.addr, align 8
  %0 = load ptr, ptr %name.addr, align 8
  %1 = load ptr, ptr %s.addr, align 8
  %call = call noundef ptr @_ZN11ast_manager12mk_func_declERK6symboljPKP4sortS4_(ptr noundef nonnull align 8 dereferenceable(976) %this1, ptr noundef nonnull align 8 dereferenceable(8) %0, i32 noundef 0, ptr noundef null, ptr noundef %1)
  ret ptr %call
}

declare noundef ptr @_ZN11ast_manager6mk_appEP9func_decljPKP4expr(ptr noundef nonnull align 8 dereferenceable(976), ptr noundef, i32 noundef, ptr noundef) #1

; Function Attrs: mustprogress uwtable
define linkonce_odr hidden noundef ptr @_ZN11ast_manager12mk_func_declERK6symboljPKP4sortS4_(ptr noundef nonnull align 8 dereferenceable(976) %this, ptr noundef nonnull align 8 dereferenceable(8) %name, i32 noundef %arity, ptr noundef %domain, ptr noundef %range) #5 comdat align 2 {
entry:
  %this.addr = alloca ptr, align 8
  %name.addr = alloca ptr, align 8
  %arity.addr = alloca i32, align 4
  %domain.addr = alloca ptr, align 8
  %range.addr = alloca ptr, align 8
  store ptr %this, ptr %this.addr, align 8
  store ptr %name, ptr %name.addr, align 8
  store i32 %arity, ptr %arity.addr, align 4
  store ptr %domain, ptr %domain.addr, align 8
  store ptr %range, ptr %range.addr, align 8
  %this1 = load ptr, ptr %this.addr, align 8
  %0 = load ptr, ptr %name.addr, align 8
  %1 = load i32, ptr %arity.addr, align 4
  %2 = load ptr, ptr %domain.addr, align 8
  %3 = load ptr, ptr %range.addr, align 8
  %call = call noundef ptr @_ZN11ast_manager12mk_func_declERK6symboljPKP4sortS4_P14func_decl_info(ptr noundef nonnull align 8 dereferenceable(976) %this1, ptr noundef nonnull align 8 dereferenceable(8) %0, i32 noundef %1, ptr noundef %2, ptr noundef %3, ptr noundef null)
  ret ptr %call
}

declare noundef ptr @_ZN11ast_manager12mk_func_declERK6symboljPKP4sortS4_P14func_decl_info(ptr noundef nonnull align 8 dereferenceable(976), ptr noundef nonnull align 8 dereferenceable(8), i32 noundef, ptr noundef, ptr noundef, ptr noundef) #1

; Function Attrs: mustprogress nounwind uwtable
define linkonce_odr hidden void @_ZN7svectorI6symboljEC2Ev(ptr noundef nonnull align 8 dereferenceable(8) %this) unnamed_addr #4 comdat align 2 {
entry:
  %this.addr = alloca ptr, align 8
  store ptr %this, ptr %this.addr, align 8
  %this1 = load ptr, ptr %this.addr, align 8
  %0 = getelementptr inbounds i8, ptr %this1, i64 0
  call void @llvm.memset.p0.i64(ptr align 8 %0, i8 0, i64 8, i1 false)
  call void @_ZN6vectorI6symbolLb0EjEC2Ev(ptr noundef nonnull align 8 dereferenceable(8) %this1) #3
  ret void
}

; Function Attrs: mustprogress nounwind uwtable
define linkonce_odr hidden void @_ZN6vectorI6symbolLb0EjEC2Ev(ptr noundef nonnull align 8 dereferenceable(8) %this) unnamed_addr #4 comdat align 2 {
entry:
  %this.addr = alloca ptr, align 8
  store ptr %this, ptr %this.addr, align 8
  %this1 = load ptr, ptr %this.addr, align 8
  %m_data = getelementptr inbounds %class.vector.58, ptr %this1, i32 0, i32 0
  store ptr null, ptr %m_data, align 8
  ret void
}

; Function Attrs: mustprogress nounwind uwtable
define linkonce_odr hidden noundef ptr @_ZNK6vectorIN7obj_mapI4exprjE8key_dataELb0EjE5beginEv(ptr noundef nonnull align 8 dereferenceable(8) %this) #4 comdat align 2 {
entry:
  %this.addr = alloca ptr, align 8
  store ptr %this, ptr %this.addr, align 8
  %this1 = load ptr, ptr %this.addr, align 8
  %m_data = getelementptr inbounds %class.vector.82, ptr %this1, i32 0, i32 0
  %0 = load ptr, ptr %m_data, align 8
  ret ptr %0
}

; Function Attrs: mustprogress uwtable
define linkonce_odr hidden noundef ptr @_ZNK6vectorIN7obj_mapI4exprjE8key_dataELb0EjE3endEv(ptr noundef nonnull align 8 dereferenceable(8) %this) #5 comdat align 2 {
entry:
  %this.addr = alloca ptr, align 8
  store ptr %this, ptr %this.addr, align 8
  %this1 = load ptr, ptr %this.addr, align 8
  %m_data = getelementptr inbounds %class.vector.82, ptr %this1, i32 0, i32 0
  %0 = load ptr, ptr %m_data, align 8
  %call = call noundef i32 @_ZNK6vectorIN7obj_mapI4exprjE8key_dataELb0EjE4sizeEv(ptr noundef nonnull align 8 dereferenceable(8) %this1)
  %idx.ext = zext i32 %call to i64
  %add.ptr = getelementptr inbounds %"struct.obj_map<expr, unsigned int>::key_data", ptr %0, i64 %idx.ext
  ret ptr %add.ptr
}

; Function Attrs: mustprogress nounwind uwtable
define linkonce_odr hidden noundef i32 @_ZNK6vectorIN7obj_mapI4exprjE8key_dataELb0EjE4sizeEv(ptr noundef nonnull align 8 dereferenceable(8) %this) #4 comdat align 2 {
entry:
  %retval = alloca i32, align 4
  %this.addr = alloca ptr, align 8
  store ptr %this, ptr %this.addr, align 8
  %this1 = load ptr, ptr %this.addr, align 8
  %m_data = getelementptr inbounds %class.vector.82, ptr %this1, i32 0, i32 0
  %0 = load ptr, ptr %m_data, align 8
  %cmp = icmp eq ptr %0, null
  br i1 %cmp, label %if.then, label %if.end

if.then:                                          ; preds = %entry
  store i32 0, ptr %retval, align 4
  br label %return

if.end:                                           ; preds = %entry
  %m_data2 = getelementptr inbounds %class.vector.82, ptr %this1, i32 0, i32 0
  %1 = load ptr, ptr %m_data2, align 8
  %arrayidx = getelementptr inbounds i32, ptr %1, i64 -1
  %2 = load i32, ptr %arrayidx, align 4
  store i32 %2, ptr %retval, align 4
  br label %return

return:                                           ; preds = %if.end, %if.then
  %3 = load i32, ptr %retval, align 4
  ret i32 %3
}

; Function Attrs: mustprogress nounwind uwtable
define linkonce_odr hidden noundef zeroext i1 @_ZNK3refI6tacticEcvbEv(ptr noundef nonnull align 8 dereferenceable(8) %this) #4 comdat align 2 {
entry:
  %this.addr = alloca ptr, align 8
  store ptr %this, ptr %this.addr, align 8
  %this1 = load ptr, ptr %this.addr, align 8
  %m_ptr = getelementptr inbounds %class.ref, ptr %this1, i32 0, i32 0
  %0 = load ptr, ptr %m_ptr, align 8
  %cmp = icmp ne ptr %0, null
  ret i1 %cmp
}

; Function Attrs: mustprogress nounwind uwtable
define linkonce_odr hidden noundef ptr @_ZNK3refI6tacticEptEv(ptr noundef nonnull align 8 dereferenceable(8) %this) #4 comdat align 2 {
entry:
  %this.addr = alloca ptr, align 8
  store ptr %this, ptr %this.addr, align 8
  %this1 = load ptr, ptr %this.addr, align 8
  %m_ptr = getelementptr inbounds %class.ref, ptr %this1, i32 0, i32 0
  %0 = load ptr, ptr %m_ptr, align 8
  ret ptr %0
}

declare noundef nonnull align 8 dereferenceable(8) ptr @_ZNSo5flushEv(ptr noundef nonnull align 8 dereferenceable(8)) #1

declare void @_ZNK3sat6solver18collect_statisticsER10statistics(ptr noundef nonnull align 8 dereferenceable(4408), ptr noundef nonnull align 8 dereferenceable(16)) #1

declare void @_ZN10statistics6updateEPKcd(ptr noundef nonnull align 8 dereferenceable(16), ptr noundef, double noundef) #1

declare noundef nonnull align 8 dereferenceable(8) ptr @_ZNK10statistics12display_smt2ERSo(ptr noundef nonnull align 8 dereferenceable(16), ptr noundef nonnull align 8 dereferenceable(8)) #1

; Function Attrs: mustprogress nounwind uwtable
define linkonce_odr hidden void @_ZN7svectorI6symboljED2Ev(ptr noundef nonnull align 8 dereferenceable(8) %this) unnamed_addr #4 comdat align 2 {
entry:
  %this.addr = alloca ptr, align 8
  store ptr %this, ptr %this.addr, align 8
  %this1 = load ptr, ptr %this.addr, align 8
  call void @_ZN6vectorI6symbolLb0EjED2Ev(ptr noundef nonnull align 8 dereferenceable(8) %this1) #3
  ret void
}

; Function Attrs: mustprogress nounwind uwtable
define linkonce_odr hidden void @_ZN6vectorI6symbolLb0EjED2Ev(ptr noundef nonnull align 8 dereferenceable(8) %this) unnamed_addr #4 comdat align 2 personality ptr @__gxx_personality_v0 {
entry:
  %this.addr = alloca ptr, align 8
  store ptr %this, ptr %this.addr, align 8
  %this1 = load ptr, ptr %this.addr, align 8
  invoke void @_ZN6vectorI6symbolLb0EjE7destroyEv(ptr noundef nonnull align 8 dereferenceable(8) %this1)
          to label %invoke.cont unwind label %terminate.lpad

invoke.cont:                                      ; preds = %entry
  ret void

terminate.lpad:                                   ; preds = %entry
  %0 = landingpad { ptr, i32 }
          catch ptr null
  %1 = extractvalue { ptr, i32 } %0, 0
  call void @__clang_call_terminate(ptr %1) #13
  unreachable
}

; Function Attrs: mustprogress uwtable
define linkonce_odr hidden void @_ZN6vectorI6symbolLb0EjE7destroyEv(ptr noundef nonnull align 8 dereferenceable(8) %this) #5 comdat align 2 {
entry:
  %this.addr = alloca ptr, align 8
  store ptr %this, ptr %this.addr, align 8
  %this1 = load ptr, ptr %this.addr, align 8
  %m_data = getelementptr inbounds %class.vector.58, ptr %this1, i32 0, i32 0
  %0 = load ptr, ptr %m_data, align 8
  %tobool = icmp ne ptr %0, null
  br i1 %tobool, label %if.then, label %if.end

if.then:                                          ; preds = %entry
  call void @_ZN6vectorI6symbolLb0EjE11free_memoryEv(ptr noundef nonnull align 8 dereferenceable(8) %this1)
  br label %if.end

if.end:                                           ; preds = %if.then, %entry
  ret void
}

; Function Attrs: mustprogress uwtable
define linkonce_odr hidden void @_ZN6vectorI6symbolLb0EjE11free_memoryEv(ptr noundef nonnull align 8 dereferenceable(8) %this) #5 comdat align 2 {
entry:
  %this.addr = alloca ptr, align 8
  store ptr %this, ptr %this.addr, align 8
  %this1 = load ptr, ptr %this.addr, align 8
  %m_data = getelementptr inbounds %class.vector.58, ptr %this1, i32 0, i32 0
  %0 = load ptr, ptr %m_data, align 8
  %add.ptr = getelementptr inbounds i32, ptr %0, i64 -2
  call void @_ZN6memory10deallocateEPv(ptr noundef %add.ptr)
  ret void
}

; Function Attrs: nounwind
declare void @_ZN8expr2varD2Ev(ptr noundef nonnull align 8 dereferenceable(41)) unnamed_addr #2

; Function Attrs: noreturn nounwind
declare void @_Exit(i32 noundef) #6

; Function Attrs: nounwind
declare i32 @raise(i32 noundef) #2

declare noundef i32 @_ZN3sat6solver6mk_varEbb(ptr noundef nonnull align 8 dereferenceable(4408), i1 noundef zeroext, i1 noundef zeroext) #1

; Function Attrs: mustprogress uwtable
define linkonce_odr hidden noundef ptr @_ZNK3sat6solver13begin_clausesEv(ptr noundef nonnull align 8 dereferenceable(4408) %this) #5 comdat align 2 {
entry:
  %this.addr = alloca ptr, align 8
  store ptr %this, ptr %this.addr, align 8
  %this1 = load ptr, ptr %this.addr, align 8
  %m_clauses = getelementptr inbounds %"class.sat::solver", ptr %this1, i32 0, i32 29
  %call = call noundef ptr @_ZNK6vectorIPN3sat6clauseELb0EjE5beginEv(ptr noundef nonnull align 8 dereferenceable(8) %m_clauses)
  ret ptr %call
}

; Function Attrs: mustprogress uwtable
define linkonce_odr hidden noundef ptr @_ZNK3sat6solver11end_clausesEv(ptr noundef nonnull align 8 dereferenceable(4408) %this) #5 comdat align 2 {
entry:
  %this.addr = alloca ptr, align 8
  store ptr %this, ptr %this.addr, align 8
  %this1 = load ptr, ptr %this.addr, align 8
  %m_clauses = getelementptr inbounds %"class.sat::solver", ptr %this1, i32 0, i32 29
  %call = call noundef ptr @_ZNK6vectorIPN3sat6clauseELb0EjE3endEv(ptr noundef nonnull align 8 dereferenceable(8) %m_clauses)
  ret ptr %call
}

; Function Attrs: mustprogress nounwind uwtable
define linkonce_odr hidden void @_ZN7svectorISt4pairIN3sat7literalES2_EjEC2Ev(ptr noundef nonnull align 8 dereferenceable(8) %this) unnamed_addr #4 comdat align 2 {
entry:
  %this.addr = alloca ptr, align 8
  store ptr %this, ptr %this.addr, align 8
  %this1 = load ptr, ptr %this.addr, align 8
  %0 = getelementptr inbounds i8, ptr %this1, i64 0
  call void @llvm.memset.p0.i64(ptr align 8 %0, i8 0, i64 8, i1 false)
  call void @_ZN6vectorISt4pairIN3sat7literalES2_ELb0EjEC2Ev(ptr noundef nonnull align 8 dereferenceable(8) %this1) #3
  ret void
}

declare void @_ZNK3sat6solver19collect_bin_clausesER7svectorISt4pairINS_7literalES3_EjEbb(ptr noundef nonnull align 8 dereferenceable(4408), ptr noundef nonnull align 8 dereferenceable(8), i1 noundef zeroext, i1 noundef zeroext) #1

; Function Attrs: mustprogress uwtable
define linkonce_odr hidden void @_ZN6vectorI7svectorIN3sat7literalEjELb1EjE7reserveEj(ptr noundef nonnull align 8 dereferenceable(8) %this, i32 noundef %s) #5 comdat align 2 {
entry:
  %this.addr = alloca ptr, align 8
  %s.addr = alloca i32, align 4
  store ptr %this, ptr %this.addr, align 8
  store i32 %s, ptr %s.addr, align 4
  %this1 = load ptr, ptr %this.addr, align 8
  %0 = load i32, ptr %s.addr, align 4
  %call = call noundef i32 @_ZNK6vectorI7svectorIN3sat7literalEjELb1EjE4sizeEv(ptr noundef nonnull align 8 dereferenceable(8) %this1)
  %cmp = icmp ugt i32 %0, %call
  br i1 %cmp, label %if.then, label %if.end

if.then:                                          ; preds = %entry
  %1 = load i32, ptr %s.addr, align 4
  call void @_ZN6vectorI7svectorIN3sat7literalEjELb1EjE6resizeEj(ptr noundef nonnull align 8 dereferenceable(8) %this1, i32 noundef %1)
  br label %if.end

if.end:                                           ; preds = %if.then, %entry
  ret void
}

; Function Attrs: mustprogress nounwind uwtable
define linkonce_odr hidden noundef i32 @_ZNK6vectorISt4pairIN3sat7literalES2_ELb0EjE4sizeEv(ptr noundef nonnull align 8 dereferenceable(8) %this) #4 comdat align 2 {
entry:
  %retval = alloca i32, align 4
  %this.addr = alloca ptr, align 8
  store ptr %this, ptr %this.addr, align 8
  %this1 = load ptr, ptr %this.addr, align 8
  %m_data = getelementptr inbounds %class.vector.45, ptr %this1, i32 0, i32 0
  %0 = load ptr, ptr %m_data, align 8
  %cmp = icmp eq ptr %0, null
  br i1 %cmp, label %if.then, label %if.end

if.then:                                          ; preds = %entry
  store i32 0, ptr %retval, align 4
  br label %return

if.end:                                           ; preds = %entry
  %m_data2 = getelementptr inbounds %class.vector.45, ptr %this1, i32 0, i32 0
  %1 = load ptr, ptr %m_data2, align 8
  %arrayidx = getelementptr inbounds i32, ptr %1, i64 -1
  %2 = load i32, ptr %arrayidx, align 4
  store i32 %2, ptr %retval, align 4
  br label %return

return:                                           ; preds = %if.end, %if.then
  %3 = load i32, ptr %retval, align 4
  ret i32 %3
}

; Function Attrs: mustprogress uwtable
define linkonce_odr hidden noundef i32 @_ZNK3sat6solver5valueEj(ptr noundef nonnull align 8 dereferenceable(4408) %this, i32 noundef %v) #5 comdat align 2 {
entry:
  %this.addr = alloca ptr, align 8
  %v.addr = alloca i32, align 4
  %ref.tmp = alloca %"class.sat::literal", align 4
  store ptr %this, ptr %this.addr, align 8
  store i32 %v, ptr %v.addr, align 4
  %this1 = load ptr, ptr %this.addr, align 8
  %m_assignment = getelementptr inbounds %"class.sat::solver", ptr %this1, i32 0, i32 37
  %0 = load i32, ptr %v.addr, align 4
  call void @_ZN3sat7literalC2Ejb(ptr noundef nonnull align 4 dereferenceable(4) %ref.tmp, i32 noundef %0, i1 noundef zeroext false)
  %call = call noundef i32 @_ZNK3sat7literal5indexEv(ptr noundef nonnull align 4 dereferenceable(4) %ref.tmp)
  %call2 = call noundef nonnull align 4 dereferenceable(4) ptr @_ZNK6vectorI5lboolLb0EjEixEj(ptr noundef nonnull align 8 dereferenceable(8) %m_assignment, i32 noundef %call)
  %1 = load i32, ptr %call2, align 4
  ret i32 %1
}

; Function Attrs: mustprogress nounwind uwtable
define linkonce_odr hidden void @_ZN6vectorIN3sat7literalELb0EjE5resetEv(ptr noundef nonnull align 8 dereferenceable(8) %this) #4 comdat align 2 {
entry:
  %this.addr = alloca ptr, align 8
  store ptr %this, ptr %this.addr, align 8
  %this1 = load ptr, ptr %this.addr, align 8
  %m_data = getelementptr inbounds %class.vector.35, ptr %this1, i32 0, i32 0
  %0 = load ptr, ptr %m_data, align 8
  %tobool = icmp ne ptr %0, null
  br i1 %tobool, label %if.then, label %if.end

if.then:                                          ; preds = %entry
  %m_data2 = getelementptr inbounds %class.vector.35, ptr %this1, i32 0, i32 0
  %1 = load ptr, ptr %m_data2, align 8
  %arrayidx = getelementptr inbounds i32, ptr %1, i64 -1
  store i32 0, ptr %arrayidx, align 4
  br label %if.end

if.end:                                           ; preds = %if.then, %entry
  ret void
}

; Function Attrs: mustprogress uwtable
define linkonce_odr hidden noundef nonnull align 8 dereferenceable(8) ptr @_ZN6vectorIN3sat7literalELb0EjE9push_backEOS1_(ptr noundef nonnull align 8 dereferenceable(8) %this, ptr noundef nonnull align 4 dereferenceable(4) %elem) #5 comdat align 2 {
entry:
  %this.addr = alloca ptr, align 8
  %elem.addr = alloca ptr, align 8
  store ptr %this, ptr %this.addr, align 8
  store ptr %elem, ptr %elem.addr, align 8
  %this1 = load ptr, ptr %this.addr, align 8
  %m_data = getelementptr inbounds %class.vector.35, ptr %this1, i32 0, i32 0
  %0 = load ptr, ptr %m_data, align 8
  %cmp = icmp eq ptr %0, null
  br i1 %cmp, label %if.then, label %lor.lhs.false

lor.lhs.false:                                    ; preds = %entry
  %m_data2 = getelementptr inbounds %class.vector.35, ptr %this1, i32 0, i32 0
  %1 = load ptr, ptr %m_data2, align 8
  %arrayidx = getelementptr inbounds i32, ptr %1, i64 -1
  %2 = load i32, ptr %arrayidx, align 4
  %m_data3 = getelementptr inbounds %class.vector.35, ptr %this1, i32 0, i32 0
  %3 = load ptr, ptr %m_data3, align 8
  %arrayidx4 = getelementptr inbounds i32, ptr %3, i64 -2
  %4 = load i32, ptr %arrayidx4, align 4
  %cmp5 = icmp eq i32 %2, %4
  br i1 %cmp5, label %if.then, label %if.end

if.then:                                          ; preds = %lor.lhs.false, %entry
  call void @_ZN6vectorIN3sat7literalELb0EjE13expand_vectorEv(ptr noundef nonnull align 8 dereferenceable(8) %this1)
  br label %if.end

if.end:                                           ; preds = %if.then, %lor.lhs.false
  %m_data6 = getelementptr inbounds %class.vector.35, ptr %this1, i32 0, i32 0
  %5 = load ptr, ptr %m_data6, align 8
  %m_data7 = getelementptr inbounds %class.vector.35, ptr %this1, i32 0, i32 0
  %6 = load ptr, ptr %m_data7, align 8
  %arrayidx8 = getelementptr inbounds i32, ptr %6, i64 -1
  %7 = load i32, ptr %arrayidx8, align 4
  %idx.ext = zext i32 %7 to i64
  %add.ptr = getelementptr inbounds %"class.sat::literal", ptr %5, i64 %idx.ext
  %8 = load ptr, ptr %elem.addr, align 8
  call void @llvm.memcpy.p0.p0.i64(ptr align 4 %add.ptr, ptr align 4 %8, i64 4, i1 false)
  %m_data9 = getelementptr inbounds %class.vector.35, ptr %this1, i32 0, i32 0
  %9 = load ptr, ptr %m_data9, align 8
  %arrayidx10 = getelementptr inbounds i32, ptr %9, i64 -1
  %10 = load i32, ptr %arrayidx10, align 4
  %inc = add i32 %10, 1
  store i32 %inc, ptr %arrayidx10, align 4
  ret ptr %this1
}

; Function Attrs: mustprogress uwtable
define internal void @_ZL12track_clauseRN3sat6solverER7svectorINS_7literalEjES5_R6vectorIS4_Lb1EjE(ptr noundef nonnull align 8 dereferenceable(4408) %dst, ptr noundef nonnull align 8 dereferenceable(8) %lits, ptr noundef nonnull align 8 dereferenceable(8) %assumptions, ptr noundef nonnull align 8 dereferenceable(8) %tracking_clauses) #5 {
entry:
  %dst.addr = alloca ptr, align 8
  %lits.addr = alloca ptr, align 8
  %assumptions.addr = alloca ptr, align 8
  %tracking_clauses.addr = alloca ptr, align 8
  %lit = alloca %"class.sat::literal", align 4
  %ref.tmp = alloca %"class.sat::literal", align 4
  %agg.tmp = alloca %"class.sat::literal", align 4
  %agg.tmp7 = alloca %"class.sat::status", align 8
  store ptr %dst, ptr %dst.addr, align 8
  store ptr %lits, ptr %lits.addr, align 8
  store ptr %assumptions, ptr %assumptions.addr, align 8
  store ptr %tracking_clauses, ptr %tracking_clauses.addr, align 8
  %0 = load ptr, ptr %dst.addr, align 8
  %call = call noundef i32 @_ZN3sat6solver6mk_varEbb(ptr noundef nonnull align 8 dereferenceable(4408) %0, i1 noundef zeroext true, i1 noundef zeroext false)
  call void @_ZN3sat7literalC2Ejb(ptr noundef nonnull align 4 dereferenceable(4) %lit, i32 noundef %call, i1 noundef zeroext false)
  %1 = load ptr, ptr %tracking_clauses.addr, align 8
  %call1 = call noundef i32 @_ZNK3sat7literal3varEv(ptr noundef nonnull align 4 dereferenceable(4) %lit)
  %2 = load ptr, ptr %lits.addr, align 8
  call void @_ZN6vectorI7svectorIN3sat7literalEjELb1EjE3setEjRKS3_(ptr noundef nonnull align 8 dereferenceable(8) %1, i32 noundef %call1, ptr noundef nonnull align 8 dereferenceable(8) %2)
  %3 = load ptr, ptr %lits.addr, align 8
  call void @llvm.memcpy.p0.p0.i64(ptr align 4 %agg.tmp, ptr align 4 %lit, i64 4, i1 false)
  %coerce.dive = getelementptr inbounds %"class.sat::literal", ptr %agg.tmp, i32 0, i32 0
  %4 = load i32, ptr %coerce.dive, align 4
  %call2 = call i32 @_ZN3satcoENS_7literalE(i32 %4)
  %coerce.dive3 = getelementptr inbounds %"class.sat::literal", ptr %ref.tmp, i32 0, i32 0
  store i32 %call2, ptr %coerce.dive3, align 4
  %call4 = call noundef nonnull align 8 dereferenceable(8) ptr @_ZN6vectorIN3sat7literalELb0EjE9push_backEOS1_(ptr noundef nonnull align 8 dereferenceable(8) %3, ptr noundef nonnull align 4 dereferenceable(4) %ref.tmp)
  %5 = load ptr, ptr %dst.addr, align 8
  %6 = load ptr, ptr %lits.addr, align 8
  %call5 = call noundef i32 @_ZNK6vectorIN3sat7literalELb0EjE4sizeEv(ptr noundef nonnull align 8 dereferenceable(8) %6)
  %7 = load ptr, ptr %lits.addr, align 8
  %call6 = call noundef ptr @_ZNK6vectorIN3sat7literalELb0EjE4dataEv(ptr noundef nonnull align 8 dereferenceable(8) %7)
  call void @_ZN3sat6status8assertedEv(ptr sret(%"class.sat::status") align 8 %agg.tmp7)
  %call8 = call noundef ptr @_ZN3sat6solver9mk_clauseEjPNS_7literalENS_6statusE(ptr noundef nonnull align 8 dereferenceable(4408) %5, i32 noundef %call5, ptr noundef %call6, ptr noundef %agg.tmp7)
  %8 = load ptr, ptr %assumptions.addr, align 8
  %call9 = call noundef nonnull align 8 dereferenceable(8) ptr @_ZN6vectorIN3sat7literalELb0EjE9push_backERKS1_(ptr noundef nonnull align 8 dereferenceable(8) %8, ptr noundef nonnull align 4 dereferenceable(4) %lit)
  ret void
}

; Function Attrs: mustprogress uwtable
define linkonce_odr hidden void @_ZN6vectorIN3sat7literalELb0EjE6appendEjPKS1_(ptr noundef nonnull align 8 dereferenceable(8) %this, i32 noundef %sz, ptr noundef %data) #5 comdat align 2 {
entry:
  %this.addr = alloca ptr, align 8
  %sz.addr = alloca i32, align 4
  %data.addr = alloca ptr, align 8
  %i = alloca i32, align 4
  store ptr %this, ptr %this.addr, align 8
  store i32 %sz, ptr %sz.addr, align 4
  store ptr %data, ptr %data.addr, align 8
  %this1 = load ptr, ptr %this.addr, align 8
  store i32 0, ptr %i, align 4
  br label %for.cond

for.cond:                                         ; preds = %for.inc, %entry
  %0 = load i32, ptr %i, align 4
  %1 = load i32, ptr %sz.addr, align 4
  %cmp = icmp ult i32 %0, %1
  br i1 %cmp, label %for.body, label %for.end

for.body:                                         ; preds = %for.cond
  %2 = load ptr, ptr %data.addr, align 8
  %3 = load i32, ptr %i, align 4
  %idxprom = zext i32 %3 to i64
  %arrayidx = getelementptr inbounds %"class.sat::literal", ptr %2, i64 %idxprom
  %call = call noundef nonnull align 8 dereferenceable(8) ptr @_ZN6vectorIN3sat7literalELb0EjE9push_backERKS1_(ptr noundef nonnull align 8 dereferenceable(8) %this1, ptr noundef nonnull align 4 dereferenceable(4) %arrayidx)
  br label %for.inc

for.inc:                                          ; preds = %for.body
  %4 = load i32, ptr %i, align 4
  %inc = add i32 %4, 1
  store i32 %inc, ptr %i, align 4
  br label %for.cond, !llvm.loop !15

for.end:                                          ; preds = %for.cond
  ret void
}

; Function Attrs: mustprogress nounwind uwtable
define linkonce_odr hidden noundef ptr @_ZN3sat6clause3endEv(ptr noundef nonnull align 4 dereferenceable(20) %this) #4 comdat align 2 {
entry:
  %this.addr = alloca ptr, align 8
  store ptr %this, ptr %this.addr, align 8
  %this1 = load ptr, ptr %this.addr, align 8
  %m_lits = getelementptr inbounds %"class.sat::clause", ptr %this1, i32 0, i32 5
  %arraydecay = getelementptr inbounds [0 x %"class.sat::literal"], ptr %m_lits, i64 0, i64 0
  %m_size = getelementptr inbounds %"class.sat::clause", ptr %this1, i32 0, i32 1
  %0 = load i32, ptr %m_size, align 4
  %idx.ext = zext i32 %0 to i64
  %add.ptr = getelementptr inbounds %"class.sat::literal", ptr %arraydecay, i64 %idx.ext
  ret ptr %add.ptr
}

; Function Attrs: mustprogress nounwind uwtable
define linkonce_odr hidden noundef ptr @_ZN3sat6clause5beginEv(ptr noundef nonnull align 4 dereferenceable(20) %this) #4 comdat align 2 {
entry:
  %this.addr = alloca ptr, align 8
  store ptr %this, ptr %this.addr, align 8
  %this1 = load ptr, ptr %this.addr, align 8
  %m_lits = getelementptr inbounds %"class.sat::clause", ptr %this1, i32 0, i32 5
  %arraydecay = getelementptr inbounds [0 x %"class.sat::literal"], ptr %m_lits, i64 0, i64 0
  ret ptr %arraydecay
}

; Function Attrs: mustprogress uwtable
define linkonce_odr hidden noundef nonnull align 8 dereferenceable(8) ptr @_ZN6vectorIN3sat7literalELb0EjE9push_backERKS1_(ptr noundef nonnull align 8 dereferenceable(8) %this, ptr noundef nonnull align 4 dereferenceable(4) %elem) #5 comdat align 2 {
entry:
  %this.addr = alloca ptr, align 8
  %elem.addr = alloca ptr, align 8
  store ptr %this, ptr %this.addr, align 8
  store ptr %elem, ptr %elem.addr, align 8
  %this1 = load ptr, ptr %this.addr, align 8
  %m_data = getelementptr inbounds %class.vector.35, ptr %this1, i32 0, i32 0
  %0 = load ptr, ptr %m_data, align 8
  %cmp = icmp eq ptr %0, null
  br i1 %cmp, label %if.then, label %lor.lhs.false

lor.lhs.false:                                    ; preds = %entry
  %m_data2 = getelementptr inbounds %class.vector.35, ptr %this1, i32 0, i32 0
  %1 = load ptr, ptr %m_data2, align 8
  %arrayidx = getelementptr inbounds i32, ptr %1, i64 -1
  %2 = load i32, ptr %arrayidx, align 4
  %m_data3 = getelementptr inbounds %class.vector.35, ptr %this1, i32 0, i32 0
  %3 = load ptr, ptr %m_data3, align 8
  %arrayidx4 = getelementptr inbounds i32, ptr %3, i64 -2
  %4 = load i32, ptr %arrayidx4, align 4
  %cmp5 = icmp eq i32 %2, %4
  br i1 %cmp5, label %if.then, label %if.end

if.then:                                          ; preds = %lor.lhs.false, %entry
  call void @_ZN6vectorIN3sat7literalELb0EjE13expand_vectorEv(ptr noundef nonnull align 8 dereferenceable(8) %this1)
  br label %if.end

if.end:                                           ; preds = %if.then, %lor.lhs.false
  %m_data6 = getelementptr inbounds %class.vector.35, ptr %this1, i32 0, i32 0
  %5 = load ptr, ptr %m_data6, align 8
  %m_data7 = getelementptr inbounds %class.vector.35, ptr %this1, i32 0, i32 0
  %6 = load ptr, ptr %m_data7, align 8
  %arrayidx8 = getelementptr inbounds i32, ptr %6, i64 -1
  %7 = load i32, ptr %arrayidx8, align 4
  %idx.ext = zext i32 %7 to i64
  %add.ptr = getelementptr inbounds %"class.sat::literal", ptr %5, i64 %idx.ext
  %8 = load ptr, ptr %elem.addr, align 8
  call void @llvm.memcpy.p0.p0.i64(ptr align 4 %add.ptr, ptr align 4 %8, i64 4, i1 false)
  %m_data9 = getelementptr inbounds %class.vector.35, ptr %this1, i32 0, i32 0
  %9 = load ptr, ptr %m_data9, align 8
  %arrayidx10 = getelementptr inbounds i32, ptr %9, i64 -1
  %10 = load i32, ptr %arrayidx10, align 4
  %inc = add i32 %10, 1
  store i32 %inc, ptr %arrayidx10, align 4
  ret ptr %this1
}

; Function Attrs: mustprogress nounwind uwtable
define linkonce_odr hidden noundef nonnull align 4 dereferenceable(8) ptr @_ZN6vectorISt4pairIN3sat7literalES2_ELb0EjEixEj(ptr noundef nonnull align 8 dereferenceable(8) %this, i32 noundef %idx) #4 comdat align 2 {
entry:
  %this.addr = alloca ptr, align 8
  %idx.addr = alloca i32, align 4
  store ptr %this, ptr %this.addr, align 8
  store i32 %idx, ptr %idx.addr, align 4
  %this1 = load ptr, ptr %this.addr, align 8
  %m_data = getelementptr inbounds %class.vector.45, ptr %this1, i32 0, i32 0
  %0 = load ptr, ptr %m_data, align 8
  %1 = load i32, ptr %idx.addr, align 4
  %idxprom = zext i32 %1 to i64
  %arrayidx = getelementptr inbounds %"struct.std::pair", ptr %0, i64 %idxprom
  ret ptr %arrayidx
}

; Function Attrs: mustprogress nounwind uwtable
define linkonce_odr hidden void @_ZN7svectorISt4pairIN3sat7literalES2_EjED2Ev(ptr noundef nonnull align 8 dereferenceable(8) %this) unnamed_addr #4 comdat align 2 {
entry:
  %this.addr = alloca ptr, align 8
  store ptr %this, ptr %this.addr, align 8
  %this1 = load ptr, ptr %this.addr, align 8
  call void @_ZN6vectorISt4pairIN3sat7literalES2_ELb0EjED2Ev(ptr noundef nonnull align 8 dereferenceable(8) %this1) #3
  ret void
}

; Function Attrs: mustprogress nounwind uwtable
define linkonce_odr hidden noundef ptr @_ZNK6vectorIPN3sat6clauseELb0EjE5beginEv(ptr noundef nonnull align 8 dereferenceable(8) %this) #4 comdat align 2 {
entry:
  %this.addr = alloca ptr, align 8
  store ptr %this, ptr %this.addr, align 8
  %this1 = load ptr, ptr %this.addr, align 8
  %m_data = getelementptr inbounds %class.vector.29, ptr %this1, i32 0, i32 0
  %0 = load ptr, ptr %m_data, align 8
  ret ptr %0
}

; Function Attrs: mustprogress uwtable
define linkonce_odr hidden noundef ptr @_ZNK6vectorIPN3sat6clauseELb0EjE3endEv(ptr noundef nonnull align 8 dereferenceable(8) %this) #5 comdat align 2 {
entry:
  %this.addr = alloca ptr, align 8
  store ptr %this, ptr %this.addr, align 8
  %this1 = load ptr, ptr %this.addr, align 8
  %m_data = getelementptr inbounds %class.vector.29, ptr %this1, i32 0, i32 0
  %0 = load ptr, ptr %m_data, align 8
  %call = call noundef i32 @_ZNK6vectorIPN3sat6clauseELb0EjE4sizeEv(ptr noundef nonnull align 8 dereferenceable(8) %this1)
  %idx.ext = zext i32 %call to i64
  %add.ptr = getelementptr inbounds ptr, ptr %0, i64 %idx.ext
  ret ptr %add.ptr
}

; Function Attrs: mustprogress nounwind uwtable
define linkonce_odr hidden noundef i32 @_ZNK6vectorIPN3sat6clauseELb0EjE4sizeEv(ptr noundef nonnull align 8 dereferenceable(8) %this) #4 comdat align 2 {
entry:
  %retval = alloca i32, align 4
  %this.addr = alloca ptr, align 8
  store ptr %this, ptr %this.addr, align 8
  %this1 = load ptr, ptr %this.addr, align 8
  %m_data = getelementptr inbounds %class.vector.29, ptr %this1, i32 0, i32 0
  %0 = load ptr, ptr %m_data, align 8
  %cmp = icmp eq ptr %0, null
  br i1 %cmp, label %if.then, label %if.end

if.then:                                          ; preds = %entry
  store i32 0, ptr %retval, align 4
  br label %return

if.end:                                           ; preds = %entry
  %m_data2 = getelementptr inbounds %class.vector.29, ptr %this1, i32 0, i32 0
  %1 = load ptr, ptr %m_data2, align 8
  %arrayidx = getelementptr inbounds i32, ptr %1, i64 -1
  %2 = load i32, ptr %arrayidx, align 4
  store i32 %2, ptr %retval, align 4
  br label %return

return:                                           ; preds = %if.end, %if.then
  %3 = load i32, ptr %retval, align 4
  ret i32 %3
}

; Function Attrs: mustprogress nounwind uwtable
define linkonce_odr hidden void @_ZN6vectorISt4pairIN3sat7literalES2_ELb0EjEC2Ev(ptr noundef nonnull align 8 dereferenceable(8) %this) unnamed_addr #4 comdat align 2 {
entry:
  %this.addr = alloca ptr, align 8
  store ptr %this, ptr %this.addr, align 8
  %this1 = load ptr, ptr %this.addr, align 8
  %m_data = getelementptr inbounds %class.vector.45, ptr %this1, i32 0, i32 0
  store ptr null, ptr %m_data, align 8
  ret void
}

; Function Attrs: mustprogress nounwind uwtable
define linkonce_odr hidden noundef i32 @_ZNK6vectorI7svectorIN3sat7literalEjELb1EjE4sizeEv(ptr noundef nonnull align 8 dereferenceable(8) %this) #4 comdat align 2 {
entry:
  %retval = alloca i32, align 4
  %this.addr = alloca ptr, align 8
  store ptr %this, ptr %this.addr, align 8
  %this1 = load ptr, ptr %this.addr, align 8
  %m_data = getelementptr inbounds %class.vector.38, ptr %this1, i32 0, i32 0
  %0 = load ptr, ptr %m_data, align 8
  %cmp = icmp eq ptr %0, null
  br i1 %cmp, label %if.then, label %if.end

if.then:                                          ; preds = %entry
  store i32 0, ptr %retval, align 4
  br label %return

if.end:                                           ; preds = %entry
  %m_data2 = getelementptr inbounds %class.vector.38, ptr %this1, i32 0, i32 0
  %1 = load ptr, ptr %m_data2, align 8
  %arrayidx = getelementptr inbounds i32, ptr %1, i64 -1
  %2 = load i32, ptr %arrayidx, align 4
  store i32 %2, ptr %retval, align 4
  br label %return

return:                                           ; preds = %if.end, %if.then
  %3 = load i32, ptr %retval, align 4
  ret i32 %3
}

; Function Attrs: mustprogress uwtable
define linkonce_odr hidden void @_ZN6vectorI7svectorIN3sat7literalEjELb1EjE6resizeEj(ptr noundef nonnull align 8 dereferenceable(8) %this, i32 noundef %s) #5 comdat align 2 {
entry:
  %this.addr = alloca ptr, align 8
  %s.addr = alloca i32, align 4
  %sz = alloca i32, align 4
  %it = alloca ptr, align 8
  %end = alloca ptr, align 8
  store ptr %this, ptr %this.addr, align 8
  store i32 %s, ptr %s.addr, align 4
  %this1 = load ptr, ptr %this.addr, align 8
  %call = call noundef i32 @_ZNK6vectorI7svectorIN3sat7literalEjELb1EjE4sizeEv(ptr noundef nonnull align 8 dereferenceable(8) %this1)
  store i32 %call, ptr %sz, align 4
  %0 = load i32, ptr %s.addr, align 4
  %1 = load i32, ptr %sz, align 4
  %cmp = icmp ule i32 %0, %1
  br i1 %cmp, label %if.then, label %if.end

if.then:                                          ; preds = %entry
  %2 = load i32, ptr %s.addr, align 4
  call void @_ZN6vectorI7svectorIN3sat7literalEjELb1EjE6shrinkEj(ptr noundef nonnull align 8 dereferenceable(8) %this1, i32 noundef %2)
  br label %for.end

if.end:                                           ; preds = %entry
  br label %while.cond

while.cond:                                       ; preds = %while.body, %if.end
  %3 = load i32, ptr %s.addr, align 4
  %call2 = call noundef i32 @_ZNK6vectorI7svectorIN3sat7literalEjELb1EjE8capacityEv(ptr noundef nonnull align 8 dereferenceable(8) %this1)
  %cmp3 = icmp ugt i32 %3, %call2
  br i1 %cmp3, label %while.body, label %while.end

while.body:                                       ; preds = %while.cond
  call void @_ZN6vectorI7svectorIN3sat7literalEjELb1EjE13expand_vectorEv(ptr noundef nonnull align 8 dereferenceable(8) %this1)
  br label %while.cond, !llvm.loop !16

while.end:                                        ; preds = %while.cond
  %4 = load i32, ptr %s.addr, align 4
  %m_data = getelementptr inbounds %class.vector.38, ptr %this1, i32 0, i32 0
  %5 = load ptr, ptr %m_data, align 8
  %arrayidx = getelementptr inbounds i32, ptr %5, i64 -1
  store i32 %4, ptr %arrayidx, align 4
  %m_data4 = getelementptr inbounds %class.vector.38, ptr %this1, i32 0, i32 0
  %6 = load ptr, ptr %m_data4, align 8
  %7 = load i32, ptr %sz, align 4
  %idx.ext = zext i32 %7 to i64
  %add.ptr = getelementptr inbounds %class.svector.34, ptr %6, i64 %idx.ext
  store ptr %add.ptr, ptr %it, align 8
  %m_data5 = getelementptr inbounds %class.vector.38, ptr %this1, i32 0, i32 0
  %8 = load ptr, ptr %m_data5, align 8
  %9 = load i32, ptr %s.addr, align 4
  %idx.ext6 = zext i32 %9 to i64
  %add.ptr7 = getelementptr inbounds %class.svector.34, ptr %8, i64 %idx.ext6
  store ptr %add.ptr7, ptr %end, align 8
  br label %for.cond

for.cond:                                         ; preds = %for.inc, %while.end
  %10 = load ptr, ptr %it, align 8
  %11 = load ptr, ptr %end, align 8
  %cmp8 = icmp ne ptr %10, %11
  br i1 %cmp8, label %for.body, label %for.end

for.body:                                         ; preds = %for.cond
  %12 = load ptr, ptr %it, align 8
  call void @_ZN7svectorIN3sat7literalEjEC2Ev(ptr noundef nonnull align 8 dereferenceable(8) %12)
  br label %for.inc

for.inc:                                          ; preds = %for.body
  %13 = load ptr, ptr %it, align 8
  %incdec.ptr = getelementptr inbounds %class.svector.34, ptr %13, i32 1
  store ptr %incdec.ptr, ptr %it, align 8
  br label %for.cond, !llvm.loop !17

for.end:                                          ; preds = %for.cond, %if.then
  ret void
}

; Function Attrs: mustprogress uwtable
define linkonce_odr hidden void @_ZN6vectorI7svectorIN3sat7literalEjELb1EjE6shrinkEj(ptr noundef nonnull align 8 dereferenceable(8) %this, i32 noundef %s) #5 comdat align 2 {
entry:
  %this.addr = alloca ptr, align 8
  %s.addr = alloca i32, align 4
  %it = alloca ptr, align 8
  %e = alloca ptr, align 8
  store ptr %this, ptr %this.addr, align 8
  store i32 %s, ptr %s.addr, align 4
  %this1 = load ptr, ptr %this.addr, align 8
  %m_data = getelementptr inbounds %class.vector.38, ptr %this1, i32 0, i32 0
  %0 = load ptr, ptr %m_data, align 8
  %tobool = icmp ne ptr %0, null
  br i1 %tobool, label %if.then, label %if.else

if.then:                                          ; preds = %entry
  %m_data2 = getelementptr inbounds %class.vector.38, ptr %this1, i32 0, i32 0
  %1 = load ptr, ptr %m_data2, align 8
  %2 = load i32, ptr %s.addr, align 4
  %idx.ext = zext i32 %2 to i64
  %add.ptr = getelementptr inbounds %class.svector.34, ptr %1, i64 %idx.ext
  store ptr %add.ptr, ptr %it, align 8
  %call = call noundef ptr @_ZN6vectorI7svectorIN3sat7literalEjELb1EjE3endEv(ptr noundef nonnull align 8 dereferenceable(8) %this1)
  store ptr %call, ptr %e, align 8
  br label %for.cond

for.cond:                                         ; preds = %for.inc, %if.then
  %3 = load ptr, ptr %it, align 8
  %4 = load ptr, ptr %e, align 8
  %cmp = icmp ne ptr %3, %4
  br i1 %cmp, label %for.body, label %for.end

for.body:                                         ; preds = %for.cond
  %5 = load ptr, ptr %it, align 8
  call void @_ZN7svectorIN3sat7literalEjED2Ev(ptr noundef nonnull align 8 dereferenceable(8) %5) #3
  br label %for.inc

for.inc:                                          ; preds = %for.body
  %6 = load ptr, ptr %it, align 8
  %incdec.ptr = getelementptr inbounds %class.svector.34, ptr %6, i32 1
  store ptr %incdec.ptr, ptr %it, align 8
  br label %for.cond, !llvm.loop !18

for.end:                                          ; preds = %for.cond
  %7 = load i32, ptr %s.addr, align 4
  %m_data3 = getelementptr inbounds %class.vector.38, ptr %this1, i32 0, i32 0
  %8 = load ptr, ptr %m_data3, align 8
  %arrayidx = getelementptr inbounds i32, ptr %8, i64 -1
  store i32 %7, ptr %arrayidx, align 4
  br label %if.end

if.else:                                          ; preds = %entry
  br label %if.end

if.end:                                           ; preds = %if.else, %for.end
  ret void
}

; Function Attrs: mustprogress nounwind uwtable
define linkonce_odr hidden noundef i32 @_ZNK6vectorI7svectorIN3sat7literalEjELb1EjE8capacityEv(ptr noundef nonnull align 8 dereferenceable(8) %this) #4 comdat align 2 {
entry:
  %retval = alloca i32, align 4
  %this.addr = alloca ptr, align 8
  store ptr %this, ptr %this.addr, align 8
  %this1 = load ptr, ptr %this.addr, align 8
  %m_data = getelementptr inbounds %class.vector.38, ptr %this1, i32 0, i32 0
  %0 = load ptr, ptr %m_data, align 8
  %cmp = icmp eq ptr %0, null
  br i1 %cmp, label %if.then, label %if.end

if.then:                                          ; preds = %entry
  store i32 0, ptr %retval, align 4
  br label %return

if.end:                                           ; preds = %entry
  %m_data2 = getelementptr inbounds %class.vector.38, ptr %this1, i32 0, i32 0
  %1 = load ptr, ptr %m_data2, align 8
  %arrayidx = getelementptr inbounds i32, ptr %1, i64 -2
  %2 = load i32, ptr %arrayidx, align 4
  store i32 %2, ptr %retval, align 4
  br label %return

return:                                           ; preds = %if.end, %if.then
  %3 = load i32, ptr %retval, align 4
  ret i32 %3
}

; Function Attrs: mustprogress uwtable
define linkonce_odr hidden void @_ZN6vectorI7svectorIN3sat7literalEjELb1EjE13expand_vectorEv(ptr noundef nonnull align 8 dereferenceable(8) %this) #5 comdat align 2 personality ptr @__gxx_personality_v0 {
entry:
  %this.addr = alloca ptr, align 8
  %capacity = alloca i32, align 4
  %mem = alloca ptr, align 8
  %old_capacity = alloca i32, align 4
  %old_capacity_T = alloca i32, align 4
  %new_capacity = alloca i32, align 4
  %new_capacity_T = alloca i32, align 4
  %ref.tmp = alloca %"class.std::__cxx11::basic_string", align 8
  %ref.tmp18 = alloca %"class.std::allocator", align 1
  %exn.slot = alloca ptr, align 8
  %ehselector.slot = alloca i32, align 4
  %cleanup.isactive = alloca i1, align 1
  %mem22 = alloca ptr, align 8
  %old_mem = alloca ptr, align 8
  %old_size = alloca i32, align 4
  %new_data = alloca ptr, align 8
  %coerce = alloca %"struct.std::pair.113", align 8
  store ptr %this, ptr %this.addr, align 8
  %this1 = load ptr, ptr %this.addr, align 8
  %m_data = getelementptr inbounds %class.vector.38, ptr %this1, i32 0, i32 0
  %0 = load ptr, ptr %m_data, align 8
  %cmp = icmp eq ptr %0, null
  br i1 %cmp, label %if.then, label %if.else

if.then:                                          ; preds = %entry
  store i32 2, ptr %capacity, align 4
  %1 = load i32, ptr %capacity, align 4
  %conv = zext i32 %1 to i64
  %mul = mul i64 8, %conv
  %add = add i64 %mul, 8
  %call = call noalias noundef ptr @_ZN6memory8allocateEm(i64 noundef %add)
  store ptr %call, ptr %mem, align 8
  %2 = load i32, ptr %capacity, align 4
  %3 = load ptr, ptr %mem, align 8
  store i32 %2, ptr %3, align 4
  %4 = load ptr, ptr %mem, align 8
  %incdec.ptr = getelementptr inbounds i32, ptr %4, i32 1
  store ptr %incdec.ptr, ptr %mem, align 8
  %5 = load ptr, ptr %mem, align 8
  store i32 0, ptr %5, align 4
  %6 = load ptr, ptr %mem, align 8
  %incdec.ptr2 = getelementptr inbounds i32, ptr %6, i32 1
  store ptr %incdec.ptr2, ptr %mem, align 8
  %7 = load ptr, ptr %mem, align 8
  %m_data3 = getelementptr inbounds %class.vector.38, ptr %this1, i32 0, i32 0
  store ptr %7, ptr %m_data3, align 8
  br label %if.end32

if.else:                                          ; preds = %entry
  %m_data4 = getelementptr inbounds %class.vector.38, ptr %this1, i32 0, i32 0
  %8 = load ptr, ptr %m_data4, align 8
  %arrayidx = getelementptr inbounds i32, ptr %8, i64 -2
  %9 = load i32, ptr %arrayidx, align 4
  store i32 %9, ptr %old_capacity, align 4
  %10 = load i32, ptr %old_capacity, align 4
  %conv5 = zext i32 %10 to i64
  %mul6 = mul i64 8, %conv5
  %add7 = add i64 %mul6, 8
  %conv8 = trunc i64 %add7 to i32
  store i32 %conv8, ptr %old_capacity_T, align 4
  %11 = load i32, ptr %old_capacity, align 4
  %mul9 = mul i32 3, %11
  %add10 = add i32 %mul9, 1
  %shr = lshr i32 %add10, 1
  store i32 %shr, ptr %new_capacity, align 4
  %12 = load i32, ptr %new_capacity, align 4
  %conv11 = zext i32 %12 to i64
  %mul12 = mul i64 8, %conv11
  %add13 = add i64 %mul12, 8
  %conv14 = trunc i64 %add13 to i32
  store i32 %conv14, ptr %new_capacity_T, align 4
  %13 = load i32, ptr %new_capacity, align 4
  %14 = load i32, ptr %old_capacity, align 4
  %cmp15 = icmp ule i32 %13, %14
  br i1 %cmp15, label %if.then17, label %lor.lhs.false

lor.lhs.false:                                    ; preds = %if.else
  %15 = load i32, ptr %new_capacity_T, align 4
  %16 = load i32, ptr %old_capacity_T, align 4
  %cmp16 = icmp ule i32 %15, %16
  br i1 %cmp16, label %if.then17, label %if.end

if.then17:                                        ; preds = %lor.lhs.false, %if.else
  store i1 true, ptr %cleanup.isactive, align 1
  %exception = call ptr @__cxa_allocate_exception(i64 40) #3
  call void @_ZNSaIcEC1Ev(ptr noundef nonnull align 1 dereferenceable(1) %ref.tmp18) #3
  invoke void @_ZNSt7__cxx1112basic_stringIcSt11char_traitsIcESaIcEEC2IS3_EEPKcRKS3_(ptr noundef nonnull align 8 dereferenceable(32) %ref.tmp, ptr noundef @.str.20, ptr noundef nonnull align 1 dereferenceable(1) %ref.tmp18)
          to label %invoke.cont unwind label %lpad

invoke.cont:                                      ; preds = %if.then17
  invoke void @_ZN17default_exceptionC2EONSt7__cxx1112basic_stringIcSt11char_traitsIcESaIcEEE(ptr noundef nonnull align 8 dereferenceable(40) %exception, ptr noundef nonnull align 8 dereferenceable(32) %ref.tmp)
          to label %invoke.cont20 unwind label %lpad19

invoke.cont20:                                    ; preds = %invoke.cont
  store i1 false, ptr %cleanup.isactive, align 1
  invoke void @__cxa_throw(ptr %exception, ptr @_ZTI17default_exception, ptr @_ZN17default_exceptionD2Ev) #14
          to label %unreachable unwind label %lpad19

lpad:                                             ; preds = %if.then17
  %17 = landingpad { ptr, i32 }
          cleanup
  %18 = extractvalue { ptr, i32 } %17, 0
  store ptr %18, ptr %exn.slot, align 8
  %19 = extractvalue { ptr, i32 } %17, 1
  store i32 %19, ptr %ehselector.slot, align 4
  br label %ehcleanup

lpad19:                                           ; preds = %invoke.cont20, %invoke.cont
  %20 = landingpad { ptr, i32 }
          cleanup
  %21 = extractvalue { ptr, i32 } %20, 0
  store ptr %21, ptr %exn.slot, align 8
  %22 = extractvalue { ptr, i32 } %20, 1
  store i32 %22, ptr %ehselector.slot, align 4
  call void @_ZNSt7__cxx1112basic_stringIcSt11char_traitsIcESaIcEED1Ev(ptr noundef nonnull align 8 dereferenceable(32) %ref.tmp) #3
  br label %ehcleanup

ehcleanup:                                        ; preds = %lpad19, %lpad
  call void @_ZNSaIcED1Ev(ptr noundef nonnull align 1 dereferenceable(1) %ref.tmp18) #3
  %cleanup.is_active = load i1, ptr %cleanup.isactive, align 1
  br i1 %cleanup.is_active, label %cleanup.action, label %cleanup.done

cleanup.action:                                   ; preds = %ehcleanup
  call void @__cxa_free_exception(ptr %exception) #3
  br label %cleanup.done

cleanup.done:                                     ; preds = %cleanup.action, %ehcleanup
  br label %eh.resume

if.end:                                           ; preds = %lor.lhs.false
  %m_data23 = getelementptr inbounds %class.vector.38, ptr %this1, i32 0, i32 0
  %23 = load ptr, ptr %m_data23, align 8
  %add.ptr = getelementptr inbounds i32, ptr %23, i64 -2
  store ptr %add.ptr, ptr %old_mem, align 8
  %24 = load i32, ptr %new_capacity_T, align 4
  %conv24 = zext i32 %24 to i64
  %call25 = call noalias noundef ptr @_ZN6memory8allocateEm(i64 noundef %conv24)
  store ptr %call25, ptr %mem22, align 8
  %call26 = call noundef i32 @_ZNK6vectorI7svectorIN3sat7literalEjELb1EjE4sizeEv(ptr noundef nonnull align 8 dereferenceable(8) %this1)
  store i32 %call26, ptr %old_size, align 4
  %25 = load i32, ptr %old_size, align 4
  %26 = load ptr, ptr %mem22, align 8
  %arrayidx27 = getelementptr inbounds i32, ptr %26, i64 1
  store i32 %25, ptr %arrayidx27, align 4
  %27 = load ptr, ptr %mem22, align 8
  %add.ptr28 = getelementptr inbounds i32, ptr %27, i64 2
  store ptr %add.ptr28, ptr %new_data, align 8
  %m_data29 = getelementptr inbounds %class.vector.38, ptr %this1, i32 0, i32 0
  %28 = load ptr, ptr %m_data29, align 8
  %29 = load i32, ptr %old_size, align 4
  %30 = load ptr, ptr %new_data, align 8
  %call30 = call { ptr, ptr } @_ZSt20uninitialized_move_nIP7svectorIN3sat7literalEjEjS4_ESt4pairIT_T1_ES6_T0_S7_(ptr noundef %28, i32 noundef %29, ptr noundef %30)
  %31 = getelementptr inbounds { ptr, ptr }, ptr %coerce, i32 0, i32 0
  %32 = extractvalue { ptr, ptr } %call30, 0
  store ptr %32, ptr %31, align 8
  %33 = getelementptr inbounds { ptr, ptr }, ptr %coerce, i32 0, i32 1
  %34 = extractvalue { ptr, ptr } %call30, 1
  store ptr %34, ptr %33, align 8
  call void @_ZN6vectorI7svectorIN3sat7literalEjELb1EjE7destroyEv(ptr noundef nonnull align 8 dereferenceable(8) %this1)
  %35 = load ptr, ptr %new_data, align 8
  %m_data31 = getelementptr inbounds %class.vector.38, ptr %this1, i32 0, i32 0
  store ptr %35, ptr %m_data31, align 8
  %36 = load i32, ptr %new_capacity, align 4
  %37 = load ptr, ptr %mem22, align 8
  store i32 %36, ptr %37, align 4
  br label %if.end32

if.end32:                                         ; preds = %if.end, %if.then
  ret void

eh.resume:                                        ; preds = %cleanup.done
  %exn = load ptr, ptr %exn.slot, align 8
  %sel = load i32, ptr %ehselector.slot, align 4
  %lpad.val = insertvalue { ptr, i32 } poison, ptr %exn, 0
  %lpad.val33 = insertvalue { ptr, i32 } %lpad.val, i32 %sel, 1
  resume { ptr, i32 } %lpad.val33

unreachable:                                      ; preds = %invoke.cont20
  unreachable
}

; Function Attrs: mustprogress nounwind uwtable
define linkonce_odr hidden noundef ptr @_ZN6vectorI7svectorIN3sat7literalEjELb1EjE3endEv(ptr noundef nonnull align 8 dereferenceable(8) %this) #4 comdat align 2 {
entry:
  %this.addr = alloca ptr, align 8
  store ptr %this, ptr %this.addr, align 8
  %this1 = load ptr, ptr %this.addr, align 8
  %m_data = getelementptr inbounds %class.vector.38, ptr %this1, i32 0, i32 0
  %0 = load ptr, ptr %m_data, align 8
  %call = call noundef i32 @_ZNK6vectorI7svectorIN3sat7literalEjELb1EjE4sizeEv(ptr noundef nonnull align 8 dereferenceable(8) %this1)
  %idx.ext = zext i32 %call to i64
  %add.ptr = getelementptr inbounds %class.svector.34, ptr %0, i64 %idx.ext
  ret ptr %add.ptr
}

declare ptr @__cxa_allocate_exception(i64)

; Function Attrs: nounwind
declare void @_ZNSaIcEC1Ev(ptr noundef nonnull align 1 dereferenceable(1)) unnamed_addr #2

; Function Attrs: mustprogress uwtable
define linkonce_odr hidden void @_ZNSt7__cxx1112basic_stringIcSt11char_traitsIcESaIcEEC2IS3_EEPKcRKS3_(ptr noundef nonnull align 8 dereferenceable(32) %this, ptr noundef %__s, ptr noundef nonnull align 1 dereferenceable(1) %__a) unnamed_addr #5 comdat align 2 personality ptr @__gxx_personality_v0 {
entry:
  %this.addr = alloca ptr, align 8
  %__s.addr = alloca ptr, align 8
  %__a.addr = alloca ptr, align 8
  %exn.slot = alloca ptr, align 8
  %ehselector.slot = alloca i32, align 4
  %__end = alloca ptr, align 8
  store ptr %this, ptr %this.addr, align 8
  store ptr %__s, ptr %__s.addr, align 8
  store ptr %__a, ptr %__a.addr, align 8
  %this1 = load ptr, ptr %this.addr, align 8
  %_M_dataplus = getelementptr inbounds %"class.std::__cxx11::basic_string", ptr %this1, i32 0, i32 0
  %call = call noundef ptr @_ZNSt7__cxx1112basic_stringIcSt11char_traitsIcESaIcEE13_M_local_dataEv(ptr noundef nonnull align 8 dereferenceable(32) %this1)
  %0 = load ptr, ptr %__a.addr, align 8
  call void @_ZNSt7__cxx1112basic_stringIcSt11char_traitsIcESaIcEE12_Alloc_hiderC1EPcRKS3_(ptr noundef nonnull align 8 dereferenceable(8) %_M_dataplus, ptr noundef %call, ptr noundef nonnull align 1 dereferenceable(1) %0)
  %1 = load ptr, ptr %__s.addr, align 8
  %cmp = icmp eq ptr %1, null
  br i1 %cmp, label %if.then, label %if.end

if.then:                                          ; preds = %entry
  invoke void @_ZSt19__throw_logic_errorPKc(ptr noundef @.str.21) #14
          to label %invoke.cont unwind label %lpad

invoke.cont:                                      ; preds = %if.then
  unreachable

lpad:                                             ; preds = %invoke.cont2, %if.end, %if.then
  %2 = landingpad { ptr, i32 }
          cleanup
  %3 = extractvalue { ptr, i32 } %2, 0
  store ptr %3, ptr %exn.slot, align 8
  %4 = extractvalue { ptr, i32 } %2, 1
  store i32 %4, ptr %ehselector.slot, align 4
  call void @_ZNSt7__cxx1112basic_stringIcSt11char_traitsIcESaIcEE12_Alloc_hiderD2Ev(ptr noundef nonnull align 8 dereferenceable(8) %_M_dataplus) #3
  br label %eh.resume

if.end:                                           ; preds = %entry
  %5 = load ptr, ptr %__s.addr, align 8
  %6 = load ptr, ptr %__s.addr, align 8
  %call3 = invoke noundef i64 @_ZNSt11char_traitsIcE6lengthEPKc(ptr noundef %6)
          to label %invoke.cont2 unwind label %lpad

invoke.cont2:                                     ; preds = %if.end
  %add.ptr = getelementptr inbounds i8, ptr %5, i64 %call3
  store ptr %add.ptr, ptr %__end, align 8
  %7 = load ptr, ptr %__s.addr, align 8
  %8 = load ptr, ptr %__end, align 8
  invoke void @_ZNSt7__cxx1112basic_stringIcSt11char_traitsIcESaIcEE12_M_constructIPKcEEvT_S8_St20forward_iterator_tag(ptr noundef nonnull align 8 dereferenceable(32) %this1, ptr noundef %7, ptr noundef %8)
          to label %invoke.cont4 unwind label %lpad

invoke.cont4:                                     ; preds = %invoke.cont2
  ret void

eh.resume:                                        ; preds = %lpad
  %exn = load ptr, ptr %exn.slot, align 8
  %sel = load i32, ptr %ehselector.slot, align 4
  %lpad.val = insertvalue { ptr, i32 } poison, ptr %exn, 0
  %lpad.val5 = insertvalue { ptr, i32 } %lpad.val, i32 %sel, 1
  resume { ptr, i32 } %lpad.val5
}

; Function Attrs: mustprogress nounwind uwtable
define linkonce_odr hidden void @_ZN17default_exceptionC2EONSt7__cxx1112basic_stringIcSt11char_traitsIcESaIcEEE(ptr noundef nonnull align 8 dereferenceable(40) %this, ptr noundef nonnull align 8 dereferenceable(32) %msg) unnamed_addr #4 comdat align 2 {
entry:
  %this.addr = alloca ptr, align 8
  %msg.addr = alloca ptr, align 8
  store ptr %this, ptr %this.addr, align 8
  store ptr %msg, ptr %msg.addr, align 8
  %this1 = load ptr, ptr %this.addr, align 8
  call void @_ZN12z3_exceptionC2Ev(ptr noundef nonnull align 8 dereferenceable(8) %this1) #3
  store ptr getelementptr inbounds ({ [6 x ptr] }, ptr @_ZTV17default_exception, i32 0, inrange i32 0, i32 2), ptr %this1, align 8
  %m_msg = getelementptr inbounds %class.default_exception, ptr %this1, i32 0, i32 1
  %0 = load ptr, ptr %msg.addr, align 8
  call void @_ZNSt7__cxx1112basic_stringIcSt11char_traitsIcESaIcEEC1EOS4_(ptr noundef nonnull align 8 dereferenceable(32) %m_msg, ptr noundef nonnull align 8 dereferenceable(32) %0) #3
  ret void
}

; Function Attrs: mustprogress nounwind uwtable
define linkonce_odr hidden void @_ZN17default_exceptionD2Ev(ptr noundef nonnull align 8 dereferenceable(40) %this) unnamed_addr #4 comdat align 2 {
entry:
  %this.addr = alloca ptr, align 8
  store ptr %this, ptr %this.addr, align 8
  %this1 = load ptr, ptr %this.addr, align 8
  store ptr getelementptr inbounds ({ [6 x ptr] }, ptr @_ZTV17default_exception, i32 0, inrange i32 0, i32 2), ptr %this1, align 8
  %m_msg = getelementptr inbounds %class.default_exception, ptr %this1, i32 0, i32 1
  call void @_ZNSt7__cxx1112basic_stringIcSt11char_traitsIcESaIcEED1Ev(ptr noundef nonnull align 8 dereferenceable(32) %m_msg) #3
  call void @_ZN12z3_exceptionD2Ev(ptr noundef nonnull align 8 dereferenceable(8) %this1) #3
  ret void
}

declare void @__cxa_throw(ptr, ptr, ptr)

; Function Attrs: nounwind
declare void @_ZNSaIcED1Ev(ptr noundef nonnull align 1 dereferenceable(1)) unnamed_addr #2

declare void @__cxa_free_exception(ptr)

; Function Attrs: mustprogress uwtable
define linkonce_odr hidden { ptr, ptr } @_ZSt20uninitialized_move_nIP7svectorIN3sat7literalEjEjS4_ESt4pairIT_T1_ES6_T0_S7_(ptr noundef %__first, i32 noundef %__count, ptr noundef %__result) #5 comdat {
entry:
  %retval = alloca %"struct.std::pair.113", align 8
  %__first.addr = alloca ptr, align 8
  %__count.addr = alloca i32, align 4
  %__result.addr = alloca ptr, align 8
  %__res = alloca %"struct.std::pair.115", align 8
  %agg.tmp = alloca %"class.std::move_iterator", align 8
  %ref.tmp = alloca ptr, align 8
  store ptr %__first, ptr %__first.addr, align 8
  store i32 %__count, ptr %__count.addr, align 4
  store ptr %__result, ptr %__result.addr, align 8
  %0 = load ptr, ptr %__first.addr, align 8
  %call = call ptr @_ZSt18make_move_iteratorIP7svectorIN3sat7literalEjEESt13move_iteratorIT_ES6_(ptr noundef %0)
  %coerce.dive = getelementptr inbounds %"class.std::move_iterator", ptr %agg.tmp, i32 0, i32 0
  store ptr %call, ptr %coerce.dive, align 8
  %1 = load i32, ptr %__count.addr, align 4
  %2 = load ptr, ptr %__result.addr, align 8
  %coerce.dive1 = getelementptr inbounds %"class.std::move_iterator", ptr %agg.tmp, i32 0, i32 0
  %3 = load ptr, ptr %coerce.dive1, align 8
  %call2 = call { ptr, ptr } @_ZSt27__uninitialized_copy_n_pairISt13move_iteratorIP7svectorIN3sat7literalEjEEjS5_ESt4pairIT_T1_ES8_T0_S9_(ptr %3, i32 noundef %1, ptr noundef %2)
  %4 = getelementptr inbounds { ptr, ptr }, ptr %__res, i32 0, i32 0
  %5 = extractvalue { ptr, ptr } %call2, 0
  store ptr %5, ptr %4, align 8
  %6 = getelementptr inbounds { ptr, ptr }, ptr %__res, i32 0, i32 1
  %7 = extractvalue { ptr, ptr } %call2, 1
  store ptr %7, ptr %6, align 8
  %first = getelementptr inbounds %"struct.std::pair.115", ptr %__res, i32 0, i32 0
  %call3 = call noundef ptr @_ZNKSt13move_iteratorIP7svectorIN3sat7literalEjEE4baseEv(ptr noundef nonnull align 8 dereferenceable(8) %first)
  store ptr %call3, ptr %ref.tmp, align 8
  %second = getelementptr inbounds %"struct.std::pair.115", ptr %__res, i32 0, i32 1
  call void @_ZNSt4pairIP7svectorIN3sat7literalEjES4_EC2IS4_RS4_TnNSt9enable_ifIXaaclsr5_PCCPE22_MoveConstructiblePairIT_T0_EEclsr5_PCCPE30_ImplicitlyMoveConvertiblePairIS9_SA_EEEbE4typeELb1EEEOS9_OSA_(ptr noundef nonnull align 8 dereferenceable(16) %retval, ptr noundef nonnull align 8 dereferenceable(8) %ref.tmp, ptr noundef nonnull align 8 dereferenceable(8) %second)
  %8 = load { ptr, ptr }, ptr %retval, align 8
  ret { ptr, ptr } %8
}

; Function Attrs: mustprogress uwtable
define linkonce_odr hidden void @_ZN6vectorI7svectorIN3sat7literalEjELb1EjE7destroyEv(ptr noundef nonnull align 8 dereferenceable(8) %this) #5 comdat align 2 {
entry:
  %this.addr = alloca ptr, align 8
  store ptr %this, ptr %this.addr, align 8
  %this1 = load ptr, ptr %this.addr, align 8
  %m_data = getelementptr inbounds %class.vector.38, ptr %this1, i32 0, i32 0
  %0 = load ptr, ptr %m_data, align 8
  %tobool = icmp ne ptr %0, null
  br i1 %tobool, label %if.then, label %if.end

if.then:                                          ; preds = %entry
  call void @_ZN6vectorI7svectorIN3sat7literalEjELb1EjE16destroy_elementsEv(ptr noundef nonnull align 8 dereferenceable(8) %this1)
  call void @_ZN6vectorI7svectorIN3sat7literalEjELb1EjE11free_memoryEv(ptr noundef nonnull align 8 dereferenceable(8) %this1)
  br label %if.end

if.end:                                           ; preds = %if.then, %entry
  ret void
}

declare noundef ptr @_ZNSt7__cxx1112basic_stringIcSt11char_traitsIcESaIcEE13_M_local_dataEv(ptr noundef nonnull align 8 dereferenceable(32)) #1

declare void @_ZNSt7__cxx1112basic_stringIcSt11char_traitsIcESaIcEE12_Alloc_hiderC1EPcRKS3_(ptr noundef nonnull align 8 dereferenceable(8), ptr noundef, ptr noundef nonnull align 1 dereferenceable(1)) unnamed_addr #1

; Function Attrs: noreturn
declare void @_ZSt19__throw_logic_errorPKc(ptr noundef) #10

; Function Attrs: mustprogress nounwind uwtable
define linkonce_odr hidden noundef i64 @_ZNSt11char_traitsIcE6lengthEPKc(ptr noundef %__s) #4 comdat align 2 {
entry:
  %__s.addr = alloca ptr, align 8
  store ptr %__s, ptr %__s.addr, align 8
  %0 = load ptr, ptr %__s.addr, align 8
  %call = call i64 @strlen(ptr noundef %0) #3
  ret i64 %call
}

; Function Attrs: mustprogress uwtable
define linkonce_odr dso_local void @_ZNSt7__cxx1112basic_stringIcSt11char_traitsIcESaIcEE12_M_constructIPKcEEvT_S8_St20forward_iterator_tag(ptr noundef nonnull align 8 dereferenceable(32) %this, ptr noundef %__beg, ptr noundef %__end) #5 comdat align 2 personality ptr @__gxx_personality_v0 {
entry:
  %this.addr.i = alloca ptr, align 8
  %this.addr = alloca ptr, align 8
  %__beg.addr = alloca ptr, align 8
  %__end.addr = alloca ptr, align 8
  %__dnew = alloca i64, align 8
  %__guard = alloca %struct._Guard, align 8
  %exn.slot = alloca ptr, align 8
  %ehselector.slot = alloca i32, align 4
  store ptr %this, ptr %this.addr, align 8
  store ptr %__beg, ptr %__beg.addr, align 8
  store ptr %__end, ptr %__end.addr, align 8
  %this1 = load ptr, ptr %this.addr, align 8
  %0 = load ptr, ptr %__beg.addr, align 8
  %1 = load ptr, ptr %__end.addr, align 8
  %call = call noundef i64 @_ZSt8distanceIPKcENSt15iterator_traitsIT_E15difference_typeES3_S3_(ptr noundef %0, ptr noundef %1)
  store i64 %call, ptr %__dnew, align 8
  %2 = load i64, ptr %__dnew, align 8
  %cmp = icmp ugt i64 %2, 15
  br i1 %cmp, label %if.then, label %if.else

if.then:                                          ; preds = %entry
  %call2 = call noundef ptr @_ZNSt7__cxx1112basic_stringIcSt11char_traitsIcESaIcEE9_M_createERmm(ptr noundef nonnull align 8 dereferenceable(32) %this1, ptr noundef nonnull align 8 dereferenceable(8) %__dnew, i64 noundef 0)
  call void @_ZNSt7__cxx1112basic_stringIcSt11char_traitsIcESaIcEE7_M_dataEPc(ptr noundef nonnull align 8 dereferenceable(32) %this1, ptr noundef %call2)
  %3 = load i64, ptr %__dnew, align 8
  call void @_ZNSt7__cxx1112basic_stringIcSt11char_traitsIcESaIcEE11_M_capacityEm(ptr noundef nonnull align 8 dereferenceable(32) %this1, i64 noundef %3)
  br label %if.end

if.else:                                          ; preds = %entry
  store ptr %this1, ptr %this.addr.i, align 8
  %this1.i = load ptr, ptr %this.addr.i, align 8
  %call.i = invoke noundef ptr @_ZNSt7__cxx1112basic_stringIcSt11char_traitsIcESaIcEE13_M_local_dataEv(ptr noundef nonnull align 8 dereferenceable(32) %this1.i)
          to label %_ZNSt7__cxx1112basic_stringIcSt11char_traitsIcESaIcEE17_M_use_local_dataEv.exit unwind label %terminate.lpad.i

terminate.lpad.i:                                 ; preds = %if.else
  %4 = landingpad { ptr, i32 }
          catch ptr null
  %5 = extractvalue { ptr, i32 } %4, 0
  call void @__clang_call_terminate(ptr %5) #13
  unreachable

_ZNSt7__cxx1112basic_stringIcSt11char_traitsIcESaIcEE17_M_use_local_dataEv.exit: ; preds = %if.else
  br label %if.end

if.end:                                           ; preds = %_ZNSt7__cxx1112basic_stringIcSt11char_traitsIcESaIcEE17_M_use_local_dataEv.exit, %if.then
  call void @_ZZNSt7__cxx1112basic_stringIcSt11char_traitsIcESaIcEE12_M_constructIPKcEEvT_S8_St20forward_iterator_tagEN6_GuardC2EPS4_(ptr noundef nonnull align 8 dereferenceable(8) %__guard, ptr noundef %this1)
  %call4 = invoke noundef ptr @_ZNKSt7__cxx1112basic_stringIcSt11char_traitsIcESaIcEE7_M_dataEv(ptr noundef nonnull align 8 dereferenceable(32) %this1)
          to label %invoke.cont unwind label %lpad

invoke.cont:                                      ; preds = %if.end
  %6 = load ptr, ptr %__beg.addr, align 8
  %7 = load ptr, ptr %__end.addr, align 8
  call void @_ZNSt7__cxx1112basic_stringIcSt11char_traitsIcESaIcEE13_S_copy_charsEPcPKcS7_(ptr noundef %call4, ptr noundef %6, ptr noundef %7) #3
  %_M_guarded = getelementptr inbounds %struct._Guard, ptr %__guard, i32 0, i32 0
  store ptr null, ptr %_M_guarded, align 8
  %8 = load i64, ptr %__dnew, align 8
  invoke void @_ZNSt7__cxx1112basic_stringIcSt11char_traitsIcESaIcEE13_M_set_lengthEm(ptr noundef nonnull align 8 dereferenceable(32) %this1, i64 noundef %8)
          to label %invoke.cont5 unwind label %lpad

invoke.cont5:                                     ; preds = %invoke.cont
  call void @_ZZNSt7__cxx1112basic_stringIcSt11char_traitsIcESaIcEE12_M_constructIPKcEEvT_S8_St20forward_iterator_tagEN6_GuardD2Ev(ptr noundef nonnull align 8 dereferenceable(8) %__guard) #3
  ret void

lpad:                                             ; preds = %invoke.cont, %if.end
  %9 = landingpad { ptr, i32 }
          cleanup
  %10 = extractvalue { ptr, i32 } %9, 0
  store ptr %10, ptr %exn.slot, align 8
  %11 = extractvalue { ptr, i32 } %9, 1
  store i32 %11, ptr %ehselector.slot, align 4
  call void @_ZZNSt7__cxx1112basic_stringIcSt11char_traitsIcESaIcEE12_M_constructIPKcEEvT_S8_St20forward_iterator_tagEN6_GuardD2Ev(ptr noundef nonnull align 8 dereferenceable(8) %__guard) #3
  br label %eh.resume

eh.resume:                                        ; preds = %lpad
  %exn = load ptr, ptr %exn.slot, align 8
  %sel = load i32, ptr %ehselector.slot, align 4
  %lpad.val = insertvalue { ptr, i32 } poison, ptr %exn, 0
  %lpad.val6 = insertvalue { ptr, i32 } %lpad.val, i32 %sel, 1
  resume { ptr, i32 } %lpad.val6
}

; Function Attrs: mustprogress nounwind uwtable
define linkonce_odr hidden void @_ZNSt7__cxx1112basic_stringIcSt11char_traitsIcESaIcEE12_Alloc_hiderD2Ev(ptr noundef nonnull align 8 dereferenceable(8) %this) unnamed_addr #4 comdat align 2 {
entry:
  %this.addr = alloca ptr, align 8
  store ptr %this, ptr %this.addr, align 8
  %this1 = load ptr, ptr %this.addr, align 8
  call void @_ZNSaIcED2Ev(ptr noundef nonnull align 1 dereferenceable(1) %this1) #3
  ret void
}

; Function Attrs: nounwind
declare i64 @strlen(ptr noundef) #2

; Function Attrs: mustprogress uwtable
define linkonce_odr dso_local noundef i64 @_ZSt8distanceIPKcENSt15iterator_traitsIT_E15difference_typeES3_S3_(ptr noundef %__first, ptr noundef %__last) #5 comdat {
entry:
  %__first.addr = alloca ptr, align 8
  %__last.addr = alloca ptr, align 8
  store ptr %__first, ptr %__first.addr, align 8
  store ptr %__last, ptr %__last.addr, align 8
  %0 = load ptr, ptr %__first.addr, align 8
  %1 = load ptr, ptr %__last.addr, align 8
  call void @_ZSt19__iterator_categoryIPKcENSt15iterator_traitsIT_E17iterator_categoryERKS3_(ptr noundef nonnull align 8 dereferenceable(8) %__first.addr)
  %call = call noundef i64 @_ZSt10__distanceIPKcENSt15iterator_traitsIT_E15difference_typeES3_S3_St26random_access_iterator_tag(ptr noundef %0, ptr noundef %1)
  ret i64 %call
}

declare void @_ZNSt7__cxx1112basic_stringIcSt11char_traitsIcESaIcEE7_M_dataEPc(ptr noundef nonnull align 8 dereferenceable(32), ptr noundef) #1

declare noundef ptr @_ZNSt7__cxx1112basic_stringIcSt11char_traitsIcESaIcEE9_M_createERmm(ptr noundef nonnull align 8 dereferenceable(32), ptr noundef nonnull align 8 dereferenceable(8), i64 noundef) #1

declare void @_ZNSt7__cxx1112basic_stringIcSt11char_traitsIcESaIcEE11_M_capacityEm(ptr noundef nonnull align 8 dereferenceable(32), i64 noundef) #1

; Function Attrs: mustprogress nounwind uwtable
define linkonce_odr hidden void @_ZZNSt7__cxx1112basic_stringIcSt11char_traitsIcESaIcEE12_M_constructIPKcEEvT_S8_St20forward_iterator_tagEN6_GuardC2EPS4_(ptr noundef nonnull align 8 dereferenceable(8) %this, ptr noundef %__s) unnamed_addr #4 comdat align 2 {
entry:
  %this.addr = alloca ptr, align 8
  %__s.addr = alloca ptr, align 8
  store ptr %this, ptr %this.addr, align 8
  store ptr %__s, ptr %__s.addr, align 8
  %this1 = load ptr, ptr %this.addr, align 8
  %_M_guarded = getelementptr inbounds %struct._Guard, ptr %this1, i32 0, i32 0
  %0 = load ptr, ptr %__s.addr, align 8
  store ptr %0, ptr %_M_guarded, align 8
  ret void
}

; Function Attrs: nounwind
declare void @_ZNSt7__cxx1112basic_stringIcSt11char_traitsIcESaIcEE13_S_copy_charsEPcPKcS7_(ptr noundef, ptr noundef, ptr noundef) #2

declare noundef ptr @_ZNKSt7__cxx1112basic_stringIcSt11char_traitsIcESaIcEE7_M_dataEv(ptr noundef nonnull align 8 dereferenceable(32)) #1

declare void @_ZNSt7__cxx1112basic_stringIcSt11char_traitsIcESaIcEE13_M_set_lengthEm(ptr noundef nonnull align 8 dereferenceable(32), i64 noundef) #1

; Function Attrs: mustprogress nounwind uwtable
define linkonce_odr hidden void @_ZZNSt7__cxx1112basic_stringIcSt11char_traitsIcESaIcEE12_M_constructIPKcEEvT_S8_St20forward_iterator_tagEN6_GuardD2Ev(ptr noundef nonnull align 8 dereferenceable(8) %this) unnamed_addr #4 comdat align 2 personality ptr @__gxx_personality_v0 {
entry:
  %this.addr = alloca ptr, align 8
  store ptr %this, ptr %this.addr, align 8
  %this1 = load ptr, ptr %this.addr, align 8
  %_M_guarded = getelementptr inbounds %struct._Guard, ptr %this1, i32 0, i32 0
  %0 = load ptr, ptr %_M_guarded, align 8
  %tobool = icmp ne ptr %0, null
  br i1 %tobool, label %if.then, label %if.end

if.then:                                          ; preds = %entry
  %_M_guarded2 = getelementptr inbounds %struct._Guard, ptr %this1, i32 0, i32 0
  %1 = load ptr, ptr %_M_guarded2, align 8
  invoke void @_ZNSt7__cxx1112basic_stringIcSt11char_traitsIcESaIcEE10_M_disposeEv(ptr noundef nonnull align 8 dereferenceable(32) %1)
          to label %invoke.cont unwind label %terminate.lpad

invoke.cont:                                      ; preds = %if.then
  br label %if.end

if.end:                                           ; preds = %invoke.cont, %entry
  ret void

terminate.lpad:                                   ; preds = %if.then
  %2 = landingpad { ptr, i32 }
          catch ptr null
  %3 = extractvalue { ptr, i32 } %2, 0
  call void @__clang_call_terminate(ptr %3) #13
  unreachable
}

; Function Attrs: mustprogress nounwind uwtable
define linkonce_odr dso_local noundef i64 @_ZSt10__distanceIPKcENSt15iterator_traitsIT_E15difference_typeES3_S3_St26random_access_iterator_tag(ptr noundef %__first, ptr noundef %__last) #4 comdat {
entry:
  %__first.addr = alloca ptr, align 8
  %__last.addr = alloca ptr, align 8
  store ptr %__first, ptr %__first.addr, align 8
  store ptr %__last, ptr %__last.addr, align 8
  %0 = load ptr, ptr %__last.addr, align 8
  %1 = load ptr, ptr %__first.addr, align 8
  %sub.ptr.lhs.cast = ptrtoint ptr %0 to i64
  %sub.ptr.rhs.cast = ptrtoint ptr %1 to i64
  %sub.ptr.sub = sub i64 %sub.ptr.lhs.cast, %sub.ptr.rhs.cast
  ret i64 %sub.ptr.sub
}

; Function Attrs: mustprogress nounwind uwtable
define linkonce_odr dso_local void @_ZSt19__iterator_categoryIPKcENSt15iterator_traitsIT_E17iterator_categoryERKS3_(ptr noundef nonnull align 8 dereferenceable(8) %0) #4 comdat {
entry:
  %.addr = alloca ptr, align 8
  store ptr %0, ptr %.addr, align 8
  ret void
}

declare void @_ZNSt7__cxx1112basic_stringIcSt11char_traitsIcESaIcEE10_M_disposeEv(ptr noundef nonnull align 8 dereferenceable(32)) #1

; Function Attrs: nounwind
declare void @_ZNSaIcED2Ev(ptr noundef nonnull align 1 dereferenceable(1)) unnamed_addr #2

; Function Attrs: mustprogress nounwind uwtable
define linkonce_odr hidden void @_ZN12z3_exceptionC2Ev(ptr noundef nonnull align 8 dereferenceable(8) %this) unnamed_addr #4 comdat align 2 {
entry:
  %this.addr = alloca ptr, align 8
  store ptr %this, ptr %this.addr, align 8
  %this1 = load ptr, ptr %this.addr, align 8
  store ptr getelementptr inbounds ({ [6 x ptr] }, ptr @_ZTV12z3_exception, i32 0, inrange i32 0, i32 2), ptr %this1, align 8
  ret void
}

; Function Attrs: nounwind
declare void @_ZNSt7__cxx1112basic_stringIcSt11char_traitsIcESaIcEEC1EOS4_(ptr noundef nonnull align 8 dereferenceable(32), ptr noundef nonnull align 8 dereferenceable(32)) unnamed_addr #2

