target datalayout = "e-m:e-p270:32:32-p271:32:32-p272:64:64-i64:64-i128:128-f80:128-n8:16:32:64-S128"
target triple = "x86_64-unknown-linux-gnu"

%"class.std::ios_base::Init" = type { i8 }
%class.symbol = type { ptr }
%"class.std::basic_ostream" = type { ptr, %"class.std::basic_ios" }
%"class.std::basic_ios" = type { %"class.std::ios_base", ptr, i8, i8, ptr, ptr, ptr, ptr }
%"class.std::ios_base" = type { ptr, i64, i64, i32, i32, i32, ptr, %"struct.std::ios_base::_Words", [8 x %"struct.std::ios_base::_Words"], i32, ptr, %"class.std::locale" }
%"struct.std::ios_base::_Words" = type { ptr, i64 }
%"class.std::locale" = type { ptr }
%struct.app_flags = type { i24 }
%"class.datalog::context::restore_rules" = type { %class.trail, ptr, ptr }
%class.trail = type { ptr }
%"class.datalog::restore_vec_size_trail" = type <{ %class.trail, ptr, i32, [4 x i8] }>
%"class.datalog::context" = type <{ ptr, ptr, ptr, %class.params_ref, ptr, i8, i8, [6 x i8], %class.symbol, %"class.datalog::dl_decl_util", %class.th_rewriter, %class.var_subst, %"class.datalog::rule_manager", %"class.datalog::context::contains_pred", %"class.datalog::rule_properties", %"class.datalog::rule_transformer", %class.trail_stack, %class.ref_vector.49, %class.bind_variables, %class.obj_map.87, %class.obj_hashtable.92, %class.map.98, %class.obj_map.102, %"class.datalog::rule_set", %"class.datalog::rule_set", %class.expr_free_vars, i32, [4 x i8], %class.ref_vector, %class.svector.85, %class.vector.126, %class.ref_vector, %class.ref, %class.ref.127, ptr, %class.scoped_ptr.128, i8, i8, i8, i8, i32, %class.obj_ref, %class.obj_ref, i32, [4 x i8] }>
%class.params_ref = type { ptr }
%"class.datalog::dl_decl_util" = type <{ ptr, %class.scoped_ptr, %class.scoped_ptr.0, i32, [4 x i8] }>
%class.scoped_ptr = type { ptr }
%class.scoped_ptr.0 = type { ptr }
%class.th_rewriter = type { ptr, %class.params_ref }
%class.var_subst = type { %class.beta_reducer, i8, [7 x i8] }
%class.beta_reducer = type <{ %class.rewriter_tpl, %struct.beta_reducer_cfg, [7 x i8] }>
%class.rewriter_tpl = type { %class.rewriter_core, ptr, i32, %class.ptr_vector.2, %class.var_shifter, %class.inv_var_shifter, %class.obj_ref, %class.obj_ref.11, %class.obj_ref.11, %class.svector.12 }
%class.rewriter_core = type { ptr, ptr, i8, i8, %class.ptr_vector, ptr, %class.svector, %class.ref_vector, %class.ptr_vector, ptr, %class.ref_vector.4, %class.obj_hashtable, ptr, i32, %class.svector.9 }
%class.svector = type { %class.vector.1 }
%class.vector.1 = type { ptr }
%class.ptr_vector = type { %class.vector }
%class.vector = type { ptr }
%class.ref_vector.4 = type { %class.ref_vector_core.5 }
%class.ref_vector_core.5 = type { %class.ref_manager_wrapper.6, %class.ptr_vector.7 }
%class.ref_manager_wrapper.6 = type { ptr }
%class.ptr_vector.7 = type { %class.vector.8 }
%class.vector.8 = type { ptr }
%class.obj_hashtable = type { %class.core_hashtable.base, [4 x i8] }
%class.core_hashtable.base = type <{ ptr, i32, i32, i32 }>
%class.svector.9 = type { %class.vector.10 }
%class.vector.10 = type { ptr }
%class.ptr_vector.2 = type { %class.vector.3 }
%class.vector.3 = type { ptr }
%class.var_shifter = type <{ %class.var_shifter_core, i32, i32, i32, [4 x i8] }>
%class.var_shifter_core = type { %class.rewriter_core }
%class.inv_var_shifter = type <{ %class.var_shifter_core, i32, [4 x i8] }>
%class.obj_ref.11 = type { ptr, ptr }
%class.svector.12 = type { %class.vector.13 }
%class.vector.13 = type { ptr }
%struct.beta_reducer_cfg = type { i8 }
%"class.datalog::rule_manager" = type { ptr, ptr, %"class.datalog::rule_counter", %class.used_vars, %class.uint_set, %class.expr_free_vars, %class.ref_vector.4, %class.obj_ref.11, %class.ref_vector, %class.svector.22, %class.hnf, %class.qe_lite, %class.label_rewriter, %"struct.datalog::uninterpreted_function_finder_proc", %"struct.datalog::quantifier_finder_proc", [5 x i8], %class.expr_sparse_mark, %"struct.datalog::fd_finder_proc" }
%"class.datalog::rule_counter" = type { %class.var_counter }
%class.var_counter = type { %class.counter, %class.ast_fast_mark, %class.expr_free_vars, %class.ptr_vector.2, %class.svector.12 }
%class.counter = type { %class.u_map }
%class.u_map = type { %class.map }
%class.map = type { %class.table2map }
%class.table2map = type { %class.core_hashtable.14 }
%class.core_hashtable.14 = type <{ ptr, i32, i32, i32, [4 x i8] }>
%class.ast_fast_mark = type { %class.ptr_buffer }
%class.ptr_buffer = type { %class.buffer }
%class.buffer = type { ptr, i32, i32, [16 x %"union.std::aligned_storage<8, 8>::type"] }
%"union.std::aligned_storage<8, 8>::type" = type { [8 x i8] }
%class.used_vars = type { %class.ptr_vector.16, %class.hashtable, %class.svector.20, i32, i32 }
%class.ptr_vector.16 = type { %class.vector.17 }
%class.vector.17 = type { ptr }
%class.hashtable = type { %class.core_hashtable.base.19, [4 x i8] }
%class.core_hashtable.base.19 = type <{ ptr, i32, i32, i32 }>
%class.svector.20 = type { %class.vector.21 }
%class.vector.21 = type { ptr }
%class.uint_set = type { %class.svector.12 }
%class.svector.22 = type { %class.vector.23 }
%class.vector.23 = type { ptr }
%class.hnf = type { ptr }
%class.qe_lite = type { ptr }
%class.label_rewriter = type { i32, %class.rewriter_tpl.24 }
%class.rewriter_tpl.24 = type { %class.rewriter_core, ptr, i32, %class.ptr_vector.2, %class.var_shifter, %class.inv_var_shifter, %class.obj_ref, %class.obj_ref.11, %class.obj_ref.11, %class.svector.12 }
%"struct.datalog::uninterpreted_function_finder_proc" = type { ptr, %"class.datatype::util", %"class.datalog::dl_decl_util", i8, ptr }
%"class.datatype::util" = type { ptr, i32, ptr, %class.obj_map, %class.obj_map.29, %class.obj_map.34, %class.obj_map.39, %class.obj_map.39, %class.obj_map.39, %class.obj_map.44, %class.obj_map.44, %class.obj_map.44, %class.ref_vector.49, %class.ref_vector_core.54, %class.ptr_vector.57, i32, %class.ptr_vector.16 }
%class.obj_map = type { %class.core_hashtable.25 }
%class.core_hashtable.25 = type <{ ptr, i32, i32, i32, [4 x i8] }>
%class.obj_map.29 = type { %class.core_hashtable.30 }
%class.core_hashtable.30 = type <{ ptr, i32, i32, i32, [4 x i8] }>
%class.obj_map.34 = type { %class.core_hashtable.35 }
%class.core_hashtable.35 = type <{ ptr, i32, i32, i32, [4 x i8] }>
%class.obj_map.39 = type { %class.core_hashtable.40 }
%class.core_hashtable.40 = type <{ ptr, i32, i32, i32, [4 x i8] }>
%class.obj_map.44 = type { %class.core_hashtable.45 }
%class.core_hashtable.45 = type <{ ptr, i32, i32, i32, [4 x i8] }>
%class.ref_vector_core.54 = type { %class.ptr_vector.55 }
%class.ptr_vector.55 = type { %class.vector.56 }
%class.vector.56 = type { ptr }
%class.ptr_vector.57 = type { %class.vector.58 }
%class.vector.58 = type { ptr }
%"struct.datalog::quantifier_finder_proc" = type { i8, i8, i8 }
%class.expr_sparse_mark = type { %class.obj_hashtable }
%"struct.datalog::fd_finder_proc" = type <{ ptr, %class.bv_util, i8, [7 x i8] }>
%class.bv_util = type { %class.bv_recognizers, ptr, ptr }
%class.bv_recognizers = type { i32 }
%"class.datalog::context::contains_pred" = type { %class.i_expr_pred, ptr }
%class.i_expr_pred = type { ptr }
%"class.datalog::rule_properties" = type <{ ptr, ptr, ptr, ptr, %"class.datatype::util", %"class.datalog::dl_decl_util", %class.arith_util, %class.bv_util, %class.array_util, %"class.recfun::util", i8, [7 x i8], ptr, %class.obj_map.59, %class.obj_map.64, %class.ptr_vector.69, %class.ptr_vector.69, %class.ptr_vector.69, i8, i8, [6 x i8] }>
%class.arith_util = type { ptr, ptr }
%class.array_util = type { %class.array_recognizers, ptr }
%class.array_recognizers = type { i32 }
%"class.recfun::util" = type { ptr, i32, ptr }
%class.obj_map.59 = type { %class.core_hashtable.60 }
%class.core_hashtable.60 = type <{ ptr, i32, i32, i32, [4 x i8] }>
%class.obj_map.64 = type { %class.core_hashtable.65 }
%class.core_hashtable.65 = type <{ ptr, i32, i32, i32, [4 x i8] }>
%class.ptr_vector.69 = type { %class.vector.70 }
%class.vector.70 = type { ptr }
%"class.datalog::rule_transformer" = type { ptr, ptr, i8, %class.svector.71 }
%class.svector.71 = type { %class.vector.72 }
%class.vector.72 = type { ptr }
%class.trail_stack = type { %class.ptr_vector.73, %class.svector.12, %class.region }
%class.ptr_vector.73 = type { %class.vector.74 }
%class.vector.74 = type { ptr }
%class.region = type { ptr, ptr, ptr, ptr, ptr }
%class.ref_vector.49 = type { %class.ref_vector_core.50 }
%class.ref_vector_core.50 = type { %class.ref_manager_wrapper.51, %class.ptr_vector.52 }
%class.ref_manager_wrapper.51 = type { ptr }
%class.ptr_vector.52 = type { %class.vector.53 }
%class.vector.53 = type { ptr }
%class.bind_variables = type { ptr, %class.ref_vector.4, %class.obj_map.75, %class.obj_map.80, %class.ref_vector, %class.ptr_vector.16, %class.svector.85, %class.ptr_vector.2, %class.ptr_vector.2 }
%class.obj_map.75 = type { %class.core_hashtable.76 }
%class.core_hashtable.76 = type <{ ptr, i32, i32, i32, [4 x i8] }>
%class.obj_map.80 = type { %class.core_hashtable.81 }
%class.core_hashtable.81 = type <{ ptr, i32, i32, i32, [4 x i8] }>
%class.obj_map.87 = type { %class.core_hashtable.88 }
%class.core_hashtable.88 = type <{ ptr, i32, i32, i32, [4 x i8] }>
%class.obj_hashtable.92 = type { %class.core_hashtable.base.96, [4 x i8] }
%class.core_hashtable.base.96 = type <{ ptr, i32, i32, i32 }>
%class.map.98 = type { %class.table2map.99 }
%class.table2map.99 = type { %class.core_hashtable.100 }
%class.core_hashtable.100 = type <{ ptr, i32, i32, i32, [4 x i8] }>
%class.obj_map.102 = type { %class.core_hashtable.103 }
%class.core_hashtable.103 = type <{ ptr, i32, i32, i32, [4 x i8] }>
%"class.datalog::rule_set" = type { ptr, ptr, %class.ref_vector.107, %class.obj_map.110, %"class.datalog::rule_dependencies", %class.scoped_ptr.120, %class.obj_hashtable.92, %class.obj_map.39, %class.obj_map.39, %class.ref_vector.121, %class.ptr_vector.69 }
%class.ref_vector.107 = type { %class.ref_vector_core.108 }
%class.ref_vector_core.108 = type { %class.ref_manager_wrapper.109, %class.ptr_vector.69 }
%class.ref_manager_wrapper.109 = type { ptr }
%class.obj_map.110 = type { %class.core_hashtable.111 }
%class.core_hashtable.111 = type <{ ptr, i32, i32, i32, [4 x i8] }>
%"class.datalog::rule_dependencies" = type { %class.obj_map.115, ptr, %class.ptr_vector.2, %class.expr_sparse_mark, %class.obj_hashtable.92 }
%class.obj_map.115 = type { %class.core_hashtable.116 }
%class.core_hashtable.116 = type <{ ptr, i32, i32, i32, [4 x i8] }>
%class.scoped_ptr.120 = type { ptr }
%class.ref_vector.121 = type { %class.ref_vector_core.122 }
%class.ref_vector_core.122 = type { %class.ref_manager_wrapper.123, %class.ptr_vector.124 }
%class.ref_manager_wrapper.123 = type { ptr }
%class.ptr_vector.124 = type { %class.vector.125 }
%class.vector.125 = type { ptr }
%class.expr_free_vars = type { %class.expr_sparse_mark, %class.ptr_vector.16, %class.ptr_vector.2 }
%class.svector.85 = type { %class.vector.86 }
%class.vector.86 = type { ptr }
%class.vector.126 = type { ptr }
%class.ref_vector = type { %class.ref_vector_core }
%class.ref_vector_core = type { %class.ref_manager_wrapper, %class.ptr_vector.2 }
%class.ref_manager_wrapper = type { ptr }
%class.ref = type { ptr }
%class.ref.127 = type { ptr }
%class.scoped_ptr.128 = type { ptr }
%class.obj_ref = type { ptr, ptr }
%"class.std::__cxx11::basic_string" = type { %"struct.std::__cxx11::basic_string<char>::_Alloc_hider", i64, %union.anon }
%"struct.std::__cxx11::basic_string<char>::_Alloc_hider" = type { ptr }
%union.anon = type { i64, [8 x i8] }
%"class.std::allocator" = type { i8 }
%class.default_exception = type { %class.z3_exception, %"class.std::__cxx11::basic_string" }
%class.z3_exception = type { ptr }
%struct.symbol_hash_proc = type { i8 }
%struct.symbol_eq_proc = type { i8 }
%struct.fp_params = type { ptr, %class.params_ref }
%struct.obj_hash.89 = type { i8 }
%struct.default_eq.90 = type { i8 }
%struct.obj_ptr_hash.94 = type { i8 }
%struct.ptr_eq.95 = type { i8 }
%struct.obj_hash.104 = type { i8 }
%struct.default_eq.105 = type { i8 }
%class.core_hashtable.93 = type <{ ptr, i32, i32, i32, [4 x i8] }>
%class.obj_hash_entry.202 = type { ptr }
%"class.core_hashtable<obj_map<const sort, datalog::context::sort_domain *>::obj_map_entry, obj_hash<obj_map<const sort, datalog::context::sort_domain *>::key_data>, default_eq<obj_map<const sort, datalog::context::sort_domain *>::key_data>>::iterator" = type { ptr, ptr }
%"struct.obj_map<const sort, datalog::context::sort_domain *>::key_data" = type { ptr, ptr }
%"class.datalog::context::symbol_sort_domain" = type { %"class.datalog::context::sort_domain", %class.map.159, %class.svector.85 }
%"class.datalog::context::sort_domain" = type { ptr, i32, %class.obj_ref.158, i8, i64 }
%class.obj_ref.158 = type { ptr, ptr }
%class.map.159 = type { %class.table2map.160 }
%class.table2map.160 = type { %class.core_hashtable.161 }
%class.core_hashtable.161 = type <{ ptr, i32, i32, i32, [4 x i8] }>
%struct.uint64_hash = type { i8 }
%struct.default_eq.166 = type { i8 }
%"class.datalog::context::uint64_sort_domain" = type { %"class.datalog::context::sort_domain", %class.map.163, %class.svector.129 }
%class.map.163 = type { %class.table2map.164 }
%class.table2map.164 = type { %class.core_hashtable.165 }
%class.core_hashtable.165 = type <{ ptr, i32, i32, i32, [4 x i8] }>
%class.svector.129 = type { %class.vector.130 }
%class.vector.130 = type { ptr }
%struct._key_data = type { %class.symbol, ptr }
%class.decl = type { %class.ast, %class.symbol, ptr }
%class.ast = type { i32, i24, i32, i32 }
%"class.core_hashtable<obj_hash_entry<func_decl>, obj_ptr_hash<func_decl>, ptr_eq<func_decl>>::iterator" = type { ptr, ptr }
%"class.std::__cxx11::basic_stringstream" = type { %"class.std::basic_iostream.base", %"class.std::__cxx11::basic_stringbuf", %"class.std::basic_ios" }
%"class.std::basic_iostream.base" = type { %"class.std::basic_istream.base", %"class.std::basic_ostream.base" }
%"class.std::basic_istream.base" = type { ptr, i64 }
%"class.std::basic_ostream.base" = type { ptr }
%"class.std::__cxx11::basic_stringbuf" = type { %"class.std::basic_streambuf", i32, %"class.std::__cxx11::basic_string" }
%"class.std::basic_streambuf" = type { ptr, ptr, ptr, ptr, ptr, ptr, ptr, %"class.std::locale" }
%class.sort_size = type { i32, i64 }
%"struct.obj_map<const func_decl, svector<symbol>>::key_data" = type { ptr, %class.svector.85 }
%"class.obj_map<const func_decl, svector<symbol>>::obj_map_entry" = type { %"struct.obj_map<const func_decl, svector<symbol>>::key_data" }
%class.ast_manager = type { %class.reslimit, %class.small_object_allocator, %class.family_manager, %class.parray_manager, %class.dependency_manager, %class.parray_manager.142, %class.ptr_vector.145, i32, i8, %class.ast_table, %class.obj_map.148, %class.id_gen, %class.id_gen, ptr, ptr, ptr, ptr, ptr, i32, i8, [3 x i8], %class.u_map.153, ptr, i8, i8, ptr, %class.symbol, %class.obj_map.39, ptr }
%class.reslimit = type { %"struct.std::atomic", i8, i64, i64, %class.svector.129, %class.ptr_vector.131 }
%"struct.std::atomic" = type { %"struct.std::__atomic_base" }
%"struct.std::__atomic_base" = type { i32 }
%class.ptr_vector.131 = type { %class.vector.132 }
%class.vector.132 = type { ptr }
%class.small_object_allocator = type { [32 x ptr], [32 x ptr], i64 }
%class.family_manager = type { i32, %class.symbol_table, %class.svector.85 }
%class.symbol_table = type { %class.core_hashtable.133, %class.vector.135, %class.svector.136 }
%class.core_hashtable.133 = type <{ ptr, i32, i32, i32, [4 x i8] }>
%class.vector.135 = type { ptr }
%class.svector.136 = type { %class.vector.137 }
%class.vector.137 = type { ptr }
%class.parray_manager = type { ptr, ptr, %class.ptr_vector.138, %class.ptr_vector.138 }
%class.ptr_vector.138 = type { %class.vector.139 }
%class.vector.139 = type { ptr }
%class.dependency_manager = type { ptr, ptr, %class.ptr_vector.140 }
%class.ptr_vector.140 = type { %class.vector.141 }
%class.vector.141 = type { ptr }
%class.parray_manager.142 = type { ptr, ptr, %class.ptr_vector.143, %class.ptr_vector.143 }
%class.ptr_vector.143 = type { %class.vector.144 }
%class.vector.144 = type { ptr }
%class.ptr_vector.145 = type { %class.vector.146 }
%class.vector.146 = type { ptr }
%class.ast_table = type { %class.chashtable }
%class.chashtable = type { ptr, i32, i32, i32, i32, i32, i32, i32, ptr, ptr, ptr }
%class.obj_map.148 = type { %class.core_hashtable.149 }
%class.core_hashtable.149 = type <{ ptr, i32, i32, i32, [4 x i8] }>
%class.id_gen = type { i32, %class.svector.12 }
%class.u_map.153 = type { %class.map.154 }
%class.map.154 = type { %class.table2map.155 }
%class.table2map.155 = type { %class.core_hashtable.156 }
%class.core_hashtable.156 = type <{ ptr, i32, i32, i32, [4 x i8] }>
%class.scoped_proof_mode = type <{ ptr, i32, [4 x i8] }>
%"class.ref_vector<expr, ast_manager>::element_ref" = type { ptr, ptr }
%class.obj_ref.168 = type { ptr, ptr }
%"class.datalog::rule" = type { %"class.datalog::accounted_object.base", ptr, ptr, i32, i32, i32, i32, %class.symbol, [0 x ptr] }
%"class.datalog::accounted_object.base" = type <{ ptr, ptr, %"struct.datalog::costs", %"struct.datalog::costs", i8 }>
%"struct.datalog::costs" = type { i32, i32 }
%"class.datalog::relation_fact" = type { %class.ref_vector.4 }
%class.app = type { %class.expr, ptr, i32, [0 x ptr] }
%class.expr = type { %class.ast }
%class.func_decl = type { %class.decl, i32, ptr, [0 x ptr] }
%"class.std::__cxx11::basic_ostringstream" = type { %"class.std::basic_ostream.base", %"class.std::__cxx11::basic_stringbuf", %"class.std::basic_ios" }
%struct.mk_ismt2_pp = type { ptr, ptr, %class.params_ref, ptr, i32, i32, ptr }
%class.flet = type <{ ptr, i8, [7 x i8] }>
%"class.datalog::context::engine_type_proc" = type <{ ptr, %class.arith_util, %"class.datatype::util", %class.bv_util, %class.array_util, i32, [4 x i8] }>
%class.quantifier = type { %class.expr, i32, i32, ptr, ptr, i32, i32, i8, i8, %class.symbol, %class.symbol, i32, i32, [0 x i8] }
%class.ref.169 = type { ptr }
%class.ast_pp_util = type { ptr, %class.obj_hashtable.92, %class.smt2_pp_environment_dbg, %class.stacked_value, %class.stacked_value, %class.stacked_value, %class.obj_mark, %class.ref_vector, %class.svector.12, %class.decl_collector }
%class.smt2_pp_environment_dbg = type { %class.smt2_pp_environment, ptr, %class.arith_util, %class.bv_util, %class.array_util, %class.fpa_util, %class.seq_util, %"class.datatype::util", %"class.datalog::dl_decl_util" }
%class.smt2_pp_environment = type { ptr, %class.smt_renaming }
%class.smt_renaming = type { %class.map.174, %class.map.178 }
%class.map.174 = type { %class.table2map.175 }
%class.table2map.175 = type { %class.core_hashtable.176 }
%class.core_hashtable.176 = type <{ ptr, i32, i32, i32, [4 x i8] }>
%class.map.178 = type { %class.table2map.179 }
%class.table2map.179 = type { %class.core_hashtable.180 }
%class.core_hashtable.180 = type <{ ptr, i32, i32, i32, [4 x i8] }>
%class.fpa_util = type { ptr, ptr, i32, %class.arith_util, %class.bv_util }
%class.seq_util = type { ptr, ptr, ptr, i32, [4 x i8], %"class.seq_util::str", %"class.seq_util::rex" }
%"class.seq_util::str" = type <{ ptr, ptr, i32, [4 x i8] }>
%"class.seq_util::rex" = type { ptr, ptr, i32, %class.vector.182, %class.ref_vector, %"struct.seq_util::rex::info", %"struct.seq_util::rex::info" }
%class.vector.182 = type { ptr }
%"struct.seq_util::rex::info" = type { i32, i8, i32, i32 }
%class.stacked_value = type { i32, %class.vector.126 }
%class.obj_mark = type { %struct.default_t2uint, %class.bit_vector }
%struct.default_t2uint = type { i8 }
%class.bit_vector = type { i32, i32, ptr }
%class.decl_collector = type { ptr, %class.lim_svector, %class.lim_svector.184, %class.lim_svector.184, %class.ast_mark, %class.ref_vector.49, %class.svector.12, i32, i32, %"class.datatype::util", %class.array_util, i32, %class.ptr_vector.52 }
%class.lim_svector = type { %class.svector.183, %class.svector.12 }
%class.svector.183 = type { %class.vector.17 }
%class.lim_svector.184 = type { %class.svector.185, %class.svector.12 }
%class.svector.185 = type { %class.vector.125 }
%class.ast_mark = type { ptr, %class.obj_mark, %class.obj_mark.186 }
%class.obj_mark.186 = type { %"struct.ast_mark::decl2uint", %class.bit_vector }
%"struct.ast_mark::decl2uint" = type { i8 }
%class.mk_fresh_name = type { %class.hashtable.187, i8, i32 }
%class.hashtable.187 = type { %class.core_hashtable.base.189, [4 x i8] }
%class.core_hashtable.base.189 = type <{ ptr, i32, i32, i32 }>
%struct.mk_smt_pp = type { ptr, ptr, i32, i32, ptr }
%class.obj_ref.191 = type { ptr, ptr }
%class.obj_map.192 = type { %class.core_hashtable.193 }
%class.core_hashtable.193 = type <{ ptr, i32, i32, i32, [4 x i8] }>
%class.obj_map.197 = type { %class.core_hashtable.198 }
%class.core_hashtable.198 = type <{ ptr, i32, i32, i32, [4 x i8] }>
%class.ast_smt_pp = type <{ ptr, %class.ref_vector, %class.ref_vector, %class.symbol, %class.symbol, %class.symbol, %class.symbol, %class.symbol, %"class.std::__cxx11::basic_string", i32, [4 x i8], %"class.ast_smt_pp::is_declared", ptr, i8, [7 x i8] }>
%"class.ast_smt_pp::is_declared" = type { ptr }
%class.var = type { %class.expr, i32, ptr }
%struct.obj_hash.194 = type { i8 }
%struct.default_eq.195 = type { i8 }
%struct.obj_hash.199 = type { i8 }
%struct.default_eq.200 = type { i8 }
%"struct.obj_map<sort, unsigned int>::key_data" = type <{ ptr, i32, [4 x i8] }>
%"struct.obj_map<sort, svector<unsigned int>>::key_data" = type { ptr, %class.svector.12 }
%struct.obj_ptr_hash = type { i8 }
%struct.ptr_eq = type { i8 }
%class.core_hashtable = type <{ ptr, i32, i32, i32, [4 x i8] }>
%class.obj_hash_entry = type { ptr }
%class.default_map_entry = type { %class.default_hash_entry }
%class.default_hash_entry = type { i32, i32, %struct._key_data }
%"class.obj_map<const sort, datalog::context::sort_domain *>::obj_map_entry" = type { %"struct.obj_map<const sort, datalog::context::sort_domain *>::key_data" }
%class.core_hashtable.18 = type <{ ptr, i32, i32, i32, [4 x i8] }>
%class.default_hash_entry.203 = type { i32, i32, %struct.expr_delta_pair }
%struct.expr_delta_pair = type <{ ptr, i32, [4 x i8] }>
%class.default_map_entry.204 = type { %class.default_hash_entry.205 }
%class.default_hash_entry.205 = type { i32, i32, %struct._key_data.206 }
%struct._key_data.206 = type { i32, i32 }
%"struct.table2map<default_map_entry<symbol, unsigned int>, symbol_hash_proc, symbol_eq_proc>::entry_hash_proc" = type { i8 }
%"struct.table2map<default_map_entry<symbol, unsigned int>, symbol_hash_proc, symbol_eq_proc>::entry_eq_proc" = type { i8 }
%class.default_map_entry.207 = type { %class.default_hash_entry.208 }
%class.default_hash_entry.208 = type { i32, i32, %struct._key_data.209 }
%struct._key_data.209 = type <{ %class.symbol, i32, [4 x i8] }>
%"struct.table2map<default_map_entry<unsigned long, unsigned int>, uint64_hash, default_eq<unsigned long>>::entry_hash_proc" = type { i8 }
%"struct.table2map<default_map_entry<unsigned long, unsigned int>, uint64_hash, default_eq<unsigned long>>::entry_eq_proc" = type { i8 }
%class.default_map_entry.210 = type { %class.default_hash_entry.211 }
%class.default_hash_entry.211 = type { i32, i32, %struct._key_data.212 }
%struct._key_data.212 = type <{ i64, i32, [4 x i8] }>
%class.decl_info = type <{ i32, i32, %class.vector.214, i8, [7 x i8] }>
%class.vector.214 = type { ptr }
%class.sort_info = type { %class.decl_info.base, %class.sort_size }
%class.decl_info.base = type <{ i32, i32, %class.vector.214, i8 }>
%class.seq_decl_plugin = type { %class.decl_plugin.base, %class.ptr_vector.215, %class.ptr_vector.16, i8, %class.symbol, ptr, ptr, ptr, i8, i8, ptr }
%class.decl_plugin.base = type <{ ptr, ptr, i32 }>
%class.ptr_vector.215 = type { %class.vector.216 }
%class.vector.216 = type { ptr }
%class.decl_plugin = type <{ ptr, ptr, i32, [4 x i8] }>
%class.default_map_entry.217 = type { %class.default_hash_entry.218 }
%class.default_hash_entry.218 = type { i32, i32, %struct._key_data.219 }
%struct._key_data.219 = type { %class.symbol, %class.symbol }
%class.default_map_entry.220 = type { %class.default_hash_entry.221 }
%class.default_hash_entry.221 = type { i32, i32, %struct._key_data.222 }
%struct._key_data.222 = type { %class.symbol, %"struct.smt_renaming::sym_b" }
%"struct.smt_renaming::sym_b" = type { %class.symbol, i8, %class.symbol }
%class.core_hashtable.188 = type <{ ptr, i32, i32, i32, [4 x i8] }>
%class.default_hash_entry.223 = type { i32, i32, %class.symbol }
%"class.obj_map<sort, unsigned int>::obj_map_entry" = type { %"struct.obj_map<sort, unsigned int>::key_data" }
%"class.obj_map<sort, svector<unsigned int>>::obj_map_entry" = type { %"struct.obj_map<sort, svector<unsigned int>>::key_data" }
%struct._Guard = type { ptr }
%class.converter = type <{ ptr, i32, [4 x i8] }>
%"struct.table2map<default_map_entry<symbol, func_decl *>, symbol_hash_proc, symbol_eq_proc>::entry_hash_proc" = type { i8 }
%"struct.table2map<default_map_entry<symbol, func_decl *>, symbol_hash_proc, symbol_eq_proc>::entry_eq_proc" = type { i8 }
%class.sbuffer = type { %class.buffer.224 }
%class.buffer.224 = type { ptr, i32, i32, [16 x %"union.std::aligned_storage<16, 8>::type"] }
%"union.std::aligned_storage<16, 8>::type" = type { [16 x i8] }
%"struct.std::pair" = type <{ ptr, i32, [4 x i8] }>

$_ZN11trail_stack10push_scopeEv = comdat any

$_ZN11trail_stack4pushIN7datalog7context13restore_rulesEEEvRKT_ = comdat any

$_ZN7datalog7context13restore_rulesC2ERS0_RNS_8rule_setE = comdat any

$_ZN7datalog7context13restore_rulesD2Ev = comdat any

$_ZN11trail_stack4pushIN7datalog22restore_vec_size_trailINS1_7contextE10ref_vectorI4expr11ast_managerEEEEEvRKT_ = comdat any

$_ZN7datalog22restore_vec_size_trailINS_7contextE10ref_vectorI4expr11ast_managerEEC2ERS5_ = comdat any

$_ZN7datalog22restore_vec_size_trailINS_7contextE10ref_vectorI4expr11ast_managerEED2Ev = comdat any

$_ZNK11trail_stack14get_num_scopesEv = comdat any

$_ZNSt7__cxx1112basic_stringIcSt11char_traitsIcESaIcEEC2IS3_EEPKcRKS3_ = comdat any

$_ZN17default_exceptionC2EONSt7__cxx1112basic_stringIcSt11char_traitsIcESaIcEEE = comdat any

$_ZN17default_exceptionD2Ev = comdat any

$_ZN9fp_paramsC2ERK10params_ref = comdat any

$_ZN6symbolC2Ev = comdat any

$_ZN10params_refC2Ev = comdat any

$_ZN9var_substC2ER11ast_managerb = comdat any

$_ZN7datalog7context13contains_predC2ERS0_ = comdat any

$_ZN11trail_stackC2Ev = comdat any

$_ZN10ref_vectorI3ast11ast_managerEC2ERS1_ = comdat any

$_ZN7obj_mapIK4sortPN7datalog7context11sort_domainEEC2Ev = comdat any

$_ZN13obj_hashtableI9func_declEC2Ej = comdat any

$_ZN3mapI6symbolP9func_decl16symbol_hash_proc14symbol_eq_procEC2ERKS3_RKS4_ = comdat any

$_ZN7obj_mapIK9func_decl7svectorI6symboljEEC2Ev = comdat any

$_ZN14expr_free_varsC2Ev = comdat any

$_ZN10ref_vectorI4expr11ast_managerEC2ERS1_ = comdat any

$_ZN7svectorI6symboljEC2Ev = comdat any

$_ZN6vectorIjLb1EjEC2Ev = comdat any

$_ZN3refI15model_converterEC2EPS0_ = comdat any

$_ZN3refI15proof_converterEC2Ev = comdat any

$_ZN10scoped_ptrIN7datalog11engine_baseEEC2EPS1_ = comdat any

$_ZN7obj_refI4expr11ast_managerEC2ERS1_ = comdat any

$_ZN7obj_refI4expr11ast_managerED2Ev = comdat any

$_ZN10scoped_ptrIN7datalog11engine_baseEED2Ev = comdat any

$_ZN3refI15proof_converterED2Ev = comdat any

$_ZN3refI15model_converterED2Ev = comdat any

$_ZN10ref_vectorI4expr11ast_managerED2Ev = comdat any

$_ZN6vectorIjLb1EjED2Ev = comdat any

$_ZN7svectorI6symboljED2Ev = comdat any

$_ZN14expr_free_varsD2Ev = comdat any

$_ZN7obj_mapIK9func_decl7svectorI6symboljEED2Ev = comdat any

$_ZN3mapI6symbolP9func_decl16symbol_hash_proc14symbol_eq_procED2Ev = comdat any

$_ZN13obj_hashtableI9func_declED2Ev = comdat any

$_ZN7obj_mapIK4sortPN7datalog7context11sort_domainEED2Ev = comdat any

$_ZN10ref_vectorI3ast11ast_managerED2Ev = comdat any

$_ZN11trail_stackD2Ev = comdat any

$_ZN7datalog7context13contains_predD2Ev = comdat any

$_ZN7datalog12rule_managerD2Ev = comdat any

$_ZN9var_substD2Ev = comdat any

$_ZN7datalog12dl_decl_utilD2Ev = comdat any

$__clang_call_terminate = comdat any

$_Z7deallocI9fp_paramsEvPT_ = comdat any

$_ZN11trail_stack5resetEv = comdat any

$_ZN15ref_vector_coreI4expr19ref_manager_wrapperIS0_11ast_managerEE5resetEv = comdat any

$_ZN6vectorI6symbolLb0EjE5resetEv = comdat any

$_ZN6vectorIjLb1EjE5resetEv = comdat any

$_ZN7obj_mapIK9func_decl7svectorI6symboljEE5resetEv = comdat any

$_ZN14core_hashtableI14obj_hash_entryI9func_declE12obj_ptr_hashIS1_E6ptr_eqIS1_EE5resetEv = comdat any

$_ZN9table2mapI17default_map_entryI6symbolP9func_declE16symbol_hash_proc14symbol_eq_procE5resetEv = comdat any

$_Z20reset_dealloc_valuesIK4sortN7datalog7context11sort_domainEEvR7obj_mapIT_PT0_E = comdat any

$_ZN10scoped_ptrIN7datalog11engine_baseEEaSEPS1_ = comdat any

$_ZNK7obj_mapIK4sortPN7datalog7context11sort_domainEE8containsEPS1_ = comdat any

$_ZN7obj_mapIK4sortPN7datalog7context11sort_domainEE4findEPS1_ = comdat any

$_ZNK7obj_mapIK4sortPN7datalog7context11sort_domainEE4findEPS1_ = comdat any

$_ZNK9fp_params22datalog_output_profileEv = comdat any

$_ZNK9fp_params20datalog_print_tuplesEv = comdat any

$_ZNK9fp_params21datalog_use_map_namesEv = comdat any

$_ZNK9fp_params22xform_fix_unbound_varsEv = comdat any

$_ZNK9fp_params21datalog_default_tableEv = comdat any

$_ZNK9fp_params9print_aigEv = comdat any

$_ZNK9fp_params22datalog_check_relationEv = comdat any

$_ZNK9fp_params29datalog_default_table_checkerEv = comdat any

$_ZNK9fp_params29datalog_default_table_checkedEv = comdat any

$_ZNK9fp_params43datalog_dbg_fpr_nonempty_relation_signatureEv = comdat any

$_ZNK9fp_params36datalog_profile_timeout_millisecondsEv = comdat any

$_ZNK9fp_params29datalog_all_or_nothing_deltasEv = comdat any

$_ZNK9fp_params29datalog_compile_with_wideningEv = comdat any

$_ZNK9fp_params15datalog_timeoutEv = comdat any

$_ZNK9fp_params29datalog_similarity_compressorEv = comdat any

$_ZNK9fp_params39datalog_similarity_compressor_thresholdEv = comdat any

$_ZNK9fp_params31datalog_initial_restart_timeoutEv = comdat any

$_ZNK9fp_params29datalog_generate_explanationsEv = comdat any

$_ZNK9fp_params38datalog_explanations_on_relation_levelEv = comdat any

$_ZNK9fp_params30datalog_magic_sets_for_queriesEv = comdat any

$_ZNK9fp_params13tab_selectionEv = comdat any

$_ZNK9fp_params9xform_coiEv = comdat any

$_ZNK9fp_params11xform_sliceEv = comdat any

$_ZNK9fp_params15xform_bit_blastEv = comdat any

$_ZNK9fp_params11xform_scaleEv = comdat any

$_ZNK9fp_params11xform_magicEv = comdat any

$_ZNK9fp_params22xform_compress_unboundEv = comdat any

$_ZNK9fp_params21xform_quantify_arraysEv = comdat any

$_ZNK9fp_params29xform_instantiate_quantifiersEv = comdat any

$_ZNK9fp_params17xform_array_blastEv = comdat any

$_ZNK9fp_params22xform_array_blast_fullEv = comdat any

$_ZNK9fp_params19xform_elim_term_iteEv = comdat any

$_ZNK9fp_params29xform_elim_term_ite_inflationEv = comdat any

$_ZN15ref_vector_coreI3ast19ref_manager_wrapperIS0_11ast_managerEE9push_backEPS0_ = comdat any

$_ZN7datalog7context18symbol_sort_domainC2ERS0_P4sort = comdat any

$_ZN7datalog7context18uint64_sort_domainC2ERS0_P4sort = comdat any

$_ZN7obj_mapIK4sortPN7datalog7context11sort_domainEE6insertEPS1_RKS5_ = comdat any

$_ZN11ast_manager8mk_constEP9func_decl = comdat any

$_ZN7obj_refI4expr11ast_managerEC2EPS0_RS1_ = comdat any

$_ZNK7datalog7context12is_predicateEP9func_decl = comdat any

$_ZN14core_hashtableI14obj_hash_entryI9func_declE12obj_ptr_hashIS1_E6ptr_eqIS1_EE6insertERKPS1_ = comdat any

$_ZN9table2mapI17default_map_entryI6symbolP9func_declE16symbol_hash_proc14symbol_eq_procE6insertERKS1_RKS3_ = comdat any

$_ZNK4decl8get_nameEv = comdat any

$_ZNK14core_hashtableI14obj_hash_entryI9func_declE12obj_ptr_hashIS1_E6ptr_eqIS1_EE5beginEv = comdat any

$_ZNK14core_hashtableI14obj_hash_entryI9func_declE12obj_ptr_hashIS1_E6ptr_eqIS1_EE3endEv = comdat any

$_ZNK14core_hashtableI14obj_hash_entryI9func_declE12obj_ptr_hashIS1_E6ptr_eqIS1_EE8iteratorneERKS8_ = comdat any

$_ZN14core_hashtableI14obj_hash_entryI9func_declE12obj_ptr_hashIS1_E6ptr_eqIS1_EE8iteratordeEv = comdat any

$_ZN14core_hashtableI14obj_hash_entryI9func_declE12obj_ptr_hashIS1_E6ptr_eqIS1_EE8iteratorppEv = comdat any

$_ZN7datalog7context18symbol_sort_domain10get_numberE6symbol = comdat any

$_ZNK7datalog7context11sort_domain8get_kindEv = comdat any

$_ZN7datalog7context18uint64_sort_domain10get_numberEm = comdat any

$_ZN7datalog7context13get_decl_utilEv = comdat any

$_ZNK7datalog12dl_decl_util12is_rule_sortEP4sort = comdat any

$_ZNK4sort16get_num_elementsEv = comdat any

$_ZNK9sort_size9is_finiteEv = comdat any

$_ZNK9sort_size4sizeEv = comdat any

$_ZNSt14numeric_limitsImE3maxEv = comdat any

$_ZN7obj_mapIK9func_decl7svectorI6symboljEE6insertEPS1_RKS4_ = comdat any

$_ZNK7obj_mapIK9func_decl7svectorI6symboljEE9find_coreEPS1_ = comdat any

$_ZN6symbolC2ERKNSt7__cxx1112basic_stringIcSt11char_traitsIcESaIcEEE = comdat any

$_ZN7obj_mapIK9func_decl7svectorI6symboljEE13obj_map_entry8get_dataEv = comdat any

$_ZN6vectorI6symbolLb0EjEixEj = comdat any

$_ZNK11ast_manager12mk_bool_sortEv = comdat any

$_ZN15ref_vector_coreI4expr19ref_manager_wrapperIS0_11ast_managerEE9push_backEPS0_ = comdat any

$_ZN6vectorI6symbolLb0EjE9push_backERKS0_ = comdat any

$_ZN6vectorIjLb1EjE9push_backERKj = comdat any

$_ZN7datalog7context16get_rule_managerEv = comdat any

$_ZN17scoped_proof_modeC2ER11ast_manager14proof_gen_mode = comdat any

$_ZNK15ref_vector_coreI4expr19ref_manager_wrapperIS0_11ast_managerEE4sizeEv = comdat any

$_ZN10ref_vectorI4expr11ast_managerEixEj = comdat any

$_ZNK10ref_vectorI4expr11ast_managerE11element_ref3getEv = comdat any

$_ZN17scoped_proof_modeD2Ev = comdat any

$_ZNK7datalog8rule_set13get_num_rulesEv = comdat any

$_ZlsRSo6symbol = comdat any

$_ZNK7datalog8rule_set8get_ruleEj = comdat any

$_ZN7obj_refIN7datalog4ruleENS0_12rule_managerEEC2EPS1_RS2_ = comdat any

$_ZNK7datalog8rule_set9get_rulesEv = comdat any

$_ZeqRK6symbolS1_ = comdat any

$_ZNK10ref_vectorIN7datalog4ruleENS0_12rule_managerEEixEj = comdat any

$_ZNK7datalog4rule4nameEv = comdat any

$_ZNK7obj_refIN7datalog4ruleENS0_12rule_managerEEcvPS1_Ev = comdat any

$_ZNK7obj_refIN7datalog4ruleENS0_12rule_managerEEdeEv = comdat any

$_ZNK7obj_refIN7datalog4ruleENS0_12rule_managerEEptEv = comdat any

$_ZN7obj_refIN7datalog4ruleENS0_12rule_managerEED2Ev = comdat any

$_ZNK7datalog4rule8get_headEv = comdat any

$_ZNK7datalog4rule13get_tail_sizeEv = comdat any

$_ZNK7datalog4rule8get_tailEj = comdat any

$_ZNK10scoped_ptrIN7datalog11engine_baseEEptEv = comdat any

$_ZN7datalog15rule_properties18set_generate_proofEb = comdat any

$_ZN7datalog7context10get_engineEP4expr = comdat any

$_ZNK15ref_vector_coreI3app19ref_manager_wrapperIS0_11ast_managerEE4sizeEv = comdat any

$_ZNK15ref_vector_coreI3app19ref_manager_wrapperIS0_11ast_managerEE4dataEv = comdat any

$_ZNK7obj_refI4expr11ast_managerEcvPS0_Ev = comdat any

$_ZNK7datalog7context11get_managerEv = comdat any

$_ZN7datalog13relation_factC2ER11ast_manager = comdat any

$_ZNK3app12get_num_argsEv = comdat any

$_ZN15ref_vector_coreI3app19ref_manager_wrapperIS0_11ast_managerEE9push_backEPS0_ = comdat any

$_Z6to_appP3ast = comdat any

$_ZNK3app7get_argEj = comdat any

$_ZNK3app8get_declEv = comdat any

$_ZN7datalog13relation_factD2Ev = comdat any

$_Z11is_uninterpPK9func_decl = comdat any

$_ZNK6vectorImLb0EjE4sizeEv = comdat any

$_ZNK6vectorImLb0EjEixEj = comdat any

$_ZNK9func_decl10get_domainEv = comdat any

$_ZNK9func_decl9get_arityEv = comdat any

$_ZN11mk_ismt2_ppD2Ev = comdat any

$_ZN7svectorImjEC2Ev = comdat any

$_ZN6vectorImLb0EjE9push_backEOm = comdat any

$_ZN7svectorImjED2Ev = comdat any

$_ZN4fletIbEC2ERbRKb = comdat any

$_ZN4fletIbED2Ev = comdat any

$_ZNK7datalog7context14get_predicatesEv = comdat any

$_ZN9fp_params20collect_param_descrsER12param_descrs = comdat any

$_ZNK10scoped_ptrIN7datalog11engine_baseEE3getEv = comdat any

$_ZNK9fp_params20generate_proof_traceEv = comdat any

$_ZNK9fp_params26datalog_unbound_compressorEv = comdat any

$_ZNK9fp_params24datalog_default_relationEv = comdat any

$_Z6mk_andRK10ref_vectorI4expr11ast_managerE = comdat any

$_ZNK10scoped_ptrIN7datalog11engine_baseEEcvbEv = comdat any

$_ZNK9fp_params6engineEv = comdat any

$_ZN13ast_fast_markILj1EEC2Ev = comdat any

$_ZN7datalog7context16engine_type_procC2ER11ast_manager = comdat any

$_Z19quick_for_each_exprIN7datalog7context16engine_type_procEEvRT_R13ast_fast_markILj1EEP4expr = comdat any

$_ZNK7datalog7context16engine_type_proc10get_engineEv = comdat any

$_Z13is_quantifierPK3ast = comdat any

$_Z13to_quantifierP3ast = comdat any

$_ZNK10quantifier8get_exprEv = comdat any

$_ZN7datalog7context16engine_type_procD2Ev = comdat any

$_ZN13ast_fast_markILj1EED2Ev = comdat any

$_ZN3refI15model_converterEaSEPS0_ = comdat any

$_ZN7obj_refI4expr11ast_managerEaSEPS0_ = comdat any

$_ZNK7datalog7context10get_paramsEv = comdat any

$_ZNK9fp_params17print_certificateEv = comdat any

$_ZN7datalog15rule_properties11is_monotoneEv = comdat any

$_ZNK7obj_refI4expr11ast_managerEcvbEv = comdat any

$_ZNK7obj_refI4expr11ast_managerE3getEv = comdat any

$_ZN7obj_refI4expr11ast_managerEaSEOS2_ = comdat any

$_ZN10ref_vectorIN7datalog4ruleENS0_12rule_managerEEC2ERS2_ = comdat any

$_ZNK15ref_vector_coreIN7datalog4ruleE19ref_manager_wrapperIS1_NS0_12rule_managerEEE5beginEv = comdat any

$_ZNK15ref_vector_coreIN7datalog4ruleE19ref_manager_wrapperIS1_NS0_12rule_managerEEE3endEv = comdat any

$_ZN10ref_vectorIN7datalog4ruleENS0_12rule_managerEED2Ev = comdat any

$_ZNK7datalog7context13display_rulesERSo = comdat any

$_ZN11ast_manager5limitEv = comdat any

$_ZN6vectorIjLb0EjE9push_backERKj = comdat any

$_ZN6vectorIjLb1EjEixEj = comdat any

$_ZNK14expr_free_vars5emptyEv = comdat any

$_ZNK15ref_vector_coreI4expr19ref_manager_wrapperIS0_11ast_managerEE4backEv = comdat any

$_ZN10ref_vectorI4expr11ast_managerE11element_refaSEPS0_ = comdat any

$_ZN6vectorI6symbolLb0EjE4backEv = comdat any

$_ZN15ref_vector_coreI4expr19ref_manager_wrapperIS0_11ast_managerEE8pop_backEv = comdat any

$_ZN6vectorI6symbolLb0EjE8pop_backEv = comdat any

$_ZN6vectorIjLb1EjE8pop_backEv = comdat any

$_ZNK7datalog8rule_set5beginEv = comdat any

$_ZNK7datalog8rule_set3endEv = comdat any

$_ZNK7datalog4rule8get_declEv = comdat any

$_ZNK7datalog8rule_set19is_output_predicateEP9func_decl = comdat any

$_ZNK11ast_manager10is_impliesEPK4exprRPS0_S4_ = comdat any

$_ZNK10quantifier13get_num_declsEv = comdat any

$_ZNK10quantifier14get_decl_sortsEv = comdat any

$_ZNK10quantifier14get_decl_namesEv = comdat any

$_ZN11ast_pp_utilC2ER11ast_manager = comdat any

$_ZN15ref_vector_coreI4expr19ref_manager_wrapperIS0_11ast_managerEE4dataEv = comdat any

$_ZNK9fp_params27print_fixedpoint_extensionsEv = comdat any

$_ZNK9fp_params20print_low_level_smt2Ev = comdat any

$_ZNK9fp_params32print_with_variable_declarationsEv = comdat any

$_ZN15ref_vector_coreI4expr19ref_manager_wrapperIS0_11ast_managerEE6appendEjPKPS0_ = comdat any

$_ZN23smt2_pp_environment_dbgC2ER11ast_manager = comdat any

$_ZN13mk_fresh_nameC2Ev = comdat any

$_ZNK14decl_collector13get_num_declsEv = comdat any

$_ZNK14decl_collector14get_func_declsEv = comdat any

$_ZNK6vectorIP9func_declLb0EjEixEj = comdat any

$_ZNK4decl13get_family_idEv = comdat any

$_ZlsRSoRK9mk_smt_pp = comdat any

$_ZN9mk_smt_ppC2EP3astR11ast_managerjjPKPKc = comdat any

$_ZneRK6symbolS1_ = comdat any

$_ZNK13mk_fresh_name8containsERK6symbol = comdat any

$_ZN13mk_fresh_name3addERK6symbol = comdat any

$_ZN7obj_refI9func_decl11ast_managerEC2ERS1_ = comdat any

$_ZN7obj_refI9func_decl11ast_managerEaSEPS0_ = comdat any

$_ZNK14expr_free_vars4dataEv = comdat any

$_ZNK14expr_free_vars4sizeEv = comdat any

$_ZNK7obj_refI9func_decl11ast_managerEcvPS0_Ev = comdat any

$_ZNK14expr_free_varsixEj = comdat any

$_ZN11ast_manager10mk_impliesEP4exprS1_ = comdat any

$_ZNK7obj_refI9func_decl11ast_managerEptEv = comdat any

$_ZN7obj_refI9func_decl11ast_managerED2Ev = comdat any

$_ZN11ast_manager6mk_notEP4expr = comdat any

$_ZN13mk_fresh_nameD2Ev = comdat any

$_ZN23smt2_pp_environment_dbgD2Ev = comdat any

$_ZN11ast_pp_utilD2Ev = comdat any

$_ZNK9func_decl10get_domainEj = comdat any

$_Z6is_appPK3ast = comdat any

$_Z6is_varPK3ast = comdat any

$_Z6to_varP3ast = comdat any

$_ZNK3var7get_idxEv = comdat any

$_ZN7obj_mapI4sort7svectorIjjEEC2Ev = comdat any

$_ZN7obj_mapI4sortjEC2Ev = comdat any

$_Z9is_forallPK3ast = comdat any

$_Z15has_quantifiersPK4expr = comdat any

$_ZN7obj_mapI4sortjE5resetEv = comdat any

$_ZNK10quantifier13get_decl_sortEj = comdat any

$_ZNK7obj_mapI4sortjE4findEPS0_Rj = comdat any

$_ZN7obj_mapI4sortjE6insertEPS0_RKj = comdat any

$_ZN7obj_mapI4sort7svectorIjjEE19insert_if_not_thereEPS0_RKS2_ = comdat any

$_ZN7svectorIjjEC2Ev = comdat any

$_ZN7svectorIjjED2Ev = comdat any

$_ZNK6vectorIjLb0EjE4sizeEv = comdat any

$_ZN6vectorIjLb0EjE9push_backEOj = comdat any

$_ZN11ast_manager8mk_constERK6symbolP4sort = comdat any

$_ZN6vectorIjLb0EjEixEj = comdat any

$_ZN7obj_mapI4sortjED2Ev = comdat any

$_ZN7obj_mapI4sort7svectorIjjEED2Ev = comdat any

$_ZNK6vectorIP5trailLb0EjE4sizeEv = comdat any

$_ZN5trailC2Ev = comdat any

$_ZN7datalog7context13restore_rulesD0Ev = comdat any

$_ZN7datalog7context13restore_rules4undoEv = comdat any

$_ZN5trailD2Ev = comdat any

$_ZN5trailD0Ev = comdat any

$_ZN7datalog7context13restore_rules5resetEv = comdat any

$_Z7deallocIN7datalog8rule_setEEvPT_ = comdat any

$_ZN12z3_exceptionC2Ev = comdat any

$_ZN12z3_exceptionD2Ev = comdat any

$_ZN12beta_reducerC2ER11ast_manager = comdat any

$_ZN12beta_reducerD2Ev = comdat any

$_ZN12beta_reducerD0Ev = comdat any

$_ZN7obj_refI3app11ast_managerED2Ev = comdat any

$_ZN15inv_var_shifterD2Ev = comdat any

$_ZN11var_shifterD2Ev = comdat any

$_ZN10ptr_vectorI4exprED2Ev = comdat any

$_ZN12rewriter_tplI16beta_reducer_cfgED2Ev = comdat any

$_ZN12rewriter_tplI16beta_reducer_cfgED0Ev = comdat any

$_ZN7obj_refI3app11ast_managerE7dec_refEv = comdat any

$_ZN11ast_manager7dec_refEP3ast = comdat any

$_ZN3ast7dec_refEv = comdat any

$_ZNK3ast13get_ref_countEv = comdat any

$_ZN16var_shifter_coreD2Ev = comdat any

$_ZN6vectorIP4exprLb0EjED2Ev = comdat any

$_ZN6vectorIP4exprLb0EjE7destroyEv = comdat any

$_ZN6vectorIP4exprLb0EjE11free_memoryEv = comdat any

$_ZN11i_expr_predC2Ev = comdat any

$_ZN7datalog7context13contains_predclEP4expr = comdat any

$_ZN7datalog7context13contains_predD0Ev = comdat any

$_ZN11i_expr_predD2Ev = comdat any

$_ZN11i_expr_predD0Ev = comdat any

$_ZNK7datalog7context12is_predicateEP4expr = comdat any

$_ZN10ptr_vectorI5trailEC2Ev = comdat any

$_ZN10ptr_vectorI5trailED2Ev = comdat any

$_ZN6vectorIP5trailLb0EjEC2Ev = comdat any

$_ZN6vectorIP5trailLb0EjED2Ev = comdat any

$_ZN6vectorIP5trailLb0EjE7destroyEv = comdat any

$_ZN6vectorIP5trailLb0EjE11free_memoryEv = comdat any

$_ZN16expr_sparse_markC2Ev = comdat any

$_ZN10ptr_vectorI4sortEC2Ev = comdat any

$_ZN10ptr_vectorI4exprEC2Ev = comdat any

$_ZN10ptr_vectorI4sortED2Ev = comdat any

$_ZN16expr_sparse_markD2Ev = comdat any

$_ZN13obj_hashtableI4exprEC2Ej = comdat any

$_ZN14core_hashtableI14obj_hash_entryI4exprE12obj_ptr_hashIS1_E6ptr_eqIS1_EEC2EjRKS4_RKS6_ = comdat any

$_ZN14core_hashtableI14obj_hash_entryI4exprE12obj_ptr_hashIS1_E6ptr_eqIS1_EE11alloc_tableEj = comdat any

$_Z10alloc_vectI14obj_hash_entryI4exprEEPT_j = comdat any

$_ZN14obj_hash_entryI4exprEC2Ev = comdat any

$_ZN6vectorIP4sortLb0EjEC2Ev = comdat any

$_ZN6vectorIP4exprLb0EjEC2Ev = comdat any

$_ZN6vectorIP4sortLb0EjED2Ev = comdat any

$_ZN6vectorIP4sortLb0EjE7destroyEv = comdat any

$_ZN6vectorIP4sortLb0EjE11free_memoryEv = comdat any

$_ZN13obj_hashtableI4exprED2Ev = comdat any

$_ZN14core_hashtableI14obj_hash_entryI4exprE12obj_ptr_hashIS1_E6ptr_eqIS1_EED2Ev = comdat any

$_ZN14core_hashtableI14obj_hash_entryI4exprE12obj_ptr_hashIS1_E6ptr_eqIS1_EE12delete_tableEv = comdat any

$_Z12dealloc_vectI14obj_hash_entryI4exprEEvPT_j = comdat any

$_ZN15ref_vector_coreI4expr19ref_manager_wrapperIS0_11ast_managerEED2Ev = comdat any

$_ZN15ref_vector_coreI4expr19ref_manager_wrapperIS0_11ast_managerEE13dec_range_refEPKPS0_S7_ = comdat any

$_ZNK6vectorIP4exprLb0EjE4dataEv = comdat any

$_ZNK6vectorIP4exprLb0EjE4sizeEv = comdat any

$_ZN15ref_vector_coreI4expr19ref_manager_wrapperIS0_11ast_managerEE7dec_refEPS0_ = comdat any

$_ZN19ref_manager_wrapperI4expr11ast_managerE7dec_refEPS0_ = comdat any

$_ZN6vectorI6symbolLb0EjED2Ev = comdat any

$_ZN6vectorI6symbolLb0EjE7destroyEv = comdat any

$_ZN6vectorI6symbolLb0EjE11free_memoryEv = comdat any

$_ZN14core_hashtableIN7obj_mapIK9func_decl7svectorI6symboljEE13obj_map_entryE8obj_hashINS6_8key_dataEE10default_eqIS9_EED2Ev = comdat any

$_ZN14core_hashtableIN7obj_mapIK9func_decl7svectorI6symboljEE13obj_map_entryE8obj_hashINS6_8key_dataEE10default_eqIS9_EE12delete_tableEv = comdat any

$_Z12dealloc_vectIN7obj_mapIK9func_decl7svectorI6symboljEE13obj_map_entryEEvPT_j = comdat any

$_ZN7obj_mapIK9func_decl7svectorI6symboljEE13obj_map_entryD2Ev = comdat any

$_ZN7obj_mapIK9func_decl7svectorI6symboljEE8key_dataD2Ev = comdat any

$_ZN9table2mapI17default_map_entryI6symbolP9func_declE16symbol_hash_proc14symbol_eq_procED2Ev = comdat any

$_ZN14core_hashtableI17default_map_entryI6symbolP9func_declEN9table2mapIS4_16symbol_hash_proc14symbol_eq_procE15entry_hash_procENS8_13entry_eq_procEED2Ev = comdat any

$_ZN14core_hashtableI17default_map_entryI6symbolP9func_declEN9table2mapIS4_16symbol_hash_proc14symbol_eq_procE15entry_hash_procENS8_13entry_eq_procEE12delete_tableEv = comdat any

$_Z12dealloc_vectI17default_map_entryI6symbolP9func_declEEvPT_j = comdat any

$_ZN14core_hashtableI14obj_hash_entryI9func_declE12obj_ptr_hashIS1_E6ptr_eqIS1_EED2Ev = comdat any

$_ZN14core_hashtableI14obj_hash_entryI9func_declE12obj_ptr_hashIS1_E6ptr_eqIS1_EE12delete_tableEv = comdat any

$_Z12dealloc_vectI14obj_hash_entryI9func_declEEvPT_j = comdat any

$_ZN14core_hashtableIN7obj_mapIK4sortPN7datalog7context11sort_domainEE13obj_map_entryE8obj_hashINS7_8key_dataEE10default_eqISA_EED2Ev = comdat any

$_ZN14core_hashtableIN7obj_mapIK4sortPN7datalog7context11sort_domainEE13obj_map_entryE8obj_hashINS7_8key_dataEE10default_eqISA_EE12delete_tableEv = comdat any

$_Z12dealloc_vectIN7obj_mapIK4sortPN7datalog7context11sort_domainEE13obj_map_entryEEvPT_j = comdat any

$_ZN15ref_vector_coreI3ast19ref_manager_wrapperIS0_11ast_managerEED2Ev = comdat any

$_ZN15ref_vector_coreI3ast19ref_manager_wrapperIS0_11ast_managerEE13dec_range_refEPKPS0_S7_ = comdat any

$_ZNK6vectorIP3astLb0EjE4dataEv = comdat any

$_ZNK6vectorIP3astLb0EjE4sizeEv = comdat any

$_ZN10ptr_vectorI3astED2Ev = comdat any

$_ZN15ref_vector_coreI3ast19ref_manager_wrapperIS0_11ast_managerEE7dec_refEPS0_ = comdat any

$_ZN19ref_manager_wrapperI3ast11ast_managerE7dec_refEPS0_ = comdat any

$_ZN6vectorIP3astLb0EjED2Ev = comdat any

$_ZN6vectorIP3astLb0EjE7destroyEv = comdat any

$_ZN6vectorIP3astLb0EjE11free_memoryEv = comdat any

$_ZN7datalog34uninterpreted_function_finder_procD2Ev = comdat any

$_ZN7svectorIbjED2Ev = comdat any

$_ZN10ref_vectorI3app11ast_managerED2Ev = comdat any

$_ZN8uint_setD2Ev = comdat any

$_ZN9used_varsD2Ev = comdat any

$_ZN7datalog12rule_counterD2Ev = comdat any

$_ZN6vectorIbLb0EjED2Ev = comdat any

$_ZN6vectorIbLb0EjE7destroyEv = comdat any

$_ZN6vectorIbLb0EjE11free_memoryEv = comdat any

$_ZN15ref_vector_coreI3app19ref_manager_wrapperIS0_11ast_managerEED2Ev = comdat any

$_ZN15ref_vector_coreI3app19ref_manager_wrapperIS0_11ast_managerEE13dec_range_refEPKPS0_S7_ = comdat any

$_ZNK6vectorIP3appLb0EjE4dataEv = comdat any

$_ZNK6vectorIP3appLb0EjE4sizeEv = comdat any

$_ZN10ptr_vectorI3appED2Ev = comdat any

$_ZN15ref_vector_coreI3app19ref_manager_wrapperIS0_11ast_managerEE7dec_refEPS0_ = comdat any

$_ZN19ref_manager_wrapperI3app11ast_managerE7dec_refEPS0_ = comdat any

$_ZN6vectorIP3appLb0EjED2Ev = comdat any

$_ZN6vectorIP3appLb0EjE7destroyEv = comdat any

$_ZN6vectorIP3appLb0EjE11free_memoryEv = comdat any

$_ZN6vectorIjLb0EjED2Ev = comdat any

$_ZN6vectorIjLb0EjE7destroyEv = comdat any

$_ZN6vectorIjLb0EjE11free_memoryEv = comdat any

$_ZN7svectorI15expr_delta_pairjED2Ev = comdat any

$_ZN9hashtableI15expr_delta_pair8obj_hashIS0_E10default_eqIS0_EED2Ev = comdat any

$_ZN6vectorI15expr_delta_pairLb0EjED2Ev = comdat any

$_ZN6vectorI15expr_delta_pairLb0EjE7destroyEv = comdat any

$_ZN6vectorI15expr_delta_pairLb0EjE11free_memoryEv = comdat any

$_ZN14core_hashtableI18default_hash_entryI15expr_delta_pairE8obj_hashIS1_E10default_eqIS1_EED2Ev = comdat any

$_ZN14core_hashtableI18default_hash_entryI15expr_delta_pairE8obj_hashIS1_E10default_eqIS1_EE12delete_tableEv = comdat any

$_Z12dealloc_vectI18default_hash_entryI15expr_delta_pairEEvPT_j = comdat any

$_ZN11var_counterD2Ev = comdat any

$_ZN7counterD2Ev = comdat any

$_ZN5u_mapIiED2Ev = comdat any

$_ZN3mapIji6u_hash4u_eqED2Ev = comdat any

$_ZN9table2mapI17default_map_entryIjiE6u_hash4u_eqED2Ev = comdat any

$_ZN14core_hashtableI17default_map_entryIjiEN9table2mapIS1_6u_hash4u_eqE15entry_hash_procENS5_13entry_eq_procEED2Ev = comdat any

$_ZN14core_hashtableI17default_map_entryIjiEN9table2mapIS1_6u_hash4u_eqE15entry_hash_procENS5_13entry_eq_procEE12delete_tableEv = comdat any

$_Z12dealloc_vectI17default_map_entryIjiEEvPT_j = comdat any

$_ZN10scoped_ptrI7bv_utilED2Ev = comdat any

$_ZN10scoped_ptrI10arith_utilED2Ev = comdat any

$_Z7deallocI7bv_utilEvPT_ = comdat any

$_Z7deallocI10arith_utilEvPT_ = comdat any

$_ZN11trail_stack9pop_scopeEj = comdat any

$_Z16undo_trail_stackR10ptr_vectorI5trailEj = comdat any

$_ZN6vectorIjLb0EjE6shrinkEj = comdat any

$_ZN6region9pop_scopeEj = comdat any

$_ZN6vectorIP5trailLb0EjE5beginEv = comdat any

$_ZN6vectorIP5trailLb0EjE3endEv = comdat any

$_ZN6vectorIP5trailLb0EjE6shrinkEj = comdat any

$_ZN7datalog7context11sort_domainC2ENS0_9sort_kindERS0_P4sort = comdat any

$_ZN3mapI6symbolj16symbol_hash_proc14symbol_eq_procEC2ERKS1_RKS2_ = comdat any

$_ZN3mapI6symbolj16symbol_hash_proc14symbol_eq_procED2Ev = comdat any

$_ZN7datalog7context18symbol_sort_domainD2Ev = comdat any

$_ZN7datalog7context18symbol_sort_domainD0Ev = comdat any

$_ZNK7datalog7context18symbol_sort_domain18get_constant_countEv = comdat any

$_ZN7datalog7context18symbol_sort_domain13print_elementEjRSo = comdat any

$_ZN7obj_refI4sort11ast_managerEC2EPS0_RS1_ = comdat any

$_ZN7obj_refI4sort11ast_managerED2Ev = comdat any

$_ZN7datalog7context11sort_domainD2Ev = comdat any

$_ZN7datalog7context11sort_domainD0Ev = comdat any

$_ZN7obj_refI4sort11ast_managerE7inc_refEv = comdat any

$_ZN11ast_manager7inc_refEP3ast = comdat any

$_ZN3ast7inc_refEv = comdat any

$_ZN7obj_refI4sort11ast_managerE7dec_refEv = comdat any

$_ZN9table2mapI17default_map_entryI6symboljE16symbol_hash_proc14symbol_eq_procEC2ERKS3_RKS4_ = comdat any

$_ZN9table2mapI17default_map_entryI6symboljE16symbol_hash_proc14symbol_eq_procE15entry_hash_procC2ERKS3_ = comdat any

$_ZN9table2mapI17default_map_entryI6symboljE16symbol_hash_proc14symbol_eq_procE13entry_eq_procC2ERKS4_ = comdat any

$_ZN14core_hashtableI17default_map_entryI6symboljEN9table2mapIS2_16symbol_hash_proc14symbol_eq_procE15entry_hash_procENS6_13entry_eq_procEEC2EjRKS7_RKS8_ = comdat any

$_ZN14core_hashtableI17default_map_entryI6symboljEN9table2mapIS2_16symbol_hash_proc14symbol_eq_procE15entry_hash_procENS6_13entry_eq_procEE11alloc_tableEj = comdat any

$_Z10alloc_vectI17default_map_entryI6symboljEEPT_j = comdat any

$_ZN17default_map_entryI6symboljEC2Ev = comdat any

$_ZN18default_hash_entryI9_key_dataI6symboljEEC2Ev = comdat any

$_ZN9_key_dataI6symboljEC2Ev = comdat any

$_ZN9table2mapI17default_map_entryI6symboljE16symbol_hash_proc14symbol_eq_procED2Ev = comdat any

$_ZN14core_hashtableI17default_map_entryI6symboljEN9table2mapIS2_16symbol_hash_proc14symbol_eq_procE15entry_hash_procENS6_13entry_eq_procEED2Ev = comdat any

$_ZN14core_hashtableI17default_map_entryI6symboljEN9table2mapIS2_16symbol_hash_proc14symbol_eq_procE15entry_hash_procENS6_13entry_eq_procEE12delete_tableEv = comdat any

$_Z12dealloc_vectI17default_map_entryI6symboljEEvPT_j = comdat any

$_ZNK6vectorI6symbolLb0EjE4sizeEv = comdat any

$_ZN3mapImj11uint64_hash10default_eqImEEC2ERKS0_RKS2_ = comdat any

$_ZN3mapImj11uint64_hash10default_eqImEED2Ev = comdat any

$_ZN7datalog7context18uint64_sort_domainD2Ev = comdat any

$_ZN7datalog7context18uint64_sort_domainD0Ev = comdat any

$_ZNK7datalog7context18uint64_sort_domain18get_constant_countEv = comdat any

$_ZN7datalog7context18uint64_sort_domain13print_elementEjRSo = comdat any

$_ZN9table2mapI17default_map_entryImjE11uint64_hash10default_eqImEEC2ERKS2_RKS4_ = comdat any

$_ZN9table2mapI17default_map_entryImjE11uint64_hash10default_eqImEE15entry_hash_procC2ERKS2_ = comdat any

$_ZN9table2mapI17default_map_entryImjE11uint64_hash10default_eqImEE13entry_eq_procC2ERKS4_ = comdat any

$_ZN14core_hashtableI17default_map_entryImjEN9table2mapIS1_11uint64_hash10default_eqImEE15entry_hash_procENS6_13entry_eq_procEEC2EjRKS7_RKS8_ = comdat any

$_ZN14core_hashtableI17default_map_entryImjEN9table2mapIS1_11uint64_hash10default_eqImEE15entry_hash_procENS6_13entry_eq_procEE11alloc_tableEj = comdat any

$_Z10alloc_vectI17default_map_entryImjEEPT_j = comdat any

$_ZN17default_map_entryImjEC2Ev = comdat any

$_ZN18default_hash_entryI9_key_dataImjEEC2Ev = comdat any

$_ZN9_key_dataImjEC2Ev = comdat any

$_ZN9table2mapI17default_map_entryImjE11uint64_hash10default_eqImEED2Ev = comdat any

$_ZN14core_hashtableI17default_map_entryImjEN9table2mapIS1_11uint64_hash10default_eqImEE15entry_hash_procENS6_13entry_eq_procEED2Ev = comdat any

$_ZN14core_hashtableI17default_map_entryImjEN9table2mapIS1_11uint64_hash10default_eqImEE15entry_hash_procENS6_13entry_eq_procEE12delete_tableEv = comdat any

$_Z12dealloc_vectI17default_map_entryImjEEvPT_j = comdat any

$_ZNK7obj_refI4sort11ast_managerEptEv = comdat any

$_ZN6vectorImLb0EjEixEj = comdat any

$_ZNK14core_hashtableI14obj_hash_entryI9func_declE12obj_ptr_hashIS1_E6ptr_eqIS1_EE8containsERKPS1_ = comdat any

$_ZNK14core_hashtableI14obj_hash_entryI9func_declE12obj_ptr_hashIS1_E6ptr_eqIS1_EE9find_coreERKPS1_ = comdat any

$_ZNK14core_hashtableI14obj_hash_entryI9func_declE12obj_ptr_hashIS1_E6ptr_eqIS1_EE8get_hashERKPS1_ = comdat any

$_ZNK14obj_hash_entryI9func_declE7is_usedEv = comdat any

$_ZNK14obj_hash_entryI9func_declE8get_hashEv = comdat any

$_ZNK14core_hashtableI14obj_hash_entryI9func_declE12obj_ptr_hashIS1_E6ptr_eqIS1_EE6equalsERKPS1_SA_ = comdat any

$_ZN14obj_hash_entryI9func_declE8get_dataEv = comdat any

$_ZNK14obj_hash_entryI9func_declE7is_freeEv = comdat any

$_ZNK12obj_ptr_hashI9func_declEclEPS0_ = comdat any

$_ZNK3ast4hashEv = comdat any

$_ZNK6ptr_eqI9func_declEclEPS0_S2_ = comdat any

$_ZNK9table2mapI17default_map_entryI6symboljE16symbol_hash_proc14symbol_eq_procE4sizeEv = comdat any

$_ZN9table2mapI17default_map_entryI6symboljE16symbol_hash_proc14symbol_eq_procE19insert_if_not_thereERKS1_RKj = comdat any

$_ZNK14core_hashtableI17default_map_entryI6symboljEN9table2mapIS2_16symbol_hash_proc14symbol_eq_procE15entry_hash_procENS6_13entry_eq_procEE4sizeEv = comdat any

$_ZN14core_hashtableI17default_map_entryI6symboljEN9table2mapIS2_16symbol_hash_proc14symbol_eq_procE15entry_hash_procENS6_13entry_eq_procEE20insert_if_not_there2ERK9_key_dataIS1_jE = comdat any

$_ZN9_key_dataI6symboljEC2ERKS0_RKj = comdat any

$_ZN18default_hash_entryI9_key_dataI6symboljEE8get_dataEv = comdat any

$_ZN14core_hashtableI17default_map_entryI6symboljEN9table2mapIS2_16symbol_hash_proc14symbol_eq_procE15entry_hash_procENS6_13entry_eq_procEE24insert_if_not_there_coreERK9_key_dataIS1_jERPS2_ = comdat any

$_ZN14core_hashtableI17default_map_entryI6symboljEN9table2mapIS2_16symbol_hash_proc14symbol_eq_procE15entry_hash_procENS6_13entry_eq_procEE24insert_if_not_there_coreEO9_key_dataIS1_jERPS2_ = comdat any

$_ZN14core_hashtableI17default_map_entryI6symboljEN9table2mapIS2_16symbol_hash_proc14symbol_eq_procE15entry_hash_procENS6_13entry_eq_procEE12expand_tableEv = comdat any

$_ZNK14core_hashtableI17default_map_entryI6symboljEN9table2mapIS2_16symbol_hash_proc14symbol_eq_procE15entry_hash_procENS6_13entry_eq_procEE8get_hashERK9_key_dataIS1_jE = comdat any

$_ZNK18default_hash_entryI9_key_dataI6symboljEE7is_usedEv = comdat any

$_ZNK18default_hash_entryI9_key_dataI6symboljEE8get_hashEv = comdat any

$_ZNK14core_hashtableI17default_map_entryI6symboljEN9table2mapIS2_16symbol_hash_proc14symbol_eq_procE15entry_hash_procENS6_13entry_eq_procEE6equalsERK9_key_dataIS1_jESD_ = comdat any

$_ZNK18default_hash_entryI9_key_dataI6symboljEE7is_freeEv = comdat any

$_ZN18default_hash_entryI9_key_dataI6symboljEE8set_dataEOS2_ = comdat any

$_ZN18default_hash_entryI9_key_dataI6symboljEE8set_hashEj = comdat any

$_ZN14core_hashtableI17default_map_entryI6symboljEN9table2mapIS2_16symbol_hash_proc14symbol_eq_procE15entry_hash_procENS6_13entry_eq_procEE10move_tableEPS2_jSA_j = comdat any

$_ZNK9table2mapI17default_map_entryI6symboljE16symbol_hash_proc14symbol_eq_procE15entry_hash_procclERK9_key_dataIS1_jE = comdat any

$_ZNK16symbol_hash_procclERK6symbol = comdat any

$_ZNK6symbol4hashEv = comdat any

$_ZNK6symbol12is_numericalEv = comdat any

$_ZNK6symbol7get_numEv = comdat any

$_ZNK9table2mapI17default_map_entryI6symboljE16symbol_hash_proc14symbol_eq_procE13entry_eq_procclERK9_key_dataIS1_jESA_ = comdat any

$_ZNK14symbol_eq_procclERK6symbolS2_ = comdat any

$_ZNK9table2mapI17default_map_entryImjE11uint64_hash10default_eqImEE4sizeEv = comdat any

$_ZN9table2mapI17default_map_entryImjE11uint64_hash10default_eqImEE19insert_if_not_thereERKmRKj = comdat any

$_ZN6vectorImLb0EjE9push_backERKm = comdat any

$_ZNK14core_hashtableI17default_map_entryImjEN9table2mapIS1_11uint64_hash10default_eqImEE15entry_hash_procENS6_13entry_eq_procEE4sizeEv = comdat any

$_ZN14core_hashtableI17default_map_entryImjEN9table2mapIS1_11uint64_hash10default_eqImEE15entry_hash_procENS6_13entry_eq_procEE20insert_if_not_there2ERK9_key_dataImjE = comdat any

$_ZN9_key_dataImjEC2ERKmRKj = comdat any

$_ZN18default_hash_entryI9_key_dataImjEE8get_dataEv = comdat any

$_ZN14core_hashtableI17default_map_entryImjEN9table2mapIS1_11uint64_hash10default_eqImEE15entry_hash_procENS6_13entry_eq_procEE24insert_if_not_there_coreERK9_key_dataImjERPS1_ = comdat any

$_ZN14core_hashtableI17default_map_entryImjEN9table2mapIS1_11uint64_hash10default_eqImEE15entry_hash_procENS6_13entry_eq_procEE24insert_if_not_there_coreEO9_key_dataImjERPS1_ = comdat any

$_ZN14core_hashtableI17default_map_entryImjEN9table2mapIS1_11uint64_hash10default_eqImEE15entry_hash_procENS6_13entry_eq_procEE12expand_tableEv = comdat any

$_ZNK14core_hashtableI17default_map_entryImjEN9table2mapIS1_11uint64_hash10default_eqImEE15entry_hash_procENS6_13entry_eq_procEE8get_hashERK9_key_dataImjE = comdat any

$_ZNK18default_hash_entryI9_key_dataImjEE7is_usedEv = comdat any

$_ZNK18default_hash_entryI9_key_dataImjEE8get_hashEv = comdat any

$_ZNK14core_hashtableI17default_map_entryImjEN9table2mapIS1_11uint64_hash10default_eqImEE15entry_hash_procENS6_13entry_eq_procEE6equalsERK9_key_dataImjESD_ = comdat any

$_ZNK18default_hash_entryI9_key_dataImjEE7is_freeEv = comdat any

$_ZN18default_hash_entryI9_key_dataImjEE8set_dataEOS1_ = comdat any

$_ZN18default_hash_entryI9_key_dataImjEE8set_hashEj = comdat any

$_ZN14core_hashtableI17default_map_entryImjEN9table2mapIS1_11uint64_hash10default_eqImEE15entry_hash_procENS6_13entry_eq_procEE10move_tableEPS1_jSA_j = comdat any

$_ZNK9table2mapI17default_map_entryImjE11uint64_hash10default_eqImEE15entry_hash_procclERK9_key_dataImjE = comdat any

$_ZNK11uint64_hashclEm = comdat any

$_ZNK9table2mapI17default_map_entryImjE11uint64_hash10default_eqImEE13entry_eq_procclERK9_key_dataImjESA_ = comdat any

$_ZNK10default_eqImEclERKmS2_ = comdat any

$_ZN6vectorImLb0EjE13expand_vectorEv = comdat any

$_Z10is_sort_ofPK4sortii = comdat any

$_ZNK4sort10is_sort_ofEii = comdat any

$_ZNK4decl13get_decl_kindEv = comdat any

$_ZNK9decl_info13get_decl_kindEv = comdat any

$_ZNK4sort8get_infoEv = comdat any

$_ZNK9sort_info16get_num_elementsEv = comdat any

$_ZNK11ast_manager10proof_modeEv = comdat any

$_ZN11ast_manager17toggle_proof_modeE14proof_gen_mode = comdat any

$_ZNK15ref_vector_coreIN7datalog4ruleE19ref_manager_wrapperIS1_NS0_12rule_managerEEE4sizeEv = comdat any

$_ZNK6vectorIPN7datalog4ruleELb0EjE4sizeEv = comdat any

$_ZN10ref_vectorI3app11ast_managerEC2ERS1_ = comdat any

$_ZN19ref_manager_wrapperI3app11ast_managerEC2ERS1_ = comdat any

$_ZN15ref_vector_coreI3app19ref_manager_wrapperIS0_11ast_managerEEC2ERKS3_ = comdat any

$_ZN10ptr_vectorI3appEC2Ev = comdat any

$_ZN6vectorIP3appLb0EjEC2Ev = comdat any

$_ZN6vectorImLb0EjED2Ev = comdat any

$_ZN6vectorImLb0EjE7destroyEv = comdat any

$_ZN6vectorImLb0EjE11free_memoryEv = comdat any

$_ZNK10ref_vectorI4expr11ast_managerE11get_managerEv = comdat any

$_ZNK15ref_vector_coreI4expr19ref_manager_wrapperIS0_11ast_managerEE4dataEv = comdat any

$_ZN10ptr_bufferI3astLj16EEC2Ev = comdat any

$_ZN6bufferIP3astLb0ELj16EEC2Ev = comdat any

$_ZNK3ast8get_kindEv = comdat any

$_ZN15ref_vector_coreIN7datalog4ruleE19ref_manager_wrapperIS1_NS0_12rule_managerEEED2Ev = comdat any

$_ZN15ref_vector_coreIN7datalog4ruleE19ref_manager_wrapperIS1_NS0_12rule_managerEEE13dec_range_refEPKPS1_S8_ = comdat any

$_ZNK6vectorIPN7datalog4ruleELb0EjE4dataEv = comdat any

$_ZN10ptr_vectorIN7datalog4ruleEED2Ev = comdat any

$_ZN15ref_vector_coreIN7datalog4ruleE19ref_manager_wrapperIS1_NS0_12rule_managerEEE7dec_refEPS1_ = comdat any

$_ZN19ref_manager_wrapperIN7datalog4ruleENS0_12rule_managerEE7dec_refEPS1_ = comdat any

$_ZN6vectorIPN7datalog4ruleELb0EjED2Ev = comdat any

$_ZN6vectorIPN7datalog4ruleELb0EjE7destroyEv = comdat any

$_ZN6vectorIPN7datalog4ruleELb0EjE11free_memoryEv = comdat any

$_ZNK6vectorIP4sortLb0EjE5emptyEv = comdat any

$_ZNK15ref_vector_coreIN7datalog4ruleE19ref_manager_wrapperIS1_NS0_12rule_managerEEE4dataEv = comdat any

$_ZNK11ast_manager10is_impliesEPK4expr = comdat any

$_Z6to_appPK3ast = comdat any

$_Z9is_app_ofPK4exprii = comdat any

$_ZNK3app9is_app_ofEii = comdat any

$_ZNK4decl10is_decl_ofEii = comdat any

$_ZNK9decl_info10is_decl_ofEii = comdat any

$_ZN13stacked_valueIjEC2EOKj = comdat any

$_ZN8obj_markI4expr10bit_vector14default_t2uintIS0_EEC2ERKS3_ = comdat any

$_ZN8obj_markI4expr10bit_vector14default_t2uintIS0_EED2Ev = comdat any

$_ZN13stacked_valueIjED2Ev = comdat any

$_ZN10bit_vectorC2Ev = comdat any

$_ZN10bit_vectorD2Ev = comdat any

$_Z13dealloc_svectIjEvPT_ = comdat any

$_ZN19smt2_pp_environmentC2Ev = comdat any

$_ZN8seq_utilC2ER11ast_manager = comdat any

$_ZN8seq_utilD2Ev = comdat any

$_ZN19smt2_pp_environmentD2Ev = comdat any

$_ZN23smt2_pp_environment_dbgD0Ev = comdat any

$_ZNK23smt2_pp_environment_dbg11get_managerEv = comdat any

$_ZN23smt2_pp_environment_dbg9get_autilEv = comdat any

$_ZN23smt2_pp_environment_dbg10get_bvutilEv = comdat any

$_ZN23smt2_pp_environment_dbg10get_arutilEv = comdat any

$_ZN23smt2_pp_environment_dbg9get_futilEv = comdat any

$_ZN23smt2_pp_environment_dbg9get_sutilEv = comdat any

$_ZN23smt2_pp_environment_dbg10get_dlutilEv = comdat any

$_ZN23smt2_pp_environment_dbg10get_dtutilEv = comdat any

$_ZNK23smt2_pp_environment_dbg4usesERK6symbol = comdat any

$_ZN11ast_manager12mk_family_idEPKc = comdat any

$_ZNK15seq_decl_plugin15get_char_pluginEv = comdat any

$_ZNK11decl_plugin13get_family_idEv = comdat any

$_ZN8seq_util3strC2ERS_ = comdat any

$_ZN8seq_util3rexC2ERS_ = comdat any

$_ZN11ast_manager12mk_family_idERK6symbol = comdat any

$_ZN6vectorIN8seq_util3rex4infoELb1EjEC2Ev = comdat any

$_ZN8seq_util3rex4infoC2E5lbool = comdat any

$_ZN6vectorIN8seq_util3rex4infoELb1EjED2Ev = comdat any

$_ZN6vectorIN8seq_util3rex4infoELb1EjE7destroyEv = comdat any

$_ZN6vectorIN8seq_util3rex4infoELb1EjE16destroy_elementsEv = comdat any

$_ZN6vectorIN8seq_util3rex4infoELb1EjE11free_memoryEv = comdat any

$_ZSt9destroy_nIPN8seq_util3rex4infoEjET_S4_T0_ = comdat any

$_ZNK6vectorIN8seq_util3rex4infoELb1EjE4sizeEv = comdat any

$_ZSt10_Destroy_nIPN8seq_util3rex4infoEjET_S4_T0_ = comdat any

$_ZNSt14_Destroy_n_auxILb1EE11__destroy_nIPN8seq_util3rex4infoEjEET_S6_T0_ = comdat any

$_ZSt7advanceIPN8seq_util3rex4infoEjEvRT_T0_ = comdat any

$_ZSt9__advanceIPN8seq_util3rex4infoElEvRT_T0_St26random_access_iterator_tag = comdat any

$_ZSt19__iterator_categoryIPN8seq_util3rex4infoEENSt15iterator_traitsIT_E17iterator_categoryERKS5_ = comdat any

$_ZN8seq_util3rexD2Ev = comdat any

$_ZN12smt_renamingD2Ev = comdat any

$_ZN3mapI6symbolS0_16symbol_hash_proc14symbol_eq_procED2Ev = comdat any

$_ZN3mapI6symbolN12smt_renaming5sym_bE16symbol_hash_proc14symbol_eq_procED2Ev = comdat any

$_ZN9table2mapI17default_map_entryI6symbolS1_E16symbol_hash_proc14symbol_eq_procED2Ev = comdat any

$_ZN14core_hashtableI17default_map_entryI6symbolS1_EN9table2mapIS2_16symbol_hash_proc14symbol_eq_procE15entry_hash_procENS6_13entry_eq_procEED2Ev = comdat any

$_ZN14core_hashtableI17default_map_entryI6symbolS1_EN9table2mapIS2_16symbol_hash_proc14symbol_eq_procE15entry_hash_procENS6_13entry_eq_procEE12delete_tableEv = comdat any

$_Z12dealloc_vectI17default_map_entryI6symbolS1_EEvPT_j = comdat any

$_ZN9table2mapI17default_map_entryI6symbolN12smt_renaming5sym_bEE16symbol_hash_proc14symbol_eq_procED2Ev = comdat any

$_ZN14core_hashtableI17default_map_entryI6symbolN12smt_renaming5sym_bEEN9table2mapIS4_16symbol_hash_proc14symbol_eq_procE15entry_hash_procENS8_13entry_eq_procEED2Ev = comdat any

$_ZN14core_hashtableI17default_map_entryI6symbolN12smt_renaming5sym_bEEN9table2mapIS4_16symbol_hash_proc14symbol_eq_procE15entry_hash_procENS8_13entry_eq_procEE12delete_tableEv = comdat any

$_Z12dealloc_vectI17default_map_entryI6symbolN12smt_renaming5sym_bEEEvPT_j = comdat any

$_ZN9hashtableI6symbol16symbol_hash_proc14symbol_eq_procEC2EjRKS1_RKS2_ = comdat any

$_ZN14core_hashtableI18default_hash_entryI6symbolE16symbol_hash_proc14symbol_eq_procEC2EjRKS3_RKS4_ = comdat any

$_ZN14core_hashtableI18default_hash_entryI6symbolE16symbol_hash_proc14symbol_eq_procE11alloc_tableEj = comdat any

$_Z10alloc_vectI18default_hash_entryI6symbolEEPT_j = comdat any

$_ZN18default_hash_entryI6symbolEC2Ev = comdat any

$_ZNK6vectorIP9func_declLb0EjE4sizeEv = comdat any

$_ZNK9decl_info13get_family_idEv = comdat any

$_ZN10ast_smt_ppD2Ev = comdat any

$_ZN10ast_smt_pp11is_declaredD2Ev = comdat any

$_ZNK14core_hashtableI18default_hash_entryI6symbolE16symbol_hash_proc14symbol_eq_procE8containsERKS1_ = comdat any

$_ZNK14core_hashtableI18default_hash_entryI6symbolE16symbol_hash_proc14symbol_eq_procE9find_coreERKS1_ = comdat any

$_ZNK14core_hashtableI18default_hash_entryI6symbolE16symbol_hash_proc14symbol_eq_procE8get_hashERKS1_ = comdat any

$_ZNK18default_hash_entryI6symbolE7is_usedEv = comdat any

$_ZNK18default_hash_entryI6symbolE8get_hashEv = comdat any

$_ZNK14core_hashtableI18default_hash_entryI6symbolE16symbol_hash_proc14symbol_eq_procE6equalsERKS1_S7_ = comdat any

$_ZN18default_hash_entryI6symbolE8get_dataEv = comdat any

$_ZNK18default_hash_entryI6symbolE7is_freeEv = comdat any

$_ZN14core_hashtableI18default_hash_entryI6symbolE16symbol_hash_proc14symbol_eq_procE6insertERKS1_ = comdat any

$_ZN14core_hashtableI18default_hash_entryI6symbolE16symbol_hash_proc14symbol_eq_procE6insertEOS1_ = comdat any

$_ZN14core_hashtableI18default_hash_entryI6symbolE16symbol_hash_proc14symbol_eq_procE12expand_tableEv = comdat any

$_ZN18default_hash_entryI6symbolE8set_dataEOS0_ = comdat any

$_ZN18default_hash_entryI6symbolE8set_hashEj = comdat any

$_ZN14core_hashtableI18default_hash_entryI6symbolE16symbol_hash_proc14symbol_eq_procE10move_tableEPS2_jS6_j = comdat any

$_ZN14core_hashtableI18default_hash_entryI6symbolE16symbol_hash_proc14symbol_eq_procE12delete_tableEv = comdat any

$_Z12dealloc_vectI18default_hash_entryI6symbolEEvPT_j = comdat any

$_ZNK6vectorIP4sortLb0EjE4dataEv = comdat any

$_ZNK6vectorIP4sortLb0EjE4sizeEv = comdat any

$_ZNK6vectorIP4sortLb0EjEixEj = comdat any

$_ZN9hashtableI6symbol16symbol_hash_proc14symbol_eq_procED2Ev = comdat any

$_ZN14core_hashtableI18default_hash_entryI6symbolE16symbol_hash_proc14symbol_eq_procED2Ev = comdat any

$_ZN14decl_collectorD2Ev = comdat any

$_ZN8ast_markD2Ev = comdat any

$_ZN11lim_svectorIP9func_declED2Ev = comdat any

$_ZN11lim_svectorIP4sortED2Ev = comdat any

$_ZN8obj_markI4decl10bit_vectorN8ast_mark9decl2uintEED2Ev = comdat any

$_ZN7svectorIP9func_decljED2Ev = comdat any

$_ZN6vectorIP9func_declLb0EjED2Ev = comdat any

$_ZN6vectorIP9func_declLb0EjE7destroyEv = comdat any

$_ZN6vectorIP9func_declLb0EjE11free_memoryEv = comdat any

$_ZN7svectorIP4sortjED2Ev = comdat any

$_ZNK10quantifier8get_kindEv = comdat any

$_ZNK3app15has_quantifiersEv = comdat any

$_ZNK3app5flagsEv = comdat any

$_ZN11ast_manager13mk_const_declERK6symbolP4sort = comdat any

$_ZN11ast_manager12mk_func_declERK6symboljPKP4sortS4_ = comdat any

$_ZN14core_hashtableIN7obj_mapI4sortjE13obj_map_entryE8obj_hashINS2_8key_dataEE10default_eqIS5_EED2Ev = comdat any

$_ZN14core_hashtableIN7obj_mapI4sortjE13obj_map_entryE8obj_hashINS2_8key_dataEE10default_eqIS5_EE12delete_tableEv = comdat any

$_Z12dealloc_vectIN7obj_mapI4sortjE13obj_map_entryEEvPT_j = comdat any

$_ZN14core_hashtableIN7obj_mapI4sort7svectorIjjEE13obj_map_entryE8obj_hashINS4_8key_dataEE10default_eqIS7_EED2Ev = comdat any

$_ZN14core_hashtableIN7obj_mapI4sort7svectorIjjEE13obj_map_entryE8obj_hashINS4_8key_dataEE10default_eqIS7_EE12delete_tableEv = comdat any

$_Z12dealloc_vectIN7obj_mapI4sort7svectorIjjEE13obj_map_entryEEvPT_j = comdat any

$_ZN7obj_mapI4sort7svectorIjjEE13obj_map_entryD2Ev = comdat any

$_ZN7obj_mapI4sort7svectorIjjEE8key_dataD2Ev = comdat any

$_ZN6vectorIjLb0EjE13expand_vectorEv = comdat any

$_ZN6vectorIjLb0EjEC2Ev = comdat any

$_ZN7obj_refI4expr11ast_managerE7inc_refEv = comdat any

$_ZN7obj_refI4expr11ast_managerE7dec_refEv = comdat any

$_ZN19ref_manager_wrapperI3ast11ast_managerEC2ERS1_ = comdat any

$_ZN15ref_vector_coreI3ast19ref_manager_wrapperIS0_11ast_managerEEC2ERKS3_ = comdat any

$_ZN10ptr_vectorI3astEC2Ev = comdat any

$_ZN6vectorIP3astLb0EjEC2Ev = comdat any

$_ZN15ref_vector_coreI4expr19ref_manager_wrapperIS0_11ast_managerEE7inc_refEPS0_ = comdat any

$_ZN6vectorIP4exprLb0EjE9push_backERKS1_ = comdat any

$_ZN19ref_manager_wrapperI4expr11ast_managerE7inc_refEPS0_ = comdat any

$_ZN6vectorIP4exprLb0EjE13expand_vectorEv = comdat any

$_ZNSt11char_traitsIcE6lengthEPKc = comdat any

$_ZNSt7__cxx1112basic_stringIcSt11char_traitsIcESaIcEE12_M_constructIPKcEEvT_S8_St20forward_iterator_tag = comdat any

$_ZNSt7__cxx1112basic_stringIcSt11char_traitsIcESaIcEE12_Alloc_hiderD2Ev = comdat any

$_ZSt8distanceIPKcENSt15iterator_traitsIT_E15difference_typeES3_S3_ = comdat any

$_ZZNSt7__cxx1112basic_stringIcSt11char_traitsIcESaIcEE12_M_constructIPKcEEvT_S8_St20forward_iterator_tagEN6_GuardC2EPS4_ = comdat any

$_ZZNSt7__cxx1112basic_stringIcSt11char_traitsIcESaIcEE12_M_constructIPKcEEvT_S8_St20forward_iterator_tagEN6_GuardD2Ev = comdat any

$_ZSt10__distanceIPKcENSt15iterator_traitsIT_E15difference_typeES3_S3_St26random_access_iterator_tag = comdat any

$_ZSt19__iterator_categoryIPKcENSt15iterator_traitsIT_E17iterator_categoryERKS3_ = comdat any

$_ZN19ref_manager_wrapperI4expr11ast_managerEC2ERS1_ = comdat any

$_ZN15ref_vector_coreI4expr19ref_manager_wrapperIS0_11ast_managerEEC2ERKS3_ = comdat any

$_ZN6vectorI6symbolLb0EjEC2Ev = comdat any

$_ZN14core_hashtableI14obj_hash_entryI9func_declE12obj_ptr_hashIS1_E6ptr_eqIS1_EEC2EjRKS4_RKS6_ = comdat any

$_ZN14core_hashtableI14obj_hash_entryI9func_declE12obj_ptr_hashIS1_E6ptr_eqIS1_EE11alloc_tableEj = comdat any

$_Z10alloc_vectI14obj_hash_entryI9func_declEEPT_j = comdat any

$_ZN14obj_hash_entryI9func_declEC2Ev = comdat any

$_ZN6vectorIjLb1EjE7destroyEv = comdat any

$_ZN6vectorIjLb1EjE16destroy_elementsEv = comdat any

$_ZN6vectorIjLb1EjE11free_memoryEv = comdat any

$_ZSt9destroy_nIPjjET_S1_T0_ = comdat any

$_ZNK6vectorIjLb1EjE4sizeEv = comdat any

$_ZSt10_Destroy_nIPjjET_S1_T0_ = comdat any

$_ZNSt14_Destroy_n_auxILb1EE11__destroy_nIPjjEET_S3_T0_ = comdat any

$_ZSt7advanceIPjjEvRT_T0_ = comdat any

$_ZSt9__advanceIPjlEvRT_T0_St26random_access_iterator_tag = comdat any

$_ZSt19__iterator_categoryIPjENSt15iterator_traitsIT_E17iterator_categoryERKS2_ = comdat any

$_ZN15ref_vector_coreI3app19ref_manager_wrapperIS0_11ast_managerEE7inc_refEPS0_ = comdat any

$_ZN6vectorIP3appLb0EjE9push_backERKS1_ = comdat any

$_ZN19ref_manager_wrapperI3app11ast_managerE7inc_refEPS0_ = comdat any

$_ZN6vectorIP3appLb0EjE13expand_vectorEv = comdat any

$_ZN15ref_vector_coreI3ast19ref_manager_wrapperIS0_11ast_managerEE7inc_refEPS0_ = comdat any

$_ZN6vectorIP3astLb0EjE9push_backERKS1_ = comdat any

$_ZN19ref_manager_wrapperI3ast11ast_managerE7inc_refEPS0_ = comdat any

$_ZN6vectorIP3astLb0EjE13expand_vectorEv = comdat any

$_ZN13ast_fast_markILj1EE5resetEv = comdat any

$_ZN10ptr_bufferI3astLj16EED2Ev = comdat any

$_ZN6bufferIP3astLb0ELj16EE5beginEv = comdat any

$_ZN6bufferIP3astLb0ELj16EE3endEv = comdat any

$_ZN13ast_fast_markILj1EE10reset_markEP3ast = comdat any

$_ZN6bufferIP3astLb0ELj16EE5resetEv = comdat any

$_ZNK6bufferIP3astLb0ELj16EE4sizeEv = comdat any

$_ZN3ast11reset_mark1Ev = comdat any

$_ZN6bufferIP3astLb0ELj16EED2Ev = comdat any

$_ZN6bufferIP3astLb0ELj16EE7destroyEv = comdat any

$_ZN6bufferIP3astLb0ELj16EE11free_memoryEv = comdat any

$_Z13dealloc_svectIP3astEvPT_ = comdat any

$_ZN6vectorIP4exprLb0EjE5resetEv = comdat any

$_ZN6vectorIP4exprLb0EjEixEj = comdat any

$_ZN10ref_vectorI4expr11ast_managerE11element_refC2ERPS0_RS1_ = comdat any

$_ZN7obj_refI9func_decl11ast_managerE7dec_refEv = comdat any

$_ZNK15ref_vector_coreIN7datalog4ruleE19ref_manager_wrapperIS1_NS0_12rule_managerEEEixEj = comdat any

$_ZNK6vectorIPN7datalog4ruleELb0EjEixEj = comdat any

$_ZN14core_hashtableI14obj_hash_entryI9func_declE12obj_ptr_hashIS1_E6ptr_eqIS1_EE6insertEOPS1_ = comdat any

$_ZN14core_hashtableI14obj_hash_entryI9func_declE12obj_ptr_hashIS1_E6ptr_eqIS1_EE12expand_tableEv = comdat any

$_ZN14obj_hash_entryI9func_declE8set_dataEPS0_ = comdat any

$_ZN14obj_hash_entryI9func_declE8set_hashEj = comdat any

$_ZN14core_hashtableI14obj_hash_entryI9func_declE12obj_ptr_hashIS1_E6ptr_eqIS1_EE10move_tableEPS2_jS8_j = comdat any

$_ZN14core_hashtableI14obj_hash_entryI9func_declE12obj_ptr_hashIS1_E6ptr_eqIS1_EE8iteratorC2EPS2_S9_ = comdat any

$_ZN14core_hashtableI14obj_hash_entryI9func_declE12obj_ptr_hashIS1_E6ptr_eqIS1_EE8iterator12move_to_usedEv = comdat any

$_ZN9converter7inc_refEv = comdat any

$_ZN3refI15model_converterE7dec_refEv = comdat any

$_ZN9converter7dec_refEv = comdat any

$_Z7deallocI9converterEvPT_ = comdat any

$_ZN6vectorI6symbolLb0EjE13expand_vectorEv = comdat any

$_ZN6vectorImLb0EjEC2Ev = comdat any

$_ZN6vectorIP5trailLb0EjE9push_backEOS1_ = comdat any

$_ZnwmR6region = comdat any

$_ZN7datalog7context13restore_rulesC2ERKS1_ = comdat any

$_ZN6vectorIP5trailLb0EjE13expand_vectorEv = comdat any

$_ZN5trailC2ERKS_ = comdat any

$_ZN7datalog22restore_vec_size_trailINS_7contextE10ref_vectorI4expr11ast_managerEED0Ev = comdat any

$_ZN7datalog22restore_vec_size_trailINS_7contextE10ref_vectorI4expr11ast_managerEE4undoEv = comdat any

$_ZN15ref_vector_coreI4expr19ref_manager_wrapperIS0_11ast_managerEE6shrinkEj = comdat any

$_ZN6vectorIP4exprLb0EjE5beginEv = comdat any

$_ZN6vectorIP4exprLb0EjE3endEv = comdat any

$_ZN6vectorIP4exprLb0EjE6shrinkEj = comdat any

$_ZN7datalog22restore_vec_size_trailINS_7contextE10ref_vectorI4expr11ast_managerEEC2ERKS6_ = comdat any

$_ZN3refI15model_converterE7inc_refEv = comdat any

$_ZN14core_hashtableIN7obj_mapIK4sortPN7datalog7context11sort_domainEE13obj_map_entryE8obj_hashINS7_8key_dataEE10default_eqISA_EEC2EjRKSB_RKSD_ = comdat any

$_ZN14core_hashtableIN7obj_mapIK4sortPN7datalog7context11sort_domainEE13obj_map_entryE8obj_hashINS7_8key_dataEE10default_eqISA_EE11alloc_tableEj = comdat any

$_Z10alloc_vectIN7obj_mapIK4sortPN7datalog7context11sort_domainEE13obj_map_entryEEPT_j = comdat any

$_ZN7obj_mapIK4sortPN7datalog7context11sort_domainEE13obj_map_entryC2Ev = comdat any

$_ZN7obj_mapIK4sortPN7datalog7context11sort_domainEE8key_dataC2Ev = comdat any

$_ZN9table2mapI17default_map_entryI6symbolP9func_declE16symbol_hash_proc14symbol_eq_procEC2ERKS5_RKS6_ = comdat any

$_ZN9table2mapI17default_map_entryI6symbolP9func_declE16symbol_hash_proc14symbol_eq_procE15entry_hash_procC2ERKS5_ = comdat any

$_ZN9table2mapI17default_map_entryI6symbolP9func_declE16symbol_hash_proc14symbol_eq_procE13entry_eq_procC2ERKS6_ = comdat any

$_ZN14core_hashtableI17default_map_entryI6symbolP9func_declEN9table2mapIS4_16symbol_hash_proc14symbol_eq_procE15entry_hash_procENS8_13entry_eq_procEEC2EjRKS9_RKSA_ = comdat any

$_ZN14core_hashtableI17default_map_entryI6symbolP9func_declEN9table2mapIS4_16symbol_hash_proc14symbol_eq_procE15entry_hash_procENS8_13entry_eq_procEE11alloc_tableEj = comdat any

$_Z10alloc_vectI17default_map_entryI6symbolP9func_declEEPT_j = comdat any

$_ZN17default_map_entryI6symbolP9func_declEC2Ev = comdat any

$_ZN18default_hash_entryI9_key_dataI6symbolP9func_declEEC2Ev = comdat any

$_ZN9_key_dataI6symbolP9func_declEC2Ev = comdat any

$_ZN14core_hashtableIN7obj_mapIK9func_decl7svectorI6symboljEE13obj_map_entryE8obj_hashINS6_8key_dataEE10default_eqIS9_EEC2EjRKSA_RKSC_ = comdat any

$_ZN14core_hashtableIN7obj_mapIK9func_decl7svectorI6symboljEE13obj_map_entryE8obj_hashINS6_8key_dataEE10default_eqIS9_EE11alloc_tableEj = comdat any

$_Z10alloc_vectIN7obj_mapIK9func_decl7svectorI6symboljEE13obj_map_entryEEPT_j = comdat any

$_ZN7obj_mapIK9func_decl7svectorI6symboljEE13obj_map_entryC2Ev = comdat any

$_ZN7obj_mapIK9func_decl7svectorI6symboljEE8key_dataC2Ev = comdat any

$_ZN3refI15proof_converterE7dec_refEv = comdat any

$_Z7deallocIN7datalog11engine_baseEEvPT_ = comdat any

$_ZN9fp_paramsD2Ev = comdat any

$_ZN14core_hashtableIN7obj_mapIK9func_decl7svectorI6symboljEE13obj_map_entryE8obj_hashINS6_8key_dataEE10default_eqIS9_EE5resetEv = comdat any

$_ZNK7obj_mapIK9func_decl7svectorI6symboljEE13obj_map_entry7is_freeEv = comdat any

$_ZN7obj_mapIK9func_decl7svectorI6symboljEE13obj_map_entry12mark_as_freeEv = comdat any

$_ZN14obj_hash_entryI9func_declE12mark_as_freeEv = comdat any

$_ZN14core_hashtableI17default_map_entryI6symbolP9func_declEN9table2mapIS4_16symbol_hash_proc14symbol_eq_procE15entry_hash_procENS8_13entry_eq_procEE5resetEv = comdat any

$_ZNK18default_hash_entryI9_key_dataI6symbolP9func_declEE7is_freeEv = comdat any

$_ZN18default_hash_entryI9_key_dataI6symbolP9func_declEE12mark_as_freeEv = comdat any

$_ZNK7obj_mapIK4sortPN7datalog7context11sort_domainEE5beginEv = comdat any

$_ZNK7obj_mapIK4sortPN7datalog7context11sort_domainEE3endEv = comdat any

$_ZNK14core_hashtableIN7obj_mapIK4sortPN7datalog7context11sort_domainEE13obj_map_entryE8obj_hashINS7_8key_dataEE10default_eqISA_EE8iteratorneERKSF_ = comdat any

$_ZN14core_hashtableIN7obj_mapIK4sortPN7datalog7context11sort_domainEE13obj_map_entryE8obj_hashINS7_8key_dataEE10default_eqISA_EE8iteratordeEv = comdat any

$_Z7deallocIN7datalog7context11sort_domainEEvPT_ = comdat any

$_ZN14core_hashtableIN7obj_mapIK4sortPN7datalog7context11sort_domainEE13obj_map_entryE8obj_hashINS7_8key_dataEE10default_eqISA_EE8iteratorppEv = comdat any

$_ZN7obj_mapIK4sortPN7datalog7context11sort_domainEE5resetEv = comdat any

$_ZNK14core_hashtableIN7obj_mapIK4sortPN7datalog7context11sort_domainEE13obj_map_entryE8obj_hashINS7_8key_dataEE10default_eqISA_EE5beginEv = comdat any

$_ZN14core_hashtableIN7obj_mapIK4sortPN7datalog7context11sort_domainEE13obj_map_entryE8obj_hashINS7_8key_dataEE10default_eqISA_EE8iteratorC2EPS8_SG_ = comdat any

$_ZN14core_hashtableIN7obj_mapIK4sortPN7datalog7context11sort_domainEE13obj_map_entryE8obj_hashINS7_8key_dataEE10default_eqISA_EE8iterator12move_to_usedEv = comdat any

$_ZNK7obj_mapIK4sortPN7datalog7context11sort_domainEE13obj_map_entry7is_usedEv = comdat any

$_ZNK14core_hashtableIN7obj_mapIK4sortPN7datalog7context11sort_domainEE13obj_map_entryE8obj_hashINS7_8key_dataEE10default_eqISA_EE3endEv = comdat any

$_ZN7obj_mapIK4sortPN7datalog7context11sort_domainEE13obj_map_entry8get_dataEv = comdat any

$_ZN14core_hashtableIN7obj_mapIK4sortPN7datalog7context11sort_domainEE13obj_map_entryE8obj_hashINS7_8key_dataEE10default_eqISA_EE5resetEv = comdat any

$_ZNK7obj_mapIK4sortPN7datalog7context11sort_domainEE13obj_map_entry7is_freeEv = comdat any

$_ZN7obj_mapIK4sortPN7datalog7context11sort_domainEE13obj_map_entry12mark_as_freeEv = comdat any

$_ZNK7obj_mapIK4sortPN7datalog7context11sort_domainEE9find_coreEPS1_ = comdat any

$_ZNK14core_hashtableIN7obj_mapIK4sortPN7datalog7context11sort_domainEE13obj_map_entryE8obj_hashINS7_8key_dataEE10default_eqISA_EE9find_coreERKSA_ = comdat any

$_ZN7obj_mapIK4sortPN7datalog7context11sort_domainEE8key_dataC2EPS1_ = comdat any

$_ZNK14core_hashtableIN7obj_mapIK4sortPN7datalog7context11sort_domainEE13obj_map_entryE8obj_hashINS7_8key_dataEE10default_eqISA_EE8get_hashERKSA_ = comdat any

$_ZNK7obj_mapIK4sortPN7datalog7context11sort_domainEE13obj_map_entry8get_hashEv = comdat any

$_ZNK14core_hashtableIN7obj_mapIK4sortPN7datalog7context11sort_domainEE13obj_map_entryE8obj_hashINS7_8key_dataEE10default_eqISA_EE6equalsERKSA_SG_ = comdat any

$_ZNK8obj_hashIN7obj_mapIK4sortPN7datalog7context11sort_domainEE8key_dataEEclERKS8_ = comdat any

$_ZNK7obj_mapIK4sortPN7datalog7context11sort_domainEE8key_data4hashEv = comdat any

$_ZNK10default_eqIN7obj_mapIK4sortPN7datalog7context11sort_domainEE8key_dataEEclERKS8_SB_ = comdat any

$_ZNK7obj_mapIK4sortPN7datalog7context11sort_domainEE8key_dataeqERKS7_ = comdat any

$_ZN14core_hashtableIN7obj_mapIK4sortPN7datalog7context11sort_domainEE13obj_map_entryE8obj_hashINS7_8key_dataEE10default_eqISA_EE6insertEOSA_ = comdat any

$_ZN7obj_mapIK4sortPN7datalog7context11sort_domainEE8key_dataC2EPS1_RKS5_ = comdat any

$_ZN14core_hashtableIN7obj_mapIK4sortPN7datalog7context11sort_domainEE13obj_map_entryE8obj_hashINS7_8key_dataEE10default_eqISA_EE12expand_tableEv = comdat any

$_ZN7obj_mapIK4sortPN7datalog7context11sort_domainEE13obj_map_entry8set_dataEONS6_8key_dataE = comdat any

$_ZN7obj_mapIK4sortPN7datalog7context11sort_domainEE13obj_map_entry8set_hashEj = comdat any

$_ZN14core_hashtableIN7obj_mapIK4sortPN7datalog7context11sort_domainEE13obj_map_entryE8obj_hashINS7_8key_dataEE10default_eqISA_EE10move_tableEPS8_jSF_j = comdat any

$_ZN14core_hashtableI17default_map_entryI6symbolP9func_declEN9table2mapIS4_16symbol_hash_proc14symbol_eq_procE15entry_hash_procENS8_13entry_eq_procEE6insertEO9_key_dataIS1_S3_E = comdat any

$_ZN9_key_dataI6symbolP9func_declEC2ERKS0_RKS2_ = comdat any

$_ZN14core_hashtableI17default_map_entryI6symbolP9func_declEN9table2mapIS4_16symbol_hash_proc14symbol_eq_procE15entry_hash_procENS8_13entry_eq_procEE12expand_tableEv = comdat any

$_ZNK14core_hashtableI17default_map_entryI6symbolP9func_declEN9table2mapIS4_16symbol_hash_proc14symbol_eq_procE15entry_hash_procENS8_13entry_eq_procEE8get_hashERK9_key_dataIS1_S3_E = comdat any

$_ZNK18default_hash_entryI9_key_dataI6symbolP9func_declEE7is_usedEv = comdat any

$_ZNK18default_hash_entryI9_key_dataI6symbolP9func_declEE8get_hashEv = comdat any

$_ZNK14core_hashtableI17default_map_entryI6symbolP9func_declEN9table2mapIS4_16symbol_hash_proc14symbol_eq_procE15entry_hash_procENS8_13entry_eq_procEE6equalsERK9_key_dataIS1_S3_ESF_ = comdat any

$_ZN18default_hash_entryI9_key_dataI6symbolP9func_declEE8get_dataEv = comdat any

$_ZN18default_hash_entryI9_key_dataI6symbolP9func_declEE8set_dataEOS4_ = comdat any

$_ZN18default_hash_entryI9_key_dataI6symbolP9func_declEE8set_hashEj = comdat any

$_ZN14core_hashtableI17default_map_entryI6symbolP9func_declEN9table2mapIS4_16symbol_hash_proc14symbol_eq_procE15entry_hash_procENS8_13entry_eq_procEE10move_tableEPS4_jSC_j = comdat any

$_ZNK9table2mapI17default_map_entryI6symbolP9func_declE16symbol_hash_proc14symbol_eq_procE15entry_hash_procclERK9_key_dataIS1_S3_E = comdat any

$_ZNK9table2mapI17default_map_entryI6symbolP9func_declE16symbol_hash_proc14symbol_eq_procE13entry_eq_procclERK9_key_dataIS1_S3_ESC_ = comdat any

$_ZN14core_hashtableIN7obj_mapIK9func_decl7svectorI6symboljEE13obj_map_entryE8obj_hashINS6_8key_dataEE10default_eqIS9_EE6insertEOS9_ = comdat any

$_ZN7obj_mapIK9func_decl7svectorI6symboljEE8key_dataC2EPS1_RKS4_ = comdat any

$_ZN14core_hashtableIN7obj_mapIK9func_decl7svectorI6symboljEE13obj_map_entryE8obj_hashINS6_8key_dataEE10default_eqIS9_EE12expand_tableEv = comdat any

$_ZNK14core_hashtableIN7obj_mapIK9func_decl7svectorI6symboljEE13obj_map_entryE8obj_hashINS6_8key_dataEE10default_eqIS9_EE8get_hashERKS9_ = comdat any

$_ZNK7obj_mapIK9func_decl7svectorI6symboljEE13obj_map_entry7is_usedEv = comdat any

$_ZNK7obj_mapIK9func_decl7svectorI6symboljEE13obj_map_entry8get_hashEv = comdat any

$_ZNK14core_hashtableIN7obj_mapIK9func_decl7svectorI6symboljEE13obj_map_entryE8obj_hashINS6_8key_dataEE10default_eqIS9_EE6equalsERKS9_SF_ = comdat any

$_ZN7obj_mapIK9func_decl7svectorI6symboljEE13obj_map_entry8set_dataEONS5_8key_dataE = comdat any

$_ZN7obj_mapIK9func_decl7svectorI6symboljEE13obj_map_entry8set_hashEj = comdat any

$_ZN14core_hashtableIN7obj_mapIK9func_decl7svectorI6symboljEE13obj_map_entryE8obj_hashINS6_8key_dataEE10default_eqIS9_EE10move_tableEPS7_jSE_j = comdat any

$_ZN7obj_mapIK9func_decl7svectorI6symboljEE13obj_map_entryaSEOS6_ = comdat any

$_ZN7obj_mapIK9func_decl7svectorI6symboljEE8key_dataaSEOS6_ = comdat any

$_ZN7svectorI6symboljEaSEOS1_ = comdat any

$_ZN6vectorI6symbolLb0EjEaSEOS1_ = comdat any

$_ZSt4swapIP6symbolENSt9enable_ifIXsr6__and_ISt6__not_ISt15__is_tuple_likeIT_EESt21is_move_constructibleIS5_ESt18is_move_assignableIS5_EEE5valueEvE4typeERS5_SE_ = comdat any

$_ZNK8obj_hashIN7obj_mapIK9func_decl7svectorI6symboljEE8key_dataEEclERKS7_ = comdat any

$_ZNK7obj_mapIK9func_decl7svectorI6symboljEE8key_data4hashEv = comdat any

$_ZNK10default_eqIN7obj_mapIK9func_decl7svectorI6symboljEE8key_dataEEclERKS7_SA_ = comdat any

$_ZNK7obj_mapIK9func_decl7svectorI6symboljEE8key_dataeqERKS6_ = comdat any

$_ZN7svectorI6symboljEC2ERKS1_ = comdat any

$_ZN6vectorI6symbolLb0EjEC2ERKS1_ = comdat any

$_ZN6vectorI6symbolLb0EjE9copy_coreERKS1_ = comdat any

$_ZNK6vectorI6symbolLb0EjE8capacityEv = comdat any

$_ZSt18uninitialized_copyIPK6symbolPS0_ET0_T_S5_S4_ = comdat any

$_ZNK6vectorI6symbolLb0EjE5beginEv = comdat any

$_ZNK6vectorI6symbolLb0EjE3endEv = comdat any

$_ZN6vectorI6symbolLb0EjE5beginEv = comdat any

$_ZNSt20__uninitialized_copyILb0EE13__uninit_copyIPK6symbolPS2_EET0_T_S7_S6_ = comdat any

$_ZSt16__do_uninit_copyIPK6symbolPS0_ET0_T_S5_S4_ = comdat any

$_ZSt10_ConstructI6symbolJRKS0_EEvPT_DpOT0_ = comdat any

$_ZSt8_DestroyIP6symbolEvT_S2_ = comdat any

$_ZNSt12_Destroy_auxILb1EE9__destroyIP6symbolEEvT_S4_ = comdat any

$_ZNK14core_hashtableIN7obj_mapIK9func_decl7svectorI6symboljEE13obj_map_entryE8obj_hashINS6_8key_dataEE10default_eqIS9_EE9find_coreERKS9_ = comdat any

$_ZN7obj_mapIK9func_decl7svectorI6symboljEE8key_dataC2EPS1_ = comdat any

$_ZN6vectorIjLb1EjE13expand_vectorEv = comdat any

$_ZN7obj_refIN7datalog4ruleENS0_12rule_managerEE7inc_refEv = comdat any

$_ZN7obj_refIN7datalog4ruleENS0_12rule_managerEE7dec_refEv = comdat any

$_Z18for_each_expr_coreIN7datalog7context16engine_type_procE13ast_fast_markILj1EELb0ELb0EEvRT_RT0_P4expr = comdat any

$_ZN13ast_fast_markILj1EE9is_markedEP3ast = comdat any

$_ZN13ast_fast_markILj1EE4markEP3ast = comdat any

$_ZN7sbufferISt4pairIP4exprjELj16EEC2Ev = comdat any

$_ZN6bufferISt4pairIP4exprjELb0ELj16EE9push_backEOS3_ = comdat any

$_ZNSt4pairIP4exprjEC2IRS1_iTnNSt9enable_ifIXaaclsr5_PCCPE22_MoveConstructiblePairIT_T0_EEclsr5_PCCPE30_ImplicitlyMoveConvertiblePairIS6_S7_EEEbE4typeELb1EEEOS6_OS7_ = comdat any

$_ZNK6bufferISt4pairIP4exprjELb0ELj16EE5emptyEv = comdat any

$_ZN6bufferISt4pairIP4exprjELb0ELj16EE4backEv = comdat any

$_ZN7datalog7context16engine_type_procclEP4expr = comdat any

$_ZN6bufferISt4pairIP4exprjELb0ELj16EE8pop_backEv = comdat any

$_ZNK10quantifier16get_num_childrenEv = comdat any

$_ZNK10quantifier9get_childEj = comdat any

$_ZN7sbufferISt4pairIP4exprjELj16EED2Ev = comdat any

$_ZNK3ast10is_marked1Ev = comdat any

$_ZN3ast5mark1Eb = comdat any

$_ZN6bufferIP3astLb0ELj16EE9push_backERKS1_ = comdat any

$_ZN6bufferIP3astLb0ELj16EE6expandEv = comdat any

$_ZN6bufferISt4pairIP4exprjELb0ELj16EEC2Ev = comdat any

$_ZN6bufferISt4pairIP4exprjELb0ELj16EE6expandEv = comdat any

$_ZN6bufferISt4pairIP4exprjELb0ELj16EE11free_memoryEv = comdat any

$_Z13dealloc_svectISt4pairIP4exprjEEvPT_ = comdat any

$_ZNK17arith_recognizers11is_int_realEPK4expr = comdat any

$_ZNK8datatype4util11is_datatypeEPK4sort = comdat any

$_ZN7datalog7context16engine_type_proc11is_large_bvEP4sort = comdat any

$_ZNK17array_recognizers8is_arrayEP4expr = comdat any

$_ZNK17arith_recognizers11is_int_realEPK4sort = comdat any

$_ZNK17array_recognizers8is_arrayEP4sort = comdat any

$_ZNK10quantifier16get_num_patternsEv = comdat any

$_ZNK10quantifier19get_num_no_patternsEv = comdat any

$_ZNK10quantifier11get_patternEj = comdat any

$_ZNK10quantifier14get_no_patternEj = comdat any

$_ZNK10quantifier12get_patternsEv = comdat any

$_ZNK10quantifier15get_no_patternsEv = comdat any

$_ZN6bufferISt4pairIP4exprjELb0ELj16EED2Ev = comdat any

$_ZN6bufferISt4pairIP4exprjELb0ELj16EE7destroyEv = comdat any

$_ZSt4swapIP4exprENSt9enable_ifIXsr6__and_ISt6__not_ISt15__is_tuple_likeIT_EESt21is_move_constructibleIS5_ESt18is_move_assignableIS5_EEE5valueEvE4typeERS5_SE_ = comdat any

$_ZN7obj_refI4expr11ast_managerE5resetEv = comdat any

$_ZN19ref_manager_wrapperIN7datalog4ruleENS0_12rule_managerEEC2ERS2_ = comdat any

$_ZN15ref_vector_coreIN7datalog4ruleE19ref_manager_wrapperIS1_NS0_12rule_managerEEEC2ERKS4_ = comdat any

$_ZN10ptr_vectorIN7datalog4ruleEEC2Ev = comdat any

$_ZN6vectorIPN7datalog4ruleELb0EjEC2Ev = comdat any

$_ZNK6vectorIPN7datalog4ruleELb0EjE5beginEv = comdat any

$_ZNK6vectorIP4exprLb0EjE4backEv = comdat any

$_ZNK6vectorIP4exprLb0EjEixEj = comdat any

$_ZN6vectorIP4exprLb0EjE4backEv = comdat any

$_ZN6vectorIP4exprLb0EjE8pop_backEv = comdat any

$_ZN6vectorIjLb1EjE4backEv = comdat any

$_ZN14core_hashtableIN7obj_mapI4sort7svectorIjjEE13obj_map_entryE8obj_hashINS4_8key_dataEE10default_eqIS7_EEC2EjRKS8_RKSA_ = comdat any

$_ZN14core_hashtableIN7obj_mapI4sort7svectorIjjEE13obj_map_entryE8obj_hashINS4_8key_dataEE10default_eqIS7_EE11alloc_tableEj = comdat any

$_Z10alloc_vectIN7obj_mapI4sort7svectorIjjEE13obj_map_entryEEPT_j = comdat any

$_ZN7obj_mapI4sort7svectorIjjEE13obj_map_entryC2Ev = comdat any

$_ZN7obj_mapI4sort7svectorIjjEE8key_dataC2Ev = comdat any

$_ZN14core_hashtableIN7obj_mapI4sortjE13obj_map_entryE8obj_hashINS2_8key_dataEE10default_eqIS5_EEC2EjRKS6_RKS8_ = comdat any

$_ZN14core_hashtableIN7obj_mapI4sortjE13obj_map_entryE8obj_hashINS2_8key_dataEE10default_eqIS5_EE11alloc_tableEj = comdat any

$_Z10alloc_vectIN7obj_mapI4sortjE13obj_map_entryEEPT_j = comdat any

$_ZN7obj_mapI4sortjE13obj_map_entryC2Ev = comdat any

$_ZN7obj_mapI4sortjE8key_dataC2Ev = comdat any

$_ZN14core_hashtableIN7obj_mapI4sortjE13obj_map_entryE8obj_hashINS2_8key_dataEE10default_eqIS5_EE5resetEv = comdat any

$_ZNK7obj_mapI4sortjE13obj_map_entry7is_freeEv = comdat any

$_ZN7obj_mapI4sortjE13obj_map_entry12mark_as_freeEv = comdat any

$_ZNK7obj_mapI4sortjE9find_coreEPS0_ = comdat any

$_ZN7obj_mapI4sortjE13obj_map_entry8get_dataEv = comdat any

$_ZNK14core_hashtableIN7obj_mapI4sortjE13obj_map_entryE8obj_hashINS2_8key_dataEE10default_eqIS5_EE9find_coreERKS5_ = comdat any

$_ZN7obj_mapI4sortjE8key_dataC2EPS0_ = comdat any

$_ZNK14core_hashtableIN7obj_mapI4sortjE13obj_map_entryE8obj_hashINS2_8key_dataEE10default_eqIS5_EE8get_hashERKS5_ = comdat any

$_ZNK7obj_mapI4sortjE13obj_map_entry7is_usedEv = comdat any

$_ZNK7obj_mapI4sortjE13obj_map_entry8get_hashEv = comdat any

$_ZNK14core_hashtableIN7obj_mapI4sortjE13obj_map_entryE8obj_hashINS2_8key_dataEE10default_eqIS5_EE6equalsERKS5_SB_ = comdat any

$_ZNK8obj_hashIN7obj_mapI4sortjE8key_dataEEclERKS3_ = comdat any

$_ZNK7obj_mapI4sortjE8key_data4hashEv = comdat any

$_ZNK10default_eqIN7obj_mapI4sortjE8key_dataEEclERKS3_S6_ = comdat any

$_ZNK7obj_mapI4sortjE8key_dataeqERKS2_ = comdat any

$_ZN14core_hashtableIN7obj_mapI4sortjE13obj_map_entryE8obj_hashINS2_8key_dataEE10default_eqIS5_EE6insertEOS5_ = comdat any

$_ZN7obj_mapI4sortjE8key_dataC2EPS0_RKj = comdat any

$_ZN14core_hashtableIN7obj_mapI4sortjE13obj_map_entryE8obj_hashINS2_8key_dataEE10default_eqIS5_EE12expand_tableEv = comdat any

$_ZN7obj_mapI4sortjE13obj_map_entry8set_dataEONS1_8key_dataE = comdat any

$_ZN7obj_mapI4sortjE13obj_map_entry8set_hashEj = comdat any

$_ZN14core_hashtableIN7obj_mapI4sortjE13obj_map_entryE8obj_hashINS2_8key_dataEE10default_eqIS5_EE10move_tableEPS3_jSA_j = comdat any

$_ZN14core_hashtableIN7obj_mapI4sort7svectorIjjEE13obj_map_entryE8obj_hashINS4_8key_dataEE10default_eqIS7_EE20insert_if_not_there2ERKS7_ = comdat any

$_ZN7obj_mapI4sort7svectorIjjEE8key_dataC2EPS0_RKS2_ = comdat any

$_ZN7obj_mapI4sort7svectorIjjEE13obj_map_entry8get_dataEv = comdat any

$_ZN14core_hashtableIN7obj_mapI4sort7svectorIjjEE13obj_map_entryE8obj_hashINS4_8key_dataEE10default_eqIS7_EE24insert_if_not_there_coreERKS7_RPS5_ = comdat any

$_ZN7obj_mapI4sort7svectorIjjEE8key_dataC2ERKS4_ = comdat any

$_ZN14core_hashtableIN7obj_mapI4sort7svectorIjjEE13obj_map_entryE8obj_hashINS4_8key_dataEE10default_eqIS7_EE24insert_if_not_there_coreEOS7_RPS5_ = comdat any

$_ZN7svectorIjjEC2ERKS0_ = comdat any

$_ZN6vectorIjLb0EjEC2ERKS0_ = comdat any

$_ZN6vectorIjLb0EjE9copy_coreERKS0_ = comdat any

$_ZNK6vectorIjLb0EjE8capacityEv = comdat any

$_ZSt18uninitialized_copyIPKjPjET0_T_S4_S3_ = comdat any

$_ZNK6vectorIjLb0EjE5beginEv = comdat any

$_ZNK6vectorIjLb0EjE3endEv = comdat any

$_ZN6vectorIjLb0EjE5beginEv = comdat any

$_ZNSt20__uninitialized_copyILb1EE13__uninit_copyIPKjPjEET0_T_S6_S5_ = comdat any

$_ZSt4copyIPKjPjET0_T_S4_S3_ = comdat any

$_ZSt13__copy_move_aILb0EPKjPjET1_T0_S4_S3_ = comdat any

$_ZSt12__miter_baseIPKjET_S2_ = comdat any

$_ZSt12__niter_wrapIPjET_RKS1_S1_ = comdat any

$_ZSt14__copy_move_a1ILb0EPKjPjET1_T0_S4_S3_ = comdat any

$_ZSt12__niter_baseIPKjET_S2_ = comdat any

$_ZSt12__niter_baseIPjET_S1_ = comdat any

$_ZSt14__copy_move_a2ILb0EPKjPjET1_T0_S4_S3_ = comdat any

$_ZNSt11__copy_moveILb0ELb1ESt26random_access_iterator_tagE8__copy_mIjEEPT_PKS3_S6_S4_ = comdat any

$_ZN14core_hashtableIN7obj_mapI4sort7svectorIjjEE13obj_map_entryE8obj_hashINS4_8key_dataEE10default_eqIS7_EE12expand_tableEv = comdat any

$_ZNK14core_hashtableIN7obj_mapI4sort7svectorIjjEE13obj_map_entryE8obj_hashINS4_8key_dataEE10default_eqIS7_EE8get_hashERKS7_ = comdat any

$_ZNK7obj_mapI4sort7svectorIjjEE13obj_map_entry7is_usedEv = comdat any

$_ZNK7obj_mapI4sort7svectorIjjEE13obj_map_entry8get_hashEv = comdat any

$_ZNK14core_hashtableIN7obj_mapI4sort7svectorIjjEE13obj_map_entryE8obj_hashINS4_8key_dataEE10default_eqIS7_EE6equalsERKS7_SD_ = comdat any

$_ZNK7obj_mapI4sort7svectorIjjEE13obj_map_entry7is_freeEv = comdat any

$_ZN7obj_mapI4sort7svectorIjjEE13obj_map_entry8set_dataEONS3_8key_dataE = comdat any

$_ZN7obj_mapI4sort7svectorIjjEE13obj_map_entry8set_hashEj = comdat any

$_ZN14core_hashtableIN7obj_mapI4sort7svectorIjjEE13obj_map_entryE8obj_hashINS4_8key_dataEE10default_eqIS7_EE10move_tableEPS5_jSC_j = comdat any

$_ZN7obj_mapI4sort7svectorIjjEE13obj_map_entryaSEOS4_ = comdat any

$_ZN7obj_mapI4sort7svectorIjjEE8key_dataaSEOS4_ = comdat any

$_ZN7svectorIjjEaSEOS0_ = comdat any

$_ZN6vectorIjLb0EjEaSEOS0_ = comdat any

$_ZSt4swapIPjENSt9enable_ifIXsr6__and_ISt6__not_ISt15__is_tuple_likeIT_EESt21is_move_constructibleIS4_ESt18is_move_assignableIS4_EEE5valueEvE4typeERS4_SD_ = comdat any

$_ZNK8obj_hashIN7obj_mapI4sort7svectorIjjEE8key_dataEEclERKS5_ = comdat any

$_ZNK7obj_mapI4sort7svectorIjjEE8key_data4hashEv = comdat any

$_ZNK10default_eqIN7obj_mapI4sort7svectorIjjEE8key_dataEEclERKS5_S8_ = comdat any

$_ZNK7obj_mapI4sort7svectorIjjEE8key_dataeqERKS4_ = comdat any

$_ZTSN7datalog11engine_baseE = comdat any

$_ZTIN7datalog11engine_baseE = comdat any

$_ZTSN7datalog16rel_context_baseE = comdat any

$_ZTIN7datalog16rel_context_baseE = comdat any

$_ZTVN7datalog7context13restore_rulesE = comdat any

$_ZTSN7datalog7context13restore_rulesE = comdat any

$_ZTS5trail = comdat any

$_ZTI5trail = comdat any

$_ZTIN7datalog7context13restore_rulesE = comdat any

$_ZTV5trail = comdat any

$_ZTV12beta_reducer = comdat any

$_ZTS12beta_reducer = comdat any

$_ZTS12rewriter_tplI16beta_reducer_cfgE = comdat any

$_ZTI12rewriter_tplI16beta_reducer_cfgE = comdat any

$_ZTI12beta_reducer = comdat any

$_ZTV12rewriter_tplI16beta_reducer_cfgE = comdat any

$_ZTVN7datalog7context13contains_predE = comdat any

$_ZTSN7datalog7context13contains_predE = comdat any

$_ZTS11i_expr_pred = comdat any

$_ZTI11i_expr_pred = comdat any

$_ZTIN7datalog7context13contains_predE = comdat any

$_ZTV11i_expr_pred = comdat any

$_ZTVN7datalog7context18symbol_sort_domainE = comdat any

$_ZTSN7datalog7context18symbol_sort_domainE = comdat any

$_ZTSN7datalog7context11sort_domainE = comdat any

$_ZTIN7datalog7context11sort_domainE = comdat any

$_ZTIN7datalog7context18symbol_sort_domainE = comdat any

$_ZTVN7datalog7context11sort_domainE = comdat any

$_ZTVN7datalog7context18uint64_sort_domainE = comdat any

$_ZTSN7datalog7context18uint64_sort_domainE = comdat any

$_ZTIN7datalog7context18uint64_sort_domainE = comdat any

$_ZTV23smt2_pp_environment_dbg = comdat any

$_ZTS23smt2_pp_environment_dbg = comdat any

$_ZTI23smt2_pp_environment_dbg = comdat any

$_ZTVN7datalog22restore_vec_size_trailINS_7contextE10ref_vectorI4expr11ast_managerEEE = comdat any

$_ZTSN7datalog22restore_vec_size_trailINS_7contextE10ref_vectorI4expr11ast_managerEEE = comdat any

$_ZTIN7datalog22restore_vec_size_trailINS_7contextE10ref_vectorI4expr11ast_managerEEE = comdat any

@_ZStL8__ioinit = internal global %"class.std::ios_base::Init" zeroinitializer, align 1
@__dso_handle = external hidden global i8
@.str = private unnamed_addr constant [43 x i8] c"there are no backtracking points to pop to\00", align 1
@_ZTI17default_exception = external constant ptr
@.str.1 = private unnamed_addr constant [31 x i8] c"pop operation is not supported\00", align 1
@.str.2 = private unnamed_addr constant [111 x i8] c"generated/home/dtcxzyw/WorkSpace/Projects/compilers/llvm-opt-benchmark/bench/z3/z3/src/muz/base/dl_context.cpp\00", align 1
@.str.3 = private unnamed_addr constant [29 x i8] c"UNEXPECTED CODE WAS REACHED.\00", align 1
@.str.4 = private unnamed_addr constant [6 x i8] c"Rule \00", align 1
@.str.5 = private unnamed_addr constant [47 x i8] c" has a non-trivial body. It cannot be modified\00", align 1
@.str.6 = private unnamed_addr constant [37 x i8] c" occurs twice. It cannot be modified\00", align 1
@.str.7 = private unnamed_addr constant [10 x i8] c"Old rule \00", align 1
@.str.8 = private unnamed_addr constant [27 x i8] c"does not subsume new rule \00", align 1
@_ZN6symbol4nullE = external global %class.symbol, align 8
@.str.9 = private unnamed_addr constant [11 x i8] c"Predicate \00", align 1
@.str.10 = private unnamed_addr constant [45 x i8] c" when used for facts should be uninterpreted\00", align 1
@.str.11 = private unnamed_addr constant [42 x i8] c"mismatched number of arguments passed to \00", align 1
@.str.12 = private unnamed_addr constant [2 x i8] c" \00", align 1
@.str.13 = private unnamed_addr constant [8 x i8] c" passed\00", align 1
@.str.14 = private unnamed_addr constant [28 x i8] c"Negation is not stratified!\00", align 1
@.str.15 = private unnamed_addr constant [8 x i8] c"datalog\00", align 1
@.str.16 = private unnamed_addr constant [7 x i8] c"spacer\00", align 1
@.str.17 = private unnamed_addr constant [4 x i8] c"bmc\00", align 1
@.str.18 = private unnamed_addr constant [5 x i8] c"qbmc\00", align 1
@.str.19 = private unnamed_addr constant [4 x i8] c"tab\00", align 1
@.str.20 = private unnamed_addr constant [4 x i8] c"clp\00", align 1
@.str.21 = private unnamed_addr constant [5 x i8] c"ddnf\00", align 1
@.str.22 = private unnamed_addr constant [12 x i8] c"auto-config\00", align 1
@.str.23 = private unnamed_addr constant [32 x i8] c"unsupported datalog engine type\00", align 1
@_ZSt4cout = external global %"class.std::basic_ostream", align 8
@.str.24 = private unnamed_addr constant [2 x i8] c"\0A\00", align 1
@_ZTVN10__cxxabiv117__class_type_infoE = external global [0 x ptr]
@_ZTSN7datalog11engine_baseE = linkonce_odr hidden constant [24 x i8] c"N7datalog11engine_baseE\00", comdat, align 1
@_ZTIN7datalog11engine_baseE = linkonce_odr hidden constant { ptr, ptr } { ptr getelementptr inbounds (ptr, ptr @_ZTVN10__cxxabiv117__class_type_infoE, i64 2), ptr @_ZTSN7datalog11engine_baseE }, comdat, align 8
@_ZTVN10__cxxabiv120__si_class_type_infoE = external global [0 x ptr]
@_ZTSN7datalog16rel_context_baseE = linkonce_odr hidden constant [29 x i8] c"N7datalog16rel_context_baseE\00", comdat, align 1
@_ZTIN7datalog16rel_context_baseE = linkonce_odr hidden constant { ptr, ptr, ptr } { ptr getelementptr inbounds (ptr, ptr @_ZTVN10__cxxabiv120__si_class_type_infoE, i64 2), ptr @_ZTSN7datalog16rel_context_baseE, ptr @_ZTIN7datalog11engine_baseE }, comdat, align 8
@.str.25 = private unnamed_addr constant [18 x i8] c"\0A---------------\0A\00", align 1
@.str.26 = private unnamed_addr constant [16 x i8] c"Original rules\0A\00", align 1
@.str.27 = private unnamed_addr constant [19 x i8] c"Transformed rules\0A\00", align 1
@.str.28 = private unnamed_addr constant [18 x i8] c"(set-logic HORN)\0A\00", align 1
@.str.29 = private unnamed_addr constant [59 x i8] c"Background axioms cannot be used with SMT-LIB2 HORN format\00", align 1
@.str.30 = private unnamed_addr constant [9 x i8] c"(assert \00", align 1
@.str.31 = private unnamed_addr constant [3 x i8] c")\0A\00", align 1
@.str.32 = private unnamed_addr constant [7 x i8] c"(rule \00", align 1
@.str.33 = private unnamed_addr constant [4 x i8] c"(! \00", align 1
@.str.34 = private unnamed_addr constant [9 x i8] c" :named \00", align 1
@.str.35 = private unnamed_addr constant [2 x i8] c"q\00", align 1
@.str.36 = private unnamed_addr constant [1 x i8] zeroinitializer, align 1
@.str.37 = private unnamed_addr constant [8 x i8] c"(query \00", align 1
@.str.38 = private unnamed_addr constant [10 x i8] c"(push 1)\0A\00", align 1
@.str.39 = private unnamed_addr constant [13 x i8] c"(check-sat)\0A\00", align 1
@.str.40 = private unnamed_addr constant [9 x i8] c"(pop 1)\0A\00", align 1
@.str.41 = private unnamed_addr constant [14 x i8] c"(declare-rel \00", align 1
@.str.42 = private unnamed_addr constant [3 x i8] c" (\00", align 1
@.str.43 = private unnamed_addr constant [4 x i8] c"))\0A\00", align 1
@.str.44 = private unnamed_addr constant [14 x i8] c"(declare-var \00", align 1
@_ZTVN7datalog7context13restore_rulesE = linkonce_odr hidden unnamed_addr constant { [5 x ptr] } { [5 x ptr] [ptr null, ptr @_ZTIN7datalog7context13restore_rulesE, ptr @_ZN7datalog7context13restore_rulesD2Ev, ptr @_ZN7datalog7context13restore_rulesD0Ev, ptr @_ZN7datalog7context13restore_rules4undoEv] }, comdat, align 8
@_ZTSN7datalog7context13restore_rulesE = linkonce_odr hidden constant [34 x i8] c"N7datalog7context13restore_rulesE\00", comdat, align 1
@_ZTS5trail = linkonce_odr hidden constant [7 x i8] c"5trail\00", comdat, align 1
@_ZTI5trail = linkonce_odr hidden constant { ptr, ptr } { ptr getelementptr inbounds (ptr, ptr @_ZTVN10__cxxabiv117__class_type_infoE, i64 2), ptr @_ZTS5trail }, comdat, align 8
@_ZTIN7datalog7context13restore_rulesE = linkonce_odr hidden constant { ptr, ptr, ptr } { ptr getelementptr inbounds (ptr, ptr @_ZTVN10__cxxabiv120__si_class_type_infoE, i64 2), ptr @_ZTSN7datalog7context13restore_rulesE, ptr @_ZTI5trail }, comdat, align 8
@_ZTV5trail = linkonce_odr hidden unnamed_addr constant { [5 x ptr] } { [5 x ptr] [ptr null, ptr @_ZTI5trail, ptr @_ZN5trailD2Ev, ptr @_ZN5trailD0Ev, ptr @__cxa_pure_virtual] }, comdat, align 8
@_ZTV17default_exception = external unnamed_addr constant { [6 x ptr] }, align 8
@_ZTV12z3_exception = external unnamed_addr constant { [6 x ptr] }, align 8
@.str.45 = private unnamed_addr constant [3 x i8] c"fp\00", align 1
@_ZTV12beta_reducer = linkonce_odr hidden unnamed_addr constant { [4 x ptr] } { [4 x ptr] [ptr null, ptr @_ZTI12beta_reducer, ptr @_ZN12beta_reducerD2Ev, ptr @_ZN12beta_reducerD0Ev] }, comdat, align 8
@_ZTS12beta_reducer = linkonce_odr hidden constant [15 x i8] c"12beta_reducer\00", comdat, align 1
@_ZTS12rewriter_tplI16beta_reducer_cfgE = linkonce_odr hidden constant [35 x i8] c"12rewriter_tplI16beta_reducer_cfgE\00", comdat, align 1
@_ZTI13rewriter_core = external constant ptr
@_ZTI12rewriter_tplI16beta_reducer_cfgE = linkonce_odr hidden constant { ptr, ptr, ptr } { ptr getelementptr inbounds (ptr, ptr @_ZTVN10__cxxabiv120__si_class_type_infoE, i64 2), ptr @_ZTS12rewriter_tplI16beta_reducer_cfgE, ptr @_ZTI13rewriter_core }, comdat, align 8
@_ZTI12beta_reducer = linkonce_odr hidden constant { ptr, ptr, ptr } { ptr getelementptr inbounds (ptr, ptr @_ZTVN10__cxxabiv120__si_class_type_infoE, i64 2), ptr @_ZTS12beta_reducer, ptr @_ZTI12rewriter_tplI16beta_reducer_cfgE }, comdat, align 8
@_ZTV12rewriter_tplI16beta_reducer_cfgE = linkonce_odr hidden unnamed_addr constant { [4 x ptr] } { [4 x ptr] [ptr null, ptr @_ZTI12rewriter_tplI16beta_reducer_cfgE, ptr @_ZN12rewriter_tplI16beta_reducer_cfgED2Ev, ptr @_ZN12rewriter_tplI16beta_reducer_cfgED0Ev] }, comdat, align 8
@_ZTVN7datalog7context13contains_predE = linkonce_odr hidden unnamed_addr constant { [5 x ptr] } { [5 x ptr] [ptr null, ptr @_ZTIN7datalog7context13contains_predE, ptr @_ZN7datalog7context13contains_predclEP4expr, ptr @_ZN7datalog7context13contains_predD2Ev, ptr @_ZN7datalog7context13contains_predD0Ev] }, comdat, align 8
@_ZTSN7datalog7context13contains_predE = linkonce_odr hidden constant [34 x i8] c"N7datalog7context13contains_predE\00", comdat, align 1
@_ZTS11i_expr_pred = linkonce_odr hidden constant [14 x i8] c"11i_expr_pred\00", comdat, align 1
@_ZTI11i_expr_pred = linkonce_odr hidden constant { ptr, ptr } { ptr getelementptr inbounds (ptr, ptr @_ZTVN10__cxxabiv117__class_type_infoE, i64 2), ptr @_ZTS11i_expr_pred }, comdat, align 8
@_ZTIN7datalog7context13contains_predE = linkonce_odr hidden constant { ptr, ptr, ptr } { ptr getelementptr inbounds (ptr, ptr @_ZTVN10__cxxabiv120__si_class_type_infoE, i64 2), ptr @_ZTSN7datalog7context13contains_predE, ptr @_ZTI11i_expr_pred }, comdat, align 8
@_ZTV11i_expr_pred = linkonce_odr hidden unnamed_addr constant { [5 x ptr] } { [5 x ptr] [ptr null, ptr @_ZTI11i_expr_pred, ptr @__cxa_pure_virtual, ptr @_ZN11i_expr_predD2Ev, ptr @_ZN11i_expr_predD0Ev] }, comdat, align 8
@.str.46 = private unnamed_addr constant [23 x i8] c"datalog.output_profile\00", align 1
@.str.47 = private unnamed_addr constant [21 x i8] c"datalog.print.tuples\00", align 1
@.str.48 = private unnamed_addr constant [22 x i8] c"datalog.use_map_names\00", align 1
@.str.49 = private unnamed_addr constant [23 x i8] c"xform.fix_unbound_vars\00", align 1
@.str.50 = private unnamed_addr constant [22 x i8] c"datalog.default_table\00", align 1
@.str.51 = private unnamed_addr constant [7 x i8] c"sparse\00", align 1
@.str.52 = private unnamed_addr constant [10 x i8] c"print_aig\00", align 1
@.str.53 = private unnamed_addr constant [23 x i8] c"datalog.check_relation\00", align 1
@.str.54 = private unnamed_addr constant [5 x i8] c"null\00", align 1
@.str.55 = private unnamed_addr constant [30 x i8] c"datalog.default_table_checker\00", align 1
@.str.56 = private unnamed_addr constant [30 x i8] c"datalog.default_table_checked\00", align 1
@.str.57 = private unnamed_addr constant [44 x i8] c"datalog.dbg_fpr_nonempty_relation_signature\00", align 1
@.str.58 = private unnamed_addr constant [37 x i8] c"datalog.profile_timeout_milliseconds\00", align 1
@.str.59 = private unnamed_addr constant [30 x i8] c"datalog.all_or_nothing_deltas\00", align 1
@.str.60 = private unnamed_addr constant [30 x i8] c"datalog.compile_with_widening\00", align 1
@.str.61 = private unnamed_addr constant [16 x i8] c"datalog.timeout\00", align 1
@.str.62 = private unnamed_addr constant [30 x i8] c"datalog.similarity_compressor\00", align 1
@.str.63 = private unnamed_addr constant [40 x i8] c"datalog.similarity_compressor_threshold\00", align 1
@.str.64 = private unnamed_addr constant [32 x i8] c"datalog.initial_restart_timeout\00", align 1
@.str.65 = private unnamed_addr constant [30 x i8] c"datalog.generate_explanations\00", align 1
@.str.66 = private unnamed_addr constant [39 x i8] c"datalog.explanations_on_relation_level\00", align 1
@.str.67 = private unnamed_addr constant [31 x i8] c"datalog.magic_sets_for_queries\00", align 1
@.str.68 = private unnamed_addr constant [14 x i8] c"tab.selection\00", align 1
@.str.69 = private unnamed_addr constant [7 x i8] c"weight\00", align 1
@.str.70 = private unnamed_addr constant [10 x i8] c"xform.coi\00", align 1
@.str.71 = private unnamed_addr constant [12 x i8] c"xform.slice\00", align 1
@.str.72 = private unnamed_addr constant [16 x i8] c"xform.bit_blast\00", align 1
@.str.73 = private unnamed_addr constant [12 x i8] c"xform.scale\00", align 1
@.str.74 = private unnamed_addr constant [12 x i8] c"xform.magic\00", align 1
@.str.75 = private unnamed_addr constant [23 x i8] c"xform.compress_unbound\00", align 1
@.str.76 = private unnamed_addr constant [22 x i8] c"xform.quantify_arrays\00", align 1
@.str.77 = private unnamed_addr constant [30 x i8] c"xform.instantiate_quantifiers\00", align 1
@.str.78 = private unnamed_addr constant [18 x i8] c"xform.array_blast\00", align 1
@.str.79 = private unnamed_addr constant [23 x i8] c"xform.array_blast_full\00", align 1
@.str.80 = private unnamed_addr constant [20 x i8] c"xform.elim_term_ite\00", align 1
@.str.81 = private unnamed_addr constant [30 x i8] c"xform.elim_term_ite.inflation\00", align 1
@_ZTVN7datalog7context18symbol_sort_domainE = linkonce_odr hidden unnamed_addr constant { [6 x ptr] } { [6 x ptr] [ptr null, ptr @_ZTIN7datalog7context18symbol_sort_domainE, ptr @_ZN7datalog7context18symbol_sort_domainD2Ev, ptr @_ZN7datalog7context18symbol_sort_domainD0Ev, ptr @_ZNK7datalog7context18symbol_sort_domain18get_constant_countEv, ptr @_ZN7datalog7context18symbol_sort_domain13print_elementEjRSo] }, comdat, align 8
@_ZTSN7datalog7context18symbol_sort_domainE = linkonce_odr hidden constant [39 x i8] c"N7datalog7context18symbol_sort_domainE\00", comdat, align 1
@_ZTSN7datalog7context11sort_domainE = linkonce_odr hidden constant [32 x i8] c"N7datalog7context11sort_domainE\00", comdat, align 1
@_ZTIN7datalog7context11sort_domainE = linkonce_odr hidden constant { ptr, ptr } { ptr getelementptr inbounds (ptr, ptr @_ZTVN10__cxxabiv117__class_type_infoE, i64 2), ptr @_ZTSN7datalog7context11sort_domainE }, comdat, align 8
@_ZTIN7datalog7context18symbol_sort_domainE = linkonce_odr hidden constant { ptr, ptr, ptr } { ptr getelementptr inbounds (ptr, ptr @_ZTVN10__cxxabiv120__si_class_type_infoE, i64 2), ptr @_ZTSN7datalog7context18symbol_sort_domainE, ptr @_ZTIN7datalog7context11sort_domainE }, comdat, align 8
@_ZTVN7datalog7context11sort_domainE = linkonce_odr hidden unnamed_addr constant { [6 x ptr] } { [6 x ptr] [ptr null, ptr @_ZTIN7datalog7context11sort_domainE, ptr @_ZN7datalog7context11sort_domainD2Ev, ptr @_ZN7datalog7context11sort_domainD0Ev, ptr @__cxa_pure_virtual, ptr @__cxa_pure_virtual] }, comdat, align 8
@_ZTVN7datalog7context18uint64_sort_domainE = linkonce_odr hidden unnamed_addr constant { [6 x ptr] } { [6 x ptr] [ptr null, ptr @_ZTIN7datalog7context18uint64_sort_domainE, ptr @_ZN7datalog7context18uint64_sort_domainD2Ev, ptr @_ZN7datalog7context18uint64_sort_domainD0Ev, ptr @_ZNK7datalog7context18uint64_sort_domain18get_constant_countEv, ptr @_ZN7datalog7context18uint64_sort_domain13print_elementEjRSo] }, comdat, align 8
@_ZTSN7datalog7context18uint64_sort_domainE = linkonce_odr hidden constant [39 x i8] c"N7datalog7context18uint64_sort_domainE\00", comdat, align 1
@_ZTIN7datalog7context18uint64_sort_domainE = linkonce_odr hidden constant { ptr, ptr, ptr } { ptr getelementptr inbounds (ptr, ptr @_ZTVN10__cxxabiv120__si_class_type_infoE, i64 2), ptr @_ZTSN7datalog7context18uint64_sort_domainE, ptr @_ZTIN7datalog7context11sort_domainE }, comdat, align 8
@.str.82 = private unnamed_addr constant [6 x i8] c"<unk \00", align 1
@.str.83 = private unnamed_addr constant [2 x i8] c":\00", align 1
@.str.84 = private unnamed_addr constant [6 x i8] c"sort \00", align 1
@.str.85 = private unnamed_addr constant [49 x i8] c" contains more constants than its declared size \00", align 1
@.str.86 = private unnamed_addr constant [104 x i8] c"generated/home/dtcxzyw/WorkSpace/Projects/compilers/llvm-opt-benchmark/bench/z3/z3/src/util/hashtable.h\00", align 1
@.str.87 = private unnamed_addr constant [43 x i8] c"Overflow encountered when expanding vector\00", align 1
@.str.88 = private unnamed_addr constant [3 x i8] c"k!\00", align 1
@.str.89 = private unnamed_addr constant [7 x i8] c"engine\00", align 1
@.str.90 = private unnamed_addr constant [42 x i8] c"Select: auto-config, datalog, bmc, spacer\00", align 1
@.str.91 = private unnamed_addr constant [69 x i8] c"default table implementation: sparse, hashtable, bitvector, interval\00", align 1
@.str.92 = private unnamed_addr constant [25 x i8] c"datalog.default_relation\00", align 1
@.str.93 = private unnamed_addr constant [61 x i8] c"default relation implementation: external_relation, pentagon\00", align 1
@.str.94 = private unnamed_addr constant [9 x i8] c"pentagon\00", align 1
@.str.95 = private unnamed_addr constant [70 x i8] c"produce explanations for produced facts when using the datalog engine\00", align 1
@.str.96 = private unnamed_addr constant [6 x i8] c"false\00", align 1
@.str.97 = private unnamed_addr constant [48 x i8] c"use names from map files when displaying tuples\00", align 1
@.str.98 = private unnamed_addr constant [5 x i8] c"true\00", align 1
@.str.99 = private unnamed_addr constant [50 x i8] c"magic set transformation will be used for queries\00", align 1
@.str.100 = private unnamed_addr constant [165 x i8] c"if true, explanations are generated as history of each relation, rather than per fact (generate_explanations must be set to true for this option to have any effect)\00", align 1
@.str.101 = private unnamed_addr constant [27 x i8] c"datalog.unbound_compressor\00", align 1
@.str.102 = private unnamed_addr constant [80 x i8] c"auxiliary relations will be introduced to avoid unbound variables in rule heads\00", align 1
@.str.103 = private unnamed_addr constant [80 x i8] c"rules that differ only in values of constants will be merged into a single rule\00", align 1
@.str.104 = private unnamed_addr constant [122 x i8] c"if similarity_compressor is on, this value determines how many similar rules there must be in order for them to be merged\00", align 1
@.str.105 = private unnamed_addr constant [3 x i8] c"11\00", align 1
@.str.106 = private unnamed_addr constant [158 x i8] c"compile rules so that it is enough for the delta relation in union and widening operations to determine only whether the updated relation was modified or not\00", align 1
@.str.107 = private unnamed_addr constant [49 x i8] c"widening will be used to compile recursive rules\00", align 1
@.str.108 = private unnamed_addr constant [142 x i8] c"if true, the default table will be default_table inside a wrapper that checks that its results are the same as of default_table_checker table\00", align 1
@.str.109 = private unnamed_addr constant [26 x i8] c"see default_table_checked\00", align 1
@.str.110 = private unnamed_addr constant [105 x i8] c"name of default relation to check. operations on the default relation will be verified using SMT solving\00", align 1
@.str.111 = private unnamed_addr constant [82 x i8] c"length of saturation run before the first restart (in ms), zero means no restarts\00", align 1
@.str.112 = private unnamed_addr constant [2 x i8] c"0\00", align 1
@.str.113 = private unnamed_addr constant [31 x i8] c"Time limit used for saturation\00", align 1
@.str.114 = private unnamed_addr constant [102 x i8] c"determines whether profile information should be output when outputting Datalog rules or instructions\00", align 1
@.str.115 = private unnamed_addr constant [65 x i8] c"determines whether tuples for output predicates should be output\00", align 1
@.str.116 = private unnamed_addr constant [116 x i8] c"instructions and rules that took less than the threshold will not be printed when printed the instruction/rule list\00", align 1
@.str.117 = private unnamed_addr constant [179 x i8] c"if true, finite_product_relation will attempt to avoid creating inner relation with empty signature by putting in half of the table columns, if it would have been empty otherwise\00", align 1
@.str.118 = private unnamed_addr constant [20 x i8] c"datalog.subsumption\00", align 1
@.str.119 = private unnamed_addr constant [59 x i8] c"if true, removes/filters predicates with total transitions\00", align 1
@.str.120 = private unnamed_addr constant [21 x i8] c"generate_proof_trace\00", align 1
@.str.121 = private unnamed_addr constant [39 x i8] c"trace for 'sat' answer as proof object\00", align 1
@.str.122 = private unnamed_addr constant [16 x i8] c"spacer.push_pob\00", align 1
@.str.123 = private unnamed_addr constant [34 x i8] c"push blocked pobs to higher level\00", align 1
@.str.124 = private unnamed_addr constant [26 x i8] c"spacer.push_pob_max_depth\00", align 1
@.str.125 = private unnamed_addr constant [43 x i8] c"Maximum depth at which push_pob is enabled\00", align 1
@.str.126 = private unnamed_addr constant [11 x i8] c"4294967295\00", align 1
@.str.127 = private unnamed_addr constant [9 x i8] c"validate\00", align 1
@.str.128 = private unnamed_addr constant [54 x i8] c"validate result (by proof checking or model checking)\00", align 1
@.str.129 = private unnamed_addr constant [27 x i8] c"spacer.simplify_lemmas_pre\00", align 1
@.str.130 = private unnamed_addr constant [53 x i8] c"simplify derived lemmas before inductive propagation\00", align 1
@.str.131 = private unnamed_addr constant [28 x i8] c"spacer.simplify_lemmas_post\00", align 1
@.str.132 = private unnamed_addr constant [52 x i8] c"simplify derived lemmas after inductive propagation\00", align 1
@.str.133 = private unnamed_addr constant [33 x i8] c"spacer.use_inductive_generalizer\00", align 1
@.str.134 = private unnamed_addr constant [48 x i8] c"generalize lemmas using induction strengthening\00", align 1
@.str.135 = private unnamed_addr constant [24 x i8] c"spacer.max_num_contexts\00", align 1
@.str.136 = private unnamed_addr constant [37 x i8] c"maximal number of contexts to create\00", align 1
@.str.137 = private unnamed_addr constant [4 x i8] c"500\00", align 1
@.str.138 = private unnamed_addr constant [28 x i8] c"print_fixedpoint_extensions\00", align 1
@.str.139 = private unnamed_addr constant [78 x i8] c"use SMT-LIB2 fixedpoint extensions, instead of pure SMT2, when printing rules\00", align 1
@.str.140 = private unnamed_addr constant [21 x i8] c"print_low_level_smt2\00", align 1
@.str.141 = private unnamed_addr constant [100 x i8] c"use (faster) low-level SMT2 printer (the printer is scalable but the result may not be as readable)\00", align 1
@.str.142 = private unnamed_addr constant [33 x i8] c"print_with_variable_declarations\00", align 1
@.str.143 = private unnamed_addr constant [94 x i8] c"use variable declarations when displaying rules (instead of attempting to use original names)\00", align 1
@.str.144 = private unnamed_addr constant [13 x i8] c"print_answer\00", align 1
@.str.145 = private unnamed_addr constant [34 x i8] c"print answer instance(s) to query\00", align 1
@.str.146 = private unnamed_addr constant [18 x i8] c"print_certificate\00", align 1
@.str.147 = private unnamed_addr constant [55 x i8] c"print certificate for reachability or non-reachability\00", align 1
@.str.148 = private unnamed_addr constant [25 x i8] c"print_boogie_certificate\00", align 1
@.str.149 = private unnamed_addr constant [91 x i8] c"print certificate for reachability or non-reachability using a format understood by Boogie\00", align 1
@.str.150 = private unnamed_addr constant [61 x i8] c"Dump clauses in AIG text format (AAG) to the given file name\00", align 1
@.str.151 = private unnamed_addr constant [17 x i8] c"print_statistics\00", align 1
@.str.152 = private unnamed_addr constant [17 x i8] c"print statistics\00", align 1
@.str.153 = private unnamed_addr constant [72 x i8] c"selection method for tabular strategy: weight (default), first, var-use\00", align 1
@.str.154 = private unnamed_addr constant [22 x i8] c"bit-blast bit-vectors\00", align 1
@.str.155 = private unnamed_addr constant [42 x i8] c"perform symbolic magic set transformation\00", align 1
@.str.156 = private unnamed_addr constant [55 x i8] c"add scaling variable to linear real arithmetic clauses\00", align 1
@.str.157 = private unnamed_addr constant [20 x i8] c"xform.inline_linear\00", align 1
@.str.158 = private unnamed_addr constant [27 x i8] c"try linear inlining method\00", align 1
@.str.159 = private unnamed_addr constant [19 x i8] c"xform.inline_eager\00", align 1
@.str.160 = private unnamed_addr constant [28 x i8] c"try eager inlining of rules\00", align 1
@.str.161 = private unnamed_addr constant [27 x i8] c"xform.inline_linear_branch\00", align 1
@.str.162 = private unnamed_addr constant [52 x i8] c"try linear inlining method with potential expansion\00", align 1
@.str.163 = private unnamed_addr constant [38 x i8] c"compress tails with unbound variables\00", align 1
@.str.164 = private unnamed_addr constant [30 x i8] c"fix unbound variables in tail\00", align 1
@.str.165 = private unnamed_addr constant [19 x i8] c"xform.unfold_rules\00", align 1
@.str.166 = private unnamed_addr constant [49 x i8] c"unfold rules statically using iterative squaring\00", align 1
@.str.167 = private unnamed_addr constant [34 x i8] c"simplify clause set using slicing\00", align 1
@.str.168 = private unnamed_addr constant [19 x i8] c"spacer.use_euf_gen\00", align 1
@.str.169 = private unnamed_addr constant [52 x i8] c"Generalize lemmas and pobs using implied equalities\00", align 1
@.str.170 = private unnamed_addr constant [23 x i8] c"xform.transform_arrays\00", align 1
@.str.171 = private unnamed_addr constant [57 x i8] c"Rewrites arrays equalities and applies select over store\00", align 1
@.str.172 = private unnamed_addr constant [25 x i8] c"xform.instantiate_arrays\00", align 1
@.str.173 = private unnamed_addr constant [34 x i8] c"Transforms P(a) into P(i, a[i] a)\00", align 1
@.str.174 = private unnamed_addr constant [33 x i8] c"xform.instantiate_arrays.enforce\00", align 1
@.str.175 = private unnamed_addr constant [59 x i8] c"Transforms P(a) into P(i, a[i]), discards a from predicate\00", align 1
@.str.176 = private unnamed_addr constant [39 x i8] c"xform.instantiate_arrays.nb_quantifier\00", align 1
@.str.177 = private unnamed_addr constant [42 x i8] c"Gives the number of quantifiers per array\00", align 1
@.str.178 = private unnamed_addr constant [2 x i8] c"1\00", align 1
@.str.179 = private unnamed_addr constant [41 x i8] c"xform.instantiate_arrays.slice_technique\00", align 1
@.str.180 = private unnamed_addr constant [56 x i8] c"<no-slicing>=> GetId(i) = i, <smash> => GetId(i) = true\00", align 1
@.str.181 = private unnamed_addr constant [11 x i8] c"no-slicing\00", align 1
@.str.182 = private unnamed_addr constant [56 x i8] c"create quantified Horn clauses from clauses with arrays\00", align 1
@.str.183 = private unnamed_addr constant [63 x i8] c"instantiate quantified Horn clauses using E-matching heuristic\00", align 1
@.str.184 = private unnamed_addr constant [21 x i8] c"xform.coalesce_rules\00", align 1
@.str.185 = private unnamed_addr constant [15 x i8] c"coalesce rules\00", align 1
@.str.186 = private unnamed_addr constant [26 x i8] c"xform.tail_simplifier_pve\00", align 1
@.str.187 = private unnamed_addr constant [32 x i8] c"propagate_variable_equivalences\00", align 1
@.str.188 = private unnamed_addr constant [26 x i8] c"xform.subsumption_checker\00", align 1
@.str.189 = private unnamed_addr constant [61 x i8] c"Enable subsumption checker (no support for model conversion)\00", align 1
@.str.190 = private unnamed_addr constant [37 x i8] c"use cone of influence simplification\00", align 1
@.str.191 = private unnamed_addr constant [22 x i8] c"spacer.order_children\00", align 1
@.str.192 = private unnamed_addr constant [96 x i8] c"SPACER: order of enqueuing children in non-linear rules : 0 (original), 1 (reverse), 2 (random)\00", align 1
@.str.193 = private unnamed_addr constant [24 x i8] c"spacer.use_lemma_as_cti\00", align 1
@.str.194 = private unnamed_addr constant [55 x i8] c"SPACER: use a lemma instead of a CTI in flexible_trace\00", align 1
@.str.195 = private unnamed_addr constant [23 x i8] c"spacer.reset_pob_queue\00", align 1
@.str.196 = private unnamed_addr constant [61 x i8] c"SPACER: reset pob obligation queue when entering a new level\00", align 1
@.str.197 = private unnamed_addr constant [32 x i8] c"spacer.use_array_eq_generalizer\00", align 1
@.str.198 = private unnamed_addr constant [59 x i8] c"SPACER: attempt to generalize lemmas with array equalities\00", align 1
@.str.199 = private unnamed_addr constant [23 x i8] c"spacer.use_derivations\00", align 1
@.str.200 = private unnamed_addr constant [86 x i8] c"SPACER: using derivation mechanism to cache intermediate results for non-linear rules\00", align 1
@.str.201 = private unnamed_addr constant [89 x i8] c"try to eliminate local array terms using Ackermannization -- some array terms may remain\00", align 1
@.str.202 = private unnamed_addr constant [42 x i8] c"eliminate all local array variables by QE\00", align 1
@.str.203 = private unnamed_addr constant [31 x i8] c"Eliminate term-ite expressions\00", align 1
@.str.204 = private unnamed_addr constant [83 x i8] c"Maximum inflation for non-Boolean ite-terms blasting: 0 (none), k (multiplicative)\00", align 1
@.str.205 = private unnamed_addr constant [2 x i8] c"3\00", align 1
@.str.206 = private unnamed_addr constant [17 x i8] c"spacer.propagate\00", align 1
@.str.207 = private unnamed_addr constant [31 x i8] c"Enable propagate/pushing phase\00", align 1
@.str.208 = private unnamed_addr constant [17 x i8] c"spacer.max_level\00", align 1
@.str.209 = private unnamed_addr constant [25 x i8] c"Maximum level to explore\00", align 1
@.str.210 = private unnamed_addr constant [16 x i8] c"spacer.elim_aux\00", align 1
@.str.211 = private unnamed_addr constant [52 x i8] c"Eliminate auxiliary variables in reachability facts\00", align 1
@.str.212 = private unnamed_addr constant [32 x i8] c"spacer.blast_term_ite_inflation\00", align 1
@.str.213 = private unnamed_addr constant [84 x i8] c"Maximum inflation for non-Boolean ite-terms expansion: 0 (none), k (multiplicative)\00", align 1
@.str.214 = private unnamed_addr constant [17 x i8] c"spacer.reach_dnf\00", align 1
@.str.215 = private unnamed_addr constant [35 x i8] c"Restrict reachability facts to DNF\00", align 1
@.str.216 = private unnamed_addr constant [27 x i8] c"bmc.linear_unrolling_depth\00", align 1
@.str.217 = private unnamed_addr constant [25 x i8] c"Maximal level to explore\00", align 1
@.str.218 = private unnamed_addr constant [33 x i8] c"spacer.iuc.split_farkas_literals\00", align 1
@.str.219 = private unnamed_addr constant [22 x i8] c"Split Farkas literals\00", align 1
@.str.220 = private unnamed_addr constant [18 x i8] c"spacer.native_mbp\00", align 1
@.str.221 = private unnamed_addr constant [21 x i8] c"Use native mbp of Z3\00", align 1
@.str.222 = private unnamed_addr constant [15 x i8] c"spacer.eq_prop\00", align 1
@.str.223 = private unnamed_addr constant [52 x i8] c"Enable equality and bound propagation in arithmetic\00", align 1
@.str.224 = private unnamed_addr constant [16 x i8] c"spacer.weak_abs\00", align 1
@.str.225 = private unnamed_addr constant [17 x i8] c"Weak abstraction\00", align 1
@.str.226 = private unnamed_addr constant [16 x i8] c"spacer.restarts\00", align 1
@.str.227 = private unnamed_addr constant [34 x i8] c"Enable resetting obligation queue\00", align 1
@.str.228 = private unnamed_addr constant [33 x i8] c"spacer.restart_initial_threshold\00", align 1
@.str.229 = private unnamed_addr constant [31 x i8] c"Initial threshold for restarts\00", align 1
@.str.230 = private unnamed_addr constant [3 x i8] c"10\00", align 1
@.str.231 = private unnamed_addr constant [19 x i8] c"spacer.random_seed\00", align 1
@.str.232 = private unnamed_addr constant [37 x i8] c"Random seed to be used by SMT solver\00", align 1
@.str.233 = private unnamed_addr constant [12 x i8] c"spacer.mbqi\00", align 1
@.str.234 = private unnamed_addr constant [12 x i8] c"Enable mbqi\00", align 1
@.str.235 = private unnamed_addr constant [18 x i8] c"spacer.keep_proxy\00", align 1
@.str.236 = private unnamed_addr constant [42 x i8] c"keep proxy variables (internal parameter)\00", align 1
@.str.237 = private unnamed_addr constant [10 x i8] c"spacer.q3\00", align 1
@.str.238 = private unnamed_addr constant [34 x i8] c"Allow quantified lemmas in frames\00", align 1
@.str.239 = private unnamed_addr constant [22 x i8] c"spacer.q3.instantiate\00", align 1
@.str.240 = private unnamed_addr constant [30 x i8] c"Instantiate quantified lemmas\00", align 1
@.str.241 = private unnamed_addr constant [19 x i8] c"spacer.q3.use_qgen\00", align 1
@.str.242 = private unnamed_addr constant [33 x i8] c"use quantified lemma generalizer\00", align 1
@.str.243 = private unnamed_addr constant [25 x i8] c"spacer.q3.qgen.normalize\00", align 1
@.str.244 = private unnamed_addr constant [48 x i8] c"normalize cube before quantified generalization\00", align 1
@.str.245 = private unnamed_addr constant [11 x i8] c"spacer.iuc\00", align 1
@.str.246 = private unnamed_addr constant [156 x i8] c"0 = use old implementation of unsat-core-generation, 1 = use new implementation of IUC generation, 2 = use new implementation of IUC + min-cut optimization\00", align 1
@.str.247 = private unnamed_addr constant [17 x i8] c"spacer.iuc.arith\00", align 1
@.str.248 = private unnamed_addr constant [207 x i8] c"0 = use simple Farkas plugin, 1 = use simple Farkas plugin with constant from other partition (like old unsat-core-generation),2 = use Gaussian elimination optimization (broken), 3 = use additive IUC plugin\00", align 1
@.str.249 = private unnamed_addr constant [27 x i8] c"spacer.iuc.old_hyp_reducer\00", align 1
@.str.250 = private unnamed_addr constant [70 x i8] c"use old hyp reducer instead of new implementation, for debugging only\00", align 1
@.str.251 = private unnamed_addr constant [23 x i8] c"spacer.validate_lemmas\00", align 1
@.str.252 = private unnamed_addr constant [41 x i8] c"Validate each lemma after generalization\00", align 1
@.str.253 = private unnamed_addr constant [19 x i8] c"spacer.ground_pobs\00", align 1
@.str.254 = private unnamed_addr constant [41 x i8] c"Ground pobs by using values from a model\00", align 1
@.str.255 = private unnamed_addr constant [30 x i8] c"spacer.iuc.print_farkas_stats\00", align 1
@.str.256 = private unnamed_addr constant [118 x i8] c"prints for each proof how many Farkas lemmas it contains and how many of these participate in the cut (for debugging)\00", align 1
@.str.257 = private unnamed_addr constant [23 x i8] c"spacer.iuc.debug_proof\00", align 1
@.str.258 = private unnamed_addr constant [75 x i8] c"prints proof used by unsat-core-learner for debugging purposes (debugging)\00", align 1
@.str.259 = private unnamed_addr constant [20 x i8] c"spacer.simplify_pob\00", align 1
@.str.260 = private unnamed_addr constant [48 x i8] c"simplify pobs by removing redundant constraints\00", align 1
@.str.261 = private unnamed_addr constant [23 x i8] c"spacer.p3.share_lemmas\00", align 1
@.str.262 = private unnamed_addr constant [19 x i8] c"Share frame lemmas\00", align 1
@.str.263 = private unnamed_addr constant [27 x i8] c"spacer.p3.share_invariants\00", align 1
@.str.264 = private unnamed_addr constant [24 x i8] c"Share invariants lemmas\00", align 1
@.str.265 = private unnamed_addr constant [17 x i8] c"spacer.min_level\00", align 1
@.str.266 = private unnamed_addr constant [25 x i8] c"Minimal level to explore\00", align 1
@.str.267 = private unnamed_addr constant [18 x i8] c"spacer.trace_file\00", align 1
@.str.268 = private unnamed_addr constant [29 x i8] c"Log file for progress events\00", align 1
@.str.269 = private unnamed_addr constant [11 x i8] c"spacer.ctp\00", align 1
@.str.270 = private unnamed_addr constant [33 x i8] c"Enable counterexample-to-pushing\00", align 1
@.str.271 = private unnamed_addr constant [22 x i8] c"spacer.use_inc_clause\00", align 1
@.str.272 = private unnamed_addr constant [42 x i8] c"Use incremental clause to represent trans\00", align 1
@.str.273 = private unnamed_addr constant [23 x i8] c"spacer.dump_benchmarks\00", align 1
@.str.274 = private unnamed_addr constant [31 x i8] c"Dump SMT queries as benchmarks\00", align 1
@.str.275 = private unnamed_addr constant [22 x i8] c"spacer.dump_threshold\00", align 1
@.str.276 = private unnamed_addr constant [43 x i8] c"Threshold in seconds on dumping benchmarks\00", align 1
@.str.277 = private unnamed_addr constant [4 x i8] c"5.0\00", align 1
@.str.278 = private unnamed_addr constant [12 x i8] c"spacer.gpdr\00", align 1
@.str.279 = private unnamed_addr constant [45 x i8] c"Use GPDR solving strategy for non-linear CHC\00", align 1
@.str.280 = private unnamed_addr constant [16 x i8] c"spacer.gpdr.bfs\00", align 1
@.str.281 = private unnamed_addr constant [56 x i8] c"Use BFS exploration strategy for expanding model search\00", align 1
@.str.282 = private unnamed_addr constant [19 x i8] c"spacer.use_bg_invs\00", align 1
@.str.283 = private unnamed_addr constant [38 x i8] c"Enable external background invariants\00", align 1
@.str.284 = private unnamed_addr constant [23 x i8] c"spacer.use_lim_num_gen\00", align 1
@.str.285 = private unnamed_addr constant [56 x i8] c"Enable limit numbers generalizer to get smaller numbers\00", align 1
@.str.286 = private unnamed_addr constant [13 x i8] c"spacer.logic\00", align 1
@.str.287 = private unnamed_addr constant [48 x i8] c"SMT-LIB logic to configure internal SMT solvers\00", align 1
@.str.288 = private unnamed_addr constant [20 x i8] c"spacer.arith.solver\00", align 1
@.str.289 = private unnamed_addr constant [233 x i8] c"arithmetic solver: 0 - no solver, 1 - bellman-ford based solver (diff. logic only), 2 - simplex based solver, 3 - floyd-warshall based solver (diff. logic only) and no theory combination 4 - utvpi, 5 - infinitary lra, 6 - lra solver\00", align 1
@.str.290 = private unnamed_addr constant [2 x i8] c"2\00", align 1
@.str.291 = private unnamed_addr constant [14 x i8] c"spacer.global\00", align 1
@.str.292 = private unnamed_addr constant [23 x i8] c"Enable global guidance\00", align 1
@.str.293 = private unnamed_addr constant [21 x i8] c"spacer.gg.concretize\00", align 1
@.str.294 = private unnamed_addr constant [34 x i8] c"Enable global guidance concretize\00", align 1
@.str.295 = private unnamed_addr constant [21 x i8] c"spacer.gg.conjecture\00", align 1
@.str.296 = private unnamed_addr constant [34 x i8] c"Enable global guidance conjecture\00", align 1
@.str.297 = private unnamed_addr constant [18 x i8] c"spacer.gg.subsume\00", align 1
@.str.298 = private unnamed_addr constant [31 x i8] c"Enable global guidance subsume\00", align 1
@.str.299 = private unnamed_addr constant [15 x i8] c"spacer.use_iuc\00", align 1
@.str.300 = private unnamed_addr constant [62 x i8] c"Enable Interpolating Unsat Core(IUC) for lemma generalization\00", align 1
@.str.301 = private unnamed_addr constant [18 x i8] c"spacer.expand_bnd\00", align 1
@.str.302 = private unnamed_addr constant [41 x i8] c"Enable expand-bound lemma generalization\00", align 1
@_ZTV23smt2_pp_environment_dbg = linkonce_odr hidden unnamed_addr constant { [21 x ptr] } { [21 x ptr] [ptr null, ptr @_ZTI23smt2_pp_environment_dbg, ptr @_ZN23smt2_pp_environment_dbgD2Ev, ptr @_ZN23smt2_pp_environment_dbgD0Ev, ptr @_ZNK23smt2_pp_environment_dbg11get_managerEv, ptr @_ZN23smt2_pp_environment_dbg9get_autilEv, ptr @_ZN23smt2_pp_environment_dbg10get_bvutilEv, ptr @_ZN23smt2_pp_environment_dbg10get_arutilEv, ptr @_ZN23smt2_pp_environment_dbg9get_futilEv, ptr @_ZN23smt2_pp_environment_dbg9get_sutilEv, ptr @_ZN23smt2_pp_environment_dbg10get_dlutilEv, ptr @_ZN23smt2_pp_environment_dbg10get_dtutilEv, ptr @_ZNK23smt2_pp_environment_dbg4usesERK6symbol, ptr @_ZN19smt2_pp_environment8pp_fdeclEP9func_declRj, ptr @_ZN19smt2_pp_environment13pp_bv_literalEP3appbb, ptr @_ZN19smt2_pp_environment16pp_arith_literalEP3appbj, ptr @_ZN19smt2_pp_environment16pp_float_literalEP3appbb, ptr @_ZN19smt2_pp_environment18pp_datalog_literalEP3app, ptr @_ZN19smt2_pp_environment17pp_string_literalEP3app, ptr @_ZN19smt2_pp_environment7pp_sortEP4sort, ptr @_ZN19smt2_pp_environment12pp_fdecl_refEP9func_decl] }, comdat, align 8
@_ZTS23smt2_pp_environment_dbg = linkonce_odr hidden constant [26 x i8] c"23smt2_pp_environment_dbg\00", comdat, align 1
@_ZTI19smt2_pp_environment = external constant ptr
@_ZTI23smt2_pp_environment_dbg = linkonce_odr hidden constant { ptr, ptr, ptr } { ptr getelementptr inbounds (ptr, ptr @_ZTVN10__cxxabiv120__si_class_type_infoE, i64 2), ptr @_ZTS23smt2_pp_environment_dbg, ptr @_ZTI19smt2_pp_environment }, comdat, align 8
@_ZTV19smt2_pp_environment = external unnamed_addr constant { [21 x ptr] }, align 8
@.str.303 = private unnamed_addr constant [4 x i8] c"seq\00", align 1
@_ZTV8ast_mark = external unnamed_addr constant { [6 x ptr] }, align 8
@_ZN3app16g_constant_flagsE = external global %struct.app_flags, align 4
@.str.304 = private unnamed_addr constant [50 x i8] c"basic_string: construction from null is not valid\00", align 1
@_ZTVN7datalog22restore_vec_size_trailINS_7contextE10ref_vectorI4expr11ast_managerEEE = linkonce_odr hidden unnamed_addr constant { [5 x ptr] } { [5 x ptr] [ptr null, ptr @_ZTIN7datalog22restore_vec_size_trailINS_7contextE10ref_vectorI4expr11ast_managerEEE, ptr @_ZN7datalog22restore_vec_size_trailINS_7contextE10ref_vectorI4expr11ast_managerEED2Ev, ptr @_ZN7datalog22restore_vec_size_trailINS_7contextE10ref_vectorI4expr11ast_managerEED0Ev, ptr @_ZN7datalog22restore_vec_size_trailINS_7contextE10ref_vectorI4expr11ast_managerEE4undoEv] }, comdat, align 8
@_ZTSN7datalog22restore_vec_size_trailINS_7contextE10ref_vectorI4expr11ast_managerEEE = linkonce_odr hidden constant [81 x i8] c"N7datalog22restore_vec_size_trailINS_7contextE10ref_vectorI4expr11ast_managerEEE\00", comdat, align 1
@_ZTIN7datalog22restore_vec_size_trailINS_7contextE10ref_vectorI4expr11ast_managerEEE = linkonce_odr hidden constant { ptr, ptr, ptr } { ptr getelementptr inbounds (ptr, ptr @_ZTVN10__cxxabiv120__si_class_type_infoE, i64 2), ptr @_ZTSN7datalog22restore_vec_size_trailINS_7contextE10ref_vectorI4expr11ast_managerEEE, ptr @_ZTI5trail }, comdat, align 8
@.str.305 = private unnamed_addr constant [107 x i8] c"generated/home/dtcxzyw/WorkSpace/Projects/compilers/llvm-opt-benchmark/bench/z3/z3/src/ast/for_each_expr.h\00", align 1
@llvm.global_ctors = appending global [1 x { i32, ptr, ptr }] [{ i32, ptr, ptr } { i32 65535, ptr @_GLOBAL__sub_I_dl_context.cpp, ptr null }]

@_ZN7datalog7contextC1ER11ast_managerRNS_20register_engine_baseER10smt_paramsRK10params_ref = hidden unnamed_addr alias void (ptr, ptr, ptr, ptr, ptr), ptr @_ZN7datalog7contextC2ER11ast_managerRNS_20register_engine_baseER10smt_paramsRK10params_ref
@_ZN7datalog7contextD1Ev = hidden unnamed_addr alias void (ptr), ptr @_ZN7datalog7contextD2Ev

; Function Attrs: uwtable
define internal void @__cxx_global_var_init() #0 section ".text.startup" {
entry:
  call void @_ZNSt8ios_base4InitC1Ev(ptr noundef nonnull align 1 dereferenceable(1) @_ZStL8__ioinit)
  %0 = call i32 @__cxa_atexit(ptr @_ZNSt8ios_base4InitD1Ev, ptr @_ZStL8__ioinit, ptr @__dso_handle) #3
  ret void
}

declare void @_ZNSt8ios_base4InitC1Ev(ptr noundef nonnull align 1 dereferenceable(1)) unnamed_addr #1

; Function Attrs: nounwind
declare void @_ZNSt8ios_base4InitD1Ev(ptr noundef nonnull align 1 dereferenceable(1)) unnamed_addr #2

; Function Attrs: nounwind
declare i32 @__cxa_atexit(ptr, ptr, ptr) #3

; Function Attrs: mustprogress uwtable
define hidden void @_ZN7datalog7context4pushEv(ptr noundef nonnull align 8 dereferenceable(3556) %this) #4 align 2 personality ptr @__gxx_personality_v0 {
entry:
  %this.addr = alloca ptr, align 8
  %ref.tmp = alloca %"class.datalog::context::restore_rules", align 8
  %exn.slot = alloca ptr, align 8
  %ehselector.slot = alloca i32, align 4
  %ref.tmp4 = alloca %"class.datalog::restore_vec_size_trail", align 8
  %ref.tmp8 = alloca %"class.datalog::restore_vec_size_trail", align 8
  store ptr %this, ptr %this.addr, align 8
  %this1 = load ptr, ptr %this.addr, align 8
  %m_trail = getelementptr inbounds %"class.datalog::context", ptr %this1, i32 0, i32 16
  call void @_ZN11trail_stack10push_scopeEv(ptr noundef nonnull align 8 dereferenceable(56) %m_trail)
  %m_trail2 = getelementptr inbounds %"class.datalog::context", ptr %this1, i32 0, i32 16
  %m_rule_set = getelementptr inbounds %"class.datalog::context", ptr %this1, i32 0, i32 23
  call void @_ZN7datalog7context13restore_rulesC2ERS0_RNS_8rule_setE(ptr noundef nonnull align 8 dereferenceable(24) %ref.tmp, ptr noundef nonnull align 8 dereferenceable(3556) %this1, ptr noundef nonnull align 8 dereferenceable(248) %m_rule_set)
  invoke void @_ZN11trail_stack4pushIN7datalog7context13restore_rulesEEEvRKT_(ptr noundef nonnull align 8 dereferenceable(56) %m_trail2, ptr noundef nonnull align 8 dereferenceable(24) %ref.tmp)
          to label %invoke.cont unwind label %lpad

invoke.cont:                                      ; preds = %entry
  call void @_ZN7datalog7context13restore_rulesD2Ev(ptr noundef nonnull align 8 dereferenceable(24) %ref.tmp) #3
  %m_trail3 = getelementptr inbounds %"class.datalog::context", ptr %this1, i32 0, i32 16
  %m_rule_fmls = getelementptr inbounds %"class.datalog::context", ptr %this1, i32 0, i32 28
  call void @_ZN7datalog22restore_vec_size_trailINS_7contextE10ref_vectorI4expr11ast_managerEEC2ERS5_(ptr noundef nonnull align 8 dereferenceable(20) %ref.tmp4, ptr noundef nonnull align 8 dereferenceable(16) %m_rule_fmls)
  invoke void @_ZN11trail_stack4pushIN7datalog22restore_vec_size_trailINS1_7contextE10ref_vectorI4expr11ast_managerEEEEEvRKT_(ptr noundef nonnull align 8 dereferenceable(56) %m_trail3, ptr noundef nonnull align 8 dereferenceable(20) %ref.tmp4)
          to label %invoke.cont6 unwind label %lpad5

invoke.cont6:                                     ; preds = %invoke.cont
  call void @_ZN7datalog22restore_vec_size_trailINS_7contextE10ref_vectorI4expr11ast_managerEED2Ev(ptr noundef nonnull align 8 dereferenceable(20) %ref.tmp4) #3
  %m_trail7 = getelementptr inbounds %"class.datalog::context", ptr %this1, i32 0, i32 16
  %m_background = getelementptr inbounds %"class.datalog::context", ptr %this1, i32 0, i32 31
  call void @_ZN7datalog22restore_vec_size_trailINS_7contextE10ref_vectorI4expr11ast_managerEEC2ERS5_(ptr noundef nonnull align 8 dereferenceable(20) %ref.tmp8, ptr noundef nonnull align 8 dereferenceable(16) %m_background)
  invoke void @_ZN11trail_stack4pushIN7datalog22restore_vec_size_trailINS1_7contextE10ref_vectorI4expr11ast_managerEEEEEvRKT_(ptr noundef nonnull align 8 dereferenceable(56) %m_trail7, ptr noundef nonnull align 8 dereferenceable(20) %ref.tmp8)
          to label %invoke.cont10 unwind label %lpad9

invoke.cont10:                                    ; preds = %invoke.cont6
  call void @_ZN7datalog22restore_vec_size_trailINS_7contextE10ref_vectorI4expr11ast_managerEED2Ev(ptr noundef nonnull align 8 dereferenceable(20) %ref.tmp8) #3
  ret void

lpad:                                             ; preds = %entry
  %0 = landingpad { ptr, i32 }
          cleanup
  %1 = extractvalue { ptr, i32 } %0, 0
  store ptr %1, ptr %exn.slot, align 8
  %2 = extractvalue { ptr, i32 } %0, 1
  store i32 %2, ptr %ehselector.slot, align 4
  call void @_ZN7datalog7context13restore_rulesD2Ev(ptr noundef nonnull align 8 dereferenceable(24) %ref.tmp) #3
  br label %eh.resume

lpad5:                                            ; preds = %invoke.cont
  %3 = landingpad { ptr, i32 }
          cleanup
  %4 = extractvalue { ptr, i32 } %3, 0
  store ptr %4, ptr %exn.slot, align 8
  %5 = extractvalue { ptr, i32 } %3, 1
  store i32 %5, ptr %ehselector.slot, align 4
  call void @_ZN7datalog22restore_vec_size_trailINS_7contextE10ref_vectorI4expr11ast_managerEED2Ev(ptr noundef nonnull align 8 dereferenceable(20) %ref.tmp4) #3
  br label %eh.resume

lpad9:                                            ; preds = %invoke.cont6
  %6 = landingpad { ptr, i32 }
          cleanup
  %7 = extractvalue { ptr, i32 } %6, 0
  store ptr %7, ptr %exn.slot, align 8
  %8 = extractvalue { ptr, i32 } %6, 1
  store i32 %8, ptr %ehselector.slot, align 4
  call void @_ZN7datalog22restore_vec_size_trailINS_7contextE10ref_vectorI4expr11ast_managerEED2Ev(ptr noundef nonnull align 8 dereferenceable(20) %ref.tmp8) #3
  br label %eh.resume

eh.resume:                                        ; preds = %lpad9, %lpad5, %lpad
  %exn = load ptr, ptr %exn.slot, align 8
  %sel = load i32, ptr %ehselector.slot, align 4
  %lpad.val = insertvalue { ptr, i32 } poison, ptr %exn, 0
  %lpad.val11 = insertvalue { ptr, i32 } %lpad.val, i32 %sel, 1
  resume { ptr, i32 } %lpad.val11
}

; Function Attrs: mustprogress uwtable
define linkonce_odr hidden void @_ZN11trail_stack10push_scopeEv(ptr noundef nonnull align 8 dereferenceable(56) %this) #4 comdat align 2 {
entry:
  %this.addr = alloca ptr, align 8
  %ref.tmp = alloca i32, align 4
  store ptr %this, ptr %this.addr, align 8
  %this1 = load ptr, ptr %this.addr, align 8
  %m_region = getelementptr inbounds %class.trail_stack, ptr %this1, i32 0, i32 2
  call void @_ZN6region10push_scopeEv(ptr noundef nonnull align 8 dereferenceable(40) %m_region)
  %m_scopes = getelementptr inbounds %class.trail_stack, ptr %this1, i32 0, i32 1
  %m_trail_stack = getelementptr inbounds %class.trail_stack, ptr %this1, i32 0, i32 0
  %call = call noundef i32 @_ZNK6vectorIP5trailLb0EjE4sizeEv(ptr noundef nonnull align 8 dereferenceable(8) %m_trail_stack)
  store i32 %call, ptr %ref.tmp, align 4
  %call2 = call noundef nonnull align 8 dereferenceable(8) ptr @_ZN6vectorIjLb0EjE9push_backEOj(ptr noundef nonnull align 8 dereferenceable(8) %m_scopes, ptr noundef nonnull align 4 dereferenceable(4) %ref.tmp)
  ret void
}

; Function Attrs: mustprogress uwtable
define linkonce_odr hidden void @_ZN11trail_stack4pushIN7datalog7context13restore_rulesEEEvRKT_(ptr noundef nonnull align 8 dereferenceable(56) %this, ptr noundef nonnull align 8 dereferenceable(24) %obj) #4 comdat align 2 {
entry:
  %this.addr = alloca ptr, align 8
  %obj.addr = alloca ptr, align 8
  %ref.tmp = alloca ptr, align 8
  store ptr %this, ptr %this.addr, align 8
  store ptr %obj, ptr %obj.addr, align 8
  %this1 = load ptr, ptr %this.addr, align 8
  %m_trail_stack = getelementptr inbounds %class.trail_stack, ptr %this1, i32 0, i32 0
  %m_region = getelementptr inbounds %class.trail_stack, ptr %this1, i32 0, i32 2
  %call = call noundef ptr @_ZnwmR6region(i64 noundef 24, ptr noundef nonnull align 8 dereferenceable(40) %m_region)
  %0 = load ptr, ptr %obj.addr, align 8
  call void @_ZN7datalog7context13restore_rulesC2ERKS1_(ptr noundef nonnull align 8 dereferenceable(24) %call, ptr noundef nonnull align 8 dereferenceable(24) %0) #3
  store ptr %call, ptr %ref.tmp, align 8
  %call2 = call noundef nonnull align 8 dereferenceable(8) ptr @_ZN6vectorIP5trailLb0EjE9push_backEOS1_(ptr noundef nonnull align 8 dereferenceable(8) %m_trail_stack, ptr noundef nonnull align 8 dereferenceable(8) %ref.tmp)
  ret void
}

; Function Attrs: mustprogress uwtable
define linkonce_odr hidden void @_ZN7datalog7context13restore_rulesC2ERS0_RNS_8rule_setE(ptr noundef nonnull align 8 dereferenceable(24) %this, ptr noundef nonnull align 8 dereferenceable(3556) %ctx, ptr noundef nonnull align 8 dereferenceable(248) %r) unnamed_addr #4 comdat align 2 personality ptr @__gxx_personality_v0 {
entry:
  %this.addr = alloca ptr, align 8
  %ctx.addr = alloca ptr, align 8
  %r.addr = alloca ptr, align 8
  %exn.slot = alloca ptr, align 8
  %ehselector.slot = alloca i32, align 4
  store ptr %this, ptr %this.addr, align 8
  store ptr %ctx, ptr %ctx.addr, align 8
  store ptr %r, ptr %r.addr, align 8
  %this1 = load ptr, ptr %this.addr, align 8
  call void @_ZN5trailC2Ev(ptr noundef nonnull align 8 dereferenceable(8) %this1) #3
  store ptr getelementptr inbounds ({ [5 x ptr] }, ptr @_ZTVN7datalog7context13restore_rulesE, i32 0, inrange i32 0, i32 2), ptr %this1, align 8
  %ctx2 = getelementptr inbounds %"class.datalog::context::restore_rules", ptr %this1, i32 0, i32 1
  %0 = load ptr, ptr %ctx.addr, align 8
  store ptr %0, ptr %ctx2, align 8
  %m_old_rules = getelementptr inbounds %"class.datalog::context::restore_rules", ptr %this1, i32 0, i32 2
  %call = invoke noalias noundef ptr @_ZN6memory8allocateEm(i64 noundef 248)
          to label %invoke.cont unwind label %lpad

invoke.cont:                                      ; preds = %entry
  %1 = load ptr, ptr %r.addr, align 8
  invoke void @_ZN7datalog8rule_setC1ERKS0_(ptr noundef nonnull align 8 dereferenceable(248) %call, ptr noundef nonnull align 8 dereferenceable(248) %1)
          to label %invoke.cont3 unwind label %lpad

invoke.cont3:                                     ; preds = %invoke.cont
  store ptr %call, ptr %m_old_rules, align 8
  ret void

lpad:                                             ; preds = %invoke.cont, %entry
  %2 = landingpad { ptr, i32 }
          cleanup
  %3 = extractvalue { ptr, i32 } %2, 0
  store ptr %3, ptr %exn.slot, align 8
  %4 = extractvalue { ptr, i32 } %2, 1
  store i32 %4, ptr %ehselector.slot, align 4
  call void @_ZN5trailD2Ev(ptr noundef nonnull align 8 dereferenceable(8) %this1) #3
  br label %eh.resume

eh.resume:                                        ; preds = %lpad
  %exn = load ptr, ptr %exn.slot, align 8
  %sel = load i32, ptr %ehselector.slot, align 4
  %lpad.val = insertvalue { ptr, i32 } poison, ptr %exn, 0
  %lpad.val4 = insertvalue { ptr, i32 } %lpad.val, i32 %sel, 1
  resume { ptr, i32 } %lpad.val4
}

declare i32 @__gxx_personality_v0(...)

; Function Attrs: mustprogress nounwind uwtable
define linkonce_odr hidden void @_ZN7datalog7context13restore_rulesD2Ev(ptr noundef nonnull align 8 dereferenceable(24) %this) unnamed_addr #5 comdat align 2 {
entry:
  %this.addr = alloca ptr, align 8
  store ptr %this, ptr %this.addr, align 8
  %this1 = load ptr, ptr %this.addr, align 8
  call void @_ZN5trailD2Ev(ptr noundef nonnull align 8 dereferenceable(8) %this1) #3
  ret void
}

; Function Attrs: mustprogress uwtable
define linkonce_odr hidden void @_ZN11trail_stack4pushIN7datalog22restore_vec_size_trailINS1_7contextE10ref_vectorI4expr11ast_managerEEEEEvRKT_(ptr noundef nonnull align 8 dereferenceable(56) %this, ptr noundef nonnull align 8 dereferenceable(20) %obj) #4 comdat align 2 {
entry:
  %this.addr = alloca ptr, align 8
  %obj.addr = alloca ptr, align 8
  %ref.tmp = alloca ptr, align 8
  store ptr %this, ptr %this.addr, align 8
  store ptr %obj, ptr %obj.addr, align 8
  %this1 = load ptr, ptr %this.addr, align 8
  %m_trail_stack = getelementptr inbounds %class.trail_stack, ptr %this1, i32 0, i32 0
  %m_region = getelementptr inbounds %class.trail_stack, ptr %this1, i32 0, i32 2
  %call = call noundef ptr @_ZnwmR6region(i64 noundef 24, ptr noundef nonnull align 8 dereferenceable(40) %m_region)
  %0 = load ptr, ptr %obj.addr, align 8
  call void @_ZN7datalog22restore_vec_size_trailINS_7contextE10ref_vectorI4expr11ast_managerEEC2ERKS6_(ptr noundef nonnull align 8 dereferenceable(20) %call, ptr noundef nonnull align 8 dereferenceable(20) %0) #3
  store ptr %call, ptr %ref.tmp, align 8
  %call2 = call noundef nonnull align 8 dereferenceable(8) ptr @_ZN6vectorIP5trailLb0EjE9push_backEOS1_(ptr noundef nonnull align 8 dereferenceable(8) %m_trail_stack, ptr noundef nonnull align 8 dereferenceable(8) %ref.tmp)
  ret void
}

; Function Attrs: mustprogress nounwind uwtable
define linkonce_odr hidden void @_ZN7datalog22restore_vec_size_trailINS_7contextE10ref_vectorI4expr11ast_managerEEC2ERS5_(ptr noundef nonnull align 8 dereferenceable(20) %this, ptr noundef nonnull align 8 dereferenceable(16) %v) unnamed_addr #5 comdat align 2 {
entry:
  %this.addr = alloca ptr, align 8
  %v.addr = alloca ptr, align 8
  store ptr %this, ptr %this.addr, align 8
  store ptr %v, ptr %v.addr, align 8
  %this1 = load ptr, ptr %this.addr, align 8
  call void @_ZN5trailC2Ev(ptr noundef nonnull align 8 dereferenceable(8) %this1) #3
  store ptr getelementptr inbounds ({ [5 x ptr] }, ptr @_ZTVN7datalog22restore_vec_size_trailINS_7contextE10ref_vectorI4expr11ast_managerEEE, i32 0, inrange i32 0, i32 2), ptr %this1, align 8
  %m_vector = getelementptr inbounds %"class.datalog::restore_vec_size_trail", ptr %this1, i32 0, i32 1
  %0 = load ptr, ptr %v.addr, align 8
  store ptr %0, ptr %m_vector, align 8
  %m_old_size = getelementptr inbounds %"class.datalog::restore_vec_size_trail", ptr %this1, i32 0, i32 2
  %1 = load ptr, ptr %v.addr, align 8
  %call = call noundef i32 @_ZNK15ref_vector_coreI4expr19ref_manager_wrapperIS0_11ast_managerEE4sizeEv(ptr noundef nonnull align 8 dereferenceable(16) %1)
  store i32 %call, ptr %m_old_size, align 8
  ret void
}

; Function Attrs: mustprogress nounwind uwtable
define linkonce_odr hidden void @_ZN7datalog22restore_vec_size_trailINS_7contextE10ref_vectorI4expr11ast_managerEED2Ev(ptr noundef nonnull align 8 dereferenceable(20) %this) unnamed_addr #5 comdat align 2 {
entry:
  %this.addr = alloca ptr, align 8
  store ptr %this, ptr %this.addr, align 8
  %this1 = load ptr, ptr %this.addr, align 8
  call void @_ZN5trailD2Ev(ptr noundef nonnull align 8 dereferenceable(8) %this1) #3
  ret void
}

; Function Attrs: mustprogress uwtable
define hidden void @_ZN7datalog7context3popEv(ptr noundef nonnull align 8 dereferenceable(3556) %this) #4 align 2 personality ptr @__gxx_personality_v0 {
entry:
  %this.addr = alloca ptr, align 8
  %ref.tmp = alloca %"class.std::__cxx11::basic_string", align 8
  %ref.tmp2 = alloca %"class.std::allocator", align 1
  %exn.slot = alloca ptr, align 8
  %ehselector.slot = alloca i32, align 4
  %cleanup.isactive = alloca i1, align 1
  %ref.tmp7 = alloca %"class.std::__cxx11::basic_string", align 8
  %ref.tmp8 = alloca %"class.std::allocator", align 1
  %cleanup.isactive13 = alloca i1, align 1
  store ptr %this, ptr %this.addr, align 8
  %this1 = load ptr, ptr %this.addr, align 8
  %m_trail = getelementptr inbounds %"class.datalog::context", ptr %this1, i32 0, i32 16
  %call = call noundef i32 @_ZNK11trail_stack14get_num_scopesEv(ptr noundef nonnull align 8 dereferenceable(56) %m_trail)
  %cmp = icmp eq i32 %call, 0
  br i1 %cmp, label %if.then, label %if.end

if.then:                                          ; preds = %entry
  store i1 true, ptr %cleanup.isactive, align 1
  %exception = call ptr @__cxa_allocate_exception(i64 40) #3
  call void @_ZNSaIcEC1Ev(ptr noundef nonnull align 1 dereferenceable(1) %ref.tmp2) #3
  invoke void @_ZNSt7__cxx1112basic_stringIcSt11char_traitsIcESaIcEEC2IS3_EEPKcRKS3_(ptr noundef nonnull align 8 dereferenceable(32) %ref.tmp, ptr noundef @.str, ptr noundef nonnull align 1 dereferenceable(1) %ref.tmp2)
          to label %invoke.cont unwind label %lpad

invoke.cont:                                      ; preds = %if.then
  invoke void @_ZN17default_exceptionC2EONSt7__cxx1112basic_stringIcSt11char_traitsIcESaIcEEE(ptr noundef nonnull align 8 dereferenceable(40) %exception, ptr noundef nonnull align 8 dereferenceable(32) %ref.tmp)
          to label %invoke.cont4 unwind label %lpad3

invoke.cont4:                                     ; preds = %invoke.cont
  store i1 false, ptr %cleanup.isactive, align 1
  invoke void @__cxa_throw(ptr %exception, ptr @_ZTI17default_exception, ptr @_ZN17default_exceptionD2Ev) #15
          to label %unreachable unwind label %lpad3

lpad:                                             ; preds = %if.then
  %0 = landingpad { ptr, i32 }
          cleanup
  %1 = extractvalue { ptr, i32 } %0, 0
  store ptr %1, ptr %exn.slot, align 8
  %2 = extractvalue { ptr, i32 } %0, 1
  store i32 %2, ptr %ehselector.slot, align 4
  br label %ehcleanup

lpad3:                                            ; preds = %invoke.cont4, %invoke.cont
  %3 = landingpad { ptr, i32 }
          cleanup
  %4 = extractvalue { ptr, i32 } %3, 0
  store ptr %4, ptr %exn.slot, align 8
  %5 = extractvalue { ptr, i32 } %3, 1
  store i32 %5, ptr %ehselector.slot, align 4
  call void @_ZNSt7__cxx1112basic_stringIcSt11char_traitsIcESaIcEED1Ev(ptr noundef nonnull align 8 dereferenceable(32) %ref.tmp) #3
  br label %ehcleanup

ehcleanup:                                        ; preds = %lpad3, %lpad
  call void @_ZNSaIcED1Ev(ptr noundef nonnull align 1 dereferenceable(1) %ref.tmp2) #3
  %cleanup.is_active = load i1, ptr %cleanup.isactive, align 1
  br i1 %cleanup.is_active, label %cleanup.action, label %cleanup.done

cleanup.action:                                   ; preds = %ehcleanup
  call void @__cxa_free_exception(ptr %exception) #3
  br label %cleanup.done

cleanup.done:                                     ; preds = %cleanup.action, %ehcleanup
  br label %eh.resume

if.end:                                           ; preds = %entry
  store i1 true, ptr %cleanup.isactive13, align 1
  %exception6 = call ptr @__cxa_allocate_exception(i64 40) #3
  call void @_ZNSaIcEC1Ev(ptr noundef nonnull align 1 dereferenceable(1) %ref.tmp8) #3
  invoke void @_ZNSt7__cxx1112basic_stringIcSt11char_traitsIcESaIcEEC2IS3_EEPKcRKS3_(ptr noundef nonnull align 8 dereferenceable(32) %ref.tmp7, ptr noundef @.str.1, ptr noundef nonnull align 1 dereferenceable(1) %ref.tmp8)
          to label %invoke.cont10 unwind label %lpad9

invoke.cont10:                                    ; preds = %if.end
  invoke void @_ZN17default_exceptionC2EONSt7__cxx1112basic_stringIcSt11char_traitsIcESaIcEEE(ptr noundef nonnull align 8 dereferenceable(40) %exception6, ptr noundef nonnull align 8 dereferenceable(32) %ref.tmp7)
          to label %invoke.cont12 unwind label %lpad11

invoke.cont12:                                    ; preds = %invoke.cont10
  store i1 false, ptr %cleanup.isactive13, align 1
  invoke void @__cxa_throw(ptr %exception6, ptr @_ZTI17default_exception, ptr @_ZN17default_exceptionD2Ev) #15
          to label %unreachable unwind label %lpad11

lpad9:                                            ; preds = %if.end
  %6 = landingpad { ptr, i32 }
          cleanup
  %7 = extractvalue { ptr, i32 } %6, 0
  store ptr %7, ptr %exn.slot, align 8
  %8 = extractvalue { ptr, i32 } %6, 1
  store i32 %8, ptr %ehselector.slot, align 4
  br label %ehcleanup15

lpad11:                                           ; preds = %invoke.cont12, %invoke.cont10
  %9 = landingpad { ptr, i32 }
          cleanup
  %10 = extractvalue { ptr, i32 } %9, 0
  store ptr %10, ptr %exn.slot, align 8
  %11 = extractvalue { ptr, i32 } %9, 1
  store i32 %11, ptr %ehselector.slot, align 4
  call void @_ZNSt7__cxx1112basic_stringIcSt11char_traitsIcESaIcEED1Ev(ptr noundef nonnull align 8 dereferenceable(32) %ref.tmp7) #3
  br label %ehcleanup15

ehcleanup15:                                      ; preds = %lpad11, %lpad9
  call void @_ZNSaIcED1Ev(ptr noundef nonnull align 1 dereferenceable(1) %ref.tmp8) #3
  %cleanup.is_active17 = load i1, ptr %cleanup.isactive13, align 1
  br i1 %cleanup.is_active17, label %cleanup.action18, label %cleanup.done19

cleanup.action18:                                 ; preds = %ehcleanup15
  call void @__cxa_free_exception(ptr %exception6) #3
  br label %cleanup.done19

cleanup.done19:                                   ; preds = %cleanup.action18, %ehcleanup15
  br label %eh.resume

eh.resume:                                        ; preds = %cleanup.done19, %cleanup.done
  %exn = load ptr, ptr %exn.slot, align 8
  %sel = load i32, ptr %ehselector.slot, align 4
  %lpad.val = insertvalue { ptr, i32 } poison, ptr %exn, 0
  %lpad.val20 = insertvalue { ptr, i32 } %lpad.val, i32 %sel, 1
  resume { ptr, i32 } %lpad.val20

unreachable:                                      ; preds = %invoke.cont12, %invoke.cont4
  unreachable
}

; Function Attrs: mustprogress uwtable
define linkonce_odr hidden noundef i32 @_ZNK11trail_stack14get_num_scopesEv(ptr noundef nonnull align 8 dereferenceable(56) %this) #4 comdat align 2 {
entry:
  %this.addr = alloca ptr, align 8
  store ptr %this, ptr %this.addr, align 8
  %this1 = load ptr, ptr %this.addr, align 8
  %m_scopes = getelementptr inbounds %class.trail_stack, ptr %this1, i32 0, i32 1
  %call = call noundef i32 @_ZNK6vectorIjLb0EjE4sizeEv(ptr noundef nonnull align 8 dereferenceable(8) %m_scopes)
  ret i32 %call
}

declare ptr @__cxa_allocate_exception(i64)

; Function Attrs: nounwind
declare void @_ZNSaIcEC1Ev(ptr noundef nonnull align 1 dereferenceable(1)) unnamed_addr #2

; Function Attrs: mustprogress uwtable
define linkonce_odr hidden void @_ZNSt7__cxx1112basic_stringIcSt11char_traitsIcESaIcEEC2IS3_EEPKcRKS3_(ptr noundef nonnull align 8 dereferenceable(32) %this, ptr noundef %__s, ptr noundef nonnull align 1 dereferenceable(1) %__a) unnamed_addr #4 comdat align 2 personality ptr @__gxx_personality_v0 {
entry:
  %this.addr = alloca ptr, align 8
  %__s.addr = alloca ptr, align 8
  %__a.addr = alloca ptr, align 8
  %exn.slot = alloca ptr, align 8
  %ehselector.slot = alloca i32, align 4
  %__end = alloca ptr, align 8
  store ptr %this, ptr %this.addr, align 8
  store ptr %__s, ptr %__s.addr, align 8
  store ptr %__a, ptr %__a.addr, align 8
  %this1 = load ptr, ptr %this.addr, align 8
  %_M_dataplus = getelementptr inbounds %"class.std::__cxx11::basic_string", ptr %this1, i32 0, i32 0
  %call = call noundef ptr @_ZNSt7__cxx1112basic_stringIcSt11char_traitsIcESaIcEE13_M_local_dataEv(ptr noundef nonnull align 8 dereferenceable(32) %this1)
  %0 = load ptr, ptr %__a.addr, align 8
  call void @_ZNSt7__cxx1112basic_stringIcSt11char_traitsIcESaIcEE12_Alloc_hiderC1EPcRKS3_(ptr noundef nonnull align 8 dereferenceable(8) %_M_dataplus, ptr noundef %call, ptr noundef nonnull align 1 dereferenceable(1) %0)
  %1 = load ptr, ptr %__s.addr, align 8
  %cmp = icmp eq ptr %1, null
  br i1 %cmp, label %if.then, label %if.end

if.then:                                          ; preds = %entry
  invoke void @_ZSt19__throw_logic_errorPKc(ptr noundef @.str.304) #15
          to label %invoke.cont unwind label %lpad

invoke.cont:                                      ; preds = %if.then
  unreachable

lpad:                                             ; preds = %invoke.cont2, %if.end, %if.then
  %2 = landingpad { ptr, i32 }
          cleanup
  %3 = extractvalue { ptr, i32 } %2, 0
  store ptr %3, ptr %exn.slot, align 8
  %4 = extractvalue { ptr, i32 } %2, 1
  store i32 %4, ptr %ehselector.slot, align 4
  call void @_ZNSt7__cxx1112basic_stringIcSt11char_traitsIcESaIcEE12_Alloc_hiderD2Ev(ptr noundef nonnull align 8 dereferenceable(8) %_M_dataplus) #3
  br label %eh.resume

if.end:                                           ; preds = %entry
  %5 = load ptr, ptr %__s.addr, align 8
  %6 = load ptr, ptr %__s.addr, align 8
  %call3 = invoke noundef i64 @_ZNSt11char_traitsIcE6lengthEPKc(ptr noundef %6)
          to label %invoke.cont2 unwind label %lpad

invoke.cont2:                                     ; preds = %if.end
  %add.ptr = getelementptr inbounds i8, ptr %5, i64 %call3
  store ptr %add.ptr, ptr %__end, align 8
  %7 = load ptr, ptr %__s.addr, align 8
  %8 = load ptr, ptr %__end, align 8
  invoke void @_ZNSt7__cxx1112basic_stringIcSt11char_traitsIcESaIcEE12_M_constructIPKcEEvT_S8_St20forward_iterator_tag(ptr noundef nonnull align 8 dereferenceable(32) %this1, ptr noundef %7, ptr noundef %8)
          to label %invoke.cont4 unwind label %lpad

invoke.cont4:                                     ; preds = %invoke.cont2
  ret void

eh.resume:                                        ; preds = %lpad
  %exn = load ptr, ptr %exn.slot, align 8
  %sel = load i32, ptr %ehselector.slot, align 4
  %lpad.val = insertvalue { ptr, i32 } poison, ptr %exn, 0
  %lpad.val5 = insertvalue { ptr, i32 } %lpad.val, i32 %sel, 1
  resume { ptr, i32 } %lpad.val5
}

; Function Attrs: mustprogress nounwind uwtable
define linkonce_odr hidden void @_ZN17default_exceptionC2EONSt7__cxx1112basic_stringIcSt11char_traitsIcESaIcEEE(ptr noundef nonnull align 8 dereferenceable(40) %this, ptr noundef nonnull align 8 dereferenceable(32) %msg) unnamed_addr #5 comdat align 2 {
entry:
  %this.addr = alloca ptr, align 8
  %msg.addr = alloca ptr, align 8
  store ptr %this, ptr %this.addr, align 8
  store ptr %msg, ptr %msg.addr, align 8
  %this1 = load ptr, ptr %this.addr, align 8
  call void @_ZN12z3_exceptionC2Ev(ptr noundef nonnull align 8 dereferenceable(8) %this1) #3
  store ptr getelementptr inbounds ({ [6 x ptr] }, ptr @_ZTV17default_exception, i32 0, inrange i32 0, i32 2), ptr %this1, align 8
  %m_msg = getelementptr inbounds %class.default_exception, ptr %this1, i32 0, i32 1
  %0 = load ptr, ptr %msg.addr, align 8
  call void @_ZNSt7__cxx1112basic_stringIcSt11char_traitsIcESaIcEEC1EOS4_(ptr noundef nonnull align 8 dereferenceable(32) %m_msg, ptr noundef nonnull align 8 dereferenceable(32) %0) #3
  ret void
}

; Function Attrs: mustprogress nounwind uwtable
define linkonce_odr hidden void @_ZN17default_exceptionD2Ev(ptr noundef nonnull align 8 dereferenceable(40) %this) unnamed_addr #5 comdat align 2 {
entry:
  %this.addr = alloca ptr, align 8
  store ptr %this, ptr %this.addr, align 8
  %this1 = load ptr, ptr %this.addr, align 8
  store ptr getelementptr inbounds ({ [6 x ptr] }, ptr @_ZTV17default_exception, i32 0, inrange i32 0, i32 2), ptr %this1, align 8
  %m_msg = getelementptr inbounds %class.default_exception, ptr %this1, i32 0, i32 1
  call void @_ZNSt7__cxx1112basic_stringIcSt11char_traitsIcESaIcEED1Ev(ptr noundef nonnull align 8 dereferenceable(32) %m_msg) #3
  call void @_ZN12z3_exceptionD2Ev(ptr noundef nonnull align 8 dereferenceable(8) %this1) #3
  ret void
}

declare void @__cxa_throw(ptr, ptr, ptr)

; Function Attrs: nounwind
declare void @_ZNSt7__cxx1112basic_stringIcSt11char_traitsIcESaIcEED1Ev(ptr noundef nonnull align 8 dereferenceable(32)) unnamed_addr #2

; Function Attrs: nounwind
declare void @_ZNSaIcED1Ev(ptr noundef nonnull align 1 dereferenceable(1)) unnamed_addr #2

declare void @__cxa_free_exception(ptr)

; Function Attrs: mustprogress uwtable
define hidden void @_ZN7datalog7contextC2ER11ast_managerRNS_20register_engine_baseER10smt_paramsRK10params_ref(ptr noundef nonnull align 8 dereferenceable(3556) %this, ptr noundef nonnull align 8 dereferenceable(976) %m, ptr noundef nonnull align 8 dereferenceable(8) %re, ptr noundef nonnull align 8 dereferenceable(800) %fp, ptr noundef nonnull align 8 dereferenceable(8) %pa) unnamed_addr #4 align 2 personality ptr @__gxx_personality_v0 {
entry:
  %this.addr = alloca ptr, align 8
  %m.addr = alloca ptr, align 8
  %re.addr = alloca ptr, align 8
  %fp.addr = alloca ptr, align 8
  %pa.addr = alloca ptr, align 8
  %exn.slot = alloca ptr, align 8
  %ehselector.slot = alloca i32, align 4
  %ref.tmp = alloca %class.params_ref, align 8
  %ref.tmp33 = alloca %struct.symbol_hash_proc, align 1
  %ref.tmp34 = alloca %struct.symbol_eq_proc, align 1
  store ptr %this, ptr %this.addr, align 8
  store ptr %m, ptr %m.addr, align 8
  store ptr %re, ptr %re.addr, align 8
  store ptr %fp, ptr %fp.addr, align 8
  store ptr %pa, ptr %pa.addr, align 8
  %this1 = load ptr, ptr %this.addr, align 8
  %m2 = getelementptr inbounds %"class.datalog::context", ptr %this1, i32 0, i32 0
  %0 = load ptr, ptr %m.addr, align 8
  store ptr %0, ptr %m2, align 8
  %m_register_engine = getelementptr inbounds %"class.datalog::context", ptr %this1, i32 0, i32 1
  %1 = load ptr, ptr %re.addr, align 8
  store ptr %1, ptr %m_register_engine, align 8
  %m_fparams = getelementptr inbounds %"class.datalog::context", ptr %this1, i32 0, i32 2
  %2 = load ptr, ptr %fp.addr, align 8
  store ptr %2, ptr %m_fparams, align 8
  %m_params_ref = getelementptr inbounds %"class.datalog::context", ptr %this1, i32 0, i32 3
  %3 = load ptr, ptr %pa.addr, align 8
  call void @_ZN10params_refC1ERKS_(ptr noundef nonnull align 8 dereferenceable(8) %m_params_ref, ptr noundef nonnull align 8 dereferenceable(8) %3)
  %m_params = getelementptr inbounds %"class.datalog::context", ptr %this1, i32 0, i32 4
  %call = invoke noalias noundef ptr @_ZN6memory8allocateEm(i64 noundef 16)
          to label %invoke.cont unwind label %lpad

invoke.cont:                                      ; preds = %entry
  %m_params_ref3 = getelementptr inbounds %"class.datalog::context", ptr %this1, i32 0, i32 3
  invoke void @_ZN9fp_paramsC2ERK10params_ref(ptr noundef nonnull align 8 dereferenceable(16) %call, ptr noundef nonnull align 8 dereferenceable(8) %m_params_ref3)
          to label %invoke.cont4 unwind label %lpad

invoke.cont4:                                     ; preds = %invoke.cont
  store ptr %call, ptr %m_params, align 8
  %m_default_relation = getelementptr inbounds %"class.datalog::context", ptr %this1, i32 0, i32 8
  invoke void @_ZN6symbolC2Ev(ptr noundef nonnull align 8 dereferenceable(8) %m_default_relation)
          to label %invoke.cont5 unwind label %lpad

invoke.cont5:                                     ; preds = %invoke.cont4
  %m_decl_util = getelementptr inbounds %"class.datalog::context", ptr %this1, i32 0, i32 9
  %4 = load ptr, ptr %m.addr, align 8
  invoke void @_ZN7datalog12dl_decl_utilC1ER11ast_manager(ptr noundef nonnull align 8 dereferenceable(28) %m_decl_util, ptr noundef nonnull align 8 dereferenceable(976) %4)
          to label %invoke.cont6 unwind label %lpad

invoke.cont6:                                     ; preds = %invoke.cont5
  %m_rewriter = getelementptr inbounds %"class.datalog::context", ptr %this1, i32 0, i32 10
  %5 = load ptr, ptr %m.addr, align 8
  invoke void @_ZN10params_refC2Ev(ptr noundef nonnull align 8 dereferenceable(8) %ref.tmp)
          to label %invoke.cont8 unwind label %lpad7

invoke.cont8:                                     ; preds = %invoke.cont6
  invoke void @_ZN11th_rewriterC1ER11ast_managerRK10params_ref(ptr noundef nonnull align 8 dereferenceable(16) %m_rewriter, ptr noundef nonnull align 8 dereferenceable(976) %5, ptr noundef nonnull align 8 dereferenceable(8) %ref.tmp)
          to label %invoke.cont10 unwind label %lpad9

invoke.cont10:                                    ; preds = %invoke.cont8
  call void @_ZN10params_refD1Ev(ptr noundef nonnull align 8 dereferenceable(8) %ref.tmp) #3
  %m_var_subst = getelementptr inbounds %"class.datalog::context", ptr %this1, i32 0, i32 11
  %6 = load ptr, ptr %m.addr, align 8
  invoke void @_ZN9var_substC2ER11ast_managerb(ptr noundef nonnull align 8 dereferenceable(545) %m_var_subst, ptr noundef nonnull align 8 dereferenceable(976) %6, i1 noundef zeroext true)
          to label %invoke.cont12 unwind label %lpad11

invoke.cont12:                                    ; preds = %invoke.cont10
  %m_rule_manager = getelementptr inbounds %"class.datalog::context", ptr %this1, i32 0, i32 12
  invoke void @_ZN7datalog12rule_managerC1ERNS_7contextE(ptr noundef nonnull align 8 dereferenceable(1368) %m_rule_manager, ptr noundef nonnull align 8 dereferenceable(3556) %this1)
          to label %invoke.cont14 unwind label %lpad13

invoke.cont14:                                    ; preds = %invoke.cont12
  %m_contains_p = getelementptr inbounds %"class.datalog::context", ptr %this1, i32 0, i32 13
  invoke void @_ZN7datalog7context13contains_predC2ERS0_(ptr noundef nonnull align 8 dereferenceable(16) %m_contains_p, ptr noundef nonnull align 8 dereferenceable(3556) %this1)
          to label %invoke.cont16 unwind label %lpad15

invoke.cont16:                                    ; preds = %invoke.cont14
  %m_rule_properties = getelementptr inbounds %"class.datalog::context", ptr %this1, i32 0, i32 14
  %7 = load ptr, ptr %m.addr, align 8
  %m_rule_manager17 = getelementptr inbounds %"class.datalog::context", ptr %this1, i32 0, i32 12
  %m_contains_p18 = getelementptr inbounds %"class.datalog::context", ptr %this1, i32 0, i32 13
  invoke void @_ZN7datalog15rule_propertiesC1ER11ast_managerRNS_12rule_managerERNS_7contextER11i_expr_pred(ptr noundef nonnull align 8 dereferenceable(522) %m_rule_properties, ptr noundef nonnull align 8 dereferenceable(976) %7, ptr noundef nonnull align 8 dereferenceable(1368) %m_rule_manager17, ptr noundef nonnull align 8 dereferenceable(3556) %this1, ptr noundef nonnull align 8 dereferenceable(8) %m_contains_p18)
          to label %invoke.cont20 unwind label %lpad19

invoke.cont20:                                    ; preds = %invoke.cont16
  %m_transf = getelementptr inbounds %"class.datalog::context", ptr %this1, i32 0, i32 15
  invoke void @_ZN7datalog16rule_transformerC1ERNS_7contextE(ptr noundef nonnull align 8 dereferenceable(32) %m_transf, ptr noundef nonnull align 8 dereferenceable(3556) %this1)
          to label %invoke.cont22 unwind label %lpad21

invoke.cont22:                                    ; preds = %invoke.cont20
  %m_trail = getelementptr inbounds %"class.datalog::context", ptr %this1, i32 0, i32 16
  call void @llvm.memset.p0.i64(ptr align 8 %m_trail, i8 0, i64 56, i1 false)
  invoke void @_ZN11trail_stackC2Ev(ptr noundef nonnull align 8 dereferenceable(56) %m_trail)
          to label %invoke.cont24 unwind label %lpad23

invoke.cont24:                                    ; preds = %invoke.cont22
  %m_pinned = getelementptr inbounds %"class.datalog::context", ptr %this1, i32 0, i32 17
  %8 = load ptr, ptr %m.addr, align 8
  invoke void @_ZN10ref_vectorI3ast11ast_managerEC2ERS1_(ptr noundef nonnull align 8 dereferenceable(16) %m_pinned, ptr noundef nonnull align 8 dereferenceable(976) %8)
          to label %invoke.cont26 unwind label %lpad25

invoke.cont26:                                    ; preds = %invoke.cont24
  %m_bind_variables = getelementptr inbounds %"class.datalog::context", ptr %this1, i32 0, i32 18
  %9 = load ptr, ptr %m.addr, align 8
  invoke void @_ZN14bind_variablesC1ER11ast_manager(ptr noundef nonnull align 8 dereferenceable(120) %m_bind_variables, ptr noundef nonnull align 8 dereferenceable(976) %9)
          to label %invoke.cont28 unwind label %lpad27

invoke.cont28:                                    ; preds = %invoke.cont26
  %m_sorts = getelementptr inbounds %"class.datalog::context", ptr %this1, i32 0, i32 19
  invoke void @_ZN7obj_mapIK4sortPN7datalog7context11sort_domainEEC2Ev(ptr noundef nonnull align 8 dereferenceable(24) %m_sorts)
          to label %invoke.cont30 unwind label %lpad29

invoke.cont30:                                    ; preds = %invoke.cont28
  %m_preds = getelementptr inbounds %"class.datalog::context", ptr %this1, i32 0, i32 20
  invoke void @_ZN13obj_hashtableI9func_declEC2Ej(ptr noundef nonnull align 8 dereferenceable(20) %m_preds, i32 noundef 8)
          to label %invoke.cont32 unwind label %lpad31

invoke.cont32:                                    ; preds = %invoke.cont30
  %m_preds_by_name = getelementptr inbounds %"class.datalog::context", ptr %this1, i32 0, i32 21
  invoke void @_ZN3mapI6symbolP9func_decl16symbol_hash_proc14symbol_eq_procEC2ERKS3_RKS4_(ptr noundef nonnull align 8 dereferenceable(24) %m_preds_by_name, ptr noundef nonnull align 1 dereferenceable(1) %ref.tmp33, ptr noundef nonnull align 1 dereferenceable(1) %ref.tmp34)
          to label %invoke.cont36 unwind label %lpad35

invoke.cont36:                                    ; preds = %invoke.cont32
  %m_argument_var_names = getelementptr inbounds %"class.datalog::context", ptr %this1, i32 0, i32 22
  invoke void @_ZN7obj_mapIK9func_decl7svectorI6symboljEEC2Ev(ptr noundef nonnull align 8 dereferenceable(24) %m_argument_var_names)
          to label %invoke.cont38 unwind label %lpad37

invoke.cont38:                                    ; preds = %invoke.cont36
  %m_rule_set = getelementptr inbounds %"class.datalog::context", ptr %this1, i32 0, i32 23
  invoke void @_ZN7datalog8rule_setC1ERNS_7contextE(ptr noundef nonnull align 8 dereferenceable(248) %m_rule_set, ptr noundef nonnull align 8 dereferenceable(3556) %this1)
          to label %invoke.cont40 unwind label %lpad39

invoke.cont40:                                    ; preds = %invoke.cont38
  %m_transformed_rule_set = getelementptr inbounds %"class.datalog::context", ptr %this1, i32 0, i32 24
  invoke void @_ZN7datalog8rule_setC1ERNS_7contextE(ptr noundef nonnull align 8 dereferenceable(248) %m_transformed_rule_set, ptr noundef nonnull align 8 dereferenceable(3556) %this1)
          to label %invoke.cont42 unwind label %lpad41

invoke.cont42:                                    ; preds = %invoke.cont40
  %m_free_vars = getelementptr inbounds %"class.datalog::context", ptr %this1, i32 0, i32 25
  invoke void @_ZN14expr_free_varsC2Ev(ptr noundef nonnull align 8 dereferenceable(40) %m_free_vars)
          to label %invoke.cont44 unwind label %lpad43

invoke.cont44:                                    ; preds = %invoke.cont42
  %m_rule_fmls_head = getelementptr inbounds %"class.datalog::context", ptr %this1, i32 0, i32 26
  store i32 0, ptr %m_rule_fmls_head, align 8
  %m_rule_fmls = getelementptr inbounds %"class.datalog::context", ptr %this1, i32 0, i32 28
  %10 = load ptr, ptr %m.addr, align 8
  invoke void @_ZN10ref_vectorI4expr11ast_managerEC2ERS1_(ptr noundef nonnull align 8 dereferenceable(16) %m_rule_fmls, ptr noundef nonnull align 8 dereferenceable(976) %10)
          to label %invoke.cont46 unwind label %lpad45

invoke.cont46:                                    ; preds = %invoke.cont44
  %m_rule_names = getelementptr inbounds %"class.datalog::context", ptr %this1, i32 0, i32 29
  invoke void @_ZN7svectorI6symboljEC2Ev(ptr noundef nonnull align 8 dereferenceable(8) %m_rule_names)
          to label %invoke.cont48 unwind label %lpad47

invoke.cont48:                                    ; preds = %invoke.cont46
  %m_rule_bounds = getelementptr inbounds %"class.datalog::context", ptr %this1, i32 0, i32 30
  call void @_ZN6vectorIjLb1EjEC2Ev(ptr noundef nonnull align 8 dereferenceable(8) %m_rule_bounds) #3
  %m_background = getelementptr inbounds %"class.datalog::context", ptr %this1, i32 0, i32 31
  %11 = load ptr, ptr %m.addr, align 8
  invoke void @_ZN10ref_vectorI4expr11ast_managerEC2ERS1_(ptr noundef nonnull align 8 dereferenceable(16) %m_background, ptr noundef nonnull align 8 dereferenceable(976) %11)
          to label %invoke.cont50 unwind label %lpad49

invoke.cont50:                                    ; preds = %invoke.cont48
  %m_mc = getelementptr inbounds %"class.datalog::context", ptr %this1, i32 0, i32 32
  invoke void @_ZN3refI15model_converterEC2EPS0_(ptr noundef nonnull align 8 dereferenceable(8) %m_mc, ptr noundef null)
          to label %invoke.cont52 unwind label %lpad51

invoke.cont52:                                    ; preds = %invoke.cont50
  %m_pc = getelementptr inbounds %"class.datalog::context", ptr %this1, i32 0, i32 33
  invoke void @_ZN3refI15proof_converterEC2Ev(ptr noundef nonnull align 8 dereferenceable(8) %m_pc)
          to label %invoke.cont54 unwind label %lpad53

invoke.cont54:                                    ; preds = %invoke.cont52
  %m_rel = getelementptr inbounds %"class.datalog::context", ptr %this1, i32 0, i32 34
  store ptr null, ptr %m_rel, align 8
  %m_engine = getelementptr inbounds %"class.datalog::context", ptr %this1, i32 0, i32 35
  invoke void @_ZN10scoped_ptrIN7datalog11engine_baseEEC2EPS1_(ptr noundef nonnull align 8 dereferenceable(8) %m_engine, ptr noundef null)
          to label %invoke.cont56 unwind label %lpad55

invoke.cont56:                                    ; preds = %invoke.cont54
  %m_closed = getelementptr inbounds %"class.datalog::context", ptr %this1, i32 0, i32 36
  store i8 0, ptr %m_closed, align 8
  %m_saturation_was_run = getelementptr inbounds %"class.datalog::context", ptr %this1, i32 0, i32 37
  store i8 0, ptr %m_saturation_was_run, align 1
  %m_enable_bind_variables = getelementptr inbounds %"class.datalog::context", ptr %this1, i32 0, i32 38
  store i8 1, ptr %m_enable_bind_variables, align 2
  %m_last_status = getelementptr inbounds %"class.datalog::context", ptr %this1, i32 0, i32 40
  store i32 0, ptr %m_last_status, align 4
  %m_last_answer = getelementptr inbounds %"class.datalog::context", ptr %this1, i32 0, i32 41
  %12 = load ptr, ptr %m.addr, align 8
  invoke void @_ZN7obj_refI4expr11ast_managerEC2ERS1_(ptr noundef nonnull align 8 dereferenceable(16) %m_last_answer, ptr noundef nonnull align 8 dereferenceable(976) %12)
          to label %invoke.cont58 unwind label %lpad57

invoke.cont58:                                    ; preds = %invoke.cont56
  %m_last_ground_answer = getelementptr inbounds %"class.datalog::context", ptr %this1, i32 0, i32 42
  %13 = load ptr, ptr %m.addr, align 8
  invoke void @_ZN7obj_refI4expr11ast_managerEC2ERS1_(ptr noundef nonnull align 8 dereferenceable(16) %m_last_ground_answer, ptr noundef nonnull align 8 dereferenceable(976) %13)
          to label %invoke.cont60 unwind label %lpad59

invoke.cont60:                                    ; preds = %invoke.cont58
  %m_engine_type = getelementptr inbounds %"class.datalog::context", ptr %this1, i32 0, i32 43
  store i32 7, ptr %m_engine_type, align 8
  %14 = load ptr, ptr %re.addr, align 8
  %vtable = load ptr, ptr %14, align 8
  %vfn = getelementptr inbounds ptr, ptr %vtable, i64 3
  %15 = load ptr, ptr %vfn, align 8
  invoke void %15(ptr noundef nonnull align 8 dereferenceable(8) %14, ptr noundef %this1)
          to label %invoke.cont62 unwind label %lpad61

invoke.cont62:                                    ; preds = %invoke.cont60
  %16 = load ptr, ptr %pa.addr, align 8
  invoke void @_ZN7datalog7context11updt_paramsERK10params_ref(ptr noundef nonnull align 8 dereferenceable(3556) %this1, ptr noundef nonnull align 8 dereferenceable(8) %16)
          to label %invoke.cont63 unwind label %lpad61

invoke.cont63:                                    ; preds = %invoke.cont62
  ret void

lpad:                                             ; preds = %invoke.cont5, %invoke.cont4, %invoke.cont, %entry
  %17 = landingpad { ptr, i32 }
          cleanup
  %18 = extractvalue { ptr, i32 } %17, 0
  store ptr %18, ptr %exn.slot, align 8
  %19 = extractvalue { ptr, i32 } %17, 1
  store i32 %19, ptr %ehselector.slot, align 4
  br label %ehcleanup88

lpad7:                                            ; preds = %invoke.cont6
  %20 = landingpad { ptr, i32 }
          cleanup
  %21 = extractvalue { ptr, i32 } %20, 0
  store ptr %21, ptr %exn.slot, align 8
  %22 = extractvalue { ptr, i32 } %20, 1
  store i32 %22, ptr %ehselector.slot, align 4
  br label %ehcleanup87

lpad9:                                            ; preds = %invoke.cont8
  %23 = landingpad { ptr, i32 }
          cleanup
  %24 = extractvalue { ptr, i32 } %23, 0
  store ptr %24, ptr %exn.slot, align 8
  %25 = extractvalue { ptr, i32 } %23, 1
  store i32 %25, ptr %ehselector.slot, align 4
  call void @_ZN10params_refD1Ev(ptr noundef nonnull align 8 dereferenceable(8) %ref.tmp) #3
  br label %ehcleanup87

lpad11:                                           ; preds = %invoke.cont10
  %26 = landingpad { ptr, i32 }
          cleanup
  %27 = extractvalue { ptr, i32 } %26, 0
  store ptr %27, ptr %exn.slot, align 8
  %28 = extractvalue { ptr, i32 } %26, 1
  store i32 %28, ptr %ehselector.slot, align 4
  br label %ehcleanup86

lpad13:                                           ; preds = %invoke.cont12
  %29 = landingpad { ptr, i32 }
          cleanup
  %30 = extractvalue { ptr, i32 } %29, 0
  store ptr %30, ptr %exn.slot, align 8
  %31 = extractvalue { ptr, i32 } %29, 1
  store i32 %31, ptr %ehselector.slot, align 4
  br label %ehcleanup85

lpad15:                                           ; preds = %invoke.cont14
  %32 = landingpad { ptr, i32 }
          cleanup
  %33 = extractvalue { ptr, i32 } %32, 0
  store ptr %33, ptr %exn.slot, align 8
  %34 = extractvalue { ptr, i32 } %32, 1
  store i32 %34, ptr %ehselector.slot, align 4
  br label %ehcleanup84

lpad19:                                           ; preds = %invoke.cont16
  %35 = landingpad { ptr, i32 }
          cleanup
  %36 = extractvalue { ptr, i32 } %35, 0
  store ptr %36, ptr %exn.slot, align 8
  %37 = extractvalue { ptr, i32 } %35, 1
  store i32 %37, ptr %ehselector.slot, align 4
  br label %ehcleanup83

lpad21:                                           ; preds = %invoke.cont20
  %38 = landingpad { ptr, i32 }
          cleanup
  %39 = extractvalue { ptr, i32 } %38, 0
  store ptr %39, ptr %exn.slot, align 8
  %40 = extractvalue { ptr, i32 } %38, 1
  store i32 %40, ptr %ehselector.slot, align 4
  br label %ehcleanup82

lpad23:                                           ; preds = %invoke.cont22
  %41 = landingpad { ptr, i32 }
          cleanup
  %42 = extractvalue { ptr, i32 } %41, 0
  store ptr %42, ptr %exn.slot, align 8
  %43 = extractvalue { ptr, i32 } %41, 1
  store i32 %43, ptr %ehselector.slot, align 4
  br label %ehcleanup81

lpad25:                                           ; preds = %invoke.cont24
  %44 = landingpad { ptr, i32 }
          cleanup
  %45 = extractvalue { ptr, i32 } %44, 0
  store ptr %45, ptr %exn.slot, align 8
  %46 = extractvalue { ptr, i32 } %44, 1
  store i32 %46, ptr %ehselector.slot, align 4
  br label %ehcleanup80

lpad27:                                           ; preds = %invoke.cont26
  %47 = landingpad { ptr, i32 }
          cleanup
  %48 = extractvalue { ptr, i32 } %47, 0
  store ptr %48, ptr %exn.slot, align 8
  %49 = extractvalue { ptr, i32 } %47, 1
  store i32 %49, ptr %ehselector.slot, align 4
  br label %ehcleanup79

lpad29:                                           ; preds = %invoke.cont28
  %50 = landingpad { ptr, i32 }
          cleanup
  %51 = extractvalue { ptr, i32 } %50, 0
  store ptr %51, ptr %exn.slot, align 8
  %52 = extractvalue { ptr, i32 } %50, 1
  store i32 %52, ptr %ehselector.slot, align 4
  br label %ehcleanup78

lpad31:                                           ; preds = %invoke.cont30
  %53 = landingpad { ptr, i32 }
          cleanup
  %54 = extractvalue { ptr, i32 } %53, 0
  store ptr %54, ptr %exn.slot, align 8
  %55 = extractvalue { ptr, i32 } %53, 1
  store i32 %55, ptr %ehselector.slot, align 4
  br label %ehcleanup77

lpad35:                                           ; preds = %invoke.cont32
  %56 = landingpad { ptr, i32 }
          cleanup
  %57 = extractvalue { ptr, i32 } %56, 0
  store ptr %57, ptr %exn.slot, align 8
  %58 = extractvalue { ptr, i32 } %56, 1
  store i32 %58, ptr %ehselector.slot, align 4
  br label %ehcleanup76

lpad37:                                           ; preds = %invoke.cont36
  %59 = landingpad { ptr, i32 }
          cleanup
  %60 = extractvalue { ptr, i32 } %59, 0
  store ptr %60, ptr %exn.slot, align 8
  %61 = extractvalue { ptr, i32 } %59, 1
  store i32 %61, ptr %ehselector.slot, align 4
  br label %ehcleanup75

lpad39:                                           ; preds = %invoke.cont38
  %62 = landingpad { ptr, i32 }
          cleanup
  %63 = extractvalue { ptr, i32 } %62, 0
  store ptr %63, ptr %exn.slot, align 8
  %64 = extractvalue { ptr, i32 } %62, 1
  store i32 %64, ptr %ehselector.slot, align 4
  br label %ehcleanup74

lpad41:                                           ; preds = %invoke.cont40
  %65 = landingpad { ptr, i32 }
          cleanup
  %66 = extractvalue { ptr, i32 } %65, 0
  store ptr %66, ptr %exn.slot, align 8
  %67 = extractvalue { ptr, i32 } %65, 1
  store i32 %67, ptr %ehselector.slot, align 4
  br label %ehcleanup73

lpad43:                                           ; preds = %invoke.cont42
  %68 = landingpad { ptr, i32 }
          cleanup
  %69 = extractvalue { ptr, i32 } %68, 0
  store ptr %69, ptr %exn.slot, align 8
  %70 = extractvalue { ptr, i32 } %68, 1
  store i32 %70, ptr %ehselector.slot, align 4
  br label %ehcleanup72

lpad45:                                           ; preds = %invoke.cont44
  %71 = landingpad { ptr, i32 }
          cleanup
  %72 = extractvalue { ptr, i32 } %71, 0
  store ptr %72, ptr %exn.slot, align 8
  %73 = extractvalue { ptr, i32 } %71, 1
  store i32 %73, ptr %ehselector.slot, align 4
  br label %ehcleanup71

lpad47:                                           ; preds = %invoke.cont46
  %74 = landingpad { ptr, i32 }
          cleanup
  %75 = extractvalue { ptr, i32 } %74, 0
  store ptr %75, ptr %exn.slot, align 8
  %76 = extractvalue { ptr, i32 } %74, 1
  store i32 %76, ptr %ehselector.slot, align 4
  br label %ehcleanup70

lpad49:                                           ; preds = %invoke.cont48
  %77 = landingpad { ptr, i32 }
          cleanup
  %78 = extractvalue { ptr, i32 } %77, 0
  store ptr %78, ptr %exn.slot, align 8
  %79 = extractvalue { ptr, i32 } %77, 1
  store i32 %79, ptr %ehselector.slot, align 4
  br label %ehcleanup68

lpad51:                                           ; preds = %invoke.cont50
  %80 = landingpad { ptr, i32 }
          cleanup
  %81 = extractvalue { ptr, i32 } %80, 0
  store ptr %81, ptr %exn.slot, align 8
  %82 = extractvalue { ptr, i32 } %80, 1
  store i32 %82, ptr %ehselector.slot, align 4
  br label %ehcleanup67

lpad53:                                           ; preds = %invoke.cont52
  %83 = landingpad { ptr, i32 }
          cleanup
  %84 = extractvalue { ptr, i32 } %83, 0
  store ptr %84, ptr %exn.slot, align 8
  %85 = extractvalue { ptr, i32 } %83, 1
  store i32 %85, ptr %ehselector.slot, align 4
  br label %ehcleanup66

lpad55:                                           ; preds = %invoke.cont54
  %86 = landingpad { ptr, i32 }
          cleanup
  %87 = extractvalue { ptr, i32 } %86, 0
  store ptr %87, ptr %exn.slot, align 8
  %88 = extractvalue { ptr, i32 } %86, 1
  store i32 %88, ptr %ehselector.slot, align 4
  br label %ehcleanup65

lpad57:                                           ; preds = %invoke.cont56
  %89 = landingpad { ptr, i32 }
          cleanup
  %90 = extractvalue { ptr, i32 } %89, 0
  store ptr %90, ptr %exn.slot, align 8
  %91 = extractvalue { ptr, i32 } %89, 1
  store i32 %91, ptr %ehselector.slot, align 4
  br label %ehcleanup64

lpad59:                                           ; preds = %invoke.cont58
  %92 = landingpad { ptr, i32 }
          cleanup
  %93 = extractvalue { ptr, i32 } %92, 0
  store ptr %93, ptr %exn.slot, align 8
  %94 = extractvalue { ptr, i32 } %92, 1
  store i32 %94, ptr %ehselector.slot, align 4
  br label %ehcleanup

lpad61:                                           ; preds = %invoke.cont62, %invoke.cont60
  %95 = landingpad { ptr, i32 }
          cleanup
  %96 = extractvalue { ptr, i32 } %95, 0
  store ptr %96, ptr %exn.slot, align 8
  %97 = extractvalue { ptr, i32 } %95, 1
  store i32 %97, ptr %ehselector.slot, align 4
  call void @_ZN7obj_refI4expr11ast_managerED2Ev(ptr noundef nonnull align 8 dereferenceable(16) %m_last_ground_answer) #3
  br label %ehcleanup

ehcleanup:                                        ; preds = %lpad61, %lpad59
  call void @_ZN7obj_refI4expr11ast_managerED2Ev(ptr noundef nonnull align 8 dereferenceable(16) %m_last_answer) #3
  br label %ehcleanup64

ehcleanup64:                                      ; preds = %ehcleanup, %lpad57
  call void @_ZN10scoped_ptrIN7datalog11engine_baseEED2Ev(ptr noundef nonnull align 8 dereferenceable(8) %m_engine) #3
  br label %ehcleanup65

ehcleanup65:                                      ; preds = %ehcleanup64, %lpad55
  call void @_ZN3refI15proof_converterED2Ev(ptr noundef nonnull align 8 dereferenceable(8) %m_pc) #3
  br label %ehcleanup66

ehcleanup66:                                      ; preds = %ehcleanup65, %lpad53
  call void @_ZN3refI15model_converterED2Ev(ptr noundef nonnull align 8 dereferenceable(8) %m_mc) #3
  br label %ehcleanup67

ehcleanup67:                                      ; preds = %ehcleanup66, %lpad51
  call void @_ZN10ref_vectorI4expr11ast_managerED2Ev(ptr noundef nonnull align 8 dereferenceable(16) %m_background) #3
  br label %ehcleanup68

ehcleanup68:                                      ; preds = %ehcleanup67, %lpad49
  call void @_ZN6vectorIjLb1EjED2Ev(ptr noundef nonnull align 8 dereferenceable(8) %m_rule_bounds) #3
  call void @_ZN7svectorI6symboljED2Ev(ptr noundef nonnull align 8 dereferenceable(8) %m_rule_names) #3
  br label %ehcleanup70

ehcleanup70:                                      ; preds = %ehcleanup68, %lpad47
  call void @_ZN10ref_vectorI4expr11ast_managerED2Ev(ptr noundef nonnull align 8 dereferenceable(16) %m_rule_fmls) #3
  br label %ehcleanup71

ehcleanup71:                                      ; preds = %ehcleanup70, %lpad45
  call void @_ZN14expr_free_varsD2Ev(ptr noundef nonnull align 8 dereferenceable(40) %m_free_vars) #3
  br label %ehcleanup72

ehcleanup72:                                      ; preds = %ehcleanup71, %lpad43
  call void @_ZN7datalog8rule_setD1Ev(ptr noundef nonnull align 8 dereferenceable(248) %m_transformed_rule_set) #3
  br label %ehcleanup73

ehcleanup73:                                      ; preds = %ehcleanup72, %lpad41
  call void @_ZN7datalog8rule_setD1Ev(ptr noundef nonnull align 8 dereferenceable(248) %m_rule_set) #3
  br label %ehcleanup74

ehcleanup74:                                      ; preds = %ehcleanup73, %lpad39
  call void @_ZN7obj_mapIK9func_decl7svectorI6symboljEED2Ev(ptr noundef nonnull align 8 dereferenceable(24) %m_argument_var_names) #3
  br label %ehcleanup75

ehcleanup75:                                      ; preds = %ehcleanup74, %lpad37
  call void @_ZN3mapI6symbolP9func_decl16symbol_hash_proc14symbol_eq_procED2Ev(ptr noundef nonnull align 8 dereferenceable(24) %m_preds_by_name) #3
  br label %ehcleanup76

ehcleanup76:                                      ; preds = %ehcleanup75, %lpad35
  call void @_ZN13obj_hashtableI9func_declED2Ev(ptr noundef nonnull align 8 dereferenceable(20) %m_preds) #3
  br label %ehcleanup77

ehcleanup77:                                      ; preds = %ehcleanup76, %lpad31
  call void @_ZN7obj_mapIK4sortPN7datalog7context11sort_domainEED2Ev(ptr noundef nonnull align 8 dereferenceable(24) %m_sorts) #3
  br label %ehcleanup78

ehcleanup78:                                      ; preds = %ehcleanup77, %lpad29
  call void @_ZN14bind_variablesD1Ev(ptr noundef nonnull align 8 dereferenceable(120) %m_bind_variables) #3
  br label %ehcleanup79

ehcleanup79:                                      ; preds = %ehcleanup78, %lpad27
  call void @_ZN10ref_vectorI3ast11ast_managerED2Ev(ptr noundef nonnull align 8 dereferenceable(16) %m_pinned) #3
  br label %ehcleanup80

ehcleanup80:                                      ; preds = %ehcleanup79, %lpad25
  call void @_ZN11trail_stackD2Ev(ptr noundef nonnull align 8 dereferenceable(56) %m_trail) #3
  br label %ehcleanup81

ehcleanup81:                                      ; preds = %ehcleanup80, %lpad23
  call void @_ZN7datalog16rule_transformerD1Ev(ptr noundef nonnull align 8 dereferenceable(32) %m_transf) #3
  br label %ehcleanup82

ehcleanup82:                                      ; preds = %ehcleanup81, %lpad21
  call void @_ZN7datalog15rule_propertiesD1Ev(ptr noundef nonnull align 8 dereferenceable(522) %m_rule_properties) #3
  br label %ehcleanup83

ehcleanup83:                                      ; preds = %ehcleanup82, %lpad19
  call void @_ZN7datalog7context13contains_predD2Ev(ptr noundef nonnull align 8 dereferenceable(16) %m_contains_p) #3
  br label %ehcleanup84

ehcleanup84:                                      ; preds = %ehcleanup83, %lpad15
  call void @_ZN7datalog12rule_managerD2Ev(ptr noundef nonnull align 8 dereferenceable(1368) %m_rule_manager) #3
  br label %ehcleanup85

ehcleanup85:                                      ; preds = %ehcleanup84, %lpad13
  call void @_ZN9var_substD2Ev(ptr noundef nonnull align 8 dereferenceable(545) %m_var_subst) #3
  br label %ehcleanup86

ehcleanup86:                                      ; preds = %ehcleanup85, %lpad11
  call void @_ZN11th_rewriterD1Ev(ptr noundef nonnull align 8 dereferenceable(16) %m_rewriter) #3
  br label %ehcleanup87

ehcleanup87:                                      ; preds = %ehcleanup86, %lpad9, %lpad7
  call void @_ZN7datalog12dl_decl_utilD2Ev(ptr noundef nonnull align 8 dereferenceable(28) %m_decl_util) #3
  br label %ehcleanup88

ehcleanup88:                                      ; preds = %ehcleanup87, %lpad
  call void @_ZN10params_refD1Ev(ptr noundef nonnull align 8 dereferenceable(8) %m_params_ref) #3
  br label %eh.resume

eh.resume:                                        ; preds = %ehcleanup88
  %exn = load ptr, ptr %exn.slot, align 8
  %sel = load i32, ptr %ehselector.slot, align 4
  %lpad.val = insertvalue { ptr, i32 } poison, ptr %exn, 0
  %lpad.val89 = insertvalue { ptr, i32 } %lpad.val, i32 %sel, 1
  resume { ptr, i32 } %lpad.val89
}

declare void @_ZN10params_refC1ERKS_(ptr noundef nonnull align 8 dereferenceable(8), ptr noundef nonnull align 8 dereferenceable(8)) unnamed_addr #1

declare noalias noundef ptr @_ZN6memory8allocateEm(i64 noundef) #1

; Function Attrs: mustprogress uwtable
define linkonce_odr hidden void @_ZN9fp_paramsC2ERK10params_ref(ptr noundef nonnull align 8 dereferenceable(16) %this, ptr noundef nonnull align 8 dereferenceable(8) %_p) unnamed_addr #4 comdat align 2 {
entry:
  %this.addr = alloca ptr, align 8
  %_p.addr = alloca ptr, align 8
  store ptr %this, ptr %this.addr, align 8
  store ptr %_p, ptr %_p.addr, align 8
  %this1 = load ptr, ptr %this.addr, align 8
  %p = getelementptr inbounds %struct.fp_params, ptr %this1, i32 0, i32 0
  %0 = load ptr, ptr %_p.addr, align 8
  store ptr %0, ptr %p, align 8
  %g = getelementptr inbounds %struct.fp_params, ptr %this1, i32 0, i32 1
  call void @_ZN7gparams10get_moduleEPKc(ptr sret(%class.params_ref) align 8 %g, ptr noundef @.str.45)
  ret void
}

; Function Attrs: mustprogress nounwind uwtable
define linkonce_odr hidden void @_ZN6symbolC2Ev(ptr noundef nonnull align 8 dereferenceable(8) %this) unnamed_addr #5 comdat align 2 {
entry:
  %this.addr = alloca ptr, align 8
  store ptr %this, ptr %this.addr, align 8
  %this1 = load ptr, ptr %this.addr, align 8
  %m_data = getelementptr inbounds %class.symbol, ptr %this1, i32 0, i32 0
  store ptr null, ptr %m_data, align 8
  ret void
}

declare void @_ZN7datalog12dl_decl_utilC1ER11ast_manager(ptr noundef nonnull align 8 dereferenceable(28), ptr noundef nonnull align 8 dereferenceable(976)) unnamed_addr #1

; Function Attrs: mustprogress nounwind uwtable
define linkonce_odr hidden void @_ZN10params_refC2Ev(ptr noundef nonnull align 8 dereferenceable(8) %this) unnamed_addr #5 comdat align 2 {
entry:
  %this.addr = alloca ptr, align 8
  store ptr %this, ptr %this.addr, align 8
  %this1 = load ptr, ptr %this.addr, align 8
  %m_params = getelementptr inbounds %class.params_ref, ptr %this1, i32 0, i32 0
  store ptr null, ptr %m_params, align 8
  ret void
}

declare void @_ZN11th_rewriterC1ER11ast_managerRK10params_ref(ptr noundef nonnull align 8 dereferenceable(16), ptr noundef nonnull align 8 dereferenceable(976), ptr noundef nonnull align 8 dereferenceable(8)) unnamed_addr #1

; Function Attrs: nounwind
declare void @_ZN10params_refD1Ev(ptr noundef nonnull align 8 dereferenceable(8)) unnamed_addr #2

; Function Attrs: mustprogress uwtable
define linkonce_odr hidden void @_ZN9var_substC2ER11ast_managerb(ptr noundef nonnull align 8 dereferenceable(545) %this, ptr noundef nonnull align 8 dereferenceable(976) %m, i1 noundef zeroext %std_order) unnamed_addr #4 comdat align 2 {
entry:
  %this.addr = alloca ptr, align 8
  %m.addr = alloca ptr, align 8
  %std_order.addr = alloca i8, align 1
  store ptr %this, ptr %this.addr, align 8
  store ptr %m, ptr %m.addr, align 8
  %frombool = zext i1 %std_order to i8
  store i8 %frombool, ptr %std_order.addr, align 1
  %this1 = load ptr, ptr %this.addr, align 8
  %m_reducer = getelementptr inbounds %class.var_subst, ptr %this1, i32 0, i32 0
  %0 = load ptr, ptr %m.addr, align 8
  call void @_ZN12beta_reducerC2ER11ast_manager(ptr noundef nonnull align 8 dereferenceable(537) %m_reducer, ptr noundef nonnull align 8 dereferenceable(976) %0)
  %m_std_order = getelementptr inbounds %class.var_subst, ptr %this1, i32 0, i32 1
  %1 = load i8, ptr %std_order.addr, align 1
  %tobool = trunc i8 %1 to i1
  %frombool2 = zext i1 %tobool to i8
  store i8 %frombool2, ptr %m_std_order, align 8
  ret void
}

declare void @_ZN7datalog12rule_managerC1ERNS_7contextE(ptr noundef nonnull align 8 dereferenceable(1368), ptr noundef nonnull align 8 dereferenceable(3556)) unnamed_addr #1

; Function Attrs: mustprogress nounwind uwtable
define linkonce_odr hidden void @_ZN7datalog7context13contains_predC2ERS0_(ptr noundef nonnull align 8 dereferenceable(16) %this, ptr noundef nonnull align 8 dereferenceable(3556) %ctx) unnamed_addr #5 comdat align 2 {
entry:
  %this.addr = alloca ptr, align 8
  %ctx.addr = alloca ptr, align 8
  store ptr %this, ptr %this.addr, align 8
  store ptr %ctx, ptr %ctx.addr, align 8
  %this1 = load ptr, ptr %this.addr, align 8
  call void @_ZN11i_expr_predC2Ev(ptr noundef nonnull align 8 dereferenceable(8) %this1) #3
  store ptr getelementptr inbounds ({ [5 x ptr] }, ptr @_ZTVN7datalog7context13contains_predE, i32 0, inrange i32 0, i32 2), ptr %this1, align 8
  %ctx2 = getelementptr inbounds %"class.datalog::context::contains_pred", ptr %this1, i32 0, i32 1
  %0 = load ptr, ptr %ctx.addr, align 8
  store ptr %0, ptr %ctx2, align 8
  ret void
}

declare void @_ZN7datalog15rule_propertiesC1ER11ast_managerRNS_12rule_managerERNS_7contextER11i_expr_pred(ptr noundef nonnull align 8 dereferenceable(522), ptr noundef nonnull align 8 dereferenceable(976), ptr noundef nonnull align 8 dereferenceable(1368), ptr noundef nonnull align 8 dereferenceable(3556), ptr noundef nonnull align 8 dereferenceable(8)) unnamed_addr #1

declare void @_ZN7datalog16rule_transformerC1ERNS_7contextE(ptr noundef nonnull align 8 dereferenceable(32), ptr noundef nonnull align 8 dereferenceable(3556)) unnamed_addr #1

; Function Attrs: nocallback nofree nounwind willreturn memory(argmem: write)
declare void @llvm.memset.p0.i64(ptr nocapture writeonly, i8, i64, i1 immarg) #6

; Function Attrs: mustprogress uwtable
define linkonce_odr hidden void @_ZN11trail_stackC2Ev(ptr noundef nonnull align 8 dereferenceable(56) %this) unnamed_addr #4 comdat align 2 personality ptr @__gxx_personality_v0 {
entry:
  %this.addr = alloca ptr, align 8
  %exn.slot = alloca ptr, align 8
  %ehselector.slot = alloca i32, align 4
  store ptr %this, ptr %this.addr, align 8
  %this1 = load ptr, ptr %this.addr, align 8
  %m_trail_stack = getelementptr inbounds %class.trail_stack, ptr %this1, i32 0, i32 0
  call void @_ZN10ptr_vectorI5trailEC2Ev(ptr noundef nonnull align 8 dereferenceable(8) %m_trail_stack)
  %m_scopes = getelementptr inbounds %class.trail_stack, ptr %this1, i32 0, i32 1
  invoke void @_ZN7svectorIjjEC2Ev(ptr noundef nonnull align 8 dereferenceable(8) %m_scopes)
          to label %invoke.cont unwind label %lpad

invoke.cont:                                      ; preds = %entry
  %m_region = getelementptr inbounds %class.trail_stack, ptr %this1, i32 0, i32 2
  invoke void @_ZN6regionC1Ev(ptr noundef nonnull align 8 dereferenceable(40) %m_region)
          to label %invoke.cont3 unwind label %lpad2

invoke.cont3:                                     ; preds = %invoke.cont
  ret void

lpad:                                             ; preds = %entry
  %0 = landingpad { ptr, i32 }
          cleanup
  %1 = extractvalue { ptr, i32 } %0, 0
  store ptr %1, ptr %exn.slot, align 8
  %2 = extractvalue { ptr, i32 } %0, 1
  store i32 %2, ptr %ehselector.slot, align 4
  br label %ehcleanup

lpad2:                                            ; preds = %invoke.cont
  %3 = landingpad { ptr, i32 }
          cleanup
  %4 = extractvalue { ptr, i32 } %3, 0
  store ptr %4, ptr %exn.slot, align 8
  %5 = extractvalue { ptr, i32 } %3, 1
  store i32 %5, ptr %ehselector.slot, align 4
  call void @_ZN7svectorIjjED2Ev(ptr noundef nonnull align 8 dereferenceable(8) %m_scopes) #3
  br label %ehcleanup

ehcleanup:                                        ; preds = %lpad2, %lpad
  call void @_ZN10ptr_vectorI5trailED2Ev(ptr noundef nonnull align 8 dereferenceable(8) %m_trail_stack) #3
  br label %eh.resume

eh.resume:                                        ; preds = %ehcleanup
  %exn = load ptr, ptr %exn.slot, align 8
  %sel = load i32, ptr %ehselector.slot, align 4
  %lpad.val = insertvalue { ptr, i32 } poison, ptr %exn, 0
  %lpad.val4 = insertvalue { ptr, i32 } %lpad.val, i32 %sel, 1
  resume { ptr, i32 } %lpad.val4
}

; Function Attrs: mustprogress uwtable
define linkonce_odr hidden void @_ZN10ref_vectorI3ast11ast_managerEC2ERS1_(ptr noundef nonnull align 8 dereferenceable(16) %this, ptr noundef nonnull align 8 dereferenceable(976) %m) unnamed_addr #4 comdat align 2 {
entry:
  %this.addr = alloca ptr, align 8
  %m.addr = alloca ptr, align 8
  %ref.tmp = alloca %class.ref_manager_wrapper.51, align 8
  store ptr %this, ptr %this.addr, align 8
  store ptr %m, ptr %m.addr, align 8
  %this1 = load ptr, ptr %this.addr, align 8
  %0 = load ptr, ptr %m.addr, align 8
  call void @_ZN19ref_manager_wrapperI3ast11ast_managerEC2ERS1_(ptr noundef nonnull align 8 dereferenceable(8) %ref.tmp, ptr noundef nonnull align 8 dereferenceable(976) %0)
  call void @_ZN15ref_vector_coreI3ast19ref_manager_wrapperIS0_11ast_managerEEC2ERKS3_(ptr noundef nonnull align 8 dereferenceable(16) %this1, ptr noundef nonnull align 8 dereferenceable(8) %ref.tmp)
  ret void
}

declare void @_ZN14bind_variablesC1ER11ast_manager(ptr noundef nonnull align 8 dereferenceable(120), ptr noundef nonnull align 8 dereferenceable(976)) unnamed_addr #1

; Function Attrs: mustprogress uwtable
define linkonce_odr hidden void @_ZN7obj_mapIK4sortPN7datalog7context11sort_domainEEC2Ev(ptr noundef nonnull align 8 dereferenceable(24) %this) unnamed_addr #4 comdat align 2 {
entry:
  %this.addr = alloca ptr, align 8
  %ref.tmp = alloca %struct.obj_hash.89, align 1
  %ref.tmp2 = alloca %struct.default_eq.90, align 1
  store ptr %this, ptr %this.addr, align 8
  %this1 = load ptr, ptr %this.addr, align 8
  %m_table = getelementptr inbounds %class.obj_map.87, ptr %this1, i32 0, i32 0
  call void @_ZN14core_hashtableIN7obj_mapIK4sortPN7datalog7context11sort_domainEE13obj_map_entryE8obj_hashINS7_8key_dataEE10default_eqISA_EEC2EjRKSB_RKSD_(ptr noundef nonnull align 8 dereferenceable(20) %m_table, i32 noundef 8, ptr noundef nonnull align 1 dereferenceable(1) %ref.tmp, ptr noundef nonnull align 1 dereferenceable(1) %ref.tmp2)
  ret void
}

; Function Attrs: mustprogress uwtable
define linkonce_odr hidden void @_ZN13obj_hashtableI9func_declEC2Ej(ptr noundef nonnull align 8 dereferenceable(20) %this, i32 noundef %initial_capacity) unnamed_addr #4 comdat align 2 {
entry:
  %this.addr = alloca ptr, align 8
  %initial_capacity.addr = alloca i32, align 4
  %ref.tmp = alloca %struct.obj_ptr_hash.94, align 1
  %ref.tmp2 = alloca %struct.ptr_eq.95, align 1
  store ptr %this, ptr %this.addr, align 8
  store i32 %initial_capacity, ptr %initial_capacity.addr, align 4
  %this1 = load ptr, ptr %this.addr, align 8
  %0 = load i32, ptr %initial_capacity.addr, align 4
  call void @_ZN14core_hashtableI14obj_hash_entryI9func_declE12obj_ptr_hashIS1_E6ptr_eqIS1_EEC2EjRKS4_RKS6_(ptr noundef nonnull align 8 dereferenceable(20) %this1, i32 noundef %0, ptr noundef nonnull align 1 dereferenceable(1) %ref.tmp, ptr noundef nonnull align 1 dereferenceable(1) %ref.tmp2)
  ret void
}

; Function Attrs: mustprogress uwtable
define linkonce_odr hidden void @_ZN3mapI6symbolP9func_decl16symbol_hash_proc14symbol_eq_procEC2ERKS3_RKS4_(ptr noundef nonnull align 8 dereferenceable(24) %this, ptr noundef nonnull align 1 dereferenceable(1) %h, ptr noundef nonnull align 1 dereferenceable(1) %e) unnamed_addr #4 comdat align 2 {
entry:
  %this.addr = alloca ptr, align 8
  %h.addr = alloca ptr, align 8
  %e.addr = alloca ptr, align 8
  store ptr %this, ptr %this.addr, align 8
  store ptr %h, ptr %h.addr, align 8
  store ptr %e, ptr %e.addr, align 8
  %this1 = load ptr, ptr %this.addr, align 8
  %0 = load ptr, ptr %h.addr, align 8
  %1 = load ptr, ptr %e.addr, align 8
  call void @_ZN9table2mapI17default_map_entryI6symbolP9func_declE16symbol_hash_proc14symbol_eq_procEC2ERKS5_RKS6_(ptr noundef nonnull align 8 dereferenceable(24) %this1, ptr noundef nonnull align 1 dereferenceable(1) %0, ptr noundef nonnull align 1 dereferenceable(1) %1)
  ret void
}

; Function Attrs: mustprogress uwtable
define linkonce_odr hidden void @_ZN7obj_mapIK9func_decl7svectorI6symboljEEC2Ev(ptr noundef nonnull align 8 dereferenceable(24) %this) unnamed_addr #4 comdat align 2 {
entry:
  %this.addr = alloca ptr, align 8
  %ref.tmp = alloca %struct.obj_hash.104, align 1
  %ref.tmp2 = alloca %struct.default_eq.105, align 1
  store ptr %this, ptr %this.addr, align 8
  %this1 = load ptr, ptr %this.addr, align 8
  %m_table = getelementptr inbounds %class.obj_map.102, ptr %this1, i32 0, i32 0
  call void @_ZN14core_hashtableIN7obj_mapIK9func_decl7svectorI6symboljEE13obj_map_entryE8obj_hashINS6_8key_dataEE10default_eqIS9_EEC2EjRKSA_RKSC_(ptr noundef nonnull align 8 dereferenceable(20) %m_table, i32 noundef 8, ptr noundef nonnull align 1 dereferenceable(1) %ref.tmp, ptr noundef nonnull align 1 dereferenceable(1) %ref.tmp2)
  ret void
}

declare void @_ZN7datalog8rule_setC1ERNS_7contextE(ptr noundef nonnull align 8 dereferenceable(248), ptr noundef nonnull align 8 dereferenceable(3556)) unnamed_addr #1

; Function Attrs: mustprogress uwtable
define linkonce_odr hidden void @_ZN14expr_free_varsC2Ev(ptr noundef nonnull align 8 dereferenceable(40) %this) unnamed_addr #4 comdat align 2 personality ptr @__gxx_personality_v0 {
entry:
  %this.addr = alloca ptr, align 8
  %exn.slot = alloca ptr, align 8
  %ehselector.slot = alloca i32, align 4
  store ptr %this, ptr %this.addr, align 8
  %this1 = load ptr, ptr %this.addr, align 8
  %m_mark = getelementptr inbounds %class.expr_free_vars, ptr %this1, i32 0, i32 0
  call void @_ZN16expr_sparse_markC2Ev(ptr noundef nonnull align 8 dereferenceable(24) %m_mark)
  %m_sorts = getelementptr inbounds %class.expr_free_vars, ptr %this1, i32 0, i32 1
  invoke void @_ZN10ptr_vectorI4sortEC2Ev(ptr noundef nonnull align 8 dereferenceable(8) %m_sorts)
          to label %invoke.cont unwind label %lpad

invoke.cont:                                      ; preds = %entry
  %m_todo = getelementptr inbounds %class.expr_free_vars, ptr %this1, i32 0, i32 2
  invoke void @_ZN10ptr_vectorI4exprEC2Ev(ptr noundef nonnull align 8 dereferenceable(8) %m_todo)
          to label %invoke.cont3 unwind label %lpad2

invoke.cont3:                                     ; preds = %invoke.cont
  ret void

lpad:                                             ; preds = %entry
  %0 = landingpad { ptr, i32 }
          cleanup
  %1 = extractvalue { ptr, i32 } %0, 0
  store ptr %1, ptr %exn.slot, align 8
  %2 = extractvalue { ptr, i32 } %0, 1
  store i32 %2, ptr %ehselector.slot, align 4
  br label %ehcleanup

lpad2:                                            ; preds = %invoke.cont
  %3 = landingpad { ptr, i32 }
          cleanup
  %4 = extractvalue { ptr, i32 } %3, 0
  store ptr %4, ptr %exn.slot, align 8
  %5 = extractvalue { ptr, i32 } %3, 1
  store i32 %5, ptr %ehselector.slot, align 4
  call void @_ZN10ptr_vectorI4sortED2Ev(ptr noundef nonnull align 8 dereferenceable(8) %m_sorts) #3
  br label %ehcleanup

ehcleanup:                                        ; preds = %lpad2, %lpad
  call void @_ZN16expr_sparse_markD2Ev(ptr noundef nonnull align 8 dereferenceable(24) %m_mark) #3
  br label %eh.resume

eh.resume:                                        ; preds = %ehcleanup
  %exn = load ptr, ptr %exn.slot, align 8
  %sel = load i32, ptr %ehselector.slot, align 4
  %lpad.val = insertvalue { ptr, i32 } poison, ptr %exn, 0
  %lpad.val4 = insertvalue { ptr, i32 } %lpad.val, i32 %sel, 1
  resume { ptr, i32 } %lpad.val4
}

; Function Attrs: mustprogress uwtable
define linkonce_odr hidden void @_ZN10ref_vectorI4expr11ast_managerEC2ERS1_(ptr noundef nonnull align 8 dereferenceable(16) %this, ptr noundef nonnull align 8 dereferenceable(976) %m) unnamed_addr #4 comdat align 2 {
entry:
  %this.addr = alloca ptr, align 8
  %m.addr = alloca ptr, align 8
  %ref.tmp = alloca %class.ref_manager_wrapper, align 8
  store ptr %this, ptr %this.addr, align 8
  store ptr %m, ptr %m.addr, align 8
  %this1 = load ptr, ptr %this.addr, align 8
  %0 = load ptr, ptr %m.addr, align 8
  call void @_ZN19ref_manager_wrapperI4expr11ast_managerEC2ERS1_(ptr noundef nonnull align 8 dereferenceable(8) %ref.tmp, ptr noundef nonnull align 8 dereferenceable(976) %0)
  call void @_ZN15ref_vector_coreI4expr19ref_manager_wrapperIS0_11ast_managerEEC2ERKS3_(ptr noundef nonnull align 8 dereferenceable(16) %this1, ptr noundef nonnull align 8 dereferenceable(8) %ref.tmp)
  ret void
}

; Function Attrs: mustprogress nounwind uwtable
define linkonce_odr hidden void @_ZN7svectorI6symboljEC2Ev(ptr noundef nonnull align 8 dereferenceable(8) %this) unnamed_addr #5 comdat align 2 {
entry:
  %this.addr = alloca ptr, align 8
  store ptr %this, ptr %this.addr, align 8
  %this1 = load ptr, ptr %this.addr, align 8
  %0 = getelementptr inbounds i8, ptr %this1, i64 0
  call void @llvm.memset.p0.i64(ptr align 8 %0, i8 0, i64 8, i1 false)
  call void @_ZN6vectorI6symbolLb0EjEC2Ev(ptr noundef nonnull align 8 dereferenceable(8) %this1) #3
  ret void
}

; Function Attrs: mustprogress nounwind uwtable
define linkonce_odr hidden void @_ZN6vectorIjLb1EjEC2Ev(ptr noundef nonnull align 8 dereferenceable(8) %this) unnamed_addr #5 comdat align 2 {
entry:
  %this.addr = alloca ptr, align 8
  store ptr %this, ptr %this.addr, align 8
  %this1 = load ptr, ptr %this.addr, align 8
  %m_data = getelementptr inbounds %class.vector.126, ptr %this1, i32 0, i32 0
  store ptr null, ptr %m_data, align 8
  ret void
}

; Function Attrs: mustprogress uwtable
define linkonce_odr hidden void @_ZN3refI15model_converterEC2EPS0_(ptr noundef nonnull align 8 dereferenceable(8) %this, ptr noundef %ptr) unnamed_addr #4 comdat align 2 {
entry:
  %this.addr = alloca ptr, align 8
  %ptr.addr = alloca ptr, align 8
  store ptr %this, ptr %this.addr, align 8
  store ptr %ptr, ptr %ptr.addr, align 8
  %this1 = load ptr, ptr %this.addr, align 8
  %m_ptr = getelementptr inbounds %class.ref, ptr %this1, i32 0, i32 0
  %0 = load ptr, ptr %ptr.addr, align 8
  store ptr %0, ptr %m_ptr, align 8
  call void @_ZN3refI15model_converterE7inc_refEv(ptr noundef nonnull align 8 dereferenceable(8) %this1)
  ret void
}

; Function Attrs: mustprogress nounwind uwtable
define linkonce_odr hidden void @_ZN3refI15proof_converterEC2Ev(ptr noundef nonnull align 8 dereferenceable(8) %this) unnamed_addr #5 comdat align 2 {
entry:
  %this.addr = alloca ptr, align 8
  store ptr %this, ptr %this.addr, align 8
  %this1 = load ptr, ptr %this.addr, align 8
  %m_ptr = getelementptr inbounds %class.ref.127, ptr %this1, i32 0, i32 0
  store ptr null, ptr %m_ptr, align 8
  ret void
}

; Function Attrs: mustprogress nounwind uwtable
define linkonce_odr hidden void @_ZN10scoped_ptrIN7datalog11engine_baseEEC2EPS1_(ptr noundef nonnull align 8 dereferenceable(8) %this, ptr noundef %ptr) unnamed_addr #5 comdat align 2 {
entry:
  %this.addr = alloca ptr, align 8
  %ptr.addr = alloca ptr, align 8
  store ptr %this, ptr %this.addr, align 8
  store ptr %ptr, ptr %ptr.addr, align 8
  %this1 = load ptr, ptr %this.addr, align 8
  %m_ptr = getelementptr inbounds %class.scoped_ptr.128, ptr %this1, i32 0, i32 0
  %0 = load ptr, ptr %ptr.addr, align 8
  store ptr %0, ptr %m_ptr, align 8
  ret void
}

; Function Attrs: mustprogress nounwind uwtable
define linkonce_odr hidden void @_ZN7obj_refI4expr11ast_managerEC2ERS1_(ptr noundef nonnull align 8 dereferenceable(16) %this, ptr noundef nonnull align 8 dereferenceable(976) %m) unnamed_addr #5 comdat align 2 {
entry:
  %this.addr = alloca ptr, align 8
  %m.addr = alloca ptr, align 8
  store ptr %this, ptr %this.addr, align 8
  store ptr %m, ptr %m.addr, align 8
  %this1 = load ptr, ptr %this.addr, align 8
  %m_obj = getelementptr inbounds %class.obj_ref, ptr %this1, i32 0, i32 0
  store ptr null, ptr %m_obj, align 8
  %m_manager = getelementptr inbounds %class.obj_ref, ptr %this1, i32 0, i32 1
  %0 = load ptr, ptr %m.addr, align 8
  store ptr %0, ptr %m_manager, align 8
  ret void
}

; Function Attrs: mustprogress uwtable
define hidden void @_ZN7datalog7context11updt_paramsERK10params_ref(ptr noundef nonnull align 8 dereferenceable(3556) %this, ptr noundef nonnull align 8 dereferenceable(8) %p) #4 align 2 {
entry:
  %this.addr = alloca ptr, align 8
  %p.addr = alloca ptr, align 8
  %ref.tmp = alloca %class.symbol, align 8
  store ptr %this, ptr %this.addr, align 8
  store ptr %p, ptr %p.addr, align 8
  %this1 = load ptr, ptr %this.addr, align 8
  %m_params_ref = getelementptr inbounds %"class.datalog::context", ptr %this1, i32 0, i32 3
  %0 = load ptr, ptr %p.addr, align 8
  call void @_ZN10params_ref4copyERKS_(ptr noundef nonnull align 8 dereferenceable(8) %m_params_ref, ptr noundef nonnull align 8 dereferenceable(8) %0)
  %m_engine = getelementptr inbounds %"class.datalog::context", ptr %this1, i32 0, i32 35
  %call = call noundef ptr @_ZNK10scoped_ptrIN7datalog11engine_baseEE3getEv(ptr noundef nonnull align 8 dereferenceable(8) %m_engine)
  %tobool = icmp ne ptr %call, null
  br i1 %tobool, label %if.then, label %if.end

if.then:                                          ; preds = %entry
  %m_engine2 = getelementptr inbounds %"class.datalog::context", ptr %this1, i32 0, i32 35
  %call3 = call noundef ptr @_ZNK10scoped_ptrIN7datalog11engine_baseEEptEv(ptr noundef nonnull align 8 dereferenceable(8) %m_engine2)
  %vtable = load ptr, ptr %call3, align 8
  %vfn = getelementptr inbounds ptr, ptr %vtable, i64 21
  %1 = load ptr, ptr %vfn, align 8
  call void %1(ptr noundef nonnull align 8 dereferenceable(48) %call3)
  br label %if.end

if.end:                                           ; preds = %if.then, %entry
  %m_params = getelementptr inbounds %"class.datalog::context", ptr %this1, i32 0, i32 4
  %2 = load ptr, ptr %m_params, align 8
  %call4 = call noundef zeroext i1 @_ZNK9fp_params20generate_proof_traceEv(ptr noundef nonnull align 8 dereferenceable(16) %2)
  %m_generate_proof_trace = getelementptr inbounds %"class.datalog::context", ptr %this1, i32 0, i32 5
  %frombool = zext i1 %call4 to i8
  store i8 %frombool, ptr %m_generate_proof_trace, align 8
  %m_params5 = getelementptr inbounds %"class.datalog::context", ptr %this1, i32 0, i32 4
  %3 = load ptr, ptr %m_params5, align 8
  %call6 = call noundef zeroext i1 @_ZNK9fp_params26datalog_unbound_compressorEv(ptr noundef nonnull align 8 dereferenceable(16) %3)
  %m_unbound_compressor = getelementptr inbounds %"class.datalog::context", ptr %this1, i32 0, i32 6
  %frombool7 = zext i1 %call6 to i8
  store i8 %frombool7, ptr %m_unbound_compressor, align 1
  %m_params8 = getelementptr inbounds %"class.datalog::context", ptr %this1, i32 0, i32 4
  %4 = load ptr, ptr %m_params8, align 8
  %call9 = call ptr @_ZNK9fp_params24datalog_default_relationEv(ptr noundef nonnull align 8 dereferenceable(16) %4)
  %coerce.dive = getelementptr inbounds %class.symbol, ptr %ref.tmp, i32 0, i32 0
  store ptr %call9, ptr %coerce.dive, align 8
  %m_default_relation = getelementptr inbounds %"class.datalog::context", ptr %this1, i32 0, i32 8
  call void @llvm.memcpy.p0.p0.i64(ptr align 8 %m_default_relation, ptr align 8 %ref.tmp, i64 8, i1 false)
  ret void
}

; Function Attrs: mustprogress nounwind uwtable
define linkonce_odr hidden void @_ZN7obj_refI4expr11ast_managerED2Ev(ptr noundef nonnull align 8 dereferenceable(16) %this) unnamed_addr #5 comdat align 2 personality ptr @__gxx_personality_v0 {
entry:
  %this.addr = alloca ptr, align 8
  store ptr %this, ptr %this.addr, align 8
  %this1 = load ptr, ptr %this.addr, align 8
  invoke void @_ZN7obj_refI4expr11ast_managerE7dec_refEv(ptr noundef nonnull align 8 dereferenceable(16) %this1)
          to label %invoke.cont unwind label %terminate.lpad

invoke.cont:                                      ; preds = %entry
  ret void

terminate.lpad:                                   ; preds = %entry
  %0 = landingpad { ptr, i32 }
          catch ptr null
  %1 = extractvalue { ptr, i32 } %0, 0
  call void @__clang_call_terminate(ptr %1) #16
  unreachable
}

; Function Attrs: mustprogress nounwind uwtable
define linkonce_odr hidden void @_ZN10scoped_ptrIN7datalog11engine_baseEED2Ev(ptr noundef nonnull align 8 dereferenceable(8) %this) unnamed_addr #5 comdat align 2 personality ptr @__gxx_personality_v0 {
entry:
  %this.addr = alloca ptr, align 8
  store ptr %this, ptr %this.addr, align 8
  %this1 = load ptr, ptr %this.addr, align 8
  %m_ptr = getelementptr inbounds %class.scoped_ptr.128, ptr %this1, i32 0, i32 0
  %0 = load ptr, ptr %m_ptr, align 8
  invoke void @_Z7deallocIN7datalog11engine_baseEEvPT_(ptr noundef %0)
          to label %invoke.cont unwind label %terminate.lpad

invoke.cont:                                      ; preds = %entry
  ret void

terminate.lpad:                                   ; preds = %entry
  %1 = landingpad { ptr, i32 }
          catch ptr null
  %2 = extractvalue { ptr, i32 } %1, 0
  call void @__clang_call_terminate(ptr %2) #16
  unreachable
}

; Function Attrs: mustprogress nounwind uwtable
define linkonce_odr hidden void @_ZN3refI15proof_converterED2Ev(ptr noundef nonnull align 8 dereferenceable(8) %this) unnamed_addr #5 comdat align 2 personality ptr @__gxx_personality_v0 {
entry:
  %this.addr = alloca ptr, align 8
  store ptr %this, ptr %this.addr, align 8
  %this1 = load ptr, ptr %this.addr, align 8
  invoke void @_ZN3refI15proof_converterE7dec_refEv(ptr noundef nonnull align 8 dereferenceable(8) %this1)
          to label %invoke.cont unwind label %terminate.lpad

invoke.cont:                                      ; preds = %entry
  ret void

terminate.lpad:                                   ; preds = %entry
  %0 = landingpad { ptr, i32 }
          catch ptr null
  %1 = extractvalue { ptr, i32 } %0, 0
  call void @__clang_call_terminate(ptr %1) #16
  unreachable
}

; Function Attrs: mustprogress nounwind uwtable
define linkonce_odr hidden void @_ZN3refI15model_converterED2Ev(ptr noundef nonnull align 8 dereferenceable(8) %this) unnamed_addr #5 comdat align 2 personality ptr @__gxx_personality_v0 {
entry:
  %this.addr = alloca ptr, align 8
  store ptr %this, ptr %this.addr, align 8
  %this1 = load ptr, ptr %this.addr, align 8
  invoke void @_ZN3refI15model_converterE7dec_refEv(ptr noundef nonnull align 8 dereferenceable(8) %this1)
          to label %invoke.cont unwind label %terminate.lpad

invoke.cont:                                      ; preds = %entry
  ret void

terminate.lpad:                                   ; preds = %entry
  %0 = landingpad { ptr, i32 }
          catch ptr null
  %1 = extractvalue { ptr, i32 } %0, 0
  call void @__clang_call_terminate(ptr %1) #16
  unreachable
}

; Function Attrs: mustprogress nounwind uwtable
define linkonce_odr hidden void @_ZN10ref_vectorI4expr11ast_managerED2Ev(ptr noundef nonnull align 8 dereferenceable(16) %this) unnamed_addr #5 comdat align 2 {
entry:
  %this.addr = alloca ptr, align 8
  store ptr %this, ptr %this.addr, align 8
  %this1 = load ptr, ptr %this.addr, align 8
  call void @_ZN15ref_vector_coreI4expr19ref_manager_wrapperIS0_11ast_managerEED2Ev(ptr noundef nonnull align 8 dereferenceable(16) %this1) #3
  ret void
}

; Function Attrs: mustprogress nounwind uwtable
define linkonce_odr hidden void @_ZN6vectorIjLb1EjED2Ev(ptr noundef nonnull align 8 dereferenceable(8) %this) unnamed_addr #5 comdat align 2 personality ptr @__gxx_personality_v0 {
entry:
  %this.addr = alloca ptr, align 8
  store ptr %this, ptr %this.addr, align 8
  %this1 = load ptr, ptr %this.addr, align 8
  invoke void @_ZN6vectorIjLb1EjE7destroyEv(ptr noundef nonnull align 8 dereferenceable(8) %this1)
          to label %invoke.cont unwind label %terminate.lpad

invoke.cont:                                      ; preds = %entry
  ret void

terminate.lpad:                                   ; preds = %entry
  %0 = landingpad { ptr, i32 }
          catch ptr null
  %1 = extractvalue { ptr, i32 } %0, 0
  call void @__clang_call_terminate(ptr %1) #16
  unreachable
}

; Function Attrs: mustprogress nounwind uwtable
define linkonce_odr hidden void @_ZN7svectorI6symboljED2Ev(ptr noundef nonnull align 8 dereferenceable(8) %this) unnamed_addr #5 comdat align 2 {
entry:
  %this.addr = alloca ptr, align 8
  store ptr %this, ptr %this.addr, align 8
  %this1 = load ptr, ptr %this.addr, align 8
  call void @_ZN6vectorI6symbolLb0EjED2Ev(ptr noundef nonnull align 8 dereferenceable(8) %this1) #3
  ret void
}

; Function Attrs: mustprogress nounwind uwtable
define linkonce_odr hidden void @_ZN14expr_free_varsD2Ev(ptr noundef nonnull align 8 dereferenceable(40) %this) unnamed_addr #5 comdat align 2 {
entry:
  %this.addr = alloca ptr, align 8
  store ptr %this, ptr %this.addr, align 8
  %this1 = load ptr, ptr %this.addr, align 8
  %m_todo = getelementptr inbounds %class.expr_free_vars, ptr %this1, i32 0, i32 2
  call void @_ZN10ptr_vectorI4exprED2Ev(ptr noundef nonnull align 8 dereferenceable(8) %m_todo) #3
  %m_sorts = getelementptr inbounds %class.expr_free_vars, ptr %this1, i32 0, i32 1
  call void @_ZN10ptr_vectorI4sortED2Ev(ptr noundef nonnull align 8 dereferenceable(8) %m_sorts) #3
  %m_mark = getelementptr inbounds %class.expr_free_vars, ptr %this1, i32 0, i32 0
  call void @_ZN16expr_sparse_markD2Ev(ptr noundef nonnull align 8 dereferenceable(24) %m_mark) #3
  ret void
}

; Function Attrs: nounwind
declare void @_ZN7datalog8rule_setD1Ev(ptr noundef nonnull align 8 dereferenceable(248)) unnamed_addr #2

; Function Attrs: mustprogress nounwind uwtable
define linkonce_odr hidden void @_ZN7obj_mapIK9func_decl7svectorI6symboljEED2Ev(ptr noundef nonnull align 8 dereferenceable(24) %this) unnamed_addr #5 comdat align 2 {
entry:
  %this.addr = alloca ptr, align 8
  store ptr %this, ptr %this.addr, align 8
  %this1 = load ptr, ptr %this.addr, align 8
  %m_table = getelementptr inbounds %class.obj_map.102, ptr %this1, i32 0, i32 0
  call void @_ZN14core_hashtableIN7obj_mapIK9func_decl7svectorI6symboljEE13obj_map_entryE8obj_hashINS6_8key_dataEE10default_eqIS9_EED2Ev(ptr noundef nonnull align 8 dereferenceable(20) %m_table) #3
  ret void
}

; Function Attrs: mustprogress nounwind uwtable
define linkonce_odr hidden void @_ZN3mapI6symbolP9func_decl16symbol_hash_proc14symbol_eq_procED2Ev(ptr noundef nonnull align 8 dereferenceable(24) %this) unnamed_addr #5 comdat align 2 {
entry:
  %this.addr = alloca ptr, align 8
  store ptr %this, ptr %this.addr, align 8
  %this1 = load ptr, ptr %this.addr, align 8
  call void @_ZN9table2mapI17default_map_entryI6symbolP9func_declE16symbol_hash_proc14symbol_eq_procED2Ev(ptr noundef nonnull align 8 dereferenceable(24) %this1) #3
  ret void
}

; Function Attrs: mustprogress nounwind uwtable
define linkonce_odr hidden void @_ZN13obj_hashtableI9func_declED2Ev(ptr noundef nonnull align 8 dereferenceable(20) %this) unnamed_addr #5 comdat align 2 {
entry:
  %this.addr = alloca ptr, align 8
  store ptr %this, ptr %this.addr, align 8
  %this1 = load ptr, ptr %this.addr, align 8
  call void @_ZN14core_hashtableI14obj_hash_entryI9func_declE12obj_ptr_hashIS1_E6ptr_eqIS1_EED2Ev(ptr noundef nonnull align 8 dereferenceable(20) %this1) #3
  ret void
}

; Function Attrs: mustprogress nounwind uwtable
define linkonce_odr hidden void @_ZN7obj_mapIK4sortPN7datalog7context11sort_domainEED2Ev(ptr noundef nonnull align 8 dereferenceable(24) %this) unnamed_addr #5 comdat align 2 {
entry:
  %this.addr = alloca ptr, align 8
  store ptr %this, ptr %this.addr, align 8
  %this1 = load ptr, ptr %this.addr, align 8
  %m_table = getelementptr inbounds %class.obj_map.87, ptr %this1, i32 0, i32 0
  call void @_ZN14core_hashtableIN7obj_mapIK4sortPN7datalog7context11sort_domainEE13obj_map_entryE8obj_hashINS7_8key_dataEE10default_eqISA_EED2Ev(ptr noundef nonnull align 8 dereferenceable(20) %m_table) #3
  ret void
}

; Function Attrs: nounwind
declare void @_ZN14bind_variablesD1Ev(ptr noundef nonnull align 8 dereferenceable(120)) unnamed_addr #2

; Function Attrs: mustprogress nounwind uwtable
define linkonce_odr hidden void @_ZN10ref_vectorI3ast11ast_managerED2Ev(ptr noundef nonnull align 8 dereferenceable(16) %this) unnamed_addr #5 comdat align 2 {
entry:
  %this.addr = alloca ptr, align 8
  store ptr %this, ptr %this.addr, align 8
  %this1 = load ptr, ptr %this.addr, align 8
  call void @_ZN15ref_vector_coreI3ast19ref_manager_wrapperIS0_11ast_managerEED2Ev(ptr noundef nonnull align 8 dereferenceable(16) %this1) #3
  ret void
}

; Function Attrs: mustprogress nounwind uwtable
define linkonce_odr hidden void @_ZN11trail_stackD2Ev(ptr noundef nonnull align 8 dereferenceable(56) %this) unnamed_addr #5 comdat align 2 {
entry:
  %this.addr = alloca ptr, align 8
  store ptr %this, ptr %this.addr, align 8
  %this1 = load ptr, ptr %this.addr, align 8
  %m_region = getelementptr inbounds %class.trail_stack, ptr %this1, i32 0, i32 2
  call void @_ZN6regionD1Ev(ptr noundef nonnull align 8 dereferenceable(40) %m_region) #3
  %m_scopes = getelementptr inbounds %class.trail_stack, ptr %this1, i32 0, i32 1
  call void @_ZN7svectorIjjED2Ev(ptr noundef nonnull align 8 dereferenceable(8) %m_scopes) #3
  %m_trail_stack = getelementptr inbounds %class.trail_stack, ptr %this1, i32 0, i32 0
  call void @_ZN10ptr_vectorI5trailED2Ev(ptr noundef nonnull align 8 dereferenceable(8) %m_trail_stack) #3
  ret void
}

; Function Attrs: nounwind
declare void @_ZN7datalog16rule_transformerD1Ev(ptr noundef nonnull align 8 dereferenceable(32)) unnamed_addr #2

; Function Attrs: nounwind
declare void @_ZN7datalog15rule_propertiesD1Ev(ptr noundef nonnull align 8 dereferenceable(522)) unnamed_addr #2

; Function Attrs: mustprogress nounwind uwtable
define linkonce_odr hidden void @_ZN7datalog7context13contains_predD2Ev(ptr noundef nonnull align 8 dereferenceable(16) %this) unnamed_addr #5 comdat align 2 {
entry:
  %this.addr = alloca ptr, align 8
  store ptr %this, ptr %this.addr, align 8
  %this1 = load ptr, ptr %this.addr, align 8
  call void @_ZN11i_expr_predD2Ev(ptr noundef nonnull align 8 dereferenceable(8) %this1) #3
  ret void
}

; Function Attrs: mustprogress nounwind uwtable
define linkonce_odr hidden void @_ZN7datalog12rule_managerD2Ev(ptr noundef nonnull align 8 dereferenceable(1368) %this) unnamed_addr #5 comdat align 2 {
entry:
  %this.addr = alloca ptr, align 8
  store ptr %this, ptr %this.addr, align 8
  %this1 = load ptr, ptr %this.addr, align 8
  %m_visited = getelementptr inbounds %"class.datalog::rule_manager", ptr %this1, i32 0, i32 16
  call void @_ZN16expr_sparse_markD2Ev(ptr noundef nonnull align 8 dereferenceable(24) %m_visited) #3
  %m_ufproc = getelementptr inbounds %"class.datalog::rule_manager", ptr %this1, i32 0, i32 13
  call void @_ZN7datalog34uninterpreted_function_finder_procD2Ev(ptr noundef nonnull align 8 dereferenceable(344) %m_ufproc) #3
  %m_rwr = getelementptr inbounds %"class.datalog::rule_manager", ptr %this1, i32 0, i32 12
  call void @_ZN14label_rewriterD1Ev(ptr noundef nonnull align 8 dereferenceable(544) %m_rwr) #3
  %m_qe = getelementptr inbounds %"class.datalog::rule_manager", ptr %this1, i32 0, i32 11
  call void @_ZN7qe_liteD1Ev(ptr noundef nonnull align 8 dereferenceable(8) %m_qe) #3
  %m_hnf = getelementptr inbounds %"class.datalog::rule_manager", ptr %this1, i32 0, i32 10
  call void @_ZN3hnfD1Ev(ptr noundef nonnull align 8 dereferenceable(8) %m_hnf) #3
  %m_neg = getelementptr inbounds %"class.datalog::rule_manager", ptr %this1, i32 0, i32 9
  call void @_ZN7svectorIbjED2Ev(ptr noundef nonnull align 8 dereferenceable(8) %m_neg) #3
  %m_args = getelementptr inbounds %"class.datalog::rule_manager", ptr %this1, i32 0, i32 8
  call void @_ZN10ref_vectorI4expr11ast_managerED2Ev(ptr noundef nonnull align 8 dereferenceable(16) %m_args) #3
  %m_head = getelementptr inbounds %"class.datalog::rule_manager", ptr %this1, i32 0, i32 7
  call void @_ZN7obj_refI3app11ast_managerED2Ev(ptr noundef nonnull align 8 dereferenceable(16) %m_head) #3
  %m_body = getelementptr inbounds %"class.datalog::rule_manager", ptr %this1, i32 0, i32 6
  call void @_ZN10ref_vectorI3app11ast_managerED2Ev(ptr noundef nonnull align 8 dereferenceable(16) %m_body) #3
  %m_free_vars = getelementptr inbounds %"class.datalog::rule_manager", ptr %this1, i32 0, i32 5
  call void @_ZN14expr_free_varsD2Ev(ptr noundef nonnull align 8 dereferenceable(40) %m_free_vars) #3
  %m_var_idx = getelementptr inbounds %"class.datalog::rule_manager", ptr %this1, i32 0, i32 4
  call void @_ZN8uint_setD2Ev(ptr noundef nonnull align 8 dereferenceable(8) %m_var_idx) #3
  %m_used = getelementptr inbounds %"class.datalog::rule_manager", ptr %this1, i32 0, i32 3
  call void @_ZN9used_varsD2Ev(ptr noundef nonnull align 8 dereferenceable(48) %m_used) #3
  %m_counter = getelementptr inbounds %"class.datalog::rule_manager", ptr %this1, i32 0, i32 2
  call void @_ZN7datalog12rule_counterD2Ev(ptr noundef nonnull align 8 dereferenceable(224) %m_counter) #3
  ret void
}

; Function Attrs: mustprogress nounwind uwtable
define linkonce_odr hidden void @_ZN9var_substD2Ev(ptr noundef nonnull align 8 dereferenceable(545) %this) unnamed_addr #5 comdat align 2 {
entry:
  %this.addr = alloca ptr, align 8
  store ptr %this, ptr %this.addr, align 8
  %this1 = load ptr, ptr %this.addr, align 8
  %m_reducer = getelementptr inbounds %class.var_subst, ptr %this1, i32 0, i32 0
  call void @_ZN12beta_reducerD2Ev(ptr noundef nonnull align 8 dereferenceable(537) %m_reducer) #3
  ret void
}

; Function Attrs: nounwind
declare void @_ZN11th_rewriterD1Ev(ptr noundef nonnull align 8 dereferenceable(16)) unnamed_addr #2

; Function Attrs: mustprogress nounwind uwtable
define linkonce_odr hidden void @_ZN7datalog12dl_decl_utilD2Ev(ptr noundef nonnull align 8 dereferenceable(28) %this) unnamed_addr #5 comdat align 2 {
entry:
  %this.addr = alloca ptr, align 8
  store ptr %this, ptr %this.addr, align 8
  %this1 = load ptr, ptr %this.addr, align 8
  %m_bv = getelementptr inbounds %"class.datalog::dl_decl_util", ptr %this1, i32 0, i32 2
  call void @_ZN10scoped_ptrI7bv_utilED2Ev(ptr noundef nonnull align 8 dereferenceable(8) %m_bv) #3
  %m_arith = getelementptr inbounds %"class.datalog::dl_decl_util", ptr %this1, i32 0, i32 1
  call void @_ZN10scoped_ptrI10arith_utilED2Ev(ptr noundef nonnull align 8 dereferenceable(8) %m_arith) #3
  ret void
}

; Function Attrs: mustprogress nounwind uwtable
define hidden void @_ZN7datalog7contextD2Ev(ptr noundef nonnull align 8 dereferenceable(3556) %this) unnamed_addr #5 align 2 personality ptr @__gxx_personality_v0 {
entry:
  %this.addr = alloca ptr, align 8
  store ptr %this, ptr %this.addr, align 8
  %this1 = load ptr, ptr %this.addr, align 8
  invoke void @_ZN7datalog7context5resetEv(ptr noundef nonnull align 8 dereferenceable(3556) %this1)
          to label %invoke.cont unwind label %terminate.lpad

invoke.cont:                                      ; preds = %entry
  %m_params = getelementptr inbounds %"class.datalog::context", ptr %this1, i32 0, i32 4
  %0 = load ptr, ptr %m_params, align 8
  invoke void @_Z7deallocI9fp_paramsEvPT_(ptr noundef %0)
          to label %invoke.cont2 unwind label %terminate.lpad

invoke.cont2:                                     ; preds = %invoke.cont
  %m_last_ground_answer = getelementptr inbounds %"class.datalog::context", ptr %this1, i32 0, i32 42
  call void @_ZN7obj_refI4expr11ast_managerED2Ev(ptr noundef nonnull align 8 dereferenceable(16) %m_last_ground_answer) #3
  %m_last_answer = getelementptr inbounds %"class.datalog::context", ptr %this1, i32 0, i32 41
  call void @_ZN7obj_refI4expr11ast_managerED2Ev(ptr noundef nonnull align 8 dereferenceable(16) %m_last_answer) #3
  %m_engine = getelementptr inbounds %"class.datalog::context", ptr %this1, i32 0, i32 35
  call void @_ZN10scoped_ptrIN7datalog11engine_baseEED2Ev(ptr noundef nonnull align 8 dereferenceable(8) %m_engine) #3
  %m_pc = getelementptr inbounds %"class.datalog::context", ptr %this1, i32 0, i32 33
  call void @_ZN3refI15proof_converterED2Ev(ptr noundef nonnull align 8 dereferenceable(8) %m_pc) #3
  %m_mc = getelementptr inbounds %"class.datalog::context", ptr %this1, i32 0, i32 32
  call void @_ZN3refI15model_converterED2Ev(ptr noundef nonnull align 8 dereferenceable(8) %m_mc) #3
  %m_background = getelementptr inbounds %"class.datalog::context", ptr %this1, i32 0, i32 31
  call void @_ZN10ref_vectorI4expr11ast_managerED2Ev(ptr noundef nonnull align 8 dereferenceable(16) %m_background) #3
  %m_rule_bounds = getelementptr inbounds %"class.datalog::context", ptr %this1, i32 0, i32 30
  call void @_ZN6vectorIjLb1EjED2Ev(ptr noundef nonnull align 8 dereferenceable(8) %m_rule_bounds) #3
  %m_rule_names = getelementptr inbounds %"class.datalog::context", ptr %this1, i32 0, i32 29
  call void @_ZN7svectorI6symboljED2Ev(ptr noundef nonnull align 8 dereferenceable(8) %m_rule_names) #3
  %m_rule_fmls = getelementptr inbounds %"class.datalog::context", ptr %this1, i32 0, i32 28
  call void @_ZN10ref_vectorI4expr11ast_managerED2Ev(ptr noundef nonnull align 8 dereferenceable(16) %m_rule_fmls) #3
  %m_free_vars = getelementptr inbounds %"class.datalog::context", ptr %this1, i32 0, i32 25
  call void @_ZN14expr_free_varsD2Ev(ptr noundef nonnull align 8 dereferenceable(40) %m_free_vars) #3
  %m_transformed_rule_set = getelementptr inbounds %"class.datalog::context", ptr %this1, i32 0, i32 24
  call void @_ZN7datalog8rule_setD1Ev(ptr noundef nonnull align 8 dereferenceable(248) %m_transformed_rule_set) #3
  %m_rule_set = getelementptr inbounds %"class.datalog::context", ptr %this1, i32 0, i32 23
  call void @_ZN7datalog8rule_setD1Ev(ptr noundef nonnull align 8 dereferenceable(248) %m_rule_set) #3
  %m_argument_var_names = getelementptr inbounds %"class.datalog::context", ptr %this1, i32 0, i32 22
  call void @_ZN7obj_mapIK9func_decl7svectorI6symboljEED2Ev(ptr noundef nonnull align 8 dereferenceable(24) %m_argument_var_names) #3
  %m_preds_by_name = getelementptr inbounds %"class.datalog::context", ptr %this1, i32 0, i32 21
  call void @_ZN3mapI6symbolP9func_decl16symbol_hash_proc14symbol_eq_procED2Ev(ptr noundef nonnull align 8 dereferenceable(24) %m_preds_by_name) #3
  %m_preds = getelementptr inbounds %"class.datalog::context", ptr %this1, i32 0, i32 20
  call void @_ZN13obj_hashtableI9func_declED2Ev(ptr noundef nonnull align 8 dereferenceable(20) %m_preds) #3
  %m_sorts = getelementptr inbounds %"class.datalog::context", ptr %this1, i32 0, i32 19
  call void @_ZN7obj_mapIK4sortPN7datalog7context11sort_domainEED2Ev(ptr noundef nonnull align 8 dereferenceable(24) %m_sorts) #3
  %m_bind_variables = getelementptr inbounds %"class.datalog::context", ptr %this1, i32 0, i32 18
  call void @_ZN14bind_variablesD1Ev(ptr noundef nonnull align 8 dereferenceable(120) %m_bind_variables) #3
  %m_pinned = getelementptr inbounds %"class.datalog::context", ptr %this1, i32 0, i32 17
  call void @_ZN10ref_vectorI3ast11ast_managerED2Ev(ptr noundef nonnull align 8 dereferenceable(16) %m_pinned) #3
  %m_trail = getelementptr inbounds %"class.datalog::context", ptr %this1, i32 0, i32 16
  call void @_ZN11trail_stackD2Ev(ptr noundef nonnull align 8 dereferenceable(56) %m_trail) #3
  %m_transf = getelementptr inbounds %"class.datalog::context", ptr %this1, i32 0, i32 15
  call void @_ZN7datalog16rule_transformerD1Ev(ptr noundef nonnull align 8 dereferenceable(32) %m_transf) #3
  %m_rule_properties = getelementptr inbounds %"class.datalog::context", ptr %this1, i32 0, i32 14
  call void @_ZN7datalog15rule_propertiesD1Ev(ptr noundef nonnull align 8 dereferenceable(522) %m_rule_properties) #3
  %m_contains_p = getelementptr inbounds %"class.datalog::context", ptr %this1, i32 0, i32 13
  call void @_ZN7datalog7context13contains_predD2Ev(ptr noundef nonnull align 8 dereferenceable(16) %m_contains_p) #3
  %m_rule_manager = getelementptr inbounds %"class.datalog::context", ptr %this1, i32 0, i32 12
  call void @_ZN7datalog12rule_managerD2Ev(ptr noundef nonnull align 8 dereferenceable(1368) %m_rule_manager) #3
  %m_var_subst = getelementptr inbounds %"class.datalog::context", ptr %this1, i32 0, i32 11
  call void @_ZN9var_substD2Ev(ptr noundef nonnull align 8 dereferenceable(545) %m_var_subst) #3
  %m_rewriter = getelementptr inbounds %"class.datalog::context", ptr %this1, i32 0, i32 10
  call void @_ZN11th_rewriterD1Ev(ptr noundef nonnull align 8 dereferenceable(16) %m_rewriter) #3
  %m_decl_util = getelementptr inbounds %"class.datalog::context", ptr %this1, i32 0, i32 9
  call void @_ZN7datalog12dl_decl_utilD2Ev(ptr noundef nonnull align 8 dereferenceable(28) %m_decl_util) #3
  %m_params_ref = getelementptr inbounds %"class.datalog::context", ptr %this1, i32 0, i32 3
  call void @_ZN10params_refD1Ev(ptr noundef nonnull align 8 dereferenceable(8) %m_params_ref) #3
  ret void

terminate.lpad:                                   ; preds = %invoke.cont, %entry
  %1 = landingpad { ptr, i32 }
          catch ptr null
  %2 = extractvalue { ptr, i32 } %1, 0
  call void @__clang_call_terminate(ptr %2) #16
  unreachable
}

; Function Attrs: mustprogress uwtable
define hidden void @_ZN7datalog7context5resetEv(ptr noundef nonnull align 8 dereferenceable(3556) %this) #4 align 2 {
entry:
  %this.addr = alloca ptr, align 8
  store ptr %this, ptr %this.addr, align 8
  %this1 = load ptr, ptr %this.addr, align 8
  %m_trail = getelementptr inbounds %"class.datalog::context", ptr %this1, i32 0, i32 16
  call void @_ZN11trail_stack5resetEv(ptr noundef nonnull align 8 dereferenceable(56) %m_trail)
  %m_rule_set = getelementptr inbounds %"class.datalog::context", ptr %this1, i32 0, i32 23
  call void @_ZN7datalog8rule_set5resetEv(ptr noundef nonnull align 8 dereferenceable(248) %m_rule_set)
  %m_rule_fmls_head = getelementptr inbounds %"class.datalog::context", ptr %this1, i32 0, i32 26
  store i32 0, ptr %m_rule_fmls_head, align 8
  %m_rule_fmls = getelementptr inbounds %"class.datalog::context", ptr %this1, i32 0, i32 28
  call void @_ZN15ref_vector_coreI4expr19ref_manager_wrapperIS0_11ast_managerEE5resetEv(ptr noundef nonnull align 8 dereferenceable(16) %m_rule_fmls)
  %m_rule_names = getelementptr inbounds %"class.datalog::context", ptr %this1, i32 0, i32 29
  call void @_ZN6vectorI6symbolLb0EjE5resetEv(ptr noundef nonnull align 8 dereferenceable(8) %m_rule_names)
  %m_rule_bounds = getelementptr inbounds %"class.datalog::context", ptr %this1, i32 0, i32 30
  call void @_ZN6vectorIjLb1EjE5resetEv(ptr noundef nonnull align 8 dereferenceable(8) %m_rule_bounds)
  %m_argument_var_names = getelementptr inbounds %"class.datalog::context", ptr %this1, i32 0, i32 22
  call void @_ZN7obj_mapIK9func_decl7svectorI6symboljEE5resetEv(ptr noundef nonnull align 8 dereferenceable(24) %m_argument_var_names)
  %m_preds = getelementptr inbounds %"class.datalog::context", ptr %this1, i32 0, i32 20
  call void @_ZN14core_hashtableI14obj_hash_entryI9func_declE12obj_ptr_hashIS1_E6ptr_eqIS1_EE5resetEv(ptr noundef nonnull align 8 dereferenceable(20) %m_preds)
  %m_preds_by_name = getelementptr inbounds %"class.datalog::context", ptr %this1, i32 0, i32 21
  call void @_ZN9table2mapI17default_map_entryI6symbolP9func_declE16symbol_hash_proc14symbol_eq_procE5resetEv(ptr noundef nonnull align 8 dereferenceable(24) %m_preds_by_name)
  %m_sorts = getelementptr inbounds %"class.datalog::context", ptr %this1, i32 0, i32 19
  call void @_Z20reset_dealloc_valuesIK4sortN7datalog7context11sort_domainEEvR7obj_mapIT_PT0_E(ptr noundef nonnull align 8 dereferenceable(24) %m_sorts)
  %m_engine = getelementptr inbounds %"class.datalog::context", ptr %this1, i32 0, i32 35
  %call = call noundef nonnull align 8 dereferenceable(8) ptr @_ZN10scoped_ptrIN7datalog11engine_baseEEaSEPS1_(ptr noundef nonnull align 8 dereferenceable(8) %m_engine, ptr noundef null)
  %m_rel = getelementptr inbounds %"class.datalog::context", ptr %this1, i32 0, i32 34
  store ptr null, ptr %m_rel, align 8
  ret void
}

; Function Attrs: noreturn nounwind uwtable
define linkonce_odr hidden void @__clang_call_terminate(ptr noundef %0) #7 comdat {
  %2 = call ptr @__cxa_begin_catch(ptr %0) #3
  call void @_ZSt9terminatev() #16
  unreachable
}

declare ptr @__cxa_begin_catch(ptr)

declare void @_ZSt9terminatev()

; Function Attrs: mustprogress uwtable
define linkonce_odr hidden void @_Z7deallocI9fp_paramsEvPT_(ptr noundef %ptr) #4 comdat {
entry:
  %ptr.addr = alloca ptr, align 8
  store ptr %ptr, ptr %ptr.addr, align 8
  %0 = load ptr, ptr %ptr.addr, align 8
  %cmp = icmp eq ptr %0, null
  br i1 %cmp, label %if.then, label %if.end

if.then:                                          ; preds = %entry
  br label %return

if.end:                                           ; preds = %entry
  %1 = load ptr, ptr %ptr.addr, align 8
  call void @_ZN9fp_paramsD2Ev(ptr noundef nonnull align 8 dereferenceable(16) %1) #3
  %2 = load ptr, ptr %ptr.addr, align 8
  call void @_ZN6memory10deallocateEPv(ptr noundef %2)
  br label %return

return:                                           ; preds = %if.end, %if.then
  ret void
}

; Function Attrs: mustprogress uwtable
define linkonce_odr hidden void @_ZN11trail_stack5resetEv(ptr noundef nonnull align 8 dereferenceable(56) %this) #4 comdat align 2 {
entry:
  %this.addr = alloca ptr, align 8
  store ptr %this, ptr %this.addr, align 8
  %this1 = load ptr, ptr %this.addr, align 8
  %m_scopes = getelementptr inbounds %class.trail_stack, ptr %this1, i32 0, i32 1
  %call = call noundef i32 @_ZNK6vectorIjLb0EjE4sizeEv(ptr noundef nonnull align 8 dereferenceable(8) %m_scopes)
  call void @_ZN11trail_stack9pop_scopeEj(ptr noundef nonnull align 8 dereferenceable(56) %this1, i32 noundef %call)
  %m_trail_stack = getelementptr inbounds %class.trail_stack, ptr %this1, i32 0, i32 0
  call void @_Z16undo_trail_stackR10ptr_vectorI5trailEj(ptr noundef nonnull align 8 dereferenceable(8) %m_trail_stack, i32 noundef 0)
  ret void
}

declare void @_ZN7datalog8rule_set5resetEv(ptr noundef nonnull align 8 dereferenceable(248)) #1

; Function Attrs: mustprogress uwtable
define linkonce_odr hidden void @_ZN15ref_vector_coreI4expr19ref_manager_wrapperIS0_11ast_managerEE5resetEv(ptr noundef nonnull align 8 dereferenceable(16) %this) #4 comdat align 2 {
entry:
  %this.addr = alloca ptr, align 8
  store ptr %this, ptr %this.addr, align 8
  %this1 = load ptr, ptr %this.addr, align 8
  %m_nodes = getelementptr inbounds %class.ref_vector_core, ptr %this1, i32 0, i32 1
  %call = call noundef ptr @_ZNK6vectorIP4exprLb0EjE4dataEv(ptr noundef nonnull align 8 dereferenceable(8) %m_nodes)
  %m_nodes2 = getelementptr inbounds %class.ref_vector_core, ptr %this1, i32 0, i32 1
  %call3 = call noundef ptr @_ZNK6vectorIP4exprLb0EjE4dataEv(ptr noundef nonnull align 8 dereferenceable(8) %m_nodes2)
  %m_nodes4 = getelementptr inbounds %class.ref_vector_core, ptr %this1, i32 0, i32 1
  %call5 = call noundef i32 @_ZNK6vectorIP4exprLb0EjE4sizeEv(ptr noundef nonnull align 8 dereferenceable(8) %m_nodes4)
  %idx.ext = zext i32 %call5 to i64
  %add.ptr = getelementptr inbounds ptr, ptr %call3, i64 %idx.ext
  call void @_ZN15ref_vector_coreI4expr19ref_manager_wrapperIS0_11ast_managerEE13dec_range_refEPKPS0_S7_(ptr noundef nonnull align 8 dereferenceable(16) %this1, ptr noundef %call, ptr noundef %add.ptr)
  %m_nodes6 = getelementptr inbounds %class.ref_vector_core, ptr %this1, i32 0, i32 1
  call void @_ZN6vectorIP4exprLb0EjE5resetEv(ptr noundef nonnull align 8 dereferenceable(8) %m_nodes6)
  ret void
}

; Function Attrs: mustprogress nounwind uwtable
define linkonce_odr hidden void @_ZN6vectorI6symbolLb0EjE5resetEv(ptr noundef nonnull align 8 dereferenceable(8) %this) #5 comdat align 2 {
entry:
  %this.addr = alloca ptr, align 8
  store ptr %this, ptr %this.addr, align 8
  %this1 = load ptr, ptr %this.addr, align 8
  %m_data = getelementptr inbounds %class.vector.86, ptr %this1, i32 0, i32 0
  %0 = load ptr, ptr %m_data, align 8
  %tobool = icmp ne ptr %0, null
  br i1 %tobool, label %if.then, label %if.end

if.then:                                          ; preds = %entry
  %m_data2 = getelementptr inbounds %class.vector.86, ptr %this1, i32 0, i32 0
  %1 = load ptr, ptr %m_data2, align 8
  %arrayidx = getelementptr inbounds i32, ptr %1, i64 -1
  store i32 0, ptr %arrayidx, align 4
  br label %if.end

if.end:                                           ; preds = %if.then, %entry
  ret void
}

; Function Attrs: mustprogress uwtable
define linkonce_odr hidden void @_ZN6vectorIjLb1EjE5resetEv(ptr noundef nonnull align 8 dereferenceable(8) %this) #4 comdat align 2 {
entry:
  %this.addr = alloca ptr, align 8
  store ptr %this, ptr %this.addr, align 8
  %this1 = load ptr, ptr %this.addr, align 8
  %m_data = getelementptr inbounds %class.vector.126, ptr %this1, i32 0, i32 0
  %0 = load ptr, ptr %m_data, align 8
  %tobool = icmp ne ptr %0, null
  br i1 %tobool, label %if.then, label %if.end

if.then:                                          ; preds = %entry
  call void @_ZN6vectorIjLb1EjE16destroy_elementsEv(ptr noundef nonnull align 8 dereferenceable(8) %this1)
  %m_data2 = getelementptr inbounds %class.vector.126, ptr %this1, i32 0, i32 0
  %1 = load ptr, ptr %m_data2, align 8
  %arrayidx = getelementptr inbounds i32, ptr %1, i64 -1
  store i32 0, ptr %arrayidx, align 4
  br label %if.end

if.end:                                           ; preds = %if.then, %entry
  ret void
}

; Function Attrs: mustprogress uwtable
define linkonce_odr hidden void @_ZN7obj_mapIK9func_decl7svectorI6symboljEE5resetEv(ptr noundef nonnull align 8 dereferenceable(24) %this) #4 comdat align 2 {
entry:
  %this.addr = alloca ptr, align 8
  store ptr %this, ptr %this.addr, align 8
  %this1 = load ptr, ptr %this.addr, align 8
  %m_table = getelementptr inbounds %class.obj_map.102, ptr %this1, i32 0, i32 0
  call void @_ZN14core_hashtableIN7obj_mapIK9func_decl7svectorI6symboljEE13obj_map_entryE8obj_hashINS6_8key_dataEE10default_eqIS9_EE5resetEv(ptr noundef nonnull align 8 dereferenceable(20) %m_table)
  ret void
}

; Function Attrs: mustprogress uwtable
define linkonce_odr hidden void @_ZN14core_hashtableI14obj_hash_entryI9func_declE12obj_ptr_hashIS1_E6ptr_eqIS1_EE5resetEv(ptr noundef nonnull align 8 dereferenceable(20) %this) #4 comdat align 2 {
entry:
  %this.addr = alloca ptr, align 8
  %overhead = alloca i32, align 4
  %curr = alloca ptr, align 8
  %end = alloca ptr, align 8
  store ptr %this, ptr %this.addr, align 8
  %this1 = load ptr, ptr %this.addr, align 8
  %m_size = getelementptr inbounds %class.core_hashtable.93, ptr %this1, i32 0, i32 2
  %0 = load i32, ptr %m_size, align 4
  %cmp = icmp eq i32 %0, 0
  br i1 %cmp, label %land.lhs.true, label %if.end

land.lhs.true:                                    ; preds = %entry
  %m_num_deleted = getelementptr inbounds %class.core_hashtable.93, ptr %this1, i32 0, i32 3
  %1 = load i32, ptr %m_num_deleted, align 8
  %cmp2 = icmp eq i32 %1, 0
  br i1 %cmp2, label %if.then, label %if.end

if.then:                                          ; preds = %land.lhs.true
  br label %return

if.end:                                           ; preds = %land.lhs.true, %entry
  store i32 0, ptr %overhead, align 4
  %m_table = getelementptr inbounds %class.core_hashtable.93, ptr %this1, i32 0, i32 0
  %2 = load ptr, ptr %m_table, align 8
  store ptr %2, ptr %curr, align 8
  %m_table3 = getelementptr inbounds %class.core_hashtable.93, ptr %this1, i32 0, i32 0
  %3 = load ptr, ptr %m_table3, align 8
  %m_capacity = getelementptr inbounds %class.core_hashtable.93, ptr %this1, i32 0, i32 1
  %4 = load i32, ptr %m_capacity, align 8
  %idx.ext = zext i32 %4 to i64
  %add.ptr = getelementptr inbounds %class.obj_hash_entry.202, ptr %3, i64 %idx.ext
  store ptr %add.ptr, ptr %end, align 8
  br label %for.cond

for.cond:                                         ; preds = %for.inc, %if.end
  %5 = load ptr, ptr %curr, align 8
  %6 = load ptr, ptr %end, align 8
  %cmp4 = icmp ne ptr %5, %6
  br i1 %cmp4, label %for.body, label %for.end

for.body:                                         ; preds = %for.cond
  %7 = load ptr, ptr %curr, align 8
  %call = call noundef zeroext i1 @_ZNK14obj_hash_entryI9func_declE7is_freeEv(ptr noundef nonnull align 8 dereferenceable(8) %7)
  br i1 %call, label %if.else, label %if.then5

if.then5:                                         ; preds = %for.body
  %8 = load ptr, ptr %curr, align 8
  call void @_ZN14obj_hash_entryI9func_declE12mark_as_freeEv(ptr noundef nonnull align 8 dereferenceable(8) %8)
  br label %if.end6

if.else:                                          ; preds = %for.body
  %9 = load i32, ptr %overhead, align 4
  %inc = add i32 %9, 1
  store i32 %inc, ptr %overhead, align 4
  br label %if.end6

if.end6:                                          ; preds = %if.else, %if.then5
  br label %for.inc

for.inc:                                          ; preds = %if.end6
  %10 = load ptr, ptr %curr, align 8
  %incdec.ptr = getelementptr inbounds %class.obj_hash_entry.202, ptr %10, i32 1
  store ptr %incdec.ptr, ptr %curr, align 8
  br label %for.cond, !llvm.loop !4

for.end:                                          ; preds = %for.cond
  %m_capacity7 = getelementptr inbounds %class.core_hashtable.93, ptr %this1, i32 0, i32 1
  %11 = load i32, ptr %m_capacity7, align 8
  %cmp8 = icmp ugt i32 %11, 16
  br i1 %cmp8, label %land.lhs.true9, label %if.end18

land.lhs.true9:                                   ; preds = %for.end
  %12 = load i32, ptr %overhead, align 4
  %shl = shl i32 %12, 2
  %m_capacity10 = getelementptr inbounds %class.core_hashtable.93, ptr %this1, i32 0, i32 1
  %13 = load i32, ptr %m_capacity10, align 8
  %mul = mul i32 %13, 3
  %cmp11 = icmp ugt i32 %shl, %mul
  br i1 %cmp11, label %if.then12, label %if.end18

if.then12:                                        ; preds = %land.lhs.true9
  call void @_ZN14core_hashtableI14obj_hash_entryI9func_declE12obj_ptr_hashIS1_E6ptr_eqIS1_EE12delete_tableEv(ptr noundef nonnull align 8 dereferenceable(20) %this1)
  %m_capacity13 = getelementptr inbounds %class.core_hashtable.93, ptr %this1, i32 0, i32 1
  %14 = load i32, ptr %m_capacity13, align 8
  %shr = lshr i32 %14, 1
  %m_capacity14 = getelementptr inbounds %class.core_hashtable.93, ptr %this1, i32 0, i32 1
  store i32 %shr, ptr %m_capacity14, align 8
  %m_capacity15 = getelementptr inbounds %class.core_hashtable.93, ptr %this1, i32 0, i32 1
  %15 = load i32, ptr %m_capacity15, align 8
  %call16 = call noundef ptr @_ZN14core_hashtableI14obj_hash_entryI9func_declE12obj_ptr_hashIS1_E6ptr_eqIS1_EE11alloc_tableEj(ptr noundef nonnull align 8 dereferenceable(20) %this1, i32 noundef %15)
  %m_table17 = getelementptr inbounds %class.core_hashtable.93, ptr %this1, i32 0, i32 0
  store ptr %call16, ptr %m_table17, align 8
  br label %if.end18

if.end18:                                         ; preds = %if.then12, %land.lhs.true9, %for.end
  %m_size19 = getelementptr inbounds %class.core_hashtable.93, ptr %this1, i32 0, i32 2
  store i32 0, ptr %m_size19, align 4
  %m_num_deleted20 = getelementptr inbounds %class.core_hashtable.93, ptr %this1, i32 0, i32 3
  store i32 0, ptr %m_num_deleted20, align 8
  br label %return

return:                                           ; preds = %if.end18, %if.then
  ret void
}

; Function Attrs: mustprogress uwtable
define linkonce_odr hidden void @_ZN9table2mapI17default_map_entryI6symbolP9func_declE16symbol_hash_proc14symbol_eq_procE5resetEv(ptr noundef nonnull align 8 dereferenceable(24) %this) #4 comdat align 2 {
entry:
  %this.addr = alloca ptr, align 8
  store ptr %this, ptr %this.addr, align 8
  %this1 = load ptr, ptr %this.addr, align 8
  %m_table = getelementptr inbounds %class.table2map.99, ptr %this1, i32 0, i32 0
  call void @_ZN14core_hashtableI17default_map_entryI6symbolP9func_declEN9table2mapIS4_16symbol_hash_proc14symbol_eq_procE15entry_hash_procENS8_13entry_eq_procEE5resetEv(ptr noundef nonnull align 8 dereferenceable(20) %m_table)
  ret void
}

; Function Attrs: mustprogress uwtable
define linkonce_odr hidden void @_Z20reset_dealloc_valuesIK4sortN7datalog7context11sort_domainEEvR7obj_mapIT_PT0_E(ptr noundef nonnull align 8 dereferenceable(24) %m) #4 comdat {
entry:
  %m.addr = alloca ptr, align 8
  %__range1 = alloca ptr, align 8
  %__begin0 = alloca %"class.core_hashtable<obj_map<const sort, datalog::context::sort_domain *>::obj_map_entry, obj_hash<obj_map<const sort, datalog::context::sort_domain *>::key_data>, default_eq<obj_map<const sort, datalog::context::sort_domain *>::key_data>>::iterator", align 8
  %__end0 = alloca %"class.core_hashtable<obj_map<const sort, datalog::context::sort_domain *>::obj_map_entry, obj_hash<obj_map<const sort, datalog::context::sort_domain *>::key_data>, default_eq<obj_map<const sort, datalog::context::sort_domain *>::key_data>>::iterator", align 8
  %kv = alloca ptr, align 8
  store ptr %m, ptr %m.addr, align 8
  %0 = load ptr, ptr %m.addr, align 8
  store ptr %0, ptr %__range1, align 8
  %1 = load ptr, ptr %__range1, align 8
  %call = call { ptr, ptr } @_ZNK7obj_mapIK4sortPN7datalog7context11sort_domainEE5beginEv(ptr noundef nonnull align 8 dereferenceable(24) %1)
  %2 = getelementptr inbounds { ptr, ptr }, ptr %__begin0, i32 0, i32 0
  %3 = extractvalue { ptr, ptr } %call, 0
  store ptr %3, ptr %2, align 8
  %4 = getelementptr inbounds { ptr, ptr }, ptr %__begin0, i32 0, i32 1
  %5 = extractvalue { ptr, ptr } %call, 1
  store ptr %5, ptr %4, align 8
  %6 = load ptr, ptr %__range1, align 8
  %call1 = call { ptr, ptr } @_ZNK7obj_mapIK4sortPN7datalog7context11sort_domainEE3endEv(ptr noundef nonnull align 8 dereferenceable(24) %6)
  %7 = getelementptr inbounds { ptr, ptr }, ptr %__end0, i32 0, i32 0
  %8 = extractvalue { ptr, ptr } %call1, 0
  store ptr %8, ptr %7, align 8
  %9 = getelementptr inbounds { ptr, ptr }, ptr %__end0, i32 0, i32 1
  %10 = extractvalue { ptr, ptr } %call1, 1
  store ptr %10, ptr %9, align 8
  br label %for.cond

for.cond:                                         ; preds = %for.inc, %entry
  %call2 = call noundef zeroext i1 @_ZNK14core_hashtableIN7obj_mapIK4sortPN7datalog7context11sort_domainEE13obj_map_entryE8obj_hashINS7_8key_dataEE10default_eqISA_EE8iteratorneERKSF_(ptr noundef nonnull align 8 dereferenceable(16) %__begin0, ptr noundef nonnull align 8 dereferenceable(16) %__end0)
  br i1 %call2, label %for.body, label %for.end

for.body:                                         ; preds = %for.cond
  %call3 = call noundef nonnull align 8 dereferenceable(16) ptr @_ZN14core_hashtableIN7obj_mapIK4sortPN7datalog7context11sort_domainEE13obj_map_entryE8obj_hashINS7_8key_dataEE10default_eqISA_EE8iteratordeEv(ptr noundef nonnull align 8 dereferenceable(16) %__begin0)
  store ptr %call3, ptr %kv, align 8
  %11 = load ptr, ptr %kv, align 8
  %m_value = getelementptr inbounds %"struct.obj_map<const sort, datalog::context::sort_domain *>::key_data", ptr %11, i32 0, i32 1
  %12 = load ptr, ptr %m_value, align 8
  call void @_Z7deallocIN7datalog7context11sort_domainEEvPT_(ptr noundef %12)
  br label %for.inc

for.inc:                                          ; preds = %for.body
  %call4 = call noundef nonnull align 8 dereferenceable(16) ptr @_ZN14core_hashtableIN7obj_mapIK4sortPN7datalog7context11sort_domainEE13obj_map_entryE8obj_hashINS7_8key_dataEE10default_eqISA_EE8iteratorppEv(ptr noundef nonnull align 8 dereferenceable(16) %__begin0)
  br label %for.cond

for.end:                                          ; preds = %for.cond
  %13 = load ptr, ptr %m.addr, align 8
  call void @_ZN7obj_mapIK4sortPN7datalog7context11sort_domainEE5resetEv(ptr noundef nonnull align 8 dereferenceable(24) %13)
  ret void
}

; Function Attrs: mustprogress uwtable
define linkonce_odr hidden noundef nonnull align 8 dereferenceable(8) ptr @_ZN10scoped_ptrIN7datalog11engine_baseEEaSEPS1_(ptr noundef nonnull align 8 dereferenceable(8) %this, ptr noundef %n) #4 comdat align 2 {
entry:
  %this.addr = alloca ptr, align 8
  %n.addr = alloca ptr, align 8
  store ptr %this, ptr %this.addr, align 8
  store ptr %n, ptr %n.addr, align 8
  %this1 = load ptr, ptr %this.addr, align 8
  %m_ptr = getelementptr inbounds %class.scoped_ptr.128, ptr %this1, i32 0, i32 0
  %0 = load ptr, ptr %m_ptr, align 8
  %1 = load ptr, ptr %n.addr, align 8
  %cmp = icmp ne ptr %0, %1
  br i1 %cmp, label %if.then, label %if.end

if.then:                                          ; preds = %entry
  %m_ptr2 = getelementptr inbounds %class.scoped_ptr.128, ptr %this1, i32 0, i32 0
  %2 = load ptr, ptr %m_ptr2, align 8
  call void @_Z7deallocIN7datalog11engine_baseEEvPT_(ptr noundef %2)
  %3 = load ptr, ptr %n.addr, align 8
  %m_ptr3 = getelementptr inbounds %class.scoped_ptr.128, ptr %this1, i32 0, i32 0
  store ptr %3, ptr %m_ptr3, align 8
  br label %if.end

if.end:                                           ; preds = %if.then, %entry
  ret ptr %this1
}

; Function Attrs: mustprogress uwtable
define hidden noundef zeroext i1 @_ZNK7datalog7context7is_factEP3app(ptr noundef nonnull align 8 dereferenceable(3556) %this, ptr noundef %head) #4 align 2 {
entry:
  %this.addr = alloca ptr, align 8
  %head.addr = alloca ptr, align 8
  store ptr %this, ptr %this.addr, align 8
  store ptr %head, ptr %head.addr, align 8
  %this1 = load ptr, ptr %this.addr, align 8
  %m_rule_manager = getelementptr inbounds %"class.datalog::context", ptr %this1, i32 0, i32 12
  %0 = load ptr, ptr %head.addr, align 8
  %call = call noundef zeroext i1 @_ZNK7datalog12rule_manager7is_factEP3app(ptr noundef nonnull align 8 dereferenceable(1368) %m_rule_manager, ptr noundef %0)
  ret i1 %call
}

declare noundef zeroext i1 @_ZNK7datalog12rule_manager7is_factEP3app(ptr noundef nonnull align 8 dereferenceable(1368), ptr noundef) #1

; Function Attrs: mustprogress uwtable
define hidden noundef zeroext i1 @_ZNK7datalog7context15has_sort_domainEP4sort(ptr noundef nonnull align 8 dereferenceable(3556) %this, ptr noundef %s) #4 align 2 {
entry:
  %this.addr = alloca ptr, align 8
  %s.addr = alloca ptr, align 8
  store ptr %this, ptr %this.addr, align 8
  store ptr %s, ptr %s.addr, align 8
  %this1 = load ptr, ptr %this.addr, align 8
  %m_sorts = getelementptr inbounds %"class.datalog::context", ptr %this1, i32 0, i32 19
  %0 = load ptr, ptr %s.addr, align 8
  %call = call noundef zeroext i1 @_ZNK7obj_mapIK4sortPN7datalog7context11sort_domainEE8containsEPS1_(ptr noundef nonnull align 8 dereferenceable(24) %m_sorts, ptr noundef %0)
  ret i1 %call
}

; Function Attrs: mustprogress uwtable
define linkonce_odr hidden noundef zeroext i1 @_ZNK7obj_mapIK4sortPN7datalog7context11sort_domainEE8containsEPS1_(ptr noundef nonnull align 8 dereferenceable(24) %this, ptr noundef %k) #4 comdat align 2 {
entry:
  %this.addr = alloca ptr, align 8
  %k.addr = alloca ptr, align 8
  store ptr %this, ptr %this.addr, align 8
  store ptr %k, ptr %k.addr, align 8
  %this1 = load ptr, ptr %this.addr, align 8
  %0 = load ptr, ptr %k.addr, align 8
  %call = call noundef ptr @_ZNK7obj_mapIK4sortPN7datalog7context11sort_domainEE9find_coreEPS1_(ptr noundef nonnull align 8 dereferenceable(24) %this1, ptr noundef %0)
  %cmp = icmp ne ptr %call, null
  ret i1 %cmp
}

; Function Attrs: mustprogress uwtable
define hidden noundef nonnull align 8 dereferenceable(48) ptr @_ZN7datalog7context15get_sort_domainEP4sort(ptr noundef nonnull align 8 dereferenceable(3556) %this, ptr noundef %s) #4 align 2 {
entry:
  %this.addr = alloca ptr, align 8
  %s.addr = alloca ptr, align 8
  store ptr %this, ptr %this.addr, align 8
  store ptr %s, ptr %s.addr, align 8
  %this1 = load ptr, ptr %this.addr, align 8
  %m_sorts = getelementptr inbounds %"class.datalog::context", ptr %this1, i32 0, i32 19
  %0 = load ptr, ptr %s.addr, align 8
  %call = call noundef nonnull align 8 dereferenceable(8) ptr @_ZN7obj_mapIK4sortPN7datalog7context11sort_domainEE4findEPS1_(ptr noundef nonnull align 8 dereferenceable(24) %m_sorts, ptr noundef %0)
  %1 = load ptr, ptr %call, align 8
  ret ptr %1
}

; Function Attrs: mustprogress uwtable
define linkonce_odr hidden noundef nonnull align 8 dereferenceable(8) ptr @_ZN7obj_mapIK4sortPN7datalog7context11sort_domainEE4findEPS1_(ptr noundef nonnull align 8 dereferenceable(24) %this, ptr noundef %k) #4 comdat align 2 {
entry:
  %this.addr = alloca ptr, align 8
  %k.addr = alloca ptr, align 8
  %e = alloca ptr, align 8
  store ptr %this, ptr %this.addr, align 8
  store ptr %k, ptr %k.addr, align 8
  %this1 = load ptr, ptr %this.addr, align 8
  %0 = load ptr, ptr %k.addr, align 8
  %call = call noundef ptr @_ZNK7obj_mapIK4sortPN7datalog7context11sort_domainEE9find_coreEPS1_(ptr noundef nonnull align 8 dereferenceable(24) %this1, ptr noundef %0)
  store ptr %call, ptr %e, align 8
  %1 = load ptr, ptr %e, align 8
  %call2 = call noundef nonnull align 8 dereferenceable(16) ptr @_ZN7obj_mapIK4sortPN7datalog7context11sort_domainEE13obj_map_entry8get_dataEv(ptr noundef nonnull align 8 dereferenceable(16) %1)
  %m_value = getelementptr inbounds %"struct.obj_map<const sort, datalog::context::sort_domain *>::key_data", ptr %call2, i32 0, i32 1
  ret ptr %m_value
}

; Function Attrs: mustprogress uwtable
define hidden noundef nonnull align 8 dereferenceable(48) ptr @_ZNK7datalog7context15get_sort_domainEP4sort(ptr noundef nonnull align 8 dereferenceable(3556) %this, ptr noundef %s) #4 align 2 {
entry:
  %this.addr = alloca ptr, align 8
  %s.addr = alloca ptr, align 8
  store ptr %this, ptr %this.addr, align 8
  store ptr %s, ptr %s.addr, align 8
  %this1 = load ptr, ptr %this.addr, align 8
  %m_sorts = getelementptr inbounds %"class.datalog::context", ptr %this1, i32 0, i32 19
  %0 = load ptr, ptr %s.addr, align 8
  %call = call noundef nonnull align 8 dereferenceable(8) ptr @_ZNK7obj_mapIK4sortPN7datalog7context11sort_domainEE4findEPS1_(ptr noundef nonnull align 8 dereferenceable(24) %m_sorts, ptr noundef %0)
  %1 = load ptr, ptr %call, align 8
  ret ptr %1
}

; Function Attrs: mustprogress uwtable
define linkonce_odr hidden noundef nonnull align 8 dereferenceable(8) ptr @_ZNK7obj_mapIK4sortPN7datalog7context11sort_domainEE4findEPS1_(ptr noundef nonnull align 8 dereferenceable(24) %this, ptr noundef %k) #4 comdat align 2 {
entry:
  %this.addr = alloca ptr, align 8
  %k.addr = alloca ptr, align 8
  %e = alloca ptr, align 8
  store ptr %this, ptr %this.addr, align 8
  store ptr %k, ptr %k.addr, align 8
  %this1 = load ptr, ptr %this.addr, align 8
  %0 = load ptr, ptr %k.addr, align 8
  %call = call noundef ptr @_ZNK7obj_mapIK4sortPN7datalog7context11sort_domainEE9find_coreEPS1_(ptr noundef nonnull align 8 dereferenceable(24) %this1, ptr noundef %0)
  store ptr %call, ptr %e, align 8
  %1 = load ptr, ptr %e, align 8
  %call2 = call noundef nonnull align 8 dereferenceable(16) ptr @_ZN7obj_mapIK4sortPN7datalog7context11sort_domainEE13obj_map_entry8get_dataEv(ptr noundef nonnull align 8 dereferenceable(16) %1)
  %m_value = getelementptr inbounds %"struct.obj_map<const sort, datalog::context::sort_domain *>::key_data", ptr %call2, i32 0, i32 1
  ret ptr %m_value
}

; Function Attrs: mustprogress nounwind uwtable
define hidden noundef zeroext i1 @_ZNK7datalog7context20generate_proof_traceEv(ptr noundef nonnull align 8 dereferenceable(3556) %this) #5 align 2 {
entry:
  %this.addr = alloca ptr, align 8
  store ptr %this, ptr %this.addr, align 8
  %this1 = load ptr, ptr %this.addr, align 8
  %m_generate_proof_trace = getelementptr inbounds %"class.datalog::context", ptr %this1, i32 0, i32 5
  %0 = load i8, ptr %m_generate_proof_trace, align 8
  %tobool = trunc i8 %0 to i1
  ret i1 %tobool
}

; Function Attrs: mustprogress uwtable
define hidden noundef zeroext i1 @_ZNK7datalog7context14output_profileEv(ptr noundef nonnull align 8 dereferenceable(3556) %this) #4 align 2 {
entry:
  %this.addr = alloca ptr, align 8
  store ptr %this, ptr %this.addr, align 8
  %this1 = load ptr, ptr %this.addr, align 8
  %m_params = getelementptr inbounds %"class.datalog::context", ptr %this1, i32 0, i32 4
  %0 = load ptr, ptr %m_params, align 8
  %call = call noundef zeroext i1 @_ZNK9fp_params22datalog_output_profileEv(ptr noundef nonnull align 8 dereferenceable(16) %0)
  ret i1 %call
}

; Function Attrs: mustprogress uwtable
define linkonce_odr hidden noundef zeroext i1 @_ZNK9fp_params22datalog_output_profileEv(ptr noundef nonnull align 8 dereferenceable(16) %this) #4 comdat align 2 {
entry:
  %this.addr = alloca ptr, align 8
  store ptr %this, ptr %this.addr, align 8
  %this1 = load ptr, ptr %this.addr, align 8
  %p = getelementptr inbounds %struct.fp_params, ptr %this1, i32 0, i32 0
  %0 = load ptr, ptr %p, align 8
  %g = getelementptr inbounds %struct.fp_params, ptr %this1, i32 0, i32 1
  %call = call noundef zeroext i1 @_ZNK10params_ref8get_boolEPKcRKS_b(ptr noundef nonnull align 8 dereferenceable(8) %0, ptr noundef @.str.46, ptr noundef nonnull align 8 dereferenceable(8) %g, i1 noundef zeroext false)
  ret i1 %call
}

; Function Attrs: mustprogress uwtable
define hidden noundef zeroext i1 @_ZNK7datalog7context13output_tuplesEv(ptr noundef nonnull align 8 dereferenceable(3556) %this) #4 align 2 {
entry:
  %this.addr = alloca ptr, align 8
  store ptr %this, ptr %this.addr, align 8
  %this1 = load ptr, ptr %this.addr, align 8
  %m_params = getelementptr inbounds %"class.datalog::context", ptr %this1, i32 0, i32 4
  %0 = load ptr, ptr %m_params, align 8
  %call = call noundef zeroext i1 @_ZNK9fp_params20datalog_print_tuplesEv(ptr noundef nonnull align 8 dereferenceable(16) %0)
  ret i1 %call
}

; Function Attrs: mustprogress uwtable
define linkonce_odr hidden noundef zeroext i1 @_ZNK9fp_params20datalog_print_tuplesEv(ptr noundef nonnull align 8 dereferenceable(16) %this) #4 comdat align 2 {
entry:
  %this.addr = alloca ptr, align 8
  store ptr %this, ptr %this.addr, align 8
  %this1 = load ptr, ptr %this.addr, align 8
  %p = getelementptr inbounds %struct.fp_params, ptr %this1, i32 0, i32 0
  %0 = load ptr, ptr %p, align 8
  %g = getelementptr inbounds %struct.fp_params, ptr %this1, i32 0, i32 1
  %call = call noundef zeroext i1 @_ZNK10params_ref8get_boolEPKcRKS_b(ptr noundef nonnull align 8 dereferenceable(8) %0, ptr noundef @.str.47, ptr noundef nonnull align 8 dereferenceable(8) %g, i1 noundef zeroext true)
  ret i1 %call
}

; Function Attrs: mustprogress uwtable
define hidden noundef zeroext i1 @_ZNK7datalog7context13use_map_namesEv(ptr noundef nonnull align 8 dereferenceable(3556) %this) #4 align 2 {
entry:
  %this.addr = alloca ptr, align 8
  store ptr %this, ptr %this.addr, align 8
  %this1 = load ptr, ptr %this.addr, align 8
  %m_params = getelementptr inbounds %"class.datalog::context", ptr %this1, i32 0, i32 4
  %0 = load ptr, ptr %m_params, align 8
  %call = call noundef zeroext i1 @_ZNK9fp_params21datalog_use_map_namesEv(ptr noundef nonnull align 8 dereferenceable(16) %0)
  ret i1 %call
}

; Function Attrs: mustprogress uwtable
define linkonce_odr hidden noundef zeroext i1 @_ZNK9fp_params21datalog_use_map_namesEv(ptr noundef nonnull align 8 dereferenceable(16) %this) #4 comdat align 2 {
entry:
  %this.addr = alloca ptr, align 8
  store ptr %this, ptr %this.addr, align 8
  %this1 = load ptr, ptr %this.addr, align 8
  %p = getelementptr inbounds %struct.fp_params, ptr %this1, i32 0, i32 0
  %0 = load ptr, ptr %p, align 8
  %g = getelementptr inbounds %struct.fp_params, ptr %this1, i32 0, i32 1
  %call = call noundef zeroext i1 @_ZNK10params_ref8get_boolEPKcRKS_b(ptr noundef nonnull align 8 dereferenceable(8) %0, ptr noundef @.str.48, ptr noundef nonnull align 8 dereferenceable(8) %g, i1 noundef zeroext true)
  ret i1 %call
}

; Function Attrs: mustprogress uwtable
define hidden noundef zeroext i1 @_ZNK7datalog7context16fix_unbound_varsEv(ptr noundef nonnull align 8 dereferenceable(3556) %this) #4 align 2 {
entry:
  %this.addr = alloca ptr, align 8
  store ptr %this, ptr %this.addr, align 8
  %this1 = load ptr, ptr %this.addr, align 8
  %m_params = getelementptr inbounds %"class.datalog::context", ptr %this1, i32 0, i32 4
  %0 = load ptr, ptr %m_params, align 8
  %call = call noundef zeroext i1 @_ZNK9fp_params22xform_fix_unbound_varsEv(ptr noundef nonnull align 8 dereferenceable(16) %0)
  ret i1 %call
}

; Function Attrs: mustprogress uwtable
define linkonce_odr hidden noundef zeroext i1 @_ZNK9fp_params22xform_fix_unbound_varsEv(ptr noundef nonnull align 8 dereferenceable(16) %this) #4 comdat align 2 {
entry:
  %this.addr = alloca ptr, align 8
  store ptr %this, ptr %this.addr, align 8
  %this1 = load ptr, ptr %this.addr, align 8
  %p = getelementptr inbounds %struct.fp_params, ptr %this1, i32 0, i32 0
  %0 = load ptr, ptr %p, align 8
  %g = getelementptr inbounds %struct.fp_params, ptr %this1, i32 0, i32 1
  %call = call noundef zeroext i1 @_ZNK10params_ref8get_boolEPKcRKS_b(ptr noundef nonnull align 8 dereferenceable(8) %0, ptr noundef @.str.49, ptr noundef nonnull align 8 dereferenceable(8) %g, i1 noundef zeroext false)
  ret i1 %call
}

; Function Attrs: mustprogress uwtable
define hidden ptr @_ZNK7datalog7context13default_tableEv(ptr noundef nonnull align 8 dereferenceable(3556) %this) #4 align 2 {
entry:
  %retval = alloca %class.symbol, align 8
  %this.addr = alloca ptr, align 8
  store ptr %this, ptr %this.addr, align 8
  %this1 = load ptr, ptr %this.addr, align 8
  %m_params = getelementptr inbounds %"class.datalog::context", ptr %this1, i32 0, i32 4
  %0 = load ptr, ptr %m_params, align 8
  %call = call ptr @_ZNK9fp_params21datalog_default_tableEv(ptr noundef nonnull align 8 dereferenceable(16) %0)
  %coerce.dive = getelementptr inbounds %class.symbol, ptr %retval, i32 0, i32 0
  store ptr %call, ptr %coerce.dive, align 8
  %coerce.dive2 = getelementptr inbounds %class.symbol, ptr %retval, i32 0, i32 0
  %1 = load ptr, ptr %coerce.dive2, align 8
  ret ptr %1
}

; Function Attrs: mustprogress uwtable
define linkonce_odr hidden ptr @_ZNK9fp_params21datalog_default_tableEv(ptr noundef nonnull align 8 dereferenceable(16) %this) #4 comdat align 2 {
entry:
  %retval = alloca %class.symbol, align 8
  %this.addr = alloca ptr, align 8
  %ref.tmp = alloca %class.symbol, align 8
  store ptr %this, ptr %this.addr, align 8
  %this1 = load ptr, ptr %this.addr, align 8
  %p = getelementptr inbounds %struct.fp_params, ptr %this1, i32 0, i32 0
  %0 = load ptr, ptr %p, align 8
  %g = getelementptr inbounds %struct.fp_params, ptr %this1, i32 0, i32 1
  call void @_ZN6symbolC1EPKc(ptr noundef nonnull align 8 dereferenceable(8) %ref.tmp, ptr noundef @.str.51)
  %call = call ptr @_ZNK10params_ref7get_symEPKcRKS_RK6symbol(ptr noundef nonnull align 8 dereferenceable(8) %0, ptr noundef @.str.50, ptr noundef nonnull align 8 dereferenceable(8) %g, ptr noundef nonnull align 8 dereferenceable(8) %ref.tmp)
  %coerce.dive = getelementptr inbounds %class.symbol, ptr %retval, i32 0, i32 0
  store ptr %call, ptr %coerce.dive, align 8
  %coerce.dive2 = getelementptr inbounds %class.symbol, ptr %retval, i32 0, i32 0
  %1 = load ptr, ptr %coerce.dive2, align 8
  ret ptr %1
}

; Function Attrs: mustprogress nounwind uwtable
define hidden ptr @_ZNK7datalog7context16default_relationEv(ptr noundef nonnull align 8 dereferenceable(3556) %this) #5 align 2 {
entry:
  %retval = alloca %class.symbol, align 8
  %this.addr = alloca ptr, align 8
  store ptr %this, ptr %this.addr, align 8
  %this1 = load ptr, ptr %this.addr, align 8
  %m_default_relation = getelementptr inbounds %"class.datalog::context", ptr %this1, i32 0, i32 8
  call void @llvm.memcpy.p0.p0.i64(ptr align 8 %retval, ptr align 8 %m_default_relation, i64 8, i1 false)
  %coerce.dive = getelementptr inbounds %class.symbol, ptr %retval, i32 0, i32 0
  %0 = load ptr, ptr %coerce.dive, align 8
  ret ptr %0
}

; Function Attrs: nocallback nofree nounwind willreturn memory(argmem: readwrite)
declare void @llvm.memcpy.p0.p0.i64(ptr noalias nocapture writeonly, ptr noalias nocapture readonly, i64, i1 immarg) #8

; Function Attrs: mustprogress nounwind uwtable
define hidden void @_ZN7datalog7context20set_default_relationERK6symbol(ptr noundef nonnull align 8 dereferenceable(3556) %this, ptr noundef nonnull align 8 dereferenceable(8) %s) #5 align 2 {
entry:
  %this.addr = alloca ptr, align 8
  %s.addr = alloca ptr, align 8
  store ptr %this, ptr %this.addr, align 8
  store ptr %s, ptr %s.addr, align 8
  %this1 = load ptr, ptr %this.addr, align 8
  %0 = load ptr, ptr %s.addr, align 8
  %m_default_relation = getelementptr inbounds %"class.datalog::context", ptr %this1, i32 0, i32 8
  call void @llvm.memcpy.p0.p0.i64(ptr align 8 %m_default_relation, ptr align 8 %0, i64 8, i1 false)
  ret void
}

; Function Attrs: mustprogress uwtable
define hidden ptr @_ZNK7datalog7context9print_aigEv(ptr noundef nonnull align 8 dereferenceable(3556) %this) #4 align 2 {
entry:
  %retval = alloca %class.symbol, align 8
  %this.addr = alloca ptr, align 8
  store ptr %this, ptr %this.addr, align 8
  %this1 = load ptr, ptr %this.addr, align 8
  %m_params = getelementptr inbounds %"class.datalog::context", ptr %this1, i32 0, i32 4
  %0 = load ptr, ptr %m_params, align 8
  %call = call ptr @_ZNK9fp_params9print_aigEv(ptr noundef nonnull align 8 dereferenceable(16) %0)
  %coerce.dive = getelementptr inbounds %class.symbol, ptr %retval, i32 0, i32 0
  store ptr %call, ptr %coerce.dive, align 8
  %coerce.dive2 = getelementptr inbounds %class.symbol, ptr %retval, i32 0, i32 0
  %1 = load ptr, ptr %coerce.dive2, align 8
  ret ptr %1
}

; Function Attrs: mustprogress uwtable
define linkonce_odr hidden ptr @_ZNK9fp_params9print_aigEv(ptr noundef nonnull align 8 dereferenceable(16) %this) #4 comdat align 2 {
entry:
  %retval = alloca %class.symbol, align 8
  %this.addr = alloca ptr, align 8
  %ref.tmp = alloca %class.symbol, align 8
  store ptr %this, ptr %this.addr, align 8
  %this1 = load ptr, ptr %this.addr, align 8
  %p = getelementptr inbounds %struct.fp_params, ptr %this1, i32 0, i32 0
  %0 = load ptr, ptr %p, align 8
  %g = getelementptr inbounds %struct.fp_params, ptr %this1, i32 0, i32 1
  call void @_ZN6symbolC1EPKc(ptr noundef nonnull align 8 dereferenceable(8) %ref.tmp, ptr noundef @.str.36)
  %call = call ptr @_ZNK10params_ref7get_symEPKcRKS_RK6symbol(ptr noundef nonnull align 8 dereferenceable(8) %0, ptr noundef @.str.52, ptr noundef nonnull align 8 dereferenceable(8) %g, ptr noundef nonnull align 8 dereferenceable(8) %ref.tmp)
  %coerce.dive = getelementptr inbounds %class.symbol, ptr %retval, i32 0, i32 0
  store ptr %call, ptr %coerce.dive, align 8
  %coerce.dive2 = getelementptr inbounds %class.symbol, ptr %retval, i32 0, i32 0
  %1 = load ptr, ptr %coerce.dive2, align 8
  ret ptr %1
}

; Function Attrs: mustprogress uwtable
define hidden ptr @_ZNK7datalog7context14check_relationEv(ptr noundef nonnull align 8 dereferenceable(3556) %this) #4 align 2 {
entry:
  %retval = alloca %class.symbol, align 8
  %this.addr = alloca ptr, align 8
  store ptr %this, ptr %this.addr, align 8
  %this1 = load ptr, ptr %this.addr, align 8
  %m_params = getelementptr inbounds %"class.datalog::context", ptr %this1, i32 0, i32 4
  %0 = load ptr, ptr %m_params, align 8
  %call = call ptr @_ZNK9fp_params22datalog_check_relationEv(ptr noundef nonnull align 8 dereferenceable(16) %0)
  %coerce.dive = getelementptr inbounds %class.symbol, ptr %retval, i32 0, i32 0
  store ptr %call, ptr %coerce.dive, align 8
  %coerce.dive2 = getelementptr inbounds %class.symbol, ptr %retval, i32 0, i32 0
  %1 = load ptr, ptr %coerce.dive2, align 8
  ret ptr %1
}

; Function Attrs: mustprogress uwtable
define linkonce_odr hidden ptr @_ZNK9fp_params22datalog_check_relationEv(ptr noundef nonnull align 8 dereferenceable(16) %this) #4 comdat align 2 {
entry:
  %retval = alloca %class.symbol, align 8
  %this.addr = alloca ptr, align 8
  %ref.tmp = alloca %class.symbol, align 8
  store ptr %this, ptr %this.addr, align 8
  %this1 = load ptr, ptr %this.addr, align 8
  %p = getelementptr inbounds %struct.fp_params, ptr %this1, i32 0, i32 0
  %0 = load ptr, ptr %p, align 8
  %g = getelementptr inbounds %struct.fp_params, ptr %this1, i32 0, i32 1
  call void @_ZN6symbolC1EPKc(ptr noundef nonnull align 8 dereferenceable(8) %ref.tmp, ptr noundef @.str.54)
  %call = call ptr @_ZNK10params_ref7get_symEPKcRKS_RK6symbol(ptr noundef nonnull align 8 dereferenceable(8) %0, ptr noundef @.str.53, ptr noundef nonnull align 8 dereferenceable(8) %g, ptr noundef nonnull align 8 dereferenceable(8) %ref.tmp)
  %coerce.dive = getelementptr inbounds %class.symbol, ptr %retval, i32 0, i32 0
  store ptr %call, ptr %coerce.dive, align 8
  %coerce.dive2 = getelementptr inbounds %class.symbol, ptr %retval, i32 0, i32 0
  %1 = load ptr, ptr %coerce.dive2, align 8
  ret ptr %1
}

; Function Attrs: mustprogress uwtable
define hidden ptr @_ZNK7datalog7context21default_table_checkerEv(ptr noundef nonnull align 8 dereferenceable(3556) %this) #4 align 2 {
entry:
  %retval = alloca %class.symbol, align 8
  %this.addr = alloca ptr, align 8
  store ptr %this, ptr %this.addr, align 8
  %this1 = load ptr, ptr %this.addr, align 8
  %m_params = getelementptr inbounds %"class.datalog::context", ptr %this1, i32 0, i32 4
  %0 = load ptr, ptr %m_params, align 8
  %call = call ptr @_ZNK9fp_params29datalog_default_table_checkerEv(ptr noundef nonnull align 8 dereferenceable(16) %0)
  %coerce.dive = getelementptr inbounds %class.symbol, ptr %retval, i32 0, i32 0
  store ptr %call, ptr %coerce.dive, align 8
  %coerce.dive2 = getelementptr inbounds %class.symbol, ptr %retval, i32 0, i32 0
  %1 = load ptr, ptr %coerce.dive2, align 8
  ret ptr %1
}

; Function Attrs: mustprogress uwtable
define linkonce_odr hidden ptr @_ZNK9fp_params29datalog_default_table_checkerEv(ptr noundef nonnull align 8 dereferenceable(16) %this) #4 comdat align 2 {
entry:
  %retval = alloca %class.symbol, align 8
  %this.addr = alloca ptr, align 8
  %ref.tmp = alloca %class.symbol, align 8
  store ptr %this, ptr %this.addr, align 8
  %this1 = load ptr, ptr %this.addr, align 8
  %p = getelementptr inbounds %struct.fp_params, ptr %this1, i32 0, i32 0
  %0 = load ptr, ptr %p, align 8
  %g = getelementptr inbounds %struct.fp_params, ptr %this1, i32 0, i32 1
  call void @_ZN6symbolC1EPKc(ptr noundef nonnull align 8 dereferenceable(8) %ref.tmp, ptr noundef @.str.54)
  %call = call ptr @_ZNK10params_ref7get_symEPKcRKS_RK6symbol(ptr noundef nonnull align 8 dereferenceable(8) %0, ptr noundef @.str.55, ptr noundef nonnull align 8 dereferenceable(8) %g, ptr noundef nonnull align 8 dereferenceable(8) %ref.tmp)
  %coerce.dive = getelementptr inbounds %class.symbol, ptr %retval, i32 0, i32 0
  store ptr %call, ptr %coerce.dive, align 8
  %coerce.dive2 = getelementptr inbounds %class.symbol, ptr %retval, i32 0, i32 0
  %1 = load ptr, ptr %coerce.dive2, align 8
  ret ptr %1
}

; Function Attrs: mustprogress uwtable
define hidden noundef zeroext i1 @_ZNK7datalog7context21default_table_checkedEv(ptr noundef nonnull align 8 dereferenceable(3556) %this) #4 align 2 {
entry:
  %this.addr = alloca ptr, align 8
  store ptr %this, ptr %this.addr, align 8
  %this1 = load ptr, ptr %this.addr, align 8
  %m_params = getelementptr inbounds %"class.datalog::context", ptr %this1, i32 0, i32 4
  %0 = load ptr, ptr %m_params, align 8
  %call = call noundef zeroext i1 @_ZNK9fp_params29datalog_default_table_checkedEv(ptr noundef nonnull align 8 dereferenceable(16) %0)
  ret i1 %call
}

; Function Attrs: mustprogress uwtable
define linkonce_odr hidden noundef zeroext i1 @_ZNK9fp_params29datalog_default_table_checkedEv(ptr noundef nonnull align 8 dereferenceable(16) %this) #4 comdat align 2 {
entry:
  %this.addr = alloca ptr, align 8
  store ptr %this, ptr %this.addr, align 8
  %this1 = load ptr, ptr %this.addr, align 8
  %p = getelementptr inbounds %struct.fp_params, ptr %this1, i32 0, i32 0
  %0 = load ptr, ptr %p, align 8
  %g = getelementptr inbounds %struct.fp_params, ptr %this1, i32 0, i32 1
  %call = call noundef zeroext i1 @_ZNK10params_ref8get_boolEPKcRKS_b(ptr noundef nonnull align 8 dereferenceable(8) %0, ptr noundef @.str.56, ptr noundef nonnull align 8 dereferenceable(8) %g, i1 noundef zeroext false)
  ret i1 %call
}

; Function Attrs: mustprogress uwtable
define hidden noundef zeroext i1 @_ZNK7datalog7context35dbg_fpr_nonempty_relation_signatureEv(ptr noundef nonnull align 8 dereferenceable(3556) %this) #4 align 2 {
entry:
  %this.addr = alloca ptr, align 8
  store ptr %this, ptr %this.addr, align 8
  %this1 = load ptr, ptr %this.addr, align 8
  %m_params = getelementptr inbounds %"class.datalog::context", ptr %this1, i32 0, i32 4
  %0 = load ptr, ptr %m_params, align 8
  %call = call noundef zeroext i1 @_ZNK9fp_params43datalog_dbg_fpr_nonempty_relation_signatureEv(ptr noundef nonnull align 8 dereferenceable(16) %0)
  ret i1 %call
}

; Function Attrs: mustprogress uwtable
define linkonce_odr hidden noundef zeroext i1 @_ZNK9fp_params43datalog_dbg_fpr_nonempty_relation_signatureEv(ptr noundef nonnull align 8 dereferenceable(16) %this) #4 comdat align 2 {
entry:
  %this.addr = alloca ptr, align 8
  store ptr %this, ptr %this.addr, align 8
  %this1 = load ptr, ptr %this.addr, align 8
  %p = getelementptr inbounds %struct.fp_params, ptr %this1, i32 0, i32 0
  %0 = load ptr, ptr %p, align 8
  %g = getelementptr inbounds %struct.fp_params, ptr %this1, i32 0, i32 1
  %call = call noundef zeroext i1 @_ZNK10params_ref8get_boolEPKcRKS_b(ptr noundef nonnull align 8 dereferenceable(8) %0, ptr noundef @.str.57, ptr noundef nonnull align 8 dereferenceable(8) %g, i1 noundef zeroext false)
  ret i1 %call
}

; Function Attrs: mustprogress uwtable
define hidden noundef i32 @_ZNK7datalog7context33dl_profile_milliseconds_thresholdEv(ptr noundef nonnull align 8 dereferenceable(3556) %this) #4 align 2 {
entry:
  %this.addr = alloca ptr, align 8
  store ptr %this, ptr %this.addr, align 8
  %this1 = load ptr, ptr %this.addr, align 8
  %m_params = getelementptr inbounds %"class.datalog::context", ptr %this1, i32 0, i32 4
  %0 = load ptr, ptr %m_params, align 8
  %call = call noundef i32 @_ZNK9fp_params36datalog_profile_timeout_millisecondsEv(ptr noundef nonnull align 8 dereferenceable(16) %0)
  ret i32 %call
}

; Function Attrs: mustprogress uwtable
define linkonce_odr hidden noundef i32 @_ZNK9fp_params36datalog_profile_timeout_millisecondsEv(ptr noundef nonnull align 8 dereferenceable(16) %this) #4 comdat align 2 {
entry:
  %this.addr = alloca ptr, align 8
  store ptr %this, ptr %this.addr, align 8
  %this1 = load ptr, ptr %this.addr, align 8
  %p = getelementptr inbounds %struct.fp_params, ptr %this1, i32 0, i32 0
  %0 = load ptr, ptr %p, align 8
  %g = getelementptr inbounds %struct.fp_params, ptr %this1, i32 0, i32 1
  %call = call noundef i32 @_ZNK10params_ref8get_uintEPKcRKS_j(ptr noundef nonnull align 8 dereferenceable(8) %0, ptr noundef @.str.58, ptr noundef nonnull align 8 dereferenceable(8) %g, i32 noundef 0)
  ret i32 %call
}

; Function Attrs: mustprogress uwtable
define hidden noundef zeroext i1 @_ZNK7datalog7context21all_or_nothing_deltasEv(ptr noundef nonnull align 8 dereferenceable(3556) %this) #4 align 2 {
entry:
  %this.addr = alloca ptr, align 8
  store ptr %this, ptr %this.addr, align 8
  %this1 = load ptr, ptr %this.addr, align 8
  %m_params = getelementptr inbounds %"class.datalog::context", ptr %this1, i32 0, i32 4
  %0 = load ptr, ptr %m_params, align 8
  %call = call noundef zeroext i1 @_ZNK9fp_params29datalog_all_or_nothing_deltasEv(ptr noundef nonnull align 8 dereferenceable(16) %0)
  ret i1 %call
}

; Function Attrs: mustprogress uwtable
define linkonce_odr hidden noundef zeroext i1 @_ZNK9fp_params29datalog_all_or_nothing_deltasEv(ptr noundef nonnull align 8 dereferenceable(16) %this) #4 comdat align 2 {
entry:
  %this.addr = alloca ptr, align 8
  store ptr %this, ptr %this.addr, align 8
  %this1 = load ptr, ptr %this.addr, align 8
  %p = getelementptr inbounds %struct.fp_params, ptr %this1, i32 0, i32 0
  %0 = load ptr, ptr %p, align 8
  %g = getelementptr inbounds %struct.fp_params, ptr %this1, i32 0, i32 1
  %call = call noundef zeroext i1 @_ZNK10params_ref8get_boolEPKcRKS_b(ptr noundef nonnull align 8 dereferenceable(8) %0, ptr noundef @.str.59, ptr noundef nonnull align 8 dereferenceable(8) %g, i1 noundef zeroext false)
  ret i1 %call
}

; Function Attrs: mustprogress uwtable
define hidden noundef zeroext i1 @_ZNK7datalog7context21compile_with_wideningEv(ptr noundef nonnull align 8 dereferenceable(3556) %this) #4 align 2 {
entry:
  %this.addr = alloca ptr, align 8
  store ptr %this, ptr %this.addr, align 8
  %this1 = load ptr, ptr %this.addr, align 8
  %m_params = getelementptr inbounds %"class.datalog::context", ptr %this1, i32 0, i32 4
  %0 = load ptr, ptr %m_params, align 8
  %call = call noundef zeroext i1 @_ZNK9fp_params29datalog_compile_with_wideningEv(ptr noundef nonnull align 8 dereferenceable(16) %0)
  ret i1 %call
}

; Function Attrs: mustprogress uwtable
define linkonce_odr hidden noundef zeroext i1 @_ZNK9fp_params29datalog_compile_with_wideningEv(ptr noundef nonnull align 8 dereferenceable(16) %this) #4 comdat align 2 {
entry:
  %this.addr = alloca ptr, align 8
  store ptr %this, ptr %this.addr, align 8
  %this1 = load ptr, ptr %this.addr, align 8
  %p = getelementptr inbounds %struct.fp_params, ptr %this1, i32 0, i32 0
  %0 = load ptr, ptr %p, align 8
  %g = getelementptr inbounds %struct.fp_params, ptr %this1, i32 0, i32 1
  %call = call noundef zeroext i1 @_ZNK10params_ref8get_boolEPKcRKS_b(ptr noundef nonnull align 8 dereferenceable(8) %0, ptr noundef @.str.60, ptr noundef nonnull align 8 dereferenceable(8) %g, i1 noundef zeroext false)
  ret i1 %call
}

; Function Attrs: mustprogress nounwind uwtable
define hidden noundef zeroext i1 @_ZNK7datalog7context18unbound_compressorEv(ptr noundef nonnull align 8 dereferenceable(3556) %this) #5 align 2 {
entry:
  %this.addr = alloca ptr, align 8
  store ptr %this, ptr %this.addr, align 8
  %this1 = load ptr, ptr %this.addr, align 8
  %m_unbound_compressor = getelementptr inbounds %"class.datalog::context", ptr %this1, i32 0, i32 6
  %0 = load i8, ptr %m_unbound_compressor, align 1
  %tobool = trunc i8 %0 to i1
  ret i1 %tobool
}

; Function Attrs: mustprogress nounwind uwtable
define hidden void @_ZN7datalog7context22set_unbound_compressorEb(ptr noundef nonnull align 8 dereferenceable(3556) %this, i1 noundef zeroext %f) #5 align 2 {
entry:
  %this.addr = alloca ptr, align 8
  %f.addr = alloca i8, align 1
  store ptr %this, ptr %this.addr, align 8
  %frombool = zext i1 %f to i8
  store i8 %frombool, ptr %f.addr, align 1
  %this1 = load ptr, ptr %this.addr, align 8
  %0 = load i8, ptr %f.addr, align 1
  %tobool = trunc i8 %0 to i1
  %m_unbound_compressor = getelementptr inbounds %"class.datalog::context", ptr %this1, i32 0, i32 6
  %frombool2 = zext i1 %tobool to i8
  store i8 %frombool2, ptr %m_unbound_compressor, align 1
  ret void
}

; Function Attrs: mustprogress uwtable
define hidden noundef i32 @_ZNK7datalog7context12soft_timeoutEv(ptr noundef nonnull align 8 dereferenceable(3556) %this) #4 align 2 {
entry:
  %this.addr = alloca ptr, align 8
  store ptr %this, ptr %this.addr, align 8
  %this1 = load ptr, ptr %this.addr, align 8
  %m_params = getelementptr inbounds %"class.datalog::context", ptr %this1, i32 0, i32 4
  %0 = load ptr, ptr %m_params, align 8
  %call = call noundef i32 @_ZNK9fp_params15datalog_timeoutEv(ptr noundef nonnull align 8 dereferenceable(16) %0)
  ret i32 %call
}

; Function Attrs: mustprogress uwtable
define linkonce_odr hidden noundef i32 @_ZNK9fp_params15datalog_timeoutEv(ptr noundef nonnull align 8 dereferenceable(16) %this) #4 comdat align 2 {
entry:
  %this.addr = alloca ptr, align 8
  store ptr %this, ptr %this.addr, align 8
  %this1 = load ptr, ptr %this.addr, align 8
  %p = getelementptr inbounds %struct.fp_params, ptr %this1, i32 0, i32 0
  %0 = load ptr, ptr %p, align 8
  %g = getelementptr inbounds %struct.fp_params, ptr %this1, i32 0, i32 1
  %call = call noundef i32 @_ZNK10params_ref8get_uintEPKcRKS_j(ptr noundef nonnull align 8 dereferenceable(8) %0, ptr noundef @.str.61, ptr noundef nonnull align 8 dereferenceable(8) %g, i32 noundef 0)
  ret i32 %call
}

; Function Attrs: mustprogress uwtable
define hidden noundef zeroext i1 @_ZNK7datalog7context21similarity_compressorEv(ptr noundef nonnull align 8 dereferenceable(3556) %this) #4 align 2 {
entry:
  %this.addr = alloca ptr, align 8
  store ptr %this, ptr %this.addr, align 8
  %this1 = load ptr, ptr %this.addr, align 8
  %m_params = getelementptr inbounds %"class.datalog::context", ptr %this1, i32 0, i32 4
  %0 = load ptr, ptr %m_params, align 8
  %call = call noundef zeroext i1 @_ZNK9fp_params29datalog_similarity_compressorEv(ptr noundef nonnull align 8 dereferenceable(16) %0)
  ret i1 %call
}

; Function Attrs: mustprogress uwtable
define linkonce_odr hidden noundef zeroext i1 @_ZNK9fp_params29datalog_similarity_compressorEv(ptr noundef nonnull align 8 dereferenceable(16) %this) #4 comdat align 2 {
entry:
  %this.addr = alloca ptr, align 8
  store ptr %this, ptr %this.addr, align 8
  %this1 = load ptr, ptr %this.addr, align 8
  %p = getelementptr inbounds %struct.fp_params, ptr %this1, i32 0, i32 0
  %0 = load ptr, ptr %p, align 8
  %g = getelementptr inbounds %struct.fp_params, ptr %this1, i32 0, i32 1
  %call = call noundef zeroext i1 @_ZNK10params_ref8get_boolEPKcRKS_b(ptr noundef nonnull align 8 dereferenceable(8) %0, ptr noundef @.str.62, ptr noundef nonnull align 8 dereferenceable(8) %g, i1 noundef zeroext true)
  ret i1 %call
}

; Function Attrs: mustprogress uwtable
define hidden noundef i32 @_ZNK7datalog7context31similarity_compressor_thresholdEv(ptr noundef nonnull align 8 dereferenceable(3556) %this) #4 align 2 {
entry:
  %this.addr = alloca ptr, align 8
  store ptr %this, ptr %this.addr, align 8
  %this1 = load ptr, ptr %this.addr, align 8
  %m_params = getelementptr inbounds %"class.datalog::context", ptr %this1, i32 0, i32 4
  %0 = load ptr, ptr %m_params, align 8
  %call = call noundef i32 @_ZNK9fp_params39datalog_similarity_compressor_thresholdEv(ptr noundef nonnull align 8 dereferenceable(16) %0)
  ret i32 %call
}

; Function Attrs: mustprogress uwtable
define linkonce_odr hidden noundef i32 @_ZNK9fp_params39datalog_similarity_compressor_thresholdEv(ptr noundef nonnull align 8 dereferenceable(16) %this) #4 comdat align 2 {
entry:
  %this.addr = alloca ptr, align 8
  store ptr %this, ptr %this.addr, align 8
  %this1 = load ptr, ptr %this.addr, align 8
  %p = getelementptr inbounds %struct.fp_params, ptr %this1, i32 0, i32 0
  %0 = load ptr, ptr %p, align 8
  %g = getelementptr inbounds %struct.fp_params, ptr %this1, i32 0, i32 1
  %call = call noundef i32 @_ZNK10params_ref8get_uintEPKcRKS_j(ptr noundef nonnull align 8 dereferenceable(8) %0, ptr noundef @.str.63, ptr noundef nonnull align 8 dereferenceable(8) %g, i32 noundef 11)
  ret i32 %call
}

; Function Attrs: mustprogress uwtable
define hidden noundef i32 @_ZNK7datalog7context23initial_restart_timeoutEv(ptr noundef nonnull align 8 dereferenceable(3556) %this) #4 align 2 {
entry:
  %this.addr = alloca ptr, align 8
  store ptr %this, ptr %this.addr, align 8
  %this1 = load ptr, ptr %this.addr, align 8
  %m_params = getelementptr inbounds %"class.datalog::context", ptr %this1, i32 0, i32 4
  %0 = load ptr, ptr %m_params, align 8
  %call = call noundef i32 @_ZNK9fp_params31datalog_initial_restart_timeoutEv(ptr noundef nonnull align 8 dereferenceable(16) %0)
  ret i32 %call
}

; Function Attrs: mustprogress uwtable
define linkonce_odr hidden noundef i32 @_ZNK9fp_params31datalog_initial_restart_timeoutEv(ptr noundef nonnull align 8 dereferenceable(16) %this) #4 comdat align 2 {
entry:
  %this.addr = alloca ptr, align 8
  store ptr %this, ptr %this.addr, align 8
  %this1 = load ptr, ptr %this.addr, align 8
  %p = getelementptr inbounds %struct.fp_params, ptr %this1, i32 0, i32 0
  %0 = load ptr, ptr %p, align 8
  %g = getelementptr inbounds %struct.fp_params, ptr %this1, i32 0, i32 1
  %call = call noundef i32 @_ZNK10params_ref8get_uintEPKcRKS_j(ptr noundef nonnull align 8 dereferenceable(8) %0, ptr noundef @.str.64, ptr noundef nonnull align 8 dereferenceable(8) %g, i32 noundef 0)
  ret i32 %call
}

; Function Attrs: mustprogress uwtable
define hidden noundef zeroext i1 @_ZNK7datalog7context21generate_explanationsEv(ptr noundef nonnull align 8 dereferenceable(3556) %this) #4 align 2 {
entry:
  %this.addr = alloca ptr, align 8
  store ptr %this, ptr %this.addr, align 8
  %this1 = load ptr, ptr %this.addr, align 8
  %m_params = getelementptr inbounds %"class.datalog::context", ptr %this1, i32 0, i32 4
  %0 = load ptr, ptr %m_params, align 8
  %call = call noundef zeroext i1 @_ZNK9fp_params29datalog_generate_explanationsEv(ptr noundef nonnull align 8 dereferenceable(16) %0)
  ret i1 %call
}

; Function Attrs: mustprogress uwtable
define linkonce_odr hidden noundef zeroext i1 @_ZNK9fp_params29datalog_generate_explanationsEv(ptr noundef nonnull align 8 dereferenceable(16) %this) #4 comdat align 2 {
entry:
  %this.addr = alloca ptr, align 8
  store ptr %this, ptr %this.addr, align 8
  %this1 = load ptr, ptr %this.addr, align 8
  %p = getelementptr inbounds %struct.fp_params, ptr %this1, i32 0, i32 0
  %0 = load ptr, ptr %p, align 8
  %g = getelementptr inbounds %struct.fp_params, ptr %this1, i32 0, i32 1
  %call = call noundef zeroext i1 @_ZNK10params_ref8get_boolEPKcRKS_b(ptr noundef nonnull align 8 dereferenceable(8) %0, ptr noundef @.str.65, ptr noundef nonnull align 8 dereferenceable(8) %g, i1 noundef zeroext false)
  ret i1 %call
}

; Function Attrs: mustprogress uwtable
define hidden noundef zeroext i1 @_ZNK7datalog7context30explanations_on_relation_levelEv(ptr noundef nonnull align 8 dereferenceable(3556) %this) #4 align 2 {
entry:
  %this.addr = alloca ptr, align 8
  store ptr %this, ptr %this.addr, align 8
  %this1 = load ptr, ptr %this.addr, align 8
  %m_params = getelementptr inbounds %"class.datalog::context", ptr %this1, i32 0, i32 4
  %0 = load ptr, ptr %m_params, align 8
  %call = call noundef zeroext i1 @_ZNK9fp_params38datalog_explanations_on_relation_levelEv(ptr noundef nonnull align 8 dereferenceable(16) %0)
  ret i1 %call
}

; Function Attrs: mustprogress uwtable
define linkonce_odr hidden noundef zeroext i1 @_ZNK9fp_params38datalog_explanations_on_relation_levelEv(ptr noundef nonnull align 8 dereferenceable(16) %this) #4 comdat align 2 {
entry:
  %this.addr = alloca ptr, align 8
  store ptr %this, ptr %this.addr, align 8
  %this1 = load ptr, ptr %this.addr, align 8
  %p = getelementptr inbounds %struct.fp_params, ptr %this1, i32 0, i32 0
  %0 = load ptr, ptr %p, align 8
  %g = getelementptr inbounds %struct.fp_params, ptr %this1, i32 0, i32 1
  %call = call noundef zeroext i1 @_ZNK10params_ref8get_boolEPKcRKS_b(ptr noundef nonnull align 8 dereferenceable(8) %0, ptr noundef @.str.66, ptr noundef nonnull align 8 dereferenceable(8) %g, i1 noundef zeroext false)
  ret i1 %call
}

; Function Attrs: mustprogress uwtable
define hidden noundef zeroext i1 @_ZNK7datalog7context22magic_sets_for_queriesEv(ptr noundef nonnull align 8 dereferenceable(3556) %this) #4 align 2 {
entry:
  %this.addr = alloca ptr, align 8
  store ptr %this, ptr %this.addr, align 8
  %this1 = load ptr, ptr %this.addr, align 8
  %m_params = getelementptr inbounds %"class.datalog::context", ptr %this1, i32 0, i32 4
  %0 = load ptr, ptr %m_params, align 8
  %call = call noundef zeroext i1 @_ZNK9fp_params30datalog_magic_sets_for_queriesEv(ptr noundef nonnull align 8 dereferenceable(16) %0)
  ret i1 %call
}

; Function Attrs: mustprogress uwtable
define linkonce_odr hidden noundef zeroext i1 @_ZNK9fp_params30datalog_magic_sets_for_queriesEv(ptr noundef nonnull align 8 dereferenceable(16) %this) #4 comdat align 2 {
entry:
  %this.addr = alloca ptr, align 8
  store ptr %this, ptr %this.addr, align 8
  %this1 = load ptr, ptr %this.addr, align 8
  %p = getelementptr inbounds %struct.fp_params, ptr %this1, i32 0, i32 0
  %0 = load ptr, ptr %p, align 8
  %g = getelementptr inbounds %struct.fp_params, ptr %this1, i32 0, i32 1
  %call = call noundef zeroext i1 @_ZNK10params_ref8get_boolEPKcRKS_b(ptr noundef nonnull align 8 dereferenceable(8) %0, ptr noundef @.str.67, ptr noundef nonnull align 8 dereferenceable(8) %g, i1 noundef zeroext false)
  ret i1 %call
}

; Function Attrs: mustprogress uwtable
define hidden ptr @_ZNK7datalog7context13tab_selectionEv(ptr noundef nonnull align 8 dereferenceable(3556) %this) #4 align 2 {
entry:
  %retval = alloca %class.symbol, align 8
  %this.addr = alloca ptr, align 8
  store ptr %this, ptr %this.addr, align 8
  %this1 = load ptr, ptr %this.addr, align 8
  %m_params = getelementptr inbounds %"class.datalog::context", ptr %this1, i32 0, i32 4
  %0 = load ptr, ptr %m_params, align 8
  %call = call ptr @_ZNK9fp_params13tab_selectionEv(ptr noundef nonnull align 8 dereferenceable(16) %0)
  %coerce.dive = getelementptr inbounds %class.symbol, ptr %retval, i32 0, i32 0
  store ptr %call, ptr %coerce.dive, align 8
  %coerce.dive2 = getelementptr inbounds %class.symbol, ptr %retval, i32 0, i32 0
  %1 = load ptr, ptr %coerce.dive2, align 8
  ret ptr %1
}

; Function Attrs: mustprogress uwtable
define linkonce_odr hidden ptr @_ZNK9fp_params13tab_selectionEv(ptr noundef nonnull align 8 dereferenceable(16) %this) #4 comdat align 2 {
entry:
  %retval = alloca %class.symbol, align 8
  %this.addr = alloca ptr, align 8
  %ref.tmp = alloca %class.symbol, align 8
  store ptr %this, ptr %this.addr, align 8
  %this1 = load ptr, ptr %this.addr, align 8
  %p = getelementptr inbounds %struct.fp_params, ptr %this1, i32 0, i32 0
  %0 = load ptr, ptr %p, align 8
  %g = getelementptr inbounds %struct.fp_params, ptr %this1, i32 0, i32 1
  call void @_ZN6symbolC1EPKc(ptr noundef nonnull align 8 dereferenceable(8) %ref.tmp, ptr noundef @.str.69)
  %call = call ptr @_ZNK10params_ref7get_symEPKcRKS_RK6symbol(ptr noundef nonnull align 8 dereferenceable(8) %0, ptr noundef @.str.68, ptr noundef nonnull align 8 dereferenceable(8) %g, ptr noundef nonnull align 8 dereferenceable(8) %ref.tmp)
  %coerce.dive = getelementptr inbounds %class.symbol, ptr %retval, i32 0, i32 0
  store ptr %call, ptr %coerce.dive, align 8
  %coerce.dive2 = getelementptr inbounds %class.symbol, ptr %retval, i32 0, i32 0
  %1 = load ptr, ptr %coerce.dive2, align 8
  ret ptr %1
}

; Function Attrs: mustprogress uwtable
define hidden noundef zeroext i1 @_ZNK7datalog7context9xform_coiEv(ptr noundef nonnull align 8 dereferenceable(3556) %this) #4 align 2 {
entry:
  %this.addr = alloca ptr, align 8
  store ptr %this, ptr %this.addr, align 8
  %this1 = load ptr, ptr %this.addr, align 8
  %m_params = getelementptr inbounds %"class.datalog::context", ptr %this1, i32 0, i32 4
  %0 = load ptr, ptr %m_params, align 8
  %call = call noundef zeroext i1 @_ZNK9fp_params9xform_coiEv(ptr noundef nonnull align 8 dereferenceable(16) %0)
  ret i1 %call
}

; Function Attrs: mustprogress uwtable
define linkonce_odr hidden noundef zeroext i1 @_ZNK9fp_params9xform_coiEv(ptr noundef nonnull align 8 dereferenceable(16) %this) #4 comdat align 2 {
entry:
  %this.addr = alloca ptr, align 8
  store ptr %this, ptr %this.addr, align 8
  %this1 = load ptr, ptr %this.addr, align 8
  %p = getelementptr inbounds %struct.fp_params, ptr %this1, i32 0, i32 0
  %0 = load ptr, ptr %p, align 8
  %g = getelementptr inbounds %struct.fp_params, ptr %this1, i32 0, i32 1
  %call = call noundef zeroext i1 @_ZNK10params_ref8get_boolEPKcRKS_b(ptr noundef nonnull align 8 dereferenceable(8) %0, ptr noundef @.str.70, ptr noundef nonnull align 8 dereferenceable(8) %g, i1 noundef zeroext true)
  ret i1 %call
}

; Function Attrs: mustprogress uwtable
define hidden noundef zeroext i1 @_ZNK7datalog7context11xform_sliceEv(ptr noundef nonnull align 8 dereferenceable(3556) %this) #4 align 2 {
entry:
  %this.addr = alloca ptr, align 8
  store ptr %this, ptr %this.addr, align 8
  %this1 = load ptr, ptr %this.addr, align 8
  %m_params = getelementptr inbounds %"class.datalog::context", ptr %this1, i32 0, i32 4
  %0 = load ptr, ptr %m_params, align 8
  %call = call noundef zeroext i1 @_ZNK9fp_params11xform_sliceEv(ptr noundef nonnull align 8 dereferenceable(16) %0)
  ret i1 %call
}

; Function Attrs: mustprogress uwtable
define linkonce_odr hidden noundef zeroext i1 @_ZNK9fp_params11xform_sliceEv(ptr noundef nonnull align 8 dereferenceable(16) %this) #4 comdat align 2 {
entry:
  %this.addr = alloca ptr, align 8
  store ptr %this, ptr %this.addr, align 8
  %this1 = load ptr, ptr %this.addr, align 8
  %p = getelementptr inbounds %struct.fp_params, ptr %this1, i32 0, i32 0
  %0 = load ptr, ptr %p, align 8
  %g = getelementptr inbounds %struct.fp_params, ptr %this1, i32 0, i32 1
  %call = call noundef zeroext i1 @_ZNK10params_ref8get_boolEPKcRKS_b(ptr noundef nonnull align 8 dereferenceable(8) %0, ptr noundef @.str.71, ptr noundef nonnull align 8 dereferenceable(8) %g, i1 noundef zeroext true)
  ret i1 %call
}

; Function Attrs: mustprogress uwtable
define hidden noundef zeroext i1 @_ZNK7datalog7context15xform_bit_blastEv(ptr noundef nonnull align 8 dereferenceable(3556) %this) #4 align 2 {
entry:
  %this.addr = alloca ptr, align 8
  store ptr %this, ptr %this.addr, align 8
  %this1 = load ptr, ptr %this.addr, align 8
  %m_params = getelementptr inbounds %"class.datalog::context", ptr %this1, i32 0, i32 4
  %0 = load ptr, ptr %m_params, align 8
  %call = call noundef zeroext i1 @_ZNK9fp_params15xform_bit_blastEv(ptr noundef nonnull align 8 dereferenceable(16) %0)
  ret i1 %call
}

; Function Attrs: mustprogress uwtable
define linkonce_odr hidden noundef zeroext i1 @_ZNK9fp_params15xform_bit_blastEv(ptr noundef nonnull align 8 dereferenceable(16) %this) #4 comdat align 2 {
entry:
  %this.addr = alloca ptr, align 8
  store ptr %this, ptr %this.addr, align 8
  %this1 = load ptr, ptr %this.addr, align 8
  %p = getelementptr inbounds %struct.fp_params, ptr %this1, i32 0, i32 0
  %0 = load ptr, ptr %p, align 8
  %g = getelementptr inbounds %struct.fp_params, ptr %this1, i32 0, i32 1
  %call = call noundef zeroext i1 @_ZNK10params_ref8get_boolEPKcRKS_b(ptr noundef nonnull align 8 dereferenceable(8) %0, ptr noundef @.str.72, ptr noundef nonnull align 8 dereferenceable(8) %g, i1 noundef zeroext false)
  ret i1 %call
}

; Function Attrs: mustprogress nounwind uwtable
define hidden noundef zeroext i1 @_ZNK7datalog7context4karrEv(ptr noundef nonnull align 8 dereferenceable(3556) %this) #5 align 2 {
entry:
  %this.addr = alloca ptr, align 8
  store ptr %this, ptr %this.addr, align 8
  ret i1 false
}

; Function Attrs: mustprogress uwtable
define hidden noundef zeroext i1 @_ZNK7datalog7context5scaleEv(ptr noundef nonnull align 8 dereferenceable(3556) %this) #4 align 2 {
entry:
  %this.addr = alloca ptr, align 8
  store ptr %this, ptr %this.addr, align 8
  %this1 = load ptr, ptr %this.addr, align 8
  %m_params = getelementptr inbounds %"class.datalog::context", ptr %this1, i32 0, i32 4
  %0 = load ptr, ptr %m_params, align 8
  %call = call noundef zeroext i1 @_ZNK9fp_params11xform_scaleEv(ptr noundef nonnull align 8 dereferenceable(16) %0)
  ret i1 %call
}

; Function Attrs: mustprogress uwtable
define linkonce_odr hidden noundef zeroext i1 @_ZNK9fp_params11xform_scaleEv(ptr noundef nonnull align 8 dereferenceable(16) %this) #4 comdat align 2 {
entry:
  %this.addr = alloca ptr, align 8
  store ptr %this, ptr %this.addr, align 8
  %this1 = load ptr, ptr %this.addr, align 8
  %p = getelementptr inbounds %struct.fp_params, ptr %this1, i32 0, i32 0
  %0 = load ptr, ptr %p, align 8
  %g = getelementptr inbounds %struct.fp_params, ptr %this1, i32 0, i32 1
  %call = call noundef zeroext i1 @_ZNK10params_ref8get_boolEPKcRKS_b(ptr noundef nonnull align 8 dereferenceable(8) %0, ptr noundef @.str.73, ptr noundef nonnull align 8 dereferenceable(8) %g, i1 noundef zeroext false)
  ret i1 %call
}

; Function Attrs: mustprogress uwtable
define hidden noundef zeroext i1 @_ZNK7datalog7context5magicEv(ptr noundef nonnull align 8 dereferenceable(3556) %this) #4 align 2 {
entry:
  %this.addr = alloca ptr, align 8
  store ptr %this, ptr %this.addr, align 8
  %this1 = load ptr, ptr %this.addr, align 8
  %m_params = getelementptr inbounds %"class.datalog::context", ptr %this1, i32 0, i32 4
  %0 = load ptr, ptr %m_params, align 8
  %call = call noundef zeroext i1 @_ZNK9fp_params11xform_magicEv(ptr noundef nonnull align 8 dereferenceable(16) %0)
  ret i1 %call
}

; Function Attrs: mustprogress uwtable
define linkonce_odr hidden noundef zeroext i1 @_ZNK9fp_params11xform_magicEv(ptr noundef nonnull align 8 dereferenceable(16) %this) #4 comdat align 2 {
entry:
  %this.addr = alloca ptr, align 8
  store ptr %this, ptr %this.addr, align 8
  %this1 = load ptr, ptr %this.addr, align 8
  %p = getelementptr inbounds %struct.fp_params, ptr %this1, i32 0, i32 0
  %0 = load ptr, ptr %p, align 8
  %g = getelementptr inbounds %struct.fp_params, ptr %this1, i32 0, i32 1
  %call = call noundef zeroext i1 @_ZNK10params_ref8get_boolEPKcRKS_b(ptr noundef nonnull align 8 dereferenceable(8) %0, ptr noundef @.str.74, ptr noundef nonnull align 8 dereferenceable(8) %g, i1 noundef zeroext false)
  ret i1 %call
}

; Function Attrs: mustprogress uwtable
define hidden noundef zeroext i1 @_ZNK7datalog7context16compress_unboundEv(ptr noundef nonnull align 8 dereferenceable(3556) %this) #4 align 2 {
entry:
  %this.addr = alloca ptr, align 8
  store ptr %this, ptr %this.addr, align 8
  %this1 = load ptr, ptr %this.addr, align 8
  %m_params = getelementptr inbounds %"class.datalog::context", ptr %this1, i32 0, i32 4
  %0 = load ptr, ptr %m_params, align 8
  %call = call noundef zeroext i1 @_ZNK9fp_params22xform_compress_unboundEv(ptr noundef nonnull align 8 dereferenceable(16) %0)
  ret i1 %call
}

; Function Attrs: mustprogress uwtable
define linkonce_odr hidden noundef zeroext i1 @_ZNK9fp_params22xform_compress_unboundEv(ptr noundef nonnull align 8 dereferenceable(16) %this) #4 comdat align 2 {
entry:
  %this.addr = alloca ptr, align 8
  store ptr %this, ptr %this.addr, align 8
  %this1 = load ptr, ptr %this.addr, align 8
  %p = getelementptr inbounds %struct.fp_params, ptr %this1, i32 0, i32 0
  %0 = load ptr, ptr %p, align 8
  %g = getelementptr inbounds %struct.fp_params, ptr %this1, i32 0, i32 1
  %call = call noundef zeroext i1 @_ZNK10params_ref8get_boolEPKcRKS_b(ptr noundef nonnull align 8 dereferenceable(8) %0, ptr noundef @.str.75, ptr noundef nonnull align 8 dereferenceable(8) %g, i1 noundef zeroext true)
  ret i1 %call
}

; Function Attrs: mustprogress uwtable
define hidden noundef zeroext i1 @_ZNK7datalog7context15quantify_arraysEv(ptr noundef nonnull align 8 dereferenceable(3556) %this) #4 align 2 {
entry:
  %this.addr = alloca ptr, align 8
  store ptr %this, ptr %this.addr, align 8
  %this1 = load ptr, ptr %this.addr, align 8
  %m_params = getelementptr inbounds %"class.datalog::context", ptr %this1, i32 0, i32 4
  %0 = load ptr, ptr %m_params, align 8
  %call = call noundef zeroext i1 @_ZNK9fp_params21xform_quantify_arraysEv(ptr noundef nonnull align 8 dereferenceable(16) %0)
  ret i1 %call
}

; Function Attrs: mustprogress uwtable
define linkonce_odr hidden noundef zeroext i1 @_ZNK9fp_params21xform_quantify_arraysEv(ptr noundef nonnull align 8 dereferenceable(16) %this) #4 comdat align 2 {
entry:
  %this.addr = alloca ptr, align 8
  store ptr %this, ptr %this.addr, align 8
  %this1 = load ptr, ptr %this.addr, align 8
  %p = getelementptr inbounds %struct.fp_params, ptr %this1, i32 0, i32 0
  %0 = load ptr, ptr %p, align 8
  %g = getelementptr inbounds %struct.fp_params, ptr %this1, i32 0, i32 1
  %call = call noundef zeroext i1 @_ZNK10params_ref8get_boolEPKcRKS_b(ptr noundef nonnull align 8 dereferenceable(8) %0, ptr noundef @.str.76, ptr noundef nonnull align 8 dereferenceable(8) %g, i1 noundef zeroext false)
  ret i1 %call
}

; Function Attrs: mustprogress uwtable
define hidden noundef zeroext i1 @_ZNK7datalog7context23instantiate_quantifiersEv(ptr noundef nonnull align 8 dereferenceable(3556) %this) #4 align 2 {
entry:
  %this.addr = alloca ptr, align 8
  store ptr %this, ptr %this.addr, align 8
  %this1 = load ptr, ptr %this.addr, align 8
  %m_params = getelementptr inbounds %"class.datalog::context", ptr %this1, i32 0, i32 4
  %0 = load ptr, ptr %m_params, align 8
  %call = call noundef zeroext i1 @_ZNK9fp_params29xform_instantiate_quantifiersEv(ptr noundef nonnull align 8 dereferenceable(16) %0)
  ret i1 %call
}

; Function Attrs: mustprogress uwtable
define linkonce_odr hidden noundef zeroext i1 @_ZNK9fp_params29xform_instantiate_quantifiersEv(ptr noundef nonnull align 8 dereferenceable(16) %this) #4 comdat align 2 {
entry:
  %this.addr = alloca ptr, align 8
  store ptr %this, ptr %this.addr, align 8
  %this1 = load ptr, ptr %this.addr, align 8
  %p = getelementptr inbounds %struct.fp_params, ptr %this1, i32 0, i32 0
  %0 = load ptr, ptr %p, align 8
  %g = getelementptr inbounds %struct.fp_params, ptr %this1, i32 0, i32 1
  %call = call noundef zeroext i1 @_ZNK10params_ref8get_boolEPKcRKS_b(ptr noundef nonnull align 8 dereferenceable(8) %0, ptr noundef @.str.77, ptr noundef nonnull align 8 dereferenceable(8) %g, i1 noundef zeroext false)
  ret i1 %call
}

; Function Attrs: mustprogress uwtable
define hidden noundef zeroext i1 @_ZNK7datalog7context11array_blastEv(ptr noundef nonnull align 8 dereferenceable(3556) %this) #4 align 2 {
entry:
  %this.addr = alloca ptr, align 8
  store ptr %this, ptr %this.addr, align 8
  %this1 = load ptr, ptr %this.addr, align 8
  %m_params = getelementptr inbounds %"class.datalog::context", ptr %this1, i32 0, i32 4
  %0 = load ptr, ptr %m_params, align 8
  %call = call noundef zeroext i1 @_ZNK9fp_params17xform_array_blastEv(ptr noundef nonnull align 8 dereferenceable(16) %0)
  ret i1 %call
}

; Function Attrs: mustprogress uwtable
define linkonce_odr hidden noundef zeroext i1 @_ZNK9fp_params17xform_array_blastEv(ptr noundef nonnull align 8 dereferenceable(16) %this) #4 comdat align 2 {
entry:
  %this.addr = alloca ptr, align 8
  store ptr %this, ptr %this.addr, align 8
  %this1 = load ptr, ptr %this.addr, align 8
  %p = getelementptr inbounds %struct.fp_params, ptr %this1, i32 0, i32 0
  %0 = load ptr, ptr %p, align 8
  %g = getelementptr inbounds %struct.fp_params, ptr %this1, i32 0, i32 1
  %call = call noundef zeroext i1 @_ZNK10params_ref8get_boolEPKcRKS_b(ptr noundef nonnull align 8 dereferenceable(8) %0, ptr noundef @.str.78, ptr noundef nonnull align 8 dereferenceable(8) %g, i1 noundef zeroext false)
  ret i1 %call
}

; Function Attrs: mustprogress uwtable
define hidden noundef zeroext i1 @_ZNK7datalog7context16array_blast_fullEv(ptr noundef nonnull align 8 dereferenceable(3556) %this) #4 align 2 {
entry:
  %this.addr = alloca ptr, align 8
  store ptr %this, ptr %this.addr, align 8
  %this1 = load ptr, ptr %this.addr, align 8
  %m_params = getelementptr inbounds %"class.datalog::context", ptr %this1, i32 0, i32 4
  %0 = load ptr, ptr %m_params, align 8
  %call = call noundef zeroext i1 @_ZNK9fp_params22xform_array_blast_fullEv(ptr noundef nonnull align 8 dereferenceable(16) %0)
  ret i1 %call
}

; Function Attrs: mustprogress uwtable
define linkonce_odr hidden noundef zeroext i1 @_ZNK9fp_params22xform_array_blast_fullEv(ptr noundef nonnull align 8 dereferenceable(16) %this) #4 comdat align 2 {
entry:
  %this.addr = alloca ptr, align 8
  store ptr %this, ptr %this.addr, align 8
  %this1 = load ptr, ptr %this.addr, align 8
  %p = getelementptr inbounds %struct.fp_params, ptr %this1, i32 0, i32 0
  %0 = load ptr, ptr %p, align 8
  %g = getelementptr inbounds %struct.fp_params, ptr %this1, i32 0, i32 1
  %call = call noundef zeroext i1 @_ZNK10params_ref8get_boolEPKcRKS_b(ptr noundef nonnull align 8 dereferenceable(8) %0, ptr noundef @.str.79, ptr noundef nonnull align 8 dereferenceable(8) %g, i1 noundef zeroext false)
  ret i1 %call
}

; Function Attrs: mustprogress uwtable
define hidden noundef zeroext i1 @_ZNK7datalog7context13elim_term_iteEv(ptr noundef nonnull align 8 dereferenceable(3556) %this) #4 align 2 {
entry:
  %this.addr = alloca ptr, align 8
  store ptr %this, ptr %this.addr, align 8
  %this1 = load ptr, ptr %this.addr, align 8
  %m_params = getelementptr inbounds %"class.datalog::context", ptr %this1, i32 0, i32 4
  %0 = load ptr, ptr %m_params, align 8
  %call = call noundef zeroext i1 @_ZNK9fp_params19xform_elim_term_iteEv(ptr noundef nonnull align 8 dereferenceable(16) %0)
  ret i1 %call
}

; Function Attrs: mustprogress uwtable
define linkonce_odr hidden noundef zeroext i1 @_ZNK9fp_params19xform_elim_term_iteEv(ptr noundef nonnull align 8 dereferenceable(16) %this) #4 comdat align 2 {
entry:
  %this.addr = alloca ptr, align 8
  store ptr %this, ptr %this.addr, align 8
  %this1 = load ptr, ptr %this.addr, align 8
  %p = getelementptr inbounds %struct.fp_params, ptr %this1, i32 0, i32 0
  %0 = load ptr, ptr %p, align 8
  %g = getelementptr inbounds %struct.fp_params, ptr %this1, i32 0, i32 1
  %call = call noundef zeroext i1 @_ZNK10params_ref8get_boolEPKcRKS_b(ptr noundef nonnull align 8 dereferenceable(8) %0, ptr noundef @.str.80, ptr noundef nonnull align 8 dereferenceable(8) %g, i1 noundef zeroext false)
  ret i1 %call
}

; Function Attrs: mustprogress uwtable
define hidden noundef i32 @_ZNK7datalog7context24blast_term_ite_inflationEv(ptr noundef nonnull align 8 dereferenceable(3556) %this) #4 align 2 {
entry:
  %this.addr = alloca ptr, align 8
  store ptr %this, ptr %this.addr, align 8
  %this1 = load ptr, ptr %this.addr, align 8
  %m_params = getelementptr inbounds %"class.datalog::context", ptr %this1, i32 0, i32 4
  %0 = load ptr, ptr %m_params, align 8
  %call = call noundef i32 @_ZNK9fp_params29xform_elim_term_ite_inflationEv(ptr noundef nonnull align 8 dereferenceable(16) %0)
  ret i32 %call
}

; Function Attrs: mustprogress uwtable
define linkonce_odr hidden noundef i32 @_ZNK9fp_params29xform_elim_term_ite_inflationEv(ptr noundef nonnull align 8 dereferenceable(16) %this) #4 comdat align 2 {
entry:
  %this.addr = alloca ptr, align 8
  store ptr %this, ptr %this.addr, align 8
  %this1 = load ptr, ptr %this.addr, align 8
  %p = getelementptr inbounds %struct.fp_params, ptr %this1, i32 0, i32 0
  %0 = load ptr, ptr %p, align 8
  %g = getelementptr inbounds %struct.fp_params, ptr %this1, i32 0, i32 1
  %call = call noundef i32 @_ZNK10params_ref8get_uintEPKcRKS_j(ptr noundef nonnull align 8 dereferenceable(8) %0, ptr noundef @.str.81, ptr noundef nonnull align 8 dereferenceable(8) %g, i32 noundef 3)
  ret i32 %call
}

; Function Attrs: mustprogress uwtable
define hidden void @_ZN7datalog7context20register_finite_sortEP4sortNS0_9sort_kindE(ptr noundef nonnull align 8 dereferenceable(3556) %this, ptr noundef %s, i32 noundef %k) #4 align 2 {
entry:
  %this.addr = alloca ptr, align 8
  %s.addr = alloca ptr, align 8
  %k.addr = alloca i32, align 4
  %dom = alloca ptr, align 8
  store ptr %this, ptr %this.addr, align 8
  store ptr %s, ptr %s.addr, align 8
  store i32 %k, ptr %k.addr, align 4
  %this1 = load ptr, ptr %this.addr, align 8
  %m_pinned = getelementptr inbounds %"class.datalog::context", ptr %this1, i32 0, i32 17
  %0 = load ptr, ptr %s.addr, align 8
  %call = call noundef nonnull align 8 dereferenceable(16) ptr @_ZN15ref_vector_coreI3ast19ref_manager_wrapperIS0_11ast_managerEE9push_backEPS0_(ptr noundef nonnull align 8 dereferenceable(16) %m_pinned, ptr noundef %0)
  %1 = load i32, ptr %k.addr, align 4
  switch i32 %1, label %sw.default [
    i32 1, label %sw.bb
    i32 0, label %sw.bb3
  ]

sw.bb:                                            ; preds = %entry
  %call2 = call noalias noundef ptr @_ZN6memory8allocateEm(i64 noundef 80)
  %2 = load ptr, ptr %s.addr, align 8
  call void @_ZN7datalog7context18symbol_sort_domainC2ERS0_P4sort(ptr noundef nonnull align 8 dereferenceable(80) %call2, ptr noundef nonnull align 8 dereferenceable(3556) %this1, ptr noundef %2)
  store ptr %call2, ptr %dom, align 8
  br label %sw.epilog

sw.bb3:                                           ; preds = %entry
  %call4 = call noalias noundef ptr @_ZN6memory8allocateEm(i64 noundef 80)
  %3 = load ptr, ptr %s.addr, align 8
  call void @_ZN7datalog7context18uint64_sort_domainC2ERS0_P4sort(ptr noundef nonnull align 8 dereferenceable(80) %call4, ptr noundef nonnull align 8 dereferenceable(3556) %this1, ptr noundef %3)
  store ptr %call4, ptr %dom, align 8
  br label %sw.epilog

sw.default:                                       ; preds = %entry
  call void @_Z26notify_assertion_violationPKciS0_(ptr noundef @.str.2, i32 noundef 325, ptr noundef @.str.3)
  call void @exit(i32 noundef 114) #16
  unreachable

sw.epilog:                                        ; preds = %sw.bb3, %sw.bb
  %m_sorts = getelementptr inbounds %"class.datalog::context", ptr %this1, i32 0, i32 19
  %4 = load ptr, ptr %s.addr, align 8
  call void @_ZN7obj_mapIK4sortPN7datalog7context11sort_domainEE6insertEPS1_RKS5_(ptr noundef nonnull align 8 dereferenceable(24) %m_sorts, ptr noundef %4, ptr noundef nonnull align 8 dereferenceable(8) %dom)
  ret void
}

; Function Attrs: mustprogress uwtable
define linkonce_odr hidden noundef nonnull align 8 dereferenceable(16) ptr @_ZN15ref_vector_coreI3ast19ref_manager_wrapperIS0_11ast_managerEE9push_backEPS0_(ptr noundef nonnull align 8 dereferenceable(16) %this, ptr noundef %n) #4 comdat align 2 {
entry:
  %this.addr = alloca ptr, align 8
  %n.addr = alloca ptr, align 8
  store ptr %this, ptr %this.addr, align 8
  store ptr %n, ptr %n.addr, align 8
  %this1 = load ptr, ptr %this.addr, align 8
  %0 = load ptr, ptr %n.addr, align 8
  call void @_ZN15ref_vector_coreI3ast19ref_manager_wrapperIS0_11ast_managerEE7inc_refEPS0_(ptr noundef nonnull align 8 dereferenceable(16) %this1, ptr noundef %0)
  %m_nodes = getelementptr inbounds %class.ref_vector_core.50, ptr %this1, i32 0, i32 1
  %call = call noundef nonnull align 8 dereferenceable(8) ptr @_ZN6vectorIP3astLb0EjE9push_backERKS1_(ptr noundef nonnull align 8 dereferenceable(8) %m_nodes, ptr noundef nonnull align 8 dereferenceable(8) %n.addr)
  ret ptr %this1
}

; Function Attrs: mustprogress uwtable
define linkonce_odr hidden void @_ZN7datalog7context18symbol_sort_domainC2ERS0_P4sort(ptr noundef nonnull align 8 dereferenceable(80) %this, ptr noundef nonnull align 8 dereferenceable(3556) %ctx, ptr noundef %s) unnamed_addr #4 comdat align 2 personality ptr @__gxx_personality_v0 {
entry:
  %this.addr = alloca ptr, align 8
  %ctx.addr = alloca ptr, align 8
  %s.addr = alloca ptr, align 8
  %ref.tmp = alloca %struct.symbol_hash_proc, align 1
  %ref.tmp2 = alloca %struct.symbol_eq_proc, align 1
  %exn.slot = alloca ptr, align 8
  %ehselector.slot = alloca i32, align 4
  store ptr %this, ptr %this.addr, align 8
  store ptr %ctx, ptr %ctx.addr, align 8
  store ptr %s, ptr %s.addr, align 8
  %this1 = load ptr, ptr %this.addr, align 8
  %0 = load ptr, ptr %ctx.addr, align 8
  %1 = load ptr, ptr %s.addr, align 8
  call void @_ZN7datalog7context11sort_domainC2ENS0_9sort_kindERS0_P4sort(ptr noundef nonnull align 8 dereferenceable(48) %this1, i32 noundef 1, ptr noundef nonnull align 8 dereferenceable(3556) %0, ptr noundef %1)
  store ptr getelementptr inbounds ({ [6 x ptr] }, ptr @_ZTVN7datalog7context18symbol_sort_domainE, i32 0, inrange i32 0, i32 2), ptr %this1, align 8
  %m_el_numbers = getelementptr inbounds %"class.datalog::context::symbol_sort_domain", ptr %this1, i32 0, i32 1
  invoke void @_ZN3mapI6symbolj16symbol_hash_proc14symbol_eq_procEC2ERKS1_RKS2_(ptr noundef nonnull align 8 dereferenceable(24) %m_el_numbers, ptr noundef nonnull align 1 dereferenceable(1) %ref.tmp, ptr noundef nonnull align 1 dereferenceable(1) %ref.tmp2)
          to label %invoke.cont unwind label %lpad

invoke.cont:                                      ; preds = %entry
  %m_el_names = getelementptr inbounds %"class.datalog::context::symbol_sort_domain", ptr %this1, i32 0, i32 2
  invoke void @_ZN7svectorI6symboljEC2Ev(ptr noundef nonnull align 8 dereferenceable(8) %m_el_names)
          to label %invoke.cont4 unwind label %lpad3

invoke.cont4:                                     ; preds = %invoke.cont
  ret void

lpad:                                             ; preds = %entry
  %2 = landingpad { ptr, i32 }
          cleanup
  %3 = extractvalue { ptr, i32 } %2, 0
  store ptr %3, ptr %exn.slot, align 8
  %4 = extractvalue { ptr, i32 } %2, 1
  store i32 %4, ptr %ehselector.slot, align 4
  br label %ehcleanup

lpad3:                                            ; preds = %invoke.cont
  %5 = landingpad { ptr, i32 }
          cleanup
  %6 = extractvalue { ptr, i32 } %5, 0
  store ptr %6, ptr %exn.slot, align 8
  %7 = extractvalue { ptr, i32 } %5, 1
  store i32 %7, ptr %ehselector.slot, align 4
  call void @_ZN3mapI6symbolj16symbol_hash_proc14symbol_eq_procED2Ev(ptr noundef nonnull align 8 dereferenceable(24) %m_el_numbers) #3
  br label %ehcleanup

ehcleanup:                                        ; preds = %lpad3, %lpad
  call void @_ZN7datalog7context11sort_domainD2Ev(ptr noundef nonnull align 8 dereferenceable(48) %this1) #3
  br label %eh.resume

eh.resume:                                        ; preds = %ehcleanup
  %exn = load ptr, ptr %exn.slot, align 8
  %sel = load i32, ptr %ehselector.slot, align 4
  %lpad.val = insertvalue { ptr, i32 } poison, ptr %exn, 0
  %lpad.val5 = insertvalue { ptr, i32 } %lpad.val, i32 %sel, 1
  resume { ptr, i32 } %lpad.val5
}

; Function Attrs: mustprogress uwtable
define linkonce_odr hidden void @_ZN7datalog7context18uint64_sort_domainC2ERS0_P4sort(ptr noundef nonnull align 8 dereferenceable(80) %this, ptr noundef nonnull align 8 dereferenceable(3556) %ctx, ptr noundef %s) unnamed_addr #4 comdat align 2 personality ptr @__gxx_personality_v0 {
entry:
  %this.addr = alloca ptr, align 8
  %ctx.addr = alloca ptr, align 8
  %s.addr = alloca ptr, align 8
  %ref.tmp = alloca %struct.uint64_hash, align 1
  %ref.tmp2 = alloca %struct.default_eq.166, align 1
  %exn.slot = alloca ptr, align 8
  %ehselector.slot = alloca i32, align 4
  store ptr %this, ptr %this.addr, align 8
  store ptr %ctx, ptr %ctx.addr, align 8
  store ptr %s, ptr %s.addr, align 8
  %this1 = load ptr, ptr %this.addr, align 8
  %0 = load ptr, ptr %ctx.addr, align 8
  %1 = load ptr, ptr %s.addr, align 8
  call void @_ZN7datalog7context11sort_domainC2ENS0_9sort_kindERS0_P4sort(ptr noundef nonnull align 8 dereferenceable(48) %this1, i32 noundef 0, ptr noundef nonnull align 8 dereferenceable(3556) %0, ptr noundef %1)
  store ptr getelementptr inbounds ({ [6 x ptr] }, ptr @_ZTVN7datalog7context18uint64_sort_domainE, i32 0, inrange i32 0, i32 2), ptr %this1, align 8
  %m_el_numbers = getelementptr inbounds %"class.datalog::context::uint64_sort_domain", ptr %this1, i32 0, i32 1
  invoke void @_ZN3mapImj11uint64_hash10default_eqImEEC2ERKS0_RKS2_(ptr noundef nonnull align 8 dereferenceable(24) %m_el_numbers, ptr noundef nonnull align 1 dereferenceable(1) %ref.tmp, ptr noundef nonnull align 1 dereferenceable(1) %ref.tmp2)
          to label %invoke.cont unwind label %lpad

invoke.cont:                                      ; preds = %entry
  %m_el_names = getelementptr inbounds %"class.datalog::context::uint64_sort_domain", ptr %this1, i32 0, i32 2
  invoke void @_ZN7svectorImjEC2Ev(ptr noundef nonnull align 8 dereferenceable(8) %m_el_names)
          to label %invoke.cont4 unwind label %lpad3

invoke.cont4:                                     ; preds = %invoke.cont
  ret void

lpad:                                             ; preds = %entry
  %2 = landingpad { ptr, i32 }
          cleanup
  %3 = extractvalue { ptr, i32 } %2, 0
  store ptr %3, ptr %exn.slot, align 8
  %4 = extractvalue { ptr, i32 } %2, 1
  store i32 %4, ptr %ehselector.slot, align 4
  br label %ehcleanup

lpad3:                                            ; preds = %invoke.cont
  %5 = landingpad { ptr, i32 }
          cleanup
  %6 = extractvalue { ptr, i32 } %5, 0
  store ptr %6, ptr %exn.slot, align 8
  %7 = extractvalue { ptr, i32 } %5, 1
  store i32 %7, ptr %ehselector.slot, align 4
  call void @_ZN3mapImj11uint64_hash10default_eqImEED2Ev(ptr noundef nonnull align 8 dereferenceable(24) %m_el_numbers) #3
  br label %ehcleanup

ehcleanup:                                        ; preds = %lpad3, %lpad
  call void @_ZN7datalog7context11sort_domainD2Ev(ptr noundef nonnull align 8 dereferenceable(48) %this1) #3
  br label %eh.resume

eh.resume:                                        ; preds = %ehcleanup
  %exn = load ptr, ptr %exn.slot, align 8
  %sel = load i32, ptr %ehselector.slot, align 4
  %lpad.val = insertvalue { ptr, i32 } poison, ptr %exn, 0
  %lpad.val5 = insertvalue { ptr, i32 } %lpad.val, i32 %sel, 1
  resume { ptr, i32 } %lpad.val5
}

declare void @_Z26notify_assertion_violationPKciS0_(ptr noundef, i32 noundef, ptr noundef) #1

; Function Attrs: noreturn nounwind
declare void @exit(i32 noundef) #9

; Function Attrs: mustprogress uwtable
define linkonce_odr hidden void @_ZN7obj_mapIK4sortPN7datalog7context11sort_domainEE6insertEPS1_RKS5_(ptr noundef nonnull align 8 dereferenceable(24) %this, ptr noundef %k, ptr noundef nonnull align 8 dereferenceable(8) %v) #4 comdat align 2 {
entry:
  %this.addr = alloca ptr, align 8
  %k.addr = alloca ptr, align 8
  %v.addr = alloca ptr, align 8
  %ref.tmp = alloca %"struct.obj_map<const sort, datalog::context::sort_domain *>::key_data", align 8
  store ptr %this, ptr %this.addr, align 8
  store ptr %k, ptr %k.addr, align 8
  store ptr %v, ptr %v.addr, align 8
  %this1 = load ptr, ptr %this.addr, align 8
  %m_table = getelementptr inbounds %class.obj_map.87, ptr %this1, i32 0, i32 0
  %0 = load ptr, ptr %k.addr, align 8
  %1 = load ptr, ptr %v.addr, align 8
  call void @_ZN7obj_mapIK4sortPN7datalog7context11sort_domainEE8key_dataC2EPS1_RKS5_(ptr noundef nonnull align 8 dereferenceable(16) %ref.tmp, ptr noundef %0, ptr noundef nonnull align 8 dereferenceable(8) %1)
  call void @_ZN14core_hashtableIN7obj_mapIK4sortPN7datalog7context11sort_domainEE13obj_map_entryE8obj_hashINS7_8key_dataEE10default_eqISA_EE6insertEOSA_(ptr noundef nonnull align 8 dereferenceable(20) %m_table, ptr noundef nonnull align 8 dereferenceable(16) %ref.tmp)
  ret void
}

; Function Attrs: mustprogress uwtable
define hidden void @_ZN7datalog7context17register_variableEP9func_decl(ptr noundef nonnull align 8 dereferenceable(3556) %this, ptr noundef %var) #4 align 2 {
entry:
  %this.addr = alloca ptr, align 8
  %var.addr = alloca ptr, align 8
  store ptr %this, ptr %this.addr, align 8
  store ptr %var, ptr %var.addr, align 8
  %this1 = load ptr, ptr %this.addr, align 8
  %m_bind_variables = getelementptr inbounds %"class.datalog::context", ptr %this1, i32 0, i32 18
  %m = getelementptr inbounds %"class.datalog::context", ptr %this1, i32 0, i32 0
  %0 = load ptr, ptr %m, align 8
  %1 = load ptr, ptr %var.addr, align 8
  %call = call noundef ptr @_ZN11ast_manager8mk_constEP9func_decl(ptr noundef nonnull align 8 dereferenceable(976) %0, ptr noundef %1)
  call void @_ZN14bind_variables7add_varEP3app(ptr noundef nonnull align 8 dereferenceable(120) %m_bind_variables, ptr noundef %call)
  ret void
}

declare void @_ZN14bind_variables7add_varEP3app(ptr noundef nonnull align 8 dereferenceable(120), ptr noundef) #1

; Function Attrs: mustprogress uwtable
define linkonce_odr hidden noundef ptr @_ZN11ast_manager8mk_constEP9func_decl(ptr noundef nonnull align 8 dereferenceable(976) %this, ptr noundef %decl) #4 comdat align 2 {
entry:
  %this.addr = alloca ptr, align 8
  %decl.addr = alloca ptr, align 8
  store ptr %this, ptr %this.addr, align 8
  store ptr %decl, ptr %decl.addr, align 8
  %this1 = load ptr, ptr %this.addr, align 8
  %0 = load ptr, ptr %decl.addr, align 8
  %call = call noundef ptr @_ZN11ast_manager6mk_appEP9func_decljPKP4expr(ptr noundef nonnull align 8 dereferenceable(976) %this1, ptr noundef %0, i32 noundef 0, ptr noundef null)
  ret ptr %call
}

; Function Attrs: mustprogress uwtable
define hidden void @_ZN7datalog7context9bind_varsEP4exprb(ptr noalias sret(%class.obj_ref) align 8 %agg.result, ptr noundef nonnull align 8 dereferenceable(3556) %this, ptr noundef %fml, i1 noundef zeroext %is_forall) #4 align 2 {
entry:
  %result.ptr = alloca ptr, align 8
  %this.addr = alloca ptr, align 8
  %fml.addr = alloca ptr, align 8
  %is_forall.addr = alloca i8, align 1
  store ptr %agg.result, ptr %result.ptr, align 8
  store ptr %this, ptr %this.addr, align 8
  store ptr %fml, ptr %fml.addr, align 8
  %frombool = zext i1 %is_forall to i8
  store i8 %frombool, ptr %is_forall.addr, align 1
  %this1 = load ptr, ptr %this.addr, align 8
  %m_enable_bind_variables = getelementptr inbounds %"class.datalog::context", ptr %this1, i32 0, i32 38
  %0 = load i8, ptr %m_enable_bind_variables, align 2
  %tobool = trunc i8 %0 to i1
  br i1 %tobool, label %if.then, label %if.else

if.then:                                          ; preds = %entry
  %m_bind_variables = getelementptr inbounds %"class.datalog::context", ptr %this1, i32 0, i32 18
  %1 = load ptr, ptr %fml.addr, align 8
  %2 = load i8, ptr %is_forall.addr, align 1
  %tobool2 = trunc i8 %2 to i1
  call void @_ZN14bind_variablesclEP4exprb(ptr sret(%class.obj_ref) align 8 %agg.result, ptr noundef nonnull align 8 dereferenceable(120) %m_bind_variables, ptr noundef %1, i1 noundef zeroext %tobool2)
  br label %return

if.else:                                          ; preds = %entry
  %3 = load ptr, ptr %fml.addr, align 8
  %m = getelementptr inbounds %"class.datalog::context", ptr %this1, i32 0, i32 0
  %4 = load ptr, ptr %m, align 8
  call void @_ZN7obj_refI4expr11ast_managerEC2EPS0_RS1_(ptr noundef nonnull align 8 dereferenceable(16) %agg.result, ptr noundef %3, ptr noundef nonnull align 8 dereferenceable(976) %4)
  br label %return

return:                                           ; preds = %if.else, %if.then
  ret void
}

declare void @_ZN14bind_variablesclEP4exprb(ptr sret(%class.obj_ref) align 8, ptr noundef nonnull align 8 dereferenceable(120), ptr noundef, i1 noundef zeroext) #1

; Function Attrs: mustprogress uwtable
define linkonce_odr hidden void @_ZN7obj_refI4expr11ast_managerEC2EPS0_RS1_(ptr noundef nonnull align 8 dereferenceable(16) %this, ptr noundef %n, ptr noundef nonnull align 8 dereferenceable(976) %m) unnamed_addr #4 comdat align 2 {
entry:
  %this.addr = alloca ptr, align 8
  %n.addr = alloca ptr, align 8
  %m.addr = alloca ptr, align 8
  store ptr %this, ptr %this.addr, align 8
  store ptr %n, ptr %n.addr, align 8
  store ptr %m, ptr %m.addr, align 8
  %this1 = load ptr, ptr %this.addr, align 8
  %m_obj = getelementptr inbounds %class.obj_ref, ptr %this1, i32 0, i32 0
  %0 = load ptr, ptr %n.addr, align 8
  store ptr %0, ptr %m_obj, align 8
  %m_manager = getelementptr inbounds %class.obj_ref, ptr %this1, i32 0, i32 1
  %1 = load ptr, ptr %m.addr, align 8
  store ptr %1, ptr %m_manager, align 8
  call void @_ZN7obj_refI4expr11ast_managerE7inc_refEv(ptr noundef nonnull align 8 dereferenceable(16) %this1)
  ret void
}

; Function Attrs: mustprogress uwtable
define hidden void @_ZN7datalog7context18register_predicateEP9func_declb(ptr noundef nonnull align 8 dereferenceable(3556) %this, ptr noundef %decl, i1 noundef zeroext %named) #4 align 2 {
entry:
  %this.addr = alloca ptr, align 8
  %decl.addr = alloca ptr, align 8
  %named.addr = alloca i8, align 1
  store ptr %this, ptr %this.addr, align 8
  store ptr %decl, ptr %decl.addr, align 8
  %frombool = zext i1 %named to i8
  store i8 %frombool, ptr %named.addr, align 1
  %this1 = load ptr, ptr %this.addr, align 8
  %0 = load ptr, ptr %decl.addr, align 8
  %call = call noundef zeroext i1 @_ZNK7datalog7context12is_predicateEP9func_decl(ptr noundef nonnull align 8 dereferenceable(3556) %this1, ptr noundef %0)
  br i1 %call, label %if.end5, label %if.then

if.then:                                          ; preds = %entry
  %m_pinned = getelementptr inbounds %"class.datalog::context", ptr %this1, i32 0, i32 17
  %1 = load ptr, ptr %decl.addr, align 8
  %call2 = call noundef nonnull align 8 dereferenceable(16) ptr @_ZN15ref_vector_coreI3ast19ref_manager_wrapperIS0_11ast_managerEE9push_backEPS0_(ptr noundef nonnull align 8 dereferenceable(16) %m_pinned, ptr noundef %1)
  %m_preds = getelementptr inbounds %"class.datalog::context", ptr %this1, i32 0, i32 20
  call void @_ZN14core_hashtableI14obj_hash_entryI9func_declE12obj_ptr_hashIS1_E6ptr_eqIS1_EE6insertERKPS1_(ptr noundef nonnull align 8 dereferenceable(20) %m_preds, ptr noundef nonnull align 8 dereferenceable(8) %decl.addr)
  %2 = load i8, ptr %named.addr, align 1
  %tobool = trunc i8 %2 to i1
  br i1 %tobool, label %if.then3, label %if.end

if.then3:                                         ; preds = %if.then
  %m_preds_by_name = getelementptr inbounds %"class.datalog::context", ptr %this1, i32 0, i32 21
  %3 = load ptr, ptr %decl.addr, align 8
  %call4 = call noundef nonnull align 8 dereferenceable(8) ptr @_ZNK4decl8get_nameEv(ptr noundef nonnull align 8 dereferenceable(32) %3)
  call void @_ZN9table2mapI17default_map_entryI6symbolP9func_declE16symbol_hash_proc14symbol_eq_procE6insertERKS1_RKS3_(ptr noundef nonnull align 8 dereferenceable(24) %m_preds_by_name, ptr noundef nonnull align 8 dereferenceable(8) %call4, ptr noundef nonnull align 8 dereferenceable(8) %decl.addr)
  br label %if.end

if.end:                                           ; preds = %if.then3, %if.then
  br label %if.end5

if.end5:                                          ; preds = %if.end, %entry
  ret void
}

; Function Attrs: mustprogress uwtable
define linkonce_odr hidden noundef zeroext i1 @_ZNK7datalog7context12is_predicateEP9func_decl(ptr noundef nonnull align 8 dereferenceable(3556) %this, ptr noundef %pred) #4 comdat align 2 {
entry:
  %this.addr = alloca ptr, align 8
  %pred.addr = alloca ptr, align 8
  store ptr %this, ptr %this.addr, align 8
  store ptr %pred, ptr %pred.addr, align 8
  %this1 = load ptr, ptr %this.addr, align 8
  %m_preds = getelementptr inbounds %"class.datalog::context", ptr %this1, i32 0, i32 20
  %call = call noundef zeroext i1 @_ZNK14core_hashtableI14obj_hash_entryI9func_declE12obj_ptr_hashIS1_E6ptr_eqIS1_EE8containsERKPS1_(ptr noundef nonnull align 8 dereferenceable(20) %m_preds, ptr noundef nonnull align 8 dereferenceable(8) %pred.addr)
  ret i1 %call
}

; Function Attrs: mustprogress uwtable
define linkonce_odr hidden void @_ZN14core_hashtableI14obj_hash_entryI9func_declE12obj_ptr_hashIS1_E6ptr_eqIS1_EE6insertERKPS1_(ptr noundef nonnull align 8 dereferenceable(20) %this, ptr noundef nonnull align 8 dereferenceable(8) %e) #4 comdat align 2 {
entry:
  %this.addr = alloca ptr, align 8
  %e.addr = alloca ptr, align 8
  %tmp = alloca ptr, align 8
  store ptr %this, ptr %this.addr, align 8
  store ptr %e, ptr %e.addr, align 8
  %this1 = load ptr, ptr %this.addr, align 8
  %0 = load ptr, ptr %e.addr, align 8
  %1 = load ptr, ptr %0, align 8
  store ptr %1, ptr %tmp, align 8
  call void @_ZN14core_hashtableI14obj_hash_entryI9func_declE12obj_ptr_hashIS1_E6ptr_eqIS1_EE6insertEOPS1_(ptr noundef nonnull align 8 dereferenceable(20) %this1, ptr noundef nonnull align 8 dereferenceable(8) %tmp)
  ret void
}

; Function Attrs: mustprogress uwtable
define linkonce_odr hidden void @_ZN9table2mapI17default_map_entryI6symbolP9func_declE16symbol_hash_proc14symbol_eq_procE6insertERKS1_RKS3_(ptr noundef nonnull align 8 dereferenceable(24) %this, ptr noundef nonnull align 8 dereferenceable(8) %k, ptr noundef nonnull align 8 dereferenceable(8) %v) #4 comdat align 2 {
entry:
  %this.addr = alloca ptr, align 8
  %k.addr = alloca ptr, align 8
  %v.addr = alloca ptr, align 8
  %ref.tmp = alloca %struct._key_data, align 8
  store ptr %this, ptr %this.addr, align 8
  store ptr %k, ptr %k.addr, align 8
  store ptr %v, ptr %v.addr, align 8
  %this1 = load ptr, ptr %this.addr, align 8
  %m_table = getelementptr inbounds %class.table2map.99, ptr %this1, i32 0, i32 0
  %0 = load ptr, ptr %k.addr, align 8
  %1 = load ptr, ptr %v.addr, align 8
  call void @_ZN9_key_dataI6symbolP9func_declEC2ERKS0_RKS2_(ptr noundef nonnull align 8 dereferenceable(16) %ref.tmp, ptr noundef nonnull align 8 dereferenceable(8) %0, ptr noundef nonnull align 8 dereferenceable(8) %1)
  call void @_ZN14core_hashtableI17default_map_entryI6symbolP9func_declEN9table2mapIS4_16symbol_hash_proc14symbol_eq_procE15entry_hash_procENS8_13entry_eq_procEE6insertEO9_key_dataIS1_S3_E(ptr noundef nonnull align 8 dereferenceable(20) %m_table, ptr noundef nonnull align 8 dereferenceable(16) %ref.tmp)
  ret void
}

; Function Attrs: mustprogress nounwind uwtable
define linkonce_odr hidden noundef nonnull align 8 dereferenceable(8) ptr @_ZNK4decl8get_nameEv(ptr noundef nonnull align 8 dereferenceable(32) %this) #5 comdat align 2 {
entry:
  %this.addr = alloca ptr, align 8
  store ptr %this, ptr %this.addr, align 8
  %this1 = load ptr, ptr %this.addr, align 8
  %m_name = getelementptr inbounds %class.decl, ptr %this1, i32 0, i32 1
  ret ptr %m_name
}

; Function Attrs: mustprogress uwtable
define hidden void @_ZN7datalog7context19restrict_predicatesERK13obj_hashtableI9func_declE(ptr noundef nonnull align 8 dereferenceable(3556) %this, ptr noundef nonnull align 8 dereferenceable(20) %preds) #4 align 2 {
entry:
  %this.addr = alloca ptr, align 8
  %preds.addr = alloca ptr, align 8
  %__range1 = alloca ptr, align 8
  %__begin1 = alloca %"class.core_hashtable<obj_hash_entry<func_decl>, obj_ptr_hash<func_decl>, ptr_eq<func_decl>>::iterator", align 8
  %__end1 = alloca %"class.core_hashtable<obj_hash_entry<func_decl>, obj_ptr_hash<func_decl>, ptr_eq<func_decl>>::iterator", align 8
  %p = alloca ptr, align 8
  store ptr %this, ptr %this.addr, align 8
  store ptr %preds, ptr %preds.addr, align 8
  %this1 = load ptr, ptr %this.addr, align 8
  %m_preds = getelementptr inbounds %"class.datalog::context", ptr %this1, i32 0, i32 20
  call void @_ZN14core_hashtableI14obj_hash_entryI9func_declE12obj_ptr_hashIS1_E6ptr_eqIS1_EE5resetEv(ptr noundef nonnull align 8 dereferenceable(20) %m_preds)
  %0 = load ptr, ptr %preds.addr, align 8
  store ptr %0, ptr %__range1, align 8
  %1 = load ptr, ptr %__range1, align 8
  %call = call { ptr, ptr } @_ZNK14core_hashtableI14obj_hash_entryI9func_declE12obj_ptr_hashIS1_E6ptr_eqIS1_EE5beginEv(ptr noundef nonnull align 8 dereferenceable(20) %1)
  %2 = getelementptr inbounds { ptr, ptr }, ptr %__begin1, i32 0, i32 0
  %3 = extractvalue { ptr, ptr } %call, 0
  store ptr %3, ptr %2, align 8
  %4 = getelementptr inbounds { ptr, ptr }, ptr %__begin1, i32 0, i32 1
  %5 = extractvalue { ptr, ptr } %call, 1
  store ptr %5, ptr %4, align 8
  %6 = load ptr, ptr %__range1, align 8
  %call2 = call { ptr, ptr } @_ZNK14core_hashtableI14obj_hash_entryI9func_declE12obj_ptr_hashIS1_E6ptr_eqIS1_EE3endEv(ptr noundef nonnull align 8 dereferenceable(20) %6)
  %7 = getelementptr inbounds { ptr, ptr }, ptr %__end1, i32 0, i32 0
  %8 = extractvalue { ptr, ptr } %call2, 0
  store ptr %8, ptr %7, align 8
  %9 = getelementptr inbounds { ptr, ptr }, ptr %__end1, i32 0, i32 1
  %10 = extractvalue { ptr, ptr } %call2, 1
  store ptr %10, ptr %9, align 8
  br label %for.cond

for.cond:                                         ; preds = %for.inc, %entry
  %call3 = call noundef zeroext i1 @_ZNK14core_hashtableI14obj_hash_entryI9func_declE12obj_ptr_hashIS1_E6ptr_eqIS1_EE8iteratorneERKS8_(ptr noundef nonnull align 8 dereferenceable(16) %__begin1, ptr noundef nonnull align 8 dereferenceable(16) %__end1)
  br i1 %call3, label %for.body, label %for.end

for.body:                                         ; preds = %for.cond
  %call4 = call noundef nonnull align 8 dereferenceable(8) ptr @_ZN14core_hashtableI14obj_hash_entryI9func_declE12obj_ptr_hashIS1_E6ptr_eqIS1_EE8iteratordeEv(ptr noundef nonnull align 8 dereferenceable(16) %__begin1)
  %11 = load ptr, ptr %call4, align 8
  store ptr %11, ptr %p, align 8
  %m_preds5 = getelementptr inbounds %"class.datalog::context", ptr %this1, i32 0, i32 20
  call void @_ZN14core_hashtableI14obj_hash_entryI9func_declE12obj_ptr_hashIS1_E6ptr_eqIS1_EE6insertERKPS1_(ptr noundef nonnull align 8 dereferenceable(20) %m_preds5, ptr noundef nonnull align 8 dereferenceable(8) %p)
  br label %for.inc

for.inc:                                          ; preds = %for.body
  %call6 = call noundef nonnull align 8 dereferenceable(16) ptr @_ZN14core_hashtableI14obj_hash_entryI9func_declE12obj_ptr_hashIS1_E6ptr_eqIS1_EE8iteratorppEv(ptr noundef nonnull align 8 dereferenceable(16) %__begin1)
  br label %for.cond

for.end:                                          ; preds = %for.cond
  ret void
}

; Function Attrs: mustprogress uwtable
define linkonce_odr hidden { ptr, ptr } @_ZNK14core_hashtableI14obj_hash_entryI9func_declE12obj_ptr_hashIS1_E6ptr_eqIS1_EE5beginEv(ptr noundef nonnull align 8 dereferenceable(20) %this) #4 comdat align 2 {
entry:
  %retval = alloca %"class.core_hashtable<obj_hash_entry<func_decl>, obj_ptr_hash<func_decl>, ptr_eq<func_decl>>::iterator", align 8
  %this.addr = alloca ptr, align 8
  store ptr %this, ptr %this.addr, align 8
  %this1 = load ptr, ptr %this.addr, align 8
  %m_table = getelementptr inbounds %class.core_hashtable.93, ptr %this1, i32 0, i32 0
  %0 = load ptr, ptr %m_table, align 8
  %m_table2 = getelementptr inbounds %class.core_hashtable.93, ptr %this1, i32 0, i32 0
  %1 = load ptr, ptr %m_table2, align 8
  %m_capacity = getelementptr inbounds %class.core_hashtable.93, ptr %this1, i32 0, i32 1
  %2 = load i32, ptr %m_capacity, align 8
  %idx.ext = zext i32 %2 to i64
  %add.ptr = getelementptr inbounds %class.obj_hash_entry.202, ptr %1, i64 %idx.ext
  call void @_ZN14core_hashtableI14obj_hash_entryI9func_declE12obj_ptr_hashIS1_E6ptr_eqIS1_EE8iteratorC2EPS2_S9_(ptr noundef nonnull align 8 dereferenceable(16) %retval, ptr noundef %0, ptr noundef %add.ptr)
  %3 = load { ptr, ptr }, ptr %retval, align 8
  ret { ptr, ptr } %3
}

; Function Attrs: mustprogress uwtable
define linkonce_odr hidden { ptr, ptr } @_ZNK14core_hashtableI14obj_hash_entryI9func_declE12obj_ptr_hashIS1_E6ptr_eqIS1_EE3endEv(ptr noundef nonnull align 8 dereferenceable(20) %this) #4 comdat align 2 {
entry:
  %retval = alloca %"class.core_hashtable<obj_hash_entry<func_decl>, obj_ptr_hash<func_decl>, ptr_eq<func_decl>>::iterator", align 8
  %this.addr = alloca ptr, align 8
  store ptr %this, ptr %this.addr, align 8
  %this1 = load ptr, ptr %this.addr, align 8
  %m_table = getelementptr inbounds %class.core_hashtable.93, ptr %this1, i32 0, i32 0
  %0 = load ptr, ptr %m_table, align 8
  %m_capacity = getelementptr inbounds %class.core_hashtable.93, ptr %this1, i32 0, i32 1
  %1 = load i32, ptr %m_capacity, align 8
  %idx.ext = zext i32 %1 to i64
  %add.ptr = getelementptr inbounds %class.obj_hash_entry.202, ptr %0, i64 %idx.ext
  %m_table2 = getelementptr inbounds %class.core_hashtable.93, ptr %this1, i32 0, i32 0
  %2 = load ptr, ptr %m_table2, align 8
  %m_capacity3 = getelementptr inbounds %class.core_hashtable.93, ptr %this1, i32 0, i32 1
  %3 = load i32, ptr %m_capacity3, align 8
  %idx.ext4 = zext i32 %3 to i64
  %add.ptr5 = getelementptr inbounds %class.obj_hash_entry.202, ptr %2, i64 %idx.ext4
  call void @_ZN14core_hashtableI14obj_hash_entryI9func_declE12obj_ptr_hashIS1_E6ptr_eqIS1_EE8iteratorC2EPS2_S9_(ptr noundef nonnull align 8 dereferenceable(16) %retval, ptr noundef %add.ptr, ptr noundef %add.ptr5)
  %4 = load { ptr, ptr }, ptr %retval, align 8
  ret { ptr, ptr } %4
}

; Function Attrs: mustprogress nounwind uwtable
define linkonce_odr hidden noundef zeroext i1 @_ZNK14core_hashtableI14obj_hash_entryI9func_declE12obj_ptr_hashIS1_E6ptr_eqIS1_EE8iteratorneERKS8_(ptr noundef nonnull align 8 dereferenceable(16) %this, ptr noundef nonnull align 8 dereferenceable(16) %it) #5 comdat align 2 {
entry:
  %this.addr = alloca ptr, align 8
  %it.addr = alloca ptr, align 8
  store ptr %this, ptr %this.addr, align 8
  store ptr %it, ptr %it.addr, align 8
  %this1 = load ptr, ptr %this.addr, align 8
  %m_curr = getelementptr inbounds %"class.core_hashtable<obj_hash_entry<func_decl>, obj_ptr_hash<func_decl>, ptr_eq<func_decl>>::iterator", ptr %this1, i32 0, i32 0
  %0 = load ptr, ptr %m_curr, align 8
  %1 = load ptr, ptr %it.addr, align 8
  %m_curr2 = getelementptr inbounds %"class.core_hashtable<obj_hash_entry<func_decl>, obj_ptr_hash<func_decl>, ptr_eq<func_decl>>::iterator", ptr %1, i32 0, i32 0
  %2 = load ptr, ptr %m_curr2, align 8
  %cmp = icmp ne ptr %0, %2
  ret i1 %cmp
}

; Function Attrs: mustprogress nounwind uwtable
define linkonce_odr hidden noundef nonnull align 8 dereferenceable(8) ptr @_ZN14core_hashtableI14obj_hash_entryI9func_declE12obj_ptr_hashIS1_E6ptr_eqIS1_EE8iteratordeEv(ptr noundef nonnull align 8 dereferenceable(16) %this) #5 comdat align 2 {
entry:
  %this.addr = alloca ptr, align 8
  store ptr %this, ptr %this.addr, align 8
  %this1 = load ptr, ptr %this.addr, align 8
  %m_curr = getelementptr inbounds %"class.core_hashtable<obj_hash_entry<func_decl>, obj_ptr_hash<func_decl>, ptr_eq<func_decl>>::iterator", ptr %this1, i32 0, i32 0
  %0 = load ptr, ptr %m_curr, align 8
  %call = call noundef nonnull align 8 dereferenceable(8) ptr @_ZN14obj_hash_entryI9func_declE8get_dataEv(ptr noundef nonnull align 8 dereferenceable(8) %0)
  ret ptr %call
}

; Function Attrs: mustprogress nounwind uwtable
define linkonce_odr hidden noundef nonnull align 8 dereferenceable(16) ptr @_ZN14core_hashtableI14obj_hash_entryI9func_declE12obj_ptr_hashIS1_E6ptr_eqIS1_EE8iteratorppEv(ptr noundef nonnull align 8 dereferenceable(16) %this) #5 comdat align 2 {
entry:
  %this.addr = alloca ptr, align 8
  store ptr %this, ptr %this.addr, align 8
  %this1 = load ptr, ptr %this.addr, align 8
  %m_curr = getelementptr inbounds %"class.core_hashtable<obj_hash_entry<func_decl>, obj_ptr_hash<func_decl>, ptr_eq<func_decl>>::iterator", ptr %this1, i32 0, i32 0
  %0 = load ptr, ptr %m_curr, align 8
  %incdec.ptr = getelementptr inbounds %class.obj_hash_entry.202, ptr %0, i32 1
  store ptr %incdec.ptr, ptr %m_curr, align 8
  call void @_ZN14core_hashtableI14obj_hash_entryI9func_declE12obj_ptr_hashIS1_E6ptr_eqIS1_EE8iterator12move_to_usedEv(ptr noundef nonnull align 8 dereferenceable(16) %this1)
  ret ptr %this1
}

; Function Attrs: mustprogress uwtable
define hidden noundef i32 @_ZN7datalog7context19get_constant_numberEP4sort6symbol(ptr noundef nonnull align 8 dereferenceable(3556) %this, ptr noundef %srt, ptr %sym.coerce) #4 align 2 {
entry:
  %sym = alloca %class.symbol, align 8
  %this.addr = alloca ptr, align 8
  %srt.addr = alloca ptr, align 8
  %dom0 = alloca ptr, align 8
  %dom = alloca ptr, align 8
  %agg.tmp = alloca %class.symbol, align 8
  %coerce.dive = getelementptr inbounds %class.symbol, ptr %sym, i32 0, i32 0
  store ptr %sym.coerce, ptr %coerce.dive, align 8
  store ptr %this, ptr %this.addr, align 8
  store ptr %srt, ptr %srt.addr, align 8
  %this1 = load ptr, ptr %this.addr, align 8
  %0 = load ptr, ptr %srt.addr, align 8
  %call = call noundef nonnull align 8 dereferenceable(48) ptr @_ZN7datalog7context15get_sort_domainEP4sort(ptr noundef nonnull align 8 dereferenceable(3556) %this1, ptr noundef %0)
  store ptr %call, ptr %dom0, align 8
  %1 = load ptr, ptr %dom0, align 8
  store ptr %1, ptr %dom, align 8
  %2 = load ptr, ptr %dom, align 8
  call void @llvm.memcpy.p0.p0.i64(ptr align 8 %agg.tmp, ptr align 8 %sym, i64 8, i1 false)
  %coerce.dive2 = getelementptr inbounds %class.symbol, ptr %agg.tmp, i32 0, i32 0
  %3 = load ptr, ptr %coerce.dive2, align 8
  %call3 = call noundef i32 @_ZN7datalog7context18symbol_sort_domain10get_numberE6symbol(ptr noundef nonnull align 8 dereferenceable(80) %2, ptr %3)
  ret i32 %call3
}

; Function Attrs: mustprogress uwtable
define linkonce_odr hidden noundef i32 @_ZN7datalog7context18symbol_sort_domain10get_numberE6symbol(ptr noundef nonnull align 8 dereferenceable(80) %this, ptr %sym.coerce) #4 comdat align 2 personality ptr @__gxx_personality_v0 {
entry:
  %sym = alloca %class.symbol, align 8
  %this.addr = alloca ptr, align 8
  %newIdx = alloca i32, align 4
  %idx = alloca i32, align 4
  %sstm = alloca %"class.std::__cxx11::basic_stringstream", align 8
  %exn.slot = alloca ptr, align 8
  %ehselector.slot = alloca i32, align 4
  %agg.tmp = alloca %class.symbol, align 8
  %ref.tmp = alloca %"class.std::__cxx11::basic_string", align 8
  %cleanup.isactive = alloca i1, align 1
  %coerce.dive = getelementptr inbounds %class.symbol, ptr %sym, i32 0, i32 0
  store ptr %sym.coerce, ptr %coerce.dive, align 8
  store ptr %this, ptr %this.addr, align 8
  %this1 = load ptr, ptr %this.addr, align 8
  %m_el_numbers = getelementptr inbounds %"class.datalog::context::symbol_sort_domain", ptr %this1, i32 0, i32 1
  %call = call noundef i32 @_ZNK9table2mapI17default_map_entryI6symboljE16symbol_hash_proc14symbol_eq_procE4sizeEv(ptr noundef nonnull align 8 dereferenceable(24) %m_el_numbers)
  store i32 %call, ptr %newIdx, align 4
  %m_el_numbers2 = getelementptr inbounds %"class.datalog::context::symbol_sort_domain", ptr %this1, i32 0, i32 1
  %call3 = call noundef nonnull align 4 dereferenceable(4) ptr @_ZN9table2mapI17default_map_entryI6symboljE16symbol_hash_proc14symbol_eq_procE19insert_if_not_thereERKS1_RKj(ptr noundef nonnull align 8 dereferenceable(24) %m_el_numbers2, ptr noundef nonnull align 8 dereferenceable(8) %sym, ptr noundef nonnull align 4 dereferenceable(4) %newIdx)
  %0 = load i32, ptr %call3, align 4
  store i32 %0, ptr %idx, align 4
  %1 = load i32, ptr %idx, align 4
  %2 = load i32, ptr %newIdx, align 4
  %cmp = icmp eq i32 %1, %2
  br i1 %cmp, label %if.then, label %if.end

if.then:                                          ; preds = %entry
  %m_el_names = getelementptr inbounds %"class.datalog::context::symbol_sort_domain", ptr %this1, i32 0, i32 2
  %call4 = call noundef nonnull align 8 dereferenceable(8) ptr @_ZN6vectorI6symbolLb0EjE9push_backERKS0_(ptr noundef nonnull align 8 dereferenceable(8) %m_el_names, ptr noundef nonnull align 8 dereferenceable(8) %sym)
  br label %if.end

if.end:                                           ; preds = %if.then, %entry
  %m_limited_size = getelementptr inbounds %"class.datalog::context::sort_domain", ptr %this1, i32 0, i32 3
  %3 = load i8, ptr %m_limited_size, align 8
  %tobool = trunc i8 %3 to i1
  br i1 %tobool, label %land.lhs.true, label %if.end23

land.lhs.true:                                    ; preds = %if.end
  %4 = load i32, ptr %idx, align 4
  %conv = zext i32 %4 to i64
  %m_size = getelementptr inbounds %"class.datalog::context::sort_domain", ptr %this1, i32 0, i32 4
  %5 = load i64, ptr %m_size, align 8
  %cmp5 = icmp uge i64 %conv, %5
  br i1 %cmp5, label %if.then6, label %if.end23

if.then6:                                         ; preds = %land.lhs.true
  call void @_ZNSt7__cxx1118basic_stringstreamIcSt11char_traitsIcESaIcEEC1Ev(ptr noundef nonnull align 8 dereferenceable(128) %sstm)
  %add.ptr = getelementptr inbounds i8, ptr %sstm, i64 16
  %call7 = invoke noundef nonnull align 8 dereferenceable(8) ptr @_ZStlsISt11char_traitsIcEERSt13basic_ostreamIcT_ES5_PKc(ptr noundef nonnull align 8 dereferenceable(8) %add.ptr, ptr noundef @.str.84)
          to label %invoke.cont unwind label %lpad

invoke.cont:                                      ; preds = %if.then6
  %m_sort = getelementptr inbounds %"class.datalog::context::sort_domain", ptr %this1, i32 0, i32 2
  %call8 = call noundef ptr @_ZNK7obj_refI4sort11ast_managerEptEv(ptr noundef nonnull align 8 dereferenceable(16) %m_sort)
  %call9 = call noundef nonnull align 8 dereferenceable(8) ptr @_ZNK4decl8get_nameEv(ptr noundef nonnull align 8 dereferenceable(32) %call8)
  call void @llvm.memcpy.p0.p0.i64(ptr align 8 %agg.tmp, ptr align 8 %call9, i64 8, i1 false)
  %coerce.dive10 = getelementptr inbounds %class.symbol, ptr %agg.tmp, i32 0, i32 0
  %6 = load ptr, ptr %coerce.dive10, align 8
  %call12 = invoke noundef nonnull align 8 dereferenceable(8) ptr @_ZlsRSo6symbol(ptr noundef nonnull align 8 dereferenceable(8) %call7, ptr %6)
          to label %invoke.cont11 unwind label %lpad

invoke.cont11:                                    ; preds = %invoke.cont
  %call14 = invoke noundef nonnull align 8 dereferenceable(8) ptr @_ZStlsISt11char_traitsIcEERSt13basic_ostreamIcT_ES5_PKc(ptr noundef nonnull align 8 dereferenceable(8) %call12, ptr noundef @.str.85)
          to label %invoke.cont13 unwind label %lpad

invoke.cont13:                                    ; preds = %invoke.cont11
  %m_size15 = getelementptr inbounds %"class.datalog::context::sort_domain", ptr %this1, i32 0, i32 4
  %7 = load i64, ptr %m_size15, align 8
  %call17 = invoke noundef nonnull align 8 dereferenceable(8) ptr @_ZNSolsEm(ptr noundef nonnull align 8 dereferenceable(8) %call14, i64 noundef %7)
          to label %invoke.cont16 unwind label %lpad

invoke.cont16:                                    ; preds = %invoke.cont13
  store i1 true, ptr %cleanup.isactive, align 1
  %exception = call ptr @__cxa_allocate_exception(i64 40) #3
  invoke void @_ZNKSt7__cxx1118basic_stringstreamIcSt11char_traitsIcESaIcEE3strEv(ptr sret(%"class.std::__cxx11::basic_string") align 8 %ref.tmp, ptr noundef nonnull align 8 dereferenceable(128) %sstm)
          to label %invoke.cont19 unwind label %lpad18

invoke.cont19:                                    ; preds = %invoke.cont16
  invoke void @_ZN17default_exceptionC2EONSt7__cxx1112basic_stringIcSt11char_traitsIcESaIcEEE(ptr noundef nonnull align 8 dereferenceable(40) %exception, ptr noundef nonnull align 8 dereferenceable(32) %ref.tmp)
          to label %invoke.cont21 unwind label %lpad20

invoke.cont21:                                    ; preds = %invoke.cont19
  store i1 false, ptr %cleanup.isactive, align 1
  invoke void @__cxa_throw(ptr %exception, ptr @_ZTI17default_exception, ptr @_ZN17default_exceptionD2Ev) #15
          to label %unreachable unwind label %lpad20

lpad:                                             ; preds = %invoke.cont13, %invoke.cont11, %invoke.cont, %if.then6
  %8 = landingpad { ptr, i32 }
          cleanup
  %9 = extractvalue { ptr, i32 } %8, 0
  store ptr %9, ptr %exn.slot, align 8
  %10 = extractvalue { ptr, i32 } %8, 1
  store i32 %10, ptr %ehselector.slot, align 4
  br label %ehcleanup22

lpad18:                                           ; preds = %invoke.cont16
  %11 = landingpad { ptr, i32 }
          cleanup
  %12 = extractvalue { ptr, i32 } %11, 0
  store ptr %12, ptr %exn.slot, align 8
  %13 = extractvalue { ptr, i32 } %11, 1
  store i32 %13, ptr %ehselector.slot, align 4
  br label %ehcleanup

lpad20:                                           ; preds = %invoke.cont21, %invoke.cont19
  %14 = landingpad { ptr, i32 }
          cleanup
  %15 = extractvalue { ptr, i32 } %14, 0
  store ptr %15, ptr %exn.slot, align 8
  %16 = extractvalue { ptr, i32 } %14, 1
  store i32 %16, ptr %ehselector.slot, align 4
  call void @_ZNSt7__cxx1112basic_stringIcSt11char_traitsIcESaIcEED1Ev(ptr noundef nonnull align 8 dereferenceable(32) %ref.tmp) #3
  br label %ehcleanup

ehcleanup:                                        ; preds = %lpad20, %lpad18
  %cleanup.is_active = load i1, ptr %cleanup.isactive, align 1
  br i1 %cleanup.is_active, label %cleanup.action, label %cleanup.done

cleanup.action:                                   ; preds = %ehcleanup
  call void @__cxa_free_exception(ptr %exception) #3
  br label %cleanup.done

cleanup.done:                                     ; preds = %cleanup.action, %ehcleanup
  br label %ehcleanup22

ehcleanup22:                                      ; preds = %cleanup.done, %lpad
  call void @_ZNSt7__cxx1118basic_stringstreamIcSt11char_traitsIcESaIcEED1Ev(ptr noundef nonnull align 8 dereferenceable(128) %sstm) #3
  br label %eh.resume

if.end23:                                         ; preds = %land.lhs.true, %if.end
  %17 = load i32, ptr %idx, align 4
  ret i32 %17

eh.resume:                                        ; preds = %ehcleanup22
  %exn = load ptr, ptr %exn.slot, align 8
  %sel = load i32, ptr %ehselector.slot, align 4
  %lpad.val = insertvalue { ptr, i32 } poison, ptr %exn, 0
  %lpad.val24 = insertvalue { ptr, i32 } %lpad.val, i32 %sel, 1
  resume { ptr, i32 } %lpad.val24

unreachable:                                      ; preds = %invoke.cont21
  unreachable
}

; Function Attrs: mustprogress uwtable
define hidden noundef i32 @_ZN7datalog7context19get_constant_numberEP4sortm(ptr noundef nonnull align 8 dereferenceable(3556) %this, ptr noundef %srt, i64 noundef %el) #4 align 2 {
entry:
  %retval = alloca i32, align 4
  %this.addr = alloca ptr, align 8
  %srt.addr = alloca ptr, align 8
  %el.addr = alloca i64, align 8
  %dom0 = alloca ptr, align 8
  %dom = alloca ptr, align 8
  store ptr %this, ptr %this.addr, align 8
  store ptr %srt, ptr %srt.addr, align 8
  store i64 %el, ptr %el.addr, align 8
  %this1 = load ptr, ptr %this.addr, align 8
  %0 = load ptr, ptr %srt.addr, align 8
  %call = call noundef nonnull align 8 dereferenceable(48) ptr @_ZN7datalog7context15get_sort_domainEP4sort(ptr noundef nonnull align 8 dereferenceable(3556) %this1, ptr noundef %0)
  store ptr %call, ptr %dom0, align 8
  %1 = load ptr, ptr %dom0, align 8
  %call2 = call noundef i32 @_ZNK7datalog7context11sort_domain8get_kindEv(ptr noundef nonnull align 8 dereferenceable(48) %1)
  %cmp = icmp eq i32 %call2, 1
  br i1 %cmp, label %if.then, label %if.else

if.then:                                          ; preds = %entry
  %2 = load i64, ptr %el.addr, align 8
  %conv = trunc i64 %2 to i32
  store i32 %conv, ptr %retval, align 4
  br label %return

if.else:                                          ; preds = %entry
  %3 = load ptr, ptr %dom0, align 8
  store ptr %3, ptr %dom, align 8
  %4 = load ptr, ptr %dom, align 8
  %5 = load i64, ptr %el.addr, align 8
  %call3 = call noundef i32 @_ZN7datalog7context18uint64_sort_domain10get_numberEm(ptr noundef nonnull align 8 dereferenceable(80) %4, i64 noundef %5)
  store i32 %call3, ptr %retval, align 4
  br label %return

return:                                           ; preds = %if.else, %if.then
  %6 = load i32, ptr %retval, align 4
  ret i32 %6
}

; Function Attrs: mustprogress nounwind uwtable
define linkonce_odr hidden noundef i32 @_ZNK7datalog7context11sort_domain8get_kindEv(ptr noundef nonnull align 8 dereferenceable(48) %this) #5 comdat align 2 {
entry:
  %this.addr = alloca ptr, align 8
  store ptr %this, ptr %this.addr, align 8
  %this1 = load ptr, ptr %this.addr, align 8
  %m_kind = getelementptr inbounds %"class.datalog::context::sort_domain", ptr %this1, i32 0, i32 1
  %0 = load i32, ptr %m_kind, align 8
  ret i32 %0
}

; Function Attrs: mustprogress uwtable
define linkonce_odr hidden noundef i32 @_ZN7datalog7context18uint64_sort_domain10get_numberEm(ptr noundef nonnull align 8 dereferenceable(80) %this, i64 noundef %el) #4 comdat align 2 personality ptr @__gxx_personality_v0 {
entry:
  %this.addr = alloca ptr, align 8
  %el.addr = alloca i64, align 8
  %newIdx = alloca i32, align 4
  %idx = alloca i32, align 4
  %sstm = alloca %"class.std::__cxx11::basic_stringstream", align 8
  %exn.slot = alloca ptr, align 8
  %ehselector.slot = alloca i32, align 4
  %agg.tmp = alloca %class.symbol, align 8
  %ref.tmp = alloca %"class.std::__cxx11::basic_string", align 8
  %cleanup.isactive = alloca i1, align 1
  store ptr %this, ptr %this.addr, align 8
  store i64 %el, ptr %el.addr, align 8
  %this1 = load ptr, ptr %this.addr, align 8
  %m_el_numbers = getelementptr inbounds %"class.datalog::context::uint64_sort_domain", ptr %this1, i32 0, i32 1
  %call = call noundef i32 @_ZNK9table2mapI17default_map_entryImjE11uint64_hash10default_eqImEE4sizeEv(ptr noundef nonnull align 8 dereferenceable(24) %m_el_numbers)
  store i32 %call, ptr %newIdx, align 4
  %m_el_numbers2 = getelementptr inbounds %"class.datalog::context::uint64_sort_domain", ptr %this1, i32 0, i32 1
  %call3 = call noundef nonnull align 4 dereferenceable(4) ptr @_ZN9table2mapI17default_map_entryImjE11uint64_hash10default_eqImEE19insert_if_not_thereERKmRKj(ptr noundef nonnull align 8 dereferenceable(24) %m_el_numbers2, ptr noundef nonnull align 8 dereferenceable(8) %el.addr, ptr noundef nonnull align 4 dereferenceable(4) %newIdx)
  %0 = load i32, ptr %call3, align 4
  store i32 %0, ptr %idx, align 4
  %1 = load i32, ptr %idx, align 4
  %2 = load i32, ptr %newIdx, align 4
  %cmp = icmp eq i32 %1, %2
  br i1 %cmp, label %if.then, label %if.end

if.then:                                          ; preds = %entry
  %m_el_names = getelementptr inbounds %"class.datalog::context::uint64_sort_domain", ptr %this1, i32 0, i32 2
  %call4 = call noundef nonnull align 8 dereferenceable(8) ptr @_ZN6vectorImLb0EjE9push_backERKm(ptr noundef nonnull align 8 dereferenceable(8) %m_el_names, ptr noundef nonnull align 8 dereferenceable(8) %el.addr)
  br label %if.end

if.end:                                           ; preds = %if.then, %entry
  %m_limited_size = getelementptr inbounds %"class.datalog::context::sort_domain", ptr %this1, i32 0, i32 3
  %3 = load i8, ptr %m_limited_size, align 8
  %tobool = trunc i8 %3 to i1
  br i1 %tobool, label %land.lhs.true, label %if.end22

land.lhs.true:                                    ; preds = %if.end
  %4 = load i32, ptr %idx, align 4
  %conv = zext i32 %4 to i64
  %m_size = getelementptr inbounds %"class.datalog::context::sort_domain", ptr %this1, i32 0, i32 4
  %5 = load i64, ptr %m_size, align 8
  %cmp5 = icmp uge i64 %conv, %5
  br i1 %cmp5, label %if.then6, label %if.end22

if.then6:                                         ; preds = %land.lhs.true
  call void @_ZNSt7__cxx1118basic_stringstreamIcSt11char_traitsIcESaIcEEC1Ev(ptr noundef nonnull align 8 dereferenceable(128) %sstm)
  %add.ptr = getelementptr inbounds i8, ptr %sstm, i64 16
  %call7 = invoke noundef nonnull align 8 dereferenceable(8) ptr @_ZStlsISt11char_traitsIcEERSt13basic_ostreamIcT_ES5_PKc(ptr noundef nonnull align 8 dereferenceable(8) %add.ptr, ptr noundef @.str.84)
          to label %invoke.cont unwind label %lpad

invoke.cont:                                      ; preds = %if.then6
  %m_sort = getelementptr inbounds %"class.datalog::context::sort_domain", ptr %this1, i32 0, i32 2
  %call8 = call noundef ptr @_ZNK7obj_refI4sort11ast_managerEptEv(ptr noundef nonnull align 8 dereferenceable(16) %m_sort)
  %call9 = call noundef nonnull align 8 dereferenceable(8) ptr @_ZNK4decl8get_nameEv(ptr noundef nonnull align 8 dereferenceable(32) %call8)
  call void @llvm.memcpy.p0.p0.i64(ptr align 8 %agg.tmp, ptr align 8 %call9, i64 8, i1 false)
  %coerce.dive = getelementptr inbounds %class.symbol, ptr %agg.tmp, i32 0, i32 0
  %6 = load ptr, ptr %coerce.dive, align 8
  %call11 = invoke noundef nonnull align 8 dereferenceable(8) ptr @_ZlsRSo6symbol(ptr noundef nonnull align 8 dereferenceable(8) %call7, ptr %6)
          to label %invoke.cont10 unwind label %lpad

invoke.cont10:                                    ; preds = %invoke.cont
  %call13 = invoke noundef nonnull align 8 dereferenceable(8) ptr @_ZStlsISt11char_traitsIcEERSt13basic_ostreamIcT_ES5_PKc(ptr noundef nonnull align 8 dereferenceable(8) %call11, ptr noundef @.str.85)
          to label %invoke.cont12 unwind label %lpad

invoke.cont12:                                    ; preds = %invoke.cont10
  %m_size14 = getelementptr inbounds %"class.datalog::context::sort_domain", ptr %this1, i32 0, i32 4
  %7 = load i64, ptr %m_size14, align 8
  %call16 = invoke noundef nonnull align 8 dereferenceable(8) ptr @_ZNSolsEm(ptr noundef nonnull align 8 dereferenceable(8) %call13, i64 noundef %7)
          to label %invoke.cont15 unwind label %lpad

invoke.cont15:                                    ; preds = %invoke.cont12
  store i1 true, ptr %cleanup.isactive, align 1
  %exception = call ptr @__cxa_allocate_exception(i64 40) #3
  invoke void @_ZNKSt7__cxx1118basic_stringstreamIcSt11char_traitsIcESaIcEE3strEv(ptr sret(%"class.std::__cxx11::basic_string") align 8 %ref.tmp, ptr noundef nonnull align 8 dereferenceable(128) %sstm)
          to label %invoke.cont18 unwind label %lpad17

invoke.cont18:                                    ; preds = %invoke.cont15
  invoke void @_ZN17default_exceptionC2EONSt7__cxx1112basic_stringIcSt11char_traitsIcESaIcEEE(ptr noundef nonnull align 8 dereferenceable(40) %exception, ptr noundef nonnull align 8 dereferenceable(32) %ref.tmp)
          to label %invoke.cont20 unwind label %lpad19

invoke.cont20:                                    ; preds = %invoke.cont18
  store i1 false, ptr %cleanup.isactive, align 1
  invoke void @__cxa_throw(ptr %exception, ptr @_ZTI17default_exception, ptr @_ZN17default_exceptionD2Ev) #15
          to label %unreachable unwind label %lpad19

lpad:                                             ; preds = %invoke.cont12, %invoke.cont10, %invoke.cont, %if.then6
  %8 = landingpad { ptr, i32 }
          cleanup
  %9 = extractvalue { ptr, i32 } %8, 0
  store ptr %9, ptr %exn.slot, align 8
  %10 = extractvalue { ptr, i32 } %8, 1
  store i32 %10, ptr %ehselector.slot, align 4
  br label %ehcleanup21

lpad17:                                           ; preds = %invoke.cont15
  %11 = landingpad { ptr, i32 }
          cleanup
  %12 = extractvalue { ptr, i32 } %11, 0
  store ptr %12, ptr %exn.slot, align 8
  %13 = extractvalue { ptr, i32 } %11, 1
  store i32 %13, ptr %ehselector.slot, align 4
  br label %ehcleanup

lpad19:                                           ; preds = %invoke.cont20, %invoke.cont18
  %14 = landingpad { ptr, i32 }
          cleanup
  %15 = extractvalue { ptr, i32 } %14, 0
  store ptr %15, ptr %exn.slot, align 8
  %16 = extractvalue { ptr, i32 } %14, 1
  store i32 %16, ptr %ehselector.slot, align 4
  call void @_ZNSt7__cxx1112basic_stringIcSt11char_traitsIcESaIcEED1Ev(ptr noundef nonnull align 8 dereferenceable(32) %ref.tmp) #3
  br label %ehcleanup

ehcleanup:                                        ; preds = %lpad19, %lpad17
  %cleanup.is_active = load i1, ptr %cleanup.isactive, align 1
  br i1 %cleanup.is_active, label %cleanup.action, label %cleanup.done

cleanup.action:                                   ; preds = %ehcleanup
  call void @__cxa_free_exception(ptr %exception) #3
  br label %cleanup.done

cleanup.done:                                     ; preds = %cleanup.action, %ehcleanup
  br label %ehcleanup21

ehcleanup21:                                      ; preds = %cleanup.done, %lpad
  call void @_ZNSt7__cxx1118basic_stringstreamIcSt11char_traitsIcESaIcEED1Ev(ptr noundef nonnull align 8 dereferenceable(128) %sstm) #3
  br label %eh.resume

if.end22:                                         ; preds = %land.lhs.true, %if.end
  %17 = load i32, ptr %idx, align 4
  ret i32 %17

eh.resume:                                        ; preds = %ehcleanup21
  %exn = load ptr, ptr %exn.slot, align 8
  %sel = load i32, ptr %ehselector.slot, align 4
  %lpad.val = insertvalue { ptr, i32 } poison, ptr %exn, 0
  %lpad.val23 = insertvalue { ptr, i32 } %lpad.val, i32 %sel, 1
  resume { ptr, i32 } %lpad.val23

unreachable:                                      ; preds = %invoke.cont20
  unreachable
}

; Function Attrs: mustprogress uwtable
define hidden void @_ZN7datalog7context19print_constant_nameEP4sortmRSo(ptr noundef nonnull align 8 dereferenceable(3556) %this, ptr noundef %srt, i64 noundef %num, ptr noundef nonnull align 8 dereferenceable(8) %out) #4 align 2 {
entry:
  %this.addr = alloca ptr, align 8
  %srt.addr = alloca ptr, align 8
  %num.addr = alloca i64, align 8
  %out.addr = alloca ptr, align 8
  store ptr %this, ptr %this.addr, align 8
  store ptr %srt, ptr %srt.addr, align 8
  store i64 %num, ptr %num.addr, align 8
  store ptr %out, ptr %out.addr, align 8
  %this1 = load ptr, ptr %this.addr, align 8
  %0 = load ptr, ptr %srt.addr, align 8
  %call = call noundef zeroext i1 @_ZNK7datalog7context15has_sort_domainEP4sort(ptr noundef nonnull align 8 dereferenceable(3556) %this1, ptr noundef %0)
  br i1 %call, label %if.then, label %if.else

if.then:                                          ; preds = %entry
  %1 = load ptr, ptr %srt.addr, align 8
  %call2 = call noundef nonnull align 8 dereferenceable(48) ptr @_ZN7datalog7context15get_sort_domainEP4sort(ptr noundef nonnull align 8 dereferenceable(3556) %this1, ptr noundef %1)
  %2 = load i64, ptr %num.addr, align 8
  %conv = trunc i64 %2 to i32
  %3 = load ptr, ptr %out.addr, align 8
  %vtable = load ptr, ptr %call2, align 8
  %vfn = getelementptr inbounds ptr, ptr %vtable, i64 3
  %4 = load ptr, ptr %vfn, align 8
  call void %4(ptr noundef nonnull align 8 dereferenceable(48) %call2, i32 noundef %conv, ptr noundef nonnull align 8 dereferenceable(8) %3)
  br label %if.end

if.else:                                          ; preds = %entry
  %5 = load ptr, ptr %out.addr, align 8
  %6 = load i64, ptr %num.addr, align 8
  %call3 = call noundef nonnull align 8 dereferenceable(8) ptr @_ZNSolsEm(ptr noundef nonnull align 8 dereferenceable(8) %5, i64 noundef %6)
  br label %if.end

if.end:                                           ; preds = %if.else, %if.then
  ret void
}

declare noundef nonnull align 8 dereferenceable(8) ptr @_ZNSolsEm(ptr noundef nonnull align 8 dereferenceable(8), i64 noundef) #1

; Function Attrs: mustprogress uwtable
define hidden noundef zeroext i1 @_ZN7datalog7context27try_get_sort_constant_countEP4sortRm(ptr noundef nonnull align 8 dereferenceable(3556) %this, ptr noundef %srt, ptr noundef nonnull align 8 dereferenceable(8) %constant_count) #4 align 2 {
entry:
  %retval = alloca i1, align 1
  %this.addr = alloca ptr, align 8
  %srt.addr = alloca ptr, align 8
  %constant_count.addr = alloca ptr, align 8
  store ptr %this, ptr %this.addr, align 8
  store ptr %srt, ptr %srt.addr, align 8
  store ptr %constant_count, ptr %constant_count.addr, align 8
  %this1 = load ptr, ptr %this.addr, align 8
  %0 = load ptr, ptr %srt.addr, align 8
  %call = call noundef zeroext i1 @_ZNK7datalog7context15has_sort_domainEP4sort(ptr noundef nonnull align 8 dereferenceable(3556) %this1, ptr noundef %0)
  br i1 %call, label %if.end, label %if.then

if.then:                                          ; preds = %entry
  store i1 false, ptr %retval, align 1
  br label %return

if.end:                                           ; preds = %entry
  %1 = load ptr, ptr %srt.addr, align 8
  %call2 = call noundef nonnull align 8 dereferenceable(48) ptr @_ZN7datalog7context15get_sort_domainEP4sort(ptr noundef nonnull align 8 dereferenceable(3556) %this1, ptr noundef %1)
  %vtable = load ptr, ptr %call2, align 8
  %vfn = getelementptr inbounds ptr, ptr %vtable, i64 2
  %2 = load ptr, ptr %vfn, align 8
  %call3 = call noundef i32 %2(ptr noundef nonnull align 8 dereferenceable(48) %call2)
  %conv = zext i32 %call3 to i64
  %3 = load ptr, ptr %constant_count.addr, align 8
  store i64 %conv, ptr %3, align 8
  store i1 true, ptr %retval, align 1
  br label %return

return:                                           ; preds = %if.end, %if.then
  %4 = load i1, ptr %retval, align 1
  ret i1 %4
}

; Function Attrs: mustprogress uwtable
define hidden noundef i64 @_ZN7datalog7context22get_sort_size_estimateEP4sort(ptr noundef nonnull align 8 dereferenceable(3556) %this, ptr noundef %srt) #4 align 2 {
entry:
  %retval = alloca i64, align 8
  %this.addr = alloca ptr, align 8
  %srt.addr = alloca ptr, align 8
  %res = alloca i64, align 8
  %sz = alloca ptr, align 8
  store ptr %this, ptr %this.addr, align 8
  store ptr %srt, ptr %srt.addr, align 8
  %this1 = load ptr, ptr %this.addr, align 8
  %call = call noundef nonnull align 8 dereferenceable(28) ptr @_ZN7datalog7context13get_decl_utilEv(ptr noundef nonnull align 8 dereferenceable(3556) %this1)
  %0 = load ptr, ptr %srt.addr, align 8
  %call2 = call noundef zeroext i1 @_ZNK7datalog12dl_decl_util12is_rule_sortEP4sort(ptr noundef nonnull align 8 dereferenceable(28) %call, ptr noundef %0)
  br i1 %call2, label %if.then, label %if.end

if.then:                                          ; preds = %entry
  store i64 1, ptr %retval, align 8
  br label %return

if.end:                                           ; preds = %entry
  %1 = load ptr, ptr %srt.addr, align 8
  %call3 = call noundef zeroext i1 @_ZN7datalog7context27try_get_sort_constant_countEP4sortRm(ptr noundef nonnull align 8 dereferenceable(3556) %this1, ptr noundef %1, ptr noundef nonnull align 8 dereferenceable(8) %res)
  br i1 %call3, label %if.end11, label %if.then4

if.then4:                                         ; preds = %if.end
  %2 = load ptr, ptr %srt.addr, align 8
  %call5 = call noundef nonnull align 8 dereferenceable(16) ptr @_ZNK4sort16get_num_elementsEv(ptr noundef nonnull align 8 dereferenceable(32) %2)
  store ptr %call5, ptr %sz, align 8
  %3 = load ptr, ptr %sz, align 8
  %call6 = call noundef zeroext i1 @_ZNK9sort_size9is_finiteEv(ptr noundef nonnull align 8 dereferenceable(16) %3)
  br i1 %call6, label %if.then7, label %if.else

if.then7:                                         ; preds = %if.then4
  %4 = load ptr, ptr %sz, align 8
  %call8 = call noundef i64 @_ZNK9sort_size4sizeEv(ptr noundef nonnull align 8 dereferenceable(16) %4)
  store i64 %call8, ptr %res, align 8
  br label %if.end10

if.else:                                          ; preds = %if.then4
  %call9 = call noundef i64 @_ZNSt14numeric_limitsImE3maxEv() #3
  store i64 %call9, ptr %res, align 8
  br label %if.end10

if.end10:                                         ; preds = %if.else, %if.then7
  br label %if.end11

if.end11:                                         ; preds = %if.end10, %if.end
  %5 = load i64, ptr %res, align 8
  store i64 %5, ptr %retval, align 8
  br label %return

return:                                           ; preds = %if.end11, %if.then
  %6 = load i64, ptr %retval, align 8
  ret i64 %6
}

; Function Attrs: mustprogress nounwind uwtable
define linkonce_odr hidden noundef nonnull align 8 dereferenceable(28) ptr @_ZN7datalog7context13get_decl_utilEv(ptr noundef nonnull align 8 dereferenceable(3556) %this) #5 comdat align 2 {
entry:
  %this.addr = alloca ptr, align 8
  store ptr %this, ptr %this.addr, align 8
  %this1 = load ptr, ptr %this.addr, align 8
  %m_decl_util = getelementptr inbounds %"class.datalog::context", ptr %this1, i32 0, i32 9
  ret ptr %m_decl_util
}

; Function Attrs: mustprogress uwtable
define linkonce_odr hidden noundef zeroext i1 @_ZNK7datalog12dl_decl_util12is_rule_sortEP4sort(ptr noundef nonnull align 8 dereferenceable(28) %this, ptr noundef %s) #4 comdat align 2 {
entry:
  %this.addr = alloca ptr, align 8
  %s.addr = alloca ptr, align 8
  store ptr %this, ptr %this.addr, align 8
  store ptr %s, ptr %s.addr, align 8
  %this1 = load ptr, ptr %this.addr, align 8
  %0 = load ptr, ptr %s.addr, align 8
  %call = call noundef i32 @_ZNK7datalog12dl_decl_util13get_family_idEv(ptr noundef nonnull align 8 dereferenceable(28) %this1)
  %call2 = call noundef zeroext i1 @_Z10is_sort_ofPK4sortii(ptr noundef %0, i32 noundef %call, i32 noundef 2)
  ret i1 %call2
}

; Function Attrs: mustprogress uwtable
define linkonce_odr hidden noundef nonnull align 8 dereferenceable(16) ptr @_ZNK4sort16get_num_elementsEv(ptr noundef nonnull align 8 dereferenceable(32) %this) #4 comdat align 2 {
entry:
  %this.addr = alloca ptr, align 8
  store ptr %this, ptr %this.addr, align 8
  %this1 = load ptr, ptr %this.addr, align 8
  %call = call noundef ptr @_ZNK4sort8get_infoEv(ptr noundef nonnull align 8 dereferenceable(32) %this1)
  %call2 = call noundef nonnull align 8 dereferenceable(16) ptr @_ZNK9sort_info16get_num_elementsEv(ptr noundef nonnull align 8 dereferenceable(40) %call)
  ret ptr %call2
}

; Function Attrs: mustprogress nounwind uwtable
define linkonce_odr hidden noundef zeroext i1 @_ZNK9sort_size9is_finiteEv(ptr noundef nonnull align 8 dereferenceable(16) %this) #5 comdat align 2 {
entry:
  %this.addr = alloca ptr, align 8
  store ptr %this, ptr %this.addr, align 8
  %this1 = load ptr, ptr %this.addr, align 8
  %m_kind = getelementptr inbounds %class.sort_size, ptr %this1, i32 0, i32 0
  %0 = load i32, ptr %m_kind, align 8
  %cmp = icmp eq i32 %0, 0
  ret i1 %cmp
}

; Function Attrs: mustprogress nounwind uwtable
define linkonce_odr hidden noundef i64 @_ZNK9sort_size4sizeEv(ptr noundef nonnull align 8 dereferenceable(16) %this) #5 comdat align 2 {
entry:
  %this.addr = alloca ptr, align 8
  store ptr %this, ptr %this.addr, align 8
  %this1 = load ptr, ptr %this.addr, align 8
  %m_size = getelementptr inbounds %class.sort_size, ptr %this1, i32 0, i32 1
  %0 = load i64, ptr %m_size, align 8
  ret i64 %0
}

; Function Attrs: mustprogress nounwind uwtable
define linkonce_odr hidden noundef i64 @_ZNSt14numeric_limitsImE3maxEv() #5 comdat align 2 {
entry:
  ret i64 -1
}

; Function Attrs: mustprogress uwtable
define hidden void @_ZN7datalog7context18set_argument_namesEPK9func_declRK7svectorI6symboljE(ptr noundef nonnull align 8 dereferenceable(3556) %this, ptr noundef %pred, ptr noundef nonnull align 8 dereferenceable(8) %var_names) #4 align 2 {
entry:
  %this.addr = alloca ptr, align 8
  %pred.addr = alloca ptr, align 8
  %var_names.addr = alloca ptr, align 8
  store ptr %this, ptr %this.addr, align 8
  store ptr %pred, ptr %pred.addr, align 8
  store ptr %var_names, ptr %var_names.addr, align 8
  %this1 = load ptr, ptr %this.addr, align 8
  %m_argument_var_names = getelementptr inbounds %"class.datalog::context", ptr %this1, i32 0, i32 22
  %0 = load ptr, ptr %pred.addr, align 8
  %1 = load ptr, ptr %var_names.addr, align 8
  call void @_ZN7obj_mapIK9func_decl7svectorI6symboljEE6insertEPS1_RKS4_(ptr noundef nonnull align 8 dereferenceable(24) %m_argument_var_names, ptr noundef %0, ptr noundef nonnull align 8 dereferenceable(8) %1)
  ret void
}

; Function Attrs: mustprogress uwtable
define linkonce_odr hidden void @_ZN7obj_mapIK9func_decl7svectorI6symboljEE6insertEPS1_RKS4_(ptr noundef nonnull align 8 dereferenceable(24) %this, ptr noundef %k, ptr noundef nonnull align 8 dereferenceable(8) %v) #4 comdat align 2 personality ptr @__gxx_personality_v0 {
entry:
  %this.addr = alloca ptr, align 8
  %k.addr = alloca ptr, align 8
  %v.addr = alloca ptr, align 8
  %ref.tmp = alloca %"struct.obj_map<const func_decl, svector<symbol>>::key_data", align 8
  %exn.slot = alloca ptr, align 8
  %ehselector.slot = alloca i32, align 4
  store ptr %this, ptr %this.addr, align 8
  store ptr %k, ptr %k.addr, align 8
  store ptr %v, ptr %v.addr, align 8
  %this1 = load ptr, ptr %this.addr, align 8
  %m_table = getelementptr inbounds %class.obj_map.102, ptr %this1, i32 0, i32 0
  %0 = load ptr, ptr %k.addr, align 8
  %1 = load ptr, ptr %v.addr, align 8
  call void @_ZN7obj_mapIK9func_decl7svectorI6symboljEE8key_dataC2EPS1_RKS4_(ptr noundef nonnull align 8 dereferenceable(16) %ref.tmp, ptr noundef %0, ptr noundef nonnull align 8 dereferenceable(8) %1)
  invoke void @_ZN14core_hashtableIN7obj_mapIK9func_decl7svectorI6symboljEE13obj_map_entryE8obj_hashINS6_8key_dataEE10default_eqIS9_EE6insertEOS9_(ptr noundef nonnull align 8 dereferenceable(20) %m_table, ptr noundef nonnull align 8 dereferenceable(16) %ref.tmp)
          to label %invoke.cont unwind label %lpad

invoke.cont:                                      ; preds = %entry
  call void @_ZN7obj_mapIK9func_decl7svectorI6symboljEE8key_dataD2Ev(ptr noundef nonnull align 8 dereferenceable(16) %ref.tmp) #3
  ret void

lpad:                                             ; preds = %entry
  %2 = landingpad { ptr, i32 }
          cleanup
  %3 = extractvalue { ptr, i32 } %2, 0
  store ptr %3, ptr %exn.slot, align 8
  %4 = extractvalue { ptr, i32 } %2, 1
  store i32 %4, ptr %ehselector.slot, align 4
  call void @_ZN7obj_mapIK9func_decl7svectorI6symboljEE8key_dataD2Ev(ptr noundef nonnull align 8 dereferenceable(16) %ref.tmp) #3
  br label %eh.resume

eh.resume:                                        ; preds = %lpad
  %exn = load ptr, ptr %exn.slot, align 8
  %sel = load i32, ptr %ehselector.slot, align 4
  %lpad.val = insertvalue { ptr, i32 } poison, ptr %exn, 0
  %lpad.val2 = insertvalue { ptr, i32 } %lpad.val, i32 %sel, 1
  resume { ptr, i32 } %lpad.val2
}

; Function Attrs: mustprogress uwtable
define hidden ptr @_ZN7datalog7context17get_argument_nameEPK9func_declj(ptr noundef nonnull align 8 dereferenceable(3556) %this, ptr noundef %pred, i32 noundef %arg_index) #4 align 2 personality ptr @__gxx_personality_v0 {
entry:
  %retval = alloca %class.symbol, align 8
  %this.addr = alloca ptr, align 8
  %pred.addr = alloca ptr, align 8
  %arg_index.addr = alloca i32, align 4
  %e = alloca ptr, align 8
  %name_stm = alloca %"class.std::__cxx11::basic_stringstream", align 8
  %exn.slot = alloca ptr, align 8
  %ehselector.slot = alloca i32, align 4
  %ref.tmp = alloca %"class.std::__cxx11::basic_string", align 8
  store ptr %this, ptr %this.addr, align 8
  store ptr %pred, ptr %pred.addr, align 8
  store i32 %arg_index, ptr %arg_index.addr, align 4
  %this1 = load ptr, ptr %this.addr, align 8
  %m_argument_var_names = getelementptr inbounds %"class.datalog::context", ptr %this1, i32 0, i32 22
  %0 = load ptr, ptr %pred.addr, align 8
  %call = call noundef ptr @_ZNK7obj_mapIK9func_decl7svectorI6symboljEE9find_coreEPS1_(ptr noundef nonnull align 8 dereferenceable(24) %m_argument_var_names, ptr noundef %0)
  store ptr %call, ptr %e, align 8
  %1 = load ptr, ptr %e, align 8
  %tobool = icmp ne ptr %1, null
  br i1 %tobool, label %if.end, label %if.then

if.then:                                          ; preds = %entry
  call void @_ZNSt7__cxx1118basic_stringstreamIcSt11char_traitsIcESaIcEEC1Ev(ptr noundef nonnull align 8 dereferenceable(128) %name_stm)
  %add.ptr = getelementptr inbounds i8, ptr %name_stm, i64 16
  %call2 = invoke noundef nonnull align 8 dereferenceable(8) ptr @_ZStlsISt11char_traitsIcEERSt13basic_ostreamIcT_ES5_c(ptr noundef nonnull align 8 dereferenceable(8) %add.ptr, i8 noundef signext 35)
          to label %invoke.cont unwind label %lpad

invoke.cont:                                      ; preds = %if.then
  %2 = load i32, ptr %arg_index.addr, align 4
  %call4 = invoke noundef nonnull align 8 dereferenceable(8) ptr @_ZNSolsEj(ptr noundef nonnull align 8 dereferenceable(8) %call2, i32 noundef %2)
          to label %invoke.cont3 unwind label %lpad

invoke.cont3:                                     ; preds = %invoke.cont
  invoke void @_ZNKSt7__cxx1118basic_stringstreamIcSt11char_traitsIcESaIcEE3strEv(ptr sret(%"class.std::__cxx11::basic_string") align 8 %ref.tmp, ptr noundef nonnull align 8 dereferenceable(128) %name_stm)
          to label %invoke.cont5 unwind label %lpad

invoke.cont5:                                     ; preds = %invoke.cont3
  invoke void @_ZN6symbolC2ERKNSt7__cxx1112basic_stringIcSt11char_traitsIcESaIcEEE(ptr noundef nonnull align 8 dereferenceable(8) %retval, ptr noundef nonnull align 8 dereferenceable(32) %ref.tmp)
          to label %invoke.cont7 unwind label %lpad6

invoke.cont7:                                     ; preds = %invoke.cont5
  call void @_ZNSt7__cxx1112basic_stringIcSt11char_traitsIcESaIcEED1Ev(ptr noundef nonnull align 8 dereferenceable(32) %ref.tmp) #3
  call void @_ZNSt7__cxx1118basic_stringstreamIcSt11char_traitsIcESaIcEED1Ev(ptr noundef nonnull align 8 dereferenceable(128) %name_stm) #3
  br label %return

lpad:                                             ; preds = %invoke.cont3, %invoke.cont, %if.then
  %3 = landingpad { ptr, i32 }
          cleanup
  %4 = extractvalue { ptr, i32 } %3, 0
  store ptr %4, ptr %exn.slot, align 8
  %5 = extractvalue { ptr, i32 } %3, 1
  store i32 %5, ptr %ehselector.slot, align 4
  br label %ehcleanup

lpad6:                                            ; preds = %invoke.cont5
  %6 = landingpad { ptr, i32 }
          cleanup
  %7 = extractvalue { ptr, i32 } %6, 0
  store ptr %7, ptr %exn.slot, align 8
  %8 = extractvalue { ptr, i32 } %6, 1
  store i32 %8, ptr %ehselector.slot, align 4
  call void @_ZNSt7__cxx1112basic_stringIcSt11char_traitsIcESaIcEED1Ev(ptr noundef nonnull align 8 dereferenceable(32) %ref.tmp) #3
  br label %ehcleanup

ehcleanup:                                        ; preds = %lpad6, %lpad
  call void @_ZNSt7__cxx1118basic_stringstreamIcSt11char_traitsIcESaIcEED1Ev(ptr noundef nonnull align 8 dereferenceable(128) %name_stm) #3
  br label %eh.resume

if.end:                                           ; preds = %entry
  %9 = load ptr, ptr %e, align 8
  %call8 = call noundef nonnull align 8 dereferenceable(16) ptr @_ZN7obj_mapIK9func_decl7svectorI6symboljEE13obj_map_entry8get_dataEv(ptr noundef nonnull align 8 dereferenceable(16) %9)
  %m_value = getelementptr inbounds %"struct.obj_map<const func_decl, svector<symbol>>::key_data", ptr %call8, i32 0, i32 1
  %10 = load i32, ptr %arg_index.addr, align 4
  %call9 = call noundef nonnull align 8 dereferenceable(8) ptr @_ZN6vectorI6symbolLb0EjEixEj(ptr noundef nonnull align 8 dereferenceable(8) %m_value, i32 noundef %10)
  call void @llvm.memcpy.p0.p0.i64(ptr align 8 %retval, ptr align 8 %call9, i64 8, i1 false)
  br label %return

return:                                           ; preds = %if.end, %invoke.cont7
  %coerce.dive = getelementptr inbounds %class.symbol, ptr %retval, i32 0, i32 0
  %11 = load ptr, ptr %coerce.dive, align 8
  ret ptr %11

eh.resume:                                        ; preds = %ehcleanup
  %exn = load ptr, ptr %exn.slot, align 8
  %sel = load i32, ptr %ehselector.slot, align 4
  %lpad.val = insertvalue { ptr, i32 } poison, ptr %exn, 0
  %lpad.val10 = insertvalue { ptr, i32 } %lpad.val, i32 %sel, 1
  resume { ptr, i32 } %lpad.val10
}

; Function Attrs: mustprogress uwtable
define linkonce_odr hidden noundef ptr @_ZNK7obj_mapIK9func_decl7svectorI6symboljEE9find_coreEPS1_(ptr noundef nonnull align 8 dereferenceable(24) %this, ptr noundef %k) #4 comdat align 2 personality ptr @__gxx_personality_v0 {
entry:
  %this.addr = alloca ptr, align 8
  %k.addr = alloca ptr, align 8
  %ref.tmp = alloca %"struct.obj_map<const func_decl, svector<symbol>>::key_data", align 8
  %exn.slot = alloca ptr, align 8
  %ehselector.slot = alloca i32, align 4
  store ptr %this, ptr %this.addr, align 8
  store ptr %k, ptr %k.addr, align 8
  %this1 = load ptr, ptr %this.addr, align 8
  %m_table = getelementptr inbounds %class.obj_map.102, ptr %this1, i32 0, i32 0
  %0 = load ptr, ptr %k.addr, align 8
  call void @_ZN7obj_mapIK9func_decl7svectorI6symboljEE8key_dataC2EPS1_(ptr noundef nonnull align 8 dereferenceable(16) %ref.tmp, ptr noundef %0)
  %call = invoke noundef ptr @_ZNK14core_hashtableIN7obj_mapIK9func_decl7svectorI6symboljEE13obj_map_entryE8obj_hashINS6_8key_dataEE10default_eqIS9_EE9find_coreERKS9_(ptr noundef nonnull align 8 dereferenceable(20) %m_table, ptr noundef nonnull align 8 dereferenceable(16) %ref.tmp)
          to label %invoke.cont unwind label %lpad

invoke.cont:                                      ; preds = %entry
  call void @_ZN7obj_mapIK9func_decl7svectorI6symboljEE8key_dataD2Ev(ptr noundef nonnull align 8 dereferenceable(16) %ref.tmp) #3
  ret ptr %call

lpad:                                             ; preds = %entry
  %1 = landingpad { ptr, i32 }
          cleanup
  %2 = extractvalue { ptr, i32 } %1, 0
  store ptr %2, ptr %exn.slot, align 8
  %3 = extractvalue { ptr, i32 } %1, 1
  store i32 %3, ptr %ehselector.slot, align 4
  call void @_ZN7obj_mapIK9func_decl7svectorI6symboljEE8key_dataD2Ev(ptr noundef nonnull align 8 dereferenceable(16) %ref.tmp) #3
  br label %eh.resume

eh.resume:                                        ; preds = %lpad
  %exn = load ptr, ptr %exn.slot, align 8
  %sel = load i32, ptr %ehselector.slot, align 4
  %lpad.val = insertvalue { ptr, i32 } poison, ptr %exn, 0
  %lpad.val2 = insertvalue { ptr, i32 } %lpad.val, i32 %sel, 1
  resume { ptr, i32 } %lpad.val2
}

declare void @_ZNSt7__cxx1118basic_stringstreamIcSt11char_traitsIcESaIcEEC1Ev(ptr noundef nonnull align 8 dereferenceable(128)) unnamed_addr #1

declare noundef nonnull align 8 dereferenceable(8) ptr @_ZStlsISt11char_traitsIcEERSt13basic_ostreamIcT_ES5_c(ptr noundef nonnull align 8 dereferenceable(8), i8 noundef signext) #1

declare noundef nonnull align 8 dereferenceable(8) ptr @_ZNSolsEj(ptr noundef nonnull align 8 dereferenceable(8), i32 noundef) #1

declare void @_ZNKSt7__cxx1118basic_stringstreamIcSt11char_traitsIcESaIcEE3strEv(ptr sret(%"class.std::__cxx11::basic_string") align 8, ptr noundef nonnull align 8 dereferenceable(128)) #1

; Function Attrs: mustprogress uwtable
define linkonce_odr hidden void @_ZN6symbolC2ERKNSt7__cxx1112basic_stringIcSt11char_traitsIcESaIcEEE(ptr noundef nonnull align 8 dereferenceable(8) %this, ptr noundef nonnull align 8 dereferenceable(32) %str) unnamed_addr #4 comdat align 2 {
entry:
  %this.addr = alloca ptr, align 8
  %str.addr = alloca ptr, align 8
  store ptr %this, ptr %this.addr, align 8
  store ptr %str, ptr %str.addr, align 8
  %this1 = load ptr, ptr %this.addr, align 8
  %0 = load ptr, ptr %str.addr, align 8
  %call = call noundef ptr @_ZNKSt7__cxx1112basic_stringIcSt11char_traitsIcESaIcEE5c_strEv(ptr noundef nonnull align 8 dereferenceable(32) %0) #3
  call void @_ZN6symbolC2EPKc(ptr noundef nonnull align 8 dereferenceable(8) %this1, ptr noundef %call)
  ret void
}

; Function Attrs: nounwind
declare void @_ZNSt7__cxx1118basic_stringstreamIcSt11char_traitsIcESaIcEED1Ev(ptr noundef nonnull align 8 dereferenceable(128)) unnamed_addr #2

; Function Attrs: mustprogress nounwind uwtable
define linkonce_odr hidden noundef nonnull align 8 dereferenceable(16) ptr @_ZN7obj_mapIK9func_decl7svectorI6symboljEE13obj_map_entry8get_dataEv(ptr noundef nonnull align 8 dereferenceable(16) %this) #5 comdat align 2 {
entry:
  %this.addr = alloca ptr, align 8
  store ptr %this, ptr %this.addr, align 8
  %this1 = load ptr, ptr %this.addr, align 8
  %m_data = getelementptr inbounds %"class.obj_map<const func_decl, svector<symbol>>::obj_map_entry", ptr %this1, i32 0, i32 0
  ret ptr %m_data
}

; Function Attrs: mustprogress nounwind uwtable
define linkonce_odr hidden noundef nonnull align 8 dereferenceable(8) ptr @_ZN6vectorI6symbolLb0EjEixEj(ptr noundef nonnull align 8 dereferenceable(8) %this, i32 noundef %idx) #5 comdat align 2 {
entry:
  %this.addr = alloca ptr, align 8
  %idx.addr = alloca i32, align 4
  store ptr %this, ptr %this.addr, align 8
  store i32 %idx, ptr %idx.addr, align 4
  %this1 = load ptr, ptr %this.addr, align 8
  %m_data = getelementptr inbounds %class.vector.86, ptr %this1, i32 0, i32 0
  %0 = load ptr, ptr %m_data, align 8
  %1 = load i32, ptr %idx.addr, align 4
  %idxprom = zext i32 %1 to i64
  %arrayidx = getelementptr inbounds %class.symbol, ptr %0, i64 %idxprom
  ret ptr %arrayidx
}

; Function Attrs: mustprogress uwtable
define hidden void @_ZN7datalog7context28set_predicate_representationEP9func_decljPK6symbol(ptr noundef nonnull align 8 dereferenceable(3556) %this, ptr noundef %pred, i32 noundef %relation_name_cnt, ptr noundef %relation_names) #4 align 2 {
entry:
  %this.addr = alloca ptr, align 8
  %pred.addr = alloca ptr, align 8
  %relation_name_cnt.addr = alloca i32, align 4
  %relation_names.addr = alloca ptr, align 8
  store ptr %this, ptr %this.addr, align 8
  store ptr %pred, ptr %pred.addr, align 8
  store i32 %relation_name_cnt, ptr %relation_name_cnt.addr, align 4
  store ptr %relation_names, ptr %relation_names.addr, align 8
  %this1 = load ptr, ptr %this.addr, align 8
  %0 = load i32, ptr %relation_name_cnt.addr, align 4
  %cmp = icmp ugt i32 %0, 0
  br i1 %cmp, label %if.then, label %if.end

if.then:                                          ; preds = %entry
  call void @_ZN7datalog7context13ensure_engineEP4expr(ptr noundef nonnull align 8 dereferenceable(3556) %this1, ptr noundef null)
  br label %if.end

if.end:                                           ; preds = %if.then, %entry
  %1 = load i32, ptr %relation_name_cnt.addr, align 4
  %cmp2 = icmp ugt i32 %1, 0
  br i1 %cmp2, label %land.lhs.true, label %if.end5

land.lhs.true:                                    ; preds = %if.end
  %m_rel = getelementptr inbounds %"class.datalog::context", ptr %this1, i32 0, i32 34
  %2 = load ptr, ptr %m_rel, align 8
  %tobool = icmp ne ptr %2, null
  br i1 %tobool, label %if.then3, label %if.end5

if.then3:                                         ; preds = %land.lhs.true
  %m_rel4 = getelementptr inbounds %"class.datalog::context", ptr %this1, i32 0, i32 34
  %3 = load ptr, ptr %m_rel4, align 8
  %4 = load ptr, ptr %pred.addr, align 8
  %5 = load i32, ptr %relation_name_cnt.addr, align 4
  %6 = load ptr, ptr %relation_names.addr, align 8
  %vtable = load ptr, ptr %3, align 8
  %vfn = getelementptr inbounds ptr, ptr %vtable, i64 39
  %7 = load ptr, ptr %vfn, align 8
  call void %7(ptr noundef nonnull align 8 dereferenceable(48) %3, ptr noundef %4, i32 noundef %5, ptr noundef %6)
  br label %if.end5

if.end5:                                          ; preds = %if.then3, %land.lhs.true, %if.end
  ret void
}

; Function Attrs: mustprogress uwtable
define hidden void @_ZN7datalog7context13ensure_engineEP4expr(ptr noundef nonnull align 8 dereferenceable(3556) %this, ptr noundef %e) #4 align 2 {
entry:
  %this.addr = alloca ptr, align 8
  %e.addr = alloca ptr, align 8
  store ptr %this, ptr %this.addr, align 8
  store ptr %e, ptr %e.addr, align 8
  %this1 = load ptr, ptr %this.addr, align 8
  %m_engine = getelementptr inbounds %"class.datalog::context", ptr %this1, i32 0, i32 35
  %call = call noundef ptr @_ZNK10scoped_ptrIN7datalog11engine_baseEE3getEv(ptr noundef nonnull align 8 dereferenceable(8) %m_engine)
  %tobool = icmp ne ptr %call, null
  br i1 %tobool, label %if.end14, label %if.then

if.then:                                          ; preds = %entry
  %m_register_engine = getelementptr inbounds %"class.datalog::context", ptr %this1, i32 0, i32 1
  %0 = load ptr, ptr %m_register_engine, align 8
  %1 = load ptr, ptr %e.addr, align 8
  %call2 = call noundef i32 @_ZN7datalog7context10get_engineEP4expr(ptr noundef nonnull align 8 dereferenceable(3556) %this1, ptr noundef %1)
  %vtable = load ptr, ptr %0, align 8
  %vfn = getelementptr inbounds ptr, ptr %vtable, i64 2
  %2 = load ptr, ptr %vfn, align 8
  %call3 = call noundef ptr %2(ptr noundef nonnull align 8 dereferenceable(8) %0, i32 noundef %call2)
  %m_engine4 = getelementptr inbounds %"class.datalog::context", ptr %this1, i32 0, i32 35
  %call5 = call noundef nonnull align 8 dereferenceable(8) ptr @_ZN10scoped_ptrIN7datalog11engine_baseEEaSEPS1_(ptr noundef nonnull align 8 dereferenceable(8) %m_engine4, ptr noundef %call3)
  %m_engine6 = getelementptr inbounds %"class.datalog::context", ptr %this1, i32 0, i32 35
  %call7 = call noundef ptr @_ZNK10scoped_ptrIN7datalog11engine_baseEEptEv(ptr noundef nonnull align 8 dereferenceable(8) %m_engine6)
  %vtable8 = load ptr, ptr %call7, align 8
  %vfn9 = getelementptr inbounds ptr, ptr %vtable8, i64 21
  %3 = load ptr, ptr %vfn9, align 8
  call void %3(ptr noundef nonnull align 8 dereferenceable(48) %call7)
  %call10 = call noundef i32 @_ZN7datalog7context10get_engineEP4expr(ptr noundef nonnull align 8 dereferenceable(3556) %this1, ptr noundef null)
  %cmp = icmp eq i32 %call10, 0
  br i1 %cmp, label %if.then11, label %if.end

if.then11:                                        ; preds = %if.then
  %m_engine12 = getelementptr inbounds %"class.datalog::context", ptr %this1, i32 0, i32 35
  %call13 = call noundef ptr @_ZNK10scoped_ptrIN7datalog11engine_baseEE3getEv(ptr noundef nonnull align 8 dereferenceable(8) %m_engine12)
  %4 = icmp eq ptr %call13, null
  br i1 %4, label %dynamic_cast.null, label %dynamic_cast.notnull

dynamic_cast.notnull:                             ; preds = %if.then11
  %5 = call ptr @__dynamic_cast(ptr %call13, ptr @_ZTIN7datalog11engine_baseE, ptr @_ZTIN7datalog16rel_context_baseE, i64 0) #3
  br label %dynamic_cast.end

dynamic_cast.null:                                ; preds = %if.then11
  br label %dynamic_cast.end

dynamic_cast.end:                                 ; preds = %dynamic_cast.null, %dynamic_cast.notnull
  %6 = phi ptr [ %5, %dynamic_cast.notnull ], [ null, %dynamic_cast.null ]
  %m_rel = getelementptr inbounds %"class.datalog::context", ptr %this1, i32 0, i32 34
  store ptr %6, ptr %m_rel, align 8
  br label %if.end

if.end:                                           ; preds = %dynamic_cast.end, %if.then
  br label %if.end14

if.end14:                                         ; preds = %if.end, %entry
  ret void
}

; Function Attrs: mustprogress uwtable
define hidden noundef ptr @_ZN7datalog7context23mk_fresh_head_predicateERK6symbolS3_jPKP4sortP9func_decl(ptr noundef nonnull align 8 dereferenceable(3556) %this, ptr noundef nonnull align 8 dereferenceable(8) %prefix, ptr noundef nonnull align 8 dereferenceable(8) %suffix, i32 noundef %arity, ptr noundef %domain, ptr noundef %orig_pred) #4 align 2 {
entry:
  %this.addr = alloca ptr, align 8
  %prefix.addr = alloca ptr, align 8
  %suffix.addr = alloca ptr, align 8
  %arity.addr = alloca i32, align 4
  %domain.addr = alloca ptr, align 8
  %orig_pred.addr = alloca ptr, align 8
  %new_pred = alloca ptr, align 8
  store ptr %this, ptr %this.addr, align 8
  store ptr %prefix, ptr %prefix.addr, align 8
  store ptr %suffix, ptr %suffix.addr, align 8
  store i32 %arity, ptr %arity.addr, align 4
  store ptr %domain, ptr %domain.addr, align 8
  store ptr %orig_pred, ptr %orig_pred.addr, align 8
  %this1 = load ptr, ptr %this.addr, align 8
  %m = getelementptr inbounds %"class.datalog::context", ptr %this1, i32 0, i32 0
  %0 = load ptr, ptr %m, align 8
  %1 = load ptr, ptr %prefix.addr, align 8
  %2 = load ptr, ptr %suffix.addr, align 8
  %3 = load i32, ptr %arity.addr, align 4
  %4 = load ptr, ptr %domain.addr, align 8
  %m2 = getelementptr inbounds %"class.datalog::context", ptr %this1, i32 0, i32 0
  %5 = load ptr, ptr %m2, align 8
  %call = call noundef ptr @_ZNK11ast_manager12mk_bool_sortEv(ptr noundef nonnull align 8 dereferenceable(976) %5)
  %call3 = call noundef ptr @_ZN11ast_manager18mk_fresh_func_declERK6symbolS2_jPKP4sortS4_b(ptr noundef nonnull align 8 dereferenceable(976) %0, ptr noundef nonnull align 8 dereferenceable(8) %1, ptr noundef nonnull align 8 dereferenceable(8) %2, i32 noundef %3, ptr noundef %4, ptr noundef %call, i1 noundef zeroext true)
  store ptr %call3, ptr %new_pred, align 8
  %6 = load ptr, ptr %new_pred, align 8
  call void @_ZN7datalog7context18register_predicateEP9func_declb(ptr noundef nonnull align 8 dereferenceable(3556) %this1, ptr noundef %6, i1 noundef zeroext true)
  %m_rel = getelementptr inbounds %"class.datalog::context", ptr %this1, i32 0, i32 34
  %7 = load ptr, ptr %m_rel, align 8
  %tobool = icmp ne ptr %7, null
  br i1 %tobool, label %if.then, label %if.end

if.then:                                          ; preds = %entry
  %m_rel4 = getelementptr inbounds %"class.datalog::context", ptr %this1, i32 0, i32 34
  %8 = load ptr, ptr %m_rel4, align 8
  %9 = load ptr, ptr %new_pred, align 8
  %10 = load ptr, ptr %orig_pred.addr, align 8
  %vtable = load ptr, ptr %8, align 8
  %vfn = getelementptr inbounds ptr, ptr %vtable, i64 38
  %11 = load ptr, ptr %vfn, align 8
  call void %11(ptr noundef nonnull align 8 dereferenceable(48) %8, ptr noundef %9, ptr noundef %10)
  br label %if.end

if.end:                                           ; preds = %if.then, %entry
  %12 = load ptr, ptr %new_pred, align 8
  ret ptr %12
}

declare noundef ptr @_ZN11ast_manager18mk_fresh_func_declERK6symbolS2_jPKP4sortS4_b(ptr noundef nonnull align 8 dereferenceable(976), ptr noundef nonnull align 8 dereferenceable(8), ptr noundef nonnull align 8 dereferenceable(8), i32 noundef, ptr noundef, ptr noundef, i1 noundef zeroext) #1

; Function Attrs: mustprogress nounwind uwtable
define linkonce_odr hidden noundef ptr @_ZNK11ast_manager12mk_bool_sortEv(ptr noundef nonnull align 8 dereferenceable(976) %this) #5 comdat align 2 {
entry:
  %this.addr = alloca ptr, align 8
  store ptr %this, ptr %this.addr, align 8
  %this1 = load ptr, ptr %this.addr, align 8
  %m_bool_sort = getelementptr inbounds %class.ast_manager, ptr %this1, i32 0, i32 13
  %0 = load ptr, ptr %m_bool_sort, align 8
  ret ptr %0
}

; Function Attrs: mustprogress uwtable
define hidden void @_ZN7datalog7context8add_ruleEP4exprRK6symbolj(ptr noundef nonnull align 8 dereferenceable(3556) %this, ptr noundef %rl, ptr noundef nonnull align 8 dereferenceable(8) %name, i32 noundef %bound) #4 align 2 {
entry:
  %this.addr = alloca ptr, align 8
  %rl.addr = alloca ptr, align 8
  %name.addr = alloca ptr, align 8
  %bound.addr = alloca i32, align 4
  store ptr %this, ptr %this.addr, align 8
  store ptr %rl, ptr %rl.addr, align 8
  store ptr %name, ptr %name.addr, align 8
  store i32 %bound, ptr %bound.addr, align 4
  %this1 = load ptr, ptr %this.addr, align 8
  %m_rule_fmls = getelementptr inbounds %"class.datalog::context", ptr %this1, i32 0, i32 28
  %0 = load ptr, ptr %rl.addr, align 8
  %call = call noundef nonnull align 8 dereferenceable(16) ptr @_ZN15ref_vector_coreI4expr19ref_manager_wrapperIS0_11ast_managerEE9push_backEPS0_(ptr noundef nonnull align 8 dereferenceable(16) %m_rule_fmls, ptr noundef %0)
  %m_rule_names = getelementptr inbounds %"class.datalog::context", ptr %this1, i32 0, i32 29
  %1 = load ptr, ptr %name.addr, align 8
  %call2 = call noundef nonnull align 8 dereferenceable(8) ptr @_ZN6vectorI6symbolLb0EjE9push_backERKS0_(ptr noundef nonnull align 8 dereferenceable(8) %m_rule_names, ptr noundef nonnull align 8 dereferenceable(8) %1)
  %m_rule_bounds = getelementptr inbounds %"class.datalog::context", ptr %this1, i32 0, i32 30
  %call3 = call noundef nonnull align 8 dereferenceable(8) ptr @_ZN6vectorIjLb1EjE9push_backERKj(ptr noundef nonnull align 8 dereferenceable(8) %m_rule_bounds, ptr noundef nonnull align 4 dereferenceable(4) %bound.addr)
  ret void
}

; Function Attrs: mustprogress uwtable
define linkonce_odr hidden noundef nonnull align 8 dereferenceable(16) ptr @_ZN15ref_vector_coreI4expr19ref_manager_wrapperIS0_11ast_managerEE9push_backEPS0_(ptr noundef nonnull align 8 dereferenceable(16) %this, ptr noundef %n) #4 comdat align 2 {
entry:
  %this.addr = alloca ptr, align 8
  %n.addr = alloca ptr, align 8
  store ptr %this, ptr %this.addr, align 8
  store ptr %n, ptr %n.addr, align 8
  %this1 = load ptr, ptr %this.addr, align 8
  %0 = load ptr, ptr %n.addr, align 8
  call void @_ZN15ref_vector_coreI4expr19ref_manager_wrapperIS0_11ast_managerEE7inc_refEPS0_(ptr noundef nonnull align 8 dereferenceable(16) %this1, ptr noundef %0)
  %m_nodes = getelementptr inbounds %class.ref_vector_core, ptr %this1, i32 0, i32 1
  %call = call noundef nonnull align 8 dereferenceable(8) ptr @_ZN6vectorIP4exprLb0EjE9push_backERKS1_(ptr noundef nonnull align 8 dereferenceable(8) %m_nodes, ptr noundef nonnull align 8 dereferenceable(8) %n.addr)
  ret ptr %this1
}

; Function Attrs: mustprogress uwtable
define linkonce_odr hidden noundef nonnull align 8 dereferenceable(8) ptr @_ZN6vectorI6symbolLb0EjE9push_backERKS0_(ptr noundef nonnull align 8 dereferenceable(8) %this, ptr noundef nonnull align 8 dereferenceable(8) %elem) #4 comdat align 2 {
entry:
  %this.addr = alloca ptr, align 8
  %elem.addr = alloca ptr, align 8
  store ptr %this, ptr %this.addr, align 8
  store ptr %elem, ptr %elem.addr, align 8
  %this1 = load ptr, ptr %this.addr, align 8
  %m_data = getelementptr inbounds %class.vector.86, ptr %this1, i32 0, i32 0
  %0 = load ptr, ptr %m_data, align 8
  %cmp = icmp eq ptr %0, null
  br i1 %cmp, label %if.then, label %lor.lhs.false

lor.lhs.false:                                    ; preds = %entry
  %m_data2 = getelementptr inbounds %class.vector.86, ptr %this1, i32 0, i32 0
  %1 = load ptr, ptr %m_data2, align 8
  %arrayidx = getelementptr inbounds i32, ptr %1, i64 -1
  %2 = load i32, ptr %arrayidx, align 4
  %m_data3 = getelementptr inbounds %class.vector.86, ptr %this1, i32 0, i32 0
  %3 = load ptr, ptr %m_data3, align 8
  %arrayidx4 = getelementptr inbounds i32, ptr %3, i64 -2
  %4 = load i32, ptr %arrayidx4, align 4
  %cmp5 = icmp eq i32 %2, %4
  br i1 %cmp5, label %if.then, label %if.end

if.then:                                          ; preds = %lor.lhs.false, %entry
  call void @_ZN6vectorI6symbolLb0EjE13expand_vectorEv(ptr noundef nonnull align 8 dereferenceable(8) %this1)
  br label %if.end

if.end:                                           ; preds = %if.then, %lor.lhs.false
  %m_data6 = getelementptr inbounds %class.vector.86, ptr %this1, i32 0, i32 0
  %5 = load ptr, ptr %m_data6, align 8
  %m_data7 = getelementptr inbounds %class.vector.86, ptr %this1, i32 0, i32 0
  %6 = load ptr, ptr %m_data7, align 8
  %arrayidx8 = getelementptr inbounds i32, ptr %6, i64 -1
  %7 = load i32, ptr %arrayidx8, align 4
  %idx.ext = zext i32 %7 to i64
  %add.ptr = getelementptr inbounds %class.symbol, ptr %5, i64 %idx.ext
  %8 = load ptr, ptr %elem.addr, align 8
  call void @llvm.memcpy.p0.p0.i64(ptr align 8 %add.ptr, ptr align 8 %8, i64 8, i1 false)
  %m_data9 = getelementptr inbounds %class.vector.86, ptr %this1, i32 0, i32 0
  %9 = load ptr, ptr %m_data9, align 8
  %arrayidx10 = getelementptr inbounds i32, ptr %9, i64 -1
  %10 = load i32, ptr %arrayidx10, align 4
  %inc = add i32 %10, 1
  store i32 %inc, ptr %arrayidx10, align 4
  ret ptr %this1
}

; Function Attrs: mustprogress uwtable
define linkonce_odr hidden noundef nonnull align 8 dereferenceable(8) ptr @_ZN6vectorIjLb1EjE9push_backERKj(ptr noundef nonnull align 8 dereferenceable(8) %this, ptr noundef nonnull align 4 dereferenceable(4) %elem) #4 comdat align 2 {
entry:
  %this.addr = alloca ptr, align 8
  %elem.addr = alloca ptr, align 8
  store ptr %this, ptr %this.addr, align 8
  store ptr %elem, ptr %elem.addr, align 8
  %this1 = load ptr, ptr %this.addr, align 8
  %m_data = getelementptr inbounds %class.vector.126, ptr %this1, i32 0, i32 0
  %0 = load ptr, ptr %m_data, align 8
  %cmp = icmp eq ptr %0, null
  br i1 %cmp, label %if.then, label %lor.lhs.false

lor.lhs.false:                                    ; preds = %entry
  %m_data2 = getelementptr inbounds %class.vector.126, ptr %this1, i32 0, i32 0
  %1 = load ptr, ptr %m_data2, align 8
  %arrayidx = getelementptr inbounds i32, ptr %1, i64 -1
  %2 = load i32, ptr %arrayidx, align 4
  %m_data3 = getelementptr inbounds %class.vector.126, ptr %this1, i32 0, i32 0
  %3 = load ptr, ptr %m_data3, align 8
  %arrayidx4 = getelementptr inbounds i32, ptr %3, i64 -2
  %4 = load i32, ptr %arrayidx4, align 4
  %cmp5 = icmp eq i32 %2, %4
  br i1 %cmp5, label %if.then, label %if.end

if.then:                                          ; preds = %lor.lhs.false, %entry
  call void @_ZN6vectorIjLb1EjE13expand_vectorEv(ptr noundef nonnull align 8 dereferenceable(8) %this1)
  br label %if.end

if.end:                                           ; preds = %if.then, %lor.lhs.false
  %m_data6 = getelementptr inbounds %class.vector.126, ptr %this1, i32 0, i32 0
  %5 = load ptr, ptr %m_data6, align 8
  %m_data7 = getelementptr inbounds %class.vector.126, ptr %this1, i32 0, i32 0
  %6 = load ptr, ptr %m_data7, align 8
  %arrayidx8 = getelementptr inbounds i32, ptr %6, i64 -1
  %7 = load i32, ptr %arrayidx8, align 4
  %idx.ext = zext i32 %7 to i64
  %add.ptr = getelementptr inbounds i32, ptr %5, i64 %idx.ext
  %8 = load ptr, ptr %elem.addr, align 8
  %9 = load i32, ptr %8, align 4
  store i32 %9, ptr %add.ptr, align 4
  %m_data9 = getelementptr inbounds %class.vector.126, ptr %this1, i32 0, i32 0
  %10 = load ptr, ptr %m_data9, align 8
  %arrayidx10 = getelementptr inbounds i32, ptr %10, i64 -1
  %11 = load i32, ptr %arrayidx10, align 4
  %inc = add i32 %11, 1
  store i32 %inc, ptr %arrayidx10, align 4
  ret ptr %this1
}

; Function Attrs: mustprogress uwtable
define hidden void @_ZN7datalog7context15flush_add_rulesEv(ptr noundef nonnull align 8 dereferenceable(3556) %this) #4 align 2 personality ptr @__gxx_personality_v0 {
entry:
  %this.addr = alloca ptr, align 8
  %rm = alloca ptr, align 8
  %_scp = alloca %class.scoped_proof_mode, align 8
  %exn.slot = alloca ptr, align 8
  %ehselector.slot = alloca i32, align 4
  %fml = alloca ptr, align 8
  %ref.tmp = alloca %"class.ref_vector<expr, ast_manager>::element_ref", align 8
  %p = alloca ptr, align 8
  store ptr %this, ptr %this.addr, align 8
  %this1 = load ptr, ptr %this.addr, align 8
  %call = call noundef nonnull align 8 dereferenceable(1368) ptr @_ZN7datalog7context16get_rule_managerEv(ptr noundef nonnull align 8 dereferenceable(3556) %this1)
  store ptr %call, ptr %rm, align 8
  %m = getelementptr inbounds %"class.datalog::context", ptr %this1, i32 0, i32 0
  %0 = load ptr, ptr %m, align 8
  %call2 = call noundef zeroext i1 @_ZNK7datalog7context20generate_proof_traceEv(ptr noundef nonnull align 8 dereferenceable(3556) %this1)
  %cond = select i1 %call2, i32 1, i32 0
  call void @_ZN17scoped_proof_modeC2ER11ast_manager14proof_gen_mode(ptr noundef nonnull align 8 dereferenceable(12) %_scp, ptr noundef nonnull align 8 dereferenceable(976) %0, i32 noundef %cond)
  br label %while.cond

while.cond:                                       ; preds = %invoke.cont18, %entry
  %m_rule_fmls_head = getelementptr inbounds %"class.datalog::context", ptr %this1, i32 0, i32 26
  %1 = load i32, ptr %m_rule_fmls_head, align 8
  %m_rule_fmls = getelementptr inbounds %"class.datalog::context", ptr %this1, i32 0, i32 28
  %call3 = invoke noundef i32 @_ZNK15ref_vector_coreI4expr19ref_manager_wrapperIS0_11ast_managerEE4sizeEv(ptr noundef nonnull align 8 dereferenceable(16) %m_rule_fmls)
          to label %invoke.cont unwind label %lpad

invoke.cont:                                      ; preds = %while.cond
  %cmp = icmp ult i32 %1, %call3
  br i1 %cmp, label %while.body, label %while.end

while.body:                                       ; preds = %invoke.cont
  %m_rule_fmls4 = getelementptr inbounds %"class.datalog::context", ptr %this1, i32 0, i32 28
  %m_rule_fmls_head5 = getelementptr inbounds %"class.datalog::context", ptr %this1, i32 0, i32 26
  %2 = load i32, ptr %m_rule_fmls_head5, align 8
  %call7 = invoke { ptr, ptr } @_ZN10ref_vectorI4expr11ast_managerEixEj(ptr noundef nonnull align 8 dereferenceable(16) %m_rule_fmls4, i32 noundef %2)
          to label %invoke.cont6 unwind label %lpad

invoke.cont6:                                     ; preds = %while.body
  %3 = getelementptr inbounds { ptr, ptr }, ptr %ref.tmp, i32 0, i32 0
  %4 = extractvalue { ptr, ptr } %call7, 0
  store ptr %4, ptr %3, align 8
  %5 = getelementptr inbounds { ptr, ptr }, ptr %ref.tmp, i32 0, i32 1
  %6 = extractvalue { ptr, ptr } %call7, 1
  store ptr %6, ptr %5, align 8
  %call9 = invoke noundef ptr @_ZNK10ref_vectorI4expr11ast_managerE11element_ref3getEv(ptr noundef nonnull align 8 dereferenceable(16) %ref.tmp)
          to label %invoke.cont8 unwind label %lpad

invoke.cont8:                                     ; preds = %invoke.cont6
  store ptr %call9, ptr %fml, align 8
  %call10 = call noundef zeroext i1 @_ZNK7datalog7context20generate_proof_traceEv(ptr noundef nonnull align 8 dereferenceable(3556) %this1)
  br i1 %call10, label %cond.true, label %cond.false

cond.true:                                        ; preds = %invoke.cont8
  %m11 = getelementptr inbounds %"class.datalog::context", ptr %this1, i32 0, i32 0
  %7 = load ptr, ptr %m11, align 8
  %8 = load ptr, ptr %fml, align 8
  %call13 = invoke noundef ptr @_ZN11ast_manager11mk_assertedEP4expr(ptr noundef nonnull align 8 dereferenceable(976) %7, ptr noundef %8)
          to label %invoke.cont12 unwind label %lpad

invoke.cont12:                                    ; preds = %cond.true
  br label %cond.end

cond.false:                                       ; preds = %invoke.cont8
  br label %cond.end

cond.end:                                         ; preds = %cond.false, %invoke.cont12
  %cond14 = phi ptr [ %call13, %invoke.cont12 ], [ null, %cond.false ]
  store ptr %cond14, ptr %p, align 8
  %9 = load ptr, ptr %rm, align 8
  %10 = load ptr, ptr %fml, align 8
  %11 = load ptr, ptr %p, align 8
  %m_rule_set = getelementptr inbounds %"class.datalog::context", ptr %this1, i32 0, i32 23
  %m_rule_names = getelementptr inbounds %"class.datalog::context", ptr %this1, i32 0, i32 29
  %m_rule_fmls_head15 = getelementptr inbounds %"class.datalog::context", ptr %this1, i32 0, i32 26
  %12 = load i32, ptr %m_rule_fmls_head15, align 8
  %call17 = invoke noundef nonnull align 8 dereferenceable(8) ptr @_ZN6vectorI6symbolLb0EjEixEj(ptr noundef nonnull align 8 dereferenceable(8) %m_rule_names, i32 noundef %12)
          to label %invoke.cont16 unwind label %lpad

invoke.cont16:                                    ; preds = %cond.end
  invoke void @_ZN7datalog12rule_manager7mk_ruleEP4exprP3appRNS_8rule_setERK6symbol(ptr noundef nonnull align 8 dereferenceable(1368) %9, ptr noundef %10, ptr noundef %11, ptr noundef nonnull align 8 dereferenceable(248) %m_rule_set, ptr noundef nonnull align 8 dereferenceable(8) %call17)
          to label %invoke.cont18 unwind label %lpad

invoke.cont18:                                    ; preds = %invoke.cont16
  %m_rule_fmls_head19 = getelementptr inbounds %"class.datalog::context", ptr %this1, i32 0, i32 26
  %13 = load i32, ptr %m_rule_fmls_head19, align 8
  %inc = add i32 %13, 1
  store i32 %inc, ptr %m_rule_fmls_head19, align 8
  br label %while.cond, !llvm.loop !6

lpad:                                             ; preds = %while.end, %invoke.cont16, %cond.end, %cond.true, %invoke.cont6, %while.body, %while.cond
  %14 = landingpad { ptr, i32 }
          cleanup
  %15 = extractvalue { ptr, i32 } %14, 0
  store ptr %15, ptr %exn.slot, align 8
  %16 = extractvalue { ptr, i32 } %14, 1
  store i32 %16, ptr %ehselector.slot, align 4
  call void @_ZN17scoped_proof_modeD2Ev(ptr noundef nonnull align 8 dereferenceable(12) %_scp) #3
  br label %eh.resume

while.end:                                        ; preds = %invoke.cont
  %m_rule_set20 = getelementptr inbounds %"class.datalog::context", ptr %this1, i32 0, i32 23
  invoke void @_ZN7datalog7context11check_rulesERNS_8rule_setE(ptr noundef nonnull align 8 dereferenceable(3556) %this1, ptr noundef nonnull align 8 dereferenceable(248) %m_rule_set20)
          to label %invoke.cont21 unwind label %lpad

invoke.cont21:                                    ; preds = %while.end
  call void @_ZN17scoped_proof_modeD2Ev(ptr noundef nonnull align 8 dereferenceable(12) %_scp) #3
  ret void

eh.resume:                                        ; preds = %lpad
  %exn = load ptr, ptr %exn.slot, align 8
  %sel = load i32, ptr %ehselector.slot, align 4
  %lpad.val = insertvalue { ptr, i32 } poison, ptr %exn, 0
  %lpad.val22 = insertvalue { ptr, i32 } %lpad.val, i32 %sel, 1
  resume { ptr, i32 } %lpad.val22
}

; Function Attrs: mustprogress nounwind uwtable
define linkonce_odr hidden noundef nonnull align 8 dereferenceable(1368) ptr @_ZN7datalog7context16get_rule_managerEv(ptr noundef nonnull align 8 dereferenceable(3556) %this) #5 comdat align 2 {
entry:
  %this.addr = alloca ptr, align 8
  store ptr %this, ptr %this.addr, align 8
  %this1 = load ptr, ptr %this.addr, align 8
  %m_rule_manager = getelementptr inbounds %"class.datalog::context", ptr %this1, i32 0, i32 12
  ret ptr %m_rule_manager
}

; Function Attrs: mustprogress uwtable
define linkonce_odr hidden void @_ZN17scoped_proof_modeC2ER11ast_manager14proof_gen_mode(ptr noundef nonnull align 8 dereferenceable(12) %this, ptr noundef nonnull align 8 dereferenceable(976) %m, i32 noundef %mode) unnamed_addr #4 comdat align 2 {
entry:
  %this.addr = alloca ptr, align 8
  %m.addr = alloca ptr, align 8
  %mode.addr = alloca i32, align 4
  store ptr %this, ptr %this.addr, align 8
  store ptr %m, ptr %m.addr, align 8
  store i32 %mode, ptr %mode.addr, align 4
  %this1 = load ptr, ptr %this.addr, align 8
  %m2 = getelementptr inbounds %class.scoped_proof_mode, ptr %this1, i32 0, i32 0
  %0 = load ptr, ptr %m.addr, align 8
  store ptr %0, ptr %m2, align 8
  %1 = load ptr, ptr %m.addr, align 8
  %call = call noundef i32 @_ZNK11ast_manager10proof_modeEv(ptr noundef nonnull align 8 dereferenceable(976) %1)
  %m_mode = getelementptr inbounds %class.scoped_proof_mode, ptr %this1, i32 0, i32 1
  store i32 %call, ptr %m_mode, align 8
  %2 = load ptr, ptr %m.addr, align 8
  %3 = load i32, ptr %mode.addr, align 4
  call void @_ZN11ast_manager17toggle_proof_modeE14proof_gen_mode(ptr noundef nonnull align 8 dereferenceable(976) %2, i32 noundef %3)
  ret void
}

; Function Attrs: mustprogress nounwind uwtable
define linkonce_odr hidden noundef i32 @_ZNK15ref_vector_coreI4expr19ref_manager_wrapperIS0_11ast_managerEE4sizeEv(ptr noundef nonnull align 8 dereferenceable(16) %this) #5 comdat align 2 {
entry:
  %this.addr = alloca ptr, align 8
  store ptr %this, ptr %this.addr, align 8
  %this1 = load ptr, ptr %this.addr, align 8
  %m_nodes = getelementptr inbounds %class.ref_vector_core, ptr %this1, i32 0, i32 1
  %call = call noundef i32 @_ZNK6vectorIP4exprLb0EjE4sizeEv(ptr noundef nonnull align 8 dereferenceable(8) %m_nodes)
  ret i32 %call
}

; Function Attrs: mustprogress uwtable
define linkonce_odr hidden { ptr, ptr } @_ZN10ref_vectorI4expr11ast_managerEixEj(ptr noundef nonnull align 8 dereferenceable(16) %this, i32 noundef %idx) #4 comdat align 2 {
entry:
  %retval = alloca %"class.ref_vector<expr, ast_manager>::element_ref", align 8
  %this.addr = alloca ptr, align 8
  %idx.addr = alloca i32, align 4
  store ptr %this, ptr %this.addr, align 8
  store i32 %idx, ptr %idx.addr, align 4
  %this1 = load ptr, ptr %this.addr, align 8
  %m_nodes = getelementptr inbounds %class.ref_vector_core, ptr %this1, i32 0, i32 1
  %0 = load i32, ptr %idx.addr, align 4
  %call = call noundef nonnull align 8 dereferenceable(8) ptr @_ZN6vectorIP4exprLb0EjEixEj(ptr noundef nonnull align 8 dereferenceable(8) %m_nodes, i32 noundef %0)
  %m_manager = getelementptr inbounds %class.ref_manager_wrapper, ptr %this1, i32 0, i32 0
  %1 = load ptr, ptr %m_manager, align 8
  call void @_ZN10ref_vectorI4expr11ast_managerE11element_refC2ERPS0_RS1_(ptr noundef nonnull align 8 dereferenceable(16) %retval, ptr noundef nonnull align 8 dereferenceable(8) %call, ptr noundef nonnull align 8 dereferenceable(976) %1)
  %2 = load { ptr, ptr }, ptr %retval, align 8
  ret { ptr, ptr } %2
}

; Function Attrs: mustprogress nounwind uwtable
define linkonce_odr hidden noundef ptr @_ZNK10ref_vectorI4expr11ast_managerE11element_ref3getEv(ptr noundef nonnull align 8 dereferenceable(16) %this) #5 comdat align 2 {
entry:
  %this.addr = alloca ptr, align 8
  store ptr %this, ptr %this.addr, align 8
  %this1 = load ptr, ptr %this.addr, align 8
  %m_ref = getelementptr inbounds %"class.ref_vector<expr, ast_manager>::element_ref", ptr %this1, i32 0, i32 0
  %0 = load ptr, ptr %m_ref, align 8
  %1 = load ptr, ptr %0, align 8
  ret ptr %1
}

declare noundef ptr @_ZN11ast_manager11mk_assertedEP4expr(ptr noundef nonnull align 8 dereferenceable(976), ptr noundef) #1

declare void @_ZN7datalog12rule_manager7mk_ruleEP4exprP3appRNS_8rule_setERK6symbol(ptr noundef nonnull align 8 dereferenceable(1368), ptr noundef, ptr noundef, ptr noundef nonnull align 8 dereferenceable(248), ptr noundef nonnull align 8 dereferenceable(8)) #1

; Function Attrs: mustprogress uwtable
define hidden void @_ZN7datalog7context11check_rulesERNS_8rule_setE(ptr noundef nonnull align 8 dereferenceable(3556) %this, ptr noundef nonnull align 8 dereferenceable(248) %r) #4 align 2 {
entry:
  %this.addr = alloca ptr, align 8
  %r.addr = alloca ptr, align 8
  store ptr %this, ptr %this.addr, align 8
  store ptr %r, ptr %r.addr, align 8
  %this1 = load ptr, ptr %this.addr, align 8
  %m_rule_properties = getelementptr inbounds %"class.datalog::context", ptr %this1, i32 0, i32 14
  %call = call noundef zeroext i1 @_ZNK7datalog7context20generate_proof_traceEv(ptr noundef nonnull align 8 dereferenceable(3556) %this1)
  call void @_ZN7datalog15rule_properties18set_generate_proofEb(ptr noundef nonnull align 8 dereferenceable(522) %m_rule_properties, i1 noundef zeroext %call)
  %call2 = call noundef i32 @_ZN7datalog7context10get_engineEP4expr(ptr noundef nonnull align 8 dereferenceable(3556) %this1, ptr noundef null)
  switch i32 %call2, label %sw.default [
    i32 0, label %sw.bb
    i32 1, label %sw.bb9
    i32 2, label %sw.bb16
    i32 3, label %sw.bb19
    i32 4, label %sw.bb23
    i32 5, label %sw.bb28
    i32 6, label %sw.bb33
    i32 7, label %sw.bb35
  ]

sw.bb:                                            ; preds = %entry
  %m_rule_properties3 = getelementptr inbounds %"class.datalog::context", ptr %this1, i32 0, i32 14
  %0 = load ptr, ptr %r.addr, align 8
  call void @_ZN7datalog15rule_properties7collectERKNS_8rule_setE(ptr noundef nonnull align 8 dereferenceable(522) %m_rule_properties3, ptr noundef nonnull align 8 dereferenceable(248) %0)
  %m_rule_properties4 = getelementptr inbounds %"class.datalog::context", ptr %this1, i32 0, i32 14
  call void @_ZN7datalog15rule_properties21check_quantifier_freeEv(ptr noundef nonnull align 8 dereferenceable(522) %m_rule_properties4)
  %m_rule_properties5 = getelementptr inbounds %"class.datalog::context", ptr %this1, i32 0, i32 14
  call void @_ZN7datalog15rule_properties24check_uninterpreted_freeEv(ptr noundef nonnull align 8 dereferenceable(522) %m_rule_properties5)
  %m_rule_properties6 = getelementptr inbounds %"class.datalog::context", ptr %this1, i32 0, i32 14
  call void @_ZN7datalog15rule_properties17check_nested_freeEv(ptr noundef nonnull align 8 dereferenceable(522) %m_rule_properties6)
  %m_rule_properties7 = getelementptr inbounds %"class.datalog::context", ptr %this1, i32 0, i32 14
  call void @_ZN7datalog15rule_properties20check_infinite_sortsEv(ptr noundef nonnull align 8 dereferenceable(522) %m_rule_properties7)
  %m_rule_properties8 = getelementptr inbounds %"class.datalog::context", ptr %this1, i32 0, i32 14
  call void @_ZN7datalog15rule_properties21check_background_freeEv(ptr noundef nonnull align 8 dereferenceable(522) %m_rule_properties8)
  br label %sw.epilog

sw.bb9:                                           ; preds = %entry
  %m_rule_properties10 = getelementptr inbounds %"class.datalog::context", ptr %this1, i32 0, i32 14
  %1 = load ptr, ptr %r.addr, align 8
  call void @_ZN7datalog15rule_properties7collectERKNS_8rule_setE(ptr noundef nonnull align 8 dereferenceable(522) %m_rule_properties10, ptr noundef nonnull align 8 dereferenceable(248) %1)
  %m_rule_properties11 = getelementptr inbounds %"class.datalog::context", ptr %this1, i32 0, i32 14
  call void @_ZN7datalog15rule_properties22check_existential_tailEv(ptr noundef nonnull align 8 dereferenceable(522) %m_rule_properties11)
  %m_rule_properties12 = getelementptr inbounds %"class.datalog::context", ptr %this1, i32 0, i32 14
  call void @_ZN7datalog15rule_properties28check_for_negated_predicatesEv(ptr noundef nonnull align 8 dereferenceable(522) %m_rule_properties12)
  %m_rule_properties13 = getelementptr inbounds %"class.datalog::context", ptr %this1, i32 0, i32 14
  call void @_ZN7datalog15rule_properties24check_uninterpreted_freeEv(ptr noundef nonnull align 8 dereferenceable(522) %m_rule_properties13)
  %m_rule_properties14 = getelementptr inbounds %"class.datalog::context", ptr %this1, i32 0, i32 14
  call void @_ZN7datalog15rule_properties21check_quantifier_freeE15quantifier_kind(ptr noundef nonnull align 8 dereferenceable(522) %m_rule_properties14, i32 noundef 1)
  %m_rule_properties15 = getelementptr inbounds %"class.datalog::context", ptr %this1, i32 0, i32 14
  call void @_ZN7datalog15rule_properties21check_background_freeEv(ptr noundef nonnull align 8 dereferenceable(522) %m_rule_properties15)
  br label %sw.epilog

sw.bb16:                                          ; preds = %entry
  %m_rule_properties17 = getelementptr inbounds %"class.datalog::context", ptr %this1, i32 0, i32 14
  %2 = load ptr, ptr %r.addr, align 8
  call void @_ZN7datalog15rule_properties7collectERKNS_8rule_setE(ptr noundef nonnull align 8 dereferenceable(522) %m_rule_properties17, ptr noundef nonnull align 8 dereferenceable(248) %2)
  %m_rule_properties18 = getelementptr inbounds %"class.datalog::context", ptr %this1, i32 0, i32 14
  call void @_ZN7datalog15rule_properties28check_for_negated_predicatesEv(ptr noundef nonnull align 8 dereferenceable(522) %m_rule_properties18)
  br label %sw.epilog

sw.bb19:                                          ; preds = %entry
  %m_rule_properties20 = getelementptr inbounds %"class.datalog::context", ptr %this1, i32 0, i32 14
  %3 = load ptr, ptr %r.addr, align 8
  call void @_ZN7datalog15rule_properties7collectERKNS_8rule_setE(ptr noundef nonnull align 8 dereferenceable(522) %m_rule_properties20, ptr noundef nonnull align 8 dereferenceable(248) %3)
  %m_rule_properties21 = getelementptr inbounds %"class.datalog::context", ptr %this1, i32 0, i32 14
  call void @_ZN7datalog15rule_properties22check_existential_tailEv(ptr noundef nonnull align 8 dereferenceable(522) %m_rule_properties21)
  %m_rule_properties22 = getelementptr inbounds %"class.datalog::context", ptr %this1, i32 0, i32 14
  call void @_ZN7datalog15rule_properties28check_for_negated_predicatesEv(ptr noundef nonnull align 8 dereferenceable(522) %m_rule_properties22)
  br label %sw.epilog

sw.bb23:                                          ; preds = %entry
  %m_rule_properties24 = getelementptr inbounds %"class.datalog::context", ptr %this1, i32 0, i32 14
  %4 = load ptr, ptr %r.addr, align 8
  call void @_ZN7datalog15rule_properties7collectERKNS_8rule_setE(ptr noundef nonnull align 8 dereferenceable(522) %m_rule_properties24, ptr noundef nonnull align 8 dereferenceable(248) %4)
  %m_rule_properties25 = getelementptr inbounds %"class.datalog::context", ptr %this1, i32 0, i32 14
  call void @_ZN7datalog15rule_properties22check_existential_tailEv(ptr noundef nonnull align 8 dereferenceable(522) %m_rule_properties25)
  %m_rule_properties26 = getelementptr inbounds %"class.datalog::context", ptr %this1, i32 0, i32 14
  call void @_ZN7datalog15rule_properties28check_for_negated_predicatesEv(ptr noundef nonnull align 8 dereferenceable(522) %m_rule_properties26)
  %m_rule_properties27 = getelementptr inbounds %"class.datalog::context", ptr %this1, i32 0, i32 14
  call void @_ZN7datalog15rule_properties21check_background_freeEv(ptr noundef nonnull align 8 dereferenceable(522) %m_rule_properties27)
  br label %sw.epilog

sw.bb28:                                          ; preds = %entry
  %m_rule_properties29 = getelementptr inbounds %"class.datalog::context", ptr %this1, i32 0, i32 14
  %5 = load ptr, ptr %r.addr, align 8
  call void @_ZN7datalog15rule_properties7collectERKNS_8rule_setE(ptr noundef nonnull align 8 dereferenceable(522) %m_rule_properties29, ptr noundef nonnull align 8 dereferenceable(248) %5)
  %m_rule_properties30 = getelementptr inbounds %"class.datalog::context", ptr %this1, i32 0, i32 14
  call void @_ZN7datalog15rule_properties22check_existential_tailEv(ptr noundef nonnull align 8 dereferenceable(522) %m_rule_properties30)
  %m_rule_properties31 = getelementptr inbounds %"class.datalog::context", ptr %this1, i32 0, i32 14
  call void @_ZN7datalog15rule_properties28check_for_negated_predicatesEv(ptr noundef nonnull align 8 dereferenceable(522) %m_rule_properties31)
  %m_rule_properties32 = getelementptr inbounds %"class.datalog::context", ptr %this1, i32 0, i32 14
  call void @_ZN7datalog15rule_properties21check_background_freeEv(ptr noundef nonnull align 8 dereferenceable(522) %m_rule_properties32)
  br label %sw.epilog

sw.bb33:                                          ; preds = %entry
  %m_rule_properties34 = getelementptr inbounds %"class.datalog::context", ptr %this1, i32 0, i32 14
  call void @_ZN7datalog15rule_properties21check_background_freeEv(ptr noundef nonnull align 8 dereferenceable(522) %m_rule_properties34)
  br label %sw.epilog

sw.bb35:                                          ; preds = %entry
  br label %sw.default

sw.default:                                       ; preds = %sw.bb35, %entry
  call void @_Z26notify_assertion_violationPKciS0_(ptr noundef @.str.2, i32 noundef 616, ptr noundef @.str.3)
  call void @exit(i32 noundef 114) #16
  unreachable

sw.epilog:                                        ; preds = %sw.bb33, %sw.bb28, %sw.bb23, %sw.bb19, %sw.bb16, %sw.bb9, %sw.bb
  ret void
}

; Function Attrs: mustprogress nounwind uwtable
define linkonce_odr hidden void @_ZN17scoped_proof_modeD2Ev(ptr noundef nonnull align 8 dereferenceable(12) %this) unnamed_addr #5 comdat align 2 {
entry:
  %this.addr = alloca ptr, align 8
  store ptr %this, ptr %this.addr, align 8
  %this1 = load ptr, ptr %this.addr, align 8
  %m = getelementptr inbounds %class.scoped_proof_mode, ptr %this1, i32 0, i32 0
  %0 = load ptr, ptr %m, align 8
  %m_mode = getelementptr inbounds %class.scoped_proof_mode, ptr %this1, i32 0, i32 1
  %1 = load i32, ptr %m_mode, align 8
  call void @_ZN11ast_manager17toggle_proof_modeE14proof_gen_mode(ptr noundef nonnull align 8 dereferenceable(976) %0, i32 noundef %1)
  ret void
}

; Function Attrs: mustprogress uwtable
define hidden void @_ZN7datalog7context11update_ruleEP4exprRK6symbol(ptr noundef nonnull align 8 dereferenceable(3556) %this, ptr noundef %rl, ptr noundef nonnull align 8 dereferenceable(8) %name) #4 align 2 personality ptr @__gxx_personality_v0 {
entry:
  %this.addr = alloca ptr, align 8
  %rl.addr = alloca ptr, align 8
  %name.addr = alloca ptr, align 8
  %rm = alloca ptr, align 8
  %p = alloca ptr, align 8
  %size_before = alloca i32, align 4
  %size_after = alloca i32, align 4
  %strm = alloca %"class.std::__cxx11::basic_stringstream", align 8
  %exn.slot = alloca ptr, align 8
  %ehselector.slot = alloca i32, align 4
  %agg.tmp = alloca %class.symbol, align 8
  %ref.tmp = alloca %"class.std::__cxx11::basic_string", align 8
  %cleanup.isactive = alloca i1, align 1
  %r = alloca %class.obj_ref.168, align 8
  %rls = alloca ptr, align 8
  %old_rule = alloca ptr, align 8
  %i = alloca i32, align 4
  %strm35 = alloca %"class.std::__cxx11::basic_stringstream", align 8
  %agg.tmp41 = alloca %class.symbol, align 8
  %ref.tmp52 = alloca %"class.std::__cxx11::basic_string", align 8
  %cleanup.isactive57 = alloca i1, align 1
  %strm75 = alloca %"class.std::__cxx11::basic_stringstream", align 8
  %ref.tmp95 = alloca %"class.std::__cxx11::basic_string", align 8
  %cleanup.isactive100 = alloca i1, align 1
  store ptr %this, ptr %this.addr, align 8
  store ptr %rl, ptr %rl.addr, align 8
  store ptr %name, ptr %name.addr, align 8
  %this1 = load ptr, ptr %this.addr, align 8
  %call = call noundef nonnull align 8 dereferenceable(1368) ptr @_ZN7datalog7context16get_rule_managerEv(ptr noundef nonnull align 8 dereferenceable(3556) %this1)
  store ptr %call, ptr %rm, align 8
  store ptr null, ptr %p, align 8
  %call2 = call noundef zeroext i1 @_ZNK7datalog7context20generate_proof_traceEv(ptr noundef nonnull align 8 dereferenceable(3556) %this1)
  br i1 %call2, label %if.then, label %if.end

if.then:                                          ; preds = %entry
  %m = getelementptr inbounds %"class.datalog::context", ptr %this1, i32 0, i32 0
  %0 = load ptr, ptr %m, align 8
  %1 = load ptr, ptr %rl.addr, align 8
  %call3 = call noundef ptr @_ZN11ast_manager11mk_assertedEP4expr(ptr noundef nonnull align 8 dereferenceable(976) %0, ptr noundef %1)
  store ptr %call3, ptr %p, align 8
  br label %if.end

if.end:                                           ; preds = %if.then, %entry
  %m_rule_set = getelementptr inbounds %"class.datalog::context", ptr %this1, i32 0, i32 23
  %call4 = call noundef i32 @_ZNK7datalog8rule_set13get_num_rulesEv(ptr noundef nonnull align 8 dereferenceable(248) %m_rule_set)
  store i32 %call4, ptr %size_before, align 4
  %2 = load ptr, ptr %rm, align 8
  %3 = load ptr, ptr %rl.addr, align 8
  %4 = load ptr, ptr %p, align 8
  %m_rule_set5 = getelementptr inbounds %"class.datalog::context", ptr %this1, i32 0, i32 23
  %5 = load ptr, ptr %name.addr, align 8
  call void @_ZN7datalog12rule_manager7mk_ruleEP4exprP3appRNS_8rule_setERK6symbol(ptr noundef nonnull align 8 dereferenceable(1368) %2, ptr noundef %3, ptr noundef %4, ptr noundef nonnull align 8 dereferenceable(248) %m_rule_set5, ptr noundef nonnull align 8 dereferenceable(8) %5)
  %m_rule_set6 = getelementptr inbounds %"class.datalog::context", ptr %this1, i32 0, i32 23
  %call7 = call noundef i32 @_ZNK7datalog8rule_set13get_num_rulesEv(ptr noundef nonnull align 8 dereferenceable(248) %m_rule_set6)
  store i32 %call7, ptr %size_after, align 4
  %6 = load i32, ptr %size_before, align 4
  %add = add i32 %6, 1
  %7 = load i32, ptr %size_after, align 4
  %cmp = icmp ne i32 %add, %7
  br i1 %cmp, label %if.then8, label %if.end19

if.then8:                                         ; preds = %if.end
  call void @_ZNSt7__cxx1118basic_stringstreamIcSt11char_traitsIcESaIcEEC1Ev(ptr noundef nonnull align 8 dereferenceable(128) %strm)
  %add.ptr = getelementptr inbounds i8, ptr %strm, i64 16
  %call9 = invoke noundef nonnull align 8 dereferenceable(8) ptr @_ZStlsISt11char_traitsIcEERSt13basic_ostreamIcT_ES5_PKc(ptr noundef nonnull align 8 dereferenceable(8) %add.ptr, ptr noundef @.str.4)
          to label %invoke.cont unwind label %lpad

invoke.cont:                                      ; preds = %if.then8
  %8 = load ptr, ptr %name.addr, align 8
  call void @llvm.memcpy.p0.p0.i64(ptr align 8 %agg.tmp, ptr align 8 %8, i64 8, i1 false)
  %coerce.dive = getelementptr inbounds %class.symbol, ptr %agg.tmp, i32 0, i32 0
  %9 = load ptr, ptr %coerce.dive, align 8
  %call11 = invoke noundef nonnull align 8 dereferenceable(8) ptr @_ZlsRSo6symbol(ptr noundef nonnull align 8 dereferenceable(8) %call9, ptr %9)
          to label %invoke.cont10 unwind label %lpad

invoke.cont10:                                    ; preds = %invoke.cont
  %call13 = invoke noundef nonnull align 8 dereferenceable(8) ptr @_ZStlsISt11char_traitsIcEERSt13basic_ostreamIcT_ES5_PKc(ptr noundef nonnull align 8 dereferenceable(8) %call11, ptr noundef @.str.5)
          to label %invoke.cont12 unwind label %lpad

invoke.cont12:                                    ; preds = %invoke.cont10
  store i1 true, ptr %cleanup.isactive, align 1
  %exception = call ptr @__cxa_allocate_exception(i64 40) #3
  invoke void @_ZNKSt7__cxx1118basic_stringstreamIcSt11char_traitsIcESaIcEE3strEv(ptr sret(%"class.std::__cxx11::basic_string") align 8 %ref.tmp, ptr noundef nonnull align 8 dereferenceable(128) %strm)
          to label %invoke.cont15 unwind label %lpad14

invoke.cont15:                                    ; preds = %invoke.cont12
  invoke void @_ZN17default_exceptionC2EONSt7__cxx1112basic_stringIcSt11char_traitsIcESaIcEEE(ptr noundef nonnull align 8 dereferenceable(40) %exception, ptr noundef nonnull align 8 dereferenceable(32) %ref.tmp)
          to label %invoke.cont17 unwind label %lpad16

invoke.cont17:                                    ; preds = %invoke.cont15
  store i1 false, ptr %cleanup.isactive, align 1
  invoke void @__cxa_throw(ptr %exception, ptr @_ZTI17default_exception, ptr @_ZN17default_exceptionD2Ev) #15
          to label %unreachable unwind label %lpad16

lpad:                                             ; preds = %invoke.cont10, %invoke.cont, %if.then8
  %10 = landingpad { ptr, i32 }
          cleanup
  %11 = extractvalue { ptr, i32 } %10, 0
  store ptr %11, ptr %exn.slot, align 8
  %12 = extractvalue { ptr, i32 } %10, 1
  store i32 %12, ptr %ehselector.slot, align 4
  br label %ehcleanup18

lpad14:                                           ; preds = %invoke.cont12
  %13 = landingpad { ptr, i32 }
          cleanup
  %14 = extractvalue { ptr, i32 } %13, 0
  store ptr %14, ptr %exn.slot, align 8
  %15 = extractvalue { ptr, i32 } %13, 1
  store i32 %15, ptr %ehselector.slot, align 4
  br label %ehcleanup

lpad16:                                           ; preds = %invoke.cont17, %invoke.cont15
  %16 = landingpad { ptr, i32 }
          cleanup
  %17 = extractvalue { ptr, i32 } %16, 0
  store ptr %17, ptr %exn.slot, align 8
  %18 = extractvalue { ptr, i32 } %16, 1
  store i32 %18, ptr %ehselector.slot, align 4
  call void @_ZNSt7__cxx1112basic_stringIcSt11char_traitsIcESaIcEED1Ev(ptr noundef nonnull align 8 dereferenceable(32) %ref.tmp) #3
  br label %ehcleanup

ehcleanup:                                        ; preds = %lpad16, %lpad14
  %cleanup.is_active = load i1, ptr %cleanup.isactive, align 1
  br i1 %cleanup.is_active, label %cleanup.action, label %cleanup.done

cleanup.action:                                   ; preds = %ehcleanup
  call void @__cxa_free_exception(ptr %exception) #3
  br label %cleanup.done

cleanup.done:                                     ; preds = %cleanup.action, %ehcleanup
  br label %ehcleanup18

ehcleanup18:                                      ; preds = %cleanup.done, %lpad
  call void @_ZNSt7__cxx1118basic_stringstreamIcSt11char_traitsIcESaIcEED1Ev(ptr noundef nonnull align 8 dereferenceable(128) %strm) #3
  br label %eh.resume

if.end19:                                         ; preds = %if.end
  %m_rule_set20 = getelementptr inbounds %"class.datalog::context", ptr %this1, i32 0, i32 23
  %19 = load i32, ptr %size_before, align 4
  %call21 = call noundef ptr @_ZNK7datalog8rule_set8get_ruleEj(ptr noundef nonnull align 8 dereferenceable(248) %m_rule_set20, i32 noundef %19)
  %20 = load ptr, ptr %rm, align 8
  call void @_ZN7obj_refIN7datalog4ruleENS0_12rule_managerEEC2EPS1_RS2_(ptr noundef nonnull align 8 dereferenceable(16) %r, ptr noundef %call21, ptr noundef nonnull align 8 dereferenceable(1368) %20)
  %m_rule_set22 = getelementptr inbounds %"class.datalog::context", ptr %this1, i32 0, i32 23
  %call25 = invoke noundef nonnull align 8 dereferenceable(16) ptr @_ZNK7datalog8rule_set9get_rulesEv(ptr noundef nonnull align 8 dereferenceable(248) %m_rule_set22)
          to label %invoke.cont24 unwind label %lpad23

invoke.cont24:                                    ; preds = %if.end19
  store ptr %call25, ptr %rls, align 8
  store ptr null, ptr %old_rule, align 8
  store i32 0, ptr %i, align 4
  br label %for.cond

for.cond:                                         ; preds = %for.inc, %invoke.cont24
  %21 = load i32, ptr %i, align 4
  %22 = load i32, ptr %size_before, align 4
  %cmp26 = icmp ult i32 %21, %22
  br i1 %cmp26, label %for.body, label %for.end

for.body:                                         ; preds = %for.cond
  %23 = load ptr, ptr %rls, align 8
  %24 = load i32, ptr %i, align 4
  %call28 = invoke noundef ptr @_ZNK10ref_vectorIN7datalog4ruleENS0_12rule_managerEEixEj(ptr noundef nonnull align 8 dereferenceable(16) %23, i32 noundef %24)
          to label %invoke.cont27 unwind label %lpad23

invoke.cont27:                                    ; preds = %for.body
  %call30 = invoke noundef nonnull align 8 dereferenceable(8) ptr @_ZNK7datalog4rule4nameEv(ptr noundef nonnull align 8 dereferenceable(80) %call28)
          to label %invoke.cont29 unwind label %lpad23

invoke.cont29:                                    ; preds = %invoke.cont27
  %25 = load ptr, ptr %name.addr, align 8
  %call32 = invoke noundef zeroext i1 @_ZeqRK6symbolS1_(ptr noundef nonnull align 8 dereferenceable(8) %call30, ptr noundef nonnull align 8 dereferenceable(8) %25)
          to label %invoke.cont31 unwind label %lpad23

invoke.cont31:                                    ; preds = %invoke.cont29
  br i1 %call32, label %if.then33, label %if.end67

if.then33:                                        ; preds = %invoke.cont31
  %26 = load ptr, ptr %old_rule, align 8
  %tobool = icmp ne ptr %26, null
  br i1 %tobool, label %if.then34, label %if.end64

if.then34:                                        ; preds = %if.then33
  invoke void @_ZNSt7__cxx1118basic_stringstreamIcSt11char_traitsIcESaIcEEC1Ev(ptr noundef nonnull align 8 dereferenceable(128) %strm35)
          to label %invoke.cont36 unwind label %lpad23

invoke.cont36:                                    ; preds = %if.then34
  %add.ptr37 = getelementptr inbounds i8, ptr %strm35, i64 16
  %call40 = invoke noundef nonnull align 8 dereferenceable(8) ptr @_ZStlsISt11char_traitsIcEERSt13basic_ostreamIcT_ES5_PKc(ptr noundef nonnull align 8 dereferenceable(8) %add.ptr37, ptr noundef @.str.4)
          to label %invoke.cont39 unwind label %lpad38

invoke.cont39:                                    ; preds = %invoke.cont36
  %27 = load ptr, ptr %name.addr, align 8
  call void @llvm.memcpy.p0.p0.i64(ptr align 8 %agg.tmp41, ptr align 8 %27, i64 8, i1 false)
  %coerce.dive42 = getelementptr inbounds %class.symbol, ptr %agg.tmp41, i32 0, i32 0
  %28 = load ptr, ptr %coerce.dive42, align 8
  %call44 = invoke noundef nonnull align 8 dereferenceable(8) ptr @_ZlsRSo6symbol(ptr noundef nonnull align 8 dereferenceable(8) %call40, ptr %28)
          to label %invoke.cont43 unwind label %lpad38

invoke.cont43:                                    ; preds = %invoke.cont39
  %call46 = invoke noundef nonnull align 8 dereferenceable(8) ptr @_ZStlsISt11char_traitsIcEERSt13basic_ostreamIcT_ES5_PKc(ptr noundef nonnull align 8 dereferenceable(8) %call44, ptr noundef @.str.6)
          to label %invoke.cont45 unwind label %lpad38

invoke.cont45:                                    ; preds = %invoke.cont43
  %m_rule_set47 = getelementptr inbounds %"class.datalog::context", ptr %this1, i32 0, i32 23
  %call49 = invoke noundef ptr @_ZNK7obj_refIN7datalog4ruleENS0_12rule_managerEEcvPS1_Ev(ptr noundef nonnull align 8 dereferenceable(16) %r)
          to label %invoke.cont48 unwind label %lpad38

invoke.cont48:                                    ; preds = %invoke.cont45
  invoke void @_ZN7datalog8rule_set8del_ruleEPNS_4ruleE(ptr noundef nonnull align 8 dereferenceable(248) %m_rule_set47, ptr noundef %call49)
          to label %invoke.cont50 unwind label %lpad38

invoke.cont50:                                    ; preds = %invoke.cont48
  store i1 true, ptr %cleanup.isactive57, align 1
  %exception51 = call ptr @__cxa_allocate_exception(i64 40) #3
  invoke void @_ZNKSt7__cxx1118basic_stringstreamIcSt11char_traitsIcESaIcEE3strEv(ptr sret(%"class.std::__cxx11::basic_string") align 8 %ref.tmp52, ptr noundef nonnull align 8 dereferenceable(128) %strm35)
          to label %invoke.cont54 unwind label %lpad53

invoke.cont54:                                    ; preds = %invoke.cont50
  invoke void @_ZN17default_exceptionC2EONSt7__cxx1112basic_stringIcSt11char_traitsIcESaIcEEE(ptr noundef nonnull align 8 dereferenceable(40) %exception51, ptr noundef nonnull align 8 dereferenceable(32) %ref.tmp52)
          to label %invoke.cont56 unwind label %lpad55

invoke.cont56:                                    ; preds = %invoke.cont54
  store i1 false, ptr %cleanup.isactive57, align 1
  invoke void @__cxa_throw(ptr %exception51, ptr @_ZTI17default_exception, ptr @_ZN17default_exceptionD2Ev) #15
          to label %unreachable unwind label %lpad55

lpad23:                                           ; preds = %if.end107, %if.then74, %invoke.cont70, %if.then69, %if.end64, %if.then34, %invoke.cont29, %invoke.cont27, %for.body, %if.end19
  %29 = landingpad { ptr, i32 }
          cleanup
  %30 = extractvalue { ptr, i32 } %29, 0
  store ptr %30, ptr %exn.slot, align 8
  %31 = extractvalue { ptr, i32 } %29, 1
  store i32 %31, ptr %ehselector.slot, align 4
  br label %ehcleanup111

lpad38:                                           ; preds = %invoke.cont48, %invoke.cont45, %invoke.cont43, %invoke.cont39, %invoke.cont36
  %32 = landingpad { ptr, i32 }
          cleanup
  %33 = extractvalue { ptr, i32 } %32, 0
  store ptr %33, ptr %exn.slot, align 8
  %34 = extractvalue { ptr, i32 } %32, 1
  store i32 %34, ptr %ehselector.slot, align 4
  br label %ehcleanup63

lpad53:                                           ; preds = %invoke.cont50
  %35 = landingpad { ptr, i32 }
          cleanup
  %36 = extractvalue { ptr, i32 } %35, 0
  store ptr %36, ptr %exn.slot, align 8
  %37 = extractvalue { ptr, i32 } %35, 1
  store i32 %37, ptr %ehselector.slot, align 4
  br label %ehcleanup59

lpad55:                                           ; preds = %invoke.cont56, %invoke.cont54
  %38 = landingpad { ptr, i32 }
          cleanup
  %39 = extractvalue { ptr, i32 } %38, 0
  store ptr %39, ptr %exn.slot, align 8
  %40 = extractvalue { ptr, i32 } %38, 1
  store i32 %40, ptr %ehselector.slot, align 4
  call void @_ZNSt7__cxx1112basic_stringIcSt11char_traitsIcESaIcEED1Ev(ptr noundef nonnull align 8 dereferenceable(32) %ref.tmp52) #3
  br label %ehcleanup59

ehcleanup59:                                      ; preds = %lpad55, %lpad53
  %cleanup.is_active60 = load i1, ptr %cleanup.isactive57, align 1
  br i1 %cleanup.is_active60, label %cleanup.action61, label %cleanup.done62

cleanup.action61:                                 ; preds = %ehcleanup59
  call void @__cxa_free_exception(ptr %exception51) #3
  br label %cleanup.done62

cleanup.done62:                                   ; preds = %cleanup.action61, %ehcleanup59
  br label %ehcleanup63

ehcleanup63:                                      ; preds = %cleanup.done62, %lpad38
  call void @_ZNSt7__cxx1118basic_stringstreamIcSt11char_traitsIcESaIcEED1Ev(ptr noundef nonnull align 8 dereferenceable(128) %strm35) #3
  br label %ehcleanup111

if.end64:                                         ; preds = %if.then33
  %41 = load ptr, ptr %rls, align 8
  %42 = load i32, ptr %i, align 4
  %call66 = invoke noundef ptr @_ZNK10ref_vectorIN7datalog4ruleENS0_12rule_managerEEixEj(ptr noundef nonnull align 8 dereferenceable(16) %41, i32 noundef %42)
          to label %invoke.cont65 unwind label %lpad23

invoke.cont65:                                    ; preds = %if.end64
  store ptr %call66, ptr %old_rule, align 8
  br label %if.end67

if.end67:                                         ; preds = %invoke.cont65, %invoke.cont31
  br label %for.inc

for.inc:                                          ; preds = %if.end67
  %43 = load i32, ptr %i, align 4
  %inc = add i32 %43, 1
  store i32 %inc, ptr %i, align 4
  br label %for.cond, !llvm.loop !7

for.end:                                          ; preds = %for.cond
  %44 = load ptr, ptr %old_rule, align 8
  %tobool68 = icmp ne ptr %44, null
  br i1 %tobool68, label %if.then69, label %if.end110

if.then69:                                        ; preds = %for.end
  %45 = load ptr, ptr %old_rule, align 8
  %call71 = invoke noundef nonnull align 8 dereferenceable(80) ptr @_ZNK7obj_refIN7datalog4ruleENS0_12rule_managerEEdeEv(ptr noundef nonnull align 8 dereferenceable(16) %r)
          to label %invoke.cont70 unwind label %lpad23

invoke.cont70:                                    ; preds = %if.then69
  %call73 = invoke noundef zeroext i1 @_ZN7datalog7context14check_subsumesERKNS_4ruleES3_(ptr noundef nonnull align 8 dereferenceable(3556) %this1, ptr noundef nonnull align 8 dereferenceable(80) %45, ptr noundef nonnull align 8 dereferenceable(80) %call71)
          to label %invoke.cont72 unwind label %lpad23

invoke.cont72:                                    ; preds = %invoke.cont70
  br i1 %call73, label %if.end107, label %if.then74

if.then74:                                        ; preds = %invoke.cont72
  invoke void @_ZNSt7__cxx1118basic_stringstreamIcSt11char_traitsIcESaIcEEC1Ev(ptr noundef nonnull align 8 dereferenceable(128) %strm75)
          to label %invoke.cont76 unwind label %lpad23

invoke.cont76:                                    ; preds = %if.then74
  %add.ptr77 = getelementptr inbounds i8, ptr %strm75, i64 16
  %call80 = invoke noundef nonnull align 8 dereferenceable(8) ptr @_ZStlsISt11char_traitsIcEERSt13basic_ostreamIcT_ES5_PKc(ptr noundef nonnull align 8 dereferenceable(8) %add.ptr77, ptr noundef @.str.7)
          to label %invoke.cont79 unwind label %lpad78

invoke.cont79:                                    ; preds = %invoke.cont76
  %46 = load ptr, ptr %old_rule, align 8
  %add.ptr81 = getelementptr inbounds i8, ptr %strm75, i64 16
  invoke void @_ZNK7datalog4rule7displayERNS_7contextERSob(ptr noundef nonnull align 8 dereferenceable(80) %46, ptr noundef nonnull align 8 dereferenceable(3556) %this1, ptr noundef nonnull align 8 dereferenceable(8) %add.ptr81, i1 noundef zeroext false)
          to label %invoke.cont82 unwind label %lpad78

invoke.cont82:                                    ; preds = %invoke.cont79
  %add.ptr83 = getelementptr inbounds i8, ptr %strm75, i64 16
  %call85 = invoke noundef nonnull align 8 dereferenceable(8) ptr @_ZStlsISt11char_traitsIcEERSt13basic_ostreamIcT_ES5_PKc(ptr noundef nonnull align 8 dereferenceable(8) %add.ptr83, ptr noundef @.str.8)
          to label %invoke.cont84 unwind label %lpad78

invoke.cont84:                                    ; preds = %invoke.cont82
  %call87 = invoke noundef ptr @_ZNK7obj_refIN7datalog4ruleENS0_12rule_managerEEptEv(ptr noundef nonnull align 8 dereferenceable(16) %r)
          to label %invoke.cont86 unwind label %lpad78

invoke.cont86:                                    ; preds = %invoke.cont84
  %add.ptr88 = getelementptr inbounds i8, ptr %strm75, i64 16
  invoke void @_ZNK7datalog4rule7displayERNS_7contextERSob(ptr noundef nonnull align 8 dereferenceable(80) %call87, ptr noundef nonnull align 8 dereferenceable(3556) %this1, ptr noundef nonnull align 8 dereferenceable(8) %add.ptr88, i1 noundef zeroext false)
          to label %invoke.cont89 unwind label %lpad78

invoke.cont89:                                    ; preds = %invoke.cont86
  %m_rule_set90 = getelementptr inbounds %"class.datalog::context", ptr %this1, i32 0, i32 23
  %call92 = invoke noundef ptr @_ZNK7obj_refIN7datalog4ruleENS0_12rule_managerEEcvPS1_Ev(ptr noundef nonnull align 8 dereferenceable(16) %r)
          to label %invoke.cont91 unwind label %lpad78

invoke.cont91:                                    ; preds = %invoke.cont89
  invoke void @_ZN7datalog8rule_set8del_ruleEPNS_4ruleE(ptr noundef nonnull align 8 dereferenceable(248) %m_rule_set90, ptr noundef %call92)
          to label %invoke.cont93 unwind label %lpad78

invoke.cont93:                                    ; preds = %invoke.cont91
  store i1 true, ptr %cleanup.isactive100, align 1
  %exception94 = call ptr @__cxa_allocate_exception(i64 40) #3
  invoke void @_ZNKSt7__cxx1118basic_stringstreamIcSt11char_traitsIcESaIcEE3strEv(ptr sret(%"class.std::__cxx11::basic_string") align 8 %ref.tmp95, ptr noundef nonnull align 8 dereferenceable(128) %strm75)
          to label %invoke.cont97 unwind label %lpad96

invoke.cont97:                                    ; preds = %invoke.cont93
  invoke void @_ZN17default_exceptionC2EONSt7__cxx1112basic_stringIcSt11char_traitsIcESaIcEEE(ptr noundef nonnull align 8 dereferenceable(40) %exception94, ptr noundef nonnull align 8 dereferenceable(32) %ref.tmp95)
          to label %invoke.cont99 unwind label %lpad98

invoke.cont99:                                    ; preds = %invoke.cont97
  store i1 false, ptr %cleanup.isactive100, align 1
  invoke void @__cxa_throw(ptr %exception94, ptr @_ZTI17default_exception, ptr @_ZN17default_exceptionD2Ev) #15
          to label %unreachable unwind label %lpad98

lpad78:                                           ; preds = %invoke.cont91, %invoke.cont89, %invoke.cont86, %invoke.cont84, %invoke.cont82, %invoke.cont79, %invoke.cont76
  %47 = landingpad { ptr, i32 }
          cleanup
  %48 = extractvalue { ptr, i32 } %47, 0
  store ptr %48, ptr %exn.slot, align 8
  %49 = extractvalue { ptr, i32 } %47, 1
  store i32 %49, ptr %ehselector.slot, align 4
  br label %ehcleanup106

lpad96:                                           ; preds = %invoke.cont93
  %50 = landingpad { ptr, i32 }
          cleanup
  %51 = extractvalue { ptr, i32 } %50, 0
  store ptr %51, ptr %exn.slot, align 8
  %52 = extractvalue { ptr, i32 } %50, 1
  store i32 %52, ptr %ehselector.slot, align 4
  br label %ehcleanup102

lpad98:                                           ; preds = %invoke.cont99, %invoke.cont97
  %53 = landingpad { ptr, i32 }
          cleanup
  %54 = extractvalue { ptr, i32 } %53, 0
  store ptr %54, ptr %exn.slot, align 8
  %55 = extractvalue { ptr, i32 } %53, 1
  store i32 %55, ptr %ehselector.slot, align 4
  call void @_ZNSt7__cxx1112basic_stringIcSt11char_traitsIcESaIcEED1Ev(ptr noundef nonnull align 8 dereferenceable(32) %ref.tmp95) #3
  br label %ehcleanup102

ehcleanup102:                                     ; preds = %lpad98, %lpad96
  %cleanup.is_active103 = load i1, ptr %cleanup.isactive100, align 1
  br i1 %cleanup.is_active103, label %cleanup.action104, label %cleanup.done105

cleanup.action104:                                ; preds = %ehcleanup102
  call void @__cxa_free_exception(ptr %exception94) #3
  br label %cleanup.done105

cleanup.done105:                                  ; preds = %cleanup.action104, %ehcleanup102
  br label %ehcleanup106

ehcleanup106:                                     ; preds = %cleanup.done105, %lpad78
  call void @_ZNSt7__cxx1118basic_stringstreamIcSt11char_traitsIcESaIcEED1Ev(ptr noundef nonnull align 8 dereferenceable(128) %strm75) #3
  br label %ehcleanup111

if.end107:                                        ; preds = %invoke.cont72
  %m_rule_set108 = getelementptr inbounds %"class.datalog::context", ptr %this1, i32 0, i32 23
  %56 = load ptr, ptr %old_rule, align 8
  invoke void @_ZN7datalog8rule_set8del_ruleEPNS_4ruleE(ptr noundef nonnull align 8 dereferenceable(248) %m_rule_set108, ptr noundef %56)
          to label %invoke.cont109 unwind label %lpad23

invoke.cont109:                                   ; preds = %if.end107
  br label %if.end110

if.end110:                                        ; preds = %invoke.cont109, %for.end
  call void @_ZN7obj_refIN7datalog4ruleENS0_12rule_managerEED2Ev(ptr noundef nonnull align 8 dereferenceable(16) %r) #3
  ret void

ehcleanup111:                                     ; preds = %ehcleanup106, %ehcleanup63, %lpad23
  call void @_ZN7obj_refIN7datalog4ruleENS0_12rule_managerEED2Ev(ptr noundef nonnull align 8 dereferenceable(16) %r) #3
  br label %eh.resume

eh.resume:                                        ; preds = %ehcleanup111, %ehcleanup18
  %exn = load ptr, ptr %exn.slot, align 8
  %sel = load i32, ptr %ehselector.slot, align 4
  %lpad.val = insertvalue { ptr, i32 } poison, ptr %exn, 0
  %lpad.val112 = insertvalue { ptr, i32 } %lpad.val, i32 %sel, 1
  resume { ptr, i32 } %lpad.val112

unreachable:                                      ; preds = %invoke.cont99, %invoke.cont56, %invoke.cont17
  unreachable
}

; Function Attrs: mustprogress uwtable
define linkonce_odr hidden noundef i32 @_ZNK7datalog8rule_set13get_num_rulesEv(ptr noundef nonnull align 8 dereferenceable(248) %this) #4 comdat align 2 {
entry:
  %this.addr = alloca ptr, align 8
  store ptr %this, ptr %this.addr, align 8
  %this1 = load ptr, ptr %this.addr, align 8
  %m_rules = getelementptr inbounds %"class.datalog::rule_set", ptr %this1, i32 0, i32 2
  %call = call noundef i32 @_ZNK15ref_vector_coreIN7datalog4ruleE19ref_manager_wrapperIS1_NS0_12rule_managerEEE4sizeEv(ptr noundef nonnull align 8 dereferenceable(16) %m_rules)
  ret i32 %call
}

declare noundef nonnull align 8 dereferenceable(8) ptr @_ZStlsISt11char_traitsIcEERSt13basic_ostreamIcT_ES5_PKc(ptr noundef nonnull align 8 dereferenceable(8), ptr noundef) #1

; Function Attrs: mustprogress uwtable
define linkonce_odr hidden noundef nonnull align 8 dereferenceable(8) ptr @_ZlsRSo6symbol(ptr noundef nonnull align 8 dereferenceable(8) %target, ptr %s.coerce) #4 comdat {
entry:
  %s = alloca %class.symbol, align 8
  %target.addr = alloca ptr, align 8
  %coerce.dive = getelementptr inbounds %class.symbol, ptr %s, i32 0, i32 0
  store ptr %s.coerce, ptr %coerce.dive, align 8
  store ptr %target, ptr %target.addr, align 8
  %m_data = getelementptr inbounds %class.symbol, ptr %s, i32 0, i32 0
  %0 = load ptr, ptr %m_data, align 8
  %1 = ptrtoint ptr %0 to i64
  %and = and i64 %1, 7
  %cmp = icmp eq i64 %and, 0
  br i1 %cmp, label %if.then, label %if.else5

if.then:                                          ; preds = %entry
  %m_data1 = getelementptr inbounds %class.symbol, ptr %s, i32 0, i32 0
  %2 = load ptr, ptr %m_data1, align 8
  %tobool = icmp ne ptr %2, null
  br i1 %tobool, label %if.then2, label %if.else

if.then2:                                         ; preds = %if.then
  %3 = load ptr, ptr %target.addr, align 8
  %m_data3 = getelementptr inbounds %class.symbol, ptr %s, i32 0, i32 0
  %4 = load ptr, ptr %m_data3, align 8
  %call = call noundef nonnull align 8 dereferenceable(8) ptr @_ZStlsISt11char_traitsIcEERSt13basic_ostreamIcT_ES5_PKc(ptr noundef nonnull align 8 dereferenceable(8) %3, ptr noundef %4)
  br label %if.end

if.else:                                          ; preds = %if.then
  %5 = load ptr, ptr %target.addr, align 8
  %call4 = call noundef nonnull align 8 dereferenceable(8) ptr @_ZStlsISt11char_traitsIcEERSt13basic_ostreamIcT_ES5_PKc(ptr noundef nonnull align 8 dereferenceable(8) %5, ptr noundef @.str.54)
  br label %if.end

if.end:                                           ; preds = %if.else, %if.then2
  br label %if.end9

if.else5:                                         ; preds = %entry
  %6 = load ptr, ptr %target.addr, align 8
  %call6 = call noundef nonnull align 8 dereferenceable(8) ptr @_ZStlsISt11char_traitsIcEERSt13basic_ostreamIcT_ES5_PKc(ptr noundef nonnull align 8 dereferenceable(8) %6, ptr noundef @.str.88)
  %m_data7 = getelementptr inbounds %class.symbol, ptr %s, i32 0, i32 0
  %7 = load ptr, ptr %m_data7, align 8
  %8 = ptrtoint ptr %7 to i64
  %shr = lshr i64 %8, 3
  %conv = trunc i64 %shr to i32
  %call8 = call noundef nonnull align 8 dereferenceable(8) ptr @_ZNSolsEi(ptr noundef nonnull align 8 dereferenceable(8) %call6, i32 noundef %conv)
  br label %if.end9

if.end9:                                          ; preds = %if.else5, %if.end
  %9 = load ptr, ptr %target.addr, align 8
  ret ptr %9
}

; Function Attrs: mustprogress uwtable
define linkonce_odr hidden noundef ptr @_ZNK7datalog8rule_set8get_ruleEj(ptr noundef nonnull align 8 dereferenceable(248) %this, i32 noundef %i) #4 comdat align 2 {
entry:
  %this.addr = alloca ptr, align 8
  %i.addr = alloca i32, align 4
  store ptr %this, ptr %this.addr, align 8
  store i32 %i, ptr %i.addr, align 4
  %this1 = load ptr, ptr %this.addr, align 8
  %m_rules = getelementptr inbounds %"class.datalog::rule_set", ptr %this1, i32 0, i32 2
  %0 = load i32, ptr %i.addr, align 4
  %call = call noundef ptr @_ZNK10ref_vectorIN7datalog4ruleENS0_12rule_managerEEixEj(ptr noundef nonnull align 8 dereferenceable(16) %m_rules, i32 noundef %0)
  ret ptr %call
}

; Function Attrs: mustprogress uwtable
define linkonce_odr hidden void @_ZN7obj_refIN7datalog4ruleENS0_12rule_managerEEC2EPS1_RS2_(ptr noundef nonnull align 8 dereferenceable(16) %this, ptr noundef %n, ptr noundef nonnull align 8 dereferenceable(1368) %m) unnamed_addr #4 comdat align 2 {
entry:
  %this.addr = alloca ptr, align 8
  %n.addr = alloca ptr, align 8
  %m.addr = alloca ptr, align 8
  store ptr %this, ptr %this.addr, align 8
  store ptr %n, ptr %n.addr, align 8
  store ptr %m, ptr %m.addr, align 8
  %this1 = load ptr, ptr %this.addr, align 8
  %m_obj = getelementptr inbounds %class.obj_ref.168, ptr %this1, i32 0, i32 0
  %0 = load ptr, ptr %n.addr, align 8
  store ptr %0, ptr %m_obj, align 8
  %m_manager = getelementptr inbounds %class.obj_ref.168, ptr %this1, i32 0, i32 1
  %1 = load ptr, ptr %m.addr, align 8
  store ptr %1, ptr %m_manager, align 8
  call void @_ZN7obj_refIN7datalog4ruleENS0_12rule_managerEE7inc_refEv(ptr noundef nonnull align 8 dereferenceable(16) %this1)
  ret void
}

; Function Attrs: mustprogress nounwind uwtable
define linkonce_odr hidden noundef nonnull align 8 dereferenceable(16) ptr @_ZNK7datalog8rule_set9get_rulesEv(ptr noundef nonnull align 8 dereferenceable(248) %this) #5 comdat align 2 {
entry:
  %this.addr = alloca ptr, align 8
  store ptr %this, ptr %this.addr, align 8
  %this1 = load ptr, ptr %this.addr, align 8
  %m_rules = getelementptr inbounds %"class.datalog::rule_set", ptr %this1, i32 0, i32 2
  ret ptr %m_rules
}

; Function Attrs: mustprogress nounwind uwtable
define linkonce_odr hidden noundef zeroext i1 @_ZeqRK6symbolS1_(ptr noundef nonnull align 8 dereferenceable(8) %s1, ptr noundef nonnull align 8 dereferenceable(8) %s2) #5 comdat {
entry:
  %s1.addr = alloca ptr, align 8
  %s2.addr = alloca ptr, align 8
  store ptr %s1, ptr %s1.addr, align 8
  store ptr %s2, ptr %s2.addr, align 8
  %0 = load ptr, ptr %s1.addr, align 8
  %m_data = getelementptr inbounds %class.symbol, ptr %0, i32 0, i32 0
  %1 = load ptr, ptr %m_data, align 8
  %2 = load ptr, ptr %s2.addr, align 8
  %m_data1 = getelementptr inbounds %class.symbol, ptr %2, i32 0, i32 0
  %3 = load ptr, ptr %m_data1, align 8
  %cmp = icmp eq ptr %1, %3
  ret i1 %cmp
}

; Function Attrs: mustprogress uwtable
define linkonce_odr hidden noundef ptr @_ZNK10ref_vectorIN7datalog4ruleENS0_12rule_managerEEixEj(ptr noundef nonnull align 8 dereferenceable(16) %this, i32 noundef %idx) #4 comdat align 2 {
entry:
  %this.addr = alloca ptr, align 8
  %idx.addr = alloca i32, align 4
  store ptr %this, ptr %this.addr, align 8
  store i32 %idx, ptr %idx.addr, align 4
  %this1 = load ptr, ptr %this.addr, align 8
  %0 = load i32, ptr %idx.addr, align 4
  %call = call noundef ptr @_ZNK15ref_vector_coreIN7datalog4ruleE19ref_manager_wrapperIS1_NS0_12rule_managerEEEixEj(ptr noundef nonnull align 8 dereferenceable(16) %this1, i32 noundef %0)
  ret ptr %call
}

; Function Attrs: mustprogress nounwind uwtable
define linkonce_odr hidden noundef nonnull align 8 dereferenceable(8) ptr @_ZNK7datalog4rule4nameEv(ptr noundef nonnull align 8 dereferenceable(80) %this) #5 comdat align 2 {
entry:
  %this.addr = alloca ptr, align 8
  store ptr %this, ptr %this.addr, align 8
  %this1 = load ptr, ptr %this.addr, align 8
  %m_name = getelementptr inbounds %"class.datalog::rule", ptr %this1, i32 0, i32 7
  ret ptr %m_name
}

declare void @_ZN7datalog8rule_set8del_ruleEPNS_4ruleE(ptr noundef nonnull align 8 dereferenceable(248), ptr noundef) #1

; Function Attrs: mustprogress nounwind uwtable
define linkonce_odr hidden noundef ptr @_ZNK7obj_refIN7datalog4ruleENS0_12rule_managerEEcvPS1_Ev(ptr noundef nonnull align 8 dereferenceable(16) %this) #5 comdat align 2 {
entry:
  %this.addr = alloca ptr, align 8
  store ptr %this, ptr %this.addr, align 8
  %this1 = load ptr, ptr %this.addr, align 8
  %m_obj = getelementptr inbounds %class.obj_ref.168, ptr %this1, i32 0, i32 0
  %0 = load ptr, ptr %m_obj, align 8
  ret ptr %0
}

; Function Attrs: mustprogress uwtable
define hidden noundef zeroext i1 @_ZN7datalog7context14check_subsumesERKNS_4ruleES3_(ptr noundef nonnull align 8 dereferenceable(3556) %this, ptr noundef nonnull align 8 dereferenceable(80) %stronger_rule, ptr noundef nonnull align 8 dereferenceable(80) %weaker_rule) #4 align 2 {
entry:
  %retval = alloca i1, align 1
  %this.addr = alloca ptr, align 8
  %stronger_rule.addr = alloca ptr, align 8
  %weaker_rule.addr = alloca ptr, align 8
  %i = alloca i32, align 4
  %t = alloca ptr, align 8
  %found = alloca i8, align 1
  %j = alloca i32, align 4
  %s = alloca ptr, align 8
  store ptr %this, ptr %this.addr, align 8
  store ptr %stronger_rule, ptr %stronger_rule.addr, align 8
  store ptr %weaker_rule, ptr %weaker_rule.addr, align 8
  %0 = load ptr, ptr %stronger_rule.addr, align 8
  %call = call noundef ptr @_ZNK7datalog4rule8get_headEv(ptr noundef nonnull align 8 dereferenceable(80) %0)
  %1 = load ptr, ptr %weaker_rule.addr, align 8
  %call2 = call noundef ptr @_ZNK7datalog4rule8get_headEv(ptr noundef nonnull align 8 dereferenceable(80) %1)
  %cmp = icmp ne ptr %call, %call2
  br i1 %cmp, label %if.then, label %if.end

if.then:                                          ; preds = %entry
  store i1 false, ptr %retval, align 1
  br label %return

if.end:                                           ; preds = %entry
  store i32 0, ptr %i, align 4
  br label %for.cond

for.cond:                                         ; preds = %for.inc16, %if.end
  %2 = load i32, ptr %i, align 4
  %3 = load ptr, ptr %stronger_rule.addr, align 8
  %call3 = call noundef i32 @_ZNK7datalog4rule13get_tail_sizeEv(ptr noundef nonnull align 8 dereferenceable(80) %3)
  %cmp4 = icmp ult i32 %2, %call3
  br i1 %cmp4, label %for.body, label %for.end18

for.body:                                         ; preds = %for.cond
  %4 = load ptr, ptr %stronger_rule.addr, align 8
  %5 = load i32, ptr %i, align 4
  %call5 = call noundef ptr @_ZNK7datalog4rule8get_tailEj(ptr noundef nonnull align 8 dereferenceable(80) %4, i32 noundef %5)
  store ptr %call5, ptr %t, align 8
  store i8 0, ptr %found, align 1
  store i32 0, ptr %j, align 4
  br label %for.cond6

for.cond6:                                        ; preds = %for.inc, %for.body
  %6 = load i32, ptr %j, align 4
  %7 = load ptr, ptr %weaker_rule.addr, align 8
  %call7 = call noundef i32 @_ZNK7datalog4rule13get_tail_sizeEv(ptr noundef nonnull align 8 dereferenceable(80) %7)
  %cmp8 = icmp ult i32 %6, %call7
  br i1 %cmp8, label %for.body9, label %for.end

for.body9:                                        ; preds = %for.cond6
  %8 = load ptr, ptr %weaker_rule.addr, align 8
  %9 = load i32, ptr %j, align 4
  %call10 = call noundef ptr @_ZNK7datalog4rule8get_tailEj(ptr noundef nonnull align 8 dereferenceable(80) %8, i32 noundef %9)
  store ptr %call10, ptr %s, align 8
  %10 = load ptr, ptr %s, align 8
  %11 = load ptr, ptr %t, align 8
  %cmp11 = icmp eq ptr %10, %11
  br i1 %cmp11, label %if.then12, label %if.end13

if.then12:                                        ; preds = %for.body9
  store i8 1, ptr %found, align 1
  br label %for.end

if.end13:                                         ; preds = %for.body9
  br label %for.inc

for.inc:                                          ; preds = %if.end13
  %12 = load i32, ptr %j, align 4
  %inc = add i32 %12, 1
  store i32 %inc, ptr %j, align 4
  br label %for.cond6, !llvm.loop !8

for.end:                                          ; preds = %if.then12, %for.cond6
  %13 = load i8, ptr %found, align 1
  %tobool = trunc i8 %13 to i1
  br i1 %tobool, label %if.end15, label %if.then14

if.then14:                                        ; preds = %for.end
  store i1 false, ptr %retval, align 1
  br label %return

if.end15:                                         ; preds = %for.end
  br label %for.inc16

for.inc16:                                        ; preds = %if.end15
  %14 = load i32, ptr %i, align 4
  %inc17 = add i32 %14, 1
  store i32 %inc17, ptr %i, align 4
  br label %for.cond, !llvm.loop !9

for.end18:                                        ; preds = %for.cond
  store i1 true, ptr %retval, align 1
  br label %return

return:                                           ; preds = %for.end18, %if.then14, %if.then
  %15 = load i1, ptr %retval, align 1
  ret i1 %15
}

; Function Attrs: mustprogress nounwind uwtable
define linkonce_odr hidden noundef nonnull align 8 dereferenceable(80) ptr @_ZNK7obj_refIN7datalog4ruleENS0_12rule_managerEEdeEv(ptr noundef nonnull align 8 dereferenceable(16) %this) #5 comdat align 2 {
entry:
  %this.addr = alloca ptr, align 8
  store ptr %this, ptr %this.addr, align 8
  %this1 = load ptr, ptr %this.addr, align 8
  %m_obj = getelementptr inbounds %class.obj_ref.168, ptr %this1, i32 0, i32 0
  %0 = load ptr, ptr %m_obj, align 8
  ret ptr %0
}

declare void @_ZNK7datalog4rule7displayERNS_7contextERSob(ptr noundef nonnull align 8 dereferenceable(80), ptr noundef nonnull align 8 dereferenceable(3556), ptr noundef nonnull align 8 dereferenceable(8), i1 noundef zeroext) #1

; Function Attrs: mustprogress nounwind uwtable
define linkonce_odr hidden noundef ptr @_ZNK7obj_refIN7datalog4ruleENS0_12rule_managerEEptEv(ptr noundef nonnull align 8 dereferenceable(16) %this) #5 comdat align 2 {
entry:
  %this.addr = alloca ptr, align 8
  store ptr %this, ptr %this.addr, align 8
  %this1 = load ptr, ptr %this.addr, align 8
  %m_obj = getelementptr inbounds %class.obj_ref.168, ptr %this1, i32 0, i32 0
  %0 = load ptr, ptr %m_obj, align 8
  ret ptr %0
}

; Function Attrs: mustprogress nounwind uwtable
define linkonce_odr hidden void @_ZN7obj_refIN7datalog4ruleENS0_12rule_managerEED2Ev(ptr noundef nonnull align 8 dereferenceable(16) %this) unnamed_addr #5 comdat align 2 personality ptr @__gxx_personality_v0 {
entry:
  %this.addr = alloca ptr, align 8
  store ptr %this, ptr %this.addr, align 8
  %this1 = load ptr, ptr %this.addr, align 8
  invoke void @_ZN7obj_refIN7datalog4ruleENS0_12rule_managerEE7dec_refEv(ptr noundef nonnull align 8 dereferenceable(16) %this1)
          to label %invoke.cont unwind label %terminate.lpad

invoke.cont:                                      ; preds = %entry
  ret void

terminate.lpad:                                   ; preds = %entry
  %0 = landingpad { ptr, i32 }
          catch ptr null
  %1 = extractvalue { ptr, i32 } %0, 0
  call void @__clang_call_terminate(ptr %1) #16
  unreachable
}

; Function Attrs: mustprogress nounwind uwtable
define linkonce_odr hidden noundef ptr @_ZNK7datalog4rule8get_headEv(ptr noundef nonnull align 8 dereferenceable(80) %this) #5 comdat align 2 {
entry:
  %this.addr = alloca ptr, align 8
  store ptr %this, ptr %this.addr, align 8
  %this1 = load ptr, ptr %this.addr, align 8
  %m_head = getelementptr inbounds %"class.datalog::rule", ptr %this1, i32 0, i32 1
  %0 = load ptr, ptr %m_head, align 8
  ret ptr %0
}

; Function Attrs: mustprogress nounwind uwtable
define linkonce_odr hidden noundef i32 @_ZNK7datalog4rule13get_tail_sizeEv(ptr noundef nonnull align 8 dereferenceable(80) %this) #5 comdat align 2 {
entry:
  %this.addr = alloca ptr, align 8
  store ptr %this, ptr %this.addr, align 8
  %this1 = load ptr, ptr %this.addr, align 8
  %m_tail_size = getelementptr inbounds %"class.datalog::rule", ptr %this1, i32 0, i32 3
  %0 = load i32, ptr %m_tail_size, align 8
  ret i32 %0
}

; Function Attrs: mustprogress nounwind uwtable
define linkonce_odr hidden noundef ptr @_ZNK7datalog4rule8get_tailEj(ptr noundef nonnull align 8 dereferenceable(80) %this, i32 noundef %i) #5 comdat align 2 {
entry:
  %this.addr = alloca ptr, align 8
  %i.addr = alloca i32, align 4
  store ptr %this, ptr %this.addr, align 8
  store i32 %i, ptr %i.addr, align 4
  %this1 = load ptr, ptr %this.addr, align 8
  %m_tail = getelementptr inbounds %"class.datalog::rule", ptr %this1, i32 0, i32 8
  %0 = load i32, ptr %i.addr, align 4
  %idxprom = zext i32 %0 to i64
  %arrayidx = getelementptr inbounds [0 x ptr], ptr %m_tail, i64 0, i64 %idxprom
  %1 = load ptr, ptr %arrayidx, align 8
  %2 = ptrtoint ptr %1 to i64
  %and = and i64 %2, -8
  %3 = inttoptr i64 %and to ptr
  ret ptr %3
}

; Function Attrs: mustprogress uwtable
define hidden noundef i32 @_ZN7datalog7context14get_num_levelsEP9func_decl(ptr noundef nonnull align 8 dereferenceable(3556) %this, ptr noundef %pred) #4 align 2 {
entry:
  %this.addr = alloca ptr, align 8
  %pred.addr = alloca ptr, align 8
  store ptr %this, ptr %this.addr, align 8
  store ptr %pred, ptr %pred.addr, align 8
  %this1 = load ptr, ptr %this.addr, align 8
  call void @_ZN7datalog7context13ensure_engineEP4expr(ptr noundef nonnull align 8 dereferenceable(3556) %this1, ptr noundef null)
  %m_engine = getelementptr inbounds %"class.datalog::context", ptr %this1, i32 0, i32 35
  %call = call noundef ptr @_ZNK10scoped_ptrIN7datalog11engine_baseEEptEv(ptr noundef nonnull align 8 dereferenceable(8) %m_engine)
  %0 = load ptr, ptr %pred.addr, align 8
  %vtable = load ptr, ptr %call, align 8
  %vfn = getelementptr inbounds ptr, ptr %vtable, i64 10
  %1 = load ptr, ptr %vfn, align 8
  %call2 = call noundef i32 %1(ptr noundef nonnull align 8 dereferenceable(48) %call, ptr noundef %0)
  ret i32 %call2
}

; Function Attrs: mustprogress nounwind uwtable
define linkonce_odr hidden noundef ptr @_ZNK10scoped_ptrIN7datalog11engine_baseEEptEv(ptr noundef nonnull align 8 dereferenceable(8) %this) #5 comdat align 2 {
entry:
  %this.addr = alloca ptr, align 8
  store ptr %this, ptr %this.addr, align 8
  %this1 = load ptr, ptr %this.addr, align 8
  %m_ptr = getelementptr inbounds %class.scoped_ptr.128, ptr %this1, i32 0, i32 0
  %0 = load ptr, ptr %m_ptr, align 8
  ret ptr %0
}

; Function Attrs: mustprogress uwtable
define hidden void @_ZN7datalog7context15get_cover_deltaEiP9func_decl(ptr noalias sret(%class.obj_ref) align 8 %agg.result, ptr noundef nonnull align 8 dereferenceable(3556) %this, i32 noundef %level, ptr noundef %pred) #4 align 2 {
entry:
  %result.ptr = alloca ptr, align 8
  %this.addr = alloca ptr, align 8
  %level.addr = alloca i32, align 4
  %pred.addr = alloca ptr, align 8
  store ptr %agg.result, ptr %result.ptr, align 8
  store ptr %this, ptr %this.addr, align 8
  store i32 %level, ptr %level.addr, align 4
  store ptr %pred, ptr %pred.addr, align 8
  %this1 = load ptr, ptr %this.addr, align 8
  call void @_ZN7datalog7context13ensure_engineEP4expr(ptr noundef nonnull align 8 dereferenceable(3556) %this1, ptr noundef null)
  %m_engine = getelementptr inbounds %"class.datalog::context", ptr %this1, i32 0, i32 35
  %call = call noundef ptr @_ZNK10scoped_ptrIN7datalog11engine_baseEEptEv(ptr noundef nonnull align 8 dereferenceable(8) %m_engine)
  %0 = load i32, ptr %level.addr, align 4
  %1 = load ptr, ptr %pred.addr, align 8
  %vtable = load ptr, ptr %call, align 8
  %vfn = getelementptr inbounds ptr, ptr %vtable, i64 12
  %2 = load ptr, ptr %vfn, align 8
  call void %2(ptr sret(%class.obj_ref) align 8 %agg.result, ptr noundef nonnull align 8 dereferenceable(48) %call, i32 noundef %0, ptr noundef %1)
  ret void
}

; Function Attrs: mustprogress uwtable
define hidden void @_ZN7datalog7context13get_reachableEP9func_decl(ptr noalias sret(%class.obj_ref) align 8 %agg.result, ptr noundef nonnull align 8 dereferenceable(3556) %this, ptr noundef %pred) #4 align 2 {
entry:
  %result.ptr = alloca ptr, align 8
  %this.addr = alloca ptr, align 8
  %pred.addr = alloca ptr, align 8
  store ptr %agg.result, ptr %result.ptr, align 8
  store ptr %this, ptr %this.addr, align 8
  store ptr %pred, ptr %pred.addr, align 8
  %this1 = load ptr, ptr %this.addr, align 8
  call void @_ZN7datalog7context13ensure_engineEP4expr(ptr noundef nonnull align 8 dereferenceable(3556) %this1, ptr noundef null)
  %m_engine = getelementptr inbounds %"class.datalog::context", ptr %this1, i32 0, i32 35
  %call = call noundef ptr @_ZNK10scoped_ptrIN7datalog11engine_baseEEptEv(ptr noundef nonnull align 8 dereferenceable(8) %m_engine)
  %0 = load ptr, ptr %pred.addr, align 8
  %vtable = load ptr, ptr %call, align 8
  %vfn = getelementptr inbounds ptr, ptr %vtable, i64 11
  %1 = load ptr, ptr %vfn, align 8
  call void %1(ptr sret(%class.obj_ref) align 8 %agg.result, ptr noundef nonnull align 8 dereferenceable(48) %call, ptr noundef %0)
  ret void
}

; Function Attrs: mustprogress uwtable
define hidden void @_ZN7datalog7context9add_coverEiP9func_declP4expr(ptr noundef nonnull align 8 dereferenceable(3556) %this, i32 noundef %level, ptr noundef %pred, ptr noundef %property) #4 align 2 {
entry:
  %this.addr = alloca ptr, align 8
  %level.addr = alloca i32, align 4
  %pred.addr = alloca ptr, align 8
  %property.addr = alloca ptr, align 8
  store ptr %this, ptr %this.addr, align 8
  store i32 %level, ptr %level.addr, align 4
  store ptr %pred, ptr %pred.addr, align 8
  store ptr %property, ptr %property.addr, align 8
  %this1 = load ptr, ptr %this.addr, align 8
  call void @_ZN7datalog7context13ensure_engineEP4expr(ptr noundef nonnull align 8 dereferenceable(3556) %this1, ptr noundef null)
  %m_engine = getelementptr inbounds %"class.datalog::context", ptr %this1, i32 0, i32 35
  %call = call noundef ptr @_ZNK10scoped_ptrIN7datalog11engine_baseEEptEv(ptr noundef nonnull align 8 dereferenceable(8) %m_engine)
  %0 = load i32, ptr %level.addr, align 4
  %1 = load ptr, ptr %pred.addr, align 8
  %2 = load ptr, ptr %property.addr, align 8
  %vtable = load ptr, ptr %call, align 8
  %vfn = getelementptr inbounds ptr, ptr %vtable, i64 13
  %3 = load ptr, ptr %vfn, align 8
  call void %3(ptr noundef nonnull align 8 dereferenceable(48) %call, i32 noundef %0, ptr noundef %1, ptr noundef %2)
  ret void
}

; Function Attrs: mustprogress uwtable
define hidden void @_ZN7datalog7context13add_invariantEP9func_declP4expr(ptr noundef nonnull align 8 dereferenceable(3556) %this, ptr noundef %pred, ptr noundef %property) #4 align 2 {
entry:
  %this.addr = alloca ptr, align 8
  %pred.addr = alloca ptr, align 8
  %property.addr = alloca ptr, align 8
  store ptr %this, ptr %this.addr, align 8
  store ptr %pred, ptr %pred.addr, align 8
  store ptr %property, ptr %property.addr, align 8
  %this1 = load ptr, ptr %this.addr, align 8
  call void @_ZN7datalog7context13ensure_engineEP4expr(ptr noundef nonnull align 8 dereferenceable(3556) %this1, ptr noundef null)
  %m_engine = getelementptr inbounds %"class.datalog::context", ptr %this1, i32 0, i32 35
  %call = call noundef ptr @_ZNK10scoped_ptrIN7datalog11engine_baseEEptEv(ptr noundef nonnull align 8 dereferenceable(8) %m_engine)
  %0 = load ptr, ptr %pred.addr, align 8
  %1 = load ptr, ptr %property.addr, align 8
  %vtable = load ptr, ptr %call, align 8
  %vfn = getelementptr inbounds ptr, ptr %vtable, i64 14
  %2 = load ptr, ptr %vfn, align 8
  call void %2(ptr noundef nonnull align 8 dereferenceable(48) %call, ptr noundef %0, ptr noundef %1)
  ret void
}

; Function Attrs: mustprogress nounwind uwtable
define linkonce_odr hidden void @_ZN7datalog15rule_properties18set_generate_proofEb(ptr noundef nonnull align 8 dereferenceable(522) %this, i1 noundef zeroext %generate_proof) #5 comdat align 2 {
entry:
  %this.addr = alloca ptr, align 8
  %generate_proof.addr = alloca i8, align 1
  store ptr %this, ptr %this.addr, align 8
  %frombool = zext i1 %generate_proof to i8
  store i8 %frombool, ptr %generate_proof.addr, align 1
  %this1 = load ptr, ptr %this.addr, align 8
  %0 = load i8, ptr %generate_proof.addr, align 1
  %tobool = trunc i8 %0 to i1
  %m_generate_proof = getelementptr inbounds %"class.datalog::rule_properties", ptr %this1, i32 0, i32 10
  %frombool2 = zext i1 %tobool to i8
  store i8 %frombool2, ptr %m_generate_proof, align 8
  ret void
}

; Function Attrs: mustprogress uwtable
define linkonce_odr hidden noundef i32 @_ZN7datalog7context10get_engineEP4expr(ptr noundef nonnull align 8 dereferenceable(3556) %this, ptr noundef %e) #4 comdat align 2 {
entry:
  %this.addr = alloca ptr, align 8
  %e.addr = alloca ptr, align 8
  store ptr %this, ptr %this.addr, align 8
  store ptr %e, ptr %e.addr, align 8
  %this1 = load ptr, ptr %this.addr, align 8
  %0 = load ptr, ptr %e.addr, align 8
  call void @_ZN7datalog7context16configure_engineEP4expr(ptr noundef nonnull align 8 dereferenceable(3556) %this1, ptr noundef %0)
  %m_engine_type = getelementptr inbounds %"class.datalog::context", ptr %this1, i32 0, i32 43
  %1 = load i32, ptr %m_engine_type, align 8
  ret i32 %1
}

declare void @_ZN7datalog15rule_properties7collectERKNS_8rule_setE(ptr noundef nonnull align 8 dereferenceable(522), ptr noundef nonnull align 8 dereferenceable(248)) #1

declare void @_ZN7datalog15rule_properties21check_quantifier_freeEv(ptr noundef nonnull align 8 dereferenceable(522)) #1

declare void @_ZN7datalog15rule_properties24check_uninterpreted_freeEv(ptr noundef nonnull align 8 dereferenceable(522)) #1

declare void @_ZN7datalog15rule_properties17check_nested_freeEv(ptr noundef nonnull align 8 dereferenceable(522)) #1

declare void @_ZN7datalog15rule_properties20check_infinite_sortsEv(ptr noundef nonnull align 8 dereferenceable(522)) #1

declare void @_ZN7datalog15rule_properties21check_background_freeEv(ptr noundef nonnull align 8 dereferenceable(522)) #1

declare void @_ZN7datalog15rule_properties22check_existential_tailEv(ptr noundef nonnull align 8 dereferenceable(522)) #1

declare void @_ZN7datalog15rule_properties28check_for_negated_predicatesEv(ptr noundef nonnull align 8 dereferenceable(522)) #1

declare void @_ZN7datalog15rule_properties21check_quantifier_freeE15quantifier_kind(ptr noundef nonnull align 8 dereferenceable(522), i32 noundef) #1

; Function Attrs: mustprogress uwtable
define hidden void @_ZN7datalog7context8add_ruleER7obj_refINS_4ruleENS_12rule_managerEE(ptr noundef nonnull align 8 dereferenceable(3556) %this, ptr noundef nonnull align 8 dereferenceable(16) %r) #4 align 2 {
entry:
  %this.addr = alloca ptr, align 8
  %r.addr = alloca ptr, align 8
  store ptr %this, ptr %this.addr, align 8
  store ptr %r, ptr %r.addr, align 8
  %this1 = load ptr, ptr %this.addr, align 8
  %m_rule_set = getelementptr inbounds %"class.datalog::context", ptr %this1, i32 0, i32 23
  %0 = load ptr, ptr %r.addr, align 8
  %call = call noundef ptr @_ZNK7obj_refIN7datalog4ruleENS0_12rule_managerEEcvPS1_Ev(ptr noundef nonnull align 8 dereferenceable(16) %0)
  call void @_ZN7datalog8rule_set8add_ruleEPNS_4ruleE(ptr noundef nonnull align 8 dereferenceable(248) %m_rule_set, ptr noundef %call)
  ret void
}

declare void @_ZN7datalog8rule_set8add_ruleEPNS_4ruleE(ptr noundef nonnull align 8 dereferenceable(248), ptr noundef) #1

; Function Attrs: mustprogress uwtable
define hidden void @_ZN7datalog7context8add_factEP9func_declRKNS_13relation_factE(ptr noundef nonnull align 8 dereferenceable(3556) %this, ptr noundef %pred, ptr noundef nonnull align 8 dereferenceable(16) %fact) #4 align 2 personality ptr @__gxx_personality_v0 {
entry:
  %this.addr = alloca ptr, align 8
  %pred.addr = alloca ptr, align 8
  %fact.addr = alloca ptr, align 8
  %rule = alloca %class.obj_ref, align 8
  %exn.slot = alloca ptr, align 8
  %ehselector.slot = alloca i32, align 4
  store ptr %this, ptr %this.addr, align 8
  store ptr %pred, ptr %pred.addr, align 8
  store ptr %fact, ptr %fact.addr, align 8
  %this1 = load ptr, ptr %this.addr, align 8
  %call = call noundef i32 @_ZN7datalog7context10get_engineEP4expr(ptr noundef nonnull align 8 dereferenceable(3556) %this1, ptr noundef null)
  %cmp = icmp eq i32 %call, 0
  br i1 %cmp, label %if.then, label %if.else

if.then:                                          ; preds = %entry
  call void @_ZN7datalog7context13ensure_engineEP4expr(ptr noundef nonnull align 8 dereferenceable(3556) %this1, ptr noundef null)
  %m_rel = getelementptr inbounds %"class.datalog::context", ptr %this1, i32 0, i32 34
  %0 = load ptr, ptr %m_rel, align 8
  %1 = load ptr, ptr %pred.addr, align 8
  %2 = load ptr, ptr %fact.addr, align 8
  %vtable = load ptr, ptr %0, align 8
  %vfn = getelementptr inbounds ptr, ptr %vtable, i64 34
  %3 = load ptr, ptr %vfn, align 8
  call void %3(ptr noundef nonnull align 8 dereferenceable(48) %0, ptr noundef %1, ptr noundef nonnull align 8 dereferenceable(16) %2)
  br label %if.end

if.else:                                          ; preds = %entry
  %m = getelementptr inbounds %"class.datalog::context", ptr %this1, i32 0, i32 0
  %4 = load ptr, ptr %m, align 8
  %5 = load ptr, ptr %pred.addr, align 8
  %6 = load ptr, ptr %fact.addr, align 8
  %call2 = call noundef i32 @_ZNK15ref_vector_coreI3app19ref_manager_wrapperIS0_11ast_managerEE4sizeEv(ptr noundef nonnull align 8 dereferenceable(16) %6)
  %7 = load ptr, ptr %fact.addr, align 8
  %call3 = call noundef ptr @_ZNK15ref_vector_coreI3app19ref_manager_wrapperIS0_11ast_managerEE4dataEv(ptr noundef nonnull align 8 dereferenceable(16) %7)
  %call4 = call noundef ptr @_ZN11ast_manager6mk_appEP9func_decljPKP4expr(ptr noundef nonnull align 8 dereferenceable(976) %4, ptr noundef %5, i32 noundef %call2, ptr noundef %call3)
  %m5 = getelementptr inbounds %"class.datalog::context", ptr %this1, i32 0, i32 0
  %8 = load ptr, ptr %m5, align 8
  call void @_ZN7obj_refI4expr11ast_managerEC2EPS0_RS1_(ptr noundef nonnull align 8 dereferenceable(16) %rule, ptr noundef %call4, ptr noundef nonnull align 8 dereferenceable(976) %8)
  %call6 = invoke noundef ptr @_ZNK7obj_refI4expr11ast_managerEcvPS0_Ev(ptr noundef nonnull align 8 dereferenceable(16) %rule)
          to label %invoke.cont unwind label %lpad

invoke.cont:                                      ; preds = %if.else
  invoke void @_ZN7datalog7context8add_ruleEP4exprRK6symbolj(ptr noundef nonnull align 8 dereferenceable(3556) %this1, ptr noundef %call6, ptr noundef nonnull align 8 dereferenceable(8) @_ZN6symbol4nullE, i32 noundef -1)
          to label %invoke.cont7 unwind label %lpad

invoke.cont7:                                     ; preds = %invoke.cont
  call void @_ZN7obj_refI4expr11ast_managerED2Ev(ptr noundef nonnull align 8 dereferenceable(16) %rule) #3
  br label %if.end

lpad:                                             ; preds = %invoke.cont, %if.else
  %9 = landingpad { ptr, i32 }
          cleanup
  %10 = extractvalue { ptr, i32 } %9, 0
  store ptr %10, ptr %exn.slot, align 8
  %11 = extractvalue { ptr, i32 } %9, 1
  store i32 %11, ptr %ehselector.slot, align 4
  call void @_ZN7obj_refI4expr11ast_managerED2Ev(ptr noundef nonnull align 8 dereferenceable(16) %rule) #3
  br label %eh.resume

if.end:                                           ; preds = %invoke.cont7, %if.then
  ret void

eh.resume:                                        ; preds = %lpad
  %exn = load ptr, ptr %exn.slot, align 8
  %sel = load i32, ptr %ehselector.slot, align 4
  %lpad.val = insertvalue { ptr, i32 } poison, ptr %exn, 0
  %lpad.val8 = insertvalue { ptr, i32 } %lpad.val, i32 %sel, 1
  resume { ptr, i32 } %lpad.val8
}

declare noundef ptr @_ZN11ast_manager6mk_appEP9func_decljPKP4expr(ptr noundef nonnull align 8 dereferenceable(976), ptr noundef, i32 noundef, ptr noundef) #1

; Function Attrs: mustprogress nounwind uwtable
define linkonce_odr hidden noundef i32 @_ZNK15ref_vector_coreI3app19ref_manager_wrapperIS0_11ast_managerEE4sizeEv(ptr noundef nonnull align 8 dereferenceable(16) %this) #5 comdat align 2 {
entry:
  %this.addr = alloca ptr, align 8
  store ptr %this, ptr %this.addr, align 8
  %this1 = load ptr, ptr %this.addr, align 8
  %m_nodes = getelementptr inbounds %class.ref_vector_core.5, ptr %this1, i32 0, i32 1
  %call = call noundef i32 @_ZNK6vectorIP3appLb0EjE4sizeEv(ptr noundef nonnull align 8 dereferenceable(8) %m_nodes)
  ret i32 %call
}

; Function Attrs: mustprogress nounwind uwtable
define linkonce_odr hidden noundef ptr @_ZNK15ref_vector_coreI3app19ref_manager_wrapperIS0_11ast_managerEE4dataEv(ptr noundef nonnull align 8 dereferenceable(16) %this) #5 comdat align 2 {
entry:
  %this.addr = alloca ptr, align 8
  store ptr %this, ptr %this.addr, align 8
  %this1 = load ptr, ptr %this.addr, align 8
  %m_nodes = getelementptr inbounds %class.ref_vector_core.5, ptr %this1, i32 0, i32 1
  %call = call noundef ptr @_ZNK6vectorIP3appLb0EjE4dataEv(ptr noundef nonnull align 8 dereferenceable(8) %m_nodes)
  ret ptr %call
}

; Function Attrs: mustprogress nounwind uwtable
define linkonce_odr hidden noundef ptr @_ZNK7obj_refI4expr11ast_managerEcvPS0_Ev(ptr noundef nonnull align 8 dereferenceable(16) %this) #5 comdat align 2 {
entry:
  %this.addr = alloca ptr, align 8
  store ptr %this, ptr %this.addr, align 8
  %this1 = load ptr, ptr %this.addr, align 8
  %m_obj = getelementptr inbounds %class.obj_ref, ptr %this1, i32 0, i32 0
  %0 = load ptr, ptr %m_obj, align 8
  ret ptr %0
}

; Function Attrs: mustprogress uwtable
define hidden void @_ZN7datalog7context8add_factEP3app(ptr noundef nonnull align 8 dereferenceable(3556) %this, ptr noundef %head) #4 align 2 personality ptr @__gxx_personality_v0 {
entry:
  %this.addr = alloca ptr, align 8
  %head.addr = alloca ptr, align 8
  %fact = alloca %"class.datalog::relation_fact", align 8
  %n = alloca i32, align 4
  %exn.slot = alloca ptr, align 8
  %ehselector.slot = alloca i32, align 4
  %i = alloca i32, align 4
  store ptr %this, ptr %this.addr, align 8
  store ptr %head, ptr %head.addr, align 8
  %this1 = load ptr, ptr %this.addr, align 8
  %call = call noundef nonnull align 8 dereferenceable(976) ptr @_ZNK7datalog7context11get_managerEv(ptr noundef nonnull align 8 dereferenceable(3556) %this1)
  call void @_ZN7datalog13relation_factC2ER11ast_manager(ptr noundef nonnull align 8 dereferenceable(16) %fact, ptr noundef nonnull align 8 dereferenceable(976) %call)
  %0 = load ptr, ptr %head.addr, align 8
  %call2 = invoke noundef i32 @_ZNK3app12get_num_argsEv(ptr noundef nonnull align 8 dereferenceable(32) %0)
          to label %invoke.cont unwind label %lpad

invoke.cont:                                      ; preds = %entry
  store i32 %call2, ptr %n, align 4
  store i32 0, ptr %i, align 4
  br label %for.cond

for.cond:                                         ; preds = %for.inc, %invoke.cont
  %1 = load i32, ptr %i, align 4
  %2 = load i32, ptr %n, align 4
  %cmp = icmp ult i32 %1, %2
  br i1 %cmp, label %for.body, label %for.end

for.body:                                         ; preds = %for.cond
  %3 = load ptr, ptr %head.addr, align 8
  %4 = load i32, ptr %i, align 4
  %call4 = invoke noundef ptr @_ZNK3app7get_argEj(ptr noundef nonnull align 8 dereferenceable(32) %3, i32 noundef %4)
          to label %invoke.cont3 unwind label %lpad

invoke.cont3:                                     ; preds = %for.body
  %call6 = invoke noundef ptr @_Z6to_appP3ast(ptr noundef %call4)
          to label %invoke.cont5 unwind label %lpad

invoke.cont5:                                     ; preds = %invoke.cont3
  %call8 = invoke noundef nonnull align 8 dereferenceable(16) ptr @_ZN15ref_vector_coreI3app19ref_manager_wrapperIS0_11ast_managerEE9push_backEPS0_(ptr noundef nonnull align 8 dereferenceable(16) %fact, ptr noundef %call6)
          to label %invoke.cont7 unwind label %lpad

invoke.cont7:                                     ; preds = %invoke.cont5
  br label %for.inc

for.inc:                                          ; preds = %invoke.cont7
  %5 = load i32, ptr %i, align 4
  %inc = add i32 %5, 1
  store i32 %inc, ptr %i, align 4
  br label %for.cond, !llvm.loop !10

lpad:                                             ; preds = %invoke.cont9, %for.end, %invoke.cont5, %invoke.cont3, %for.body, %entry
  %6 = landingpad { ptr, i32 }
          cleanup
  %7 = extractvalue { ptr, i32 } %6, 0
  store ptr %7, ptr %exn.slot, align 8
  %8 = extractvalue { ptr, i32 } %6, 1
  store i32 %8, ptr %ehselector.slot, align 4
  call void @_ZN7datalog13relation_factD2Ev(ptr noundef nonnull align 8 dereferenceable(16) %fact) #3
  br label %eh.resume

for.end:                                          ; preds = %for.cond
  %9 = load ptr, ptr %head.addr, align 8
  %call10 = invoke noundef ptr @_ZNK3app8get_declEv(ptr noundef nonnull align 8 dereferenceable(32) %9)
          to label %invoke.cont9 unwind label %lpad

invoke.cont9:                                     ; preds = %for.end
  invoke void @_ZN7datalog7context8add_factEP9func_declRKNS_13relation_factE(ptr noundef nonnull align 8 dereferenceable(3556) %this1, ptr noundef %call10, ptr noundef nonnull align 8 dereferenceable(16) %fact)
          to label %invoke.cont11 unwind label %lpad

invoke.cont11:                                    ; preds = %invoke.cont9
  call void @_ZN7datalog13relation_factD2Ev(ptr noundef nonnull align 8 dereferenceable(16) %fact) #3
  ret void

eh.resume:                                        ; preds = %lpad
  %exn = load ptr, ptr %exn.slot, align 8
  %sel = load i32, ptr %ehselector.slot, align 4
  %lpad.val = insertvalue { ptr, i32 } poison, ptr %exn, 0
  %lpad.val12 = insertvalue { ptr, i32 } %lpad.val, i32 %sel, 1
  resume { ptr, i32 } %lpad.val12
}

; Function Attrs: mustprogress nounwind uwtable
define linkonce_odr hidden noundef nonnull align 8 dereferenceable(976) ptr @_ZNK7datalog7context11get_managerEv(ptr noundef nonnull align 8 dereferenceable(3556) %this) #5 comdat align 2 {
entry:
  %this.addr = alloca ptr, align 8
  store ptr %this, ptr %this.addr, align 8
  %this1 = load ptr, ptr %this.addr, align 8
  %m = getelementptr inbounds %"class.datalog::context", ptr %this1, i32 0, i32 0
  %0 = load ptr, ptr %m, align 8
  ret ptr %0
}

; Function Attrs: mustprogress uwtable
define linkonce_odr hidden void @_ZN7datalog13relation_factC2ER11ast_manager(ptr noundef nonnull align 8 dereferenceable(16) %this, ptr noundef nonnull align 8 dereferenceable(976) %m) unnamed_addr #4 comdat align 2 {
entry:
  %this.addr = alloca ptr, align 8
  %m.addr = alloca ptr, align 8
  store ptr %this, ptr %this.addr, align 8
  store ptr %m, ptr %m.addr, align 8
  %this1 = load ptr, ptr %this.addr, align 8
  %0 = load ptr, ptr %m.addr, align 8
  call void @_ZN10ref_vectorI3app11ast_managerEC2ERS1_(ptr noundef nonnull align 8 dereferenceable(16) %this1, ptr noundef nonnull align 8 dereferenceable(976) %0)
  ret void
}

; Function Attrs: mustprogress nounwind uwtable
define linkonce_odr hidden noundef i32 @_ZNK3app12get_num_argsEv(ptr noundef nonnull align 8 dereferenceable(32) %this) #5 comdat align 2 {
entry:
  %this.addr = alloca ptr, align 8
  store ptr %this, ptr %this.addr, align 8
  %this1 = load ptr, ptr %this.addr, align 8
  %m_num_args = getelementptr inbounds %class.app, ptr %this1, i32 0, i32 2
  %0 = load i32, ptr %m_num_args, align 8
  ret i32 %0
}

; Function Attrs: mustprogress uwtable
define linkonce_odr hidden noundef nonnull align 8 dereferenceable(16) ptr @_ZN15ref_vector_coreI3app19ref_manager_wrapperIS0_11ast_managerEE9push_backEPS0_(ptr noundef nonnull align 8 dereferenceable(16) %this, ptr noundef %n) #4 comdat align 2 {
entry:
  %this.addr = alloca ptr, align 8
  %n.addr = alloca ptr, align 8
  store ptr %this, ptr %this.addr, align 8
  store ptr %n, ptr %n.addr, align 8
  %this1 = load ptr, ptr %this.addr, align 8
  %0 = load ptr, ptr %n.addr, align 8
  call void @_ZN15ref_vector_coreI3app19ref_manager_wrapperIS0_11ast_managerEE7inc_refEPS0_(ptr noundef nonnull align 8 dereferenceable(16) %this1, ptr noundef %0)
  %m_nodes = getelementptr inbounds %class.ref_vector_core.5, ptr %this1, i32 0, i32 1
  %call = call noundef nonnull align 8 dereferenceable(8) ptr @_ZN6vectorIP3appLb0EjE9push_backERKS1_(ptr noundef nonnull align 8 dereferenceable(8) %m_nodes, ptr noundef nonnull align 8 dereferenceable(8) %n.addr)
  ret ptr %this1
}

; Function Attrs: mustprogress nounwind uwtable
define linkonce_odr hidden noundef ptr @_Z6to_appP3ast(ptr noundef %n) #5 comdat {
entry:
  %n.addr = alloca ptr, align 8
  store ptr %n, ptr %n.addr, align 8
  %0 = load ptr, ptr %n.addr, align 8
  ret ptr %0
}

; Function Attrs: mustprogress nounwind uwtable
define linkonce_odr hidden noundef ptr @_ZNK3app7get_argEj(ptr noundef nonnull align 8 dereferenceable(32) %this, i32 noundef %idx) #5 comdat align 2 {
entry:
  %this.addr = alloca ptr, align 8
  %idx.addr = alloca i32, align 4
  store ptr %this, ptr %this.addr, align 8
  store i32 %idx, ptr %idx.addr, align 4
  %this1 = load ptr, ptr %this.addr, align 8
  %m_args = getelementptr inbounds %class.app, ptr %this1, i32 0, i32 3
  %0 = load i32, ptr %idx.addr, align 4
  %idxprom = zext i32 %0 to i64
  %arrayidx = getelementptr inbounds [0 x ptr], ptr %m_args, i64 0, i64 %idxprom
  %1 = load ptr, ptr %arrayidx, align 8
  ret ptr %1
}

; Function Attrs: mustprogress nounwind uwtable
define linkonce_odr hidden noundef ptr @_ZNK3app8get_declEv(ptr noundef nonnull align 8 dereferenceable(32) %this) #5 comdat align 2 {
entry:
  %this.addr = alloca ptr, align 8
  store ptr %this, ptr %this.addr, align 8
  %this1 = load ptr, ptr %this.addr, align 8
  %m_decl = getelementptr inbounds %class.app, ptr %this1, i32 0, i32 1
  %0 = load ptr, ptr %m_decl, align 8
  ret ptr %0
}

; Function Attrs: mustprogress nounwind uwtable
