target datalayout = "e-m:e-p270:32:32-p271:32:32-p272:64:64-i64:64-i128:128-f80:128-n8:16:32:64-S128"
target triple = "x86_64-unknown-linux-gnu"

%"class.std::ios_base::Init" = type { i8 }
%class.rational = type { %class.mpq }
%class.mpq = type { %class.mpz, %class.mpz }
%class.mpz = type { i32, i8, ptr }
%class.symbol = type { ptr }
%"class.datalog::interval_relation_plugin" = type { %"class.datalog::relation_plugin.base", %class.scoped_dependency_manager, %class.old_interval, %class.arith_util }
%"class.datalog::relation_plugin.base" = type <{ %"class.datalog::tr_infrastructure<datalog::relation_traits>::plugin_object", i32 }>
%"class.datalog::tr_infrastructure<datalog::relation_traits>::plugin_object" = type { ptr, i32, %class.symbol, ptr }
%class.scoped_dependency_manager = type { %"class.scoped_dependency_manager<void *>::config::value_manager", %"class.scoped_dependency_manager<void *>::config::allocator", %class.dependency_manager }
%"class.scoped_dependency_manager<void *>::config::value_manager" = type { i8 }
%"class.scoped_dependency_manager<void *>::config::allocator" = type { %class.region }
%class.region = type { ptr, ptr, ptr, ptr, ptr }
%class.dependency_manager = type { ptr, ptr, %class.ptr_vector }
%class.ptr_vector = type { %class.vector }
%class.vector = type { ptr }
%class.old_interval = type { ptr, %class.ext_numeral, %class.ext_numeral, i8, i8, ptr, ptr }
%class.ext_numeral = type { i32, %class.rational }
%class.arith_util = type { ptr, ptr }
%"class.datalog::relation_plugin" = type <{ %"class.datalog::tr_infrastructure<datalog::relation_traits>::plugin_object", i32, [4 x i8] }>
%class.vector.63 = type { ptr }
%"class.datalog::tr_infrastructure<datalog::relation_traits>::base_ancestor" = type <{ ptr, ptr, %"class.datalog::relation_signature", i32, [4 x i8] }>
%"class.datalog::relation_signature" = type { %"class.datalog::tr_infrastructure<datalog::relation_traits>::signature_base" }
%"class.datalog::tr_infrastructure<datalog::relation_traits>::signature_base" = type { %class.ptr_vector.62 }
%class.ptr_vector.62 = type { %class.vector.63 }
%"class.datalog::interval_relation_plugin::union_fn" = type <{ %"class.datalog::tr_infrastructure<datalog::relation_traits>::union_fn", i8, [7 x i8] }>
%"class.datalog::tr_infrastructure<datalog::relation_traits>::union_fn" = type { %"class.datalog::tr_infrastructure<datalog::relation_traits>::base_fn" }
%"class.datalog::tr_infrastructure<datalog::relation_traits>::base_fn" = type { ptr }
%"class.datalog::interval_relation_plugin::filter_identical_fn" = type { %"class.datalog::tr_infrastructure<datalog::relation_traits>::mutator_fn", %class.svector.50 }
%"class.datalog::tr_infrastructure<datalog::relation_traits>::mutator_fn" = type { %"class.datalog::tr_infrastructure<datalog::relation_traits>::base_fn" }
%class.svector.50 = type { %class.vector.51 }
%class.vector.51 = type { ptr }
%"class.datalog::interval_relation_plugin::filter_equal_fn" = type { %"class.datalog::tr_infrastructure<datalog::relation_traits>::mutator_fn", i32, %class.rational }
%"class.datalog::interval_relation_plugin::filter_interpreted_fn" = type { %"class.datalog::tr_infrastructure<datalog::relation_traits>::mutator_fn", %class.obj_ref }
%class.obj_ref = type { ptr, ptr }
%"class.datalog::vector_relation" = type { %"class.datalog::relation_base.base", %class.old_interval, ptr, i8, %class.union_find_default_ctx, ptr }
%"class.datalog::relation_base.base" = type { %"class.datalog::tr_infrastructure<datalog::relation_traits>::base_ancestor.base" }
%"class.datalog::tr_infrastructure<datalog::relation_traits>::base_ancestor.base" = type <{ ptr, ptr, %"class.datalog::relation_signature", i32 }>
%class.union_find_default_ctx = type { %class.trail_stack }
%class.trail_stack = type { %class.ptr_vector.64, %class.svector.50, %class.region }
%class.ptr_vector.64 = type { %class.vector.65 }
%class.vector.65 = type { ptr }
%"class.datalog::interval_relation" = type { %"class.datalog::vector_relation" }
%class.ref_vector_core = type { %class.ref_manager_wrapper, %class.ptr_vector.66 }
%class.ref_manager_wrapper = type { ptr }
%class.ptr_vector.66 = type { %class.vector.67 }
%class.vector.67 = type { ptr }
%class.map.193 = type { %class.table2map.194 }
%class.table2map.194 = type { %class.core_hashtable.195 }
%class.core_hashtable.195 = type <{ %"struct.table2map<default_map_entry<std::pair<unsigned int, unsigned int>, unsigned int>, pair_hash<unsigned_hash, unsigned_hash>, default_eq<std::pair<unsigned int, unsigned int>>>::entry_hash_proc", [6 x i8], ptr, i32, i32, i32, [4 x i8] }>
%"struct.table2map<default_map_entry<std::pair<unsigned int, unsigned int>, unsigned int>, pair_hash<unsigned_hash, unsigned_hash>, default_eq<std::pair<unsigned int, unsigned int>>>::entry_hash_proc" = type { %struct.pair_hash }
%struct.pair_hash = type { i8, %struct.unsigned_hash }
%struct.unsigned_hash = type { i8 }
%struct.default_eq.196 = type { i8 }
%class.bit_vector = type { i32, i32, ptr }
%"struct.std::pair" = type { i32, i32 }
%class.ref_vector.68 = type { %class.ref_vector_core.69 }
%class.ref_vector_core.69 = type { %class.ref_manager_wrapper.70, %class.ptr_vector.71 }
%class.ref_manager_wrapper.70 = type { ptr }
%class.ptr_vector.71 = type { %class.vector.72 }
%class.vector.72 = type { ptr }
%class.obj_ref.73 = type { ptr, ptr }
%class.bool_rewriter = type { ptr, i8, i8, i8, i8, i8, i8, i32, i8, i32, i32, i8, %class.ptr_vector.71, %class.ptr_vector.71, %class.svector.50, %class.svector.50 }
%class.params_ref = type { ptr }
%class.ast_manager = type { %class.reslimit, %class.small_object_allocator, %class.family_manager, %class.parray_manager, %class.dependency_manager.36, %class.parray_manager.39, %class.ptr_vector.42, i32, i8, %class.ast_table, %class.obj_map.45, %class.id_gen, %class.id_gen, ptr, ptr, ptr, ptr, ptr, i32, i8, [3 x i8], %class.u_map.52, ptr, i8, i8, ptr, %class.symbol, %class.obj_map.57, ptr }
%class.reslimit = type { %"struct.std::atomic", i8, i64, i64, %class.svector, %class.ptr_vector.25 }
%"struct.std::atomic" = type { %"struct.std::__atomic_base" }
%"struct.std::__atomic_base" = type { i32 }
%class.svector = type { %class.vector.24 }
%class.vector.24 = type { ptr }
%class.ptr_vector.25 = type { %class.vector.26 }
%class.vector.26 = type { ptr }
%class.small_object_allocator = type { [32 x ptr], [32 x ptr], i64 }
%class.family_manager = type { i32, %class.symbol_table, %class.svector.32 }
%class.symbol_table = type { %class.core_hashtable.27, %class.vector.29, %class.svector.30 }
%class.core_hashtable.27 = type <{ ptr, i32, i32, i32, [4 x i8] }>
%class.vector.29 = type { ptr }
%class.svector.30 = type { %class.vector.31 }
%class.vector.31 = type { ptr }
%class.svector.32 = type { %class.vector.33 }
%class.vector.33 = type { ptr }
%class.parray_manager = type { ptr, ptr, %class.ptr_vector.34, %class.ptr_vector.34 }
%class.ptr_vector.34 = type { %class.vector.35 }
%class.vector.35 = type { ptr }
%class.dependency_manager.36 = type { ptr, ptr, %class.ptr_vector.37 }
%class.ptr_vector.37 = type { %class.vector.38 }
%class.vector.38 = type { ptr }
%class.parray_manager.39 = type { ptr, ptr, %class.ptr_vector.40, %class.ptr_vector.40 }
%class.ptr_vector.40 = type { %class.vector.41 }
%class.vector.41 = type { ptr }
%class.ptr_vector.42 = type { %class.vector.43 }
%class.vector.43 = type { ptr }
%class.ast_table = type { %class.chashtable }
%class.chashtable = type { ptr, i32, i32, i32, i32, i32, i32, i32, ptr, ptr, ptr }
%class.obj_map.45 = type { %class.core_hashtable.46 }
%class.core_hashtable.46 = type <{ ptr, i32, i32, i32, [4 x i8] }>
%class.id_gen = type { i32, %class.svector.50 }
%class.u_map.52 = type { %class.map.53 }
%class.map.53 = type { %class.table2map.54 }
%class.table2map.54 = type { %class.core_hashtable.55 }
%class.core_hashtable.55 = type <{ ptr, i32, i32, i32, [4 x i8] }>
%class.obj_map.57 = type { %class.core_hashtable.58 }
%class.core_hashtable.58 = type <{ ptr, i32, i32, i32, [4 x i8] }>
%class.var = type { %class.expr, i32, ptr }
%class.expr = type { %class.ast }
%class.ast = type { i32, i24, i32, i32 }
%class.app = type { %class.expr, ptr, i32, [0 x ptr] }
%class.decl = type { %class.ast, %class.symbol, ptr }
%class.decl_info = type <{ i32, i32, %class.vector.74, i8, [7 x i8] }>
%class.vector.74 = type { ptr }
%"class.datalog::tr_infrastructure<datalog::relation_traits>::convenient_join_fn" = type { %"class.datalog::tr_infrastructure<datalog::relation_traits>::join_fn", %"class.datalog::relation_signature", %class.svector.50, %class.svector.50 }
%"class.datalog::tr_infrastructure<datalog::relation_traits>::join_fn" = type { %"class.datalog::tr_infrastructure<datalog::relation_traits>::base_fn" }
%"class.std::__cxx11::basic_string" = type { %"struct.std::__cxx11::basic_string<char>::_Alloc_hider", i64, %union.anon }
%"struct.std::__cxx11::basic_string<char>::_Alloc_hider" = type { ptr }
%union.anon = type { i64, [8 x i8] }
%"class.std::allocator" = type { i8 }
%class.default_exception = type { %class.z3_exception, %"class.std::__cxx11::basic_string" }
%class.z3_exception = type { ptr }
%struct._Guard = type { ptr }
%"class.union_find<>::merge_trail" = type <{ %class.trail, ptr, i32, [4 x i8] }>
%class.trail = type { ptr }
%class.union_find = type { ptr, ptr, %class.svector.50, %class.svector.50, %class.svector.50, %"class.union_find<>::mk_var_trail" }
%"class.union_find<>::mk_var_trail" = type { %class.trail, ptr }
%"class.datalog::tr_infrastructure<datalog::relation_traits>::convenient_project_fn" = type { %"class.datalog::tr_infrastructure<datalog::relation_traits>::convenient_transformer_fn", %class.svector.50 }
%"class.datalog::tr_infrastructure<datalog::relation_traits>::convenient_transformer_fn" = type { %"class.datalog::tr_infrastructure<datalog::relation_traits>::transformer_fn", %"class.datalog::relation_signature" }
%"class.datalog::tr_infrastructure<datalog::relation_traits>::transformer_fn" = type { %"class.datalog::tr_infrastructure<datalog::relation_traits>::base_fn" }
%"class.datalog::tr_infrastructure<datalog::relation_traits>::convenient_rename_fn" = type { %"class.datalog::tr_infrastructure<datalog::relation_traits>::convenient_transformer_fn", %class.svector.50 }
%class.vector.75 = type { ptr }
%"class.datalog::relation_manager" = type { ptr, ptr, %class.ptr_vector.0, %class.ptr_vector.2, %class.map, %class.map.4, %class.u_map, ptr, ptr, %class.obj_map, %class.obj_hashtable, i32, i32, %class.obj_map.19 }
%class.ptr_vector.0 = type { %class.vector.1 }
%class.vector.1 = type { ptr }
%class.ptr_vector.2 = type { %class.vector.3 }
%class.vector.3 = type { ptr }
%class.map = type { %class.table2map }
%class.table2map = type { %class.core_hashtable }
%class.core_hashtable = type <{ ptr, i32, i32, i32, [4 x i8] }>
%class.map.4 = type { %class.table2map.5 }
%class.table2map.5 = type { %class.core_hashtable.6 }
%class.core_hashtable.6 = type <{ ptr, i32, i32, i32, [4 x i8] }>
%class.u_map = type { %class.map.10 }
%class.map.10 = type { %class.table2map.11 }
%class.table2map.11 = type { %class.core_hashtable.12 }
%class.core_hashtable.12 = type <{ ptr, i32, i32, i32, [4 x i8] }>
%class.obj_map = type { %class.core_hashtable.14 }
%class.core_hashtable.14 = type <{ ptr, i32, i32, i32, [4 x i8] }>
%class.obj_hashtable = type { %class.core_hashtable.base.18, [4 x i8] }
%class.core_hashtable.base.18 = type <{ ptr, i32, i32, i32 }>
%class.obj_map.19 = type { %class.core_hashtable.20 }
%class.core_hashtable.20 = type <{ ptr, i32, i32, i32, [4 x i8] }>
%"class.datalog::context" = type <{ ptr, ptr, ptr, %class.params_ref, ptr, i8, i8, [6 x i8], %class.symbol, %"class.datalog::dl_decl_util", %class.th_rewriter, %class.var_subst, %"class.datalog::rule_manager", %"class.datalog::context::contains_pred", %"class.datalog::rule_properties", %"class.datalog::rule_transformer", %class.trail_stack, %class.ref_vector.123, %class.bind_variables, %class.obj_map.157, %class.obj_hashtable, %class.map.162, %class.obj_map.166, %"class.datalog::rule_set", %"class.datalog::rule_set", %class.expr_free_vars, i32, [4 x i8], %class.ref_vector.68, %class.svector.32, %class.vector.190, %class.ref_vector.68, %class.ref, %class.ref.191, ptr, %class.scoped_ptr.192, i8, i8, i8, i8, i32, %class.obj_ref.73, %class.obj_ref.73, i32, [4 x i8] }>
%"class.datalog::dl_decl_util" = type <{ ptr, %class.scoped_ptr, %class.scoped_ptr.76, i32, [4 x i8] }>
%class.scoped_ptr = type { ptr }
%class.scoped_ptr.76 = type { ptr }
%class.th_rewriter = type { ptr, %class.params_ref }
%class.var_subst = type { %class.beta_reducer, i8, [7 x i8] }
%class.beta_reducer = type <{ %class.rewriter_tpl, %struct.beta_reducer_cfg, [7 x i8] }>
%class.rewriter_tpl = type { %class.rewriter_core, ptr, i32, %class.ptr_vector.71, %class.var_shifter, %class.inv_var_shifter, %class.obj_ref.73, %class.obj_ref, %class.obj_ref, %class.svector.50 }
%class.rewriter_core = type { ptr, ptr, i8, i8, %class.ptr_vector.77, ptr, %class.svector.79, %class.ref_vector.68, %class.ptr_vector.77, ptr, %class.ref_vector, %class.obj_hashtable.81, ptr, i32, %class.svector.87 }
%class.svector.79 = type { %class.vector.80 }
%class.vector.80 = type { ptr }
%class.ptr_vector.77 = type { %class.vector.78 }
%class.vector.78 = type { ptr }
%class.ref_vector = type { %class.ref_vector_core }
%class.obj_hashtable.81 = type { %class.core_hashtable.base.85, [4 x i8] }
%class.core_hashtable.base.85 = type <{ ptr, i32, i32, i32 }>
%class.svector.87 = type { %class.vector.88 }
%class.vector.88 = type { ptr }
%class.var_shifter = type <{ %class.var_shifter_core, i32, i32, i32, [4 x i8] }>
%class.var_shifter_core = type { %class.rewriter_core }
%class.inv_var_shifter = type <{ %class.var_shifter_core, i32, [4 x i8] }>
%struct.beta_reducer_cfg = type { i8 }
%"class.datalog::rule_manager" = type { ptr, ptr, %"class.datalog::rule_counter", %class.used_vars, %class.uint_set, %class.expr_free_vars, %class.ref_vector, %class.obj_ref, %class.ref_vector.68, %class.svector.100, %class.hnf, %class.qe_lite, %class.label_rewriter, %"struct.datalog::uninterpreted_function_finder_proc", %"struct.datalog::quantifier_finder_proc", [5 x i8], %class.expr_sparse_mark, %"struct.datalog::fd_finder_proc" }
%"class.datalog::rule_counter" = type { %class.var_counter }
%class.var_counter = type { %class.counter, %class.ast_fast_mark, %class.expr_free_vars, %class.ptr_vector.71, %class.svector.50 }
%class.counter = type { %class.u_map.89 }
%class.u_map.89 = type { %class.map.90 }
%class.map.90 = type { %class.table2map.91 }
%class.table2map.91 = type { %class.core_hashtable.92 }
%class.core_hashtable.92 = type <{ ptr, i32, i32, i32, [4 x i8] }>
%class.ast_fast_mark = type { %class.ptr_buffer }
%class.ptr_buffer = type { %class.buffer }
%class.buffer = type { ptr, i32, i32, [16 x %"union.std::aligned_storage<8, 8>::type"] }
%"union.std::aligned_storage<8, 8>::type" = type { [8 x i8] }
%class.used_vars = type { %class.ptr_vector.62, %class.hashtable, %class.svector.98, i32, i32 }
%class.hashtable = type { %class.core_hashtable.base.97, [4 x i8] }
%class.core_hashtable.base.97 = type <{ ptr, i32, i32, i32 }>
%class.svector.98 = type { %class.vector.99 }
%class.vector.99 = type { ptr }
%class.uint_set = type { %class.svector.50 }
%class.svector.100 = type { %class.vector.101 }
%class.vector.101 = type { ptr }
%class.hnf = type { ptr }
%class.qe_lite = type { ptr }
%class.label_rewriter = type { i32, %class.rewriter_tpl.102 }
%class.rewriter_tpl.102 = type { %class.rewriter_core, ptr, i32, %class.ptr_vector.71, %class.var_shifter, %class.inv_var_shifter, %class.obj_ref.73, %class.obj_ref, %class.obj_ref, %class.svector.50 }
%"struct.datalog::uninterpreted_function_finder_proc" = type { ptr, %"class.datatype::util", %"class.datalog::dl_decl_util", i8, ptr }
%"class.datatype::util" = type { ptr, i32, ptr, %class.obj_map.103, %class.obj_map.108, %class.obj_map.113, %class.obj_map.57, %class.obj_map.57, %class.obj_map.57, %class.obj_map.118, %class.obj_map.118, %class.obj_map.118, %class.ref_vector.123, %class.ref_vector_core.128, %class.ptr_vector.131, i32, %class.ptr_vector.62 }
%class.obj_map.103 = type { %class.core_hashtable.104 }
%class.core_hashtable.104 = type <{ ptr, i32, i32, i32, [4 x i8] }>
%class.obj_map.108 = type { %class.core_hashtable.109 }
%class.core_hashtable.109 = type <{ ptr, i32, i32, i32, [4 x i8] }>
%class.obj_map.113 = type { %class.core_hashtable.114 }
%class.core_hashtable.114 = type <{ ptr, i32, i32, i32, [4 x i8] }>
%class.obj_map.118 = type { %class.core_hashtable.119 }
%class.core_hashtable.119 = type <{ ptr, i32, i32, i32, [4 x i8] }>
%class.ref_vector_core.128 = type { %class.ptr_vector.129 }
%class.ptr_vector.129 = type { %class.vector.130 }
%class.vector.130 = type { ptr }
%class.ptr_vector.131 = type { %class.vector.132 }
%class.vector.132 = type { ptr }
%"struct.datalog::quantifier_finder_proc" = type { i8, i8, i8 }
%class.expr_sparse_mark = type { %class.obj_hashtable.81 }
%"struct.datalog::fd_finder_proc" = type <{ ptr, %class.bv_util, i8, [7 x i8] }>
%class.bv_util = type { %class.bv_recognizers, ptr, ptr }
%class.bv_recognizers = type { i32 }
%"class.datalog::context::contains_pred" = type { %class.i_expr_pred, ptr }
%class.i_expr_pred = type { ptr }
%"class.datalog::rule_properties" = type <{ ptr, ptr, ptr, ptr, %"class.datatype::util", %"class.datalog::dl_decl_util", %class.arith_util, %class.bv_util, %class.array_util, %"class.recfun::util", i8, [7 x i8], ptr, %class.obj_map.133, %class.obj_map.138, %class.ptr_vector.143, %class.ptr_vector.143, %class.ptr_vector.143, i8, i8, [6 x i8] }>
%class.array_util = type { %class.array_recognizers, ptr }
%class.array_recognizers = type { i32 }
%"class.recfun::util" = type { ptr, i32, ptr }
%class.obj_map.133 = type { %class.core_hashtable.134 }
%class.core_hashtable.134 = type <{ ptr, i32, i32, i32, [4 x i8] }>
%class.obj_map.138 = type { %class.core_hashtable.139 }
%class.core_hashtable.139 = type <{ ptr, i32, i32, i32, [4 x i8] }>
%class.ptr_vector.143 = type { %class.vector.144 }
%class.vector.144 = type { ptr }
%"class.datalog::rule_transformer" = type { ptr, ptr, i8, %class.svector.145 }
%class.svector.145 = type { %class.vector.146 }
%class.vector.146 = type { ptr }
%class.ref_vector.123 = type { %class.ref_vector_core.124 }
%class.ref_vector_core.124 = type { %class.ref_manager_wrapper.125, %class.ptr_vector.126 }
%class.ref_manager_wrapper.125 = type { ptr }
%class.ptr_vector.126 = type { %class.vector.127 }
%class.vector.127 = type { ptr }
%class.bind_variables = type { ptr, %class.ref_vector, %class.obj_map.147, %class.obj_map.152, %class.ref_vector.68, %class.ptr_vector.62, %class.svector.32, %class.ptr_vector.71, %class.ptr_vector.71 }
%class.obj_map.147 = type { %class.core_hashtable.148 }
%class.core_hashtable.148 = type <{ ptr, i32, i32, i32, [4 x i8] }>
%class.obj_map.152 = type { %class.core_hashtable.153 }
%class.core_hashtable.153 = type <{ ptr, i32, i32, i32, [4 x i8] }>
%class.obj_map.157 = type { %class.core_hashtable.158 }
%class.core_hashtable.158 = type <{ ptr, i32, i32, i32, [4 x i8] }>
%class.map.162 = type { %class.table2map.163 }
%class.table2map.163 = type { %class.core_hashtable.164 }
%class.core_hashtable.164 = type <{ ptr, i32, i32, i32, [4 x i8] }>
%class.obj_map.166 = type { %class.core_hashtable.167 }
%class.core_hashtable.167 = type <{ ptr, i32, i32, i32, [4 x i8] }>
%"class.datalog::rule_set" = type { ptr, ptr, %class.ref_vector.171, %class.obj_map.174, %"class.datalog::rule_dependencies", %class.scoped_ptr.184, %class.obj_hashtable, %class.obj_map.57, %class.obj_map.57, %class.ref_vector.185, %class.ptr_vector.143 }
%class.ref_vector.171 = type { %class.ref_vector_core.172 }
%class.ref_vector_core.172 = type { %class.ref_manager_wrapper.173, %class.ptr_vector.143 }
%class.ref_manager_wrapper.173 = type { ptr }
%class.obj_map.174 = type { %class.core_hashtable.175 }
%class.core_hashtable.175 = type <{ ptr, i32, i32, i32, [4 x i8] }>
%"class.datalog::rule_dependencies" = type { %class.obj_map.179, ptr, %class.ptr_vector.71, %class.expr_sparse_mark, %class.obj_hashtable }
%class.obj_map.179 = type { %class.core_hashtable.180 }
%class.core_hashtable.180 = type <{ ptr, i32, i32, i32, [4 x i8] }>
%class.scoped_ptr.184 = type { ptr }
%class.ref_vector.185 = type { %class.ref_vector_core.186 }
%class.ref_vector_core.186 = type { %class.ref_manager_wrapper.187, %class.ptr_vector.188 }
%class.ref_manager_wrapper.187 = type { ptr }
%class.ptr_vector.188 = type { %class.vector.189 }
%class.vector.189 = type { ptr }
%class.expr_free_vars = type { %class.expr_sparse_mark, %class.ptr_vector.62, %class.ptr_vector.71 }
%class.vector.190 = type { ptr }
%class.ref = type { ptr }
%class.ref.191 = type { ptr }
%class.scoped_ptr.192 = type { ptr }
%struct._key_data = type { %"struct.std::pair", i32 }
%"struct.table2map<default_map_entry<std::pair<unsigned int, unsigned int>, unsigned int>, pair_hash<unsigned_hash, unsigned_hash>, default_eq<std::pair<unsigned int, unsigned int>>>::entry_eq_proc" = type { i8 }
%class.default_map_entry = type { %class.default_hash_entry }
%class.default_hash_entry = type { i32, i32, %struct._key_data }
%"struct.std::pair.198" = type { ptr, ptr }
%"struct.std::pair.200" = type { %"class.std::move_iterator", ptr }
%"class.std::move_iterator" = type { ptr }

$_ZN7datalog24interval_relation_plugin8get_nameEv = comdat any

$_ZN7datalog15relation_pluginC2ERK6symbolRNS_16relation_managerENS0_21special_relation_typeE = comdat any

$_ZN25scoped_dependency_managerIPvEC2Ev = comdat any

$_ZNK7datalog17tr_infrastructureINS_15relation_traitsEE13plugin_object15get_ast_managerEv = comdat any

$_ZN12old_intervalD2Ev = comdat any

$_ZN25scoped_dependency_managerIPvED2Ev = comdat any

$_ZNK6vectorIP4sortLb0EjE4sizeEv = comdat any

$_ZNK17arith_recognizers6is_intEPK4sort = comdat any

$_ZNK6vectorIP4sortLb0EjEixEj = comdat any

$_ZNK17arith_recognizers7is_realEPK4sort = comdat any

$_ZNK7datalog17tr_infrastructureINS_15relation_traitsEE13plugin_object10check_kindERKNS_13relation_baseE = comdat any

$_ZNK7datalog17tr_infrastructureINS_15relation_traitsEE13base_ancestor13get_signatureEv = comdat any

$_ZN7datalog24interval_relation_plugin7join_fnC2ERKNS_18relation_signatureES4_jPKjS6_ = comdat any

$_ZN7datalog24interval_relation_plugin10project_fnC2ERKNS_18relation_signatureEjPKj = comdat any

$_ZN7datalog24interval_relation_plugin9rename_fnC2ERKNS_18relation_signatureEjPKj = comdat any

$_ZNK12old_interval13is_lower_openEv = comdat any

$_ZNK12old_interval13is_upper_openEv = comdat any

$_ZNK12old_interval3infEv = comdat any

$_ZN11ext_numeralC2ERKS_ = comdat any

$_ZNK12old_interval3supEv = comdat any

$_ZN11ext_numeralaSERKS_ = comdat any

$_ZgtRK11ext_numeralS1_ = comdat any

$_ZNK7datalog24interval_relation_plugin3depEv = comdat any

$_ZN11ext_numeralD2Ev = comdat any

$_ZN11ext_numeralC2Eb = comdat any

$_ZN11ext_numeralaSEOS_ = comdat any

$_ZN12old_intervalC2ERKS_ = comdat any

$_ZNK12old_interval13plus_infinityEv = comdat any

$_ZNK12old_interval14minus_infinityEv = comdat any

$_ZN7datalog24interval_relation_plugin8union_fnC2Eb = comdat any

$_ZN7datalog24interval_relation_plugin19filter_identical_fnC2EjPKj = comdat any

$_ZNK7datalog17tr_infrastructureINS_15relation_traitsEE13plugin_object11get_managerEv = comdat any

$_ZN7datalog24interval_relation_plugin15filter_equal_fnC2ERNS_16relation_managerERKP3appj = comdat any

$_ZN7datalog24interval_relation_plugin21filter_interpreted_fnC2ERKNS_17interval_relationEP3app = comdat any

$_ZN7datalog15vector_relationI12old_intervalNS_22vector_relation_helperIS1_EEEC2ERNS_15relation_pluginERKNS_18relation_signatureEbRKS1_ = comdat any

$_ZNK15ref_vector_coreI3app19ref_manager_wrapperIS0_11ast_managerEE4sizeEv = comdat any

$_ZN7obj_refI3app11ast_managerEC2ERS1_ = comdat any

$_ZNK7datalog13relation_factixEj = comdat any

$_ZN11ast_manager5mk_eqEP4exprS1_ = comdat any

$_ZN7obj_refI3app11ast_managerEaSEPS0_ = comdat any

$_ZNK7obj_refI3app11ast_managerE3getEv = comdat any

$_ZN7obj_refI3app11ast_managerED2Ev = comdat any

$_ZN7datalog15vector_relationI12old_intervalNS_22vector_relation_helperIS1_EEE8mk_unionERKS4_PS4_b = comdat any

$_ZN7datalog17interval_relationD2Ev = comdat any

$_ZNK7datalog15vector_relationI12old_intervalNS_22vector_relation_helperIS1_EEE4findEj = comdat any

$_ZNK7datalog15vector_relationI12old_intervalNS_22vector_relation_helperIS1_EEEixEj = comdat any

$_ZN8rationalC2Ev = comdat any

$_ZNK10arith_util10is_numeralEPK4exprR8rational = comdat any

$_ZN8rationalD2Ev = comdat any

$_ZN7datalog15vector_relationI12old_intervalNS_22vector_relation_helperIS1_EEE4copyERKS4_ = comdat any

$_ZN10ref_vectorI4expr11ast_managerEC2ERS1_ = comdat any

$_ZN15ref_vector_coreI4expr19ref_manager_wrapperIS0_11ast_managerEE9push_backEPS0_ = comdat any

$_ZN7obj_refI4expr11ast_managerEC2EPS0_RS1_ = comdat any

$_ZNK10arith_util10mk_numeralERK8rationalPK4sort = comdat any

$_ZNK12old_interval15get_lower_valueEv = comdat any

$_ZNK10arith_util5mk_ltEP4exprS1_ = comdat any

$_ZNK7obj_refI4expr11ast_managerEcvPS0_Ev = comdat any

$_ZNK10arith_util5mk_leEP4exprS1_ = comdat any

$_ZNK12old_interval15get_upper_valueEv = comdat any

$_ZN7obj_refI4expr11ast_managerED2Ev = comdat any

$_ZN10params_refC2Ev = comdat any

$_ZN13bool_rewriterC2ER11ast_managerRK10params_ref = comdat any

$_ZN13bool_rewriter6mk_andEjPKP4exprR7obj_refIS0_11ast_managerE = comdat any

$_ZNK15ref_vector_coreI4expr19ref_manager_wrapperIS0_11ast_managerEE4sizeEv = comdat any

$_ZN15ref_vector_coreI4expr19ref_manager_wrapperIS0_11ast_managerEE4dataEv = comdat any

$_ZN13bool_rewriterD2Ev = comdat any

$_ZN10ref_vectorI4expr11ast_managerED2Ev = comdat any

$_ZlsRSoRK12old_interval = comdat any

$_ZNK7datalog17tr_infrastructureINS_15relation_traitsEE13base_ancestor10get_pluginEv = comdat any

$_ZN7datalog15vector_relationI12old_intervalNS_22vector_relation_helperIS1_EEEixEj = comdat any

$_ZN7datalog15vector_relationI12old_intervalNS_22vector_relation_helperIS1_EEE9set_emptyEv = comdat any

$_ZngRK8rational = comdat any

$_ZNK11ext_numeral11is_infiniteEv = comdat any

$_ZplRK8rationalS1_ = comdat any

$_ZNK11ext_numeral11to_rationalEv = comdat any

$_ZmiRK8rationalS1_ = comdat any

$_ZNK11ast_manager8is_falseEPK4expr = comdat any

$_Z6is_varPK3ast = comdat any

$_Z6to_varP3ast = comdat any

$_ZNK3var7get_idxEv = comdat any

$_Z6is_appPK3ast = comdat any

$_Z6to_appP3ast = comdat any

$_ZNK17arith_recognizers6is_addEPK4expr = comdat any

$_ZNK3app12get_num_argsEv = comdat any

$_ZNK3app7get_argEj = comdat any

$_ZNK17arith_recognizers6is_subEPK4expr = comdat any

$_ZNK17arith_recognizers6is_mulEPK4expr = comdat any

$_ZNK8rational12is_minus_oneEv = comdat any

$_ZN8rationalpLERKS_ = comdat any

$_ZN8rationalmIERKS_ = comdat any

$_ZN8rational5resetEv = comdat any

$_ZNK17arith_recognizers5is_leEPK4expr = comdat any

$_ZNK17arith_recognizers6is_intEPK4expr = comdat any

$_ZNK17arith_recognizers5is_geEPK4expr = comdat any

$_ZNK17arith_recognizers5is_ltEPK4expr = comdat any

$_ZN8rational3oneEv = comdat any

$_ZNK17arith_recognizers5is_gtEPK4expr = comdat any

$_ZNK11ast_manager6is_notEPK4expr = comdat any

$_ZN8rational3negEv = comdat any

$_ZSt4swapIjENSt9enable_ifIXsr6__and_ISt6__not_ISt15__is_tuple_likeIT_EESt21is_move_constructibleIS3_ESt18is_move_assignableIS3_EEE5valueEvE4typeERS3_SC_ = comdat any

$_ZNK17arith_recognizers7is_realEPK4expr = comdat any

$_ZNK11ast_manager5is_eqEPK4expr = comdat any

$_ZN7datalog24interval_relation_pluginD2Ev = comdat any

$_ZN7datalog24interval_relation_pluginD0Ev = comdat any

$_ZN7datalog17tr_infrastructureINS_15relation_traitsEE13plugin_object10initializeEi = comdat any

$_ZN7datalog17tr_infrastructureINS_15relation_traitsEE13plugin_object20can_handle_signatureERKNS_18relation_signatureEi = comdat any

$_ZN7datalog17tr_infrastructureINS_15relation_traitsEE13plugin_object8mk_emptyERKNS_18relation_signatureEi = comdat any

$_ZN7datalog17tr_infrastructureINS_15relation_traitsEE13plugin_object8mk_emptyERKNS_13relation_baseE = comdat any

$_ZN7datalog17tr_infrastructureINS_15relation_traitsEE13plugin_object7mk_fullEP9func_declRKNS_18relation_signatureEi = comdat any

$_ZN7datalog17tr_infrastructureINS_15relation_traitsEE13plugin_object18mk_join_project_fnERKNS_13relation_baseES6_jPKjS8_jS8_ = comdat any

$_ZN7datalog17tr_infrastructureINS_15relation_traitsEE13plugin_object24mk_permutation_rename_fnERKNS_13relation_baseEPKj = comdat any

$_ZN7datalog17tr_infrastructureINS_15relation_traitsEE13plugin_object36mk_filter_interpreted_and_project_fnERKNS_13relation_baseEP3appjPKj = comdat any

$_ZN7datalog17tr_infrastructureINS_15relation_traitsEE13plugin_object30mk_select_equal_and_project_fnERKNS_13relation_baseERKP3appj = comdat any

$_ZN7datalog17tr_infrastructureINS_15relation_traitsEE13plugin_object28mk_filter_by_intersection_fnERKNS_13relation_baseES6_jPKjS8_ = comdat any

$_ZN7datalog17tr_infrastructureINS_15relation_traitsEE13plugin_object24mk_filter_by_negation_fnERKNS_13relation_baseES6_jPKjS8_ = comdat any

$_ZN7datalog17tr_infrastructureINS_15relation_traitsEE13plugin_object28mk_filter_by_negated_join_fnERKNS_13relation_baseES6_S6_RK7svectorIjjESA_SA_SA_ = comdat any

$_ZNK7datalog15relation_plugin21is_singleton_relationEv = comdat any

$_ZN7datalog17interval_relationD0Ev = comdat any

$_ZN7datalog17tr_infrastructureINS_15relation_traitsEE13base_ancestor10deallocateEv = comdat any

$_ZNK7datalog15vector_relationI12old_intervalNS_22vector_relation_helperIS1_EEE5emptyEv = comdat any

$_ZNK7datalog17tr_infrastructureINS_15relation_traitsEE13base_ancestor10fast_emptyEv = comdat any

$_ZN7datalog17tr_infrastructureINS_15relation_traitsEE13base_ancestor12add_new_factERKNS_13relation_factE = comdat any

$_ZNK7datalog17tr_infrastructureINS_15relation_traitsEE13base_ancestor8can_swapERKNS_13relation_baseE = comdat any

$_ZN7datalog15vector_relationI12old_intervalNS_22vector_relation_helperIS1_EEE4swapERNS_13relation_baseE = comdat any

$_ZNK7datalog17tr_infrastructureINS_15relation_traitsEE13base_ancestor22get_size_estimate_rowsEv = comdat any

$_ZNK7datalog17tr_infrastructureINS_15relation_traitsEE13base_ancestor23get_size_estimate_bytesEv = comdat any

$_ZNK7datalog17tr_infrastructureINS_15relation_traitsEE13base_ancestor16knows_exact_sizeEv = comdat any

$_ZNK7datalog15vector_relationI12old_intervalNS_22vector_relation_helperIS1_EEE7displayERSo = comdat any

$_ZNK7datalog13relation_base14display_tuplesER9func_declRSo = comdat any

$_ZNK7datalog17interval_relation10is_preciseEv = comdat any

$_ZNK7datalog17interval_relation12mk_intersectERK12old_intervalS3_Rb = comdat any

$_ZNK7datalog17interval_relation8mk_widenERK12old_intervalS3_ = comdat any

$_ZNK7datalog17interval_relation8mk_uniteERK12old_intervalS3_ = comdat any

$_ZNK7datalog17interval_relation12is_subset_ofERK12old_intervalS3_ = comdat any

$_ZNK7datalog17interval_relation7is_fullERK12old_interval = comdat any

$_ZNK7datalog17interval_relation8is_emptyEjRK12old_interval = comdat any

$_ZNK7datalog15vector_relationI12old_intervalNS_22vector_relation_helperIS1_EEE5mk_eqERK10union_findI22union_find_default_ctxS6_ES9_RKS1_ = comdat any

$_ZN7datalog17tr_infrastructureINS_15relation_traitsEE13plugin_objectC2ERK6symbolRNS_16relation_managerE = comdat any

$_ZN7datalog15relation_pluginD2Ev = comdat any

$_ZN7datalog15relation_pluginD0Ev = comdat any

$_ZN7datalog17tr_infrastructureINS_15relation_traitsEE13plugin_object7mk_fullEP9func_declRKNS_18relation_signatureE = comdat any

$_ZN7datalog17tr_infrastructureINS_15relation_traitsEE13plugin_object10mk_join_fnERKNS_13relation_baseES6_jPKjS8_ = comdat any

$_ZN7datalog17tr_infrastructureINS_15relation_traitsEE13plugin_object13mk_project_fnERKNS_13relation_baseEjPKj = comdat any

$_ZN7datalog17tr_infrastructureINS_15relation_traitsEE13plugin_object12mk_rename_fnERKNS_13relation_baseEjPKj = comdat any

$_ZN7datalog17tr_infrastructureINS_15relation_traitsEE13plugin_object11mk_union_fnERKNS_13relation_baseES6_PS5_ = comdat any

$_ZN7datalog17tr_infrastructureINS_15relation_traitsEE13plugin_object11mk_widen_fnERKNS_13relation_baseES6_PS5_ = comdat any

$_ZN7datalog17tr_infrastructureINS_15relation_traitsEE13plugin_object22mk_filter_identical_fnERKNS_13relation_baseEjPKj = comdat any

$_ZN7datalog17tr_infrastructureINS_15relation_traitsEE13plugin_object18mk_filter_equal_fnERKNS_13relation_baseERKP3appj = comdat any

$_ZN7datalog17tr_infrastructureINS_15relation_traitsEE13plugin_object24mk_filter_interpreted_fnERKNS_13relation_baseEP3app = comdat any

$_ZN7datalog17tr_infrastructureINS_15relation_traitsEE13plugin_objectD2Ev = comdat any

$_ZN7datalog17tr_infrastructureINS_15relation_traitsEE13plugin_objectD0Ev = comdat any

$_ZN18dependency_managerIN25scoped_dependency_managerIPvE6configEED2Ev = comdat any

$_ZN25scoped_dependency_managerIPvE6config9allocatorD2Ev = comdat any

$_ZN10ptr_vectorIN18dependency_managerIN25scoped_dependency_managerIPvE6configEE10dependencyEED2Ev = comdat any

$_ZN6vectorIPN18dependency_managerIN25scoped_dependency_managerIPvE6configEE10dependencyELb0EjED2Ev = comdat any

$_ZN6vectorIPN18dependency_managerIN25scoped_dependency_managerIPvE6configEE10dependencyELb0EjE7destroyEv = comdat any

$__clang_call_terminate = comdat any

$_ZN6vectorIPN18dependency_managerIN25scoped_dependency_managerIPvE6configEE10dependencyELb0EjE11free_memoryEv = comdat any

$_Z10is_sort_ofPK4sortii = comdat any

$_ZNK4sort10is_sort_ofEii = comdat any

$_ZNK4decl13get_family_idEv = comdat any

$_ZNK4decl13get_decl_kindEv = comdat any

$_ZNK9decl_info13get_family_idEv = comdat any

$_ZNK9decl_info13get_decl_kindEv = comdat any

$_ZN7datalog17tr_infrastructureINS_15relation_traitsEE18convenient_join_fnC2ERKNS_18relation_signatureES6_jPKjS8_ = comdat any

$_ZN7datalog24interval_relation_plugin7join_fnD2Ev = comdat any

$_ZN7datalog24interval_relation_plugin7join_fnD0Ev = comdat any

$_ZN7datalog24interval_relation_plugin7join_fnclERKNS_13relation_baseES4_ = comdat any

$_ZN7datalog17tr_infrastructureINS_15relation_traitsEE7join_fnC2Ev = comdat any

$_ZN7datalog18relation_signatureC2Ev = comdat any

$_ZN7svectorIjjEC2EjPKj = comdat any

$_ZN7datalog17tr_infrastructureINS_15relation_traitsEE14signature_base9from_joinERKNS_18relation_signatureES6_jPKjS8_RS4_ = comdat any

$_ZN7svectorIjjED2Ev = comdat any

$_ZN7datalog18relation_signatureD2Ev = comdat any

$_ZN7datalog17tr_infrastructureINS_15relation_traitsEE18convenient_join_fnD2Ev = comdat any

$_ZN7datalog17tr_infrastructureINS_15relation_traitsEE18convenient_join_fnD0Ev = comdat any

$_ZN7datalog17tr_infrastructureINS_15relation_traitsEE7base_fnC2Ev = comdat any

$_ZN7datalog17tr_infrastructureINS_15relation_traitsEE7join_fnD2Ev = comdat any

$_ZN7datalog17tr_infrastructureINS_15relation_traitsEE7join_fnD0Ev = comdat any

$_ZN7datalog17tr_infrastructureINS_15relation_traitsEE7base_fnD2Ev = comdat any

$_ZN7datalog17tr_infrastructureINS_15relation_traitsEE7base_fnD0Ev = comdat any

$_ZN7datalog17tr_infrastructureINS_15relation_traitsEE14signature_baseC2Ev = comdat any

$_ZN10ptr_vectorI4sortEC2Ev = comdat any

$_ZN6vectorIP4sortLb0EjEC2Ev = comdat any

$_ZN6vectorIjLb0EjEC2EjPKj = comdat any

$_ZN6vectorIjLb0EjE9push_backERKj = comdat any

$_ZN6vectorIjLb0EjE13expand_vectorEv = comdat any

$_ZNSt7__cxx1112basic_stringIcSt11char_traitsIcESaIcEEC2IS3_EEPKcRKS3_ = comdat any

$_ZN17default_exceptionC2EONSt7__cxx1112basic_stringIcSt11char_traitsIcESaIcEEE = comdat any

$_ZN17default_exceptionD2Ev = comdat any

$_ZNSt11char_traitsIcE6lengthEPKc = comdat any

$_ZNSt7__cxx1112basic_stringIcSt11char_traitsIcESaIcEE12_M_constructIPKcEEvT_S8_St20forward_iterator_tag = comdat any

$_ZNSt7__cxx1112basic_stringIcSt11char_traitsIcESaIcEE12_Alloc_hiderD2Ev = comdat any

$_ZSt8distanceIPKcENSt15iterator_traitsIT_E15difference_typeES3_S3_ = comdat any

$_ZZNSt7__cxx1112basic_stringIcSt11char_traitsIcESaIcEE12_M_constructIPKcEEvT_S8_St20forward_iterator_tagEN6_GuardC2EPS4_ = comdat any

$_ZZNSt7__cxx1112basic_stringIcSt11char_traitsIcESaIcEE12_M_constructIPKcEEvT_S8_St20forward_iterator_tagEN6_GuardD2Ev = comdat any

$_ZSt10__distanceIPKcENSt15iterator_traitsIT_E15difference_typeES3_S3_St26random_access_iterator_tag = comdat any

$_ZSt19__iterator_categoryIPKcENSt15iterator_traitsIT_E17iterator_categoryERKS3_ = comdat any

$_ZN12z3_exceptionC2Ev = comdat any

$_ZN12z3_exceptionD2Ev = comdat any

$_ZN6vectorIP4sortLb0EjE5resetEv = comdat any

$_ZN6vectorIP4sortLb0EjE9push_backERKS1_ = comdat any

$_ZN6vectorIP4sortLb0EjE13expand_vectorEv = comdat any

$_ZN6vectorIjLb0EjED2Ev = comdat any

$_ZN6vectorIjLb0EjE7destroyEv = comdat any

$_ZN6vectorIjLb0EjE11free_memoryEv = comdat any

$_ZN7datalog17tr_infrastructureINS_15relation_traitsEE14signature_baseD2Ev = comdat any

$_ZN10ptr_vectorI4sortED2Ev = comdat any

$_ZN6vectorIP4sortLb0EjED2Ev = comdat any

$_ZN6vectorIP4sortLb0EjE7destroyEv = comdat any

$_ZN6vectorIP4sortLb0EjE11free_memoryEv = comdat any

$_ZNK7datalog17tr_infrastructureINS_15relation_traitsEE18convenient_join_fn20get_result_signatureEv = comdat any

$_ZN7datalog15vector_relationI12old_intervalNS_22vector_relation_helperIS1_EEE7mk_joinERKS4_S6_jPKjS8_ = comdat any

$_ZNK6vectorIjLb0EjE4sizeEv = comdat any

$_ZNK6vectorIjLb0EjE4dataEv = comdat any

$_ZN7datalog15vector_relationI12old_intervalNS_22vector_relation_helperIS1_EEE6equateEjj = comdat any

$_ZN7datalog15vector_relationI12old_intervalNS_22vector_relation_helperIS1_EEE5mergeEjj = comdat any

$_ZN10union_findI22union_find_default_ctxS0_E5mergeEjj = comdat any

$_ZNK10union_findI22union_find_default_ctxS0_E4findEj = comdat any

$_ZN6vectorIjLb0EjEixEj = comdat any

$_ZN22union_find_default_ctx8merge_ehEjjjj = comdat any

$_ZN11trail_stack4pushIN10union_findI22union_find_default_ctxS2_E11merge_trailEEEvRKT_ = comdat any

$_ZN10union_findI22union_find_default_ctxS0_E11merge_trailC2ERS1_j = comdat any

$_ZN10union_findI22union_find_default_ctxS0_E11merge_trailD2Ev = comdat any

$_ZN22union_find_default_ctx14after_merge_ehEjjjj = comdat any

$_ZNK6vectorIjLb0EjEixEj = comdat any

$_ZN6vectorIP5trailLb0EjE9push_backEOS1_ = comdat any

$_ZnwmR6region = comdat any

$_ZN10union_findI22union_find_default_ctxS0_E11merge_trailC2ERKS2_ = comdat any

$_ZN6vectorIP5trailLb0EjE13expand_vectorEv = comdat any

$_ZN5trailC2ERKS_ = comdat any

$_ZN10union_findI22union_find_default_ctxS0_E11merge_trailD0Ev = comdat any

$_ZN10union_findI22union_find_default_ctxS0_E11merge_trail4undoEv = comdat any

$_ZN5trailD2Ev = comdat any

$_ZN5trailD0Ev = comdat any

$_ZN10union_findI22union_find_default_ctxS0_E7unmergeEj = comdat any

$_ZN22union_find_default_ctx10unmerge_ehEjj = comdat any

$_ZN5trailC2Ev = comdat any

$_ZN7datalog17tr_infrastructureINS_15relation_traitsEE21convenient_project_fnC2ERKNS_18relation_signatureEjPKj = comdat any

$_ZN7datalog24interval_relation_plugin10project_fnD2Ev = comdat any

$_ZN7datalog24interval_relation_plugin10project_fnD0Ev = comdat any

$_ZN7datalog24interval_relation_plugin10project_fnclERKNS_13relation_baseE = comdat any

$_ZN7datalog17tr_infrastructureINS_15relation_traitsEE25convenient_transformer_fnC2Ev = comdat any

$_ZN7datalog17tr_infrastructureINS_15relation_traitsEE14signature_base12from_projectERKNS_18relation_signatureEjPKjRS4_ = comdat any

$_ZN7datalog17tr_infrastructureINS_15relation_traitsEE25convenient_transformer_fn20get_result_signatureEv = comdat any

$_ZN7datalog17tr_infrastructureINS_15relation_traitsEE21convenient_project_fnD2Ev = comdat any

$_ZN7datalog17tr_infrastructureINS_15relation_traitsEE21convenient_project_fnD0Ev = comdat any

$_ZN7datalog17tr_infrastructureINS_15relation_traitsEE14transformer_fnC2Ev = comdat any

$_ZN7datalog17tr_infrastructureINS_15relation_traitsEE25convenient_transformer_fnD2Ev = comdat any

$_ZN7datalog17tr_infrastructureINS_15relation_traitsEE25convenient_transformer_fnD0Ev = comdat any

$_ZN7datalog17tr_infrastructureINS_15relation_traitsEE14transformer_fnD2Ev = comdat any

$_ZN7datalog17tr_infrastructureINS_15relation_traitsEE14transformer_fnD0Ev = comdat any

$_ZN7datalog18relation_signatureaSERKS0_ = comdat any

$_ZN7datalog26project_out_vector_columnsINS_18relation_signatureEEEvRT_jPKj = comdat any

$_ZN7datalog17tr_infrastructureINS_15relation_traitsEE14signature_baseaSERKS3_ = comdat any

$_ZN10ptr_vectorI4sortEaSERKS1_ = comdat any

$_ZN6vectorIP4sortLb0EjEaSERKS2_ = comdat any

$_ZN6vectorIP4sortLb0EjE9copy_coreERKS2_ = comdat any

$_ZNK6vectorIP4sortLb0EjE8capacityEv = comdat any

$_ZSt18uninitialized_copyIPKP4sortPS1_ET0_T_S6_S5_ = comdat any

$_ZNK6vectorIP4sortLb0EjE5beginEv = comdat any

$_ZNK6vectorIP4sortLb0EjE3endEv = comdat any

$_ZN6vectorIP4sortLb0EjE5beginEv = comdat any

$_ZNSt20__uninitialized_copyILb1EE13__uninit_copyIPKP4sortPS3_EET0_T_S8_S7_ = comdat any

$_ZSt4copyIPKP4sortPS1_ET0_T_S6_S5_ = comdat any

$_ZSt13__copy_move_aILb0EPKP4sortPS1_ET1_T0_S6_S5_ = comdat any

$_ZSt12__miter_baseIPKP4sortET_S4_ = comdat any

$_ZSt12__niter_wrapIPP4sortET_RKS3_S3_ = comdat any

$_ZSt14__copy_move_a1ILb0EPKP4sortPS1_ET1_T0_S6_S5_ = comdat any

$_ZSt12__niter_baseIPKP4sortET_S4_ = comdat any

$_ZSt12__niter_baseIPP4sortET_S3_ = comdat any

$_ZSt14__copy_move_a2ILb0EPKP4sortPS1_ET1_T0_S6_S5_ = comdat any

$_ZNSt11__copy_moveILb0ELb1ESt26random_access_iterator_tagE8__copy_mIP4sortEEPT_PKS5_S8_S6_ = comdat any

$_ZN6vectorIP4sortLb0EjEixEj = comdat any

$_ZN6vectorIP4sortLb0EjE6resizeEj = comdat any

$_ZN6vectorIP4sortLb0EjE6shrinkEj = comdat any

$_ZN7datalog15vector_relationI12old_intervalNS_22vector_relation_helperIS1_EEE10mk_projectERKS4_jPKj = comdat any

$_ZN7svectorIjjEC2Ev = comdat any

$_ZN6vectorIjLb0EjE6resizeIjEEvjT_z = comdat any

$_ZN6vectorIjLb0EjE9push_backEOj = comdat any

$_ZN7datalog22vector_relation_helperI12old_intervalE12mk_project_tERS1_RK7svectorIjjE = comdat any

$_ZN6vectorIjLb0EjEC2Ev = comdat any

$_ZN6vectorIjLb0EjE6shrinkEj = comdat any

$_ZNK6vectorIjLb0EjE8capacityEv = comdat any

$_ZN7datalog17tr_infrastructureINS_15relation_traitsEE20convenient_rename_fnC2ERKNS_18relation_signatureEjPKj = comdat any

$_ZN7datalog24interval_relation_plugin9rename_fnD2Ev = comdat any

$_ZN7datalog24interval_relation_plugin9rename_fnD0Ev = comdat any

$_ZN7datalog24interval_relation_plugin9rename_fnclERKNS_13relation_baseE = comdat any

$_ZN7datalog17tr_infrastructureINS_15relation_traitsEE14signature_base11from_renameERKNS_18relation_signatureEjPKjRS4_ = comdat any

$_ZN7datalog17tr_infrastructureINS_15relation_traitsEE20convenient_rename_fnD2Ev = comdat any

$_ZN7datalog17tr_infrastructureINS_15relation_traitsEE20convenient_rename_fnD0Ev = comdat any

$_ZN7datalog16permute_by_cycleINS_18relation_signatureEEEvRT_jPKj = comdat any

$_ZN7datalog15vector_relationI12old_intervalNS_22vector_relation_helperIS1_EEE9mk_renameERKS4_jPKj = comdat any

$_ZNK6vectorI12old_intervalLb1EjE4sizeEv = comdat any

$_ZN6vectorI12old_intervalLb1EjEixEj = comdat any

$_ZN8rationalC2ERKS_ = comdat any

$_ZN3mpqC2Ev = comdat any

$_ZN8rational1mEv = comdat any

$_ZN11mpq_managerILb1EE3setER3mpqRKS1_ = comdat any

$_ZN3mpzC2Ev = comdat any

$_ZN3mpzC2Ei = comdat any

$_ZN11mpq_managerILb1EE3setER3mpzRKS1_ = comdat any

$_ZN11mpz_managerILb1EE3setER3mpzRKS1_ = comdat any

$_ZN11mpz_managerILb1EE8is_smallERK3mpz = comdat any

$_ZN8rationalaSERKS_ = comdat any

$_ZN8rationalaSEOS_ = comdat any

$_ZN3mpqaSEOS_ = comdat any

$_ZN3mpzaSEOS_ = comdat any

$_ZN3mpz4swapERS_ = comdat any

$_ZSt4swapIiENSt9enable_ifIXsr6__and_ISt6__not_ISt15__is_tuple_likeIT_EESt21is_move_constructibleIS3_ESt18is_move_assignableIS3_EEE5valueEvE4typeERS3_SC_ = comdat any

$_ZSt4swapIP8mpz_cellENSt9enable_ifIXsr6__and_ISt6__not_ISt15__is_tuple_likeIT_EESt21is_move_constructibleIS5_ESt18is_move_assignableIS5_EEE5valueEvE4typeERS5_SE_ = comdat any

$_ZN7datalog17tr_infrastructureINS_15relation_traitsEE8union_fnC2Ev = comdat any

$_ZN7datalog24interval_relation_plugin8union_fnD2Ev = comdat any

$_ZN7datalog24interval_relation_plugin8union_fnD0Ev = comdat any

$_ZN7datalog24interval_relation_plugin8union_fnclERNS_13relation_baseERKS2_PS2_ = comdat any

$_ZN7datalog17tr_infrastructureINS_15relation_traitsEE8union_fnD2Ev = comdat any

$_ZN7datalog17tr_infrastructureINS_15relation_traitsEE8union_fnD0Ev = comdat any

$_ZN7datalog17tr_infrastructureINS_15relation_traitsEE10mutator_fnC2Ev = comdat any

$_ZN7datalog24interval_relation_plugin19filter_identical_fnD2Ev = comdat any

$_ZN7datalog24interval_relation_plugin19filter_identical_fnD0Ev = comdat any

$_ZN7datalog24interval_relation_plugin19filter_identical_fnclERNS_13relation_baseE = comdat any

$_ZN7datalog17tr_infrastructureINS_15relation_traitsEE10mutator_fn19supports_attachmentERNS_13relation_baseE = comdat any

$_ZN7datalog17tr_infrastructureINS_15relation_traitsEE10mutator_fn6attachERNS_13relation_baseE = comdat any

$_ZN7datalog17tr_infrastructureINS_15relation_traitsEE10mutator_fnD2Ev = comdat any

$_ZN7datalog17tr_infrastructureINS_15relation_traitsEE10mutator_fnD0Ev = comdat any

$_ZNK7datalog16relation_manager11get_contextEv = comdat any

$_ZNK7datalog7context11get_managerEv = comdat any

$_ZN7datalog24interval_relation_plugin15filter_equal_fnD2Ev = comdat any

$_ZN7datalog24interval_relation_plugin15filter_equal_fnD0Ev = comdat any

$_ZN7datalog24interval_relation_plugin15filter_equal_fnclERNS_13relation_baseE = comdat any

$_ZN7obj_refI3app11ast_managerEC2EPS0_RS1_ = comdat any

$_ZN7datalog24interval_relation_plugin21filter_interpreted_fnD2Ev = comdat any

$_ZN7datalog24interval_relation_plugin21filter_interpreted_fnD0Ev = comdat any

$_ZN7datalog24interval_relation_plugin21filter_interpreted_fnclERNS_13relation_baseE = comdat any

$_ZN7obj_refI3app11ast_managerE7inc_refEv = comdat any

$_ZN11ast_manager7inc_refEP3ast = comdat any

$_ZN3ast7inc_refEv = comdat any

$_ZNK7obj_refI3app11ast_managerEcvPS0_Ev = comdat any

$_ZNK15ref_vector_coreI3app19ref_manager_wrapperIS0_11ast_managerEE3getEj = comdat any

$_ZNK6vectorIP3appLb0EjEixEj = comdat any

$_ZNK11ast_manager9get_eq_opEPK4expr = comdat any

$_Z7deallocI10union_findI22union_find_default_ctxS1_EEvPT_ = comdat any

$_Z7deallocI6vectorI12old_intervalLb1EjEEvPT_ = comdat any

$_ZN22union_find_default_ctxD2Ev = comdat any

$_ZN7datalog13relation_baseD2Ev = comdat any

$_ZN7datalog15vector_relationI12old_intervalNS_22vector_relation_helperIS1_EEED2Ev = comdat any

$_ZN7datalog15vector_relationI12old_intervalNS_22vector_relation_helperIS1_EEED0Ev = comdat any

$_ZNK7datalog13relation_base10is_preciseEv = comdat any

$_ZN10union_findI22union_find_default_ctxS0_ED2Ev = comdat any

$_ZN10union_findI22union_find_default_ctxS0_E12mk_var_trailD2Ev = comdat any

$_ZN6vectorI12old_intervalLb1EjED2Ev = comdat any

$_ZN6vectorI12old_intervalLb1EjE7destroyEv = comdat any

$_ZN6vectorI12old_intervalLb1EjE16destroy_elementsEv = comdat any

$_ZN6vectorI12old_intervalLb1EjE11free_memoryEv = comdat any

$_ZSt9destroy_nIP12old_intervaljET_S2_T0_ = comdat any

$_ZSt10_Destroy_nIP12old_intervaljET_S2_T0_ = comdat any

$_ZNSt14_Destroy_n_auxILb0EE11__destroy_nIP12old_intervaljEET_S4_T0_ = comdat any

$_ZSt8_DestroyI12old_intervalEvPT_ = comdat any

$_ZN11trail_stackD2Ev = comdat any

$_ZN10ptr_vectorI5trailED2Ev = comdat any

$_ZN6vectorIP5trailLb0EjED2Ev = comdat any

$_ZN6vectorIP5trailLb0EjE7destroyEv = comdat any

$_ZN6vectorIP5trailLb0EjE11free_memoryEv = comdat any

$_ZN7datalog17tr_infrastructureINS_15relation_traitsEE13base_ancestorD2Ev = comdat any

$_ZN7datalog17tr_infrastructureINS_15relation_traitsEE13base_ancestorD0Ev = comdat any

$_ZN7datalog17tr_infrastructureINS_15relation_traitsEE13base_ancestor4swapERNS_13relation_baseE = comdat any

$_ZN11mpq_managerILb1EE3delEPS0_R3mpq = comdat any

$_ZNK10arith_util10mk_numeralERK8rationalb = comdat any

$_ZNK10arith_util6pluginEv = comdat any

$_ZN10ptr_vectorI4exprEC2Ev = comdat any

$_ZN10ptr_vectorI4exprED2Ev = comdat any

$_ZN6vectorIP4exprLb0EjEC2Ev = comdat any

$_ZN6vectorIP4exprLb0EjED2Ev = comdat any

$_ZN6vectorIP4exprLb0EjE7destroyEv = comdat any

$_ZN6vectorIP4exprLb0EjE11free_memoryEv = comdat any

$_ZN13bool_rewriter11mk_and_coreEjPKP4exprR7obj_refIS0_11ast_managerE = comdat any

$_ZNK13bool_rewriter1mEv = comdat any

$_ZN11ast_manager6mk_andEjPKP4expr = comdat any

$_ZN7obj_refI4expr11ast_managerEaSEPS0_ = comdat any

$_ZN7obj_refI4expr11ast_managerE7dec_refEv = comdat any

$_ZN11ast_manager7dec_refEP3ast = comdat any

$_ZN3ast7dec_refEv = comdat any

$_ZNK3ast13get_ref_countEv = comdat any

$_ZN15ref_vector_coreI4expr19ref_manager_wrapperIS0_11ast_managerEED2Ev = comdat any

$_ZN15ref_vector_coreI4expr19ref_manager_wrapperIS0_11ast_managerEE13dec_range_refEPKPS0_S7_ = comdat any

$_ZNK6vectorIP4exprLb0EjE4dataEv = comdat any

$_ZNK6vectorIP4exprLb0EjE4sizeEv = comdat any

$_ZN15ref_vector_coreI4expr19ref_manager_wrapperIS0_11ast_managerEE7dec_refEPS0_ = comdat any

$_ZN19ref_manager_wrapperI4expr11ast_managerE7dec_refEPS0_ = comdat any

$_ZNK3ast8get_kindEv = comdat any

$_Z9is_app_ofPK4exprii = comdat any

$_Z6to_appPK3ast = comdat any

$_ZNK3app9is_app_ofEii = comdat any

$_ZNK4decl10is_decl_ofEii = comdat any

$_ZNK9decl_info10is_decl_ofEii = comdat any

$_ZN11mpq_managerILb1EE12is_minus_oneERK3mpq = comdat any

$_ZN11mpq_managerILb1EE12is_minus_oneERK3mpz = comdat any

$_ZN11mpq_managerILb1EE6is_oneERK3mpz = comdat any

$_ZN11mpz_managerILb1EE12is_minus_oneERK3mpz = comdat any

$_ZN11mpz_managerILb1EE6is_oneERK3mpz = comdat any

$_ZN11mpq_managerILb1EE3addERK3mpqS3_RS1_ = comdat any

$_ZN11mpq_managerILb1EE7is_zeroERK3mpq = comdat any

$_ZN11mpq_managerILb1EE6is_intERK3mpq = comdat any

$_ZN11mpq_managerILb1EE17reset_denominatorER3mpq = comdat any

$_ZN11mpq_managerILb1EE7is_zeroERK3mpz = comdat any

$_ZN11mpz_managerILb1EE7is_zeroERK3mpz = comdat any

$_ZN11mpz_managerILb1EE4signERK3mpz = comdat any

$_ZN11mpq_managerILb1EE3delER3mpz = comdat any

$_ZN11mpz_managerILb1EE3delER3mpz = comdat any

$_ZN11mpq_managerILb1EE3subERK3mpqS3_RS1_ = comdat any

$_ZN11mpq_managerILb1EE5resetER3mpq = comdat any

$_ZN11mpq_managerILb1EE5resetER3mpz = comdat any

$_ZN11mpq_managerILb1EE3negER3mpq = comdat any

$_ZlsRSo6symbol = comdat any

$_ZNK4decl8get_nameEv = comdat any

$_ZNK6vectorIP3appLb0EjE4sizeEv = comdat any

$_ZN7obj_refI4expr11ast_managerE7inc_refEv = comdat any

$_ZN7obj_refI3app11ast_managerE7dec_refEv = comdat any

$_ZN19ref_manager_wrapperI4expr11ast_managerEC2ERS1_ = comdat any

$_ZN15ref_vector_coreI4expr19ref_manager_wrapperIS0_11ast_managerEEC2ERKS3_ = comdat any

$_ZN15ref_vector_coreI4expr19ref_manager_wrapperIS0_11ast_managerEE7inc_refEPS0_ = comdat any

$_ZN6vectorIP4exprLb0EjE9push_backERKS1_ = comdat any

$_ZN19ref_manager_wrapperI4expr11ast_managerE7inc_refEPS0_ = comdat any

$_ZN6vectorIP4exprLb0EjE13expand_vectorEv = comdat any

$_ZN25scoped_dependency_managerIPvE6config9allocatorC2Ev = comdat any

$_ZN18dependency_managerIN25scoped_dependency_managerIPvE6configEEC2ERNS3_13value_managerERNS3_9allocatorE = comdat any

$_ZN10ptr_vectorIN18dependency_managerIN25scoped_dependency_managerIPvE6configEE10dependencyEEC2Ev = comdat any

$_ZN6vectorIPN18dependency_managerIN25scoped_dependency_managerIPvE6configEE10dependencyELb0EjEC2Ev = comdat any

$_ZN10union_findI22union_find_default_ctxS0_EC2ERS0_ = comdat any

$_ZN9pair_hashI13unsigned_hashS0_EC2ERKS0_S3_ = comdat any

$_ZN3mapISt4pairIjjEj9pair_hashI13unsigned_hashS3_E10default_eqIS1_EEC2ERKS4_RKS6_ = comdat any

$_ZN10bit_vectorC2Ev = comdat any

$_ZN10union_findI22union_find_default_ctxS0_E6mk_varEv = comdat any

$_ZSt9make_pairIjjESt4pairINSt25__strip_reference_wrapperINSt5decayIT_E4typeEE6__typeENS1_INS2_IT0_E4typeEE6__typeEEOS3_OS8_ = comdat any

$_ZNK9table2mapI17default_map_entryISt4pairIjjEjE9pair_hashI13unsigned_hashS5_E10default_eqIS2_EE4findERKS2_Rj = comdat any

$_ZN9table2mapI17default_map_entryISt4pairIjjEjE9pair_hashI13unsigned_hashS5_E10default_eqIS2_EE6insertERKS2_RKj = comdat any

$_ZNK10bit_vector3getEj = comdat any

$_ZN10bit_vector3setEjb = comdat any

$_ZN6vectorI12old_intervalLb1EjEC2Ev = comdat any

$_ZN6vectorI12old_intervalLb1EjE9push_backEOS0_ = comdat any

$_ZNK12old_intervaleqERKS_ = comdat any

$_ZN10bit_vectorD2Ev = comdat any

$_ZN3mapISt4pairIjjEj9pair_hashI13unsigned_hashS3_E10default_eqIS1_EED2Ev = comdat any

$_ZN22union_find_default_ctx15get_trail_stackEv = comdat any

$_ZN10union_findI22union_find_default_ctxS0_E12mk_var_trailC2ERS1_ = comdat any

$_ZN10union_findI22union_find_default_ctxS0_E12mk_var_trailD0Ev = comdat any

$_ZN10union_findI22union_find_default_ctxS0_E12mk_var_trail4undoEv = comdat any

$_ZN6vectorIjLb0EjE8pop_backEv = comdat any

$_ZN9table2mapI17default_map_entryISt4pairIjjEjE9pair_hashI13unsigned_hashS5_E10default_eqIS2_EEC2ERKS6_RKS8_ = comdat any

$_ZN9table2mapI17default_map_entryISt4pairIjjEjE9pair_hashI13unsigned_hashS5_E10default_eqIS2_EE15entry_hash_procC2ERKS6_ = comdat any

$_ZN9table2mapI17default_map_entryISt4pairIjjEjE9pair_hashI13unsigned_hashS5_E10default_eqIS2_EE13entry_eq_procC2ERKS8_ = comdat any

$_ZN14core_hashtableI17default_map_entryISt4pairIjjEjEN9table2mapIS3_9pair_hashI13unsigned_hashS6_E10default_eqIS2_EE15entry_hash_procENSA_13entry_eq_procEEC2EjRKSB_RKSC_ = comdat any

$_ZN14core_hashtableI17default_map_entryISt4pairIjjEjEN9table2mapIS3_9pair_hashI13unsigned_hashS6_E10default_eqIS2_EE15entry_hash_procENSA_13entry_eq_procEE11alloc_tableEj = comdat any

$_Z10alloc_vectI17default_map_entryISt4pairIjjEjEEPT_j = comdat any

$_ZN17default_map_entryISt4pairIjjEjEC2Ev = comdat any

$_ZN18default_hash_entryI9_key_dataISt4pairIjjEjEEC2Ev = comdat any

$_ZN9_key_dataISt4pairIjjEjEC2Ev = comdat any

$_ZNSt4pairIjjEC2IjjTnNSt9enable_ifIXsr6__and_ISt37__is_implicitly_default_constructibleIT_ES3_IT0_EEE5valueEbE4typeELb1EEEv = comdat any

$_ZN11trail_stack8push_ptrEP5trail = comdat any

$_ZN6vectorIP5trailLb0EjE9push_backERKS1_ = comdat any

$_ZNSt4pairIjjEC2IjjTnNSt9enable_ifIXaaclsr5_PCCPE22_MoveConstructiblePairIT_T0_EEclsr5_PCCPE30_ImplicitlyMoveConvertiblePairIS3_S4_EEEbE4typeELb1EEEOS3_OS4_ = comdat any

$_ZNK9table2mapI17default_map_entryISt4pairIjjEjE9pair_hashI13unsigned_hashS5_E10default_eqIS2_EE9find_coreERKS2_ = comdat any

$_ZN18default_hash_entryI9_key_dataISt4pairIjjEjEE8get_dataEv = comdat any

$_ZNK14core_hashtableI17default_map_entryISt4pairIjjEjEN9table2mapIS3_9pair_hashI13unsigned_hashS6_E10default_eqIS2_EE15entry_hash_procENSA_13entry_eq_procEE9find_coreERK9_key_dataIS2_jE = comdat any

$_ZN9_key_dataISt4pairIjjEjEC2ERKS1_ = comdat any

$_ZNK14core_hashtableI17default_map_entryISt4pairIjjEjEN9table2mapIS3_9pair_hashI13unsigned_hashS6_E10default_eqIS2_EE15entry_hash_procENSA_13entry_eq_procEE8get_hashERK9_key_dataIS2_jE = comdat any

$_ZNK18default_hash_entryI9_key_dataISt4pairIjjEjEE7is_usedEv = comdat any

$_ZNK18default_hash_entryI9_key_dataISt4pairIjjEjEE8get_hashEv = comdat any

$_ZNK14core_hashtableI17default_map_entryISt4pairIjjEjEN9table2mapIS3_9pair_hashI13unsigned_hashS6_E10default_eqIS2_EE15entry_hash_procENSA_13entry_eq_procEE6equalsERK9_key_dataIS2_jESH_ = comdat any

$_ZNK18default_hash_entryI9_key_dataISt4pairIjjEjEE7is_freeEv = comdat any

$_ZNK9table2mapI17default_map_entryISt4pairIjjEjE9pair_hashI13unsigned_hashS5_E10default_eqIS2_EE15entry_hash_procclERK9_key_dataIS2_jE = comdat any

$_ZNK9pair_hashI13unsigned_hashS0_EclERKSt4pairIjjE = comdat any

$_Z12combine_hashjj = comdat any

$_ZNK13unsigned_hashclEj = comdat any

$_ZNK9table2mapI17default_map_entryISt4pairIjjEjE9pair_hashI13unsigned_hashS5_E10default_eqIS2_EE13entry_eq_procclERK9_key_dataIS2_jESE_ = comdat any

$_ZNK10default_eqISt4pairIjjEEclERKS1_S4_ = comdat any

$_ZSteqIjjEbRKSt4pairIT_T0_ES5_ = comdat any

$_ZN14core_hashtableI17default_map_entryISt4pairIjjEjEN9table2mapIS3_9pair_hashI13unsigned_hashS6_E10default_eqIS2_EE15entry_hash_procENSA_13entry_eq_procEE6insertEO9_key_dataIS2_jE = comdat any

$_ZN9_key_dataISt4pairIjjEjEC2ERKS1_RKj = comdat any

$_ZN14core_hashtableI17default_map_entryISt4pairIjjEjEN9table2mapIS3_9pair_hashI13unsigned_hashS6_E10default_eqIS2_EE15entry_hash_procENSA_13entry_eq_procEE12expand_tableEv = comdat any

$_ZN18default_hash_entryI9_key_dataISt4pairIjjEjEE8set_dataEOS3_ = comdat any

$_ZN18default_hash_entryI9_key_dataISt4pairIjjEjEE8set_hashEj = comdat any

$_ZN14core_hashtableI17default_map_entryISt4pairIjjEjEN9table2mapIS3_9pair_hashI13unsigned_hashS6_E10default_eqIS2_EE15entry_hash_procENSA_13entry_eq_procEE10move_tableEPS3_jSE_j = comdat any

$_ZN14core_hashtableI17default_map_entryISt4pairIjjEjEN9table2mapIS3_9pair_hashI13unsigned_hashS6_E10default_eqIS2_EE15entry_hash_procENSA_13entry_eq_procEE12delete_tableEv = comdat any

$_ZN17default_map_entryISt4pairIjjEjEaSEOS2_ = comdat any

$_ZN18default_hash_entryI9_key_dataISt4pairIjjEjEEaSEOS4_ = comdat any

$_ZN9_key_dataISt4pairIjjEjEaSEOS2_ = comdat any

$_ZNSt4pairIjjEaSEOS0_ = comdat any

$_Z12dealloc_vectI17default_map_entryISt4pairIjjEjEEvPT_j = comdat any

$_ZNK10bit_vector12get_bit_wordEj = comdat any

$_ZN10bit_vector12get_pos_maskEj = comdat any

$_ZN10bit_vector12get_bit_wordEj = comdat any

$_ZN6vectorI12old_intervalLb1EjE13expand_vectorEv = comdat any

$_ZN12old_intervalC2EOS_ = comdat any

$_ZSt20uninitialized_move_nIP12old_intervaljS1_ESt4pairIT_T1_ES3_T0_S4_ = comdat any

$_ZSt27__uninitialized_copy_n_pairISt13move_iteratorIP12old_intervalEjS2_ESt4pairIT_T1_ES5_T0_S6_ = comdat any

$_ZSt18make_move_iteratorIP12old_intervalESt13move_iteratorIT_ES3_ = comdat any

$_ZNKSt13move_iteratorIP12old_intervalE4baseEv = comdat any

$_ZNSt4pairIP12old_intervalS1_EC2IS1_RS1_TnNSt9enable_ifIXaaclsr5_PCCPE22_MoveConstructiblePairIT_T0_EEclsr5_PCCPE30_ImplicitlyMoveConvertiblePairIS6_S7_EEEbE4typeELb1EEEOS6_OS7_ = comdat any

$_ZSt27__uninitialized_copy_n_pairISt13move_iteratorIP12old_intervalEjS2_ESt4pairIT_T1_ES5_T0_S6_St26random_access_iterator_tag = comdat any

$_ZSt19__iterator_categoryISt13move_iteratorIP12old_intervalEENSt15iterator_traitsIT_E17iterator_categoryERKS5_ = comdat any

$_ZSt18uninitialized_copyISt13move_iteratorIP12old_intervalES2_ET0_T_S5_S4_ = comdat any

$_ZNKSt13move_iteratorIP12old_intervalEplEl = comdat any

$_ZSt4nextISt13move_iteratorIP12old_intervalEET_S4_NSt15iterator_traitsIS4_E15difference_typeE = comdat any

$_ZNSt4pairISt13move_iteratorIP12old_intervalES2_EC2IRS3_RS2_TnNSt9enable_ifIXaaclsr5_PCCPE22_MoveConstructiblePairIT_T0_EEclsr5_PCCPE30_ImplicitlyMoveConvertiblePairIS9_SA_EEEbE4typeELb1EEEOS9_OSA_ = comdat any

$_ZNSt20__uninitialized_copyILb0EE13__uninit_copyISt13move_iteratorIP12old_intervalES4_EET0_T_S7_S6_ = comdat any

$_ZSt16__do_uninit_copyISt13move_iteratorIP12old_intervalES2_ET0_T_S5_S4_ = comdat any

$_ZStneIP12old_intervalEbRKSt13move_iteratorIT_ES6_ = comdat any

$_ZSt10_ConstructI12old_intervalJS0_EEvPT_DpOT0_ = comdat any

$_ZNKSt13move_iteratorIP12old_intervalEdeEv = comdat any

$_ZNSt13move_iteratorIP12old_intervalEppEv = comdat any

$_ZSt8_DestroyIP12old_intervalEvT_S2_ = comdat any

$_ZSteqIP12old_intervalEbRKSt13move_iteratorIT_ES6_ = comdat any

$_ZNSt12_Destroy_auxILb0EE9__destroyIP12old_intervalEEvT_S4_ = comdat any

$_ZNSt13move_iteratorIP12old_intervalEC2ES1_ = comdat any

$_ZSt7advanceISt13move_iteratorIP12old_intervalElEvRT_T0_ = comdat any

$_ZSt9__advanceISt13move_iteratorIP12old_intervalElEvRT_T0_St26random_access_iterator_tag = comdat any

$_ZNSt13move_iteratorIP12old_intervalEmmEv = comdat any

$_ZNSt13move_iteratorIP12old_intervalEpLEl = comdat any

$_ZN11ext_numeralC2EOS_ = comdat any

$_ZN8rationalC2EOS_ = comdat any

$_ZN3mpqC2EOS_ = comdat any

$_ZN3mpzC2EOS_ = comdat any

$_Z13dealloc_svectIjEvPT_ = comdat any

$_ZN9table2mapI17default_map_entryISt4pairIjjEjE9pair_hashI13unsigned_hashS5_E10default_eqIS2_EED2Ev = comdat any

$_ZN14core_hashtableI17default_map_entryISt4pairIjjEjEN9table2mapIS3_9pair_hashI13unsigned_hashS6_E10default_eqIS2_EE15entry_hash_procENSA_13entry_eq_procEED2Ev = comdat any

$_ZN7datalog13relation_baseC2ERNS_15relation_pluginERKNS_18relation_signatureE = comdat any

$_ZN22union_find_default_ctxC2Ev = comdat any

$_ZN6vectorI12old_intervalLb1EjE6resizeIS0_EEvjT_z = comdat any

$_ZN7datalog17tr_infrastructureINS_15relation_traitsEE13base_ancestorC2ERNS_15relation_pluginERKNS_18relation_signatureE = comdat any

$_ZN7datalog18relation_signatureC2ERKS0_ = comdat any

$_ZNK7datalog17tr_infrastructureINS_15relation_traitsEE13plugin_object8get_kindEv = comdat any

$_ZN7datalog17tr_infrastructureINS_15relation_traitsEE14signature_baseC2ERKS3_ = comdat any

$_ZN10ptr_vectorI4sortEC2ERKS1_ = comdat any

$_ZN6vectorIP4sortLb0EjEC2ERKS2_ = comdat any

$_ZN11trail_stackC2Ev = comdat any

$_ZN10ptr_vectorI5trailEC2Ev = comdat any

$_ZN6vectorIP5trailLb0EjEC2Ev = comdat any

$_ZN6vectorI12old_intervalLb1EjE6shrinkEj = comdat any

$_ZNK6vectorI12old_intervalLb1EjE8capacityEv = comdat any

$_ZN6vectorI12old_intervalLb1EjE3endEv = comdat any

$_ZN6vectorI12old_intervalLb1EjE5resetEv = comdat any

$_ZNK7datalog17tr_infrastructureINS_15relation_traitsEE13base_ancestor8get_kindEv = comdat any

$_ZN7datalog17tr_infrastructureINS_15relation_traitsEE13base_ancestor7destroyEv = comdat any

$_ZSt4swapIP10union_findI22union_find_default_ctxS1_EENSt9enable_ifIXsr6__and_ISt6__not_ISt15__is_tuple_likeIT_EESt21is_move_constructibleIS7_ESt18is_move_assignableIS7_EEE5valueEvE4typeERS7_SG_ = comdat any

$_ZSt4swapIbENSt9enable_ifIXsr6__and_ISt6__not_ISt15__is_tuple_likeIT_EESt21is_move_constructibleIS3_ESt18is_move_assignableIS3_EEE5valueEvE4typeERS3_SC_ = comdat any

$_ZSt4swapIP6vectorI12old_intervalLb1EjEENSt9enable_ifIXsr6__and_ISt6__not_ISt15__is_tuple_likeIT_EESt21is_move_constructibleIS7_ESt18is_move_assignableIS7_EEE5valueEvE4typeERS7_SG_ = comdat any

$_ZTSN7datalog15vector_relationI12old_intervalNS_22vector_relation_helperIS1_EEEE = comdat any

$_ZTIN7datalog15vector_relationI12old_intervalNS_22vector_relation_helperIS1_EEEE = comdat any

$_ZTSN7datalog15relation_pluginE = comdat any

$_ZTSN7datalog17tr_infrastructureINS_15relation_traitsEE13plugin_objectE = comdat any

$_ZTIN7datalog17tr_infrastructureINS_15relation_traitsEE13plugin_objectE = comdat any

$_ZTIN7datalog15relation_pluginE = comdat any

$_ZTVN7datalog15relation_pluginE = comdat any

$_ZTVN7datalog17tr_infrastructureINS_15relation_traitsEE13plugin_objectE = comdat any

$_ZTVN7datalog24interval_relation_plugin7join_fnE = comdat any

$_ZTSN7datalog24interval_relation_plugin7join_fnE = comdat any

$_ZTSN7datalog17tr_infrastructureINS_15relation_traitsEE18convenient_join_fnE = comdat any

$_ZTSN7datalog17tr_infrastructureINS_15relation_traitsEE7join_fnE = comdat any

$_ZTSN7datalog17tr_infrastructureINS_15relation_traitsEE7base_fnE = comdat any

$_ZTIN7datalog17tr_infrastructureINS_15relation_traitsEE7base_fnE = comdat any

$_ZTIN7datalog17tr_infrastructureINS_15relation_traitsEE7join_fnE = comdat any

$_ZTIN7datalog17tr_infrastructureINS_15relation_traitsEE18convenient_join_fnE = comdat any

$_ZTIN7datalog24interval_relation_plugin7join_fnE = comdat any

$_ZTVN7datalog17tr_infrastructureINS_15relation_traitsEE18convenient_join_fnE = comdat any

$_ZTVN7datalog17tr_infrastructureINS_15relation_traitsEE7join_fnE = comdat any

$_ZTVN7datalog17tr_infrastructureINS_15relation_traitsEE7base_fnE = comdat any

$_ZTVN10union_findI22union_find_default_ctxS0_E11merge_trailE = comdat any

$_ZTSN10union_findI22union_find_default_ctxS0_E11merge_trailE = comdat any

$_ZTS5trail = comdat any

$_ZTI5trail = comdat any

$_ZTIN10union_findI22union_find_default_ctxS0_E11merge_trailE = comdat any

$_ZTV5trail = comdat any

$_ZTVN7datalog24interval_relation_plugin10project_fnE = comdat any

$_ZTSN7datalog24interval_relation_plugin10project_fnE = comdat any

$_ZTSN7datalog17tr_infrastructureINS_15relation_traitsEE21convenient_project_fnE = comdat any

$_ZTSN7datalog17tr_infrastructureINS_15relation_traitsEE25convenient_transformer_fnE = comdat any

$_ZTSN7datalog17tr_infrastructureINS_15relation_traitsEE14transformer_fnE = comdat any

$_ZTIN7datalog17tr_infrastructureINS_15relation_traitsEE14transformer_fnE = comdat any

$_ZTIN7datalog17tr_infrastructureINS_15relation_traitsEE25convenient_transformer_fnE = comdat any

$_ZTIN7datalog17tr_infrastructureINS_15relation_traitsEE21convenient_project_fnE = comdat any

$_ZTIN7datalog24interval_relation_plugin10project_fnE = comdat any

$_ZTVN7datalog17tr_infrastructureINS_15relation_traitsEE21convenient_project_fnE = comdat any

$_ZTVN7datalog17tr_infrastructureINS_15relation_traitsEE25convenient_transformer_fnE = comdat any

$_ZTVN7datalog17tr_infrastructureINS_15relation_traitsEE14transformer_fnE = comdat any

$_ZTVN7datalog24interval_relation_plugin9rename_fnE = comdat any

$_ZTSN7datalog24interval_relation_plugin9rename_fnE = comdat any

$_ZTSN7datalog17tr_infrastructureINS_15relation_traitsEE20convenient_rename_fnE = comdat any

$_ZTIN7datalog17tr_infrastructureINS_15relation_traitsEE20convenient_rename_fnE = comdat any

$_ZTIN7datalog24interval_relation_plugin9rename_fnE = comdat any

$_ZTVN7datalog17tr_infrastructureINS_15relation_traitsEE20convenient_rename_fnE = comdat any

$_ZTVN7datalog24interval_relation_plugin8union_fnE = comdat any

$_ZTSN7datalog24interval_relation_plugin8union_fnE = comdat any

$_ZTSN7datalog17tr_infrastructureINS_15relation_traitsEE8union_fnE = comdat any

$_ZTIN7datalog17tr_infrastructureINS_15relation_traitsEE8union_fnE = comdat any

$_ZTIN7datalog24interval_relation_plugin8union_fnE = comdat any

$_ZTVN7datalog17tr_infrastructureINS_15relation_traitsEE8union_fnE = comdat any

$_ZTVN7datalog24interval_relation_plugin19filter_identical_fnE = comdat any

$_ZTSN7datalog24interval_relation_plugin19filter_identical_fnE = comdat any

$_ZTSN7datalog17tr_infrastructureINS_15relation_traitsEE10mutator_fnE = comdat any

$_ZTIN7datalog17tr_infrastructureINS_15relation_traitsEE10mutator_fnE = comdat any

$_ZTIN7datalog24interval_relation_plugin19filter_identical_fnE = comdat any

$_ZTVN7datalog17tr_infrastructureINS_15relation_traitsEE10mutator_fnE = comdat any

$_ZTVN7datalog24interval_relation_plugin15filter_equal_fnE = comdat any

$_ZTSN7datalog24interval_relation_plugin15filter_equal_fnE = comdat any

$_ZTIN7datalog24interval_relation_plugin15filter_equal_fnE = comdat any

$_ZTVN7datalog24interval_relation_plugin21filter_interpreted_fnE = comdat any

$_ZTSN7datalog24interval_relation_plugin21filter_interpreted_fnE = comdat any

$_ZTIN7datalog24interval_relation_plugin21filter_interpreted_fnE = comdat any

$_ZTVN7datalog15vector_relationI12old_intervalNS_22vector_relation_helperIS1_EEEE = comdat any

$_ZTVN7datalog17tr_infrastructureINS_15relation_traitsEE13base_ancestorE = comdat any

$_ZTSN7datalog17tr_infrastructureINS_15relation_traitsEE13base_ancestorE = comdat any

$_ZTIN7datalog17tr_infrastructureINS_15relation_traitsEE13base_ancestorE = comdat any

$_ZTVN10union_findI22union_find_default_ctxS0_E12mk_var_trailE = comdat any

$_ZTSN10union_findI22union_find_default_ctxS0_E12mk_var_trailE = comdat any

$_ZTIN10union_findI22union_find_default_ctxS0_E12mk_var_trailE = comdat any

@_ZStL8__ioinit = internal global %"class.std::ios_base::Init" zeroinitializer, align 1
@__dso_handle = external hidden global i8
@_ZTVN7datalog24interval_relation_pluginE = hidden unnamed_addr constant { [28 x ptr] } { [28 x ptr] [ptr null, ptr @_ZTIN7datalog24interval_relation_pluginE, ptr @_ZN7datalog24interval_relation_pluginD2Ev, ptr @_ZN7datalog24interval_relation_pluginD0Ev, ptr @_ZN7datalog17tr_infrastructureINS_15relation_traitsEE13plugin_object10initializeEi, ptr @_ZN7datalog24interval_relation_plugin20can_handle_signatureERKNS_18relation_signatureE, ptr @_ZN7datalog17tr_infrastructureINS_15relation_traitsEE13plugin_object20can_handle_signatureERKNS_18relation_signatureEi, ptr @_ZN7datalog24interval_relation_plugin8mk_emptyERKNS_18relation_signatureE, ptr @_ZN7datalog17tr_infrastructureINS_15relation_traitsEE13plugin_object8mk_emptyERKNS_18relation_signatureEi, ptr @_ZN7datalog17tr_infrastructureINS_15relation_traitsEE13plugin_object8mk_emptyERKNS_13relation_baseE, ptr @_ZN7datalog24interval_relation_plugin7mk_fullEP9func_declRKNS_18relation_signatureE, ptr @_ZN7datalog17tr_infrastructureINS_15relation_traitsEE13plugin_object7mk_fullEP9func_declRKNS_18relation_signatureEi, ptr @_ZN7datalog24interval_relation_plugin10mk_join_fnERKNS_13relation_baseES3_jPKjS5_, ptr @_ZN7datalog24interval_relation_plugin13mk_project_fnERKNS_13relation_baseEjPKj, ptr @_ZN7datalog17tr_infrastructureINS_15relation_traitsEE13plugin_object18mk_join_project_fnERKNS_13relation_baseES6_jPKjS8_jS8_, ptr @_ZN7datalog24interval_relation_plugin12mk_rename_fnERKNS_13relation_baseEjPKj, ptr @_ZN7datalog17tr_infrastructureINS_15relation_traitsEE13plugin_object24mk_permutation_rename_fnERKNS_13relation_baseEPKj, ptr @_ZN7datalog24interval_relation_plugin11mk_union_fnERKNS_13relation_baseES3_PS2_, ptr @_ZN7datalog24interval_relation_plugin11mk_widen_fnERKNS_13relation_baseES3_PS2_, ptr @_ZN7datalog24interval_relation_plugin22mk_filter_identical_fnERKNS_13relation_baseEjPKj, ptr @_ZN7datalog24interval_relation_plugin18mk_filter_equal_fnERKNS_13relation_baseERKP3appj, ptr @_ZN7datalog24interval_relation_plugin24mk_filter_interpreted_fnERKNS_13relation_baseEP3app, ptr @_ZN7datalog17tr_infrastructureINS_15relation_traitsEE13plugin_object36mk_filter_interpreted_and_project_fnERKNS_13relation_baseEP3appjPKj, ptr @_ZN7datalog17tr_infrastructureINS_15relation_traitsEE13plugin_object30mk_select_equal_and_project_fnERKNS_13relation_baseERKP3appj, ptr @_ZN7datalog17tr_infrastructureINS_15relation_traitsEE13plugin_object28mk_filter_by_intersection_fnERKNS_13relation_baseES6_jPKjS8_, ptr @_ZN7datalog17tr_infrastructureINS_15relation_traitsEE13plugin_object24mk_filter_by_negation_fnERKNS_13relation_baseES6_jPKjS8_, ptr @_ZN7datalog17tr_infrastructureINS_15relation_traitsEE13plugin_object28mk_filter_by_negated_join_fnERKNS_13relation_baseES6_S6_RK7svectorIjjESA_SA_SA_, ptr @_ZNK7datalog15relation_plugin21is_singleton_relationEv] }, align 8
@_ZTIN7datalog13relation_baseE = external constant ptr
@_ZTVN10__cxxabiv120__si_class_type_infoE = external global [0 x ptr]
@_ZTSN7datalog17interval_relationE = hidden constant [30 x i8] c"N7datalog17interval_relationE\00", align 1
@_ZTSN7datalog15vector_relationI12old_intervalNS_22vector_relation_helperIS1_EEEE = linkonce_odr hidden constant [77 x i8] c"N7datalog15vector_relationI12old_intervalNS_22vector_relation_helperIS1_EEEE\00", comdat, align 1
@_ZTIN7datalog15vector_relationI12old_intervalNS_22vector_relation_helperIS1_EEEE = linkonce_odr hidden constant { ptr, ptr, ptr } { ptr getelementptr inbounds (ptr, ptr @_ZTVN10__cxxabiv120__si_class_type_infoE, i64 2), ptr @_ZTSN7datalog15vector_relationI12old_intervalNS_22vector_relation_helperIS1_EEEE, ptr @_ZTIN7datalog13relation_baseE }, comdat, align 8
@_ZTIN7datalog17interval_relationE = hidden constant { ptr, ptr, ptr } { ptr getelementptr inbounds (ptr, ptr @_ZTVN10__cxxabiv120__si_class_type_infoE, i64 2), ptr @_ZTSN7datalog17interval_relationE, ptr @_ZTIN7datalog15vector_relationI12old_intervalNS_22vector_relation_helperIS1_EEEE }, align 8
@_ZTVN7datalog17interval_relationE = hidden unnamed_addr constant { [31 x ptr] } { [31 x ptr] [ptr null, ptr @_ZTIN7datalog17interval_relationE, ptr @_ZN7datalog17interval_relationD2Ev, ptr @_ZN7datalog17interval_relationD0Ev, ptr @_ZN7datalog17tr_infrastructureINS_15relation_traitsEE13base_ancestor10deallocateEv, ptr @_ZNK7datalog15vector_relationI12old_intervalNS_22vector_relation_helperIS1_EEE5emptyEv, ptr @_ZNK7datalog17tr_infrastructureINS_15relation_traitsEE13base_ancestor10fast_emptyEv, ptr @_ZN7datalog17interval_relation8add_factERKNS_13relation_factE, ptr @_ZN7datalog17tr_infrastructureINS_15relation_traitsEE13base_ancestor12add_new_factERKNS_13relation_factE, ptr @_ZNK7datalog17interval_relation13contains_factERKNS_13relation_factE, ptr @_ZN7datalog13relation_base5resetEv, ptr @_ZNK7datalog17interval_relation5cloneEv, ptr @_ZNK7datalog17tr_infrastructureINS_15relation_traitsEE13base_ancestor8can_swapERKNS_13relation_baseE, ptr @_ZN7datalog15vector_relationI12old_intervalNS_22vector_relation_helperIS1_EEE4swapERNS_13relation_baseE, ptr @_ZNK7datalog17tr_infrastructureINS_15relation_traitsEE13base_ancestor22get_size_estimate_rowsEv, ptr @_ZNK7datalog17tr_infrastructureINS_15relation_traitsEE13base_ancestor23get_size_estimate_bytesEv, ptr @_ZNK7datalog17tr_infrastructureINS_15relation_traitsEE13base_ancestor16knows_exact_sizeEv, ptr @_ZNK7datalog15vector_relationI12old_intervalNS_22vector_relation_helperIS1_EEE7displayERSo, ptr @_ZNK7datalog17interval_relation10complementEP9func_decl, ptr @_ZNK7datalog13relation_base14display_tuplesER9func_declRSo, ptr @_ZNK7datalog17interval_relation10to_formulaER7obj_refI4expr11ast_managerE, ptr @_ZNK7datalog17interval_relation10is_preciseEv, ptr @_ZNK7datalog17interval_relation13display_indexEjRK12old_intervalRSo, ptr @_ZNK7datalog17interval_relation12mk_intersectERK12old_intervalS3_Rb, ptr @_ZNK7datalog17interval_relation8mk_widenERK12old_intervalS3_, ptr @_ZNK7datalog17interval_relation8mk_uniteERK12old_intervalS3_, ptr @_ZNK7datalog17interval_relation12is_subset_ofERK12old_intervalS3_, ptr @_ZNK7datalog17interval_relation7is_fullERK12old_interval, ptr @_ZNK7datalog17interval_relation8is_emptyEjRK12old_interval, ptr @_ZN7datalog17interval_relation14mk_rename_elemER12old_intervaljPKj, ptr @_ZNK7datalog15vector_relationI12old_intervalNS_22vector_relation_helperIS1_EEE5mk_eqERK10union_findI22union_find_default_ctxS6_ES9_RKS1_] }, align 8
@.str = private unnamed_addr constant [120 x i8] c"generated/home/dtcxzyw/WorkSpace/Projects/compilers/llvm-opt-benchmark/bench/z3/z3/src/muz/rel/dl_interval_relation.cpp\00", align 1
@.str.1 = private unnamed_addr constant [29 x i8] c"UNEXPECTED CODE WAS REACHED.\00", align 1
@.str.2 = private unnamed_addr constant [5 x i8] c" in \00", align 1
@.str.3 = private unnamed_addr constant [2 x i8] c"\0A\00", align 1
@_ZTSN7datalog24interval_relation_pluginE = hidden constant [37 x i8] c"N7datalog24interval_relation_pluginE\00", align 1
@_ZTSN7datalog15relation_pluginE = linkonce_odr hidden constant [28 x i8] c"N7datalog15relation_pluginE\00", comdat, align 1
@_ZTVN10__cxxabiv117__class_type_infoE = external global [0 x ptr]
@_ZTSN7datalog17tr_infrastructureINS_15relation_traitsEE13plugin_objectE = linkonce_odr hidden constant [68 x i8] c"N7datalog17tr_infrastructureINS_15relation_traitsEE13plugin_objectE\00", comdat, align 1
@_ZTIN7datalog17tr_infrastructureINS_15relation_traitsEE13plugin_objectE = linkonce_odr hidden constant { ptr, ptr } { ptr getelementptr inbounds (ptr, ptr @_ZTVN10__cxxabiv117__class_type_infoE, i64 2), ptr @_ZTSN7datalog17tr_infrastructureINS_15relation_traitsEE13plugin_objectE }, comdat, align 8
@_ZTIN7datalog15relation_pluginE = linkonce_odr hidden constant { ptr, ptr, ptr } { ptr getelementptr inbounds (ptr, ptr @_ZTVN10__cxxabiv120__si_class_type_infoE, i64 2), ptr @_ZTSN7datalog15relation_pluginE, ptr @_ZTIN7datalog17tr_infrastructureINS_15relation_traitsEE13plugin_objectE }, comdat, align 8
@_ZTIN7datalog24interval_relation_pluginE = hidden constant { ptr, ptr, ptr } { ptr getelementptr inbounds (ptr, ptr @_ZTVN10__cxxabiv120__si_class_type_infoE, i64 2), ptr @_ZTSN7datalog24interval_relation_pluginE, ptr @_ZTIN7datalog15relation_pluginE }, align 8
@.str.4 = private unnamed_addr constant [18 x i8] c"interval_relation\00", align 1
@_ZTVN7datalog15relation_pluginE = linkonce_odr hidden unnamed_addr constant { [28 x ptr] } { [28 x ptr] [ptr null, ptr @_ZTIN7datalog15relation_pluginE, ptr @_ZN7datalog15relation_pluginD2Ev, ptr @_ZN7datalog15relation_pluginD0Ev, ptr @_ZN7datalog17tr_infrastructureINS_15relation_traitsEE13plugin_object10initializeEi, ptr @__cxa_pure_virtual, ptr @_ZN7datalog17tr_infrastructureINS_15relation_traitsEE13plugin_object20can_handle_signatureERKNS_18relation_signatureEi, ptr @__cxa_pure_virtual, ptr @_ZN7datalog17tr_infrastructureINS_15relation_traitsEE13plugin_object8mk_emptyERKNS_18relation_signatureEi, ptr @_ZN7datalog17tr_infrastructureINS_15relation_traitsEE13plugin_object8mk_emptyERKNS_13relation_baseE, ptr @_ZN7datalog17tr_infrastructureINS_15relation_traitsEE13plugin_object7mk_fullEP9func_declRKNS_18relation_signatureE, ptr @_ZN7datalog17tr_infrastructureINS_15relation_traitsEE13plugin_object7mk_fullEP9func_declRKNS_18relation_signatureEi, ptr @_ZN7datalog17tr_infrastructureINS_15relation_traitsEE13plugin_object10mk_join_fnERKNS_13relation_baseES6_jPKjS8_, ptr @_ZN7datalog17tr_infrastructureINS_15relation_traitsEE13plugin_object13mk_project_fnERKNS_13relation_baseEjPKj, ptr @_ZN7datalog17tr_infrastructureINS_15relation_traitsEE13plugin_object18mk_join_project_fnERKNS_13relation_baseES6_jPKjS8_jS8_, ptr @_ZN7datalog17tr_infrastructureINS_15relation_traitsEE13plugin_object12mk_rename_fnERKNS_13relation_baseEjPKj, ptr @_ZN7datalog17tr_infrastructureINS_15relation_traitsEE13plugin_object24mk_permutation_rename_fnERKNS_13relation_baseEPKj, ptr @_ZN7datalog17tr_infrastructureINS_15relation_traitsEE13plugin_object11mk_union_fnERKNS_13relation_baseES6_PS5_, ptr @_ZN7datalog17tr_infrastructureINS_15relation_traitsEE13plugin_object11mk_widen_fnERKNS_13relation_baseES6_PS5_, ptr @_ZN7datalog17tr_infrastructureINS_15relation_traitsEE13plugin_object22mk_filter_identical_fnERKNS_13relation_baseEjPKj, ptr @_ZN7datalog17tr_infrastructureINS_15relation_traitsEE13plugin_object18mk_filter_equal_fnERKNS_13relation_baseERKP3appj, ptr @_ZN7datalog17tr_infrastructureINS_15relation_traitsEE13plugin_object24mk_filter_interpreted_fnERKNS_13relation_baseEP3app, ptr @_ZN7datalog17tr_infrastructureINS_15relation_traitsEE13plugin_object36mk_filter_interpreted_and_project_fnERKNS_13relation_baseEP3appjPKj, ptr @_ZN7datalog17tr_infrastructureINS_15relation_traitsEE13plugin_object30mk_select_equal_and_project_fnERKNS_13relation_baseERKP3appj, ptr @_ZN7datalog17tr_infrastructureINS_15relation_traitsEE13plugin_object28mk_filter_by_intersection_fnERKNS_13relation_baseES6_jPKjS8_, ptr @_ZN7datalog17tr_infrastructureINS_15relation_traitsEE13plugin_object24mk_filter_by_negation_fnERKNS_13relation_baseES6_jPKjS8_, ptr @_ZN7datalog17tr_infrastructureINS_15relation_traitsEE13plugin_object28mk_filter_by_negated_join_fnERKNS_13relation_baseES6_S6_RK7svectorIjjESA_SA_SA_, ptr @_ZNK7datalog15relation_plugin21is_singleton_relationEv] }, comdat, align 8
@_ZTVN7datalog17tr_infrastructureINS_15relation_traitsEE13plugin_objectE = linkonce_odr hidden unnamed_addr constant { [27 x ptr] } { [27 x ptr] [ptr null, ptr @_ZTIN7datalog17tr_infrastructureINS_15relation_traitsEE13plugin_objectE, ptr @_ZN7datalog17tr_infrastructureINS_15relation_traitsEE13plugin_objectD2Ev, ptr @_ZN7datalog17tr_infrastructureINS_15relation_traitsEE13plugin_objectD0Ev, ptr @_ZN7datalog17tr_infrastructureINS_15relation_traitsEE13plugin_object10initializeEi, ptr @__cxa_pure_virtual, ptr @_ZN7datalog17tr_infrastructureINS_15relation_traitsEE13plugin_object20can_handle_signatureERKNS_18relation_signatureEi, ptr @__cxa_pure_virtual, ptr @_ZN7datalog17tr_infrastructureINS_15relation_traitsEE13plugin_object8mk_emptyERKNS_18relation_signatureEi, ptr @_ZN7datalog17tr_infrastructureINS_15relation_traitsEE13plugin_object8mk_emptyERKNS_13relation_baseE, ptr @_ZN7datalog17tr_infrastructureINS_15relation_traitsEE13plugin_object7mk_fullEP9func_declRKNS_18relation_signatureE, ptr @_ZN7datalog17tr_infrastructureINS_15relation_traitsEE13plugin_object7mk_fullEP9func_declRKNS_18relation_signatureEi, ptr @_ZN7datalog17tr_infrastructureINS_15relation_traitsEE13plugin_object10mk_join_fnERKNS_13relation_baseES6_jPKjS8_, ptr @_ZN7datalog17tr_infrastructureINS_15relation_traitsEE13plugin_object13mk_project_fnERKNS_13relation_baseEjPKj, ptr @_ZN7datalog17tr_infrastructureINS_15relation_traitsEE13plugin_object18mk_join_project_fnERKNS_13relation_baseES6_jPKjS8_jS8_, ptr @_ZN7datalog17tr_infrastructureINS_15relation_traitsEE13plugin_object12mk_rename_fnERKNS_13relation_baseEjPKj, ptr @_ZN7datalog17tr_infrastructureINS_15relation_traitsEE13plugin_object24mk_permutation_rename_fnERKNS_13relation_baseEPKj, ptr @_ZN7datalog17tr_infrastructureINS_15relation_traitsEE13plugin_object11mk_union_fnERKNS_13relation_baseES6_PS5_, ptr @_ZN7datalog17tr_infrastructureINS_15relation_traitsEE13plugin_object11mk_widen_fnERKNS_13relation_baseES6_PS5_, ptr @_ZN7datalog17tr_infrastructureINS_15relation_traitsEE13plugin_object22mk_filter_identical_fnERKNS_13relation_baseEjPKj, ptr @_ZN7datalog17tr_infrastructureINS_15relation_traitsEE13plugin_object18mk_filter_equal_fnERKNS_13relation_baseERKP3appj, ptr @_ZN7datalog17tr_infrastructureINS_15relation_traitsEE13plugin_object24mk_filter_interpreted_fnERKNS_13relation_baseEP3app, ptr @_ZN7datalog17tr_infrastructureINS_15relation_traitsEE13plugin_object36mk_filter_interpreted_and_project_fnERKNS_13relation_baseEP3appjPKj, ptr @_ZN7datalog17tr_infrastructureINS_15relation_traitsEE13plugin_object30mk_select_equal_and_project_fnERKNS_13relation_baseERKP3appj, ptr @_ZN7datalog17tr_infrastructureINS_15relation_traitsEE13plugin_object28mk_filter_by_intersection_fnERKNS_13relation_baseES6_jPKjS8_, ptr @_ZN7datalog17tr_infrastructureINS_15relation_traitsEE13plugin_object24mk_filter_by_negation_fnERKNS_13relation_baseES6_jPKjS8_, ptr @_ZN7datalog17tr_infrastructureINS_15relation_traitsEE13plugin_object28mk_filter_by_negated_join_fnERKNS_13relation_baseES6_S6_RK7svectorIjjESA_SA_SA_] }, comdat, align 8
@_ZTVN7datalog24interval_relation_plugin7join_fnE = linkonce_odr hidden unnamed_addr constant { [5 x ptr] } { [5 x ptr] [ptr null, ptr @_ZTIN7datalog24interval_relation_plugin7join_fnE, ptr @_ZN7datalog24interval_relation_plugin7join_fnD2Ev, ptr @_ZN7datalog24interval_relation_plugin7join_fnD0Ev, ptr @_ZN7datalog24interval_relation_plugin7join_fnclERKNS_13relation_baseES4_] }, comdat, align 8
@_ZTSN7datalog24interval_relation_plugin7join_fnE = linkonce_odr hidden constant [45 x i8] c"N7datalog24interval_relation_plugin7join_fnE\00", comdat, align 1
@_ZTSN7datalog17tr_infrastructureINS_15relation_traitsEE18convenient_join_fnE = linkonce_odr hidden constant [73 x i8] c"N7datalog17tr_infrastructureINS_15relation_traitsEE18convenient_join_fnE\00", comdat, align 1
@_ZTSN7datalog17tr_infrastructureINS_15relation_traitsEE7join_fnE = linkonce_odr hidden constant [61 x i8] c"N7datalog17tr_infrastructureINS_15relation_traitsEE7join_fnE\00", comdat, align 1
@_ZTSN7datalog17tr_infrastructureINS_15relation_traitsEE7base_fnE = linkonce_odr hidden constant [61 x i8] c"N7datalog17tr_infrastructureINS_15relation_traitsEE7base_fnE\00", comdat, align 1
@_ZTIN7datalog17tr_infrastructureINS_15relation_traitsEE7base_fnE = linkonce_odr hidden constant { ptr, ptr } { ptr getelementptr inbounds (ptr, ptr @_ZTVN10__cxxabiv117__class_type_infoE, i64 2), ptr @_ZTSN7datalog17tr_infrastructureINS_15relation_traitsEE7base_fnE }, comdat, align 8
@_ZTIN7datalog17tr_infrastructureINS_15relation_traitsEE7join_fnE = linkonce_odr hidden constant { ptr, ptr, ptr } { ptr getelementptr inbounds (ptr, ptr @_ZTVN10__cxxabiv120__si_class_type_infoE, i64 2), ptr @_ZTSN7datalog17tr_infrastructureINS_15relation_traitsEE7join_fnE, ptr @_ZTIN7datalog17tr_infrastructureINS_15relation_traitsEE7base_fnE }, comdat, align 8
@_ZTIN7datalog17tr_infrastructureINS_15relation_traitsEE18convenient_join_fnE = linkonce_odr hidden constant { ptr, ptr, ptr } { ptr getelementptr inbounds (ptr, ptr @_ZTVN10__cxxabiv120__si_class_type_infoE, i64 2), ptr @_ZTSN7datalog17tr_infrastructureINS_15relation_traitsEE18convenient_join_fnE, ptr @_ZTIN7datalog17tr_infrastructureINS_15relation_traitsEE7join_fnE }, comdat, align 8
@_ZTIN7datalog24interval_relation_plugin7join_fnE = linkonce_odr hidden constant { ptr, ptr, ptr } { ptr getelementptr inbounds (ptr, ptr @_ZTVN10__cxxabiv120__si_class_type_infoE, i64 2), ptr @_ZTSN7datalog24interval_relation_plugin7join_fnE, ptr @_ZTIN7datalog17tr_infrastructureINS_15relation_traitsEE18convenient_join_fnE }, comdat, align 8
@_ZTVN7datalog17tr_infrastructureINS_15relation_traitsEE18convenient_join_fnE = linkonce_odr hidden unnamed_addr constant { [5 x ptr] } { [5 x ptr] [ptr null, ptr @_ZTIN7datalog17tr_infrastructureINS_15relation_traitsEE18convenient_join_fnE, ptr @_ZN7datalog17tr_infrastructureINS_15relation_traitsEE18convenient_join_fnD2Ev, ptr @_ZN7datalog17tr_infrastructureINS_15relation_traitsEE18convenient_join_fnD0Ev, ptr @__cxa_pure_virtual] }, comdat, align 8
@_ZTVN7datalog17tr_infrastructureINS_15relation_traitsEE7join_fnE = linkonce_odr hidden unnamed_addr constant { [5 x ptr] } { [5 x ptr] [ptr null, ptr @_ZTIN7datalog17tr_infrastructureINS_15relation_traitsEE7join_fnE, ptr @_ZN7datalog17tr_infrastructureINS_15relation_traitsEE7join_fnD2Ev, ptr @_ZN7datalog17tr_infrastructureINS_15relation_traitsEE7join_fnD0Ev, ptr @__cxa_pure_virtual] }, comdat, align 8
@_ZTVN7datalog17tr_infrastructureINS_15relation_traitsEE7base_fnE = linkonce_odr hidden unnamed_addr constant { [4 x ptr] } { [4 x ptr] [ptr null, ptr @_ZTIN7datalog17tr_infrastructureINS_15relation_traitsEE7base_fnE, ptr @_ZN7datalog17tr_infrastructureINS_15relation_traitsEE7base_fnD2Ev, ptr @_ZN7datalog17tr_infrastructureINS_15relation_traitsEE7base_fnD0Ev] }, comdat, align 8
@.str.5 = private unnamed_addr constant [43 x i8] c"Overflow encountered when expanding vector\00", align 1
@_ZTI17default_exception = external constant ptr
@.str.6 = private unnamed_addr constant [50 x i8] c"basic_string: construction from null is not valid\00", align 1
@_ZTV17default_exception = external unnamed_addr constant { [6 x ptr] }, align 8
@_ZTV12z3_exception = external unnamed_addr constant { [6 x ptr] }, align 8
@_ZTVN10union_findI22union_find_default_ctxS0_E11merge_trailE = linkonce_odr hidden unnamed_addr constant { [5 x ptr] } { [5 x ptr] [ptr null, ptr @_ZTIN10union_findI22union_find_default_ctxS0_E11merge_trailE, ptr @_ZN10union_findI22union_find_default_ctxS0_E11merge_trailD2Ev, ptr @_ZN10union_findI22union_find_default_ctxS0_E11merge_trailD0Ev, ptr @_ZN10union_findI22union_find_default_ctxS0_E11merge_trail4undoEv] }, comdat, align 8
@_ZTSN10union_findI22union_find_default_ctxS0_E11merge_trailE = linkonce_odr hidden constant [57 x i8] c"N10union_findI22union_find_default_ctxS0_E11merge_trailE\00", comdat, align 1
@_ZTS5trail = linkonce_odr hidden constant [7 x i8] c"5trail\00", comdat, align 1
@_ZTI5trail = linkonce_odr hidden constant { ptr, ptr } { ptr getelementptr inbounds (ptr, ptr @_ZTVN10__cxxabiv117__class_type_infoE, i64 2), ptr @_ZTS5trail }, comdat, align 8
@_ZTIN10union_findI22union_find_default_ctxS0_E11merge_trailE = linkonce_odr hidden constant { ptr, ptr, ptr } { ptr getelementptr inbounds (ptr, ptr @_ZTVN10__cxxabiv120__si_class_type_infoE, i64 2), ptr @_ZTSN10union_findI22union_find_default_ctxS0_E11merge_trailE, ptr @_ZTI5trail }, comdat, align 8
@_ZTV5trail = linkonce_odr hidden unnamed_addr constant { [5 x ptr] } { [5 x ptr] [ptr null, ptr @_ZTI5trail, ptr @_ZN5trailD2Ev, ptr @_ZN5trailD0Ev, ptr @__cxa_pure_virtual] }, comdat, align 8
@_ZTVN7datalog24interval_relation_plugin10project_fnE = linkonce_odr hidden unnamed_addr constant { [5 x ptr] } { [5 x ptr] [ptr null, ptr @_ZTIN7datalog24interval_relation_plugin10project_fnE, ptr @_ZN7datalog24interval_relation_plugin10project_fnD2Ev, ptr @_ZN7datalog24interval_relation_plugin10project_fnD0Ev, ptr @_ZN7datalog24interval_relation_plugin10project_fnclERKNS_13relation_baseE] }, comdat, align 8
@_ZTSN7datalog24interval_relation_plugin10project_fnE = linkonce_odr hidden constant [49 x i8] c"N7datalog24interval_relation_plugin10project_fnE\00", comdat, align 1
@_ZTSN7datalog17tr_infrastructureINS_15relation_traitsEE21convenient_project_fnE = linkonce_odr hidden constant [76 x i8] c"N7datalog17tr_infrastructureINS_15relation_traitsEE21convenient_project_fnE\00", comdat, align 1
@_ZTSN7datalog17tr_infrastructureINS_15relation_traitsEE25convenient_transformer_fnE = linkonce_odr hidden constant [80 x i8] c"N7datalog17tr_infrastructureINS_15relation_traitsEE25convenient_transformer_fnE\00", comdat, align 1
@_ZTSN7datalog17tr_infrastructureINS_15relation_traitsEE14transformer_fnE = linkonce_odr hidden constant [69 x i8] c"N7datalog17tr_infrastructureINS_15relation_traitsEE14transformer_fnE\00", comdat, align 1
@_ZTIN7datalog17tr_infrastructureINS_15relation_traitsEE14transformer_fnE = linkonce_odr hidden constant { ptr, ptr, ptr } { ptr getelementptr inbounds (ptr, ptr @_ZTVN10__cxxabiv120__si_class_type_infoE, i64 2), ptr @_ZTSN7datalog17tr_infrastructureINS_15relation_traitsEE14transformer_fnE, ptr @_ZTIN7datalog17tr_infrastructureINS_15relation_traitsEE7base_fnE }, comdat, align 8
@_ZTIN7datalog17tr_infrastructureINS_15relation_traitsEE25convenient_transformer_fnE = linkonce_odr hidden constant { ptr, ptr, ptr } { ptr getelementptr inbounds (ptr, ptr @_ZTVN10__cxxabiv120__si_class_type_infoE, i64 2), ptr @_ZTSN7datalog17tr_infrastructureINS_15relation_traitsEE25convenient_transformer_fnE, ptr @_ZTIN7datalog17tr_infrastructureINS_15relation_traitsEE14transformer_fnE }, comdat, align 8
@_ZTIN7datalog17tr_infrastructureINS_15relation_traitsEE21convenient_project_fnE = linkonce_odr hidden constant { ptr, ptr, ptr } { ptr getelementptr inbounds (ptr, ptr @_ZTVN10__cxxabiv120__si_class_type_infoE, i64 2), ptr @_ZTSN7datalog17tr_infrastructureINS_15relation_traitsEE21convenient_project_fnE, ptr @_ZTIN7datalog17tr_infrastructureINS_15relation_traitsEE25convenient_transformer_fnE }, comdat, align 8
@_ZTIN7datalog24interval_relation_plugin10project_fnE = linkonce_odr hidden constant { ptr, ptr, ptr } { ptr getelementptr inbounds (ptr, ptr @_ZTVN10__cxxabiv120__si_class_type_infoE, i64 2), ptr @_ZTSN7datalog24interval_relation_plugin10project_fnE, ptr @_ZTIN7datalog17tr_infrastructureINS_15relation_traitsEE21convenient_project_fnE }, comdat, align 8
@_ZTVN7datalog17tr_infrastructureINS_15relation_traitsEE21convenient_project_fnE = linkonce_odr hidden unnamed_addr constant { [5 x ptr] } { [5 x ptr] [ptr null, ptr @_ZTIN7datalog17tr_infrastructureINS_15relation_traitsEE21convenient_project_fnE, ptr @_ZN7datalog17tr_infrastructureINS_15relation_traitsEE21convenient_project_fnD2Ev, ptr @_ZN7datalog17tr_infrastructureINS_15relation_traitsEE21convenient_project_fnD0Ev, ptr @__cxa_pure_virtual] }, comdat, align 8
@_ZTVN7datalog17tr_infrastructureINS_15relation_traitsEE25convenient_transformer_fnE = linkonce_odr hidden unnamed_addr constant { [5 x ptr] } { [5 x ptr] [ptr null, ptr @_ZTIN7datalog17tr_infrastructureINS_15relation_traitsEE25convenient_transformer_fnE, ptr @_ZN7datalog17tr_infrastructureINS_15relation_traitsEE25convenient_transformer_fnD2Ev, ptr @_ZN7datalog17tr_infrastructureINS_15relation_traitsEE25convenient_transformer_fnD0Ev, ptr @__cxa_pure_virtual] }, comdat, align 8
@_ZTVN7datalog17tr_infrastructureINS_15relation_traitsEE14transformer_fnE = linkonce_odr hidden unnamed_addr constant { [5 x ptr] } { [5 x ptr] [ptr null, ptr @_ZTIN7datalog17tr_infrastructureINS_15relation_traitsEE14transformer_fnE, ptr @_ZN7datalog17tr_infrastructureINS_15relation_traitsEE14transformer_fnD2Ev, ptr @_ZN7datalog17tr_infrastructureINS_15relation_traitsEE14transformer_fnD0Ev, ptr @__cxa_pure_virtual] }, comdat, align 8
@_ZTVN7datalog24interval_relation_plugin9rename_fnE = linkonce_odr hidden unnamed_addr constant { [5 x ptr] } { [5 x ptr] [ptr null, ptr @_ZTIN7datalog24interval_relation_plugin9rename_fnE, ptr @_ZN7datalog24interval_relation_plugin9rename_fnD2Ev, ptr @_ZN7datalog24interval_relation_plugin9rename_fnD0Ev, ptr @_ZN7datalog24interval_relation_plugin9rename_fnclERKNS_13relation_baseE] }, comdat, align 8
@_ZTSN7datalog24interval_relation_plugin9rename_fnE = linkonce_odr hidden constant [47 x i8] c"N7datalog24interval_relation_plugin9rename_fnE\00", comdat, align 1
@_ZTSN7datalog17tr_infrastructureINS_15relation_traitsEE20convenient_rename_fnE = linkonce_odr hidden constant [75 x i8] c"N7datalog17tr_infrastructureINS_15relation_traitsEE20convenient_rename_fnE\00", comdat, align 1
@_ZTIN7datalog17tr_infrastructureINS_15relation_traitsEE20convenient_rename_fnE = linkonce_odr hidden constant { ptr, ptr, ptr } { ptr getelementptr inbounds (ptr, ptr @_ZTVN10__cxxabiv120__si_class_type_infoE, i64 2), ptr @_ZTSN7datalog17tr_infrastructureINS_15relation_traitsEE20convenient_rename_fnE, ptr @_ZTIN7datalog17tr_infrastructureINS_15relation_traitsEE25convenient_transformer_fnE }, comdat, align 8
@_ZTIN7datalog24interval_relation_plugin9rename_fnE = linkonce_odr hidden constant { ptr, ptr, ptr } { ptr getelementptr inbounds (ptr, ptr @_ZTVN10__cxxabiv120__si_class_type_infoE, i64 2), ptr @_ZTSN7datalog24interval_relation_plugin9rename_fnE, ptr @_ZTIN7datalog17tr_infrastructureINS_15relation_traitsEE20convenient_rename_fnE }, comdat, align 8
@_ZTVN7datalog17tr_infrastructureINS_15relation_traitsEE20convenient_rename_fnE = linkonce_odr hidden unnamed_addr constant { [5 x ptr] } { [5 x ptr] [ptr null, ptr @_ZTIN7datalog17tr_infrastructureINS_15relation_traitsEE20convenient_rename_fnE, ptr @_ZN7datalog17tr_infrastructureINS_15relation_traitsEE20convenient_rename_fnD2Ev, ptr @_ZN7datalog17tr_infrastructureINS_15relation_traitsEE20convenient_rename_fnD0Ev, ptr @__cxa_pure_virtual] }, comdat, align 8
@_ZN8rational13g_mpq_managerE = external global ptr, align 8
@_ZTVN7datalog24interval_relation_plugin8union_fnE = linkonce_odr hidden unnamed_addr constant { [5 x ptr] } { [5 x ptr] [ptr null, ptr @_ZTIN7datalog24interval_relation_plugin8union_fnE, ptr @_ZN7datalog24interval_relation_plugin8union_fnD2Ev, ptr @_ZN7datalog24interval_relation_plugin8union_fnD0Ev, ptr @_ZN7datalog24interval_relation_plugin8union_fnclERNS_13relation_baseERKS2_PS2_] }, comdat, align 8
@_ZTSN7datalog24interval_relation_plugin8union_fnE = linkonce_odr hidden constant [46 x i8] c"N7datalog24interval_relation_plugin8union_fnE\00", comdat, align 1
@_ZTSN7datalog17tr_infrastructureINS_15relation_traitsEE8union_fnE = linkonce_odr hidden constant [62 x i8] c"N7datalog17tr_infrastructureINS_15relation_traitsEE8union_fnE\00", comdat, align 1
@_ZTIN7datalog17tr_infrastructureINS_15relation_traitsEE8union_fnE = linkonce_odr hidden constant { ptr, ptr, ptr } { ptr getelementptr inbounds (ptr, ptr @_ZTVN10__cxxabiv120__si_class_type_infoE, i64 2), ptr @_ZTSN7datalog17tr_infrastructureINS_15relation_traitsEE8union_fnE, ptr @_ZTIN7datalog17tr_infrastructureINS_15relation_traitsEE7base_fnE }, comdat, align 8
@_ZTIN7datalog24interval_relation_plugin8union_fnE = linkonce_odr hidden constant { ptr, ptr, ptr } { ptr getelementptr inbounds (ptr, ptr @_ZTVN10__cxxabiv120__si_class_type_infoE, i64 2), ptr @_ZTSN7datalog24interval_relation_plugin8union_fnE, ptr @_ZTIN7datalog17tr_infrastructureINS_15relation_traitsEE8union_fnE }, comdat, align 8
@_ZTVN7datalog17tr_infrastructureINS_15relation_traitsEE8union_fnE = linkonce_odr hidden unnamed_addr constant { [5 x ptr] } { [5 x ptr] [ptr null, ptr @_ZTIN7datalog17tr_infrastructureINS_15relation_traitsEE8union_fnE, ptr @_ZN7datalog17tr_infrastructureINS_15relation_traitsEE8union_fnD2Ev, ptr @_ZN7datalog17tr_infrastructureINS_15relation_traitsEE8union_fnD0Ev, ptr @__cxa_pure_virtual] }, comdat, align 8
@_ZTVN7datalog24interval_relation_plugin19filter_identical_fnE = linkonce_odr hidden unnamed_addr constant { [7 x ptr] } { [7 x ptr] [ptr null, ptr @_ZTIN7datalog24interval_relation_plugin19filter_identical_fnE, ptr @_ZN7datalog24interval_relation_plugin19filter_identical_fnD2Ev, ptr @_ZN7datalog24interval_relation_plugin19filter_identical_fnD0Ev, ptr @_ZN7datalog24interval_relation_plugin19filter_identical_fnclERNS_13relation_baseE, ptr @_ZN7datalog17tr_infrastructureINS_15relation_traitsEE10mutator_fn19supports_attachmentERNS_13relation_baseE, ptr @_ZN7datalog17tr_infrastructureINS_15relation_traitsEE10mutator_fn6attachERNS_13relation_baseE] }, comdat, align 8
@_ZTSN7datalog24interval_relation_plugin19filter_identical_fnE = linkonce_odr hidden constant [58 x i8] c"N7datalog24interval_relation_plugin19filter_identical_fnE\00", comdat, align 1
@_ZTSN7datalog17tr_infrastructureINS_15relation_traitsEE10mutator_fnE = linkonce_odr hidden constant [65 x i8] c"N7datalog17tr_infrastructureINS_15relation_traitsEE10mutator_fnE\00", comdat, align 1
@_ZTIN7datalog17tr_infrastructureINS_15relation_traitsEE10mutator_fnE = linkonce_odr hidden constant { ptr, ptr, ptr } { ptr getelementptr inbounds (ptr, ptr @_ZTVN10__cxxabiv120__si_class_type_infoE, i64 2), ptr @_ZTSN7datalog17tr_infrastructureINS_15relation_traitsEE10mutator_fnE, ptr @_ZTIN7datalog17tr_infrastructureINS_15relation_traitsEE7base_fnE }, comdat, align 8
@_ZTIN7datalog24interval_relation_plugin19filter_identical_fnE = linkonce_odr hidden constant { ptr, ptr, ptr } { ptr getelementptr inbounds (ptr, ptr @_ZTVN10__cxxabiv120__si_class_type_infoE, i64 2), ptr @_ZTSN7datalog24interval_relation_plugin19filter_identical_fnE, ptr @_ZTIN7datalog17tr_infrastructureINS_15relation_traitsEE10mutator_fnE }, comdat, align 8
@_ZTVN7datalog17tr_infrastructureINS_15relation_traitsEE10mutator_fnE = linkonce_odr hidden unnamed_addr constant { [7 x ptr] } { [7 x ptr] [ptr null, ptr @_ZTIN7datalog17tr_infrastructureINS_15relation_traitsEE10mutator_fnE, ptr @_ZN7datalog17tr_infrastructureINS_15relation_traitsEE10mutator_fnD2Ev, ptr @_ZN7datalog17tr_infrastructureINS_15relation_traitsEE10mutator_fnD0Ev, ptr @__cxa_pure_virtual, ptr @_ZN7datalog17tr_infrastructureINS_15relation_traitsEE10mutator_fn19supports_attachmentERNS_13relation_baseE, ptr @_ZN7datalog17tr_infrastructureINS_15relation_traitsEE10mutator_fn6attachERNS_13relation_baseE] }, comdat, align 8
@.str.7 = private unnamed_addr constant [105 x i8] c"generated/home/dtcxzyw/WorkSpace/Projects/compilers/llvm-opt-benchmark/bench/z3/z3/src/muz/rel/dl_base.h\00", align 1
@_ZTVN7datalog24interval_relation_plugin15filter_equal_fnE = linkonce_odr hidden unnamed_addr constant { [7 x ptr] } { [7 x ptr] [ptr null, ptr @_ZTIN7datalog24interval_relation_plugin15filter_equal_fnE, ptr @_ZN7datalog24interval_relation_plugin15filter_equal_fnD2Ev, ptr @_ZN7datalog24interval_relation_plugin15filter_equal_fnD0Ev, ptr @_ZN7datalog24interval_relation_plugin15filter_equal_fnclERNS_13relation_baseE, ptr @_ZN7datalog17tr_infrastructureINS_15relation_traitsEE10mutator_fn19supports_attachmentERNS_13relation_baseE, ptr @_ZN7datalog17tr_infrastructureINS_15relation_traitsEE10mutator_fn6attachERNS_13relation_baseE] }, comdat, align 8
@.str.8 = private unnamed_addr constant [52 x i8] c"Failed to verify: arith.is_numeral(value, m_value)\0A\00", align 1
@_ZTSN7datalog24interval_relation_plugin15filter_equal_fnE = linkonce_odr hidden constant [54 x i8] c"N7datalog24interval_relation_plugin15filter_equal_fnE\00", comdat, align 1
@_ZTIN7datalog24interval_relation_plugin15filter_equal_fnE = linkonce_odr hidden constant { ptr, ptr, ptr } { ptr getelementptr inbounds (ptr, ptr @_ZTVN10__cxxabiv120__si_class_type_infoE, i64 2), ptr @_ZTSN7datalog24interval_relation_plugin15filter_equal_fnE, ptr @_ZTIN7datalog17tr_infrastructureINS_15relation_traitsEE10mutator_fnE }, comdat, align 8
@_ZTVN7datalog24interval_relation_plugin21filter_interpreted_fnE = linkonce_odr hidden unnamed_addr constant { [7 x ptr] } { [7 x ptr] [ptr null, ptr @_ZTIN7datalog24interval_relation_plugin21filter_interpreted_fnE, ptr @_ZN7datalog24interval_relation_plugin21filter_interpreted_fnD2Ev, ptr @_ZN7datalog24interval_relation_plugin21filter_interpreted_fnD0Ev, ptr @_ZN7datalog24interval_relation_plugin21filter_interpreted_fnclERNS_13relation_baseE, ptr @_ZN7datalog17tr_infrastructureINS_15relation_traitsEE10mutator_fn19supports_attachmentERNS_13relation_baseE, ptr @_ZN7datalog17tr_infrastructureINS_15relation_traitsEE10mutator_fn6attachERNS_13relation_baseE] }, comdat, align 8
@_ZTSN7datalog24interval_relation_plugin21filter_interpreted_fnE = linkonce_odr hidden constant [60 x i8] c"N7datalog24interval_relation_plugin21filter_interpreted_fnE\00", comdat, align 1
@_ZTIN7datalog24interval_relation_plugin21filter_interpreted_fnE = linkonce_odr hidden constant { ptr, ptr, ptr } { ptr getelementptr inbounds (ptr, ptr @_ZTVN10__cxxabiv120__si_class_type_infoE, i64 2), ptr @_ZTSN7datalog24interval_relation_plugin21filter_interpreted_fnE, ptr @_ZTIN7datalog17tr_infrastructureINS_15relation_traitsEE10mutator_fnE }, comdat, align 8
@_ZTVN7datalog15vector_relationI12old_intervalNS_22vector_relation_helperIS1_EEEE = linkonce_odr hidden unnamed_addr constant { [31 x ptr] } { [31 x ptr] [ptr null, ptr @_ZTIN7datalog15vector_relationI12old_intervalNS_22vector_relation_helperIS1_EEEE, ptr @_ZN7datalog15vector_relationI12old_intervalNS_22vector_relation_helperIS1_EEED2Ev, ptr @_ZN7datalog15vector_relationI12old_intervalNS_22vector_relation_helperIS1_EEED0Ev, ptr @_ZN7datalog17tr_infrastructureINS_15relation_traitsEE13base_ancestor10deallocateEv, ptr @_ZNK7datalog15vector_relationI12old_intervalNS_22vector_relation_helperIS1_EEE5emptyEv, ptr @_ZNK7datalog17tr_infrastructureINS_15relation_traitsEE13base_ancestor10fast_emptyEv, ptr @__cxa_pure_virtual, ptr @_ZN7datalog17tr_infrastructureINS_15relation_traitsEE13base_ancestor12add_new_factERKNS_13relation_factE, ptr @__cxa_pure_virtual, ptr @_ZN7datalog13relation_base5resetEv, ptr @__cxa_pure_virtual, ptr @_ZNK7datalog17tr_infrastructureINS_15relation_traitsEE13base_ancestor8can_swapERKNS_13relation_baseE, ptr @_ZN7datalog15vector_relationI12old_intervalNS_22vector_relation_helperIS1_EEE4swapERNS_13relation_baseE, ptr @_ZNK7datalog17tr_infrastructureINS_15relation_traitsEE13base_ancestor22get_size_estimate_rowsEv, ptr @_ZNK7datalog17tr_infrastructureINS_15relation_traitsEE13base_ancestor23get_size_estimate_bytesEv, ptr @_ZNK7datalog17tr_infrastructureINS_15relation_traitsEE13base_ancestor16knows_exact_sizeEv, ptr @_ZNK7datalog15vector_relationI12old_intervalNS_22vector_relation_helperIS1_EEE7displayERSo, ptr @__cxa_pure_virtual, ptr @_ZNK7datalog13relation_base14display_tuplesER9func_declRSo, ptr @__cxa_pure_virtual, ptr @_ZNK7datalog13relation_base10is_preciseEv, ptr @__cxa_pure_virtual, ptr @__cxa_pure_virtual, ptr @__cxa_pure_virtual, ptr @__cxa_pure_virtual, ptr @__cxa_pure_virtual, ptr @__cxa_pure_virtual, ptr @__cxa_pure_virtual, ptr @__cxa_pure_virtual, ptr @_ZNK7datalog15vector_relationI12old_intervalNS_22vector_relation_helperIS1_EEE5mk_eqERK10union_findI22union_find_default_ctxS6_ES9_RKS1_] }, comdat, align 8
@_ZTVN7datalog17tr_infrastructureINS_15relation_traitsEE13base_ancestorE = linkonce_odr hidden unnamed_addr constant { [18 x ptr] } { [18 x ptr] [ptr null, ptr @_ZTIN7datalog17tr_infrastructureINS_15relation_traitsEE13base_ancestorE, ptr @_ZN7datalog17tr_infrastructureINS_15relation_traitsEE13base_ancestorD2Ev, ptr @_ZN7datalog17tr_infrastructureINS_15relation_traitsEE13base_ancestorD0Ev, ptr @_ZN7datalog17tr_infrastructureINS_15relation_traitsEE13base_ancestor10deallocateEv, ptr @__cxa_pure_virtual, ptr @_ZNK7datalog17tr_infrastructureINS_15relation_traitsEE13base_ancestor10fast_emptyEv, ptr @__cxa_pure_virtual, ptr @_ZN7datalog17tr_infrastructureINS_15relation_traitsEE13base_ancestor12add_new_factERKNS_13relation_factE, ptr @__cxa_pure_virtual, ptr @__cxa_pure_virtual, ptr @__cxa_pure_virtual, ptr @_ZNK7datalog17tr_infrastructureINS_15relation_traitsEE13base_ancestor8can_swapERKNS_13relation_baseE, ptr @_ZN7datalog17tr_infrastructureINS_15relation_traitsEE13base_ancestor4swapERNS_13relation_baseE, ptr @_ZNK7datalog17tr_infrastructureINS_15relation_traitsEE13base_ancestor22get_size_estimate_rowsEv, ptr @_ZNK7datalog17tr_infrastructureINS_15relation_traitsEE13base_ancestor23get_size_estimate_bytesEv, ptr @_ZNK7datalog17tr_infrastructureINS_15relation_traitsEE13base_ancestor16knows_exact_sizeEv, ptr @__cxa_pure_virtual] }, comdat, align 8
@_ZTSN7datalog17tr_infrastructureINS_15relation_traitsEE13base_ancestorE = linkonce_odr hidden constant [68 x i8] c"N7datalog17tr_infrastructureINS_15relation_traitsEE13base_ancestorE\00", comdat, align 1
@_ZTIN7datalog17tr_infrastructureINS_15relation_traitsEE13base_ancestorE = linkonce_odr hidden constant { ptr, ptr } { ptr getelementptr inbounds (ptr, ptr @_ZTVN10__cxxabiv117__class_type_infoE, i64 2), ptr @_ZTSN7datalog17tr_infrastructureINS_15relation_traitsEE13base_ancestorE }, comdat, align 8
@_ZN8rational5m_oneE = external global %class.rational, align 8
@.str.9 = private unnamed_addr constant [11 x i8] c"Tuples in \00", align 1
@.str.10 = private unnamed_addr constant [4 x i8] c": \0A\00", align 1
@.str.11 = private unnamed_addr constant [5 x i8] c"null\00", align 1
@.str.12 = private unnamed_addr constant [3 x i8] c"k!\00", align 1
@.str.13 = private unnamed_addr constant [118 x i8] c"generated/home/dtcxzyw/WorkSpace/Projects/compilers/llvm-opt-benchmark/bench/z3/z3/src/muz/rel/dl_interval_relation.h\00", align 1
@.str.14 = private unnamed_addr constant [21 x i8] c"NOT IMPLEMENTED YET!\00", align 1
@_ZTVN10union_findI22union_find_default_ctxS0_E12mk_var_trailE = linkonce_odr hidden unnamed_addr constant { [5 x ptr] } { [5 x ptr] [ptr null, ptr @_ZTIN10union_findI22union_find_default_ctxS0_E12mk_var_trailE, ptr @_ZN10union_findI22union_find_default_ctxS0_E12mk_var_trailD2Ev, ptr @_ZN10union_findI22union_find_default_ctxS0_E12mk_var_trailD0Ev, ptr @_ZN10union_findI22union_find_default_ctxS0_E12mk_var_trail4undoEv] }, comdat, align 8
@_ZTSN10union_findI22union_find_default_ctxS0_E12mk_var_trailE = linkonce_odr hidden constant [58 x i8] c"N10union_findI22union_find_default_ctxS0_E12mk_var_trailE\00", comdat, align 1
@_ZTIN10union_findI22union_find_default_ctxS0_E12mk_var_trailE = linkonce_odr hidden constant { ptr, ptr, ptr } { ptr getelementptr inbounds (ptr, ptr @_ZTVN10__cxxabiv120__si_class_type_infoE, i64 2), ptr @_ZTSN10union_findI22union_find_default_ctxS0_E12mk_var_trailE, ptr @_ZTI5trail }, comdat, align 8
@.str.15 = private unnamed_addr constant [104 x i8] c"generated/home/dtcxzyw/WorkSpace/Projects/compilers/llvm-opt-benchmark/bench/z3/z3/src/util/hashtable.h\00", align 1
@_ZTVN7datalog13relation_baseE = external unnamed_addr constant { [22 x ptr] }, align 8
@.str.16 = private unnamed_addr constant [7 x i8] c"empty\0A\00", align 1
@.str.17 = private unnamed_addr constant [4 x i8] c" = \00", align 1
@.str.18 = private unnamed_addr constant [2 x i8] c" \00", align 1
@llvm.global_ctors = appending global [1 x { i32, ptr, ptr }] [{ i32, ptr, ptr } { i32 65535, ptr @_GLOBAL__sub_I_dl_interval_relation.cpp, ptr null }]

@_ZN7datalog24interval_relation_pluginC1ERNS_16relation_managerE = hidden unnamed_addr alias void (ptr, ptr), ptr @_ZN7datalog24interval_relation_pluginC2ERNS_16relation_managerE
@_ZN7datalog17interval_relationC1ERNS_24interval_relation_pluginERKNS_18relation_signatureEb = hidden unnamed_addr alias void (ptr, ptr, ptr, i1), ptr @_ZN7datalog17interval_relationC2ERNS_24interval_relation_pluginERKNS_18relation_signatureEb

; Function Attrs: uwtable
define internal void @__cxx_global_var_init() #0 section ".text.startup" {
entry:
  call void @_ZNSt8ios_base4InitC1Ev(ptr noundef nonnull align 1 dereferenceable(1) @_ZStL8__ioinit)
  %0 = call i32 @__cxa_atexit(ptr @_ZNSt8ios_base4InitD1Ev, ptr @_ZStL8__ioinit, ptr @__dso_handle) #3
  ret void
}

declare void @_ZNSt8ios_base4InitC1Ev(ptr noundef nonnull align 1 dereferenceable(1)) unnamed_addr #1

; Function Attrs: nounwind
declare void @_ZNSt8ios_base4InitD1Ev(ptr noundef nonnull align 1 dereferenceable(1)) unnamed_addr #2

; Function Attrs: nounwind
declare i32 @__cxa_atexit(ptr, ptr, ptr) #3

; Function Attrs: mustprogress uwtable
define hidden void @_ZN7datalog24interval_relation_pluginC2ERNS_16relation_managerE(ptr noundef nonnull align 8 dereferenceable(240) %this, ptr noundef nonnull align 8 dereferenceable(200) %m) unnamed_addr #4 align 2 personality ptr @__gxx_personality_v0 {
entry:
  %this.addr = alloca ptr, align 8
  %m.addr = alloca ptr, align 8
  %ref.tmp = alloca %class.symbol, align 8
  %exn.slot = alloca ptr, align 8
  %ehselector.slot = alloca i32, align 4
  store ptr %this, ptr %this.addr, align 8
  store ptr %m, ptr %m.addr, align 8
  %this1 = load ptr, ptr %this.addr, align 8
  %call = call ptr @_ZN7datalog24interval_relation_plugin8get_nameEv()
  %coerce.dive = getelementptr inbounds %class.symbol, ptr %ref.tmp, i32 0, i32 0
  store ptr %call, ptr %coerce.dive, align 8
  %0 = load ptr, ptr %m.addr, align 8
  call void @_ZN7datalog15relation_pluginC2ERK6symbolRNS_16relation_managerENS0_21special_relation_typeE(ptr noundef nonnull align 8 dereferenceable(36) %this1, ptr noundef nonnull align 8 dereferenceable(8) %ref.tmp, ptr noundef nonnull align 8 dereferenceable(200) %0, i32 noundef 0)
  store ptr getelementptr inbounds ({ [28 x ptr] }, ptr @_ZTVN7datalog24interval_relation_pluginE, i32 0, inrange i32 0, i32 2), ptr %this1, align 8
  %m_dep = getelementptr inbounds %"class.datalog::interval_relation_plugin", ptr %this1, i32 0, i32 1
  invoke void @_ZN25scoped_dependency_managerIPvEC2Ev(ptr noundef nonnull align 8 dereferenceable(72) %m_dep)
          to label %invoke.cont unwind label %lpad

invoke.cont:                                      ; preds = %entry
  %m_empty = getelementptr inbounds %"class.datalog::interval_relation_plugin", ptr %this1, i32 0, i32 2
  %m_dep2 = getelementptr inbounds %"class.datalog::interval_relation_plugin", ptr %this1, i32 0, i32 1
  invoke void @_ZN12old_intervalC1ER25scoped_dependency_managerIPvE(ptr noundef nonnull align 8 dereferenceable(112) %m_empty, ptr noundef nonnull align 8 dereferenceable(72) %m_dep2)
          to label %invoke.cont4 unwind label %lpad3

invoke.cont4:                                     ; preds = %invoke.cont
  %m_arith = getelementptr inbounds %"class.datalog::interval_relation_plugin", ptr %this1, i32 0, i32 3
  %call7 = invoke noundef nonnull align 8 dereferenceable(976) ptr @_ZNK7datalog17tr_infrastructureINS_15relation_traitsEE13plugin_object15get_ast_managerEv(ptr noundef nonnull align 8 dereferenceable(32) %this1)
          to label %invoke.cont6 unwind label %lpad5

invoke.cont6:                                     ; preds = %invoke.cont4
  invoke void @_ZN10arith_utilC1ER11ast_manager(ptr noundef nonnull align 8 dereferenceable(16) %m_arith, ptr noundef nonnull align 8 dereferenceable(976) %call7)
          to label %invoke.cont8 unwind label %lpad5

invoke.cont8:                                     ; preds = %invoke.cont6
  ret void

lpad:                                             ; preds = %entry
  %1 = landingpad { ptr, i32 }
          cleanup
  %2 = extractvalue { ptr, i32 } %1, 0
  store ptr %2, ptr %exn.slot, align 8
  %3 = extractvalue { ptr, i32 } %1, 1
  store i32 %3, ptr %ehselector.slot, align 4
  br label %ehcleanup9

lpad3:                                            ; preds = %invoke.cont
  %4 = landingpad { ptr, i32 }
          cleanup
  %5 = extractvalue { ptr, i32 } %4, 0
  store ptr %5, ptr %exn.slot, align 8
  %6 = extractvalue { ptr, i32 } %4, 1
  store i32 %6, ptr %ehselector.slot, align 4
  br label %ehcleanup

lpad5:                                            ; preds = %invoke.cont6, %invoke.cont4
  %7 = landingpad { ptr, i32 }
          cleanup
  %8 = extractvalue { ptr, i32 } %7, 0
  store ptr %8, ptr %exn.slot, align 8
  %9 = extractvalue { ptr, i32 } %7, 1
  store i32 %9, ptr %ehselector.slot, align 4
  call void @_ZN12old_intervalD2Ev(ptr noundef nonnull align 8 dereferenceable(112) %m_empty) #3
  br label %ehcleanup

ehcleanup:                                        ; preds = %lpad5, %lpad3
  call void @_ZN25scoped_dependency_managerIPvED2Ev(ptr noundef nonnull align 8 dereferenceable(72) %m_dep) #3
  br label %ehcleanup9

ehcleanup9:                                       ; preds = %ehcleanup, %lpad
  call void @_ZN7datalog15relation_pluginD2Ev(ptr noundef nonnull align 8 dereferenceable(36) %this1) #3
  br label %eh.resume

eh.resume:                                        ; preds = %ehcleanup9
  %exn = load ptr, ptr %exn.slot, align 8
  %sel = load i32, ptr %ehselector.slot, align 4
  %lpad.val = insertvalue { ptr, i32 } poison, ptr %exn, 0
  %lpad.val10 = insertvalue { ptr, i32 } %lpad.val, i32 %sel, 1
  resume { ptr, i32 } %lpad.val10
}

; Function Attrs: mustprogress uwtable
define linkonce_odr hidden ptr @_ZN7datalog24interval_relation_plugin8get_nameEv() #4 comdat align 2 {
entry:
  %retval = alloca %class.symbol, align 8
  call void @_ZN6symbolC1EPKc(ptr noundef nonnull align 8 dereferenceable(8) %retval, ptr noundef @.str.4)
  %coerce.dive = getelementptr inbounds %class.symbol, ptr %retval, i32 0, i32 0
  %0 = load ptr, ptr %coerce.dive, align 8
  ret ptr %0
}

; Function Attrs: mustprogress uwtable
define linkonce_odr hidden void @_ZN7datalog15relation_pluginC2ERK6symbolRNS_16relation_managerENS0_21special_relation_typeE(ptr noundef nonnull align 8 dereferenceable(36) %this, ptr noundef nonnull align 8 dereferenceable(8) %name, ptr noundef nonnull align 8 dereferenceable(200) %manager, i32 noundef %special_type) unnamed_addr #4 comdat align 2 {
entry:
  %this.addr = alloca ptr, align 8
  %name.addr = alloca ptr, align 8
  %manager.addr = alloca ptr, align 8
  %special_type.addr = alloca i32, align 4
  store ptr %this, ptr %this.addr, align 8
  store ptr %name, ptr %name.addr, align 8
  store ptr %manager, ptr %manager.addr, align 8
  store i32 %special_type, ptr %special_type.addr, align 4
  %this1 = load ptr, ptr %this.addr, align 8
  %0 = load ptr, ptr %name.addr, align 8
  %1 = load ptr, ptr %manager.addr, align 8
  call void @_ZN7datalog17tr_infrastructureINS_15relation_traitsEE13plugin_objectC2ERK6symbolRNS_16relation_managerE(ptr noundef nonnull align 8 dereferenceable(32) %this1, ptr noundef nonnull align 8 dereferenceable(8) %0, ptr noundef nonnull align 8 dereferenceable(200) %1)
  store ptr getelementptr inbounds ({ [28 x ptr] }, ptr @_ZTVN7datalog15relation_pluginE, i32 0, inrange i32 0, i32 2), ptr %this1, align 8
  %m_special_type = getelementptr inbounds %"class.datalog::relation_plugin", ptr %this1, i32 0, i32 1
  %2 = load i32, ptr %special_type.addr, align 4
  store i32 %2, ptr %m_special_type, align 8
  ret void
}

; Function Attrs: mustprogress uwtable
define linkonce_odr hidden void @_ZN25scoped_dependency_managerIPvEC2Ev(ptr noundef nonnull align 8 dereferenceable(72) %this) unnamed_addr #4 comdat align 2 personality ptr @__gxx_personality_v0 {
entry:
  %this.addr = alloca ptr, align 8
  %exn.slot = alloca ptr, align 8
  %ehselector.slot = alloca i32, align 4
  store ptr %this, ptr %this.addr, align 8
  %this1 = load ptr, ptr %this.addr, align 8
  %m_allocator = getelementptr inbounds %class.scoped_dependency_manager, ptr %this1, i32 0, i32 1
  call void @_ZN25scoped_dependency_managerIPvE6config9allocatorC2Ev(ptr noundef nonnull align 8 dereferenceable(40) %m_allocator)
  %m_dep_manager = getelementptr inbounds %class.scoped_dependency_manager, ptr %this1, i32 0, i32 2
  %m_vmanager2 = getelementptr inbounds %class.scoped_dependency_manager, ptr %this1, i32 0, i32 0
  %m_allocator3 = getelementptr inbounds %class.scoped_dependency_manager, ptr %this1, i32 0, i32 1
  invoke void @_ZN18dependency_managerIN25scoped_dependency_managerIPvE6configEEC2ERNS3_13value_managerERNS3_9allocatorE(ptr noundef nonnull align 8 dereferenceable(24) %m_dep_manager, ptr noundef nonnull align 1 dereferenceable(1) %m_vmanager2, ptr noundef nonnull align 8 dereferenceable(40) %m_allocator3)
          to label %invoke.cont unwind label %lpad

invoke.cont:                                      ; preds = %entry
  ret void

lpad:                                             ; preds = %entry
  %0 = landingpad { ptr, i32 }
          cleanup
  %1 = extractvalue { ptr, i32 } %0, 0
  store ptr %1, ptr %exn.slot, align 8
  %2 = extractvalue { ptr, i32 } %0, 1
  store i32 %2, ptr %ehselector.slot, align 4
  call void @_ZN25scoped_dependency_managerIPvE6config9allocatorD2Ev(ptr noundef nonnull align 8 dereferenceable(40) %m_allocator) #3
  br label %eh.resume

eh.resume:                                        ; preds = %lpad
  %exn = load ptr, ptr %exn.slot, align 8
  %sel = load i32, ptr %ehselector.slot, align 4
  %lpad.val = insertvalue { ptr, i32 } poison, ptr %exn, 0
  %lpad.val4 = insertvalue { ptr, i32 } %lpad.val, i32 %sel, 1
  resume { ptr, i32 } %lpad.val4
}

declare i32 @__gxx_personality_v0(...)

declare void @_ZN12old_intervalC1ER25scoped_dependency_managerIPvE(ptr noundef nonnull align 8 dereferenceable(112), ptr noundef nonnull align 8 dereferenceable(72)) unnamed_addr #1

; Function Attrs: mustprogress uwtable
define linkonce_odr hidden noundef nonnull align 8 dereferenceable(976) ptr @_ZNK7datalog17tr_infrastructureINS_15relation_traitsEE13plugin_object15get_ast_managerEv(ptr noundef nonnull align 8 dereferenceable(32) %this) #4 comdat align 2 {
entry:
  %this.addr = alloca ptr, align 8
  store ptr %this, ptr %this.addr, align 8
  %this1 = load ptr, ptr %this.addr, align 8
  %m_manager = getelementptr inbounds %"class.datalog::tr_infrastructure<datalog::relation_traits>::plugin_object", ptr %this1, i32 0, i32 3
  %0 = load ptr, ptr %m_manager, align 8
  %call = call noundef nonnull align 8 dereferenceable(976) ptr @_ZN7datalog32get_ast_manager_from_rel_managerERKNS_16relation_managerE(ptr noundef nonnull align 8 dereferenceable(200) %0)
  ret ptr %call
}

declare void @_ZN10arith_utilC1ER11ast_manager(ptr noundef nonnull align 8 dereferenceable(16), ptr noundef nonnull align 8 dereferenceable(976)) unnamed_addr #1

; Function Attrs: mustprogress nounwind uwtable
define linkonce_odr hidden void @_ZN12old_intervalD2Ev(ptr noundef nonnull align 8 dereferenceable(112) %this) unnamed_addr #5 comdat align 2 {
entry:
  %this.addr = alloca ptr, align 8
  store ptr %this, ptr %this.addr, align 8
  %this1 = load ptr, ptr %this.addr, align 8
  %m_upper = getelementptr inbounds %class.old_interval, ptr %this1, i32 0, i32 2
  call void @_ZN11ext_numeralD2Ev(ptr noundef nonnull align 8 dereferenceable(40) %m_upper) #3
  %m_lower = getelementptr inbounds %class.old_interval, ptr %this1, i32 0, i32 1
  call void @_ZN11ext_numeralD2Ev(ptr noundef nonnull align 8 dereferenceable(40) %m_lower) #3
  ret void
}

; Function Attrs: mustprogress nounwind uwtable
define linkonce_odr hidden void @_ZN25scoped_dependency_managerIPvED2Ev(ptr noundef nonnull align 8 dereferenceable(72) %this) unnamed_addr #5 comdat align 2 {
entry:
  %this.addr = alloca ptr, align 8
  store ptr %this, ptr %this.addr, align 8
  %this1 = load ptr, ptr %this.addr, align 8
  %m_dep_manager = getelementptr inbounds %class.scoped_dependency_manager, ptr %this1, i32 0, i32 2
  call void @_ZN18dependency_managerIN25scoped_dependency_managerIPvE6configEED2Ev(ptr noundef nonnull align 8 dereferenceable(24) %m_dep_manager) #3
  %m_allocator = getelementptr inbounds %class.scoped_dependency_manager, ptr %this1, i32 0, i32 1
  call void @_ZN25scoped_dependency_managerIPvE6config9allocatorD2Ev(ptr noundef nonnull align 8 dereferenceable(40) %m_allocator) #3
  ret void
}

; Function Attrs: mustprogress uwtable
define hidden noundef zeroext i1 @_ZN7datalog24interval_relation_plugin20can_handle_signatureERKNS_18relation_signatureE(ptr noundef nonnull align 8 dereferenceable(240) %this, ptr noundef nonnull align 8 dereferenceable(8) %sig) unnamed_addr #4 align 2 {
entry:
  %retval = alloca i1, align 1
  %this.addr = alloca ptr, align 8
  %sig.addr = alloca ptr, align 8
  %i = alloca i32, align 4
  store ptr %this, ptr %this.addr, align 8
  store ptr %sig, ptr %sig.addr, align 8
  %this1 = load ptr, ptr %this.addr, align 8
  store i32 0, ptr %i, align 4
  br label %for.cond

for.cond:                                         ; preds = %for.inc, %entry
  %0 = load i32, ptr %i, align 4
  %1 = load ptr, ptr %sig.addr, align 8
  %call = call noundef i32 @_ZNK6vectorIP4sortLb0EjE4sizeEv(ptr noundef nonnull align 8 dereferenceable(8) %1)
  %cmp = icmp ult i32 %0, %call
  br i1 %cmp, label %for.body, label %for.end

for.body:                                         ; preds = %for.cond
  %m_arith = getelementptr inbounds %"class.datalog::interval_relation_plugin", ptr %this1, i32 0, i32 3
  %2 = load ptr, ptr %sig.addr, align 8
  %3 = load i32, ptr %i, align 4
  %call2 = call noundef nonnull align 8 dereferenceable(8) ptr @_ZNK6vectorIP4sortLb0EjEixEj(ptr noundef nonnull align 8 dereferenceable(8) %2, i32 noundef %3)
  %4 = load ptr, ptr %call2, align 8
  %call3 = call noundef zeroext i1 @_ZNK17arith_recognizers6is_intEPK4sort(ptr noundef nonnull align 1 dereferenceable(1) %m_arith, ptr noundef %4)
  br i1 %call3, label %if.end, label %land.lhs.true

land.lhs.true:                                    ; preds = %for.body
  %m_arith4 = getelementptr inbounds %"class.datalog::interval_relation_plugin", ptr %this1, i32 0, i32 3
  %5 = load ptr, ptr %sig.addr, align 8
  %6 = load i32, ptr %i, align 4
  %call5 = call noundef nonnull align 8 dereferenceable(8) ptr @_ZNK6vectorIP4sortLb0EjEixEj(ptr noundef nonnull align 8 dereferenceable(8) %5, i32 noundef %6)
  %7 = load ptr, ptr %call5, align 8
  %call6 = call noundef zeroext i1 @_ZNK17arith_recognizers7is_realEPK4sort(ptr noundef nonnull align 1 dereferenceable(1) %m_arith4, ptr noundef %7)
  br i1 %call6, label %if.end, label %if.then

if.then:                                          ; preds = %land.lhs.true
  store i1 false, ptr %retval, align 1
  br label %return

if.end:                                           ; preds = %land.lhs.true, %for.body
  br label %for.inc

for.inc:                                          ; preds = %if.end
  %8 = load i32, ptr %i, align 4
  %inc = add i32 %8, 1
  store i32 %inc, ptr %i, align 4
  br label %for.cond, !llvm.loop !4

for.end:                                          ; preds = %for.cond
  store i1 true, ptr %retval, align 1
  br label %return

return:                                           ; preds = %for.end, %if.then
  %9 = load i1, ptr %retval, align 1
  ret i1 %9
}

; Function Attrs: mustprogress nounwind uwtable
define linkonce_odr hidden noundef i32 @_ZNK6vectorIP4sortLb0EjE4sizeEv(ptr noundef nonnull align 8 dereferenceable(8) %this) #5 comdat align 2 {
entry:
  %retval = alloca i32, align 4
  %this.addr = alloca ptr, align 8
  store ptr %this, ptr %this.addr, align 8
  %this1 = load ptr, ptr %this.addr, align 8
  %m_data = getelementptr inbounds %class.vector.63, ptr %this1, i32 0, i32 0
  %0 = load ptr, ptr %m_data, align 8
  %cmp = icmp eq ptr %0, null
  br i1 %cmp, label %if.then, label %if.end

if.then:                                          ; preds = %entry
  store i32 0, ptr %retval, align 4
  br label %return

if.end:                                           ; preds = %entry
  %m_data2 = getelementptr inbounds %class.vector.63, ptr %this1, i32 0, i32 0
  %1 = load ptr, ptr %m_data2, align 8
  %arrayidx = getelementptr inbounds i32, ptr %1, i64 -1
  %2 = load i32, ptr %arrayidx, align 4
  store i32 %2, ptr %retval, align 4
  br label %return

return:                                           ; preds = %if.end, %if.then
  %3 = load i32, ptr %retval, align 4
  ret i32 %3
}

; Function Attrs: mustprogress uwtable
define linkonce_odr hidden noundef zeroext i1 @_ZNK17arith_recognizers6is_intEPK4sort(ptr noundef nonnull align 1 dereferenceable(1) %this, ptr noundef %s) #4 comdat align 2 {
entry:
  %this.addr = alloca ptr, align 8
  %s.addr = alloca ptr, align 8
  store ptr %this, ptr %this.addr, align 8
  store ptr %s, ptr %s.addr, align 8
  %0 = load ptr, ptr %s.addr, align 8
  %call = call noundef zeroext i1 @_Z10is_sort_ofPK4sortii(ptr noundef %0, i32 noundef 5, i32 noundef 1)
  ret i1 %call
}

; Function Attrs: mustprogress nounwind uwtable
define linkonce_odr hidden noundef nonnull align 8 dereferenceable(8) ptr @_ZNK6vectorIP4sortLb0EjEixEj(ptr noundef nonnull align 8 dereferenceable(8) %this, i32 noundef %idx) #5 comdat align 2 {
entry:
  %this.addr = alloca ptr, align 8
  %idx.addr = alloca i32, align 4
  store ptr %this, ptr %this.addr, align 8
  store i32 %idx, ptr %idx.addr, align 4
  %this1 = load ptr, ptr %this.addr, align 8
  %m_data = getelementptr inbounds %class.vector.63, ptr %this1, i32 0, i32 0
  %0 = load ptr, ptr %m_data, align 8
  %1 = load i32, ptr %idx.addr, align 4
  %idxprom = zext i32 %1 to i64
  %arrayidx = getelementptr inbounds ptr, ptr %0, i64 %idxprom
  ret ptr %arrayidx
}

; Function Attrs: mustprogress uwtable
define linkonce_odr hidden noundef zeroext i1 @_ZNK17arith_recognizers7is_realEPK4sort(ptr noundef nonnull align 1 dereferenceable(1) %this, ptr noundef %s) #4 comdat align 2 {
entry:
  %this.addr = alloca ptr, align 8
  %s.addr = alloca ptr, align 8
  store ptr %this, ptr %this.addr, align 8
  store ptr %s, ptr %s.addr, align 8
  %0 = load ptr, ptr %s.addr, align 8
  %call = call noundef zeroext i1 @_Z10is_sort_ofPK4sortii(ptr noundef %0, i32 noundef 5, i32 noundef 0)
  ret i1 %call
}

; Function Attrs: mustprogress uwtable
define hidden noundef ptr @_ZN7datalog24interval_relation_plugin8mk_emptyERKNS_18relation_signatureE(ptr noundef nonnull align 8 dereferenceable(240) %this, ptr noundef nonnull align 8 dereferenceable(8) %s) unnamed_addr #4 align 2 {
entry:
  %this.addr = alloca ptr, align 8
  %s.addr = alloca ptr, align 8
  store ptr %this, ptr %this.addr, align 8
  store ptr %s, ptr %s.addr, align 8
  %this1 = load ptr, ptr %this.addr, align 8
  %call = call noalias noundef ptr @_ZN6memory8allocateEm(i64 noundef 224)
  %0 = load ptr, ptr %s.addr, align 8
  call void @_ZN7datalog17interval_relationC1ERNS_24interval_relation_pluginERKNS_18relation_signatureEb(ptr noundef nonnull align 8 dereferenceable(224) %call, ptr noundef nonnull align 8 dereferenceable(240) %this1, ptr noundef nonnull align 8 dereferenceable(8) %0, i1 noundef zeroext true)
  ret ptr %call
}

declare noalias noundef ptr @_ZN6memory8allocateEm(i64 noundef) #1

; Function Attrs: mustprogress uwtable
define hidden noundef ptr @_ZN7datalog24interval_relation_plugin7mk_fullEP9func_declRKNS_18relation_signatureE(ptr noundef nonnull align 8 dereferenceable(240) %this, ptr noundef %p, ptr noundef nonnull align 8 dereferenceable(8) %s) unnamed_addr #4 align 2 {
entry:
  %this.addr = alloca ptr, align 8
  %p.addr = alloca ptr, align 8
  %s.addr = alloca ptr, align 8
  store ptr %this, ptr %this.addr, align 8
  store ptr %p, ptr %p.addr, align 8
  store ptr %s, ptr %s.addr, align 8
  %this1 = load ptr, ptr %this.addr, align 8
  %call = call noalias noundef ptr @_ZN6memory8allocateEm(i64 noundef 224)
  %0 = load ptr, ptr %s.addr, align 8
  call void @_ZN7datalog17interval_relationC1ERNS_24interval_relation_pluginERKNS_18relation_signatureEb(ptr noundef nonnull align 8 dereferenceable(224) %call, ptr noundef nonnull align 8 dereferenceable(240) %this1, ptr noundef nonnull align 8 dereferenceable(8) %0, i1 noundef zeroext false)
  ret ptr %call
}

; Function Attrs: mustprogress uwtable
define hidden noundef ptr @_ZN7datalog24interval_relation_plugin10mk_join_fnERKNS_13relation_baseES3_jPKjS5_(ptr noundef nonnull align 8 dereferenceable(240) %this, ptr noundef nonnull align 8 dereferenceable(28) %r1, ptr noundef nonnull align 8 dereferenceable(28) %r2, i32 noundef %col_cnt, ptr noundef %cols1, ptr noundef %cols2) unnamed_addr #4 align 2 {
entry:
  %retval = alloca ptr, align 8
  %this.addr = alloca ptr, align 8
  %r1.addr = alloca ptr, align 8
  %r2.addr = alloca ptr, align 8
  %col_cnt.addr = alloca i32, align 4
  %cols1.addr = alloca ptr, align 8
  %cols2.addr = alloca ptr, align 8
  store ptr %this, ptr %this.addr, align 8
  store ptr %r1, ptr %r1.addr, align 8
  store ptr %r2, ptr %r2.addr, align 8
  store i32 %col_cnt, ptr %col_cnt.addr, align 4
  store ptr %cols1, ptr %cols1.addr, align 8
  store ptr %cols2, ptr %cols2.addr, align 8
  %this1 = load ptr, ptr %this.addr, align 8
  %0 = load ptr, ptr %r1.addr, align 8
  %call = call noundef zeroext i1 @_ZNK7datalog17tr_infrastructureINS_15relation_traitsEE13plugin_object10check_kindERKNS_13relation_baseE(ptr noundef nonnull align 8 dereferenceable(32) %this1, ptr noundef nonnull align 8 dereferenceable(28) %0)
  br i1 %call, label %lor.lhs.false, label %if.then

lor.lhs.false:                                    ; preds = %entry
  %1 = load ptr, ptr %r2.addr, align 8
  %call2 = call noundef zeroext i1 @_ZNK7datalog17tr_infrastructureINS_15relation_traitsEE13plugin_object10check_kindERKNS_13relation_baseE(ptr noundef nonnull align 8 dereferenceable(32) %this1, ptr noundef nonnull align 8 dereferenceable(28) %1)
  br i1 %call2, label %if.end, label %if.then

if.then:                                          ; preds = %lor.lhs.false, %entry
  store ptr null, ptr %retval, align 8
  br label %return

if.end:                                           ; preds = %lor.lhs.false
  %call3 = call noalias noundef ptr @_ZN6memory8allocateEm(i64 noundef 32)
  %2 = load ptr, ptr %r1.addr, align 8
  %call4 = call noundef nonnull align 8 dereferenceable(8) ptr @_ZNK7datalog17tr_infrastructureINS_15relation_traitsEE13base_ancestor13get_signatureEv(ptr noundef nonnull align 8 dereferenceable(28) %2)
  %3 = load ptr, ptr %r2.addr, align 8
  %call5 = call noundef nonnull align 8 dereferenceable(8) ptr @_ZNK7datalog17tr_infrastructureINS_15relation_traitsEE13base_ancestor13get_signatureEv(ptr noundef nonnull align 8 dereferenceable(28) %3)
  %4 = load i32, ptr %col_cnt.addr, align 4
  %5 = load ptr, ptr %cols1.addr, align 8
  %6 = load ptr, ptr %cols2.addr, align 8
  call void @_ZN7datalog24interval_relation_plugin7join_fnC2ERKNS_18relation_signatureES4_jPKjS6_(ptr noundef nonnull align 8 dereferenceable(32) %call3, ptr noundef nonnull align 8 dereferenceable(8) %call4, ptr noundef nonnull align 8 dereferenceable(8) %call5, i32 noundef %4, ptr noundef %5, ptr noundef %6)
  store ptr %call3, ptr %retval, align 8
  br label %return

return:                                           ; preds = %if.end, %if.then
  %7 = load ptr, ptr %retval, align 8
  ret ptr %7
}

; Function Attrs: mustprogress nounwind uwtable
define linkonce_odr hidden noundef zeroext i1 @_ZNK7datalog17tr_infrastructureINS_15relation_traitsEE13plugin_object10check_kindERKNS_13relation_baseE(ptr noundef nonnull align 8 dereferenceable(32) %this, ptr noundef nonnull align 8 dereferenceable(28) %r) #5 comdat align 2 {
entry:
  %this.addr = alloca ptr, align 8
  %r.addr = alloca ptr, align 8
  store ptr %this, ptr %this.addr, align 8
  store ptr %r, ptr %r.addr, align 8
  %this1 = load ptr, ptr %this.addr, align 8
  %0 = load ptr, ptr %r.addr, align 8
  %call = call noundef nonnull align 8 dereferenceable(36) ptr @_ZNK7datalog17tr_infrastructureINS_15relation_traitsEE13base_ancestor10get_pluginEv(ptr noundef nonnull align 8 dereferenceable(28) %0)
  %cmp = icmp eq ptr %call, %this1
  ret i1 %cmp
}

; Function Attrs: mustprogress nounwind uwtable
define linkonce_odr hidden noundef nonnull align 8 dereferenceable(8) ptr @_ZNK7datalog17tr_infrastructureINS_15relation_traitsEE13base_ancestor13get_signatureEv(ptr noundef nonnull align 8 dereferenceable(28) %this) #5 comdat align 2 {
entry:
  %this.addr = alloca ptr, align 8
  store ptr %this, ptr %this.addr, align 8
  %this1 = load ptr, ptr %this.addr, align 8
  %m_signature = getelementptr inbounds %"class.datalog::tr_infrastructure<datalog::relation_traits>::base_ancestor", ptr %this1, i32 0, i32 2
  ret ptr %m_signature
}

; Function Attrs: mustprogress uwtable
define linkonce_odr hidden void @_ZN7datalog24interval_relation_plugin7join_fnC2ERKNS_18relation_signatureES4_jPKjS6_(ptr noundef nonnull align 8 dereferenceable(32) %this, ptr noundef nonnull align 8 dereferenceable(8) %o1_sig, ptr noundef nonnull align 8 dereferenceable(8) %o2_sig, i32 noundef %col_cnt, ptr noundef %cols1, ptr noundef %cols2) unnamed_addr #4 comdat align 2 {
entry:
  %this.addr = alloca ptr, align 8
  %o1_sig.addr = alloca ptr, align 8
  %o2_sig.addr = alloca ptr, align 8
  %col_cnt.addr = alloca i32, align 4
  %cols1.addr = alloca ptr, align 8
  %cols2.addr = alloca ptr, align 8
  store ptr %this, ptr %this.addr, align 8
  store ptr %o1_sig, ptr %o1_sig.addr, align 8
  store ptr %o2_sig, ptr %o2_sig.addr, align 8
  store i32 %col_cnt, ptr %col_cnt.addr, align 4
  store ptr %cols1, ptr %cols1.addr, align 8
  store ptr %cols2, ptr %cols2.addr, align 8
  %this1 = load ptr, ptr %this.addr, align 8
  %0 = load ptr, ptr %o1_sig.addr, align 8
  %1 = load ptr, ptr %o2_sig.addr, align 8
  %2 = load i32, ptr %col_cnt.addr, align 4
  %3 = load ptr, ptr %cols1.addr, align 8
  %4 = load ptr, ptr %cols2.addr, align 8
  call void @_ZN7datalog17tr_infrastructureINS_15relation_traitsEE18convenient_join_fnC2ERKNS_18relation_signatureES6_jPKjS8_(ptr noundef nonnull align 8 dereferenceable(32) %this1, ptr noundef nonnull align 8 dereferenceable(8) %0, ptr noundef nonnull align 8 dereferenceable(8) %1, i32 noundef %2, ptr noundef %3, ptr noundef %4)
  store ptr getelementptr inbounds ({ [5 x ptr] }, ptr @_ZTVN7datalog24interval_relation_plugin7join_fnE, i32 0, inrange i32 0, i32 2), ptr %this1, align 8
  ret void
}

; Function Attrs: mustprogress uwtable
define hidden noundef ptr @_ZN7datalog24interval_relation_plugin13mk_project_fnERKNS_13relation_baseEjPKj(ptr noundef nonnull align 8 dereferenceable(240) %this, ptr noundef nonnull align 8 dereferenceable(28) %r, i32 noundef %col_cnt, ptr noundef %removed_cols) unnamed_addr #4 align 2 {
entry:
  %this.addr = alloca ptr, align 8
  %r.addr = alloca ptr, align 8
  %col_cnt.addr = alloca i32, align 4
  %removed_cols.addr = alloca ptr, align 8
  store ptr %this, ptr %this.addr, align 8
  store ptr %r, ptr %r.addr, align 8
  store i32 %col_cnt, ptr %col_cnt.addr, align 4
  store ptr %removed_cols, ptr %removed_cols.addr, align 8
  %call = call noalias noundef ptr @_ZN6memory8allocateEm(i64 noundef 24)
  %0 = load ptr, ptr %r.addr, align 8
  %call2 = call noundef nonnull align 8 dereferenceable(8) ptr @_ZNK7datalog17tr_infrastructureINS_15relation_traitsEE13base_ancestor13get_signatureEv(ptr noundef nonnull align 8 dereferenceable(28) %0)
  %1 = load i32, ptr %col_cnt.addr, align 4
  %2 = load ptr, ptr %removed_cols.addr, align 8
  call void @_ZN7datalog24interval_relation_plugin10project_fnC2ERKNS_18relation_signatureEjPKj(ptr noundef nonnull align 8 dereferenceable(24) %call, ptr noundef nonnull align 8 dereferenceable(8) %call2, i32 noundef %1, ptr noundef %2)
  ret ptr %call
}

; Function Attrs: mustprogress uwtable
define linkonce_odr hidden void @_ZN7datalog24interval_relation_plugin10project_fnC2ERKNS_18relation_signatureEjPKj(ptr noundef nonnull align 8 dereferenceable(24) %this, ptr noundef nonnull align 8 dereferenceable(8) %orig_sig, i32 noundef %removed_col_cnt, ptr noundef %removed_cols) unnamed_addr #4 comdat align 2 {
entry:
  %this.addr = alloca ptr, align 8
  %orig_sig.addr = alloca ptr, align 8
  %removed_col_cnt.addr = alloca i32, align 4
  %removed_cols.addr = alloca ptr, align 8
  store ptr %this, ptr %this.addr, align 8
  store ptr %orig_sig, ptr %orig_sig.addr, align 8
  store i32 %removed_col_cnt, ptr %removed_col_cnt.addr, align 4
  store ptr %removed_cols, ptr %removed_cols.addr, align 8
  %this1 = load ptr, ptr %this.addr, align 8
  %0 = load ptr, ptr %orig_sig.addr, align 8
  %1 = load i32, ptr %removed_col_cnt.addr, align 4
  %2 = load ptr, ptr %removed_cols.addr, align 8
  call void @_ZN7datalog17tr_infrastructureINS_15relation_traitsEE21convenient_project_fnC2ERKNS_18relation_signatureEjPKj(ptr noundef nonnull align 8 dereferenceable(24) %this1, ptr noundef nonnull align 8 dereferenceable(8) %0, i32 noundef %1, ptr noundef %2)
  store ptr getelementptr inbounds ({ [5 x ptr] }, ptr @_ZTVN7datalog24interval_relation_plugin10project_fnE, i32 0, inrange i32 0, i32 2), ptr %this1, align 8
  ret void
}

; Function Attrs: mustprogress uwtable
define hidden noundef ptr @_ZN7datalog24interval_relation_plugin12mk_rename_fnERKNS_13relation_baseEjPKj(ptr noundef nonnull align 8 dereferenceable(240) %this, ptr noundef nonnull align 8 dereferenceable(28) %r, i32 noundef %cycle_len, ptr noundef %permutation_cycle) unnamed_addr #4 align 2 {
entry:
  %retval = alloca ptr, align 8
  %this.addr = alloca ptr, align 8
  %r.addr = alloca ptr, align 8
  %cycle_len.addr = alloca i32, align 4
  %permutation_cycle.addr = alloca ptr, align 8
  store ptr %this, ptr %this.addr, align 8
  store ptr %r, ptr %r.addr, align 8
  store i32 %cycle_len, ptr %cycle_len.addr, align 4
  store ptr %permutation_cycle, ptr %permutation_cycle.addr, align 8
  %this1 = load ptr, ptr %this.addr, align 8
  %0 = load ptr, ptr %r.addr, align 8
  %call = call noundef zeroext i1 @_ZNK7datalog17tr_infrastructureINS_15relation_traitsEE13plugin_object10check_kindERKNS_13relation_baseE(ptr noundef nonnull align 8 dereferenceable(32) %this1, ptr noundef nonnull align 8 dereferenceable(28) %0)
  br i1 %call, label %if.end, label %if.then

if.then:                                          ; preds = %entry
  store ptr null, ptr %retval, align 8
  br label %return

if.end:                                           ; preds = %entry
  %call2 = call noalias noundef ptr @_ZN6memory8allocateEm(i64 noundef 24)
  %1 = load ptr, ptr %r.addr, align 8
  %call3 = call noundef nonnull align 8 dereferenceable(8) ptr @_ZNK7datalog17tr_infrastructureINS_15relation_traitsEE13base_ancestor13get_signatureEv(ptr noundef nonnull align 8 dereferenceable(28) %1)
  %2 = load i32, ptr %cycle_len.addr, align 4
  %3 = load ptr, ptr %permutation_cycle.addr, align 8
  call void @_ZN7datalog24interval_relation_plugin9rename_fnC2ERKNS_18relation_signatureEjPKj(ptr noundef nonnull align 8 dereferenceable(24) %call2, ptr noundef nonnull align 8 dereferenceable(8) %call3, i32 noundef %2, ptr noundef %3)
  store ptr %call2, ptr %retval, align 8
  br label %return

return:                                           ; preds = %if.end, %if.then
  %4 = load ptr, ptr %retval, align 8
  ret ptr %4
}

; Function Attrs: mustprogress uwtable
define linkonce_odr hidden void @_ZN7datalog24interval_relation_plugin9rename_fnC2ERKNS_18relation_signatureEjPKj(ptr noundef nonnull align 8 dereferenceable(24) %this, ptr noundef nonnull align 8 dereferenceable(8) %orig_sig, i32 noundef %cycle_len, ptr noundef %cycle) unnamed_addr #4 comdat align 2 {
entry:
  %this.addr = alloca ptr, align 8
  %orig_sig.addr = alloca ptr, align 8
  %cycle_len.addr = alloca i32, align 4
  %cycle.addr = alloca ptr, align 8
  store ptr %this, ptr %this.addr, align 8
  store ptr %orig_sig, ptr %orig_sig.addr, align 8
  store i32 %cycle_len, ptr %cycle_len.addr, align 4
  store ptr %cycle, ptr %cycle.addr, align 8
  %this1 = load ptr, ptr %this.addr, align 8
  %0 = load ptr, ptr %orig_sig.addr, align 8
  %1 = load i32, ptr %cycle_len.addr, align 4
  %2 = load ptr, ptr %cycle.addr, align 8
  call void @_ZN7datalog17tr_infrastructureINS_15relation_traitsEE20convenient_rename_fnC2ERKNS_18relation_signatureEjPKj(ptr noundef nonnull align 8 dereferenceable(24) %this1, ptr noundef nonnull align 8 dereferenceable(8) %0, i32 noundef %1, ptr noundef %2)
  store ptr getelementptr inbounds ({ [5 x ptr] }, ptr @_ZTVN7datalog24interval_relation_plugin9rename_fnE, i32 0, inrange i32 0, i32 2), ptr %this1, align 8
  ret void
}

; Function Attrs: mustprogress uwtable
define hidden void @_ZN7datalog24interval_relation_plugin5uniteERK12old_intervalS3_(ptr noalias sret(%class.old_interval) align 8 %agg.result, ptr noundef nonnull align 8 dereferenceable(240) %this, ptr noundef nonnull align 8 dereferenceable(112) %src1, ptr noundef nonnull align 8 dereferenceable(112) %src2) #4 align 2 personality ptr @__gxx_personality_v0 {
entry:
  %result.ptr = alloca ptr, align 8
  %this.addr = alloca ptr, align 8
  %src1.addr = alloca ptr, align 8
  %src2.addr = alloca ptr, align 8
  %l_open = alloca i8, align 1
  %r_open = alloca i8, align 1
  %low = alloca %class.ext_numeral, align 8
  %high = alloca %class.ext_numeral, align 8
  %exn.slot = alloca ptr, align 8
  %ehselector.slot = alloca i32, align 4
  store ptr %agg.result, ptr %result.ptr, align 8
  store ptr %this, ptr %this.addr, align 8
  store ptr %src1, ptr %src1.addr, align 8
  store ptr %src2, ptr %src2.addr, align 8
  %this1 = load ptr, ptr %this.addr, align 8
  %0 = load ptr, ptr %src1.addr, align 8
  %call = call noundef zeroext i1 @_ZNK12old_interval13is_lower_openEv(ptr noundef nonnull align 8 dereferenceable(112) %0)
  %frombool = zext i1 %call to i8
  store i8 %frombool, ptr %l_open, align 1
  %1 = load ptr, ptr %src1.addr, align 8
  %call2 = call noundef zeroext i1 @_ZNK12old_interval13is_upper_openEv(ptr noundef nonnull align 8 dereferenceable(112) %1)
  %frombool3 = zext i1 %call2 to i8
  store i8 %frombool3, ptr %r_open, align 1
  %2 = load ptr, ptr %src1.addr, align 8
  %call4 = call noundef nonnull align 8 dereferenceable(40) ptr @_ZNK12old_interval3infEv(ptr noundef nonnull align 8 dereferenceable(112) %2)
  call void @_ZN11ext_numeralC2ERKS_(ptr noundef nonnull align 8 dereferenceable(40) %low, ptr noundef nonnull align 8 dereferenceable(40) %call4)
  %3 = load ptr, ptr %src1.addr, align 8
  %call5 = invoke noundef nonnull align 8 dereferenceable(40) ptr @_ZNK12old_interval3supEv(ptr noundef nonnull align 8 dereferenceable(112) %3)
          to label %invoke.cont unwind label %lpad

invoke.cont:                                      ; preds = %entry
  invoke void @_ZN11ext_numeralC2ERKS_(ptr noundef nonnull align 8 dereferenceable(40) %high, ptr noundef nonnull align 8 dereferenceable(40) %call5)
          to label %invoke.cont6 unwind label %lpad

invoke.cont6:                                     ; preds = %invoke.cont
  %4 = load ptr, ptr %src2.addr, align 8
  %call9 = invoke noundef nonnull align 8 dereferenceable(40) ptr @_ZNK12old_interval3infEv(ptr noundef nonnull align 8 dereferenceable(112) %4)
          to label %invoke.cont8 unwind label %lpad7

invoke.cont8:                                     ; preds = %invoke.cont6
  %call11 = invoke noundef zeroext i1 @_ZltRK11ext_numeralS1_(ptr noundef nonnull align 8 dereferenceable(40) %call9, ptr noundef nonnull align 8 dereferenceable(40) %low)
          to label %invoke.cont10 unwind label %lpad7

invoke.cont10:                                    ; preds = %invoke.cont8
  br i1 %call11, label %if.then, label %lor.lhs.false

lor.lhs.false:                                    ; preds = %invoke.cont10
  %5 = load ptr, ptr %src2.addr, align 8
  %call13 = invoke noundef nonnull align 8 dereferenceable(40) ptr @_ZNK12old_interval3infEv(ptr noundef nonnull align 8 dereferenceable(112) %5)
          to label %invoke.cont12 unwind label %lpad7

invoke.cont12:                                    ; preds = %lor.lhs.false
  %call15 = invoke noundef zeroext i1 @_ZeqRK11ext_numeralS1_(ptr noundef nonnull align 8 dereferenceable(40) %call13, ptr noundef nonnull align 8 dereferenceable(40) %low)
          to label %invoke.cont14 unwind label %lpad7

invoke.cont14:                                    ; preds = %invoke.cont12
  br i1 %call15, label %land.lhs.true, label %if.end

land.lhs.true:                                    ; preds = %invoke.cont14
  %6 = load i8, ptr %l_open, align 1
  %tobool = trunc i8 %6 to i1
  br i1 %tobool, label %if.then, label %if.end

if.then:                                          ; preds = %land.lhs.true, %invoke.cont10
  %7 = load ptr, ptr %src2.addr, align 8
  %call17 = invoke noundef nonnull align 8 dereferenceable(40) ptr @_ZNK12old_interval3infEv(ptr noundef nonnull align 8 dereferenceable(112) %7)
          to label %invoke.cont16 unwind label %lpad7

invoke.cont16:                                    ; preds = %if.then
  %call19 = invoke noundef nonnull align 8 dereferenceable(40) ptr @_ZN11ext_numeralaSERKS_(ptr noundef nonnull align 8 dereferenceable(40) %low, ptr noundef nonnull align 8 dereferenceable(40) %call17)
          to label %invoke.cont18 unwind label %lpad7

invoke.cont18:                                    ; preds = %invoke.cont16
  %8 = load ptr, ptr %src2.addr, align 8
  %call21 = invoke noundef zeroext i1 @_ZNK12old_interval13is_lower_openEv(ptr noundef nonnull align 8 dereferenceable(112) %8)
          to label %invoke.cont20 unwind label %lpad7

invoke.cont20:                                    ; preds = %invoke.cont18
  %frombool22 = zext i1 %call21 to i8
  store i8 %frombool22, ptr %l_open, align 1
  br label %if.end

lpad:                                             ; preds = %invoke.cont, %entry
  %9 = landingpad { ptr, i32 }
          cleanup
  %10 = extractvalue { ptr, i32 } %9, 0
  store ptr %10, ptr %exn.slot, align 8
  %11 = extractvalue { ptr, i32 } %9, 1
  store i32 %11, ptr %ehselector.slot, align 4
  br label %ehcleanup

lpad7:                                            ; preds = %invoke.cont43, %if.end42, %invoke.cont37, %invoke.cont35, %if.then34, %invoke.cont28, %lor.lhs.false27, %invoke.cont23, %if.end, %invoke.cont18, %invoke.cont16, %if.then, %invoke.cont12, %lor.lhs.false, %invoke.cont8, %invoke.cont6
  %12 = landingpad { ptr, i32 }
          cleanup
  %13 = extractvalue { ptr, i32 } %12, 0
  store ptr %13, ptr %exn.slot, align 8
  %14 = extractvalue { ptr, i32 } %12, 1
  store i32 %14, ptr %ehselector.slot, align 4
  call void @_ZN11ext_numeralD2Ev(ptr noundef nonnull align 8 dereferenceable(40) %high) #3
  br label %ehcleanup

if.end:                                           ; preds = %invoke.cont20, %land.lhs.true, %invoke.cont14
  %15 = load ptr, ptr %src2.addr, align 8
  %call24 = invoke noundef nonnull align 8 dereferenceable(40) ptr @_ZNK12old_interval3supEv(ptr noundef nonnull align 8 dereferenceable(112) %15)
          to label %invoke.cont23 unwind label %lpad7

invoke.cont23:                                    ; preds = %if.end
  %call26 = invoke noundef zeroext i1 @_ZgtRK11ext_numeralS1_(ptr noundef nonnull align 8 dereferenceable(40) %call24, ptr noundef nonnull align 8 dereferenceable(40) %high)
          to label %invoke.cont25 unwind label %lpad7

invoke.cont25:                                    ; preds = %invoke.cont23
  br i1 %call26, label %if.then34, label %lor.lhs.false27

lor.lhs.false27:                                  ; preds = %invoke.cont25
  %16 = load ptr, ptr %src2.addr, align 8
  %call29 = invoke noundef nonnull align 8 dereferenceable(40) ptr @_ZNK12old_interval3supEv(ptr noundef nonnull align 8 dereferenceable(112) %16)
          to label %invoke.cont28 unwind label %lpad7

invoke.cont28:                                    ; preds = %lor.lhs.false27
  %call31 = invoke noundef zeroext i1 @_ZeqRK11ext_numeralS1_(ptr noundef nonnull align 8 dereferenceable(40) %call29, ptr noundef nonnull align 8 dereferenceable(40) %high)
          to label %invoke.cont30 unwind label %lpad7

invoke.cont30:                                    ; preds = %invoke.cont28
  br i1 %call31, label %land.lhs.true32, label %if.end42

land.lhs.true32:                                  ; preds = %invoke.cont30
  %17 = load i8, ptr %r_open, align 1
  %tobool33 = trunc i8 %17 to i1
  br i1 %tobool33, label %if.then34, label %if.end42

if.then34:                                        ; preds = %land.lhs.true32, %invoke.cont25
  %18 = load ptr, ptr %src2.addr, align 8
  %call36 = invoke noundef nonnull align 8 dereferenceable(40) ptr @_ZNK12old_interval3supEv(ptr noundef nonnull align 8 dereferenceable(112) %18)
          to label %invoke.cont35 unwind label %lpad7

invoke.cont35:                                    ; preds = %if.then34
  %call38 = invoke noundef nonnull align 8 dereferenceable(40) ptr @_ZN11ext_numeralaSERKS_(ptr noundef nonnull align 8 dereferenceable(40) %high, ptr noundef nonnull align 8 dereferenceable(40) %call36)
          to label %invoke.cont37 unwind label %lpad7

invoke.cont37:                                    ; preds = %invoke.cont35
  %19 = load ptr, ptr %src2.addr, align 8
  %call40 = invoke noundef zeroext i1 @_ZNK12old_interval13is_upper_openEv(ptr noundef nonnull align 8 dereferenceable(112) %19)
          to label %invoke.cont39 unwind label %lpad7

invoke.cont39:                                    ; preds = %invoke.cont37
  %frombool41 = zext i1 %call40 to i8
  store i8 %frombool41, ptr %r_open, align 1
  br label %if.end42

if.end42:                                         ; preds = %invoke.cont39, %land.lhs.true32, %invoke.cont30
  %call44 = invoke noundef nonnull align 8 dereferenceable(72) ptr @_ZNK7datalog24interval_relation_plugin3depEv(ptr noundef nonnull align 8 dereferenceable(240) %this1)
          to label %invoke.cont43 unwind label %lpad7

invoke.cont43:                                    ; preds = %if.end42
  %20 = load i8, ptr %l_open, align 1
  %tobool45 = trunc i8 %20 to i1
  %21 = load i8, ptr %r_open, align 1
  %tobool46 = trunc i8 %21 to i1
  invoke void @_ZN12old_intervalC1ER25scoped_dependency_managerIPvERK11ext_numeralbPN18dependency_managerINS2_6configEE10dependencyES6_bSB_(ptr noundef nonnull align 8 dereferenceable(112) %agg.result, ptr noundef nonnull align 8 dereferenceable(72) %call44, ptr noundef nonnull align 8 dereferenceable(40) %low, i1 noundef zeroext %tobool45, ptr noundef null, ptr noundef nonnull align 8 dereferenceable(40) %high, i1 noundef zeroext %tobool46, ptr noundef null)
          to label %invoke.cont47 unwind label %lpad7

invoke.cont47:                                    ; preds = %invoke.cont43
  call void @_ZN11ext_numeralD2Ev(ptr noundef nonnull align 8 dereferenceable(40) %high) #3
  call void @_ZN11ext_numeralD2Ev(ptr noundef nonnull align 8 dereferenceable(40) %low) #3
  ret void

ehcleanup:                                        ; preds = %lpad7, %lpad
  call void @_ZN11ext_numeralD2Ev(ptr noundef nonnull align 8 dereferenceable(40) %low) #3
  br label %eh.resume

eh.resume:                                        ; preds = %ehcleanup
  %exn = load ptr, ptr %exn.slot, align 8
  %sel = load i32, ptr %ehselector.slot, align 4
  %lpad.val = insertvalue { ptr, i32 } poison, ptr %exn, 0
  %lpad.val48 = insertvalue { ptr, i32 } %lpad.val, i32 %sel, 1
  resume { ptr, i32 } %lpad.val48
}

; Function Attrs: mustprogress nounwind uwtable
define linkonce_odr hidden noundef zeroext i1 @_ZNK12old_interval13is_lower_openEv(ptr noundef nonnull align 8 dereferenceable(112) %this) #5 comdat align 2 {
entry:
  %this.addr = alloca ptr, align 8
  store ptr %this, ptr %this.addr, align 8
  %this1 = load ptr, ptr %this.addr, align 8
  %m_lower_open = getelementptr inbounds %class.old_interval, ptr %this1, i32 0, i32 3
  %0 = load i8, ptr %m_lower_open, align 8
  %tobool = trunc i8 %0 to i1
  ret i1 %tobool
}

; Function Attrs: mustprogress nounwind uwtable
define linkonce_odr hidden noundef zeroext i1 @_ZNK12old_interval13is_upper_openEv(ptr noundef nonnull align 8 dereferenceable(112) %this) #5 comdat align 2 {
entry:
  %this.addr = alloca ptr, align 8
  store ptr %this, ptr %this.addr, align 8
  %this1 = load ptr, ptr %this.addr, align 8
  %m_upper_open = getelementptr inbounds %class.old_interval, ptr %this1, i32 0, i32 4
  %0 = load i8, ptr %m_upper_open, align 1
  %tobool = trunc i8 %0 to i1
  ret i1 %tobool
}

; Function Attrs: mustprogress nounwind uwtable
define linkonce_odr hidden noundef nonnull align 8 dereferenceable(40) ptr @_ZNK12old_interval3infEv(ptr noundef nonnull align 8 dereferenceable(112) %this) #5 comdat align 2 {
entry:
  %this.addr = alloca ptr, align 8
  store ptr %this, ptr %this.addr, align 8
  %this1 = load ptr, ptr %this.addr, align 8
  %m_lower = getelementptr inbounds %class.old_interval, ptr %this1, i32 0, i32 1
  ret ptr %m_lower
}

; Function Attrs: mustprogress uwtable
define linkonce_odr hidden void @_ZN11ext_numeralC2ERKS_(ptr noundef nonnull align 8 dereferenceable(40) %this, ptr noundef nonnull align 8 dereferenceable(40) %0) unnamed_addr #4 comdat align 2 {
entry:
  %this.addr = alloca ptr, align 8
  %.addr = alloca ptr, align 8
  store ptr %this, ptr %this.addr, align 8
  store ptr %0, ptr %.addr, align 8
  %this1 = load ptr, ptr %this.addr, align 8
  %m_kind = getelementptr inbounds %class.ext_numeral, ptr %this1, i32 0, i32 0
  %1 = load ptr, ptr %.addr, align 8
  %m_kind2 = getelementptr inbounds %class.ext_numeral, ptr %1, i32 0, i32 0
  %2 = load i32, ptr %m_kind2, align 8
  store i32 %2, ptr %m_kind, align 8
  %m_value = getelementptr inbounds %class.ext_numeral, ptr %this1, i32 0, i32 1
  %3 = load ptr, ptr %.addr, align 8
  %m_value3 = getelementptr inbounds %class.ext_numeral, ptr %3, i32 0, i32 1
  call void @_ZN8rationalC2ERKS_(ptr noundef nonnull align 8 dereferenceable(32) %m_value, ptr noundef nonnull align 8 dereferenceable(32) %m_value3)
  ret void
}

; Function Attrs: mustprogress nounwind uwtable
define linkonce_odr hidden noundef nonnull align 8 dereferenceable(40) ptr @_ZNK12old_interval3supEv(ptr noundef nonnull align 8 dereferenceable(112) %this) #5 comdat align 2 {
entry:
  %this.addr = alloca ptr, align 8
  store ptr %this, ptr %this.addr, align 8
  %this1 = load ptr, ptr %this.addr, align 8
  %m_upper = getelementptr inbounds %class.old_interval, ptr %this1, i32 0, i32 2
  ret ptr %m_upper
}

declare noundef zeroext i1 @_ZltRK11ext_numeralS1_(ptr noundef nonnull align 8 dereferenceable(40), ptr noundef nonnull align 8 dereferenceable(40)) #1

declare noundef zeroext i1 @_ZeqRK11ext_numeralS1_(ptr noundef nonnull align 8 dereferenceable(40), ptr noundef nonnull align 8 dereferenceable(40)) #1

; Function Attrs: mustprogress uwtable
define linkonce_odr hidden noundef nonnull align 8 dereferenceable(40) ptr @_ZN11ext_numeralaSERKS_(ptr noundef nonnull align 8 dereferenceable(40) %this, ptr noundef nonnull align 8 dereferenceable(40) %0) #4 comdat align 2 {
entry:
  %this.addr = alloca ptr, align 8
  %.addr = alloca ptr, align 8
  store ptr %this, ptr %this.addr, align 8
  store ptr %0, ptr %.addr, align 8
  %this1 = load ptr, ptr %this.addr, align 8
  %1 = load ptr, ptr %.addr, align 8
  %m_kind = getelementptr inbounds %class.ext_numeral, ptr %1, i32 0, i32 0
  %2 = load i32, ptr %m_kind, align 8
  %m_kind2 = getelementptr inbounds %class.ext_numeral, ptr %this1, i32 0, i32 0
  store i32 %2, ptr %m_kind2, align 8
  %m_value = getelementptr inbounds %class.ext_numeral, ptr %this1, i32 0, i32 1
  %3 = load ptr, ptr %.addr, align 8
  %m_value3 = getelementptr inbounds %class.ext_numeral, ptr %3, i32 0, i32 1
  %call = call noundef nonnull align 8 dereferenceable(32) ptr @_ZN8rationalaSERKS_(ptr noundef nonnull align 8 dereferenceable(32) %m_value, ptr noundef nonnull align 8 dereferenceable(32) %m_value3)
  ret ptr %this1
}

; Function Attrs: mustprogress uwtable
define linkonce_odr hidden noundef zeroext i1 @_ZgtRK11ext_numeralS1_(ptr noundef nonnull align 8 dereferenceable(40) %n1, ptr noundef nonnull align 8 dereferenceable(40) %n2) #4 comdat {
entry:
  %n1.addr = alloca ptr, align 8
  %n2.addr = alloca ptr, align 8
  store ptr %n1, ptr %n1.addr, align 8
  store ptr %n2, ptr %n2.addr, align 8
  %0 = load ptr, ptr %n2.addr, align 8
  %1 = load ptr, ptr %n1.addr, align 8
  %call = call noundef zeroext i1 @_ZltRK11ext_numeralS1_(ptr noundef nonnull align 8 dereferenceable(40) %0, ptr noundef nonnull align 8 dereferenceable(40) %1)
  ret i1 %call
}

; Function Attrs: mustprogress nounwind uwtable
define linkonce_odr hidden noundef nonnull align 8 dereferenceable(72) ptr @_ZNK7datalog24interval_relation_plugin3depEv(ptr noundef nonnull align 8 dereferenceable(240) %this) #5 comdat align 2 {
entry:
  %this.addr = alloca ptr, align 8
  store ptr %this, ptr %this.addr, align 8
  %this1 = load ptr, ptr %this.addr, align 8
  %m_dep = getelementptr inbounds %"class.datalog::interval_relation_plugin", ptr %this1, i32 0, i32 1
  ret ptr %m_dep
}

declare void @_ZN12old_intervalC1ER25scoped_dependency_managerIPvERK11ext_numeralbPN18dependency_managerINS2_6configEE10dependencyES6_bSB_(ptr noundef nonnull align 8 dereferenceable(112), ptr noundef nonnull align 8 dereferenceable(72), ptr noundef nonnull align 8 dereferenceable(40), i1 noundef zeroext, ptr noundef, ptr noundef nonnull align 8 dereferenceable(40), i1 noundef zeroext, ptr noundef) unnamed_addr #1

; Function Attrs: mustprogress nounwind uwtable
define linkonce_odr hidden void @_ZN11ext_numeralD2Ev(ptr noundef nonnull align 8 dereferenceable(40) %this) unnamed_addr #5 comdat align 2 {
entry:
  %this.addr = alloca ptr, align 8
  store ptr %this, ptr %this.addr, align 8
  %this1 = load ptr, ptr %this.addr, align 8
  %m_value = getelementptr inbounds %class.ext_numeral, ptr %this1, i32 0, i32 1
  call void @_ZN8rationalD2Ev(ptr noundef nonnull align 8 dereferenceable(32) %m_value) #3
  ret void
}

; Function Attrs: mustprogress uwtable
define hidden void @_ZN7datalog24interval_relation_plugin5widenERK12old_intervalS3_(ptr noalias sret(%class.old_interval) align 8 %agg.result, ptr noundef nonnull align 8 dereferenceable(240) %this, ptr noundef nonnull align 8 dereferenceable(112) %src1, ptr noundef nonnull align 8 dereferenceable(112) %src2) #4 align 2 personality ptr @__gxx_personality_v0 {
entry:
  %result.ptr = alloca ptr, align 8
  %this.addr = alloca ptr, align 8
  %src1.addr = alloca ptr, align 8
  %src2.addr = alloca ptr, align 8
  %l_open = alloca i8, align 1
  %r_open = alloca i8, align 1
  %low = alloca %class.ext_numeral, align 8
  %high = alloca %class.ext_numeral, align 8
  %exn.slot = alloca ptr, align 8
  %ehselector.slot = alloca i32, align 4
  %ref.tmp = alloca %class.ext_numeral, align 8
  %ref.tmp36 = alloca %class.ext_numeral, align 8
  store ptr %agg.result, ptr %result.ptr, align 8
  store ptr %this, ptr %this.addr, align 8
  store ptr %src1, ptr %src1.addr, align 8
  store ptr %src2, ptr %src2.addr, align 8
  %this1 = load ptr, ptr %this.addr, align 8
  %0 = load ptr, ptr %src1.addr, align 8
  %call = call noundef zeroext i1 @_ZNK12old_interval13is_lower_openEv(ptr noundef nonnull align 8 dereferenceable(112) %0)
  %frombool = zext i1 %call to i8
  store i8 %frombool, ptr %l_open, align 1
  %1 = load ptr, ptr %src1.addr, align 8
  %call2 = call noundef zeroext i1 @_ZNK12old_interval13is_upper_openEv(ptr noundef nonnull align 8 dereferenceable(112) %1)
  %frombool3 = zext i1 %call2 to i8
  store i8 %frombool3, ptr %r_open, align 1
  %2 = load ptr, ptr %src1.addr, align 8
  %call4 = call noundef nonnull align 8 dereferenceable(40) ptr @_ZNK12old_interval3infEv(ptr noundef nonnull align 8 dereferenceable(112) %2)
  call void @_ZN11ext_numeralC2ERKS_(ptr noundef nonnull align 8 dereferenceable(40) %low, ptr noundef nonnull align 8 dereferenceable(40) %call4)
  %3 = load ptr, ptr %src1.addr, align 8
  %call5 = invoke noundef nonnull align 8 dereferenceable(40) ptr @_ZNK12old_interval3supEv(ptr noundef nonnull align 8 dereferenceable(112) %3)
          to label %invoke.cont unwind label %lpad

invoke.cont:                                      ; preds = %entry
  invoke void @_ZN11ext_numeralC2ERKS_(ptr noundef nonnull align 8 dereferenceable(40) %high, ptr noundef nonnull align 8 dereferenceable(40) %call5)
          to label %invoke.cont6 unwind label %lpad

invoke.cont6:                                     ; preds = %invoke.cont
  %4 = load ptr, ptr %src2.addr, align 8
  %call9 = invoke noundef nonnull align 8 dereferenceable(40) ptr @_ZNK12old_interval3infEv(ptr noundef nonnull align 8 dereferenceable(112) %4)
          to label %invoke.cont8 unwind label %lpad7

invoke.cont8:                                     ; preds = %invoke.cont6
  %call11 = invoke noundef zeroext i1 @_ZltRK11ext_numeralS1_(ptr noundef nonnull align 8 dereferenceable(40) %call9, ptr noundef nonnull align 8 dereferenceable(40) %low)
          to label %invoke.cont10 unwind label %lpad7

invoke.cont10:                                    ; preds = %invoke.cont8
  br i1 %call11, label %if.then, label %lor.lhs.false

lor.lhs.false:                                    ; preds = %invoke.cont10
  %5 = load ptr, ptr %src2.addr, align 8
  %call13 = invoke noundef nonnull align 8 dereferenceable(40) ptr @_ZNK12old_interval3infEv(ptr noundef nonnull align 8 dereferenceable(112) %5)
          to label %invoke.cont12 unwind label %lpad7

invoke.cont12:                                    ; preds = %lor.lhs.false
  %call15 = invoke noundef zeroext i1 @_ZeqRK11ext_numeralS1_(ptr noundef nonnull align 8 dereferenceable(40) %low, ptr noundef nonnull align 8 dereferenceable(40) %call13)
          to label %invoke.cont14 unwind label %lpad7

invoke.cont14:                                    ; preds = %invoke.cont12
  br i1 %call15, label %land.lhs.true, label %if.end

land.lhs.true:                                    ; preds = %invoke.cont14
  %6 = load i8, ptr %l_open, align 1
  %tobool = trunc i8 %6 to i1
  br i1 %tobool, label %land.lhs.true16, label %if.end

land.lhs.true16:                                  ; preds = %land.lhs.true
  %7 = load ptr, ptr %src2.addr, align 8
  %call18 = invoke noundef zeroext i1 @_ZNK12old_interval13is_lower_openEv(ptr noundef nonnull align 8 dereferenceable(112) %7)
          to label %invoke.cont17 unwind label %lpad7

invoke.cont17:                                    ; preds = %land.lhs.true16
  br i1 %call18, label %if.end, label %if.then

if.then:                                          ; preds = %invoke.cont17, %invoke.cont10
  invoke void @_ZN11ext_numeralC2Eb(ptr noundef nonnull align 8 dereferenceable(40) %ref.tmp, i1 noundef zeroext false)
          to label %invoke.cont19 unwind label %lpad7

invoke.cont19:                                    ; preds = %if.then
  %call20 = call noundef nonnull align 8 dereferenceable(40) ptr @_ZN11ext_numeralaSEOS_(ptr noundef nonnull align 8 dereferenceable(40) %low, ptr noundef nonnull align 8 dereferenceable(40) %ref.tmp) #3
  call void @_ZN11ext_numeralD2Ev(ptr noundef nonnull align 8 dereferenceable(40) %ref.tmp) #3
  store i8 1, ptr %l_open, align 1
  br label %if.end

lpad:                                             ; preds = %invoke.cont, %entry
  %8 = landingpad { ptr, i32 }
          cleanup
  %9 = extractvalue { ptr, i32 } %8, 0
  store ptr %9, ptr %exn.slot, align 8
  %10 = extractvalue { ptr, i32 } %8, 1
  store i32 %10, ptr %ehselector.slot, align 4
  br label %ehcleanup

lpad7:                                            ; preds = %invoke.cont40, %if.end39, %if.then35, %land.lhs.true32, %invoke.cont26, %lor.lhs.false25, %invoke.cont21, %if.end, %if.then, %land.lhs.true16, %invoke.cont12, %lor.lhs.false, %invoke.cont8, %invoke.cont6
  %11 = landingpad { ptr, i32 }
          cleanup
  %12 = extractvalue { ptr, i32 } %11, 0
  store ptr %12, ptr %exn.slot, align 8
  %13 = extractvalue { ptr, i32 } %11, 1
  store i32 %13, ptr %ehselector.slot, align 4
  call void @_ZN11ext_numeralD2Ev(ptr noundef nonnull align 8 dereferenceable(40) %high) #3
  br label %ehcleanup

if.end:                                           ; preds = %invoke.cont19, %invoke.cont17, %land.lhs.true, %invoke.cont14
  %14 = load ptr, ptr %src2.addr, align 8
  %call22 = invoke noundef nonnull align 8 dereferenceable(40) ptr @_ZNK12old_interval3supEv(ptr noundef nonnull align 8 dereferenceable(112) %14)
          to label %invoke.cont21 unwind label %lpad7

invoke.cont21:                                    ; preds = %if.end
  %call24 = invoke noundef zeroext i1 @_ZltRK11ext_numeralS1_(ptr noundef nonnull align 8 dereferenceable(40) %high, ptr noundef nonnull align 8 dereferenceable(40) %call22)
          to label %invoke.cont23 unwind label %lpad7

invoke.cont23:                                    ; preds = %invoke.cont21
  br i1 %call24, label %if.then35, label %lor.lhs.false25

lor.lhs.false25:                                  ; preds = %invoke.cont23
  %15 = load ptr, ptr %src2.addr, align 8
  %call27 = invoke noundef nonnull align 8 dereferenceable(40) ptr @_ZNK12old_interval3supEv(ptr noundef nonnull align 8 dereferenceable(112) %15)
          to label %invoke.cont26 unwind label %lpad7

invoke.cont26:                                    ; preds = %lor.lhs.false25
  %call29 = invoke noundef zeroext i1 @_ZeqRK11ext_numeralS1_(ptr noundef nonnull align 8 dereferenceable(40) %call27, ptr noundef nonnull align 8 dereferenceable(40) %high)
          to label %invoke.cont28 unwind label %lpad7

invoke.cont28:                                    ; preds = %invoke.cont26
  br i1 %call29, label %land.lhs.true30, label %if.end39

land.lhs.true30:                                  ; preds = %invoke.cont28
  %16 = load i8, ptr %r_open, align 1
  %tobool31 = trunc i8 %16 to i1
  br i1 %tobool31, label %if.end39, label %land.lhs.true32

land.lhs.true32:                                  ; preds = %land.lhs.true30
  %17 = load ptr, ptr %src2.addr, align 8
  %call34 = invoke noundef zeroext i1 @_ZNK12old_interval13is_upper_openEv(ptr noundef nonnull align 8 dereferenceable(112) %17)
          to label %invoke.cont33 unwind label %lpad7

invoke.cont33:                                    ; preds = %land.lhs.true32
  br i1 %call34, label %if.then35, label %if.end39

if.then35:                                        ; preds = %invoke.cont33, %invoke.cont23
  invoke void @_ZN11ext_numeralC2Eb(ptr noundef nonnull align 8 dereferenceable(40) %ref.tmp36, i1 noundef zeroext true)
          to label %invoke.cont37 unwind label %lpad7

invoke.cont37:                                    ; preds = %if.then35
  %call38 = call noundef nonnull align 8 dereferenceable(40) ptr @_ZN11ext_numeralaSEOS_(ptr noundef nonnull align 8 dereferenceable(40) %high, ptr noundef nonnull align 8 dereferenceable(40) %ref.tmp36) #3
  call void @_ZN11ext_numeralD2Ev(ptr noundef nonnull align 8 dereferenceable(40) %ref.tmp36) #3
  store i8 1, ptr %r_open, align 1
  br label %if.end39

if.end39:                                         ; preds = %invoke.cont37, %invoke.cont33, %land.lhs.true30, %invoke.cont28
  %call41 = invoke noundef nonnull align 8 dereferenceable(72) ptr @_ZNK7datalog24interval_relation_plugin3depEv(ptr noundef nonnull align 8 dereferenceable(240) %this1)
          to label %invoke.cont40 unwind label %lpad7

invoke.cont40:                                    ; preds = %if.end39
  %18 = load i8, ptr %l_open, align 1
  %tobool42 = trunc i8 %18 to i1
  %19 = load i8, ptr %r_open, align 1
  %tobool43 = trunc i8 %19 to i1
  invoke void @_ZN12old_intervalC1ER25scoped_dependency_managerIPvERK11ext_numeralbPN18dependency_managerINS2_6configEE10dependencyES6_bSB_(ptr noundef nonnull align 8 dereferenceable(112) %agg.result, ptr noundef nonnull align 8 dereferenceable(72) %call41, ptr noundef nonnull align 8 dereferenceable(40) %low, i1 noundef zeroext %tobool42, ptr noundef null, ptr noundef nonnull align 8 dereferenceable(40) %high, i1 noundef zeroext %tobool43, ptr noundef null)
          to label %invoke.cont44 unwind label %lpad7

invoke.cont44:                                    ; preds = %invoke.cont40
  call void @_ZN11ext_numeralD2Ev(ptr noundef nonnull align 8 dereferenceable(40) %high) #3
  call void @_ZN11ext_numeralD2Ev(ptr noundef nonnull align 8 dereferenceable(40) %low) #3
  ret void

ehcleanup:                                        ; preds = %lpad7, %lpad
  call void @_ZN11ext_numeralD2Ev(ptr noundef nonnull align 8 dereferenceable(40) %low) #3
  br label %eh.resume

eh.resume:                                        ; preds = %ehcleanup
  %exn = load ptr, ptr %exn.slot, align 8
  %sel = load i32, ptr %ehselector.slot, align 4
  %lpad.val = insertvalue { ptr, i32 } poison, ptr %exn, 0
  %lpad.val45 = insertvalue { ptr, i32 } %lpad.val, i32 %sel, 1
  resume { ptr, i32 } %lpad.val45
}

; Function Attrs: mustprogress uwtable
define linkonce_odr hidden void @_ZN11ext_numeralC2Eb(ptr noundef nonnull align 8 dereferenceable(40) %this, i1 noundef zeroext %plus_infinity) unnamed_addr #4 comdat align 2 {
entry:
  %this.addr = alloca ptr, align 8
  %plus_infinity.addr = alloca i8, align 1
  store ptr %this, ptr %this.addr, align 8
  %frombool = zext i1 %plus_infinity to i8
  store i8 %frombool, ptr %plus_infinity.addr, align 1
  %this1 = load ptr, ptr %this.addr, align 8
  %m_kind = getelementptr inbounds %class.ext_numeral, ptr %this1, i32 0, i32 0
  %0 = load i8, ptr %plus_infinity.addr, align 1
  %tobool = trunc i8 %0 to i1
  %cond = select i1 %tobool, i32 2, i32 0
  store i32 %cond, ptr %m_kind, align 8
  %m_value = getelementptr inbounds %class.ext_numeral, ptr %this1, i32 0, i32 1
  call void @_ZN8rationalC2Ev(ptr noundef nonnull align 8 dereferenceable(32) %m_value)
  ret void
}

; Function Attrs: mustprogress nounwind uwtable
define linkonce_odr hidden noundef nonnull align 8 dereferenceable(40) ptr @_ZN11ext_numeralaSEOS_(ptr noundef nonnull align 8 dereferenceable(40) %this, ptr noundef nonnull align 8 dereferenceable(40) %0) #5 comdat align 2 {
entry:
  %this.addr = alloca ptr, align 8
  %.addr = alloca ptr, align 8
  store ptr %this, ptr %this.addr, align 8
  store ptr %0, ptr %.addr, align 8
  %this1 = load ptr, ptr %this.addr, align 8
  %1 = load ptr, ptr %.addr, align 8
  %m_kind = getelementptr inbounds %class.ext_numeral, ptr %1, i32 0, i32 0
  %2 = load i32, ptr %m_kind, align 8
  %m_kind2 = getelementptr inbounds %class.ext_numeral, ptr %this1, i32 0, i32 0
  store i32 %2, ptr %m_kind2, align 8
  %m_value = getelementptr inbounds %class.ext_numeral, ptr %this1, i32 0, i32 1
  %3 = load ptr, ptr %.addr, align 8
  %m_value3 = getelementptr inbounds %class.ext_numeral, ptr %3, i32 0, i32 1
  %call = call noundef nonnull align 8 dereferenceable(32) ptr @_ZN8rationalaSEOS_(ptr noundef nonnull align 8 dereferenceable(32) %m_value, ptr noundef nonnull align 8 dereferenceable(32) %m_value3) #3
  ret ptr %this1
}

; Function Attrs: mustprogress uwtable
define hidden void @_ZN7datalog24interval_relation_plugin4meetERK12old_intervalS3_Rb(ptr noalias sret(%class.old_interval) align 8 %agg.result, ptr noundef nonnull align 8 dereferenceable(240) %this, ptr noundef nonnull align 8 dereferenceable(112) %src1, ptr noundef nonnull align 8 dereferenceable(112) %src2, ptr noundef nonnull align 1 dereferenceable(1) %isempty) #4 align 2 personality ptr @__gxx_personality_v0 {
entry:
  %result.ptr = alloca ptr, align 8
  %this.addr = alloca ptr, align 8
  %src1.addr = alloca ptr, align 8
  %src2.addr = alloca ptr, align 8
  %isempty.addr = alloca ptr, align 8
  %l_open = alloca i8, align 1
  %r_open = alloca i8, align 1
  %low = alloca %class.ext_numeral, align 8
  %high = alloca %class.ext_numeral, align 8
  %exn.slot = alloca ptr, align 8
  %ehselector.slot = alloca i32, align 4
  %cleanup.dest.slot = alloca i32, align 4
  store ptr %agg.result, ptr %result.ptr, align 8
  store ptr %this, ptr %this.addr, align 8
  store ptr %src1, ptr %src1.addr, align 8
  store ptr %src2, ptr %src2.addr, align 8
  store ptr %isempty, ptr %isempty.addr, align 8
  %this1 = load ptr, ptr %this.addr, align 8
  %0 = load ptr, ptr %isempty.addr, align 8
  store i8 0, ptr %0, align 1
  %1 = load ptr, ptr %src1.addr, align 8
  %call = call noundef zeroext i1 @_ZN7datalog24interval_relation_plugin8is_emptyEjRK12old_interval(i32 noundef 0, ptr noundef nonnull align 8 dereferenceable(112) %1)
  br i1 %call, label %if.then, label %lor.lhs.false

lor.lhs.false:                                    ; preds = %entry
  %2 = load ptr, ptr %src2.addr, align 8
  %call2 = call noundef zeroext i1 @_ZN7datalog24interval_relation_plugin11is_infiniteERK12old_interval(ptr noundef nonnull align 8 dereferenceable(112) %2)
  br i1 %call2, label %if.then, label %if.end

if.then:                                          ; preds = %lor.lhs.false, %entry
  %3 = load ptr, ptr %src1.addr, align 8
  call void @_ZN12old_intervalC2ERKS_(ptr noundef nonnull align 8 dereferenceable(112) %agg.result, ptr noundef nonnull align 8 dereferenceable(112) %3)
  br label %return

if.end:                                           ; preds = %lor.lhs.false
  %4 = load ptr, ptr %src2.addr, align 8
  %call3 = call noundef zeroext i1 @_ZN7datalog24interval_relation_plugin8is_emptyEjRK12old_interval(i32 noundef 0, ptr noundef nonnull align 8 dereferenceable(112) %4)
  br i1 %call3, label %if.then6, label %lor.lhs.false4

lor.lhs.false4:                                   ; preds = %if.end
  %5 = load ptr, ptr %src1.addr, align 8
  %call5 = call noundef zeroext i1 @_ZN7datalog24interval_relation_plugin11is_infiniteERK12old_interval(ptr noundef nonnull align 8 dereferenceable(112) %5)
  br i1 %call5, label %if.then6, label %if.end7

if.then6:                                         ; preds = %lor.lhs.false4, %if.end
  %6 = load ptr, ptr %src2.addr, align 8
  call void @_ZN12old_intervalC2ERKS_(ptr noundef nonnull align 8 dereferenceable(112) %agg.result, ptr noundef nonnull align 8 dereferenceable(112) %6)
  br label %return

if.end7:                                          ; preds = %lor.lhs.false4
  %7 = load ptr, ptr %src1.addr, align 8
  %call8 = call noundef zeroext i1 @_ZNK12old_interval13is_lower_openEv(ptr noundef nonnull align 8 dereferenceable(112) %7)
  %frombool = zext i1 %call8 to i8
  store i8 %frombool, ptr %l_open, align 1
  %8 = load ptr, ptr %src1.addr, align 8
  %call9 = call noundef zeroext i1 @_ZNK12old_interval13is_upper_openEv(ptr noundef nonnull align 8 dereferenceable(112) %8)
  %frombool10 = zext i1 %call9 to i8
  store i8 %frombool10, ptr %r_open, align 1
  %9 = load ptr, ptr %src1.addr, align 8
  %call11 = call noundef nonnull align 8 dereferenceable(40) ptr @_ZNK12old_interval3infEv(ptr noundef nonnull align 8 dereferenceable(112) %9)
  call void @_ZN11ext_numeralC2ERKS_(ptr noundef nonnull align 8 dereferenceable(40) %low, ptr noundef nonnull align 8 dereferenceable(40) %call11)
  %10 = load ptr, ptr %src1.addr, align 8
  %call12 = invoke noundef nonnull align 8 dereferenceable(40) ptr @_ZNK12old_interval3supEv(ptr noundef nonnull align 8 dereferenceable(112) %10)
          to label %invoke.cont unwind label %lpad

invoke.cont:                                      ; preds = %if.end7
  invoke void @_ZN11ext_numeralC2ERKS_(ptr noundef nonnull align 8 dereferenceable(40) %high, ptr noundef nonnull align 8 dereferenceable(40) %call12)
          to label %invoke.cont13 unwind label %lpad

invoke.cont13:                                    ; preds = %invoke.cont
  %11 = load ptr, ptr %src2.addr, align 8
  %call16 = invoke noundef nonnull align 8 dereferenceable(40) ptr @_ZNK12old_interval3infEv(ptr noundef nonnull align 8 dereferenceable(112) %11)
          to label %invoke.cont15 unwind label %lpad14

invoke.cont15:                                    ; preds = %invoke.cont13
  %call18 = invoke noundef zeroext i1 @_ZgtRK11ext_numeralS1_(ptr noundef nonnull align 8 dereferenceable(40) %call16, ptr noundef nonnull align 8 dereferenceable(40) %low)
          to label %invoke.cont17 unwind label %lpad14

invoke.cont17:                                    ; preds = %invoke.cont15
  br i1 %call18, label %if.then24, label %lor.lhs.false19

lor.lhs.false19:                                  ; preds = %invoke.cont17
  %12 = load ptr, ptr %src2.addr, align 8
  %call21 = invoke noundef nonnull align 8 dereferenceable(40) ptr @_ZNK12old_interval3infEv(ptr noundef nonnull align 8 dereferenceable(112) %12)
          to label %invoke.cont20 unwind label %lpad14

invoke.cont20:                                    ; preds = %lor.lhs.false19
  %call23 = invoke noundef zeroext i1 @_ZeqRK11ext_numeralS1_(ptr noundef nonnull align 8 dereferenceable(40) %call21, ptr noundef nonnull align 8 dereferenceable(40) %low)
          to label %invoke.cont22 unwind label %lpad14

invoke.cont22:                                    ; preds = %invoke.cont20
  br i1 %call23, label %land.lhs.true, label %if.end32

land.lhs.true:                                    ; preds = %invoke.cont22
  %13 = load i8, ptr %l_open, align 1
  %tobool = trunc i8 %13 to i1
  br i1 %tobool, label %if.end32, label %if.then24

if.then24:                                        ; preds = %land.lhs.true, %invoke.cont17
  %14 = load ptr, ptr %src2.addr, align 8
  %call26 = invoke noundef nonnull align 8 dereferenceable(40) ptr @_ZNK12old_interval3infEv(ptr noundef nonnull align 8 dereferenceable(112) %14)
          to label %invoke.cont25 unwind label %lpad14

invoke.cont25:                                    ; preds = %if.then24
  %call28 = invoke noundef nonnull align 8 dereferenceable(40) ptr @_ZN11ext_numeralaSERKS_(ptr noundef nonnull align 8 dereferenceable(40) %low, ptr noundef nonnull align 8 dereferenceable(40) %call26)
          to label %invoke.cont27 unwind label %lpad14

invoke.cont27:                                    ; preds = %invoke.cont25
  %15 = load ptr, ptr %src2.addr, align 8
  %call30 = invoke noundef zeroext i1 @_ZNK12old_interval13is_lower_openEv(ptr noundef nonnull align 8 dereferenceable(112) %15)
          to label %invoke.cont29 unwind label %lpad14

invoke.cont29:                                    ; preds = %invoke.cont27
  %frombool31 = zext i1 %call30 to i8
  store i8 %frombool31, ptr %l_open, align 1
  br label %if.end32

lpad:                                             ; preds = %invoke.cont, %if.end7
  %16 = landingpad { ptr, i32 }
          cleanup
  %17 = extractvalue { ptr, i32 } %16, 0
  store ptr %17, ptr %exn.slot, align 8
  %18 = extractvalue { ptr, i32 } %16, 1
  store i32 %18, ptr %ehselector.slot, align 4
  br label %ehcleanup

lpad14:                                           ; preds = %invoke.cont66, %if.else, %invoke.cont63, %if.then62, %lor.lhs.false55, %if.end52, %invoke.cont47, %invoke.cont45, %if.then44, %invoke.cont38, %lor.lhs.false37, %invoke.cont33, %if.end32, %invoke.cont27, %invoke.cont25, %if.then24, %invoke.cont20, %lor.lhs.false19, %invoke.cont15, %invoke.cont13
  %19 = landingpad { ptr, i32 }
          cleanup
  %20 = extractvalue { ptr, i32 } %19, 0
  store ptr %20, ptr %exn.slot, align 8
  %21 = extractvalue { ptr, i32 } %19, 1
  store i32 %21, ptr %ehselector.slot, align 4
  call void @_ZN11ext_numeralD2Ev(ptr noundef nonnull align 8 dereferenceable(40) %high) #3
  br label %ehcleanup

if.end32:                                         ; preds = %invoke.cont29, %land.lhs.true, %invoke.cont22
  %22 = load ptr, ptr %src2.addr, align 8
  %call34 = invoke noundef nonnull align 8 dereferenceable(40) ptr @_ZNK12old_interval3supEv(ptr noundef nonnull align 8 dereferenceable(112) %22)
          to label %invoke.cont33 unwind label %lpad14

invoke.cont33:                                    ; preds = %if.end32
  %call36 = invoke noundef zeroext i1 @_ZltRK11ext_numeralS1_(ptr noundef nonnull align 8 dereferenceable(40) %call34, ptr noundef nonnull align 8 dereferenceable(40) %high)
          to label %invoke.cont35 unwind label %lpad14

invoke.cont35:                                    ; preds = %invoke.cont33
  br i1 %call36, label %if.then44, label %lor.lhs.false37

lor.lhs.false37:                                  ; preds = %invoke.cont35
  %23 = load ptr, ptr %src2.addr, align 8
  %call39 = invoke noundef nonnull align 8 dereferenceable(40) ptr @_ZNK12old_interval3supEv(ptr noundef nonnull align 8 dereferenceable(112) %23)
          to label %invoke.cont38 unwind label %lpad14

invoke.cont38:                                    ; preds = %lor.lhs.false37
  %call41 = invoke noundef zeroext i1 @_ZeqRK11ext_numeralS1_(ptr noundef nonnull align 8 dereferenceable(40) %call39, ptr noundef nonnull align 8 dereferenceable(40) %high)
          to label %invoke.cont40 unwind label %lpad14

invoke.cont40:                                    ; preds = %invoke.cont38
  br i1 %call41, label %land.lhs.true42, label %if.end52

land.lhs.true42:                                  ; preds = %invoke.cont40
  %24 = load i8, ptr %r_open, align 1
  %tobool43 = trunc i8 %24 to i1
  br i1 %tobool43, label %if.end52, label %if.then44

if.then44:                                        ; preds = %land.lhs.true42, %invoke.cont35
  %25 = load ptr, ptr %src2.addr, align 8
  %call46 = invoke noundef nonnull align 8 dereferenceable(40) ptr @_ZNK12old_interval3supEv(ptr noundef nonnull align 8 dereferenceable(112) %25)
          to label %invoke.cont45 unwind label %lpad14

invoke.cont45:                                    ; preds = %if.then44
  %call48 = invoke noundef nonnull align 8 dereferenceable(40) ptr @_ZN11ext_numeralaSERKS_(ptr noundef nonnull align 8 dereferenceable(40) %high, ptr noundef nonnull align 8 dereferenceable(40) %call46)
          to label %invoke.cont47 unwind label %lpad14

invoke.cont47:                                    ; preds = %invoke.cont45
  %26 = load ptr, ptr %src2.addr, align 8
  %call50 = invoke noundef zeroext i1 @_ZNK12old_interval13is_upper_openEv(ptr noundef nonnull align 8 dereferenceable(112) %26)
          to label %invoke.cont49 unwind label %lpad14

invoke.cont49:                                    ; preds = %invoke.cont47
  %frombool51 = zext i1 %call50 to i8
  store i8 %frombool51, ptr %r_open, align 1
  br label %if.end52

if.end52:                                         ; preds = %invoke.cont49, %land.lhs.true42, %invoke.cont40
  %call54 = invoke noundef zeroext i1 @_ZgtRK11ext_numeralS1_(ptr noundef nonnull align 8 dereferenceable(40) %low, ptr noundef nonnull align 8 dereferenceable(40) %high)
          to label %invoke.cont53 unwind label %lpad14

invoke.cont53:                                    ; preds = %if.end52
  br i1 %call54, label %if.then62, label %lor.lhs.false55

lor.lhs.false55:                                  ; preds = %invoke.cont53
  %call57 = invoke noundef zeroext i1 @_ZeqRK11ext_numeralS1_(ptr noundef nonnull align 8 dereferenceable(40) %low, ptr noundef nonnull align 8 dereferenceable(40) %high)
          to label %invoke.cont56 unwind label %lpad14

invoke.cont56:                                    ; preds = %lor.lhs.false55
  br i1 %call57, label %land.lhs.true58, label %if.else

land.lhs.true58:                                  ; preds = %invoke.cont56
  %27 = load i8, ptr %l_open, align 1
  %tobool59 = trunc i8 %27 to i1
  br i1 %tobool59, label %if.then62, label %lor.lhs.false60

lor.lhs.false60:                                  ; preds = %land.lhs.true58
  %28 = load i8, ptr %r_open, align 1
  %tobool61 = trunc i8 %28 to i1
  br i1 %tobool61, label %if.then62, label %if.else

if.then62:                                        ; preds = %lor.lhs.false60, %land.lhs.true58, %invoke.cont53
  %29 = load ptr, ptr %isempty.addr, align 8
  store i8 1, ptr %29, align 1
  %call64 = invoke noundef nonnull align 8 dereferenceable(72) ptr @_ZNK7datalog24interval_relation_plugin3depEv(ptr noundef nonnull align 8 dereferenceable(240) %this1)
          to label %invoke.cont63 unwind label %lpad14

invoke.cont63:                                    ; preds = %if.then62
  invoke void @_ZN12old_intervalC1ER25scoped_dependency_managerIPvE(ptr noundef nonnull align 8 dereferenceable(112) %agg.result, ptr noundef nonnull align 8 dereferenceable(72) %call64)
          to label %invoke.cont65 unwind label %lpad14

invoke.cont65:                                    ; preds = %invoke.cont63
  store i32 1, ptr %cleanup.dest.slot, align 4
  br label %cleanup

if.else:                                          ; preds = %lor.lhs.false60, %invoke.cont56
  %call67 = invoke noundef nonnull align 8 dereferenceable(72) ptr @_ZNK7datalog24interval_relation_plugin3depEv(ptr noundef nonnull align 8 dereferenceable(240) %this1)
          to label %invoke.cont66 unwind label %lpad14

invoke.cont66:                                    ; preds = %if.else
  %30 = load i8, ptr %l_open, align 1
  %tobool68 = trunc i8 %30 to i1
  %31 = load i8, ptr %r_open, align 1
  %tobool69 = trunc i8 %31 to i1
  invoke void @_ZN12old_intervalC1ER25scoped_dependency_managerIPvERK11ext_numeralbPN18dependency_managerINS2_6configEE10dependencyES6_bSB_(ptr noundef nonnull align 8 dereferenceable(112) %agg.result, ptr noundef nonnull align 8 dereferenceable(72) %call67, ptr noundef nonnull align 8 dereferenceable(40) %low, i1 noundef zeroext %tobool68, ptr noundef null, ptr noundef nonnull align 8 dereferenceable(40) %high, i1 noundef zeroext %tobool69, ptr noundef null)
          to label %invoke.cont70 unwind label %lpad14

invoke.cont70:                                    ; preds = %invoke.cont66
  store i32 1, ptr %cleanup.dest.slot, align 4
  br label %cleanup

cleanup:                                          ; preds = %invoke.cont70, %invoke.cont65
  call void @_ZN11ext_numeralD2Ev(ptr noundef nonnull align 8 dereferenceable(40) %high) #3
  call void @_ZN11ext_numeralD2Ev(ptr noundef nonnull align 8 dereferenceable(40) %low) #3
  br label %return

ehcleanup:                                        ; preds = %lpad14, %lpad
  call void @_ZN11ext_numeralD2Ev(ptr noundef nonnull align 8 dereferenceable(40) %low) #3
  br label %eh.resume

return:                                           ; preds = %cleanup, %if.then6, %if.then
  ret void

eh.resume:                                        ; preds = %ehcleanup
  %exn = load ptr, ptr %exn.slot, align 8
  %sel = load i32, ptr %ehselector.slot, align 4
  %lpad.val = insertvalue { ptr, i32 } poison, ptr %exn, 0
  %lpad.val72 = insertvalue { ptr, i32 } %lpad.val, i32 %sel, 1
  resume { ptr, i32 } %lpad.val72
}

; Function Attrs: mustprogress uwtable
define hidden noundef zeroext i1 @_ZN7datalog24interval_relation_plugin8is_emptyEjRK12old_interval(i32 noundef %0, ptr noundef nonnull align 8 dereferenceable(112) %i) #4 align 2 {
entry:
  %.addr = alloca i32, align 4
  %i.addr = alloca ptr, align 8
  store i32 %0, ptr %.addr, align 4
  store ptr %i, ptr %i.addr, align 8
  %1 = load ptr, ptr %i.addr, align 8
  %call = call noundef nonnull align 8 dereferenceable(40) ptr @_ZNK12old_interval3supEv(ptr noundef nonnull align 8 dereferenceable(112) %1)
  %2 = load ptr, ptr %i.addr, align 8
  %call1 = call noundef nonnull align 8 dereferenceable(40) ptr @_ZNK12old_interval3infEv(ptr noundef nonnull align 8 dereferenceable(112) %2)
  %call2 = call noundef zeroext i1 @_ZltRK11ext_numeralS1_(ptr noundef nonnull align 8 dereferenceable(40) %call, ptr noundef nonnull align 8 dereferenceable(40) %call1)
  ret i1 %call2
}

; Function Attrs: mustprogress uwtable
define hidden noundef zeroext i1 @_ZN7datalog24interval_relation_plugin11is_infiniteERK12old_interval(ptr noundef nonnull align 8 dereferenceable(112) %i) #4 align 2 {
entry:
  %i.addr = alloca ptr, align 8
  store ptr %i, ptr %i.addr, align 8
  %0 = load ptr, ptr %i.addr, align 8
  %call = call noundef zeroext i1 @_ZNK12old_interval13plus_infinityEv(ptr noundef nonnull align 8 dereferenceable(112) %0)
  br i1 %call, label %land.rhs, label %land.end

land.rhs:                                         ; preds = %entry
  %1 = load ptr, ptr %i.addr, align 8
  %call1 = call noundef zeroext i1 @_ZNK12old_interval14minus_infinityEv(ptr noundef nonnull align 8 dereferenceable(112) %1)
  br label %land.end

land.end:                                         ; preds = %land.rhs, %entry
  %2 = phi i1 [ false, %entry ], [ %call1, %land.rhs ]
  ret i1 %2
}

; Function Attrs: mustprogress uwtable
define linkonce_odr hidden void @_ZN12old_intervalC2ERKS_(ptr noundef nonnull align 8 dereferenceable(112) %this, ptr noundef nonnull align 8 dereferenceable(112) %0) unnamed_addr #4 comdat align 2 personality ptr @__gxx_personality_v0 {
entry:
  %this.addr = alloca ptr, align 8
  %.addr = alloca ptr, align 8
  %exn.slot = alloca ptr, align 8
  %ehselector.slot = alloca i32, align 4
  store ptr %this, ptr %this.addr, align 8
  store ptr %0, ptr %.addr, align 8
  %this1 = load ptr, ptr %this.addr, align 8
  %m_manager = getelementptr inbounds %class.old_interval, ptr %this1, i32 0, i32 0
  %1 = load ptr, ptr %.addr, align 8
  %m_manager2 = getelementptr inbounds %class.old_interval, ptr %1, i32 0, i32 0
  %2 = load ptr, ptr %m_manager2, align 8
  store ptr %2, ptr %m_manager, align 8
  %m_lower = getelementptr inbounds %class.old_interval, ptr %this1, i32 0, i32 1
  %3 = load ptr, ptr %.addr, align 8
  %m_lower3 = getelementptr inbounds %class.old_interval, ptr %3, i32 0, i32 1
  call void @_ZN11ext_numeralC2ERKS_(ptr noundef nonnull align 8 dereferenceable(40) %m_lower, ptr noundef nonnull align 8 dereferenceable(40) %m_lower3)
  %m_upper = getelementptr inbounds %class.old_interval, ptr %this1, i32 0, i32 2
  %4 = load ptr, ptr %.addr, align 8
  %m_upper4 = getelementptr inbounds %class.old_interval, ptr %4, i32 0, i32 2
  invoke void @_ZN11ext_numeralC2ERKS_(ptr noundef nonnull align 8 dereferenceable(40) %m_upper, ptr noundef nonnull align 8 dereferenceable(40) %m_upper4)
          to label %invoke.cont unwind label %lpad

invoke.cont:                                      ; preds = %entry
  %m_lower_open = getelementptr inbounds %class.old_interval, ptr %this1, i32 0, i32 3
  %5 = load ptr, ptr %.addr, align 8
  %m_lower_open5 = getelementptr inbounds %class.old_interval, ptr %5, i32 0, i32 3
  call void @llvm.memcpy.p0.p0.i64(ptr align 8 %m_lower_open, ptr align 8 %m_lower_open5, i64 24, i1 false)
  ret void

lpad:                                             ; preds = %entry
  %6 = landingpad { ptr, i32 }
          cleanup
  %7 = extractvalue { ptr, i32 } %6, 0
  store ptr %7, ptr %exn.slot, align 8
  %8 = extractvalue { ptr, i32 } %6, 1
  store i32 %8, ptr %ehselector.slot, align 4
  call void @_ZN11ext_numeralD2Ev(ptr noundef nonnull align 8 dereferenceable(40) %m_lower) #3
  br label %eh.resume

eh.resume:                                        ; preds = %lpad
  %exn = load ptr, ptr %exn.slot, align 8
  %sel = load i32, ptr %ehselector.slot, align 4
  %lpad.val = insertvalue { ptr, i32 } poison, ptr %exn, 0
  %lpad.val6 = insertvalue { ptr, i32 } %lpad.val, i32 %sel, 1
  resume { ptr, i32 } %lpad.val6
}

; Function Attrs: mustprogress uwtable
define linkonce_odr hidden noundef zeroext i1 @_ZNK12old_interval13plus_infinityEv(ptr noundef nonnull align 8 dereferenceable(112) %this) #4 comdat align 2 {
entry:
  %this.addr = alloca ptr, align 8
  store ptr %this, ptr %this.addr, align 8
  %this1 = load ptr, ptr %this.addr, align 8
  %m_upper = getelementptr inbounds %class.old_interval, ptr %this1, i32 0, i32 2
  %call = call noundef zeroext i1 @_ZNK11ext_numeral11is_infiniteEv(ptr noundef nonnull align 8 dereferenceable(40) %m_upper)
  ret i1 %call
}

; Function Attrs: mustprogress uwtable
define linkonce_odr hidden noundef zeroext i1 @_ZNK12old_interval14minus_infinityEv(ptr noundef nonnull align 8 dereferenceable(112) %this) #4 comdat align 2 {
entry:
  %this.addr = alloca ptr, align 8
  store ptr %this, ptr %this.addr, align 8
  %this1 = load ptr, ptr %this.addr, align 8
  %m_lower = getelementptr inbounds %class.old_interval, ptr %this1, i32 0, i32 1
  %call = call noundef zeroext i1 @_ZNK11ext_numeral11is_infiniteEv(ptr noundef nonnull align 8 dereferenceable(40) %m_lower)
  ret i1 %call
}

; Function Attrs: mustprogress uwtable
define hidden noundef ptr @_ZN7datalog24interval_relation_plugin11mk_union_fnERKNS_13relation_baseES3_PS2_(ptr noundef nonnull align 8 dereferenceable(240) %this, ptr noundef nonnull align 8 dereferenceable(28) %tgt, ptr noundef nonnull align 8 dereferenceable(28) %src, ptr noundef %delta) unnamed_addr #4 align 2 {
entry:
  %retval = alloca ptr, align 8
  %this.addr = alloca ptr, align 8
  %tgt.addr = alloca ptr, align 8
  %src.addr = alloca ptr, align 8
  %delta.addr = alloca ptr, align 8
  store ptr %this, ptr %this.addr, align 8
  store ptr %tgt, ptr %tgt.addr, align 8
  store ptr %src, ptr %src.addr, align 8
  store ptr %delta, ptr %delta.addr, align 8
  %this1 = load ptr, ptr %this.addr, align 8
  %0 = load ptr, ptr %tgt.addr, align 8
  %call = call noundef zeroext i1 @_ZNK7datalog17tr_infrastructureINS_15relation_traitsEE13plugin_object10check_kindERKNS_13relation_baseE(ptr noundef nonnull align 8 dereferenceable(32) %this1, ptr noundef nonnull align 8 dereferenceable(28) %0)
  br i1 %call, label %lor.lhs.false, label %if.then

lor.lhs.false:                                    ; preds = %entry
  %1 = load ptr, ptr %src.addr, align 8
  %call2 = call noundef zeroext i1 @_ZNK7datalog17tr_infrastructureINS_15relation_traitsEE13plugin_object10check_kindERKNS_13relation_baseE(ptr noundef nonnull align 8 dereferenceable(32) %this1, ptr noundef nonnull align 8 dereferenceable(28) %1)
  br i1 %call2, label %lor.lhs.false3, label %if.then

lor.lhs.false3:                                   ; preds = %lor.lhs.false
  %2 = load ptr, ptr %delta.addr, align 8
  %tobool = icmp ne ptr %2, null
  br i1 %tobool, label %land.lhs.true, label %if.end

land.lhs.true:                                    ; preds = %lor.lhs.false3
  %3 = load ptr, ptr %delta.addr, align 8
  %call4 = call noundef zeroext i1 @_ZNK7datalog17tr_infrastructureINS_15relation_traitsEE13plugin_object10check_kindERKNS_13relation_baseE(ptr noundef nonnull align 8 dereferenceable(32) %this1, ptr noundef nonnull align 8 dereferenceable(28) %3)
  br i1 %call4, label %if.end, label %if.then

if.then:                                          ; preds = %land.lhs.true, %lor.lhs.false, %entry
  store ptr null, ptr %retval, align 8
  br label %return

if.end:                                           ; preds = %land.lhs.true, %lor.lhs.false3
  %call5 = call noalias noundef ptr @_ZN6memory8allocateEm(i64 noundef 16)
  call void @_ZN7datalog24interval_relation_plugin8union_fnC2Eb(ptr noundef nonnull align 8 dereferenceable(9) %call5, i1 noundef zeroext false)
  store ptr %call5, ptr %retval, align 8
  br label %return

return:                                           ; preds = %if.end, %if.then
  %4 = load ptr, ptr %retval, align 8
  ret ptr %4
}

; Function Attrs: mustprogress nounwind uwtable
define linkonce_odr hidden void @_ZN7datalog24interval_relation_plugin8union_fnC2Eb(ptr noundef nonnull align 8 dereferenceable(9) %this, i1 noundef zeroext %is_widen) unnamed_addr #5 comdat align 2 {
entry:
  %this.addr = alloca ptr, align 8
  %is_widen.addr = alloca i8, align 1
  store ptr %this, ptr %this.addr, align 8
  %frombool = zext i1 %is_widen to i8
  store i8 %frombool, ptr %is_widen.addr, align 1
  %this1 = load ptr, ptr %this.addr, align 8
  call void @_ZN7datalog17tr_infrastructureINS_15relation_traitsEE8union_fnC2Ev(ptr noundef nonnull align 8 dereferenceable(8) %this1) #3
  store ptr getelementptr inbounds ({ [5 x ptr] }, ptr @_ZTVN7datalog24interval_relation_plugin8union_fnE, i32 0, inrange i32 0, i32 2), ptr %this1, align 8
  %m_is_widen = getelementptr inbounds %"class.datalog::interval_relation_plugin::union_fn", ptr %this1, i32 0, i32 1
  %0 = load i8, ptr %is_widen.addr, align 1
  %tobool = trunc i8 %0 to i1
  %frombool2 = zext i1 %tobool to i8
  store i8 %frombool2, ptr %m_is_widen, align 8
  ret void
}

; Function Attrs: mustprogress uwtable
define hidden noundef ptr @_ZN7datalog24interval_relation_plugin11mk_widen_fnERKNS_13relation_baseES3_PS2_(ptr noundef nonnull align 8 dereferenceable(240) %this, ptr noundef nonnull align 8 dereferenceable(28) %tgt, ptr noundef nonnull align 8 dereferenceable(28) %src, ptr noundef %delta) unnamed_addr #4 align 2 {
entry:
  %retval = alloca ptr, align 8
  %this.addr = alloca ptr, align 8
  %tgt.addr = alloca ptr, align 8
  %src.addr = alloca ptr, align 8
  %delta.addr = alloca ptr, align 8
  store ptr %this, ptr %this.addr, align 8
  store ptr %tgt, ptr %tgt.addr, align 8
  store ptr %src, ptr %src.addr, align 8
  store ptr %delta, ptr %delta.addr, align 8
  %this1 = load ptr, ptr %this.addr, align 8
  %0 = load ptr, ptr %tgt.addr, align 8
  %call = call noundef zeroext i1 @_ZNK7datalog17tr_infrastructureINS_15relation_traitsEE13plugin_object10check_kindERKNS_13relation_baseE(ptr noundef nonnull align 8 dereferenceable(32) %this1, ptr noundef nonnull align 8 dereferenceable(28) %0)
  br i1 %call, label %lor.lhs.false, label %if.then

lor.lhs.false:                                    ; preds = %entry
  %1 = load ptr, ptr %src.addr, align 8
  %call2 = call noundef zeroext i1 @_ZNK7datalog17tr_infrastructureINS_15relation_traitsEE13plugin_object10check_kindERKNS_13relation_baseE(ptr noundef nonnull align 8 dereferenceable(32) %this1, ptr noundef nonnull align 8 dereferenceable(28) %1)
  br i1 %call2, label %lor.lhs.false3, label %if.then

lor.lhs.false3:                                   ; preds = %lor.lhs.false
  %2 = load ptr, ptr %delta.addr, align 8
  %tobool = icmp ne ptr %2, null
  br i1 %tobool, label %land.lhs.true, label %if.end

land.lhs.true:                                    ; preds = %lor.lhs.false3
  %3 = load ptr, ptr %delta.addr, align 8
  %call4 = call noundef zeroext i1 @_ZNK7datalog17tr_infrastructureINS_15relation_traitsEE13plugin_object10check_kindERKNS_13relation_baseE(ptr noundef nonnull align 8 dereferenceable(32) %this1, ptr noundef nonnull align 8 dereferenceable(28) %3)
  br i1 %call4, label %if.end, label %if.then

if.then:                                          ; preds = %land.lhs.true, %lor.lhs.false, %entry
  store ptr null, ptr %retval, align 8
  br label %return

if.end:                                           ; preds = %land.lhs.true, %lor.lhs.false3
  %call5 = call noalias noundef ptr @_ZN6memory8allocateEm(i64 noundef 16)
  call void @_ZN7datalog24interval_relation_plugin8union_fnC2Eb(ptr noundef nonnull align 8 dereferenceable(9) %call5, i1 noundef zeroext true)
  store ptr %call5, ptr %retval, align 8
  br label %return

return:                                           ; preds = %if.end, %if.then
  %4 = load ptr, ptr %retval, align 8
  ret ptr %4
}

; Function Attrs: mustprogress uwtable
define hidden noundef ptr @_ZN7datalog24interval_relation_plugin22mk_filter_identical_fnERKNS_13relation_baseEjPKj(ptr noundef nonnull align 8 dereferenceable(240) %this, ptr noundef nonnull align 8 dereferenceable(28) %t, i32 noundef %col_cnt, ptr noundef %identical_cols) unnamed_addr #4 align 2 {
entry:
  %retval = alloca ptr, align 8
  %this.addr = alloca ptr, align 8
  %t.addr = alloca ptr, align 8
  %col_cnt.addr = alloca i32, align 4
  %identical_cols.addr = alloca ptr, align 8
  store ptr %this, ptr %this.addr, align 8
  store ptr %t, ptr %t.addr, align 8
  store i32 %col_cnt, ptr %col_cnt.addr, align 4
  store ptr %identical_cols, ptr %identical_cols.addr, align 8
  %this1 = load ptr, ptr %this.addr, align 8
  %0 = load ptr, ptr %t.addr, align 8
  %call = call noundef zeroext i1 @_ZNK7datalog17tr_infrastructureINS_15relation_traitsEE13plugin_object10check_kindERKNS_13relation_baseE(ptr noundef nonnull align 8 dereferenceable(32) %this1, ptr noundef nonnull align 8 dereferenceable(28) %0)
  br i1 %call, label %if.end, label %if.then

if.then:                                          ; preds = %entry
  store ptr null, ptr %retval, align 8
  br label %return

if.end:                                           ; preds = %entry
  %call2 = call noalias noundef ptr @_ZN6memory8allocateEm(i64 noundef 16)
  %1 = load i32, ptr %col_cnt.addr, align 4
  %2 = load ptr, ptr %identical_cols.addr, align 8
  call void @_ZN7datalog24interval_relation_plugin19filter_identical_fnC2EjPKj(ptr noundef nonnull align 8 dereferenceable(16) %call2, i32 noundef %1, ptr noundef %2)
  store ptr %call2, ptr %retval, align 8
  br label %return

return:                                           ; preds = %if.end, %if.then
  %3 = load ptr, ptr %retval, align 8
  ret ptr %3
}

; Function Attrs: mustprogress uwtable
define linkonce_odr hidden void @_ZN7datalog24interval_relation_plugin19filter_identical_fnC2EjPKj(ptr noundef nonnull align 8 dereferenceable(16) %this, i32 noundef %col_cnt, ptr noundef %identical_cols) unnamed_addr #4 comdat align 2 personality ptr @__gxx_personality_v0 {
entry:
  %this.addr = alloca ptr, align 8
  %col_cnt.addr = alloca i32, align 4
  %identical_cols.addr = alloca ptr, align 8
  %exn.slot = alloca ptr, align 8
  %ehselector.slot = alloca i32, align 4
  store ptr %this, ptr %this.addr, align 8
  store i32 %col_cnt, ptr %col_cnt.addr, align 4
  store ptr %identical_cols, ptr %identical_cols.addr, align 8
  %this1 = load ptr, ptr %this.addr, align 8
  call void @_ZN7datalog17tr_infrastructureINS_15relation_traitsEE10mutator_fnC2Ev(ptr noundef nonnull align 8 dereferenceable(8) %this1) #3
  store ptr getelementptr inbounds ({ [7 x ptr] }, ptr @_ZTVN7datalog24interval_relation_plugin19filter_identical_fnE, i32 0, inrange i32 0, i32 2), ptr %this1, align 8
  %m_identical_cols = getelementptr inbounds %"class.datalog::interval_relation_plugin::filter_identical_fn", ptr %this1, i32 0, i32 1
  %0 = load i32, ptr %col_cnt.addr, align 4
  %1 = load ptr, ptr %identical_cols.addr, align 8
  invoke void @_ZN7svectorIjjEC2EjPKj(ptr noundef nonnull align 8 dereferenceable(8) %m_identical_cols, i32 noundef %0, ptr noundef %1)
          to label %invoke.cont unwind label %lpad

invoke.cont:                                      ; preds = %entry
  ret void

lpad:                                             ; preds = %entry
  %2 = landingpad { ptr, i32 }
          cleanup
  %3 = extractvalue { ptr, i32 } %2, 0
  store ptr %3, ptr %exn.slot, align 8
  %4 = extractvalue { ptr, i32 } %2, 1
  store i32 %4, ptr %ehselector.slot, align 4
  call void @_ZN7datalog17tr_infrastructureINS_15relation_traitsEE10mutator_fnD2Ev(ptr noundef nonnull align 8 dereferenceable(8) %this1) #3
  br label %eh.resume

eh.resume:                                        ; preds = %lpad
  %exn = load ptr, ptr %exn.slot, align 8
  %sel = load i32, ptr %ehselector.slot, align 4
  %lpad.val = insertvalue { ptr, i32 } poison, ptr %exn, 0
  %lpad.val2 = insertvalue { ptr, i32 } %lpad.val, i32 %sel, 1
  resume { ptr, i32 } %lpad.val2
}

; Function Attrs: mustprogress uwtable
define hidden noundef ptr @_ZN7datalog24interval_relation_plugin18mk_filter_equal_fnERKNS_13relation_baseERKP3appj(ptr noundef nonnull align 8 dereferenceable(240) %this, ptr noundef nonnull align 8 dereferenceable(28) %r, ptr noundef nonnull align 8 dereferenceable(8) %value, i32 noundef %col) unnamed_addr #4 align 2 {
entry:
  %retval = alloca ptr, align 8
  %this.addr = alloca ptr, align 8
  %r.addr = alloca ptr, align 8
  %value.addr = alloca ptr, align 8
  %col.addr = alloca i32, align 4
  store ptr %this, ptr %this.addr, align 8
  store ptr %r, ptr %r.addr, align 8
  store ptr %value, ptr %value.addr, align 8
  store i32 %col, ptr %col.addr, align 4
  %this1 = load ptr, ptr %this.addr, align 8
  %0 = load ptr, ptr %r.addr, align 8
  %call = call noundef zeroext i1 @_ZNK7datalog17tr_infrastructureINS_15relation_traitsEE13plugin_object10check_kindERKNS_13relation_baseE(ptr noundef nonnull align 8 dereferenceable(32) %this1, ptr noundef nonnull align 8 dereferenceable(28) %0)
  br i1 %call, label %if.then, label %if.end

if.then:                                          ; preds = %entry
  %call2 = call noalias noundef ptr @_ZN6memory8allocateEm(i64 noundef 48)
  %call3 = call noundef nonnull align 8 dereferenceable(200) ptr @_ZNK7datalog17tr_infrastructureINS_15relation_traitsEE13plugin_object11get_managerEv(ptr noundef nonnull align 8 dereferenceable(32) %this1)
  %1 = load ptr, ptr %value.addr, align 8
  %2 = load i32, ptr %col.addr, align 4
  call void @_ZN7datalog24interval_relation_plugin15filter_equal_fnC2ERNS_16relation_managerERKP3appj(ptr noundef nonnull align 8 dereferenceable(48) %call2, ptr noundef nonnull align 8 dereferenceable(200) %call3, ptr noundef nonnull align 8 dereferenceable(8) %1, i32 noundef %2)
  store ptr %call2, ptr %retval, align 8
  br label %return

if.end:                                           ; preds = %entry
  store ptr null, ptr %retval, align 8
  br label %return

return:                                           ; preds = %if.end, %if.then
  %3 = load ptr, ptr %retval, align 8
  ret ptr %3
}

; Function Attrs: mustprogress nounwind uwtable
define linkonce_odr hidden noundef nonnull align 8 dereferenceable(200) ptr @_ZNK7datalog17tr_infrastructureINS_15relation_traitsEE13plugin_object11get_managerEv(ptr noundef nonnull align 8 dereferenceable(32) %this) #5 comdat align 2 {
entry:
  %this.addr = alloca ptr, align 8
  store ptr %this, ptr %this.addr, align 8
  %this1 = load ptr, ptr %this.addr, align 8
  %m_manager = getelementptr inbounds %"class.datalog::tr_infrastructure<datalog::relation_traits>::plugin_object", ptr %this1, i32 0, i32 3
  %0 = load ptr, ptr %m_manager, align 8
  ret ptr %0
}

; Function Attrs: mustprogress uwtable
define linkonce_odr hidden void @_ZN7datalog24interval_relation_plugin15filter_equal_fnC2ERNS_16relation_managerERKP3appj(ptr noundef nonnull align 8 dereferenceable(48) %this, ptr noundef nonnull align 8 dereferenceable(200) %m, ptr noundef nonnull align 8 dereferenceable(8) %value, i32 noundef %col) unnamed_addr #4 comdat align 2 personality ptr @__gxx_personality_v0 {
entry:
  %this.addr = alloca ptr, align 8
  %m.addr = alloca ptr, align 8
  %value.addr = alloca ptr, align 8
  %col.addr = alloca i32, align 4
  %exn.slot = alloca ptr, align 8
  %ehselector.slot = alloca i32, align 4
  %arith = alloca %class.arith_util, align 8
  store ptr %this, ptr %this.addr, align 8
  store ptr %m, ptr %m.addr, align 8
  store ptr %value, ptr %value.addr, align 8
  store i32 %col, ptr %col.addr, align 4
  %this1 = load ptr, ptr %this.addr, align 8
  call void @_ZN7datalog17tr_infrastructureINS_15relation_traitsEE10mutator_fnC2Ev(ptr noundef nonnull align 8 dereferenceable(8) %this1) #3
  store ptr getelementptr inbounds ({ [7 x ptr] }, ptr @_ZTVN7datalog24interval_relation_plugin15filter_equal_fnE, i32 0, inrange i32 0, i32 2), ptr %this1, align 8
  %m_col = getelementptr inbounds %"class.datalog::interval_relation_plugin::filter_equal_fn", ptr %this1, i32 0, i32 1
  %0 = load i32, ptr %col.addr, align 4
  store i32 %0, ptr %m_col, align 8
  %m_value = getelementptr inbounds %"class.datalog::interval_relation_plugin::filter_equal_fn", ptr %this1, i32 0, i32 2
  invoke void @_ZN8rationalC2Ev(ptr noundef nonnull align 8 dereferenceable(32) %m_value)
          to label %invoke.cont unwind label %lpad

invoke.cont:                                      ; preds = %entry
  %1 = load ptr, ptr %m.addr, align 8
  %call = invoke noundef nonnull align 8 dereferenceable(3556) ptr @_ZNK7datalog16relation_manager11get_contextEv(ptr noundef nonnull align 8 dereferenceable(200) %1)
          to label %invoke.cont3 unwind label %lpad2

invoke.cont3:                                     ; preds = %invoke.cont
  %call5 = invoke noundef nonnull align 8 dereferenceable(976) ptr @_ZNK7datalog7context11get_managerEv(ptr noundef nonnull align 8 dereferenceable(3556) %call)
          to label %invoke.cont4 unwind label %lpad2

invoke.cont4:                                     ; preds = %invoke.cont3
  invoke void @_ZN10arith_utilC1ER11ast_manager(ptr noundef nonnull align 8 dereferenceable(16) %arith, ptr noundef nonnull align 8 dereferenceable(976) %call5)
          to label %invoke.cont6 unwind label %lpad2

invoke.cont6:                                     ; preds = %invoke.cont4
  %2 = load ptr, ptr %value.addr, align 8
  %3 = load ptr, ptr %2, align 8
  %m_value7 = getelementptr inbounds %"class.datalog::interval_relation_plugin::filter_equal_fn", ptr %this1, i32 0, i32 2
  %call9 = invoke noundef zeroext i1 @_ZNK10arith_util10is_numeralEPK4exprR8rational(ptr noundef nonnull align 8 dereferenceable(16) %arith, ptr noundef %3, ptr noundef nonnull align 8 dereferenceable(32) %m_value7)
          to label %invoke.cont8 unwind label %lpad2

invoke.cont8:                                     ; preds = %invoke.cont6
  br i1 %call9, label %if.end, label %if.then

if.then:                                          ; preds = %invoke.cont8
  invoke void @_Z26notify_assertion_violationPKciS0_(ptr noundef @.str, i32 noundef 266, ptr noundef @.str.8)
          to label %invoke.cont10 unwind label %lpad2

invoke.cont10:                                    ; preds = %if.then
  call void @exit(i32 noundef 114) #15
  unreachable

lpad:                                             ; preds = %entry
  %4 = landingpad { ptr, i32 }
          cleanup
  %5 = extractvalue { ptr, i32 } %4, 0
  store ptr %5, ptr %exn.slot, align 8
  %6 = extractvalue { ptr, i32 } %4, 1
  store i32 %6, ptr %ehselector.slot, align 4
  br label %ehcleanup

lpad2:                                            ; preds = %if.then, %invoke.cont6, %invoke.cont4, %invoke.cont3, %invoke.cont
  %7 = landingpad { ptr, i32 }
          cleanup
  %8 = extractvalue { ptr, i32 } %7, 0
  store ptr %8, ptr %exn.slot, align 8
  %9 = extractvalue { ptr, i32 } %7, 1
  store i32 %9, ptr %ehselector.slot, align 4
  call void @_ZN8rationalD2Ev(ptr noundef nonnull align 8 dereferenceable(32) %m_value) #3
  br label %ehcleanup

if.end:                                           ; preds = %invoke.cont8
  ret void

ehcleanup:                                        ; preds = %lpad2, %lpad
  call void @_ZN7datalog17tr_infrastructureINS_15relation_traitsEE10mutator_fnD2Ev(ptr noundef nonnull align 8 dereferenceable(8) %this1) #3
  br label %eh.resume

eh.resume:                                        ; preds = %ehcleanup
  %exn = load ptr, ptr %exn.slot, align 8
  %sel = load i32, ptr %ehselector.slot, align 4
  %lpad.val = insertvalue { ptr, i32 } poison, ptr %exn, 0
  %lpad.val11 = insertvalue { ptr, i32 } %lpad.val, i32 %sel, 1
  resume { ptr, i32 } %lpad.val11
}

; Function Attrs: mustprogress uwtable
define hidden noundef ptr @_ZN7datalog24interval_relation_plugin24mk_filter_interpreted_fnERKNS_13relation_baseEP3app(ptr noundef nonnull align 8 dereferenceable(240) %this, ptr noundef nonnull align 8 dereferenceable(28) %t, ptr noundef %condition) unnamed_addr #4 align 2 {
entry:
  %retval = alloca ptr, align 8
  %this.addr = alloca ptr, align 8
  %t.addr = alloca ptr, align 8
  %condition.addr = alloca ptr, align 8
  store ptr %this, ptr %this.addr, align 8
  store ptr %t, ptr %t.addr, align 8
  store ptr %condition, ptr %condition.addr, align 8
  %this1 = load ptr, ptr %this.addr, align 8
  %0 = load ptr, ptr %t.addr, align 8
  %call = call noundef zeroext i1 @_ZNK7datalog17tr_infrastructureINS_15relation_traitsEE13plugin_object10check_kindERKNS_13relation_baseE(ptr noundef nonnull align 8 dereferenceable(32) %this1, ptr noundef nonnull align 8 dereferenceable(28) %0)
  br i1 %call, label %if.then, label %if.end

if.then:                                          ; preds = %entry
  %call2 = call noalias noundef ptr @_ZN6memory8allocateEm(i64 noundef 24)
  %1 = load ptr, ptr %t.addr, align 8
  %call3 = call noundef nonnull align 8 dereferenceable(224) ptr @_ZN7datalog24interval_relation_plugin3getERKNS_13relation_baseE(ptr noundef nonnull align 8 dereferenceable(28) %1)
  %2 = load ptr, ptr %condition.addr, align 8
  call void @_ZN7datalog24interval_relation_plugin21filter_interpreted_fnC2ERKNS_17interval_relationEP3app(ptr noundef nonnull align 8 dereferenceable(24) %call2, ptr noundef nonnull align 8 dereferenceable(224) %call3, ptr noundef %2)
  store ptr %call2, ptr %retval, align 8
  br label %return

if.end:                                           ; preds = %entry
  store ptr null, ptr %retval, align 8
  br label %return

return:                                           ; preds = %if.end, %if.then
  %3 = load ptr, ptr %retval, align 8
  ret ptr %3
}

; Function Attrs: mustprogress uwtable
define hidden noundef nonnull align 8 dereferenceable(224) ptr @_ZN7datalog24interval_relation_plugin3getERKNS_13relation_baseE(ptr noundef nonnull align 8 dereferenceable(28) %r) #4 align 2 {
entry:
  %r.addr = alloca ptr, align 8
  store ptr %r, ptr %r.addr, align 8
  %0 = load ptr, ptr %r.addr, align 8
  %1 = call ptr @__dynamic_cast(ptr %0, ptr @_ZTIN7datalog13relation_baseE, ptr @_ZTIN7datalog17interval_relationE, i64 0) #3
  %2 = icmp eq ptr %1, null
  br i1 %2, label %dynamic_cast.bad_cast, label %dynamic_cast.end

dynamic_cast.bad_cast:                            ; preds = %entry
  call void @__cxa_bad_cast() #16
  unreachable

dynamic_cast.end:                                 ; preds = %entry
  ret ptr %1
}

; Function Attrs: mustprogress uwtable
define linkonce_odr hidden void @_ZN7datalog24interval_relation_plugin21filter_interpreted_fnC2ERKNS_17interval_relationEP3app(ptr noundef nonnull align 8 dereferenceable(24) %this, ptr noundef nonnull align 8 dereferenceable(224) %t, ptr noundef %cond) unnamed_addr #4 comdat align 2 personality ptr @__gxx_personality_v0 {
entry:
  %this.addr = alloca ptr, align 8
  %t.addr = alloca ptr, align 8
  %cond.addr = alloca ptr, align 8
  %exn.slot = alloca ptr, align 8
  %ehselector.slot = alloca i32, align 4
  store ptr %this, ptr %this.addr, align 8
  store ptr %t, ptr %t.addr, align 8
  store ptr %cond, ptr %cond.addr, align 8
  %this1 = load ptr, ptr %this.addr, align 8
  call void @_ZN7datalog17tr_infrastructureINS_15relation_traitsEE10mutator_fnC2Ev(ptr noundef nonnull align 8 dereferenceable(8) %this1) #3
  store ptr getelementptr inbounds ({ [7 x ptr] }, ptr @_ZTVN7datalog24interval_relation_plugin21filter_interpreted_fnE, i32 0, inrange i32 0, i32 2), ptr %this1, align 8
  %m_cond = getelementptr inbounds %"class.datalog::interval_relation_plugin::filter_interpreted_fn", ptr %this1, i32 0, i32 1
  %0 = load ptr, ptr %cond.addr, align 8
  %1 = load ptr, ptr %t.addr, align 8
  %call = invoke noundef nonnull align 8 dereferenceable(240) ptr @_ZNK7datalog17interval_relation10get_pluginEv(ptr noundef nonnull align 8 dereferenceable(224) %1)
          to label %invoke.cont unwind label %lpad

invoke.cont:                                      ; preds = %entry
  %call3 = invoke noundef nonnull align 8 dereferenceable(976) ptr @_ZNK7datalog17tr_infrastructureINS_15relation_traitsEE13plugin_object15get_ast_managerEv(ptr noundef nonnull align 8 dereferenceable(32) %call)
          to label %invoke.cont2 unwind label %lpad

invoke.cont2:                                     ; preds = %invoke.cont
  invoke void @_ZN7obj_refI3app11ast_managerEC2EPS0_RS1_(ptr noundef nonnull align 8 dereferenceable(16) %m_cond, ptr noundef %0, ptr noundef nonnull align 8 dereferenceable(976) %call3)
          to label %invoke.cont4 unwind label %lpad

invoke.cont4:                                     ; preds = %invoke.cont2
  ret void

lpad:                                             ; preds = %invoke.cont2, %invoke.cont, %entry
  %2 = landingpad { ptr, i32 }
          cleanup
  %3 = extractvalue { ptr, i32 } %2, 0
  store ptr %3, ptr %exn.slot, align 8
  %4 = extractvalue { ptr, i32 } %2, 1
  store i32 %4, ptr %ehselector.slot, align 4
  call void @_ZN7datalog17tr_infrastructureINS_15relation_traitsEE10mutator_fnD2Ev(ptr noundef nonnull align 8 dereferenceable(8) %this1) #3
  br label %eh.resume

eh.resume:                                        ; preds = %lpad
  %exn = load ptr, ptr %exn.slot, align 8
  %sel = load i32, ptr %ehselector.slot, align 4
  %lpad.val = insertvalue { ptr, i32 } poison, ptr %exn, 0
  %lpad.val5 = insertvalue { ptr, i32 } %lpad.val, i32 %sel, 1
  resume { ptr, i32 } %lpad.val5
}

; Function Attrs: mustprogress uwtable
define hidden noundef nonnull align 8 dereferenceable(224) ptr @_ZN7datalog24interval_relation_plugin3getERNS_13relation_baseE(ptr noundef nonnull align 8 dereferenceable(28) %r) #4 align 2 {
entry:
  %r.addr = alloca ptr, align 8
  store ptr %r, ptr %r.addr, align 8
  %0 = load ptr, ptr %r.addr, align 8
  %1 = call ptr @__dynamic_cast(ptr %0, ptr @_ZTIN7datalog13relation_baseE, ptr @_ZTIN7datalog17interval_relationE, i64 0) #3
  %2 = icmp eq ptr %1, null
  br i1 %2, label %dynamic_cast.bad_cast, label %dynamic_cast.end

dynamic_cast.bad_cast:                            ; preds = %entry
  call void @__cxa_bad_cast() #16
  unreachable

dynamic_cast.end:                                 ; preds = %entry
  ret ptr %1
}

; Function Attrs: nounwind memory(read)
declare ptr @__dynamic_cast(ptr, ptr, ptr, i64) #6

declare void @__cxa_bad_cast()

; Function Attrs: mustprogress uwtable
define hidden void @_ZN7datalog17interval_relationC2ERNS_24interval_relation_pluginERKNS_18relation_signatureEb(ptr noundef nonnull align 8 dereferenceable(224) %this, ptr noundef nonnull align 8 dereferenceable(240) %p, ptr noundef nonnull align 8 dereferenceable(8) %s, i1 noundef zeroext %is_empty) unnamed_addr #4 align 2 personality ptr @__gxx_personality_v0 {
entry:
  %this.addr = alloca ptr, align 8
  %p.addr = alloca ptr, align 8
  %s.addr = alloca ptr, align 8
  %is_empty.addr = alloca i8, align 1
  %ref.tmp = alloca %class.old_interval, align 8
  %exn.slot = alloca ptr, align 8
  %ehselector.slot = alloca i32, align 4
  store ptr %this, ptr %this.addr, align 8
  store ptr %p, ptr %p.addr, align 8
  store ptr %s, ptr %s.addr, align 8
  %frombool = zext i1 %is_empty to i8
  store i8 %frombool, ptr %is_empty.addr, align 1
  %this1 = load ptr, ptr %this.addr, align 8
  %0 = load ptr, ptr %p.addr, align 8
  %1 = load ptr, ptr %s.addr, align 8
  %2 = load i8, ptr %is_empty.addr, align 1
  %tobool = trunc i8 %2 to i1
  %3 = load ptr, ptr %p.addr, align 8
  %call = call noundef nonnull align 8 dereferenceable(72) ptr @_ZNK7datalog24interval_relation_plugin3depEv(ptr noundef nonnull align 8 dereferenceable(240) %3)
  call void @_ZN12old_intervalC1ER25scoped_dependency_managerIPvE(ptr noundef nonnull align 8 dereferenceable(112) %ref.tmp, ptr noundef nonnull align 8 dereferenceable(72) %call)
  invoke void @_ZN7datalog15vector_relationI12old_intervalNS_22vector_relation_helperIS1_EEEC2ERNS_15relation_pluginERKNS_18relation_signatureEbRKS1_(ptr noundef nonnull align 8 dereferenceable(224) %this1, ptr noundef nonnull align 8 dereferenceable(36) %0, ptr noundef nonnull align 8 dereferenceable(8) %1, i1 noundef zeroext %tobool, ptr noundef nonnull align 8 dereferenceable(112) %ref.tmp)
          to label %invoke.cont unwind label %lpad

invoke.cont:                                      ; preds = %entry
  call void @_ZN12old_intervalD2Ev(ptr noundef nonnull align 8 dereferenceable(112) %ref.tmp) #3
  store ptr getelementptr inbounds ({ [31 x ptr] }, ptr @_ZTVN7datalog17interval_relationE, i32 0, inrange i32 0, i32 2), ptr %this1, align 8
  ret void

lpad:                                             ; preds = %entry
  %4 = landingpad { ptr, i32 }
          cleanup
  %5 = extractvalue { ptr, i32 } %4, 0
  store ptr %5, ptr %exn.slot, align 8
  %6 = extractvalue { ptr, i32 } %4, 1
  store i32 %6, ptr %ehselector.slot, align 4
  call void @_ZN12old_intervalD2Ev(ptr noundef nonnull align 8 dereferenceable(112) %ref.tmp) #3
  br label %eh.resume

eh.resume:                                        ; preds = %lpad
  %exn = load ptr, ptr %exn.slot, align 8
  %sel = load i32, ptr %ehselector.slot, align 4
  %lpad.val = insertvalue { ptr, i32 } poison, ptr %exn, 0
  %lpad.val2 = insertvalue { ptr, i32 } %lpad.val, i32 %sel, 1
  resume { ptr, i32 } %lpad.val2
}

; Function Attrs: mustprogress uwtable
define linkonce_odr hidden void @_ZN7datalog15vector_relationI12old_intervalNS_22vector_relation_helperIS1_EEEC2ERNS_15relation_pluginERKNS_18relation_signatureEbRKS1_(ptr noundef nonnull align 8 dereferenceable(224) %this, ptr noundef nonnull align 8 dereferenceable(36) %p, ptr noundef nonnull align 8 dereferenceable(8) %s, i1 noundef zeroext %is_empty, ptr noundef nonnull align 8 dereferenceable(112) %t) unnamed_addr #4 comdat align 2 personality ptr @__gxx_personality_v0 {
entry:
  %this.addr = alloca ptr, align 8
  %p.addr = alloca ptr, align 8
  %s.addr = alloca ptr, align 8
  %is_empty.addr = alloca i8, align 1
  %t.addr = alloca ptr, align 8
  %exn.slot = alloca ptr, align 8
  %ehselector.slot = alloca i32, align 4
  %agg.tmp = alloca %class.old_interval, align 8
  %i = alloca i32, align 4
  store ptr %this, ptr %this.addr, align 8
  store ptr %p, ptr %p.addr, align 8
  store ptr %s, ptr %s.addr, align 8
  %frombool = zext i1 %is_empty to i8
  store i8 %frombool, ptr %is_empty.addr, align 1
  store ptr %t, ptr %t.addr, align 8
  %this1 = load ptr, ptr %this.addr, align 8
  %0 = load ptr, ptr %p.addr, align 8
  %1 = load ptr, ptr %s.addr, align 8
  call void @_ZN7datalog13relation_baseC2ERNS_15relation_pluginERKNS_18relation_signatureE(ptr noundef nonnull align 8 dereferenceable(28) %this1, ptr noundef nonnull align 8 dereferenceable(36) %0, ptr noundef nonnull align 8 dereferenceable(8) %1)
  store ptr getelementptr inbounds ({ [31 x ptr] }, ptr @_ZTVN7datalog15vector_relationI12old_intervalNS_22vector_relation_helperIS1_EEEE, i32 0, inrange i32 0, i32 2), ptr %this1, align 8
  %m_default = getelementptr inbounds %"class.datalog::vector_relation", ptr %this1, i32 0, i32 1
  %2 = load ptr, ptr %t.addr, align 8
  invoke void @_ZN12old_intervalC2ERKS_(ptr noundef nonnull align 8 dereferenceable(112) %m_default, ptr noundef nonnull align 8 dereferenceable(112) %2)
          to label %invoke.cont unwind label %lpad

invoke.cont:                                      ; preds = %entry
  %m_elems = getelementptr inbounds %"class.datalog::vector_relation", ptr %this1, i32 0, i32 2
  %call = invoke noalias noundef ptr @_ZN6memory8allocateEm(i64 noundef 8)
          to label %invoke.cont3 unwind label %lpad2

invoke.cont3:                                     ; preds = %invoke.cont
  call void @llvm.memset.p0.i64(ptr align 8 %call, i8 0, i64 8, i1 false)
  call void @_ZN6vectorI12old_intervalLb1EjEC2Ev(ptr noundef nonnull align 8 dereferenceable(8) %call) #3
  store ptr %call, ptr %m_elems, align 8
  %m_empty = getelementptr inbounds %"class.datalog::vector_relation", ptr %this1, i32 0, i32 3
  %3 = load i8, ptr %is_empty.addr, align 1
  %tobool = trunc i8 %3 to i1
  %frombool4 = zext i1 %tobool to i8
  store i8 %frombool4, ptr %m_empty, align 8
  %m_ctx = getelementptr inbounds %"class.datalog::vector_relation", ptr %this1, i32 0, i32 4
  invoke void @_ZN22union_find_default_ctxC2Ev(ptr noundef nonnull align 8 dereferenceable(56) %m_ctx)
          to label %invoke.cont5 unwind label %lpad2

invoke.cont5:                                     ; preds = %invoke.cont3
  %m_eqs = getelementptr inbounds %"class.datalog::vector_relation", ptr %this1, i32 0, i32 5
  %call8 = invoke noalias noundef ptr @_ZN6memory8allocateEm(i64 noundef 56)
          to label %invoke.cont7 unwind label %lpad6

invoke.cont7:                                     ; preds = %invoke.cont5
  %m_ctx9 = getelementptr inbounds %"class.datalog::vector_relation", ptr %this1, i32 0, i32 4
  invoke void @_ZN10union_findI22union_find_default_ctxS0_EC2ERS0_(ptr noundef nonnull align 8 dereferenceable(56) %call8, ptr noundef nonnull align 8 dereferenceable(56) %m_ctx9)
          to label %invoke.cont10 unwind label %lpad6

invoke.cont10:                                    ; preds = %invoke.cont7
  store ptr %call8, ptr %m_eqs, align 8
  %m_elems11 = getelementptr inbounds %"class.datalog::vector_relation", ptr %this1, i32 0, i32 2
  %4 = load ptr, ptr %m_elems11, align 8
  %5 = load ptr, ptr %s.addr, align 8
  %call12 = call noundef i32 @_ZNK6vectorIP4sortLb0EjE4sizeEv(ptr noundef nonnull align 8 dereferenceable(8) %5)
  %6 = load ptr, ptr %t.addr, align 8
  invoke void @_ZN12old_intervalC2ERKS_(ptr noundef nonnull align 8 dereferenceable(112) %agg.tmp, ptr noundef nonnull align 8 dereferenceable(112) %6)
          to label %invoke.cont13 unwind label %lpad6

invoke.cont13:                                    ; preds = %invoke.cont10
  invoke void (ptr, i32, ptr, ...) @_ZN6vectorI12old_intervalLb1EjE6resizeIS0_EEvjT_z(ptr noundef nonnull align 8 dereferenceable(8) %4, i32 noundef %call12, ptr noundef %agg.tmp)
          to label %invoke.cont15 unwind label %lpad14

invoke.cont15:                                    ; preds = %invoke.cont13
  call void @_ZN12old_intervalD2Ev(ptr noundef nonnull align 8 dereferenceable(112) %agg.tmp) #3
  store i32 0, ptr %i, align 4
  br label %for.cond

for.cond:                                         ; preds = %for.inc, %invoke.cont15
  %7 = load i32, ptr %i, align 4
  %8 = load ptr, ptr %s.addr, align 8
  %call16 = call noundef i32 @_ZNK6vectorIP4sortLb0EjE4sizeEv(ptr noundef nonnull align 8 dereferenceable(8) %8)
  %cmp = icmp ult i32 %7, %call16
  br i1 %cmp, label %for.body, label %for.end

for.body:                                         ; preds = %for.cond
  %m_eqs17 = getelementptr inbounds %"class.datalog::vector_relation", ptr %this1, i32 0, i32 5
  %9 = load ptr, ptr %m_eqs17, align 8
  %call19 = invoke noundef i32 @_ZN10union_findI22union_find_default_ctxS0_E6mk_varEv(ptr noundef nonnull align 8 dereferenceable(56) %9)
          to label %invoke.cont18 unwind label %lpad6

invoke.cont18:                                    ; preds = %for.body
  br label %for.inc

for.inc:                                          ; preds = %invoke.cont18
  %10 = load i32, ptr %i, align 4
  %inc = add i32 %10, 1
  store i32 %inc, ptr %i, align 4
  br label %for.cond, !llvm.loop !6

lpad:                                             ; preds = %entry
  %11 = landingpad { ptr, i32 }
          cleanup
  %12 = extractvalue { ptr, i32 } %11, 0
  store ptr %12, ptr %exn.slot, align 8
  %13 = extractvalue { ptr, i32 } %11, 1
  store i32 %13, ptr %ehselector.slot, align 4
  br label %ehcleanup21

lpad2:                                            ; preds = %invoke.cont3, %invoke.cont
  %14 = landingpad { ptr, i32 }
          cleanup
  %15 = extractvalue { ptr, i32 } %14, 0
  store ptr %15, ptr %exn.slot, align 8
  %16 = extractvalue { ptr, i32 } %14, 1
  store i32 %16, ptr %ehselector.slot, align 4
  br label %ehcleanup20

lpad6:                                            ; preds = %for.body, %invoke.cont10, %invoke.cont7, %invoke.cont5
  %17 = landingpad { ptr, i32 }
          cleanup
  %18 = extractvalue { ptr, i32 } %17, 0
  store ptr %18, ptr %exn.slot, align 8
  %19 = extractvalue { ptr, i32 } %17, 1
  store i32 %19, ptr %ehselector.slot, align 4
  br label %ehcleanup

lpad14:                                           ; preds = %invoke.cont13
  %20 = landingpad { ptr, i32 }
          cleanup
  %21 = extractvalue { ptr, i32 } %20, 0
  store ptr %21, ptr %exn.slot, align 8
  %22 = extractvalue { ptr, i32 } %20, 1
  store i32 %22, ptr %ehselector.slot, align 4
  call void @_ZN12old_intervalD2Ev(ptr noundef nonnull align 8 dereferenceable(112) %agg.tmp) #3
  br label %ehcleanup

for.end:                                          ; preds = %for.cond
  ret void

ehcleanup:                                        ; preds = %lpad14, %lpad6
  call void @_ZN22union_find_default_ctxD2Ev(ptr noundef nonnull align 8 dereferenceable(56) %m_ctx) #3
  br label %ehcleanup20

ehcleanup20:                                      ; preds = %ehcleanup, %lpad2
  call void @_ZN12old_intervalD2Ev(ptr noundef nonnull align 8 dereferenceable(112) %m_default) #3
  br label %ehcleanup21

ehcleanup21:                                      ; preds = %ehcleanup20, %lpad
  call void @_ZN7datalog13relation_baseD2Ev(ptr noundef nonnull align 8 dereferenceable(28) %this1) #3
  br label %eh.resume

eh.resume:                                        ; preds = %ehcleanup21
  %exn = load ptr, ptr %exn.slot, align 8
  %sel = load i32, ptr %ehselector.slot, align 4
  %lpad.val = insertvalue { ptr, i32 } poison, ptr %exn, 0
  %lpad.val22 = insertvalue { ptr, i32 } %lpad.val, i32 %sel, 1
  resume { ptr, i32 } %lpad.val22
}

; Function Attrs: mustprogress uwtable
define hidden void @_ZN7datalog17interval_relation8add_factERKNS_13relation_factE(ptr noundef nonnull align 8 dereferenceable(224) %this, ptr noundef nonnull align 8 dereferenceable(16) %f) unnamed_addr #4 align 2 personality ptr @__gxx_personality_v0 {
entry:
  %this.addr = alloca ptr, align 8
  %f.addr = alloca ptr, align 8
  %r = alloca %"class.datalog::interval_relation", align 8
  %m = alloca ptr, align 8
  %exn.slot = alloca ptr, align 8
  %ehselector.slot = alloca i32, align 4
  %i = alloca i32, align 4
  %eq = alloca %class.obj_ref, align 8
  %e = alloca ptr, align 8
  store ptr %this, ptr %this.addr, align 8
  store ptr %f, ptr %f.addr, align 8
  %this1 = load ptr, ptr %this.addr, align 8
  %call = call noundef nonnull align 8 dereferenceable(240) ptr @_ZNK7datalog17interval_relation10get_pluginEv(ptr noundef nonnull align 8 dereferenceable(224) %this1)
  %call2 = call noundef nonnull align 8 dereferenceable(8) ptr @_ZNK7datalog17tr_infrastructureINS_15relation_traitsEE13base_ancestor13get_signatureEv(ptr noundef nonnull align 8 dereferenceable(28) %this1)
  call void @_ZN7datalog17interval_relationC1ERNS_24interval_relation_pluginERKNS_18relation_signatureEb(ptr noundef nonnull align 8 dereferenceable(224) %r, ptr noundef nonnull align 8 dereferenceable(240) %call, ptr noundef nonnull align 8 dereferenceable(8) %call2, i1 noundef zeroext false)
  %call3 = invoke noundef nonnull align 8 dereferenceable(240) ptr @_ZNK7datalog17interval_relation10get_pluginEv(ptr noundef nonnull align 8 dereferenceable(224) %this1)
          to label %invoke.cont unwind label %lpad

invoke.cont:                                      ; preds = %entry
  %call5 = invoke noundef nonnull align 8 dereferenceable(976) ptr @_ZNK7datalog17tr_infrastructureINS_15relation_traitsEE13plugin_object15get_ast_managerEv(ptr noundef nonnull align 8 dereferenceable(32) %call3)
          to label %invoke.cont4 unwind label %lpad

invoke.cont4:                                     ; preds = %invoke.cont
  store ptr %call5, ptr %m, align 8
  store i32 0, ptr %i, align 4
  br label %for.cond

for.cond:                                         ; preds = %for.inc, %invoke.cont4
  %0 = load i32, ptr %i, align 4
  %1 = load ptr, ptr %f.addr, align 8
  %call7 = invoke noundef i32 @_ZNK15ref_vector_coreI3app19ref_manager_wrapperIS0_11ast_managerEE4sizeEv(ptr noundef nonnull align 8 dereferenceable(16) %1)
          to label %invoke.cont6 unwind label %lpad

invoke.cont6:                                     ; preds = %for.cond
  %cmp = icmp ult i32 %0, %call7
  br i1 %cmp, label %for.body, label %for.end

for.body:                                         ; preds = %invoke.cont6
  %2 = load ptr, ptr %m, align 8
  invoke void @_ZN7obj_refI3app11ast_managerEC2ERS1_(ptr noundef nonnull align 8 dereferenceable(16) %eq, ptr noundef nonnull align 8 dereferenceable(976) %2)
          to label %invoke.cont8 unwind label %lpad

invoke.cont8:                                     ; preds = %for.body
  %3 = load ptr, ptr %f.addr, align 8
  %4 = load i32, ptr %i, align 4
  %call11 = invoke noundef ptr @_ZNK7datalog13relation_factixEj(ptr noundef nonnull align 8 dereferenceable(16) %3, i32 noundef %4)
          to label %invoke.cont10 unwind label %lpad9

invoke.cont10:                                    ; preds = %invoke.cont8
  store ptr %call11, ptr %e, align 8
  %5 = load ptr, ptr %m, align 8
  %6 = load ptr, ptr %m, align 8
  %7 = load i32, ptr %i, align 4
  %8 = load ptr, ptr %e, align 8
  %call13 = invoke noundef ptr @_ZNK4expr8get_sortEv(ptr noundef nonnull align 4 dereferenceable(16) %8)
          to label %invoke.cont12 unwind label %lpad9

invoke.cont12:                                    ; preds = %invoke.cont10
  %call15 = invoke noundef ptr @_ZN11ast_manager6mk_varEjP4sort(ptr noundef nonnull align 8 dereferenceable(976) %6, i32 noundef %7, ptr noundef %call13)
          to label %invoke.cont14 unwind label %lpad9

invoke.cont14:                                    ; preds = %invoke.cont12
  %9 = load ptr, ptr %e, align 8
  %call17 = invoke noundef ptr @_ZN11ast_manager5mk_eqEP4exprS1_(ptr noundef nonnull align 8 dereferenceable(976) %5, ptr noundef %call15, ptr noundef %9)
          to label %invoke.cont16 unwind label %lpad9

invoke.cont16:                                    ; preds = %invoke.cont14
  %call19 = invoke noundef nonnull align 8 dereferenceable(16) ptr @_ZN7obj_refI3app11ast_managerEaSEPS0_(ptr noundef nonnull align 8 dereferenceable(16) %eq, ptr noundef %call17)
          to label %invoke.cont18 unwind label %lpad9

invoke.cont18:                                    ; preds = %invoke.cont16
  %call21 = invoke noundef ptr @_ZNK7obj_refI3app11ast_managerE3getEv(ptr noundef nonnull align 8 dereferenceable(16) %eq)
          to label %invoke.cont20 unwind label %lpad9

invoke.cont20:                                    ; preds = %invoke.cont18
  invoke void @_ZN7datalog17interval_relation18filter_interpretedEP3app(ptr noundef nonnull align 8 dereferenceable(224) %r, ptr noundef %call21)
          to label %invoke.cont22 unwind label %lpad9

invoke.cont22:                                    ; preds = %invoke.cont20
  call void @_ZN7obj_refI3app11ast_managerED2Ev(ptr noundef nonnull align 8 dereferenceable(16) %eq) #3
  br label %for.inc

for.inc:                                          ; preds = %invoke.cont22
  %10 = load i32, ptr %i, align 4
  %inc = add i32 %10, 1
  store i32 %inc, ptr %i, align 4
  br label %for.cond, !llvm.loop !7

lpad:                                             ; preds = %for.end, %for.body, %for.cond, %invoke.cont, %entry
  %11 = landingpad { ptr, i32 }
          cleanup
  %12 = extractvalue { ptr, i32 } %11, 0
  store ptr %12, ptr %exn.slot, align 8
  %13 = extractvalue { ptr, i32 } %11, 1
  store i32 %13, ptr %ehselector.slot, align 4
  br label %ehcleanup

lpad9:                                            ; preds = %invoke.cont20, %invoke.cont18, %invoke.cont16, %invoke.cont14, %invoke.cont12, %invoke.cont10, %invoke.cont8
  %14 = landingpad { ptr, i32 }
          cleanup
  %15 = extractvalue { ptr, i32 } %14, 0
  store ptr %15, ptr %exn.slot, align 8
  %16 = extractvalue { ptr, i32 } %14, 1
  store i32 %16, ptr %ehselector.slot, align 4
  call void @_ZN7obj_refI3app11ast_managerED2Ev(ptr noundef nonnull align 8 dereferenceable(16) %eq) #3
  br label %ehcleanup

for.end:                                          ; preds = %invoke.cont6
  invoke void @_ZN7datalog15vector_relationI12old_intervalNS_22vector_relation_helperIS1_EEE8mk_unionERKS4_PS4_b(ptr noundef nonnull align 8 dereferenceable(224) %this1, ptr noundef nonnull align 8 dereferenceable(224) %r, ptr noundef null, i1 noundef zeroext false)
          to label %invoke.cont23 unwind label %lpad

invoke.cont23:                                    ; preds = %for.end
  call void @_ZN7datalog17interval_relationD2Ev(ptr noundef nonnull align 8 dereferenceable(224) %r) #3
  ret void

ehcleanup:                                        ; preds = %lpad9, %lpad
  call void @_ZN7datalog17interval_relationD2Ev(ptr noundef nonnull align 8 dereferenceable(224) %r) #3
  br label %eh.resume

eh.resume:                                        ; preds = %ehcleanup
  %exn = load ptr, ptr %exn.slot, align 8
  %sel = load i32, ptr %ehselector.slot, align 4
  %lpad.val = insertvalue { ptr, i32 } poison, ptr %exn, 0
  %lpad.val24 = insertvalue { ptr, i32 } %lpad.val, i32 %sel, 1
  resume { ptr, i32 } %lpad.val24
}

; Function Attrs: mustprogress uwtable
define hidden noundef nonnull align 8 dereferenceable(240) ptr @_ZNK7datalog17interval_relation10get_pluginEv(ptr noundef nonnull align 8 dereferenceable(224) %this) #4 align 2 {
entry:
  %this.addr = alloca ptr, align 8
  store ptr %this, ptr %this.addr, align 8
  %this1 = load ptr, ptr %this.addr, align 8
  %call = call noundef nonnull align 8 dereferenceable(36) ptr @_ZNK7datalog17tr_infrastructureINS_15relation_traitsEE13base_ancestor10get_pluginEv(ptr noundef nonnull align 8 dereferenceable(28) %this1)
  ret ptr %call
}

; Function Attrs: mustprogress uwtable
define linkonce_odr hidden noundef i32 @_ZNK15ref_vector_coreI3app19ref_manager_wrapperIS0_11ast_managerEE4sizeEv(ptr noundef nonnull align 8 dereferenceable(16) %this) #4 comdat align 2 {
entry:
  %this.addr = alloca ptr, align 8
  store ptr %this, ptr %this.addr, align 8
  %this1 = load ptr, ptr %this.addr, align 8
  %m_nodes = getelementptr inbounds %class.ref_vector_core, ptr %this1, i32 0, i32 1
  %call = call noundef i32 @_ZNK6vectorIP3appLb0EjE4sizeEv(ptr noundef nonnull align 8 dereferenceable(8) %m_nodes)
  ret i32 %call
}

; Function Attrs: mustprogress nounwind uwtable
define linkonce_odr hidden void @_ZN7obj_refI3app11ast_managerEC2ERS1_(ptr noundef nonnull align 8 dereferenceable(16) %this, ptr noundef nonnull align 8 dereferenceable(976) %m) unnamed_addr #5 comdat align 2 {
entry:
  %this.addr = alloca ptr, align 8
  %m.addr = alloca ptr, align 8
  store ptr %this, ptr %this.addr, align 8
  store ptr %m, ptr %m.addr, align 8
  %this1 = load ptr, ptr %this.addr, align 8
  %m_obj = getelementptr inbounds %class.obj_ref, ptr %this1, i32 0, i32 0
  store ptr null, ptr %m_obj, align 8
  %m_manager = getelementptr inbounds %class.obj_ref, ptr %this1, i32 0, i32 1
  %0 = load ptr, ptr %m.addr, align 8
  store ptr %0, ptr %m_manager, align 8
  ret void
}

; Function Attrs: mustprogress uwtable
define linkonce_odr hidden noundef ptr @_ZNK7datalog13relation_factixEj(ptr noundef nonnull align 8 dereferenceable(16) %this, i32 noundef %i) #4 comdat align 2 {
entry:
  %this.addr = alloca ptr, align 8
  %i.addr = alloca i32, align 4
  store ptr %this, ptr %this.addr, align 8
  store i32 %i, ptr %i.addr, align 4
  %this1 = load ptr, ptr %this.addr, align 8
  %0 = load i32, ptr %i.addr, align 4
  %call = call noundef ptr @_ZNK15ref_vector_coreI3app19ref_manager_wrapperIS0_11ast_managerEE3getEj(ptr noundef nonnull align 8 dereferenceable(16) %this1, i32 noundef %0)
  ret ptr %call
}

; Function Attrs: mustprogress uwtable
define linkonce_odr hidden noundef ptr @_ZN11ast_manager5mk_eqEP4exprS1_(ptr noundef nonnull align 8 dereferenceable(976) %this, ptr noundef %lhs, ptr noundef %rhs) #4 comdat align 2 {
entry:
  %this.addr = alloca ptr, align 8
  %lhs.addr = alloca ptr, align 8
  %rhs.addr = alloca ptr, align 8
  store ptr %this, ptr %this.addr, align 8
  store ptr %lhs, ptr %lhs.addr, align 8
  store ptr %rhs, ptr %rhs.addr, align 8
  %this1 = load ptr, ptr %this.addr, align 8
  %0 = load ptr, ptr %lhs.addr, align 8
  %call = call noundef i32 @_ZNK11ast_manager9get_eq_opEPK4expr(ptr noundef nonnull align 8 dereferenceable(976) %this1, ptr noundef %0)
  %1 = load ptr, ptr %lhs.addr, align 8
  %2 = load ptr, ptr %rhs.addr, align 8
  %call2 = call noundef ptr @_ZN11ast_manager6mk_appEiiP4exprS1_(ptr noundef nonnull align 8 dereferenceable(976) %this1, i32 noundef 0, i32 noundef %call, ptr noundef %1, ptr noundef %2)
  ret ptr %call2
}

declare noundef ptr @_ZN11ast_manager6mk_varEjP4sort(ptr noundef nonnull align 8 dereferenceable(976), i32 noundef, ptr noundef) #1

declare noundef ptr @_ZNK4expr8get_sortEv(ptr noundef nonnull align 4 dereferenceable(16)) #1

; Function Attrs: mustprogress uwtable
define linkonce_odr hidden noundef nonnull align 8 dereferenceable(16) ptr @_ZN7obj_refI3app11ast_managerEaSEPS0_(ptr noundef nonnull align 8 dereferenceable(16) %this, ptr noundef %n) #4 comdat align 2 {
entry:
  %this.addr = alloca ptr, align 8
  %n.addr = alloca ptr, align 8
  store ptr %this, ptr %this.addr, align 8
  store ptr %n, ptr %n.addr, align 8
  %this1 = load ptr, ptr %this.addr, align 8
  %0 = load ptr, ptr %n.addr, align 8
  %tobool = icmp ne ptr %0, null
  br i1 %tobool, label %if.then, label %if.end

if.then:                                          ; preds = %entry
  %m_manager = getelementptr inbounds %class.obj_ref, ptr %this1, i32 0, i32 1
  %1 = load ptr, ptr %m_manager, align 8
  %2 = load ptr, ptr %n.addr, align 8
  call void @_ZN11ast_manager7inc_refEP3ast(ptr noundef nonnull align 8 dereferenceable(976) %1, ptr noundef %2)
  br label %if.end

if.end:                                           ; preds = %if.then, %entry
  call void @_ZN7obj_refI3app11ast_managerE7dec_refEv(ptr noundef nonnull align 8 dereferenceable(16) %this1)
  %3 = load ptr, ptr %n.addr, align 8
  %m_obj = getelementptr inbounds %class.obj_ref, ptr %this1, i32 0, i32 0
  store ptr %3, ptr %m_obj, align 8
  ret ptr %this1
}

; Function Attrs: mustprogress uwtable
define hidden void @_ZN7datalog17interval_relation18filter_interpretedEP3app(ptr noundef nonnull align 8 dereferenceable(224) %this, ptr noundef %cond) #4 align 2 personality ptr @__gxx_personality_v0 {
entry:
  %this.addr = alloca ptr, align 8
  %cond.addr = alloca ptr, align 8
  %p = alloca ptr, align 8
  %k = alloca %class.rational, align 8
  %x = alloca i32, align 4
  %y = alloca i32, align 4
  %exn.slot = alloca ptr, align 8
  %ehselector.slot = alloca i32, align 4
  %ref.tmp = alloca %class.old_interval, align 8
  %cleanup.dest.slot = alloca i32, align 4
  %ref.tmp11 = alloca %class.old_interval, align 8
  %ref.tmp14 = alloca %class.rational, align 8
  %x_hi = alloca %class.ext_numeral, align 8
  %y_lo = alloca %class.ext_numeral, align 8
  %ref.tmp36 = alloca %class.old_interval, align 8
  %ref.tmp39 = alloca %class.rational, align 8
  %ref.tmp53 = alloca %class.old_interval, align 8
  %ref.tmp56 = alloca %class.rational, align 8
  %is_int = alloca i8, align 1
  %ref.tmp75 = alloca %class.old_interval, align 8
  %ref.tmp85 = alloca %class.old_interval, align 8
  %ref.tmp88 = alloca %class.rational, align 8
  %x_hi97 = alloca %class.ext_numeral, align 8
  %y_lo103 = alloca %class.ext_numeral, align 8
  %ref.tmp114 = alloca %class.old_interval, align 8
  %ref.tmp117 = alloca %class.rational, align 8
  %ref.tmp131 = alloca %class.old_interval, align 8
  %ref.tmp134 = alloca %class.rational, align 8
  %ref.tmp153 = alloca %class.old_interval, align 8
  %ref.tmp163 = alloca %class.old_interval, align 8
  %ref.tmp166 = alloca %class.rational, align 8
  %x_i = alloca %class.old_interval, align 8
  %y_i = alloca %class.old_interval, align 8
  %ref.tmp182 = alloca %class.old_interval, align 8
  %ref.tmp191 = alloca %class.old_interval, align 8
  store ptr %this, ptr %this.addr, align 8
  store ptr %cond, ptr %cond.addr, align 8
  %this1 = load ptr, ptr %this.addr, align 8
  %call = call noundef nonnull align 8 dereferenceable(240) ptr @_ZNK7datalog17interval_relation10get_pluginEv(ptr noundef nonnull align 8 dereferenceable(224) %this1)
  store ptr %call, ptr %p, align 8
  call void @_ZN8rationalC2Ev(ptr noundef nonnull align 8 dereferenceable(32) %k)
  %0 = load ptr, ptr %p, align 8
  %1 = load ptr, ptr %cond.addr, align 8
  %call2 = invoke noundef zeroext i1 @_ZNK7datalog24interval_relation_plugin5is_ltEP3appRjR8rationalS3_(ptr noundef nonnull align 8 dereferenceable(240) %0, ptr noundef %1, ptr noundef nonnull align 4 dereferenceable(4) %x, ptr noundef nonnull align 8 dereferenceable(32) %k, ptr noundef nonnull align 4 dereferenceable(4) %y)
          to label %invoke.cont unwind label %lpad

invoke.cont:                                      ; preds = %entry
  br i1 %call2, label %if.then, label %if.end69

if.then:                                          ; preds = %invoke.cont
  %2 = load i32, ptr %x, align 4
  %cmp = icmp eq i32 %2, -1
  br i1 %cmp, label %if.then3, label %if.end

if.then3:                                         ; preds = %if.then
  %3 = load i32, ptr %y, align 4
  %4 = load ptr, ptr %p, align 8
  %call5 = invoke noundef nonnull align 8 dereferenceable(72) ptr @_ZNK7datalog24interval_relation_plugin3depEv(ptr noundef nonnull align 8 dereferenceable(240) %4)
          to label %invoke.cont4 unwind label %lpad

invoke.cont4:                                     ; preds = %if.then3
  invoke void @_ZN12old_intervalC1ER25scoped_dependency_managerIPvERK8rationalbbPN18dependency_managerINS2_6configEE10dependencyE(ptr noundef nonnull align 8 dereferenceable(112) %ref.tmp, ptr noundef nonnull align 8 dereferenceable(72) %call5, ptr noundef nonnull align 8 dereferenceable(32) %k, i1 noundef zeroext true, i1 noundef zeroext false, ptr noundef null)
          to label %invoke.cont6 unwind label %lpad

invoke.cont6:                                     ; preds = %invoke.cont4
  invoke void @_ZN7datalog17interval_relation12mk_intersectEjRK12old_interval(ptr noundef nonnull align 8 dereferenceable(224) %this1, i32 noundef %3, ptr noundef nonnull align 8 dereferenceable(112) %ref.tmp)
          to label %invoke.cont8 unwind label %lpad7

invoke.cont8:                                     ; preds = %invoke.cont6
  call void @_ZN12old_intervalD2Ev(ptr noundef nonnull align 8 dereferenceable(112) %ref.tmp) #3
  store i32 1, ptr %cleanup.dest.slot, align 4
  br label %cleanup

lpad:                                             ; preds = %if.then210, %invoke.cont206, %invoke.cont204, %if.end203, %invoke.cont175, %if.end174, %invoke.cont164, %if.then162, %invoke.cont154, %if.then152, %if.end147, %invoke.cont100, %invoke.cont98, %if.end96, %invoke.cont86, %if.then84, %invoke.cont76, %if.then74, %if.end69, %invoke.cont23, %invoke.cont21, %if.end20, %invoke.cont12, %if.then10, %invoke.cont4, %if.then3, %entry
  %5 = landingpad { ptr, i32 }
          cleanup
  %6 = extractvalue { ptr, i32 } %5, 0
  store ptr %6, ptr %exn.slot, align 8
  %7 = extractvalue { ptr, i32 } %5, 1
  store i32 %7, ptr %ehselector.slot, align 4
  br label %ehcleanup213

lpad7:                                            ; preds = %invoke.cont6
  %8 = landingpad { ptr, i32 }
          cleanup
  %9 = extractvalue { ptr, i32 } %8, 0
  store ptr %9, ptr %exn.slot, align 8
  %10 = extractvalue { ptr, i32 } %8, 1
  store i32 %10, ptr %ehselector.slot, align 4
  call void @_ZN12old_intervalD2Ev(ptr noundef nonnull align 8 dereferenceable(112) %ref.tmp) #3
  br label %ehcleanup213

if.end:                                           ; preds = %if.then
  %11 = load i32, ptr %y, align 4
  %cmp9 = icmp eq i32 %11, -1
  br i1 %cmp9, label %if.then10, label %if.end20

if.then10:                                        ; preds = %if.end
  %12 = load i32, ptr %x, align 4
  %13 = load ptr, ptr %p, align 8
  %call13 = invoke noundef nonnull align 8 dereferenceable(72) ptr @_ZNK7datalog24interval_relation_plugin3depEv(ptr noundef nonnull align 8 dereferenceable(240) %13)
          to label %invoke.cont12 unwind label %lpad

invoke.cont12:                                    ; preds = %if.then10
  invoke void @_ZngRK8rational(ptr sret(%class.rational) align 8 %ref.tmp14, ptr noundef nonnull align 8 dereferenceable(32) %k)
          to label %invoke.cont15 unwind label %lpad

invoke.cont15:                                    ; preds = %invoke.cont12
  invoke void @_ZN12old_intervalC1ER25scoped_dependency_managerIPvERK8rationalbbPN18dependency_managerINS2_6configEE10dependencyE(ptr noundef nonnull align 8 dereferenceable(112) %ref.tmp11, ptr noundef nonnull align 8 dereferenceable(72) %call13, ptr noundef nonnull align 8 dereferenceable(32) %ref.tmp14, i1 noundef zeroext true, i1 noundef zeroext true, ptr noundef null)
          to label %invoke.cont17 unwind label %lpad16

invoke.cont17:                                    ; preds = %invoke.cont15
  invoke void @_ZN7datalog17interval_relation12mk_intersectEjRK12old_interval(ptr noundef nonnull align 8 dereferenceable(224) %this1, i32 noundef %12, ptr noundef nonnull align 8 dereferenceable(112) %ref.tmp11)
          to label %invoke.cont19 unwind label %lpad18

invoke.cont19:                                    ; preds = %invoke.cont17
  call void @_ZN12old_intervalD2Ev(ptr noundef nonnull align 8 dereferenceable(112) %ref.tmp11) #3
  call void @_ZN8rationalD2Ev(ptr noundef nonnull align 8 dereferenceable(32) %ref.tmp14) #3
  store i32 1, ptr %cleanup.dest.slot, align 4
  br label %cleanup

lpad16:                                           ; preds = %invoke.cont15
  %14 = landingpad { ptr, i32 }
          cleanup
  %15 = extractvalue { ptr, i32 } %14, 0
  store ptr %15, ptr %exn.slot, align 8
  %16 = extractvalue { ptr, i32 } %14, 1
  store i32 %16, ptr %ehselector.slot, align 4
  br label %ehcleanup

lpad18:                                           ; preds = %invoke.cont17
  %17 = landingpad { ptr, i32 }
          cleanup
  %18 = extractvalue { ptr, i32 } %17, 0
  store ptr %18, ptr %exn.slot, align 8
  %19 = extractvalue { ptr, i32 } %17, 1
  store i32 %19, ptr %ehselector.slot, align 4
  call void @_ZN12old_intervalD2Ev(ptr noundef nonnull align 8 dereferenceable(112) %ref.tmp11) #3
  br label %ehcleanup

ehcleanup:                                        ; preds = %lpad18, %lpad16
  call void @_ZN8rationalD2Ev(ptr noundef nonnull align 8 dereferenceable(32) %ref.tmp14) #3
  br label %ehcleanup213

if.end20:                                         ; preds = %if.end
  %20 = load i32, ptr %x, align 4
  %call22 = invoke noundef nonnull align 8 dereferenceable(112) ptr @_ZN7datalog15vector_relationI12old_intervalNS_22vector_relation_helperIS1_EEEixEj(ptr noundef nonnull align 8 dereferenceable(224) %this1, i32 noundef %20)
          to label %invoke.cont21 unwind label %lpad

invoke.cont21:                                    ; preds = %if.end20
  %call24 = invoke noundef nonnull align 8 dereferenceable(40) ptr @_ZNK12old_interval3supEv(ptr noundef nonnull align 8 dereferenceable(112) %call22)
          to label %invoke.cont23 unwind label %lpad

invoke.cont23:                                    ; preds = %invoke.cont21
  invoke void @_ZN11ext_numeralC2ERKS_(ptr noundef nonnull align 8 dereferenceable(40) %x_hi, ptr noundef nonnull align 8 dereferenceable(40) %call24)
          to label %invoke.cont25 unwind label %lpad

invoke.cont25:                                    ; preds = %invoke.cont23
  %21 = load i32, ptr %y, align 4
  %call28 = invoke noundef nonnull align 8 dereferenceable(112) ptr @_ZN7datalog15vector_relationI12old_intervalNS_22vector_relation_helperIS1_EEEixEj(ptr noundef nonnull align 8 dereferenceable(224) %this1, i32 noundef %21)
          to label %invoke.cont27 unwind label %lpad26

invoke.cont27:                                    ; preds = %invoke.cont25
  %call30 = invoke noundef nonnull align 8 dereferenceable(40) ptr @_ZNK12old_interval3infEv(ptr noundef nonnull align 8 dereferenceable(112) %call28)
          to label %invoke.cont29 unwind label %lpad26

invoke.cont29:                                    ; preds = %invoke.cont27
  invoke void @_ZN11ext_numeralC2ERKS_(ptr noundef nonnull align 8 dereferenceable(40) %y_lo, ptr noundef nonnull align 8 dereferenceable(40) %call30)
          to label %invoke.cont31 unwind label %lpad26

invoke.cont31:                                    ; preds = %invoke.cont29
  %call34 = invoke noundef zeroext i1 @_ZNK11ext_numeral11is_infiniteEv(ptr noundef nonnull align 8 dereferenceable(40) %x_hi)
          to label %invoke.cont33 unwind label %lpad32

invoke.cont33:                                    ; preds = %invoke.cont31
  br i1 %call34, label %if.end49, label %if.then35

if.then35:                                        ; preds = %invoke.cont33
  %22 = load i32, ptr %y, align 4
  %23 = load ptr, ptr %p, align 8
  %call38 = invoke noundef nonnull align 8 dereferenceable(72) ptr @_ZNK7datalog24interval_relation_plugin3depEv(ptr noundef nonnull align 8 dereferenceable(240) %23)
          to label %invoke.cont37 unwind label %lpad32

invoke.cont37:                                    ; preds = %if.then35
  %call41 = invoke noundef nonnull align 8 dereferenceable(32) ptr @_ZNK11ext_numeral11to_rationalEv(ptr noundef nonnull align 8 dereferenceable(40) %x_hi)
          to label %invoke.cont40 unwind label %lpad32

invoke.cont40:                                    ; preds = %invoke.cont37
  invoke void @_ZplRK8rationalS1_(ptr sret(%class.rational) align 8 %ref.tmp39, ptr noundef nonnull align 8 dereferenceable(32) %k, ptr noundef nonnull align 8 dereferenceable(32) %call41)
          to label %invoke.cont42 unwind label %lpad32

invoke.cont42:                                    ; preds = %invoke.cont40
  invoke void @_ZN12old_intervalC1ER25scoped_dependency_managerIPvERK8rationalbbPN18dependency_managerINS2_6configEE10dependencyE(ptr noundef nonnull align 8 dereferenceable(112) %ref.tmp36, ptr noundef nonnull align 8 dereferenceable(72) %call38, ptr noundef nonnull align 8 dereferenceable(32) %ref.tmp39, i1 noundef zeroext true, i1 noundef zeroext false, ptr noundef null)
          to label %invoke.cont44 unwind label %lpad43

invoke.cont44:                                    ; preds = %invoke.cont42
  invoke void @_ZN7datalog17interval_relation12mk_intersectEjRK12old_interval(ptr noundef nonnull align 8 dereferenceable(224) %this1, i32 noundef %22, ptr noundef nonnull align 8 dereferenceable(112) %ref.tmp36)
          to label %invoke.cont46 unwind label %lpad45

invoke.cont46:                                    ; preds = %invoke.cont44
  call void @_ZN12old_intervalD2Ev(ptr noundef nonnull align 8 dereferenceable(112) %ref.tmp36) #3
  call void @_ZN8rationalD2Ev(ptr noundef nonnull align 8 dereferenceable(32) %ref.tmp39) #3
  br label %if.end49

lpad26:                                           ; preds = %invoke.cont29, %invoke.cont27, %invoke.cont25
  %24 = landingpad { ptr, i32 }
          cleanup
  %25 = extractvalue { ptr, i32 } %24, 0
  store ptr %25, ptr %exn.slot, align 8
  %26 = extractvalue { ptr, i32 } %24, 1
  store i32 %26, ptr %ehselector.slot, align 4
  br label %ehcleanup68

lpad32:                                           ; preds = %invoke.cont57, %invoke.cont54, %if.then52, %if.end49, %invoke.cont40, %invoke.cont37, %if.then35, %invoke.cont31
  %27 = landingpad { ptr, i32 }
          cleanup
  %28 = extractvalue { ptr, i32 } %27, 0
  store ptr %28, ptr %exn.slot, align 8
  %29 = extractvalue { ptr, i32 } %27, 1
  store i32 %29, ptr %ehselector.slot, align 4
  br label %ehcleanup67

lpad43:                                           ; preds = %invoke.cont42
  %30 = landingpad { ptr, i32 }
          cleanup
  %31 = extractvalue { ptr, i32 } %30, 0
  store ptr %31, ptr %exn.slot, align 8
  %32 = extractvalue { ptr, i32 } %30, 1
  store i32 %32, ptr %ehselector.slot, align 4
  br label %ehcleanup48

lpad45:                                           ; preds = %invoke.cont44
  %33 = landingpad { ptr, i32 }
          cleanup
  %34 = extractvalue { ptr, i32 } %33, 0
  store ptr %34, ptr %exn.slot, align 8
  %35 = extractvalue { ptr, i32 } %33, 1
  store i32 %35, ptr %ehselector.slot, align 4
  call void @_ZN12old_intervalD2Ev(ptr noundef nonnull align 8 dereferenceable(112) %ref.tmp36) #3
  br label %ehcleanup48

ehcleanup48:                                      ; preds = %lpad45, %lpad43
  call void @_ZN8rationalD2Ev(ptr noundef nonnull align 8 dereferenceable(32) %ref.tmp39) #3
  br label %ehcleanup67

if.end49:                                         ; preds = %invoke.cont46, %invoke.cont33
  %call51 = invoke noundef zeroext i1 @_ZNK11ext_numeral11is_infiniteEv(ptr noundef nonnull align 8 dereferenceable(40) %y_lo)
          to label %invoke.cont50 unwind label %lpad32

invoke.cont50:                                    ; preds = %if.end49
  br i1 %call51, label %if.end66, label %if.then52

if.then52:                                        ; preds = %invoke.cont50
  %36 = load i32, ptr %x, align 4
  %37 = load ptr, ptr %p, align 8
  %call55 = invoke noundef nonnull align 8 dereferenceable(72) ptr @_ZNK7datalog24interval_relation_plugin3depEv(ptr noundef nonnull align 8 dereferenceable(240) %37)
          to label %invoke.cont54 unwind label %lpad32

invoke.cont54:                                    ; preds = %if.then52
  %call58 = invoke noundef nonnull align 8 dereferenceable(32) ptr @_ZNK11ext_numeral11to_rationalEv(ptr noundef nonnull align 8 dereferenceable(40) %y_lo)
          to label %invoke.cont57 unwind label %lpad32

invoke.cont57:                                    ; preds = %invoke.cont54
  invoke void @_ZmiRK8rationalS1_(ptr sret(%class.rational) align 8 %ref.tmp56, ptr noundef nonnull align 8 dereferenceable(32) %call58, ptr noundef nonnull align 8 dereferenceable(32) %k)
          to label %invoke.cont59 unwind label %lpad32

invoke.cont59:                                    ; preds = %invoke.cont57
  invoke void @_ZN12old_intervalC1ER25scoped_dependency_managerIPvERK8rationalbbPN18dependency_managerINS2_6configEE10dependencyE(ptr noundef nonnull align 8 dereferenceable(112) %ref.tmp53, ptr noundef nonnull align 8 dereferenceable(72) %call55, ptr noundef nonnull align 8 dereferenceable(32) %ref.tmp56, i1 noundef zeroext true, i1 noundef zeroext true, ptr noundef null)
          to label %invoke.cont61 unwind label %lpad60

invoke.cont61:                                    ; preds = %invoke.cont59
  invoke void @_ZN7datalog17interval_relation12mk_intersectEjRK12old_interval(ptr noundef nonnull align 8 dereferenceable(224) %this1, i32 noundef %36, ptr noundef nonnull align 8 dereferenceable(112) %ref.tmp53)
          to label %invoke.cont63 unwind label %lpad62

invoke.cont63:                                    ; preds = %invoke.cont61
  call void @_ZN12old_intervalD2Ev(ptr noundef nonnull align 8 dereferenceable(112) %ref.tmp53) #3
  call void @_ZN8rationalD2Ev(ptr noundef nonnull align 8 dereferenceable(32) %ref.tmp56) #3
  br label %if.end66

lpad60:                                           ; preds = %invoke.cont59
  %38 = landingpad { ptr, i32 }
          cleanup
  %39 = extractvalue { ptr, i32 } %38, 0
  store ptr %39, ptr %exn.slot, align 8
  %40 = extractvalue { ptr, i32 } %38, 1
  store i32 %40, ptr %ehselector.slot, align 4
  br label %ehcleanup65

lpad62:                                           ; preds = %invoke.cont61
  %41 = landingpad { ptr, i32 }
          cleanup
  %42 = extractvalue { ptr, i32 } %41, 0
  store ptr %42, ptr %exn.slot, align 8
  %43 = extractvalue { ptr, i32 } %41, 1
  store i32 %43, ptr %ehselector.slot, align 4
  call void @_ZN12old_intervalD2Ev(ptr noundef nonnull align 8 dereferenceable(112) %ref.tmp53) #3
  br label %ehcleanup65

ehcleanup65:                                      ; preds = %lpad62, %lpad60
  call void @_ZN8rationalD2Ev(ptr noundef nonnull align 8 dereferenceable(32) %ref.tmp56) #3
  br label %ehcleanup67

if.end66:                                         ; preds = %invoke.cont63, %invoke.cont50
  store i32 1, ptr %cleanup.dest.slot, align 4
  call void @_ZN11ext_numeralD2Ev(ptr noundef nonnull align 8 dereferenceable(40) %y_lo) #3
  call void @_ZN11ext_numeralD2Ev(ptr noundef nonnull align 8 dereferenceable(40) %x_hi) #3
  br label %cleanup

ehcleanup67:                                      ; preds = %ehcleanup65, %ehcleanup48, %lpad32
  call void @_ZN11ext_numeralD2Ev(ptr noundef nonnull align 8 dereferenceable(40) %y_lo) #3
  br label %ehcleanup68

ehcleanup68:                                      ; preds = %ehcleanup67, %lpad26
  call void @_ZN11ext_numeralD2Ev(ptr noundef nonnull align 8 dereferenceable(40) %x_hi) #3
  br label %ehcleanup213

if.end69:                                         ; preds = %invoke.cont
  store i8 0, ptr %is_int, align 1
  %44 = load ptr, ptr %p, align 8
  %45 = load ptr, ptr %cond.addr, align 8
  %call71 = invoke noundef zeroext i1 @_ZNK7datalog24interval_relation_plugin5is_leEP3appRjR8rationalS3_Rb(ptr noundef nonnull align 8 dereferenceable(240) %44, ptr noundef %45, ptr noundef nonnull align 4 dereferenceable(4) %x, ptr noundef nonnull align 8 dereferenceable(32) %k, ptr noundef nonnull align 4 dereferenceable(4) %y, ptr noundef nonnull align 1 dereferenceable(1) %is_int)
          to label %invoke.cont70 unwind label %lpad

invoke.cont70:                                    ; preds = %if.end69
  br i1 %call71, label %if.then72, label %if.end147

if.then72:                                        ; preds = %invoke.cont70
  %46 = load i32, ptr %x, align 4
  %cmp73 = icmp eq i32 %46, -1
  br i1 %cmp73, label %if.then74, label %if.end82

if.then74:                                        ; preds = %if.then72
  %47 = load i32, ptr %y, align 4
  %48 = load ptr, ptr %p, align 8
  %call77 = invoke noundef nonnull align 8 dereferenceable(72) ptr @_ZNK7datalog24interval_relation_plugin3depEv(ptr noundef nonnull align 8 dereferenceable(240) %48)
          to label %invoke.cont76 unwind label %lpad

invoke.cont76:                                    ; preds = %if.then74
  invoke void @_ZN12old_intervalC1ER25scoped_dependency_managerIPvERK8rationalbbPN18dependency_managerINS2_6configEE10dependencyE(ptr noundef nonnull align 8 dereferenceable(112) %ref.tmp75, ptr noundef nonnull align 8 dereferenceable(72) %call77, ptr noundef nonnull align 8 dereferenceable(32) %k, i1 noundef zeroext false, i1 noundef zeroext false, ptr noundef null)
          to label %invoke.cont78 unwind label %lpad

invoke.cont78:                                    ; preds = %invoke.cont76
  invoke void @_ZN7datalog17interval_relation12mk_intersectEjRK12old_interval(ptr noundef nonnull align 8 dereferenceable(224) %this1, i32 noundef %47, ptr noundef nonnull align 8 dereferenceable(112) %ref.tmp75)
          to label %invoke.cont80 unwind label %lpad79

invoke.cont80:                                    ; preds = %invoke.cont78
  call void @_ZN12old_intervalD2Ev(ptr noundef nonnull align 8 dereferenceable(112) %ref.tmp75) #3
  store i32 1, ptr %cleanup.dest.slot, align 4
  br label %cleanup

lpad79:                                           ; preds = %invoke.cont78
  %49 = landingpad { ptr, i32 }
          cleanup
  %50 = extractvalue { ptr, i32 } %49, 0
  store ptr %50, ptr %exn.slot, align 8
  %51 = extractvalue { ptr, i32 } %49, 1
  store i32 %51, ptr %ehselector.slot, align 4
  call void @_ZN12old_intervalD2Ev(ptr noundef nonnull align 8 dereferenceable(112) %ref.tmp75) #3
  br label %ehcleanup213

if.end82:                                         ; preds = %if.then72
  %52 = load i32, ptr %y, align 4
  %cmp83 = icmp eq i32 %52, -1
  br i1 %cmp83, label %if.then84, label %if.end96

if.then84:                                        ; preds = %if.end82
  %53 = load i32, ptr %x, align 4
  %54 = load ptr, ptr %p, align 8
  %call87 = invoke noundef nonnull align 8 dereferenceable(72) ptr @_ZNK7datalog24interval_relation_plugin3depEv(ptr noundef nonnull align 8 dereferenceable(240) %54)
          to label %invoke.cont86 unwind label %lpad

invoke.cont86:                                    ; preds = %if.then84
  invoke void @_ZngRK8rational(ptr sret(%class.rational) align 8 %ref.tmp88, ptr noundef nonnull align 8 dereferenceable(32) %k)
          to label %invoke.cont89 unwind label %lpad

invoke.cont89:                                    ; preds = %invoke.cont86
  invoke void @_ZN12old_intervalC1ER25scoped_dependency_managerIPvERK8rationalbbPN18dependency_managerINS2_6configEE10dependencyE(ptr noundef nonnull align 8 dereferenceable(112) %ref.tmp85, ptr noundef nonnull align 8 dereferenceable(72) %call87, ptr noundef nonnull align 8 dereferenceable(32) %ref.tmp88, i1 noundef zeroext false, i1 noundef zeroext true, ptr noundef null)
          to label %invoke.cont91 unwind label %lpad90

invoke.cont91:                                    ; preds = %invoke.cont89
  invoke void @_ZN7datalog17interval_relation12mk_intersectEjRK12old_interval(ptr noundef nonnull align 8 dereferenceable(224) %this1, i32 noundef %53, ptr noundef nonnull align 8 dereferenceable(112) %ref.tmp85)
          to label %invoke.cont93 unwind label %lpad92

invoke.cont93:                                    ; preds = %invoke.cont91
  call void @_ZN12old_intervalD2Ev(ptr noundef nonnull align 8 dereferenceable(112) %ref.tmp85) #3
  call void @_ZN8rationalD2Ev(ptr noundef nonnull align 8 dereferenceable(32) %ref.tmp88) #3
  store i32 1, ptr %cleanup.dest.slot, align 4
  br label %cleanup

lpad90:                                           ; preds = %invoke.cont89
  %55 = landingpad { ptr, i32 }
          cleanup
  %56 = extractvalue { ptr, i32 } %55, 0
  store ptr %56, ptr %exn.slot, align 8
  %57 = extractvalue { ptr, i32 } %55, 1
  store i32 %57, ptr %ehselector.slot, align 4
  br label %ehcleanup95

lpad92:                                           ; preds = %invoke.cont91
  %58 = landingpad { ptr, i32 }
          cleanup
  %59 = extractvalue { ptr, i32 } %58, 0
  store ptr %59, ptr %exn.slot, align 8
  %60 = extractvalue { ptr, i32 } %58, 1
  store i32 %60, ptr %ehselector.slot, align 4
  call void @_ZN12old_intervalD2Ev(ptr noundef nonnull align 8 dereferenceable(112) %ref.tmp85) #3
  br label %ehcleanup95

ehcleanup95:                                      ; preds = %lpad92, %lpad90
  call void @_ZN8rationalD2Ev(ptr noundef nonnull align 8 dereferenceable(32) %ref.tmp88) #3
  br label %ehcleanup213

if.end96:                                         ; preds = %if.end82
  %61 = load i32, ptr %x, align 4
  %call99 = invoke noundef nonnull align 8 dereferenceable(112) ptr @_ZN7datalog15vector_relationI12old_intervalNS_22vector_relation_helperIS1_EEEixEj(ptr noundef nonnull align 8 dereferenceable(224) %this1, i32 noundef %61)
          to label %invoke.cont98 unwind label %lpad

invoke.cont98:                                    ; preds = %if.end96
  %call101 = invoke noundef nonnull align 8 dereferenceable(40) ptr @_ZNK12old_interval3supEv(ptr noundef nonnull align 8 dereferenceable(112) %call99)
          to label %invoke.cont100 unwind label %lpad

invoke.cont100:                                   ; preds = %invoke.cont98
  invoke void @_ZN11ext_numeralC2ERKS_(ptr noundef nonnull align 8 dereferenceable(40) %x_hi97, ptr noundef nonnull align 8 dereferenceable(40) %call101)
          to label %invoke.cont102 unwind label %lpad

invoke.cont102:                                   ; preds = %invoke.cont100
  %62 = load i32, ptr %y, align 4
  %call106 = invoke noundef nonnull align 8 dereferenceable(112) ptr @_ZN7datalog15vector_relationI12old_intervalNS_22vector_relation_helperIS1_EEEixEj(ptr noundef nonnull align 8 dereferenceable(224) %this1, i32 noundef %62)
          to label %invoke.cont105 unwind label %lpad104

invoke.cont105:                                   ; preds = %invoke.cont102
  %call108 = invoke noundef nonnull align 8 dereferenceable(40) ptr @_ZNK12old_interval3infEv(ptr noundef nonnull align 8 dereferenceable(112) %call106)
          to label %invoke.cont107 unwind label %lpad104

invoke.cont107:                                   ; preds = %invoke.cont105
  invoke void @_ZN11ext_numeralC2ERKS_(ptr noundef nonnull align 8 dereferenceable(40) %y_lo103, ptr noundef nonnull align 8 dereferenceable(40) %call108)
          to label %invoke.cont109 unwind label %lpad104

invoke.cont109:                                   ; preds = %invoke.cont107
  %call112 = invoke noundef zeroext i1 @_ZNK11ext_numeral11is_infiniteEv(ptr noundef nonnull align 8 dereferenceable(40) %x_hi97)
          to label %invoke.cont111 unwind label %lpad110

invoke.cont111:                                   ; preds = %invoke.cont109
  br i1 %call112, label %if.end127, label %if.then113

if.then113:                                       ; preds = %invoke.cont111
  %63 = load i32, ptr %y, align 4
  %64 = load ptr, ptr %p, align 8
  %call116 = invoke noundef nonnull align 8 dereferenceable(72) ptr @_ZNK7datalog24interval_relation_plugin3depEv(ptr noundef nonnull align 8 dereferenceable(240) %64)
          to label %invoke.cont115 unwind label %lpad110

invoke.cont115:                                   ; preds = %if.then113
  %call119 = invoke noundef nonnull align 8 dereferenceable(32) ptr @_ZNK11ext_numeral11to_rationalEv(ptr noundef nonnull align 8 dereferenceable(40) %x_hi97)
          to label %invoke.cont118 unwind label %lpad110

invoke.cont118:                                   ; preds = %invoke.cont115
  invoke void @_ZplRK8rationalS1_(ptr sret(%class.rational) align 8 %ref.tmp117, ptr noundef nonnull align 8 dereferenceable(32) %k, ptr noundef nonnull align 8 dereferenceable(32) %call119)
          to label %invoke.cont120 unwind label %lpad110

invoke.cont120:                                   ; preds = %invoke.cont118
  invoke void @_ZN12old_intervalC1ER25scoped_dependency_managerIPvERK8rationalbbPN18dependency_managerINS2_6configEE10dependencyE(ptr noundef nonnull align 8 dereferenceable(112) %ref.tmp114, ptr noundef nonnull align 8 dereferenceable(72) %call116, ptr noundef nonnull align 8 dereferenceable(32) %ref.tmp117, i1 noundef zeroext false, i1 noundef zeroext false, ptr noundef null)
          to label %invoke.cont122 unwind label %lpad121

invoke.cont122:                                   ; preds = %invoke.cont120
  invoke void @_ZN7datalog17interval_relation12mk_intersectEjRK12old_interval(ptr noundef nonnull align 8 dereferenceable(224) %this1, i32 noundef %63, ptr noundef nonnull align 8 dereferenceable(112) %ref.tmp114)
          to label %invoke.cont124 unwind label %lpad123

invoke.cont124:                                   ; preds = %invoke.cont122
  call void @_ZN12old_intervalD2Ev(ptr noundef nonnull align 8 dereferenceable(112) %ref.tmp114) #3
  call void @_ZN8rationalD2Ev(ptr noundef nonnull align 8 dereferenceable(32) %ref.tmp117) #3
  br label %if.end127

lpad104:                                          ; preds = %invoke.cont107, %invoke.cont105, %invoke.cont102
  %65 = landingpad { ptr, i32 }
          cleanup
  %66 = extractvalue { ptr, i32 } %65, 0
  store ptr %66, ptr %exn.slot, align 8
  %67 = extractvalue { ptr, i32 } %65, 1
  store i32 %67, ptr %ehselector.slot, align 4
  br label %ehcleanup146

lpad110:                                          ; preds = %invoke.cont135, %invoke.cont132, %if.then130, %if.end127, %invoke.cont118, %invoke.cont115, %if.then113, %invoke.cont109
  %68 = landingpad { ptr, i32 }
          cleanup
  %69 = extractvalue { ptr, i32 } %68, 0
  store ptr %69, ptr %exn.slot, align 8
  %70 = extractvalue { ptr, i32 } %68, 1
  store i32 %70, ptr %ehselector.slot, align 4
  br label %ehcleanup145

lpad121:                                          ; preds = %invoke.cont120
  %71 = landingpad { ptr, i32 }
          cleanup
  %72 = extractvalue { ptr, i32 } %71, 0
  store ptr %72, ptr %exn.slot, align 8
  %73 = extractvalue { ptr, i32 } %71, 1
  store i32 %73, ptr %ehselector.slot, align 4
  br label %ehcleanup126

lpad123:                                          ; preds = %invoke.cont122
  %74 = landingpad { ptr, i32 }
          cleanup
  %75 = extractvalue { ptr, i32 } %74, 0
  store ptr %75, ptr %exn.slot, align 8
  %76 = extractvalue { ptr, i32 } %74, 1
  store i32 %76, ptr %ehselector.slot, align 4
  call void @_ZN12old_intervalD2Ev(ptr noundef nonnull align 8 dereferenceable(112) %ref.tmp114) #3
  br label %ehcleanup126

ehcleanup126:                                     ; preds = %lpad123, %lpad121
  call void @_ZN8rationalD2Ev(ptr noundef nonnull align 8 dereferenceable(32) %ref.tmp117) #3
  br label %ehcleanup145

if.end127:                                        ; preds = %invoke.cont124, %invoke.cont111
  %call129 = invoke noundef zeroext i1 @_ZNK11ext_numeral11is_infiniteEv(ptr noundef nonnull align 8 dereferenceable(40) %y_lo103)
          to label %invoke.cont128 unwind label %lpad110

invoke.cont128:                                   ; preds = %if.end127
  br i1 %call129, label %if.end144, label %if.then130

if.then130:                                       ; preds = %invoke.cont128
  %77 = load i32, ptr %x, align 4
  %78 = load ptr, ptr %p, align 8
  %call133 = invoke noundef nonnull align 8 dereferenceable(72) ptr @_ZNK7datalog24interval_relation_plugin3depEv(ptr noundef nonnull align 8 dereferenceable(240) %78)
          to label %invoke.cont132 unwind label %lpad110

invoke.cont132:                                   ; preds = %if.then130
  %call136 = invoke noundef nonnull align 8 dereferenceable(32) ptr @_ZNK11ext_numeral11to_rationalEv(ptr noundef nonnull align 8 dereferenceable(40) %y_lo103)
          to label %invoke.cont135 unwind label %lpad110

invoke.cont135:                                   ; preds = %invoke.cont132
  invoke void @_ZmiRK8rationalS1_(ptr sret(%class.rational) align 8 %ref.tmp134, ptr noundef nonnull align 8 dereferenceable(32) %call136, ptr noundef nonnull align 8 dereferenceable(32) %k)
          to label %invoke.cont137 unwind label %lpad110

invoke.cont137:                                   ; preds = %invoke.cont135
  invoke void @_ZN12old_intervalC1ER25scoped_dependency_managerIPvERK8rationalbbPN18dependency_managerINS2_6configEE10dependencyE(ptr noundef nonnull align 8 dereferenceable(112) %ref.tmp131, ptr noundef nonnull align 8 dereferenceable(72) %call133, ptr noundef nonnull align 8 dereferenceable(32) %ref.tmp134, i1 noundef zeroext false, i1 noundef zeroext true, ptr noundef null)
          to label %invoke.cont139 unwind label %lpad138

invoke.cont139:                                   ; preds = %invoke.cont137
  invoke void @_ZN7datalog17interval_relation12mk_intersectEjRK12old_interval(ptr noundef nonnull align 8 dereferenceable(224) %this1, i32 noundef %77, ptr noundef nonnull align 8 dereferenceable(112) %ref.tmp131)
          to label %invoke.cont141 unwind label %lpad140

invoke.cont141:                                   ; preds = %invoke.cont139
  call void @_ZN12old_intervalD2Ev(ptr noundef nonnull align 8 dereferenceable(112) %ref.tmp131) #3
  call void @_ZN8rationalD2Ev(ptr noundef nonnull align 8 dereferenceable(32) %ref.tmp134) #3
  br label %if.end144

lpad138:                                          ; preds = %invoke.cont137
  %79 = landingpad { ptr, i32 }
          cleanup
  %80 = extractvalue { ptr, i32 } %79, 0
  store ptr %80, ptr %exn.slot, align 8
  %81 = extractvalue { ptr, i32 } %79, 1
  store i32 %81, ptr %ehselector.slot, align 4
  br label %ehcleanup143

lpad140:                                          ; preds = %invoke.cont139
  %82 = landingpad { ptr, i32 }
          cleanup
  %83 = extractvalue { ptr, i32 } %82, 0
  store ptr %83, ptr %exn.slot, align 8
  %84 = extractvalue { ptr, i32 } %82, 1
  store i32 %84, ptr %ehselector.slot, align 4
  call void @_ZN12old_intervalD2Ev(ptr noundef nonnull align 8 dereferenceable(112) %ref.tmp131) #3
  br label %ehcleanup143

ehcleanup143:                                     ; preds = %lpad140, %lpad138
  call void @_ZN8rationalD2Ev(ptr noundef nonnull align 8 dereferenceable(32) %ref.tmp134) #3
  br label %ehcleanup145

if.end144:                                        ; preds = %invoke.cont141, %invoke.cont128
  store i32 1, ptr %cleanup.dest.slot, align 4
  call void @_ZN11ext_numeralD2Ev(ptr noundef nonnull align 8 dereferenceable(40) %y_lo103) #3
  call void @_ZN11ext_numeralD2Ev(ptr noundef nonnull align 8 dereferenceable(40) %x_hi97) #3
  br label %cleanup

ehcleanup145:                                     ; preds = %ehcleanup143, %ehcleanup126, %lpad110
  call void @_ZN11ext_numeralD2Ev(ptr noundef nonnull align 8 dereferenceable(40) %y_lo103) #3
  br label %ehcleanup146

ehcleanup146:                                     ; preds = %ehcleanup145, %lpad104
  call void @_ZN11ext_numeralD2Ev(ptr noundef nonnull align 8 dereferenceable(40) %x_hi97) #3
  br label %ehcleanup213

if.end147:                                        ; preds = %invoke.cont70
  %85 = load ptr, ptr %p, align 8
  %86 = load ptr, ptr %cond.addr, align 8
  %call149 = invoke noundef zeroext i1 @_ZNK7datalog24interval_relation_plugin5is_eqEP3appRjR8rationalS3_(ptr noundef nonnull align 8 dereferenceable(240) %85, ptr noundef %86, ptr noundef nonnull align 4 dereferenceable(4) %x, ptr noundef nonnull align 8 dereferenceable(32) %k, ptr noundef nonnull align 4 dereferenceable(4) %y)
          to label %invoke.cont148 unwind label %lpad

invoke.cont148:                                   ; preds = %if.end147
  br i1 %call149, label %if.then150, label %if.end203

if.then150:                                       ; preds = %invoke.cont148
  %87 = load i32, ptr %x, align 4
  %cmp151 = icmp eq i32 %87, -1
  br i1 %cmp151, label %if.then152, label %if.end160

if.then152:                                       ; preds = %if.then150
  %88 = load i32, ptr %y, align 4
  %89 = load ptr, ptr %p, align 8
  %call155 = invoke noundef nonnull align 8 dereferenceable(72) ptr @_ZNK7datalog24interval_relation_plugin3depEv(ptr noundef nonnull align 8 dereferenceable(240) %89)
          to label %invoke.cont154 unwind label %lpad

invoke.cont154:                                   ; preds = %if.then152
  invoke void @_ZN12old_intervalC1ER25scoped_dependency_managerIPvERK8rationalPN18dependency_managerINS2_6configEE10dependencyESB_(ptr noundef nonnull align 8 dereferenceable(112) %ref.tmp153, ptr noundef nonnull align 8 dereferenceable(72) %call155, ptr noundef nonnull align 8 dereferenceable(32) %k, ptr noundef null, ptr noundef null)
          to label %invoke.cont156 unwind label %lpad

invoke.cont156:                                   ; preds = %invoke.cont154
  invoke void @_ZN7datalog17interval_relation12mk_intersectEjRK12old_interval(ptr noundef nonnull align 8 dereferenceable(224) %this1, i32 noundef %88, ptr noundef nonnull align 8 dereferenceable(112) %ref.tmp153)
          to label %invoke.cont158 unwind label %lpad157

invoke.cont158:                                   ; preds = %invoke.cont156
  call void @_ZN12old_intervalD2Ev(ptr noundef nonnull align 8 dereferenceable(112) %ref.tmp153) #3
  store i32 1, ptr %cleanup.dest.slot, align 4
  br label %cleanup

lpad157:                                          ; preds = %invoke.cont156
  %90 = landingpad { ptr, i32 }
          cleanup
  %91 = extractvalue { ptr, i32 } %90, 0
  store ptr %91, ptr %exn.slot, align 8
  %92 = extractvalue { ptr, i32 } %90, 1
  store i32 %92, ptr %ehselector.slot, align 4
  call void @_ZN12old_intervalD2Ev(ptr noundef nonnull align 8 dereferenceable(112) %ref.tmp153) #3
  br label %ehcleanup213

if.end160:                                        ; preds = %if.then150
  %93 = load i32, ptr %y, align 4
  %cmp161 = icmp eq i32 %93, -1
  br i1 %cmp161, label %if.then162, label %if.end174

if.then162:                                       ; preds = %if.end160
  %94 = load i32, ptr %x, align 4
  %95 = load ptr, ptr %p, align 8
  %call165 = invoke noundef nonnull align 8 dereferenceable(72) ptr @_ZNK7datalog24interval_relation_plugin3depEv(ptr noundef nonnull align 8 dereferenceable(240) %95)
          to label %invoke.cont164 unwind label %lpad

invoke.cont164:                                   ; preds = %if.then162
  invoke void @_ZngRK8rational(ptr sret(%class.rational) align 8 %ref.tmp166, ptr noundef nonnull align 8 dereferenceable(32) %k)
          to label %invoke.cont167 unwind label %lpad

invoke.cont167:                                   ; preds = %invoke.cont164
  invoke void @_ZN12old_intervalC1ER25scoped_dependency_managerIPvERK8rationalPN18dependency_managerINS2_6configEE10dependencyESB_(ptr noundef nonnull align 8 dereferenceable(112) %ref.tmp163, ptr noundef nonnull align 8 dereferenceable(72) %call165, ptr noundef nonnull align 8 dereferenceable(32) %ref.tmp166, ptr noundef null, ptr noundef null)
          to label %invoke.cont169 unwind label %lpad168

invoke.cont169:                                   ; preds = %invoke.cont167
  invoke void @_ZN7datalog17interval_relation12mk_intersectEjRK12old_interval(ptr noundef nonnull align 8 dereferenceable(224) %this1, i32 noundef %94, ptr noundef nonnull align 8 dereferenceable(112) %ref.tmp163)
          to label %invoke.cont171 unwind label %lpad170

invoke.cont171:                                   ; preds = %invoke.cont169
  call void @_ZN12old_intervalD2Ev(ptr noundef nonnull align 8 dereferenceable(112) %ref.tmp163) #3
  call void @_ZN8rationalD2Ev(ptr noundef nonnull align 8 dereferenceable(32) %ref.tmp166) #3
  store i32 1, ptr %cleanup.dest.slot, align 4
  br label %cleanup

lpad168:                                          ; preds = %invoke.cont167
  %96 = landingpad { ptr, i32 }
          cleanup
  %97 = extractvalue { ptr, i32 } %96, 0
  store ptr %97, ptr %exn.slot, align 8
  %98 = extractvalue { ptr, i32 } %96, 1
  store i32 %98, ptr %ehselector.slot, align 4
  br label %ehcleanup173

lpad170:                                          ; preds = %invoke.cont169
  %99 = landingpad { ptr, i32 }
          cleanup
  %100 = extractvalue { ptr, i32 } %99, 0
  store ptr %100, ptr %exn.slot, align 8
  %101 = extractvalue { ptr, i32 } %99, 1
  store i32 %101, ptr %ehselector.slot, align 4
  call void @_ZN12old_intervalD2Ev(ptr noundef nonnull align 8 dereferenceable(112) %ref.tmp163) #3
  br label %ehcleanup173

ehcleanup173:                                     ; preds = %lpad170, %lpad168
  call void @_ZN8rationalD2Ev(ptr noundef nonnull align 8 dereferenceable(32) %ref.tmp166) #3
  br label %ehcleanup213

if.end174:                                        ; preds = %if.end160
  %102 = load i32, ptr %x, align 4
  %call176 = invoke noundef nonnull align 8 dereferenceable(112) ptr @_ZN7datalog15vector_relationI12old_intervalNS_22vector_relation_helperIS1_EEEixEj(ptr noundef nonnull align 8 dereferenceable(224) %this1, i32 noundef %102)
          to label %invoke.cont175 unwind label %lpad

invoke.cont175:                                   ; preds = %if.end174
  invoke void @_ZN12old_intervalC2ERKS_(ptr noundef nonnull align 8 dereferenceable(112) %x_i, ptr noundef nonnull align 8 dereferenceable(112) %call176)
          to label %invoke.cont177 unwind label %lpad

invoke.cont177:                                   ; preds = %invoke.cont175
  %103 = load i32, ptr %y, align 4
  %call180 = invoke noundef nonnull align 8 dereferenceable(112) ptr @_ZN7datalog15vector_relationI12old_intervalNS_22vector_relation_helperIS1_EEEixEj(ptr noundef nonnull align 8 dereferenceable(224) %this1, i32 noundef %103)
          to label %invoke.cont179 unwind label %lpad178

invoke.cont179:                                   ; preds = %invoke.cont177
  invoke void @_ZN12old_intervalC2ERKS_(ptr noundef nonnull align 8 dereferenceable(112) %y_i, ptr noundef nonnull align 8 dereferenceable(112) %call180)
          to label %invoke.cont181 unwind label %lpad178

invoke.cont181:                                   ; preds = %invoke.cont179
  %104 = load ptr, ptr %p, align 8
  %call185 = invoke noundef nonnull align 8 dereferenceable(72) ptr @_ZNK7datalog24interval_relation_plugin3depEv(ptr noundef nonnull align 8 dereferenceable(240) %104)
          to label %invoke.cont184 unwind label %lpad183

invoke.cont184:                                   ; preds = %invoke.cont181
  invoke void @_ZN12old_intervalC1ER25scoped_dependency_managerIPvERK8rationalPN18dependency_managerINS2_6configEE10dependencyESB_(ptr noundef nonnull align 8 dereferenceable(112) %ref.tmp182, ptr noundef nonnull align 8 dereferenceable(72) %call185, ptr noundef nonnull align 8 dereferenceable(32) %k, ptr noundef null, ptr noundef null)
          to label %invoke.cont186 unwind label %lpad183

invoke.cont186:                                   ; preds = %invoke.cont184
  %call189 = invoke noundef nonnull align 8 dereferenceable(112) ptr @_ZN12old_intervalpLERKS_(ptr noundef nonnull align 8 dereferenceable(112) %x_i, ptr noundef nonnull align 8 dereferenceable(112) %ref.tmp182)
          to label %invoke.cont188 unwind label %lpad187

invoke.cont188:                                   ; preds = %invoke.cont186
  call void @_ZN12old_intervalD2Ev(ptr noundef nonnull align 8 dereferenceable(112) %ref.tmp182) #3
  %105 = load ptr, ptr %p, align 8
  %call193 = invoke noundef nonnull align 8 dereferenceable(72) ptr @_ZNK7datalog24interval_relation_plugin3depEv(ptr noundef nonnull align 8 dereferenceable(240) %105)
          to label %invoke.cont192 unwind label %lpad183

invoke.cont192:                                   ; preds = %invoke.cont188
  invoke void @_ZN12old_intervalC1ER25scoped_dependency_managerIPvERK8rationalPN18dependency_managerINS2_6configEE10dependencyESB_(ptr noundef nonnull align 8 dereferenceable(112) %ref.tmp191, ptr noundef nonnull align 8 dereferenceable(72) %call193, ptr noundef nonnull align 8 dereferenceable(32) %k, ptr noundef null, ptr noundef null)
          to label %invoke.cont194 unwind label %lpad183

invoke.cont194:                                   ; preds = %invoke.cont192
  %call197 = invoke noundef nonnull align 8 dereferenceable(112) ptr @_ZN12old_intervalmIERKS_(ptr noundef nonnull align 8 dereferenceable(112) %y_i, ptr noundef nonnull align 8 dereferenceable(112) %ref.tmp191)
          to label %invoke.cont196 unwind label %lpad195

invoke.cont196:                                   ; preds = %invoke.cont194
  call void @_ZN12old_intervalD2Ev(ptr noundef nonnull align 8 dereferenceable(112) %ref.tmp191) #3
  %106 = load i32, ptr %x, align 4
  invoke void @_ZN7datalog17interval_relation12mk_intersectEjRK12old_interval(ptr noundef nonnull align 8 dereferenceable(224) %this1, i32 noundef %106, ptr noundef nonnull align 8 dereferenceable(112) %y_i)
          to label %invoke.cont199 unwind label %lpad183

invoke.cont199:                                   ; preds = %invoke.cont196
  %107 = load i32, ptr %y, align 4
  invoke void @_ZN7datalog17interval_relation12mk_intersectEjRK12old_interval(ptr noundef nonnull align 8 dereferenceable(224) %this1, i32 noundef %107, ptr noundef nonnull align 8 dereferenceable(112) %x_i)
          to label %invoke.cont200 unwind label %lpad183

invoke.cont200:                                   ; preds = %invoke.cont199
  call void @_ZN12old_intervalD2Ev(ptr noundef nonnull align 8 dereferenceable(112) %y_i) #3
  call void @_ZN12old_intervalD2Ev(ptr noundef nonnull align 8 dereferenceable(112) %x_i) #3
  br label %if.end203

lpad178:                                          ; preds = %invoke.cont179, %invoke.cont177
  %108 = landingpad { ptr, i32 }
          cleanup
  %109 = extractvalue { ptr, i32 } %108, 0
  store ptr %109, ptr %exn.slot, align 8
  %110 = extractvalue { ptr, i32 } %108, 1
  store i32 %110, ptr %ehselector.slot, align 4
  br label %ehcleanup202

lpad183:                                          ; preds = %invoke.cont199, %invoke.cont196, %invoke.cont192, %invoke.cont188, %invoke.cont184, %invoke.cont181
  %111 = landingpad { ptr, i32 }
          cleanup
  %112 = extractvalue { ptr, i32 } %111, 0
  store ptr %112, ptr %exn.slot, align 8
  %113 = extractvalue { ptr, i32 } %111, 1
  store i32 %113, ptr %ehselector.slot, align 4
  br label %ehcleanup201

lpad187:                                          ; preds = %invoke.cont186
  %114 = landingpad { ptr, i32 }
          cleanup
  %115 = extractvalue { ptr, i32 } %114, 0
  store ptr %115, ptr %exn.slot, align 8
  %116 = extractvalue { ptr, i32 } %114, 1
  store i32 %116, ptr %ehselector.slot, align 4
  call void @_ZN12old_intervalD2Ev(ptr noundef nonnull align 8 dereferenceable(112) %ref.tmp182) #3
  br label %ehcleanup201

lpad195:                                          ; preds = %invoke.cont194
  %117 = landingpad { ptr, i32 }
          cleanup
  %118 = extractvalue { ptr, i32 } %117, 0
  store ptr %118, ptr %exn.slot, align 8
  %119 = extractvalue { ptr, i32 } %117, 1
  store i32 %119, ptr %ehselector.slot, align 4
  call void @_ZN12old_intervalD2Ev(ptr noundef nonnull align 8 dereferenceable(112) %ref.tmp191) #3
  br label %ehcleanup201

ehcleanup201:                                     ; preds = %lpad195, %lpad187, %lpad183
  call void @_ZN12old_intervalD2Ev(ptr noundef nonnull align 8 dereferenceable(112) %y_i) #3
  br label %ehcleanup202

ehcleanup202:                                     ; preds = %ehcleanup201, %lpad178
  call void @_ZN12old_intervalD2Ev(ptr noundef nonnull align 8 dereferenceable(112) %x_i) #3
  br label %ehcleanup213

if.end203:                                        ; preds = %invoke.cont200, %invoke.cont148
  %call205 = invoke noundef nonnull align 8 dereferenceable(240) ptr @_ZNK7datalog17interval_relation10get_pluginEv(ptr noundef nonnull align 8 dereferenceable(224) %this1)
          to label %invoke.cont204 unwind label %lpad

invoke.cont204:                                   ; preds = %if.end203
  %call207 = invoke noundef nonnull align 8 dereferenceable(976) ptr @_ZNK7datalog17tr_infrastructureINS_15relation_traitsEE13plugin_object15get_ast_managerEv(ptr noundef nonnull align 8 dereferenceable(32) %call205)
          to label %invoke.cont206 unwind label %lpad

invoke.cont206:                                   ; preds = %invoke.cont204
  %120 = load ptr, ptr %cond.addr, align 8
  %call209 = invoke noundef zeroext i1 @_ZNK11ast_manager8is_falseEPK4expr(ptr noundef nonnull align 8 dereferenceable(976) %call207, ptr noundef %120)
          to label %invoke.cont208 unwind label %lpad

invoke.cont208:                                   ; preds = %invoke.cont206
  br i1 %call209, label %if.then210, label %if.end212

if.then210:                                       ; preds = %invoke.cont208
  invoke void @_ZN7datalog15vector_relationI12old_intervalNS_22vector_relation_helperIS1_EEE9set_emptyEv(ptr noundef nonnull align 8 dereferenceable(224) %this1)
          to label %invoke.cont211 unwind label %lpad

invoke.cont211:                                   ; preds = %if.then210
  br label %if.end212

if.end212:                                        ; preds = %invoke.cont211, %invoke.cont208
  store i32 0, ptr %cleanup.dest.slot, align 4
  br label %cleanup

cleanup:                                          ; preds = %if.end212, %invoke.cont171, %invoke.cont158, %if.end144, %invoke.cont93, %invoke.cont80, %if.end66, %invoke.cont19, %invoke.cont8
  call void @_ZN8rationalD2Ev(ptr noundef nonnull align 8 dereferenceable(32) %k) #3
  %cleanup.dest = load i32, ptr %cleanup.dest.slot, align 4
  switch i32 %cleanup.dest, label %unreachable [
    i32 0, label %cleanup.cont
    i32 1, label %cleanup.cont
  ]

cleanup.cont:                                     ; preds = %cleanup, %cleanup
  ret void

ehcleanup213:                                     ; preds = %ehcleanup202, %ehcleanup173, %lpad157, %ehcleanup146, %ehcleanup95, %lpad79, %ehcleanup68, %ehcleanup, %lpad7, %lpad
  call void @_ZN8rationalD2Ev(ptr noundef nonnull align 8 dereferenceable(32) %k) #3
  br label %eh.resume

eh.resume:                                        ; preds = %ehcleanup213
  %exn = load ptr, ptr %exn.slot, align 8
  %sel = load i32, ptr %ehselector.slot, align 4
  %lpad.val = insertvalue { ptr, i32 } poison, ptr %exn, 0
  %lpad.val214 = insertvalue { ptr, i32 } %lpad.val, i32 %sel, 1
  resume { ptr, i32 } %lpad.val214

unreachable:                                      ; preds = %cleanup
  unreachable
}

; Function Attrs: mustprogress nounwind uwtable
define linkonce_odr hidden noundef ptr @_ZNK7obj_refI3app11ast_managerE3getEv(ptr noundef nonnull align 8 dereferenceable(16) %this) #5 comdat align 2 {
entry:
  %this.addr = alloca ptr, align 8
  store ptr %this, ptr %this.addr, align 8
  %this1 = load ptr, ptr %this.addr, align 8
  %m_obj = getelementptr inbounds %class.obj_ref, ptr %this1, i32 0, i32 0
  %0 = load ptr, ptr %m_obj, align 8
  ret ptr %0
}

; Function Attrs: mustprogress nounwind uwtable
define linkonce_odr hidden void @_ZN7obj_refI3app11ast_managerED2Ev(ptr noundef nonnull align 8 dereferenceable(16) %this) unnamed_addr #5 comdat align 2 personality ptr @__gxx_personality_v0 {
entry:
  %this.addr = alloca ptr, align 8
  store ptr %this, ptr %this.addr, align 8
  %this1 = load ptr, ptr %this.addr, align 8
  invoke void @_ZN7obj_refI3app11ast_managerE7dec_refEv(ptr noundef nonnull align 8 dereferenceable(16) %this1)
          to label %invoke.cont unwind label %terminate.lpad

invoke.cont:                                      ; preds = %entry
  ret void

terminate.lpad:                                   ; preds = %entry
  %0 = landingpad { ptr, i32 }
          catch ptr null
  %1 = extractvalue { ptr, i32 } %0, 0
  call void @__clang_call_terminate(ptr %1) #15
  unreachable
}

; Function Attrs: mustprogress uwtable
define linkonce_odr hidden void @_ZN7datalog15vector_relationI12old_intervalNS_22vector_relation_helperIS1_EEE8mk_unionERKS4_PS4_b(ptr noundef nonnull align 8 dereferenceable(224) %this, ptr noundef nonnull align 8 dereferenceable(224) %src, ptr noundef %delta, i1 noundef zeroext %is_widen) #4 comdat align 2 personality ptr @__gxx_personality_v0 {
entry:
  %this.addr = alloca ptr, align 8
  %src.addr = alloca ptr, align 8
  %delta.addr = alloca ptr, align 8
  %is_widen.addr = alloca i8, align 1
  %uf = alloca ptr, align 8
  %size = alloca i32, align 4
  %mp = alloca %class.map.193, align 8
  %ref.tmp = alloca %struct.pair_hash, align 1
  %ref.tmp15 = alloca %struct.unsigned_hash, align 1
  %ref.tmp16 = alloca %struct.unsigned_hash, align 1
  %ref.tmp17 = alloca %struct.default_eq.196, align 1
  %change = alloca i8, align 1
  %finds = alloca %class.bit_vector, align 8
  %exn.slot = alloca ptr, align 8
  %ehselector.slot = alloca i32, align 4
  %i = alloca i32, align 4
  %w = alloca i32, align 4
  %p = alloca %"struct.std::pair", align 4
  %ref.tmp22 = alloca i32, align 4
  %ref.tmp25 = alloca i32, align 4
  %elems = alloca ptr, align 8
  %i48 = alloca i32, align 4
  %t1 = alloca %class.old_interval, align 8
  %t2 = alloca %class.old_interval, align 8
  %ref.tmp66 = alloca %class.old_interval, align 8
  %ref.tmp75 = alloca %class.old_interval, align 8
  store ptr %this, ptr %this.addr, align 8
  store ptr %src, ptr %src.addr, align 8
  store ptr %delta, ptr %delta.addr, align 8
  %frombool = zext i1 %is_widen to i8
  store i8 %frombool, ptr %is_widen.addr, align 1
  %this1 = load ptr, ptr %this.addr, align 8
  %0 = load ptr, ptr %src.addr, align 8
  %vtable = load ptr, ptr %0, align 8
  %vfn = getelementptr inbounds ptr, ptr %vtable, i64 3
  %1 = load ptr, ptr %vfn, align 8
  %call = call noundef zeroext i1 %1(ptr noundef nonnull align 8 dereferenceable(224) %0)
  br i1 %call, label %if.then, label %if.end3

if.then:                                          ; preds = %entry
  %2 = load ptr, ptr %delta.addr, align 8
  %tobool = icmp ne ptr %2, null
  br i1 %tobool, label %if.then2, label %if.end

if.then2:                                         ; preds = %if.then
  %3 = load ptr, ptr %delta.addr, align 8
  %4 = load ptr, ptr %src.addr, align 8
  call void @_ZN7datalog15vector_relationI12old_intervalNS_22vector_relation_helperIS1_EEE4copyERKS4_(ptr noundef nonnull align 8 dereferenceable(224) %3, ptr noundef nonnull align 8 dereferenceable(224) %4)
  br label %if.end

if.end:                                           ; preds = %if.then2, %if.then
  br label %return

if.end3:                                          ; preds = %entry
  %vtable4 = load ptr, ptr %this1, align 8
  %vfn5 = getelementptr inbounds ptr, ptr %vtable4, i64 3
  %5 = load ptr, ptr %vfn5, align 8
  %call6 = call noundef zeroext i1 %5(ptr noundef nonnull align 8 dereferenceable(224) %this1)
  br i1 %call6, label %if.then7, label %if.end11

if.then7:                                         ; preds = %if.end3
  %6 = load ptr, ptr %src.addr, align 8
  call void @_ZN7datalog15vector_relationI12old_intervalNS_22vector_relation_helperIS1_EEE4copyERKS4_(ptr noundef nonnull align 8 dereferenceable(224) %this1, ptr noundef nonnull align 8 dereferenceable(224) %6)
  %7 = load ptr, ptr %delta.addr, align 8
  %tobool8 = icmp ne ptr %7, null
  br i1 %tobool8, label %if.then9, label %if.end10

if.then9:                                         ; preds = %if.then7
  %8 = load ptr, ptr %delta.addr, align 8
  %9 = load ptr, ptr %src.addr, align 8
  call void @_ZN7datalog15vector_relationI12old_intervalNS_22vector_relation_helperIS1_EEE4copyERKS4_(ptr noundef nonnull align 8 dereferenceable(224) %8, ptr noundef nonnull align 8 dereferenceable(224) %9)
  br label %if.end10

if.end10:                                         ; preds = %if.then9, %if.then7
  br label %return

if.end11:                                         ; preds = %if.end3
  %call12 = call noalias noundef ptr @_ZN6memory8allocateEm(i64 noundef 56)
  %m_ctx = getelementptr inbounds %"class.datalog::vector_relation", ptr %this1, i32 0, i32 4
  call void @_ZN10union_findI22union_find_default_ctxS0_EC2ERS0_(ptr noundef nonnull align 8 dereferenceable(56) %call12, ptr noundef nonnull align 8 dereferenceable(56) %m_ctx)
  store ptr %call12, ptr %uf, align 8
  %call13 = call noundef nonnull align 8 dereferenceable(8) ptr @_ZNK7datalog17tr_infrastructureINS_15relation_traitsEE13base_ancestor13get_signatureEv(ptr noundef nonnull align 8 dereferenceable(28) %this1)
  %call14 = call noundef i32 @_ZNK6vectorIP4sortLb0EjE4sizeEv(ptr noundef nonnull align 8 dereferenceable(8) %call13)
  store i32 %call14, ptr %size, align 4
  call void @_ZN9pair_hashI13unsigned_hashS0_EC2ERKS0_S3_(ptr noundef nonnull align 1 dereferenceable(2) %ref.tmp, ptr noundef nonnull align 1 dereferenceable(1) %ref.tmp15, ptr noundef nonnull align 1 dereferenceable(1) %ref.tmp16)
  call void @_ZN3mapISt4pairIjjEj9pair_hashI13unsigned_hashS3_E10default_eqIS1_EEC2ERKS4_RKS6_(ptr noundef nonnull align 8 dereferenceable(32) %mp, ptr noundef nonnull align 1 dereferenceable(2) %ref.tmp, ptr noundef nonnull align 1 dereferenceable(1) %ref.tmp17)
  store i8 0, ptr %change, align 1
  invoke void @_ZN10bit_vectorC2Ev(ptr noundef nonnull align 8 dereferenceable(16) %finds)
          to label %invoke.cont unwind label %lpad

invoke.cont:                                      ; preds = %if.end11
  %10 = load i32, ptr %size, align 4
  invoke void @_ZN10bit_vector6resizeEjb(ptr noundef nonnull align 8 dereferenceable(16) %finds, i32 noundef %10, i1 noundef zeroext false)
          to label %invoke.cont19 unwind label %lpad18

invoke.cont19:                                    ; preds = %invoke.cont
  store i32 0, ptr %i, align 4
  br label %for.cond

for.cond:                                         ; preds = %for.inc, %invoke.cont19
  %11 = load i32, ptr %i, align 4
  %12 = load i32, ptr %size, align 4
  %cmp = icmp ult i32 %11, %12
  br i1 %cmp, label %for.body, label %for.end

for.body:                                         ; preds = %for.cond
  %13 = load ptr, ptr %uf, align 8
  %call21 = invoke noundef i32 @_ZN10union_findI22union_find_default_ctxS0_E6mk_varEv(ptr noundef nonnull align 8 dereferenceable(56) %13)
          to label %invoke.cont20 unwind label %lpad18

invoke.cont20:                                    ; preds = %for.body
  %14 = load i32, ptr %i, align 4
  %call24 = invoke noundef i32 @_ZNK7datalog15vector_relationI12old_intervalNS_22vector_relation_helperIS1_EEE4findEj(ptr noundef nonnull align 8 dereferenceable(224) %this1, i32 noundef %14)
          to label %invoke.cont23 unwind label %lpad18

invoke.cont23:                                    ; preds = %invoke.cont20
  store i32 %call24, ptr %ref.tmp22, align 4
  %15 = load ptr, ptr %src.addr, align 8
  %16 = load i32, ptr %i, align 4
  %call27 = invoke noundef i32 @_ZNK7datalog15vector_relationI12old_intervalNS_22vector_relation_helperIS1_EEE4findEj(ptr noundef nonnull align 8 dereferenceable(224) %15, i32 noundef %16)
          to label %invoke.cont26 unwind label %lpad18

invoke.cont26:                                    ; preds = %invoke.cont23
  store i32 %call27, ptr %ref.tmp25, align 4
  %call29 = invoke i64 @_ZSt9make_pairIjjESt4pairINSt25__strip_reference_wrapperINSt5decayIT_E4typeEE6__typeENS1_INS2_IT0_E4typeEE6__typeEEOS3_OS8_(ptr noundef nonnull align 4 dereferenceable(4) %ref.tmp22, ptr noundef nonnull align 4 dereferenceable(4) %ref.tmp25)
          to label %invoke.cont28 unwind label %lpad18

invoke.cont28:                                    ; preds = %invoke.cont26
  store i64 %call29, ptr %p, align 4
  %call31 = invoke noundef zeroext i1 @_ZNK9table2mapI17default_map_entryISt4pairIjjEjE9pair_hashI13unsigned_hashS5_E10default_eqIS2_EE4findERKS2_Rj(ptr noundef nonnull align 8 dereferenceable(32) %mp, ptr noundef nonnull align 4 dereferenceable(8) %p, ptr noundef nonnull align 4 dereferenceable(4) %w)
          to label %invoke.cont30 unwind label %lpad18

invoke.cont30:                                    ; preds = %invoke.cont28
  br i1 %call31, label %if.then32, label %if.else

if.then32:                                        ; preds = %invoke.cont30
  %17 = load ptr, ptr %uf, align 8
  %18 = load i32, ptr %i, align 4
  %19 = load i32, ptr %w, align 4
  invoke void @_ZN10union_findI22union_find_default_ctxS0_E5mergeEjj(ptr noundef nonnull align 8 dereferenceable(56) %17, i32 noundef %18, i32 noundef %19)
          to label %invoke.cont33 unwind label %lpad18

invoke.cont33:                                    ; preds = %if.then32
  br label %if.end45

lpad:                                             ; preds = %if.end11
  %20 = landingpad { ptr, i32 }
          cleanup
  %21 = extractvalue { ptr, i32 } %20, 0
  store ptr %21, ptr %exn.slot, align 8
  %22 = extractvalue { ptr, i32 } %20, 1
  store i32 %22, ptr %ehselector.slot, align 4
  br label %ehcleanup106

lpad18:                                           ; preds = %if.then102, %invoke.cont96, %for.end94, %invoke.cont52, %for.body51, %for.end, %invoke.cont41, %if.else40, %invoke.cont35, %invoke.cont34, %if.else, %if.then32, %invoke.cont28, %invoke.cont26, %invoke.cont23, %invoke.cont20, %for.body, %invoke.cont
  %23 = landingpad { ptr, i32 }
          cleanup
  %24 = extractvalue { ptr, i32 } %23, 0
  store ptr %24, ptr %exn.slot, align 8
  %25 = extractvalue { ptr, i32 } %23, 1
  store i32 %25, ptr %ehselector.slot, align 4
  br label %ehcleanup105

if.else:                                          ; preds = %invoke.cont30
  invoke void @_ZN9table2mapI17default_map_entryISt4pairIjjEjE9pair_hashI13unsigned_hashS5_E10default_eqIS2_EE6insertERKS2_RKj(ptr noundef nonnull align 8 dereferenceable(32) %mp, ptr noundef nonnull align 4 dereferenceable(8) %p, ptr noundef nonnull align 4 dereferenceable(4) %i)
          to label %invoke.cont34 unwind label %lpad18

invoke.cont34:                                    ; preds = %if.else
  %26 = load i32, ptr %i, align 4
  %call36 = invoke noundef i32 @_ZNK7datalog15vector_relationI12old_intervalNS_22vector_relation_helperIS1_EEE4findEj(ptr noundef nonnull align 8 dereferenceable(224) %this1, i32 noundef %26)
          to label %invoke.cont35 unwind label %lpad18

invoke.cont35:                                    ; preds = %invoke.cont34
  %call38 = invoke noundef zeroext i1 @_ZNK10bit_vector3getEj(ptr noundef nonnull align 8 dereferenceable(16) %finds, i32 noundef %call36)
          to label %invoke.cont37 unwind label %lpad18

invoke.cont37:                                    ; preds = %invoke.cont35
  br i1 %call38, label %if.then39, label %if.else40

if.then39:                                        ; preds = %invoke.cont37
  store i8 1, ptr %change, align 1
  br label %if.end44

if.else40:                                        ; preds = %invoke.cont37
  %27 = load i32, ptr %i, align 4
  %call42 = invoke noundef i32 @_ZNK7datalog15vector_relationI12old_intervalNS_22vector_relation_helperIS1_EEE4findEj(ptr noundef nonnull align 8 dereferenceable(224) %this1, i32 noundef %27)
          to label %invoke.cont41 unwind label %lpad18

invoke.cont41:                                    ; preds = %if.else40
  invoke void @_ZN10bit_vector3setEjb(ptr noundef nonnull align 8 dereferenceable(16) %finds, i32 noundef %call42, i1 noundef zeroext true)
          to label %invoke.cont43 unwind label %lpad18

invoke.cont43:                                    ; preds = %invoke.cont41
  br label %if.end44

if.end44:                                         ; preds = %invoke.cont43, %if.then39
  br label %if.end45

if.end45:                                         ; preds = %if.end44, %invoke.cont33
  br label %for.inc

for.inc:                                          ; preds = %if.end45
  %28 = load i32, ptr %i, align 4
  %inc = add i32 %28, 1
  store i32 %inc, ptr %i, align 4
  br label %for.cond, !llvm.loop !8

for.end:                                          ; preds = %for.cond
  %call47 = invoke noalias noundef ptr @_ZN6memory8allocateEm(i64 noundef 8)
          to label %invoke.cont46 unwind label %lpad18

invoke.cont46:                                    ; preds = %for.end
  call void @llvm.memset.p0.i64(ptr align 8 %call47, i8 0, i64 8, i1 false)
  call void @_ZN6vectorI12old_intervalLb1EjEC2Ev(ptr noundef nonnull align 8 dereferenceable(8) %call47) #3
  store ptr %call47, ptr %elems, align 8
  store i32 0, ptr %i48, align 4
  br label %for.cond49

for.cond49:                                       ; preds = %for.inc92, %invoke.cont46
  %29 = load i32, ptr %i48, align 4
  %30 = load i32, ptr %size, align 4
  %cmp50 = icmp ult i32 %29, %30
  br i1 %cmp50, label %for.body51, label %for.end94

for.body51:                                       ; preds = %for.cond49
  %m_eqs = getelementptr inbounds %"class.datalog::vector_relation", ptr %this1, i32 0, i32 5
  %31 = load ptr, ptr %m_eqs, align 8
  %32 = load ptr, ptr %uf, align 8
  %33 = load i32, ptr %i48, align 4
  %call53 = invoke noundef nonnull align 8 dereferenceable(112) ptr @_ZN7datalog15vector_relationI12old_intervalNS_22vector_relation_helperIS1_EEEixEj(ptr noundef nonnull align 8 dereferenceable(224) %this1, i32 noundef %33)
          to label %invoke.cont52 unwind label %lpad18

invoke.cont52:                                    ; preds = %for.body51
  %vtable54 = load ptr, ptr %this1, align 8
  %vfn55 = getelementptr inbounds ptr, ptr %vtable54, i64 28
  %34 = load ptr, ptr %vfn55, align 8
  invoke void %34(ptr sret(%class.old_interval) align 8 %t1, ptr noundef nonnull align 8 dereferenceable(224) %this1, ptr noundef nonnull align 8 dereferenceable(56) %31, ptr noundef nonnull align 8 dereferenceable(56) %32, ptr noundef nonnull align 8 dereferenceable(112) %call53)
          to label %invoke.cont56 unwind label %lpad18

invoke.cont56:                                    ; preds = %invoke.cont52
  %35 = load ptr, ptr %src.addr, align 8
  %m_eqs57 = getelementptr inbounds %"class.datalog::vector_relation", ptr %35, i32 0, i32 5
  %36 = load ptr, ptr %m_eqs57, align 8
  %37 = load ptr, ptr %uf, align 8
  %38 = load ptr, ptr %src.addr, align 8
  %39 = load i32, ptr %i48, align 4
  %call60 = invoke noundef nonnull align 8 dereferenceable(112) ptr @_ZNK7datalog15vector_relationI12old_intervalNS_22vector_relation_helperIS1_EEEixEj(ptr noundef nonnull align 8 dereferenceable(224) %38, i32 noundef %39)
          to label %invoke.cont59 unwind label %lpad58

invoke.cont59:                                    ; preds = %invoke.cont56
  %vtable61 = load ptr, ptr %this1, align 8
  %vfn62 = getelementptr inbounds ptr, ptr %vtable61, i64 28
  %40 = load ptr, ptr %vfn62, align 8
  invoke void %40(ptr sret(%class.old_interval) align 8 %t2, ptr noundef nonnull align 8 dereferenceable(224) %this1, ptr noundef nonnull align 8 dereferenceable(56) %36, ptr noundef nonnull align 8 dereferenceable(56) %37, ptr noundef nonnull align 8 dereferenceable(112) %call60)
          to label %invoke.cont63 unwind label %lpad58

invoke.cont63:                                    ; preds = %invoke.cont59
  %41 = load i8, ptr %is_widen.addr, align 1
  %tobool64 = trunc i8 %41 to i1
  br i1 %tobool64, label %if.then65, label %if.else74

if.then65:                                        ; preds = %invoke.cont63
  %42 = load ptr, ptr %elems, align 8
  %vtable67 = load ptr, ptr %this1, align 8
  %vfn68 = getelementptr inbounds ptr, ptr %vtable67, i64 22
  %43 = load ptr, ptr %vfn68, align 8
  invoke void %43(ptr sret(%class.old_interval) align 8 %ref.tmp66, ptr noundef nonnull align 8 dereferenceable(224) %this1, ptr noundef nonnull align 8 dereferenceable(112) %t1, ptr noundef nonnull align 8 dereferenceable(112) %t2)
          to label %invoke.cont70 unwind label %lpad69

invoke.cont70:                                    ; preds = %if.then65
  %call73 = invoke noundef nonnull align 8 dereferenceable(8) ptr @_ZN6vectorI12old_intervalLb1EjE9push_backEOS0_(ptr noundef nonnull align 8 dereferenceable(8) %42, ptr noundef nonnull align 8 dereferenceable(112) %ref.tmp66)
          to label %invoke.cont72 unwind label %lpad71

invoke.cont72:                                    ; preds = %invoke.cont70
  call void @_ZN12old_intervalD2Ev(ptr noundef nonnull align 8 dereferenceable(112) %ref.tmp66) #3
  br label %if.end82

lpad58:                                           ; preds = %invoke.cont59, %invoke.cont56
  %44 = landingpad { ptr, i32 }
          cleanup
  %45 = extractvalue { ptr, i32 } %44, 0
  store ptr %45, ptr %exn.slot, align 8
  %46 = extractvalue { ptr, i32 } %44, 1
  store i32 %46, ptr %ehselector.slot, align 4
  br label %ehcleanup91

lpad69:                                           ; preds = %invoke.cont86, %lor.rhs, %if.else74, %if.then65
  %47 = landingpad { ptr, i32 }
          cleanup
  %48 = extractvalue { ptr, i32 } %47, 0
  store ptr %48, ptr %exn.slot, align 8
  %49 = extractvalue { ptr, i32 } %47, 1
  store i32 %49, ptr %ehselector.slot, align 4
  br label %ehcleanup

lpad71:                                           ; preds = %invoke.cont70
  %50 = landingpad { ptr, i32 }
          cleanup
  %51 = extractvalue { ptr, i32 } %50, 0
  store ptr %51, ptr %exn.slot, align 8
  %52 = extractvalue { ptr, i32 } %50, 1
  store i32 %52, ptr %ehselector.slot, align 4
  call void @_ZN12old_intervalD2Ev(ptr noundef nonnull align 8 dereferenceable(112) %ref.tmp66) #3
  br label %ehcleanup

if.else74:                                        ; preds = %invoke.cont63
  %53 = load ptr, ptr %elems, align 8
  %vtable76 = load ptr, ptr %this1, align 8
  %vfn77 = getelementptr inbounds ptr, ptr %vtable76, i64 23
  %54 = load ptr, ptr %vfn77, align 8
  invoke void %54(ptr sret(%class.old_interval) align 8 %ref.tmp75, ptr noundef nonnull align 8 dereferenceable(224) %this1, ptr noundef nonnull align 8 dereferenceable(112) %t1, ptr noundef nonnull align 8 dereferenceable(112) %t2)
          to label %invoke.cont78 unwind label %lpad69

invoke.cont78:                                    ; preds = %if.else74
  %call81 = invoke noundef nonnull align 8 dereferenceable(8) ptr @_ZN6vectorI12old_intervalLb1EjE9push_backEOS0_(ptr noundef nonnull align 8 dereferenceable(8) %53, ptr noundef nonnull align 8 dereferenceable(112) %ref.tmp75)
          to label %invoke.cont80 unwind label %lpad79

invoke.cont80:                                    ; preds = %invoke.cont78
  call void @_ZN12old_intervalD2Ev(ptr noundef nonnull align 8 dereferenceable(112) %ref.tmp75) #3
  br label %if.end82

lpad79:                                           ; preds = %invoke.cont78
  %55 = landingpad { ptr, i32 }
          cleanup
  %56 = extractvalue { ptr, i32 } %55, 0
  store ptr %56, ptr %exn.slot, align 8
  %57 = extractvalue { ptr, i32 } %55, 1
  store i32 %57, ptr %ehselector.slot, align 4
  call void @_ZN12old_intervalD2Ev(ptr noundef nonnull align 8 dereferenceable(112) %ref.tmp75) #3
  br label %ehcleanup

if.end82:                                         ; preds = %invoke.cont80, %invoke.cont72
  %58 = load ptr, ptr %delta.addr, align 8
  %tobool83 = icmp ne ptr %58, null
  br i1 %tobool83, label %land.rhs, label %land.end

land.rhs:                                         ; preds = %if.end82
  %59 = load i8, ptr %change, align 1
  %tobool84 = trunc i8 %59 to i1
  br i1 %tobool84, label %lor.end, label %lor.rhs

lor.rhs:                                          ; preds = %land.rhs
  %60 = load ptr, ptr %elems, align 8
  %61 = load i32, ptr %i48, align 4
  %call85 = call noundef nonnull align 8 dereferenceable(112) ptr @_ZN6vectorI12old_intervalLb1EjEixEj(ptr noundef nonnull align 8 dereferenceable(8) %60, i32 noundef %61)
  %62 = load i32, ptr %i48, align 4
  %call87 = invoke noundef nonnull align 8 dereferenceable(112) ptr @_ZN7datalog15vector_relationI12old_intervalNS_22vector_relation_helperIS1_EEEixEj(ptr noundef nonnull align 8 dereferenceable(224) %this1, i32 noundef %62)
          to label %invoke.cont86 unwind label %lpad69

invoke.cont86:                                    ; preds = %lor.rhs
  %call89 = invoke noundef zeroext i1 @_ZNK12old_intervaleqERKS_(ptr noundef nonnull align 8 dereferenceable(112) %call85, ptr noundef nonnull align 8 dereferenceable(112) %call87)
          to label %invoke.cont88 unwind label %lpad69

invoke.cont88:                                    ; preds = %invoke.cont86
  %lnot = xor i1 %call89, true
  br label %lor.end

lor.end:                                          ; preds = %invoke.cont88, %land.rhs
  %63 = phi i1 [ true, %land.rhs ], [ %lnot, %invoke.cont88 ]
  br label %land.end

land.end:                                         ; preds = %lor.end, %if.end82
  %64 = phi i1 [ false, %if.end82 ], [ %63, %lor.end ]
  %frombool90 = zext i1 %64 to i8
  store i8 %frombool90, ptr %change, align 1
  call void @_ZN12old_intervalD2Ev(ptr noundef nonnull align 8 dereferenceable(112) %t2) #3
  call void @_ZN12old_intervalD2Ev(ptr noundef nonnull align 8 dereferenceable(112) %t1) #3
  br label %for.inc92

for.inc92:                                        ; preds = %land.end
  %65 = load i32, ptr %i48, align 4
  %inc93 = add i32 %65, 1
  store i32 %inc93, ptr %i48, align 4
  br label %for.cond49, !llvm.loop !9

ehcleanup:                                        ; preds = %lpad79, %lpad71, %lpad69
  call void @_ZN12old_intervalD2Ev(ptr noundef nonnull align 8 dereferenceable(112) %t2) #3
  br label %ehcleanup91

ehcleanup91:                                      ; preds = %ehcleanup, %lpad58
  call void @_ZN12old_intervalD2Ev(ptr noundef nonnull align 8 dereferenceable(112) %t1) #3
  br label %ehcleanup105

for.end94:                                        ; preds = %for.cond49
  %m_eqs95 = getelementptr inbounds %"class.datalog::vector_relation", ptr %this1, i32 0, i32 5
  %66 = load ptr, ptr %m_eqs95, align 8
  invoke void @_Z7deallocI10union_findI22union_find_default_ctxS1_EEvPT_(ptr noundef %66)
          to label %invoke.cont96 unwind label %lpad18

invoke.cont96:                                    ; preds = %for.end94
  %m_elems = getelementptr inbounds %"class.datalog::vector_relation", ptr %this1, i32 0, i32 2
  %67 = load ptr, ptr %m_elems, align 8
  invoke void @_Z7deallocI6vectorI12old_intervalLb1EjEEvPT_(ptr noundef %67)
          to label %invoke.cont97 unwind label %lpad18

invoke.cont97:                                    ; preds = %invoke.cont96
  %68 = load ptr, ptr %uf, align 8
  %m_eqs98 = getelementptr inbounds %"class.datalog::vector_relation", ptr %this1, i32 0, i32 5
  store ptr %68, ptr %m_eqs98, align 8
  %69 = load ptr, ptr %elems, align 8
  %m_elems99 = getelementptr inbounds %"class.datalog::vector_relation", ptr %this1, i32 0, i32 2
  store ptr %69, ptr %m_elems99, align 8
  %70 = load ptr, ptr %delta.addr, align 8
  %tobool100 = icmp ne ptr %70, null
  br i1 %tobool100, label %land.lhs.true, label %if.end104

land.lhs.true:                                    ; preds = %invoke.cont97
  %71 = load i8, ptr %change, align 1
  %tobool101 = trunc i8 %71 to i1
  br i1 %tobool101, label %if.then102, label %if.end104

if.then102:                                       ; preds = %land.lhs.true
  %72 = load ptr, ptr %delta.addr, align 8
  invoke void @_ZN7datalog15vector_relationI12old_intervalNS_22vector_relation_helperIS1_EEE4copyERKS4_(ptr noundef nonnull align 8 dereferenceable(224) %72, ptr noundef nonnull align 8 dereferenceable(224) %this1)
          to label %invoke.cont103 unwind label %lpad18

invoke.cont103:                                   ; preds = %if.then102
  br label %if.end104

if.end104:                                        ; preds = %invoke.cont103, %land.lhs.true, %invoke.cont97
  call void @_ZN10bit_vectorD2Ev(ptr noundef nonnull align 8 dereferenceable(16) %finds) #3
  call void @_ZN3mapISt4pairIjjEj9pair_hashI13unsigned_hashS3_E10default_eqIS1_EED2Ev(ptr noundef nonnull align 8 dereferenceable(32) %mp) #3
  br label %return

return:                                           ; preds = %if.end104, %if.end10, %if.end
  ret void

ehcleanup105:                                     ; preds = %ehcleanup91, %lpad18
  call void @_ZN10bit_vectorD2Ev(ptr noundef nonnull align 8 dereferenceable(16) %finds) #3
  br label %ehcleanup106

ehcleanup106:                                     ; preds = %ehcleanup105, %lpad
  call void @_ZN3mapISt4pairIjjEj9pair_hashI13unsigned_hashS3_E10default_eqIS1_EED2Ev(ptr noundef nonnull align 8 dereferenceable(32) %mp) #3
  br label %eh.resume

eh.resume:                                        ; preds = %ehcleanup106
  %exn = load ptr, ptr %exn.slot, align 8
  %sel = load i32, ptr %ehselector.slot, align 4
  %lpad.val = insertvalue { ptr, i32 } poison, ptr %exn, 0
  %lpad.val107 = insertvalue { ptr, i32 } %lpad.val, i32 %sel, 1
  resume { ptr, i32 } %lpad.val107
}

; Function Attrs: mustprogress nounwind uwtable
define linkonce_odr hidden void @_ZN7datalog17interval_relationD2Ev(ptr noundef nonnull align 8 dereferenceable(224) %this) unnamed_addr #5 comdat align 2 {
entry:
  %this.addr = alloca ptr, align 8
  store ptr %this, ptr %this.addr, align 8
  %this1 = load ptr, ptr %this.addr, align 8
  call void @_ZN7datalog15vector_relationI12old_intervalNS_22vector_relation_helperIS1_EEED2Ev(ptr noundef nonnull align 8 dereferenceable(224) %this1) #3
  ret void
}

; Function Attrs: mustprogress uwtable
define hidden noundef zeroext i1 @_ZNK7datalog17interval_relation13contains_factERKNS_13relation_factE(ptr noundef nonnull align 8 dereferenceable(224) %this, ptr noundef nonnull align 8 dereferenceable(16) %f) unnamed_addr #4 align 2 personality ptr @__gxx_personality_v0 {
entry:
  %retval = alloca i1, align 1
  %this.addr = alloca ptr, align 8
  %f.addr = alloca ptr, align 8
  %p = alloca ptr, align 8
  %i = alloca i32, align 4
  %iv = alloca ptr, align 8
  %v = alloca %class.rational, align 8
  %exn.slot = alloca ptr, align 8
  %ehselector.slot = alloca i32, align 4
  %cleanup.dest.slot = alloca i32, align 4
  store ptr %this, ptr %this.addr, align 8
  store ptr %f, ptr %f.addr, align 8
  %this1 = load ptr, ptr %this.addr, align 8
  %call = call noundef nonnull align 8 dereferenceable(240) ptr @_ZNK7datalog17interval_relation10get_pluginEv(ptr noundef nonnull align 8 dereferenceable(224) %this1)
  store ptr %call, ptr %p, align 8
  store i32 0, ptr %i, align 4
  br label %for.cond

for.cond:                                         ; preds = %for.inc, %entry
  %0 = load i32, ptr %i, align 4
  %1 = load ptr, ptr %f.addr, align 8
  %call2 = call noundef i32 @_ZNK15ref_vector_coreI3app19ref_manager_wrapperIS0_11ast_managerEE4sizeEv(ptr noundef nonnull align 8 dereferenceable(16) %1)
  %cmp = icmp ult i32 %0, %call2
  br i1 %cmp, label %for.body, label %for.end

for.body:                                         ; preds = %for.cond
  %2 = load ptr, ptr %f.addr, align 8
  %3 = load i32, ptr %i, align 4
  %call3 = call noundef ptr @_ZNK7datalog13relation_factixEj(ptr noundef nonnull align 8 dereferenceable(16) %2, i32 noundef %3)
  %4 = load ptr, ptr %f.addr, align 8
  %5 = load i32, ptr %i, align 4
  %call4 = call noundef i32 @_ZNK7datalog15vector_relationI12old_intervalNS_22vector_relation_helperIS1_EEE4findEj(ptr noundef nonnull align 8 dereferenceable(224) %this1, i32 noundef %5)
  %call5 = call noundef ptr @_ZNK7datalog13relation_factixEj(ptr noundef nonnull align 8 dereferenceable(16) %4, i32 noundef %call4)
  %cmp6 = icmp ne ptr %call3, %call5
  br i1 %cmp6, label %if.then, label %if.end

if.then:                                          ; preds = %for.body
  store i1 false, ptr %retval, align 1
  br label %return

if.end:                                           ; preds = %for.body
  %6 = load i32, ptr %i, align 4
  %call7 = call noundef nonnull align 8 dereferenceable(112) ptr @_ZNK7datalog15vector_relationI12old_intervalNS_22vector_relation_helperIS1_EEEixEj(ptr noundef nonnull align 8 dereferenceable(224) %this1, i32 noundef %6)
  store ptr %call7, ptr %iv, align 8
  %7 = load ptr, ptr %iv, align 8
  %call8 = call noundef zeroext i1 @_ZN7datalog24interval_relation_plugin11is_infiniteERK12old_interval(ptr noundef nonnull align 8 dereferenceable(112) %7)
  br i1 %call8, label %if.then9, label %if.end10

if.then9:                                         ; preds = %if.end
  br label %for.inc

if.end10:                                         ; preds = %if.end
  call void @_ZN8rationalC2Ev(ptr noundef nonnull align 8 dereferenceable(32) %v)
  %8 = load ptr, ptr %p, align 8
  %m_arith = getelementptr inbounds %"class.datalog::interval_relation_plugin", ptr %8, i32 0, i32 3
  %9 = load ptr, ptr %f.addr, align 8
  %10 = load i32, ptr %i, align 4
  %call11 = invoke noundef ptr @_ZNK7datalog13relation_factixEj(ptr noundef nonnull align 8 dereferenceable(16) %9, i32 noundef %10)
          to label %invoke.cont unwind label %lpad

invoke.cont:                                      ; preds = %if.end10
  %call13 = invoke noundef zeroext i1 @_ZNK10arith_util10is_numeralEPK4exprR8rational(ptr noundef nonnull align 8 dereferenceable(16) %m_arith, ptr noundef %call11, ptr noundef nonnull align 8 dereferenceable(32) %v)
          to label %invoke.cont12 unwind label %lpad

invoke.cont12:                                    ; preds = %invoke.cont
  br i1 %call13, label %if.then14, label %if.else

if.then14:                                        ; preds = %invoke.cont12
  %11 = load ptr, ptr %iv, align 8
  %call16 = invoke noundef zeroext i1 @_ZNK12old_interval8containsERK8rational(ptr noundef nonnull align 8 dereferenceable(112) %11, ptr noundef nonnull align 8 dereferenceable(32) %v)
          to label %invoke.cont15 unwind label %lpad

invoke.cont15:                                    ; preds = %if.then14
  br i1 %call16, label %if.end18, label %if.then17

if.then17:                                        ; preds = %invoke.cont15
  store i1 false, ptr %retval, align 1
  store i32 1, ptr %cleanup.dest.slot, align 4
  br label %cleanup

lpad:                                             ; preds = %if.then14, %invoke.cont, %if.end10
  %12 = landingpad { ptr, i32 }
          cleanup
  %13 = extractvalue { ptr, i32 } %12, 0
  store ptr %13, ptr %exn.slot, align 8
  %14 = extractvalue { ptr, i32 } %12, 1
  store i32 %14, ptr %ehselector.slot, align 4
  call void @_ZN8rationalD2Ev(ptr noundef nonnull align 8 dereferenceable(32) %v) #3
  br label %eh.resume

if.end18:                                         ; preds = %invoke.cont15
  br label %if.end19

if.else:                                          ; preds = %invoke.cont12
  br label %if.end19

if.end19:                                         ; preds = %if.else, %if.end18
  store i32 0, ptr %cleanup.dest.slot, align 4
  br label %cleanup

cleanup:                                          ; preds = %if.end19, %if.then17
  call void @_ZN8rationalD2Ev(ptr noundef nonnull align 8 dereferenceable(32) %v) #3
  %cleanup.dest = load i32, ptr %cleanup.dest.slot, align 4
  switch i32 %cleanup.dest, label %unreachable [
    i32 0, label %cleanup.cont
    i32 1, label %return
  ]

cleanup.cont:                                     ; preds = %cleanup
  br label %for.inc

for.inc:                                          ; preds = %cleanup.cont, %if.then9
  %15 = load i32, ptr %i, align 4
  %inc = add i32 %15, 1
  store i32 %inc, ptr %i, align 4
  br label %for.cond, !llvm.loop !10

for.end:                                          ; preds = %for.cond
  store i1 true, ptr %retval, align 1
  br label %return

return:                                           ; preds = %for.end, %cleanup, %if.then
  %16 = load i1, ptr %retval, align 1
  ret i1 %16

eh.resume:                                        ; preds = %lpad
  %exn = load ptr, ptr %exn.slot, align 8
  %sel = load i32, ptr %ehselector.slot, align 4
  %lpad.val = insertvalue { ptr, i32 } poison, ptr %exn, 0
  %lpad.val20 = insertvalue { ptr, i32 } %lpad.val, i32 %sel, 1
  resume { ptr, i32 } %lpad.val20

unreachable:                                      ; preds = %cleanup
  unreachable
}

; Function Attrs: mustprogress uwtable
define linkonce_odr hidden noundef i32 @_ZNK7datalog15vector_relationI12old_intervalNS_22vector_relation_helperIS1_EEE4findEj(ptr noundef nonnull align 8 dereferenceable(224) %this, i32 noundef %i) #4 comdat align 2 {
entry:
  %this.addr = alloca ptr, align 8
  %i.addr = alloca i32, align 4
  store ptr %this, ptr %this.addr, align 8
  store i32 %i, ptr %i.addr, align 4
  %this1 = load ptr, ptr %this.addr, align 8
  %m_eqs = getelementptr inbounds %"class.datalog::vector_relation", ptr %this1, i32 0, i32 5
  %0 = load ptr, ptr %m_eqs, align 8
  %1 = load i32, ptr %i.addr, align 4
  %call = call noundef i32 @_ZNK10union_findI22union_find_default_ctxS0_E4findEj(ptr noundef nonnull align 8 dereferenceable(56) %0, i32 noundef %1)
  ret i32 %call
}

; Function Attrs: mustprogress uwtable
define linkonce_odr hidden noundef nonnull align 8 dereferenceable(112) ptr @_ZNK7datalog15vector_relationI12old_intervalNS_22vector_relation_helperIS1_EEEixEj(ptr noundef nonnull align 8 dereferenceable(224) %this, i32 noundef %i) #4 comdat align 2 {
entry:
  %this.addr = alloca ptr, align 8
  %i.addr = alloca i32, align 4
  store ptr %this, ptr %this.addr, align 8
  store i32 %i, ptr %i.addr, align 4
  %this1 = load ptr, ptr %this.addr, align 8
  %m_elems = getelementptr inbounds %"class.datalog::vector_relation", ptr %this1, i32 0, i32 2
  %0 = load ptr, ptr %m_elems, align 8
  %1 = load i32, ptr %i.addr, align 4
  %call = call noundef i32 @_ZNK7datalog15vector_relationI12old_intervalNS_22vector_relation_helperIS1_EEE4findEj(ptr noundef nonnull align 8 dereferenceable(224) %this1, i32 noundef %1)
  %call2 = call noundef nonnull align 8 dereferenceable(112) ptr @_ZN6vectorI12old_intervalLb1EjEixEj(ptr noundef nonnull align 8 dereferenceable(8) %0, i32 noundef %call)
  ret ptr %call2
}

; Function Attrs: mustprogress uwtable
define linkonce_odr hidden void @_ZN8rationalC2Ev(ptr noundef nonnull align 8 dereferenceable(32) %this) unnamed_addr #4 comdat align 2 {
entry:
  %this.addr = alloca ptr, align 8
  store ptr %this, ptr %this.addr, align 8
  %this1 = load ptr, ptr %this.addr, align 8
  %m_val = getelementptr inbounds %class.rational, ptr %this1, i32 0, i32 0
  call void @_ZN3mpqC2Ev(ptr noundef nonnull align 8 dereferenceable(32) %m_val)
  ret void
}

; Function Attrs: mustprogress uwtable
define linkonce_odr hidden noundef zeroext i1 @_ZNK10arith_util10is_numeralEPK4exprR8rational(ptr noundef nonnull align 8 dereferenceable(16) %this, ptr noundef %n, ptr noundef nonnull align 8 dereferenceable(32) %val) #4 comdat align 2 {
entry:
  %this.addr = alloca ptr, align 8
  %n.addr = alloca ptr, align 8
  %val.addr = alloca ptr, align 8
  %is_int = alloca i8, align 1
  store ptr %this, ptr %this.addr, align 8
  store ptr %n, ptr %n.addr, align 8
  store ptr %val, ptr %val.addr, align 8
  %this1 = load ptr, ptr %this.addr, align 8
  %0 = load ptr, ptr %n.addr, align 8
  %1 = load ptr, ptr %val.addr, align 8
  %call = call noundef zeroext i1 @_ZNK10arith_util10is_numeralEPK4exprR8rationalRb(ptr noundef nonnull align 8 dereferenceable(16) %this1, ptr noundef %0, ptr noundef nonnull align 8 dereferenceable(32) %1, ptr noundef nonnull align 1 dereferenceable(1) %is_int)
  ret i1 %call
}

declare noundef zeroext i1 @_ZNK12old_interval8containsERK8rational(ptr noundef nonnull align 8 dereferenceable(112), ptr noundef nonnull align 8 dereferenceable(32)) #1

; Function Attrs: mustprogress nounwind uwtable
define linkonce_odr hidden void @_ZN8rationalD2Ev(ptr noundef nonnull align 8 dereferenceable(32) %this) unnamed_addr #5 comdat align 2 personality ptr @__gxx_personality_v0 {
entry:
  %this.addr = alloca ptr, align 8
  store ptr %this, ptr %this.addr, align 8
  %this1 = load ptr, ptr %this.addr, align 8
  %0 = load ptr, ptr @_ZN8rational13g_mpq_managerE, align 8
  %m_val = getelementptr inbounds %class.rational, ptr %this1, i32 0, i32 0
  invoke void @_ZN11mpq_managerILb1EE3delEPS0_R3mpq(ptr noundef %0, ptr noundef nonnull align 8 dereferenceable(32) %m_val)
          to label %invoke.cont unwind label %terminate.lpad

invoke.cont:                                      ; preds = %entry
  ret void

terminate.lpad:                                   ; preds = %entry
  %1 = landingpad { ptr, i32 }
          catch ptr null
  %2 = extractvalue { ptr, i32 } %1, 0
  call void @__clang_call_terminate(ptr %2) #15
  unreachable
}

; Function Attrs: mustprogress uwtable
define hidden noundef ptr @_ZNK7datalog17interval_relation5cloneEv(ptr noundef nonnull align 8 dereferenceable(224) %this) unnamed_addr #4 align 2 {
entry:
  %this.addr = alloca ptr, align 8
  %result = alloca ptr, align 8
  store ptr %this, ptr %this.addr, align 8
  %this1 = load ptr, ptr %this.addr, align 8
  %call = call noalias noundef ptr @_ZN6memory8allocateEm(i64 noundef 224)
  %call2 = call noundef nonnull align 8 dereferenceable(240) ptr @_ZNK7datalog17interval_relation10get_pluginEv(ptr noundef nonnull align 8 dereferenceable(224) %this1)
  %call3 = call noundef nonnull align 8 dereferenceable(8) ptr @_ZNK7datalog17tr_infrastructureINS_15relation_traitsEE13base_ancestor13get_signatureEv(ptr noundef nonnull align 8 dereferenceable(28) %this1)
  %vtable = load ptr, ptr %this1, align 8
  %vfn = getelementptr inbounds ptr, ptr %vtable, i64 3
  %0 = load ptr, ptr %vfn, align 8
  %call4 = call noundef zeroext i1 %0(ptr noundef nonnull align 8 dereferenceable(224) %this1)
  call void @_ZN7datalog17interval_relationC1ERNS_24interval_relation_pluginERKNS_18relation_signatureEb(ptr noundef nonnull align 8 dereferenceable(224) %call, ptr noundef nonnull align 8 dereferenceable(240) %call2, ptr noundef nonnull align 8 dereferenceable(8) %call3, i1 noundef zeroext %call4)
  store ptr %call, ptr %result, align 8
  %1 = load ptr, ptr %result, align 8
  call void @_ZN7datalog15vector_relationI12old_intervalNS_22vector_relation_helperIS1_EEE4copyERKS4_(ptr noundef nonnull align 8 dereferenceable(224) %1, ptr noundef nonnull align 8 dereferenceable(224) %this1)
  %2 = load ptr, ptr %result, align 8
  ret ptr %2
}

; Function Attrs: mustprogress uwtable
define linkonce_odr hidden void @_ZN7datalog15vector_relationI12old_intervalNS_22vector_relation_helperIS1_EEE4copyERKS4_(ptr noundef nonnull align 8 dereferenceable(224) %this, ptr noundef nonnull align 8 dereferenceable(224) %other) #4 comdat align 2 {
entry:
  %this.addr = alloca ptr, align 8
  %other.addr = alloca ptr, align 8
  %i = alloca i32, align 4
  %i6 = alloca i32, align 4
  store ptr %this, ptr %this.addr, align 8
  store ptr %other, ptr %other.addr, align 8
  %this1 = load ptr, ptr %this.addr, align 8
  %0 = load ptr, ptr %other.addr, align 8
  %vtable = load ptr, ptr %0, align 8
  %vfn = getelementptr inbounds ptr, ptr %vtable, i64 3
  %1 = load ptr, ptr %vfn, align 8
  %call = call noundef zeroext i1 %1(ptr noundef nonnull align 8 dereferenceable(224) %0)
  br i1 %call, label %if.then, label %if.end

if.then:                                          ; preds = %entry
  call void @_ZN7datalog15vector_relationI12old_intervalNS_22vector_relation_helperIS1_EEE9set_emptyEv(ptr noundef nonnull align 8 dereferenceable(224) %this1)
  br label %for.end15

if.end:                                           ; preds = %entry
  %m_empty = getelementptr inbounds %"class.datalog::vector_relation", ptr %this1, i32 0, i32 3
  store i8 0, ptr %m_empty, align 8
  store i32 0, ptr %i, align 4
  br label %for.cond

for.cond:                                         ; preds = %for.inc, %if.end
  %2 = load i32, ptr %i, align 4
  %m_elems = getelementptr inbounds %"class.datalog::vector_relation", ptr %this1, i32 0, i32 2
  %3 = load ptr, ptr %m_elems, align 8
  %call2 = call noundef i32 @_ZNK6vectorI12old_intervalLb1EjE4sizeEv(ptr noundef nonnull align 8 dereferenceable(8) %3)
  %cmp = icmp ult i32 %2, %call2
  br i1 %cmp, label %for.body, label %for.end

for.body:                                         ; preds = %for.cond
  %4 = load ptr, ptr %other.addr, align 8
  %5 = load i32, ptr %i, align 4
  %call3 = call noundef nonnull align 8 dereferenceable(112) ptr @_ZNK7datalog15vector_relationI12old_intervalNS_22vector_relation_helperIS1_EEEixEj(ptr noundef nonnull align 8 dereferenceable(224) %4, i32 noundef %5)
  %6 = load i32, ptr %i, align 4
  %call4 = call noundef nonnull align 8 dereferenceable(112) ptr @_ZN7datalog15vector_relationI12old_intervalNS_22vector_relation_helperIS1_EEEixEj(ptr noundef nonnull align 8 dereferenceable(224) %this1, i32 noundef %6)
  %call5 = call noundef nonnull align 8 dereferenceable(112) ptr @_ZN12old_intervalaSERKS_(ptr noundef nonnull align 8 dereferenceable(112) %call4, ptr noundef nonnull align 8 dereferenceable(112) %call3)
  br label %for.inc

for.inc:                                          ; preds = %for.body
  %7 = load i32, ptr %i, align 4
  %inc = add i32 %7, 1
  store i32 %inc, ptr %i, align 4
  br label %for.cond, !llvm.loop !11

for.end:                                          ; preds = %for.cond
  store i32 0, ptr %i6, align 4
  br label %for.cond7

for.cond7:                                        ; preds = %for.inc13, %for.end
  %8 = load i32, ptr %i6, align 4
  %m_elems8 = getelementptr inbounds %"class.datalog::vector_relation", ptr %this1, i32 0, i32 2
  %9 = load ptr, ptr %m_elems8, align 8
  %call9 = call noundef i32 @_ZNK6vectorI12old_intervalLb1EjE4sizeEv(ptr noundef nonnull align 8 dereferenceable(8) %9)
  %cmp10 = icmp ult i32 %8, %call9
  br i1 %cmp10, label %for.body11, label %for.end15

for.body11:                                       ; preds = %for.cond7
  %10 = load i32, ptr %i6, align 4
  %11 = load i32, ptr %i6, align 4
  %call12 = call noundef i32 @_ZNK7datalog15vector_relationI12old_intervalNS_22vector_relation_helperIS1_EEE4findEj(ptr noundef nonnull align 8 dereferenceable(224) %this1, i32 noundef %11)
  call void @_ZN7datalog15vector_relationI12old_intervalNS_22vector_relation_helperIS1_EEE5mergeEjj(ptr noundef nonnull align 8 dereferenceable(224) %this1, i32 noundef %10, i32 noundef %call12)
  br label %for.inc13

for.inc13:                                        ; preds = %for.body11
  %12 = load i32, ptr %i6, align 4
  %inc14 = add i32 %12, 1
  store i32 %inc14, ptr %i6, align 4
  br label %for.cond7, !llvm.loop !12

for.end15:                                        ; preds = %for.cond7, %if.then
  ret void
}

; Function Attrs: mustprogress uwtable
define hidden noundef ptr @_ZNK7datalog17interval_relation10complementEP9func_decl(ptr noundef nonnull align 8 dereferenceable(224) %this, ptr noundef %0) unnamed_addr #4 align 2 {
entry:
  %this.addr = alloca ptr, align 8
  %.addr = alloca ptr, align 8
  store ptr %this, ptr %this.addr, align 8
  store ptr %0, ptr %.addr, align 8
  call void @_Z26notify_assertion_violationPKciS0_(ptr noundef @.str, i32 noundef 367, ptr noundef @.str.1)
  call void @exit(i32 noundef 114) #15
  unreachable
}

declare void @_Z26notify_assertion_violationPKciS0_(ptr noundef, i32 noundef, ptr noundef) #1

; Function Attrs: noreturn nounwind
declare void @exit(i32 noundef) #7

; Function Attrs: mustprogress uwtable
define hidden void @_ZNK7datalog17interval_relation10to_formulaER7obj_refI4expr11ast_managerE(ptr noundef nonnull align 8 dereferenceable(224) %this, ptr noundef nonnull align 8 dereferenceable(16) %fml) unnamed_addr #4 align 2 personality ptr @__gxx_personality_v0 {
entry:
  %this.addr = alloca ptr, align 8
  %fml.addr = alloca ptr, align 8
  %m = alloca ptr, align 8
  %arith = alloca ptr, align 8
  %conjs = alloca %class.ref_vector.68, align 8
  %sig = alloca ptr, align 8
  %exn.slot = alloca ptr, align 8
  %ehselector.slot = alloca i32, align 4
  %i = alloca i32, align 4
  %iv = alloca ptr, align 8
  %ty = alloca ptr, align 8
  %var = alloca %class.obj_ref.73, align 8
  %lo = alloca ptr, align 8
  %hi = alloca ptr, align 8
  %br = alloca %class.bool_rewriter, align 8
  %ref.tmp = alloca %class.params_ref, align 8
  store ptr %this, ptr %this.addr, align 8
  store ptr %fml, ptr %fml.addr, align 8
  %this1 = load ptr, ptr %this.addr, align 8
  %call = call noundef nonnull align 8 dereferenceable(240) ptr @_ZNK7datalog17interval_relation10get_pluginEv(ptr noundef nonnull align 8 dereferenceable(224) %this1)
  %call2 = call noundef nonnull align 8 dereferenceable(976) ptr @_ZNK7datalog17tr_infrastructureINS_15relation_traitsEE13plugin_object15get_ast_managerEv(ptr noundef nonnull align 8 dereferenceable(32) %call)
  store ptr %call2, ptr %m, align 8
  %call3 = call noundef nonnull align 8 dereferenceable(240) ptr @_ZNK7datalog17interval_relation10get_pluginEv(ptr noundef nonnull align 8 dereferenceable(224) %this1)
  %m_arith = getelementptr inbounds %"class.datalog::interval_relation_plugin", ptr %call3, i32 0, i32 3
  store ptr %m_arith, ptr %arith, align 8
  %0 = load ptr, ptr %m, align 8
  call void @_ZN10ref_vectorI4expr11ast_managerEC2ERS1_(ptr noundef nonnull align 8 dereferenceable(16) %conjs, ptr noundef nonnull align 8 dereferenceable(976) %0)
  %call4 = invoke noundef nonnull align 8 dereferenceable(8) ptr @_ZNK7datalog17tr_infrastructureINS_15relation_traitsEE13base_ancestor13get_signatureEv(ptr noundef nonnull align 8 dereferenceable(28) %this1)
          to label %invoke.cont unwind label %lpad

invoke.cont:                                      ; preds = %entry
  store ptr %call4, ptr %sig, align 8
  store i32 0, ptr %i, align 4
  br label %for.cond

for.cond:                                         ; preds = %for.inc, %invoke.cont
  %1 = load i32, ptr %i, align 4
  %2 = load ptr, ptr %sig, align 8
  %call6 = invoke noundef i32 @_ZNK6vectorIP4sortLb0EjE4sizeEv(ptr noundef nonnull align 8 dereferenceable(8) %2)
          to label %invoke.cont5 unwind label %lpad

invoke.cont5:                                     ; preds = %for.cond
  %cmp = icmp ult i32 %1, %call6
  br i1 %cmp, label %for.body, label %for.end

for.body:                                         ; preds = %invoke.cont5
  %3 = load i32, ptr %i, align 4
  %4 = load i32, ptr %i, align 4
  %call8 = invoke noundef i32 @_ZNK7datalog15vector_relationI12old_intervalNS_22vector_relation_helperIS1_EEE4findEj(ptr noundef nonnull align 8 dereferenceable(224) %this1, i32 noundef %4)
          to label %invoke.cont7 unwind label %lpad

invoke.cont7:                                     ; preds = %for.body
  %cmp9 = icmp ne i32 %3, %call8
  br i1 %cmp9, label %if.then, label %if.end

if.then:                                          ; preds = %invoke.cont7
  %5 = load ptr, ptr %m, align 8
  %6 = load ptr, ptr %m, align 8
  %7 = load i32, ptr %i, align 4
  %8 = load ptr, ptr %sig, align 8
  %9 = load i32, ptr %i, align 4
  %call11 = invoke noundef nonnull align 8 dereferenceable(8) ptr @_ZNK6vectorIP4sortLb0EjEixEj(ptr noundef nonnull align 8 dereferenceable(8) %8, i32 noundef %9)
          to label %invoke.cont10 unwind label %lpad

invoke.cont10:                                    ; preds = %if.then
  %10 = load ptr, ptr %call11, align 8
  %call13 = invoke noundef ptr @_ZN11ast_manager6mk_varEjP4sort(ptr noundef nonnull align 8 dereferenceable(976) %6, i32 noundef %7, ptr noundef %10)
          to label %invoke.cont12 unwind label %lpad

invoke.cont12:                                    ; preds = %invoke.cont10
  %11 = load ptr, ptr %m, align 8
  %12 = load i32, ptr %i, align 4
  %call15 = invoke noundef i32 @_ZNK7datalog15vector_relationI12old_intervalNS_22vector_relation_helperIS1_EEE4findEj(ptr noundef nonnull align 8 dereferenceable(224) %this1, i32 noundef %12)
          to label %invoke.cont14 unwind label %lpad

invoke.cont14:                                    ; preds = %invoke.cont12
  %13 = load ptr, ptr %sig, align 8
  %14 = load i32, ptr %i, align 4
  %call17 = invoke noundef i32 @_ZNK7datalog15vector_relationI12old_intervalNS_22vector_relation_helperIS1_EEE4findEj(ptr noundef nonnull align 8 dereferenceable(224) %this1, i32 noundef %14)
          to label %invoke.cont16 unwind label %lpad

invoke.cont16:                                    ; preds = %invoke.cont14
  %call19 = invoke noundef nonnull align 8 dereferenceable(8) ptr @_ZNK6vectorIP4sortLb0EjEixEj(ptr noundef nonnull align 8 dereferenceable(8) %13, i32 noundef %call17)
          to label %invoke.cont18 unwind label %lpad

invoke.cont18:                                    ; preds = %invoke.cont16
  %15 = load ptr, ptr %call19, align 8
  %call21 = invoke noundef ptr @_ZN11ast_manager6mk_varEjP4sort(ptr noundef nonnull align 8 dereferenceable(976) %11, i32 noundef %call15, ptr noundef %15)
          to label %invoke.cont20 unwind label %lpad

invoke.cont20:                                    ; preds = %invoke.cont18
  %call23 = invoke noundef ptr @_ZN11ast_manager5mk_eqEP4exprS1_(ptr noundef nonnull align 8 dereferenceable(976) %5, ptr noundef %call13, ptr noundef %call21)
          to label %invoke.cont22 unwind label %lpad

invoke.cont22:                                    ; preds = %invoke.cont20
  %call25 = invoke noundef nonnull align 8 dereferenceable(16) ptr @_ZN15ref_vector_coreI4expr19ref_manager_wrapperIS0_11ast_managerEE9push_backEPS0_(ptr noundef nonnull align 8 dereferenceable(16) %conjs, ptr noundef %call23)
          to label %invoke.cont24 unwind label %lpad

invoke.cont24:                                    ; preds = %invoke.cont22
  br label %for.inc

lpad:                                             ; preds = %for.end, %invoke.cont30, %invoke.cont28, %invoke.cont26, %if.end, %invoke.cont22, %invoke.cont20, %invoke.cont18, %invoke.cont16, %invoke.cont14, %invoke.cont12, %invoke.cont10, %if.then, %for.body, %for.cond, %entry
  %16 = landingpad { ptr, i32 }
          cleanup
  %17 = extractvalue { ptr, i32 } %16, 0
  store ptr %17, ptr %exn.slot, align 8
  %18 = extractvalue { ptr, i32 } %16, 1
  store i32 %18, ptr %ehselector.slot, align 4
  br label %ehcleanup

if.end:                                           ; preds = %invoke.cont7
  %19 = load i32, ptr %i, align 4
  %call27 = invoke noundef nonnull align 8 dereferenceable(112) ptr @_ZNK7datalog15vector_relationI12old_intervalNS_22vector_relation_helperIS1_EEEixEj(ptr noundef nonnull align 8 dereferenceable(224) %this1, i32 noundef %19)
          to label %invoke.cont26 unwind label %lpad

invoke.cont26:                                    ; preds = %if.end
  store ptr %call27, ptr %iv, align 8
  %20 = load ptr, ptr %sig, align 8
  %21 = load i32, ptr %i, align 4
  %call29 = invoke noundef nonnull align 8 dereferenceable(8) ptr @_ZNK6vectorIP4sortLb0EjEixEj(ptr noundef nonnull align 8 dereferenceable(8) %20, i32 noundef %21)
          to label %invoke.cont28 unwind label %lpad

invoke.cont28:                                    ; preds = %invoke.cont26
  %22 = load ptr, ptr %call29, align 8
  store ptr %22, ptr %ty, align 8
  %23 = load ptr, ptr %m, align 8
  %24 = load i32, ptr %i, align 4
  %25 = load ptr, ptr %ty, align 8
  %call31 = invoke noundef ptr @_ZN11ast_manager6mk_varEjP4sort(ptr noundef nonnull align 8 dereferenceable(976) %23, i32 noundef %24, ptr noundef %25)
          to label %invoke.cont30 unwind label %lpad

invoke.cont30:                                    ; preds = %invoke.cont28
  %26 = load ptr, ptr %m, align 8
  invoke void @_ZN7obj_refI4expr11ast_managerEC2EPS0_RS1_(ptr noundef nonnull align 8 dereferenceable(16) %var, ptr noundef %call31, ptr noundef nonnull align 8 dereferenceable(976) %26)
          to label %invoke.cont32 unwind label %lpad

invoke.cont32:                                    ; preds = %invoke.cont30
  %27 = load ptr, ptr %iv, align 8
  %call35 = invoke noundef zeroext i1 @_ZNK12old_interval14minus_infinityEv(ptr noundef nonnull align 8 dereferenceable(112) %27)
          to label %invoke.cont34 unwind label %lpad33

invoke.cont34:                                    ; preds = %invoke.cont32
  br i1 %call35, label %if.end57, label %if.then36

if.then36:                                        ; preds = %invoke.cont34
  %28 = load ptr, ptr %arith, align 8
  %29 = load ptr, ptr %iv, align 8
  %call38 = invoke noundef nonnull align 8 dereferenceable(32) ptr @_ZNK12old_interval15get_lower_valueEv(ptr noundef nonnull align 8 dereferenceable(112) %29)
          to label %invoke.cont37 unwind label %lpad33

invoke.cont37:                                    ; preds = %if.then36
  %30 = load ptr, ptr %ty, align 8
  %call40 = invoke noundef ptr @_ZNK10arith_util10mk_numeralERK8rationalPK4sort(ptr noundef nonnull align 8 dereferenceable(16) %28, ptr noundef nonnull align 8 dereferenceable(32) %call38, ptr noundef %30)
          to label %invoke.cont39 unwind label %lpad33

invoke.cont39:                                    ; preds = %invoke.cont37
  store ptr %call40, ptr %lo, align 8
  %31 = load ptr, ptr %iv, align 8
  %call42 = invoke noundef zeroext i1 @_ZNK12old_interval13is_lower_openEv(ptr noundef nonnull align 8 dereferenceable(112) %31)
          to label %invoke.cont41 unwind label %lpad33

invoke.cont41:                                    ; preds = %invoke.cont39
  br i1 %call42, label %if.then43, label %if.else

if.then43:                                        ; preds = %invoke.cont41
  %32 = load ptr, ptr %arith, align 8
  %33 = load ptr, ptr %lo, align 8
  %call45 = invoke noundef ptr @_ZNK7obj_refI4expr11ast_managerEcvPS0_Ev(ptr noundef nonnull align 8 dereferenceable(16) %var)
          to label %invoke.cont44 unwind label %lpad33

invoke.cont44:                                    ; preds = %if.then43
  %call47 = invoke noundef ptr @_ZNK10arith_util5mk_ltEP4exprS1_(ptr noundef nonnull align 8 dereferenceable(16) %32, ptr noundef %33, ptr noundef %call45)
          to label %invoke.cont46 unwind label %lpad33

invoke.cont46:                                    ; preds = %invoke.cont44
  %call49 = invoke noundef nonnull align 8 dereferenceable(16) ptr @_ZN15ref_vector_coreI4expr19ref_manager_wrapperIS0_11ast_managerEE9push_backEPS0_(ptr noundef nonnull align 8 dereferenceable(16) %conjs, ptr noundef %call47)
          to label %invoke.cont48 unwind label %lpad33

invoke.cont48:                                    ; preds = %invoke.cont46
  br label %if.end56

lpad33:                                           ; preds = %invoke.cont77, %invoke.cont75, %if.else74, %invoke.cont70, %invoke.cont68, %if.then67, %invoke.cont63, %invoke.cont61, %if.then60, %if.end57, %invoke.cont52, %invoke.cont50, %if.else, %invoke.cont46, %invoke.cont44, %if.then43, %invoke.cont39, %invoke.cont37, %if.then36, %invoke.cont32
  %34 = landingpad { ptr, i32 }
          cleanup
  %35 = extractvalue { ptr, i32 } %34, 0
  store ptr %35, ptr %exn.slot, align 8
  %36 = extractvalue { ptr, i32 } %34, 1
  store i32 %36, ptr %ehselector.slot, align 4
  call void @_ZN7obj_refI4expr11ast_managerED2Ev(ptr noundef nonnull align 8 dereferenceable(16) %var) #3
  br label %ehcleanup

if.else:                                          ; preds = %invoke.cont41
  %37 = load ptr, ptr %arith, align 8
  %38 = load ptr, ptr %lo, align 8
  %call51 = invoke noundef ptr @_ZNK7obj_refI4expr11ast_managerEcvPS0_Ev(ptr noundef nonnull align 8 dereferenceable(16) %var)
          to label %invoke.cont50 unwind label %lpad33

invoke.cont50:                                    ; preds = %if.else
  %call53 = invoke noundef ptr @_ZNK10arith_util5mk_leEP4exprS1_(ptr noundef nonnull align 8 dereferenceable(16) %37, ptr noundef %38, ptr noundef %call51)
          to label %invoke.cont52 unwind label %lpad33

invoke.cont52:                                    ; preds = %invoke.cont50
  %call55 = invoke noundef nonnull align 8 dereferenceable(16) ptr @_ZN15ref_vector_coreI4expr19ref_manager_wrapperIS0_11ast_managerEE9push_backEPS0_(ptr noundef nonnull align 8 dereferenceable(16) %conjs, ptr noundef %call53)
          to label %invoke.cont54 unwind label %lpad33

invoke.cont54:                                    ; preds = %invoke.cont52
  br label %if.end56

if.end56:                                         ; preds = %invoke.cont54, %invoke.cont48
  br label %if.end57

if.end57:                                         ; preds = %if.end56, %invoke.cont34
  %39 = load ptr, ptr %iv, align 8
  %call59 = invoke noundef zeroext i1 @_ZNK12old_interval13plus_infinityEv(ptr noundef nonnull align 8 dereferenceable(112) %39)
          to label %invoke.cont58 unwind label %lpad33

invoke.cont58:                                    ; preds = %if.end57
  br i1 %call59, label %if.end82, label %if.then60

if.then60:                                        ; preds = %invoke.cont58
  %40 = load ptr, ptr %arith, align 8
  %41 = load ptr, ptr %iv, align 8
  %call62 = invoke noundef nonnull align 8 dereferenceable(32) ptr @_ZNK12old_interval15get_upper_valueEv(ptr noundef nonnull align 8 dereferenceable(112) %41)
          to label %invoke.cont61 unwind label %lpad33

invoke.cont61:                                    ; preds = %if.then60
  %42 = load ptr, ptr %ty, align 8
  %call64 = invoke noundef ptr @_ZNK10arith_util10mk_numeralERK8rationalPK4sort(ptr noundef nonnull align 8 dereferenceable(16) %40, ptr noundef nonnull align 8 dereferenceable(32) %call62, ptr noundef %42)
          to label %invoke.cont63 unwind label %lpad33

invoke.cont63:                                    ; preds = %invoke.cont61
  store ptr %call64, ptr %hi, align 8
  %43 = load ptr, ptr %iv, align 8
  %call66 = invoke noundef zeroext i1 @_ZNK12old_interval13is_upper_openEv(ptr noundef nonnull align 8 dereferenceable(112) %43)
          to label %invoke.cont65 unwind label %lpad33

invoke.cont65:                                    ; preds = %invoke.cont63
  br i1 %call66, label %if.then67, label %if.else74

if.then67:                                        ; preds = %invoke.cont65
  %44 = load ptr, ptr %arith, align 8
  %call69 = invoke noundef ptr @_ZNK7obj_refI4expr11ast_managerEcvPS0_Ev(ptr noundef nonnull align 8 dereferenceable(16) %var)
          to label %invoke.cont68 unwind label %lpad33

invoke.cont68:                                    ; preds = %if.then67
  %45 = load ptr, ptr %hi, align 8
  %call71 = invoke noundef ptr @_ZNK10arith_util5mk_ltEP4exprS1_(ptr noundef nonnull align 8 dereferenceable(16) %44, ptr noundef %call69, ptr noundef %45)
          to label %invoke.cont70 unwind label %lpad33

invoke.cont70:                                    ; preds = %invoke.cont68
  %call73 = invoke noundef nonnull align 8 dereferenceable(16) ptr @_ZN15ref_vector_coreI4expr19ref_manager_wrapperIS0_11ast_managerEE9push_backEPS0_(ptr noundef nonnull align 8 dereferenceable(16) %conjs, ptr noundef %call71)
          to label %invoke.cont72 unwind label %lpad33

invoke.cont72:                                    ; preds = %invoke.cont70
  br label %if.end81

if.else74:                                        ; preds = %invoke.cont65
  %46 = load ptr, ptr %arith, align 8
  %call76 = invoke noundef ptr @_ZNK7obj_refI4expr11ast_managerEcvPS0_Ev(ptr noundef nonnull align 8 dereferenceable(16) %var)
          to label %invoke.cont75 unwind label %lpad33

invoke.cont75:                                    ; preds = %if.else74
  %47 = load ptr, ptr %hi, align 8
  %call78 = invoke noundef ptr @_ZNK10arith_util5mk_leEP4exprS1_(ptr noundef nonnull align 8 dereferenceable(16) %46, ptr noundef %call76, ptr noundef %47)
          to label %invoke.cont77 unwind label %lpad33

invoke.cont77:                                    ; preds = %invoke.cont75
  %call80 = invoke noundef nonnull align 8 dereferenceable(16) ptr @_ZN15ref_vector_coreI4expr19ref_manager_wrapperIS0_11ast_managerEE9push_backEPS0_(ptr noundef nonnull align 8 dereferenceable(16) %conjs, ptr noundef %call78)
          to label %invoke.cont79 unwind label %lpad33

invoke.cont79:                                    ; preds = %invoke.cont77
  br label %if.end81

if.end81:                                         ; preds = %invoke.cont79, %invoke.cont72
  br label %if.end82

if.end82:                                         ; preds = %if.end81, %invoke.cont58
  call void @_ZN7obj_refI4expr11ast_managerED2Ev(ptr noundef nonnull align 8 dereferenceable(16) %var) #3
  br label %for.inc

for.inc:                                          ; preds = %if.end82, %invoke.cont24
  %48 = load i32, ptr %i, align 4
  %inc = add i32 %48, 1
  store i32 %inc, ptr %i, align 4
  br label %for.cond, !llvm.loop !13

for.end:                                          ; preds = %invoke.cont5
  %49 = load ptr, ptr %m, align 8
  invoke void @_ZN10params_refC2Ev(ptr noundef nonnull align 8 dereferenceable(8) %ref.tmp)
          to label %invoke.cont83 unwind label %lpad

invoke.cont83:                                    ; preds = %for.end
  invoke void @_ZN13bool_rewriterC2ER11ast_managerRK10params_ref(ptr noundef nonnull align 8 dereferenceable(72) %br, ptr noundef nonnull align 8 dereferenceable(976) %49, ptr noundef nonnull align 8 dereferenceable(8) %ref.tmp)
          to label %invoke.cont85 unwind label %lpad84

invoke.cont85:                                    ; preds = %invoke.cont83
  call void @_ZN10params_refD1Ev(ptr noundef nonnull align 8 dereferenceable(8) %ref.tmp) #3
  %call88 = invoke noundef i32 @_ZNK15ref_vector_coreI4expr19ref_manager_wrapperIS0_11ast_managerEE4sizeEv(ptr noundef nonnull align 8 dereferenceable(16) %conjs)
          to label %invoke.cont87 unwind label %lpad86

invoke.cont87:                                    ; preds = %invoke.cont85
  %call90 = invoke noundef ptr @_ZN15ref_vector_coreI4expr19ref_manager_wrapperIS0_11ast_managerEE4dataEv(ptr noundef nonnull align 8 dereferenceable(16) %conjs)
          to label %invoke.cont89 unwind label %lpad86

invoke.cont89:                                    ; preds = %invoke.cont87
  %50 = load ptr, ptr %fml.addr, align 8
  invoke void @_ZN13bool_rewriter6mk_andEjPKP4exprR7obj_refIS0_11ast_managerE(ptr noundef nonnull align 8 dereferenceable(72) %br, i32 noundef %call88, ptr noundef %call90, ptr noundef nonnull align 8 dereferenceable(16) %50)
          to label %invoke.cont91 unwind label %lpad86

invoke.cont91:                                    ; preds = %invoke.cont89
  call void @_ZN13bool_rewriterD2Ev(ptr noundef nonnull align 8 dereferenceable(72) %br) #3
  call void @_ZN10ref_vectorI4expr11ast_managerED2Ev(ptr noundef nonnull align 8 dereferenceable(16) %conjs) #3
  ret void

lpad84:                                           ; preds = %invoke.cont83
  %51 = landingpad { ptr, i32 }
          cleanup
  %52 = extractvalue { ptr, i32 } %51, 0
  store ptr %52, ptr %exn.slot, align 8
  %53 = extractvalue { ptr, i32 } %51, 1
  store i32 %53, ptr %ehselector.slot, align 4
  call void @_ZN10params_refD1Ev(ptr noundef nonnull align 8 dereferenceable(8) %ref.tmp) #3
  br label %ehcleanup

lpad86:                                           ; preds = %invoke.cont89, %invoke.cont87, %invoke.cont85
  %54 = landingpad { ptr, i32 }
          cleanup
  %55 = extractvalue { ptr, i32 } %54, 0
  store ptr %55, ptr %exn.slot, align 8
  %56 = extractvalue { ptr, i32 } %54, 1
  store i32 %56, ptr %ehselector.slot, align 4
  call void @_ZN13bool_rewriterD2Ev(ptr noundef nonnull align 8 dereferenceable(72) %br) #3
  br label %ehcleanup

ehcleanup:                                        ; preds = %lpad86, %lpad84, %lpad33, %lpad
  call void @_ZN10ref_vectorI4expr11ast_managerED2Ev(ptr noundef nonnull align 8 dereferenceable(16) %conjs) #3
  br label %eh.resume

eh.resume:                                        ; preds = %ehcleanup
  %exn = load ptr, ptr %exn.slot, align 8
  %sel = load i32, ptr %ehselector.slot, align 4
  %lpad.val = insertvalue { ptr, i32 } poison, ptr %exn, 0
  %lpad.val92 = insertvalue { ptr, i32 } %lpad.val, i32 %sel, 1
  resume { ptr, i32 } %lpad.val92
}

; Function Attrs: mustprogress uwtable
define linkonce_odr hidden void @_ZN10ref_vectorI4expr11ast_managerEC2ERS1_(ptr noundef nonnull align 8 dereferenceable(16) %this, ptr noundef nonnull align 8 dereferenceable(976) %m) unnamed_addr #4 comdat align 2 {
entry:
  %this.addr = alloca ptr, align 8
  %m.addr = alloca ptr, align 8
  %ref.tmp = alloca %class.ref_manager_wrapper.70, align 8
  store ptr %this, ptr %this.addr, align 8
  store ptr %m, ptr %m.addr, align 8
  %this1 = load ptr, ptr %this.addr, align 8
  %0 = load ptr, ptr %m.addr, align 8
  call void @_ZN19ref_manager_wrapperI4expr11ast_managerEC2ERS1_(ptr noundef nonnull align 8 dereferenceable(8) %ref.tmp, ptr noundef nonnull align 8 dereferenceable(976) %0)
  call void @_ZN15ref_vector_coreI4expr19ref_manager_wrapperIS0_11ast_managerEEC2ERKS3_(ptr noundef nonnull align 8 dereferenceable(16) %this1, ptr noundef nonnull align 8 dereferenceable(8) %ref.tmp)
  ret void
}

; Function Attrs: mustprogress uwtable
define linkonce_odr hidden noundef nonnull align 8 dereferenceable(16) ptr @_ZN15ref_vector_coreI4expr19ref_manager_wrapperIS0_11ast_managerEE9push_backEPS0_(ptr noundef nonnull align 8 dereferenceable(16) %this, ptr noundef %n) #4 comdat align 2 {
entry:
  %this.addr = alloca ptr, align 8
  %n.addr = alloca ptr, align 8
  store ptr %this, ptr %this.addr, align 8
  store ptr %n, ptr %n.addr, align 8
  %this1 = load ptr, ptr %this.addr, align 8
  %0 = load ptr, ptr %n.addr, align 8
  call void @_ZN15ref_vector_coreI4expr19ref_manager_wrapperIS0_11ast_managerEE7inc_refEPS0_(ptr noundef nonnull align 8 dereferenceable(16) %this1, ptr noundef %0)
  %m_nodes = getelementptr inbounds %class.ref_vector_core.69, ptr %this1, i32 0, i32 1
  %call = call noundef nonnull align 8 dereferenceable(8) ptr @_ZN6vectorIP4exprLb0EjE9push_backERKS1_(ptr noundef nonnull align 8 dereferenceable(8) %m_nodes, ptr noundef nonnull align 8 dereferenceable(8) %n.addr)
  ret ptr %this1
}

; Function Attrs: mustprogress uwtable
define linkonce_odr hidden void @_ZN7obj_refI4expr11ast_managerEC2EPS0_RS1_(ptr noundef nonnull align 8 dereferenceable(16) %this, ptr noundef %n, ptr noundef nonnull align 8 dereferenceable(976) %m) unnamed_addr #4 comdat align 2 {
entry:
  %this.addr = alloca ptr, align 8
  %n.addr = alloca ptr, align 8
  %m.addr = alloca ptr, align 8
  store ptr %this, ptr %this.addr, align 8
  store ptr %n, ptr %n.addr, align 8
  store ptr %m, ptr %m.addr, align 8
  %this1 = load ptr, ptr %this.addr, align 8
  %m_obj = getelementptr inbounds %class.obj_ref.73, ptr %this1, i32 0, i32 0
  %0 = load ptr, ptr %n.addr, align 8
  store ptr %0, ptr %m_obj, align 8
  %m_manager = getelementptr inbounds %class.obj_ref.73, ptr %this1, i32 0, i32 1
  %1 = load ptr, ptr %m.addr, align 8
  store ptr %1, ptr %m_manager, align 8
  call void @_ZN7obj_refI4expr11ast_managerE7inc_refEv(ptr noundef nonnull align 8 dereferenceable(16) %this1)
  ret void
}

; Function Attrs: mustprogress uwtable
define linkonce_odr hidden noundef ptr @_ZNK10arith_util10mk_numeralERK8rationalPK4sort(ptr noundef nonnull align 8 dereferenceable(16) %this, ptr noundef nonnull align 8 dereferenceable(32) %val, ptr noundef %s) #4 comdat align 2 {
entry:
  %this.addr = alloca ptr, align 8
  %val.addr = alloca ptr, align 8
  %s.addr = alloca ptr, align 8
  store ptr %this, ptr %this.addr, align 8
  store ptr %val, ptr %val.addr, align 8
  store ptr %s, ptr %s.addr, align 8
  %this1 = load ptr, ptr %this.addr, align 8
  %0 = load ptr, ptr %val.addr, align 8
  %1 = load ptr, ptr %s.addr, align 8
  %call = call noundef zeroext i1 @_ZNK17arith_recognizers6is_intEPK4sort(ptr noundef nonnull align 1 dereferenceable(1) %this1, ptr noundef %1)
  %call2 = call noundef ptr @_ZNK10arith_util10mk_numeralERK8rationalb(ptr noundef nonnull align 8 dereferenceable(16) %this1, ptr noundef nonnull align 8 dereferenceable(32) %0, i1 noundef zeroext %call)
  ret ptr %call2
}

; Function Attrs: mustprogress uwtable
define linkonce_odr hidden noundef nonnull align 8 dereferenceable(32) ptr @_ZNK12old_interval15get_lower_valueEv(ptr noundef nonnull align 8 dereferenceable(112) %this) #4 comdat align 2 {
entry:
  %this.addr = alloca ptr, align 8
  store ptr %this, ptr %this.addr, align 8
  %this1 = load ptr, ptr %this.addr, align 8
  %m_lower = getelementptr inbounds %class.old_interval, ptr %this1, i32 0, i32 1
  %call = call noundef nonnull align 8 dereferenceable(32) ptr @_ZNK11ext_numeral11to_rationalEv(ptr noundef nonnull align 8 dereferenceable(40) %m_lower)
  ret ptr %call
}

; Function Attrs: mustprogress uwtable
define linkonce_odr hidden noundef ptr @_ZNK10arith_util5mk_ltEP4exprS1_(ptr noundef nonnull align 8 dereferenceable(16) %this, ptr noundef %arg1, ptr noundef %arg2) #4 comdat align 2 {
entry:
  %this.addr = alloca ptr, align 8
  %arg1.addr = alloca ptr, align 8
  %arg2.addr = alloca ptr, align 8
  store ptr %this, ptr %this.addr, align 8
  store ptr %arg1, ptr %arg1.addr, align 8
  store ptr %arg2, ptr %arg2.addr, align 8
  %this1 = load ptr, ptr %this.addr, align 8
  %m_manager = getelementptr inbounds %class.arith_util, ptr %this1, i32 0, i32 0
  %0 = load ptr, ptr %m_manager, align 8
  %1 = load ptr, ptr %arg1.addr, align 8
  %2 = load ptr, ptr %arg2.addr, align 8
  %call = call noundef ptr @_ZN11ast_manager6mk_appEiiP4exprS1_(ptr noundef nonnull align 8 dereferenceable(976) %0, i32 noundef 5, i32 noundef 4, ptr noundef %1, ptr noundef %2)
  ret ptr %call
}

; Function Attrs: mustprogress nounwind uwtable
define linkonce_odr hidden noundef ptr @_ZNK7obj_refI4expr11ast_managerEcvPS0_Ev(ptr noundef nonnull align 8 dereferenceable(16) %this) #5 comdat align 2 {
entry:
  %this.addr = alloca ptr, align 8
  store ptr %this, ptr %this.addr, align 8
  %this1 = load ptr, ptr %this.addr, align 8
  %m_obj = getelementptr inbounds %class.obj_ref.73, ptr %this1, i32 0, i32 0
  %0 = load ptr, ptr %m_obj, align 8
  ret ptr %0
}

; Function Attrs: mustprogress uwtable
define linkonce_odr hidden noundef ptr @_ZNK10arith_util5mk_leEP4exprS1_(ptr noundef nonnull align 8 dereferenceable(16) %this, ptr noundef %arg1, ptr noundef %arg2) #4 comdat align 2 {
entry:
  %this.addr = alloca ptr, align 8
  %arg1.addr = alloca ptr, align 8
  %arg2.addr = alloca ptr, align 8
  store ptr %this, ptr %this.addr, align 8
  store ptr %arg1, ptr %arg1.addr, align 8
  store ptr %arg2, ptr %arg2.addr, align 8
  %this1 = load ptr, ptr %this.addr, align 8
  %m_manager = getelementptr inbounds %class.arith_util, ptr %this1, i32 0, i32 0
  %0 = load ptr, ptr %m_manager, align 8
  %1 = load ptr, ptr %arg1.addr, align 8
  %2 = load ptr, ptr %arg2.addr, align 8
  %call = call noundef ptr @_ZN11ast_manager6mk_appEiiP4exprS1_(ptr noundef nonnull align 8 dereferenceable(976) %0, i32 noundef 5, i32 noundef 2, ptr noundef %1, ptr noundef %2)
  ret ptr %call
}

; Function Attrs: mustprogress uwtable
define linkonce_odr hidden noundef nonnull align 8 dereferenceable(32) ptr @_ZNK12old_interval15get_upper_valueEv(ptr noundef nonnull align 8 dereferenceable(112) %this) #4 comdat align 2 {
entry:
  %this.addr = alloca ptr, align 8
  store ptr %this, ptr %this.addr, align 8
  %this1 = load ptr, ptr %this.addr, align 8
  %m_upper = getelementptr inbounds %class.old_interval, ptr %this1, i32 0, i32 2
  %call = call noundef nonnull align 8 dereferenceable(32) ptr @_ZNK11ext_numeral11to_rationalEv(ptr noundef nonnull align 8 dereferenceable(40) %m_upper)
  ret ptr %call
}

; Function Attrs: mustprogress nounwind uwtable
define linkonce_odr hidden void @_ZN7obj_refI4expr11ast_managerED2Ev(ptr noundef nonnull align 8 dereferenceable(16) %this) unnamed_addr #5 comdat align 2 personality ptr @__gxx_personality_v0 {
entry:
  %this.addr = alloca ptr, align 8
  store ptr %this, ptr %this.addr, align 8
  %this1 = load ptr, ptr %this.addr, align 8
  invoke void @_ZN7obj_refI4expr11ast_managerE7dec_refEv(ptr noundef nonnull align 8 dereferenceable(16) %this1)
          to label %invoke.cont unwind label %terminate.lpad

invoke.cont:                                      ; preds = %entry
  ret void

terminate.lpad:                                   ; preds = %entry
  %0 = landingpad { ptr, i32 }
          catch ptr null
  %1 = extractvalue { ptr, i32 } %0, 0
  call void @__clang_call_terminate(ptr %1) #15
  unreachable
}

; Function Attrs: mustprogress nounwind uwtable
define linkonce_odr hidden void @_ZN10params_refC2Ev(ptr noundef nonnull align 8 dereferenceable(8) %this) unnamed_addr #5 comdat align 2 {
entry:
  %this.addr = alloca ptr, align 8
  store ptr %this, ptr %this.addr, align 8
  %this1 = load ptr, ptr %this.addr, align 8
  %m_params = getelementptr inbounds %class.params_ref, ptr %this1, i32 0, i32 0
  store ptr null, ptr %m_params, align 8
  ret void
}

; Function Attrs: mustprogress uwtable
define linkonce_odr hidden void @_ZN13bool_rewriterC2ER11ast_managerRK10params_ref(ptr noundef nonnull align 8 dereferenceable(72) %this, ptr noundef nonnull align 8 dereferenceable(976) %m, ptr noundef nonnull align 8 dereferenceable(8) %p) unnamed_addr #4 comdat align 2 personality ptr @__gxx_personality_v0 {
entry:
  %this.addr = alloca ptr, align 8
  %m.addr = alloca ptr, align 8
  %p.addr = alloca ptr, align 8
  %exn.slot = alloca ptr, align 8
  %ehselector.slot = alloca i32, align 4
  store ptr %this, ptr %this.addr, align 8
  store ptr %m, ptr %m.addr, align 8
  store ptr %p, ptr %p.addr, align 8
  %this1 = load ptr, ptr %this.addr, align 8
  %m_manager = getelementptr inbounds %class.bool_rewriter, ptr %this1, i32 0, i32 0
  %0 = load ptr, ptr %m.addr, align 8
  store ptr %0, ptr %m_manager, align 8
  %m_flat_and_or = getelementptr inbounds %class.bool_rewriter, ptr %this1, i32 0, i32 1
  store i8 0, ptr %m_flat_and_or, align 8
  %m_sort_disjunctions = getelementptr inbounds %class.bool_rewriter, ptr %this1, i32 0, i32 2
  store i8 1, ptr %m_sort_disjunctions, align 1
  %m_local_ctx = getelementptr inbounds %class.bool_rewriter, ptr %this1, i32 0, i32 3
  store i8 0, ptr %m_local_ctx, align 2
  %m_elim_and = getelementptr inbounds %class.bool_rewriter, ptr %this1, i32 0, i32 4
  store i8 0, ptr %m_elim_and, align 1
  %m_blast_distinct = getelementptr inbounds %class.bool_rewriter, ptr %this1, i32 0, i32 5
  store i8 0, ptr %m_blast_distinct, align 4
  %m_order_eq = getelementptr inbounds %class.bool_rewriter, ptr %this1, i32 0, i32 6
  store i8 0, ptr %m_order_eq, align 1
  %m_local_ctx_cost = getelementptr inbounds %class.bool_rewriter, ptr %this1, i32 0, i32 10
  store i32 0, ptr %m_local_ctx_cost, align 4
  %m_todo1 = getelementptr inbounds %class.bool_rewriter, ptr %this1, i32 0, i32 12
  call void @_ZN10ptr_vectorI4exprEC2Ev(ptr noundef nonnull align 8 dereferenceable(8) %m_todo1)
  %m_todo2 = getelementptr inbounds %class.bool_rewriter, ptr %this1, i32 0, i32 13
  invoke void @_ZN10ptr_vectorI4exprEC2Ev(ptr noundef nonnull align 8 dereferenceable(8) %m_todo2)
          to label %invoke.cont unwind label %lpad

invoke.cont:                                      ; preds = %entry
  %m_counts1 = getelementptr inbounds %class.bool_rewriter, ptr %this1, i32 0, i32 14
  invoke void @_ZN7svectorIjjEC2Ev(ptr noundef nonnull align 8 dereferenceable(8) %m_counts1)
          to label %invoke.cont3 unwind label %lpad2

invoke.cont3:                                     ; preds = %invoke.cont
  %m_counts2 = getelementptr inbounds %class.bool_rewriter, ptr %this1, i32 0, i32 15
  invoke void @_ZN7svectorIjjEC2Ev(ptr noundef nonnull align 8 dereferenceable(8) %m_counts2)
          to label %invoke.cont5 unwind label %lpad4

invoke.cont5:                                     ; preds = %invoke.cont3
  %1 = load ptr, ptr %p.addr, align 8
  invoke void @_ZN13bool_rewriter11updt_paramsERK10params_ref(ptr noundef nonnull align 8 dereferenceable(72) %this1, ptr noundef nonnull align 8 dereferenceable(8) %1)
          to label %invoke.cont7 unwind label %lpad6

invoke.cont7:                                     ; preds = %invoke.cont5
  ret void

lpad:                                             ; preds = %entry
  %2 = landingpad { ptr, i32 }
          cleanup
  %3 = extractvalue { ptr, i32 } %2, 0
  store ptr %3, ptr %exn.slot, align 8
  %4 = extractvalue { ptr, i32 } %2, 1
  store i32 %4, ptr %ehselector.slot, align 4
  br label %ehcleanup9

lpad2:                                            ; preds = %invoke.cont
  %5 = landingpad { ptr, i32 }
          cleanup
  %6 = extractvalue { ptr, i32 } %5, 0
  store ptr %6, ptr %exn.slot, align 8
  %7 = extractvalue { ptr, i32 } %5, 1
  store i32 %7, ptr %ehselector.slot, align 4
  br label %ehcleanup8

lpad4:                                            ; preds = %invoke.cont3
  %8 = landingpad { ptr, i32 }
          cleanup
  %9 = extractvalue { ptr, i32 } %8, 0
  store ptr %9, ptr %exn.slot, align 8
  %10 = extractvalue { ptr, i32 } %8, 1
  store i32 %10, ptr %ehselector.slot, align 4
  br label %ehcleanup

lpad6:                                            ; preds = %invoke.cont5
  %11 = landingpad { ptr, i32 }
          cleanup
  %12 = extractvalue { ptr, i32 } %11, 0
  store ptr %12, ptr %exn.slot, align 8
  %13 = extractvalue { ptr, i32 } %11, 1
  store i32 %13, ptr %ehselector.slot, align 4
  call void @_ZN7svectorIjjED2Ev(ptr noundef nonnull align 8 dereferenceable(8) %m_counts2) #3
  br label %ehcleanup

ehcleanup:                                        ; preds = %lpad6, %lpad4
  call void @_ZN7svectorIjjED2Ev(ptr noundef nonnull align 8 dereferenceable(8) %m_counts1) #3
  br label %ehcleanup8

ehcleanup8:                                       ; preds = %ehcleanup, %lpad2
  call void @_ZN10ptr_vectorI4exprED2Ev(ptr noundef nonnull align 8 dereferenceable(8) %m_todo2) #3
  br label %ehcleanup9

ehcleanup9:                                       ; preds = %ehcleanup8, %lpad
  call void @_ZN10ptr_vectorI4exprED2Ev(ptr noundef nonnull align 8 dereferenceable(8) %m_todo1) #3
  br label %eh.resume

eh.resume:                                        ; preds = %ehcleanup9
  %exn = load ptr, ptr %exn.slot, align 8
  %sel = load i32, ptr %ehselector.slot, align 4
  %lpad.val = insertvalue { ptr, i32 } poison, ptr %exn, 0
  %lpad.val10 = insertvalue { ptr, i32 } %lpad.val, i32 %sel, 1
  resume { ptr, i32 } %lpad.val10
}

; Function Attrs: nounwind
declare void @_ZN10params_refD1Ev(ptr noundef nonnull align 8 dereferenceable(8)) unnamed_addr #2

; Function Attrs: mustprogress uwtable
define linkonce_odr hidden void @_ZN13bool_rewriter6mk_andEjPKP4exprR7obj_refIS0_11ast_managerE(ptr noundef nonnull align 8 dereferenceable(72) %this, i32 noundef %num_args, ptr noundef %args, ptr noundef nonnull align 8 dereferenceable(16) %result) #4 comdat align 2 {
entry:
  %this.addr = alloca ptr, align 8
  %num_args.addr = alloca i32, align 4
  %args.addr = alloca ptr, align 8
  %result.addr = alloca ptr, align 8
  store ptr %this, ptr %this.addr, align 8
  store i32 %num_args, ptr %num_args.addr, align 4
  store ptr %args, ptr %args.addr, align 8
  store ptr %result, ptr %result.addr, align 8
  %this1 = load ptr, ptr %this.addr, align 8
  %0 = load i32, ptr %num_args.addr, align 4
  %1 = load ptr, ptr %args.addr, align 8
  %2 = load ptr, ptr %result.addr, align 8
  %call = call noundef i32 @_ZN13bool_rewriter11mk_and_coreEjPKP4exprR7obj_refIS0_11ast_managerE(ptr noundef nonnull align 8 dereferenceable(72) %this1, i32 noundef %0, ptr noundef %1, ptr noundef nonnull align 8 dereferenceable(16) %2)
  %cmp = icmp eq i32 %call, 5
  br i1 %cmp, label %if.then, label %if.end

if.then:                                          ; preds = %entry
  %call2 = call noundef nonnull align 8 dereferenceable(976) ptr @_ZNK13bool_rewriter1mEv(ptr noundef nonnull align 8 dereferenceable(72) %this1)
  %3 = load i32, ptr %num_args.addr, align 4
  %4 = load ptr, ptr %args.addr, align 8
  %call3 = call noundef ptr @_ZN11ast_manager6mk_andEjPKP4expr(ptr noundef nonnull align 8 dereferenceable(976) %call2, i32 noundef %3, ptr noundef %4)
  %5 = load ptr, ptr %result.addr, align 8
  %call4 = call noundef nonnull align 8 dereferenceable(16) ptr @_ZN7obj_refI4expr11ast_managerEaSEPS0_(ptr noundef nonnull align 8 dereferenceable(16) %5, ptr noundef %call3)
  br label %if.end

if.end:                                           ; preds = %if.then, %entry
  ret void
}

; Function Attrs: mustprogress nounwind uwtable
define linkonce_odr hidden noundef i32 @_ZNK15ref_vector_coreI4expr19ref_manager_wrapperIS0_11ast_managerEE4sizeEv(ptr noundef nonnull align 8 dereferenceable(16) %this) #5 comdat align 2 {
entry:
  %this.addr = alloca ptr, align 8
  store ptr %this, ptr %this.addr, align 8
  %this1 = load ptr, ptr %this.addr, align 8
  %m_nodes = getelementptr inbounds %class.ref_vector_core.69, ptr %this1, i32 0, i32 1
  %call = call noundef i32 @_ZNK6vectorIP4exprLb0EjE4sizeEv(ptr noundef nonnull align 8 dereferenceable(8) %m_nodes)
  ret i32 %call
}

; Function Attrs: mustprogress nounwind uwtable
define linkonce_odr hidden noundef ptr @_ZN15ref_vector_coreI4expr19ref_manager_wrapperIS0_11ast_managerEE4dataEv(ptr noundef nonnull align 8 dereferenceable(16) %this) #5 comdat align 2 {
entry:
  %this.addr = alloca ptr, align 8
  store ptr %this, ptr %this.addr, align 8
  %this1 = load ptr, ptr %this.addr, align 8
  %m_nodes = getelementptr inbounds %class.ref_vector_core.69, ptr %this1, i32 0, i32 1
  %call = call noundef ptr @_ZNK6vectorIP4exprLb0EjE4dataEv(ptr noundef nonnull align 8 dereferenceable(8) %m_nodes)
  ret ptr %call
}

; Function Attrs: mustprogress nounwind uwtable
define linkonce_odr hidden void @_ZN13bool_rewriterD2Ev(ptr noundef nonnull align 8 dereferenceable(72) %this) unnamed_addr #5 comdat align 2 {
entry:
  %this.addr = alloca ptr, align 8
  store ptr %this, ptr %this.addr, align 8
  %this1 = load ptr, ptr %this.addr, align 8
  %m_counts2 = getelementptr inbounds %class.bool_rewriter, ptr %this1, i32 0, i32 15
  call void @_ZN7svectorIjjED2Ev(ptr noundef nonnull align 8 dereferenceable(8) %m_counts2) #3
  %m_counts1 = getelementptr inbounds %class.bool_rewriter, ptr %this1, i32 0, i32 14
  call void @_ZN7svectorIjjED2Ev(ptr noundef nonnull align 8 dereferenceable(8) %m_counts1) #3
  %m_todo2 = getelementptr inbounds %class.bool_rewriter, ptr %this1, i32 0, i32 13
  call void @_ZN10ptr_vectorI4exprED2Ev(ptr noundef nonnull align 8 dereferenceable(8) %m_todo2) #3
  %m_todo1 = getelementptr inbounds %class.bool_rewriter, ptr %this1, i32 0, i32 12
  call void @_ZN10ptr_vectorI4exprED2Ev(ptr noundef nonnull align 8 dereferenceable(8) %m_todo1) #3
  ret void
}

; Function Attrs: mustprogress nounwind uwtable
define linkonce_odr hidden void @_ZN10ref_vectorI4expr11ast_managerED2Ev(ptr noundef nonnull align 8 dereferenceable(16) %this) unnamed_addr #5 comdat align 2 {
entry:
  %this.addr = alloca ptr, align 8
  store ptr %this, ptr %this.addr, align 8
  %this1 = load ptr, ptr %this.addr, align 8
  call void @_ZN15ref_vector_coreI4expr19ref_manager_wrapperIS0_11ast_managerEED2Ev(ptr noundef nonnull align 8 dereferenceable(16) %this1) #3
  ret void
}

; Function Attrs: mustprogress uwtable
define hidden void @_ZNK7datalog17interval_relation13display_indexEjRK12old_intervalRSo(ptr noundef nonnull align 8 dereferenceable(224) %this, i32 noundef %i, ptr noundef nonnull align 8 dereferenceable(112) %j, ptr noundef nonnull align 8 dereferenceable(8) %out) unnamed_addr #4 align 2 {
entry:
  %this.addr = alloca ptr, align 8
  %i.addr = alloca i32, align 4
  %j.addr = alloca ptr, align 8
  %out.addr = alloca ptr, align 8
  store ptr %this, ptr %this.addr, align 8
  store i32 %i, ptr %i.addr, align 4
  store ptr %j, ptr %j.addr, align 8
  store ptr %out, ptr %out.addr, align 8
  %0 = load ptr, ptr %out.addr, align 8
  %1 = load i32, ptr %i.addr, align 4
  %call = call noundef nonnull align 8 dereferenceable(8) ptr @_ZNSolsEj(ptr noundef nonnull align 8 dereferenceable(8) %0, i32 noundef %1)
  %call2 = call noundef nonnull align 8 dereferenceable(8) ptr @_ZStlsISt11char_traitsIcEERSt13basic_ostreamIcT_ES5_PKc(ptr noundef nonnull align 8 dereferenceable(8) %call, ptr noundef @.str.2)
  %2 = load ptr, ptr %j.addr, align 8
  %call3 = call noundef nonnull align 8 dereferenceable(8) ptr @_ZlsRSoRK12old_interval(ptr noundef nonnull align 8 dereferenceable(8) %call2, ptr noundef nonnull align 8 dereferenceable(112) %2)
  %call4 = call noundef nonnull align 8 dereferenceable(8) ptr @_ZStlsISt11char_traitsIcEERSt13basic_ostreamIcT_ES5_PKc(ptr noundef nonnull align 8 dereferenceable(8) %call3, ptr noundef @.str.3)
  ret void
}

declare noundef nonnull align 8 dereferenceable(8) ptr @_ZStlsISt11char_traitsIcEERSt13basic_ostreamIcT_ES5_PKc(ptr noundef nonnull align 8 dereferenceable(8), ptr noundef) #1

; Function Attrs: mustprogress uwtable
define linkonce_odr hidden noundef nonnull align 8 dereferenceable(8) ptr @_ZlsRSoRK12old_interval(ptr noundef nonnull align 8 dereferenceable(8) %out, ptr noundef nonnull align 8 dereferenceable(112) %i) #4 comdat {
entry:
  %out.addr = alloca ptr, align 8
  %i.addr = alloca ptr, align 8
  store ptr %out, ptr %out.addr, align 8
  store ptr %i, ptr %i.addr, align 8
  %0 = load ptr, ptr %i.addr, align 8
  %1 = load ptr, ptr %out.addr, align 8
  call void @_ZNK12old_interval7displayERSo(ptr noundef nonnull align 8 dereferenceable(112) %0, ptr noundef nonnull align 8 dereferenceable(8) %1)
  %2 = load ptr, ptr %out.addr, align 8
  ret ptr %2
}

declare noundef nonnull align 8 dereferenceable(8) ptr @_ZNSolsEj(ptr noundef nonnull align 8 dereferenceable(8), i32 noundef) #1

; Function Attrs: mustprogress nounwind uwtable
define linkonce_odr hidden noundef nonnull align 8 dereferenceable(36) ptr @_ZNK7datalog17tr_infrastructureINS_15relation_traitsEE13base_ancestor10get_pluginEv(ptr noundef nonnull align 8 dereferenceable(28) %this) #5 comdat align 2 {
entry:
  %this.addr = alloca ptr, align 8
  store ptr %this, ptr %this.addr, align 8
  %this1 = load ptr, ptr %this.addr, align 8
  %m_plugin = getelementptr inbounds %"class.datalog::tr_infrastructure<datalog::relation_traits>::base_ancestor", ptr %this1, i32 0, i32 1
  %0 = load ptr, ptr %m_plugin, align 8
  ret ptr %0
}

; Function Attrs: mustprogress uwtable
define hidden void @_ZN7datalog17interval_relation12mk_intersectEjRK12old_interval(ptr noundef nonnull align 8 dereferenceable(224) %this, i32 noundef %idx, ptr noundef nonnull align 8 dereferenceable(112) %i) #4 align 2 personality ptr @__gxx_personality_v0 {
entry:
  %this.addr = alloca ptr, align 8
  %idx.addr = alloca i32, align 4
  %i.addr = alloca ptr, align 8
  %isempty = alloca i8, align 1
  %ref.tmp = alloca %class.old_interval, align 8
  %exn.slot = alloca ptr, align 8
  %ehselector.slot = alloca i32, align 4
  store ptr %this, ptr %this.addr, align 8
  store i32 %idx, ptr %idx.addr, align 4
  store ptr %i, ptr %i.addr, align 8
  %this1 = load ptr, ptr %this.addr, align 8
  %0 = load i32, ptr %idx.addr, align 4
  %call = call noundef nonnull align 8 dereferenceable(112) ptr @_ZN7datalog15vector_relationI12old_intervalNS_22vector_relation_helperIS1_EEEixEj(ptr noundef nonnull align 8 dereferenceable(224) %this1, i32 noundef %0)
  %1 = load ptr, ptr %i.addr, align 8
  %vtable = load ptr, ptr %this1, align 8
  %vfn = getelementptr inbounds ptr, ptr %vtable, i64 21
  %2 = load ptr, ptr %vfn, align 8
  call void %2(ptr sret(%class.old_interval) align 8 %ref.tmp, ptr noundef nonnull align 8 dereferenceable(224) %this1, ptr noundef nonnull align 8 dereferenceable(112) %call, ptr noundef nonnull align 8 dereferenceable(112) %1, ptr noundef nonnull align 1 dereferenceable(1) %isempty)
  %3 = load i32, ptr %idx.addr, align 4
  %call2 = invoke noundef nonnull align 8 dereferenceable(112) ptr @_ZN7datalog15vector_relationI12old_intervalNS_22vector_relation_helperIS1_EEEixEj(ptr noundef nonnull align 8 dereferenceable(224) %this1, i32 noundef %3)
          to label %invoke.cont unwind label %lpad

invoke.cont:                                      ; preds = %entry
  %call3 = call noundef nonnull align 8 dereferenceable(112) ptr @_ZN12old_intervalaSEOS_(ptr noundef nonnull align 8 dereferenceable(112) %call2, ptr noundef nonnull align 8 dereferenceable(112) %ref.tmp) #3
  call void @_ZN12old_intervalD2Ev(ptr noundef nonnull align 8 dereferenceable(112) %ref.tmp) #3
  %4 = load i8, ptr %isempty, align 1
  %tobool = trunc i8 %4 to i1
  br i1 %tobool, label %if.then, label %lor.lhs.false

lor.lhs.false:                                    ; preds = %invoke.cont
  %5 = load i32, ptr %idx.addr, align 4
  %6 = load i32, ptr %idx.addr, align 4
  %call4 = call noundef nonnull align 8 dereferenceable(112) ptr @_ZN7datalog15vector_relationI12old_intervalNS_22vector_relation_helperIS1_EEEixEj(ptr noundef nonnull align 8 dereferenceable(224) %this1, i32 noundef %6)
  %vtable5 = load ptr, ptr %this1, align 8
  %vfn6 = getelementptr inbounds ptr, ptr %vtable5, i64 26
  %7 = load ptr, ptr %vfn6, align 8
  %call7 = call noundef zeroext i1 %7(ptr noundef nonnull align 8 dereferenceable(224) %this1, i32 noundef %5, ptr noundef nonnull align 8 dereferenceable(112) %call4)
  br i1 %call7, label %if.then, label %if.end

if.then:                                          ; preds = %lor.lhs.false, %invoke.cont
  call void @_ZN7datalog15vector_relationI12old_intervalNS_22vector_relation_helperIS1_EEE9set_emptyEv(ptr noundef nonnull align 8 dereferenceable(224) %this1)
  br label %if.end

lpad:                                             ; preds = %entry
  %8 = landingpad { ptr, i32 }
          cleanup
  %9 = extractvalue { ptr, i32 } %8, 0
  store ptr %9, ptr %exn.slot, align 8
  %10 = extractvalue { ptr, i32 } %8, 1
  store i32 %10, ptr %ehselector.slot, align 4
  call void @_ZN12old_intervalD2Ev(ptr noundef nonnull align 8 dereferenceable(112) %ref.tmp) #3
  br label %eh.resume

if.end:                                           ; preds = %if.then, %lor.lhs.false
  ret void

eh.resume:                                        ; preds = %lpad
  %exn = load ptr, ptr %exn.slot, align 8
  %sel = load i32, ptr %ehselector.slot, align 4
  %lpad.val = insertvalue { ptr, i32 } poison, ptr %exn, 0
  %lpad.val8 = insertvalue { ptr, i32 } %lpad.val, i32 %sel, 1
  resume { ptr, i32 } %lpad.val8
}

; Function Attrs: mustprogress uwtable
define linkonce_odr hidden noundef nonnull align 8 dereferenceable(112) ptr @_ZN7datalog15vector_relationI12old_intervalNS_22vector_relation_helperIS1_EEEixEj(ptr noundef nonnull align 8 dereferenceable(224) %this, i32 noundef %i) #4 comdat align 2 {
entry:
  %this.addr = alloca ptr, align 8
  %i.addr = alloca i32, align 4
  store ptr %this, ptr %this.addr, align 8
  store i32 %i, ptr %i.addr, align 4
  %this1 = load ptr, ptr %this.addr, align 8
  %m_elems = getelementptr inbounds %"class.datalog::vector_relation", ptr %this1, i32 0, i32 2
  %0 = load ptr, ptr %m_elems, align 8
  %1 = load i32, ptr %i.addr, align 4
  %call = call noundef i32 @_ZNK7datalog15vector_relationI12old_intervalNS_22vector_relation_helperIS1_EEE4findEj(ptr noundef nonnull align 8 dereferenceable(224) %this1, i32 noundef %1)
  %call2 = call noundef nonnull align 8 dereferenceable(112) ptr @_ZN6vectorI12old_intervalLb1EjEixEj(ptr noundef nonnull align 8 dereferenceable(8) %0, i32 noundef %call)
  ret ptr %call2
}

; Function Attrs: nounwind
declare noundef nonnull align 8 dereferenceable(112) ptr @_ZN12old_intervalaSEOS_(ptr noundef nonnull align 8 dereferenceable(112), ptr noundef nonnull align 8 dereferenceable(112)) #2

; Function Attrs: mustprogress uwtable
define linkonce_odr hidden void @_ZN7datalog15vector_relationI12old_intervalNS_22vector_relation_helperIS1_EEE9set_emptyEv(ptr noundef nonnull align 8 dereferenceable(224) %this) #4 comdat align 2 personality ptr @__gxx_personality_v0 {
entry:
  %this.addr = alloca ptr, align 8
  %sz = alloca i32, align 4
  %agg.tmp = alloca %class.old_interval, align 8
  %exn.slot = alloca ptr, align 8
  %ehselector.slot = alloca i32, align 4
  %i = alloca i32, align 4
  store ptr %this, ptr %this.addr, align 8
  %this1 = load ptr, ptr %this.addr, align 8
  %m_elems = getelementptr inbounds %"class.datalog::vector_relation", ptr %this1, i32 0, i32 2
  %0 = load ptr, ptr %m_elems, align 8
  %call = call noundef i32 @_ZNK6vectorI12old_intervalLb1EjE4sizeEv(ptr noundef nonnull align 8 dereferenceable(8) %0)
  store i32 %call, ptr %sz, align 4
  %m_empty = getelementptr inbounds %"class.datalog::vector_relation", ptr %this1, i32 0, i32 3
  store i8 1, ptr %m_empty, align 8
  %m_elems2 = getelementptr inbounds %"class.datalog::vector_relation", ptr %this1, i32 0, i32 2
  %1 = load ptr, ptr %m_elems2, align 8
  call void @_ZN6vectorI12old_intervalLb1EjE5resetEv(ptr noundef nonnull align 8 dereferenceable(8) %1)
  %m_elems3 = getelementptr inbounds %"class.datalog::vector_relation", ptr %this1, i32 0, i32 2
  %2 = load ptr, ptr %m_elems3, align 8
  %3 = load i32, ptr %sz, align 4
  %m_default = getelementptr inbounds %"class.datalog::vector_relation", ptr %this1, i32 0, i32 1
  call void @_ZN12old_intervalC2ERKS_(ptr noundef nonnull align 8 dereferenceable(112) %agg.tmp, ptr noundef nonnull align 8 dereferenceable(112) %m_default)
  invoke void (ptr, i32, ptr, ...) @_ZN6vectorI12old_intervalLb1EjE6resizeIS0_EEvjT_z(ptr noundef nonnull align 8 dereferenceable(8) %2, i32 noundef %3, ptr noundef %agg.tmp)
          to label %invoke.cont unwind label %lpad

invoke.cont:                                      ; preds = %entry
  call void @_ZN12old_intervalD2Ev(ptr noundef nonnull align 8 dereferenceable(112) %agg.tmp) #3
  %m_eqs = getelementptr inbounds %"class.datalog::vector_relation", ptr %this1, i32 0, i32 5
  %4 = load ptr, ptr %m_eqs, align 8
  call void @_Z7deallocI10union_findI22union_find_default_ctxS1_EEvPT_(ptr noundef %4)
  %call4 = call noalias noundef ptr @_ZN6memory8allocateEm(i64 noundef 56)
  %m_ctx = getelementptr inbounds %"class.datalog::vector_relation", ptr %this1, i32 0, i32 4
  call void @_ZN10union_findI22union_find_default_ctxS0_EC2ERS0_(ptr noundef nonnull align 8 dereferenceable(56) %call4, ptr noundef nonnull align 8 dereferenceable(56) %m_ctx)
  %m_eqs5 = getelementptr inbounds %"class.datalog::vector_relation", ptr %this1, i32 0, i32 5
  store ptr %call4, ptr %m_eqs5, align 8
  store i32 0, ptr %i, align 4
  br label %for.cond

for.cond:                                         ; preds = %for.inc, %invoke.cont
  %5 = load i32, ptr %i, align 4
  %6 = load i32, ptr %sz, align 4
  %cmp = icmp ult i32 %5, %6
  br i1 %cmp, label %for.body, label %for.end

for.body:                                         ; preds = %for.cond
  %m_eqs6 = getelementptr inbounds %"class.datalog::vector_relation", ptr %this1, i32 0, i32 5
  %7 = load ptr, ptr %m_eqs6, align 8
  %call7 = call noundef i32 @_ZN10union_findI22union_find_default_ctxS0_E6mk_varEv(ptr noundef nonnull align 8 dereferenceable(56) %7)
  br label %for.inc

for.inc:                                          ; preds = %for.body
  %8 = load i32, ptr %i, align 4
  %inc = add i32 %8, 1
  store i32 %inc, ptr %i, align 4
  br label %for.cond, !llvm.loop !14

lpad:                                             ; preds = %entry
  %9 = landingpad { ptr, i32 }
          cleanup
  %10 = extractvalue { ptr, i32 } %9, 0
  store ptr %10, ptr %exn.slot, align 8
  %11 = extractvalue { ptr, i32 } %9, 1
  store i32 %11, ptr %ehselector.slot, align 4
  call void @_ZN12old_intervalD2Ev(ptr noundef nonnull align 8 dereferenceable(112) %agg.tmp) #3
  br label %eh.resume

for.end:                                          ; preds = %for.cond
  ret void

eh.resume:                                        ; preds = %lpad
  %exn = load ptr, ptr %exn.slot, align 8
  %sel = load i32, ptr %ehselector.slot, align 4
  %lpad.val = insertvalue { ptr, i32 } poison, ptr %exn, 0
  %lpad.val8 = insertvalue { ptr, i32 } %lpad.val, i32 %sel, 1
  resume { ptr, i32 } %lpad.val8
}

; Function Attrs: mustprogress nounwind uwtable
define hidden void @_ZN7datalog17interval_relation14mk_rename_elemER12old_intervaljPKj(ptr noundef nonnull align 8 dereferenceable(224) %this, ptr noundef nonnull align 8 dereferenceable(112) %i, i32 noundef %0, ptr noundef %1) unnamed_addr #5 align 2 {
entry:
  %this.addr = alloca ptr, align 8
  %i.addr = alloca ptr, align 8
  %.addr = alloca i32, align 4
  %.addr1 = alloca ptr, align 8
  store ptr %this, ptr %this.addr, align 8
  store ptr %i, ptr %i.addr, align 8
  store i32 %0, ptr %.addr, align 4
  store ptr %1, ptr %.addr1, align 8
  ret void
}

; Function Attrs: mustprogress uwtable
define hidden noundef zeroext i1 @_ZNK7datalog24interval_relation_plugin5is_ltEP3appRjR8rationalS3_(ptr noundef nonnull align 8 dereferenceable(240) %this, ptr noundef %cond, ptr noundef nonnull align 4 dereferenceable(4) %x, ptr noundef nonnull align 8 dereferenceable(32) %k, ptr noundef nonnull align 4 dereferenceable(4) %y) #4 align 2 {
entry:
  %retval = alloca i1, align 1
  %this.addr = alloca ptr, align 8
  %cond.addr = alloca ptr, align 8
  %x.addr = alloca ptr, align 8
  %k.addr = alloca ptr, align 8
  %y.addr = alloca ptr, align 8
  store ptr %this, ptr %this.addr, align 8
  store ptr %cond, ptr %cond.addr, align 8
  store ptr %x, ptr %x.addr, align 8
  store ptr %k, ptr %k.addr, align 8
  store ptr %y, ptr %y.addr, align 8
  %this1 = load ptr, ptr %this.addr, align 8
  %0 = load ptr, ptr %k.addr, align 8
  call void @_ZN8rational5resetEv(ptr noundef nonnull align 8 dereferenceable(32) %0)
  %1 = load ptr, ptr %x.addr, align 8
  store i32 -1, ptr %1, align 4
  %2 = load ptr, ptr %y.addr, align 8
  store i32 -1, ptr %2, align 4
  %m_arith = getelementptr inbounds %"class.datalog::interval_relation_plugin", ptr %this1, i32 0, i32 3
  %3 = load ptr, ptr %cond.addr, align 8
  %call = call noundef zeroext i1 @_ZNK17arith_recognizers5is_ltEPK4expr(ptr noundef nonnull align 1 dereferenceable(1) %m_arith, ptr noundef %3)
  br i1 %call, label %land.lhs.true, label %if.end13

land.lhs.true:                                    ; preds = %entry
  %m_arith2 = getelementptr inbounds %"class.datalog::interval_relation_plugin", ptr %this1, i32 0, i32 3
  %4 = load ptr, ptr %cond.addr, align 8
  %call3 = call noundef ptr @_ZNK3app7get_argEj(ptr noundef nonnull align 8 dereferenceable(32) %4, i32 noundef 0)
  %call4 = call noundef zeroext i1 @_ZNK17arith_recognizers7is_realEPK4expr(ptr noundef nonnull align 1 dereferenceable(1) %m_arith2, ptr noundef %call3)
  br i1 %call4, label %if.then, label %if.end13

if.then:                                          ; preds = %land.lhs.true
  %5 = load ptr, ptr %cond.addr, align 8
  %call5 = call noundef ptr @_ZNK3app7get_argEj(ptr noundef nonnull align 8 dereferenceable(32) %5, i32 noundef 0)
  %6 = load ptr, ptr %y.addr, align 8
  %7 = load ptr, ptr %x.addr, align 8
  %8 = load ptr, ptr %k.addr, align 8
  %call6 = call noundef zeroext i1 @_ZNK7datalog24interval_relation_plugin9is_linearEP4exprRjS3_R8rationalb(ptr noundef nonnull align 8 dereferenceable(240) %this1, ptr noundef %call5, ptr noundef nonnull align 4 dereferenceable(4) %6, ptr noundef nonnull align 4 dereferenceable(4) %7, ptr noundef nonnull align 8 dereferenceable(32) %8, i1 noundef zeroext false)
  br i1 %call6, label %if.end, label %if.then7

if.then7:                                         ; preds = %if.then
  store i1 false, ptr %retval, align 1
  br label %return

if.end:                                           ; preds = %if.then
  %9 = load ptr, ptr %cond.addr, align 8
  %call8 = call noundef ptr @_ZNK3app7get_argEj(ptr noundef nonnull align 8 dereferenceable(32) %9, i32 noundef 1)
  %10 = load ptr, ptr %y.addr, align 8
  %11 = load ptr, ptr %x.addr, align 8
  %12 = load ptr, ptr %k.addr, align 8
  %call9 = call noundef zeroext i1 @_ZNK7datalog24interval_relation_plugin9is_linearEP4exprRjS3_R8rationalb(ptr noundef nonnull align 8 dereferenceable(240) %this1, ptr noundef %call8, ptr noundef nonnull align 4 dereferenceable(4) %10, ptr noundef nonnull align 4 dereferenceable(4) %11, ptr noundef nonnull align 8 dereferenceable(32) %12, i1 noundef zeroext true)
  br i1 %call9, label %if.end11, label %if.then10

if.then10:                                        ; preds = %if.end
  store i1 false, ptr %retval, align 1
  br label %return

if.end11:                                         ; preds = %if.end
  %13 = load ptr, ptr %x.addr, align 8
  %14 = load i32, ptr %13, align 4
  %cmp = icmp ne i32 %14, -1
  br i1 %cmp, label %lor.end, label %lor.rhs

lor.rhs:                                          ; preds = %if.end11
  %15 = load ptr, ptr %y.addr, align 8
  %16 = load i32, ptr %15, align 4
  %cmp12 = icmp ne i32 %16, -1
  br label %lor.end

lor.end:                                          ; preds = %lor.rhs, %if.end11
  %17 = phi i1 [ true, %if.end11 ], [ %cmp12, %lor.rhs ]
  store i1 %17, ptr %retval, align 1
  br label %return

if.end13:                                         ; preds = %land.lhs.true, %entry
  %m_arith14 = getelementptr inbounds %"class.datalog::interval_relation_plugin", ptr %this1, i32 0, i32 3
  %18 = load ptr, ptr %cond.addr, align 8
  %call15 = call noundef zeroext i1 @_ZNK17arith_recognizers5is_gtEPK4expr(ptr noundef nonnull align 1 dereferenceable(1) %m_arith14, ptr noundef %18)
  br i1 %call15, label %land.lhs.true16, label %if.end33

land.lhs.true16:                                  ; preds = %if.end13
  %m_arith17 = getelementptr inbounds %"class.datalog::interval_relation_plugin", ptr %this1, i32 0, i32 3
  %19 = load ptr, ptr %cond.addr, align 8
  %call18 = call noundef ptr @_ZNK3app7get_argEj(ptr noundef nonnull align 8 dereferenceable(32) %19, i32 noundef 0)
  %call19 = call noundef zeroext i1 @_ZNK17arith_recognizers7is_realEPK4expr(ptr noundef nonnull align 1 dereferenceable(1) %m_arith17, ptr noundef %call18)
  br i1 %call19, label %if.then20, label %if.end33

if.then20:                                        ; preds = %land.lhs.true16
  %20 = load ptr, ptr %cond.addr, align 8
  %call21 = call noundef ptr @_ZNK3app7get_argEj(ptr noundef nonnull align 8 dereferenceable(32) %20, i32 noundef 0)
  %21 = load ptr, ptr %y.addr, align 8
  %22 = load ptr, ptr %x.addr, align 8
  %23 = load ptr, ptr %k.addr, align 8
  %call22 = call noundef zeroext i1 @_ZNK7datalog24interval_relation_plugin9is_linearEP4exprRjS3_R8rationalb(ptr noundef nonnull align 8 dereferenceable(240) %this1, ptr noundef %call21, ptr noundef nonnull align 4 dereferenceable(4) %21, ptr noundef nonnull align 4 dereferenceable(4) %22, ptr noundef nonnull align 8 dereferenceable(32) %23, i1 noundef zeroext true)
  br i1 %call22, label %if.end24, label %if.then23

if.then23:                                        ; preds = %if.then20
  store i1 false, ptr %retval, align 1
  br label %return

if.end24:                                         ; preds = %if.then20
  %24 = load ptr, ptr %cond.addr, align 8
  %call25 = call noundef ptr @_ZNK3app7get_argEj(ptr noundef nonnull align 8 dereferenceable(32) %24, i32 noundef 1)
  %25 = load ptr, ptr %y.addr, align 8
  %26 = load ptr, ptr %x.addr, align 8
  %27 = load ptr, ptr %k.addr, align 8
  %call26 = call noundef zeroext i1 @_ZNK7datalog24interval_relation_plugin9is_linearEP4exprRjS3_R8rationalb(ptr noundef nonnull align 8 dereferenceable(240) %this1, ptr noundef %call25, ptr noundef nonnull align 4 dereferenceable(4) %25, ptr noundef nonnull align 4 dereferenceable(4) %26, ptr noundef nonnull align 8 dereferenceable(32) %27, i1 noundef zeroext false)
  br i1 %call26, label %if.end28, label %if.then27

if.then27:                                        ; preds = %if.end24
  store i1 false, ptr %retval, align 1
  br label %return

if.end28:                                         ; preds = %if.end24
  %28 = load ptr, ptr %x.addr, align 8
  %29 = load i32, ptr %28, align 4
  %cmp29 = icmp ne i32 %29, -1
  br i1 %cmp29, label %lor.end32, label %lor.rhs30

lor.rhs30:                                        ; preds = %if.end28
  %30 = load ptr, ptr %y.addr, align 8
  %31 = load i32, ptr %30, align 4
  %cmp31 = icmp ne i32 %31, -1
  br label %lor.end32

lor.end32:                                        ; preds = %lor.rhs30, %if.end28
  %32 = phi i1 [ true, %if.end28 ], [ %cmp31, %lor.rhs30 ]
  store i1 %32, ptr %retval, align 1
  br label %return

if.end33:                                         ; preds = %land.lhs.true16, %if.end13
  store i1 false, ptr %retval, align 1
  br label %return

return:                                           ; preds = %if.end33, %lor.end32, %if.then27, %if.then23, %lor.end, %if.then10, %if.then7
  %33 = load i1, ptr %retval, align 1
  ret i1 %33
}

declare void @_ZN12old_intervalC1ER25scoped_dependency_managerIPvERK8rationalbbPN18dependency_managerINS2_6configEE10dependencyE(ptr noundef nonnull align 8 dereferenceable(112), ptr noundef nonnull align 8 dereferenceable(72), ptr noundef nonnull align 8 dereferenceable(32), i1 noundef zeroext, i1 noundef zeroext, ptr noundef) unnamed_addr #1

; Function Attrs: mustprogress uwtable
define linkonce_odr hidden void @_ZngRK8rational(ptr noalias sret(%class.rational) align 8 %agg.result, ptr noundef nonnull align 8 dereferenceable(32) %r) #4 comdat personality ptr @__gxx_personality_v0 {
entry:
  %result.ptr = alloca ptr, align 8
  %r.addr = alloca ptr, align 8
  %nrvo = alloca i1, align 1
  %exn.slot = alloca ptr, align 8
  %ehselector.slot = alloca i32, align 4
  store ptr %agg.result, ptr %result.ptr, align 8
  store ptr %r, ptr %r.addr, align 8
  store i1 false, ptr %nrvo, align 1
  %0 = load ptr, ptr %r.addr, align 8
  call void @_ZN8rationalC2ERKS_(ptr noundef nonnull align 8 dereferenceable(32) %agg.result, ptr noundef nonnull align 8 dereferenceable(32) %0)
  invoke void @_ZN8rational3negEv(ptr noundef nonnull align 8 dereferenceable(32) %agg.result)
          to label %invoke.cont unwind label %lpad

invoke.cont:                                      ; preds = %entry
  store i1 true, ptr %nrvo, align 1
  %nrvo.val = load i1, ptr %nrvo, align 1
  br i1 %nrvo.val, label %nrvo.skipdtor, label %nrvo.unused

lpad:                                             ; preds = %entry
  %1 = landingpad { ptr, i32 }
          cleanup
  %2 = extractvalue { ptr, i32 } %1, 0
  store ptr %2, ptr %exn.slot, align 8
  %3 = extractvalue { ptr, i32 } %1, 1
  store i32 %3, ptr %ehselector.slot, align 4
  call void @_ZN8rationalD2Ev(ptr noundef nonnull align 8 dereferenceable(32) %agg.result) #3
  br label %eh.resume

nrvo.unused:                                      ; preds = %invoke.cont
  call void @_ZN8rationalD2Ev(ptr noundef nonnull align 8 dereferenceable(32) %agg.result) #3
  br label %nrvo.skipdtor

nrvo.skipdtor:                                    ; preds = %nrvo.unused, %invoke.cont
  ret void

eh.resume:                                        ; preds = %lpad
  %exn = load ptr, ptr %exn.slot, align 8
  %sel = load i32, ptr %ehselector.slot, align 4
  %lpad.val = insertvalue { ptr, i32 } poison, ptr %exn, 0
  %lpad.val1 = insertvalue { ptr, i32 } %lpad.val, i32 %sel, 1
  resume { ptr, i32 } %lpad.val1
}

; Function Attrs: mustprogress nounwind uwtable
define linkonce_odr hidden noundef zeroext i1 @_ZNK11ext_numeral11is_infiniteEv(ptr noundef nonnull align 8 dereferenceable(40) %this) #5 comdat align 2 {
entry:
  %this.addr = alloca ptr, align 8
  store ptr %this, ptr %this.addr, align 8
  %this1 = load ptr, ptr %this.addr, align 8
  %m_kind = getelementptr inbounds %class.ext_numeral, ptr %this1, i32 0, i32 0
  %0 = load i32, ptr %m_kind, align 8
  %cmp = icmp ne i32 %0, 1
  ret i1 %cmp
}

; Function Attrs: mustprogress uwtable
define linkonce_odr hidden void @_ZplRK8rationalS1_(ptr noalias sret(%class.rational) align 8 %agg.result, ptr noundef nonnull align 8 dereferenceable(32) %r1, ptr noundef nonnull align 8 dereferenceable(32) %r2) #4 comdat personality ptr @__gxx_personality_v0 {
entry:
  %result.ptr = alloca ptr, align 8
  %r1.addr = alloca ptr, align 8
  %r2.addr = alloca ptr, align 8
  %ref.tmp = alloca %class.rational, align 8
  %exn.slot = alloca ptr, align 8
  %ehselector.slot = alloca i32, align 4
  store ptr %agg.result, ptr %result.ptr, align 8
  store ptr %r1, ptr %r1.addr, align 8
  store ptr %r2, ptr %r2.addr, align 8
  %0 = load ptr, ptr %r2.addr, align 8
  %1 = load ptr, ptr %r1.addr, align 8
  call void @_ZN8rationalC2ERKS_(ptr noundef nonnull align 8 dereferenceable(32) %ref.tmp, ptr noundef nonnull align 8 dereferenceable(32) %1)
  %call = invoke noundef nonnull align 8 dereferenceable(32) ptr @_ZN8rationalpLERKS_(ptr noundef nonnull align 8 dereferenceable(32) %ref.tmp, ptr noundef nonnull align 8 dereferenceable(32) %0)
          to label %invoke.cont unwind label %lpad

invoke.cont:                                      ; preds = %entry
  invoke void @_ZN8rationalC2ERKS_(ptr noundef nonnull align 8 dereferenceable(32) %agg.result, ptr noundef nonnull align 8 dereferenceable(32) %call)
          to label %invoke.cont1 unwind label %lpad

invoke.cont1:                                     ; preds = %invoke.cont
  call void @_ZN8rationalD2Ev(ptr noundef nonnull align 8 dereferenceable(32) %ref.tmp) #3
  ret void

lpad:                                             ; preds = %invoke.cont, %entry
  %2 = landingpad { ptr, i32 }
          cleanup
  %3 = extractvalue { ptr, i32 } %2, 0
  store ptr %3, ptr %exn.slot, align 8
  %4 = extractvalue { ptr, i32 } %2, 1
  store i32 %4, ptr %ehselector.slot, align 4
  call void @_ZN8rationalD2Ev(ptr noundef nonnull align 8 dereferenceable(32) %ref.tmp) #3
  br label %eh.resume

eh.resume:                                        ; preds = %lpad
  %exn = load ptr, ptr %exn.slot, align 8
  %sel = load i32, ptr %ehselector.slot, align 4
  %lpad.val = insertvalue { ptr, i32 } poison, ptr %exn, 0
  %lpad.val2 = insertvalue { ptr, i32 } %lpad.val, i32 %sel, 1
  resume { ptr, i32 } %lpad.val2
}

; Function Attrs: mustprogress nounwind uwtable
define linkonce_odr hidden noundef nonnull align 8 dereferenceable(32) ptr @_ZNK11ext_numeral11to_rationalEv(ptr noundef nonnull align 8 dereferenceable(40) %this) #5 comdat align 2 {
entry:
  %this.addr = alloca ptr, align 8
  store ptr %this, ptr %this.addr, align 8
  %this1 = load ptr, ptr %this.addr, align 8
  %m_value = getelementptr inbounds %class.ext_numeral, ptr %this1, i32 0, i32 1
  ret ptr %m_value
}

; Function Attrs: mustprogress uwtable
define linkonce_odr hidden void @_ZmiRK8rationalS1_(ptr noalias sret(%class.rational) align 8 %agg.result, ptr noundef nonnull align 8 dereferenceable(32) %r1, ptr noundef nonnull align 8 dereferenceable(32) %r2) #4 comdat personality ptr @__gxx_personality_v0 {
entry:
  %result.ptr = alloca ptr, align 8
  %r1.addr = alloca ptr, align 8
  %r2.addr = alloca ptr, align 8
  %ref.tmp = alloca %class.rational, align 8
  %exn.slot = alloca ptr, align 8
  %ehselector.slot = alloca i32, align 4
  store ptr %agg.result, ptr %result.ptr, align 8
  store ptr %r1, ptr %r1.addr, align 8
  store ptr %r2, ptr %r2.addr, align 8
  %0 = load ptr, ptr %r2.addr, align 8
  %1 = load ptr, ptr %r1.addr, align 8
  call void @_ZN8rationalC2ERKS_(ptr noundef nonnull align 8 dereferenceable(32) %ref.tmp, ptr noundef nonnull align 8 dereferenceable(32) %1)
  %call = invoke noundef nonnull align 8 dereferenceable(32) ptr @_ZN8rationalmIERKS_(ptr noundef nonnull align 8 dereferenceable(32) %ref.tmp, ptr noundef nonnull align 8 dereferenceable(32) %0)
          to label %invoke.cont unwind label %lpad

invoke.cont:                                      ; preds = %entry
  invoke void @_ZN8rationalC2ERKS_(ptr noundef nonnull align 8 dereferenceable(32) %agg.result, ptr noundef nonnull align 8 dereferenceable(32) %call)
          to label %invoke.cont1 unwind label %lpad

invoke.cont1:                                     ; preds = %invoke.cont
  call void @_ZN8rationalD2Ev(ptr noundef nonnull align 8 dereferenceable(32) %ref.tmp) #3
  ret void

lpad:                                             ; preds = %invoke.cont, %entry
  %2 = landingpad { ptr, i32 }
          cleanup
  %3 = extractvalue { ptr, i32 } %2, 0
  store ptr %3, ptr %exn.slot, align 8
  %4 = extractvalue { ptr, i32 } %2, 1
  store i32 %4, ptr %ehselector.slot, align 4
  call void @_ZN8rationalD2Ev(ptr noundef nonnull align 8 dereferenceable(32) %ref.tmp) #3
  br label %eh.resume

eh.resume:                                        ; preds = %lpad
  %exn = load ptr, ptr %exn.slot, align 8
  %sel = load i32, ptr %ehselector.slot, align 4
  %lpad.val = insertvalue { ptr, i32 } poison, ptr %exn, 0
  %lpad.val2 = insertvalue { ptr, i32 } %lpad.val, i32 %sel, 1
  resume { ptr, i32 } %lpad.val2
}

; Function Attrs: mustprogress uwtable
define hidden noundef zeroext i1 @_ZNK7datalog24interval_relation_plugin5is_leEP3appRjR8rationalS3_Rb(ptr noundef nonnull align 8 dereferenceable(240) %this, ptr noundef %cond, ptr noundef nonnull align 4 dereferenceable(4) %x, ptr noundef nonnull align 8 dereferenceable(32) %k, ptr noundef nonnull align 4 dereferenceable(4) %y, ptr noundef nonnull align 1 dereferenceable(1) %is_int) #4 align 2 {
entry:
  %retval = alloca i1, align 1
  %this.addr = alloca ptr, align 8
  %cond.addr = alloca ptr, align 8
  %x.addr = alloca ptr, align 8
  %k.addr = alloca ptr, align 8
  %y.addr = alloca ptr, align 8
  %is_int.addr = alloca ptr, align 8
  %m = alloca ptr, align 8
  store ptr %this, ptr %this.addr, align 8
  store ptr %cond, ptr %cond.addr, align 8
  store ptr %x, ptr %x.addr, align 8
  store ptr %k, ptr %k.addr, align 8
  store ptr %y, ptr %y.addr, align 8
  store ptr %is_int, ptr %is_int.addr, align 8
  %this1 = load ptr, ptr %this.addr, align 8
  %call = call noundef nonnull align 8 dereferenceable(976) ptr @_ZNK7datalog17tr_infrastructureINS_15relation_traitsEE13plugin_object15get_ast_managerEv(ptr noundef nonnull align 8 dereferenceable(32) %this1)
  store ptr %call, ptr %m, align 8
  %0 = load ptr, ptr %k.addr, align 8
  call void @_ZN8rational5resetEv(ptr noundef nonnull align 8 dereferenceable(32) %0)
  %1 = load ptr, ptr %x.addr, align 8
  store i32 -1, ptr %1, align 4
  %2 = load ptr, ptr %y.addr, align 8
  store i32 -1, ptr %2, align 4
  %m_arith = getelementptr inbounds %"class.datalog::interval_relation_plugin", ptr %this1, i32 0, i32 3
  %3 = load ptr, ptr %cond.addr, align 8
  %call2 = call noundef zeroext i1 @_ZNK17arith_recognizers5is_leEPK4expr(ptr noundef nonnull align 1 dereferenceable(1) %m_arith, ptr noundef %3)
  br i1 %call2, label %if.then, label %if.end14

if.then:                                          ; preds = %entry
  %m_arith3 = getelementptr inbounds %"class.datalog::interval_relation_plugin", ptr %this1, i32 0, i32 3
  %4 = load ptr, ptr %cond.addr, align 8
  %call4 = call noundef ptr @_ZNK3app7get_argEj(ptr noundef nonnull align 8 dereferenceable(32) %4, i32 noundef 0)
  %call5 = call noundef zeroext i1 @_ZNK17arith_recognizers6is_intEPK4expr(ptr noundef nonnull align 1 dereferenceable(1) %m_arith3, ptr noundef %call4)
  %5 = load ptr, ptr %is_int.addr, align 8
  %frombool = zext i1 %call5 to i8
  store i8 %frombool, ptr %5, align 1
  %6 = load ptr, ptr %cond.addr, align 8
  %call6 = call noundef ptr @_ZNK3app7get_argEj(ptr noundef nonnull align 8 dereferenceable(32) %6, i32 noundef 0)
  %7 = load ptr, ptr %y.addr, align 8
  %8 = load ptr, ptr %x.addr, align 8
  %9 = load ptr, ptr %k.addr, align 8
  %call7 = call noundef zeroext i1 @_ZNK7datalog24interval_relation_plugin9is_linearEP4exprRjS3_R8rationalb(ptr noundef nonnull align 8 dereferenceable(240) %this1, ptr noundef %call6, ptr noundef nonnull align 4 dereferenceable(4) %7, ptr noundef nonnull align 4 dereferenceable(4) %8, ptr noundef nonnull align 8 dereferenceable(32) %9, i1 noundef zeroext false)
  br i1 %call7, label %if.end, label %if.then8

if.then8:                                         ; preds = %if.then
  store i1 false, ptr %retval, align 1
  br label %return

if.end:                                           ; preds = %if.then
  %10 = load ptr, ptr %cond.addr, align 8
  %call9 = call noundef ptr @_ZNK3app7get_argEj(ptr noundef nonnull align 8 dereferenceable(32) %10, i32 noundef 1)
  %11 = load ptr, ptr %y.addr, align 8
  %12 = load ptr, ptr %x.addr, align 8
  %13 = load ptr, ptr %k.addr, align 8
  %call10 = call noundef zeroext i1 @_ZNK7datalog24interval_relation_plugin9is_linearEP4exprRjS3_R8rationalb(ptr noundef nonnull align 8 dereferenceable(240) %this1, ptr noundef %call9, ptr noundef nonnull align 4 dereferenceable(4) %11, ptr noundef nonnull align 4 dereferenceable(4) %12, ptr noundef nonnull align 8 dereferenceable(32) %13, i1 noundef zeroext true)
  br i1 %call10, label %if.end12, label %if.then11

if.then11:                                        ; preds = %if.end
  store i1 false, ptr %retval, align 1
  br label %return

if.end12:                                         ; preds = %if.end
  %14 = load ptr, ptr %x.addr, align 8
  %15 = load i32, ptr %14, align 4
  %cmp = icmp ne i32 %15, -1
  br i1 %cmp, label %lor.end, label %lor.rhs

lor.rhs:                                          ; preds = %if.end12
  %16 = load ptr, ptr %y.addr, align 8
  %17 = load i32, ptr %16, align 4
  %cmp13 = icmp ne i32 %17, -1
  br label %lor.end

lor.end:                                          ; preds = %lor.rhs, %if.end12
  %18 = phi i1 [ true, %if.end12 ], [ %cmp13, %lor.rhs ]
  store i1 %18, ptr %retval, align 1
  br label %return

if.end14:                                         ; preds = %entry
  %m_arith15 = getelementptr inbounds %"class.datalog::interval_relation_plugin", ptr %this1, i32 0, i32 3
  %19 = load ptr, ptr %cond.addr, align 8
  %call16 = call noundef zeroext i1 @_ZNK17arith_recognizers5is_geEPK4expr(ptr noundef nonnull align 1 dereferenceable(1) %m_arith15, ptr noundef %19)
  br i1 %call16, label %if.then17, label %if.end34

if.then17:                                        ; preds = %if.end14
  %m_arith18 = getelementptr inbounds %"class.datalog::interval_relation_plugin", ptr %this1, i32 0, i32 3
  %20 = load ptr, ptr %cond.addr, align 8
  %call19 = call noundef ptr @_ZNK3app7get_argEj(ptr noundef nonnull align 8 dereferenceable(32) %20, i32 noundef 0)
  %call20 = call noundef zeroext i1 @_ZNK17arith_recognizers6is_intEPK4expr(ptr noundef nonnull align 1 dereferenceable(1) %m_arith18, ptr noundef %call19)
  %21 = load ptr, ptr %is_int.addr, align 8
  %frombool21 = zext i1 %call20 to i8
  store i8 %frombool21, ptr %21, align 1
  %22 = load ptr, ptr %cond.addr, align 8
  %call22 = call noundef ptr @_ZNK3app7get_argEj(ptr noundef nonnull align 8 dereferenceable(32) %22, i32 noundef 0)
  %23 = load ptr, ptr %y.addr, align 8
  %24 = load ptr, ptr %x.addr, align 8
  %25 = load ptr, ptr %k.addr, align 8
  %call23 = call noundef zeroext i1 @_ZNK7datalog24interval_relation_plugin9is_linearEP4exprRjS3_R8rationalb(ptr noundef nonnull align 8 dereferenceable(240) %this1, ptr noundef %call22, ptr noundef nonnull align 4 dereferenceable(4) %23, ptr noundef nonnull align 4 dereferenceable(4) %24, ptr noundef nonnull align 8 dereferenceable(32) %25, i1 noundef zeroext true)
  br i1 %call23, label %if.end25, label %if.then24

if.then24:                                        ; preds = %if.then17
  store i1 false, ptr %retval, align 1
  br label %return

if.end25:                                         ; preds = %if.then17
  %26 = load ptr, ptr %cond.addr, align 8
  %call26 = call noundef ptr @_ZNK3app7get_argEj(ptr noundef nonnull align 8 dereferenceable(32) %26, i32 noundef 1)
  %27 = load ptr, ptr %y.addr, align 8
  %28 = load ptr, ptr %x.addr, align 8
  %29 = load ptr, ptr %k.addr, align 8
  %call27 = call noundef zeroext i1 @_ZNK7datalog24interval_relation_plugin9is_linearEP4exprRjS3_R8rationalb(ptr noundef nonnull align 8 dereferenceable(240) %this1, ptr noundef %call26, ptr noundef nonnull align 4 dereferenceable(4) %27, ptr noundef nonnull align 4 dereferenceable(4) %28, ptr noundef nonnull align 8 dereferenceable(32) %29, i1 noundef zeroext false)
  br i1 %call27, label %if.end29, label %if.then28

if.then28:                                        ; preds = %if.end25
  store i1 false, ptr %retval, align 1
  br label %return

if.end29:                                         ; preds = %if.end25
  %30 = load ptr, ptr %x.addr, align 8
  %31 = load i32, ptr %30, align 4
  %cmp30 = icmp ne i32 %31, -1
  br i1 %cmp30, label %lor.end33, label %lor.rhs31

lor.rhs31:                                        ; preds = %if.end29
  %32 = load ptr, ptr %y.addr, align 8
  %33 = load i32, ptr %32, align 4
  %cmp32 = icmp ne i32 %33, -1
  br label %lor.end33

lor.end33:                                        ; preds = %lor.rhs31, %if.end29
  %34 = phi i1 [ true, %if.end29 ], [ %cmp32, %lor.rhs31 ]
  store i1 %34, ptr %retval, align 1
  br label %return

if.end34:                                         ; preds = %if.end14
  %m_arith35 = getelementptr inbounds %"class.datalog::interval_relation_plugin", ptr %this1, i32 0, i32 3
  %35 = load ptr, ptr %cond.addr, align 8
  %call36 = call noundef zeroext i1 @_ZNK17arith_recognizers5is_ltEPK4expr(ptr noundef nonnull align 1 dereferenceable(1) %m_arith35, ptr noundef %35)
  br i1 %call36, label %land.lhs.true, label %if.end55

land.lhs.true:                                    ; preds = %if.end34
  %m_arith37 = getelementptr inbounds %"class.datalog::interval_relation_plugin", ptr %this1, i32 0, i32 3
  %36 = load ptr, ptr %cond.addr, align 8
  %call38 = call noundef ptr @_ZNK3app7get_argEj(ptr noundef nonnull align 8 dereferenceable(32) %36, i32 noundef 0)
  %call39 = call noundef zeroext i1 @_ZNK17arith_recognizers6is_intEPK4expr(ptr noundef nonnull align 1 dereferenceable(1) %m_arith37, ptr noundef %call38)
  br i1 %call39, label %if.then40, label %if.end55

if.then40:                                        ; preds = %land.lhs.true
  %37 = load ptr, ptr %is_int.addr, align 8
  store i8 1, ptr %37, align 1
  %38 = load ptr, ptr %cond.addr, align 8
  %call41 = call noundef ptr @_ZNK3app7get_argEj(ptr noundef nonnull align 8 dereferenceable(32) %38, i32 noundef 0)
  %39 = load ptr, ptr %y.addr, align 8
  %40 = load ptr, ptr %x.addr, align 8
  %41 = load ptr, ptr %k.addr, align 8
  %call42 = call noundef zeroext i1 @_ZNK7datalog24interval_relation_plugin9is_linearEP4exprRjS3_R8rationalb(ptr noundef nonnull align 8 dereferenceable(240) %this1, ptr noundef %call41, ptr noundef nonnull align 4 dereferenceable(4) %39, ptr noundef nonnull align 4 dereferenceable(4) %40, ptr noundef nonnull align 8 dereferenceable(32) %41, i1 noundef zeroext false)
  br i1 %call42, label %if.end44, label %if.then43

if.then43:                                        ; preds = %if.then40
  store i1 false, ptr %retval, align 1
  br label %return

if.end44:                                         ; preds = %if.then40
  %42 = load ptr, ptr %cond.addr, align 8
  %call45 = call noundef ptr @_ZNK3app7get_argEj(ptr noundef nonnull align 8 dereferenceable(32) %42, i32 noundef 1)
  %43 = load ptr, ptr %y.addr, align 8
  %44 = load ptr, ptr %x.addr, align 8
  %45 = load ptr, ptr %k.addr, align 8
  %call46 = call noundef zeroext i1 @_ZNK7datalog24interval_relation_plugin9is_linearEP4exprRjS3_R8rationalb(ptr noundef nonnull align 8 dereferenceable(240) %this1, ptr noundef %call45, ptr noundef nonnull align 4 dereferenceable(4) %43, ptr noundef nonnull align 4 dereferenceable(4) %44, ptr noundef nonnull align 8 dereferenceable(32) %45, i1 noundef zeroext true)
  br i1 %call46, label %if.end48, label %if.then47

if.then47:                                        ; preds = %if.end44
  store i1 false, ptr %retval, align 1
  br label %return

if.end48:                                         ; preds = %if.end44
  %call49 = call noundef nonnull align 8 dereferenceable(32) ptr @_ZN8rational3oneEv()
  %46 = load ptr, ptr %k.addr, align 8
  %call50 = call noundef nonnull align 8 dereferenceable(32) ptr @_ZN8rationalmIERKS_(ptr noundef nonnull align 8 dereferenceable(32) %46, ptr noundef nonnull align 8 dereferenceable(32) %call49)
  %47 = load ptr, ptr %x.addr, align 8
  %48 = load i32, ptr %47, align 4
  %cmp51 = icmp ne i32 %48, -1
  br i1 %cmp51, label %lor.end54, label %lor.rhs52

lor.rhs52:                                        ; preds = %if.end48
  %49 = load ptr, ptr %y.addr, align 8
  %50 = load i32, ptr %49, align 4
  %cmp53 = icmp ne i32 %50, -1
  br label %lor.end54

lor.end54:                                        ; preds = %lor.rhs52, %if.end48
  %51 = phi i1 [ true, %if.end48 ], [ %cmp53, %lor.rhs52 ]
  store i1 %51, ptr %retval, align 1
  br label %return

if.end55:                                         ; preds = %land.lhs.true, %if.end34
  %m_arith56 = getelementptr inbounds %"class.datalog::interval_relation_plugin", ptr %this1, i32 0, i32 3
  %52 = load ptr, ptr %cond.addr, align 8
  %call57 = call noundef zeroext i1 @_ZNK17arith_recognizers5is_gtEPK4expr(ptr noundef nonnull align 1 dereferenceable(1) %m_arith56, ptr noundef %52)
  br i1 %call57, label %land.lhs.true58, label %if.end77

land.lhs.true58:                                  ; preds = %if.end55
  %m_arith59 = getelementptr inbounds %"class.datalog::interval_relation_plugin", ptr %this1, i32 0, i32 3
  %53 = load ptr, ptr %cond.addr, align 8
  %call60 = call noundef ptr @_ZNK3app7get_argEj(ptr noundef nonnull align 8 dereferenceable(32) %53, i32 noundef 0)
  %call61 = call noundef zeroext i1 @_ZNK17arith_recognizers6is_intEPK4expr(ptr noundef nonnull align 1 dereferenceable(1) %m_arith59, ptr noundef %call60)
  br i1 %call61, label %if.then62, label %if.end77

if.then62:                                        ; preds = %land.lhs.true58
  %54 = load ptr, ptr %is_int.addr, align 8
  store i8 1, ptr %54, align 1
  %55 = load ptr, ptr %cond.addr, align 8
  %call63 = call noundef ptr @_ZNK3app7get_argEj(ptr noundef nonnull align 8 dereferenceable(32) %55, i32 noundef 0)
  %56 = load ptr, ptr %y.addr, align 8
  %57 = load ptr, ptr %x.addr, align 8
  %58 = load ptr, ptr %k.addr, align 8
  %call64 = call noundef zeroext i1 @_ZNK7datalog24interval_relation_plugin9is_linearEP4exprRjS3_R8rationalb(ptr noundef nonnull align 8 dereferenceable(240) %this1, ptr noundef %call63, ptr noundef nonnull align 4 dereferenceable(4) %56, ptr noundef nonnull align 4 dereferenceable(4) %57, ptr noundef nonnull align 8 dereferenceable(32) %58, i1 noundef zeroext true)
  br i1 %call64, label %if.end66, label %if.then65

if.then65:                                        ; preds = %if.then62
  store i1 false, ptr %retval, align 1
  br label %return

if.end66:                                         ; preds = %if.then62
  %59 = load ptr, ptr %cond.addr, align 8
  %call67 = call noundef ptr @_ZNK3app7get_argEj(ptr noundef nonnull align 8 dereferenceable(32) %59, i32 noundef 1)
  %60 = load ptr, ptr %y.addr, align 8
  %61 = load ptr, ptr %x.addr, align 8
  %62 = load ptr, ptr %k.addr, align 8
  %call68 = call noundef zeroext i1 @_ZNK7datalog24interval_relation_plugin9is_linearEP4exprRjS3_R8rationalb(ptr noundef nonnull align 8 dereferenceable(240) %this1, ptr noundef %call67, ptr noundef nonnull align 4 dereferenceable(4) %60, ptr noundef nonnull align 4 dereferenceable(4) %61, ptr noundef nonnull align 8 dereferenceable(32) %62, i1 noundef zeroext false)
  br i1 %call68, label %if.end70, label %if.then69

if.then69:                                        ; preds = %if.end66
  store i1 false, ptr %retval, align 1
  br label %return

if.end70:                                         ; preds = %if.end66
  %call71 = call noundef nonnull align 8 dereferenceable(32) ptr @_ZN8rational3oneEv()
  %63 = load ptr, ptr %k.addr, align 8
  %call72 = call noundef nonnull align 8 dereferenceable(32) ptr @_ZN8rationalpLERKS_(ptr noundef nonnull align 8 dereferenceable(32) %63, ptr noundef nonnull align 8 dereferenceable(32) %call71)
  %64 = load ptr, ptr %x.addr, align 8
  %65 = load i32, ptr %64, align 4
  %cmp73 = icmp ne i32 %65, -1
  br i1 %cmp73, label %lor.end76, label %lor.rhs74

lor.rhs74:                                        ; preds = %if.end70
  %66 = load ptr, ptr %y.addr, align 8
  %67 = load i32, ptr %66, align 4
  %cmp75 = icmp ne i32 %67, -1
  br label %lor.end76

lor.end76:                                        ; preds = %lor.rhs74, %if.end70
  %68 = phi i1 [ true, %if.end70 ], [ %cmp75, %lor.rhs74 ]
  store i1 %68, ptr %retval, align 1
  br label %return

if.end77:                                         ; preds = %land.lhs.true58, %if.end55
  %69 = load ptr, ptr %m, align 8
  %70 = load ptr, ptr %cond.addr, align 8
  %call78 = call noundef zeroext i1 @_ZNK11ast_manager6is_notEPK4expr(ptr noundef nonnull align 8 dereferenceable(976) %69, ptr noundef %70)
  br i1 %call78, label %land.lhs.true79, label %if.end96

land.lhs.true79:                                  ; preds = %if.end77
  %71 = load ptr, ptr %cond.addr, align 8
  %call80 = call noundef ptr @_ZNK3app7get_argEj(ptr noundef nonnull align 8 dereferenceable(32) %71, i32 noundef 0)
  %call81 = call noundef zeroext i1 @_Z6is_appPK3ast(ptr noundef %call80)
  br i1 %call81, label %if.then82, label %if.end96

if.then82:                                        ; preds = %land.lhs.true79
  %72 = load ptr, ptr %cond.addr, align 8
  %call83 = call noundef ptr @_ZNK3app7get_argEj(ptr noundef nonnull align 8 dereferenceable(32) %72, i32 noundef 0)
  %call84 = call noundef ptr @_Z6to_appP3ast(ptr noundef %call83)
  %73 = load ptr, ptr %x.addr, align 8
  %74 = load ptr, ptr %k.addr, align 8
  %75 = load ptr, ptr %y.addr, align 8
  %76 = load ptr, ptr %is_int.addr, align 8
  %call85 = call noundef zeroext i1 @_ZNK7datalog24interval_relation_plugin5is_leEP3appRjR8rationalS3_Rb(ptr noundef nonnull align 8 dereferenceable(240) %this1, ptr noundef %call84, ptr noundef nonnull align 4 dereferenceable(4) %73, ptr noundef nonnull align 8 dereferenceable(32) %74, ptr noundef nonnull align 4 dereferenceable(4) %75, ptr noundef nonnull align 1 dereferenceable(1) %76)
  br i1 %call85, label %land.lhs.true86, label %if.end90

land.lhs.true86:                                  ; preds = %if.then82
  %77 = load ptr, ptr %is_int.addr, align 8
  %78 = load i8, ptr %77, align 1
  %tobool = trunc i8 %78 to i1
  br i1 %tobool, label %if.then87, label %if.end90

if.then87:                                        ; preds = %land.lhs.true86
  %79 = load ptr, ptr %k.addr, align 8
  call void @_ZN8rational3negEv(ptr noundef nonnull align 8 dereferenceable(32) %79)
  %call88 = call noundef nonnull align 8 dereferenceable(32) ptr @_ZN8rational3oneEv()
  %80 = load ptr, ptr %k.addr, align 8
  %call89 = call noundef nonnull align 8 dereferenceable(32) ptr @_ZN8rationalmIERKS_(ptr noundef nonnull align 8 dereferenceable(32) %80, ptr noundef nonnull align 8 dereferenceable(32) %call88)
  %81 = load ptr, ptr %x.addr, align 8
  %82 = load ptr, ptr %y.addr, align 8
  call void @_ZSt4swapIjENSt9enable_ifIXsr6__and_ISt6__not_ISt15__is_tuple_likeIT_EESt21is_move_constructibleIS3_ESt18is_move_assignableIS3_EEE5valueEvE4typeERS3_SC_(ptr noundef nonnull align 4 dereferenceable(4) %81, ptr noundef nonnull align 4 dereferenceable(4) %82) #3
  store i1 true, ptr %retval, align 1
  br label %return

if.end90:                                         ; preds = %land.lhs.true86, %if.then82
  %83 = load ptr, ptr %cond.addr, align 8
  %call91 = call noundef ptr @_ZNK3app7get_argEj(ptr noundef nonnull align 8 dereferenceable(32) %83, i32 noundef 0)
  %call92 = call noundef ptr @_Z6to_appP3ast(ptr noundef %call91)
  %84 = load ptr, ptr %x.addr, align 8
  %85 = load ptr, ptr %k.addr, align 8
  %86 = load ptr, ptr %y.addr, align 8
  %call93 = call noundef zeroext i1 @_ZNK7datalog24interval_relation_plugin5is_ltEP3appRjR8rationalS3_(ptr noundef nonnull align 8 dereferenceable(240) %this1, ptr noundef %call92, ptr noundef nonnull align 4 dereferenceable(4) %84, ptr noundef nonnull align 8 dereferenceable(32) %85, ptr noundef nonnull align 4 dereferenceable(4) %86)
  br i1 %call93, label %if.then94, label %if.end95

if.then94:                                        ; preds = %if.end90
  %87 = load ptr, ptr %is_int.addr, align 8
  store i8 0, ptr %87, align 1
  %88 = load ptr, ptr %k.addr, align 8
  call void @_ZN8rational3negEv(ptr noundef nonnull align 8 dereferenceable(32) %88)
  %89 = load ptr, ptr %x.addr, align 8
  %90 = load ptr, ptr %y.addr, align 8
  call void @_ZSt4swapIjENSt9enable_ifIXsr6__and_ISt6__not_ISt15__is_tuple_likeIT_EESt21is_move_constructibleIS3_ESt18is_move_assignableIS3_EEE5valueEvE4typeERS3_SC_(ptr noundef nonnull align 4 dereferenceable(4) %89, ptr noundef nonnull align 4 dereferenceable(4) %90) #3
  store i1 true, ptr %retval, align 1
  br label %return

if.end95:                                         ; preds = %if.end90
  br label %if.end96

if.end96:                                         ; preds = %if.end95, %land.lhs.true79, %if.end77
  store i1 false, ptr %retval, align 1
  br label %return

return:                                           ; preds = %if.end96, %if.then94, %if.then87, %lor.end76, %if.then69, %if.then65, %lor.end54, %if.then47, %if.then43, %lor.end33, %if.then28, %if.then24, %lor.end, %if.then11, %if.then8
  %91 = load i1, ptr %retval, align 1
  ret i1 %91
}

; Function Attrs: mustprogress uwtable
define hidden noundef zeroext i1 @_ZNK7datalog24interval_relation_plugin5is_eqEP3appRjR8rationalS3_(ptr noundef nonnull align 8 dereferenceable(240) %this, ptr noundef %cond, ptr noundef nonnull align 4 dereferenceable(4) %x, ptr noundef nonnull align 8 dereferenceable(32) %k, ptr noundef nonnull align 4 dereferenceable(4) %y) #4 align 2 {
entry:
  %retval = alloca i1, align 1
  %this.addr = alloca ptr, align 8
  %cond.addr = alloca ptr, align 8
  %x.addr = alloca ptr, align 8
  %k.addr = alloca ptr, align 8
  %y.addr = alloca ptr, align 8
  %m = alloca ptr, align 8
  store ptr %this, ptr %this.addr, align 8
  store ptr %cond, ptr %cond.addr, align 8
  store ptr %x, ptr %x.addr, align 8
  store ptr %k, ptr %k.addr, align 8
  store ptr %y, ptr %y.addr, align 8
  %this1 = load ptr, ptr %this.addr, align 8
  %call = call noundef nonnull align 8 dereferenceable(976) ptr @_ZNK7datalog17tr_infrastructureINS_15relation_traitsEE13plugin_object15get_ast_managerEv(ptr noundef nonnull align 8 dereferenceable(32) %this1)
  store ptr %call, ptr %m, align 8
  %0 = load ptr, ptr %k.addr, align 8
  call void @_ZN8rational5resetEv(ptr noundef nonnull align 8 dereferenceable(32) %0)
  %1 = load ptr, ptr %x.addr, align 8
  store i32 -1, ptr %1, align 4
  %2 = load ptr, ptr %y.addr, align 8
  store i32 -1, ptr %2, align 4
  %3 = load ptr, ptr %m, align 8
  %4 = load ptr, ptr %cond.addr, align 8
  %call2 = call noundef zeroext i1 @_ZNK11ast_manager5is_eqEPK4expr(ptr noundef nonnull align 8 dereferenceable(976) %3, ptr noundef %4)
  br i1 %call2, label %if.then, label %if.end11

if.then:                                          ; preds = %entry
  %5 = load ptr, ptr %cond.addr, align 8
  %call3 = call noundef ptr @_ZNK3app7get_argEj(ptr noundef nonnull align 8 dereferenceable(32) %5, i32 noundef 0)
  %6 = load ptr, ptr %y.addr, align 8
  %7 = load ptr, ptr %x.addr, align 8
  %8 = load ptr, ptr %k.addr, align 8
  %call4 = call noundef zeroext i1 @_ZNK7datalog24interval_relation_plugin9is_linearEP4exprRjS3_R8rationalb(ptr noundef nonnull align 8 dereferenceable(240) %this1, ptr noundef %call3, ptr noundef nonnull align 4 dereferenceable(4) %6, ptr noundef nonnull align 4 dereferenceable(4) %7, ptr noundef nonnull align 8 dereferenceable(32) %8, i1 noundef zeroext false)
  br i1 %call4, label %if.end, label %if.then5

if.then5:                                         ; preds = %if.then
  store i1 false, ptr %retval, align 1
  br label %return

if.end:                                           ; preds = %if.then
  %9 = load ptr, ptr %cond.addr, align 8
  %call6 = call noundef ptr @_ZNK3app7get_argEj(ptr noundef nonnull align 8 dereferenceable(32) %9, i32 noundef 1)
  %10 = load ptr, ptr %y.addr, align 8
  %11 = load ptr, ptr %x.addr, align 8
  %12 = load ptr, ptr %k.addr, align 8
  %call7 = call noundef zeroext i1 @_ZNK7datalog24interval_relation_plugin9is_linearEP4exprRjS3_R8rationalb(ptr noundef nonnull align 8 dereferenceable(240) %this1, ptr noundef %call6, ptr noundef nonnull align 4 dereferenceable(4) %10, ptr noundef nonnull align 4 dereferenceable(4) %11, ptr noundef nonnull align 8 dereferenceable(32) %12, i1 noundef zeroext true)
  br i1 %call7, label %if.end9, label %if.then8

if.then8:                                         ; preds = %if.end
  store i1 false, ptr %retval, align 1
  br label %return

if.end9:                                          ; preds = %if.end
  %13 = load ptr, ptr %x.addr, align 8
  %14 = load i32, ptr %13, align 4
  %cmp = icmp ne i32 %14, -1
  br i1 %cmp, label %lor.end, label %lor.rhs

lor.rhs:                                          ; preds = %if.end9
  %15 = load ptr, ptr %y.addr, align 8
  %16 = load i32, ptr %15, align 4
  %cmp10 = icmp ne i32 %16, -1
  br label %lor.end

lor.end:                                          ; preds = %lor.rhs, %if.end9
  %17 = phi i1 [ true, %if.end9 ], [ %cmp10, %lor.rhs ]
  store i1 %17, ptr %retval, align 1
  br label %return

if.end11:                                         ; preds = %entry
  store i1 false, ptr %retval, align 1
  br label %return

return:                                           ; preds = %if.end11, %lor.end, %if.then8, %if.then5
  %18 = load i1, ptr %retval, align 1
  ret i1 %18
}

declare void @_ZN12old_intervalC1ER25scoped_dependency_managerIPvERK8rationalPN18dependency_managerINS2_6configEE10dependencyESB_(ptr noundef nonnull align 8 dereferenceable(112), ptr noundef nonnull align 8 dereferenceable(72), ptr noundef nonnull align 8 dereferenceable(32), ptr noundef, ptr noundef) unnamed_addr #1

declare noundef nonnull align 8 dereferenceable(112) ptr @_ZN12old_intervalpLERKS_(ptr noundef nonnull align 8 dereferenceable(112), ptr noundef nonnull align 8 dereferenceable(112)) #1

declare noundef nonnull align 8 dereferenceable(112) ptr @_ZN12old_intervalmIERKS_(ptr noundef nonnull align 8 dereferenceable(112), ptr noundef nonnull align 8 dereferenceable(112)) #1

; Function Attrs: mustprogress nounwind uwtable
define linkonce_odr hidden noundef zeroext i1 @_ZNK11ast_manager8is_falseEPK4expr(ptr noundef nonnull align 8 dereferenceable(976) %this, ptr noundef %n) #5 comdat align 2 {
entry:
  %this.addr = alloca ptr, align 8
  %n.addr = alloca ptr, align 8
  store ptr %this, ptr %this.addr, align 8
  store ptr %n, ptr %n.addr, align 8
  %this1 = load ptr, ptr %this.addr, align 8
  %0 = load ptr, ptr %n.addr, align 8
  %m_false = getelementptr inbounds %class.ast_manager, ptr %this1, i32 0, i32 16
  %1 = load ptr, ptr %m_false, align 8
  %cmp = icmp eq ptr %0, %1
  ret i1 %cmp
}

; Function Attrs: mustprogress uwtable
define hidden noundef zeroext i1 @_ZNK7datalog24interval_relation_plugin9is_linearEP4exprRjS3_R8rationalb(ptr noundef nonnull align 8 dereferenceable(240) %this, ptr noundef %e, ptr noundef nonnull align 4 dereferenceable(4) %neg, ptr noundef nonnull align 4 dereferenceable(4) %pos, ptr noundef nonnull align 8 dereferenceable(32) %k, i1 noundef zeroext %is_pos) #4 align 2 personality ptr @__gxx_personality_v0 {
entry:
  %retval = alloca i1, align 1
  %this.addr = alloca ptr, align 8
  %e.addr = alloca ptr, align 8
  %neg.addr = alloca ptr, align 8
  %pos.addr = alloca ptr, align 8
  %k.addr = alloca ptr, align 8
  %is_pos.addr = alloca i8, align 1
  %a = alloca ptr, align 8
  %i = alloca i32, align 4
  %k1 = alloca %class.rational, align 8
  %exn.slot = alloca ptr, align 8
  %ehselector.slot = alloca i32, align 4
  %cleanup.dest.slot = alloca i32, align 4
  store ptr %this, ptr %this.addr, align 8
  store ptr %e, ptr %e.addr, align 8
  store ptr %neg, ptr %neg.addr, align 8
  store ptr %pos, ptr %pos.addr, align 8
  store ptr %k, ptr %k.addr, align 8
  %frombool = zext i1 %is_pos to i8
  store i8 %frombool, ptr %is_pos.addr, align 1
  %this1 = load ptr, ptr %this.addr, align 8
  %0 = load ptr, ptr %e.addr, align 8
  %call = call noundef zeroext i1 @_Z6is_varPK3ast(ptr noundef %0)
  br i1 %call, label %if.then, label %if.end11

if.then:                                          ; preds = %entry
  %1 = load i8, ptr %is_pos.addr, align 1
  %tobool = trunc i8 %1 to i1
  br i1 %tobool, label %land.lhs.true, label %if.end

land.lhs.true:                                    ; preds = %if.then
  %2 = load ptr, ptr %pos.addr, align 8
  %3 = load i32, ptr %2, align 4
  %cmp = icmp eq i32 %3, -1
  br i1 %cmp, label %if.then2, label %if.end

if.then2:                                         ; preds = %land.lhs.true
  %4 = load ptr, ptr %e.addr, align 8
  %call3 = call noundef ptr @_Z6to_varP3ast(ptr noundef %4)
  %call4 = call noundef i32 @_ZNK3var7get_idxEv(ptr noundef nonnull align 8 dereferenceable(32) %call3)
  %5 = load ptr, ptr %pos.addr, align 8
  store i32 %call4, ptr %5, align 4
  store i1 true, ptr %retval, align 1
  br label %return

if.end:                                           ; preds = %land.lhs.true, %if.then
  %6 = load i8, ptr %is_pos.addr, align 1
  %tobool5 = trunc i8 %6 to i1
  br i1 %tobool5, label %if.else, label %land.lhs.true6

land.lhs.true6:                                   ; preds = %if.end
  %7 = load ptr, ptr %neg.addr, align 8
  %8 = load i32, ptr %7, align 4
  %cmp7 = icmp eq i32 %8, -1
  br i1 %cmp7, label %if.then8, label %if.else

if.then8:                                         ; preds = %land.lhs.true6
  %9 = load ptr, ptr %e.addr, align 8
  %call9 = call noundef ptr @_Z6to_varP3ast(ptr noundef %9)
  %call10 = call noundef i32 @_ZNK3var7get_idxEv(ptr noundef nonnull align 8 dereferenceable(32) %call9)
  %10 = load ptr, ptr %neg.addr, align 8
  store i32 %call10, ptr %10, align 4
  store i1 true, ptr %retval, align 1
  br label %return

if.else:                                          ; preds = %land.lhs.true6, %if.end
  store i1 false, ptr %retval, align 1
  br label %return

if.end11:                                         ; preds = %entry
  %11 = load ptr, ptr %e.addr, align 8
  %call12 = call noundef zeroext i1 @_Z6is_appPK3ast(ptr noundef %11)
  br i1 %call12, label %if.end14, label %if.then13

if.then13:                                        ; preds = %if.end11
  store i1 false, ptr %retval, align 1
  br label %return

if.end14:                                         ; preds = %if.end11
  %12 = load ptr, ptr %e.addr, align 8
  %call15 = call noundef ptr @_Z6to_appP3ast(ptr noundef %12)
  store ptr %call15, ptr %a, align 8
  %m_arith = getelementptr inbounds %"class.datalog::interval_relation_plugin", ptr %this1, i32 0, i32 3
  %13 = load ptr, ptr %e.addr, align 8
  %call16 = call noundef zeroext i1 @_ZNK17arith_recognizers6is_addEPK4expr(ptr noundef nonnull align 1 dereferenceable(1) %m_arith, ptr noundef %13)
  br i1 %call16, label %if.then17, label %if.end25

if.then17:                                        ; preds = %if.end14
  store i32 0, ptr %i, align 4
  br label %for.cond

for.cond:                                         ; preds = %for.inc, %if.then17
  %14 = load i32, ptr %i, align 4
  %15 = load ptr, ptr %a, align 8
  %call18 = call noundef i32 @_ZNK3app12get_num_argsEv(ptr noundef nonnull align 8 dereferenceable(32) %15)
  %cmp19 = icmp ult i32 %14, %call18
  br i1 %cmp19, label %for.body, label %for.end

for.body:                                         ; preds = %for.cond
  %16 = load ptr, ptr %a, align 8
  %17 = load i32, ptr %i, align 4
  %call20 = call noundef ptr @_ZNK3app7get_argEj(ptr noundef nonnull align 8 dereferenceable(32) %16, i32 noundef %17)
  %18 = load ptr, ptr %neg.addr, align 8
  %19 = load ptr, ptr %pos.addr, align 8
  %20 = load ptr, ptr %k.addr, align 8
  %21 = load i8, ptr %is_pos.addr, align 1
  %tobool21 = trunc i8 %21 to i1
  %call22 = call noundef zeroext i1 @_ZNK7datalog24interval_relation_plugin9is_linearEP4exprRjS3_R8rationalb(ptr noundef nonnull align 8 dereferenceable(240) %this1, ptr noundef %call20, ptr noundef nonnull align 4 dereferenceable(4) %18, ptr noundef nonnull align 4 dereferenceable(4) %19, ptr noundef nonnull align 8 dereferenceable(32) %20, i1 noundef zeroext %tobool21)
  br i1 %call22, label %if.end24, label %if.then23

if.then23:                                        ; preds = %for.body
  store i1 false, ptr %retval, align 1
  br label %return

if.end24:                                         ; preds = %for.body
  br label %for.inc

for.inc:                                          ; preds = %if.end24
  %22 = load i32, ptr %i, align 4
  %inc = add i32 %22, 1
  store i32 %inc, ptr %i, align 4
  br label %for.cond, !llvm.loop !15

for.end:                                          ; preds = %for.cond
  store i1 true, ptr %retval, align 1
  br label %return

if.end25:                                         ; preds = %if.end14
  %m_arith26 = getelementptr inbounds %"class.datalog::interval_relation_plugin", ptr %this1, i32 0, i32 3
  %23 = load ptr, ptr %e.addr, align 8
  %call27 = call noundef zeroext i1 @_ZNK17arith_recognizers6is_subEPK4expr(ptr noundef nonnull align 1 dereferenceable(1) %m_arith26, ptr noundef %23)
  br i1 %call27, label %if.then28, label %if.end35

if.then28:                                        ; preds = %if.end25
  %24 = load ptr, ptr %a, align 8
  %call29 = call noundef ptr @_ZNK3app7get_argEj(ptr noundef nonnull align 8 dereferenceable(32) %24, i32 noundef 0)
  %25 = load ptr, ptr %neg.addr, align 8
  %26 = load ptr, ptr %pos.addr, align 8
  %27 = load ptr, ptr %k.addr, align 8
  %28 = load i8, ptr %is_pos.addr, align 1
  %tobool30 = trunc i8 %28 to i1
  %call31 = call noundef zeroext i1 @_ZNK7datalog24interval_relation_plugin9is_linearEP4exprRjS3_R8rationalb(ptr noundef nonnull align 8 dereferenceable(240) %this1, ptr noundef %call29, ptr noundef nonnull align 4 dereferenceable(4) %25, ptr noundef nonnull align 4 dereferenceable(4) %26, ptr noundef nonnull align 8 dereferenceable(32) %27, i1 noundef zeroext %tobool30)
  br i1 %call31, label %land.rhs, label %land.end

land.rhs:                                         ; preds = %if.then28
  %29 = load ptr, ptr %a, align 8
  %call32 = call noundef ptr @_ZNK3app7get_argEj(ptr noundef nonnull align 8 dereferenceable(32) %29, i32 noundef 1)
  %30 = load ptr, ptr %neg.addr, align 8
  %31 = load ptr, ptr %pos.addr, align 8
  %32 = load ptr, ptr %k.addr, align 8
  %33 = load i8, ptr %is_pos.addr, align 1
  %tobool33 = trunc i8 %33 to i1
  %lnot = xor i1 %tobool33, true
  %call34 = call noundef zeroext i1 @_ZNK7datalog24interval_relation_plugin9is_linearEP4exprRjS3_R8rationalb(ptr noundef nonnull align 8 dereferenceable(240) %this1, ptr noundef %call32, ptr noundef nonnull align 4 dereferenceable(4) %30, ptr noundef nonnull align 4 dereferenceable(4) %31, ptr noundef nonnull align 8 dereferenceable(32) %32, i1 noundef zeroext %lnot)
  br label %land.end

land.end:                                         ; preds = %land.rhs, %if.then28
  %34 = phi i1 [ false, %if.then28 ], [ %call34, %land.rhs ]
  store i1 %34, ptr %retval, align 1
  br label %return

if.end35:                                         ; preds = %if.end25
  call void @_ZN8rationalC2Ev(ptr noundef nonnull align 8 dereferenceable(32) %k1)
  %m_arith36 = getelementptr inbounds %"class.datalog::interval_relation_plugin", ptr %this1, i32 0, i32 3
  %35 = load ptr, ptr %e.addr, align 8
  %call37 = invoke noundef zeroext i1 @_ZNK17arith_recognizers6is_mulEPK4expr(ptr noundef nonnull align 1 dereferenceable(1) %m_arith36, ptr noundef %35)
          to label %invoke.cont unwind label %lpad

invoke.cont:                                      ; preds = %if.end35
  br i1 %call37, label %land.lhs.true38, label %if.end75

land.lhs.true38:                                  ; preds = %invoke.cont
  %m_arith39 = getelementptr inbounds %"class.datalog::interval_relation_plugin", ptr %this1, i32 0, i32 3
  %36 = load ptr, ptr %a, align 8
  %call41 = invoke noundef ptr @_ZNK3app7get_argEj(ptr noundef nonnull align 8 dereferenceable(32) %36, i32 noundef 0)
          to label %invoke.cont40 unwind label %lpad

invoke.cont40:                                    ; preds = %land.lhs.true38
  %call43 = invoke noundef zeroext i1 @_ZNK10arith_util10is_numeralEPK4exprR8rational(ptr noundef nonnull align 8 dereferenceable(16) %m_arith39, ptr noundef %call41, ptr noundef nonnull align 8 dereferenceable(32) %k1)
          to label %invoke.cont42 unwind label %lpad

invoke.cont42:                                    ; preds = %invoke.cont40
  br i1 %call43, label %land.lhs.true44, label %if.end75

land.lhs.true44:                                  ; preds = %invoke.cont42
  %call46 = invoke noundef zeroext i1 @_ZNK8rational12is_minus_oneEv(ptr noundef nonnull align 8 dereferenceable(32) %k1)
          to label %invoke.cont45 unwind label %lpad

invoke.cont45:                                    ; preds = %land.lhs.true44
  br i1 %call46, label %land.lhs.true47, label %if.end75

land.lhs.true47:                                  ; preds = %invoke.cont45
  %37 = load ptr, ptr %a, align 8
  %call49 = invoke noundef ptr @_ZNK3app7get_argEj(ptr noundef nonnull align 8 dereferenceable(32) %37, i32 noundef 1)
          to label %invoke.cont48 unwind label %lpad

invoke.cont48:                                    ; preds = %land.lhs.true47
  %call51 = invoke noundef zeroext i1 @_Z6is_varPK3ast(ptr noundef %call49)
          to label %invoke.cont50 unwind label %lpad

invoke.cont50:                                    ; preds = %invoke.cont48
  br i1 %call51, label %if.then52, label %if.end75

if.then52:                                        ; preds = %invoke.cont50
  %38 = load i8, ptr %is_pos.addr, align 1
  %tobool53 = trunc i8 %38 to i1
  br i1 %tobool53, label %land.lhs.true54, label %if.end63

land.lhs.true54:                                  ; preds = %if.then52
  %39 = load ptr, ptr %pos.addr, align 8
  %40 = load i32, ptr %39, align 4
  %cmp55 = icmp eq i32 %40, -1
  br i1 %cmp55, label %if.then56, label %if.end63

if.then56:                                        ; preds = %land.lhs.true54
  %41 = load ptr, ptr %a, align 8
  %call58 = invoke noundef ptr @_ZNK3app7get_argEj(ptr noundef nonnull align 8 dereferenceable(32) %41, i32 noundef 1)
          to label %invoke.cont57 unwind label %lpad

invoke.cont57:                                    ; preds = %if.then56
  %call60 = invoke noundef ptr @_Z6to_varP3ast(ptr noundef %call58)
          to label %invoke.cont59 unwind label %lpad

invoke.cont59:                                    ; preds = %invoke.cont57
  %call62 = invoke noundef i32 @_ZNK3var7get_idxEv(ptr noundef nonnull align 8 dereferenceable(32) %call60)
          to label %invoke.cont61 unwind label %lpad

invoke.cont61:                                    ; preds = %invoke.cont59
  %42 = load ptr, ptr %pos.addr, align 8
  store i32 %call62, ptr %42, align 4
  store i1 true, ptr %retval, align 1
  store i32 1, ptr %cleanup.dest.slot, align 4
  br label %cleanup

lpad:                                             ; preds = %if.else84, %if.then81, %if.end75, %invoke.cont70, %invoke.cont68, %if.then67, %invoke.cont59, %invoke.cont57, %if.then56, %invoke.cont48, %land.lhs.true47, %land.lhs.true44, %invoke.cont40, %land.lhs.true38, %if.end35
  %43 = landingpad { ptr, i32 }
          cleanup
  %44 = extractvalue { ptr, i32 } %43, 0
  store ptr %44, ptr %exn.slot, align 8
  %45 = extractvalue { ptr, i32 } %43, 1
  store i32 %45, ptr %ehselector.slot, align 4
  call void @_ZN8rationalD2Ev(ptr noundef nonnull align 8 dereferenceable(32) %k1) #3
  br label %eh.resume

if.end63:                                         ; preds = %land.lhs.true54, %if.then52
  %46 = load i8, ptr %is_pos.addr, align 1
  %tobool64 = trunc i8 %46 to i1
  br i1 %tobool64, label %if.else74, label %land.lhs.true65

land.lhs.true65:                                  ; preds = %if.end63
  %47 = load ptr, ptr %neg.addr, align 8
  %48 = load i32, ptr %47, align 4
  %cmp66 = icmp eq i32 %48, -1
  br i1 %cmp66, label %if.then67, label %if.else74

if.then67:                                        ; preds = %land.lhs.true65
  %49 = load ptr, ptr %a, align 8
  %call69 = invoke noundef ptr @_ZNK3app7get_argEj(ptr noundef nonnull align 8 dereferenceable(32) %49, i32 noundef 1)
          to label %invoke.cont68 unwind label %lpad

invoke.cont68:                                    ; preds = %if.then67
  %call71 = invoke noundef ptr @_Z6to_varP3ast(ptr noundef %call69)
          to label %invoke.cont70 unwind label %lpad

invoke.cont70:                                    ; preds = %invoke.cont68
  %call73 = invoke noundef i32 @_ZNK3var7get_idxEv(ptr noundef nonnull align 8 dereferenceable(32) %call71)
          to label %invoke.cont72 unwind label %lpad

invoke.cont72:                                    ; preds = %invoke.cont70
  %50 = load ptr, ptr %neg.addr, align 8
  store i32 %call73, ptr %50, align 4
  store i1 true, ptr %retval, align 1
  store i32 1, ptr %cleanup.dest.slot, align 4
  br label %cleanup

if.else74:                                        ; preds = %land.lhs.true65, %if.end63
  store i1 false, ptr %retval, align 1
  store i32 1, ptr %cleanup.dest.slot, align 4
  br label %cleanup

if.end75:                                         ; preds = %invoke.cont50, %invoke.cont45, %invoke.cont42, %invoke.cont
  %m_arith76 = getelementptr inbounds %"class.datalog::interval_relation_plugin", ptr %this1, i32 0, i32 3
  %51 = load ptr, ptr %e.addr, align 8
  %call78 = invoke noundef zeroext i1 @_ZNK10arith_util10is_numeralEPK4exprR8rational(ptr noundef nonnull align 8 dereferenceable(16) %m_arith76, ptr noundef %51, ptr noundef nonnull align 8 dereferenceable(32) %k1)
          to label %invoke.cont77 unwind label %lpad

invoke.cont77:                                    ; preds = %if.end75
  br i1 %call78, label %if.then79, label %if.end88

if.then79:                                        ; preds = %invoke.cont77
  %52 = load i8, ptr %is_pos.addr, align 1
  %tobool80 = trunc i8 %52 to i1
  br i1 %tobool80, label %if.then81, label %if.else84

if.then81:                                        ; preds = %if.then79
  %53 = load ptr, ptr %k.addr, align 8
  %call83 = invoke noundef nonnull align 8 dereferenceable(32) ptr @_ZN8rationalpLERKS_(ptr noundef nonnull align 8 dereferenceable(32) %53, ptr noundef nonnull align 8 dereferenceable(32) %k1)
          to label %invoke.cont82 unwind label %lpad

invoke.cont82:                                    ; preds = %if.then81
  br label %if.end87

if.else84:                                        ; preds = %if.then79
  %54 = load ptr, ptr %k.addr, align 8
  %call86 = invoke noundef nonnull align 8 dereferenceable(32) ptr @_ZN8rationalmIERKS_(ptr noundef nonnull align 8 dereferenceable(32) %54, ptr noundef nonnull align 8 dereferenceable(32) %k1)
          to label %invoke.cont85 unwind label %lpad

invoke.cont85:                                    ; preds = %if.else84
  br label %if.end87

if.end87:                                         ; preds = %invoke.cont85, %invoke.cont82
  store i1 true, ptr %retval, align 1
  store i32 1, ptr %cleanup.dest.slot, align 4
  br label %cleanup

if.end88:                                         ; preds = %invoke.cont77
  store i1 false, ptr %retval, align 1
  store i32 1, ptr %cleanup.dest.slot, align 4
  br label %cleanup

cleanup:                                          ; preds = %if.end88, %if.end87, %if.else74, %invoke.cont72, %invoke.cont61
  call void @_ZN8rationalD2Ev(ptr noundef nonnull align 8 dereferenceable(32) %k1) #3
  br label %return

return:                                           ; preds = %cleanup, %land.end, %for.end, %if.then23, %if.then13, %if.else, %if.then8, %if.then2
  %55 = load i1, ptr %retval, align 1
  ret i1 %55

eh.resume:                                        ; preds = %lpad
  %exn = load ptr, ptr %exn.slot, align 8
  %sel = load i32, ptr %ehselector.slot, align 4
  %lpad.val = insertvalue { ptr, i32 } poison, ptr %exn, 0
  %lpad.val89 = insertvalue { ptr, i32 } %lpad.val, i32 %sel, 1
  resume { ptr, i32 } %lpad.val89
}

; Function Attrs: mustprogress uwtable
define linkonce_odr hidden noundef zeroext i1 @_Z6is_varPK3ast(ptr noundef %n) #4 comdat {
entry:
  %n.addr = alloca ptr, align 8
  store ptr %n, ptr %n.addr, align 8
  %0 = load ptr, ptr %n.addr, align 8
  %call = call noundef i32 @_ZNK3ast8get_kindEv(ptr noundef nonnull align 4 dereferenceable(16) %0)
  %cmp = icmp eq i32 %call, 1
  ret i1 %cmp
}

; Function Attrs: mustprogress nounwind uwtable
define linkonce_odr hidden noundef ptr @_Z6to_varP3ast(ptr noundef %n) #5 comdat {
entry:
  %n.addr = alloca ptr, align 8
  store ptr %n, ptr %n.addr, align 8
  %0 = load ptr, ptr %n.addr, align 8
  ret ptr %0
}

; Function Attrs: mustprogress nounwind uwtable
define linkonce_odr hidden noundef i32 @_ZNK3var7get_idxEv(ptr noundef nonnull align 8 dereferenceable(32) %this) #5 comdat align 2 {
entry:
  %this.addr = alloca ptr, align 8
  store ptr %this, ptr %this.addr, align 8
  %this1 = load ptr, ptr %this.addr, align 8
  %m_idx = getelementptr inbounds %class.var, ptr %this1, i32 0, i32 1
  %0 = load i32, ptr %m_idx, align 8
  ret i32 %0
}

; Function Attrs: mustprogress nounwind uwtable
define linkonce_odr hidden noundef zeroext i1 @_Z6is_appPK3ast(ptr noundef %n) #5 comdat {
entry:
  %n.addr = alloca ptr, align 8
  store ptr %n, ptr %n.addr, align 8
  %0 = load ptr, ptr %n.addr, align 8
  %call = call noundef i32 @_ZNK3ast8get_kindEv(ptr noundef nonnull align 4 dereferenceable(16) %0)
  %cmp = icmp eq i32 %call, 0
  ret i1 %cmp
}

; Function Attrs: mustprogress nounwind uwtable
define linkonce_odr hidden noundef ptr @_Z6to_appP3ast(ptr noundef %n) #5 comdat {
entry:
  %n.addr = alloca ptr, align 8
  store ptr %n, ptr %n.addr, align 8
  %0 = load ptr, ptr %n.addr, align 8
  ret ptr %0
}

; Function Attrs: mustprogress uwtable
define linkonce_odr hidden noundef zeroext i1 @_ZNK17arith_recognizers6is_addEPK4expr(ptr noundef nonnull align 1 dereferenceable(1) %this, ptr noundef %n) #4 comdat align 2 {
entry:
  %this.addr = alloca ptr, align 8
  %n.addr = alloca ptr, align 8
  store ptr %this, ptr %this.addr, align 8
  store ptr %n, ptr %n.addr, align 8
  %0 = load ptr, ptr %n.addr, align 8
  %call = call noundef zeroext i1 @_Z9is_app_ofPK4exprii(ptr noundef %0, i32 noundef 5, i32 noundef 6)
  ret i1 %call
}

; Function Attrs: mustprogress nounwind uwtable
define linkonce_odr hidden noundef i32 @_ZNK3app12get_num_argsEv(ptr noundef nonnull align 8 dereferenceable(32) %this) #5 comdat align 2 {
entry:
  %this.addr = alloca ptr, align 8
  store ptr %this, ptr %this.addr, align 8
  %this1 = load ptr, ptr %this.addr, align 8
  %m_num_args = getelementptr inbounds %class.app, ptr %this1, i32 0, i32 2
  %0 = load i32, ptr %m_num_args, align 8
  ret i32 %0
}

; Function Attrs: mustprogress nounwind uwtable
define linkonce_odr hidden noundef ptr @_ZNK3app7get_argEj(ptr noundef nonnull align 8 dereferenceable(32) %this, i32 noundef %idx) #5 comdat align 2 {
entry:
  %this.addr = alloca ptr, align 8
  %idx.addr = alloca i32, align 4
  store ptr %this, ptr %this.addr, align 8
  store i32 %idx, ptr %idx.addr, align 4
  %this1 = load ptr, ptr %this.addr, align 8
  %m_args = getelementptr inbounds %class.app, ptr %this1, i32 0, i32 3
  %0 = load i32, ptr %idx.addr, align 4
  %idxprom = zext i32 %0 to i64
  %arrayidx = getelementptr inbounds [0 x ptr], ptr %m_args, i64 0, i64 %idxprom
  %1 = load ptr, ptr %arrayidx, align 8
  ret ptr %1
}

; Function Attrs: mustprogress uwtable
define linkonce_odr hidden noundef zeroext i1 @_ZNK17arith_recognizers6is_subEPK4expr(ptr noundef nonnull align 1 dereferenceable(1) %this, ptr noundef %n) #4 comdat align 2 {
entry:
  %this.addr = alloca ptr, align 8
  %n.addr = alloca ptr, align 8
  store ptr %this, ptr %this.addr, align 8
  store ptr %n, ptr %n.addr, align 8
  %0 = load ptr, ptr %n.addr, align 8
  %call = call noundef zeroext i1 @_Z9is_app_ofPK4exprii(ptr noundef %0, i32 noundef 5, i32 noundef 7)
  ret i1 %call
}

; Function Attrs: mustprogress uwtable
define linkonce_odr hidden noundef zeroext i1 @_ZNK17arith_recognizers6is_mulEPK4expr(ptr noundef nonnull align 1 dereferenceable(1) %this, ptr noundef %n) #4 comdat align 2 {
entry:
  %this.addr = alloca ptr, align 8
  %n.addr = alloca ptr, align 8
  store ptr %this, ptr %this.addr, align 8
  store ptr %n, ptr %n.addr, align 8
  %0 = load ptr, ptr %n.addr, align 8
  %call = call noundef zeroext i1 @_Z9is_app_ofPK4exprii(ptr noundef %0, i32 noundef 5, i32 noundef 9)
  ret i1 %call
}

; Function Attrs: mustprogress uwtable
define linkonce_odr hidden noundef zeroext i1 @_ZNK8rational12is_minus_oneEv(ptr noundef nonnull align 8 dereferenceable(32) %this) #4 comdat align 2 {
entry:
  %this.addr = alloca ptr, align 8
  store ptr %this, ptr %this.addr, align 8
  %this1 = load ptr, ptr %this.addr, align 8
  %call = call noundef nonnull align 8 dereferenceable(728) ptr @_ZN8rational1mEv()
  %m_val = getelementptr inbounds %class.rational, ptr %this1, i32 0, i32 0
  %call2 = call noundef zeroext i1 @_ZN11mpq_managerILb1EE12is_minus_oneERK3mpq(ptr noundef nonnull align 8 dereferenceable(32) %m_val)
  ret i1 %call2
}

; Function Attrs: mustprogress uwtable
define linkonce_odr hidden noundef nonnull align 8 dereferenceable(32) ptr @_ZN8rationalpLERKS_(ptr noundef nonnull align 8 dereferenceable(32) %this, ptr noundef nonnull align 8 dereferenceable(32) %r) #4 comdat align 2 {
entry:
  %this.addr = alloca ptr, align 8
  %r.addr = alloca ptr, align 8
  store ptr %this, ptr %this.addr, align 8
  store ptr %r, ptr %r.addr, align 8
  %this1 = load ptr, ptr %this.addr, align 8
  %call = call noundef nonnull align 8 dereferenceable(728) ptr @_ZN8rational1mEv()
  %m_val = getelementptr inbounds %class.rational, ptr %this1, i32 0, i32 0
  %0 = load ptr, ptr %r.addr, align 8
  %m_val2 = getelementptr inbounds %class.rational, ptr %0, i32 0, i32 0
  %m_val3 = getelementptr inbounds %class.rational, ptr %this1, i32 0, i32 0
  call void @_ZN11mpq_managerILb1EE3addERK3mpqS3_RS1_(ptr noundef nonnull align 8 dereferenceable(728) %call, ptr noundef nonnull align 8 dereferenceable(32) %m_val, ptr noundef nonnull align 8 dereferenceable(32) %m_val2, ptr noundef nonnull align 8 dereferenceable(32) %m_val3)
  ret ptr %this1
}

; Function Attrs: mustprogress uwtable
define linkonce_odr hidden noundef nonnull align 8 dereferenceable(32) ptr @_ZN8rationalmIERKS_(ptr noundef nonnull align 8 dereferenceable(32) %this, ptr noundef nonnull align 8 dereferenceable(32) %r) #4 comdat align 2 {
entry:
  %this.addr = alloca ptr, align 8
  %r.addr = alloca ptr, align 8
  store ptr %this, ptr %this.addr, align 8
  store ptr %r, ptr %r.addr, align 8
  %this1 = load ptr, ptr %this.addr, align 8
  %call = call noundef nonnull align 8 dereferenceable(728) ptr @_ZN8rational1mEv()
  %m_val = getelementptr inbounds %class.rational, ptr %this1, i32 0, i32 0
  %0 = load ptr, ptr %r.addr, align 8
  %m_val2 = getelementptr inbounds %class.rational, ptr %0, i32 0, i32 0
  %m_val3 = getelementptr inbounds %class.rational, ptr %this1, i32 0, i32 0
  call void @_ZN11mpq_managerILb1EE3subERK3mpqS3_RS1_(ptr noundef nonnull align 8 dereferenceable(728) %call, ptr noundef nonnull align 8 dereferenceable(32) %m_val, ptr noundef nonnull align 8 dereferenceable(32) %m_val2, ptr noundef nonnull align 8 dereferenceable(32) %m_val3)
  ret ptr %this1
}

; Function Attrs: mustprogress uwtable
define linkonce_odr hidden void @_ZN8rational5resetEv(ptr noundef nonnull align 8 dereferenceable(32) %this) #4 comdat align 2 {
entry:
  %this.addr = alloca ptr, align 8
  store ptr %this, ptr %this.addr, align 8
  %this1 = load ptr, ptr %this.addr, align 8
  %call = call noundef nonnull align 8 dereferenceable(728) ptr @_ZN8rational1mEv()
  %m_val = getelementptr inbounds %class.rational, ptr %this1, i32 0, i32 0
  call void @_ZN11mpq_managerILb1EE5resetER3mpq(ptr noundef nonnull align 8 dereferenceable(728) %call, ptr noundef nonnull align 8 dereferenceable(32) %m_val)
  ret void
}

; Function Attrs: mustprogress uwtable
define linkonce_odr hidden noundef zeroext i1 @_ZNK17arith_recognizers5is_leEPK4expr(ptr noundef nonnull align 1 dereferenceable(1) %this, ptr noundef %n) #4 comdat align 2 {
entry:
  %this.addr = alloca ptr, align 8
  %n.addr = alloca ptr, align 8
  store ptr %this, ptr %this.addr, align 8
  store ptr %n, ptr %n.addr, align 8
  %0 = load ptr, ptr %n.addr, align 8
  %call = call noundef zeroext i1 @_Z9is_app_ofPK4exprii(ptr noundef %0, i32 noundef 5, i32 noundef 2)
  ret i1 %call
}

; Function Attrs: mustprogress uwtable
define linkonce_odr hidden noundef zeroext i1 @_ZNK17arith_recognizers6is_intEPK4expr(ptr noundef nonnull align 1 dereferenceable(1) %this, ptr noundef %n) #4 comdat align 2 {
entry:
  %this.addr = alloca ptr, align 8
  %n.addr = alloca ptr, align 8
  store ptr %this, ptr %this.addr, align 8
  store ptr %n, ptr %n.addr, align 8
  %this1 = load ptr, ptr %this.addr, align 8
  %0 = load ptr, ptr %n.addr, align 8
  %call = call noundef ptr @_ZNK4expr8get_sortEv(ptr noundef nonnull align 4 dereferenceable(16) %0)
  %call2 = call noundef zeroext i1 @_ZNK17arith_recognizers6is_intEPK4sort(ptr noundef nonnull align 1 dereferenceable(1) %this1, ptr noundef %call)
  ret i1 %call2
}

; Function Attrs: mustprogress uwtable
define linkonce_odr hidden noundef zeroext i1 @_ZNK17arith_recognizers5is_geEPK4expr(ptr noundef nonnull align 1 dereferenceable(1) %this, ptr noundef %n) #4 comdat align 2 {
entry:
  %this.addr = alloca ptr, align 8
  %n.addr = alloca ptr, align 8
  store ptr %this, ptr %this.addr, align 8
  store ptr %n, ptr %n.addr, align 8
  %0 = load ptr, ptr %n.addr, align 8
  %call = call noundef zeroext i1 @_Z9is_app_ofPK4exprii(ptr noundef %0, i32 noundef 5, i32 noundef 3)
  ret i1 %call
}

; Function Attrs: mustprogress uwtable
define linkonce_odr hidden noundef zeroext i1 @_ZNK17arith_recognizers5is_ltEPK4expr(ptr noundef nonnull align 1 dereferenceable(1) %this, ptr noundef %n) #4 comdat align 2 {
entry:
  %this.addr = alloca ptr, align 8
  %n.addr = alloca ptr, align 8
  store ptr %this, ptr %this.addr, align 8
  store ptr %n, ptr %n.addr, align 8
  %0 = load ptr, ptr %n.addr, align 8
  %call = call noundef zeroext i1 @_Z9is_app_ofPK4exprii(ptr noundef %0, i32 noundef 5, i32 noundef 4)
  ret i1 %call
}

; Function Attrs: mustprogress nounwind uwtable
define linkonce_odr hidden noundef nonnull align 8 dereferenceable(32) ptr @_ZN8rational3oneEv() #5 comdat align 2 {
entry:
  ret ptr @_ZN8rational5m_oneE
}

; Function Attrs: mustprogress uwtable
define linkonce_odr hidden noundef zeroext i1 @_ZNK17arith_recognizers5is_gtEPK4expr(ptr noundef nonnull align 1 dereferenceable(1) %this, ptr noundef %n) #4 comdat align 2 {
entry:
  %this.addr = alloca ptr, align 8
  %n.addr = alloca ptr, align 8
  store ptr %this, ptr %this.addr, align 8
  store ptr %n, ptr %n.addr, align 8
  %0 = load ptr, ptr %n.addr, align 8
  %call = call noundef zeroext i1 @_Z9is_app_ofPK4exprii(ptr noundef %0, i32 noundef 5, i32 noundef 5)
  ret i1 %call
}

; Function Attrs: mustprogress uwtable
define linkonce_odr hidden noundef zeroext i1 @_ZNK11ast_manager6is_notEPK4expr(ptr noundef nonnull align 8 dereferenceable(976) %this, ptr noundef %n) #4 comdat align 2 {
entry:
  %this.addr = alloca ptr, align 8
  %n.addr = alloca ptr, align 8
  store ptr %this, ptr %this.addr, align 8
  store ptr %n, ptr %n.addr, align 8
  %0 = load ptr, ptr %n.addr, align 8
  %call = call noundef zeroext i1 @_Z9is_app_ofPK4exprii(ptr noundef %0, i32 noundef 0, i32 noundef 8)
  ret i1 %call
}

; Function Attrs: mustprogress uwtable
define linkonce_odr hidden void @_ZN8rational3negEv(ptr noundef nonnull align 8 dereferenceable(32) %this) #4 comdat align 2 {
entry:
  %this.addr = alloca ptr, align 8
  store ptr %this, ptr %this.addr, align 8
  %this1 = load ptr, ptr %this.addr, align 8
  %call = call noundef nonnull align 8 dereferenceable(728) ptr @_ZN8rational1mEv()
  %m_val = getelementptr inbounds %class.rational, ptr %this1, i32 0, i32 0
  call void @_ZN11mpq_managerILb1EE3negER3mpq(ptr noundef nonnull align 8 dereferenceable(728) %call, ptr noundef nonnull align 8 dereferenceable(32) %m_val)
  ret void
}

; Function Attrs: mustprogress nounwind uwtable
define linkonce_odr void @_ZSt4swapIjENSt9enable_ifIXsr6__and_ISt6__not_ISt15__is_tuple_likeIT_EESt21is_move_constructibleIS3_ESt18is_move_assignableIS3_EEE5valueEvE4typeERS3_SC_(ptr noundef nonnull align 4 dereferenceable(4) %__a, ptr noundef nonnull align 4 dereferenceable(4) %__b) #5 comdat {
entry:
  %__a.addr = alloca ptr, align 8
  %__b.addr = alloca ptr, align 8
  %__tmp = alloca i32, align 4
  store ptr %__a, ptr %__a.addr, align 8
  store ptr %__b, ptr %__b.addr, align 8
  %0 = load ptr, ptr %__a.addr, align 8
  %1 = load i32, ptr %0, align 4
  store i32 %1, ptr %__tmp, align 4
  %2 = load ptr, ptr %__b.addr, align 8
  %3 = load i32, ptr %2, align 4
  %4 = load ptr, ptr %__a.addr, align 8
  store i32 %3, ptr %4, align 4
  %5 = load i32, ptr %__tmp, align 4
  %6 = load ptr, ptr %__b.addr, align 8
  store i32 %5, ptr %6, align 4
  ret void
}

; Function Attrs: mustprogress uwtable
define linkonce_odr hidden noundef zeroext i1 @_ZNK17arith_recognizers7is_realEPK4expr(ptr noundef nonnull align 1 dereferenceable(1) %this, ptr noundef %n) #4 comdat align 2 {
entry:
  %this.addr = alloca ptr, align 8
  %n.addr = alloca ptr, align 8
  store ptr %this, ptr %this.addr, align 8
  store ptr %n, ptr %n.addr, align 8
  %this1 = load ptr, ptr %this.addr, align 8
  %0 = load ptr, ptr %n.addr, align 8
  %call = call noundef ptr @_ZNK4expr8get_sortEv(ptr noundef nonnull align 4 dereferenceable(16) %0)
  %call2 = call noundef zeroext i1 @_ZNK17arith_recognizers7is_realEPK4sort(ptr noundef nonnull align 1 dereferenceable(1) %this1, ptr noundef %call)
  ret i1 %call2
}

; Function Attrs: mustprogress uwtable
define linkonce_odr hidden noundef zeroext i1 @_ZNK11ast_manager5is_eqEPK4expr(ptr noundef nonnull align 8 dereferenceable(976) %this, ptr noundef %n) #4 comdat align 2 {
entry:
  %this.addr = alloca ptr, align 8
  %n.addr = alloca ptr, align 8
  store ptr %this, ptr %this.addr, align 8
  store ptr %n, ptr %n.addr, align 8
  %0 = load ptr, ptr %n.addr, align 8
  %call = call noundef zeroext i1 @_Z9is_app_ofPK4exprii(ptr noundef %0, i32 noundef 0, i32 noundef 2)
  ret i1 %call
}

; Function Attrs: mustprogress nounwind uwtable
define linkonce_odr hidden void @_ZN7datalog24interval_relation_pluginD2Ev(ptr noundef nonnull align 8 dereferenceable(240) %this) unnamed_addr #5 comdat align 2 {
entry:
  %this.addr = alloca ptr, align 8
  store ptr %this, ptr %this.addr, align 8
  %this1 = load ptr, ptr %this.addr, align 8
  store ptr getelementptr inbounds ({ [28 x ptr] }, ptr @_ZTVN7datalog24interval_relation_pluginE, i32 0, inrange i32 0, i32 2), ptr %this1, align 8
  %m_empty = getelementptr inbounds %"class.datalog::interval_relation_plugin", ptr %this1, i32 0, i32 2
  call void @_ZN12old_intervalD2Ev(ptr noundef nonnull align 8 dereferenceable(112) %m_empty) #3
  %m_dep = getelementptr inbounds %"class.datalog::interval_relation_plugin", ptr %this1, i32 0, i32 1
  call void @_ZN25scoped_dependency_managerIPvED2Ev(ptr noundef nonnull align 8 dereferenceable(72) %m_dep) #3
  call void @_ZN7datalog15relation_pluginD2Ev(ptr noundef nonnull align 8 dereferenceable(36) %this1) #3
  ret void
}

; Function Attrs: mustprogress nounwind uwtable
define linkonce_odr hidden void @_ZN7datalog24interval_relation_pluginD0Ev(ptr noundef nonnull align 8 dereferenceable(240) %this) unnamed_addr #5 comdat align 2 {
entry:
  %this.addr = alloca ptr, align 8
  store ptr %this, ptr %this.addr, align 8
  %this1 = load ptr, ptr %this.addr, align 8
  call void @_ZN7datalog24interval_relation_pluginD2Ev(ptr noundef nonnull align 8 dereferenceable(240) %this1) #3
  call void @_ZdlPv(ptr noundef %this1) #17
  ret void
}

; Function Attrs: mustprogress nounwind uwtable
define linkonce_odr hidden void @_ZN7datalog17tr_infrastructureINS_15relation_traitsEE13plugin_object10initializeEi(ptr noundef nonnull align 8 dereferenceable(32) %this, i32 noundef %fid) unnamed_addr #5 comdat align 2 {
entry:
  %this.addr = alloca ptr, align 8
  %fid.addr = alloca i32, align 4
  store ptr %this, ptr %this.addr, align 8
  store i32 %fid, ptr %fid.addr, align 4
  %this1 = load ptr, ptr %this.addr, align 8
  %0 = load i32, ptr %fid.addr, align 4
  %m_kind = getelementptr inbounds %"class.datalog::tr_infrastructure<datalog::relation_traits>::plugin_object", ptr %this1, i32 0, i32 1
  store i32 %0, ptr %m_kind, align 8
  ret void
}

; Function Attrs: mustprogress uwtable
define linkonce_odr hidden noundef zeroext i1 @_ZN7datalog17tr_infrastructureINS_15relation_traitsEE13plugin_object20can_handle_signatureERKNS_18relation_signatureEi(ptr noundef nonnull align 8 dereferenceable(32) %this, ptr noundef nonnull align 8 dereferenceable(8) %s, i32 noundef %kind) unnamed_addr #4 comdat align 2 {
entry:
  %this.addr = alloca ptr, align 8
  %s.addr = alloca ptr, align 8
  %kind.addr = alloca i32, align 4
  store ptr %this, ptr %this.addr, align 8
  store ptr %s, ptr %s.addr, align 8
  store i32 %kind, ptr %kind.addr, align 4
  %this1 = load ptr, ptr %this.addr, align 8
  %0 = load ptr, ptr %s.addr, align 8
  %vtable = load ptr, ptr %this1, align 8
  %vfn = getelementptr inbounds ptr, ptr %vtable, i64 3
  %1 = load ptr, ptr %vfn, align 8
  %call = call noundef zeroext i1 %1(ptr noundef nonnull align 8 dereferenceable(32) %this1, ptr noundef nonnull align 8 dereferenceable(8) %0)
  ret i1 %call
}

; Function Attrs: mustprogress uwtable
define linkonce_odr hidden noundef ptr @_ZN7datalog17tr_infrastructureINS_15relation_traitsEE13plugin_object8mk_emptyERKNS_18relation_signatureEi(ptr noundef nonnull align 8 dereferenceable(32) %this, ptr noundef nonnull align 8 dereferenceable(8) %s, i32 noundef %kind) unnamed_addr #4 comdat align 2 {
entry:
  %this.addr = alloca ptr, align 8
  %s.addr = alloca ptr, align 8
  %kind.addr = alloca i32, align 4
  store ptr %this, ptr %this.addr, align 8
  store ptr %s, ptr %s.addr, align 8
  store i32 %kind, ptr %kind.addr, align 4
  %this1 = load ptr, ptr %this.addr, align 8
  %0 = load ptr, ptr %s.addr, align 8
  %vtable = load ptr, ptr %this1, align 8
  %vfn = getelementptr inbounds ptr, ptr %vtable, i64 5
  %1 = load ptr, ptr %vfn, align 8
  %call = call noundef ptr %1(ptr noundef nonnull align 8 dereferenceable(32) %this1, ptr noundef nonnull align 8 dereferenceable(8) %0)
  ret ptr %call
}

; Function Attrs: mustprogress uwtable
define linkonce_odr hidden noundef ptr @_ZN7datalog17tr_infrastructureINS_15relation_traitsEE13plugin_object8mk_emptyERKNS_13relation_baseE(ptr noundef nonnull align 8 dereferenceable(32) %this, ptr noundef nonnull align 8 dereferenceable(28) %orig) unnamed_addr #4 comdat align 2 {
entry:
  %this.addr = alloca ptr, align 8
  %orig.addr = alloca ptr, align 8
  store ptr %this, ptr %this.addr, align 8
  store ptr %orig, ptr %orig.addr, align 8
  %this1 = load ptr, ptr %this.addr, align 8
  %0 = load ptr, ptr %orig.addr, align 8
  %call = call noundef nonnull align 8 dereferenceable(8) ptr @_ZNK7datalog17tr_infrastructureINS_15relation_traitsEE13base_ancestor13get_signatureEv(ptr noundef nonnull align 8 dereferenceable(28) %0)
  %1 = load ptr, ptr %orig.addr, align 8
  %call2 = call noundef i32 @_ZNK7datalog17tr_infrastructureINS_15relation_traitsEE13base_ancestor8get_kindEv(ptr noundef nonnull align 8 dereferenceable(28) %1)
  %vtable = load ptr, ptr %this1, align 8
  %vfn = getelementptr inbounds ptr, ptr %vtable, i64 6
  %2 = load ptr, ptr %vfn, align 8
  %call3 = call noundef ptr %2(ptr noundef nonnull align 8 dereferenceable(32) %this1, ptr noundef nonnull align 8 dereferenceable(8) %call, i32 noundef %call2)
  ret ptr %call3
}

; Function Attrs: mustprogress uwtable
define linkonce_odr hidden noundef ptr @_ZN7datalog17tr_infrastructureINS_15relation_traitsEE13plugin_object7mk_fullEP9func_declRKNS_18relation_signatureEi(ptr noundef nonnull align 8 dereferenceable(32) %this, ptr noundef %p, ptr noundef nonnull align 8 dereferenceable(8) %s, i32 noundef %kind) unnamed_addr #4 comdat align 2 {
entry:
  %retval = alloca ptr, align 8
  %this.addr = alloca ptr, align 8
  %p.addr = alloca ptr, align 8
  %s.addr = alloca ptr, align 8
  %kind.addr = alloca i32, align 4
  %aux = alloca ptr, align 8
  %res = alloca ptr, align 8
  store ptr %this, ptr %this.addr, align 8
  store ptr %p, ptr %p.addr, align 8
  store ptr %s, ptr %s.addr, align 8
  store i32 %kind, ptr %kind.addr, align 4
  %this1 = load ptr, ptr %this.addr, align 8
  %0 = load i32, ptr %kind.addr, align 4
  %call = call noundef i32 @_ZNK7datalog17tr_infrastructureINS_15relation_traitsEE13plugin_object8get_kindEv(ptr noundef nonnull align 8 dereferenceable(32) %this1)
  %cmp = icmp eq i32 %0, %call
  br i1 %cmp, label %if.then, label %lor.lhs.false

lor.lhs.false:                                    ; preds = %entry
  %1 = load i32, ptr %kind.addr, align 4
  %cmp2 = icmp eq i32 %1, -1
  br i1 %cmp2, label %if.then, label %if.end

if.then:                                          ; preds = %lor.lhs.false, %entry
  %2 = load ptr, ptr %p.addr, align 8
  %3 = load ptr, ptr %s.addr, align 8
  %vtable = load ptr, ptr %this1, align 8
  %vfn = getelementptr inbounds ptr, ptr %vtable, i64 8
  %4 = load ptr, ptr %vfn, align 8
  %call3 = call noundef ptr %4(ptr noundef nonnull align 8 dereferenceable(32) %this1, ptr noundef %2, ptr noundef nonnull align 8 dereferenceable(8) %3)
  store ptr %call3, ptr %retval, align 8
  br label %return

if.end:                                           ; preds = %lor.lhs.false
  %5 = load ptr, ptr %s.addr, align 8
  %6 = load i32, ptr %kind.addr, align 4
  %vtable4 = load ptr, ptr %this1, align 8
  %vfn5 = getelementptr inbounds ptr, ptr %vtable4, i64 6
  %7 = load ptr, ptr %vfn5, align 8
  %call6 = call noundef ptr %7(ptr noundef nonnull align 8 dereferenceable(32) %this1, ptr noundef nonnull align 8 dereferenceable(8) %5, i32 noundef %6)
  store ptr %call6, ptr %aux, align 8
  %8 = load ptr, ptr %aux, align 8
  %9 = load ptr, ptr %p.addr, align 8
  %vtable7 = load ptr, ptr %8, align 8
  %vfn8 = getelementptr inbounds ptr, ptr %vtable7, i64 16
  %10 = load ptr, ptr %vfn8, align 8
  %call9 = call noundef ptr %10(ptr noundef nonnull align 8 dereferenceable(28) %8, ptr noundef %9)
  store ptr %call9, ptr %res, align 8
  %11 = load ptr, ptr %aux, align 8
  %vtable10 = load ptr, ptr %11, align 8
  %vfn11 = getelementptr inbounds ptr, ptr %vtable10, i64 2
  %12 = load ptr, ptr %vfn11, align 8
  call void %12(ptr noundef nonnull align 8 dereferenceable(28) %11)
  %13 = load ptr, ptr %res, align 8
  store ptr %13, ptr %retval, align 8
  br label %return

return:                                           ; preds = %if.end, %if.then
  %14 = load ptr, ptr %retval, align 8
  ret ptr %14
}

; Function Attrs: mustprogress nounwind uwtable
define linkonce_odr hidden noundef ptr @_ZN7datalog17tr_infrastructureINS_15relation_traitsEE13plugin_object18mk_join_project_fnERKNS_13relation_baseES6_jPKjS8_jS8_(ptr noundef nonnull align 8 dereferenceable(32) %this, ptr noundef nonnull align 8 dereferenceable(28) %t1, ptr noundef nonnull align 8 dereferenceable(28) %t2, i32 noundef %joined_col_cnt, ptr noundef %cols1, ptr noundef %cols2, i32 noundef %removed_col_cnt, ptr noundef %removed_cols) unnamed_addr #5 comdat align 2 {
entry:
  %this.addr = alloca ptr, align 8
  %t1.addr = alloca ptr, align 8
  %t2.addr = alloca ptr, align 8
  %joined_col_cnt.addr = alloca i32, align 4
  %cols1.addr = alloca ptr, align 8
  %cols2.addr = alloca ptr, align 8
  %removed_col_cnt.addr = alloca i32, align 4
  %removed_cols.addr = alloca ptr, align 8
  store ptr %this, ptr %this.addr, align 8
  store ptr %t1, ptr %t1.addr, align 8
  store ptr %t2, ptr %t2.addr, align 8
  store i32 %joined_col_cnt, ptr %joined_col_cnt.addr, align 4
  store ptr %cols1, ptr %cols1.addr, align 8
  store ptr %cols2, ptr %cols2.addr, align 8
  store i32 %removed_col_cnt, ptr %removed_col_cnt.addr, align 4
  store ptr %removed_cols, ptr %removed_cols.addr, align 8
  ret ptr null
}

; Function Attrs: mustprogress nounwind uwtable
define linkonce_odr hidden noundef ptr @_ZN7datalog17tr_infrastructureINS_15relation_traitsEE13plugin_object24mk_permutation_rename_fnERKNS_13relation_baseEPKj(ptr noundef nonnull align 8 dereferenceable(32) %this, ptr noundef nonnull align 8 dereferenceable(28) %t, ptr noundef %permutation) unnamed_addr #5 comdat align 2 {
entry:
  %this.addr = alloca ptr, align 8
  %t.addr = alloca ptr, align 8
  %permutation.addr = alloca ptr, align 8
  store ptr %this, ptr %this.addr, align 8
  store ptr %t, ptr %t.addr, align 8
  store ptr %permutation, ptr %permutation.addr, align 8
  ret ptr null
}

; Function Attrs: mustprogress nounwind uwtable
define linkonce_odr hidden noundef ptr @_ZN7datalog17tr_infrastructureINS_15relation_traitsEE13plugin_object36mk_filter_interpreted_and_project_fnERKNS_13relation_baseEP3appjPKj(ptr noundef nonnull align 8 dereferenceable(32) %this, ptr noundef nonnull align 8 dereferenceable(28) %t, ptr noundef %condition, i32 noundef %removed_col_cnt, ptr noundef %removed_cols) unnamed_addr #5 comdat align 2 {
entry:
  %this.addr = alloca ptr, align 8
  %t.addr = alloca ptr, align 8
  %condition.addr = alloca ptr, align 8
  %removed_col_cnt.addr = alloca i32, align 4
  %removed_cols.addr = alloca ptr, align 8
  store ptr %this, ptr %this.addr, align 8
  store ptr %t, ptr %t.addr, align 8
  store ptr %condition, ptr %condition.addr, align 8
  store i32 %removed_col_cnt, ptr %removed_col_cnt.addr, align 4
  store ptr %removed_cols, ptr %removed_cols.addr, align 8
  ret ptr null
}

; Function Attrs: mustprogress nounwind uwtable
define linkonce_odr hidden noundef ptr @_ZN7datalog17tr_infrastructureINS_15relation_traitsEE13plugin_object30mk_select_equal_and_project_fnERKNS_13relation_baseERKP3appj(ptr noundef nonnull align 8 dereferenceable(32) %this, ptr noundef nonnull align 8 dereferenceable(28) %t, ptr noundef nonnull align 8 dereferenceable(8) %value, i32 noundef %col) unnamed_addr #5 comdat align 2 {
entry:
  %this.addr = alloca ptr, align 8
  %t.addr = alloca ptr, align 8
  %value.addr = alloca ptr, align 8
  %col.addr = alloca i32, align 4
  store ptr %this, ptr %this.addr, align 8
  store ptr %t, ptr %t.addr, align 8
  store ptr %value, ptr %value.addr, align 8
  store i32 %col, ptr %col.addr, align 4
  ret ptr null
}

; Function Attrs: mustprogress nounwind uwtable
define linkonce_odr hidden noundef ptr @_ZN7datalog17tr_infrastructureINS_15relation_traitsEE13plugin_object28mk_filter_by_intersection_fnERKNS_13relation_baseES6_jPKjS8_(ptr noundef nonnull align 8 dereferenceable(32) %this, ptr noundef nonnull align 8 dereferenceable(28) %t, ptr noundef nonnull align 8 dereferenceable(28) %src, i32 noundef %joined_col_cnt, ptr noundef %t_cols, ptr noundef %src_cols) unnamed_addr #5 comdat align 2 {
entry:
  %this.addr = alloca ptr, align 8
  %t.addr = alloca ptr, align 8
  %src.addr = alloca ptr, align 8
  %joined_col_cnt.addr = alloca i32, align 4
  %t_cols.addr = alloca ptr, align 8
  %src_cols.addr = alloca ptr, align 8
  store ptr %this, ptr %this.addr, align 8
  store ptr %t, ptr %t.addr, align 8
  store ptr %src, ptr %src.addr, align 8
  store i32 %joined_col_cnt, ptr %joined_col_cnt.addr, align 4
  store ptr %t_cols, ptr %t_cols.addr, align 8
  store ptr %src_cols, ptr %src_cols.addr, align 8
  ret ptr null
}

; Function Attrs: mustprogress nounwind uwtable
define linkonce_odr hidden noundef ptr @_ZN7datalog17tr_infrastructureINS_15relation_traitsEE13plugin_object24mk_filter_by_negation_fnERKNS_13relation_baseES6_jPKjS8_(ptr noundef nonnull align 8 dereferenceable(32) %this, ptr noundef nonnull align 8 dereferenceable(28) %t, ptr noundef nonnull align 8 dereferenceable(28) %negated_obj, i32 noundef %joined_col_cnt, ptr noundef %t_cols, ptr noundef %negated_cols) unnamed_addr #5 comdat align 2 {
entry:
  %this.addr = alloca ptr, align 8
  %t.addr = alloca ptr, align 8
  %negated_obj.addr = alloca ptr, align 8
  %joined_col_cnt.addr = alloca i32, align 4
  %t_cols.addr = alloca ptr, align 8
  %negated_cols.addr = alloca ptr, align 8
  store ptr %this, ptr %this.addr, align 8
  store ptr %t, ptr %t.addr, align 8
  store ptr %negated_obj, ptr %negated_obj.addr, align 8
  store i32 %joined_col_cnt, ptr %joined_col_cnt.addr, align 4
  store ptr %t_cols, ptr %t_cols.addr, align 8
  store ptr %negated_cols, ptr %negated_cols.addr, align 8
  ret ptr null
}

; Function Attrs: mustprogress nounwind uwtable
define linkonce_odr hidden noundef ptr @_ZN7datalog17tr_infrastructureINS_15relation_traitsEE13plugin_object28mk_filter_by_negated_join_fnERKNS_13relation_baseES6_S6_RK7svectorIjjESA_SA_SA_(ptr noundef nonnull align 8 dereferenceable(32) %this, ptr noundef nonnull align 8 dereferenceable(28) %t, ptr noundef nonnull align 8 dereferenceable(28) %src1, ptr noundef nonnull align 8 dereferenceable(28) %src2, ptr noundef nonnull align 8 dereferenceable(8) %t_cols, ptr noundef nonnull align 8 dereferenceable(8) %src_cols, ptr noundef nonnull align 8 dereferenceable(8) %src1_cols, ptr noundef nonnull align 8 dereferenceable(8) %src2_cols) unnamed_addr #5 comdat align 2 {
entry:
  %this.addr = alloca ptr, align 8
  %t.addr = alloca ptr, align 8
  %src1.addr = alloca ptr, align 8
  %src2.addr = alloca ptr, align 8
  %t_cols.addr = alloca ptr, align 8
  %src_cols.addr = alloca ptr, align 8
  %src1_cols.addr = alloca ptr, align 8
  %src2_cols.addr = alloca ptr, align 8
  store ptr %this, ptr %this.addr, align 8
  store ptr %t, ptr %t.addr, align 8
  store ptr %src1, ptr %src1.addr, align 8
  store ptr %src2, ptr %src2.addr, align 8
  store ptr %t_cols, ptr %t_cols.addr, align 8
  store ptr %src_cols, ptr %src_cols.addr, align 8
  store ptr %src1_cols, ptr %src1_cols.addr, align 8
  store ptr %src2_cols, ptr %src2_cols.addr, align 8
  ret ptr null
}

; Function Attrs: mustprogress nounwind uwtable
define linkonce_odr hidden noundef zeroext i1 @_ZNK7datalog15relation_plugin21is_singleton_relationEv(ptr noundef nonnull align 8 dereferenceable(36) %this) unnamed_addr #5 comdat align 2 {
entry:
  %this.addr = alloca ptr, align 8
  store ptr %this, ptr %this.addr, align 8
  ret i1 false
}

; Function Attrs: mustprogress nounwind uwtable
define linkonce_odr hidden void @_ZN7datalog17interval_relationD0Ev(ptr noundef nonnull align 8 dereferenceable(224) %this) unnamed_addr #5 comdat align 2 {
entry:
  %this.addr = alloca ptr, align 8
  store ptr %this, ptr %this.addr, align 8
  %this1 = load ptr, ptr %this.addr, align 8
  call void @_ZN7datalog17interval_relationD2Ev(ptr noundef nonnull align 8 dereferenceable(224) %this1) #3
  call void @_ZdlPv(ptr noundef %this1) #17
  ret void
}

; Function Attrs: mustprogress uwtable
define linkonce_odr hidden void @_ZN7datalog17tr_infrastructureINS_15relation_traitsEE13base_ancestor10deallocateEv(ptr noundef nonnull align 8 dereferenceable(28) %this) unnamed_addr #4 comdat align 2 {
entry:
  %this.addr = alloca ptr, align 8
  store ptr %this, ptr %this.addr, align 8
  %this1 = load ptr, ptr %this.addr, align 8
  call void @_ZN7datalog17tr_infrastructureINS_15relation_traitsEE13base_ancestor7destroyEv(ptr noundef nonnull align 8 dereferenceable(28) %this1)
  ret void
}

; Function Attrs: mustprogress nounwind uwtable
define linkonce_odr hidden noundef zeroext i1 @_ZNK7datalog15vector_relationI12old_intervalNS_22vector_relation_helperIS1_EEE5emptyEv(ptr noundef nonnull align 8 dereferenceable(224) %this) unnamed_addr #5 comdat align 2 {
entry:
  %this.addr = alloca ptr, align 8
  store ptr %this, ptr %this.addr, align 8
  %this1 = load ptr, ptr %this.addr, align 8
  %m_empty = getelementptr inbounds %"class.datalog::vector_relation", ptr %this1, i32 0, i32 3
  %0 = load i8, ptr %m_empty, align 8
  %tobool = trunc i8 %0 to i1
  ret i1 %tobool
}

; Function Attrs: mustprogress uwtable
define linkonce_odr hidden noundef zeroext i1 @_ZNK7datalog17tr_infrastructureINS_15relation_traitsEE13base_ancestor10fast_emptyEv(ptr noundef nonnull align 8 dereferenceable(28) %this) unnamed_addr #4 comdat align 2 {
entry:
  %this.addr = alloca ptr, align 8
  store ptr %this, ptr %this.addr, align 8
  %this1 = load ptr, ptr %this.addr, align 8
  %vtable = load ptr, ptr %this1, align 8
  %vfn = getelementptr inbounds ptr, ptr %vtable, i64 3
  %0 = load ptr, ptr %vfn, align 8
  %call = call noundef zeroext i1 %0(ptr noundef nonnull align 8 dereferenceable(28) %this1)
  ret i1 %call
}

; Function Attrs: mustprogress uwtable
define linkonce_odr hidden void @_ZN7datalog17tr_infrastructureINS_15relation_traitsEE13base_ancestor12add_new_factERKNS_13relation_factE(ptr noundef nonnull align 8 dereferenceable(28) %this, ptr noundef nonnull align 8 dereferenceable(16) %f) unnamed_addr #4 comdat align 2 {
entry:
  %this.addr = alloca ptr, align 8
  %f.addr = alloca ptr, align 8
  store ptr %this, ptr %this.addr, align 8
  store ptr %f, ptr %f.addr, align 8
  %this1 = load ptr, ptr %this.addr, align 8
  %0 = load ptr, ptr %f.addr, align 8
  %vtable = load ptr, ptr %this1, align 8
  %vfn = getelementptr inbounds ptr, ptr %vtable, i64 5
  %1 = load ptr, ptr %vfn, align 8
  call void %1(ptr noundef nonnull align 8 dereferenceable(28) %this1, ptr noundef nonnull align 8 dereferenceable(16) %0)
  ret void
}

declare void @_ZN7datalog13relation_base5resetEv(ptr noundef nonnull align 8 dereferenceable(28)) unnamed_addr #1

; Function Attrs: mustprogress nounwind uwtable
define linkonce_odr hidden noundef zeroext i1 @_ZNK7datalog17tr_infrastructureINS_15relation_traitsEE13base_ancestor8can_swapERKNS_13relation_baseE(ptr noundef nonnull align 8 dereferenceable(28) %this, ptr noundef nonnull align 8 dereferenceable(28) %o) unnamed_addr #5 comdat align 2 {
entry:
  %this.addr = alloca ptr, align 8
  %o.addr = alloca ptr, align 8
  store ptr %this, ptr %this.addr, align 8
  store ptr %o, ptr %o.addr, align 8
  ret i1 false
}

; Function Attrs: mustprogress nounwind uwtable
define linkonce_odr hidden void @_ZN7datalog15vector_relationI12old_intervalNS_22vector_relation_helperIS1_EEE4swapERNS_13relation_baseE(ptr noundef nonnull align 8 dereferenceable(224) %this, ptr noundef nonnull align 8 dereferenceable(28) %other) unnamed_addr #5 comdat align 2 personality ptr @__gxx_personality_v0 {
entry:
  %this.addr = alloca ptr, align 8
  %other.addr = alloca ptr, align 8
  %o = alloca ptr, align 8
  store ptr %this, ptr %this.addr, align 8
  store ptr %other, ptr %other.addr, align 8
  %this1 = load ptr, ptr %this.addr, align 8
  %0 = load ptr, ptr %other.addr, align 8
  %1 = call ptr @__dynamic_cast(ptr %0, ptr @_ZTIN7datalog13relation_baseE, ptr @_ZTIN7datalog15vector_relationI12old_intervalNS_22vector_relation_helperIS1_EEEE, i64 0) #3
  %2 = icmp eq ptr %1, null
  br i1 %2, label %dynamic_cast.bad_cast, label %dynamic_cast.end

dynamic_cast.bad_cast:                            ; preds = %entry
  invoke void @__cxa_bad_cast() #16
          to label %invoke.cont unwind label %terminate.lpad

invoke.cont:                                      ; preds = %dynamic_cast.bad_cast
  unreachable

dynamic_cast.end:                                 ; preds = %entry
  store ptr %1, ptr %o, align 8
  %3 = load ptr, ptr %o, align 8
  %cmp = icmp eq ptr %3, %this1
  br i1 %cmp, label %if.then, label %if.end

if.then:                                          ; preds = %dynamic_cast.end
  br label %return

if.end:                                           ; preds = %dynamic_cast.end
  %4 = load ptr, ptr %o, align 8
  %m_eqs = getelementptr inbounds %"class.datalog::vector_relation", ptr %4, i32 0, i32 5
  %m_eqs2 = getelementptr inbounds %"class.datalog::vector_relation", ptr %this1, i32 0, i32 5
  call void @_ZSt4swapIP10union_findI22union_find_default_ctxS1_EENSt9enable_ifIXsr6__and_ISt6__not_ISt15__is_tuple_likeIT_EESt21is_move_constructibleIS7_ESt18is_move_assignableIS7_EEE5valueEvE4typeERS7_SG_(ptr noundef nonnull align 8 dereferenceable(8) %m_eqs, ptr noundef nonnull align 8 dereferenceable(8) %m_eqs2) #3
  %5 = load ptr, ptr %o, align 8
  %m_empty = getelementptr inbounds %"class.datalog::vector_relation", ptr %5, i32 0, i32 3
  %m_empty3 = getelementptr inbounds %"class.datalog::vector_relation", ptr %this1, i32 0, i32 3
  call void @_ZSt4swapIbENSt9enable_ifIXsr6__and_ISt6__not_ISt15__is_tuple_likeIT_EESt21is_move_constructibleIS3_ESt18is_move_assignableIS3_EEE5valueEvE4typeERS3_SC_(ptr noundef nonnull align 1 dereferenceable(1) %m_empty, ptr noundef nonnull align 1 dereferenceable(1) %m_empty3) #3
  %6 = load ptr, ptr %o, align 8
  %m_elems = getelementptr inbounds %"class.datalog::vector_relation", ptr %6, i32 0, i32 2
  %m_elems4 = getelementptr inbounds %"class.datalog::vector_relation", ptr %this1, i32 0, i32 2
  call void @_ZSt4swapIP6vectorI12old_intervalLb1EjEENSt9enable_ifIXsr6__and_ISt6__not_ISt15__is_tuple_likeIT_EESt21is_move_constructibleIS7_ESt18is_move_assignableIS7_EEE5valueEvE4typeERS7_SG_(ptr noundef nonnull align 8 dereferenceable(8) %m_elems, ptr noundef nonnull align 8 dereferenceable(8) %m_elems4) #3
  br label %return

return:                                           ; preds = %if.end, %if.then
  ret void

terminate.lpad:                                   ; preds = %dynamic_cast.bad_cast
  %7 = landingpad { ptr, i32 }
          catch ptr null
  %8 = extractvalue { ptr, i32 } %7, 0
  call void @__clang_call_terminate(ptr %8) #15
  unreachable
}

; Function Attrs: mustprogress nounwind uwtable
define linkonce_odr hidden noundef i32 @_ZNK7datalog17tr_infrastructureINS_15relation_traitsEE13base_ancestor22get_size_estimate_rowsEv(ptr noundef nonnull align 8 dereferenceable(28) %this) unnamed_addr #5 comdat align 2 {
entry:
  %this.addr = alloca ptr, align 8
  store ptr %this, ptr %this.addr, align 8
  ret i32 -1
}

; Function Attrs: mustprogress nounwind uwtable
define linkonce_odr hidden noundef i32 @_ZNK7datalog17tr_infrastructureINS_15relation_traitsEE13base_ancestor23get_size_estimate_bytesEv(ptr noundef nonnull align 8 dereferenceable(28) %this) unnamed_addr #5 comdat align 2 {
entry:
  %this.addr = alloca ptr, align 8
  store ptr %this, ptr %this.addr, align 8
  ret i32 -1
}

; Function Attrs: mustprogress nounwind uwtable
define linkonce_odr hidden noundef zeroext i1 @_ZNK7datalog17tr_infrastructureINS_15relation_traitsEE13base_ancestor16knows_exact_sizeEv(ptr noundef nonnull align 8 dereferenceable(28) %this) unnamed_addr #5 comdat align 2 {
entry:
  %this.addr = alloca ptr, align 8
  store ptr %this, ptr %this.addr, align 8
  ret i1 false
}

; Function Attrs: mustprogress uwtable
define linkonce_odr hidden void @_ZNK7datalog15vector_relationI12old_intervalNS_22vector_relation_helperIS1_EEE7displayERSo(ptr noundef nonnull align 8 dereferenceable(224) %this, ptr noundef nonnull align 8 dereferenceable(8) %out) unnamed_addr #4 comdat align 2 {
entry:
  %this.addr = alloca ptr, align 8
  %out.addr = alloca ptr, align 8
  %i = alloca i32, align 4
  store ptr %this, ptr %this.addr, align 8
  store ptr %out, ptr %out.addr, align 8
  %this1 = load ptr, ptr %this.addr, align 8
  %vtable = load ptr, ptr %this1, align 8
  %vfn = getelementptr inbounds ptr, ptr %vtable, i64 3
  %0 = load ptr, ptr %vfn, align 8
  %call = call noundef zeroext i1 %0(ptr noundef nonnull align 8 dereferenceable(224) %this1)
  br i1 %call, label %if.then, label %if.end

if.then:                                          ; preds = %entry
  %1 = load ptr, ptr %out.addr, align 8
  %call2 = call noundef nonnull align 8 dereferenceable(8) ptr @_ZStlsISt11char_traitsIcEERSt13basic_ostreamIcT_ES5_PKc(ptr noundef nonnull align 8 dereferenceable(8) %1, ptr noundef @.str.16)
  br label %return

if.end:                                           ; preds = %entry
  store i32 0, ptr %i, align 4
  br label %for.cond

for.cond:                                         ; preds = %for.inc, %if.end
  %2 = load i32, ptr %i, align 4
  %m_elems = getelementptr inbounds %"class.datalog::vector_relation", ptr %this1, i32 0, i32 2
  %3 = load ptr, ptr %m_elems, align 8
  %call3 = call noundef i32 @_ZNK6vectorI12old_intervalLb1EjE4sizeEv(ptr noundef nonnull align 8 dereferenceable(8) %3)
  %cmp = icmp ult i32 %2, %call3
  br i1 %cmp, label %for.body, label %for.end

for.body:                                         ; preds = %for.cond
  %4 = load i32, ptr %i, align 4
  %5 = load i32, ptr %i, align 4
  %call4 = call noundef i32 @_ZNK7datalog15vector_relationI12old_intervalNS_22vector_relation_helperIS1_EEE4findEj(ptr noundef nonnull align 8 dereferenceable(224) %this1, i32 noundef %5)
  %cmp5 = icmp eq i32 %4, %call4
  br i1 %cmp5, label %if.then6, label %if.else

if.then6:                                         ; preds = %for.body
  %6 = load i32, ptr %i, align 4
  %m_elems7 = getelementptr inbounds %"class.datalog::vector_relation", ptr %this1, i32 0, i32 2
  %7 = load ptr, ptr %m_elems7, align 8
  %8 = load i32, ptr %i, align 4
  %call8 = call noundef nonnull align 8 dereferenceable(112) ptr @_ZN6vectorI12old_intervalLb1EjEixEj(ptr noundef nonnull align 8 dereferenceable(8) %7, i32 noundef %8)
  %9 = load ptr, ptr %out.addr, align 8
  %vtable9 = load ptr, ptr %this1, align 8
  %vfn10 = getelementptr inbounds ptr, ptr %vtable9, i64 20
  %10 = load ptr, ptr %vfn10, align 8
  call void %10(ptr noundef nonnull align 8 dereferenceable(224) %this1, i32 noundef %6, ptr noundef nonnull align 8 dereferenceable(112) %call8, ptr noundef nonnull align 8 dereferenceable(8) %9)
  br label %if.end16

if.else:                                          ; preds = %for.body
  %11 = load ptr, ptr %out.addr, align 8
  %12 = load i32, ptr %i, align 4
  %call11 = call noundef nonnull align 8 dereferenceable(8) ptr @_ZNSolsEj(ptr noundef nonnull align 8 dereferenceable(8) %11, i32 noundef %12)
  %call12 = call noundef nonnull align 8 dereferenceable(8) ptr @_ZStlsISt11char_traitsIcEERSt13basic_ostreamIcT_ES5_PKc(ptr noundef nonnull align 8 dereferenceable(8) %call11, ptr noundef @.str.17)
  %13 = load i32, ptr %i, align 4
  %call13 = call noundef i32 @_ZNK7datalog15vector_relationI12old_intervalNS_22vector_relation_helperIS1_EEE4findEj(ptr noundef nonnull align 8 dereferenceable(224) %this1, i32 noundef %13)
  %call14 = call noundef nonnull align 8 dereferenceable(8) ptr @_ZNSolsEj(ptr noundef nonnull align 8 dereferenceable(8) %call12, i32 noundef %call13)
  %call15 = call noundef nonnull align 8 dereferenceable(8) ptr @_ZStlsISt11char_traitsIcEERSt13basic_ostreamIcT_ES5_PKc(ptr noundef nonnull align 8 dereferenceable(8) %call14, ptr noundef @.str.18)
  br label %if.end16

if.end16:                                         ; preds = %if.else, %if.then6
  br label %for.inc

for.inc:                                          ; preds = %if.end16
  %14 = load i32, ptr %i, align 4
  %inc = add i32 %14, 1
  store i32 %inc, ptr %i, align 4
  br label %for.cond, !llvm.loop !16

for.end:                                          ; preds = %for.cond
  %15 = load ptr, ptr %out.addr, align 8
  %call17 = call noundef nonnull align 8 dereferenceable(8) ptr @_ZStlsISt11char_traitsIcEERSt13basic_ostreamIcT_ES5_PKc(ptr noundef nonnull align 8 dereferenceable(8) %15, ptr noundef @.str.3)
  br label %return

return:                                           ; preds = %for.end, %if.then
  ret void
}

; Function Attrs: mustprogress uwtable
define linkonce_odr hidden void @_ZNK7datalog13relation_base14display_tuplesER9func_declRSo(ptr noundef nonnull align 8 dereferenceable(28) %this, ptr noundef nonnull align 8 dereferenceable(48) %pred, ptr noundef nonnull align 8 dereferenceable(8) %out) unnamed_addr #4 comdat align 2 {
entry:
  %this.addr = alloca ptr, align 8
  %pred.addr = alloca ptr, align 8
  %out.addr = alloca ptr, align 8
  %agg.tmp = alloca %class.symbol, align 8
  store ptr %this, ptr %this.addr, align 8
  store ptr %pred, ptr %pred.addr, align 8
  store ptr %out, ptr %out.addr, align 8
  %this1 = load ptr, ptr %this.addr, align 8
  %0 = load ptr, ptr %out.addr, align 8
  %call = call noundef nonnull align 8 dereferenceable(8) ptr @_ZStlsISt11char_traitsIcEERSt13basic_ostreamIcT_ES5_PKc(ptr noundef nonnull align 8 dereferenceable(8) %0, ptr noundef @.str.9)
  %1 = load ptr, ptr %pred.addr, align 8
  %call2 = call noundef nonnull align 8 dereferenceable(8) ptr @_ZNK4decl8get_nameEv(ptr noundef nonnull align 8 dereferenceable(32) %1)
  call void @llvm.memcpy.p0.p0.i64(ptr align 8 %agg.tmp, ptr align 8 %call2, i64 8, i1 false)
  %coerce.dive = getelementptr inbounds %class.symbol, ptr %agg.tmp, i32 0, i32 0
  %2 = load ptr, ptr %coerce.dive, align 8
  %call3 = call noundef nonnull align 8 dereferenceable(8) ptr @_ZlsRSo6symbol(ptr noundef nonnull align 8 dereferenceable(8) %call, ptr %2)
  %call4 = call noundef nonnull align 8 dereferenceable(8) ptr @_ZStlsISt11char_traitsIcEERSt13basic_ostreamIcT_ES5_PKc(ptr noundef nonnull align 8 dereferenceable(8) %call3, ptr noundef @.str.10)
  %3 = load ptr, ptr %out.addr, align 8
  %vtable = load ptr, ptr %this1, align 8
  %vfn = getelementptr inbounds ptr, ptr %vtable, i64 15
  %4 = load ptr, ptr %vfn, align 8
  call void %4(ptr noundef nonnull align 8 dereferenceable(28) %this1, ptr noundef nonnull align 8 dereferenceable(8) %3)
  ret void
}

; Function Attrs: mustprogress nounwind uwtable
define linkonce_odr hidden noundef zeroext i1 @_ZNK7datalog17interval_relation10is_preciseEv(ptr noundef nonnull align 8 dereferenceable(224) %this) unnamed_addr #5 comdat align 2 {
entry:
  %this.addr = alloca ptr, align 8
  store ptr %this, ptr %this.addr, align 8
  ret i1 false
}

; Function Attrs: mustprogress uwtable
define linkonce_odr hidden void @_ZNK7datalog17interval_relation12mk_intersectERK12old_intervalS3_Rb(ptr noalias sret(%class.old_interval) align 8 %agg.result, ptr noundef nonnull align 8 dereferenceable(224) %this, ptr noundef nonnull align 8 dereferenceable(112) %t1, ptr noundef nonnull align 8 dereferenceable(112) %t2, ptr noundef nonnull align 1 dereferenceable(1) %is_empty) unnamed_addr #4 comdat align 2 {
entry:
  %result.ptr = alloca ptr, align 8
  %this.addr = alloca ptr, align 8
  %t1.addr = alloca ptr, align 8
  %t2.addr = alloca ptr, align 8
  %is_empty.addr = alloca ptr, align 8
  store ptr %agg.result, ptr %result.ptr, align 8
  store ptr %this, ptr %this.addr, align 8
  store ptr %t1, ptr %t1.addr, align 8
  store ptr %t2, ptr %t2.addr, align 8
  store ptr %is_empty, ptr %is_empty.addr, align 8
  %this1 = load ptr, ptr %this.addr, align 8
  %call = call noundef nonnull align 8 dereferenceable(240) ptr @_ZNK7datalog17interval_relation10get_pluginEv(ptr noundef nonnull align 8 dereferenceable(224) %this1)
  %0 = load ptr, ptr %t1.addr, align 8
  %1 = load ptr, ptr %t2.addr, align 8
  %2 = load ptr, ptr %is_empty.addr, align 8
  call void @_ZN7datalog24interval_relation_plugin4meetERK12old_intervalS3_Rb(ptr sret(%class.old_interval) align 8 %agg.result, ptr noundef nonnull align 8 dereferenceable(240) %call, ptr noundef nonnull align 8 dereferenceable(112) %0, ptr noundef nonnull align 8 dereferenceable(112) %1, ptr noundef nonnull align 1 dereferenceable(1) %2)
  ret void
}

; Function Attrs: mustprogress uwtable
define linkonce_odr hidden void @_ZNK7datalog17interval_relation8mk_widenERK12old_intervalS3_(ptr noalias sret(%class.old_interval) align 8 %agg.result, ptr noundef nonnull align 8 dereferenceable(224) %this, ptr noundef nonnull align 8 dereferenceable(112) %t1, ptr noundef nonnull align 8 dereferenceable(112) %t2) unnamed_addr #4 comdat align 2 {
entry:
  %result.ptr = alloca ptr, align 8
  %this.addr = alloca ptr, align 8
  %t1.addr = alloca ptr, align 8
  %t2.addr = alloca ptr, align 8
  store ptr %agg.result, ptr %result.ptr, align 8
  store ptr %this, ptr %this.addr, align 8
  store ptr %t1, ptr %t1.addr, align 8
  store ptr %t2, ptr %t2.addr, align 8
  %this1 = load ptr, ptr %this.addr, align 8
  %call = call noundef nonnull align 8 dereferenceable(240) ptr @_ZNK7datalog17interval_relation10get_pluginEv(ptr noundef nonnull align 8 dereferenceable(224) %this1)
  %0 = load ptr, ptr %t1.addr, align 8
  %1 = load ptr, ptr %t2.addr, align 8
  call void @_ZN7datalog24interval_relation_plugin5widenERK12old_intervalS3_(ptr sret(%class.old_interval) align 8 %agg.result, ptr noundef nonnull align 8 dereferenceable(240) %call, ptr noundef nonnull align 8 dereferenceable(112) %0, ptr noundef nonnull align 8 dereferenceable(112) %1)
  ret void
}

; Function Attrs: mustprogress uwtable
define linkonce_odr hidden void @_ZNK7datalog17interval_relation8mk_uniteERK12old_intervalS3_(ptr noalias sret(%class.old_interval) align 8 %agg.result, ptr noundef nonnull align 8 dereferenceable(224) %this, ptr noundef nonnull align 8 dereferenceable(112) %t1, ptr noundef nonnull align 8 dereferenceable(112) %t2) unnamed_addr #4 comdat align 2 {
entry:
  %result.ptr = alloca ptr, align 8
  %this.addr = alloca ptr, align 8
  %t1.addr = alloca ptr, align 8
  %t2.addr = alloca ptr, align 8
  store ptr %agg.result, ptr %result.ptr, align 8
  store ptr %this, ptr %this.addr, align 8
  store ptr %t1, ptr %t1.addr, align 8
  store ptr %t2, ptr %t2.addr, align 8
  %this1 = load ptr, ptr %this.addr, align 8
  %call = call noundef nonnull align 8 dereferenceable(240) ptr @_ZNK7datalog17interval_relation10get_pluginEv(ptr noundef nonnull align 8 dereferenceable(224) %this1)
  %0 = load ptr, ptr %t1.addr, align 8
  %1 = load ptr, ptr %t2.addr, align 8
  call void @_ZN7datalog24interval_relation_plugin5uniteERK12old_intervalS3_(ptr sret(%class.old_interval) align 8 %agg.result, ptr noundef nonnull align 8 dereferenceable(240) %call, ptr noundef nonnull align 8 dereferenceable(112) %0, ptr noundef nonnull align 8 dereferenceable(112) %1)
  ret void
}

; Function Attrs: mustprogress uwtable
define linkonce_odr hidden noundef zeroext i1 @_ZNK7datalog17interval_relation12is_subset_ofERK12old_intervalS3_(ptr noundef nonnull align 8 dereferenceable(224) %this, ptr noundef nonnull align 8 dereferenceable(112) %t1, ptr noundef nonnull align 8 dereferenceable(112) %t2) unnamed_addr #4 comdat align 2 {
entry:
  %this.addr = alloca ptr, align 8
  %t1.addr = alloca ptr, align 8
  %t2.addr = alloca ptr, align 8
  store ptr %this, ptr %this.addr, align 8
  store ptr %t1, ptr %t1.addr, align 8
  store ptr %t2, ptr %t2.addr, align 8
  call void @_Z26notify_assertion_violationPKciS0_(ptr noundef @.str.13, i32 noundef 119, ptr noundef @.str.14)
  call void @exit(i32 noundef 107) #15
  unreachable
}

; Function Attrs: mustprogress uwtable
define linkonce_odr hidden noundef zeroext i1 @_ZNK7datalog17interval_relation7is_fullERK12old_interval(ptr noundef nonnull align 8 dereferenceable(224) %this, ptr noundef nonnull align 8 dereferenceable(112) %t) unnamed_addr #4 comdat align 2 {
entry:
  %this.addr = alloca ptr, align 8
  %t.addr = alloca ptr, align 8
  store ptr %this, ptr %this.addr, align 8
  store ptr %t, ptr %t.addr, align 8
  %0 = load ptr, ptr %t.addr, align 8
  %call = call noundef zeroext i1 @_ZN7datalog24interval_relation_plugin11is_infiniteERK12old_interval(ptr noundef nonnull align 8 dereferenceable(112) %0)
  ret i1 %call
}

; Function Attrs: mustprogress uwtable
define linkonce_odr hidden noundef zeroext i1 @_ZNK7datalog17interval_relation8is_emptyEjRK12old_interval(ptr noundef nonnull align 8 dereferenceable(224) %this, i32 noundef %idx, ptr noundef nonnull align 8 dereferenceable(112) %t) unnamed_addr #4 comdat align 2 {
entry:
  %this.addr = alloca ptr, align 8
  %idx.addr = alloca i32, align 4
  %t.addr = alloca ptr, align 8
  store ptr %this, ptr %this.addr, align 8
  store i32 %idx, ptr %idx.addr, align 4
  store ptr %t, ptr %t.addr, align 8
  %0 = load i32, ptr %idx.addr, align 4
  %1 = load ptr, ptr %t.addr, align 8
  %call = call noundef zeroext i1 @_ZN7datalog24interval_relation_plugin8is_emptyEjRK12old_interval(i32 noundef %0, ptr noundef nonnull align 8 dereferenceable(112) %1)
  ret i1 %call
}

; Function Attrs: mustprogress uwtable
define linkonce_odr hidden void @_ZNK7datalog15vector_relationI12old_intervalNS_22vector_relation_helperIS1_EEE5mk_eqERK10union_findI22union_find_default_ctxS6_ES9_RKS1_(ptr noalias sret(%class.old_interval) align 8 %agg.result, ptr noundef nonnull align 8 dereferenceable(224) %this, ptr noundef nonnull align 8 dereferenceable(56) %old_eqs, ptr noundef nonnull align 8 dereferenceable(56) %neq_eqs, ptr noundef nonnull align 8 dereferenceable(112) %t) unnamed_addr #4 comdat align 2 {
entry:
  %result.ptr = alloca ptr, align 8
  %this.addr = alloca ptr, align 8
  %old_eqs.addr = alloca ptr, align 8
  %neq_eqs.addr = alloca ptr, align 8
  %t.addr = alloca ptr, align 8
  store ptr %agg.result, ptr %result.ptr, align 8
  store ptr %this, ptr %this.addr, align 8
  store ptr %old_eqs, ptr %old_eqs.addr, align 8
  store ptr %neq_eqs, ptr %neq_eqs.addr, align 8
  store ptr %t, ptr %t.addr, align 8
  %0 = load ptr, ptr %t.addr, align 8
  call void @_ZN12old_intervalC2ERKS_(ptr noundef nonnull align 8 dereferenceable(112) %agg.result, ptr noundef nonnull align 8 dereferenceable(112) %0)
