target datalayout = "e-m:e-p270:32:32-p271:32:32-p272:64:64-i64:64-i128:128-f80:128-n8:16:32:64-S128"
target triple = "x86_64-unknown-linux-gnu"

%"class.std::ios_base::Init" = type { i8 }
%class.goal = type <{ ptr, %class.ref, %class.ref.0, %class.ref.1, i32, [4 x i8], %"class.std::__cxx11::basic_string", %"class.parray_manager<ast_manager::expr_array_config>::ref", %"class.parray_manager<ast_manager::expr_array_config>::ref", %"class.parray_manager<ast_manager::expr_dependency_array_config>::ref", i32, [4 x i8] }>
%class.ref = type { ptr }
%class.ref.0 = type { ptr }
%class.ref.1 = type { ptr }
%"class.std::__cxx11::basic_string" = type { %"struct.std::__cxx11::basic_string<char>::_Alloc_hider", i64, %union.anon }
%"struct.std::__cxx11::basic_string<char>::_Alloc_hider" = type { ptr }
%union.anon = type { i64, [8 x i8] }
%"class.parray_manager<ast_manager::expr_array_config>::ref" = type <{ ptr, i32, [4 x i8] }>
%"class.parray_manager<ast_manager::expr_dependency_array_config>::ref" = type <{ ptr, i32, [4 x i8] }>
%class.ast_manager = type { %class.reslimit, %class.small_object_allocator, %class.family_manager, %class.parray_manager, %class.dependency_manager, %class.parray_manager.12, %class.ptr_vector.15, i32, i8, %class.ast_table, %class.obj_map, %class.id_gen, %class.id_gen, ptr, ptr, ptr, ptr, ptr, i32, i8, [3 x i8], %class.u_map, ptr, i8, i8, ptr, %class.symbol, %class.obj_map.23, ptr }
%class.reslimit = type { %"struct.std::atomic", i8, i64, i64, %class.svector, %class.ptr_vector }
%"struct.std::atomic" = type { %"struct.std::__atomic_base" }
%"struct.std::__atomic_base" = type { i32 }
%class.svector = type { %class.vector }
%class.vector = type { ptr }
%class.ptr_vector = type { %class.vector.2 }
%class.vector.2 = type { ptr }
%class.small_object_allocator = type { [32 x ptr], [32 x ptr], i64 }
%class.family_manager = type { i32, %class.symbol_table, %class.svector.6 }
%class.symbol_table = type { %class.core_hashtable, %class.vector.3, %class.svector.4 }
%class.core_hashtable = type <{ ptr, i32, i32, i32, [4 x i8] }>
%class.vector.3 = type { ptr }
%class.svector.4 = type { %class.vector.5 }
%class.vector.5 = type { ptr }
%class.svector.6 = type { %class.vector.7 }
%class.vector.7 = type { ptr }
%class.parray_manager = type { ptr, ptr, %class.ptr_vector.8, %class.ptr_vector.8 }
%class.ptr_vector.8 = type { %class.vector.9 }
%class.vector.9 = type { ptr }
%class.dependency_manager = type { ptr, ptr, %class.ptr_vector.10 }
%class.ptr_vector.10 = type { %class.vector.11 }
%class.vector.11 = type { ptr }
%class.parray_manager.12 = type { ptr, ptr, %class.ptr_vector.13, %class.ptr_vector.13 }
%class.ptr_vector.13 = type { %class.vector.14 }
%class.vector.14 = type { ptr }
%class.ptr_vector.15 = type { %class.vector.16 }
%class.vector.16 = type { ptr }
%class.ast_table = type { %class.chashtable }
%class.chashtable = type { ptr, i32, i32, i32, i32, i32, i32, i32, ptr, ptr, ptr }
%class.obj_map = type { %class.core_hashtable.17 }
%class.core_hashtable.17 = type <{ ptr, i32, i32, i32, [4 x i8] }>
%class.id_gen = type { i32, %class.svector.19 }
%class.svector.19 = type { %class.vector.20 }
%class.vector.20 = type { ptr }
%class.u_map = type { %class.map }
%class.map = type { %class.table2map }
%class.table2map = type { %class.core_hashtable.21 }
%class.core_hashtable.21 = type <{ ptr, i32, i32, i32, [4 x i8] }>
%class.symbol = type { ptr }
%class.obj_map.23 = type { %class.core_hashtable.24 }
%class.core_hashtable.24 = type <{ ptr, i32, i32, i32, [4 x i8] }>
%class.obj_ref = type { ptr, ptr }
%class.obj_ref.28 = type { ptr, ptr }
%class.sbuffer = type { %class.buffer }
%class.buffer = type { ptr, i32, i32, [64 x %"union.std::aligned_storage<16, 8>::type"] }
%"union.std::aligned_storage<16, 8>::type" = type { [16 x i8] }
%class.ref_vector = type { %class.ref_vector_core }
%class.ref_vector_core = type { %class.ref_manager_wrapper, %class.ptr_vector.30 }
%class.ref_manager_wrapper = type { ptr }
%class.ptr_vector.30 = type { %class.vector.31 }
%class.vector.31 = type { ptr }
%"struct.std::pair" = type <{ ptr, i8, [7 x i8] }>
%class.obj_ref.29 = type { ptr, ptr }
%class.app = type { %class.expr, ptr, i32, [0 x ptr] }
%class.expr = type { %class.ast }
%class.ast = type { i32, i24, i32, i32 }
%class.obj_hashtable = type { %class.core_hashtable.base.34, [4 x i8] }
%class.core_hashtable.base.34 = type <{ ptr, i32, i32, i32 }>
%struct.mk_ismt2_pp = type { ptr, ptr, %class.params_ref, ptr, i32, i32, ptr }
%class.params_ref = type { ptr }
%"class.core_hashtable<obj_hash_entry<expr>, obj_ptr_hash<expr>, ptr_eq<expr>>::iterator" = type { ptr, ptr }
%struct.obj_ptr_hash.33 = type { i8 }
%struct.ptr_eq = type { i8 }
%class.core_hashtable.32 = type <{ ptr, i32, i32, i32, [4 x i8] }>
%class.obj_hash_entry = type { ptr }
%class.ptr_buffer = type { %class.buffer.35 }
%class.buffer.35 = type { ptr, i32, i32, [16 x %"union.std::aligned_storage<8, 8>::type"] }
%"union.std::aligned_storage<8, 8>::type" = type { [8 x i8] }
%struct.mk_ll_pp = type <{ ptr, ptr, i8, i8, [6 x i8] }>
%class.ast_fast_mark = type { %class.ptr_buffer.37 }
%class.ptr_buffer.37 = type { %class.buffer.38 }
%class.buffer.38 = type { ptr, i32, i32, [16 x %"union.std::aligned_storage<8, 8>::type"] }
%class.ast_ref_fast_mark = type { %class.ref_buffer }
%class.ref_buffer = type { %class.ref_buffer_core }
%class.ref_buffer_core = type { %class.ref_manager_wrapper.39, %class.ptr_buffer.37 }
%class.ref_manager_wrapper.39 = type { ptr }
%class.ast_ref_fast_mark.40 = type { %class.ref_buffer }
%class.expr_dependency_translation = type { ptr, %class.ptr_vector.30 }
%class.ast_translation = type <{ ptr, ptr, %class.svector.41, %class.ptr_vector.43, %class.ptr_vector.43, %class.obj_map.45, i32, i32, i32, i32, i32, [4 x i8] }>
%class.svector.41 = type { %class.vector.42 }
%class.vector.42 = type { ptr }
%class.ptr_vector.43 = type { %class.vector.44 }
%class.vector.44 = type { ptr }
%class.obj_map.45 = type { %class.core_hashtable.46 }
%class.core_hashtable.46 = type <{ ptr, i32, i32, i32, [4 x i8] }>
%class.ast_fast_mark.50 = type { %class.ptr_buffer.37 }
%"struct.parray_manager<ast_manager::expr_array_config>::cell" = type { i32, %union.anon.51, ptr, %union.anon.52 }
%union.anon.51 = type { i32 }
%union.anon.52 = type { ptr }
%"struct.parray_manager<ast_manager::expr_dependency_array_config>::cell" = type { i32, %union.anon.53, ptr, %union.anon.54 }
%union.anon.53 = type { i32 }
%union.anon.54 = type { ptr }
%"struct.dependency_manager<ast_manager::expr_dependency_config>::leaf" = type { %"class.dependency_manager<ast_manager::expr_dependency_config>::dependency", ptr }
%"class.dependency_manager<ast_manager::expr_dependency_config>::dependency" = type { i32 }
%"struct.dependency_manager<ast_manager::expr_dependency_config>::join" = type { %"class.dependency_manager<ast_manager::expr_dependency_config>::dependency", [2 x ptr] }
%"class.std::allocator" = type { i8 }
%class.default_exception = type { %class.z3_exception, %"class.std::__cxx11::basic_string" }
%class.z3_exception = type { ptr }
%struct._Guard = type { ptr }
%class.decl = type { %class.ast, %class.symbol, ptr }
%class.decl_info = type <{ i32, i32, %class.vector.55, i8, [7 x i8] }>
%class.vector.55 = type { ptr }
%class.converter = type <{ ptr, i32, [4 x i8] }>

$_ZN3refI15model_converterEC2Ev = comdat any

$_ZN3refI15proof_converterEC2Ev = comdat any

$_ZN3refI20dependency_converterEC2Ev = comdat any

$_ZN14parray_managerIN11ast_manager17expr_array_configEE3refC2Ev = comdat any

$_ZN14parray_managerIN11ast_manager28expr_dependency_array_configEE3refC2Ev = comdat any

$_ZNK11ast_manager14proofs_enabledEv = comdat any

$_ZN3refI20dependency_converterED2Ev = comdat any

$_ZN3refI15proof_converterED2Ev = comdat any

$_ZN3refI15model_converterED2Ev = comdat any

$_ZNK4goal1mEv = comdat any

$_ZNK4goal14models_enabledEv = comdat any

$_ZNK4goal14proofs_enabledEv = comdat any

$_ZNK4goal18unsat_core_enabledEv = comdat any

$_ZN4goal9copy_fromERKS_ = comdat any

$_ZNK3refI15model_converterE3getEv = comdat any

$_ZN3refI15model_converterEaSEPS0_ = comdat any

$_ZNK3refI15proof_converterE3getEv = comdat any

$_ZN3refI15proof_converterEaSEPS0_ = comdat any

$_ZNK3refI20dependency_converterE3getEv = comdat any

$_ZN3refI20dependency_converterEaSEPS0_ = comdat any

$__clang_call_terminate = comdat any

$_ZN11ast_manager4copyERKN14parray_managerINS_17expr_array_configEE3refERS3_ = comdat any

$_ZN11ast_manager4copyERKN14parray_managerINS_28expr_dependency_array_configEE3refERS3_ = comdat any

$_ZSt3maxIjERKT_S2_S2_ = comdat any

$_ZNK4goal4precEv = comdat any

$_ZNK11ast_manager7is_trueEPK4expr = comdat any

$_ZNK11ast_manager8is_falseEPK4expr = comdat any

$_ZN7obj_refI3app11ast_managerEC2ERS1_ = comdat any

$_ZN7obj_refIN18dependency_managerIN11ast_manager22expr_dependency_configEE10dependencyES1_EC2ERS1_ = comdat any

$_ZN7obj_refI3app11ast_managerEaSEPS0_ = comdat any

$_ZN7obj_refIN18dependency_managerIN11ast_manager22expr_dependency_configEE10dependencyES1_EaSEPS4_ = comdat any

$_ZN11ast_manager3delERN14parray_managerINS_17expr_array_configEE3refE = comdat any

$_ZN11ast_manager3delERN14parray_managerINS_28expr_dependency_array_configEE3refE = comdat any

$_ZN11ast_manager9push_backERN14parray_managerINS_17expr_array_configEE3refEP4expr = comdat any

$_ZNK11ast_manager8mk_falseEv = comdat any

$_ZNK7obj_refI3app11ast_managerEcvPS0_Ev = comdat any

$_ZN11ast_manager9push_backERN14parray_managerINS_28expr_dependency_array_configEE3refEPN18dependency_managerINS_22expr_dependency_configEE10dependencyE = comdat any

$_ZNK7obj_refIN18dependency_managerIN11ast_manager22expr_dependency_configEE10dependencyES1_EcvPS4_Ev = comdat any

$_ZN7obj_refIN18dependency_managerIN11ast_manager22expr_dependency_configEE10dependencyES1_ED2Ev = comdat any

$_ZN7obj_refI3app11ast_managerED2Ev = comdat any

$_ZNK11ast_manager6is_andEPK4expr = comdat any

$_ZNK7obj_refI4expr11ast_managerEcvPS0_Ev = comdat any

$_ZNK11ast_manager6is_notEPK4exprRPS0_ = comdat any

$_ZNK11ast_manager5is_orEPK4expr = comdat any

$_ZN7sbufferISt4pairIP4exprbELj64EEC2Ev = comdat any

$_ZN10ref_vectorI4expr11ast_managerEC2ERS1_ = comdat any

$_ZN6bufferISt4pairIP4exprbELb0ELj64EE9push_backEOS3_ = comdat any

$_ZNSt4pairIP4exprbEC2IR7obj_refIS0_11ast_managerEbTnNSt9enable_ifIXaaclsr5_PCCPE22_MoveConstructiblePairIT_T0_EEclsr5_PCCPE30_ImplicitlyMoveConvertiblePairIS9_SA_EEEbE4typeELb1EEEOS9_OSA_ = comdat any

$_ZNK6bufferISt4pairIP4exprbELb0ELj64EE5emptyEv = comdat any

$_ZN6bufferISt4pairIP4exprbELb0ELj64EE4backEv = comdat any

$_ZSt3getILm0EP4exprbEONSt13tuple_elementIXT_ESt4pairIT0_T1_EE4typeEOS6_ = comdat any

$_ZSt3getILm1EP4exprbEONSt13tuple_elementIXT_ESt4pairIT0_T1_EE4typeEOS6_ = comdat any

$_ZN6bufferISt4pairIP4exprbELb0ELj64EE8pop_backEv = comdat any

$_Z6to_appP3ast = comdat any

$_ZNK3app12get_num_argsEv = comdat any

$_ZNK3app7get_argEj = comdat any

$_ZNSt4pairIP4exprbEC2IS1_bTnNSt9enable_ifIXaaclsr5_PCCPE22_MoveConstructiblePairIT_T0_EEclsr5_PCCPE30_ImplicitlyMoveConvertiblePairIS5_S6_EEEbE4typeELb1EEEOS5_OS6_ = comdat any

$_ZNSt4pairIP4exprbEC2IRS1_bTnNSt9enable_ifIXaaclsr5_PCCPE22_MoveConstructiblePairIT_T0_EEclsr5_PCCPE30_ImplicitlyMoveConvertiblePairIS6_S7_EEEbE4typeELb1EEEOS6_OS7_ = comdat any

$_ZN11ast_manager6mk_notEP4expr = comdat any

$_ZN15ref_vector_coreI4expr19ref_manager_wrapperIS0_11ast_managerEE9push_backEPS0_ = comdat any

$_ZN7obj_refI4expr11ast_managerEaSEPS0_ = comdat any

$_ZN10ref_vectorI4expr11ast_managerED2Ev = comdat any

$_ZN7sbufferISt4pairIP4exprbELj64EED2Ev = comdat any

$_ZNK11ast_manager6is_notEPK4expr = comdat any

$_ZN7obj_refI4expr11ast_managerEC2ERS1_ = comdat any

$_ZN7obj_refI4expr11ast_managerED2Ev = comdat any

$_ZN7obj_refI3app11ast_managerEC2EPS0_RS1_ = comdat any

$_ZN7obj_refI4expr11ast_managerEC2EPS0_RS1_ = comdat any

$_ZN7obj_refIN18dependency_managerIN11ast_manager22expr_dependency_configEE10dependencyES1_EC2EPS4_RS1_ = comdat any

$_ZNK4goal4sizeEv = comdat any

$_ZN6vectorIP4exprLb0EjE9push_backEOS1_ = comdat any

$_ZNK4goal4formEj = comdat any

$_ZN11ast_manager3setERN14parray_managerINS_17expr_array_configEE3refEjP4expr = comdat any

$_ZN11ast_manager3setERN14parray_managerINS_28expr_dependency_array_configEE3refEjPN18dependency_managerINS_22expr_dependency_configEE10dependencyE = comdat any

$_ZNK4goal5depthEv = comdat any

$_ZN10ptr_vectorI4exprEC2Ev = comdat any

$_ZN13obj_hashtableI4exprEC2Ej = comdat any

$_ZN6vectorIP4exprLb0EjE5resetEv = comdat any

$_ZNK4goal3depEj = comdat any

$_ZN6vectorIP4exprLb0EjE5beginEv = comdat any

$_ZN6vectorIP4exprLb0EjE3endEv = comdat any

$_Z17is_uninterp_constPK4expr = comdat any

$_ZN11mk_ismt2_ppD2Ev = comdat any

$_ZNK3ast6get_idEv = comdat any

$_ZN14core_hashtableI14obj_hash_entryI4exprE12obj_ptr_hashIS1_E6ptr_eqIS1_EE6insertERKPS1_ = comdat any

$_ZNK14core_hashtableI14obj_hash_entryI4exprE12obj_ptr_hashIS1_E6ptr_eqIS1_EE5emptyEv = comdat any

$_ZNK14core_hashtableI14obj_hash_entryI4exprE12obj_ptr_hashIS1_E6ptr_eqIS1_EE5beginEv = comdat any

$_ZNK14core_hashtableI14obj_hash_entryI4exprE12obj_ptr_hashIS1_E6ptr_eqIS1_EE3endEv = comdat any

$_ZNK14core_hashtableI14obj_hash_entryI4exprE12obj_ptr_hashIS1_E6ptr_eqIS1_EE8iteratorneERKS8_ = comdat any

$_ZN14core_hashtableI14obj_hash_entryI4exprE12obj_ptr_hashIS1_E6ptr_eqIS1_EE8iteratordeEv = comdat any

$_ZN14core_hashtableI14obj_hash_entryI4exprE12obj_ptr_hashIS1_E6ptr_eqIS1_EE8iteratorppEv = comdat any

$_ZN13obj_hashtableI4exprED2Ev = comdat any

$_ZN10ptr_vectorI4exprED2Ev = comdat any

$_ZNK4goal2prEj = comdat any

$_ZN10ptr_bufferI4exprLj16EEC2Ev = comdat any

$_ZN6bufferIP4exprLb0ELj16EE9push_backEOS1_ = comdat any

$_ZN11ast_manager6mk_andEjPKP4expr = comdat any

$_ZNK6bufferIP4exprLb0ELj16EE4sizeEv = comdat any

$_ZNK6bufferIP4exprLb0ELj16EE4dataEv = comdat any

$_ZN10ptr_bufferI4exprLj16EED2Ev = comdat any

$_ZlsRSoRK8mk_ll_pp = comdat any

$_ZN8mk_ll_ppC2EP3astR11ast_managerbb = comdat any

$_ZN13ast_fast_markILj1EEC2Ev = comdat any

$_ZN13ast_fast_markILj1EED2Ev = comdat any

$_ZN11ast_manager8pop_backERN14parray_managerINS_17expr_array_configEE3refE = comdat any

$_ZN11ast_manager8pop_backERN14parray_managerINS_28expr_dependency_array_configEE3refE = comdat any

$_ZNK11ast_manager3getERKN14parray_managerINS_17expr_array_configEE3refEj = comdat any

$_ZNK11ast_manager3getERKN14parray_managerINS_28expr_dependency_array_configEE3refEj = comdat any

$_ZNK4goal12inconsistentEv = comdat any

$_ZN17ast_ref_fast_markILj1EEC2ER11ast_manager = comdat any

$_ZN17ast_ref_fast_markILj2EEC2ER11ast_manager = comdat any

$_ZN17ast_ref_fast_markILj1EE9is_markedEP3ast = comdat any

$_ZN17ast_ref_fast_markILj2EE9is_markedEP3ast = comdat any

$_ZN11ast_manager7mk_joinEPN18dependency_managerINS_22expr_dependency_configEE10dependencyES4_ = comdat any

$_ZN17ast_ref_fast_markILj1EE4markEP3ast = comdat any

$_ZN17ast_ref_fast_markILj2EE4markEP3ast = comdat any

$_ZN17ast_ref_fast_markILj2EED2Ev = comdat any

$_ZN17ast_ref_fast_markILj1EED2Ev = comdat any

$_ZN27expr_dependency_translationC2ER15ast_translation = comdat any

$_ZNK15ast_translation2toEv = comdat any

$_ZNK11ast_manager4sizeERKN14parray_managerINS_17expr_array_configEE3refE = comdat any

$_ZN15ast_translationclI4exprEEPT_PKS2_ = comdat any

$_ZNK3refI15proof_converterEcvbEv = comdat any

$_ZNK3refI15proof_converterEptEv = comdat any

$_ZNK3refI15model_converterEcvbEv = comdat any

$_ZNK3refI15model_converterEptEv = comdat any

$_ZNK3refI20dependency_converterEcvbEv = comdat any

$_ZNK3refI20dependency_converterEptEv = comdat any

$_ZN27expr_dependency_translationD2Ev = comdat any

$_ZN13ast_fast_markILj2EEC2Ev = comdat any

$_ZN13ast_fast_markILj1EE9is_markedEP3ast = comdat any

$_ZN13ast_fast_markILj1EE4markEP3ast = comdat any

$_ZN13ast_fast_markILj2EE9is_markedEP3ast = comdat any

$_ZN13ast_fast_markILj2EE4markEP3ast = comdat any

$_ZN13ast_fast_markILj2EED2Ev = comdat any

$_ZNK3app5beginEv = comdat any

$_ZNK3app3endEv = comdat any

$_Z6is_appPK3ast = comdat any

$_ZNK3app13get_family_idEv = comdat any

$_ZNK11ast_manager19get_basic_family_idEv = comdat any

$_ZN14parray_managerIN11ast_manager17expr_array_configEE4copyERKNS2_3refERS3_ = comdat any

$_ZN14parray_managerIN11ast_manager17expr_array_configEE7inc_refEPNS2_4cellE = comdat any

$_ZN14parray_managerIN11ast_manager17expr_array_configEE7dec_refEPNS2_4cellE = comdat any

$_ZN14parray_managerIN11ast_manager17expr_array_configEE3delEPNS2_4cellE = comdat any

$_ZNK14parray_managerIN11ast_manager17expr_array_configEE4cell4kindEv = comdat any

$_ZN14parray_managerIN11ast_manager17expr_array_configEE7dec_refERKP4expr = comdat any

$_ZNK14parray_managerIN11ast_manager17expr_array_configEE4cell4elemEv = comdat any

$_ZNK14parray_managerIN11ast_manager17expr_array_configEE4cell4nextEv = comdat any

$_ZN14parray_managerIN11ast_manager17expr_array_configEE7dec_refEjPP4expr = comdat any

$_ZNK14parray_managerIN11ast_manager17expr_array_configEE4cell4sizeEv = comdat any

$_ZN14parray_managerIN11ast_manager17expr_array_configEE17deallocate_valuesEPP4expr = comdat any

$_ZN11ast_manager7dec_refEP3ast = comdat any

$_ZN3ast7dec_refEv = comdat any

$_ZNK3ast13get_ref_countEv = comdat any

$_ZN14parray_managerIN11ast_manager17expr_array_configEE8capacityEPP4expr = comdat any

$_ZN14parray_managerIN11ast_manager28expr_dependency_array_configEE4copyERKNS2_3refERS3_ = comdat any

$_ZN14parray_managerIN11ast_manager28expr_dependency_array_configEE7inc_refEPNS2_4cellE = comdat any

$_ZN14parray_managerIN11ast_manager28expr_dependency_array_configEE7dec_refEPNS2_4cellE = comdat any

$_ZN14parray_managerIN11ast_manager28expr_dependency_array_configEE3delEPNS2_4cellE = comdat any

$_ZNK14parray_managerIN11ast_manager28expr_dependency_array_configEE4cell4kindEv = comdat any

$_ZN14parray_managerIN11ast_manager28expr_dependency_array_configEE7dec_refERKPN18dependency_managerINS0_22expr_dependency_configEE10dependencyE = comdat any

$_ZNK14parray_managerIN11ast_manager28expr_dependency_array_configEE4cell4elemEv = comdat any

$_ZNK14parray_managerIN11ast_manager28expr_dependency_array_configEE4cell4nextEv = comdat any

$_ZN14parray_managerIN11ast_manager28expr_dependency_array_configEE7dec_refEjPPN18dependency_managerINS0_22expr_dependency_configEE10dependencyE = comdat any

$_ZNK14parray_managerIN11ast_manager28expr_dependency_array_configEE4cell4sizeEv = comdat any

$_ZN14parray_managerIN11ast_manager28expr_dependency_array_configEE17deallocate_valuesEPPN18dependency_managerINS0_22expr_dependency_configEE10dependencyE = comdat any

$_ZN11ast_manager7dec_refEPN18dependency_managerINS_22expr_dependency_configEE10dependencyE = comdat any

$_ZN18dependency_managerIN11ast_manager22expr_dependency_configEE7dec_refEPNS2_10dependencyE = comdat any

$_ZN18dependency_managerIN11ast_manager22expr_dependency_configEE3delEPNS2_10dependencyE = comdat any

$_ZN6vectorIPN18dependency_managerIN11ast_manager22expr_dependency_configEE10dependencyELb0EjE9push_backERKS5_ = comdat any

$_ZNK6vectorIPN18dependency_managerIN11ast_manager22expr_dependency_configEE10dependencyELb0EjE5emptyEv = comdat any

$_ZN6vectorIPN18dependency_managerIN11ast_manager22expr_dependency_configEE10dependencyELb0EjE4backEv = comdat any

$_ZN6vectorIPN18dependency_managerIN11ast_manager22expr_dependency_configEE10dependencyELb0EjE8pop_backEv = comdat any

$_ZNK18dependency_managerIN11ast_manager22expr_dependency_configEE10dependency7is_leafEv = comdat any

$_ZN18dependency_managerIN11ast_manager22expr_dependency_configEE7dec_refERKP4expr = comdat any

$_ZN18dependency_managerIN11ast_manager22expr_dependency_configEE7to_leafEPNS2_10dependencyE = comdat any

$_ZN18dependency_managerIN11ast_manager22expr_dependency_configEE7to_joinEPNS2_10dependencyE = comdat any

$_ZN6vectorIPN18dependency_managerIN11ast_manager22expr_dependency_configEE10dependencyELb0EjE13expand_vectorEv = comdat any

$_ZNSt7__cxx1112basic_stringIcSt11char_traitsIcESaIcEEC2IS3_EEPKcRKS3_ = comdat any

$_ZN17default_exceptionC2EONSt7__cxx1112basic_stringIcSt11char_traitsIcESaIcEEE = comdat any

$_ZN17default_exceptionD2Ev = comdat any

$_ZNSt11char_traitsIcE6lengthEPKc = comdat any

$_ZNSt7__cxx1112basic_stringIcSt11char_traitsIcESaIcEE12_M_constructIPKcEEvT_S8_St20forward_iterator_tag = comdat any

$_ZNSt7__cxx1112basic_stringIcSt11char_traitsIcESaIcEE12_Alloc_hiderD2Ev = comdat any

$_ZSt8distanceIPKcENSt15iterator_traitsIT_E15difference_typeES3_S3_ = comdat any

$_ZZNSt7__cxx1112basic_stringIcSt11char_traitsIcESaIcEE12_M_constructIPKcEEvT_S8_St20forward_iterator_tagEN6_GuardC2EPS4_ = comdat any

$_ZZNSt7__cxx1112basic_stringIcSt11char_traitsIcESaIcEE12_M_constructIPKcEEvT_S8_St20forward_iterator_tagEN6_GuardD2Ev = comdat any

$_ZSt10__distanceIPKcENSt15iterator_traitsIT_E15difference_typeES3_S3_St26random_access_iterator_tag = comdat any

$_ZSt19__iterator_categoryIPKcENSt15iterator_traitsIT_E17iterator_categoryERKS3_ = comdat any

$_ZN12z3_exceptionC2Ev = comdat any

$_ZN12z3_exceptionD2Ev = comdat any

$_ZN6vectorIPN18dependency_managerIN11ast_manager22expr_dependency_configEE10dependencyELb0EjEixEj = comdat any

$_ZNK6vectorIPN18dependency_managerIN11ast_manager22expr_dependency_configEE10dependencyELb0EjE4sizeEv = comdat any

$_ZN14parray_managerIN11ast_manager28expr_dependency_array_configEE8capacityEPPN18dependency_managerINS0_22expr_dependency_configEE10dependencyE = comdat any

$_ZN14parray_managerIN11ast_manager17expr_array_configEE3delERNS2_3refE = comdat any

$_ZN14parray_managerIN11ast_manager28expr_dependency_array_configEE3delERNS2_3refE = comdat any

$_ZN14parray_managerIN11ast_manager17expr_array_configEE9push_backERNS2_3refERKP4expr = comdat any

$_ZN14parray_managerIN11ast_manager17expr_array_configEE2mkERNS2_3refE = comdat any

$_ZNK14parray_managerIN11ast_manager17expr_array_configEE3ref4rootEv = comdat any

$_ZNK14parray_managerIN11ast_manager17expr_array_configEE3ref8unsharedEv = comdat any

$_ZN14parray_managerIN11ast_manager17expr_array_configEE10rpush_backEPNS2_4cellERKP4expr = comdat any

$_ZNK14parray_managerIN11ast_manager17expr_array_configEE4sizeERKNS2_3refE = comdat any

$_ZN14parray_managerIN11ast_manager17expr_array_configEE7unshareERNS2_3refE = comdat any

$_ZN14parray_managerIN11ast_manager17expr_array_configEE2mkENS2_5ckindE = comdat any

$_ZN14parray_managerIN11ast_manager17expr_array_configEE3refC2EPNS2_4cellE = comdat any

$_ZN14parray_managerIN11ast_manager17expr_array_configEE7inc_refERKP4expr = comdat any

$_ZN14parray_managerIN11ast_manager17expr_array_configEE10rpush_backERPP4exprRjRKS4_ = comdat any

$_ZN14parray_managerIN11ast_manager17expr_array_configEE6expandERPP4expr = comdat any

$_ZN14parray_managerIN11ast_manager17expr_array_configEE15allocate_valuesEm = comdat any

$_ZNK14parray_managerIN11ast_manager17expr_array_configEE4cell3idxEv = comdat any

$_ZN14parray_managerIN11ast_manager17expr_array_configEE10get_valuesEPNS2_4cellERPP4expr = comdat any

$_ZN6vectorIPN14parray_managerIN11ast_manager17expr_array_configEE4cellELb0EjE5resetEv = comdat any

$_ZN6vectorIPN14parray_managerIN11ast_manager17expr_array_configEE4cellELb0EjE9push_backERKS5_ = comdat any

$_ZN14parray_managerIN11ast_manager17expr_array_configEE11copy_valuesEPP4exprjRS5_ = comdat any

$_ZNK6vectorIPN14parray_managerIN11ast_manager17expr_array_configEE4cellELb0EjE4sizeEv = comdat any

$_ZN6vectorIPN14parray_managerIN11ast_manager17expr_array_configEE4cellELb0EjEixEj = comdat any

$_ZN14parray_managerIN11ast_manager17expr_array_configEE4rsetEPP4exprjRKS4_ = comdat any

$_ZN14parray_managerIN11ast_manager17expr_array_configEE9rpop_backEPP4exprRj = comdat any

$_ZN6vectorIPN14parray_managerIN11ast_manager17expr_array_configEE4cellELb0EjE13expand_vectorEv = comdat any

$_ZN14parray_managerIN11ast_manager17expr_array_configEE4cellC2ENS2_5ckindE = comdat any

$_ZN11ast_manager7inc_refEP3ast = comdat any

$_ZN3ast7inc_refEv = comdat any

$_ZN14parray_managerIN11ast_manager28expr_dependency_array_configEE9push_backERNS2_3refERKPN18dependency_managerINS0_22expr_dependency_configEE10dependencyE = comdat any

$_ZN14parray_managerIN11ast_manager28expr_dependency_array_configEE2mkERNS2_3refE = comdat any

$_ZNK14parray_managerIN11ast_manager28expr_dependency_array_configEE3ref4rootEv = comdat any

$_ZNK14parray_managerIN11ast_manager28expr_dependency_array_configEE3ref8unsharedEv = comdat any

$_ZN14parray_managerIN11ast_manager28expr_dependency_array_configEE10rpush_backEPNS2_4cellERKPN18dependency_managerINS0_22expr_dependency_configEE10dependencyE = comdat any

$_ZNK14parray_managerIN11ast_manager28expr_dependency_array_configEE4sizeERKNS2_3refE = comdat any

$_ZN14parray_managerIN11ast_manager28expr_dependency_array_configEE7unshareERNS2_3refE = comdat any

$_ZN14parray_managerIN11ast_manager28expr_dependency_array_configEE2mkENS2_5ckindE = comdat any

$_ZN14parray_managerIN11ast_manager28expr_dependency_array_configEE3refC2EPNS2_4cellE = comdat any

$_ZN14parray_managerIN11ast_manager28expr_dependency_array_configEE7inc_refERKPN18dependency_managerINS0_22expr_dependency_configEE10dependencyE = comdat any

$_ZN14parray_managerIN11ast_manager28expr_dependency_array_configEE10rpush_backERPPN18dependency_managerINS0_22expr_dependency_configEE10dependencyERjRKS7_ = comdat any

$_ZN14parray_managerIN11ast_manager28expr_dependency_array_configEE6expandERPPN18dependency_managerINS0_22expr_dependency_configEE10dependencyE = comdat any

$_ZN14parray_managerIN11ast_manager28expr_dependency_array_configEE15allocate_valuesEm = comdat any

$_ZNK14parray_managerIN11ast_manager28expr_dependency_array_configEE4cell3idxEv = comdat any

$_ZN14parray_managerIN11ast_manager28expr_dependency_array_configEE10get_valuesEPNS2_4cellERPPN18dependency_managerINS0_22expr_dependency_configEE10dependencyE = comdat any

$_ZN6vectorIPN14parray_managerIN11ast_manager28expr_dependency_array_configEE4cellELb0EjE5resetEv = comdat any

$_ZN6vectorIPN14parray_managerIN11ast_manager28expr_dependency_array_configEE4cellELb0EjE9push_backERKS5_ = comdat any

$_ZN14parray_managerIN11ast_manager28expr_dependency_array_configEE11copy_valuesEPPN18dependency_managerINS0_22expr_dependency_configEE10dependencyEjRS8_ = comdat any

$_ZNK6vectorIPN14parray_managerIN11ast_manager28expr_dependency_array_configEE4cellELb0EjE4sizeEv = comdat any

$_ZN6vectorIPN14parray_managerIN11ast_manager28expr_dependency_array_configEE4cellELb0EjEixEj = comdat any

$_ZN14parray_managerIN11ast_manager28expr_dependency_array_configEE4rsetEPPN18dependency_managerINS0_22expr_dependency_configEE10dependencyEjRKS7_ = comdat any

$_ZN14parray_managerIN11ast_manager28expr_dependency_array_configEE9rpop_backEPPN18dependency_managerINS0_22expr_dependency_configEE10dependencyERj = comdat any

$_ZN6vectorIPN14parray_managerIN11ast_manager28expr_dependency_array_configEE4cellELb0EjE13expand_vectorEv = comdat any

$_ZN14parray_managerIN11ast_manager28expr_dependency_array_configEE4cellC2ENS2_5ckindE = comdat any

$_ZN11ast_manager7inc_refEPN18dependency_managerINS_22expr_dependency_configEE10dependencyE = comdat any

$_ZN18dependency_managerIN11ast_manager22expr_dependency_configEE7inc_refEPNS2_10dependencyE = comdat any

$_Z9is_app_ofPK4exprii = comdat any

$_ZNK3ast8get_kindEv = comdat any

$_Z6to_appPK3ast = comdat any

$_ZNK3app9is_app_ofEii = comdat any

$_ZNK4decl10is_decl_ofEii = comdat any

$_ZNK9decl_info10is_decl_ofEii = comdat any

$_ZNSt10__pair_getILm0EE10__move_getIP4exprbEEOT_OSt4pairIS4_T0_E = comdat any

$_ZNSt10__pair_getILm1EE10__move_getIP4exprbEEOT0_OSt4pairIT_S4_E = comdat any

$_ZN15ref_vector_coreI4expr19ref_manager_wrapperIS0_11ast_managerEED2Ev = comdat any

$_ZN15ref_vector_coreI4expr19ref_manager_wrapperIS0_11ast_managerEE13dec_range_refEPKPS0_S7_ = comdat any

$_ZNK6vectorIP4exprLb0EjE4dataEv = comdat any

$_ZNK6vectorIP4exprLb0EjE4sizeEv = comdat any

$_ZN15ref_vector_coreI4expr19ref_manager_wrapperIS0_11ast_managerEE7dec_refEPS0_ = comdat any

$_ZN19ref_manager_wrapperI4expr11ast_managerE7dec_refEPS0_ = comdat any

$_ZN6bufferISt4pairIP4exprbELb0ELj64EED2Ev = comdat any

$_ZN6bufferISt4pairIP4exprbELb0ELj64EE7destroyEv = comdat any

$_ZN6bufferISt4pairIP4exprbELb0ELj64EE11free_memoryEv = comdat any

$_Z13dealloc_svectISt4pairIP4exprbEEvPT_ = comdat any

$_ZN14parray_managerIN11ast_manager17expr_array_configEE3setERNS2_3refEjRKP4expr = comdat any

$_ZN14parray_managerIN11ast_manager17expr_array_configEE4rsetEPNS2_4cellEjRKP4expr = comdat any

$_ZN14parray_managerIN11ast_manager28expr_dependency_array_configEE3setERNS2_3refEjRKPN18dependency_managerINS0_22expr_dependency_configEE10dependencyE = comdat any

$_ZN14parray_managerIN11ast_manager28expr_dependency_array_configEE4rsetEPNS2_4cellEjRKPN18dependency_managerINS0_22expr_dependency_configEE10dependencyE = comdat any

$_ZN14core_hashtableI14obj_hash_entryI4exprE12obj_ptr_hashIS1_E6ptr_eqIS1_EED2Ev = comdat any

$_ZN14core_hashtableI14obj_hash_entryI4exprE12obj_ptr_hashIS1_E6ptr_eqIS1_EE12delete_tableEv = comdat any

$_Z12dealloc_vectI14obj_hash_entryI4exprEEvPT_j = comdat any

$_ZN6vectorIP4exprLb0EjED2Ev = comdat any

$_ZN6vectorIP4exprLb0EjE7destroyEv = comdat any

$_ZN6vectorIP4exprLb0EjE11free_memoryEv = comdat any

$_ZN6bufferIP4exprLb0ELj16EEC2Ev = comdat any

$_ZN6bufferIP4exprLb0ELj16EED2Ev = comdat any

$_ZN6bufferIP4exprLb0ELj16EE7destroyEv = comdat any

$_ZN6bufferIP4exprLb0ELj16EE11free_memoryEv = comdat any

$_Z13dealloc_svectIP4exprEvPT_ = comdat any

$_ZN10ptr_bufferI3astLj16EEC2Ev = comdat any

$_ZN6bufferIP3astLb0ELj16EEC2Ev = comdat any

$_ZN14parray_managerIN11ast_manager17expr_array_configEE8pop_backERNS2_3refE = comdat any

$_ZN14parray_managerIN11ast_manager17expr_array_configEE9rpop_backEPNS2_4cellE = comdat any

$_ZN14parray_managerIN11ast_manager28expr_dependency_array_configEE8pop_backERNS2_3refE = comdat any

$_ZN14parray_managerIN11ast_manager28expr_dependency_array_configEE9rpop_backEPNS2_4cellE = comdat any

$_ZNK14parray_managerIN11ast_manager17expr_array_configEE3getERKNS2_3refEj = comdat any

$_ZN14parray_managerIN11ast_manager17expr_array_configEE6rerootERNS2_3refE = comdat any

$_ZN14parray_managerIN11ast_manager17expr_array_configEE6unfoldEPNS2_4cellE = comdat any

$_ZNK14parray_managerIN11ast_manager28expr_dependency_array_configEE3getERKNS2_3refEj = comdat any

$_ZN14parray_managerIN11ast_manager28expr_dependency_array_configEE6rerootERNS2_3refE = comdat any

$_ZN14parray_managerIN11ast_manager28expr_dependency_array_configEE6unfoldEPNS2_4cellE = comdat any

$_ZN18dependency_managerIN11ast_manager22expr_dependency_configEE7mk_joinEPNS2_10dependencyES4_ = comdat any

$_ZN18dependency_managerIN11ast_manager22expr_dependency_configEE4joinC2EPNS2_10dependencyES5_ = comdat any

$_ZN18dependency_managerIN11ast_manager22expr_dependency_configEE10dependencyC2Eb = comdat any

$_ZNK3app8get_declEv = comdat any

$_ZNK4decl13get_family_idEv = comdat any

$_ZNK9decl_info13get_family_idEv = comdat any

$_ZN7obj_refI4expr11ast_managerE7inc_refEv = comdat any

$_ZN7obj_refI4expr11ast_managerE7dec_refEv = comdat any

$_ZN14core_hashtableI14obj_hash_entryI4exprE12obj_ptr_hashIS1_E6ptr_eqIS1_EE6insertEOPS1_ = comdat any

$_ZN14core_hashtableI14obj_hash_entryI4exprE12obj_ptr_hashIS1_E6ptr_eqIS1_EE12expand_tableEv = comdat any

$_ZNK14core_hashtableI14obj_hash_entryI4exprE12obj_ptr_hashIS1_E6ptr_eqIS1_EE8get_hashERKPS1_ = comdat any

$_ZNK14obj_hash_entryI4exprE7is_usedEv = comdat any

$_ZNK14obj_hash_entryI4exprE8get_hashEv = comdat any

$_ZNK14core_hashtableI14obj_hash_entryI4exprE12obj_ptr_hashIS1_E6ptr_eqIS1_EE6equalsERKPS1_SA_ = comdat any

$_ZN14obj_hash_entryI4exprE8get_dataEv = comdat any

$_ZN14obj_hash_entryI4exprE8set_dataEPS0_ = comdat any

$_ZNK14obj_hash_entryI4exprE7is_freeEv = comdat any

$_ZN14obj_hash_entryI4exprE8set_hashEj = comdat any

$_ZN14core_hashtableI14obj_hash_entryI4exprE12obj_ptr_hashIS1_E6ptr_eqIS1_EE11alloc_tableEj = comdat any

$_ZN14core_hashtableI14obj_hash_entryI4exprE12obj_ptr_hashIS1_E6ptr_eqIS1_EE10move_tableEPS2_jS8_j = comdat any

$_Z10alloc_vectI14obj_hash_entryI4exprEEPT_j = comdat any

$_ZN14obj_hash_entryI4exprEC2Ev = comdat any

$_ZNK12obj_ptr_hashI4exprEclEPS0_ = comdat any

$_ZNK3ast4hashEv = comdat any

$_ZNK6ptr_eqI4exprEclEPS0_S2_ = comdat any

$_ZN7obj_refI3app11ast_managerE7inc_refEv = comdat any

$_ZN7obj_refI3app11ast_managerE7dec_refEv = comdat any

$_ZN19ref_manager_wrapperI4expr11ast_managerEC2ERS1_ = comdat any

$_ZN15ref_vector_coreI4expr19ref_manager_wrapperIS0_11ast_managerEEC2ERKS3_ = comdat any

$_ZN15ref_vector_coreI4expr19ref_manager_wrapperIS0_11ast_managerEE7inc_refEPS0_ = comdat any

$_ZN6vectorIP4exprLb0EjE9push_backERKS1_ = comdat any

$_ZN19ref_manager_wrapperI4expr11ast_managerE7inc_refEPS0_ = comdat any

$_ZN6vectorIP4exprLb0EjE13expand_vectorEv = comdat any

$_ZN15ast_translation9translateI4exprEEPT_PKS2_ = comdat any

$_ZNK15ast_translation4fromEv = comdat any

$_ZN6vectorIP4exprLb0EjEC2Ev = comdat any

$_ZN9converter7inc_refEv = comdat any

$_ZN3refI20dependency_converterE7dec_refEv = comdat any

$_ZN9converter7dec_refEv = comdat any

$_Z7deallocI9converterEvPT_ = comdat any

$_ZN3refI15model_converterE7dec_refEv = comdat any

$_ZN3refI15proof_converterE7dec_refEv = comdat any

$_ZN7obj_refIN18dependency_managerIN11ast_manager22expr_dependency_configEE10dependencyES1_E7dec_refEv = comdat any

$_ZN6bufferISt4pairIP4exprbELb0ELj64EEC2Ev = comdat any

$_ZN6bufferISt4pairIP4exprbELb0ELj64EE6expandEv = comdat any

$_ZN7obj_refIN18dependency_managerIN11ast_manager22expr_dependency_configEE10dependencyES1_E7inc_refEv = comdat any

$_ZN14core_hashtableI14obj_hash_entryI4exprE12obj_ptr_hashIS1_E6ptr_eqIS1_EEC2EjRKS4_RKS6_ = comdat any

$_ZN14core_hashtableI14obj_hash_entryI4exprE12obj_ptr_hashIS1_E6ptr_eqIS1_EE8iteratorC2EPS2_S9_ = comdat any

$_ZN14core_hashtableI14obj_hash_entryI4exprE12obj_ptr_hashIS1_E6ptr_eqIS1_EE8iterator12move_to_usedEv = comdat any

$_ZN6bufferIP4exprLb0ELj16EE6expandEv = comdat any

$_ZN13ast_fast_markILj1EE5resetEv = comdat any

$_ZN10ptr_bufferI3astLj16EED2Ev = comdat any

$_ZN6bufferIP3astLb0ELj16EE5beginEv = comdat any

$_ZN6bufferIP3astLb0ELj16EE3endEv = comdat any

$_ZN13ast_fast_markILj1EE10reset_markEP3ast = comdat any

$_ZN6bufferIP3astLb0ELj16EE5resetEv = comdat any

$_ZNK6bufferIP3astLb0ELj16EE4sizeEv = comdat any

$_ZN3ast11reset_mark1Ev = comdat any

$_ZN6bufferIP3astLb0ELj16EED2Ev = comdat any

$_ZN6bufferIP3astLb0ELj16EE7destroyEv = comdat any

$_ZN6bufferIP3astLb0ELj16EE11free_memoryEv = comdat any

$_Z13dealloc_svectIP3astEvPT_ = comdat any

$_ZN10ref_bufferI3ast11ast_managerLj16EEC2ERS1_ = comdat any

$_ZN19ref_manager_wrapperI3ast11ast_managerEC2ERS1_ = comdat any

$_ZN15ref_buffer_coreI3ast19ref_manager_wrapperIS0_11ast_managerELj16EEC2ERKS3_ = comdat any

$_ZN17ast_ref_fast_markILj1EE5resetEv = comdat any

$_ZN10ref_bufferI3ast11ast_managerLj16EED2Ev = comdat any

$_ZNK15ref_buffer_coreI3ast19ref_manager_wrapperIS0_11ast_managerELj16EE5beginEv = comdat any

$_ZNK15ref_buffer_coreI3ast19ref_manager_wrapperIS0_11ast_managerELj16EE3endEv = comdat any

$_ZN17ast_ref_fast_markILj1EE10reset_markEP3ast = comdat any

$_ZN15ref_buffer_coreI3ast19ref_manager_wrapperIS0_11ast_managerELj16EE5resetEv = comdat any

$_ZNK15ref_buffer_coreI3ast19ref_manager_wrapperIS0_11ast_managerELj16EE4dataEv = comdat any

$_ZNK6bufferIP3astLb0ELj16EE4dataEv = comdat any

$_ZNK15ref_buffer_coreI3ast19ref_manager_wrapperIS0_11ast_managerELj16EE4sizeEv = comdat any

$_ZN15ref_buffer_coreI3ast19ref_manager_wrapperIS0_11ast_managerELj16EE13dec_range_refEPKPS0_S7_ = comdat any

$_ZN15ref_buffer_coreI3ast19ref_manager_wrapperIS0_11ast_managerELj16EE7dec_refEPS0_ = comdat any

$_ZN19ref_manager_wrapperI3ast11ast_managerE7dec_refEPS0_ = comdat any

$_ZN15ref_buffer_coreI3ast19ref_manager_wrapperIS0_11ast_managerELj16EED2Ev = comdat any

$_ZN17ast_ref_fast_markILj2EE5resetEv = comdat any

$_ZN17ast_ref_fast_markILj2EE10reset_markEP3ast = comdat any

$_ZN3ast11reset_mark2Ev = comdat any

$_ZNK3ast10is_marked1Ev = comdat any

$_ZNK3ast10is_marked2Ev = comdat any

$_ZN3ast5mark1Eb = comdat any

$_ZN15ref_buffer_coreI3ast19ref_manager_wrapperIS0_11ast_managerELj16EE9push_backEPS0_ = comdat any

$_ZN15ref_buffer_coreI3ast19ref_manager_wrapperIS0_11ast_managerELj16EE7inc_refEPS0_ = comdat any

$_ZN6bufferIP3astLb0ELj16EE9push_backERKS1_ = comdat any

$_ZN19ref_manager_wrapperI3ast11ast_managerE7inc_refEPS0_ = comdat any

$_ZN6bufferIP3astLb0ELj16EE6expandEv = comdat any

$_ZN3ast5mark2Eb = comdat any

$_ZN13ast_fast_markILj2EE5resetEv = comdat any

$_ZN13ast_fast_markILj2EE10reset_markEP3ast = comdat any

@_ZStL8__ioinit = internal global %"class.std::ios_base::Init" zeroinitializer, align 1
@__dso_handle = external hidden global i8
@.str = private unnamed_addr constant [8 x i8] c"precise\00", align 1
@.str.1 = private unnamed_addr constant [6 x i8] c"under\00", align 1
@.str.2 = private unnamed_addr constant [5 x i8] c"over\00", align 1
@.str.3 = private unnamed_addr constant [11 x i8] c"under-over\00", align 1
@.str.4 = private unnamed_addr constant [6 x i8] c"(goal\00", align 1
@.str.5 = private unnamed_addr constant [4 x i8] c"\0A  \00", align 1
@.str.6 = private unnamed_addr constant [15 x i8] c"\0A  :precision \00", align 1
@.str.7 = private unnamed_addr constant [9 x i8] c" :depth \00", align 1
@.str.8 = private unnamed_addr constant [2 x i8] c")\00", align 1
@.str.9 = private unnamed_addr constant [6 x i8] c"\0A  |-\00", align 1
@.str.10 = private unnamed_addr constant [2 x i8] c" \00", align 1
@.str.11 = private unnamed_addr constant [3 x i8] c" #\00", align 1
@.str.12 = private unnamed_addr constant [31 x i8] c"\0A  :dependencies-definitions (\00", align 1
@.str.13 = private unnamed_addr constant [6 x i8] c"\0A  (#\00", align 1
@.str.14 = private unnamed_addr constant [2 x i8] c"\0A\00", align 1
@.str.15 = private unnamed_addr constant [43 x i8] c"Overflow encountered when expanding vector\00", align 1
@_ZTI17default_exception = external constant ptr
@.str.16 = private unnamed_addr constant [50 x i8] c"basic_string: construction from null is not valid\00", align 1
@_ZTV17default_exception = external unnamed_addr constant { [6 x ptr] }, align 8
@_ZTV12z3_exception = external unnamed_addr constant { [6 x ptr] }, align 8
@.str.17 = private unnamed_addr constant [101 x i8] c"generated/home/dtcxzyw/WorkSpace/Projects/compilers/llvm-opt-benchmark/bench/z3/z3/src/util/parray.h\00", align 1
@.str.18 = private unnamed_addr constant [29 x i8] c"UNEXPECTED CODE WAS REACHED.\00", align 1
@.str.19 = private unnamed_addr constant [104 x i8] c"generated/home/dtcxzyw/WorkSpace/Projects/compilers/llvm-opt-benchmark/bench/z3/z3/src/util/hashtable.h\00", align 1
@llvm.global_ctors = appending global [1 x { i32, ptr, ptr }] [{ i32, ptr, ptr } { i32 65535, ptr @_GLOBAL__sub_I_goal.cpp, ptr null }]

@_ZN4goalC1ER11ast_managerbb = hidden unnamed_addr alias void (ptr, ptr, i1, i1), ptr @_ZN4goalC2ER11ast_managerbb
@_ZN4goalC1ER11ast_managerbbb = hidden unnamed_addr alias void (ptr, ptr, i1, i1, i1), ptr @_ZN4goalC2ER11ast_managerbbb
@_ZN4goalC1ERKS_ = hidden unnamed_addr alias void (ptr, ptr), ptr @_ZN4goalC2ERKS_
@_ZN4goalC1ERKS_b = hidden unnamed_addr alias void (ptr, ptr, i1), ptr @_ZN4goalC2ERKS_b
@_ZN4goalD1Ev = hidden unnamed_addr alias void (ptr), ptr @_ZN4goalD2Ev

; Function Attrs: uwtable
define internal void @__cxx_global_var_init() #0 section ".text.startup" {
entry:
  call void @_ZNSt8ios_base4InitC1Ev(ptr noundef nonnull align 1 dereferenceable(1) @_ZStL8__ioinit)
  %0 = call i32 @__cxa_atexit(ptr @_ZNSt8ios_base4InitD1Ev, ptr @_ZStL8__ioinit, ptr @__dso_handle) #3
  ret void
}

declare void @_ZNSt8ios_base4InitC1Ev(ptr noundef nonnull align 1 dereferenceable(1)) unnamed_addr #1

; Function Attrs: nounwind
declare void @_ZNSt8ios_base4InitD1Ev(ptr noundef nonnull align 1 dereferenceable(1)) unnamed_addr #2

; Function Attrs: nounwind
declare i32 @__cxa_atexit(ptr, ptr, ptr) #3

; Function Attrs: mustprogress nounwind uwtable
define hidden noundef i32 @_ZN4goal8mk_unionENS_9precisionES0_(i32 noundef %p1, i32 noundef %p2) #4 align 2 {
entry:
  %retval = alloca i32, align 4
  %p1.addr = alloca i32, align 4
  %p2.addr = alloca i32, align 4
  store i32 %p1, ptr %p1.addr, align 4
  store i32 %p2, ptr %p2.addr, align 4
  %0 = load i32, ptr %p1.addr, align 4
  %cmp = icmp eq i32 %0, 0
  br i1 %cmp, label %if.then, label %if.end

if.then:                                          ; preds = %entry
  %1 = load i32, ptr %p2.addr, align 4
  store i32 %1, ptr %retval, align 4
  br label %return

if.end:                                           ; preds = %entry
  %2 = load i32, ptr %p2.addr, align 4
  %cmp1 = icmp eq i32 %2, 0
  br i1 %cmp1, label %if.then2, label %if.end3

if.then2:                                         ; preds = %if.end
  %3 = load i32, ptr %p1.addr, align 4
  store i32 %3, ptr %retval, align 4
  br label %return

if.end3:                                          ; preds = %if.end
  %4 = load i32, ptr %p1.addr, align 4
  %5 = load i32, ptr %p2.addr, align 4
  %cmp4 = icmp ne i32 %4, %5
  br i1 %cmp4, label %if.then5, label %if.end6

if.then5:                                         ; preds = %if.end3
  store i32 3, ptr %retval, align 4
  br label %return

if.end6:                                          ; preds = %if.end3
  %6 = load i32, ptr %p1.addr, align 4
  store i32 %6, ptr %retval, align 4
  br label %return

return:                                           ; preds = %if.end6, %if.then5, %if.then2, %if.then
  %7 = load i32, ptr %retval, align 4
  ret i32 %7
}

; Function Attrs: mustprogress uwtable
define hidden noundef nonnull align 8 dereferenceable(8) ptr @_ZlsRSoN4goal9precisionE(ptr noundef nonnull align 8 dereferenceable(8) %out, i32 noundef %p) #5 {
entry:
  %out.addr = alloca ptr, align 8
  %p.addr = alloca i32, align 4
  store ptr %out, ptr %out.addr, align 8
  store i32 %p, ptr %p.addr, align 4
  %0 = load i32, ptr %p.addr, align 4
  switch i32 %0, label %sw.epilog [
    i32 0, label %sw.bb
    i32 1, label %sw.bb1
    i32 2, label %sw.bb3
    i32 3, label %sw.bb5
  ]

sw.bb:                                            ; preds = %entry
  %1 = load ptr, ptr %out.addr, align 8
  %call = call noundef nonnull align 8 dereferenceable(8) ptr @_ZStlsISt11char_traitsIcEERSt13basic_ostreamIcT_ES5_PKc(ptr noundef nonnull align 8 dereferenceable(8) %1, ptr noundef @.str)
  br label %sw.epilog

sw.bb1:                                           ; preds = %entry
  %2 = load ptr, ptr %out.addr, align 8
  %call2 = call noundef nonnull align 8 dereferenceable(8) ptr @_ZStlsISt11char_traitsIcEERSt13basic_ostreamIcT_ES5_PKc(ptr noundef nonnull align 8 dereferenceable(8) %2, ptr noundef @.str.1)
  br label %sw.epilog

sw.bb3:                                           ; preds = %entry
  %3 = load ptr, ptr %out.addr, align 8
  %call4 = call noundef nonnull align 8 dereferenceable(8) ptr @_ZStlsISt11char_traitsIcEERSt13basic_ostreamIcT_ES5_PKc(ptr noundef nonnull align 8 dereferenceable(8) %3, ptr noundef @.str.2)
  br label %sw.epilog

sw.bb5:                                           ; preds = %entry
  %4 = load ptr, ptr %out.addr, align 8
  %call6 = call noundef nonnull align 8 dereferenceable(8) ptr @_ZStlsISt11char_traitsIcEERSt13basic_ostreamIcT_ES5_PKc(ptr noundef nonnull align 8 dereferenceable(8) %4, ptr noundef @.str.3)
  br label %sw.epilog

sw.epilog:                                        ; preds = %sw.bb5, %sw.bb3, %sw.bb1, %sw.bb, %entry
  %5 = load ptr, ptr %out.addr, align 8
  ret ptr %5
}

declare noundef nonnull align 8 dereferenceable(8) ptr @_ZStlsISt11char_traitsIcEERSt13basic_ostreamIcT_ES5_PKc(ptr noundef nonnull align 8 dereferenceable(8), ptr noundef) #1

; Function Attrs: mustprogress uwtable
define hidden void @_ZN4goalC2ER11ast_managerbb(ptr noundef nonnull align 8 dereferenceable(124) %this, ptr noundef nonnull align 8 dereferenceable(976) %m, i1 noundef zeroext %models_enabled, i1 noundef zeroext %core_enabled) unnamed_addr #5 align 2 personality ptr @__gxx_personality_v0 {
entry:
  %this.addr = alloca ptr, align 8
  %m.addr = alloca ptr, align 8
  %models_enabled.addr = alloca i8, align 1
  %core_enabled.addr = alloca i8, align 1
  %exn.slot = alloca ptr, align 8
  %ehselector.slot = alloca i32, align 4
  store ptr %this, ptr %this.addr, align 8
  store ptr %m, ptr %m.addr, align 8
  %frombool = zext i1 %models_enabled to i8
  store i8 %frombool, ptr %models_enabled.addr, align 1
  %frombool1 = zext i1 %core_enabled to i8
  store i8 %frombool1, ptr %core_enabled.addr, align 1
  %this2 = load ptr, ptr %this.addr, align 8
  %m_manager = getelementptr inbounds %class.goal, ptr %this2, i32 0, i32 0
  %0 = load ptr, ptr %m.addr, align 8
  store ptr %0, ptr %m_manager, align 8
  %m_mc = getelementptr inbounds %class.goal, ptr %this2, i32 0, i32 1
  call void @_ZN3refI15model_converterEC2Ev(ptr noundef nonnull align 8 dereferenceable(8) %m_mc)
  %m_pc = getelementptr inbounds %class.goal, ptr %this2, i32 0, i32 2
  invoke void @_ZN3refI15proof_converterEC2Ev(ptr noundef nonnull align 8 dereferenceable(8) %m_pc)
          to label %invoke.cont unwind label %lpad

invoke.cont:                                      ; preds = %entry
  %m_dc = getelementptr inbounds %class.goal, ptr %this2, i32 0, i32 3
  invoke void @_ZN3refI20dependency_converterEC2Ev(ptr noundef nonnull align 8 dereferenceable(8) %m_dc)
          to label %invoke.cont4 unwind label %lpad3

invoke.cont4:                                     ; preds = %invoke.cont
  %m_ref_count = getelementptr inbounds %class.goal, ptr %this2, i32 0, i32 4
  store i32 0, ptr %m_ref_count, align 8
  %m_reason_unknown = getelementptr inbounds %class.goal, ptr %this2, i32 0, i32 6
  call void @_ZNSt7__cxx1112basic_stringIcSt11char_traitsIcESaIcEEC1Ev(ptr noundef nonnull align 8 dereferenceable(32) %m_reason_unknown) #3
  %m_forms = getelementptr inbounds %class.goal, ptr %this2, i32 0, i32 7
  invoke void @_ZN14parray_managerIN11ast_manager17expr_array_configEE3refC2Ev(ptr noundef nonnull align 8 dereferenceable(12) %m_forms)
          to label %invoke.cont6 unwind label %lpad5

invoke.cont6:                                     ; preds = %invoke.cont4
  %m_proofs = getelementptr inbounds %class.goal, ptr %this2, i32 0, i32 8
  invoke void @_ZN14parray_managerIN11ast_manager17expr_array_configEE3refC2Ev(ptr noundef nonnull align 8 dereferenceable(12) %m_proofs)
          to label %invoke.cont7 unwind label %lpad5

invoke.cont7:                                     ; preds = %invoke.cont6
  %m_dependencies = getelementptr inbounds %class.goal, ptr %this2, i32 0, i32 9
  invoke void @_ZN14parray_managerIN11ast_manager28expr_dependency_array_configEE3refC2Ev(ptr noundef nonnull align 8 dereferenceable(12) %m_dependencies)
          to label %invoke.cont8 unwind label %lpad5

invoke.cont8:                                     ; preds = %invoke.cont7
  %m_depth = getelementptr inbounds %class.goal, ptr %this2, i32 0, i32 10
  %bf.load = load i32, ptr %m_depth, align 8
  %bf.clear = and i32 %bf.load, -67108864
  %bf.set = or i32 %bf.clear, 0
  store i32 %bf.set, ptr %m_depth, align 8
  %m_models_enabled = getelementptr inbounds %class.goal, ptr %this2, i32 0, i32 10
  %1 = load i8, ptr %models_enabled.addr, align 1
  %tobool = trunc i8 %1 to i1
  %conv = zext i1 %tobool to i32
  %bf.load9 = load i32, ptr %m_models_enabled, align 8
  %bf.value = and i32 %conv, 1
  %bf.shl = shl i32 %bf.value, 26
  %bf.clear10 = and i32 %bf.load9, -67108865
  %bf.set11 = or i32 %bf.clear10, %bf.shl
  store i32 %bf.set11, ptr %m_models_enabled, align 8
  %m_proofs_enabled = getelementptr inbounds %class.goal, ptr %this2, i32 0, i32 10
  %2 = load ptr, ptr %m.addr, align 8
  %call = invoke noundef zeroext i1 @_ZNK11ast_manager14proofs_enabledEv(ptr noundef nonnull align 8 dereferenceable(976) %2)
          to label %invoke.cont12 unwind label %lpad5

invoke.cont12:                                    ; preds = %invoke.cont8
  %conv13 = zext i1 %call to i32
  %bf.load14 = load i32, ptr %m_proofs_enabled, align 8
  %bf.value15 = and i32 %conv13, 1
  %bf.shl16 = shl i32 %bf.value15, 27
  %bf.clear17 = and i32 %bf.load14, -134217729
  %bf.set18 = or i32 %bf.clear17, %bf.shl16
  store i32 %bf.set18, ptr %m_proofs_enabled, align 8
  %m_core_enabled = getelementptr inbounds %class.goal, ptr %this2, i32 0, i32 10
  %3 = load i8, ptr %core_enabled.addr, align 1
  %tobool19 = trunc i8 %3 to i1
  %conv20 = zext i1 %tobool19 to i32
  %bf.load21 = load i32, ptr %m_core_enabled, align 8
  %bf.value22 = and i32 %conv20, 1
  %bf.shl23 = shl i32 %bf.value22, 28
  %bf.clear24 = and i32 %bf.load21, -268435457
  %bf.set25 = or i32 %bf.clear24, %bf.shl23
  store i32 %bf.set25, ptr %m_core_enabled, align 8
  %m_inconsistent = getelementptr inbounds %class.goal, ptr %this2, i32 0, i32 10
  %bf.load26 = load i32, ptr %m_inconsistent, align 8
  %bf.clear27 = and i32 %bf.load26, -536870913
  %bf.set28 = or i32 %bf.clear27, 0
  store i32 %bf.set28, ptr %m_inconsistent, align 8
  %m_precision = getelementptr inbounds %class.goal, ptr %this2, i32 0, i32 10
  %bf.load29 = load i32, ptr %m_precision, align 8
  %bf.clear30 = and i32 %bf.load29, 1073741823
  %bf.set31 = or i32 %bf.clear30, 0
  store i32 %bf.set31, ptr %m_precision, align 8
  ret void

lpad:                                             ; preds = %entry
  %4 = landingpad { ptr, i32 }
          cleanup
  %5 = extractvalue { ptr, i32 } %4, 0
  store ptr %5, ptr %exn.slot, align 8
  %6 = extractvalue { ptr, i32 } %4, 1
  store i32 %6, ptr %ehselector.slot, align 4
  br label %ehcleanup32

lpad3:                                            ; preds = %invoke.cont
  %7 = landingpad { ptr, i32 }
          cleanup
  %8 = extractvalue { ptr, i32 } %7, 0
  store ptr %8, ptr %exn.slot, align 8
  %9 = extractvalue { ptr, i32 } %7, 1
  store i32 %9, ptr %ehselector.slot, align 4
  br label %ehcleanup

lpad5:                                            ; preds = %invoke.cont8, %invoke.cont7, %invoke.cont6, %invoke.cont4
  %10 = landingpad { ptr, i32 }
          cleanup
  %11 = extractvalue { ptr, i32 } %10, 0
  store ptr %11, ptr %exn.slot, align 8
  %12 = extractvalue { ptr, i32 } %10, 1
  store i32 %12, ptr %ehselector.slot, align 4
  call void @_ZNSt7__cxx1112basic_stringIcSt11char_traitsIcESaIcEED1Ev(ptr noundef nonnull align 8 dereferenceable(32) %m_reason_unknown) #3
  call void @_ZN3refI20dependency_converterED2Ev(ptr noundef nonnull align 8 dereferenceable(8) %m_dc) #3
  br label %ehcleanup

ehcleanup:                                        ; preds = %lpad5, %lpad3
  call void @_ZN3refI15proof_converterED2Ev(ptr noundef nonnull align 8 dereferenceable(8) %m_pc) #3
  br label %ehcleanup32

ehcleanup32:                                      ; preds = %ehcleanup, %lpad
  call void @_ZN3refI15model_converterED2Ev(ptr noundef nonnull align 8 dereferenceable(8) %m_mc) #3
  br label %eh.resume

eh.resume:                                        ; preds = %ehcleanup32
  %exn = load ptr, ptr %exn.slot, align 8
  %sel = load i32, ptr %ehselector.slot, align 4
  %lpad.val = insertvalue { ptr, i32 } poison, ptr %exn, 0
  %lpad.val33 = insertvalue { ptr, i32 } %lpad.val, i32 %sel, 1
  resume { ptr, i32 } %lpad.val33
}

; Function Attrs: mustprogress nounwind uwtable
define linkonce_odr hidden void @_ZN3refI15model_converterEC2Ev(ptr noundef nonnull align 8 dereferenceable(8) %this) unnamed_addr #4 comdat align 2 {
entry:
  %this.addr = alloca ptr, align 8
  store ptr %this, ptr %this.addr, align 8
  %this1 = load ptr, ptr %this.addr, align 8
  %m_ptr = getelementptr inbounds %class.ref, ptr %this1, i32 0, i32 0
  store ptr null, ptr %m_ptr, align 8
  ret void
}

; Function Attrs: mustprogress nounwind uwtable
define linkonce_odr hidden void @_ZN3refI15proof_converterEC2Ev(ptr noundef nonnull align 8 dereferenceable(8) %this) unnamed_addr #4 comdat align 2 {
entry:
  %this.addr = alloca ptr, align 8
  store ptr %this, ptr %this.addr, align 8
  %this1 = load ptr, ptr %this.addr, align 8
  %m_ptr = getelementptr inbounds %class.ref.0, ptr %this1, i32 0, i32 0
  store ptr null, ptr %m_ptr, align 8
  ret void
}

declare i32 @__gxx_personality_v0(...)

; Function Attrs: mustprogress nounwind uwtable
define linkonce_odr hidden void @_ZN3refI20dependency_converterEC2Ev(ptr noundef nonnull align 8 dereferenceable(8) %this) unnamed_addr #4 comdat align 2 {
entry:
  %this.addr = alloca ptr, align 8
  store ptr %this, ptr %this.addr, align 8
  %this1 = load ptr, ptr %this.addr, align 8
  %m_ptr = getelementptr inbounds %class.ref.1, ptr %this1, i32 0, i32 0
  store ptr null, ptr %m_ptr, align 8
  ret void
}

; Function Attrs: nounwind
declare void @_ZNSt7__cxx1112basic_stringIcSt11char_traitsIcESaIcEEC1Ev(ptr noundef nonnull align 8 dereferenceable(32)) unnamed_addr #2

; Function Attrs: mustprogress nounwind uwtable
define linkonce_odr hidden void @_ZN14parray_managerIN11ast_manager17expr_array_configEE3refC2Ev(ptr noundef nonnull align 8 dereferenceable(12) %this) unnamed_addr #4 comdat align 2 {
entry:
  %this.addr = alloca ptr, align 8
  store ptr %this, ptr %this.addr, align 8
  %this1 = load ptr, ptr %this.addr, align 8
  %m_ref = getelementptr inbounds %"class.parray_manager<ast_manager::expr_array_config>::ref", ptr %this1, i32 0, i32 0
  store ptr null, ptr %m_ref, align 8
  %m_updt_counter = getelementptr inbounds %"class.parray_manager<ast_manager::expr_array_config>::ref", ptr %this1, i32 0, i32 1
  store i32 0, ptr %m_updt_counter, align 8
  ret void
}

; Function Attrs: mustprogress nounwind uwtable
define linkonce_odr hidden void @_ZN14parray_managerIN11ast_manager28expr_dependency_array_configEE3refC2Ev(ptr noundef nonnull align 8 dereferenceable(12) %this) unnamed_addr #4 comdat align 2 {
entry:
  %this.addr = alloca ptr, align 8
  store ptr %this, ptr %this.addr, align 8
  %this1 = load ptr, ptr %this.addr, align 8
  %m_ref = getelementptr inbounds %"class.parray_manager<ast_manager::expr_dependency_array_config>::ref", ptr %this1, i32 0, i32 0
  store ptr null, ptr %m_ref, align 8
  %m_updt_counter = getelementptr inbounds %"class.parray_manager<ast_manager::expr_dependency_array_config>::ref", ptr %this1, i32 0, i32 1
  store i32 0, ptr %m_updt_counter, align 8
  ret void
}

; Function Attrs: mustprogress nounwind uwtable
define linkonce_odr hidden noundef zeroext i1 @_ZNK11ast_manager14proofs_enabledEv(ptr noundef nonnull align 8 dereferenceable(976) %this) #4 comdat align 2 {
entry:
  %this.addr = alloca ptr, align 8
  store ptr %this, ptr %this.addr, align 8
  %this1 = load ptr, ptr %this.addr, align 8
  %m_proof_mode = getelementptr inbounds %class.ast_manager, ptr %this1, i32 0, i32 7
  %0 = load i32, ptr %m_proof_mode, align 8
  %cmp = icmp ne i32 %0, 0
  ret i1 %cmp
}

; Function Attrs: nounwind
declare void @_ZNSt7__cxx1112basic_stringIcSt11char_traitsIcESaIcEED1Ev(ptr noundef nonnull align 8 dereferenceable(32)) unnamed_addr #2

; Function Attrs: mustprogress nounwind uwtable
define linkonce_odr hidden void @_ZN3refI20dependency_converterED2Ev(ptr noundef nonnull align 8 dereferenceable(8) %this) unnamed_addr #4 comdat align 2 personality ptr @__gxx_personality_v0 {
entry:
  %this.addr = alloca ptr, align 8
  store ptr %this, ptr %this.addr, align 8
  %this1 = load ptr, ptr %this.addr, align 8
  invoke void @_ZN3refI20dependency_converterE7dec_refEv(ptr noundef nonnull align 8 dereferenceable(8) %this1)
          to label %invoke.cont unwind label %terminate.lpad

invoke.cont:                                      ; preds = %entry
  ret void

terminate.lpad:                                   ; preds = %entry
  %0 = landingpad { ptr, i32 }
          catch ptr null
  %1 = extractvalue { ptr, i32 } %0, 0
  call void @__clang_call_terminate(ptr %1) #11
  unreachable
}

; Function Attrs: mustprogress nounwind uwtable
define linkonce_odr hidden void @_ZN3refI15proof_converterED2Ev(ptr noundef nonnull align 8 dereferenceable(8) %this) unnamed_addr #4 comdat align 2 personality ptr @__gxx_personality_v0 {
entry:
  %this.addr = alloca ptr, align 8
  store ptr %this, ptr %this.addr, align 8
  %this1 = load ptr, ptr %this.addr, align 8
  invoke void @_ZN3refI15proof_converterE7dec_refEv(ptr noundef nonnull align 8 dereferenceable(8) %this1)
          to label %invoke.cont unwind label %terminate.lpad

invoke.cont:                                      ; preds = %entry
  ret void

terminate.lpad:                                   ; preds = %entry
  %0 = landingpad { ptr, i32 }
          catch ptr null
  %1 = extractvalue { ptr, i32 } %0, 0
  call void @__clang_call_terminate(ptr %1) #11
  unreachable
}

; Function Attrs: mustprogress nounwind uwtable
define linkonce_odr hidden void @_ZN3refI15model_converterED2Ev(ptr noundef nonnull align 8 dereferenceable(8) %this) unnamed_addr #4 comdat align 2 personality ptr @__gxx_personality_v0 {
entry:
  %this.addr = alloca ptr, align 8
  store ptr %this, ptr %this.addr, align 8
  %this1 = load ptr, ptr %this.addr, align 8
  invoke void @_ZN3refI15model_converterE7dec_refEv(ptr noundef nonnull align 8 dereferenceable(8) %this1)
          to label %invoke.cont unwind label %terminate.lpad

invoke.cont:                                      ; preds = %entry
  ret void

terminate.lpad:                                   ; preds = %entry
  %0 = landingpad { ptr, i32 }
          catch ptr null
  %1 = extractvalue { ptr, i32 } %0, 0
  call void @__clang_call_terminate(ptr %1) #11
  unreachable
}

; Function Attrs: mustprogress uwtable
define hidden void @_ZN4goalC2ER11ast_managerbbb(ptr noundef nonnull align 8 dereferenceable(124) %this, ptr noundef nonnull align 8 dereferenceable(976) %m, i1 noundef zeroext %proofs_enabled, i1 noundef zeroext %models_enabled, i1 noundef zeroext %core_enabled) unnamed_addr #5 align 2 personality ptr @__gxx_personality_v0 {
entry:
  %this.addr = alloca ptr, align 8
  %m.addr = alloca ptr, align 8
  %proofs_enabled.addr = alloca i8, align 1
  %models_enabled.addr = alloca i8, align 1
  %core_enabled.addr = alloca i8, align 1
  %exn.slot = alloca ptr, align 8
  %ehselector.slot = alloca i32, align 4
  store ptr %this, ptr %this.addr, align 8
  store ptr %m, ptr %m.addr, align 8
  %frombool = zext i1 %proofs_enabled to i8
  store i8 %frombool, ptr %proofs_enabled.addr, align 1
  %frombool1 = zext i1 %models_enabled to i8
  store i8 %frombool1, ptr %models_enabled.addr, align 1
  %frombool2 = zext i1 %core_enabled to i8
  store i8 %frombool2, ptr %core_enabled.addr, align 1
  %this3 = load ptr, ptr %this.addr, align 8
  %m_manager = getelementptr inbounds %class.goal, ptr %this3, i32 0, i32 0
  %0 = load ptr, ptr %m.addr, align 8
  store ptr %0, ptr %m_manager, align 8
  %m_mc = getelementptr inbounds %class.goal, ptr %this3, i32 0, i32 1
  call void @_ZN3refI15model_converterEC2Ev(ptr noundef nonnull align 8 dereferenceable(8) %m_mc)
  %m_pc = getelementptr inbounds %class.goal, ptr %this3, i32 0, i32 2
  invoke void @_ZN3refI15proof_converterEC2Ev(ptr noundef nonnull align 8 dereferenceable(8) %m_pc)
          to label %invoke.cont unwind label %lpad

invoke.cont:                                      ; preds = %entry
  %m_dc = getelementptr inbounds %class.goal, ptr %this3, i32 0, i32 3
  invoke void @_ZN3refI20dependency_converterEC2Ev(ptr noundef nonnull align 8 dereferenceable(8) %m_dc)
          to label %invoke.cont5 unwind label %lpad4

invoke.cont5:                                     ; preds = %invoke.cont
  %m_ref_count = getelementptr inbounds %class.goal, ptr %this3, i32 0, i32 4
  store i32 0, ptr %m_ref_count, align 8
  %m_reason_unknown = getelementptr inbounds %class.goal, ptr %this3, i32 0, i32 6
  call void @_ZNSt7__cxx1112basic_stringIcSt11char_traitsIcESaIcEEC1Ev(ptr noundef nonnull align 8 dereferenceable(32) %m_reason_unknown) #3
  %m_forms = getelementptr inbounds %class.goal, ptr %this3, i32 0, i32 7
  invoke void @_ZN14parray_managerIN11ast_manager17expr_array_configEE3refC2Ev(ptr noundef nonnull align 8 dereferenceable(12) %m_forms)
          to label %invoke.cont7 unwind label %lpad6

invoke.cont7:                                     ; preds = %invoke.cont5
  %m_proofs = getelementptr inbounds %class.goal, ptr %this3, i32 0, i32 8
  invoke void @_ZN14parray_managerIN11ast_manager17expr_array_configEE3refC2Ev(ptr noundef nonnull align 8 dereferenceable(12) %m_proofs)
          to label %invoke.cont8 unwind label %lpad6

invoke.cont8:                                     ; preds = %invoke.cont7
  %m_dependencies = getelementptr inbounds %class.goal, ptr %this3, i32 0, i32 9
  invoke void @_ZN14parray_managerIN11ast_manager28expr_dependency_array_configEE3refC2Ev(ptr noundef nonnull align 8 dereferenceable(12) %m_dependencies)
          to label %invoke.cont9 unwind label %lpad6

invoke.cont9:                                     ; preds = %invoke.cont8
  %m_depth = getelementptr inbounds %class.goal, ptr %this3, i32 0, i32 10
  %bf.load = load i32, ptr %m_depth, align 8
  %bf.clear = and i32 %bf.load, -67108864
  %bf.set = or i32 %bf.clear, 0
  store i32 %bf.set, ptr %m_depth, align 8
  %m_models_enabled = getelementptr inbounds %class.goal, ptr %this3, i32 0, i32 10
  %1 = load i8, ptr %models_enabled.addr, align 1
  %tobool = trunc i8 %1 to i1
  %conv = zext i1 %tobool to i32
  %bf.load10 = load i32, ptr %m_models_enabled, align 8
  %bf.value = and i32 %conv, 1
  %bf.shl = shl i32 %bf.value, 26
  %bf.clear11 = and i32 %bf.load10, -67108865
  %bf.set12 = or i32 %bf.clear11, %bf.shl
  store i32 %bf.set12, ptr %m_models_enabled, align 8
  %m_proofs_enabled = getelementptr inbounds %class.goal, ptr %this3, i32 0, i32 10
  %2 = load i8, ptr %proofs_enabled.addr, align 1
  %tobool13 = trunc i8 %2 to i1
  %conv14 = zext i1 %tobool13 to i32
  %bf.load15 = load i32, ptr %m_proofs_enabled, align 8
  %bf.value16 = and i32 %conv14, 1
  %bf.shl17 = shl i32 %bf.value16, 27
  %bf.clear18 = and i32 %bf.load15, -134217729
  %bf.set19 = or i32 %bf.clear18, %bf.shl17
  store i32 %bf.set19, ptr %m_proofs_enabled, align 8
  %m_core_enabled = getelementptr inbounds %class.goal, ptr %this3, i32 0, i32 10
  %3 = load i8, ptr %core_enabled.addr, align 1
  %tobool20 = trunc i8 %3 to i1
  %conv21 = zext i1 %tobool20 to i32
  %bf.load22 = load i32, ptr %m_core_enabled, align 8
  %bf.value23 = and i32 %conv21, 1
  %bf.shl24 = shl i32 %bf.value23, 28
  %bf.clear25 = and i32 %bf.load22, -268435457
  %bf.set26 = or i32 %bf.clear25, %bf.shl24
  store i32 %bf.set26, ptr %m_core_enabled, align 8
  %m_inconsistent = getelementptr inbounds %class.goal, ptr %this3, i32 0, i32 10
  %bf.load27 = load i32, ptr %m_inconsistent, align 8
  %bf.clear28 = and i32 %bf.load27, -536870913
  %bf.set29 = or i32 %bf.clear28, 0
  store i32 %bf.set29, ptr %m_inconsistent, align 8
  %m_precision = getelementptr inbounds %class.goal, ptr %this3, i32 0, i32 10
  %bf.load30 = load i32, ptr %m_precision, align 8
  %bf.clear31 = and i32 %bf.load30, 1073741823
  %bf.set32 = or i32 %bf.clear31, 0
  store i32 %bf.set32, ptr %m_precision, align 8
  ret void

lpad:                                             ; preds = %entry
  %4 = landingpad { ptr, i32 }
          cleanup
  %5 = extractvalue { ptr, i32 } %4, 0
  store ptr %5, ptr %exn.slot, align 8
  %6 = extractvalue { ptr, i32 } %4, 1
  store i32 %6, ptr %ehselector.slot, align 4
  br label %ehcleanup33

lpad4:                                            ; preds = %invoke.cont
  %7 = landingpad { ptr, i32 }
          cleanup
  %8 = extractvalue { ptr, i32 } %7, 0
  store ptr %8, ptr %exn.slot, align 8
  %9 = extractvalue { ptr, i32 } %7, 1
  store i32 %9, ptr %ehselector.slot, align 4
  br label %ehcleanup

lpad6:                                            ; preds = %invoke.cont8, %invoke.cont7, %invoke.cont5
  %10 = landingpad { ptr, i32 }
          cleanup
  %11 = extractvalue { ptr, i32 } %10, 0
  store ptr %11, ptr %exn.slot, align 8
  %12 = extractvalue { ptr, i32 } %10, 1
  store i32 %12, ptr %ehselector.slot, align 4
  call void @_ZNSt7__cxx1112basic_stringIcSt11char_traitsIcESaIcEED1Ev(ptr noundef nonnull align 8 dereferenceable(32) %m_reason_unknown) #3
  call void @_ZN3refI20dependency_converterED2Ev(ptr noundef nonnull align 8 dereferenceable(8) %m_dc) #3
  br label %ehcleanup

ehcleanup:                                        ; preds = %lpad6, %lpad4
  call void @_ZN3refI15proof_converterED2Ev(ptr noundef nonnull align 8 dereferenceable(8) %m_pc) #3
  br label %ehcleanup33

ehcleanup33:                                      ; preds = %ehcleanup, %lpad
  call void @_ZN3refI15model_converterED2Ev(ptr noundef nonnull align 8 dereferenceable(8) %m_mc) #3
  br label %eh.resume

eh.resume:                                        ; preds = %ehcleanup33
  %exn = load ptr, ptr %exn.slot, align 8
  %sel = load i32, ptr %ehselector.slot, align 4
  %lpad.val = insertvalue { ptr, i32 } poison, ptr %exn, 0
  %lpad.val34 = insertvalue { ptr, i32 } %lpad.val, i32 %sel, 1
  resume { ptr, i32 } %lpad.val34
}

; Function Attrs: mustprogress uwtable
define hidden void @_ZN4goalC2ERKS_(ptr noundef nonnull align 8 dereferenceable(124) %this, ptr noundef nonnull align 8 dereferenceable(124) %src) unnamed_addr #5 align 2 personality ptr @__gxx_personality_v0 {
entry:
  %this.addr = alloca ptr, align 8
  %src.addr = alloca ptr, align 8
  %exn.slot = alloca ptr, align 8
  %ehselector.slot = alloca i32, align 4
  store ptr %this, ptr %this.addr, align 8
  store ptr %src, ptr %src.addr, align 8
  %this1 = load ptr, ptr %this.addr, align 8
  %m_manager = getelementptr inbounds %class.goal, ptr %this1, i32 0, i32 0
  %0 = load ptr, ptr %src.addr, align 8
  %call = call noundef nonnull align 8 dereferenceable(976) ptr @_ZNK4goal1mEv(ptr noundef nonnull align 8 dereferenceable(124) %0)
  store ptr %call, ptr %m_manager, align 8
  %m_mc = getelementptr inbounds %class.goal, ptr %this1, i32 0, i32 1
  call void @_ZN3refI15model_converterEC2Ev(ptr noundef nonnull align 8 dereferenceable(8) %m_mc)
  %m_pc = getelementptr inbounds %class.goal, ptr %this1, i32 0, i32 2
  invoke void @_ZN3refI15proof_converterEC2Ev(ptr noundef nonnull align 8 dereferenceable(8) %m_pc)
          to label %invoke.cont unwind label %lpad

invoke.cont:                                      ; preds = %entry
  %m_dc = getelementptr inbounds %class.goal, ptr %this1, i32 0, i32 3
  invoke void @_ZN3refI20dependency_converterEC2Ev(ptr noundef nonnull align 8 dereferenceable(8) %m_dc)
          to label %invoke.cont3 unwind label %lpad2

invoke.cont3:                                     ; preds = %invoke.cont
  %m_ref_count = getelementptr inbounds %class.goal, ptr %this1, i32 0, i32 4
  store i32 0, ptr %m_ref_count, align 8
  %m_reason_unknown = getelementptr inbounds %class.goal, ptr %this1, i32 0, i32 6
  call void @_ZNSt7__cxx1112basic_stringIcSt11char_traitsIcESaIcEEC1Ev(ptr noundef nonnull align 8 dereferenceable(32) %m_reason_unknown) #3
  %m_forms = getelementptr inbounds %class.goal, ptr %this1, i32 0, i32 7
  invoke void @_ZN14parray_managerIN11ast_manager17expr_array_configEE3refC2Ev(ptr noundef nonnull align 8 dereferenceable(12) %m_forms)
          to label %invoke.cont5 unwind label %lpad4

invoke.cont5:                                     ; preds = %invoke.cont3
  %m_proofs = getelementptr inbounds %class.goal, ptr %this1, i32 0, i32 8
  invoke void @_ZN14parray_managerIN11ast_manager17expr_array_configEE3refC2Ev(ptr noundef nonnull align 8 dereferenceable(12) %m_proofs)
          to label %invoke.cont6 unwind label %lpad4

invoke.cont6:                                     ; preds = %invoke.cont5
  %m_dependencies = getelementptr inbounds %class.goal, ptr %this1, i32 0, i32 9
  invoke void @_ZN14parray_managerIN11ast_manager28expr_dependency_array_configEE3refC2Ev(ptr noundef nonnull align 8 dereferenceable(12) %m_dependencies)
          to label %invoke.cont7 unwind label %lpad4

invoke.cont7:                                     ; preds = %invoke.cont6
  %m_depth = getelementptr inbounds %class.goal, ptr %this1, i32 0, i32 10
  %bf.load = load i32, ptr %m_depth, align 8
  %bf.clear = and i32 %bf.load, -67108864
  %bf.set = or i32 %bf.clear, 0
  store i32 %bf.set, ptr %m_depth, align 8
  %m_models_enabled = getelementptr inbounds %class.goal, ptr %this1, i32 0, i32 10
  %1 = load ptr, ptr %src.addr, align 8
  %call9 = invoke noundef zeroext i1 @_ZNK4goal14models_enabledEv(ptr noundef nonnull align 8 dereferenceable(124) %1)
          to label %invoke.cont8 unwind label %lpad4

invoke.cont8:                                     ; preds = %invoke.cont7
  %conv = zext i1 %call9 to i32
  %bf.load10 = load i32, ptr %m_models_enabled, align 8
  %bf.value = and i32 %conv, 1
  %bf.shl = shl i32 %bf.value, 26
  %bf.clear11 = and i32 %bf.load10, -67108865
  %bf.set12 = or i32 %bf.clear11, %bf.shl
  store i32 %bf.set12, ptr %m_models_enabled, align 8
  %m_proofs_enabled = getelementptr inbounds %class.goal, ptr %this1, i32 0, i32 10
  %2 = load ptr, ptr %src.addr, align 8
  %call14 = invoke noundef zeroext i1 @_ZNK4goal14proofs_enabledEv(ptr noundef nonnull align 8 dereferenceable(124) %2)
          to label %invoke.cont13 unwind label %lpad4

invoke.cont13:                                    ; preds = %invoke.cont8
  %conv15 = zext i1 %call14 to i32
  %bf.load16 = load i32, ptr %m_proofs_enabled, align 8
  %bf.value17 = and i32 %conv15, 1
  %bf.shl18 = shl i32 %bf.value17, 27
  %bf.clear19 = and i32 %bf.load16, -134217729
  %bf.set20 = or i32 %bf.clear19, %bf.shl18
  store i32 %bf.set20, ptr %m_proofs_enabled, align 8
  %m_core_enabled = getelementptr inbounds %class.goal, ptr %this1, i32 0, i32 10
  %3 = load ptr, ptr %src.addr, align 8
  %call22 = invoke noundef zeroext i1 @_ZNK4goal18unsat_core_enabledEv(ptr noundef nonnull align 8 dereferenceable(124) %3)
          to label %invoke.cont21 unwind label %lpad4

invoke.cont21:                                    ; preds = %invoke.cont13
  %conv23 = zext i1 %call22 to i32
  %bf.load24 = load i32, ptr %m_core_enabled, align 8
  %bf.value25 = and i32 %conv23, 1
  %bf.shl26 = shl i32 %bf.value25, 28
  %bf.clear27 = and i32 %bf.load24, -268435457
  %bf.set28 = or i32 %bf.clear27, %bf.shl26
  store i32 %bf.set28, ptr %m_core_enabled, align 8
  %m_inconsistent = getelementptr inbounds %class.goal, ptr %this1, i32 0, i32 10
  %bf.load29 = load i32, ptr %m_inconsistent, align 8
  %bf.clear30 = and i32 %bf.load29, -536870913
  %bf.set31 = or i32 %bf.clear30, 0
  store i32 %bf.set31, ptr %m_inconsistent, align 8
  %m_precision = getelementptr inbounds %class.goal, ptr %this1, i32 0, i32 10
  %bf.load32 = load i32, ptr %m_precision, align 8
  %bf.clear33 = and i32 %bf.load32, 1073741823
  %bf.set34 = or i32 %bf.clear33, 0
  store i32 %bf.set34, ptr %m_precision, align 8
  %4 = load ptr, ptr %src.addr, align 8
  invoke void @_ZN4goal9copy_fromERKS_(ptr noundef nonnull align 8 dereferenceable(124) %this1, ptr noundef nonnull align 8 dereferenceable(124) %4)
          to label %invoke.cont35 unwind label %lpad4

invoke.cont35:                                    ; preds = %invoke.cont21
  ret void

lpad:                                             ; preds = %entry
  %5 = landingpad { ptr, i32 }
          cleanup
  %6 = extractvalue { ptr, i32 } %5, 0
  store ptr %6, ptr %exn.slot, align 8
  %7 = extractvalue { ptr, i32 } %5, 1
  store i32 %7, ptr %ehselector.slot, align 4
  br label %ehcleanup36

lpad2:                                            ; preds = %invoke.cont
  %8 = landingpad { ptr, i32 }
          cleanup
  %9 = extractvalue { ptr, i32 } %8, 0
  store ptr %9, ptr %exn.slot, align 8
  %10 = extractvalue { ptr, i32 } %8, 1
  store i32 %10, ptr %ehselector.slot, align 4
  br label %ehcleanup

lpad4:                                            ; preds = %invoke.cont21, %invoke.cont13, %invoke.cont8, %invoke.cont7, %invoke.cont6, %invoke.cont5, %invoke.cont3
  %11 = landingpad { ptr, i32 }
          cleanup
  %12 = extractvalue { ptr, i32 } %11, 0
  store ptr %12, ptr %exn.slot, align 8
  %13 = extractvalue { ptr, i32 } %11, 1
  store i32 %13, ptr %ehselector.slot, align 4
  call void @_ZNSt7__cxx1112basic_stringIcSt11char_traitsIcESaIcEED1Ev(ptr noundef nonnull align 8 dereferenceable(32) %m_reason_unknown) #3
  call void @_ZN3refI20dependency_converterED2Ev(ptr noundef nonnull align 8 dereferenceable(8) %m_dc) #3
  br label %ehcleanup

ehcleanup:                                        ; preds = %lpad4, %lpad2
  call void @_ZN3refI15proof_converterED2Ev(ptr noundef nonnull align 8 dereferenceable(8) %m_pc) #3
  br label %ehcleanup36

ehcleanup36:                                      ; preds = %ehcleanup, %lpad
  call void @_ZN3refI15model_converterED2Ev(ptr noundef nonnull align 8 dereferenceable(8) %m_mc) #3
  br label %eh.resume

eh.resume:                                        ; preds = %ehcleanup36
  %exn = load ptr, ptr %exn.slot, align 8
  %sel = load i32, ptr %ehselector.slot, align 4
  %lpad.val = insertvalue { ptr, i32 } poison, ptr %exn, 0
  %lpad.val37 = insertvalue { ptr, i32 } %lpad.val, i32 %sel, 1
  resume { ptr, i32 } %lpad.val37
}

; Function Attrs: mustprogress nounwind uwtable
define linkonce_odr hidden noundef nonnull align 8 dereferenceable(976) ptr @_ZNK4goal1mEv(ptr noundef nonnull align 8 dereferenceable(124) %this) #4 comdat align 2 {
entry:
  %this.addr = alloca ptr, align 8
  store ptr %this, ptr %this.addr, align 8
  %this1 = load ptr, ptr %this.addr, align 8
  %m_manager = getelementptr inbounds %class.goal, ptr %this1, i32 0, i32 0
  %0 = load ptr, ptr %m_manager, align 8
  ret ptr %0
}

; Function Attrs: mustprogress nounwind uwtable
define linkonce_odr hidden noundef zeroext i1 @_ZNK4goal14models_enabledEv(ptr noundef nonnull align 8 dereferenceable(124) %this) #4 comdat align 2 {
entry:
  %this.addr = alloca ptr, align 8
  store ptr %this, ptr %this.addr, align 8
  %this1 = load ptr, ptr %this.addr, align 8
  %m_models_enabled = getelementptr inbounds %class.goal, ptr %this1, i32 0, i32 10
  %bf.load = load i32, ptr %m_models_enabled, align 8
  %bf.lshr = lshr i32 %bf.load, 26
  %bf.clear = and i32 %bf.lshr, 1
  %tobool = icmp ne i32 %bf.clear, 0
  ret i1 %tobool
}

; Function Attrs: mustprogress nounwind uwtable
define linkonce_odr hidden noundef zeroext i1 @_ZNK4goal14proofs_enabledEv(ptr noundef nonnull align 8 dereferenceable(124) %this) #4 comdat align 2 {
entry:
  %this.addr = alloca ptr, align 8
  store ptr %this, ptr %this.addr, align 8
  %this1 = load ptr, ptr %this.addr, align 8
  %m_proofs_enabled = getelementptr inbounds %class.goal, ptr %this1, i32 0, i32 10
  %bf.load = load i32, ptr %m_proofs_enabled, align 8
  %bf.lshr = lshr i32 %bf.load, 27
  %bf.clear = and i32 %bf.lshr, 1
  %tobool = icmp ne i32 %bf.clear, 0
  ret i1 %tobool
}

; Function Attrs: mustprogress nounwind uwtable
define linkonce_odr hidden noundef zeroext i1 @_ZNK4goal18unsat_core_enabledEv(ptr noundef nonnull align 8 dereferenceable(124) %this) #4 comdat align 2 {
entry:
  %this.addr = alloca ptr, align 8
  store ptr %this, ptr %this.addr, align 8
  %this1 = load ptr, ptr %this.addr, align 8
  %m_core_enabled = getelementptr inbounds %class.goal, ptr %this1, i32 0, i32 10
  %bf.load = load i32, ptr %m_core_enabled, align 8
  %bf.lshr = lshr i32 %bf.load, 28
  %bf.clear = and i32 %bf.lshr, 1
  %tobool = icmp ne i32 %bf.clear, 0
  ret i1 %tobool
}

; Function Attrs: mustprogress uwtable
define linkonce_odr hidden void @_ZN4goal9copy_fromERKS_(ptr noundef nonnull align 8 dereferenceable(124) %this, ptr noundef nonnull align 8 dereferenceable(124) %src) #5 comdat align 2 {
entry:
  %this.addr = alloca ptr, align 8
  %src.addr = alloca ptr, align 8
  store ptr %this, ptr %this.addr, align 8
  store ptr %src, ptr %src.addr, align 8
  %this1 = load ptr, ptr %this.addr, align 8
  %0 = load ptr, ptr %src.addr, align 8
  call void @_ZNK4goal7copy_toERS_(ptr noundef nonnull align 8 dereferenceable(124) %0, ptr noundef nonnull align 8 dereferenceable(124) %this1)
  ret void
}

; Function Attrs: mustprogress uwtable
define hidden void @_ZN4goalC2ERKS_b(ptr noundef nonnull align 8 dereferenceable(124) %this, ptr noundef nonnull align 8 dereferenceable(124) %src, i1 noundef zeroext %0) unnamed_addr #5 align 2 personality ptr @__gxx_personality_v0 {
entry:
  %this.addr = alloca ptr, align 8
  %src.addr = alloca ptr, align 8
  %.addr = alloca i8, align 1
  %exn.slot = alloca ptr, align 8
  %ehselector.slot = alloca i32, align 4
  store ptr %this, ptr %this.addr, align 8
  store ptr %src, ptr %src.addr, align 8
  %frombool = zext i1 %0 to i8
  store i8 %frombool, ptr %.addr, align 1
  %this1 = load ptr, ptr %this.addr, align 8
  %m_manager = getelementptr inbounds %class.goal, ptr %this1, i32 0, i32 0
  %1 = load ptr, ptr %src.addr, align 8
  %call = call noundef nonnull align 8 dereferenceable(976) ptr @_ZNK4goal1mEv(ptr noundef nonnull align 8 dereferenceable(124) %1)
  store ptr %call, ptr %m_manager, align 8
  %m_mc = getelementptr inbounds %class.goal, ptr %this1, i32 0, i32 1
  call void @_ZN3refI15model_converterEC2Ev(ptr noundef nonnull align 8 dereferenceable(8) %m_mc)
  %m_pc = getelementptr inbounds %class.goal, ptr %this1, i32 0, i32 2
  invoke void @_ZN3refI15proof_converterEC2Ev(ptr noundef nonnull align 8 dereferenceable(8) %m_pc)
          to label %invoke.cont unwind label %lpad

invoke.cont:                                      ; preds = %entry
  %m_dc = getelementptr inbounds %class.goal, ptr %this1, i32 0, i32 3
  invoke void @_ZN3refI20dependency_converterEC2Ev(ptr noundef nonnull align 8 dereferenceable(8) %m_dc)
          to label %invoke.cont3 unwind label %lpad2

invoke.cont3:                                     ; preds = %invoke.cont
  %m_ref_count = getelementptr inbounds %class.goal, ptr %this1, i32 0, i32 4
  store i32 0, ptr %m_ref_count, align 8
  %m_reason_unknown = getelementptr inbounds %class.goal, ptr %this1, i32 0, i32 6
  call void @_ZNSt7__cxx1112basic_stringIcSt11char_traitsIcESaIcEEC1Ev(ptr noundef nonnull align 8 dereferenceable(32) %m_reason_unknown) #3
  %m_forms = getelementptr inbounds %class.goal, ptr %this1, i32 0, i32 7
  invoke void @_ZN14parray_managerIN11ast_manager17expr_array_configEE3refC2Ev(ptr noundef nonnull align 8 dereferenceable(12) %m_forms)
          to label %invoke.cont5 unwind label %lpad4

invoke.cont5:                                     ; preds = %invoke.cont3
  %m_proofs = getelementptr inbounds %class.goal, ptr %this1, i32 0, i32 8
  invoke void @_ZN14parray_managerIN11ast_manager17expr_array_configEE3refC2Ev(ptr noundef nonnull align 8 dereferenceable(12) %m_proofs)
          to label %invoke.cont6 unwind label %lpad4

invoke.cont6:                                     ; preds = %invoke.cont5
  %m_dependencies = getelementptr inbounds %class.goal, ptr %this1, i32 0, i32 9
  invoke void @_ZN14parray_managerIN11ast_manager28expr_dependency_array_configEE3refC2Ev(ptr noundef nonnull align 8 dereferenceable(12) %m_dependencies)
          to label %invoke.cont7 unwind label %lpad4

invoke.cont7:                                     ; preds = %invoke.cont6
  %m_depth = getelementptr inbounds %class.goal, ptr %this1, i32 0, i32 10
  %2 = load ptr, ptr %src.addr, align 8
  %m_depth8 = getelementptr inbounds %class.goal, ptr %2, i32 0, i32 10
  %bf.load = load i32, ptr %m_depth8, align 8
  %bf.clear = and i32 %bf.load, 67108863
  %bf.load9 = load i32, ptr %m_depth, align 8
  %bf.value = and i32 %bf.clear, 67108863
  %bf.clear10 = and i32 %bf.load9, -67108864
  %bf.set = or i32 %bf.clear10, %bf.value
  store i32 %bf.set, ptr %m_depth, align 8
  %m_models_enabled = getelementptr inbounds %class.goal, ptr %this1, i32 0, i32 10
  %3 = load ptr, ptr %src.addr, align 8
  %call12 = invoke noundef zeroext i1 @_ZNK4goal14models_enabledEv(ptr noundef nonnull align 8 dereferenceable(124) %3)
          to label %invoke.cont11 unwind label %lpad4

invoke.cont11:                                    ; preds = %invoke.cont7
  %conv = zext i1 %call12 to i32
  %bf.load13 = load i32, ptr %m_models_enabled, align 8
  %bf.value14 = and i32 %conv, 1
  %bf.shl = shl i32 %bf.value14, 26
  %bf.clear15 = and i32 %bf.load13, -67108865
  %bf.set16 = or i32 %bf.clear15, %bf.shl
  store i32 %bf.set16, ptr %m_models_enabled, align 8
  %m_proofs_enabled = getelementptr inbounds %class.goal, ptr %this1, i32 0, i32 10
  %4 = load ptr, ptr %src.addr, align 8
  %call18 = invoke noundef zeroext i1 @_ZNK4goal14proofs_enabledEv(ptr noundef nonnull align 8 dereferenceable(124) %4)
          to label %invoke.cont17 unwind label %lpad4

invoke.cont17:                                    ; preds = %invoke.cont11
  %conv19 = zext i1 %call18 to i32
  %bf.load20 = load i32, ptr %m_proofs_enabled, align 8
  %bf.value21 = and i32 %conv19, 1
  %bf.shl22 = shl i32 %bf.value21, 27
  %bf.clear23 = and i32 %bf.load20, -134217729
  %bf.set24 = or i32 %bf.clear23, %bf.shl22
  store i32 %bf.set24, ptr %m_proofs_enabled, align 8
  %m_core_enabled = getelementptr inbounds %class.goal, ptr %this1, i32 0, i32 10
  %5 = load ptr, ptr %src.addr, align 8
  %call26 = invoke noundef zeroext i1 @_ZNK4goal18unsat_core_enabledEv(ptr noundef nonnull align 8 dereferenceable(124) %5)
          to label %invoke.cont25 unwind label %lpad4

invoke.cont25:                                    ; preds = %invoke.cont17
  %conv27 = zext i1 %call26 to i32
  %bf.load28 = load i32, ptr %m_core_enabled, align 8
  %bf.value29 = and i32 %conv27, 1
  %bf.shl30 = shl i32 %bf.value29, 28
  %bf.clear31 = and i32 %bf.load28, -268435457
  %bf.set32 = or i32 %bf.clear31, %bf.shl30
  store i32 %bf.set32, ptr %m_core_enabled, align 8
  %m_inconsistent = getelementptr inbounds %class.goal, ptr %this1, i32 0, i32 10
  %bf.load33 = load i32, ptr %m_inconsistent, align 8
  %bf.clear34 = and i32 %bf.load33, -536870913
  %bf.set35 = or i32 %bf.clear34, 0
  store i32 %bf.set35, ptr %m_inconsistent, align 8
  %m_precision = getelementptr inbounds %class.goal, ptr %this1, i32 0, i32 10
  %6 = load ptr, ptr %src.addr, align 8
  %m_precision36 = getelementptr inbounds %class.goal, ptr %6, i32 0, i32 10
  %bf.load37 = load i32, ptr %m_precision36, align 8
  %bf.lshr = lshr i32 %bf.load37, 30
  %bf.load38 = load i32, ptr %m_precision, align 8
  %bf.value39 = and i32 %bf.lshr, 3
  %bf.shl40 = shl i32 %bf.value39, 30
  %bf.clear41 = and i32 %bf.load38, 1073741823
  %bf.set42 = or i32 %bf.clear41, %bf.shl40
  store i32 %bf.set42, ptr %m_precision, align 8
  %7 = load ptr, ptr %src.addr, align 8
  %m_mc43 = getelementptr inbounds %class.goal, ptr %7, i32 0, i32 1
  %call45 = invoke noundef ptr @_ZNK3refI15model_converterE3getEv(ptr noundef nonnull align 8 dereferenceable(8) %m_mc43)
          to label %invoke.cont44 unwind label %lpad4

invoke.cont44:                                    ; preds = %invoke.cont25
  %m_mc46 = getelementptr inbounds %class.goal, ptr %this1, i32 0, i32 1
  %call48 = invoke noundef nonnull align 8 dereferenceable(8) ptr @_ZN3refI15model_converterEaSEPS0_(ptr noundef nonnull align 8 dereferenceable(8) %m_mc46, ptr noundef %call45)
          to label %invoke.cont47 unwind label %lpad4

invoke.cont47:                                    ; preds = %invoke.cont44
  %8 = load ptr, ptr %src.addr, align 8
  %m_pc49 = getelementptr inbounds %class.goal, ptr %8, i32 0, i32 2
  %call51 = invoke noundef ptr @_ZNK3refI15proof_converterE3getEv(ptr noundef nonnull align 8 dereferenceable(8) %m_pc49)
          to label %invoke.cont50 unwind label %lpad4

invoke.cont50:                                    ; preds = %invoke.cont47
  %m_pc52 = getelementptr inbounds %class.goal, ptr %this1, i32 0, i32 2
  %call54 = invoke noundef nonnull align 8 dereferenceable(8) ptr @_ZN3refI15proof_converterEaSEPS0_(ptr noundef nonnull align 8 dereferenceable(8) %m_pc52, ptr noundef %call51)
          to label %invoke.cont53 unwind label %lpad4

invoke.cont53:                                    ; preds = %invoke.cont50
  %9 = load ptr, ptr %src.addr, align 8
  %m_dc55 = getelementptr inbounds %class.goal, ptr %9, i32 0, i32 3
  %call57 = invoke noundef ptr @_ZNK3refI20dependency_converterE3getEv(ptr noundef nonnull align 8 dereferenceable(8) %m_dc55)
          to label %invoke.cont56 unwind label %lpad4

invoke.cont56:                                    ; preds = %invoke.cont53
  %m_dc58 = getelementptr inbounds %class.goal, ptr %this1, i32 0, i32 3
  %call60 = invoke noundef nonnull align 8 dereferenceable(8) ptr @_ZN3refI20dependency_converterEaSEPS0_(ptr noundef nonnull align 8 dereferenceable(8) %m_dc58, ptr noundef %call57)
          to label %invoke.cont59 unwind label %lpad4

invoke.cont59:                                    ; preds = %invoke.cont56
  ret void

lpad:                                             ; preds = %entry
  %10 = landingpad { ptr, i32 }
          cleanup
  %11 = extractvalue { ptr, i32 } %10, 0
  store ptr %11, ptr %exn.slot, align 8
  %12 = extractvalue { ptr, i32 } %10, 1
  store i32 %12, ptr %ehselector.slot, align 4
  br label %ehcleanup61

lpad2:                                            ; preds = %invoke.cont
  %13 = landingpad { ptr, i32 }
          cleanup
  %14 = extractvalue { ptr, i32 } %13, 0
  store ptr %14, ptr %exn.slot, align 8
  %15 = extractvalue { ptr, i32 } %13, 1
  store i32 %15, ptr %ehselector.slot, align 4
  br label %ehcleanup

lpad4:                                            ; preds = %invoke.cont56, %invoke.cont53, %invoke.cont50, %invoke.cont47, %invoke.cont44, %invoke.cont25, %invoke.cont17, %invoke.cont11, %invoke.cont7, %invoke.cont6, %invoke.cont5, %invoke.cont3
  %16 = landingpad { ptr, i32 }
          cleanup
  %17 = extractvalue { ptr, i32 } %16, 0
  store ptr %17, ptr %exn.slot, align 8
  %18 = extractvalue { ptr, i32 } %16, 1
  store i32 %18, ptr %ehselector.slot, align 4
  call void @_ZNSt7__cxx1112basic_stringIcSt11char_traitsIcESaIcEED1Ev(ptr noundef nonnull align 8 dereferenceable(32) %m_reason_unknown) #3
  call void @_ZN3refI20dependency_converterED2Ev(ptr noundef nonnull align 8 dereferenceable(8) %m_dc) #3
  br label %ehcleanup

ehcleanup:                                        ; preds = %lpad4, %lpad2
  call void @_ZN3refI15proof_converterED2Ev(ptr noundef nonnull align 8 dereferenceable(8) %m_pc) #3
  br label %ehcleanup61

ehcleanup61:                                      ; preds = %ehcleanup, %lpad
  call void @_ZN3refI15model_converterED2Ev(ptr noundef nonnull align 8 dereferenceable(8) %m_mc) #3
  br label %eh.resume

eh.resume:                                        ; preds = %ehcleanup61
  %exn = load ptr, ptr %exn.slot, align 8
  %sel = load i32, ptr %ehselector.slot, align 4
  %lpad.val = insertvalue { ptr, i32 } poison, ptr %exn, 0
  %lpad.val62 = insertvalue { ptr, i32 } %lpad.val, i32 %sel, 1
  resume { ptr, i32 } %lpad.val62
}

; Function Attrs: mustprogress nounwind uwtable
define linkonce_odr hidden noundef ptr @_ZNK3refI15model_converterE3getEv(ptr noundef nonnull align 8 dereferenceable(8) %this) #4 comdat align 2 {
entry:
  %this.addr = alloca ptr, align 8
  store ptr %this, ptr %this.addr, align 8
  %this1 = load ptr, ptr %this.addr, align 8
  %m_ptr = getelementptr inbounds %class.ref, ptr %this1, i32 0, i32 0
  %0 = load ptr, ptr %m_ptr, align 8
  ret ptr %0
}

; Function Attrs: mustprogress uwtable
define linkonce_odr hidden noundef nonnull align 8 dereferenceable(8) ptr @_ZN3refI15model_converterEaSEPS0_(ptr noundef nonnull align 8 dereferenceable(8) %this, ptr noundef %ptr) #5 comdat align 2 {
entry:
  %this.addr = alloca ptr, align 8
  %ptr.addr = alloca ptr, align 8
  store ptr %this, ptr %this.addr, align 8
  store ptr %ptr, ptr %ptr.addr, align 8
  %this1 = load ptr, ptr %this.addr, align 8
  %0 = load ptr, ptr %ptr.addr, align 8
  %tobool = icmp ne ptr %0, null
  br i1 %tobool, label %if.then, label %if.end

if.then:                                          ; preds = %entry
  %1 = load ptr, ptr %ptr.addr, align 8
  call void @_ZN9converter7inc_refEv(ptr noundef nonnull align 8 dereferenceable(12) %1)
  br label %if.end

if.end:                                           ; preds = %if.then, %entry
  call void @_ZN3refI15model_converterE7dec_refEv(ptr noundef nonnull align 8 dereferenceable(8) %this1)
  %2 = load ptr, ptr %ptr.addr, align 8
  %m_ptr = getelementptr inbounds %class.ref, ptr %this1, i32 0, i32 0
  store ptr %2, ptr %m_ptr, align 8
  ret ptr %this1
}

; Function Attrs: mustprogress nounwind uwtable
define linkonce_odr hidden noundef ptr @_ZNK3refI15proof_converterE3getEv(ptr noundef nonnull align 8 dereferenceable(8) %this) #4 comdat align 2 {
entry:
  %this.addr = alloca ptr, align 8
  store ptr %this, ptr %this.addr, align 8
  %this1 = load ptr, ptr %this.addr, align 8
  %m_ptr = getelementptr inbounds %class.ref.0, ptr %this1, i32 0, i32 0
  %0 = load ptr, ptr %m_ptr, align 8
  ret ptr %0
}

; Function Attrs: mustprogress uwtable
define linkonce_odr hidden noundef nonnull align 8 dereferenceable(8) ptr @_ZN3refI15proof_converterEaSEPS0_(ptr noundef nonnull align 8 dereferenceable(8) %this, ptr noundef %ptr) #5 comdat align 2 {
entry:
  %this.addr = alloca ptr, align 8
  %ptr.addr = alloca ptr, align 8
  store ptr %this, ptr %this.addr, align 8
  store ptr %ptr, ptr %ptr.addr, align 8
  %this1 = load ptr, ptr %this.addr, align 8
  %0 = load ptr, ptr %ptr.addr, align 8
  %tobool = icmp ne ptr %0, null
  br i1 %tobool, label %if.then, label %if.end

if.then:                                          ; preds = %entry
  %1 = load ptr, ptr %ptr.addr, align 8
  call void @_ZN9converter7inc_refEv(ptr noundef nonnull align 8 dereferenceable(12) %1)
  br label %if.end

if.end:                                           ; preds = %if.then, %entry
  call void @_ZN3refI15proof_converterE7dec_refEv(ptr noundef nonnull align 8 dereferenceable(8) %this1)
  %2 = load ptr, ptr %ptr.addr, align 8
  %m_ptr = getelementptr inbounds %class.ref.0, ptr %this1, i32 0, i32 0
  store ptr %2, ptr %m_ptr, align 8
  ret ptr %this1
}

; Function Attrs: mustprogress nounwind uwtable
define linkonce_odr hidden noundef ptr @_ZNK3refI20dependency_converterE3getEv(ptr noundef nonnull align 8 dereferenceable(8) %this) #4 comdat align 2 {
entry:
  %this.addr = alloca ptr, align 8
  store ptr %this, ptr %this.addr, align 8
  %this1 = load ptr, ptr %this.addr, align 8
  %m_ptr = getelementptr inbounds %class.ref.1, ptr %this1, i32 0, i32 0
  %0 = load ptr, ptr %m_ptr, align 8
  ret ptr %0
}

; Function Attrs: mustprogress uwtable
define linkonce_odr hidden noundef nonnull align 8 dereferenceable(8) ptr @_ZN3refI20dependency_converterEaSEPS0_(ptr noundef nonnull align 8 dereferenceable(8) %this, ptr noundef %ptr) #5 comdat align 2 {
entry:
  %this.addr = alloca ptr, align 8
  %ptr.addr = alloca ptr, align 8
  store ptr %this, ptr %this.addr, align 8
  store ptr %ptr, ptr %ptr.addr, align 8
  %this1 = load ptr, ptr %this.addr, align 8
  %0 = load ptr, ptr %ptr.addr, align 8
  %tobool = icmp ne ptr %0, null
  br i1 %tobool, label %if.then, label %if.end

if.then:                                          ; preds = %entry
  %1 = load ptr, ptr %ptr.addr, align 8
  call void @_ZN9converter7inc_refEv(ptr noundef nonnull align 8 dereferenceable(12) %1)
  br label %if.end

if.end:                                           ; preds = %if.then, %entry
  call void @_ZN3refI20dependency_converterE7dec_refEv(ptr noundef nonnull align 8 dereferenceable(8) %this1)
  %2 = load ptr, ptr %ptr.addr, align 8
  %m_ptr = getelementptr inbounds %class.ref.1, ptr %this1, i32 0, i32 0
  store ptr %2, ptr %m_ptr, align 8
  ret ptr %this1
}

; Function Attrs: mustprogress nounwind uwtable
define hidden void @_ZN4goalD2Ev(ptr noundef nonnull align 8 dereferenceable(124) %this) unnamed_addr #4 align 2 personality ptr @__gxx_personality_v0 {
entry:
  %this.addr = alloca ptr, align 8
  store ptr %this, ptr %this.addr, align 8
  %this1 = load ptr, ptr %this.addr, align 8
  invoke void @_ZN4goal10reset_coreEv(ptr noundef nonnull align 8 dereferenceable(124) %this1)
          to label %invoke.cont unwind label %terminate.lpad

invoke.cont:                                      ; preds = %entry
  %m_reason_unknown = getelementptr inbounds %class.goal, ptr %this1, i32 0, i32 6
  call void @_ZNSt7__cxx1112basic_stringIcSt11char_traitsIcESaIcEED1Ev(ptr noundef nonnull align 8 dereferenceable(32) %m_reason_unknown) #3
  %m_dc = getelementptr inbounds %class.goal, ptr %this1, i32 0, i32 3
  call void @_ZN3refI20dependency_converterED2Ev(ptr noundef nonnull align 8 dereferenceable(8) %m_dc) #3
  %m_pc = getelementptr inbounds %class.goal, ptr %this1, i32 0, i32 2
  call void @_ZN3refI15proof_converterED2Ev(ptr noundef nonnull align 8 dereferenceable(8) %m_pc) #3
  %m_mc = getelementptr inbounds %class.goal, ptr %this1, i32 0, i32 1
  call void @_ZN3refI15model_converterED2Ev(ptr noundef nonnull align 8 dereferenceable(8) %m_mc) #3
  ret void

terminate.lpad:                                   ; preds = %entry
  %0 = landingpad { ptr, i32 }
          catch ptr null
  %1 = extractvalue { ptr, i32 } %0, 0
  call void @__clang_call_terminate(ptr %1) #11
  unreachable
}

; Function Attrs: mustprogress uwtable
define hidden void @_ZN4goal10reset_coreEv(ptr noundef nonnull align 8 dereferenceable(124) %this) #5 align 2 {
entry:
  %this.addr = alloca ptr, align 8
  store ptr %this, ptr %this.addr, align 8
  %this1 = load ptr, ptr %this.addr, align 8
  %call = call noundef nonnull align 8 dereferenceable(976) ptr @_ZNK4goal1mEv(ptr noundef nonnull align 8 dereferenceable(124) %this1)
  %m_forms = getelementptr inbounds %class.goal, ptr %this1, i32 0, i32 7
  call void @_ZN11ast_manager3delERN14parray_managerINS_17expr_array_configEE3refE(ptr noundef nonnull align 8 dereferenceable(976) %call, ptr noundef nonnull align 8 dereferenceable(12) %m_forms)
  %call2 = call noundef nonnull align 8 dereferenceable(976) ptr @_ZNK4goal1mEv(ptr noundef nonnull align 8 dereferenceable(124) %this1)
  %m_proofs = getelementptr inbounds %class.goal, ptr %this1, i32 0, i32 8
  call void @_ZN11ast_manager3delERN14parray_managerINS_17expr_array_configEE3refE(ptr noundef nonnull align 8 dereferenceable(976) %call2, ptr noundef nonnull align 8 dereferenceable(12) %m_proofs)
  %call3 = call noundef nonnull align 8 dereferenceable(976) ptr @_ZNK4goal1mEv(ptr noundef nonnull align 8 dereferenceable(124) %this1)
  %m_dependencies = getelementptr inbounds %class.goal, ptr %this1, i32 0, i32 9
  call void @_ZN11ast_manager3delERN14parray_managerINS_28expr_dependency_array_configEE3refE(ptr noundef nonnull align 8 dereferenceable(976) %call3, ptr noundef nonnull align 8 dereferenceable(12) %m_dependencies)
  ret void
}

; Function Attrs: noreturn nounwind uwtable
define linkonce_odr hidden void @__clang_call_terminate(ptr noundef %0) #6 comdat {
  %2 = call ptr @__cxa_begin_catch(ptr %0) #3
  call void @_ZSt9terminatev() #11
  unreachable
}

declare ptr @__cxa_begin_catch(ptr)

declare void @_ZSt9terminatev()

; Function Attrs: mustprogress uwtable
define hidden void @_ZNK4goal7copy_toERS_(ptr noundef nonnull align 8 dereferenceable(124) %this, ptr noundef nonnull align 8 dereferenceable(124) %target) #5 align 2 {
entry:
  %this.addr = alloca ptr, align 8
  %target.addr = alloca ptr, align 8
  %ref.tmp = alloca i32, align 4
  %ref.tmp7 = alloca i32, align 4
  store ptr %this, ptr %this.addr, align 8
  store ptr %target, ptr %target.addr, align 8
  %this1 = load ptr, ptr %this.addr, align 8
  %0 = load ptr, ptr %target.addr, align 8
  %cmp = icmp eq ptr %this1, %0
  br i1 %cmp, label %if.then, label %if.end

if.then:                                          ; preds = %entry
  br label %return

if.end:                                           ; preds = %entry
  %call = call noundef nonnull align 8 dereferenceable(976) ptr @_ZNK4goal1mEv(ptr noundef nonnull align 8 dereferenceable(124) %this1)
  %m_forms = getelementptr inbounds %class.goal, ptr %this1, i32 0, i32 7
  %1 = load ptr, ptr %target.addr, align 8
  %m_forms2 = getelementptr inbounds %class.goal, ptr %1, i32 0, i32 7
  call void @_ZN11ast_manager4copyERKN14parray_managerINS_17expr_array_configEE3refERS3_(ptr noundef nonnull align 8 dereferenceable(976) %call, ptr noundef nonnull align 8 dereferenceable(12) %m_forms, ptr noundef nonnull align 8 dereferenceable(12) %m_forms2)
  %call3 = call noundef nonnull align 8 dereferenceable(976) ptr @_ZNK4goal1mEv(ptr noundef nonnull align 8 dereferenceable(124) %this1)
  %m_proofs = getelementptr inbounds %class.goal, ptr %this1, i32 0, i32 8
  %2 = load ptr, ptr %target.addr, align 8
  %m_proofs4 = getelementptr inbounds %class.goal, ptr %2, i32 0, i32 8
  call void @_ZN11ast_manager4copyERKN14parray_managerINS_17expr_array_configEE3refERS3_(ptr noundef nonnull align 8 dereferenceable(976) %call3, ptr noundef nonnull align 8 dereferenceable(12) %m_proofs, ptr noundef nonnull align 8 dereferenceable(12) %m_proofs4)
  %call5 = call noundef nonnull align 8 dereferenceable(976) ptr @_ZNK4goal1mEv(ptr noundef nonnull align 8 dereferenceable(124) %this1)
  %m_dependencies = getelementptr inbounds %class.goal, ptr %this1, i32 0, i32 9
  %3 = load ptr, ptr %target.addr, align 8
  %m_dependencies6 = getelementptr inbounds %class.goal, ptr %3, i32 0, i32 9
  call void @_ZN11ast_manager4copyERKN14parray_managerINS_28expr_dependency_array_configEE3refERS3_(ptr noundef nonnull align 8 dereferenceable(976) %call5, ptr noundef nonnull align 8 dereferenceable(12) %m_dependencies, ptr noundef nonnull align 8 dereferenceable(12) %m_dependencies6)
  %m_depth = getelementptr inbounds %class.goal, ptr %this1, i32 0, i32 10
  %bf.load = load i32, ptr %m_depth, align 8
  %bf.clear = and i32 %bf.load, 67108863
  store i32 %bf.clear, ptr %ref.tmp, align 4
  %4 = load ptr, ptr %target.addr, align 8
  %m_depth8 = getelementptr inbounds %class.goal, ptr %4, i32 0, i32 10
  %bf.load9 = load i32, ptr %m_depth8, align 8
  %bf.clear10 = and i32 %bf.load9, 67108863
  store i32 %bf.clear10, ptr %ref.tmp7, align 4
  %call11 = call noundef nonnull align 4 dereferenceable(4) ptr @_ZSt3maxIjERKT_S2_S2_(ptr noundef nonnull align 4 dereferenceable(4) %ref.tmp, ptr noundef nonnull align 4 dereferenceable(4) %ref.tmp7)
  %5 = load i32, ptr %call11, align 4
  %6 = load ptr, ptr %target.addr, align 8
  %m_depth12 = getelementptr inbounds %class.goal, ptr %6, i32 0, i32 10
  %bf.load13 = load i32, ptr %m_depth12, align 8
  %bf.value = and i32 %5, 67108863
  %bf.clear14 = and i32 %bf.load13, -67108864
  %bf.set = or i32 %bf.clear14, %bf.value
  store i32 %bf.set, ptr %m_depth12, align 8
  %m_inconsistent = getelementptr inbounds %class.goal, ptr %this1, i32 0, i32 10
  %bf.load15 = load i32, ptr %m_inconsistent, align 8
  %bf.lshr = lshr i32 %bf.load15, 29
  %bf.clear16 = and i32 %bf.lshr, 1
  %7 = load ptr, ptr %target.addr, align 8
  %m_inconsistent17 = getelementptr inbounds %class.goal, ptr %7, i32 0, i32 10
  %bf.load18 = load i32, ptr %m_inconsistent17, align 8
  %bf.value19 = and i32 %bf.clear16, 1
  %bf.shl = shl i32 %bf.value19, 29
  %bf.clear20 = and i32 %bf.load18, -536870913
  %bf.set21 = or i32 %bf.clear20, %bf.shl
  store i32 %bf.set21, ptr %m_inconsistent17, align 8
  %call22 = call noundef i32 @_ZNK4goal4precEv(ptr noundef nonnull align 8 dereferenceable(124) %this1)
  %8 = load ptr, ptr %target.addr, align 8
  %call23 = call noundef i32 @_ZNK4goal4precEv(ptr noundef nonnull align 8 dereferenceable(124) %8)
  %call24 = call noundef i32 @_ZN4goal8mk_unionENS_9precisionES0_(i32 noundef %call22, i32 noundef %call23)
  %9 = load ptr, ptr %target.addr, align 8
  %m_precision = getelementptr inbounds %class.goal, ptr %9, i32 0, i32 10
  %bf.load25 = load i32, ptr %m_precision, align 8
  %bf.value26 = and i32 %call24, 3
  %bf.shl27 = shl i32 %bf.value26, 30
  %bf.clear28 = and i32 %bf.load25, 1073741823
  %bf.set29 = or i32 %bf.clear28, %bf.shl27
  store i32 %bf.set29, ptr %m_precision, align 8
  %m_mc = getelementptr inbounds %class.goal, ptr %this1, i32 0, i32 1
  %call30 = call noundef ptr @_ZNK3refI15model_converterE3getEv(ptr noundef nonnull align 8 dereferenceable(8) %m_mc)
  %10 = load ptr, ptr %target.addr, align 8
  %m_mc31 = getelementptr inbounds %class.goal, ptr %10, i32 0, i32 1
  %call32 = call noundef nonnull align 8 dereferenceable(8) ptr @_ZN3refI15model_converterEaSEPS0_(ptr noundef nonnull align 8 dereferenceable(8) %m_mc31, ptr noundef %call30)
  %m_pc = getelementptr inbounds %class.goal, ptr %this1, i32 0, i32 2
  %call33 = call noundef ptr @_ZNK3refI15proof_converterE3getEv(ptr noundef nonnull align 8 dereferenceable(8) %m_pc)
  %11 = load ptr, ptr %target.addr, align 8
  %m_pc34 = getelementptr inbounds %class.goal, ptr %11, i32 0, i32 2
  %call35 = call noundef nonnull align 8 dereferenceable(8) ptr @_ZN3refI15proof_converterEaSEPS0_(ptr noundef nonnull align 8 dereferenceable(8) %m_pc34, ptr noundef %call33)
  %m_dc = getelementptr inbounds %class.goal, ptr %this1, i32 0, i32 3
  %call36 = call noundef ptr @_ZNK3refI20dependency_converterE3getEv(ptr noundef nonnull align 8 dereferenceable(8) %m_dc)
  %12 = load ptr, ptr %target.addr, align 8
  %m_dc37 = getelementptr inbounds %class.goal, ptr %12, i32 0, i32 3
  %call38 = call noundef nonnull align 8 dereferenceable(8) ptr @_ZN3refI20dependency_converterEaSEPS0_(ptr noundef nonnull align 8 dereferenceable(8) %m_dc37, ptr noundef %call36)
  br label %return

return:                                           ; preds = %if.end, %if.then
  ret void
}

; Function Attrs: mustprogress uwtable
define linkonce_odr hidden void @_ZN11ast_manager4copyERKN14parray_managerINS_17expr_array_configEE3refERS3_(ptr noundef nonnull align 8 dereferenceable(976) %this, ptr noundef nonnull align 8 dereferenceable(12) %s, ptr noundef nonnull align 8 dereferenceable(12) %r) #5 comdat align 2 {
entry:
  %this.addr = alloca ptr, align 8
  %s.addr = alloca ptr, align 8
  %r.addr = alloca ptr, align 8
  store ptr %this, ptr %this.addr, align 8
  store ptr %s, ptr %s.addr, align 8
  store ptr %r, ptr %r.addr, align 8
  %this1 = load ptr, ptr %this.addr, align 8
  %m_expr_array_manager = getelementptr inbounds %class.ast_manager, ptr %this1, i32 0, i32 3
  %0 = load ptr, ptr %s.addr, align 8
  %1 = load ptr, ptr %r.addr, align 8
  call void @_ZN14parray_managerIN11ast_manager17expr_array_configEE4copyERKNS2_3refERS3_(ptr noundef nonnull align 8 dereferenceable(32) %m_expr_array_manager, ptr noundef nonnull align 8 dereferenceable(12) %0, ptr noundef nonnull align 8 dereferenceable(12) %1)
  ret void
}

; Function Attrs: mustprogress uwtable
define linkonce_odr hidden void @_ZN11ast_manager4copyERKN14parray_managerINS_28expr_dependency_array_configEE3refERS3_(ptr noundef nonnull align 8 dereferenceable(976) %this, ptr noundef nonnull align 8 dereferenceable(12) %s, ptr noundef nonnull align 8 dereferenceable(12) %r) #5 comdat align 2 {
entry:
  %this.addr = alloca ptr, align 8
  %s.addr = alloca ptr, align 8
  %r.addr = alloca ptr, align 8
  store ptr %this, ptr %this.addr, align 8
  store ptr %s, ptr %s.addr, align 8
  store ptr %r, ptr %r.addr, align 8
  %this1 = load ptr, ptr %this.addr, align 8
  %m_expr_dependency_array_manager = getelementptr inbounds %class.ast_manager, ptr %this1, i32 0, i32 5
  %0 = load ptr, ptr %s.addr, align 8
  %1 = load ptr, ptr %r.addr, align 8
  call void @_ZN14parray_managerIN11ast_manager28expr_dependency_array_configEE4copyERKNS2_3refERS3_(ptr noundef nonnull align 8 dereferenceable(32) %m_expr_dependency_array_manager, ptr noundef nonnull align 8 dereferenceable(12) %0, ptr noundef nonnull align 8 dereferenceable(12) %1)
  ret void
}

; Function Attrs: mustprogress nounwind uwtable
define linkonce_odr noundef nonnull align 4 dereferenceable(4) ptr @_ZSt3maxIjERKT_S2_S2_(ptr noundef nonnull align 4 dereferenceable(4) %__a, ptr noundef nonnull align 4 dereferenceable(4) %__b) #4 comdat {
entry:
  %retval = alloca ptr, align 8
  %__a.addr = alloca ptr, align 8
  %__b.addr = alloca ptr, align 8
  store ptr %__a, ptr %__a.addr, align 8
  store ptr %__b, ptr %__b.addr, align 8
  %0 = load ptr, ptr %__a.addr, align 8
  %1 = load i32, ptr %0, align 4
  %2 = load ptr, ptr %__b.addr, align 8
  %3 = load i32, ptr %2, align 4
  %cmp = icmp ult i32 %1, %3
  br i1 %cmp, label %if.then, label %if.end

if.then:                                          ; preds = %entry
  %4 = load ptr, ptr %__b.addr, align 8
  store ptr %4, ptr %retval, align 8
  br label %return

if.end:                                           ; preds = %entry
  %5 = load ptr, ptr %__a.addr, align 8
  store ptr %5, ptr %retval, align 8
  br label %return

return:                                           ; preds = %if.end, %if.then
  %6 = load ptr, ptr %retval, align 8
  ret ptr %6
}

; Function Attrs: mustprogress nounwind uwtable
define linkonce_odr hidden noundef i32 @_ZNK4goal4precEv(ptr noundef nonnull align 8 dereferenceable(124) %this) #4 comdat align 2 {
entry:
  %this.addr = alloca ptr, align 8
  store ptr %this, ptr %this.addr, align 8
  %this1 = load ptr, ptr %this.addr, align 8
  %m_precision = getelementptr inbounds %class.goal, ptr %this1, i32 0, i32 10
  %bf.load = load i32, ptr %m_precision, align 8
  %bf.lshr = lshr i32 %bf.load, 30
  ret i32 %bf.lshr
}

; Function Attrs: mustprogress uwtable
define hidden void @_ZN4goal9push_backEP4exprP3appPN18dependency_managerIN11ast_manager22expr_dependency_configEE10dependencyE(ptr noundef nonnull align 8 dereferenceable(124) %this, ptr noundef %f, ptr noundef %pr, ptr noundef %d) #5 align 2 personality ptr @__gxx_personality_v0 {
entry:
  %this.addr = alloca ptr, align 8
  %f.addr = alloca ptr, align 8
  %pr.addr = alloca ptr, align 8
  %d.addr = alloca ptr, align 8
  %saved_pr = alloca %class.obj_ref, align 8
  %saved_d = alloca %class.obj_ref.28, align 8
  %exn.slot = alloca ptr, align 8
  %ehselector.slot = alloca i32, align 4
  store ptr %this, ptr %this.addr, align 8
  store ptr %f, ptr %f.addr, align 8
  store ptr %pr, ptr %pr.addr, align 8
  store ptr %d, ptr %d.addr, align 8
  %this1 = load ptr, ptr %this.addr, align 8
  %call = call noundef nonnull align 8 dereferenceable(976) ptr @_ZNK4goal1mEv(ptr noundef nonnull align 8 dereferenceable(124) %this1)
  %0 = load ptr, ptr %f.addr, align 8
  %call2 = call noundef zeroext i1 @_ZNK11ast_manager7is_trueEPK4expr(ptr noundef nonnull align 8 dereferenceable(976) %call, ptr noundef %0)
  br i1 %call2, label %if.then, label %if.end

if.then:                                          ; preds = %entry
  br label %if.end56

if.end:                                           ; preds = %entry
  %call3 = call noundef nonnull align 8 dereferenceable(976) ptr @_ZNK4goal1mEv(ptr noundef nonnull align 8 dereferenceable(124) %this1)
  %1 = load ptr, ptr %f.addr, align 8
  %call4 = call noundef zeroext i1 @_ZNK11ast_manager8is_falseEPK4expr(ptr noundef nonnull align 8 dereferenceable(976) %call3, ptr noundef %1)
  br i1 %call4, label %if.then5, label %if.else

if.then5:                                         ; preds = %if.end
  %call6 = call noundef nonnull align 8 dereferenceable(976) ptr @_ZNK4goal1mEv(ptr noundef nonnull align 8 dereferenceable(124) %this1)
  call void @_ZN7obj_refI3app11ast_managerEC2ERS1_(ptr noundef nonnull align 8 dereferenceable(16) %saved_pr, ptr noundef nonnull align 8 dereferenceable(976) %call6)
  %call7 = invoke noundef nonnull align 8 dereferenceable(976) ptr @_ZNK4goal1mEv(ptr noundef nonnull align 8 dereferenceable(124) %this1)
          to label %invoke.cont unwind label %lpad

invoke.cont:                                      ; preds = %if.then5
  invoke void @_ZN7obj_refIN18dependency_managerIN11ast_manager22expr_dependency_configEE10dependencyES1_EC2ERS1_(ptr noundef nonnull align 8 dereferenceable(16) %saved_d, ptr noundef nonnull align 8 dereferenceable(976) %call7)
          to label %invoke.cont8 unwind label %lpad

invoke.cont8:                                     ; preds = %invoke.cont
  %2 = load ptr, ptr %pr.addr, align 8
  %call11 = invoke noundef nonnull align 8 dereferenceable(16) ptr @_ZN7obj_refI3app11ast_managerEaSEPS0_(ptr noundef nonnull align 8 dereferenceable(16) %saved_pr, ptr noundef %2)
          to label %invoke.cont10 unwind label %lpad9

invoke.cont10:                                    ; preds = %invoke.cont8
  %3 = load ptr, ptr %d.addr, align 8
  %call13 = invoke noundef nonnull align 8 dereferenceable(16) ptr @_ZN7obj_refIN18dependency_managerIN11ast_manager22expr_dependency_configEE10dependencyES1_EaSEPS4_(ptr noundef nonnull align 8 dereferenceable(16) %saved_d, ptr noundef %3)
          to label %invoke.cont12 unwind label %lpad9

invoke.cont12:                                    ; preds = %invoke.cont10
  %call15 = invoke noundef nonnull align 8 dereferenceable(976) ptr @_ZNK4goal1mEv(ptr noundef nonnull align 8 dereferenceable(124) %this1)
          to label %invoke.cont14 unwind label %lpad9

invoke.cont14:                                    ; preds = %invoke.cont12
  %m_forms = getelementptr inbounds %class.goal, ptr %this1, i32 0, i32 7
  invoke void @_ZN11ast_manager3delERN14parray_managerINS_17expr_array_configEE3refE(ptr noundef nonnull align 8 dereferenceable(976) %call15, ptr noundef nonnull align 8 dereferenceable(12) %m_forms)
          to label %invoke.cont16 unwind label %lpad9

invoke.cont16:                                    ; preds = %invoke.cont14
  %call18 = invoke noundef nonnull align 8 dereferenceable(976) ptr @_ZNK4goal1mEv(ptr noundef nonnull align 8 dereferenceable(124) %this1)
          to label %invoke.cont17 unwind label %lpad9

invoke.cont17:                                    ; preds = %invoke.cont16
  %m_proofs = getelementptr inbounds %class.goal, ptr %this1, i32 0, i32 8
  invoke void @_ZN11ast_manager3delERN14parray_managerINS_17expr_array_configEE3refE(ptr noundef nonnull align 8 dereferenceable(976) %call18, ptr noundef nonnull align 8 dereferenceable(12) %m_proofs)
          to label %invoke.cont19 unwind label %lpad9

invoke.cont19:                                    ; preds = %invoke.cont17
  %call21 = invoke noundef nonnull align 8 dereferenceable(976) ptr @_ZNK4goal1mEv(ptr noundef nonnull align 8 dereferenceable(124) %this1)
          to label %invoke.cont20 unwind label %lpad9

invoke.cont20:                                    ; preds = %invoke.cont19
  %m_dependencies = getelementptr inbounds %class.goal, ptr %this1, i32 0, i32 9
  invoke void @_ZN11ast_manager3delERN14parray_managerINS_28expr_dependency_array_configEE3refE(ptr noundef nonnull align 8 dereferenceable(976) %call21, ptr noundef nonnull align 8 dereferenceable(12) %m_dependencies)
          to label %invoke.cont22 unwind label %lpad9

invoke.cont22:                                    ; preds = %invoke.cont20
  %m_inconsistent = getelementptr inbounds %class.goal, ptr %this1, i32 0, i32 10
  %bf.load = load i32, ptr %m_inconsistent, align 8
  %bf.clear = and i32 %bf.load, -536870913
  %bf.set = or i32 %bf.clear, 536870912
  store i32 %bf.set, ptr %m_inconsistent, align 8
  %call24 = invoke noundef nonnull align 8 dereferenceable(976) ptr @_ZNK4goal1mEv(ptr noundef nonnull align 8 dereferenceable(124) %this1)
          to label %invoke.cont23 unwind label %lpad9

invoke.cont23:                                    ; preds = %invoke.cont22
  %m_forms25 = getelementptr inbounds %class.goal, ptr %this1, i32 0, i32 7
  %call27 = invoke noundef nonnull align 8 dereferenceable(976) ptr @_ZNK4goal1mEv(ptr noundef nonnull align 8 dereferenceable(124) %this1)
          to label %invoke.cont26 unwind label %lpad9

invoke.cont26:                                    ; preds = %invoke.cont23
  %call29 = invoke noundef ptr @_ZNK11ast_manager8mk_falseEv(ptr noundef nonnull align 8 dereferenceable(976) %call27)
          to label %invoke.cont28 unwind label %lpad9

invoke.cont28:                                    ; preds = %invoke.cont26
  invoke void @_ZN11ast_manager9push_backERN14parray_managerINS_17expr_array_configEE3refEP4expr(ptr noundef nonnull align 8 dereferenceable(976) %call24, ptr noundef nonnull align 8 dereferenceable(12) %m_forms25, ptr noundef %call29)
          to label %invoke.cont30 unwind label %lpad9

invoke.cont30:                                    ; preds = %invoke.cont28
  %call32 = invoke noundef nonnull align 8 dereferenceable(976) ptr @_ZNK4goal1mEv(ptr noundef nonnull align 8 dereferenceable(124) %this1)
          to label %invoke.cont31 unwind label %lpad9

invoke.cont31:                                    ; preds = %invoke.cont30
  %m_proofs33 = getelementptr inbounds %class.goal, ptr %this1, i32 0, i32 8
  %call35 = invoke noundef ptr @_ZNK7obj_refI3app11ast_managerEcvPS0_Ev(ptr noundef nonnull align 8 dereferenceable(16) %saved_pr)
          to label %invoke.cont34 unwind label %lpad9

invoke.cont34:                                    ; preds = %invoke.cont31
  invoke void @_ZN11ast_manager9push_backERN14parray_managerINS_17expr_array_configEE3refEP4expr(ptr noundef nonnull align 8 dereferenceable(976) %call32, ptr noundef nonnull align 8 dereferenceable(12) %m_proofs33, ptr noundef %call35)
          to label %invoke.cont36 unwind label %lpad9

invoke.cont36:                                    ; preds = %invoke.cont34
  %call38 = invoke noundef zeroext i1 @_ZNK4goal18unsat_core_enabledEv(ptr noundef nonnull align 8 dereferenceable(124) %this1)
          to label %invoke.cont37 unwind label %lpad9

invoke.cont37:                                    ; preds = %invoke.cont36
  br i1 %call38, label %if.then39, label %if.end46

if.then39:                                        ; preds = %invoke.cont37
  %call41 = invoke noundef nonnull align 8 dereferenceable(976) ptr @_ZNK4goal1mEv(ptr noundef nonnull align 8 dereferenceable(124) %this1)
          to label %invoke.cont40 unwind label %lpad9

invoke.cont40:                                    ; preds = %if.then39
  %m_dependencies42 = getelementptr inbounds %class.goal, ptr %this1, i32 0, i32 9
  %call44 = invoke noundef ptr @_ZNK7obj_refIN18dependency_managerIN11ast_manager22expr_dependency_configEE10dependencyES1_EcvPS4_Ev(ptr noundef nonnull align 8 dereferenceable(16) %saved_d)
          to label %invoke.cont43 unwind label %lpad9

invoke.cont43:                                    ; preds = %invoke.cont40
  invoke void @_ZN11ast_manager9push_backERN14parray_managerINS_28expr_dependency_array_configEE3refEPN18dependency_managerINS_22expr_dependency_configEE10dependencyE(ptr noundef nonnull align 8 dereferenceable(976) %call41, ptr noundef nonnull align 8 dereferenceable(12) %m_dependencies42, ptr noundef %call44)
          to label %invoke.cont45 unwind label %lpad9

invoke.cont45:                                    ; preds = %invoke.cont43
  br label %if.end46

lpad:                                             ; preds = %invoke.cont, %if.then5
  %4 = landingpad { ptr, i32 }
          cleanup
  %5 = extractvalue { ptr, i32 } %4, 0
  store ptr %5, ptr %exn.slot, align 8
  %6 = extractvalue { ptr, i32 } %4, 1
  store i32 %6, ptr %ehselector.slot, align 4
  br label %ehcleanup

lpad9:                                            ; preds = %invoke.cont43, %invoke.cont40, %if.then39, %invoke.cont36, %invoke.cont34, %invoke.cont31, %invoke.cont30, %invoke.cont28, %invoke.cont26, %invoke.cont23, %invoke.cont22, %invoke.cont20, %invoke.cont19, %invoke.cont17, %invoke.cont16, %invoke.cont14, %invoke.cont12, %invoke.cont10, %invoke.cont8
  %7 = landingpad { ptr, i32 }
          cleanup
  %8 = extractvalue { ptr, i32 } %7, 0
  store ptr %8, ptr %exn.slot, align 8
  %9 = extractvalue { ptr, i32 } %7, 1
  store i32 %9, ptr %ehselector.slot, align 4
  call void @_ZN7obj_refIN18dependency_managerIN11ast_manager22expr_dependency_configEE10dependencyES1_ED2Ev(ptr noundef nonnull align 8 dereferenceable(16) %saved_d) #3
  br label %ehcleanup

if.end46:                                         ; preds = %invoke.cont45, %invoke.cont37
  call void @_ZN7obj_refIN18dependency_managerIN11ast_manager22expr_dependency_configEE10dependencyES1_ED2Ev(ptr noundef nonnull align 8 dereferenceable(16) %saved_d) #3
  call void @_ZN7obj_refI3app11ast_managerED2Ev(ptr noundef nonnull align 8 dereferenceable(16) %saved_pr) #3
  br label %if.end56

ehcleanup:                                        ; preds = %lpad9, %lpad
  call void @_ZN7obj_refI3app11ast_managerED2Ev(ptr noundef nonnull align 8 dereferenceable(16) %saved_pr) #3
  br label %eh.resume

if.else:                                          ; preds = %if.end
  %call47 = call noundef nonnull align 8 dereferenceable(976) ptr @_ZNK4goal1mEv(ptr noundef nonnull align 8 dereferenceable(124) %this1)
  %m_forms48 = getelementptr inbounds %class.goal, ptr %this1, i32 0, i32 7
  %10 = load ptr, ptr %f.addr, align 8
  call void @_ZN11ast_manager9push_backERN14parray_managerINS_17expr_array_configEE3refEP4expr(ptr noundef nonnull align 8 dereferenceable(976) %call47, ptr noundef nonnull align 8 dereferenceable(12) %m_forms48, ptr noundef %10)
  %call49 = call noundef nonnull align 8 dereferenceable(976) ptr @_ZNK4goal1mEv(ptr noundef nonnull align 8 dereferenceable(124) %this1)
  %m_proofs50 = getelementptr inbounds %class.goal, ptr %this1, i32 0, i32 8
  %11 = load ptr, ptr %pr.addr, align 8
  call void @_ZN11ast_manager9push_backERN14parray_managerINS_17expr_array_configEE3refEP4expr(ptr noundef nonnull align 8 dereferenceable(976) %call49, ptr noundef nonnull align 8 dereferenceable(12) %m_proofs50, ptr noundef %11)
  %call51 = call noundef zeroext i1 @_ZNK4goal18unsat_core_enabledEv(ptr noundef nonnull align 8 dereferenceable(124) %this1)
  br i1 %call51, label %if.then52, label %if.end55

if.then52:                                        ; preds = %if.else
  %call53 = call noundef nonnull align 8 dereferenceable(976) ptr @_ZNK4goal1mEv(ptr noundef nonnull align 8 dereferenceable(124) %this1)
  %m_dependencies54 = getelementptr inbounds %class.goal, ptr %this1, i32 0, i32 9
  %12 = load ptr, ptr %d.addr, align 8
  call void @_ZN11ast_manager9push_backERN14parray_managerINS_28expr_dependency_array_configEE3refEPN18dependency_managerINS_22expr_dependency_configEE10dependencyE(ptr noundef nonnull align 8 dereferenceable(976) %call53, ptr noundef nonnull align 8 dereferenceable(12) %m_dependencies54, ptr noundef %12)
  br label %if.end55

if.end55:                                         ; preds = %if.then52, %if.else
  br label %if.end56

if.end56:                                         ; preds = %if.end55, %if.end46, %if.then
  ret void

eh.resume:                                        ; preds = %ehcleanup
  %exn = load ptr, ptr %exn.slot, align 8
  %sel = load i32, ptr %ehselector.slot, align 4
  %lpad.val = insertvalue { ptr, i32 } poison, ptr %exn, 0
  %lpad.val57 = insertvalue { ptr, i32 } %lpad.val, i32 %sel, 1
  resume { ptr, i32 } %lpad.val57
}

; Function Attrs: mustprogress nounwind uwtable
define linkonce_odr hidden noundef zeroext i1 @_ZNK11ast_manager7is_trueEPK4expr(ptr noundef nonnull align 8 dereferenceable(976) %this, ptr noundef %n) #4 comdat align 2 {
entry:
  %this.addr = alloca ptr, align 8
  %n.addr = alloca ptr, align 8
  store ptr %this, ptr %this.addr, align 8
  store ptr %n, ptr %n.addr, align 8
  %this1 = load ptr, ptr %this.addr, align 8
  %0 = load ptr, ptr %n.addr, align 8
  %m_true = getelementptr inbounds %class.ast_manager, ptr %this1, i32 0, i32 15
  %1 = load ptr, ptr %m_true, align 8
  %cmp = icmp eq ptr %0, %1
  ret i1 %cmp
}

; Function Attrs: mustprogress nounwind uwtable
define linkonce_odr hidden noundef zeroext i1 @_ZNK11ast_manager8is_falseEPK4expr(ptr noundef nonnull align 8 dereferenceable(976) %this, ptr noundef %n) #4 comdat align 2 {
entry:
  %this.addr = alloca ptr, align 8
  %n.addr = alloca ptr, align 8
  store ptr %this, ptr %this.addr, align 8
  store ptr %n, ptr %n.addr, align 8
  %this1 = load ptr, ptr %this.addr, align 8
  %0 = load ptr, ptr %n.addr, align 8
  %m_false = getelementptr inbounds %class.ast_manager, ptr %this1, i32 0, i32 16
  %1 = load ptr, ptr %m_false, align 8
  %cmp = icmp eq ptr %0, %1
  ret i1 %cmp
}

; Function Attrs: mustprogress nounwind uwtable
define linkonce_odr hidden void @_ZN7obj_refI3app11ast_managerEC2ERS1_(ptr noundef nonnull align 8 dereferenceable(16) %this, ptr noundef nonnull align 8 dereferenceable(976) %m) unnamed_addr #4 comdat align 2 {
entry:
  %this.addr = alloca ptr, align 8
  %m.addr = alloca ptr, align 8
  store ptr %this, ptr %this.addr, align 8
  store ptr %m, ptr %m.addr, align 8
  %this1 = load ptr, ptr %this.addr, align 8
  %m_obj = getelementptr inbounds %class.obj_ref, ptr %this1, i32 0, i32 0
  store ptr null, ptr %m_obj, align 8
  %m_manager = getelementptr inbounds %class.obj_ref, ptr %this1, i32 0, i32 1
  %0 = load ptr, ptr %m.addr, align 8
  store ptr %0, ptr %m_manager, align 8
  ret void
}

; Function Attrs: mustprogress nounwind uwtable
define linkonce_odr hidden void @_ZN7obj_refIN18dependency_managerIN11ast_manager22expr_dependency_configEE10dependencyES1_EC2ERS1_(ptr noundef nonnull align 8 dereferenceable(16) %this, ptr noundef nonnull align 8 dereferenceable(976) %m) unnamed_addr #4 comdat align 2 {
entry:
  %this.addr = alloca ptr, align 8
  %m.addr = alloca ptr, align 8
  store ptr %this, ptr %this.addr, align 8
  store ptr %m, ptr %m.addr, align 8
  %this1 = load ptr, ptr %this.addr, align 8
  %m_obj = getelementptr inbounds %class.obj_ref.28, ptr %this1, i32 0, i32 0
  store ptr null, ptr %m_obj, align 8
  %m_manager = getelementptr inbounds %class.obj_ref.28, ptr %this1, i32 0, i32 1
  %0 = load ptr, ptr %m.addr, align 8
  store ptr %0, ptr %m_manager, align 8
  ret void
}

; Function Attrs: mustprogress uwtable
define linkonce_odr hidden noundef nonnull align 8 dereferenceable(16) ptr @_ZN7obj_refI3app11ast_managerEaSEPS0_(ptr noundef nonnull align 8 dereferenceable(16) %this, ptr noundef %n) #5 comdat align 2 {
entry:
  %this.addr = alloca ptr, align 8
  %n.addr = alloca ptr, align 8
  store ptr %this, ptr %this.addr, align 8
  store ptr %n, ptr %n.addr, align 8
  %this1 = load ptr, ptr %this.addr, align 8
  %0 = load ptr, ptr %n.addr, align 8
  %tobool = icmp ne ptr %0, null
  br i1 %tobool, label %if.then, label %if.end

if.then:                                          ; preds = %entry
  %m_manager = getelementptr inbounds %class.obj_ref, ptr %this1, i32 0, i32 1
  %1 = load ptr, ptr %m_manager, align 8
  %2 = load ptr, ptr %n.addr, align 8
  call void @_ZN11ast_manager7inc_refEP3ast(ptr noundef nonnull align 8 dereferenceable(976) %1, ptr noundef %2)
  br label %if.end

if.end:                                           ; preds = %if.then, %entry
  call void @_ZN7obj_refI3app11ast_managerE7dec_refEv(ptr noundef nonnull align 8 dereferenceable(16) %this1)
  %3 = load ptr, ptr %n.addr, align 8
  %m_obj = getelementptr inbounds %class.obj_ref, ptr %this1, i32 0, i32 0
  store ptr %3, ptr %m_obj, align 8
  ret ptr %this1
}

; Function Attrs: mustprogress uwtable
define linkonce_odr hidden noundef nonnull align 8 dereferenceable(16) ptr @_ZN7obj_refIN18dependency_managerIN11ast_manager22expr_dependency_configEE10dependencyES1_EaSEPS4_(ptr noundef nonnull align 8 dereferenceable(16) %this, ptr noundef %n) #5 comdat align 2 {
entry:
  %this.addr = alloca ptr, align 8
  %n.addr = alloca ptr, align 8
  store ptr %this, ptr %this.addr, align 8
  store ptr %n, ptr %n.addr, align 8
  %this1 = load ptr, ptr %this.addr, align 8
  %0 = load ptr, ptr %n.addr, align 8
  %tobool = icmp ne ptr %0, null
  br i1 %tobool, label %if.then, label %if.end

if.then:                                          ; preds = %entry
  %m_manager = getelementptr inbounds %class.obj_ref.28, ptr %this1, i32 0, i32 1
  %1 = load ptr, ptr %m_manager, align 8
  %2 = load ptr, ptr %n.addr, align 8
  call void @_ZN11ast_manager7inc_refEPN18dependency_managerINS_22expr_dependency_configEE10dependencyE(ptr noundef nonnull align 8 dereferenceable(976) %1, ptr noundef %2)
  br label %if.end

if.end:                                           ; preds = %if.then, %entry
  call void @_ZN7obj_refIN18dependency_managerIN11ast_manager22expr_dependency_configEE10dependencyES1_E7dec_refEv(ptr noundef nonnull align 8 dereferenceable(16) %this1)
  %3 = load ptr, ptr %n.addr, align 8
  %m_obj = getelementptr inbounds %class.obj_ref.28, ptr %this1, i32 0, i32 0
  store ptr %3, ptr %m_obj, align 8
  ret ptr %this1
}

; Function Attrs: mustprogress uwtable
define linkonce_odr hidden void @_ZN11ast_manager3delERN14parray_managerINS_17expr_array_configEE3refE(ptr noundef nonnull align 8 dereferenceable(976) %this, ptr noundef nonnull align 8 dereferenceable(12) %r) #5 comdat align 2 {
entry:
  %this.addr = alloca ptr, align 8
  %r.addr = alloca ptr, align 8
  store ptr %this, ptr %this.addr, align 8
  store ptr %r, ptr %r.addr, align 8
  %this1 = load ptr, ptr %this.addr, align 8
  %m_expr_array_manager = getelementptr inbounds %class.ast_manager, ptr %this1, i32 0, i32 3
  %0 = load ptr, ptr %r.addr, align 8
  call void @_ZN14parray_managerIN11ast_manager17expr_array_configEE3delERNS2_3refE(ptr noundef nonnull align 8 dereferenceable(32) %m_expr_array_manager, ptr noundef nonnull align 8 dereferenceable(12) %0)
  ret void
}

; Function Attrs: mustprogress uwtable
define linkonce_odr hidden void @_ZN11ast_manager3delERN14parray_managerINS_28expr_dependency_array_configEE3refE(ptr noundef nonnull align 8 dereferenceable(976) %this, ptr noundef nonnull align 8 dereferenceable(12) %r) #5 comdat align 2 {
entry:
  %this.addr = alloca ptr, align 8
  %r.addr = alloca ptr, align 8
  store ptr %this, ptr %this.addr, align 8
  store ptr %r, ptr %r.addr, align 8
  %this1 = load ptr, ptr %this.addr, align 8
  %m_expr_dependency_array_manager = getelementptr inbounds %class.ast_manager, ptr %this1, i32 0, i32 5
  %0 = load ptr, ptr %r.addr, align 8
  call void @_ZN14parray_managerIN11ast_manager28expr_dependency_array_configEE3delERNS2_3refE(ptr noundef nonnull align 8 dereferenceable(32) %m_expr_dependency_array_manager, ptr noundef nonnull align 8 dereferenceable(12) %0)
  ret void
}

; Function Attrs: mustprogress uwtable
define linkonce_odr hidden void @_ZN11ast_manager9push_backERN14parray_managerINS_17expr_array_configEE3refEP4expr(ptr noundef nonnull align 8 dereferenceable(976) %this, ptr noundef nonnull align 8 dereferenceable(12) %r, ptr noundef %v) #5 comdat align 2 {
entry:
  %this.addr = alloca ptr, align 8
  %r.addr = alloca ptr, align 8
  %v.addr = alloca ptr, align 8
  store ptr %this, ptr %this.addr, align 8
  store ptr %r, ptr %r.addr, align 8
  store ptr %v, ptr %v.addr, align 8
  %this1 = load ptr, ptr %this.addr, align 8
  %m_expr_array_manager = getelementptr inbounds %class.ast_manager, ptr %this1, i32 0, i32 3
  %0 = load ptr, ptr %r.addr, align 8
  call void @_ZN14parray_managerIN11ast_manager17expr_array_configEE9push_backERNS2_3refERKP4expr(ptr noundef nonnull align 8 dereferenceable(32) %m_expr_array_manager, ptr noundef nonnull align 8 dereferenceable(12) %0, ptr noundef nonnull align 8 dereferenceable(8) %v.addr)
  ret void
}

; Function Attrs: mustprogress nounwind uwtable
define linkonce_odr hidden noundef ptr @_ZNK11ast_manager8mk_falseEv(ptr noundef nonnull align 8 dereferenceable(976) %this) #4 comdat align 2 {
entry:
  %this.addr = alloca ptr, align 8
  store ptr %this, ptr %this.addr, align 8
  %this1 = load ptr, ptr %this.addr, align 8
  %m_false = getelementptr inbounds %class.ast_manager, ptr %this1, i32 0, i32 16
  %0 = load ptr, ptr %m_false, align 8
  ret ptr %0
}

; Function Attrs: mustprogress nounwind uwtable
define linkonce_odr hidden noundef ptr @_ZNK7obj_refI3app11ast_managerEcvPS0_Ev(ptr noundef nonnull align 8 dereferenceable(16) %this) #4 comdat align 2 {
entry:
  %this.addr = alloca ptr, align 8
  store ptr %this, ptr %this.addr, align 8
  %this1 = load ptr, ptr %this.addr, align 8
  %m_obj = getelementptr inbounds %class.obj_ref, ptr %this1, i32 0, i32 0
  %0 = load ptr, ptr %m_obj, align 8
  ret ptr %0
}

; Function Attrs: mustprogress uwtable
define linkonce_odr hidden void @_ZN11ast_manager9push_backERN14parray_managerINS_28expr_dependency_array_configEE3refEPN18dependency_managerINS_22expr_dependency_configEE10dependencyE(ptr noundef nonnull align 8 dereferenceable(976) %this, ptr noundef nonnull align 8 dereferenceable(12) %r, ptr noundef %v) #5 comdat align 2 {
entry:
  %this.addr = alloca ptr, align 8
  %r.addr = alloca ptr, align 8
  %v.addr = alloca ptr, align 8
  store ptr %this, ptr %this.addr, align 8
  store ptr %r, ptr %r.addr, align 8
  store ptr %v, ptr %v.addr, align 8
  %this1 = load ptr, ptr %this.addr, align 8
  %m_expr_dependency_array_manager = getelementptr inbounds %class.ast_manager, ptr %this1, i32 0, i32 5
  %0 = load ptr, ptr %r.addr, align 8
  call void @_ZN14parray_managerIN11ast_manager28expr_dependency_array_configEE9push_backERNS2_3refERKPN18dependency_managerINS0_22expr_dependency_configEE10dependencyE(ptr noundef nonnull align 8 dereferenceable(32) %m_expr_dependency_array_manager, ptr noundef nonnull align 8 dereferenceable(12) %0, ptr noundef nonnull align 8 dereferenceable(8) %v.addr)
  ret void
}

; Function Attrs: mustprogress nounwind uwtable
define linkonce_odr hidden noundef ptr @_ZNK7obj_refIN18dependency_managerIN11ast_manager22expr_dependency_configEE10dependencyES1_EcvPS4_Ev(ptr noundef nonnull align 8 dereferenceable(16) %this) #4 comdat align 2 {
entry:
  %this.addr = alloca ptr, align 8
  store ptr %this, ptr %this.addr, align 8
  %this1 = load ptr, ptr %this.addr, align 8
  %m_obj = getelementptr inbounds %class.obj_ref.28, ptr %this1, i32 0, i32 0
  %0 = load ptr, ptr %m_obj, align 8
  ret ptr %0
}

; Function Attrs: mustprogress nounwind uwtable
define linkonce_odr hidden void @_ZN7obj_refIN18dependency_managerIN11ast_manager22expr_dependency_configEE10dependencyES1_ED2Ev(ptr noundef nonnull align 8 dereferenceable(16) %this) unnamed_addr #4 comdat align 2 personality ptr @__gxx_personality_v0 {
entry:
  %this.addr = alloca ptr, align 8
  store ptr %this, ptr %this.addr, align 8
  %this1 = load ptr, ptr %this.addr, align 8
  invoke void @_ZN7obj_refIN18dependency_managerIN11ast_manager22expr_dependency_configEE10dependencyES1_E7dec_refEv(ptr noundef nonnull align 8 dereferenceable(16) %this1)
          to label %invoke.cont unwind label %terminate.lpad

invoke.cont:                                      ; preds = %entry
  ret void

terminate.lpad:                                   ; preds = %entry
  %0 = landingpad { ptr, i32 }
          catch ptr null
  %1 = extractvalue { ptr, i32 } %0, 0
  call void @__clang_call_terminate(ptr %1) #11
  unreachable
}

; Function Attrs: mustprogress nounwind uwtable
define linkonce_odr hidden void @_ZN7obj_refI3app11ast_managerED2Ev(ptr noundef nonnull align 8 dereferenceable(16) %this) unnamed_addr #4 comdat align 2 personality ptr @__gxx_personality_v0 {
entry:
  %this.addr = alloca ptr, align 8
  store ptr %this, ptr %this.addr, align 8
  %this1 = load ptr, ptr %this.addr, align 8
  invoke void @_ZN7obj_refI3app11ast_managerE7dec_refEv(ptr noundef nonnull align 8 dereferenceable(16) %this1)
          to label %invoke.cont unwind label %terminate.lpad

invoke.cont:                                      ; preds = %entry
  ret void

terminate.lpad:                                   ; preds = %entry
  %0 = landingpad { ptr, i32 }
          catch ptr null
  %1 = extractvalue { ptr, i32 } %0, 0
  call void @__clang_call_terminate(ptr %1) #11
  unreachable
}

; Function Attrs: mustprogress uwtable
define hidden void @_ZN4goal13quick_processEbR7obj_refI4expr11ast_managerEPN18dependency_managerINS2_22expr_dependency_configEE10dependencyE(ptr noundef nonnull align 8 dereferenceable(124) %this, i1 noundef zeroext %save_first, ptr noundef nonnull align 8 dereferenceable(16) %f, ptr noundef %d) #5 align 2 personality ptr @__gxx_personality_v0 {
entry:
  %this.addr = alloca ptr, align 8
  %save_first.addr = alloca i8, align 1
  %f.addr = alloca ptr, align 8
  %d.addr = alloca ptr, align 8
  %g = alloca ptr, align 8
  %todo = alloca %class.sbuffer, align 8
  %tmp_exprs = alloca %class.ref_vector, align 8
  %exn.slot = alloca ptr, align 8
  %ehselector.slot = alloca i32, align 4
  %ref.tmp = alloca %"struct.std::pair", align 8
  %ref.tmp15 = alloca i8, align 1
  %cleanup.dest.slot = alloca i32, align 4
  %0 = alloca %"struct.std::pair", align 8
  %curr = alloca ptr, align 8
  %pol = alloca ptr, align 8
  %t = alloca ptr, align 8
  %i = alloca i32, align 4
  %ref.tmp42 = alloca %"struct.std::pair", align 8
  %ref.tmp43 = alloca ptr, align 8
  %ref.tmp46 = alloca i8, align 1
  %t56 = alloca ptr, align 8
  %i59 = alloca i32, align 4
  %ref.tmp66 = alloca %"struct.std::pair", align 8
  %ref.tmp67 = alloca ptr, align 8
  %ref.tmp70 = alloca i8, align 1
  %ref.tmp80 = alloca %"struct.std::pair", align 8
  %ref.tmp81 = alloca i8, align 1
  store ptr %this, ptr %this.addr, align 8
  %frombool = zext i1 %save_first to i8
  store i8 %frombool, ptr %save_first.addr, align 1
  store ptr %f, ptr %f.addr, align 8
  store ptr %d, ptr %d.addr, align 8
  %this1 = load ptr, ptr %this.addr, align 8
  store ptr null, ptr %g, align 8
  %call = call noundef nonnull align 8 dereferenceable(976) ptr @_ZNK4goal1mEv(ptr noundef nonnull align 8 dereferenceable(124) %this1)
  %1 = load ptr, ptr %f.addr, align 8
  %call2 = call noundef ptr @_ZNK7obj_refI4expr11ast_managerEcvPS0_Ev(ptr noundef nonnull align 8 dereferenceable(16) %1)
  %call3 = call noundef zeroext i1 @_ZNK11ast_manager6is_andEPK4expr(ptr noundef nonnull align 8 dereferenceable(976) %call, ptr noundef %call2)
  br i1 %call3, label %if.end12, label %land.lhs.true

land.lhs.true:                                    ; preds = %entry
  %call4 = call noundef nonnull align 8 dereferenceable(976) ptr @_ZNK4goal1mEv(ptr noundef nonnull align 8 dereferenceable(124) %this1)
  %2 = load ptr, ptr %f.addr, align 8
  %call5 = call noundef ptr @_ZNK7obj_refI4expr11ast_managerEcvPS0_Ev(ptr noundef nonnull align 8 dereferenceable(16) %2)
  %call6 = call noundef zeroext i1 @_ZNK11ast_manager6is_notEPK4exprRPS0_(ptr noundef nonnull align 8 dereferenceable(976) %call4, ptr noundef %call5, ptr noundef nonnull align 8 dereferenceable(8) %g)
  br i1 %call6, label %land.lhs.true7, label %if.then

land.lhs.true7:                                   ; preds = %land.lhs.true
  %call8 = call noundef nonnull align 8 dereferenceable(976) ptr @_ZNK4goal1mEv(ptr noundef nonnull align 8 dereferenceable(124) %this1)
  %3 = load ptr, ptr %g, align 8
  %call9 = call noundef zeroext i1 @_ZNK11ast_manager5is_orEPK4expr(ptr noundef nonnull align 8 dereferenceable(976) %call8, ptr noundef %3)
  br i1 %call9, label %if.end12, label %if.then

if.then:                                          ; preds = %land.lhs.true7, %land.lhs.true
  %4 = load i8, ptr %save_first.addr, align 1
  %tobool = trunc i8 %4 to i1
  br i1 %tobool, label %if.end, label %if.then10

if.then10:                                        ; preds = %if.then
  %5 = load ptr, ptr %f.addr, align 8
  %call11 = call noundef ptr @_ZNK7obj_refI4expr11ast_managerEcvPS0_Ev(ptr noundef nonnull align 8 dereferenceable(16) %5)
  %6 = load ptr, ptr %d.addr, align 8
  call void @_ZN4goal9push_backEP4exprP3appPN18dependency_managerIN11ast_manager22expr_dependency_configEE10dependencyE(ptr noundef nonnull align 8 dereferenceable(124) %this1, ptr noundef %call11, ptr noundef null, ptr noundef %6)
  br label %if.end

if.end:                                           ; preds = %if.then10, %if.then
  br label %cleanup.cont

if.end12:                                         ; preds = %land.lhs.true7, %entry
  call void @_ZN7sbufferISt4pairIP4exprbELj64EEC2Ev(ptr noundef nonnull align 8 dereferenceable(1040) %todo)
  %call13 = invoke noundef nonnull align 8 dereferenceable(976) ptr @_ZNK4goal1mEv(ptr noundef nonnull align 8 dereferenceable(124) %this1)
          to label %invoke.cont unwind label %lpad

invoke.cont:                                      ; preds = %if.end12
  invoke void @_ZN10ref_vectorI4expr11ast_managerEC2ERS1_(ptr noundef nonnull align 8 dereferenceable(16) %tmp_exprs, ptr noundef nonnull align 8 dereferenceable(976) %call13)
          to label %invoke.cont14 unwind label %lpad

invoke.cont14:                                    ; preds = %invoke.cont
  %7 = load ptr, ptr %f.addr, align 8
  store i8 1, ptr %ref.tmp15, align 1
  invoke void @_ZNSt4pairIP4exprbEC2IR7obj_refIS0_11ast_managerEbTnNSt9enable_ifIXaaclsr5_PCCPE22_MoveConstructiblePairIT_T0_EEclsr5_PCCPE30_ImplicitlyMoveConvertiblePairIS9_SA_EEEbE4typeELb1EEEOS9_OSA_(ptr noundef nonnull align 8 dereferenceable(9) %ref.tmp, ptr noundef nonnull align 8 dereferenceable(16) %7, ptr noundef nonnull align 1 dereferenceable(1) %ref.tmp15)
          to label %invoke.cont17 unwind label %lpad16

invoke.cont17:                                    ; preds = %invoke.cont14
  invoke void @_ZN6bufferISt4pairIP4exprbELb0ELj64EE9push_backEOS3_(ptr noundef nonnull align 8 dereferenceable(1040) %todo, ptr noundef nonnull align 8 dereferenceable(9) %ref.tmp)
          to label %invoke.cont18 unwind label %lpad16

invoke.cont18:                                    ; preds = %invoke.cont17
  br label %while.cond

while.cond:                                       ; preds = %if.end106, %invoke.cont18
  %call20 = invoke noundef zeroext i1 @_ZNK6bufferISt4pairIP4exprbELb0ELj64EE5emptyEv(ptr noundef nonnull align 8 dereferenceable(1040) %todo)
          to label %invoke.cont19 unwind label %lpad16

invoke.cont19:                                    ; preds = %while.cond
  %lnot = xor i1 %call20, true
  br i1 %lnot, label %while.body, label %while.end107

while.body:                                       ; preds = %invoke.cont19
  %m_inconsistent = getelementptr inbounds %class.goal, ptr %this1, i32 0, i32 10
  %bf.load = load i32, ptr %m_inconsistent, align 8
  %bf.lshr = lshr i32 %bf.load, 29
  %bf.clear = and i32 %bf.lshr, 1
  %tobool21 = icmp ne i32 %bf.clear, 0
  br i1 %tobool21, label %if.then22, label %if.end23

if.then22:                                        ; preds = %while.body
  store i32 1, ptr %cleanup.dest.slot, align 4
  br label %cleanup

lpad:                                             ; preds = %invoke.cont, %if.end12
  %8 = landingpad { ptr, i32 }
          cleanup
  %9 = extractvalue { ptr, i32 } %8, 0
  store ptr %9, ptr %exn.slot, align 8
  %10 = extractvalue { ptr, i32 } %8, 1
  store i32 %10, ptr %ehselector.slot, align 4
  br label %ehcleanup

lpad16:                                           ; preds = %if.else101, %if.then98, %invoke.cont92, %invoke.cont90, %if.then89, %invoke.cont85, %if.then79, %invoke.cont75, %if.else74, %invoke.cont71, %invoke.cont68, %while.body64, %invoke.cont57, %if.then55, %invoke.cont51, %land.lhs.true50, %invoke.cont47, %invoke.cont44, %while.body41, %invoke.cont36, %if.then35, %invoke.cont31, %land.lhs.true30, %invoke.cont24, %if.end23, %while.cond, %invoke.cont17, %invoke.cont14
  %11 = landingpad { ptr, i32 }
          cleanup
  %12 = extractvalue { ptr, i32 } %11, 0
  store ptr %12, ptr %exn.slot, align 8
  %13 = extractvalue { ptr, i32 } %11, 1
  store i32 %13, ptr %ehselector.slot, align 4
  call void @_ZN10ref_vectorI4expr11ast_managerED2Ev(ptr noundef nonnull align 8 dereferenceable(16) %tmp_exprs) #3
  br label %ehcleanup

if.end23:                                         ; preds = %while.body
  %call25 = invoke noundef nonnull align 8 dereferenceable(9) ptr @_ZN6bufferISt4pairIP4exprbELb0ELj64EE4backEv(ptr noundef nonnull align 8 dereferenceable(1040) %todo)
          to label %invoke.cont24 unwind label %lpad16

invoke.cont24:                                    ; preds = %if.end23
  call void @llvm.memcpy.p0.p0.i64(ptr align 8 %0, ptr align 8 %call25, i64 16, i1 false)
  %call26 = call noundef nonnull align 8 dereferenceable(8) ptr @_ZSt3getILm0EP4exprbEONSt13tuple_elementIXT_ESt4pairIT0_T1_EE4typeEOS6_(ptr noundef nonnull align 8 dereferenceable(9) %0) #3
  store ptr %call26, ptr %curr, align 8
  %call27 = call noundef nonnull align 1 dereferenceable(1) ptr @_ZSt3getILm1EP4exprbEONSt13tuple_elementIXT_ESt4pairIT0_T1_EE4typeEOS6_(ptr noundef nonnull align 8 dereferenceable(9) %0) #3
  store ptr %call27, ptr %pol, align 8
  invoke void @_ZN6bufferISt4pairIP4exprbELb0ELj64EE8pop_backEv(ptr noundef nonnull align 8 dereferenceable(1040) %todo)
          to label %invoke.cont28 unwind label %lpad16

invoke.cont28:                                    ; preds = %invoke.cont24
  %14 = load ptr, ptr %pol, align 8
  %15 = load i8, ptr %14, align 1
  %tobool29 = trunc i8 %15 to i1
  br i1 %tobool29, label %land.lhs.true30, label %if.else

land.lhs.true30:                                  ; preds = %invoke.cont28
  %call32 = invoke noundef nonnull align 8 dereferenceable(976) ptr @_ZNK4goal1mEv(ptr noundef nonnull align 8 dereferenceable(124) %this1)
          to label %invoke.cont31 unwind label %lpad16

invoke.cont31:                                    ; preds = %land.lhs.true30
  %16 = load ptr, ptr %curr, align 8
  %17 = load ptr, ptr %16, align 8
  %call34 = invoke noundef zeroext i1 @_ZNK11ast_manager6is_andEPK4expr(ptr noundef nonnull align 8 dereferenceable(976) %call32, ptr noundef %17)
          to label %invoke.cont33 unwind label %lpad16

invoke.cont33:                                    ; preds = %invoke.cont31
  br i1 %call34, label %if.then35, label %if.else

if.then35:                                        ; preds = %invoke.cont33
  %18 = load ptr, ptr %curr, align 8
  %19 = load ptr, ptr %18, align 8
  %call37 = invoke noundef ptr @_Z6to_appP3ast(ptr noundef %19)
          to label %invoke.cont36 unwind label %lpad16

invoke.cont36:                                    ; preds = %if.then35
  store ptr %call37, ptr %t, align 8
  %20 = load ptr, ptr %t, align 8
  %call39 = invoke noundef i32 @_ZNK3app12get_num_argsEv(ptr noundef nonnull align 8 dereferenceable(32) %20)
          to label %invoke.cont38 unwind label %lpad16

invoke.cont38:                                    ; preds = %invoke.cont36
  store i32 %call39, ptr %i, align 4
  br label %while.cond40

while.cond40:                                     ; preds = %invoke.cont48, %invoke.cont38
  %21 = load i32, ptr %i, align 4
  %cmp = icmp ugt i32 %21, 0
  br i1 %cmp, label %while.body41, label %while.end

while.body41:                                     ; preds = %while.cond40
  %22 = load i32, ptr %i, align 4
  %dec = add i32 %22, -1
  store i32 %dec, ptr %i, align 4
  %23 = load ptr, ptr %t, align 8
  %24 = load i32, ptr %i, align 4
  %call45 = invoke noundef ptr @_ZNK3app7get_argEj(ptr noundef nonnull align 8 dereferenceable(32) %23, i32 noundef %24)
          to label %invoke.cont44 unwind label %lpad16

invoke.cont44:                                    ; preds = %while.body41
  store ptr %call45, ptr %ref.tmp43, align 8
  store i8 1, ptr %ref.tmp46, align 1
  invoke void @_ZNSt4pairIP4exprbEC2IS1_bTnNSt9enable_ifIXaaclsr5_PCCPE22_MoveConstructiblePairIT_T0_EEclsr5_PCCPE30_ImplicitlyMoveConvertiblePairIS5_S6_EEEbE4typeELb1EEEOS5_OS6_(ptr noundef nonnull align 8 dereferenceable(9) %ref.tmp42, ptr noundef nonnull align 8 dereferenceable(8) %ref.tmp43, ptr noundef nonnull align 1 dereferenceable(1) %ref.tmp46)
          to label %invoke.cont47 unwind label %lpad16

invoke.cont47:                                    ; preds = %invoke.cont44
  invoke void @_ZN6bufferISt4pairIP4exprbELb0ELj64EE9push_backEOS3_(ptr noundef nonnull align 8 dereferenceable(1040) %todo, ptr noundef nonnull align 8 dereferenceable(9) %ref.tmp42)
          to label %invoke.cont48 unwind label %lpad16

invoke.cont48:                                    ; preds = %invoke.cont47
  br label %while.cond40, !llvm.loop !4

while.end:                                        ; preds = %while.cond40
  br label %if.end106

if.else:                                          ; preds = %invoke.cont33, %invoke.cont28
  %25 = load ptr, ptr %pol, align 8
  %26 = load i8, ptr %25, align 1
  %tobool49 = trunc i8 %26 to i1
  br i1 %tobool49, label %if.else74, label %land.lhs.true50

land.lhs.true50:                                  ; preds = %if.else
  %call52 = invoke noundef nonnull align 8 dereferenceable(976) ptr @_ZNK4goal1mEv(ptr noundef nonnull align 8 dereferenceable(124) %this1)
          to label %invoke.cont51 unwind label %lpad16

invoke.cont51:                                    ; preds = %land.lhs.true50
  %27 = load ptr, ptr %curr, align 8
  %28 = load ptr, ptr %27, align 8
  %call54 = invoke noundef zeroext i1 @_ZNK11ast_manager5is_orEPK4expr(ptr noundef nonnull align 8 dereferenceable(976) %call52, ptr noundef %28)
          to label %invoke.cont53 unwind label %lpad16

invoke.cont53:                                    ; preds = %invoke.cont51
  br i1 %call54, label %if.then55, label %if.else74

if.then55:                                        ; preds = %invoke.cont53
  %29 = load ptr, ptr %curr, align 8
  %30 = load ptr, ptr %29, align 8
  %call58 = invoke noundef ptr @_Z6to_appP3ast(ptr noundef %30)
          to label %invoke.cont57 unwind label %lpad16

invoke.cont57:                                    ; preds = %if.then55
  store ptr %call58, ptr %t56, align 8
  %31 = load ptr, ptr %t56, align 8
  %call61 = invoke noundef i32 @_ZNK3app12get_num_argsEv(ptr noundef nonnull align 8 dereferenceable(32) %31)
          to label %invoke.cont60 unwind label %lpad16

invoke.cont60:                                    ; preds = %invoke.cont57
  store i32 %call61, ptr %i59, align 4
  br label %while.cond62

while.cond62:                                     ; preds = %invoke.cont72, %invoke.cont60
  %32 = load i32, ptr %i59, align 4
  %cmp63 = icmp ugt i32 %32, 0
  br i1 %cmp63, label %while.body64, label %while.end73

while.body64:                                     ; preds = %while.cond62
  %33 = load i32, ptr %i59, align 4
  %dec65 = add i32 %33, -1
  store i32 %dec65, ptr %i59, align 4
  %34 = load ptr, ptr %t56, align 8
  %35 = load i32, ptr %i59, align 4
  %call69 = invoke noundef ptr @_ZNK3app7get_argEj(ptr noundef nonnull align 8 dereferenceable(32) %34, i32 noundef %35)
          to label %invoke.cont68 unwind label %lpad16

invoke.cont68:                                    ; preds = %while.body64
  store ptr %call69, ptr %ref.tmp67, align 8
  store i8 0, ptr %ref.tmp70, align 1
  invoke void @_ZNSt4pairIP4exprbEC2IS1_bTnNSt9enable_ifIXaaclsr5_PCCPE22_MoveConstructiblePairIT_T0_EEclsr5_PCCPE30_ImplicitlyMoveConvertiblePairIS5_S6_EEEbE4typeELb1EEEOS5_OS6_(ptr noundef nonnull align 8 dereferenceable(9) %ref.tmp66, ptr noundef nonnull align 8 dereferenceable(8) %ref.tmp67, ptr noundef nonnull align 1 dereferenceable(1) %ref.tmp70)
          to label %invoke.cont71 unwind label %lpad16

invoke.cont71:                                    ; preds = %invoke.cont68
  invoke void @_ZN6bufferISt4pairIP4exprbELb0ELj64EE9push_backEOS3_(ptr noundef nonnull align 8 dereferenceable(1040) %todo, ptr noundef nonnull align 8 dereferenceable(9) %ref.tmp66)
          to label %invoke.cont72 unwind label %lpad16

invoke.cont72:                                    ; preds = %invoke.cont71
  br label %while.cond62, !llvm.loop !6

while.end73:                                      ; preds = %while.cond62
  br label %if.end105

if.else74:                                        ; preds = %invoke.cont53, %if.else
  %call76 = invoke noundef nonnull align 8 dereferenceable(976) ptr @_ZNK4goal1mEv(ptr noundef nonnull align 8 dereferenceable(124) %this1)
          to label %invoke.cont75 unwind label %lpad16

invoke.cont75:                                    ; preds = %if.else74
  %36 = load ptr, ptr %curr, align 8
  %37 = load ptr, ptr %36, align 8
  %call78 = invoke noundef zeroext i1 @_ZNK11ast_manager6is_notEPK4exprRPS0_(ptr noundef nonnull align 8 dereferenceable(976) %call76, ptr noundef %37, ptr noundef nonnull align 8 dereferenceable(8) %g)
          to label %invoke.cont77 unwind label %lpad16

invoke.cont77:                                    ; preds = %invoke.cont75
  br i1 %call78, label %if.then79, label %if.else87

if.then79:                                        ; preds = %invoke.cont77
  %38 = load ptr, ptr %pol, align 8
  %39 = load i8, ptr %38, align 1
  %tobool82 = trunc i8 %39 to i1
  %lnot83 = xor i1 %tobool82, true
  %frombool84 = zext i1 %lnot83 to i8
  store i8 %frombool84, ptr %ref.tmp81, align 1
  invoke void @_ZNSt4pairIP4exprbEC2IRS1_bTnNSt9enable_ifIXaaclsr5_PCCPE22_MoveConstructiblePairIT_T0_EEclsr5_PCCPE30_ImplicitlyMoveConvertiblePairIS6_S7_EEEbE4typeELb1EEEOS6_OS7_(ptr noundef nonnull align 8 dereferenceable(9) %ref.tmp80, ptr noundef nonnull align 8 dereferenceable(8) %g, ptr noundef nonnull align 1 dereferenceable(1) %ref.tmp81)
          to label %invoke.cont85 unwind label %lpad16

invoke.cont85:                                    ; preds = %if.then79
  invoke void @_ZN6bufferISt4pairIP4exprbELb0ELj64EE9push_backEOS3_(ptr noundef nonnull align 8 dereferenceable(1040) %todo, ptr noundef nonnull align 8 dereferenceable(9) %ref.tmp80)
          to label %invoke.cont86 unwind label %lpad16

invoke.cont86:                                    ; preds = %invoke.cont85
  br label %if.end104

if.else87:                                        ; preds = %invoke.cont77
  %40 = load ptr, ptr %pol, align 8
  %41 = load i8, ptr %40, align 1
  %tobool88 = trunc i8 %41 to i1
  br i1 %tobool88, label %if.end96, label %if.then89

if.then89:                                        ; preds = %if.else87
  %call91 = invoke noundef nonnull align 8 dereferenceable(976) ptr @_ZNK4goal1mEv(ptr noundef nonnull align 8 dereferenceable(124) %this1)
          to label %invoke.cont90 unwind label %lpad16

invoke.cont90:                                    ; preds = %if.then89
  %42 = load ptr, ptr %curr, align 8
  %43 = load ptr, ptr %42, align 8
  %call93 = invoke noundef ptr @_ZN11ast_manager6mk_notEP4expr(ptr noundef nonnull align 8 dereferenceable(976) %call91, ptr noundef %43)
          to label %invoke.cont92 unwind label %lpad16

invoke.cont92:                                    ; preds = %invoke.cont90
  %44 = load ptr, ptr %curr, align 8
  store ptr %call93, ptr %44, align 8
  %45 = load ptr, ptr %curr, align 8
  %46 = load ptr, ptr %45, align 8
  %call95 = invoke noundef nonnull align 8 dereferenceable(16) ptr @_ZN15ref_vector_coreI4expr19ref_manager_wrapperIS0_11ast_managerEE9push_backEPS0_(ptr noundef nonnull align 8 dereferenceable(16) %tmp_exprs, ptr noundef %46)
          to label %invoke.cont94 unwind label %lpad16

invoke.cont94:                                    ; preds = %invoke.cont92
  br label %if.end96

if.end96:                                         ; preds = %invoke.cont94, %if.else87
  %47 = load i8, ptr %save_first.addr, align 1
  %tobool97 = trunc i8 %47 to i1
  br i1 %tobool97, label %if.then98, label %if.else101

if.then98:                                        ; preds = %if.end96
  %48 = load ptr, ptr %curr, align 8
  %49 = load ptr, ptr %48, align 8
  %50 = load ptr, ptr %f.addr, align 8
  %call100 = invoke noundef nonnull align 8 dereferenceable(16) ptr @_ZN7obj_refI4expr11ast_managerEaSEPS0_(ptr noundef nonnull align 8 dereferenceable(16) %50, ptr noundef %49)
          to label %invoke.cont99 unwind label %lpad16

invoke.cont99:                                    ; preds = %if.then98
  store i8 0, ptr %save_first.addr, align 1
  br label %if.end103

if.else101:                                       ; preds = %if.end96
  %51 = load ptr, ptr %curr, align 8
  %52 = load ptr, ptr %51, align 8
  %53 = load ptr, ptr %d.addr, align 8
  invoke void @_ZN4goal9push_backEP4exprP3appPN18dependency_managerIN11ast_manager22expr_dependency_configEE10dependencyE(ptr noundef nonnull align 8 dereferenceable(124) %this1, ptr noundef %52, ptr noundef null, ptr noundef %53)
          to label %invoke.cont102 unwind label %lpad16

invoke.cont102:                                   ; preds = %if.else101
  br label %if.end103

if.end103:                                        ; preds = %invoke.cont102, %invoke.cont99
  br label %if.end104

if.end104:                                        ; preds = %if.end103, %invoke.cont86
  br label %if.end105

if.end105:                                        ; preds = %if.end104, %while.end73
  br label %if.end106

if.end106:                                        ; preds = %if.end105, %while.end
  br label %while.cond, !llvm.loop !7

while.end107:                                     ; preds = %invoke.cont19
  store i32 0, ptr %cleanup.dest.slot, align 4
  br label %cleanup

cleanup:                                          ; preds = %while.end107, %if.then22
  call void @_ZN10ref_vectorI4expr11ast_managerED2Ev(ptr noundef nonnull align 8 dereferenceable(16) %tmp_exprs) #3
  call void @_ZN7sbufferISt4pairIP4exprbELj64EED2Ev(ptr noundef nonnull align 8 dereferenceable(1040) %todo) #3
  %cleanup.dest = load i32, ptr %cleanup.dest.slot, align 4
  switch i32 %cleanup.dest, label %unreachable [
    i32 0, label %cleanup.cont
    i32 1, label %cleanup.cont
  ]

cleanup.cont:                                     ; preds = %cleanup, %cleanup, %if.end
  ret void

ehcleanup:                                        ; preds = %lpad16, %lpad
  call void @_ZN7sbufferISt4pairIP4exprbELj64EED2Ev(ptr noundef nonnull align 8 dereferenceable(1040) %todo) #3
  br label %eh.resume

eh.resume:                                        ; preds = %ehcleanup
  %exn = load ptr, ptr %exn.slot, align 8
  %sel = load i32, ptr %ehselector.slot, align 4
  %lpad.val = insertvalue { ptr, i32 } poison, ptr %exn, 0
  %lpad.val109 = insertvalue { ptr, i32 } %lpad.val, i32 %sel, 1
  resume { ptr, i32 } %lpad.val109

unreachable:                                      ; preds = %cleanup
  unreachable
}

; Function Attrs: mustprogress uwtable
define linkonce_odr hidden noundef zeroext i1 @_ZNK11ast_manager6is_andEPK4expr(ptr noundef nonnull align 8 dereferenceable(976) %this, ptr noundef %n) #5 comdat align 2 {
entry:
  %this.addr = alloca ptr, align 8
  %n.addr = alloca ptr, align 8
  store ptr %this, ptr %this.addr, align 8
  store ptr %n, ptr %n.addr, align 8
  %0 = load ptr, ptr %n.addr, align 8
  %call = call noundef zeroext i1 @_Z9is_app_ofPK4exprii(ptr noundef %0, i32 noundef 0, i32 noundef 5)
  ret i1 %call
}

; Function Attrs: mustprogress nounwind uwtable
define linkonce_odr hidden noundef ptr @_ZNK7obj_refI4expr11ast_managerEcvPS0_Ev(ptr noundef nonnull align 8 dereferenceable(16) %this) #4 comdat align 2 {
entry:
  %this.addr = alloca ptr, align 8
  store ptr %this, ptr %this.addr, align 8
  %this1 = load ptr, ptr %this.addr, align 8
  %m_obj = getelementptr inbounds %class.obj_ref.29, ptr %this1, i32 0, i32 0
  %0 = load ptr, ptr %m_obj, align 8
  ret ptr %0
}

; Function Attrs: mustprogress uwtable
define linkonce_odr hidden noundef zeroext i1 @_ZNK11ast_manager6is_notEPK4exprRPS0_(ptr noundef nonnull align 8 dereferenceable(976) %this, ptr noundef %n, ptr noundef nonnull align 8 dereferenceable(8) %s) #5 comdat align 2 {
entry:
  %retval = alloca i1, align 1
  %this.addr = alloca ptr, align 8
  %n.addr = alloca ptr, align 8
  %s.addr = alloca ptr, align 8
  store ptr %this, ptr %this.addr, align 8
  store ptr %n, ptr %n.addr, align 8
  store ptr %s, ptr %s.addr, align 8
  %this1 = load ptr, ptr %this.addr, align 8
  %0 = load ptr, ptr %n.addr, align 8
  %call = call noundef zeroext i1 @_ZNK11ast_manager6is_notEPK4expr(ptr noundef nonnull align 8 dereferenceable(976) %this1, ptr noundef %0)
  br i1 %call, label %land.lhs.true, label %if.end

land.lhs.true:                                    ; preds = %entry
  %1 = load ptr, ptr %n.addr, align 8
  %call2 = call noundef ptr @_Z6to_appPK3ast(ptr noundef %1)
  %call3 = call noundef i32 @_ZNK3app12get_num_argsEv(ptr noundef nonnull align 8 dereferenceable(32) %call2)
  %cmp = icmp eq i32 %call3, 1
  br i1 %cmp, label %if.then, label %if.end

if.then:                                          ; preds = %land.lhs.true
  %2 = load ptr, ptr %n.addr, align 8
  %call4 = call noundef ptr @_Z6to_appPK3ast(ptr noundef %2)
  %call5 = call noundef ptr @_ZNK3app7get_argEj(ptr noundef nonnull align 8 dereferenceable(32) %call4, i32 noundef 0)
  %3 = load ptr, ptr %s.addr, align 8
  store ptr %call5, ptr %3, align 8
  store i1 true, ptr %retval, align 1
  br label %return

if.end:                                           ; preds = %land.lhs.true, %entry
  store i1 false, ptr %retval, align 1
  br label %return

return:                                           ; preds = %if.end, %if.then
  %4 = load i1, ptr %retval, align 1
  ret i1 %4
}

; Function Attrs: mustprogress uwtable
define linkonce_odr hidden noundef zeroext i1 @_ZNK11ast_manager5is_orEPK4expr(ptr noundef nonnull align 8 dereferenceable(976) %this, ptr noundef %n) #5 comdat align 2 {
entry:
  %this.addr = alloca ptr, align 8
  %n.addr = alloca ptr, align 8
  store ptr %this, ptr %this.addr, align 8
  store ptr %n, ptr %n.addr, align 8
  %0 = load ptr, ptr %n.addr, align 8
  %call = call noundef zeroext i1 @_Z9is_app_ofPK4exprii(ptr noundef %0, i32 noundef 0, i32 noundef 6)
  ret i1 %call
}

; Function Attrs: mustprogress nounwind uwtable
define linkonce_odr hidden void @_ZN7sbufferISt4pairIP4exprbELj64EEC2Ev(ptr noundef nonnull align 8 dereferenceable(1040) %this) unnamed_addr #4 comdat align 2 {
entry:
  %this.addr = alloca ptr, align 8
  store ptr %this, ptr %this.addr, align 8
  %this1 = load ptr, ptr %this.addr, align 8
  %0 = getelementptr inbounds i8, ptr %this1, i64 0
  call void @llvm.memset.p0.i64(ptr align 8 %0, i8 0, i64 1040, i1 false)
  call void @_ZN6bufferISt4pairIP4exprbELb0ELj64EEC2Ev(ptr noundef nonnull align 8 dereferenceable(1040) %this1) #3
  ret void
}

; Function Attrs: mustprogress uwtable
define linkonce_odr hidden void @_ZN10ref_vectorI4expr11ast_managerEC2ERS1_(ptr noundef nonnull align 8 dereferenceable(16) %this, ptr noundef nonnull align 8 dereferenceable(976) %m) unnamed_addr #5 comdat align 2 {
entry:
  %this.addr = alloca ptr, align 8
  %m.addr = alloca ptr, align 8
  %ref.tmp = alloca %class.ref_manager_wrapper, align 8
  store ptr %this, ptr %this.addr, align 8
  store ptr %m, ptr %m.addr, align 8
  %this1 = load ptr, ptr %this.addr, align 8
  %0 = load ptr, ptr %m.addr, align 8
  call void @_ZN19ref_manager_wrapperI4expr11ast_managerEC2ERS1_(ptr noundef nonnull align 8 dereferenceable(8) %ref.tmp, ptr noundef nonnull align 8 dereferenceable(976) %0)
  call void @_ZN15ref_vector_coreI4expr19ref_manager_wrapperIS0_11ast_managerEEC2ERKS3_(ptr noundef nonnull align 8 dereferenceable(16) %this1, ptr noundef nonnull align 8 dereferenceable(8) %ref.tmp)
  ret void
}

; Function Attrs: mustprogress uwtable
define linkonce_odr hidden void @_ZN6bufferISt4pairIP4exprbELb0ELj64EE9push_backEOS3_(ptr noundef nonnull align 8 dereferenceable(1040) %this, ptr noundef nonnull align 8 dereferenceable(9) %elem) #5 comdat align 2 {
entry:
  %this.addr = alloca ptr, align 8
  %elem.addr = alloca ptr, align 8
  store ptr %this, ptr %this.addr, align 8
  store ptr %elem, ptr %elem.addr, align 8
  %this1 = load ptr, ptr %this.addr, align 8
  %m_pos = getelementptr inbounds %class.buffer, ptr %this1, i32 0, i32 1
  %0 = load i32, ptr %m_pos, align 8
  %m_capacity = getelementptr inbounds %class.buffer, ptr %this1, i32 0, i32 2
  %1 = load i32, ptr %m_capacity, align 4
  %cmp = icmp uge i32 %0, %1
  br i1 %cmp, label %if.then, label %if.end

if.then:                                          ; preds = %entry
  call void @_ZN6bufferISt4pairIP4exprbELb0ELj64EE6expandEv(ptr noundef nonnull align 8 dereferenceable(1040) %this1)
  br label %if.end

if.end:                                           ; preds = %if.then, %entry
  %m_buffer = getelementptr inbounds %class.buffer, ptr %this1, i32 0, i32 0
  %2 = load ptr, ptr %m_buffer, align 8
  %m_pos2 = getelementptr inbounds %class.buffer, ptr %this1, i32 0, i32 1
  %3 = load i32, ptr %m_pos2, align 8
  %idx.ext = zext i32 %3 to i64
  %add.ptr = getelementptr inbounds %"struct.std::pair", ptr %2, i64 %idx.ext
  %4 = load ptr, ptr %elem.addr, align 8
  call void @llvm.memcpy.p0.p0.i64(ptr align 8 %add.ptr, ptr align 8 %4, i64 16, i1 false)
  %m_pos3 = getelementptr inbounds %class.buffer, ptr %this1, i32 0, i32 1
  %5 = load i32, ptr %m_pos3, align 8
  %inc = add i32 %5, 1
  store i32 %inc, ptr %m_pos3, align 8
  ret void
}

; Function Attrs: mustprogress uwtable
define linkonce_odr hidden void @_ZNSt4pairIP4exprbEC2IR7obj_refIS0_11ast_managerEbTnNSt9enable_ifIXaaclsr5_PCCPE22_MoveConstructiblePairIT_T0_EEclsr5_PCCPE30_ImplicitlyMoveConvertiblePairIS9_SA_EEEbE4typeELb1EEEOS9_OSA_(ptr noundef nonnull align 8 dereferenceable(9) %this, ptr noundef nonnull align 8 dereferenceable(16) %__x, ptr noundef nonnull align 1 dereferenceable(1) %__y) unnamed_addr #5 comdat align 2 {
entry:
  %this.addr = alloca ptr, align 8
  %__x.addr = alloca ptr, align 8
  %__y.addr = alloca ptr, align 8
  store ptr %this, ptr %this.addr, align 8
  store ptr %__x, ptr %__x.addr, align 8
  store ptr %__y, ptr %__y.addr, align 8
  %this1 = load ptr, ptr %this.addr, align 8
  %first = getelementptr inbounds %"struct.std::pair", ptr %this1, i32 0, i32 0
  %0 = load ptr, ptr %__x.addr, align 8
  %call = call noundef ptr @_ZNK7obj_refI4expr11ast_managerEcvPS0_Ev(ptr noundef nonnull align 8 dereferenceable(16) %0)
  store ptr %call, ptr %first, align 8
  %second = getelementptr inbounds %"struct.std::pair", ptr %this1, i32 0, i32 1
  %1 = load ptr, ptr %__y.addr, align 8
  %2 = load i8, ptr %1, align 1
  %tobool = trunc i8 %2 to i1
  %frombool = zext i1 %tobool to i8
  store i8 %frombool, ptr %second, align 8
  ret void
}

; Function Attrs: mustprogress nounwind uwtable
define linkonce_odr hidden noundef zeroext i1 @_ZNK6bufferISt4pairIP4exprbELb0ELj64EE5emptyEv(ptr noundef nonnull align 8 dereferenceable(1040) %this) #4 comdat align 2 {
entry:
  %this.addr = alloca ptr, align 8
  store ptr %this, ptr %this.addr, align 8
  %this1 = load ptr, ptr %this.addr, align 8
  %m_pos = getelementptr inbounds %class.buffer, ptr %this1, i32 0, i32 1
  %0 = load i32, ptr %m_pos, align 8
  %cmp = icmp eq i32 %0, 0
  ret i1 %cmp
}

; Function Attrs: mustprogress nounwind uwtable
define linkonce_odr hidden noundef nonnull align 8 dereferenceable(9) ptr @_ZN6bufferISt4pairIP4exprbELb0ELj64EE4backEv(ptr noundef nonnull align 8 dereferenceable(1040) %this) #4 comdat align 2 {
entry:
  %this.addr = alloca ptr, align 8
  store ptr %this, ptr %this.addr, align 8
  %this1 = load ptr, ptr %this.addr, align 8
  %m_buffer = getelementptr inbounds %class.buffer, ptr %this1, i32 0, i32 0
  %0 = load ptr, ptr %m_buffer, align 8
  %m_pos = getelementptr inbounds %class.buffer, ptr %this1, i32 0, i32 1
  %1 = load i32, ptr %m_pos, align 8
  %sub = sub i32 %1, 1
  %idxprom = zext i32 %sub to i64
  %arrayidx = getelementptr inbounds %"struct.std::pair", ptr %0, i64 %idxprom
  ret ptr %arrayidx
}

; Function Attrs: nocallback nofree nounwind willreturn memory(argmem: readwrite)
declare void @llvm.memcpy.p0.p0.i64(ptr noalias nocapture writeonly, ptr noalias nocapture readonly, i64, i1 immarg) #7

; Function Attrs: mustprogress nounwind uwtable
define linkonce_odr hidden noundef nonnull align 8 dereferenceable(8) ptr @_ZSt3getILm0EP4exprbEONSt13tuple_elementIXT_ESt4pairIT0_T1_EE4typeEOS6_(ptr noundef nonnull align 8 dereferenceable(9) %__in) #4 comdat {
entry:
  %__in.addr = alloca ptr, align 8
  store ptr %__in, ptr %__in.addr, align 8
  %0 = load ptr, ptr %__in.addr, align 8
  %call = call noundef nonnull align 8 dereferenceable(8) ptr @_ZNSt10__pair_getILm0EE10__move_getIP4exprbEEOT_OSt4pairIS4_T0_E(ptr noundef nonnull align 8 dereferenceable(9) %0) #3
  ret ptr %call
}

; Function Attrs: mustprogress nounwind uwtable
define linkonce_odr hidden noundef nonnull align 1 dereferenceable(1) ptr @_ZSt3getILm1EP4exprbEONSt13tuple_elementIXT_ESt4pairIT0_T1_EE4typeEOS6_(ptr noundef nonnull align 8 dereferenceable(9) %__in) #4 comdat {
entry:
  %__in.addr = alloca ptr, align 8
  store ptr %__in, ptr %__in.addr, align 8
  %0 = load ptr, ptr %__in.addr, align 8
  %call = call noundef nonnull align 1 dereferenceable(1) ptr @_ZNSt10__pair_getILm1EE10__move_getIP4exprbEEOT0_OSt4pairIT_S4_E(ptr noundef nonnull align 8 dereferenceable(9) %0) #3
  ret ptr %call
}

; Function Attrs: mustprogress nounwind uwtable
define linkonce_odr hidden void @_ZN6bufferISt4pairIP4exprbELb0ELj64EE8pop_backEv(ptr noundef nonnull align 8 dereferenceable(1040) %this) #4 comdat align 2 {
entry:
  %this.addr = alloca ptr, align 8
  store ptr %this, ptr %this.addr, align 8
  %this1 = load ptr, ptr %this.addr, align 8
  %m_pos = getelementptr inbounds %class.buffer, ptr %this1, i32 0, i32 1
  %0 = load i32, ptr %m_pos, align 8
  %dec = add i32 %0, -1
  store i32 %dec, ptr %m_pos, align 8
  ret void
}

; Function Attrs: mustprogress nounwind uwtable
define linkonce_odr hidden noundef ptr @_Z6to_appP3ast(ptr noundef %n) #4 comdat {
entry:
  %n.addr = alloca ptr, align 8
  store ptr %n, ptr %n.addr, align 8
  %0 = load ptr, ptr %n.addr, align 8
  ret ptr %0
}

; Function Attrs: mustprogress nounwind uwtable
define linkonce_odr hidden noundef i32 @_ZNK3app12get_num_argsEv(ptr noundef nonnull align 8 dereferenceable(32) %this) #4 comdat align 2 {
entry:
  %this.addr = alloca ptr, align 8
  store ptr %this, ptr %this.addr, align 8
  %this1 = load ptr, ptr %this.addr, align 8
  %m_num_args = getelementptr inbounds %class.app, ptr %this1, i32 0, i32 2
  %0 = load i32, ptr %m_num_args, align 8
  ret i32 %0
}

; Function Attrs: mustprogress nounwind uwtable
define linkonce_odr hidden noundef ptr @_ZNK3app7get_argEj(ptr noundef nonnull align 8 dereferenceable(32) %this, i32 noundef %idx) #4 comdat align 2 {
entry:
  %this.addr = alloca ptr, align 8
  %idx.addr = alloca i32, align 4
  store ptr %this, ptr %this.addr, align 8
  store i32 %idx, ptr %idx.addr, align 4
  %this1 = load ptr, ptr %this.addr, align 8
  %m_args = getelementptr inbounds %class.app, ptr %this1, i32 0, i32 3
  %0 = load i32, ptr %idx.addr, align 4
  %idxprom = zext i32 %0 to i64
  %arrayidx = getelementptr inbounds [0 x ptr], ptr %m_args, i64 0, i64 %idxprom
  %1 = load ptr, ptr %arrayidx, align 8
  ret ptr %1
}

; Function Attrs: mustprogress nounwind uwtable
define linkonce_odr hidden void @_ZNSt4pairIP4exprbEC2IS1_bTnNSt9enable_ifIXaaclsr5_PCCPE22_MoveConstructiblePairIT_T0_EEclsr5_PCCPE30_ImplicitlyMoveConvertiblePairIS5_S6_EEEbE4typeELb1EEEOS5_OS6_(ptr noundef nonnull align 8 dereferenceable(9) %this, ptr noundef nonnull align 8 dereferenceable(8) %__x, ptr noundef nonnull align 1 dereferenceable(1) %__y) unnamed_addr #4 comdat align 2 {
entry:
  %this.addr = alloca ptr, align 8
  %__x.addr = alloca ptr, align 8
  %__y.addr = alloca ptr, align 8
  store ptr %this, ptr %this.addr, align 8
  store ptr %__x, ptr %__x.addr, align 8
  store ptr %__y, ptr %__y.addr, align 8
  %this1 = load ptr, ptr %this.addr, align 8
  %first = getelementptr inbounds %"struct.std::pair", ptr %this1, i32 0, i32 0
  %0 = load ptr, ptr %__x.addr, align 8
  %1 = load ptr, ptr %0, align 8
  store ptr %1, ptr %first, align 8
  %second = getelementptr inbounds %"struct.std::pair", ptr %this1, i32 0, i32 1
  %2 = load ptr, ptr %__y.addr, align 8
  %3 = load i8, ptr %2, align 1
  %tobool = trunc i8 %3 to i1
  %frombool = zext i1 %tobool to i8
  store i8 %frombool, ptr %second, align 8
  ret void
}

; Function Attrs: mustprogress nounwind uwtable
define linkonce_odr hidden void @_ZNSt4pairIP4exprbEC2IRS1_bTnNSt9enable_ifIXaaclsr5_PCCPE22_MoveConstructiblePairIT_T0_EEclsr5_PCCPE30_ImplicitlyMoveConvertiblePairIS6_S7_EEEbE4typeELb1EEEOS6_OS7_(ptr noundef nonnull align 8 dereferenceable(9) %this, ptr noundef nonnull align 8 dereferenceable(8) %__x, ptr noundef nonnull align 1 dereferenceable(1) %__y) unnamed_addr #4 comdat align 2 {
entry:
  %this.addr = alloca ptr, align 8
  %__x.addr = alloca ptr, align 8
  %__y.addr = alloca ptr, align 8
  store ptr %this, ptr %this.addr, align 8
  store ptr %__x, ptr %__x.addr, align 8
  store ptr %__y, ptr %__y.addr, align 8
  %this1 = load ptr, ptr %this.addr, align 8
  %first = getelementptr inbounds %"struct.std::pair", ptr %this1, i32 0, i32 0
  %0 = load ptr, ptr %__x.addr, align 8
  %1 = load ptr, ptr %0, align 8
  store ptr %1, ptr %first, align 8
  %second = getelementptr inbounds %"struct.std::pair", ptr %this1, i32 0, i32 1
  %2 = load ptr, ptr %__y.addr, align 8
  %3 = load i8, ptr %2, align 1
  %tobool = trunc i8 %3 to i1
  %frombool = zext i1 %tobool to i8
  store i8 %frombool, ptr %second, align 8
  ret void
}

; Function Attrs: mustprogress uwtable
define linkonce_odr hidden noundef ptr @_ZN11ast_manager6mk_notEP4expr(ptr noundef nonnull align 8 dereferenceable(976) %this, ptr noundef %n) #5 comdat align 2 {
entry:
  %this.addr = alloca ptr, align 8
  %n.addr = alloca ptr, align 8
  store ptr %this, ptr %this.addr, align 8
  store ptr %n, ptr %n.addr, align 8
  %this1 = load ptr, ptr %this.addr, align 8
  %0 = load ptr, ptr %n.addr, align 8
  %call = call noundef ptr @_ZN11ast_manager6mk_appEiiP4expr(ptr noundef nonnull align 8 dereferenceable(976) %this1, i32 noundef 0, i32 noundef 8, ptr noundef %0)
  ret ptr %call
}

; Function Attrs: mustprogress uwtable
define linkonce_odr hidden noundef nonnull align 8 dereferenceable(16) ptr @_ZN15ref_vector_coreI4expr19ref_manager_wrapperIS0_11ast_managerEE9push_backEPS0_(ptr noundef nonnull align 8 dereferenceable(16) %this, ptr noundef %n) #5 comdat align 2 {
entry:
  %this.addr = alloca ptr, align 8
  %n.addr = alloca ptr, align 8
  store ptr %this, ptr %this.addr, align 8
  store ptr %n, ptr %n.addr, align 8
  %this1 = load ptr, ptr %this.addr, align 8
  %0 = load ptr, ptr %n.addr, align 8
  call void @_ZN15ref_vector_coreI4expr19ref_manager_wrapperIS0_11ast_managerEE7inc_refEPS0_(ptr noundef nonnull align 8 dereferenceable(16) %this1, ptr noundef %0)
  %m_nodes = getelementptr inbounds %class.ref_vector_core, ptr %this1, i32 0, i32 1
  %call = call noundef nonnull align 8 dereferenceable(8) ptr @_ZN6vectorIP4exprLb0EjE9push_backERKS1_(ptr noundef nonnull align 8 dereferenceable(8) %m_nodes, ptr noundef nonnull align 8 dereferenceable(8) %n.addr)
  ret ptr %this1
}

; Function Attrs: mustprogress uwtable
define linkonce_odr hidden noundef nonnull align 8 dereferenceable(16) ptr @_ZN7obj_refI4expr11ast_managerEaSEPS0_(ptr noundef nonnull align 8 dereferenceable(16) %this, ptr noundef %n) #5 comdat align 2 {
entry:
  %this.addr = alloca ptr, align 8
  %n.addr = alloca ptr, align 8
  store ptr %this, ptr %this.addr, align 8
  store ptr %n, ptr %n.addr, align 8
  %this1 = load ptr, ptr %this.addr, align 8
  %0 = load ptr, ptr %n.addr, align 8
  %tobool = icmp ne ptr %0, null
  br i1 %tobool, label %if.then, label %if.end

if.then:                                          ; preds = %entry
  %m_manager = getelementptr inbounds %class.obj_ref.29, ptr %this1, i32 0, i32 1
  %1 = load ptr, ptr %m_manager, align 8
  %2 = load ptr, ptr %n.addr, align 8
  call void @_ZN11ast_manager7inc_refEP3ast(ptr noundef nonnull align 8 dereferenceable(976) %1, ptr noundef %2)
  br label %if.end

if.end:                                           ; preds = %if.then, %entry
  call void @_ZN7obj_refI4expr11ast_managerE7dec_refEv(ptr noundef nonnull align 8 dereferenceable(16) %this1)
  %3 = load ptr, ptr %n.addr, align 8
  %m_obj = getelementptr inbounds %class.obj_ref.29, ptr %this1, i32 0, i32 0
  store ptr %3, ptr %m_obj, align 8
  ret ptr %this1
}

; Function Attrs: mustprogress nounwind uwtable
define linkonce_odr hidden void @_ZN10ref_vectorI4expr11ast_managerED2Ev(ptr noundef nonnull align 8 dereferenceable(16) %this) unnamed_addr #4 comdat align 2 {
entry:
  %this.addr = alloca ptr, align 8
  store ptr %this, ptr %this.addr, align 8
  %this1 = load ptr, ptr %this.addr, align 8
  call void @_ZN15ref_vector_coreI4expr19ref_manager_wrapperIS0_11ast_managerEED2Ev(ptr noundef nonnull align 8 dereferenceable(16) %this1) #3
  ret void
}

; Function Attrs: mustprogress nounwind uwtable
define linkonce_odr hidden void @_ZN7sbufferISt4pairIP4exprbELj64EED2Ev(ptr noundef nonnull align 8 dereferenceable(1040) %this) unnamed_addr #4 comdat align 2 {
entry:
  %this.addr = alloca ptr, align 8
  store ptr %this, ptr %this.addr, align 8
  %this1 = load ptr, ptr %this.addr, align 8
  call void @_ZN6bufferISt4pairIP4exprbELb0ELj64EED2Ev(ptr noundef nonnull align 8 dereferenceable(1040) %this1) #3
  ret void
}

; Function Attrs: mustprogress uwtable
define hidden void @_ZN4goal11process_andEbP3appS1_PN18dependency_managerIN11ast_manager22expr_dependency_configEE10dependencyER7obj_refI4exprS3_ERS8_IS0_S3_E(ptr noundef nonnull align 8 dereferenceable(124) %this, i1 noundef zeroext %save_first, ptr noundef %f, ptr noundef %pr, ptr noundef %d, ptr noundef nonnull align 8 dereferenceable(16) %out_f, ptr noundef nonnull align 8 dereferenceable(16) %out_pr) #5 align 2 {
entry:
  %this.addr = alloca ptr, align 8
  %save_first.addr = alloca i8, align 1
  %f.addr = alloca ptr, align 8
  %pr.addr = alloca ptr, align 8
  %d.addr = alloca ptr, align 8
  %out_f.addr = alloca ptr, align 8
  %out_pr.addr = alloca ptr, align 8
  %num = alloca i32, align 4
  %i = alloca i32, align 4
  store ptr %this, ptr %this.addr, align 8
  %frombool = zext i1 %save_first to i8
  store i8 %frombool, ptr %save_first.addr, align 1
  store ptr %f, ptr %f.addr, align 8
  store ptr %pr, ptr %pr.addr, align 8
  store ptr %d, ptr %d.addr, align 8
  store ptr %out_f, ptr %out_f.addr, align 8
  store ptr %out_pr, ptr %out_pr.addr, align 8
  %this1 = load ptr, ptr %this.addr, align 8
  %0 = load ptr, ptr %f.addr, align 8
  %call = call noundef i32 @_ZNK3app12get_num_argsEv(ptr noundef nonnull align 8 dereferenceable(32) %0)
  store i32 %call, ptr %num, align 4
  store i32 0, ptr %i, align 4
  br label %for.cond

for.cond:                                         ; preds = %for.inc, %entry
  %1 = load i32, ptr %i, align 4
  %2 = load i32, ptr %num, align 4
  %cmp = icmp ult i32 %1, %2
  br i1 %cmp, label %for.body, label %for.end

for.body:                                         ; preds = %for.cond
  %m_inconsistent = getelementptr inbounds %class.goal, ptr %this1, i32 0, i32 10
  %bf.load = load i32, ptr %m_inconsistent, align 8
  %bf.lshr = lshr i32 %bf.load, 29
  %bf.clear = and i32 %bf.lshr, 1
  %tobool = icmp ne i32 %bf.clear, 0
  br i1 %tobool, label %if.then, label %if.end

if.then:                                          ; preds = %for.body
  br label %for.end

if.end:                                           ; preds = %for.body
  %3 = load i8, ptr %save_first.addr, align 1
  %tobool2 = trunc i8 %3 to i1
  br i1 %tobool2, label %land.rhs, label %land.end

land.rhs:                                         ; preds = %if.end
  %4 = load i32, ptr %i, align 4
  %cmp3 = icmp eq i32 %4, 0
  br label %land.end

land.end:                                         ; preds = %land.rhs, %if.end
  %5 = phi i1 [ false, %if.end ], [ %cmp3, %land.rhs ]
  %6 = load ptr, ptr %f.addr, align 8
  %7 = load i32, ptr %i, align 4
  %call4 = call noundef ptr @_ZNK3app7get_argEj(ptr noundef nonnull align 8 dereferenceable(32) %6, i32 noundef %7)
  %call5 = call noundef nonnull align 8 dereferenceable(976) ptr @_ZNK4goal1mEv(ptr noundef nonnull align 8 dereferenceable(124) %this1)
  %8 = load ptr, ptr %pr.addr, align 8
  %9 = load i32, ptr %i, align 4
  %call6 = call noundef ptr @_ZN11ast_manager11mk_and_elimEP3appj(ptr noundef nonnull align 8 dereferenceable(976) %call5, ptr noundef %8, i32 noundef %9)
  %10 = load ptr, ptr %d.addr, align 8
  %11 = load ptr, ptr %out_f.addr, align 8
  %12 = load ptr, ptr %out_pr.addr, align 8
  call void @_ZN4goal12slow_processEbP4exprP3appPN18dependency_managerIN11ast_manager22expr_dependency_configEE10dependencyER7obj_refIS0_S5_ERSA_IS2_S5_E(ptr noundef nonnull align 8 dereferenceable(124) %this1, i1 noundef zeroext %5, ptr noundef %call4, ptr noundef %call6, ptr noundef %10, ptr noundef nonnull align 8 dereferenceable(16) %11, ptr noundef nonnull align 8 dereferenceable(16) %12)
  br label %for.inc

for.inc:                                          ; preds = %land.end
  %13 = load i32, ptr %i, align 4
  %inc = add i32 %13, 1
  store i32 %inc, ptr %i, align 4
  br label %for.cond, !llvm.loop !8

for.end:                                          ; preds = %if.then, %for.cond
  ret void
}

; Function Attrs: mustprogress uwtable
define hidden void @_ZN4goal12slow_processEbP4exprP3appPN18dependency_managerIN11ast_manager22expr_dependency_configEE10dependencyER7obj_refIS0_S5_ERSA_IS2_S5_E(ptr noundef nonnull align 8 dereferenceable(124) %this, i1 noundef zeroext %save_first, ptr noundef %f, ptr noundef %pr, ptr noundef %d, ptr noundef nonnull align 8 dereferenceable(16) %out_f, ptr noundef nonnull align 8 dereferenceable(16) %out_pr) #5 align 2 personality ptr @__gxx_personality_v0 {
entry:
  %this.addr = alloca ptr, align 8
  %save_first.addr = alloca i8, align 1
  %f.addr = alloca ptr, align 8
  %pr.addr = alloca ptr, align 8
  %d.addr = alloca ptr, align 8
  %out_f.addr = alloca ptr, align 8
  %out_pr.addr = alloca ptr, align 8
  %g = alloca ptr, align 8
  %_pr = alloca %class.obj_ref, align 8
  %exn.slot = alloca ptr, align 8
  %ehselector.slot = alloca i32, align 4
  store ptr %this, ptr %this.addr, align 8
  %frombool = zext i1 %save_first to i8
  store i8 %frombool, ptr %save_first.addr, align 1
  store ptr %f, ptr %f.addr, align 8
  store ptr %pr, ptr %pr.addr, align 8
  store ptr %d, ptr %d.addr, align 8
  store ptr %out_f, ptr %out_f.addr, align 8
  store ptr %out_pr, ptr %out_pr.addr, align 8
  %this1 = load ptr, ptr %this.addr, align 8
  store ptr null, ptr %g, align 8
  %0 = load ptr, ptr %pr.addr, align 8
  %call = call noundef nonnull align 8 dereferenceable(976) ptr @_ZNK4goal1mEv(ptr noundef nonnull align 8 dereferenceable(124) %this1)
  call void @_ZN7obj_refI3app11ast_managerEC2EPS0_RS1_(ptr noundef nonnull align 8 dereferenceable(16) %_pr, ptr noundef %0, ptr noundef nonnull align 8 dereferenceable(976) %call)
  %call2 = invoke noundef nonnull align 8 dereferenceable(976) ptr @_ZNK4goal1mEv(ptr noundef nonnull align 8 dereferenceable(124) %this1)
          to label %invoke.cont unwind label %lpad

invoke.cont:                                      ; preds = %entry
  %1 = load ptr, ptr %f.addr, align 8
  %call4 = invoke noundef zeroext i1 @_ZNK11ast_manager6is_andEPK4expr(ptr noundef nonnull align 8 dereferenceable(976) %call2, ptr noundef %1)
          to label %invoke.cont3 unwind label %lpad

invoke.cont3:                                     ; preds = %invoke.cont
  br i1 %call4, label %if.then, label %if.else

if.then:                                          ; preds = %invoke.cont3
  %2 = load i8, ptr %save_first.addr, align 1
  %tobool = trunc i8 %2 to i1
  %3 = load ptr, ptr %f.addr, align 8
  %call6 = invoke noundef ptr @_Z6to_appP3ast(ptr noundef %3)
          to label %invoke.cont5 unwind label %lpad

invoke.cont5:                                     ; preds = %if.then
  %4 = load ptr, ptr %pr.addr, align 8
  %5 = load ptr, ptr %d.addr, align 8
  %6 = load ptr, ptr %out_f.addr, align 8
  %7 = load ptr, ptr %out_pr.addr, align 8
  invoke void @_ZN4goal11process_andEbP3appS1_PN18dependency_managerIN11ast_manager22expr_dependency_configEE10dependencyER7obj_refI4exprS3_ERS8_IS0_S3_E(ptr noundef nonnull align 8 dereferenceable(124) %this1, i1 noundef zeroext %tobool, ptr noundef %call6, ptr noundef %4, ptr noundef %5, ptr noundef nonnull align 8 dereferenceable(16) %6, ptr noundef nonnull align 8 dereferenceable(16) %7)
          to label %invoke.cont7 unwind label %lpad

invoke.cont7:                                     ; preds = %invoke.cont5
  br label %if.end31

lpad:                                             ; preds = %if.else28, %invoke.cont24, %if.then23, %invoke.cont18, %if.then16, %invoke.cont12, %land.lhs.true, %invoke.cont8, %if.else, %invoke.cont5, %if.then, %invoke.cont, %entry
  %8 = landingpad { ptr, i32 }
          cleanup
  %9 = extractvalue { ptr, i32 } %8, 0
  store ptr %9, ptr %exn.slot, align 8
  %10 = extractvalue { ptr, i32 } %8, 1
  store i32 %10, ptr %ehselector.slot, align 4
  call void @_ZN7obj_refI3app11ast_managerED2Ev(ptr noundef nonnull align 8 dereferenceable(16) %_pr) #3
  br label %eh.resume

if.else:                                          ; preds = %invoke.cont3
  %call9 = invoke noundef nonnull align 8 dereferenceable(976) ptr @_ZNK4goal1mEv(ptr noundef nonnull align 8 dereferenceable(124) %this1)
          to label %invoke.cont8 unwind label %lpad

invoke.cont8:                                     ; preds = %if.else
  %11 = load ptr, ptr %f.addr, align 8
  %call11 = invoke noundef zeroext i1 @_ZNK11ast_manager6is_notEPK4exprRPS0_(ptr noundef nonnull align 8 dereferenceable(976) %call9, ptr noundef %11, ptr noundef nonnull align 8 dereferenceable(8) %g)
          to label %invoke.cont10 unwind label %lpad

invoke.cont10:                                    ; preds = %invoke.cont8
  br i1 %call11, label %land.lhs.true, label %if.else21

land.lhs.true:                                    ; preds = %invoke.cont10
  %call13 = invoke noundef nonnull align 8 dereferenceable(976) ptr @_ZNK4goal1mEv(ptr noundef nonnull align 8 dereferenceable(124) %this1)
          to label %invoke.cont12 unwind label %lpad

invoke.cont12:                                    ; preds = %land.lhs.true
  %12 = load ptr, ptr %g, align 8
  %call15 = invoke noundef zeroext i1 @_ZNK11ast_manager5is_orEPK4expr(ptr noundef nonnull align 8 dereferenceable(976) %call13, ptr noundef %12)
          to label %invoke.cont14 unwind label %lpad

invoke.cont14:                                    ; preds = %invoke.cont12
  br i1 %call15, label %if.then16, label %if.else21

if.then16:                                        ; preds = %invoke.cont14
  %13 = load i8, ptr %save_first.addr, align 1
  %tobool17 = trunc i8 %13 to i1
  %14 = load ptr, ptr %g, align 8
  %call19 = invoke noundef ptr @_Z6to_appP3ast(ptr noundef %14)
          to label %invoke.cont18 unwind label %lpad

invoke.cont18:                                    ; preds = %if.then16
  %15 = load ptr, ptr %pr.addr, align 8
  %16 = load ptr, ptr %d.addr, align 8
  %17 = load ptr, ptr %out_f.addr, align 8
  %18 = load ptr, ptr %out_pr.addr, align 8
  invoke void @_ZN4goal14process_not_orEbP3appS1_PN18dependency_managerIN11ast_manager22expr_dependency_configEE10dependencyER7obj_refI4exprS3_ERS8_IS0_S3_E(ptr noundef nonnull align 8 dereferenceable(124) %this1, i1 noundef zeroext %tobool17, ptr noundef %call19, ptr noundef %15, ptr noundef %16, ptr noundef nonnull align 8 dereferenceable(16) %17, ptr noundef nonnull align 8 dereferenceable(16) %18)
          to label %invoke.cont20 unwind label %lpad

invoke.cont20:                                    ; preds = %invoke.cont18
  br label %if.end30

if.else21:                                        ; preds = %invoke.cont14, %invoke.cont10
  %19 = load i8, ptr %save_first.addr, align 1
  %tobool22 = trunc i8 %19 to i1
  br i1 %tobool22, label %if.then23, label %if.else28

if.then23:                                        ; preds = %if.else21
  %20 = load ptr, ptr %f.addr, align 8
  %21 = load ptr, ptr %out_f.addr, align 8
  %call25 = invoke noundef nonnull align 8 dereferenceable(16) ptr @_ZN7obj_refI4expr11ast_managerEaSEPS0_(ptr noundef nonnull align 8 dereferenceable(16) %21, ptr noundef %20)
          to label %invoke.cont24 unwind label %lpad

invoke.cont24:                                    ; preds = %if.then23
  %22 = load ptr, ptr %pr.addr, align 8
  %23 = load ptr, ptr %out_pr.addr, align 8
  %call27 = invoke noundef nonnull align 8 dereferenceable(16) ptr @_ZN7obj_refI3app11ast_managerEaSEPS0_(ptr noundef nonnull align 8 dereferenceable(16) %23, ptr noundef %22)
          to label %invoke.cont26 unwind label %lpad

invoke.cont26:                                    ; preds = %invoke.cont24
  br label %if.end

if.else28:                                        ; preds = %if.else21
  %24 = load ptr, ptr %f.addr, align 8
  %25 = load ptr, ptr %pr.addr, align 8
  %26 = load ptr, ptr %d.addr, align 8
  invoke void @_ZN4goal9push_backEP4exprP3appPN18dependency_managerIN11ast_manager22expr_dependency_configEE10dependencyE(ptr noundef nonnull align 8 dereferenceable(124) %this1, ptr noundef %24, ptr noundef %25, ptr noundef %26)
          to label %invoke.cont29 unwind label %lpad

invoke.cont29:                                    ; preds = %if.else28
  br label %if.end

if.end:                                           ; preds = %invoke.cont29, %invoke.cont26
  br label %if.end30

if.end30:                                         ; preds = %if.end, %invoke.cont20
  br label %if.end31

if.end31:                                         ; preds = %if.end30, %invoke.cont7
  call void @_ZN7obj_refI3app11ast_managerED2Ev(ptr noundef nonnull align 8 dereferenceable(16) %_pr) #3
  ret void

eh.resume:                                        ; preds = %lpad
  %exn = load ptr, ptr %exn.slot, align 8
  %sel = load i32, ptr %ehselector.slot, align 4
  %lpad.val = insertvalue { ptr, i32 } poison, ptr %exn, 0
  %lpad.val32 = insertvalue { ptr, i32 } %lpad.val, i32 %sel, 1
  resume { ptr, i32 } %lpad.val32
}

declare noundef ptr @_ZN11ast_manager11mk_and_elimEP3appj(ptr noundef nonnull align 8 dereferenceable(976), ptr noundef, i32 noundef) #1

; Function Attrs: mustprogress uwtable
define hidden void @_ZN4goal14process_not_orEbP3appS1_PN18dependency_managerIN11ast_manager22expr_dependency_configEE10dependencyER7obj_refI4exprS3_ERS8_IS0_S3_E(ptr noundef nonnull align 8 dereferenceable(124) %this, i1 noundef zeroext %save_first, ptr noundef %f, ptr noundef %pr, ptr noundef %d, ptr noundef nonnull align 8 dereferenceable(16) %out_f, ptr noundef nonnull align 8 dereferenceable(16) %out_pr) #5 align 2 personality ptr @__gxx_personality_v0 {
entry:
  %this.addr = alloca ptr, align 8
  %save_first.addr = alloca i8, align 1
  %f.addr = alloca ptr, align 8
  %pr.addr = alloca ptr, align 8
  %d.addr = alloca ptr, align 8
  %out_f.addr = alloca ptr, align 8
  %out_pr.addr = alloca ptr, align 8
  %num = alloca i32, align 4
  %i = alloca i32, align 4
  %child = alloca ptr, align 8
  %not_child = alloca ptr, align 8
  %not_child12 = alloca %class.obj_ref.29, align 8
  %exn.slot = alloca ptr, align 8
  %ehselector.slot = alloca i32, align 4
  store ptr %this, ptr %this.addr, align 8
  %frombool = zext i1 %save_first to i8
  store i8 %frombool, ptr %save_first.addr, align 1
  store ptr %f, ptr %f.addr, align 8
  store ptr %pr, ptr %pr.addr, align 8
  store ptr %d, ptr %d.addr, align 8
  store ptr %out_f, ptr %out_f.addr, align 8
  store ptr %out_pr, ptr %out_pr.addr, align 8
  %this1 = load ptr, ptr %this.addr, align 8
  %0 = load ptr, ptr %f.addr, align 8
  %call = call noundef i32 @_ZNK3app12get_num_argsEv(ptr noundef nonnull align 8 dereferenceable(32) %0)
  store i32 %call, ptr %num, align 4
  store i32 0, ptr %i, align 4
  br label %for.cond

for.cond:                                         ; preds = %for.inc, %entry
  %1 = load i32, ptr %i, align 4
  %2 = load i32, ptr %num, align 4
  %cmp = icmp ult i32 %1, %2
  br i1 %cmp, label %for.body, label %for.end

for.body:                                         ; preds = %for.cond
  %m_inconsistent = getelementptr inbounds %class.goal, ptr %this1, i32 0, i32 10
  %bf.load = load i32, ptr %m_inconsistent, align 8
  %bf.lshr = lshr i32 %bf.load, 29
  %bf.clear = and i32 %bf.lshr, 1
  %tobool = icmp ne i32 %bf.clear, 0
  br i1 %tobool, label %if.then, label %if.end

if.then:                                          ; preds = %for.body
  br label %for.end

if.end:                                           ; preds = %for.body
  %3 = load ptr, ptr %f.addr, align 8
  %4 = load i32, ptr %i, align 4
  %call2 = call noundef ptr @_ZNK3app7get_argEj(ptr noundef nonnull align 8 dereferenceable(32) %3, i32 noundef %4)
  store ptr %call2, ptr %child, align 8
  %call3 = call noundef nonnull align 8 dereferenceable(976) ptr @_ZNK4goal1mEv(ptr noundef nonnull align 8 dereferenceable(124) %this1)
  %5 = load ptr, ptr %child, align 8
  %call4 = call noundef zeroext i1 @_ZNK11ast_manager6is_notEPK4expr(ptr noundef nonnull align 8 dereferenceable(976) %call3, ptr noundef %5)
  br i1 %call4, label %if.then5, label %if.else

if.then5:                                         ; preds = %if.end
  %6 = load ptr, ptr %child, align 8
  %call6 = call noundef ptr @_Z6to_appP3ast(ptr noundef %6)
  %call7 = call noundef ptr @_ZNK3app7get_argEj(ptr noundef nonnull align 8 dereferenceable(32) %call6, i32 noundef 0)
  store ptr %call7, ptr %not_child, align 8
  %7 = load i8, ptr %save_first.addr, align 1
  %tobool8 = trunc i8 %7 to i1
  br i1 %tobool8, label %land.rhs, label %land.end

land.rhs:                                         ; preds = %if.then5
  %8 = load i32, ptr %i, align 4
  %cmp9 = icmp eq i32 %8, 0
  br label %land.end

land.end:                                         ; preds = %land.rhs, %if.then5
  %9 = phi i1 [ false, %if.then5 ], [ %cmp9, %land.rhs ]
  %10 = load ptr, ptr %not_child, align 8
  %call10 = call noundef nonnull align 8 dereferenceable(976) ptr @_ZNK4goal1mEv(ptr noundef nonnull align 8 dereferenceable(124) %this1)
  %11 = load ptr, ptr %pr.addr, align 8
  %12 = load i32, ptr %i, align 4
  %call11 = call noundef ptr @_ZN11ast_manager14mk_not_or_elimEP3appj(ptr noundef nonnull align 8 dereferenceable(976) %call10, ptr noundef %11, i32 noundef %12)
  %13 = load ptr, ptr %d.addr, align 8
  %14 = load ptr, ptr %out_f.addr, align 8
  %15 = load ptr, ptr %out_pr.addr, align 8
  call void @_ZN4goal12slow_processEbP4exprP3appPN18dependency_managerIN11ast_manager22expr_dependency_configEE10dependencyER7obj_refIS0_S5_ERSA_IS2_S5_E(ptr noundef nonnull align 8 dereferenceable(124) %this1, i1 noundef zeroext %9, ptr noundef %10, ptr noundef %call11, ptr noundef %13, ptr noundef nonnull align 8 dereferenceable(16) %14, ptr noundef nonnull align 8 dereferenceable(16) %15)
  br label %if.end30

if.else:                                          ; preds = %if.end
  %call13 = call noundef nonnull align 8 dereferenceable(976) ptr @_ZNK4goal1mEv(ptr noundef nonnull align 8 dereferenceable(124) %this1)
  call void @_ZN7obj_refI4expr11ast_managerEC2ERS1_(ptr noundef nonnull align 8 dereferenceable(16) %not_child12, ptr noundef nonnull align 8 dereferenceable(976) %call13)
  %call14 = invoke noundef nonnull align 8 dereferenceable(976) ptr @_ZNK4goal1mEv(ptr noundef nonnull align 8 dereferenceable(124) %this1)
          to label %invoke.cont unwind label %lpad

invoke.cont:                                      ; preds = %if.else
  %16 = load ptr, ptr %child, align 8
  %call16 = invoke noundef ptr @_ZN11ast_manager6mk_notEP4expr(ptr noundef nonnull align 8 dereferenceable(976) %call14, ptr noundef %16)
          to label %invoke.cont15 unwind label %lpad

invoke.cont15:                                    ; preds = %invoke.cont
  %call18 = invoke noundef nonnull align 8 dereferenceable(16) ptr @_ZN7obj_refI4expr11ast_managerEaSEPS0_(ptr noundef nonnull align 8 dereferenceable(16) %not_child12, ptr noundef %call16)
          to label %invoke.cont17 unwind label %lpad

invoke.cont17:                                    ; preds = %invoke.cont15
  %17 = load i8, ptr %save_first.addr, align 1
  %tobool19 = trunc i8 %17 to i1
  br i1 %tobool19, label %land.rhs20, label %land.end22

land.rhs20:                                       ; preds = %invoke.cont17
  %18 = load i32, ptr %i, align 4
  %cmp21 = icmp eq i32 %18, 0
  br label %land.end22

land.end22:                                       ; preds = %land.rhs20, %invoke.cont17
  %19 = phi i1 [ false, %invoke.cont17 ], [ %cmp21, %land.rhs20 ]
  %call24 = invoke noundef ptr @_ZNK7obj_refI4expr11ast_managerEcvPS0_Ev(ptr noundef nonnull align 8 dereferenceable(16) %not_child12)
          to label %invoke.cont23 unwind label %lpad

invoke.cont23:                                    ; preds = %land.end22
  %call26 = invoke noundef nonnull align 8 dereferenceable(976) ptr @_ZNK4goal1mEv(ptr noundef nonnull align 8 dereferenceable(124) %this1)
          to label %invoke.cont25 unwind label %lpad

invoke.cont25:                                    ; preds = %invoke.cont23
  %20 = load ptr, ptr %pr.addr, align 8
  %21 = load i32, ptr %i, align 4
  %call28 = invoke noundef ptr @_ZN11ast_manager14mk_not_or_elimEP3appj(ptr noundef nonnull align 8 dereferenceable(976) %call26, ptr noundef %20, i32 noundef %21)
          to label %invoke.cont27 unwind label %lpad

invoke.cont27:                                    ; preds = %invoke.cont25
  %22 = load ptr, ptr %d.addr, align 8
  %23 = load ptr, ptr %out_f.addr, align 8
  %24 = load ptr, ptr %out_pr.addr, align 8
  invoke void @_ZN4goal12slow_processEbP4exprP3appPN18dependency_managerIN11ast_manager22expr_dependency_configEE10dependencyER7obj_refIS0_S5_ERSA_IS2_S5_E(ptr noundef nonnull align 8 dereferenceable(124) %this1, i1 noundef zeroext %19, ptr noundef %call24, ptr noundef %call28, ptr noundef %22, ptr noundef nonnull align 8 dereferenceable(16) %23, ptr noundef nonnull align 8 dereferenceable(16) %24)
          to label %invoke.cont29 unwind label %lpad

invoke.cont29:                                    ; preds = %invoke.cont27
  call void @_ZN7obj_refI4expr11ast_managerED2Ev(ptr noundef nonnull align 8 dereferenceable(16) %not_child12) #3
  br label %if.end30

lpad:                                             ; preds = %invoke.cont27, %invoke.cont25, %invoke.cont23, %land.end22, %invoke.cont15, %invoke.cont, %if.else
  %25 = landingpad { ptr, i32 }
          cleanup
  %26 = extractvalue { ptr, i32 } %25, 0
  store ptr %26, ptr %exn.slot, align 8
  %27 = extractvalue { ptr, i32 } %25, 1
  store i32 %27, ptr %ehselector.slot, align 4
  call void @_ZN7obj_refI4expr11ast_managerED2Ev(ptr noundef nonnull align 8 dereferenceable(16) %not_child12) #3
  br label %eh.resume

if.end30:                                         ; preds = %invoke.cont29, %land.end
  br label %for.inc

for.inc:                                          ; preds = %if.end30
  %28 = load i32, ptr %i, align 4
  %inc = add i32 %28, 1
  store i32 %inc, ptr %i, align 4
  br label %for.cond, !llvm.loop !9

for.end:                                          ; preds = %if.then, %for.cond
  ret void

eh.resume:                                        ; preds = %lpad
  %exn = load ptr, ptr %exn.slot, align 8
  %sel = load i32, ptr %ehselector.slot, align 4
  %lpad.val = insertvalue { ptr, i32 } poison, ptr %exn, 0
  %lpad.val31 = insertvalue { ptr, i32 } %lpad.val, i32 %sel, 1
  resume { ptr, i32 } %lpad.val31
}

; Function Attrs: mustprogress uwtable
define linkonce_odr hidden noundef zeroext i1 @_ZNK11ast_manager6is_notEPK4expr(ptr noundef nonnull align 8 dereferenceable(976) %this, ptr noundef %n) #5 comdat align 2 {
entry:
  %this.addr = alloca ptr, align 8
  %n.addr = alloca ptr, align 8
  store ptr %this, ptr %this.addr, align 8
  store ptr %n, ptr %n.addr, align 8
  %0 = load ptr, ptr %n.addr, align 8
  %call = call noundef zeroext i1 @_Z9is_app_ofPK4exprii(ptr noundef %0, i32 noundef 0, i32 noundef 8)
  ret i1 %call
}

declare noundef ptr @_ZN11ast_manager14mk_not_or_elimEP3appj(ptr noundef nonnull align 8 dereferenceable(976), ptr noundef, i32 noundef) #1

; Function Attrs: mustprogress nounwind uwtable
define linkonce_odr hidden void @_ZN7obj_refI4expr11ast_managerEC2ERS1_(ptr noundef nonnull align 8 dereferenceable(16) %this, ptr noundef nonnull align 8 dereferenceable(976) %m) unnamed_addr #4 comdat align 2 {
entry:
  %this.addr = alloca ptr, align 8
  %m.addr = alloca ptr, align 8
  store ptr %this, ptr %this.addr, align 8
  store ptr %m, ptr %m.addr, align 8
  %this1 = load ptr, ptr %this.addr, align 8
  %m_obj = getelementptr inbounds %class.obj_ref.29, ptr %this1, i32 0, i32 0
  store ptr null, ptr %m_obj, align 8
  %m_manager = getelementptr inbounds %class.obj_ref.29, ptr %this1, i32 0, i32 1
  %0 = load ptr, ptr %m.addr, align 8
  store ptr %0, ptr %m_manager, align 8
  ret void
}

; Function Attrs: mustprogress nounwind uwtable
define linkonce_odr hidden void @_ZN7obj_refI4expr11ast_managerED2Ev(ptr noundef nonnull align 8 dereferenceable(16) %this) unnamed_addr #4 comdat align 2 personality ptr @__gxx_personality_v0 {
entry:
  %this.addr = alloca ptr, align 8
  store ptr %this, ptr %this.addr, align 8
  %this1 = load ptr, ptr %this.addr, align 8
  invoke void @_ZN7obj_refI4expr11ast_managerE7dec_refEv(ptr noundef nonnull align 8 dereferenceable(16) %this1)
          to label %invoke.cont unwind label %terminate.lpad

invoke.cont:                                      ; preds = %entry
  ret void

terminate.lpad:                                   ; preds = %entry
  %0 = landingpad { ptr, i32 }
          catch ptr null
  %1 = extractvalue { ptr, i32 } %0, 0
  call void @__clang_call_terminate(ptr %1) #11
  unreachable
}

; Function Attrs: mustprogress uwtable
define linkonce_odr hidden void @_ZN7obj_refI3app11ast_managerEC2EPS0_RS1_(ptr noundef nonnull align 8 dereferenceable(16) %this, ptr noundef %n, ptr noundef nonnull align 8 dereferenceable(976) %m) unnamed_addr #5 comdat align 2 {
entry:
  %this.addr = alloca ptr, align 8
  %n.addr = alloca ptr, align 8
  %m.addr = alloca ptr, align 8
  store ptr %this, ptr %this.addr, align 8
  store ptr %n, ptr %n.addr, align 8
  store ptr %m, ptr %m.addr, align 8
  %this1 = load ptr, ptr %this.addr, align 8
  %m_obj = getelementptr inbounds %class.obj_ref, ptr %this1, i32 0, i32 0
  %0 = load ptr, ptr %n.addr, align 8
  store ptr %0, ptr %m_obj, align 8
  %m_manager = getelementptr inbounds %class.obj_ref, ptr %this1, i32 0, i32 1
  %1 = load ptr, ptr %m.addr, align 8
  store ptr %1, ptr %m_manager, align 8
  call void @_ZN7obj_refI3app11ast_managerE7inc_refEv(ptr noundef nonnull align 8 dereferenceable(16) %this1)
  ret void
}

; Function Attrs: mustprogress uwtable
define hidden void @_ZN4goal12slow_processEP4exprP3appPN18dependency_managerIN11ast_manager22expr_dependency_configEE10dependencyE(ptr noundef nonnull align 8 dereferenceable(124) %this, ptr noundef %f, ptr noundef %pr, ptr noundef %d) #5 align 2 personality ptr @__gxx_personality_v0 {
entry:
  %this.addr = alloca ptr, align 8
  %f.addr = alloca ptr, align 8
  %pr.addr = alloca ptr, align 8
  %d.addr = alloca ptr, align 8
  %out_f = alloca %class.obj_ref.29, align 8
  %out_pr = alloca %class.obj_ref, align 8
  %exn.slot = alloca ptr, align 8
  %ehselector.slot = alloca i32, align 4
  store ptr %this, ptr %this.addr, align 8
  store ptr %f, ptr %f.addr, align 8
  store ptr %pr, ptr %pr.addr, align 8
  store ptr %d, ptr %d.addr, align 8
  %this1 = load ptr, ptr %this.addr, align 8
  %call = call noundef nonnull align 8 dereferenceable(976) ptr @_ZNK4goal1mEv(ptr noundef nonnull align 8 dereferenceable(124) %this1)
  call void @_ZN7obj_refI4expr11ast_managerEC2ERS1_(ptr noundef nonnull align 8 dereferenceable(16) %out_f, ptr noundef nonnull align 8 dereferenceable(976) %call)
  %call2 = invoke noundef nonnull align 8 dereferenceable(976) ptr @_ZNK4goal1mEv(ptr noundef nonnull align 8 dereferenceable(124) %this1)
          to label %invoke.cont unwind label %lpad

invoke.cont:                                      ; preds = %entry
  invoke void @_ZN7obj_refI3app11ast_managerEC2ERS1_(ptr noundef nonnull align 8 dereferenceable(16) %out_pr, ptr noundef nonnull align 8 dereferenceable(976) %call2)
          to label %invoke.cont3 unwind label %lpad

invoke.cont3:                                     ; preds = %invoke.cont
  %0 = load ptr, ptr %f.addr, align 8
  %1 = load ptr, ptr %pr.addr, align 8
  %2 = load ptr, ptr %d.addr, align 8
  invoke void @_ZN4goal12slow_processEbP4exprP3appPN18dependency_managerIN11ast_manager22expr_dependency_configEE10dependencyER7obj_refIS0_S5_ERSA_IS2_S5_E(ptr noundef nonnull align 8 dereferenceable(124) %this1, i1 noundef zeroext false, ptr noundef %0, ptr noundef %1, ptr noundef %2, ptr noundef nonnull align 8 dereferenceable(16) %out_f, ptr noundef nonnull align 8 dereferenceable(16) %out_pr)
          to label %invoke.cont5 unwind label %lpad4

invoke.cont5:                                     ; preds = %invoke.cont3
  call void @_ZN7obj_refI3app11ast_managerED2Ev(ptr noundef nonnull align 8 dereferenceable(16) %out_pr) #3
  call void @_ZN7obj_refI4expr11ast_managerED2Ev(ptr noundef nonnull align 8 dereferenceable(16) %out_f) #3
  ret void

lpad:                                             ; preds = %invoke.cont, %entry
  %3 = landingpad { ptr, i32 }
          cleanup
  %4 = extractvalue { ptr, i32 } %3, 0
  store ptr %4, ptr %exn.slot, align 8
  %5 = extractvalue { ptr, i32 } %3, 1
  store i32 %5, ptr %ehselector.slot, align 4
  br label %ehcleanup

lpad4:                                            ; preds = %invoke.cont3
  %6 = landingpad { ptr, i32 }
          cleanup
  %7 = extractvalue { ptr, i32 } %6, 0
  store ptr %7, ptr %exn.slot, align 8
  %8 = extractvalue { ptr, i32 } %6, 1
  store i32 %8, ptr %ehselector.slot, align 4
  call void @_ZN7obj_refI3app11ast_managerED2Ev(ptr noundef nonnull align 8 dereferenceable(16) %out_pr) #3
  br label %ehcleanup

ehcleanup:                                        ; preds = %lpad4, %lpad
  call void @_ZN7obj_refI4expr11ast_managerED2Ev(ptr noundef nonnull align 8 dereferenceable(16) %out_f) #3
  br label %eh.resume

eh.resume:                                        ; preds = %ehcleanup
  %exn = load ptr, ptr %exn.slot, align 8
  %sel = load i32, ptr %ehselector.slot, align 4
  %lpad.val = insertvalue { ptr, i32 } poison, ptr %exn, 0
  %lpad.val6 = insertvalue { ptr, i32 } %lpad.val, i32 %sel, 1
  resume { ptr, i32 } %lpad.val6
}

; Function Attrs: mustprogress uwtable
define hidden void @_ZN4goal11assert_exprEP4exprP3appPN18dependency_managerIN11ast_manager22expr_dependency_configEE10dependencyE(ptr noundef nonnull align 8 dereferenceable(124) %this, ptr noundef %f, ptr noundef %pr, ptr noundef %d) #5 align 2 personality ptr @__gxx_personality_v0 {
entry:
  %this.addr = alloca ptr, align 8
  %f.addr = alloca ptr, align 8
  %pr.addr = alloca ptr, align 8
  %d.addr = alloca ptr, align 8
  %_f = alloca %class.obj_ref.29, align 8
  %_pr = alloca %class.obj_ref, align 8
  %exn.slot = alloca ptr, align 8
  %ehselector.slot = alloca i32, align 4
  %_d = alloca %class.obj_ref.28, align 8
  %cleanup.dest.slot = alloca i32, align 4
  %fr = alloca %class.obj_ref.29, align 8
  store ptr %this, ptr %this.addr, align 8
  store ptr %f, ptr %f.addr, align 8
  store ptr %pr, ptr %pr.addr, align 8
  store ptr %d, ptr %d.addr, align 8
  %this1 = load ptr, ptr %this.addr, align 8
  %0 = load ptr, ptr %f.addr, align 8
  %call = call noundef nonnull align 8 dereferenceable(976) ptr @_ZNK4goal1mEv(ptr noundef nonnull align 8 dereferenceable(124) %this1)
  call void @_ZN7obj_refI4expr11ast_managerEC2EPS0_RS1_(ptr noundef nonnull align 8 dereferenceable(16) %_f, ptr noundef %0, ptr noundef nonnull align 8 dereferenceable(976) %call)
  %1 = load ptr, ptr %pr.addr, align 8
  %call2 = invoke noundef nonnull align 8 dereferenceable(976) ptr @_ZNK4goal1mEv(ptr noundef nonnull align 8 dereferenceable(124) %this1)
          to label %invoke.cont unwind label %lpad

invoke.cont:                                      ; preds = %entry
  invoke void @_ZN7obj_refI3app11ast_managerEC2EPS0_RS1_(ptr noundef nonnull align 8 dereferenceable(16) %_pr, ptr noundef %1, ptr noundef nonnull align 8 dereferenceable(976) %call2)
          to label %invoke.cont3 unwind label %lpad

invoke.cont3:                                     ; preds = %invoke.cont
  %2 = load ptr, ptr %d.addr, align 8
  %call6 = invoke noundef nonnull align 8 dereferenceable(976) ptr @_ZNK4goal1mEv(ptr noundef nonnull align 8 dereferenceable(124) %this1)
          to label %invoke.cont5 unwind label %lpad4

invoke.cont5:                                     ; preds = %invoke.cont3
  invoke void @_ZN7obj_refIN18dependency_managerIN11ast_manager22expr_dependency_configEE10dependencyES1_EC2EPS4_RS1_(ptr noundef nonnull align 8 dereferenceable(16) %_d, ptr noundef %2, ptr noundef nonnull align 8 dereferenceable(976) %call6)
          to label %invoke.cont7 unwind label %lpad4

invoke.cont7:                                     ; preds = %invoke.cont5
  %m_inconsistent = getelementptr inbounds %class.goal, ptr %this1, i32 0, i32 10
  %bf.load = load i32, ptr %m_inconsistent, align 8
  %bf.lshr = lshr i32 %bf.load, 29
  %bf.clear = and i32 %bf.lshr, 1
  %tobool = icmp ne i32 %bf.clear, 0
  br i1 %tobool, label %if.then, label %if.end

if.then:                                          ; preds = %invoke.cont7
  store i32 1, ptr %cleanup.dest.slot, align 4
  br label %cleanup

lpad:                                             ; preds = %invoke.cont, %entry
  %3 = landingpad { ptr, i32 }
          cleanup
  %4 = extractvalue { ptr, i32 } %3, 0
  store ptr %4, ptr %exn.slot, align 8
  %5 = extractvalue { ptr, i32 } %3, 1
  store i32 %5, ptr %ehselector.slot, align 4
  br label %ehcleanup21

lpad4:                                            ; preds = %invoke.cont5, %invoke.cont3
  %6 = landingpad { ptr, i32 }
          cleanup
  %7 = extractvalue { ptr, i32 } %6, 0
  store ptr %7, ptr %exn.slot, align 8
  %8 = extractvalue { ptr, i32 } %6, 1
  store i32 %8, ptr %ehselector.slot, align 4
  br label %ehcleanup19

if.end:                                           ; preds = %invoke.cont7
  %9 = load ptr, ptr %pr.addr, align 8
  %tobool8 = icmp ne ptr %9, null
  br i1 %tobool8, label %if.then9, label %if.else

if.then9:                                         ; preds = %if.end
  %10 = load ptr, ptr %f.addr, align 8
  %11 = load ptr, ptr %pr.addr, align 8
  %12 = load ptr, ptr %d.addr, align 8
  invoke void @_ZN4goal12slow_processEP4exprP3appPN18dependency_managerIN11ast_manager22expr_dependency_configEE10dependencyE(ptr noundef nonnull align 8 dereferenceable(124) %this1, ptr noundef %10, ptr noundef %11, ptr noundef %12)
          to label %invoke.cont11 unwind label %lpad10

invoke.cont11:                                    ; preds = %if.then9
  br label %if.end17

lpad10:                                           ; preds = %invoke.cont12, %if.else, %if.then9
  %13 = landingpad { ptr, i32 }
          cleanup
  %14 = extractvalue { ptr, i32 } %13, 0
  store ptr %14, ptr %exn.slot, align 8
  %15 = extractvalue { ptr, i32 } %13, 1
  store i32 %15, ptr %ehselector.slot, align 4
  br label %ehcleanup

if.else:                                          ; preds = %if.end
  %16 = load ptr, ptr %f.addr, align 8
  %call13 = invoke noundef nonnull align 8 dereferenceable(976) ptr @_ZNK4goal1mEv(ptr noundef nonnull align 8 dereferenceable(124) %this1)
          to label %invoke.cont12 unwind label %lpad10

invoke.cont12:                                    ; preds = %if.else
  invoke void @_ZN7obj_refI4expr11ast_managerEC2EPS0_RS1_(ptr noundef nonnull align 8 dereferenceable(16) %fr, ptr noundef %16, ptr noundef nonnull align 8 dereferenceable(976) %call13)
          to label %invoke.cont14 unwind label %lpad10

invoke.cont14:                                    ; preds = %invoke.cont12
  %17 = load ptr, ptr %d.addr, align 8
  invoke void @_ZN4goal13quick_processEbR7obj_refI4expr11ast_managerEPN18dependency_managerINS2_22expr_dependency_configEE10dependencyE(ptr noundef nonnull align 8 dereferenceable(124) %this1, i1 noundef zeroext false, ptr noundef nonnull align 8 dereferenceable(16) %fr, ptr noundef %17)
          to label %invoke.cont16 unwind label %lpad15

invoke.cont16:                                    ; preds = %invoke.cont14
  call void @_ZN7obj_refI4expr11ast_managerED2Ev(ptr noundef nonnull align 8 dereferenceable(16) %fr) #3
  br label %if.end17

lpad15:                                           ; preds = %invoke.cont14
  %18 = landingpad { ptr, i32 }
          cleanup
  %19 = extractvalue { ptr, i32 } %18, 0
  store ptr %19, ptr %exn.slot, align 8
  %20 = extractvalue { ptr, i32 } %18, 1
  store i32 %20, ptr %ehselector.slot, align 4
  call void @_ZN7obj_refI4expr11ast_managerED2Ev(ptr noundef nonnull align 8 dereferenceable(16) %fr) #3
  br label %ehcleanup

if.end17:                                         ; preds = %invoke.cont16, %invoke.cont11
  store i32 0, ptr %cleanup.dest.slot, align 4
  br label %cleanup

cleanup:                                          ; preds = %if.end17, %if.then
  call void @_ZN7obj_refIN18dependency_managerIN11ast_manager22expr_dependency_configEE10dependencyES1_ED2Ev(ptr noundef nonnull align 8 dereferenceable(16) %_d) #3
  call void @_ZN7obj_refI3app11ast_managerED2Ev(ptr noundef nonnull align 8 dereferenceable(16) %_pr) #3
  call void @_ZN7obj_refI4expr11ast_managerED2Ev(ptr noundef nonnull align 8 dereferenceable(16) %_f) #3
  %cleanup.dest = load i32, ptr %cleanup.dest.slot, align 4
  switch i32 %cleanup.dest, label %unreachable [
    i32 0, label %cleanup.cont
    i32 1, label %cleanup.cont
  ]

cleanup.cont:                                     ; preds = %cleanup, %cleanup
  ret void

ehcleanup:                                        ; preds = %lpad15, %lpad10
  call void @_ZN7obj_refIN18dependency_managerIN11ast_manager22expr_dependency_configEE10dependencyES1_ED2Ev(ptr noundef nonnull align 8 dereferenceable(16) %_d) #3
  br label %ehcleanup19

ehcleanup19:                                      ; preds = %ehcleanup, %lpad4
  call void @_ZN7obj_refI3app11ast_managerED2Ev(ptr noundef nonnull align 8 dereferenceable(16) %_pr) #3
  br label %ehcleanup21

ehcleanup21:                                      ; preds = %ehcleanup19, %lpad
  call void @_ZN7obj_refI4expr11ast_managerED2Ev(ptr noundef nonnull align 8 dereferenceable(16) %_f) #3
  br label %eh.resume

eh.resume:                                        ; preds = %ehcleanup21
  %exn = load ptr, ptr %exn.slot, align 8
  %sel = load i32, ptr %ehselector.slot, align 4
  %lpad.val = insertvalue { ptr, i32 } poison, ptr %exn, 0
  %lpad.val22 = insertvalue { ptr, i32 } %lpad.val, i32 %sel, 1
  resume { ptr, i32 } %lpad.val22

unreachable:                                      ; preds = %cleanup
  unreachable
}

; Function Attrs: mustprogress uwtable
define linkonce_odr hidden void @_ZN7obj_refI4expr11ast_managerEC2EPS0_RS1_(ptr noundef nonnull align 8 dereferenceable(16) %this, ptr noundef %n, ptr noundef nonnull align 8 dereferenceable(976) %m) unnamed_addr #5 comdat align 2 {
entry:
  %this.addr = alloca ptr, align 8
  %n.addr = alloca ptr, align 8
  %m.addr = alloca ptr, align 8
  store ptr %this, ptr %this.addr, align 8
  store ptr %n, ptr %n.addr, align 8
  store ptr %m, ptr %m.addr, align 8
  %this1 = load ptr, ptr %this.addr, align 8
  %m_obj = getelementptr inbounds %class.obj_ref.29, ptr %this1, i32 0, i32 0
  %0 = load ptr, ptr %n.addr, align 8
  store ptr %0, ptr %m_obj, align 8
  %m_manager = getelementptr inbounds %class.obj_ref.29, ptr %this1, i32 0, i32 1
  %1 = load ptr, ptr %m.addr, align 8
  store ptr %1, ptr %m_manager, align 8
  call void @_ZN7obj_refI4expr11ast_managerE7inc_refEv(ptr noundef nonnull align 8 dereferenceable(16) %this1)
  ret void
}

; Function Attrs: mustprogress uwtable
define linkonce_odr hidden void @_ZN7obj_refIN18dependency_managerIN11ast_manager22expr_dependency_configEE10dependencyES1_EC2EPS4_RS1_(ptr noundef nonnull align 8 dereferenceable(16) %this, ptr noundef %n, ptr noundef nonnull align 8 dereferenceable(976) %m) unnamed_addr #5 comdat align 2 {
entry:
  %this.addr = alloca ptr, align 8
  %n.addr = alloca ptr, align 8
  %m.addr = alloca ptr, align 8
  store ptr %this, ptr %this.addr, align 8
  store ptr %n, ptr %n.addr, align 8
  store ptr %m, ptr %m.addr, align 8
  %this1 = load ptr, ptr %this.addr, align 8
  %m_obj = getelementptr inbounds %class.obj_ref.28, ptr %this1, i32 0, i32 0
  %0 = load ptr, ptr %n.addr, align 8
  store ptr %0, ptr %m_obj, align 8
  %m_manager = getelementptr inbounds %class.obj_ref.28, ptr %this1, i32 0, i32 1
  %1 = load ptr, ptr %m.addr, align 8
  store ptr %1, ptr %m_manager, align 8
  call void @_ZN7obj_refIN18dependency_managerIN11ast_manager22expr_dependency_configEE10dependencyES1_E7inc_refEv(ptr noundef nonnull align 8 dereferenceable(16) %this1)
  ret void
}

; Function Attrs: mustprogress uwtable
define hidden void @_ZN4goal11assert_exprEP4exprPN18dependency_managerIN11ast_manager22expr_dependency_configEE10dependencyE(ptr noundef nonnull align 8 dereferenceable(124) %this, ptr noundef %f, ptr noundef %d) #5 align 2 {
entry:
  %this.addr = alloca ptr, align 8
  %f.addr = alloca ptr, align 8
  %d.addr = alloca ptr, align 8
  store ptr %this, ptr %this.addr, align 8
  store ptr %f, ptr %f.addr, align 8
  store ptr %d, ptr %d.addr, align 8
  %this1 = load ptr, ptr %this.addr, align 8
  %0 = load ptr, ptr %f.addr, align 8
  %call = call noundef zeroext i1 @_ZNK4goal14proofs_enabledEv(ptr noundef nonnull align 8 dereferenceable(124) %this1)
  br i1 %call, label %cond.true, label %cond.false

cond.true:                                        ; preds = %entry
  %call2 = call noundef nonnull align 8 dereferenceable(976) ptr @_ZNK4goal1mEv(ptr noundef nonnull align 8 dereferenceable(124) %this1)
  %1 = load ptr, ptr %f.addr, align 8
  %call3 = call noundef ptr @_ZN11ast_manager11mk_assertedEP4expr(ptr noundef nonnull align 8 dereferenceable(976) %call2, ptr noundef %1)
  br label %cond.end

cond.false:                                       ; preds = %entry
  br label %cond.end

cond.end:                                         ; preds = %cond.false, %cond.true
  %cond = phi ptr [ %call3, %cond.true ], [ null, %cond.false ]
  %2 = load ptr, ptr %d.addr, align 8
  call void @_ZN4goal11assert_exprEP4exprP3appPN18dependency_managerIN11ast_manager22expr_dependency_configEE10dependencyE(ptr noundef nonnull align 8 dereferenceable(124) %this1, ptr noundef %0, ptr noundef %cond, ptr noundef %2)
  ret void
}

declare noundef ptr @_ZN11ast_manager11mk_assertedEP4expr(ptr noundef nonnull align 8 dereferenceable(976), ptr noundef) #1

; Function Attrs: mustprogress uwtable
define hidden void @_ZNK4goal12get_formulasER10ptr_vectorI4exprE(ptr noundef nonnull align 8 dereferenceable(124) %this, ptr noundef nonnull align 8 dereferenceable(8) %result) #5 align 2 {
entry:
  %this.addr = alloca ptr, align 8
  %result.addr = alloca ptr, align 8
  %sz = alloca i32, align 4
  %i = alloca i32, align 4
  %ref.tmp = alloca ptr, align 8
  store ptr %this, ptr %this.addr, align 8
  store ptr %result, ptr %result.addr, align 8
  %this1 = load ptr, ptr %this.addr, align 8
  %call = call noundef i32 @_ZNK4goal4sizeEv(ptr noundef nonnull align 8 dereferenceable(124) %this1)
  store i32 %call, ptr %sz, align 4
  store i32 0, ptr %i, align 4
  br label %for.cond

for.cond:                                         ; preds = %for.inc, %entry
  %0 = load i32, ptr %i, align 4
  %1 = load i32, ptr %sz, align 4
  %cmp = icmp ult i32 %0, %1
  br i1 %cmp, label %for.body, label %for.end

for.body:                                         ; preds = %for.cond
  %2 = load ptr, ptr %result.addr, align 8
  %3 = load i32, ptr %i, align 4
  %call2 = call noundef ptr @_ZNK4goal4formEj(ptr noundef nonnull align 8 dereferenceable(124) %this1, i32 noundef %3)
  store ptr %call2, ptr %ref.tmp, align 8
  %call3 = call noundef nonnull align 8 dereferenceable(8) ptr @_ZN6vectorIP4exprLb0EjE9push_backEOS1_(ptr noundef nonnull align 8 dereferenceable(8) %2, ptr noundef nonnull align 8 dereferenceable(8) %ref.tmp)
  br label %for.inc

for.inc:                                          ; preds = %for.body
  %4 = load i32, ptr %i, align 4
  %inc = add i32 %4, 1
  store i32 %inc, ptr %i, align 4
  br label %for.cond, !llvm.loop !10

for.end:                                          ; preds = %for.cond
  ret void
}

; Function Attrs: mustprogress uwtable
define linkonce_odr hidden noundef i32 @_ZNK4goal4sizeEv(ptr noundef nonnull align 8 dereferenceable(124) %this) #5 comdat align 2 {
entry:
  %this.addr = alloca ptr, align 8
  store ptr %this, ptr %this.addr, align 8
  %this1 = load ptr, ptr %this.addr, align 8
  %call = call noundef nonnull align 8 dereferenceable(976) ptr @_ZNK4goal1mEv(ptr noundef nonnull align 8 dereferenceable(124) %this1)
  %m_forms = getelementptr inbounds %class.goal, ptr %this1, i32 0, i32 7
  %call2 = call noundef i32 @_ZNK11ast_manager4sizeERKN14parray_managerINS_17expr_array_configEE3refE(ptr noundef nonnull align 8 dereferenceable(976) %call, ptr noundef nonnull align 8 dereferenceable(12) %m_forms)
  ret i32 %call2
}

; Function Attrs: mustprogress uwtable
define linkonce_odr hidden noundef nonnull align 8 dereferenceable(8) ptr @_ZN6vectorIP4exprLb0EjE9push_backEOS1_(ptr noundef nonnull align 8 dereferenceable(8) %this, ptr noundef nonnull align 8 dereferenceable(8) %elem) #5 comdat align 2 {
entry:
  %this.addr = alloca ptr, align 8
  %elem.addr = alloca ptr, align 8
  store ptr %this, ptr %this.addr, align 8
  store ptr %elem, ptr %elem.addr, align 8
  %this1 = load ptr, ptr %this.addr, align 8
  %m_data = getelementptr inbounds %class.vector.31, ptr %this1, i32 0, i32 0
  %0 = load ptr, ptr %m_data, align 8
  %cmp = icmp eq ptr %0, null
  br i1 %cmp, label %if.then, label %lor.lhs.false

lor.lhs.false:                                    ; preds = %entry
  %m_data2 = getelementptr inbounds %class.vector.31, ptr %this1, i32 0, i32 0
  %1 = load ptr, ptr %m_data2, align 8
  %arrayidx = getelementptr inbounds i32, ptr %1, i64 -1
  %2 = load i32, ptr %arrayidx, align 4
  %m_data3 = getelementptr inbounds %class.vector.31, ptr %this1, i32 0, i32 0
  %3 = load ptr, ptr %m_data3, align 8
  %arrayidx4 = getelementptr inbounds i32, ptr %3, i64 -2
  %4 = load i32, ptr %arrayidx4, align 4
  %cmp5 = icmp eq i32 %2, %4
  br i1 %cmp5, label %if.then, label %if.end

if.then:                                          ; preds = %lor.lhs.false, %entry
  call void @_ZN6vectorIP4exprLb0EjE13expand_vectorEv(ptr noundef nonnull align 8 dereferenceable(8) %this1)
  br label %if.end

if.end:                                           ; preds = %if.then, %lor.lhs.false
  %m_data6 = getelementptr inbounds %class.vector.31, ptr %this1, i32 0, i32 0
  %5 = load ptr, ptr %m_data6, align 8
  %m_data7 = getelementptr inbounds %class.vector.31, ptr %this1, i32 0, i32 0
  %6 = load ptr, ptr %m_data7, align 8
  %arrayidx8 = getelementptr inbounds i32, ptr %6, i64 -1
  %7 = load i32, ptr %arrayidx8, align 4
  %idx.ext = zext i32 %7 to i64
  %add.ptr = getelementptr inbounds ptr, ptr %5, i64 %idx.ext
  %8 = load ptr, ptr %elem.addr, align 8
  %9 = load ptr, ptr %8, align 8
  store ptr %9, ptr %add.ptr, align 8
  %m_data9 = getelementptr inbounds %class.vector.31, ptr %this1, i32 0, i32 0
  %10 = load ptr, ptr %m_data9, align 8
  %arrayidx10 = getelementptr inbounds i32, ptr %10, i64 -1
  %11 = load i32, ptr %arrayidx10, align 4
  %inc = add i32 %11, 1
  store i32 %inc, ptr %arrayidx10, align 4
  ret ptr %this1
}

; Function Attrs: mustprogress uwtable
define linkonce_odr hidden noundef ptr @_ZNK4goal4formEj(ptr noundef nonnull align 8 dereferenceable(124) %this, i32 noundef %i) #5 comdat align 2 {
entry:
  %this.addr = alloca ptr, align 8
  %i.addr = alloca i32, align 4
  store ptr %this, ptr %this.addr, align 8
  store i32 %i, ptr %i.addr, align 4
  %this1 = load ptr, ptr %this.addr, align 8
  %call = call noundef zeroext i1 @_ZNK4goal12inconsistentEv(ptr noundef nonnull align 8 dereferenceable(124) %this1)
  br i1 %call, label %cond.true, label %cond.false

cond.true:                                        ; preds = %entry
  %call2 = call noundef nonnull align 8 dereferenceable(976) ptr @_ZNK4goal1mEv(ptr noundef nonnull align 8 dereferenceable(124) %this1)
  %call3 = call noundef ptr @_ZNK11ast_manager8mk_falseEv(ptr noundef nonnull align 8 dereferenceable(976) %call2)
  br label %cond.end

cond.false:                                       ; preds = %entry
  %call4 = call noundef nonnull align 8 dereferenceable(976) ptr @_ZNK4goal1mEv(ptr noundef nonnull align 8 dereferenceable(124) %this1)
  %m_forms = getelementptr inbounds %class.goal, ptr %this1, i32 0, i32 7
  %0 = load i32, ptr %i.addr, align 4
  %call5 = call noundef ptr @_ZNK11ast_manager3getERKN14parray_managerINS_17expr_array_configEE3refEj(ptr noundef nonnull align 8 dereferenceable(976) %call4, ptr noundef nonnull align 8 dereferenceable(12) %m_forms, i32 noundef %0)
  br label %cond.end

cond.end:                                         ; preds = %cond.false, %cond.true
  %cond = phi ptr [ %call3, %cond.true ], [ %call5, %cond.false ]
  ret ptr %cond
}

; Function Attrs: mustprogress uwtable
define hidden void @_ZNK4goal12get_formulasER10ref_vectorI4expr11ast_managerE(ptr noundef nonnull align 8 dereferenceable(124) %this, ptr noundef nonnull align 8 dereferenceable(16) %result) #5 align 2 {
entry:
  %this.addr = alloca ptr, align 8
  %result.addr = alloca ptr, align 8
  %sz = alloca i32, align 4
  %i = alloca i32, align 4
  store ptr %this, ptr %this.addr, align 8
  store ptr %result, ptr %result.addr, align 8
  %this1 = load ptr, ptr %this.addr, align 8
  %call = call noundef i32 @_ZNK4goal4sizeEv(ptr noundef nonnull align 8 dereferenceable(124) %this1)
  store i32 %call, ptr %sz, align 4
  store i32 0, ptr %i, align 4
  br label %for.cond

for.cond:                                         ; preds = %for.inc, %entry
  %0 = load i32, ptr %i, align 4
  %1 = load i32, ptr %sz, align 4
  %cmp = icmp ult i32 %0, %1
  br i1 %cmp, label %for.body, label %for.end

for.body:                                         ; preds = %for.cond
  %2 = load ptr, ptr %result.addr, align 8
  %3 = load i32, ptr %i, align 4
  %call2 = call noundef ptr @_ZNK4goal4formEj(ptr noundef nonnull align 8 dereferenceable(124) %this1, i32 noundef %3)
  %call3 = call noundef nonnull align 8 dereferenceable(16) ptr @_ZN15ref_vector_coreI4expr19ref_manager_wrapperIS0_11ast_managerEE9push_backEPS0_(ptr noundef nonnull align 8 dereferenceable(16) %2, ptr noundef %call2)
  br label %for.inc

for.inc:                                          ; preds = %for.body
  %4 = load i32, ptr %i, align 4
  %inc = add i32 %4, 1
  store i32 %inc, ptr %i, align 4
  br label %for.cond, !llvm.loop !11

for.end:                                          ; preds = %for.cond
  ret void
}

; Function Attrs: mustprogress uwtable
define hidden void @_ZN4goal6updateEjP4exprP3appPN18dependency_managerIN11ast_manager22expr_dependency_configEE10dependencyE(ptr noundef nonnull align 8 dereferenceable(124) %this, i32 noundef %i, ptr noundef %f, ptr noundef %pr, ptr noundef %d) #5 align 2 personality ptr @__gxx_personality_v0 {
entry:
  %this.addr = alloca ptr, align 8
  %i.addr = alloca i32, align 4
  %f.addr = alloca ptr, align 8
  %pr.addr = alloca ptr, align 8
  %d.addr = alloca ptr, align 8
  %out_f = alloca %class.obj_ref.29, align 8
  %out_pr = alloca %class.obj_ref, align 8
  %exn.slot = alloca ptr, align 8
  %ehselector.slot = alloca i32, align 4
  %fr = alloca %class.obj_ref.29, align 8
  store ptr %this, ptr %this.addr, align 8
  store i32 %i, ptr %i.addr, align 4
  store ptr %f, ptr %f.addr, align 8
  store ptr %pr, ptr %pr.addr, align 8
  store ptr %d, ptr %d.addr, align 8
  %this1 = load ptr, ptr %this.addr, align 8
  %m_inconsistent = getelementptr inbounds %class.goal, ptr %this1, i32 0, i32 10
  %bf.load = load i32, ptr %m_inconsistent, align 8
  %bf.lshr = lshr i32 %bf.load, 29
  %bf.clear = and i32 %bf.lshr, 1
  %tobool = icmp ne i32 %bf.clear, 0
  br i1 %tobool, label %if.then, label %if.end

if.then:                                          ; preds = %entry
  br label %if.end84

if.end:                                           ; preds = %entry
  %call = call noundef zeroext i1 @_ZNK4goal14proofs_enabledEv(ptr noundef nonnull align 8 dereferenceable(124) %this1)
  br i1 %call, label %if.then2, label %if.else48

if.then2:                                         ; preds = %if.end
  %0 = load ptr, ptr %pr.addr, align 8
  %tobool3 = icmp ne ptr %0, null
  br i1 %tobool3, label %if.end5, label %if.then4

if.then4:                                         ; preds = %if.then2
  br label %if.end84

if.end5:                                          ; preds = %if.then2
  %call6 = call noundef nonnull align 8 dereferenceable(976) ptr @_ZNK4goal1mEv(ptr noundef nonnull align 8 dereferenceable(124) %this1)
  call void @_ZN7obj_refI4expr11ast_managerEC2ERS1_(ptr noundef nonnull align 8 dereferenceable(16) %out_f, ptr noundef nonnull align 8 dereferenceable(976) %call6)
  %call7 = invoke noundef nonnull align 8 dereferenceable(976) ptr @_ZNK4goal1mEv(ptr noundef nonnull align 8 dereferenceable(124) %this1)
          to label %invoke.cont unwind label %lpad

invoke.cont:                                      ; preds = %if.end5
  invoke void @_ZN7obj_refI3app11ast_managerEC2ERS1_(ptr noundef nonnull align 8 dereferenceable(16) %out_pr, ptr noundef nonnull align 8 dereferenceable(976) %call7)
          to label %invoke.cont8 unwind label %lpad

invoke.cont8:                                     ; preds = %invoke.cont
  %1 = load ptr, ptr %f.addr, align 8
  %2 = load ptr, ptr %pr.addr, align 8
  %3 = load ptr, ptr %d.addr, align 8
  invoke void @_ZN4goal12slow_processEbP4exprP3appPN18dependency_managerIN11ast_manager22expr_dependency_configEE10dependencyER7obj_refIS0_S5_ERSA_IS2_S5_E(ptr noundef nonnull align 8 dereferenceable(124) %this1, i1 noundef zeroext true, ptr noundef %1, ptr noundef %2, ptr noundef %3, ptr noundef nonnull align 8 dereferenceable(16) %out_f, ptr noundef nonnull align 8 dereferenceable(16) %out_pr)
          to label %invoke.cont10 unwind label %lpad9

invoke.cont10:                                    ; preds = %invoke.cont8
  %m_inconsistent11 = getelementptr inbounds %class.goal, ptr %this1, i32 0, i32 10
  %bf.load12 = load i32, ptr %m_inconsistent11, align 8
  %bf.lshr13 = lshr i32 %bf.load12, 29
  %bf.clear14 = and i32 %bf.lshr13, 1
  %tobool15 = icmp ne i32 %bf.clear14, 0
  br i1 %tobool15, label %if.end47, label %if.then16

if.then16:                                        ; preds = %invoke.cont10
  %call18 = invoke noundef nonnull align 8 dereferenceable(976) ptr @_ZNK4goal1mEv(ptr noundef nonnull align 8 dereferenceable(124) %this1)
          to label %invoke.cont17 unwind label %lpad9

invoke.cont17:                                    ; preds = %if.then16
  %call20 = invoke noundef ptr @_ZNK7obj_refI4expr11ast_managerEcvPS0_Ev(ptr noundef nonnull align 8 dereferenceable(16) %out_f)
          to label %invoke.cont19 unwind label %lpad9

invoke.cont19:                                    ; preds = %invoke.cont17
  %call22 = invoke noundef zeroext i1 @_ZNK11ast_manager8is_falseEPK4expr(ptr noundef nonnull align 8 dereferenceable(976) %call18, ptr noundef %call20)
          to label %invoke.cont21 unwind label %lpad9

invoke.cont21:                                    ; preds = %invoke.cont19
  br i1 %call22, label %if.then23, label %if.else

if.then23:                                        ; preds = %invoke.cont21
  %call25 = invoke noundef ptr @_ZNK7obj_refI4expr11ast_managerEcvPS0_Ev(ptr noundef nonnull align 8 dereferenceable(16) %out_f)
          to label %invoke.cont24 unwind label %lpad9

invoke.cont24:                                    ; preds = %if.then23
  %call27 = invoke noundef ptr @_ZNK7obj_refI3app11ast_managerEcvPS0_Ev(ptr noundef nonnull align 8 dereferenceable(16) %out_pr)
          to label %invoke.cont26 unwind label %lpad9

invoke.cont26:                                    ; preds = %invoke.cont24
  %4 = load ptr, ptr %d.addr, align 8
  invoke void @_ZN4goal9push_backEP4exprP3appPN18dependency_managerIN11ast_manager22expr_dependency_configEE10dependencyE(ptr noundef nonnull align 8 dereferenceable(124) %this1, ptr noundef %call25, ptr noundef %call27, ptr noundef %4)
          to label %invoke.cont28 unwind label %lpad9

invoke.cont28:                                    ; preds = %invoke.cont26
  br label %if.end46

lpad:                                             ; preds = %invoke.cont, %if.end5
  %5 = landingpad { ptr, i32 }
          cleanup
  %6 = extractvalue { ptr, i32 } %5, 0
  store ptr %6, ptr %exn.slot, align 8
  %7 = extractvalue { ptr, i32 } %5, 1
  store i32 %7, ptr %ehselector.slot, align 4
  br label %ehcleanup

lpad9:                                            ; preds = %invoke.cont42, %if.then41, %invoke.cont38, %invoke.cont36, %invoke.cont34, %invoke.cont33, %invoke.cont31, %invoke.cont29, %if.else, %invoke.cont26, %invoke.cont24, %if.then23, %invoke.cont19, %invoke.cont17, %if.then16, %invoke.cont8
  %8 = landingpad { ptr, i32 }
          cleanup
  %9 = extractvalue { ptr, i32 } %8, 0
  store ptr %9, ptr %exn.slot, align 8
  %10 = extractvalue { ptr, i32 } %8, 1
  store i32 %10, ptr %ehselector.slot, align 4
  call void @_ZN7obj_refI3app11ast_managerED2Ev(ptr noundef nonnull align 8 dereferenceable(16) %out_pr) #3
  br label %ehcleanup

if.else:                                          ; preds = %invoke.cont21
  %call30 = invoke noundef nonnull align 8 dereferenceable(976) ptr @_ZNK4goal1mEv(ptr noundef nonnull align 8 dereferenceable(124) %this1)
          to label %invoke.cont29 unwind label %lpad9

invoke.cont29:                                    ; preds = %if.else
  %m_forms = getelementptr inbounds %class.goal, ptr %this1, i32 0, i32 7
  %11 = load i32, ptr %i.addr, align 4
  %call32 = invoke noundef ptr @_ZNK7obj_refI4expr11ast_managerEcvPS0_Ev(ptr noundef nonnull align 8 dereferenceable(16) %out_f)
          to label %invoke.cont31 unwind label %lpad9

invoke.cont31:                                    ; preds = %invoke.cont29
  invoke void @_ZN11ast_manager3setERN14parray_managerINS_17expr_array_configEE3refEjP4expr(ptr noundef nonnull align 8 dereferenceable(976) %call30, ptr noundef nonnull align 8 dereferenceable(12) %m_forms, i32 noundef %11, ptr noundef %call32)
          to label %invoke.cont33 unwind label %lpad9

invoke.cont33:                                    ; preds = %invoke.cont31
  %call35 = invoke noundef nonnull align 8 dereferenceable(976) ptr @_ZNK4goal1mEv(ptr noundef nonnull align 8 dereferenceable(124) %this1)
          to label %invoke.cont34 unwind label %lpad9

invoke.cont34:                                    ; preds = %invoke.cont33
  %m_proofs = getelementptr inbounds %class.goal, ptr %this1, i32 0, i32 8
  %12 = load i32, ptr %i.addr, align 4
  %call37 = invoke noundef ptr @_ZNK7obj_refI3app11ast_managerEcvPS0_Ev(ptr noundef nonnull align 8 dereferenceable(16) %out_pr)
          to label %invoke.cont36 unwind label %lpad9

invoke.cont36:                                    ; preds = %invoke.cont34
  invoke void @_ZN11ast_manager3setERN14parray_managerINS_17expr_array_configEE3refEjP4expr(ptr noundef nonnull align 8 dereferenceable(976) %call35, ptr noundef nonnull align 8 dereferenceable(12) %m_proofs, i32 noundef %12, ptr noundef %call37)
          to label %invoke.cont38 unwind label %lpad9

invoke.cont38:                                    ; preds = %invoke.cont36
  %call40 = invoke noundef zeroext i1 @_ZNK4goal18unsat_core_enabledEv(ptr noundef nonnull align 8 dereferenceable(124) %this1)
          to label %invoke.cont39 unwind label %lpad9

invoke.cont39:                                    ; preds = %invoke.cont38
  br i1 %call40, label %if.then41, label %if.end45

if.then41:                                        ; preds = %invoke.cont39
  %call43 = invoke noundef nonnull align 8 dereferenceable(976) ptr @_ZNK4goal1mEv(ptr noundef nonnull align 8 dereferenceable(124) %this1)
          to label %invoke.cont42 unwind label %lpad9

invoke.cont42:                                    ; preds = %if.then41
  %m_dependencies = getelementptr inbounds %class.goal, ptr %this1, i32 0, i32 9
  %13 = load i32, ptr %i.addr, align 4
  %14 = load ptr, ptr %d.addr, align 8
  invoke void @_ZN11ast_manager3setERN14parray_managerINS_28expr_dependency_array_configEE3refEjPN18dependency_managerINS_22expr_dependency_configEE10dependencyE(ptr noundef nonnull align 8 dereferenceable(976) %call43, ptr noundef nonnull align 8 dereferenceable(12) %m_dependencies, i32 noundef %13, ptr noundef %14)
          to label %invoke.cont44 unwind label %lpad9

invoke.cont44:                                    ; preds = %invoke.cont42
  br label %if.end45

if.end45:                                         ; preds = %invoke.cont44, %invoke.cont39
  br label %if.end46

if.end46:                                         ; preds = %if.end45, %invoke.cont28
  br label %if.end47

if.end47:                                         ; preds = %if.end46, %invoke.cont10
  call void @_ZN7obj_refI3app11ast_managerED2Ev(ptr noundef nonnull align 8 dereferenceable(16) %out_pr) #3
  call void @_ZN7obj_refI4expr11ast_managerED2Ev(ptr noundef nonnull align 8 dereferenceable(16) %out_f) #3
  br label %if.end84

ehcleanup:                                        ; preds = %lpad9, %lpad
  call void @_ZN7obj_refI4expr11ast_managerED2Ev(ptr noundef nonnull align 8 dereferenceable(16) %out_f) #3
  br label %eh.resume

if.else48:                                        ; preds = %if.end
  %15 = load ptr, ptr %f.addr, align 8
  %call49 = call noundef nonnull align 8 dereferenceable(976) ptr @_ZNK4goal1mEv(ptr noundef nonnull align 8 dereferenceable(124) %this1)
  call void @_ZN7obj_refI4expr11ast_managerEC2EPS0_RS1_(ptr noundef nonnull align 8 dereferenceable(16) %fr, ptr noundef %15, ptr noundef nonnull align 8 dereferenceable(976) %call49)
  %16 = load ptr, ptr %d.addr, align 8
  invoke void @_ZN4goal13quick_processEbR7obj_refI4expr11ast_managerEPN18dependency_managerINS2_22expr_dependency_configEE10dependencyE(ptr noundef nonnull align 8 dereferenceable(124) %this1, i1 noundef zeroext true, ptr noundef nonnull align 8 dereferenceable(16) %fr, ptr noundef %16)
          to label %invoke.cont51 unwind label %lpad50

invoke.cont51:                                    ; preds = %if.else48
  %m_inconsistent52 = getelementptr inbounds %class.goal, ptr %this1, i32 0, i32 10
  %bf.load53 = load i32, ptr %m_inconsistent52, align 8
  %bf.lshr54 = lshr i32 %bf.load53, 29
  %bf.clear55 = and i32 %bf.lshr54, 1
  %tobool56 = icmp ne i32 %bf.clear55, 0
  br i1 %tobool56, label %if.end82, label %if.then57

if.then57:                                        ; preds = %invoke.cont51
  %call59 = invoke noundef nonnull align 8 dereferenceable(976) ptr @_ZNK4goal1mEv(ptr noundef nonnull align 8 dereferenceable(124) %this1)
          to label %invoke.cont58 unwind label %lpad50

invoke.cont58:                                    ; preds = %if.then57
  %call61 = invoke noundef ptr @_ZNK7obj_refI4expr11ast_managerEcvPS0_Ev(ptr noundef nonnull align 8 dereferenceable(16) %fr)
          to label %invoke.cont60 unwind label %lpad50

invoke.cont60:                                    ; preds = %invoke.cont58
  %call63 = invoke noundef zeroext i1 @_ZNK11ast_manager8is_falseEPK4expr(ptr noundef nonnull align 8 dereferenceable(976) %call59, ptr noundef %call61)
          to label %invoke.cont62 unwind label %lpad50

invoke.cont62:                                    ; preds = %invoke.cont60
  br i1 %call63, label %if.then64, label %if.else66

if.then64:                                        ; preds = %invoke.cont62
  %17 = load ptr, ptr %f.addr, align 8
  %18 = load ptr, ptr %d.addr, align 8
  invoke void @_ZN4goal9push_backEP4exprP3appPN18dependency_managerIN11ast_manager22expr_dependency_configEE10dependencyE(ptr noundef nonnull align 8 dereferenceable(124) %this1, ptr noundef %17, ptr noundef null, ptr noundef %18)
          to label %invoke.cont65 unwind label %lpad50

invoke.cont65:                                    ; preds = %if.then64
  br label %if.end81

lpad50:                                           ; preds = %invoke.cont76, %if.then75, %invoke.cont72, %invoke.cont70, %invoke.cont67, %if.else66, %if.then64, %invoke.cont60, %invoke.cont58, %if.then57, %if.else48
  %19 = landingpad { ptr, i32 }
          cleanup
  %20 = extractvalue { ptr, i32 } %19, 0
  store ptr %20, ptr %exn.slot, align 8
  %21 = extractvalue { ptr, i32 } %19, 1
  store i32 %21, ptr %ehselector.slot, align 4
  call void @_ZN7obj_refI4expr11ast_managerED2Ev(ptr noundef nonnull align 8 dereferenceable(16) %fr) #3
  br label %eh.resume

if.else66:                                        ; preds = %invoke.cont62
  %call68 = invoke noundef nonnull align 8 dereferenceable(976) ptr @_ZNK4goal1mEv(ptr noundef nonnull align 8 dereferenceable(124) %this1)
          to label %invoke.cont67 unwind label %lpad50

invoke.cont67:                                    ; preds = %if.else66
  %m_forms69 = getelementptr inbounds %class.goal, ptr %this1, i32 0, i32 7
  %22 = load i32, ptr %i.addr, align 4
  %call71 = invoke noundef ptr @_ZNK7obj_refI4expr11ast_managerEcvPS0_Ev(ptr noundef nonnull align 8 dereferenceable(16) %fr)
          to label %invoke.cont70 unwind label %lpad50

invoke.cont70:                                    ; preds = %invoke.cont67
  invoke void @_ZN11ast_manager3setERN14parray_managerINS_17expr_array_configEE3refEjP4expr(ptr noundef nonnull align 8 dereferenceable(976) %call68, ptr noundef nonnull align 8 dereferenceable(12) %m_forms69, i32 noundef %22, ptr noundef %call71)
          to label %invoke.cont72 unwind label %lpad50

invoke.cont72:                                    ; preds = %invoke.cont70
  %call74 = invoke noundef zeroext i1 @_ZNK4goal18unsat_core_enabledEv(ptr noundef nonnull align 8 dereferenceable(124) %this1)
          to label %invoke.cont73 unwind label %lpad50

invoke.cont73:                                    ; preds = %invoke.cont72
  br i1 %call74, label %if.then75, label %if.end80

if.then75:                                        ; preds = %invoke.cont73
  %call77 = invoke noundef nonnull align 8 dereferenceable(976) ptr @_ZNK4goal1mEv(ptr noundef nonnull align 8 dereferenceable(124) %this1)
          to label %invoke.cont76 unwind label %lpad50

invoke.cont76:                                    ; preds = %if.then75
  %m_dependencies78 = getelementptr inbounds %class.goal, ptr %this1, i32 0, i32 9
  %23 = load i32, ptr %i.addr, align 4
  %24 = load ptr, ptr %d.addr, align 8
  invoke void @_ZN11ast_manager3setERN14parray_managerINS_28expr_dependency_array_configEE3refEjPN18dependency_managerINS_22expr_dependency_configEE10dependencyE(ptr noundef nonnull align 8 dereferenceable(976) %call77, ptr noundef nonnull align 8 dereferenceable(12) %m_dependencies78, i32 noundef %23, ptr noundef %24)
          to label %invoke.cont79 unwind label %lpad50

invoke.cont79:                                    ; preds = %invoke.cont76
  br label %if.end80

if.end80:                                         ; preds = %invoke.cont79, %invoke.cont73
  br label %if.end81

if.end81:                                         ; preds = %if.end80, %invoke.cont65
  br label %if.end82

if.end82:                                         ; preds = %if.end81, %invoke.cont51
  call void @_ZN7obj_refI4expr11ast_managerED2Ev(ptr noundef nonnull align 8 dereferenceable(16) %fr) #3
  br label %if.end84

if.end84:                                         ; preds = %if.end82, %if.end47, %if.then4, %if.then
  ret void

eh.resume:                                        ; preds = %lpad50, %ehcleanup
  %exn = load ptr, ptr %exn.slot, align 8
  %sel = load i32, ptr %ehselector.slot, align 4
  %lpad.val = insertvalue { ptr, i32 } poison, ptr %exn, 0
  %lpad.val85 = insertvalue { ptr, i32 } %lpad.val, i32 %sel, 1
  resume { ptr, i32 } %lpad.val85
}

; Function Attrs: mustprogress uwtable
define linkonce_odr hidden void @_ZN11ast_manager3setERN14parray_managerINS_17expr_array_configEE3refEjP4expr(ptr noundef nonnull align 8 dereferenceable(976) %this, ptr noundef nonnull align 8 dereferenceable(12) %r, i32 noundef %i, ptr noundef %v) #5 comdat align 2 {
entry:
  %this.addr = alloca ptr, align 8
  %r.addr = alloca ptr, align 8
  %i.addr = alloca i32, align 4
  %v.addr = alloca ptr, align 8
  store ptr %this, ptr %this.addr, align 8
  store ptr %r, ptr %r.addr, align 8
  store i32 %i, ptr %i.addr, align 4
  store ptr %v, ptr %v.addr, align 8
  %this1 = load ptr, ptr %this.addr, align 8
  %m_expr_array_manager = getelementptr inbounds %class.ast_manager, ptr %this1, i32 0, i32 3
  %0 = load ptr, ptr %r.addr, align 8
  %1 = load i32, ptr %i.addr, align 4
  call void @_ZN14parray_managerIN11ast_manager17expr_array_configEE3setERNS2_3refEjRKP4expr(ptr noundef nonnull align 8 dereferenceable(32) %m_expr_array_manager, ptr noundef nonnull align 8 dereferenceable(12) %0, i32 noundef %1, ptr noundef nonnull align 8 dereferenceable(8) %v.addr)
  ret void
}

; Function Attrs: mustprogress uwtable
define linkonce_odr hidden void @_ZN11ast_manager3setERN14parray_managerINS_28expr_dependency_array_configEE3refEjPN18dependency_managerINS_22expr_dependency_configEE10dependencyE(ptr noundef nonnull align 8 dereferenceable(976) %this, ptr noundef nonnull align 8 dereferenceable(12) %r, i32 noundef %i, ptr noundef %v) #5 comdat align 2 {
entry:
  %this.addr = alloca ptr, align 8
  %r.addr = alloca ptr, align 8
  %i.addr = alloca i32, align 4
  %v.addr = alloca ptr, align 8
  store ptr %this, ptr %this.addr, align 8
  store ptr %r, ptr %r.addr, align 8
  store i32 %i, ptr %i.addr, align 4
  store ptr %v, ptr %v.addr, align 8
  %this1 = load ptr, ptr %this.addr, align 8
  %m_expr_dependency_array_manager = getelementptr inbounds %class.ast_manager, ptr %this1, i32 0, i32 5
  %0 = load ptr, ptr %r.addr, align 8
  %1 = load i32, ptr %i.addr, align 4
  call void @_ZN14parray_managerIN11ast_manager28expr_dependency_array_configEE3setERNS2_3refEjRKPN18dependency_managerINS0_22expr_dependency_configEE10dependencyE(ptr noundef nonnull align 8 dereferenceable(32) %m_expr_dependency_array_manager, ptr noundef nonnull align 8 dereferenceable(12) %0, i32 noundef %1, ptr noundef nonnull align 8 dereferenceable(8) %v.addr)
  ret void
}

; Function Attrs: mustprogress uwtable
define hidden void @_ZN4goal9reset_allEv(ptr noundef nonnull align 8 dereferenceable(124) %this) #5 align 2 {
entry:
  %this.addr = alloca ptr, align 8
  store ptr %this, ptr %this.addr, align 8
  %this1 = load ptr, ptr %this.addr, align 8
  call void @_ZN4goal10reset_coreEv(ptr noundef nonnull align 8 dereferenceable(124) %this1)
  %m_depth = getelementptr inbounds %class.goal, ptr %this1, i32 0, i32 10
  %bf.load = load i32, ptr %m_depth, align 8
  %bf.clear = and i32 %bf.load, -67108864
  %bf.set = or i32 %bf.clear, 0
  store i32 %bf.set, ptr %m_depth, align 8
  %m_inconsistent = getelementptr inbounds %class.goal, ptr %this1, i32 0, i32 10
  %bf.load2 = load i32, ptr %m_inconsistent, align 8
  %bf.clear3 = and i32 %bf.load2, -536870913
  %bf.set4 = or i32 %bf.clear3, 0
  store i32 %bf.set4, ptr %m_inconsistent, align 8
  %m_precision = getelementptr inbounds %class.goal, ptr %this1, i32 0, i32 10
  %bf.load5 = load i32, ptr %m_precision, align 8
  %bf.clear6 = and i32 %bf.load5, 1073741823
  %bf.set7 = or i32 %bf.clear6, 0
  store i32 %bf.set7, ptr %m_precision, align 8
  ret void
}

; Function Attrs: mustprogress uwtable
define hidden void @_ZN4goal5resetEv(ptr noundef nonnull align 8 dereferenceable(124) %this) #5 align 2 {
entry:
  %this.addr = alloca ptr, align 8
  store ptr %this, ptr %this.addr, align 8
  %this1 = load ptr, ptr %this.addr, align 8
  call void @_ZN4goal10reset_coreEv(ptr noundef nonnull align 8 dereferenceable(124) %this1)
  %m_inconsistent = getelementptr inbounds %class.goal, ptr %this1, i32 0, i32 10
  %bf.load = load i32, ptr %m_inconsistent, align 8
  %bf.clear = and i32 %bf.load, -536870913
  %bf.set = or i32 %bf.clear, 0
  store i32 %bf.set, ptr %m_inconsistent, align 8
  ret void
}

; Function Attrs: mustprogress uwtable
define hidden void @_ZNK4goal7displayER11ast_printerRSo(ptr noundef nonnull align 8 dereferenceable(124) %this, ptr noundef nonnull align 8 dereferenceable(8) %prn, ptr noundef nonnull align 8 dereferenceable(8) %out) #5 align 2 {
entry:
  %this.addr = alloca ptr, align 8
  %prn.addr = alloca ptr, align 8
  %out.addr = alloca ptr, align 8
  %sz = alloca i32, align 4
  %i = alloca i32, align 4
  store ptr %this, ptr %this.addr, align 8
  store ptr %prn, ptr %prn.addr, align 8
  store ptr %out, ptr %out.addr, align 8
  %this1 = load ptr, ptr %this.addr, align 8
  %0 = load ptr, ptr %out.addr, align 8
  %call = call noundef nonnull align 8 dereferenceable(8) ptr @_ZStlsISt11char_traitsIcEERSt13basic_ostreamIcT_ES5_PKc(ptr noundef nonnull align 8 dereferenceable(8) %0, ptr noundef @.str.4)
  %call2 = call noundef i32 @_ZNK4goal4sizeEv(ptr noundef nonnull align 8 dereferenceable(124) %this1)
  store i32 %call2, ptr %sz, align 4
  store i32 0, ptr %i, align 4
  br label %for.cond

for.cond:                                         ; preds = %for.inc, %entry
  %1 = load i32, ptr %i, align 4
  %2 = load i32, ptr %sz, align 4
  %cmp = icmp ult i32 %1, %2
  br i1 %cmp, label %for.body, label %for.end

for.body:                                         ; preds = %for.cond
  %3 = load ptr, ptr %out.addr, align 8
  %call3 = call noundef nonnull align 8 dereferenceable(8) ptr @_ZStlsISt11char_traitsIcEERSt13basic_ostreamIcT_ES5_PKc(ptr noundef nonnull align 8 dereferenceable(8) %3, ptr noundef @.str.5)
  %4 = load ptr, ptr %prn.addr, align 8
  %5 = load ptr, ptr %out.addr, align 8
  %6 = load i32, ptr %i, align 4
  %call4 = call noundef ptr @_ZNK4goal4formEj(ptr noundef nonnull align 8 dereferenceable(124) %this1, i32 noundef %6)
  %vtable = load ptr, ptr %4, align 8
  %vfn = getelementptr inbounds ptr, ptr %vtable, i64 8
  %7 = load ptr, ptr %vfn, align 8
  call void %7(ptr noundef nonnull align 8 dereferenceable(8) %4, ptr noundef nonnull align 8 dereferenceable(8) %5, ptr noundef %call4, i32 noundef 2)
  br label %for.inc

for.inc:                                          ; preds = %for.body
  %8 = load i32, ptr %i, align 4
  %inc = add i32 %8, 1
  store i32 %inc, ptr %i, align 4
  br label %for.cond, !llvm.loop !12

for.end:                                          ; preds = %for.cond
  %9 = load ptr, ptr %out.addr, align 8
  %call5 = call noundef nonnull align 8 dereferenceable(8) ptr @_ZStlsISt11char_traitsIcEERSt13basic_ostreamIcT_ES5_PKc(ptr noundef nonnull align 8 dereferenceable(8) %9, ptr noundef @.str.6)
  %call6 = call noundef i32 @_ZNK4goal4precEv(ptr noundef nonnull align 8 dereferenceable(124) %this1)
  %call7 = call noundef nonnull align 8 dereferenceable(8) ptr @_ZlsRSoN4goal9precisionE(ptr noundef nonnull align 8 dereferenceable(8) %call5, i32 noundef %call6)
  %call8 = call noundef nonnull align 8 dereferenceable(8) ptr @_ZStlsISt11char_traitsIcEERSt13basic_ostreamIcT_ES5_PKc(ptr noundef nonnull align 8 dereferenceable(8) %call7, ptr noundef @.str.7)
  %call9 = call noundef i32 @_ZNK4goal5depthEv(ptr noundef nonnull align 8 dereferenceable(124) %this1)
  %call10 = call noundef nonnull align 8 dereferenceable(8) ptr @_ZNSolsEj(ptr noundef nonnull align 8 dereferenceable(8) %call8, i32 noundef %call9)
  %call11 = call noundef nonnull align 8 dereferenceable(8) ptr @_ZStlsISt11char_traitsIcEERSt13basic_ostreamIcT_ES5_PKc(ptr noundef nonnull align 8 dereferenceable(8) %call10, ptr noundef @.str.8)
  %call12 = call noundef nonnull align 8 dereferenceable(8) ptr @_ZNSolsEPFRSoS_E(ptr noundef nonnull align 8 dereferenceable(8) %call11, ptr noundef @_ZSt4endlIcSt11char_traitsIcEERSt13basic_ostreamIT_T0_ES6_)
  ret void
}

declare noundef nonnull align 8 dereferenceable(8) ptr @_ZNSolsEj(ptr noundef nonnull align 8 dereferenceable(8), i32 noundef) #1

; Function Attrs: mustprogress nounwind uwtable
define linkonce_odr hidden noundef i32 @_ZNK4goal5depthEv(ptr noundef nonnull align 8 dereferenceable(124) %this) #4 comdat align 2 {
entry:
  %this.addr = alloca ptr, align 8
  store ptr %this, ptr %this.addr, align 8
  %this1 = load ptr, ptr %this.addr, align 8
  %m_depth = getelementptr inbounds %class.goal, ptr %this1, i32 0, i32 10
  %bf.load = load i32, ptr %m_depth, align 8
  %bf.clear = and i32 %bf.load, 67108863
  ret i32 %bf.clear
}

declare noundef nonnull align 8 dereferenceable(8) ptr @_ZNSolsEPFRSoS_E(ptr noundef nonnull align 8 dereferenceable(8), ptr noundef) #1

declare noundef nonnull align 8 dereferenceable(8) ptr @_ZSt4endlIcSt11char_traitsIcEERSt13basic_ostreamIT_T0_ES6_(ptr noundef nonnull align 8 dereferenceable(8)) #1

; Function Attrs: mustprogress uwtable
define hidden void @_ZNK4goal25display_with_dependenciesER11ast_printerRSo(ptr noundef nonnull align 8 dereferenceable(124) %this, ptr noundef nonnull align 8 dereferenceable(8) %prn, ptr noundef nonnull align 8 dereferenceable(8) %out) #5 align 2 personality ptr @__gxx_personality_v0 {
entry:
  %this.addr = alloca ptr, align 8
  %prn.addr = alloca ptr, align 8
  %out.addr = alloca ptr, align 8
  %deps = alloca %class.ptr_vector.30, align 8
  %to_pp = alloca %class.obj_hashtable, align 8
  %exn.slot = alloca ptr, align 8
  %ehselector.slot = alloca i32, align 4
  %sz = alloca i32, align 4
  %i = alloca i32, align 4
  %__range2 = alloca ptr, align 8
  %__begin2 = alloca ptr, align 8
  %__end2 = alloca ptr, align 8
  %d = alloca ptr, align 8
  %ref.tmp = alloca %struct.mk_ismt2_pp, align 8
  %__range250 = alloca ptr, align 8
  %__begin251 = alloca %"class.core_hashtable<obj_hash_entry<expr>, obj_ptr_hash<expr>, ptr_eq<expr>>::iterator", align 8
  %__end254 = alloca %"class.core_hashtable<obj_hash_entry<expr>, obj_ptr_hash<expr>, ptr_eq<expr>>::iterator", align 8
  %d61 = alloca ptr, align 8
  store ptr %this, ptr %this.addr, align 8
  store ptr %prn, ptr %prn.addr, align 8
  store ptr %out, ptr %out.addr, align 8
  %this1 = load ptr, ptr %this.addr, align 8
  call void @_ZN10ptr_vectorI4exprEC2Ev(ptr noundef nonnull align 8 dereferenceable(8) %deps)
  invoke void @_ZN13obj_hashtableI4exprEC2Ej(ptr noundef nonnull align 8 dereferenceable(20) %to_pp, i32 noundef 8)
          to label %invoke.cont unwind label %lpad

