target datalayout = "e-m:e-p270:32:32-p271:32:32-p272:64:64-i64:64-i128:128-f80:128-n8:16:32:64-S128"
target triple = "x86_64-unknown-linux-gnu"

%"class.std::ios_base::Init" = type { i8 }
%"class.sat::literal" = type { i32 }
%struct.app_flags = type { i24 }
%class.symbol = type { ptr }
%class.rational = type { %class.mpq }
%class.mpq = type { %class.mpz, %class.mpz }
%class.mpz = type { i32, i8, ptr }
%"class.std::allocator" = type { i8 }
%class.inc_sat_solver = type { %class.solver, %"class.sat::solver", %class.stacked_value, %class.goal2sat, %class.params_ref, %class.ref_vector, %class.ref_vector, %class.svector.6, %class.svector.6, %class.svector.6, i32, %class.ref_vector, %class.atom2bool_var, %class.scoped_ptr.56, %class.ref.57, i8, i32, %class.svector.28, %class.sref_buffer, %class.ref.58, %class.ref_vector_core.59, %class.ref, %class.obj_hashtable, %class.ref.65, %class.ref, %class.svector.66, %"class.std::__cxx11::basic_string", i8, %class.ref_vector, %class.obj_map, %class.vector.70 }
%class.solver = type { %class.check_sat_result, %"class.user_propagator::core", %class.params_ref, %class.symbol }
%class.check_sat_result = type { ptr, ptr, %class.ref_vector, %class.obj_ref, i32, i32, %class.ref, double }
%class.obj_ref = type { ptr, ptr }
%"class.user_propagator::core" = type { ptr }
%"class.sat::solver" = type { %"class.sat::solver_core", i8, [7 x i8], %"struct.sat::config", %"struct.sat::stats", %class.scoped_ptr, %class.scoped_ptr.0, ptr, %"class.sat::drat", [2 x %"class.sat::clause_allocator"], i8, %class.random_gen, %"class.sat::cleaner", %class.svector.13, %"class.sat::model_converter", i8, %"class.sat::simplifier", %"class.sat::scc", %"class.sat::asymm_branch", %"class.sat::probing", i8, [7 x i8], %"class.sat::mus", %"class.sat::binspr", i8, i8, [6 x i8], %"class.sat::justification", %"class.sat::literal", %class.ptr_vector.22, %class.ptr_vector.22, i32, %class.svector.6, %class.svector.6, %class.svector.6, %class.svector.6, %class.vector.42, %class.svector.13, %class.svector.43, %class.svector.16, %class.svector.16, %class.svector.16, %class.svector.16, %class.svector.16, %class.svector.6, %class.svector.6, i32, %class.svector.28, %class.svector.6, i32, %class.svector.45, %class.svector.45, %class.svector.45, %class.svector.45, %class.svector.45, i32, double, %class.svector.16, %class.svector.16, %class.svector.16, %class.svector.26, i32, i32, i32, i32, i32, i32, %"struct.sat::backoff", i32, i32, %"struct.sat::backoff", %"struct.sat::backoff", %class.var_queue, i32, i32, i32, %class.ema, %class.ema, %class.ema, %class.ema, %class.ema, %class.svector.28, %class.svector.30, %"class.std::__cxx11::basic_string", i8, %class.visit_helper, %class.svector.47, %class.scoped_limit_trail, %class.stopwatch, %class.params_ref, %"struct.sat::no_drat_params", %class.scoped_ptr.40, %class.svector.28, %"class.sat::literal_set", %"class.sat::literal_set", %class.svector.28, i32, i32, i32, i32, i8, ptr, ptr, %class.statistics, i32, i32, i32, i32, i8, i32, i32, i32, i32, i32, i32, i32, double, i32, double, i8, i8, %class.svector.28, i8, %class.svector.45, i32, i32, i32, %class.svector.28, %class.svector.28, %class.svector.26, %class.svector.6, %class.approx_set_tpl, %class.svector.28, %class.svector.28, %class.vector.12, %class.svector.28, %class.svector.38, %class.u_map, %class.svector.28 }
%"class.sat::solver_core" = type { ptr, ptr }
%"struct.sat::config" = type <{ i64, i32, i32, i32, i8, [3 x i8], i32, i32, double, i32, i8, [3 x i8], i32, i8, [3 x i8], i32, [4 x i8], double, double, i32, i32, double, double, i32, [4 x i8], %class.symbol, double, i32, i32, i8, [3 x i8], i32, i32, i8, [3 x i8], i32, i8, [3 x i8], i32, i8, [3 x i8], i32, i8, i8, i8, i8, i32, i8, i8, i8, i8, i8, i8, i8, i8, i32, i8, i8, i8, i8, i32, double, i32, [4 x i8], double, double, double, double, i32, i8, i8, [2 x i8], double, i8, i8, [2 x i8], i32, double, i32, i32, i32, i32, i32, i32, i32, i32, i8, i8, i8, i8, i32, i32, i8, i8, i8, i8, i8, i8, i8, [5 x i8], %class.symbol, i8, i8, i8, i8, i8, i8, [2 x i8], i32, i32, i32, i8, [3 x i8], double, double, double, double, double, i8, [7 x i8] }>
%"struct.sat::stats" = type { i32, i32, i32, i32, i32, i32, i32, i32, i32, i32, i32, i32, i32, i32, i32, i32, i32, i32, i32, i32, i32 }
%class.scoped_ptr = type { ptr }
%class.scoped_ptr.0 = type { ptr }
%"class.sat::drat" = type { ptr, %class.svector, ptr, %"class.sat::clause_allocator", ptr, ptr, %class.svector.8, %class.svector.10, %class.vector.12, %class.svector.13, i8, i8, i8, i8, i8, %"struct.sat::drat::stats" }
%class.svector = type { %class.vector.1 }
%class.vector.1 = type { ptr }
%"class.sat::clause_allocator" = type { %class.sat_allocator, %class.id_gen }
%class.sat_allocator = type { ptr, i64, %class.ptr_vector.2, ptr, [65 x %class.ptr_vector.4] }
%class.ptr_vector.2 = type { %class.vector.3 }
%class.vector.3 = type { ptr }
%class.ptr_vector.4 = type { %class.vector.5 }
%class.vector.5 = type { ptr }
%class.id_gen = type { i32, %class.svector.6 }
%class.svector.8 = type { %class.vector.9 }
%class.vector.9 = type { ptr }
%class.svector.10 = type { %class.vector.11 }
%class.vector.11 = type { ptr }
%"struct.sat::drat::stats" = type { i32, i32, i32, i32 }
%class.random_gen = type { i32 }
%"class.sat::cleaner" = type { ptr, i32, i32, i32, i32 }
%"class.sat::model_converter" = type { %class.vector.15, i32, %class.svector.16, ptr, %class.svector.18 }
%class.vector.15 = type { ptr }
%class.svector.18 = type { %class.vector.19 }
%class.vector.19 = type { ptr }
%"class.sat::simplifier" = type { ptr, i32, %"class.sat::use_list", %"class.sat::ext_use_list", %"class.sat::clause_set", %class.svector.24, i32, %class.tracked_uint_set, i8, %"class.sat::tmp_clause", %class.svector.26, i32, i32, i8, i8, i8, i8, i32, i8, i8, i32, i8, i32, i8, i8, i32, i32, i32, i32, i32, i32, i32, i32, i32, i32, i8, i32, i8, i8, i32, i32, i32, i32, i32, i32, i32, i32, i32, i32, i32, i8, i32, %class.ptr_vector.22, %class.svector.28, %class.svector.30, %class.svector.30, %class.svector.28 }
%"class.sat::use_list" = type { %class.vector.20 }
%class.vector.20 = type { ptr }
%"class.sat::ext_use_list" = type { %class.vector.21 }
%class.vector.21 = type { ptr }
%"class.sat::clause_set" = type { %class.svector.6, %class.ptr_vector.22 }
%class.svector.24 = type { %class.vector.25 }
%class.vector.25 = type { ptr }
%class.tracked_uint_set = type { %class.svector.26, %class.svector.6 }
%"class.sat::tmp_clause" = type { ptr }
%"class.sat::scc" = type { ptr, i8, i8, i32, i32, %"class.sat::big" }
%"class.sat::big" = type { ptr, i32, %class.vector.32, %class.svector.16, %class.svector.33, %class.svector.33, %class.svector.28, %class.svector.28, i8, i8, %class.vector.32 }
%class.svector.33 = type { %class.vector.34 }
%class.vector.34 = type { ptr }
%class.vector.32 = type { ptr }
%"class.sat::asymm_branch" = type { ptr, %class.params_ref, i64, %class.random_gen, i32, i32, i8, i32, i32, i8, i8, i64, i32, i32, i32, %class.svector.28, %class.svector.28, %class.svector.35, %class.svector.35, %class.svector.28, %class.svector.28 }
%class.svector.35 = type { %class.vector.36 }
%class.vector.36 = type { ptr }
%"class.sat::probing" = type { ptr, i32, %"class.sat::literal_set", %class.svector.28, i32, i8, i32, i8, i8, i64, i32, %class.vector.37, %class.svector.38, %"class.sat::big" }
%class.vector.37 = type { ptr }
%"class.sat::mus" = type <{ ptr, %class.svector.28, %class.svector.28, i8, [7 x i8], %class.svector.13, i32, [4 x i8] }>
%"class.sat::binspr" = type <{ ptr, %class.scoped_ptr.40, i32, i32, %class.vector.41, i32, i32, %class.svector.16, %class.svector.16, %class.svector.28, %class.svector.28, i32, i32, i32, i32, i32, [4 x i32], [5 x i32], [5 x i32], [4 x i8] }>
%class.vector.41 = type { ptr }
%"class.sat::justification" = type <{ i32, [4 x i8], i64, i32, [4 x i8] }>
%class.ptr_vector.22 = type { %class.vector.23 }
%class.vector.23 = type { ptr }
%class.vector.42 = type { ptr }
%class.svector.13 = type { %class.vector.14 }
%class.vector.14 = type { ptr }
%class.svector.43 = type { %class.vector.44 }
%class.vector.44 = type { ptr }
%class.svector.16 = type { %class.vector.17 }
%class.vector.17 = type { ptr }
%"struct.sat::backoff" = type { i32, i32, i32, i32, i32 }
%class.var_queue = type { %class.heap }
%class.heap = type { %"struct.var_queue<svector<unsigned int>>::lt", %class.svector.33, %class.svector.33 }
%"struct.var_queue<svector<unsigned int>>::lt" = type { ptr }
%class.ema = type { double, double, double, i32, i32 }
%class.svector.30 = type { %class.vector.31 }
%class.vector.31 = type { ptr }
%class.visit_helper = type { %class.svector.6, i32, i32 }
%class.svector.47 = type { %class.vector.48 }
%class.vector.48 = type { ptr }
%class.scoped_limit_trail = type { %class.svector.6, i32, i32 }
%class.stopwatch = type <{ %"class.std::chrono::time_point", %"class.std::chrono::duration", i8, [7 x i8] }>
%"class.std::chrono::time_point" = type { %"class.std::chrono::duration" }
%"class.std::chrono::duration" = type { i64 }
%"struct.sat::no_drat_params" = type { %class.params_ref }
%class.scoped_ptr.40 = type { ptr }
%"class.sat::literal_set" = type { %class.tracked_uint_set }
%class.statistics = type { %class.svector.49, %class.svector.51 }
%class.svector.49 = type { %class.vector.50 }
%class.vector.50 = type { ptr }
%class.svector.51 = type { %class.vector.52 }
%class.vector.52 = type { ptr }
%class.svector.45 = type { %class.vector.46 }
%class.vector.46 = type { ptr }
%class.svector.26 = type { %class.vector.27 }
%class.vector.27 = type { ptr }
%class.approx_set_tpl = type { i32 }
%class.vector.12 = type { ptr }
%class.svector.38 = type { %class.vector.39 }
%class.vector.39 = type { ptr }
%class.u_map = type { %class.map }
%class.map = type { %class.table2map }
%class.table2map = type { %class.core_hashtable }
%class.core_hashtable = type <{ ptr, i32, i32, i32, [4 x i8] }>
%class.stacked_value = type { i8, %class.vector.53 }
%class.vector.53 = type { ptr }
%class.goal2sat = type <{ ptr, i32, [4 x i8] }>
%class.params_ref = type { ptr }
%class.svector.6 = type { %class.vector.7 }
%class.vector.7 = type { ptr }
%class.atom2bool_var = type { %class.expr2var.base, [7 x i8] }
%class.expr2var.base = type <{ ptr, %class.svector.6, %class.svector.54, %class.ptr_vector, %class.svector.6, i8 }>
%class.svector.54 = type { %class.vector.55 }
%class.vector.55 = type { ptr }
%class.ptr_vector = type { %class.vector }
%class.vector = type { ptr }
%class.scoped_ptr.56 = type { ptr }
%class.ref.57 = type { ptr }
%class.svector.28 = type { %class.vector.29 }
%class.vector.29 = type { ptr }
%class.sref_buffer = type { %class.ref_buffer_core }
%class.ref_buffer_core = type { %class.ptr_buffer }
%class.ptr_buffer = type { %class.buffer }
%class.buffer = type { ptr, i32, i32, [16 x %"union.std::aligned_storage<8, 8>::type"] }
%"union.std::aligned_storage<8, 8>::type" = type { [8 x i8] }
%class.ref.58 = type { ptr }
%class.ref_vector_core.59 = type { %class.ptr_vector.61 }
%class.ptr_vector.61 = type { %class.vector.62 }
%class.vector.62 = type { ptr }
%class.obj_hashtable = type { %class.core_hashtable.base.64, [4 x i8] }
%class.core_hashtable.base.64 = type <{ ptr, i32, i32, i32 }>
%class.ref.65 = type { ptr }
%class.ref = type { ptr }
%class.svector.66 = type { %class.vector.67 }
%class.vector.67 = type { ptr }
%"class.std::__cxx11::basic_string" = type { %"struct.std::__cxx11::basic_string<char>::_Alloc_hider", i64, %union.anon }
%"struct.std::__cxx11::basic_string<char>::_Alloc_hider" = type { ptr }
%union.anon = type { i64, [8 x i8] }
%class.ref_vector = type { %class.ref_vector_core }
%class.ref_vector_core = type { %class.ref_manager_wrapper, %class.ptr_vector }
%class.ref_manager_wrapper = type { ptr }
%class.obj_map = type { %class.core_hashtable.68 }
%class.core_hashtable.68 = type <{ ptr, i32, i32, i32, [4 x i8] }>
%class.vector.70 = type { ptr }
%class.vector.103 = type { ptr }
%class.default_exception = type { %class.z3_exception, %"class.std::__cxx11::basic_string" }
%class.z3_exception = type { ptr }
%class.obj_ref.126 = type { ptr, ptr }
%struct.parallel_params = type { ptr, %class.params_ref }
%class.ast_manager = type { %class.reslimit, %class.small_object_allocator, %class.family_manager, %class.parray_manager, %class.dependency_manager, %class.parray_manager.82, %class.ptr_vector.85, i32, i8, %class.ast_table, %class.obj_map.88, %class.id_gen, %class.id_gen, ptr, ptr, ptr, ptr, ptr, i32, i8, [3 x i8], %class.u_map.93, ptr, i8, i8, ptr, %class.symbol, %class.obj_map.98, ptr }
%class.reslimit = type { %"struct.std::atomic", i8, i64, i64, %class.svector.45, %class.ptr_vector.71 }
%"struct.std::atomic" = type { %"struct.std::__atomic_base" }
%"struct.std::__atomic_base" = type { i32 }
%class.ptr_vector.71 = type { %class.vector.72 }
%class.vector.72 = type { ptr }
%class.small_object_allocator = type { [32 x ptr], [32 x ptr], i64 }
%class.family_manager = type { i32, %class.symbol_table, %class.svector.76 }
%class.symbol_table = type { %class.core_hashtable.73, %class.vector.75, %class.svector.33 }
%class.core_hashtable.73 = type <{ ptr, i32, i32, i32, [4 x i8] }>
%class.vector.75 = type { ptr }
%class.svector.76 = type { %class.vector.77 }
%class.vector.77 = type { ptr }
%class.parray_manager = type { ptr, ptr, %class.ptr_vector.78, %class.ptr_vector.78 }
%class.ptr_vector.78 = type { %class.vector.79 }
%class.vector.79 = type { ptr }
%class.dependency_manager = type { ptr, ptr, %class.ptr_vector.80 }
%class.ptr_vector.80 = type { %class.vector.81 }
%class.vector.81 = type { ptr }
%class.parray_manager.82 = type { ptr, ptr, %class.ptr_vector.83, %class.ptr_vector.83 }
%class.ptr_vector.83 = type { %class.vector.84 }
%class.vector.84 = type { ptr }
%class.ptr_vector.85 = type { %class.vector.86 }
%class.vector.86 = type { ptr }
%class.ast_table = type { %class.chashtable }
%class.chashtable = type { ptr, i32, i32, i32, i32, i32, i32, i32, ptr, ptr, ptr }
%class.obj_map.88 = type { %class.core_hashtable.89 }
%class.core_hashtable.89 = type <{ ptr, i32, i32, i32, [4 x i8] }>
%class.u_map.93 = type { %class.map.94 }
%class.map.94 = type { %class.table2map.95 }
%class.table2map.95 = type { %class.core_hashtable.96 }
%class.core_hashtable.96 = type <{ ptr, i32, i32, i32, [4 x i8] }>
%class.obj_map.98 = type { %class.core_hashtable.99 }
%class.core_hashtable.99 = type <{ ptr, i32, i32, i32, [4 x i8] }>
%class.ref_unmanaged_wrapper = type { i8 }
%struct.obj_ptr_hash = type { i8 }
%struct.ptr_eq = type { i8 }
%struct.obj_hash = type { i8 }
%struct.default_eq = type { i8 }
%struct.sat_params = type { ptr, %class.params_ref }
%struct.sat_simplifier_params = type { ptr, %class.params_ref }
%class.model_evaluator = type { ptr }
%struct.mk_pp = type { %struct.mk_ismt2_pp }
%struct.mk_ismt2_pp = type { ptr, ptr, %class.params_ref, ptr, i32, i32, ptr }
%"struct.obj_map<expr, unsigned int>::key_data" = type <{ ptr, i32, [4 x i8] }>
%class.ast_translation = type <{ ptr, ptr, %class.svector.168, %class.ptr_vector.170, %class.ptr_vector.170, %class.obj_map.172, i32, i32, i32, i32, i32, [4 x i8] }>
%class.svector.168 = type { %class.vector.169 }
%class.vector.169 = type { ptr }
%class.ptr_vector.170 = type { %class.vector.171 }
%class.vector.171 = type { ptr }
%class.obj_map.172 = type { %class.core_hashtable.173 }
%class.core_hashtable.173 = type <{ ptr, i32, i32, i32, [4 x i8] }>
%"struct.euf::solver::scoped_set_translate" = type { ptr }
%class.u_map.299 = type { %class.map.300 }
%class.map.300 = type { %class.table2map.301 }
%class.table2map.301 = type { %class.core_hashtable.302 }
%class.core_hashtable.302 = type <{ ptr, i32, i32, i32, [4 x i8] }>
%class.obj_hashtable.306 = type { %class.core_hashtable.base.310, [4 x i8] }
%class.core_hashtable.base.310 = type <{ ptr, i32, i32, i32 }>
%"class.ref_vector<expr, ast_manager>::element_ref" = type { ptr, ptr }
%class.obj_map.128 = type { %class.core_hashtable.129 }
%class.core_hashtable.129 = type <{ ptr, i32, i32, i32, [4 x i8] }>
%class.ast = type { i32, i24, i32, i32 }
%class.core_hashtable.63 = type <{ ptr, i32, i32, i32, [4 x i8] }>
%class.obj_hash_entry = type { ptr }
%"class.obj_map<expr, sat::literal>::obj_map_entry" = type { %"struct.obj_map<expr, sat::literal>::key_data" }
%"struct.obj_map<expr, sat::literal>::key_data" = type <{ ptr, %"class.sat::literal", [4 x i8] }>
%class.converter = type <{ ptr, i32, [4 x i8] }>
%class.anon = type { i8 }
%class.tactic = type <{ %"class.user_propagator::core", i32, [4 x i8] }>
%class.dependent_expr_state_tactic = type <{ %class.tactic.base, [4 x i8], %class.dependent_expr_state, ptr, %class.params_ref, %class.trail_stack, %class.ref.112, %class.dependent_expr, %class.statistics, ptr, %class.ref_vector, %class.scoped_ptr.113, %class.scoped_ptr.114, i8, [7 x i8] }>
%class.tactic.base = type <{ %"class.user_propagator::core", i32 }>
%class.dependent_expr_state = type { ptr, i32, i8, i32, i32, i32, %class.ast_mark, %class.ref_vector.105, %class.trail_stack }
%class.ast_mark = type { ptr, %class.obj_mark, %class.obj_mark.104 }
%class.obj_mark = type { %struct.default_t2uint, %class.bit_vector }
%struct.default_t2uint = type { i8 }
%class.bit_vector = type { i32, i32, ptr }
%class.obj_mark.104 = type { %"struct.ast_mark::decl2uint", %class.bit_vector }
%"struct.ast_mark::decl2uint" = type { i8 }
%class.ref_vector.105 = type { %class.ref_vector_core.106 }
%class.ref_vector_core.106 = type { %class.ref_manager_wrapper.107, %class.ptr_vector.108 }
%class.ref_manager_wrapper.107 = type { ptr }
%class.ptr_vector.108 = type { %class.vector.109 }
%class.vector.109 = type { ptr }
%class.trail_stack = type { %class.ptr_vector.110, %class.svector.6, %class.region }
%class.ptr_vector.110 = type { %class.vector.111 }
%class.vector.111 = type { ptr }
%class.region = type { ptr, ptr, ptr, ptr, ptr }
%class.ref.112 = type { ptr }
%class.dependent_expr = type { ptr, ptr, ptr, ptr }
%class.scoped_ptr.113 = type { ptr }
%class.scoped_ptr.114 = type { ptr }
%class.statistics_report = type { ptr, %"class.std::function" }
%"class.std::function" = type { %"class.std::_Function_base", ptr }
%"class.std::_Function_base" = type { %"union.std::_Any_data", ptr }
%"union.std::_Any_data" = type { %"union.std::_Nocopy_types" }
%"union.std::_Nocopy_types" = type { { i64, i64 } }
%class.tactic_report = type { ptr }
%"class.std::tuple.139" = type { %"struct.std::_Tuple_impl.140" }
%"struct.std::_Tuple_impl.140" = type { %"struct.std::_Tuple_impl.141", %"struct.std::_Head_base.145" }
%"struct.std::_Tuple_impl.141" = type { %"struct.std::_Tuple_impl.142", %"struct.std::_Head_base.144" }
%"struct.std::_Tuple_impl.142" = type { %"struct.std::_Head_base.143" }
%"struct.std::_Head_base.143" = type { ptr }
%"struct.std::_Head_base.144" = type { ptr }
%"struct.std::_Head_base.145" = type { ptr }
%"struct.dependency_manager<ast_manager::expr_dependency_config>::leaf" = type { %"class.dependency_manager<ast_manager::expr_dependency_config>::dependency", ptr }
%"class.dependency_manager<ast_manager::expr_dependency_config>::dependency" = type { i32 }
%"struct.dependency_manager<ast_manager::expr_dependency_config>::join" = type { %"class.dependency_manager<ast_manager::expr_dependency_config>::dependency", [2 x ptr] }
%class.goal = type <{ ptr, %class.ref, %class.ref.58, %class.ref.115, i32, [4 x i8], %"class.std::__cxx11::basic_string", %"class.parray_manager<ast_manager::expr_array_config>::ref", %"class.parray_manager<ast_manager::expr_array_config>::ref", %"class.parray_manager<ast_manager::expr_dependency_array_config>::ref", i32, [4 x i8] }>
%class.ref.115 = type { ptr }
%"class.parray_manager<ast_manager::expr_array_config>::ref" = type <{ ptr, i32, [4 x i8] }>
%"class.parray_manager<ast_manager::expr_dependency_array_config>::ref" = type <{ ptr, i32, [4 x i8] }>
%class.model_reconstruction_trail = type <{ ptr, ptr, %class.scoped_ptr_vector, %class.ref_vector.105, %class.ast_mark, i8, [7 x i8] }>
%class.scoped_ptr_vector = type { %class.ptr_vector.116 }
%class.ptr_vector.116 = type { %class.vector.117 }
%class.vector.117 = type { ptr }
%struct.delete_proc = type { i8 }
%"struct.model_reconstruction_trail::entry" = type <{ %class.scoped_ptr.118, %class.vector.119, %class.obj_ref.120, %class.vector.121, i8, [7 x i8] }>
%class.scoped_ptr.118 = type { ptr }
%class.vector.119 = type { ptr }
%class.obj_ref.120 = type { ptr, ptr }
%class.vector.121 = type { ptr }
%"class.std::tuple" = type { %"struct.std::_Tuple_impl" }
%"struct.std::_Tuple_impl" = type { %"struct.std::_Tuple_impl.122", %"struct.std::_Head_base.127" }
%"struct.std::_Tuple_impl.122" = type { %"struct.std::_Tuple_impl.123", %"struct.std::_Head_base.125" }
%"struct.std::_Tuple_impl.123" = type { %"struct.std::_Head_base" }
%"struct.std::_Head_base" = type { %class.obj_ref.124 }
%class.obj_ref.124 = type { ptr, ptr }
%"struct.std::_Head_base.125" = type { %class.obj_ref.126 }
%"struct.std::_Head_base.127" = type { %class.obj_ref.120 }
%class.value_trail = type <{ %class.trail, ptr, i32, [4 x i8] }>
%class.trail = type { ptr }
%"struct.dependent_expr_state::thaw" = type { %class.trail, i32, ptr }
%class.tactic_exception = type { %class.z3_exception, %"class.std::__cxx11::basic_string" }
%"struct.parray_manager<ast_manager::expr_array_config>::cell" = type { i32, %union.anon.135, ptr, %union.anon.136 }
%union.anon.135 = type { i32 }
%union.anon.136 = type { ptr }
%"struct.parray_manager<ast_manager::expr_dependency_array_config>::cell" = type { i32, %union.anon.137, ptr, %union.anon.138 }
%union.anon.137 = type { i32 }
%union.anon.138 = type { ptr }
%class.ref.147 = type { ptr }
%class.app = type { %class.expr, ptr, i32, [0 x ptr] }
%class.expr = type { %class.ast }
%class.expr2var = type <{ ptr, %class.svector.6, %class.svector.54, %class.ptr_vector, %class.svector.6, i8, [7 x i8] }>
%class.model_core = type { ptr, ptr, i32, [4 x i8], %class.obj_map.148, %class.obj_map.153, %class.ptr_vector.108, %class.ptr_vector.108, %class.ptr_vector.108 }
%class.obj_map.148 = type { %class.core_hashtable.149 }
%class.core_hashtable.149 = type <{ ptr, i32, i32, i32, [4 x i8] }>
%class.obj_map.153 = type { %class.core_hashtable.154 }
%class.core_hashtable.154 = type <{ ptr, i32, i32, i32, [4 x i8] }>
%class.decl = type { %class.ast, %class.symbol, ptr }
%class.decl_info = type <{ i32, i32, %class.vector.167, i8, [7 x i8] }>
%class.vector.167 = type { ptr }
%"class.euf::solver" = type { %"class.sat::extension", %"class.euf::th_internalizer", %"class.euf::th_decompile", %"struct.sat::clause_eh", %"class.std::function.181", %"class.std::function.183", ptr, ptr, %"class.euf::relevancy", %struct.smt_params, %"struct.euf::solver::local_search_config", %"class.euf::egraph", %class.trail_stack, %"struct.euf::solver::stats", %class.th_rewriter, %class.ref_vector.105, ptr, ptr, ptr, %class.scoped_ptr.221, ptr, ptr, ptr, i32, %"class.std::__cxx11::basic_string", %class.ptr_vector, %class.ptr_vector, %class.ptr_vector.222, %class.svector.224, %class.svector.226, %class.svector.28, i32, %class.svector.6, %class.svector.228, %class.scoped_ptr_vector.230, %class.ptr_vector.231, ptr, ptr, i8, %class.ast_pp_util, i8, [7 x i8], %"class.euf::smt_proof_checker", %class.svector.28, %class.svector.289, %class.svector.289, %class.svector.289, i32, i32, i32, i32, i32, i32, i32, i32, %class.symbol, %class.symbol, %class.ref_vector, %class.ref_vector, %class.vector.291, %class.ref_vector, %class.obj_map.292, %class.ref.147, %class.scoped_ptr.297 }
%"class.sat::extension" = type { ptr, i8, i32, %class.symbol, ptr }
%"class.euf::th_internalizer" = type { ptr, %class.ptr_vector.177, %class.svector.179 }
%class.ptr_vector.177 = type { %class.vector.178 }
%class.vector.178 = type { ptr }
%class.svector.179 = type { %class.vector.180 }
%class.vector.180 = type { ptr }
%"class.euf::th_decompile" = type { ptr }
%"struct.sat::clause_eh" = type { ptr }
%"class.std::function.181" = type { %"class.std::_Function_base", ptr }
%"class.std::function.183" = type { %"class.std::_Function_base", ptr }
%"class.euf::relevancy" = type { ptr, i8, %class.svector.185, %class.svector.6, i32, %class.svector.16, %"class.sat::clause_allocator", %class.ptr_vector.22, %class.svector.16, %class.vector.12, i32, %class.svector.187, %class.ptr_vector.177, %class.ptr_vector.177 }
%class.svector.185 = type { %class.vector.186 }
%class.vector.186 = type { ptr }
%class.svector.187 = type { %class.vector.188 }
%class.vector.188 = type { ptr }
%struct.smt_params = type { %struct.preprocessor_params.base, %struct.dyn_ack_params, %struct.qi_params, %struct.theory_arith_params.base, i8, %struct.theory_array_params.base, %struct.theory_bv_params, %struct.theory_str_params.base, %struct.theory_seq_params, %struct.theory_pb_params.base, %struct.theory_datatype_params, i8, i8, i8, i8, i8, i8, i32, i8, i32, double, double, i32, i32, i32, i32, i32, i8, i32, i32, i32, i32, i32, i32, i8, i32, i8, i8, i8, i8, i8, %class.symbol, i32, i32, i8, i8, i8, i8, i32, i8, i32, i32, double, i8, double, double, i32, i8, i32, i32, double, i32, i32, i32, i32, i32, double, i8, i8, i8, %class.symbol, i8, i8, i8, i8, i8, i8, i32, i8, i8, i8, i8, i8, i8, i8, i8, i8, double, i8, %class.symbol }
%struct.preprocessor_params.base = type <{ %struct.pattern_inference_params.base, %struct.bit_blaster_params, i32, i32, i8, i8, i8, i8, i8, i8, i8, i8, i8, i8, i8, i8, i8, i8, i8, i8, i8, i8, i8 }>
%struct.pattern_inference_params.base = type <{ i8, [3 x i8], i32, i8, i8, [2 x i8], i32, i8, [3 x i8], i32, i32, i8, [3 x i8], i32, i8, i8 }>
%struct.bit_blaster_params = type { i8, i8 }
%struct.dyn_ack_params = type { i32, i8, double, i32, i32, double }
%struct.qi_params = type { %"class.std::__cxx11::basic_string", %"class.std::__cxx11::basic_string", double, double, i32, i32, i8, i32, i32, i8, i8, i32, i8, i8, i8, i8, i32, i32, i32, i8, i32, ptr }
%struct.theory_arith_params.base = type <{ i8, i8, [2 x i8], i32, i8, [3 x i8], i32, i8, [3 x i8], i32, i8, i8, [2 x i8], i32, i32, i8, i8, [2 x i8], i32, i32, i8, [3 x i8], i32, i32, i8, [3 x i8], double, double, i8, [3 x i8], i32, i8, i8, i8, i8, i8, [3 x i8], i32, i32, i8, [3 x i8], i32, i8, i8, i8, i8, i8, i8, [2 x i8], i32, i8, i8, [2 x i8], i32, i8, [3 x i8], i32, i8, i8, i8 }>
%struct.theory_array_params.base = type <{ i8, i8, [2 x i8], i32, i8, i8, [2 x i8], i32, i8, i8, i8, i8, i32, i8 }>
%struct.theory_bv_params = type { i32, i8, i8, i8, i8, i32, i8, i8, i8, i8, i32 }
%struct.theory_str_params.base = type <{ i8, i8, i8, i8, i8, i8, i8, i8, double, i32, i32, i32, i32, i32, i8, i8 }>
%struct.theory_seq_params = type { i8, i8, i32, i32 }
%struct.theory_pb_params.base = type <{ i32, i8 }>
%struct.theory_datatype_params = type { i32 }
%"struct.euf::solver::local_search_config" = type { double, i32, i32, i32, double }
%"class.euf::egraph" = type { ptr, %class.svector.189, %"class.euf::etable", %class.region, %class.scoped_ptr_vector.195, %class.svector.198, %class.svector.6, %class.ptr_vector.177, ptr, ptr, i32, %class.tmp_app, %class.ptr_vector.177, %class.ref_vector, %class.ref_vector.105, %class.vector.200, %class.ptr_vector.177, i32, i8, ptr, ptr, %"class.euf::justification", i32, %class.svector.203, %class.svector.16, %class.ptr_vector.177, %"struct.euf::egraph::stats", i8, i8, i64, %"class.std::vector", %"class.std::function.208", %"class.std::function.210", %"class.std::function.213", %"class.std::function.215", %"class.std::function.218" }
%class.svector.189 = type { %class.vector.190 }
%class.vector.190 = type { ptr }
%"class.euf::etable" = type { ptr, i8, %class.ptr_vector.4, %class.map.191 }
%class.map.191 = type { %class.table2map.192 }
%class.table2map.192 = type { %class.core_hashtable.193 }
%class.core_hashtable.193 = type <{ ptr, i32, i32, i32, [4 x i8] }>
%class.scoped_ptr_vector.195 = type { %class.ptr_vector.196 }
%class.ptr_vector.196 = type { %class.vector.197 }
%class.vector.197 = type { ptr }
%class.svector.198 = type { %class.vector.199 }
%class.vector.199 = type { ptr }
%class.tmp_app = type { i32, ptr }
%class.vector.200 = type { ptr }
%"class.euf::justification" = type { i32, %union.anon.201, %union.anon.202 }
%union.anon.201 = type { ptr }
%union.anon.202 = type { ptr }
%class.svector.203 = type { %class.vector.204 }
%class.vector.204 = type { ptr }
%"struct.euf::egraph::stats" = type { i32, i32, i32, i32, i32, i32 }
%"class.std::vector" = type { %"struct.std::_Vector_base" }
%"struct.std::_Vector_base" = type { %"struct.std::_Vector_base<std::function<void (euf::enode *, euf::enode *)>, std::allocator<std::function<void (euf::enode *, euf::enode *)>>>::_Vector_impl" }
%"struct.std::_Vector_base<std::function<void (euf::enode *, euf::enode *)>, std::allocator<std::function<void (euf::enode *, euf::enode *)>>>::_Vector_impl" = type { %"struct.std::_Vector_base<std::function<void (euf::enode *, euf::enode *)>, std::allocator<std::function<void (euf::enode *, euf::enode *)>>>::_Vector_impl_data" }
%"struct.std::_Vector_base<std::function<void (euf::enode *, euf::enode *)>, std::allocator<std::function<void (euf::enode *, euf::enode *)>>>::_Vector_impl_data" = type { ptr, ptr, ptr }
%"class.std::function.208" = type { %"class.std::_Function_base", ptr }
%"class.std::function.210" = type { %"class.std::_Function_base", ptr }
%"class.std::function.213" = type { %"class.std::_Function_base", ptr }
%"class.std::function.215" = type { %"class.std::_Function_base", ptr }
%"class.std::function.218" = type { %"class.std::_Function_base", ptr }
%"struct.euf::solver::stats" = type { i32, i32 }
%class.th_rewriter = type { ptr, %class.params_ref }
%class.scoped_ptr.221 = type { ptr }
%class.ptr_vector.222 = type { %class.vector.223 }
%class.vector.223 = type { ptr }
%class.svector.224 = type { %class.vector.225 }
%class.vector.225 = type { ptr }
%class.svector.226 = type { %class.vector.227 }
%class.vector.227 = type { ptr }
%class.svector.228 = type { %class.vector.229 }
%class.vector.229 = type { ptr }
%class.scoped_ptr_vector.230 = type { %class.ptr_vector.231 }
%class.ptr_vector.231 = type { %class.vector.232 }
%class.vector.232 = type { ptr }
%class.ast_pp_util = type { ptr, %class.obj_hashtable, %class.smt2_pp_environment_dbg, %class.stacked_value.273, %class.stacked_value.273, %class.stacked_value.273, %class.obj_mark, %class.ref_vector, %class.svector.6, %class.decl_collector }
%class.smt2_pp_environment_dbg = type { %class.smt2_pp_environment, ptr, %class.arith_util, %class.bv_util, %class.array_util, %class.fpa_util, %class.seq_util, %"class.datatype::util", %"class.datalog::dl_decl_util" }
%class.smt2_pp_environment = type { ptr, %class.smt_renaming }
%class.smt_renaming = type { %class.map.233, %class.map.237 }
%class.map.233 = type { %class.table2map.234 }
%class.table2map.234 = type { %class.core_hashtable.235 }
%class.core_hashtable.235 = type <{ ptr, i32, i32, i32, [4 x i8] }>
%class.map.237 = type { %class.table2map.238 }
%class.table2map.238 = type { %class.core_hashtable.239 }
%class.core_hashtable.239 = type <{ ptr, i32, i32, i32, [4 x i8] }>
%class.arith_util = type { ptr, ptr }
%class.bv_util = type { %class.bv_recognizers, ptr, ptr }
%class.bv_recognizers = type { i32 }
%class.array_util = type { %class.array_recognizers, ptr }
%class.array_recognizers = type { i32 }
%class.fpa_util = type { ptr, ptr, i32, %class.arith_util, %class.bv_util }
%class.seq_util = type { ptr, ptr, ptr, i32, [4 x i8], %"class.seq_util::str", %"class.seq_util::rex" }
%"class.seq_util::str" = type <{ ptr, ptr, i32, [4 x i8] }>
%"class.seq_util::rex" = type { ptr, ptr, i32, %class.vector.241, %class.ref_vector, %"struct.seq_util::rex::info", %"struct.seq_util::rex::info" }
%class.vector.241 = type { ptr }
%"struct.seq_util::rex::info" = type { i32, i8, i32, i32 }
%"class.datatype::util" = type { ptr, i32, ptr, %class.obj_map.242, %class.obj_map.247, %class.obj_map.252, %class.obj_map.98, %class.obj_map.98, %class.obj_map.98, %class.obj_map.257, %class.obj_map.257, %class.obj_map.257, %class.ref_vector.262, %class.ref_vector_core.265, %class.ptr_vector.269, i32, %class.ptr_vector.158 }
%class.obj_map.242 = type { %class.core_hashtable.243 }
%class.core_hashtable.243 = type <{ ptr, i32, i32, i32, [4 x i8] }>
%class.obj_map.247 = type { %class.core_hashtable.248 }
%class.core_hashtable.248 = type <{ ptr, i32, i32, i32, [4 x i8] }>
%class.obj_map.252 = type { %class.core_hashtable.253 }
%class.core_hashtable.253 = type <{ ptr, i32, i32, i32, [4 x i8] }>
%class.obj_map.257 = type { %class.core_hashtable.258 }
%class.core_hashtable.258 = type <{ ptr, i32, i32, i32, [4 x i8] }>
%class.ref_vector.262 = type { %class.ref_vector_core.263 }
%class.ref_vector_core.263 = type { %class.ref_manager_wrapper.264, %class.ptr_vector.170 }
%class.ref_manager_wrapper.264 = type { ptr }
%class.ref_vector_core.265 = type { %class.ptr_vector.267 }
%class.ptr_vector.267 = type { %class.vector.268 }
%class.vector.268 = type { ptr }
%class.ptr_vector.269 = type { %class.vector.270 }
%class.vector.270 = type { ptr }
%class.ptr_vector.158 = type { %class.vector.159 }
%class.vector.159 = type { ptr }
%"class.datalog::dl_decl_util" = type <{ ptr, %class.scoped_ptr.271, %class.scoped_ptr.272, i32, [4 x i8] }>
%class.scoped_ptr.271 = type { ptr }
%class.scoped_ptr.272 = type { ptr }
%class.stacked_value.273 = type { i32, %class.vector.103 }
%class.decl_collector = type { ptr, %class.lim_svector, %class.lim_svector.275, %class.lim_svector.275, %class.ast_mark, %class.ref_vector.262, %class.svector.6, i32, i32, %"class.datatype::util", %class.array_util, i32, %class.ptr_vector.170 }
%class.lim_svector = type { %class.svector.274, %class.svector.6 }
%class.svector.274 = type { %class.vector.159 }
%class.lim_svector.275 = type { %class.svector.276, %class.svector.6 }
%class.svector.276 = type { %class.vector.109 }
%"class.euf::smt_proof_checker" = type <{ ptr, %class.params_ref, %"class.euf::theory_checker", %class.scoped_ptr.284, %class.symbol, %"class.sat::solver", %"class.sat::drat", %class.svector.28, %class.svector.28, i8, [7 x i8], %class.map.285, %class.map.285, i32, [4 x i8] }>
%"class.euf::theory_checker" = type { ptr, %class.scoped_ptr_vector.277, %class.map.280 }
%class.scoped_ptr_vector.277 = type { %class.ptr_vector.278 }
%class.ptr_vector.278 = type { %class.vector.279 }
%class.vector.279 = type { ptr }
%class.map.280 = type { %class.table2map.281 }
%class.table2map.281 = type { %class.core_hashtable.282 }
%class.core_hashtable.282 = type <{ ptr, i32, i32, i32, [4 x i8] }>
%class.scoped_ptr.284 = type { ptr }
%class.map.285 = type { %class.table2map.286 }
%class.table2map.286 = type { %class.core_hashtable.287 }
%class.core_hashtable.287 = type <{ ptr, i32, i32, i32, [4 x i8] }>
%class.svector.289 = type { %class.vector.290 }
%class.vector.290 = type { ptr }
%class.vector.291 = type { ptr }
%class.obj_map.292 = type { %class.core_hashtable.293 }
%class.core_hashtable.293 = type <{ ptr, i32, i32, i32, [4 x i8] }>
%class.scoped_ptr.297 = type { ptr }
%struct.obj_hash.174 = type { i8 }
%struct.default_eq.175 = type { i8 }
%"class.obj_map<ast, ast *>::obj_map_entry" = type { %"struct.obj_map<ast, ast *>::key_data" }
%"struct.obj_map<ast, ast *>::key_data" = type { ptr, ptr }
%class.quantifier = type { %class.expr, i32, i32, ptr, ptr, i32, i32, i8, i8, %class.symbol, %class.symbol, i32, i32, [0 x i8] }
%"class.std::__cxx11::basic_stringstream" = type { %"class.std::basic_iostream.base", %"class.std::__cxx11::basic_stringbuf", %"class.std::basic_ios" }
%"class.std::basic_iostream.base" = type { %"class.std::basic_istream.base", %"class.std::basic_ostream.base" }
%"class.std::basic_istream.base" = type { ptr, i64 }
%"class.std::basic_ostream.base" = type { ptr }
%"class.std::__cxx11::basic_stringbuf" = type { %"class.std::basic_streambuf", i32, %"class.std::__cxx11::basic_string" }
%"class.std::basic_streambuf" = type { ptr, ptr, ptr, ptr, ptr, ptr, ptr, %"class.std::locale" }
%"class.std::locale" = type { ptr }
%"class.std::basic_ios" = type { %"class.std::ios_base", ptr, i8, i8, ptr, ptr, ptr, ptr }
%"class.std::ios_base" = type { ptr, i64, i64, i32, i32, i32, ptr, %"struct.std::ios_base::_Words", [8 x %"struct.std::ios_base::_Words"], i32, ptr, %"class.std::locale" }
%"struct.std::ios_base::_Words" = type { ptr, i64 }
%class.vector.298 = type { ptr }
%class.sat2goal = type { ptr }
%struct.u_hash = type { i8 }
%struct.u_eq = type { i8 }
%struct._key_data = type { i32, ptr }
%"struct.table2map<default_map_entry<unsigned int, expr *>, u_hash, u_eq>::entry_hash_proc" = type { i8 }
%"struct.table2map<default_map_entry<unsigned int, expr *>, u_hash, u_eq>::entry_eq_proc" = type { i8 }
%class.default_map_entry = type { %class.default_hash_entry }
%class.default_hash_entry = type { i32, i32, %struct._key_data }
%"struct.std::pair" = type { ptr, ptr }
%"struct.std::pair.304" = type { %"class.std::move_iterator", ptr }
%"class.std::move_iterator" = type { ptr }
%struct.obj_ptr_hash.308 = type { i8 }
%struct.ptr_eq.309 = type { i8 }
%class.core_hashtable.307 = type <{ ptr, i32, i32, i32, [4 x i8] }>
%class.obj_hash_entry.312 = type { ptr }
%struct.obj_hash.130 = type { i8 }
%struct.default_eq.131 = type { i8 }
%"struct.obj_map<expr, expr *>::key_data" = type { ptr, ptr }
%"class.core_hashtable<obj_map<expr, sat::literal>::obj_map_entry, obj_hash<obj_map<expr, sat::literal>::key_data>, default_eq<obj_map<expr, sat::literal>::key_data>>::iterator" = type { ptr, ptr }
%"class.obj_map<expr, expr *>::obj_map_entry" = type { %"struct.obj_map<expr, expr *>::key_data" }
%"struct.sat::mk_lits_pp" = type { i32, ptr }
%struct._key_data.320 = type { i32, i32 }
%class.obj_map.313 = type { %class.core_hashtable.314 }
%class.core_hashtable.314 = type <{ ptr, i32, i32, i32, [4 x i8] }>
%struct.obj_hash.315 = type { i8 }
%struct.default_eq.316 = type { i8 }
%"struct.obj_map<func_decl, expr *>::key_data" = type { ptr, ptr }
%"class.obj_map<func_decl, expr *>::obj_map_entry" = type { %"struct.obj_map<func_decl, expr *>::key_data" }
%"struct.table2map<default_map_entry<unsigned int, unsigned int>, u_hash, u_eq>::entry_hash_proc" = type { i8 }
%"struct.table2map<default_map_entry<unsigned int, unsigned int>, u_hash, u_eq>::entry_eq_proc" = type { i8 }
%class.default_map_entry.318 = type { %class.default_hash_entry.319 }
%class.default_hash_entry.319 = type { i32, i32, %struct._key_data.320 }
%"struct.std::pair.321" = type { ptr, ptr }
%"struct.std::pair.323" = type { %"class.std::move_iterator.325", ptr }
%"class.std::move_iterator.325" = type { ptr }
%"class.user_solver::solver" = type <{ %"class.euf::th_euf_solver.base", [4 x i8], %"class.user_propagator::callback", ptr, %"class.std::function.326", %"class.std::function.329", %"class.std::function.331", %"class.std::function.326", %"class.std::function.333", %"class.std::function.333", %"class.std::function.333", %"class.std::function.335", %"class.std::function.337", ptr, i32, [4 x i8], %class.vector.339, %class.svector.6, %class.vector.32, %class.svector.28, %class.svector.226, %class.svector.6, %"struct.user_solver::solver::stats", i32, i32, [4 x i8] }>
%"class.euf::th_euf_solver.base" = type <{ %"class.euf::th_solver", ptr, %class.ptr_vector.177, %class.svector.6, i32 }>
%"class.euf::th_solver" = type { %"class.sat::extension", %"class.euf::th_model_builder", %"class.euf::th_decompile", %"class.euf::th_internalizer", ptr }
%"class.euf::th_model_builder" = type { ptr }
%"class.user_propagator::callback" = type { ptr }
%"class.std::function.329" = type { %"class.std::_Function_base", ptr }
%"class.std::function.331" = type { %"class.std::_Function_base", ptr }
%"class.std::function.326" = type { %"class.std::_Function_base", ptr }
%"class.std::function.333" = type { %"class.std::_Function_base", ptr }
%"class.std::function.335" = type { %"class.std::_Function_base", ptr }
%"class.std::function.337" = type { %"class.std::_Function_base", ptr }
%class.vector.339 = type { ptr }
%"struct.user_solver::solver::stats" = type { i32 }
%struct._Guard = type { ptr }

$_ZN3sat7literalC2Ev = comdat any

$_ZN14inc_sat_solverC2ER11ast_managerRK10params_refb = comdat any

$_ZN6vectorIjLb1EjEC2Ev = comdat any

$_ZNK8rational11is_unsignedEv = comdat any

$_ZNSt7__cxx1112basic_stringIcSt11char_traitsIcESaIcEEC2IS3_EEPKcRKS3_ = comdat any

$_ZN17default_exceptionC2EONSt7__cxx1112basic_stringIcSt11char_traitsIcESaIcEEE = comdat any

$_ZN17default_exceptionD2Ev = comdat any

$_ZN6vectorIjLb1EjE9push_backEOj = comdat any

$_ZNK8rational12get_unsignedEv = comdat any

$_ZN14inc_sat_solver16display_weightedERSojPKP4exprPKj = comdat any

$_ZNK6vectorIjLb1EjE4dataEv = comdat any

$_ZN6vectorIjLb1EjED2Ev = comdat any

$_ZN15parallel_paramsC2ERK10params_ref = comdat any

$_ZNK15parallel_params6enableEv = comdat any

$_ZN10params_refC2Ev = comdat any

$_ZN15parallel_paramsD2Ev = comdat any

$_ZN6solverC2ER11ast_manager = comdat any

$_ZN11ast_manager5limitEv = comdat any

$_ZN13stacked_valueIbEC2EOKb = comdat any

$_ZN10ref_vectorI4expr11ast_managerEC2ERS1_ = comdat any

$_ZN7svectorIjjEC2Ev = comdat any

$_ZN13atom2bool_varC2ER11ast_manager = comdat any

$_ZN10scoped_ptrI20bit_blaster_rewriterEC2EPS0_ = comdat any

$_ZN3refI6tacticEC2Ev = comdat any

$_ZN7svectorIN3sat7literalEjEC2Ev = comdat any

$_ZN11sref_bufferI4goalLj16EEC2Ev = comdat any

$_ZN3refI15proof_converterEC2Ev = comdat any

$_ZN15ref_vector_coreI15model_converter21ref_unmanaged_wrapperIS0_EEC2Ev = comdat any

$_ZN3refI15model_converterEC2Ev = comdat any

$_ZN13obj_hashtableI9func_declEC2Ej = comdat any

$_ZN3refIN8sat2goal2mcEEC2Ev = comdat any

$_ZN7svectorIdjEC2Ev = comdat any

$_ZN7obj_mapI4exprN3sat7literalEEC2Ev = comdat any

$_ZN6vectorI8rationalLb1EjEC2Ev = comdat any

$_ZN15ref_vector_coreI15model_converter21ref_unmanaged_wrapperIS0_EE9push_backEPS0_ = comdat any

$_ZN14inc_sat_solver15init_preprocessEv = comdat any

$_ZN3sat6solver15set_incrementalEb = comdat any

$_ZNK14inc_sat_solver20override_incrementalEv = comdat any

$_ZN6vectorI8rationalLb1EjED2Ev = comdat any

$_ZN7obj_mapI4exprN3sat7literalEED2Ev = comdat any

$_ZN10ref_vectorI4expr11ast_managerED2Ev = comdat any

$_ZN7svectorIdjED2Ev = comdat any

$_ZN3refI15model_converterED2Ev = comdat any

$_ZN3refIN8sat2goal2mcEED2Ev = comdat any

$_ZN13obj_hashtableI9func_declED2Ev = comdat any

$_ZN15ref_vector_coreI15model_converter21ref_unmanaged_wrapperIS0_EED2Ev = comdat any

$_ZN3refI15proof_converterED2Ev = comdat any

$_ZN11sref_bufferI4goalLj16EED2Ev = comdat any

$_ZN7svectorIN3sat7literalEjED2Ev = comdat any

$_ZN3refI6tacticED2Ev = comdat any

$_ZN10scoped_ptrI20bit_blaster_rewriterED2Ev = comdat any

$_ZN13atom2bool_varD2Ev = comdat any

$_ZN7svectorIjjED2Ev = comdat any

$_ZN13stacked_valueIbED2Ev = comdat any

$_ZN6solverD2Ev = comdat any

$_ZN14inc_sat_solverD2Ev = comdat any

$_ZN14inc_sat_solverD0Ev = comdat any

$_ZNK14inc_sat_solver18collect_statisticsER10statistics = comdat any

$_ZN14inc_sat_solver14get_unsat_coreER10ref_vectorI4expr11ast_managerE = comdat any

$_ZN14inc_sat_solver14get_model_coreER3refI5modelE = comdat any

$_ZN14inc_sat_solver14get_proof_coreEv = comdat any

$_ZNK14inc_sat_solver14reason_unknownB5cxx11Ev = comdat any

$_ZN14inc_sat_solver18set_reason_unknownEPKc = comdat any

$_ZN14inc_sat_solver10get_labelsER7svectorI6symboljE = comdat any

$_ZNK14inc_sat_solver11get_managerEv = comdat any

$_ZN14inc_sat_solver9translateER11ast_managerRK10params_ref = comdat any

$_ZN14inc_sat_solver11updt_paramsERK10params_ref = comdat any

$_ZNK6solver10get_paramsEv = comdat any

$_ZN14inc_sat_solver20collect_param_descrsER12param_descrs = comdat any

$_ZN6solver11push_paramsEv = comdat any

$_ZN6solver10pop_paramsEv = comdat any

$_ZN14inc_sat_solver18set_produce_modelsEb = comdat any

$_ZN14inc_sat_solver16assert_expr_coreEP4expr = comdat any

$_ZN14inc_sat_solver9set_phaseEP4expr = comdat any

$_ZN14inc_sat_solver13move_to_frontEP4expr = comdat any

$_ZN14inc_sat_solver9get_phaseEv = comdat any

$_ZN14inc_sat_solver9set_phaseEPN6solver5phaseE = comdat any

$_ZN14inc_sat_solver17assert_expr_core2EP4exprS1_ = comdat any

$_ZN14inc_sat_solver4pushEv = comdat any

$_ZN14inc_sat_solver3popEj = comdat any

$_ZNK14inc_sat_solver15get_scope_levelEv = comdat any

$_ZN6solver12check_sat_ccERK10ref_vectorI4expr11ast_managerERK6vectorIS3_Lb1EjE = comdat any

$_ZN14inc_sat_solver21set_progress_callbackEP17progress_callback = comdat any

$_ZNK14inc_sat_solver18get_num_assertionsEv = comdat any

$_ZNK14inc_sat_solver13get_assertionEj = comdat any

$_ZNK14inc_sat_solver19get_num_assumptionsEv = comdat any

$_ZNK14inc_sat_solver14get_assumptionEj = comdat any

$_ZN14inc_sat_solver12find_mutexesERK10ref_vectorI4expr11ast_managerER6vectorIS3_Lb1EjE = comdat any

$_ZN14inc_sat_solver4cubeER10ref_vectorI4expr11ast_managerEj = comdat any

$_ZN14inc_sat_solver15congruence_rootEP4expr = comdat any

$_ZN14inc_sat_solver15congruence_nextEP4expr = comdat any

$_ZNK14inc_sat_solver19get_model_converterEv = comdat any

$_ZN6solver14get_units_coreER10ref_vectorI4expr11ast_managerE = comdat any

$_ZN14inc_sat_solver9get_trailEj = comdat any

$_ZN14inc_sat_solver10get_levelsERK10ptr_vectorI4exprER7svectorIjjE = comdat any

$_ZN14inc_sat_solver14check_sat_coreEjPKP4expr = comdat any

$_ZN14inc_sat_solver21get_consequences_coreERK10ref_vectorI4expr11ast_managerES5_RS3_ = comdat any

$_ZN14inc_sat_solver18register_on_clauseEPvRSt8functionIFvS0_P4exprjPKjjPKS3_EE = comdat any

$_ZN14inc_sat_solver19user_propagate_initEPvRSt8functionIFvS0_PN15user_propagator8callbackEEERS1_IFvS0_S4_jEERS1_IFS0_S0_R11ast_managerRPNS2_11context_objEEE = comdat any

$_ZN14inc_sat_solver29user_propagate_register_fixedERSt8functionIFvPvPN15user_propagator8callbackEP4exprS6_EE = comdat any

$_ZN14inc_sat_solver29user_propagate_register_finalERSt8functionIFvPvPN15user_propagator8callbackEEE = comdat any

$_ZN14inc_sat_solver26user_propagate_register_eqERSt8functionIFvPvPN15user_propagator8callbackEP4exprS6_EE = comdat any

$_ZN14inc_sat_solver29user_propagate_register_diseqERSt8functionIFvPvPN15user_propagator8callbackEP4exprS6_EE = comdat any

$_ZN14inc_sat_solver28user_propagate_register_exprEP4expr = comdat any

$_ZN14inc_sat_solver31user_propagate_register_createdERSt8functionIFvPvPN15user_propagator8callbackEP4exprEE = comdat any

$_ZN14inc_sat_solver30user_propagate_register_decideERSt8functionIFvPvPN15user_propagator8callbackEP4exprjbEE = comdat any

$_ZThn72_N14inc_sat_solverD1Ev = comdat any

$_ZThn72_N14inc_sat_solverD0Ev = comdat any

$_ZThn72_N14inc_sat_solver19user_propagate_initEPvRSt8functionIFvS0_PN15user_propagator8callbackEEERS1_IFvS0_S4_jEERS1_IFS0_S0_R11ast_managerRPNS2_11context_objEEE = comdat any

$_ZThn72_N14inc_sat_solver29user_propagate_register_fixedERSt8functionIFvPvPN15user_propagator8callbackEP4exprS6_EE = comdat any

$_ZThn72_N14inc_sat_solver29user_propagate_register_finalERSt8functionIFvPvPN15user_propagator8callbackEEE = comdat any

$_ZThn72_N14inc_sat_solver26user_propagate_register_eqERSt8functionIFvPvPN15user_propagator8callbackEP4exprS6_EE = comdat any

$_ZThn72_N14inc_sat_solver29user_propagate_register_diseqERSt8functionIFvPvPN15user_propagator8callbackEP4exprS6_EE = comdat any

$_ZThn72_N14inc_sat_solver28user_propagate_register_exprEP4expr = comdat any

$_ZThn72_N14inc_sat_solver31user_propagate_register_createdERSt8functionIFvPvPN15user_propagator8callbackEP4exprEE = comdat any

$_ZThn72_N14inc_sat_solver30user_propagate_register_decideERSt8functionIFvPvPN15user_propagator8callbackEP4exprjbEE = comdat any

$_ZN15user_propagator4core20user_propagate_clearEv = comdat any

$_ZThn72_N14inc_sat_solver18register_on_clauseEPvRSt8functionIFvS0_P4exprjPKjjPKS3_EE = comdat any

$_ZN16check_sat_resultC2ER11ast_manager = comdat any

$_ZN15user_propagator4coreC2Ev = comdat any

$_ZN6symbolC2Ev = comdat any

$_ZN7obj_refI3app11ast_managerEC2ERS1_ = comdat any

$_ZN7obj_refI3app11ast_managerED2Ev = comdat any

$_ZN16check_sat_resultD2Ev = comdat any

$_ZN16check_sat_resultD0Ev = comdat any

$_ZN7obj_refI3app11ast_managerE7dec_refEv = comdat any

$__clang_call_terminate = comdat any

$_ZN11ast_manager7dec_refEP3ast = comdat any

$_ZN3ast7dec_refEv = comdat any

$_ZNK3ast13get_ref_countEv = comdat any

$_ZN15user_propagator4coreD2Ev = comdat any

$_ZN15user_propagator4coreD0Ev = comdat any

$_ZN15user_propagator4core19user_propagate_initEPvRSt8functionIFvS1_PNS_8callbackEEERS2_IFvS1_S4_jEERS2_IFS1_S1_R11ast_managerRPNS_11context_objEEE = comdat any

$_ZN15user_propagator4core29user_propagate_register_fixedERSt8functionIFvPvPNS_8callbackEP4exprS6_EE = comdat any

$_ZN15user_propagator4core29user_propagate_register_finalERSt8functionIFvPvPNS_8callbackEEE = comdat any

$_ZN15user_propagator4core26user_propagate_register_eqERSt8functionIFvPvPNS_8callbackEP4exprS6_EE = comdat any

$_ZN15user_propagator4core29user_propagate_register_diseqERSt8functionIFvPvPNS_8callbackEP4exprS6_EE = comdat any

$_ZN15user_propagator4core28user_propagate_register_exprEP4expr = comdat any

$_ZN15user_propagator4core31user_propagate_register_createdERSt8functionIFvPvPNS_8callbackEP4exprEE = comdat any

$_ZN15user_propagator4core30user_propagate_register_decideERSt8functionIFvPvPNS_8callbackEP4exprjbEE = comdat any

$_ZN15user_propagator4core18register_on_clauseEPvRSt8functionIFvS1_P4exprjPKjjPKS4_EE = comdat any

$_ZN6vectorIbLb1EjEC2Ev = comdat any

$_ZN19ref_manager_wrapperI4expr11ast_managerEC2ERS1_ = comdat any

$_ZN15ref_vector_coreI4expr19ref_manager_wrapperIS0_11ast_managerEEC2ERKS3_ = comdat any

$_ZN10ptr_vectorI4exprEC2Ev = comdat any

$_ZN6vectorIP4exprLb0EjEC2Ev = comdat any

$_ZN6vectorIjLb0EjEC2Ev = comdat any

$_ZN6vectorIN3sat7literalELb0EjEC2Ev = comdat any

$_ZN15ref_buffer_coreI4goal21ref_unmanaged_wrapperIS0_ELj16EEC2ERKS2_ = comdat any

$_ZN10ptr_bufferI4goalLj16EEC2Ev = comdat any

$_ZN6bufferIP4goalLb0ELj16EEC2Ev = comdat any

$_ZN10ptr_vectorI15model_converterEC2Ev = comdat any

$_ZN6vectorIP15model_converterLb0EjEC2Ev = comdat any

$_ZN14core_hashtableI14obj_hash_entryI9func_declE12obj_ptr_hashIS1_E6ptr_eqIS1_EEC2EjRKS4_RKS6_ = comdat any

$_ZN14core_hashtableI14obj_hash_entryI9func_declE12obj_ptr_hashIS1_E6ptr_eqIS1_EE11alloc_tableEj = comdat any

$_Z10alloc_vectI14obj_hash_entryI9func_declEEPT_j = comdat any

$_ZN14obj_hash_entryI9func_declEC2Ev = comdat any

$_ZN6vectorIdLb0EjEC2Ev = comdat any

$_ZN14core_hashtableIN7obj_mapI4exprN3sat7literalEE13obj_map_entryE8obj_hashINS4_8key_dataEE10default_eqIS7_EEC2EjRKS8_RKSA_ = comdat any

$_ZN14core_hashtableIN7obj_mapI4exprN3sat7literalEE13obj_map_entryE8obj_hashINS4_8key_dataEE10default_eqIS7_EE11alloc_tableEj = comdat any

$_Z10alloc_vectIN7obj_mapI4exprN3sat7literalEE13obj_map_entryEEPT_j = comdat any

$_ZN7obj_mapI4exprN3sat7literalEE13obj_map_entryC2Ev = comdat any

$_ZN7obj_mapI4exprN3sat7literalEE8key_dataC2Ev = comdat any

$_ZN15ref_vector_coreI15model_converter21ref_unmanaged_wrapperIS0_EE7inc_refEPS0_ = comdat any

$_ZN6vectorIP15model_converterLb0EjE9push_backERKS1_ = comdat any

$_ZN21ref_unmanaged_wrapperI15model_converterE7inc_refEPS0_ = comdat any

$_ZN9converter7inc_refEv = comdat any

$_ZN6vectorIP15model_converterLb0EjE13expand_vectorEv = comdat any

$_ZNK3refI6tacticEcvbEv = comdat any

$_ZNK3refI6tacticEptEv = comdat any

$_ZNK10scoped_ptrI20bit_blaster_rewriterEcvbEv = comdat any

$_ZN10scoped_ptrI20bit_blaster_rewriterEaSEPS0_ = comdat any

$_ZN10sat_paramsC2ERK10params_ref = comdat any

$_ZNK10sat_params3eufEv = comdat any

$_ZN3refI6tacticEaSEPS0_ = comdat any

$_Z17mk_card2bv_tacticR11ast_managerRK10params_ref = comdat any

$_Z24mk_max_bv_sharing_tacticR11ast_managerRK10params_ref = comdat any

$_ZNK10scoped_ptrI20bit_blaster_rewriterE3getEv = comdat any

$_ZNK10scoped_ptrI20bit_blaster_rewriterEptEv = comdat any

$_ZN10sat_paramsD2Ev = comdat any

$_Z7deallocI20bit_blaster_rewriterEvPT_ = comdat any

$_ZN6tactic7inc_refEv = comdat any

$_ZN3refI6tacticE7dec_refEv = comdat any

$_ZN6tactic7dec_refEv = comdat any

$_Z7deallocI6tacticEvPT_ = comdat any

$_ZZ17mk_card2bv_tacticR11ast_managerRK10params_refENKUlRT_RT0_RT1_E_cvPFP25dependent_expr_simplifierS5_S7_S9_EIS_S2_20dependent_expr_stateEEv = comdat any

$_ZN27dependent_expr_state_tacticC2ER11ast_managerRK10params_refPFP25dependent_expr_simplifierS1_S4_R20dependent_expr_stateE = comdat any

$_ZZ17mk_card2bv_tacticR11ast_managerRK10params_refENUlRT_RT0_RT1_E_8__invokeIS_S2_20dependent_expr_stateEEP25dependent_expr_simplifierS5_S7_S9_ = comdat any

$_ZZ17mk_card2bv_tacticR11ast_managerRK10params_refENKUlRT_RT0_RT1_E_clIS_S2_20dependent_expr_stateEEP25dependent_expr_simplifierS5_S7_S9_ = comdat any

$_ZN6tacticC2Ev = comdat any

$_ZN20dependent_expr_stateC2ER11ast_manager = comdat any

$_ZN11trail_stackC2Ev = comdat any

$_ZN3refI4goalEC2Ev = comdat any

$_ZNK11ast_manager7mk_trueEv = comdat any

$_ZN14dependent_exprC2ER11ast_managerP4exprP3appPN18dependency_managerINS0_22expr_dependency_configEE10dependencyE = comdat any

$_ZN10statisticsC2Ev = comdat any

$_ZN10scoped_ptrI25dependent_expr_simplifierEC2EPS0_ = comdat any

$_ZN10scoped_ptrI26model_reconstruction_trailEC2EPS0_ = comdat any

$_ZN10scoped_ptrI25dependent_expr_simplifierED2Ev = comdat any

$_ZN10statisticsD2Ev = comdat any

$_ZN14dependent_exprD2Ev = comdat any

$_ZN3refI4goalED2Ev = comdat any

$_ZN11trail_stackD2Ev = comdat any

$_ZN27dependent_expr_state_tacticD2Ev = comdat any

$_ZN27dependent_expr_state_tacticD0Ev = comdat any

$_ZN6tactic19user_propagate_initEPvRSt8functionIFvS0_PN15user_propagator8callbackEEERS1_IFvS0_S4_jEERS1_IFS0_S0_R11ast_managerRPNS2_11context_objEEE = comdat any

$_ZN27dependent_expr_state_tactic28user_propagate_register_exprEP4expr = comdat any

$_ZN27dependent_expr_state_tactic20user_propagate_clearEv = comdat any

$_ZN6tactic18register_on_clauseEPvRSt8functionIFvS0_P4exprjPKjjPKS3_EE = comdat any

$_ZN27dependent_expr_state_tactic11updt_paramsERK10params_ref = comdat any

$_ZN27dependent_expr_state_tactic20collect_param_descrsER12param_descrs = comdat any

$_ZN27dependent_expr_state_tacticclERK3refI4goalER11sref_bufferIS1_Lj16EE = comdat any

$_ZNK27dependent_expr_state_tactic18collect_statisticsER10statistics = comdat any

$_ZN27dependent_expr_state_tactic16reset_statisticsEv = comdat any

$_ZN27dependent_expr_state_tactic7cleanupEv = comdat any

$_ZN6tactic5resetEv = comdat any

$_ZN6tactic9set_logicERK6symbol = comdat any

$_ZN6tactic21set_progress_callbackEP17progress_callback = comdat any

$_ZN27dependent_expr_state_tactic9translateER11ast_manager = comdat any

$_ZNK27dependent_expr_state_tactic4nameEv = comdat any

$_ZNK27dependent_expr_state_tactic5qtailEv = comdat any

$_ZN27dependent_expr_state_tacticixEj = comdat any

$_ZN27dependent_expr_state_tactic6updateEjRK14dependent_expr = comdat any

$_ZN27dependent_expr_state_tactic3addERK14dependent_expr = comdat any

$_ZN27dependent_expr_state_tactic12inconsistentEv = comdat any

$_ZN27dependent_expr_state_tactic11model_trailEv = comdat any

$_ZN27dependent_expr_state_tactic7updatedEv = comdat any

$_ZN27dependent_expr_state_tactic13reset_updatedEv = comdat any

$_ZThn16_N27dependent_expr_state_tacticD1Ev = comdat any

$_ZThn16_N27dependent_expr_state_tacticD0Ev = comdat any

$_ZThn16_NK27dependent_expr_state_tactic5qtailEv = comdat any

$_ZThn16_N27dependent_expr_state_tacticixEj = comdat any

$_ZThn16_N27dependent_expr_state_tactic6updateEjRK14dependent_expr = comdat any

$_ZThn16_N27dependent_expr_state_tactic3addERK14dependent_expr = comdat any

$_ZThn16_N27dependent_expr_state_tactic12inconsistentEv = comdat any

$_ZThn16_N27dependent_expr_state_tactic11model_trailEv = comdat any

$_ZN20dependent_expr_state14flatten_suffixEv = comdat any

$_ZThn16_N27dependent_expr_state_tactic7updatedEv = comdat any

$_ZThn16_N27dependent_expr_state_tactic13reset_updatedEv = comdat any

$_ZNK20dependent_expr_state7displayERSo = comdat any

$_ZN6tacticD2Ev = comdat any

$_ZN6tacticD0Ev = comdat any

$_ZN6tactic28user_propagate_register_exprEP4expr = comdat any

$_ZN6tactic11updt_paramsERK10params_ref = comdat any

$_ZN6tactic20collect_param_descrsER12param_descrs = comdat any

$_ZNK6tactic18collect_statisticsER10statistics = comdat any

$_ZN6tactic16reset_statisticsEv = comdat any

$_ZN8ast_markC2Ev = comdat any

$_ZN10ref_vectorI9func_decl11ast_managerEC2ERS1_ = comdat any

$_ZN10ref_vectorI9func_decl11ast_managerED2Ev = comdat any

$_ZN8ast_markD2Ev = comdat any

$_ZN20dependent_expr_stateD2Ev = comdat any

$_ZN20dependent_expr_stateD0Ev = comdat any

$_ZN8obj_markI4expr10bit_vector14default_t2uintIS0_EEC2ERKS3_ = comdat any

$_ZN8obj_markI4decl10bit_vectorN8ast_mark9decl2uintEEC2ERKS3_ = comdat any

$_ZN8obj_markI4expr10bit_vector14default_t2uintIS0_EED2Ev = comdat any

$_ZN10bit_vectorC2Ev = comdat any

$_ZN10bit_vectorD2Ev = comdat any

$_Z13dealloc_svectIjEvPT_ = comdat any

$_ZN19ref_manager_wrapperI9func_decl11ast_managerEC2ERS1_ = comdat any

$_ZN15ref_vector_coreI9func_decl19ref_manager_wrapperIS0_11ast_managerEEC2ERKS3_ = comdat any

$_ZN10ptr_vectorI9func_declEC2Ev = comdat any

$_ZN6vectorIP9func_declLb0EjEC2Ev = comdat any

$_ZN15ref_vector_coreI9func_decl19ref_manager_wrapperIS0_11ast_managerEED2Ev = comdat any

$_ZN15ref_vector_coreI9func_decl19ref_manager_wrapperIS0_11ast_managerEE13dec_range_refEPKPS0_S7_ = comdat any

$_ZNK6vectorIP9func_declLb0EjE4dataEv = comdat any

$_ZNK6vectorIP9func_declLb0EjE4sizeEv = comdat any

$_ZN10ptr_vectorI9func_declED2Ev = comdat any

$_ZN15ref_vector_coreI9func_decl19ref_manager_wrapperIS0_11ast_managerEE7dec_refEPS0_ = comdat any

$_ZN19ref_manager_wrapperI9func_decl11ast_managerE7dec_refEPS0_ = comdat any

$_ZN6vectorIP9func_declLb0EjED2Ev = comdat any

$_ZN6vectorIP9func_declLb0EjE7destroyEv = comdat any

$_ZN6vectorIP9func_declLb0EjE11free_memoryEv = comdat any

$_ZN8obj_markI4decl10bit_vectorN8ast_mark9decl2uintEED2Ev = comdat any

$_ZN10ptr_vectorI5trailEC2Ev = comdat any

$_ZN10ptr_vectorI5trailED2Ev = comdat any

$_ZN6vectorIP5trailLb0EjEC2Ev = comdat any

$_ZN6vectorIP5trailLb0EjED2Ev = comdat any

$_ZN6vectorIP5trailLb0EjE7destroyEv = comdat any

$_ZN6vectorIP5trailLb0EjE11free_memoryEv = comdat any

$_ZN11ast_manager7inc_refEP3ast = comdat any

$_ZN11ast_manager7inc_refEPN18dependency_managerINS_22expr_dependency_configEE10dependencyE = comdat any

$_ZN3ast7inc_refEv = comdat any

$_ZN18dependency_managerIN11ast_manager22expr_dependency_configEE7inc_refEPNS2_10dependencyE = comdat any

$_ZN7svectorISt4pairIPKcjEjEC2Ev = comdat any

$_ZN7svectorISt4pairIPKcdEjEC2Ev = comdat any

$_ZN7svectorISt4pairIPKcjEjED2Ev = comdat any

$_ZN6vectorISt4pairIPKcjELb0EjEC2Ev = comdat any

$_ZN6vectorISt4pairIPKcdELb0EjEC2Ev = comdat any

$_ZN6vectorISt4pairIPKcjELb0EjED2Ev = comdat any

$_ZN6vectorISt4pairIPKcjELb0EjE7destroyEv = comdat any

$_ZN6vectorISt4pairIPKcjELb0EjE11free_memoryEv = comdat any

$_Z7deallocI25dependent_expr_simplifierEvPT_ = comdat any

$_ZN7svectorISt4pairIPKcdEjED2Ev = comdat any

$_ZN6vectorISt4pairIPKcdELb0EjED2Ev = comdat any

$_ZN6vectorISt4pairIPKcdELb0EjE7destroyEv = comdat any

$_ZN6vectorISt4pairIPKcdELb0EjE11free_memoryEv = comdat any

$_ZN11ast_manager7dec_refEPN18dependency_managerINS_22expr_dependency_configEE10dependencyE = comdat any

$_ZN18dependency_managerIN11ast_manager22expr_dependency_configEE7dec_refEPNS2_10dependencyE = comdat any

$_ZN18dependency_managerIN11ast_manager22expr_dependency_configEE3delEPNS2_10dependencyE = comdat any

$_ZN6vectorIPN18dependency_managerIN11ast_manager22expr_dependency_configEE10dependencyELb0EjE9push_backERKS5_ = comdat any

$_ZNK6vectorIPN18dependency_managerIN11ast_manager22expr_dependency_configEE10dependencyELb0EjE5emptyEv = comdat any

$_ZN6vectorIPN18dependency_managerIN11ast_manager22expr_dependency_configEE10dependencyELb0EjE4backEv = comdat any

$_ZN6vectorIPN18dependency_managerIN11ast_manager22expr_dependency_configEE10dependencyELb0EjE8pop_backEv = comdat any

$_ZNK18dependency_managerIN11ast_manager22expr_dependency_configEE10dependency7is_leafEv = comdat any

$_ZN18dependency_managerIN11ast_manager22expr_dependency_configEE7dec_refERKP4expr = comdat any

$_ZN18dependency_managerIN11ast_manager22expr_dependency_configEE7to_leafEPNS2_10dependencyE = comdat any

$_ZN18dependency_managerIN11ast_manager22expr_dependency_configEE7to_joinEPNS2_10dependencyE = comdat any

$_ZN6vectorIPN18dependency_managerIN11ast_manager22expr_dependency_configEE10dependencyELb0EjE13expand_vectorEv = comdat any

$_ZN6vectorIPN18dependency_managerIN11ast_manager22expr_dependency_configEE10dependencyELb0EjEixEj = comdat any

$_ZNK6vectorIPN18dependency_managerIN11ast_manager22expr_dependency_configEE10dependencyELb0EjE4sizeEv = comdat any

$_ZN3refI4goalE7dec_refEv = comdat any

$_ZN4goal7dec_refEv = comdat any

$_Z7deallocI4goalEvPT_ = comdat any

$_ZNK10scoped_ptrI25dependent_expr_simplifierEcvbEv = comdat any

$_ZN20dependent_expr_state3popEj = comdat any

$_ZN10scoped_ptrI26model_reconstruction_trailED2Ev = comdat any

$_ZN11trail_stack9pop_scopeEj = comdat any

$_ZNK6vectorIjLb0EjE4sizeEv = comdat any

$_ZN6vectorIjLb0EjEixEj = comdat any

$_Z16undo_trail_stackR10ptr_vectorI5trailEj = comdat any

$_ZN6vectorIjLb0EjE6shrinkEj = comdat any

$_ZN6region9pop_scopeEj = comdat any

$_ZN6vectorIP5trailLb0EjE5beginEv = comdat any

$_ZN6vectorIP5trailLb0EjE3endEv = comdat any

$_ZN6vectorIP5trailLb0EjE6shrinkEj = comdat any

$_ZNK6vectorIP5trailLb0EjE4sizeEv = comdat any

$_Z7deallocI26model_reconstruction_trailEvPT_ = comdat any

$_ZN26model_reconstruction_trailD2Ev = comdat any

$_ZN17scoped_ptr_vectorIN26model_reconstruction_trail5entryEED2Ev = comdat any

$_ZN17scoped_ptr_vectorIN26model_reconstruction_trail5entryEE5resetEv = comdat any

$_ZN10ptr_vectorIN26model_reconstruction_trail5entryEED2Ev = comdat any

$_ZSt8for_eachIPPN26model_reconstruction_trail5entryE11delete_procIS1_EET0_T_S7_S6_ = comdat any

$_ZN6vectorIPN26model_reconstruction_trail5entryELb0EjE5beginEv = comdat any

$_ZN6vectorIPN26model_reconstruction_trail5entryELb0EjE3endEv = comdat any

$_ZN6vectorIPN26model_reconstruction_trail5entryELb0EjE5resetEv = comdat any

$_ZN11delete_procIN26model_reconstruction_trail5entryEEclEPS1_ = comdat any

$_Z7deallocIN26model_reconstruction_trail5entryEEvPT_ = comdat any

$_ZN26model_reconstruction_trail5entryD2Ev = comdat any

$_ZN6vectorISt5tupleIJ7obj_refI9func_decl11ast_managerES1_I4exprS3_ES1_IN18dependency_managerINS3_22expr_dependency_configEE10dependencyES3_EEELb1EjED2Ev = comdat any

$_ZN7obj_refI9func_decl11ast_managerED2Ev = comdat any

$_ZN6vectorI14dependent_exprLb1EjED2Ev = comdat any

$_ZN10scoped_ptrI17expr_substitutionED2Ev = comdat any

$_ZN6vectorISt5tupleIJ7obj_refI9func_decl11ast_managerES1_I4exprS3_ES1_IN18dependency_managerINS3_22expr_dependency_configEE10dependencyES3_EEELb1EjE7destroyEv = comdat any

$_ZN6vectorISt5tupleIJ7obj_refI9func_decl11ast_managerES1_I4exprS3_ES1_IN18dependency_managerINS3_22expr_dependency_configEE10dependencyES3_EEELb1EjE16destroy_elementsEv = comdat any

$_ZN6vectorISt5tupleIJ7obj_refI9func_decl11ast_managerES1_I4exprS3_ES1_IN18dependency_managerINS3_22expr_dependency_configEE10dependencyES3_EEELb1EjE11free_memoryEv = comdat any

$_ZSt9destroy_nIPSt5tupleIJ7obj_refI9func_decl11ast_managerES1_I4exprS3_ES1_IN18dependency_managerINS3_22expr_dependency_configEE10dependencyES3_EEEjET_SE_T0_ = comdat any

$_ZNK6vectorISt5tupleIJ7obj_refI9func_decl11ast_managerES1_I4exprS3_ES1_IN18dependency_managerINS3_22expr_dependency_configEE10dependencyES3_EEELb1EjE4sizeEv = comdat any

$_ZSt10_Destroy_nIPSt5tupleIJ7obj_refI9func_decl11ast_managerES1_I4exprS3_ES1_IN18dependency_managerINS3_22expr_dependency_configEE10dependencyES3_EEEjET_SE_T0_ = comdat any

$_ZNSt14_Destroy_n_auxILb0EE11__destroy_nIPSt5tupleIJ7obj_refI9func_decl11ast_managerES3_I4exprS5_ES3_IN18dependency_managerINS5_22expr_dependency_configEE10dependencyES5_EEEjEET_SG_T0_ = comdat any

$_ZSt8_DestroyISt5tupleIJ7obj_refI9func_decl11ast_managerES1_I4exprS3_ES1_IN18dependency_managerINS3_22expr_dependency_configEE10dependencyES3_EEEEvPT_ = comdat any

$_ZNSt5tupleIJ7obj_refI9func_decl11ast_managerES0_I4exprS2_ES0_IN18dependency_managerINS2_22expr_dependency_configEE10dependencyES2_EEED2Ev = comdat any

$_ZNSt11_Tuple_implILm0EJ7obj_refI9func_decl11ast_managerES0_I4exprS2_ES0_IN18dependency_managerINS2_22expr_dependency_configEE10dependencyES2_EEED2Ev = comdat any

$_ZNSt10_Head_baseILm0E7obj_refI9func_decl11ast_managerELb0EED2Ev = comdat any

$_ZNSt11_Tuple_implILm1EJ7obj_refI4expr11ast_managerES0_IN18dependency_managerINS2_22expr_dependency_configEE10dependencyES2_EEED2Ev = comdat any

$_ZNSt10_Head_baseILm1E7obj_refI4expr11ast_managerELb0EED2Ev = comdat any

$_ZNSt11_Tuple_implILm2EJ7obj_refIN18dependency_managerIN11ast_manager22expr_dependency_configEE10dependencyES2_EEED2Ev = comdat any

$_ZN7obj_refI4expr11ast_managerED2Ev = comdat any

$_ZN7obj_refI4expr11ast_managerE7dec_refEv = comdat any

$_ZNSt10_Head_baseILm2E7obj_refIN18dependency_managerIN11ast_manager22expr_dependency_configEE10dependencyES2_ELb0EED2Ev = comdat any

$_ZN7obj_refIN18dependency_managerIN11ast_manager22expr_dependency_configEE10dependencyES1_ED2Ev = comdat any

$_ZN7obj_refIN18dependency_managerIN11ast_manager22expr_dependency_configEE10dependencyES1_E7dec_refEv = comdat any

$_ZN7obj_refI9func_decl11ast_managerE7dec_refEv = comdat any

$_ZN6vectorI14dependent_exprLb1EjE7destroyEv = comdat any

$_ZN6vectorI14dependent_exprLb1EjE16destroy_elementsEv = comdat any

$_ZN6vectorI14dependent_exprLb1EjE11free_memoryEv = comdat any

$_ZSt9destroy_nIP14dependent_exprjET_S2_T0_ = comdat any

$_ZNK6vectorI14dependent_exprLb1EjE4sizeEv = comdat any

$_ZSt10_Destroy_nIP14dependent_exprjET_S2_T0_ = comdat any

$_ZNSt14_Destroy_n_auxILb0EE11__destroy_nIP14dependent_exprjEET_S4_T0_ = comdat any

$_ZSt8_DestroyI14dependent_exprEvPT_ = comdat any

$_Z7deallocI17expr_substitutionEvPT_ = comdat any

$_ZNK6vectorIPN26model_reconstruction_trail5entryELb0EjE4sizeEv = comdat any

$_ZN6vectorIPN26model_reconstruction_trail5entryELb0EjED2Ev = comdat any

$_ZN6vectorIPN26model_reconstruction_trail5entryELb0EjE7destroyEv = comdat any

$_ZN6vectorIPN26model_reconstruction_trail5entryELb0EjE11free_memoryEv = comdat any

$_ZN15ref_vector_coreI4expr19ref_manager_wrapperIS0_11ast_managerEE9push_backEPS0_ = comdat any

$_ZN15ref_vector_coreI4expr19ref_manager_wrapperIS0_11ast_managerEE7inc_refEPS0_ = comdat any

$_ZN6vectorIP4exprLb0EjE9push_backERKS1_ = comdat any

$_ZN19ref_manager_wrapperI4expr11ast_managerE7inc_refEPS0_ = comdat any

$_ZN6vectorIP4exprLb0EjE13expand_vectorEv = comdat any

$_ZN20dependent_expr_state4pushEv = comdat any

$_ZN15ref_vector_coreI4expr19ref_manager_wrapperIS0_11ast_managerEE5resetEv = comdat any

$_ZN11trail_stack10push_scopeEv = comdat any

$_ZN11trail_stack4pushI11value_trailIjEEEvRKT_ = comdat any

$_ZN11value_trailIjEC2ERj = comdat any

$_ZN11value_trailIjED2Ev = comdat any

$_ZN11trail_stack4pushIN20dependent_expr_state4thawEEEvRKT_ = comdat any

$_ZN20dependent_expr_state4thawC2ERS_ = comdat any

$_ZN20dependent_expr_state4thawD2Ev = comdat any

$_ZN6vectorIjLb0EjE9push_backEOj = comdat any

$_ZN6vectorIjLb0EjE13expand_vectorEv = comdat any

$_ZN6vectorIP5trailLb0EjE9push_backEOS1_ = comdat any

$_ZnwmR6region = comdat any

$_ZN11value_trailIjEC2ERKS0_ = comdat any

$_ZN6vectorIP5trailLb0EjE13expand_vectorEv = comdat any

$_ZN5trailC2ERKS_ = comdat any

$_ZN11value_trailIjED0Ev = comdat any

$_ZN11value_trailIjE4undoEv = comdat any

$_ZN5trailD2Ev = comdat any

$_ZN5trailD0Ev = comdat any

$_ZN5trailC2Ev = comdat any

$_ZN20dependent_expr_state4thawC2ERKS0_ = comdat any

$_ZN20dependent_expr_state4thawD0Ev = comdat any

$_ZN20dependent_expr_state4thaw4undoEv = comdat any

$_ZNK15ref_vector_coreI9func_decl19ref_manager_wrapperIS0_11ast_managerEE4sizeEv = comdat any

$_ZNK15ref_vector_coreI9func_decl19ref_manager_wrapperIS0_11ast_managerEE3getEj = comdat any

$_ZN15ref_vector_coreI9func_decl19ref_manager_wrapperIS0_11ast_managerEE6shrinkEj = comdat any

$_ZNK6vectorIP9func_declLb0EjEixEj = comdat any

$_ZN6vectorIP9func_declLb0EjE5beginEv = comdat any

$_ZN6vectorIP9func_declLb0EjE3endEv = comdat any

$_ZN6vectorIP9func_declLb0EjE6shrinkEj = comdat any

$_ZN15ref_vector_coreI4expr19ref_manager_wrapperIS0_11ast_managerEE13dec_range_refEPKPS0_S7_ = comdat any

$_ZNK6vectorIP4exprLb0EjE4dataEv = comdat any

$_ZNK6vectorIP4exprLb0EjE4sizeEv = comdat any

$_ZN6vectorIP4exprLb0EjE5resetEv = comdat any

$_ZN15ref_vector_coreI4expr19ref_manager_wrapperIS0_11ast_managerEE7dec_refEPS0_ = comdat any

$_ZN19ref_manager_wrapperI4expr11ast_managerE7dec_refEPS0_ = comdat any

$_ZN10params_ref6appendERKS_ = comdat any

$_ZN27dependent_expr_state_tactic4initEv = comdat any

$_ZNK10scoped_ptrI25dependent_expr_simplifierEptEv = comdat any

$_ZN10scoped_ptrI25dependent_expr_simplifierEaSEPS0_ = comdat any

$_ZNK15ref_vector_coreI4expr19ref_manager_wrapperIS0_11ast_managerEE5beginEv = comdat any

$_ZNK15ref_vector_coreI4expr19ref_manager_wrapperIS0_11ast_managerEE3endEv = comdat any

$_ZNK10scoped_ptrI26model_reconstruction_trailEcvbEv = comdat any

$_ZN26model_reconstruction_trailC2ER11ast_managerR11trail_stack = comdat any

$_ZN10scoped_ptrI26model_reconstruction_trailEaSEPS0_ = comdat any

$_ZNK6vectorIP4exprLb0EjE5beginEv = comdat any

$_ZNK15ref_vector_coreI4expr19ref_manager_wrapperIS0_11ast_managerEE4sizeEv = comdat any

$_ZN17scoped_ptr_vectorIN26model_reconstruction_trail5entryEEC2Ev = comdat any

$_ZN10ptr_vectorIN26model_reconstruction_trail5entryEEC2Ev = comdat any

$_ZN6vectorIPN26model_reconstruction_trail5entryELb0EjEC2Ev = comdat any

$_ZN17statistics_reportC2ER6tactic = comdat any

$_ZNK3refI4goalEdeEv = comdat any

$_ZNK3refI4goalE3getEv = comdat any

$_ZN3refI4goalEaSEPS0_ = comdat any

$_ZNK3refI4goalEptEv = comdat any

$_ZNK4goal14proofs_enabledEv = comdat any

$_ZN16tactic_exceptionC2EONSt7__cxx1112basic_stringIcSt11char_traitsIcESaIcEEE = comdat any

$_ZN16tactic_exceptionD2Ev = comdat any

$_ZN4goal9inc_depthEv = comdat any

$_ZNK4goal14models_enabledEv = comdat any

$_ZN4goal3addEP15model_converter = comdat any

$_ZNK10scoped_ptrI26model_reconstruction_trailEptEv = comdat any

$_ZNK3refI15model_converterE3getEv = comdat any

$_ZN15ref_buffer_coreI4goal21ref_unmanaged_wrapperIS0_ELj16EE9push_backEPS0_ = comdat any

$_ZNSt8functionIFvR10statisticsEEC2Ev = comdat any

$_ZNSt14_Function_baseC2Ev = comdat any

$_ZN4goal7inc_refEv = comdat any

$_ZN12z3_exceptionC2Ev = comdat any

$_ZN16tactic_exceptionD0Ev = comdat any

$_ZNK16tactic_exception3msgEv = comdat any

$_ZN12z3_exceptionD2Ev = comdat any

$_ZN3refI15model_converterEaSEPS0_ = comdat any

$_ZN3refI15model_converterE7dec_refEv = comdat any

$_ZN9converter7dec_refEv = comdat any

$_Z7deallocI9converterEvPT_ = comdat any

$_ZN15ref_buffer_coreI4goal21ref_unmanaged_wrapperIS0_ELj16EE7inc_refEPS0_ = comdat any

$_ZN6bufferIP4goalLb0ELj16EE9push_backERKS1_ = comdat any

$_ZN21ref_unmanaged_wrapperI4goalE7inc_refEPS0_ = comdat any

$_ZN6bufferIP4goalLb0ELj16EE6expandEv = comdat any

$_ZN6bufferIP4goalLb0ELj16EE11free_memoryEv = comdat any

$_Z13dealloc_svectIP4goalEvPT_ = comdat any

$_ZN14dependent_expraSERKS_ = comdat any

$_ZNK4goal4sizeEv = comdat any

$_ZNK4goal1mEv = comdat any

$_ZNK11ast_manager4sizeERKN14parray_managerINS_17expr_array_configEE3refE = comdat any

$_ZNK14parray_managerIN11ast_manager17expr_array_configEE4sizeERKNS2_3refE = comdat any

$_ZNK14parray_managerIN11ast_manager17expr_array_configEE4cell4kindEv = comdat any

$_ZNK14parray_managerIN11ast_manager17expr_array_configEE4cell4nextEv = comdat any

$_ZNK14parray_managerIN11ast_manager17expr_array_configEE4cell3idxEv = comdat any

$_ZNK14parray_managerIN11ast_manager17expr_array_configEE4cell4sizeEv = comdat any

$_ZNK4goal4formEj = comdat any

$_ZNK4goal2prEj = comdat any

$_ZNK4goal3depEj = comdat any

$_ZNK4goal12inconsistentEv = comdat any

$_ZNK11ast_manager8mk_falseEv = comdat any

$_ZNK11ast_manager3getERKN14parray_managerINS_17expr_array_configEE3refEj = comdat any

$_ZNK14parray_managerIN11ast_manager17expr_array_configEE3getERKNS2_3refEj = comdat any

$_ZN14parray_managerIN11ast_manager17expr_array_configEE6rerootERNS2_3refE = comdat any

$_ZNK14parray_managerIN11ast_manager17expr_array_configEE4cell4elemEv = comdat any

$_ZNK14parray_managerIN11ast_manager17expr_array_configEE3ref4rootEv = comdat any

$_ZN6vectorIPN14parray_managerIN11ast_manager17expr_array_configEE4cellELb0EjE5resetEv = comdat any

$_ZN6vectorIPN14parray_managerIN11ast_manager17expr_array_configEE4cellELb0EjE9push_backERKS5_ = comdat any

$_ZN14parray_managerIN11ast_manager17expr_array_configEE6unfoldEPNS2_4cellE = comdat any

$_ZNK6vectorIPN14parray_managerIN11ast_manager17expr_array_configEE4cellELb0EjE4sizeEv = comdat any

$_ZN6vectorIPN14parray_managerIN11ast_manager17expr_array_configEE4cellELb0EjEixEj = comdat any

$_ZN14parray_managerIN11ast_manager17expr_array_configEE8capacityEPP4expr = comdat any

$_ZN14parray_managerIN11ast_manager17expr_array_configEE6expandERPP4expr = comdat any

$_ZN14parray_managerIN11ast_manager17expr_array_configEE7inc_refEPNS2_4cellE = comdat any

$_ZN14parray_managerIN11ast_manager17expr_array_configEE7dec_refEPNS2_4cellE = comdat any

$_ZN6vectorIPN14parray_managerIN11ast_manager17expr_array_configEE4cellELb0EjE13expand_vectorEv = comdat any

$_ZN14parray_managerIN11ast_manager17expr_array_configEE10get_valuesEPNS2_4cellERPP4expr = comdat any

$_ZN14parray_managerIN11ast_manager17expr_array_configEE7dec_refERKP4expr = comdat any

$_ZN14parray_managerIN11ast_manager17expr_array_configEE11copy_valuesEPP4exprjRS5_ = comdat any

$_ZN14parray_managerIN11ast_manager17expr_array_configEE4rsetEPP4exprjRKS4_ = comdat any

$_ZN14parray_managerIN11ast_manager17expr_array_configEE9rpop_backEPP4exprRj = comdat any

$_ZN14parray_managerIN11ast_manager17expr_array_configEE10rpush_backERPP4exprRjRKS4_ = comdat any

$_ZN14parray_managerIN11ast_manager17expr_array_configEE15allocate_valuesEm = comdat any

$_ZN14parray_managerIN11ast_manager17expr_array_configEE7inc_refERKP4expr = comdat any

$_ZN14parray_managerIN11ast_manager17expr_array_configEE17deallocate_valuesEPP4expr = comdat any

$_ZN14parray_managerIN11ast_manager17expr_array_configEE3delEPNS2_4cellE = comdat any

$_ZN14parray_managerIN11ast_manager17expr_array_configEE7dec_refEjPP4expr = comdat any

$_ZNK4goal18unsat_core_enabledEv = comdat any

$_ZNK11ast_manager3getERKN14parray_managerINS_28expr_dependency_array_configEE3refEj = comdat any

$_ZNK14parray_managerIN11ast_manager28expr_dependency_array_configEE3getERKNS2_3refEj = comdat any

$_ZN14parray_managerIN11ast_manager28expr_dependency_array_configEE6rerootERNS2_3refE = comdat any

$_ZNK14parray_managerIN11ast_manager28expr_dependency_array_configEE4cell4kindEv = comdat any

$_ZNK14parray_managerIN11ast_manager28expr_dependency_array_configEE4cell3idxEv = comdat any

$_ZNK14parray_managerIN11ast_manager28expr_dependency_array_configEE4cell4elemEv = comdat any

$_ZNK14parray_managerIN11ast_manager28expr_dependency_array_configEE4cell4nextEv = comdat any

$_ZNK14parray_managerIN11ast_manager28expr_dependency_array_configEE3ref4rootEv = comdat any

$_ZN6vectorIPN14parray_managerIN11ast_manager28expr_dependency_array_configEE4cellELb0EjE5resetEv = comdat any

$_ZNK14parray_managerIN11ast_manager28expr_dependency_array_configEE4sizeERKNS2_3refE = comdat any

$_ZN6vectorIPN14parray_managerIN11ast_manager28expr_dependency_array_configEE4cellELb0EjE9push_backERKS5_ = comdat any

$_ZN14parray_managerIN11ast_manager28expr_dependency_array_configEE6unfoldEPNS2_4cellE = comdat any

$_ZNK6vectorIPN14parray_managerIN11ast_manager28expr_dependency_array_configEE4cellELb0EjE4sizeEv = comdat any

$_ZN6vectorIPN14parray_managerIN11ast_manager28expr_dependency_array_configEE4cellELb0EjEixEj = comdat any

$_ZN14parray_managerIN11ast_manager28expr_dependency_array_configEE8capacityEPPN18dependency_managerINS0_22expr_dependency_configEE10dependencyE = comdat any

$_ZN14parray_managerIN11ast_manager28expr_dependency_array_configEE6expandERPPN18dependency_managerINS0_22expr_dependency_configEE10dependencyE = comdat any

$_ZN14parray_managerIN11ast_manager28expr_dependency_array_configEE7inc_refEPNS2_4cellE = comdat any

$_ZN14parray_managerIN11ast_manager28expr_dependency_array_configEE7dec_refEPNS2_4cellE = comdat any

$_ZNK14parray_managerIN11ast_manager28expr_dependency_array_configEE4cell4sizeEv = comdat any

$_ZN6vectorIPN14parray_managerIN11ast_manager28expr_dependency_array_configEE4cellELb0EjE13expand_vectorEv = comdat any

$_ZN14parray_managerIN11ast_manager28expr_dependency_array_configEE10get_valuesEPNS2_4cellERPPN18dependency_managerINS0_22expr_dependency_configEE10dependencyE = comdat any

$_ZN14parray_managerIN11ast_manager28expr_dependency_array_configEE7dec_refERKPN18dependency_managerINS0_22expr_dependency_configEE10dependencyE = comdat any

$_ZN14parray_managerIN11ast_manager28expr_dependency_array_configEE11copy_valuesEPPN18dependency_managerINS0_22expr_dependency_configEE10dependencyEjRS8_ = comdat any

$_ZN14parray_managerIN11ast_manager28expr_dependency_array_configEE4rsetEPPN18dependency_managerINS0_22expr_dependency_configEE10dependencyEjRKS7_ = comdat any

$_ZN14parray_managerIN11ast_manager28expr_dependency_array_configEE9rpop_backEPPN18dependency_managerINS0_22expr_dependency_configEE10dependencyERj = comdat any

$_ZN14parray_managerIN11ast_manager28expr_dependency_array_configEE10rpush_backERPPN18dependency_managerINS0_22expr_dependency_configEE10dependencyERjRKS7_ = comdat any

$_ZN14parray_managerIN11ast_manager28expr_dependency_array_configEE15allocate_valuesEm = comdat any

$_ZN14parray_managerIN11ast_manager28expr_dependency_array_configEE7inc_refERKPN18dependency_managerINS0_22expr_dependency_configEE10dependencyE = comdat any

$_ZN14parray_managerIN11ast_manager28expr_dependency_array_configEE17deallocate_valuesEPPN18dependency_managerINS0_22expr_dependency_configEE10dependencyE = comdat any

$_ZN14parray_managerIN11ast_manager28expr_dependency_array_configEE3delEPNS2_4cellE = comdat any

$_ZN14parray_managerIN11ast_manager28expr_dependency_array_configEE7dec_refEjPPN18dependency_managerINS0_22expr_dependency_configEE10dependencyE = comdat any

$_ZNK14dependent_exprclEv = comdat any

$_ZSt3getILm0EJP4exprP3appPN18dependency_managerIN11ast_manager22expr_dependency_configEE10dependencyEEEONSt13tuple_elementIXT_ESt5tupleIJDpT0_EEE4typeEOSE_ = comdat any

$_ZSt3getILm1EJP4exprP3appPN18dependency_managerIN11ast_manager22expr_dependency_configEE10dependencyEEEONSt13tuple_elementIXT_ESt5tupleIJDpT0_EEE4typeEOSE_ = comdat any

$_ZSt3getILm2EJP4exprP3appPN18dependency_managerIN11ast_manager22expr_dependency_configEE10dependencyEEEONSt13tuple_elementIXT_ESt5tupleIJDpT0_EEE4typeEOSE_ = comdat any

$_ZNSt5tupleIJP4exprP3appPN18dependency_managerIN11ast_manager22expr_dependency_configEE10dependencyEEEC2ILb1ETnNSt9enable_ifIXclsr4_TCCIXT_EEE29__is_implicitly_constructibleIRKS1_RKS3_RKS9_EEEbE4typeELb1EEESE_SG_SI_ = comdat any

$_ZNSt11_Tuple_implILm0EJP4exprP3appPN18dependency_managerIN11ast_manager22expr_dependency_configEE10dependencyEEEC2ERKS1_RKS3_RKS9_ = comdat any

$_ZNSt11_Tuple_implILm1EJP3appPN18dependency_managerIN11ast_manager22expr_dependency_configEE10dependencyEEEC2ERKS1_RKS7_ = comdat any

$_ZNSt10_Head_baseILm0EP4exprLb0EEC2ERKS1_ = comdat any

$_ZNSt11_Tuple_implILm2EJPN18dependency_managerIN11ast_manager22expr_dependency_configEE10dependencyEEEC2ERKS5_ = comdat any

$_ZNSt10_Head_baseILm1EP3appLb0EEC2ERKS1_ = comdat any

$_ZNSt10_Head_baseILm2EPN18dependency_managerIN11ast_manager22expr_dependency_configEE10dependencyELb0EEC2ERKS5_ = comdat any

$_ZSt12__get_helperILm0EP4exprJP3appPN18dependency_managerIN11ast_manager22expr_dependency_configEE10dependencyEEERT0_RSt11_Tuple_implIXT_EJSA_DpT1_EE = comdat any

$_ZNSt11_Tuple_implILm0EJP4exprP3appPN18dependency_managerIN11ast_manager22expr_dependency_configEE10dependencyEEE7_M_headERSA_ = comdat any

$_ZNSt10_Head_baseILm0EP4exprLb0EE7_M_headERS2_ = comdat any

$_ZSt12__get_helperILm1EP3appJPN18dependency_managerIN11ast_manager22expr_dependency_configEE10dependencyEEERT0_RSt11_Tuple_implIXT_EJS8_DpT1_EE = comdat any

$_ZNSt11_Tuple_implILm1EJP3appPN18dependency_managerIN11ast_manager22expr_dependency_configEE10dependencyEEE7_M_headERS8_ = comdat any

$_ZNSt10_Head_baseILm1EP3appLb0EE7_M_headERS2_ = comdat any

$_ZSt12__get_helperILm2EPN18dependency_managerIN11ast_manager22expr_dependency_configEE10dependencyEJEERT0_RSt11_Tuple_implIXT_EJS6_DpT1_EE = comdat any

$_ZNSt11_Tuple_implILm2EJPN18dependency_managerIN11ast_manager22expr_dependency_configEE10dependencyEEE7_M_headERS6_ = comdat any

$_ZNSt10_Head_baseILm2EPN18dependency_managerIN11ast_manager22expr_dependency_configEE10dependencyELb0EE7_M_headERS6_ = comdat any

$_ZN10scoped_ptrI26model_reconstruction_trailEdeEv = comdat any

$_ZN21sat_simplifier_paramsC2ERK10params_ref = comdat any

$_ZNK21sat_simplifier_params20override_incrementalEv = comdat any

$_ZN21sat_simplifier_paramsD2Ev = comdat any

$_ZN6vectorI8rationalLb1EjE7destroyEv = comdat any

$_ZN6vectorI8rationalLb1EjE16destroy_elementsEv = comdat any

$_ZN6vectorI8rationalLb1EjE11free_memoryEv = comdat any

$_ZSt9destroy_nIP8rationaljET_S2_T0_ = comdat any

$_ZNK6vectorI8rationalLb1EjE4sizeEv = comdat any

$_ZSt10_Destroy_nIP8rationaljET_S2_T0_ = comdat any

$_ZNSt14_Destroy_n_auxILb0EE11__destroy_nIP8rationaljEET_S4_T0_ = comdat any

$_ZSt8_DestroyI8rationalEvPT_ = comdat any

$_ZN8rationalD2Ev = comdat any

$_ZN11mpq_managerILb1EE3delEPS0_R3mpq = comdat any

$_ZN14core_hashtableIN7obj_mapI4exprN3sat7literalEE13obj_map_entryE8obj_hashINS4_8key_dataEE10default_eqIS7_EED2Ev = comdat any

$_ZN14core_hashtableIN7obj_mapI4exprN3sat7literalEE13obj_map_entryE8obj_hashINS4_8key_dataEE10default_eqIS7_EE12delete_tableEv = comdat any

$_Z12dealloc_vectIN7obj_mapI4exprN3sat7literalEE13obj_map_entryEEvPT_j = comdat any

$_ZN15ref_vector_coreI4expr19ref_manager_wrapperIS0_11ast_managerEED2Ev = comdat any

$_ZN10ptr_vectorI4exprED2Ev = comdat any

$_ZN6vectorIP4exprLb0EjED2Ev = comdat any

$_ZN6vectorIP4exprLb0EjE7destroyEv = comdat any

$_ZN6vectorIP4exprLb0EjE11free_memoryEv = comdat any

$_ZN6vectorIdLb0EjED2Ev = comdat any

$_ZN6vectorIdLb0EjE7destroyEv = comdat any

$_ZN6vectorIdLb0EjE11free_memoryEv = comdat any

$_ZN3refIN8sat2goal2mcEE7dec_refEv = comdat any

$_ZN14core_hashtableI14obj_hash_entryI9func_declE12obj_ptr_hashIS1_E6ptr_eqIS1_EED2Ev = comdat any

$_ZN14core_hashtableI14obj_hash_entryI9func_declE12obj_ptr_hashIS1_E6ptr_eqIS1_EE12delete_tableEv = comdat any

$_Z12dealloc_vectI14obj_hash_entryI9func_declEEvPT_j = comdat any

$_ZN15ref_vector_coreI15model_converter21ref_unmanaged_wrapperIS0_EE13dec_range_refEPKPS0_S6_ = comdat any

$_ZNK6vectorIP15model_converterLb0EjE4dataEv = comdat any

$_ZNK6vectorIP15model_converterLb0EjE4sizeEv = comdat any

$_ZN10ptr_vectorI15model_converterED2Ev = comdat any

$_ZN15ref_vector_coreI15model_converter21ref_unmanaged_wrapperIS0_EE7dec_refEPS0_ = comdat any

$_ZN21ref_unmanaged_wrapperI15model_converterE7dec_refEPS0_ = comdat any

$_ZN6vectorIP15model_converterLb0EjED2Ev = comdat any

$_ZN6vectorIP15model_converterLb0EjE7destroyEv = comdat any

$_ZN6vectorIP15model_converterLb0EjE11free_memoryEv = comdat any

$_ZN3refI15proof_converterE7dec_refEv = comdat any

$_ZN15ref_buffer_coreI4goal21ref_unmanaged_wrapperIS0_ELj16EED2Ev = comdat any

$_ZN15ref_buffer_coreI4goal21ref_unmanaged_wrapperIS0_ELj16EE13dec_range_refEPKPS0_S6_ = comdat any

$_ZN6bufferIP4goalLb0ELj16EE5beginEv = comdat any

$_ZN6bufferIP4goalLb0ELj16EE3endEv = comdat any

$_ZN10ptr_bufferI4goalLj16EED2Ev = comdat any

$_ZN15ref_buffer_coreI4goal21ref_unmanaged_wrapperIS0_ELj16EE7dec_refEPS0_ = comdat any

$_ZN21ref_unmanaged_wrapperI4goalE7dec_refEPS0_ = comdat any

$_ZNK6bufferIP4goalLb0ELj16EE4sizeEv = comdat any

$_ZN6bufferIP4goalLb0ELj16EED2Ev = comdat any

$_ZN6bufferIP4goalLb0ELj16EE7destroyEv = comdat any

$_ZN6vectorIN3sat7literalELb0EjED2Ev = comdat any

$_ZN6vectorIN3sat7literalELb0EjE7destroyEv = comdat any

$_ZN6vectorIN3sat7literalELb0EjE11free_memoryEv = comdat any

$_ZN6vectorIjLb0EjED2Ev = comdat any

$_ZN6vectorIjLb0EjE7destroyEv = comdat any

$_ZN6vectorIjLb0EjE11free_memoryEv = comdat any

$_ZN6vectorIbLb1EjED2Ev = comdat any

$_ZN6vectorIbLb1EjE7destroyEv = comdat any

$_ZN6vectorIbLb1EjE16destroy_elementsEv = comdat any

$_ZN6vectorIbLb1EjE11free_memoryEv = comdat any

$_ZSt9destroy_nIPbjET_S1_T0_ = comdat any

$_ZNK6vectorIbLb1EjE4sizeEv = comdat any

$_ZSt10_Destroy_nIPbjET_S1_T0_ = comdat any

$_ZNSt14_Destroy_n_auxILb1EE11__destroy_nIPbjEET_S3_T0_ = comdat any

$_ZSt7advanceIPbjEvRT_T0_ = comdat any

$_ZSt9__advanceIPblEvRT_T0_St26random_access_iterator_tag = comdat any

$_ZSt19__iterator_categoryIPbENSt15iterator_traitsIT_E17iterator_categoryERKS2_ = comdat any

$_ZN15ref_vector_coreI4expr19ref_manager_wrapperIS0_11ast_managerEE6appendEjPKPS0_ = comdat any

$_ZN15ref_vector_coreI4expr19ref_manager_wrapperIS0_11ast_managerEE4dataEv = comdat any

$_ZNK3sat6solver16model_is_currentEv = comdat any

$_ZN3refI5modelEaSEPS0_ = comdat any

$_ZNK3sat6solver9get_modelEv = comdat any

$_ZN7svectorI5lbooljEC2ERKS1_ = comdat any

$_ZNK3refIN8sat2goal2mcEEcvbEv = comdat any

$_ZN3refIN8sat2goal2mcEEdeEv = comdat any

$_ZNK15ref_vector_coreI4expr19ref_manager_wrapperIS0_11ast_managerEE3getEj = comdat any

$_Z17is_uninterp_constPK4expr = comdat any

$_ZN3sat8value_atEjRK7svectorI5lbooljE = comdat any

$_ZNK3refI5modelEptEv = comdat any

$_Z6to_appP3ast = comdat any

$_ZNK3app8get_declEv = comdat any

$_ZNK15ref_vector_coreI15model_converter21ref_unmanaged_wrapperIS0_EE4backEv = comdat any

$_ZN3refI5modelEdeEv = comdat any

$_Z15has_quantifiersPK4expr = comdat any

$_ZN7obj_refI4expr11ast_managerEC2ERS1_ = comdat any

$_ZNK8reslimit11is_canceledEv = comdat any

$_ZNK11ast_manager8is_falseEPK4expr = comdat any

$_ZNK7obj_refI4expr11ast_managerEcvPS0_Ev = comdat any

$_ZN5mk_ppC2EP3astR11ast_managerjjPKc = comdat any

$_ZN5mk_ppD2Ev = comdat any

$_ZlsRSoRK10params_ref = comdat any

$_ZNK8expr2var5beginEv = comdat any

$_ZNK8expr2var3endEv = comdat any

$_ZN7svectorI5lbooljED2Ev = comdat any

$_ZN10model_core7inc_refEv = comdat any

$_ZN3refI5modelE7dec_refEv = comdat any

$_ZN10model_core7dec_refEv = comdat any

$_Z7deallocI10model_coreEvPT_ = comdat any

$_ZN6vectorI5lboolLb0EjEC2ERKS1_ = comdat any

$_ZN6vectorI5lboolLb0EjE9copy_coreERKS1_ = comdat any

$_ZNK6vectorI5lboolLb0EjE4sizeEv = comdat any

$_ZNK6vectorI5lboolLb0EjE8capacityEv = comdat any

$_ZSt18uninitialized_copyIPK5lboolPS0_ET0_T_S5_S4_ = comdat any

$_ZNK6vectorI5lboolLb0EjE5beginEv = comdat any

$_ZNK6vectorI5lboolLb0EjE3endEv = comdat any

$_ZN6vectorI5lboolLb0EjE5beginEv = comdat any

$_ZNSt20__uninitialized_copyILb1EE13__uninit_copyIPK5lboolPS2_EET0_T_S7_S6_ = comdat any

$_ZSt4copyIPK5lboolPS0_ET0_T_S5_S4_ = comdat any

$_ZSt13__copy_move_aILb0EPK5lboolPS0_ET1_T0_S5_S4_ = comdat any

$_ZSt12__miter_baseIPK5lboolET_S3_ = comdat any

$_ZSt12__niter_wrapIP5lboolET_RKS2_S2_ = comdat any

$_ZSt14__copy_move_a1ILb0EPK5lboolPS0_ET1_T0_S5_S4_ = comdat any

$_ZSt12__niter_baseIPK5lboolET_S3_ = comdat any

$_ZSt12__niter_baseIP5lboolET_S2_ = comdat any

$_ZSt14__copy_move_a2ILb0EPK5lboolPS0_ET1_T0_S5_S4_ = comdat any

$_ZNSt11__copy_moveILb0ELb1ESt26random_access_iterator_tagE8__copy_mI5lboolEEPT_PKS4_S7_S5_ = comdat any

$_ZNK6vectorIP4exprLb0EjEixEj = comdat any

$_ZNK3ast8get_kindEv = comdat any

$_Z6to_appPK3ast = comdat any

$_ZNK3app12get_num_argsEv = comdat any

$_ZNK3app13get_family_idEv = comdat any

$_ZNK4decl13get_family_idEv = comdat any

$_ZNK9decl_info13get_family_idEv = comdat any

$_ZNK6vectorI5lboolLb0EjEixEj = comdat any

$_ZNK6vectorIP15model_converterLb0EjE4backEv = comdat any

$_ZNK6vectorIP15model_converterLb0EjEixEj = comdat any

$_Z6is_appPK3ast = comdat any

$_ZNK3app15has_quantifiersEv = comdat any

$_Z13is_quantifierPK3ast = comdat any

$_ZNK3app5flagsEv = comdat any

$_ZNK8reslimit12not_canceledEv = comdat any

$_ZNKSt13__atomic_baseIjEcvjEv = comdat any

$_ZStanSt12memory_orderSt23__memory_order_modifier = comdat any

$_ZN11mk_ismt2_ppD2Ev = comdat any

$_ZNK6vectorIN7obj_mapI4exprjE8key_dataELb0EjE5beginEv = comdat any

$_ZNK6vectorIN7obj_mapI4exprjE8key_dataELb0EjE3endEv = comdat any

$_ZNK6vectorIN7obj_mapI4exprjE8key_dataELb0EjE4sizeEv = comdat any

$_ZN6vectorI5lboolLb0EjED2Ev = comdat any

$_ZN6vectorI5lboolLb0EjE7destroyEv = comdat any

$_ZN6vectorI5lboolLb0EjE11free_memoryEv = comdat any

$_ZN15ast_translationC2ER11ast_managerS1_b = comdat any

$_ZNK14inc_sat_solver14is_incrementalEv = comdat any

$_ZN14inc_sat_solver7get_eufEv = comdat any

$_ZN3euf6solver20scoped_set_translateC2ERS0_R11ast_managerRN3sat16sat_internalizerE = comdat any

$_ZN3euf6solver20scoped_set_translateD2Ev = comdat any

$_ZN15ast_translationclI4exprEEPT_PKS2_ = comdat any

$_ZN13atom2bool_var6insertEP4exprj = comdat any

$_ZN6vectorIjLb0EjE5beginEv = comdat any

$_ZN6vectorIjLb0EjE3endEv = comdat any

$_ZN6vectorIjLb0EjE9push_backERKj = comdat any

$_ZNK3refIN8sat2goal2mcEEptEv = comdat any

$_ZN3refIN8sat2goal2mcEEaSEPS1_ = comdat any

$_ZN13stacked_valueIbEaSERKS0_ = comdat any

$_ZN7svectorIN15ast_translation5frameEjEC2Ev = comdat any

$_ZN10ptr_vectorI3astEC2Ev = comdat any

$_ZN7obj_mapI3astPS0_EC2Ev = comdat any

$_ZN7obj_mapI3astPS0_ED2Ev = comdat any

$_ZN10ptr_vectorI3astED2Ev = comdat any

$_ZN7svectorIN15ast_translation5frameEjED2Ev = comdat any

$_ZN6vectorIN15ast_translation5frameELb0EjEC2Ev = comdat any

$_ZN6vectorIP3astLb0EjEC2Ev = comdat any

$_ZN14core_hashtableIN7obj_mapI3astPS1_E13obj_map_entryE8obj_hashINS3_8key_dataEE10default_eqIS6_EEC2EjRKS7_RKS9_ = comdat any

$_ZN14core_hashtableIN7obj_mapI3astPS1_E13obj_map_entryE8obj_hashINS3_8key_dataEE10default_eqIS6_EE11alloc_tableEj = comdat any

$_Z10alloc_vectIN7obj_mapI3astPS1_E13obj_map_entryEEPT_j = comdat any

$_ZN7obj_mapI3astPS0_E13obj_map_entryC2Ev = comdat any

$_ZN7obj_mapI3astPS0_E8key_dataC2Ev = comdat any

$_ZN14core_hashtableIN7obj_mapI3astPS1_E13obj_map_entryE8obj_hashINS3_8key_dataEE10default_eqIS6_EED2Ev = comdat any

$_ZN14core_hashtableIN7obj_mapI3astPS1_E13obj_map_entryE8obj_hashINS3_8key_dataEE10default_eqIS6_EE12delete_tableEv = comdat any

$_Z12dealloc_vectIN7obj_mapI3astPS1_E13obj_map_entryEEvPT_j = comdat any

$_ZN6vectorIP3astLb0EjED2Ev = comdat any

$_ZN6vectorIP3astLb0EjE7destroyEv = comdat any

$_ZN6vectorIP3astLb0EjE11free_memoryEv = comdat any

$_ZN6vectorIN15ast_translation5frameELb0EjED2Ev = comdat any

$_ZN6vectorIN15ast_translation5frameELb0EjE7destroyEv = comdat any

$_ZN6vectorIN15ast_translation5frameELb0EjE11free_memoryEv = comdat any

$_ZNK3sat6solver10get_configEv = comdat any

$_ZNK3sat6solver13get_extensionEv = comdat any

$_ZNK10scoped_ptrIN3sat9extensionEE3getEv = comdat any

$_ZN15ast_translation9translateI4exprEEPT_PKS2_ = comdat any

$_ZNK15ast_translation4fromEv = comdat any

$_ZNK15ast_translation2toEv = comdat any

$_ZN6vectorIbLb1EjEaSERKS0_ = comdat any

$_ZN6vectorIbLb1EjE9copy_coreERKS0_ = comdat any

$_ZNK6vectorIbLb1EjE8capacityEv = comdat any

$_ZSt18uninitialized_copyIPKbPbET0_T_S4_S3_ = comdat any

$_ZNK6vectorIbLb1EjE5beginEv = comdat any

$_ZNK6vectorIbLb1EjE3endEv = comdat any

$_ZN6vectorIbLb1EjE5beginEv = comdat any

$_ZNSt20__uninitialized_copyILb1EE13__uninit_copyIPKbPbEET0_T_S6_S5_ = comdat any

$_ZSt4copyIPKbPbET0_T_S4_S3_ = comdat any

$_ZSt13__copy_move_aILb0EPKbPbET1_T0_S4_S3_ = comdat any

$_ZSt12__miter_baseIPKbET_S2_ = comdat any

$_ZSt12__niter_wrapIPbET_RKS1_S1_ = comdat any

$_ZSt14__copy_move_a1ILb0EPKbPbET1_T0_S4_S3_ = comdat any

$_ZSt12__niter_baseIPKbET_S2_ = comdat any

$_ZSt12__niter_baseIPbET_S1_ = comdat any

$_ZSt14__copy_move_a2ILb0EPKbPbET1_T0_S4_S3_ = comdat any

$_ZNSt11__copy_moveILb0ELb1ESt26random_access_iterator_tagE8__copy_mIbEEPT_PKS3_S6_S4_ = comdat any

$_ZNK10sat_params18cardinality_solverEv = comdat any

$_ZNK10sat_params9pb_solverEv = comdat any

$_ZN14inc_sat_solver10ensure_eufEv = comdat any

$_ZN14inc_sat_solver9is_clauseEP4expr = comdat any

$_Z9get_depthPK4expr = comdat any

$_ZN14inc_sat_solver10is_literalEP4expr = comdat any

$_ZNK11ast_manager5is_orEPK4expr = comdat any

$_ZNK11ast_manager6is_andEPK4expr = comdat any

$_ZNK11ast_manager10is_impliesEPK4expr = comdat any

$_ZNK11ast_manager6is_notEPK4expr = comdat any

$_ZNK11ast_manager6is_iffEPK4expr = comdat any

$_ZNK3app5beginEv = comdat any

$_ZNK3app3endEv = comdat any

$_ZNK3app9get_depthEv = comdat any

$_Z13to_quantifierPK3ast = comdat any

$_ZNK10quantifier9get_depthEv = comdat any

$_ZNK11ast_manager6is_notEPK4exprRPS0_ = comdat any

$_ZNK3app7get_argEj = comdat any

$_Z9is_app_ofPK4exprii = comdat any

$_ZNK3app9is_app_ofEii = comdat any

$_ZNK4decl10is_decl_ofEii = comdat any

$_ZNK9decl_info10is_decl_ofEii = comdat any

$_ZNK11ast_manager5is_eqEPK4expr = comdat any

$_ZN3sat6solver9set_phaseENS_7literalE = comdat any

$_ZN3sat7literalC2Ejb = comdat any

$_ZNK3sat7literal3varEv = comdat any

$_ZNK3sat6solver8num_varsEv = comdat any

$_ZNK3sat7literal4signEv = comdat any

$_ZN6vectorIbLb0EjEixEj = comdat any

$_ZNK6vectorIN3sat13justificationELb0EjE4sizeEv = comdat any

$_ZN14inc_sat_solver9sat_phaseC2Ev = comdat any

$_ZN6vectorIN3sat7literalELb0EjE9push_backEOS1_ = comdat any

$_ZN3sat6solver9get_phaseEj = comdat any

$_ZN6solver5phaseC2Ev = comdat any

$_ZN14inc_sat_solver9sat_phaseD2Ev = comdat any

$_ZN14inc_sat_solver9sat_phaseD0Ev = comdat any

$_ZN6solver5phaseD2Ev = comdat any

$_ZN6solver5phaseD0Ev = comdat any

$_ZN6vectorIN3sat7literalELb0EjE13expand_vectorEv = comdat any

$_ZNK6vectorIbLb0EjE3getEjRKb = comdat any

$_ZNK6vectorIbLb0EjE4sizeEv = comdat any

$_ZN6vectorIN3sat7literalELb0EjE5beginEv = comdat any

$_ZN6vectorIN3sat7literalELb0EjE3endEv = comdat any

$_ZNK6vectorIN3sat7literalELb0EjE4sizeEv = comdat any

$_ZN11ast_manager5mk_orEP4exprS1_ = comdat any

$_ZNK3app8get_argsEv = comdat any

$_ZN11ast_manager5mk_orEjPKP4expr = comdat any

$_ZN11ast_manager10mk_impliesEP4exprS1_ = comdat any

$_ZN14inc_sat_solver20internalize_formulasEv = comdat any

$_ZN14inc_sat_solver13push_internalEv = comdat any

$_ZN14inc_sat_solver16internalize_goalEjPKP4expr = comdat any

$_ZN3refI4goalEC2EPS0_ = comdat any

$_ZN4goal11assert_exprEP4expr = comdat any

$_ZN14inc_sat_solver16internalize_goalER3refI4goalE = comdat any

$_ZNK3sat6solver12inconsistentEv = comdat any

$_ZN3refI15proof_converterE5resetEv = comdat any

$_ZNK3refIN8sat2goal2mcEEntEv = comdat any

$_ZN14inc_sat_solver19check_uninterpretedEv = comdat any

$_ZNK15ref_vector_coreI9func_decl19ref_manager_wrapperIS0_11ast_managerEE5emptyEv = comdat any

$_ZN13stacked_valueIbEaSEOb = comdat any

$_ZN14inc_sat_solver18set_reason_unknownEONSt7__cxx1112basic_stringIcSt11char_traitsIcESaIcEEE = comdat any

$_ZNK6vectorIP9func_declLb0EjE5emptyEv = comdat any

$_ZN3refI4goalE7inc_refEv = comdat any

$_ZN15ref_buffer_coreI4goal21ref_unmanaged_wrapperIS0_ELj16EE5resetEv = comdat any

$_ZN3refI6tacticEdeEv = comdat any

$_ZNK15ref_buffer_coreI4goal21ref_unmanaged_wrapperIS0_ELj16EE4sizeEv = comdat any

$_ZNK15ref_buffer_coreI4goal21ref_unmanaged_wrapperIS0_ELj16EEixEj = comdat any

$_ZNK4goal2pcEv = comdat any

$_ZN3refI15proof_converterEaSEPS0_ = comdat any

$_ZN15ref_vector_coreI15model_converter21ref_unmanaged_wrapperIS0_EE3setEjPS0_ = comdat any

$_ZNK15ref_vector_coreI15model_converter21ref_unmanaged_wrapperIS0_EE4sizeEv = comdat any

$_ZNK4goal2mcEv = comdat any

$_ZN3refI4goalEdeEv = comdat any

$_ZN6bufferIP4goalLb0ELj16EE5resetEv = comdat any

$_ZNK6bufferIP4goalLb0ELj16EEixEj = comdat any

$_ZNK3refI15proof_converterE3getEv = comdat any

$_ZN6vectorIP15model_converterLb0EjEixEj = comdat any

$_ZN13stacked_valueIbE4pushEv = comdat any

$_ZN6vectorIbLb1EjE9push_backERKb = comdat any

$_ZN6vectorIbLb1EjE13expand_vectorEv = comdat any

$_ZN14core_hashtableI14obj_hash_entryI9func_declE12obj_ptr_hashIS1_E6ptr_eqIS1_EE5resetEv = comdat any

$_ZN13stacked_valueIbE3popEj = comdat any

$_ZN15ref_vector_coreI15model_converter21ref_unmanaged_wrapperIS0_EE8pop_backEv = comdat any

$_ZN6vectorIjLb0EjE4backEv = comdat any

$_ZN15ref_vector_coreI4expr19ref_manager_wrapperIS0_11ast_managerEE6resizeEj = comdat any

$_ZN6vectorIjLb0EjE8pop_backEv = comdat any

$_ZNK14obj_hash_entryI9func_declE7is_freeEv = comdat any

$_ZN14obj_hash_entryI9func_declE12mark_as_freeEv = comdat any

$_ZNK6vectorIbLb1EjE5emptyEv = comdat any

$_ZN6vectorIbLb1EjE4backEv = comdat any

$_ZN6vectorIbLb1EjE8pop_backEv = comdat any

$_ZN6vectorIbLb1EjEixEj = comdat any

$_ZN6vectorIP15model_converterLb0EjE4backEv = comdat any

$_ZN6vectorIP15model_converterLb0EjE8pop_backEv = comdat any

$_ZN6vectorIP4exprLb0EjE6resizeEj = comdat any

$_ZN6vectorIP4exprLb0EjE6shrinkEj = comdat any

$_ZNK6vectorIP4exprLb0EjE8capacityEv = comdat any

$_ZNK6vectorI10ref_vectorI4expr11ast_managerELb1EjE5emptyEv = comdat any

$_ZNK15ref_vector_coreI4expr19ref_manager_wrapperIS0_11ast_managerEE4dataEv = comdat any

$_ZN14inc_sat_solver20convert_internalizedEv = comdat any

$_ZNK14inc_sat_solver15is_internalizedEv = comdat any

$_ZNK10ref_vectorI4expr11ast_managerEixEj = comdat any

$_ZNK15ref_vector_coreI4expr19ref_manager_wrapperIS0_11ast_managerEEixEj = comdat any

$_ZN5u_mapIP4exprEC2Ev = comdat any

$_ZN6vectorIN3sat7literalELb0EjE9push_backERKS1_ = comdat any

$_ZN9table2mapI17default_map_entryIjP4exprE6u_hash4u_eqE6insertERKjOS2_ = comdat any

$_ZNK3sat7literal5indexEv = comdat any

$_ZN6vectorI7svectorIN3sat7literalEjELb1EjEC2Ev = comdat any

$_ZN6vectorI7svectorIN3sat7literalEjELb1EjE5beginEv = comdat any

$_ZN6vectorI7svectorIN3sat7literalEjELb1EjE3endEv = comdat any

$_ZNK6vectorIN3sat7literalELb0EjE5beginEv = comdat any

$_ZNK6vectorIN3sat7literalELb0EjE3endEv = comdat any

$_ZN9table2mapI17default_map_entryIjP4exprE6u_hash4u_eqE4findERKj = comdat any

$_ZN6vectorI10ref_vectorI4expr11ast_managerELb1EjE9push_backERKS3_ = comdat any

$_ZN6vectorI7svectorIN3sat7literalEjELb1EjED2Ev = comdat any

$_ZN5u_mapIP4exprED2Ev = comdat any

$_ZN3mapIjP4expr6u_hash4u_eqEC2ERKS2_RKS3_ = comdat any

$_ZN9table2mapI17default_map_entryIjP4exprE6u_hash4u_eqEC2ERKS4_RKS5_ = comdat any

$_ZN9table2mapI17default_map_entryIjP4exprE6u_hash4u_eqE15entry_hash_procC2ERKS4_ = comdat any

$_ZN9table2mapI17default_map_entryIjP4exprE6u_hash4u_eqE13entry_eq_procC2ERKS5_ = comdat any

$_ZN14core_hashtableI17default_map_entryIjP4exprEN9table2mapIS3_6u_hash4u_eqE15entry_hash_procENS7_13entry_eq_procEEC2EjRKS8_RKS9_ = comdat any

$_ZN14core_hashtableI17default_map_entryIjP4exprEN9table2mapIS3_6u_hash4u_eqE15entry_hash_procENS7_13entry_eq_procEE11alloc_tableEj = comdat any

$_Z10alloc_vectI17default_map_entryIjP4exprEEPT_j = comdat any

$_ZN17default_map_entryIjP4exprEC2Ev = comdat any

$_ZN18default_hash_entryI9_key_dataIjP4exprEEC2Ev = comdat any

$_ZN9_key_dataIjP4exprEC2Ev = comdat any

$_ZN14core_hashtableI17default_map_entryIjP4exprEN9table2mapIS3_6u_hash4u_eqE15entry_hash_procENS7_13entry_eq_procEE6insertEO9_key_dataIjS2_E = comdat any

$_ZN9_key_dataIjP4exprEC2ERKjOS1_ = comdat any

$_ZN14core_hashtableI17default_map_entryIjP4exprEN9table2mapIS3_6u_hash4u_eqE15entry_hash_procENS7_13entry_eq_procEE12expand_tableEv = comdat any

$_ZNK14core_hashtableI17default_map_entryIjP4exprEN9table2mapIS3_6u_hash4u_eqE15entry_hash_procENS7_13entry_eq_procEE8get_hashERK9_key_dataIjS2_E = comdat any

$_ZNK18default_hash_entryI9_key_dataIjP4exprEE7is_usedEv = comdat any

$_ZNK18default_hash_entryI9_key_dataIjP4exprEE8get_hashEv = comdat any

$_ZNK14core_hashtableI17default_map_entryIjP4exprEN9table2mapIS3_6u_hash4u_eqE15entry_hash_procENS7_13entry_eq_procEE6equalsERK9_key_dataIjS2_ESE_ = comdat any

$_ZN18default_hash_entryI9_key_dataIjP4exprEE8get_dataEv = comdat any

$_ZN18default_hash_entryI9_key_dataIjP4exprEE8set_dataEOS3_ = comdat any

$_ZNK18default_hash_entryI9_key_dataIjP4exprEE7is_freeEv = comdat any

$_ZN18default_hash_entryI9_key_dataIjP4exprEE8set_hashEj = comdat any

$_ZN14core_hashtableI17default_map_entryIjP4exprEN9table2mapIS3_6u_hash4u_eqE15entry_hash_procENS7_13entry_eq_procEE10move_tableEPS3_jSB_j = comdat any

$_ZN14core_hashtableI17default_map_entryIjP4exprEN9table2mapIS3_6u_hash4u_eqE15entry_hash_procENS7_13entry_eq_procEE12delete_tableEv = comdat any

$_Z12dealloc_vectI17default_map_entryIjP4exprEEvPT_j = comdat any

$_ZNK9table2mapI17default_map_entryIjP4exprE6u_hash4u_eqE15entry_hash_procclERK9_key_dataIjS2_E = comdat any

$_ZNK6u_hashclEj = comdat any

$_ZNK9table2mapI17default_map_entryIjP4exprE6u_hash4u_eqE13entry_eq_procclERK9_key_dataIjS2_ESB_ = comdat any

$_ZNK4u_eqclEjj = comdat any

$_ZNK6vectorI7svectorIN3sat7literalEjELb1EjE4sizeEv = comdat any

$_ZNK9table2mapI17default_map_entryIjP4exprE6u_hash4u_eqE9find_coreERKj = comdat any

$_ZNK14core_hashtableI17default_map_entryIjP4exprEN9table2mapIS3_6u_hash4u_eqE15entry_hash_procENS7_13entry_eq_procEE9find_coreERK9_key_dataIjS2_E = comdat any

$_ZN9_key_dataIjP4exprEC2ERKj = comdat any

$_ZN6vectorI10ref_vectorI4expr11ast_managerELb1EjE13expand_vectorEv = comdat any

$_ZN10ref_vectorI4expr11ast_managerEC2ERKS2_ = comdat any

$_ZNK6vectorI10ref_vectorI4expr11ast_managerELb1EjE4sizeEv = comdat any

$_ZSt20uninitialized_move_nIP10ref_vectorI4expr11ast_managerEjS4_ESt4pairIT_T1_ES6_T0_S7_ = comdat any

$_ZN6vectorI10ref_vectorI4expr11ast_managerELb1EjE7destroyEv = comdat any

$_ZSt27__uninitialized_copy_n_pairISt13move_iteratorIP10ref_vectorI4expr11ast_managerEEjS5_ESt4pairIT_T1_ES8_T0_S9_ = comdat any

$_ZSt18make_move_iteratorIP10ref_vectorI4expr11ast_managerEESt13move_iteratorIT_ES6_ = comdat any

$_ZNKSt13move_iteratorIP10ref_vectorI4expr11ast_managerEE4baseEv = comdat any

$_ZNSt4pairIP10ref_vectorI4expr11ast_managerES4_EC2IS4_RS4_TnNSt9enable_ifIXaaclsr5_PCCPE22_MoveConstructiblePairIT_T0_EEclsr5_PCCPE30_ImplicitlyMoveConvertiblePairIS9_SA_EEEbE4typeELb1EEEOS9_OSA_ = comdat any

$_ZSt27__uninitialized_copy_n_pairISt13move_iteratorIP10ref_vectorI4expr11ast_managerEEjS5_ESt4pairIT_T1_ES8_T0_S9_St26random_access_iterator_tag = comdat any

$_ZSt19__iterator_categoryISt13move_iteratorIP10ref_vectorI4expr11ast_managerEEENSt15iterator_traitsIT_E17iterator_categoryERKS8_ = comdat any

$_ZSt18uninitialized_copyISt13move_iteratorIP10ref_vectorI4expr11ast_managerEES5_ET0_T_S8_S7_ = comdat any

$_ZNKSt13move_iteratorIP10ref_vectorI4expr11ast_managerEEplEl = comdat any

$_ZSt4nextISt13move_iteratorIP10ref_vectorI4expr11ast_managerEEET_S7_NSt15iterator_traitsIS7_E15difference_typeE = comdat any

$_ZNSt4pairISt13move_iteratorIP10ref_vectorI4expr11ast_managerEES5_EC2IRS6_RS5_TnNSt9enable_ifIXaaclsr5_PCCPE22_MoveConstructiblePairIT_T0_EEclsr5_PCCPE30_ImplicitlyMoveConvertiblePairISC_SD_EEEbE4typeELb1EEEOSC_OSD_ = comdat any

$_ZNSt20__uninitialized_copyILb0EE13__uninit_copyISt13move_iteratorIP10ref_vectorI4expr11ast_managerEES7_EET0_T_SA_S9_ = comdat any

$_ZSt16__do_uninit_copyISt13move_iteratorIP10ref_vectorI4expr11ast_managerEES5_ET0_T_S8_S7_ = comdat any

$_ZStneIP10ref_vectorI4expr11ast_managerEEbRKSt13move_iteratorIT_ES9_ = comdat any

$_ZSt10_ConstructI10ref_vectorI4expr11ast_managerEJS3_EEvPT_DpOT0_ = comdat any

$_ZNKSt13move_iteratorIP10ref_vectorI4expr11ast_managerEEdeEv = comdat any

$_ZNSt13move_iteratorIP10ref_vectorI4expr11ast_managerEEppEv = comdat any

$_ZSt8_DestroyIP10ref_vectorI4expr11ast_managerEEvT_S5_ = comdat any

$_ZSteqIP10ref_vectorI4expr11ast_managerEEbRKSt13move_iteratorIT_ES9_ = comdat any

$_ZN10ref_vectorI4expr11ast_managerEC2EOS2_ = comdat any

$_ZN15ref_vector_coreI4expr19ref_manager_wrapperIS0_11ast_managerEEC2EOS4_ = comdat any

$_ZN10ptr_vectorI4exprEC2EOS1_ = comdat any

$_ZN6vectorIP4exprLb0EjEC2EOS2_ = comdat any

$_ZSt4swapIPP4exprENSt9enable_ifIXsr6__and_ISt6__not_ISt15__is_tuple_likeIT_EESt21is_move_constructibleIS6_ESt18is_move_assignableIS6_EEE5valueEvE4typeERS6_SF_ = comdat any

$_ZNSt12_Destroy_auxILb0EE9__destroyIP10ref_vectorI4expr11ast_managerEEEvT_S7_ = comdat any

$_ZSt8_DestroyI10ref_vectorI4expr11ast_managerEEvPT_ = comdat any

$_ZNSt13move_iteratorIP10ref_vectorI4expr11ast_managerEEC2ES4_ = comdat any

$_ZSt7advanceISt13move_iteratorIP10ref_vectorI4expr11ast_managerEElEvRT_T0_ = comdat any

$_ZSt9__advanceISt13move_iteratorIP10ref_vectorI4expr11ast_managerEElEvRT_T0_St26random_access_iterator_tag = comdat any

$_ZNSt13move_iteratorIP10ref_vectorI4expr11ast_managerEEmmEv = comdat any

$_ZNSt13move_iteratorIP10ref_vectorI4expr11ast_managerEEpLEl = comdat any

$_ZN6vectorI10ref_vectorI4expr11ast_managerELb1EjE16destroy_elementsEv = comdat any

$_ZN6vectorI10ref_vectorI4expr11ast_managerELb1EjE11free_memoryEv = comdat any

$_ZSt9destroy_nIP10ref_vectorI4expr11ast_managerEjET_S5_T0_ = comdat any

$_ZSt10_Destroy_nIP10ref_vectorI4expr11ast_managerEjET_S5_T0_ = comdat any

$_ZNSt14_Destroy_n_auxILb0EE11__destroy_nIP10ref_vectorI4expr11ast_managerEjEET_S7_T0_ = comdat any

$_ZN15ref_vector_coreI4expr19ref_manager_wrapperIS0_11ast_managerEE6appendERKS4_ = comdat any

$_ZN6vectorI7svectorIN3sat7literalEjELb1EjE7destroyEv = comdat any

$_ZN6vectorI7svectorIN3sat7literalEjELb1EjE16destroy_elementsEv = comdat any

$_ZN6vectorI7svectorIN3sat7literalEjELb1EjE11free_memoryEv = comdat any

$_ZSt9destroy_nIP7svectorIN3sat7literalEjEjET_S5_T0_ = comdat any

$_ZSt10_Destroy_nIP7svectorIN3sat7literalEjEjET_S5_T0_ = comdat any

$_ZNSt14_Destroy_n_auxILb0EE11__destroy_nIP7svectorIN3sat7literalEjEjEET_S7_T0_ = comdat any

$_ZSt8_DestroyI7svectorIN3sat7literalEjEEvPT_ = comdat any

$_ZN3mapIjP4expr6u_hash4u_eqED2Ev = comdat any

$_ZN9table2mapI17default_map_entryIjP4exprE6u_hash4u_eqED2Ev = comdat any

$_ZN14core_hashtableI17default_map_entryIjP4exprEN9table2mapIS3_6u_hash4u_eqE15entry_hash_procENS7_13entry_eq_procEED2Ev = comdat any

$_ZN14inc_sat_solver9last_cubeEb = comdat any

$_ZN13obj_hashtableI4exprEC2Ej = comdat any

$_ZN14core_hashtableI14obj_hash_entryI4exprE12obj_ptr_hashIS1_E6ptr_eqIS1_EE6insertERKPS1_ = comdat any

$_ZNK14core_hashtableI14obj_hash_entryI4exprE12obj_ptr_hashIS1_E6ptr_eqIS1_EE5emptyEv = comdat any

$_ZNK14core_hashtableI14obj_hash_entryI4exprE12obj_ptr_hashIS1_E6ptr_eqIS1_EE8containsERKPS1_ = comdat any

$_ZN10ref_vectorI4expr11ast_managerEixEj = comdat any

$_ZNK10ref_vectorI4expr11ast_managerE11element_ref3getEv = comdat any

$_ZNK6vectorIN3sat7literalELb0EjE5emptyEv = comdat any

$_ZNK3sat6solver18get_reason_unknownEv = comdat any

$_ZN13obj_hashtableI4exprED2Ev = comdat any

$_ZN14core_hashtableI14obj_hash_entryI4exprE12obj_ptr_hashIS1_E6ptr_eqIS1_EEC2EjRKS4_RKS6_ = comdat any

$_ZN14core_hashtableI14obj_hash_entryI4exprE12obj_ptr_hashIS1_E6ptr_eqIS1_EE11alloc_tableEj = comdat any

$_Z10alloc_vectI14obj_hash_entryI4exprEEPT_j = comdat any

$_ZN14obj_hash_entryI4exprEC2Ev = comdat any

$_ZN14core_hashtableI14obj_hash_entryI4exprE12obj_ptr_hashIS1_E6ptr_eqIS1_EE6insertEOPS1_ = comdat any

$_ZN14core_hashtableI14obj_hash_entryI4exprE12obj_ptr_hashIS1_E6ptr_eqIS1_EE12expand_tableEv = comdat any

$_ZNK14core_hashtableI14obj_hash_entryI4exprE12obj_ptr_hashIS1_E6ptr_eqIS1_EE8get_hashERKPS1_ = comdat any

$_ZNK14obj_hash_entryI4exprE7is_usedEv = comdat any

$_ZNK14obj_hash_entryI4exprE8get_hashEv = comdat any

$_ZNK14core_hashtableI14obj_hash_entryI4exprE12obj_ptr_hashIS1_E6ptr_eqIS1_EE6equalsERKPS1_SA_ = comdat any

$_ZN14obj_hash_entryI4exprE8get_dataEv = comdat any

$_ZN14obj_hash_entryI4exprE8set_dataEPS0_ = comdat any

$_ZNK14obj_hash_entryI4exprE7is_freeEv = comdat any

$_ZN14obj_hash_entryI4exprE8set_hashEj = comdat any

$_ZN14core_hashtableI14obj_hash_entryI4exprE12obj_ptr_hashIS1_E6ptr_eqIS1_EE10move_tableEPS2_jS8_j = comdat any

$_ZN14core_hashtableI14obj_hash_entryI4exprE12obj_ptr_hashIS1_E6ptr_eqIS1_EE12delete_tableEv = comdat any

$_Z12dealloc_vectI14obj_hash_entryI4exprEEvPT_j = comdat any

$_ZNK12obj_ptr_hashI4exprEclEPS0_ = comdat any

$_ZNK3ast4hashEv = comdat any

$_ZNK6ptr_eqI4exprEclEPS0_S2_ = comdat any

$_ZNK14core_hashtableI14obj_hash_entryI4exprE12obj_ptr_hashIS1_E6ptr_eqIS1_EE9find_coreERKPS1_ = comdat any

$_ZN6vectorIP4exprLb0EjEixEj = comdat any

$_ZN10ref_vectorI4expr11ast_managerE11element_refC2ERPS0_RS1_ = comdat any

$_ZN14core_hashtableI14obj_hash_entryI4exprE12obj_ptr_hashIS1_E6ptr_eqIS1_EED2Ev = comdat any

$_ZNK3refI15model_converterEcvbEv = comdat any

$_ZN3refI15model_converterEC2ERKS1_ = comdat any

$_ZNK6solver19get_model_converterEv = comdat any

$_ZNK3refIN8sat2goal2mcEE3getEv = comdat any

$_ZN3refI15model_converterE7inc_refEv = comdat any

$_ZNK3sat6solver10trail_sizeEv = comdat any

$_ZNK3sat6solver13trail_literalEj = comdat any

$_ZNK3sat6solver3lvlENS_7literalE = comdat any

$_ZN7obj_refI4expr11ast_managerEC2EPS0_RS1_ = comdat any

$_ZNK7obj_refI4expr11ast_managerEcvbEv = comdat any

$_ZNK6vectorIN3sat7literalELb0EjEixEj = comdat any

$_ZNK6vectorIN3sat13justificationELb0EjEixEj = comdat any

$_ZNK3sat13justification5levelEv = comdat any

$_ZN7obj_refI4expr11ast_managerE7inc_refEv = comdat any

$_ZN6vectorIjLb0EjE6resizeEj = comdat any

$_ZNK3sat6solver3lvlEj = comdat any

$_ZNK6vectorIjLb0EjE8capacityEv = comdat any

$_ZN7obj_mapI4exprPS0_EC2Ev = comdat any

$_ZN11ast_manager14mk_fresh_constEPKcP4sortb = comdat any

$_ZNK11ast_manager12mk_bool_sortEv = comdat any

$_ZN11ast_manager5mk_eqEP4exprS1_ = comdat any

$_ZN7obj_mapI4exprPS0_E6insertES1_RKS1_ = comdat any

$_ZN7obj_mapI4exprN3sat7literalEE5resetEv = comdat any

$_ZN14inc_sat_solver23internalize_assumptionsEjPKP4expr = comdat any

$_ZN14inc_sat_solver19init_reason_unknownEv = comdat any

$_ZNK6vectorIN3sat7literalELb0EjE4dataEv = comdat any

$_ZN11ast_manager3incEv = comdat any

$_ZStplIcSt11char_traitsIcESaIcEENSt7__cxx1112basic_stringIT_T0_T1_EEOS8_S5_ = comdat any

$_ZStplIcSt11char_traitsIcESaIcEENSt7__cxx1112basic_stringIT_T0_T1_EEOS8_PKS5_ = comdat any

$_ZN13stacked_valueIbEclEv = comdat any

$_ZN14inc_sat_solver17check_assumptionsEv = comdat any

$_ZN14inc_sat_solver12extract_coreERK7obj_mapI4exprPS1_E = comdat any

$_ZN7obj_mapI4exprPS0_ED2Ev = comdat any

$_ZN14core_hashtableIN7obj_mapI4exprPS1_E13obj_map_entryE8obj_hashINS3_8key_dataEE10default_eqIS6_EEC2EjRKS7_RKS9_ = comdat any

$_ZN14core_hashtableIN7obj_mapI4exprPS1_E13obj_map_entryE8obj_hashINS3_8key_dataEE10default_eqIS6_EE11alloc_tableEj = comdat any

$_Z10alloc_vectIN7obj_mapI4exprPS1_E13obj_map_entryEEPT_j = comdat any

$_ZN7obj_mapI4exprPS0_E13obj_map_entryC2Ev = comdat any

$_ZN7obj_mapI4exprPS0_E8key_dataC2Ev = comdat any

$_ZN11ast_manager8mk_constEP9func_decl = comdat any

$_ZN11ast_manager18mk_fresh_func_declEPKcjPKP4sortS3_b = comdat any

$_ZNK11ast_manager9get_eq_opEPK4expr = comdat any

$_ZN14core_hashtableIN7obj_mapI4exprPS1_E13obj_map_entryE8obj_hashINS3_8key_dataEE10default_eqIS6_EE6insertEOS6_ = comdat any

$_ZN7obj_mapI4exprPS0_E8key_dataC2ES1_RKS1_ = comdat any

$_ZN14core_hashtableIN7obj_mapI4exprPS1_E13obj_map_entryE8obj_hashINS3_8key_dataEE10default_eqIS6_EE12expand_tableEv = comdat any

$_ZNK14core_hashtableIN7obj_mapI4exprPS1_E13obj_map_entryE8obj_hashINS3_8key_dataEE10default_eqIS6_EE8get_hashERKS6_ = comdat any

$_ZNK7obj_mapI4exprPS0_E13obj_map_entry7is_usedEv = comdat any

$_ZNK7obj_mapI4exprPS0_E13obj_map_entry8get_hashEv = comdat any

$_ZNK14core_hashtableIN7obj_mapI4exprPS1_E13obj_map_entryE8obj_hashINS3_8key_dataEE10default_eqIS6_EE6equalsERKS6_SC_ = comdat any

$_ZN7obj_mapI4exprPS0_E13obj_map_entry8get_dataEv = comdat any

$_ZN7obj_mapI4exprPS0_E13obj_map_entry8set_dataEONS2_8key_dataE = comdat any

$_ZNK7obj_mapI4exprPS0_E13obj_map_entry7is_freeEv = comdat any

$_ZN7obj_mapI4exprPS0_E13obj_map_entry8set_hashEj = comdat any

$_ZN14core_hashtableIN7obj_mapI4exprPS1_E13obj_map_entryE8obj_hashINS3_8key_dataEE10default_eqIS6_EE10move_tableEPS4_jSB_j = comdat any

$_ZN14core_hashtableIN7obj_mapI4exprPS1_E13obj_map_entryE8obj_hashINS3_8key_dataEE10default_eqIS6_EE12delete_tableEv = comdat any

$_Z12dealloc_vectIN7obj_mapI4exprPS1_E13obj_map_entryEEvPT_j = comdat any

$_ZNK8obj_hashIN7obj_mapI4exprPS1_E8key_dataEEclERKS4_ = comdat any

$_ZNK7obj_mapI4exprPS0_E8key_data4hashEv = comdat any

$_ZNK10default_eqIN7obj_mapI4exprPS1_E8key_dataEEclERKS4_S7_ = comdat any

$_ZNK7obj_mapI4exprPS0_E8key_dataeqERKS3_ = comdat any

$_ZN14core_hashtableIN7obj_mapI4exprN3sat7literalEE13obj_map_entryE8obj_hashINS4_8key_dataEE10default_eqIS7_EE5resetEv = comdat any

$_ZNK7obj_mapI4exprN3sat7literalEE13obj_map_entry7is_freeEv = comdat any

$_ZN7obj_mapI4exprN3sat7literalEE13obj_map_entry12mark_as_freeEv = comdat any

$_ZN6vectorIN3sat7literalELb0EjE6shrinkEj = comdat any

$_ZN14inc_sat_solver19extract_assumptionsEjPKP4expr = comdat any

$_ZN6vectorIN3sat7literalELb0EjE5resetEv = comdat any

$_ZN3sat11literal_setC2Ev = comdat any

$_ZNK7obj_mapI4exprN3sat7literalEE4findEPS0_RS2_ = comdat any

$_ZNK3sat11literal_set8containsENS_7literalE = comdat any

$_ZN3sat11literal_set6insertENS_7literalE = comdat any

$_ZNK6vectorIdLb0EjE5emptyEv = comdat any

$_ZN6vectorIdLb0EjEixEj = comdat any

$_ZN3sat11literal_setD2Ev = comdat any

$_ZN16tracked_uint_setC2Ev = comdat any

$_ZN7svectorIcjEC2Ev = comdat any

$_ZN7svectorIcjED2Ev = comdat any

$_ZN6vectorIcLb0EjEC2Ev = comdat any

$_ZN6vectorIcLb0EjED2Ev = comdat any

$_ZN6vectorIcLb0EjE7destroyEv = comdat any

$_ZN6vectorIcLb0EjE11free_memoryEv = comdat any

$_ZNK7obj_mapI4exprN3sat7literalEE9find_coreEPS0_ = comdat any

$_ZN7obj_mapI4exprN3sat7literalEE13obj_map_entry8get_dataEv = comdat any

$_ZNK14core_hashtableIN7obj_mapI4exprN3sat7literalEE13obj_map_entryE8obj_hashINS4_8key_dataEE10default_eqIS7_EE9find_coreERKS7_ = comdat any

$_ZN7obj_mapI4exprN3sat7literalEE8key_dataC2EPS0_ = comdat any

$_ZNK14core_hashtableIN7obj_mapI4exprN3sat7literalEE13obj_map_entryE8obj_hashINS4_8key_dataEE10default_eqIS7_EE8get_hashERKS7_ = comdat any

$_ZNK7obj_mapI4exprN3sat7literalEE13obj_map_entry7is_usedEv = comdat any

$_ZNK7obj_mapI4exprN3sat7literalEE13obj_map_entry8get_hashEv = comdat any

$_ZNK14core_hashtableIN7obj_mapI4exprN3sat7literalEE13obj_map_entryE8obj_hashINS4_8key_dataEE10default_eqIS7_EE6equalsERKS7_SD_ = comdat any

$_ZNK8obj_hashIN7obj_mapI4exprN3sat7literalEE8key_dataEEclERKS5_ = comdat any

$_ZNK7obj_mapI4exprN3sat7literalEE8key_data4hashEv = comdat any

$_ZNK10default_eqIN7obj_mapI4exprN3sat7literalEE8key_dataEEclERKS5_S8_ = comdat any

$_ZNK7obj_mapI4exprN3sat7literalEE8key_dataeqERKS4_ = comdat any

$_ZNK16tracked_uint_set8containsEj = comdat any

$_ZNK6vectorIcLb0EjE4sizeEv = comdat any

$_ZNK6vectorIcLb0EjEixEj = comdat any

$_ZN16tracked_uint_set6insertEj = comdat any

$_ZN6vectorIcLb0EjE7reserveEjRKc = comdat any

$_ZN6vectorIcLb0EjEixEj = comdat any

$_ZN6vectorIcLb0EjE6resizeIcEEvjT_z = comdat any

$_ZN6vectorIcLb0EjE6shrinkEj = comdat any

$_ZNK6vectorIcLb0EjE8capacityEv = comdat any

$_ZN6vectorIcLb0EjE13expand_vectorEv = comdat any

$_ZN16tracked_uint_setD2Ev = comdat any

$_ZNK7obj_mapI4exprN3sat7literalEE5beginEv = comdat any

$_ZNK7obj_mapI4exprN3sat7literalEE3endEv = comdat any

$_ZNK14core_hashtableIN7obj_mapI4exprN3sat7literalEE13obj_map_entryE8obj_hashINS4_8key_dataEE10default_eqIS7_EE8iteratorneERKSC_ = comdat any

$_ZN14core_hashtableIN7obj_mapI4exprN3sat7literalEE13obj_map_entryE8obj_hashINS4_8key_dataEE10default_eqIS7_EE8iteratordeEv = comdat any

$_ZN3sat8value_atENS_7literalERK7svectorI5lbooljE = comdat any

$_ZN3satlsERSoRK7svectorINS_7literalEjE = comdat any

$_ZN14core_hashtableIN7obj_mapI4exprN3sat7literalEE13obj_map_entryE8obj_hashINS4_8key_dataEE10default_eqIS7_EE8iteratorppEv = comdat any

$_ZNK14core_hashtableIN7obj_mapI4exprN3sat7literalEE13obj_map_entryE8obj_hashINS4_8key_dataEE10default_eqIS7_EE5beginEv = comdat any

$_ZN14core_hashtableIN7obj_mapI4exprN3sat7literalEE13obj_map_entryE8obj_hashINS4_8key_dataEE10default_eqIS7_EE8iteratorC2EPS5_SD_ = comdat any

$_ZN14core_hashtableIN7obj_mapI4exprN3sat7literalEE13obj_map_entryE8obj_hashINS4_8key_dataEE10default_eqIS7_EE8iterator12move_to_usedEv = comdat any

$_ZNK14core_hashtableIN7obj_mapI4exprN3sat7literalEE13obj_map_entryE8obj_hashINS4_8key_dataEE10default_eqIS7_EE3endEv = comdat any

$_Zco5lbool = comdat any

$_ZN3satlsERSoRKNS_10mk_lits_ppE = comdat any

$_ZN3sat10mk_lits_ppC2EjPKNS_7literalE = comdat any

$_ZN3satlsERSoNS_7literalE = comdat any

$_ZN3sateqERKNS_7literalES2_ = comdat any

$_ZN14inc_sat_solver15extract_asm2depER5u_mapIP4exprE = comdat any

$_ZNK3sat6solver8get_coreEv = comdat any

$_ZNK9table2mapI17default_map_entryIjP4exprE6u_hash4u_eqE4findERKjRS2_ = comdat any

$_ZNK7obj_mapI4exprPS0_E8containsES1_ = comdat any

$_ZNK7obj_mapI4exprPS0_E4findES1_ = comdat any

$_ZN9table2mapI17default_map_entryIjP4exprE6u_hash4u_eqE6insertERKjRKS2_ = comdat any

$_ZN9_key_dataIjP4exprEC2ERKjRKS1_ = comdat any

$_ZNK7obj_mapI4exprPS0_E9find_coreES1_ = comdat any

$_ZNK14core_hashtableIN7obj_mapI4exprPS1_E13obj_map_entryE8obj_hashINS3_8key_dataEE10default_eqIS6_EE9find_coreERKS6_ = comdat any

$_ZN7obj_mapI4exprPS0_E8key_dataC2ES1_ = comdat any

$_ZN14core_hashtableIN7obj_mapI4exprPS1_E13obj_map_entryE8obj_hashINS3_8key_dataEE10default_eqIS6_EED2Ev = comdat any

$_ZN14inc_sat_solver16internalize_varsERK10ref_vectorI4expr11ast_managerER7svectorIjjE = comdat any

$_ZN5u_mapIjEC2Ev = comdat any

$_ZN9table2mapI17default_map_entryIjjE6u_hash4u_eqE6insertERKjS6_ = comdat any

$_ZN6vectorI7svectorIN3sat7literalEjELb1EjEixEj = comdat any

$_ZN6vectorIN3sat7literalELb0EjEixEj = comdat any

$_ZN14inc_sat_solver22extract_fixed_variableER5u_mapIP4exprES2_RKS0_IjERK6vectorI7svectorIN3sat7literalEjELb1EjER7obj_refIS1_11ast_managerE = comdat any

$_ZN5u_mapIjED2Ev = comdat any

$_ZN14inc_sat_solver15internalize_varEP4exprR7svectorIjjE = comdat any

$_ZN7obj_mapI9func_declP4exprEC2Ev = comdat any

$_ZNK7obj_mapI9func_declP4exprE4findEPS0_RS2_ = comdat any

$_ZNK14bv_recognizers5is_bvEPK4expr = comdat any

$_ZN7obj_mapI9func_declP4exprED2Ev = comdat any

$_ZN14core_hashtableIN7obj_mapI9func_declP4exprE13obj_map_entryE8obj_hashINS4_8key_dataEE10default_eqIS7_EEC2EjRKS8_RKSA_ = comdat any

$_ZN14core_hashtableIN7obj_mapI9func_declP4exprE13obj_map_entryE8obj_hashINS4_8key_dataEE10default_eqIS7_EE11alloc_tableEj = comdat any

$_Z10alloc_vectIN7obj_mapI9func_declP4exprE13obj_map_entryEEPT_j = comdat any

$_ZN7obj_mapI9func_declP4exprE13obj_map_entryC2Ev = comdat any

$_ZN7obj_mapI9func_declP4exprE8key_dataC2Ev = comdat any

$_ZNK7obj_mapI9func_declP4exprE9find_coreEPS0_ = comdat any

$_ZN7obj_mapI9func_declP4exprE13obj_map_entry8get_dataEv = comdat any

$_ZNK14core_hashtableIN7obj_mapI9func_declP4exprE13obj_map_entryE8obj_hashINS4_8key_dataEE10default_eqIS7_EE9find_coreERKS7_ = comdat any

$_ZN7obj_mapI9func_declP4exprE8key_dataC2EPS0_ = comdat any

$_ZNK14core_hashtableIN7obj_mapI9func_declP4exprE13obj_map_entryE8obj_hashINS4_8key_dataEE10default_eqIS7_EE8get_hashERKS7_ = comdat any

$_ZNK7obj_mapI9func_declP4exprE13obj_map_entry7is_usedEv = comdat any

$_ZNK7obj_mapI9func_declP4exprE13obj_map_entry8get_hashEv = comdat any

$_ZNK14core_hashtableIN7obj_mapI9func_declP4exprE13obj_map_entryE8obj_hashINS4_8key_dataEE10default_eqIS7_EE6equalsERKS7_SD_ = comdat any

$_ZNK7obj_mapI9func_declP4exprE13obj_map_entry7is_freeEv = comdat any

$_ZNK8obj_hashIN7obj_mapI9func_declP4exprE8key_dataEEclERKS5_ = comdat any

$_ZNK7obj_mapI9func_declP4exprE8key_data4hashEv = comdat any

$_ZNK10default_eqIN7obj_mapI9func_declP4exprE8key_dataEEclERKS5_S8_ = comdat any

$_ZNK7obj_mapI9func_declP4exprE8key_dataeqERKS4_ = comdat any

$_ZN14core_hashtableIN7obj_mapI9func_declP4exprE13obj_map_entryE8obj_hashINS4_8key_dataEE10default_eqIS7_EED2Ev = comdat any

$_ZN14core_hashtableIN7obj_mapI9func_declP4exprE13obj_map_entryE8obj_hashINS4_8key_dataEE10default_eqIS7_EE12delete_tableEv = comdat any

$_Z12dealloc_vectIN7obj_mapI9func_declP4exprE13obj_map_entryEEvPT_j = comdat any

$_ZN3mapIjj6u_hash4u_eqEC2ERKS0_RKS1_ = comdat any

$_ZN9table2mapI17default_map_entryIjjE6u_hash4u_eqEC2ERKS2_RKS3_ = comdat any

$_ZN9table2mapI17default_map_entryIjjE6u_hash4u_eqE15entry_hash_procC2ERKS2_ = comdat any

$_ZN9table2mapI17default_map_entryIjjE6u_hash4u_eqE13entry_eq_procC2ERKS3_ = comdat any

$_ZN14core_hashtableI17default_map_entryIjjEN9table2mapIS1_6u_hash4u_eqE15entry_hash_procENS5_13entry_eq_procEEC2EjRKS6_RKS7_ = comdat any

$_ZN14core_hashtableI17default_map_entryIjjEN9table2mapIS1_6u_hash4u_eqE15entry_hash_procENS5_13entry_eq_procEE11alloc_tableEj = comdat any

$_Z10alloc_vectI17default_map_entryIjjEEPT_j = comdat any

$_ZN17default_map_entryIjjEC2Ev = comdat any

$_ZN18default_hash_entryI9_key_dataIjjEEC2Ev = comdat any

$_ZN9_key_dataIjjEC2Ev = comdat any

$_ZN14core_hashtableI17default_map_entryIjjEN9table2mapIS1_6u_hash4u_eqE15entry_hash_procENS5_13entry_eq_procEE6insertEO9_key_dataIjjE = comdat any

$_ZN9_key_dataIjjEC2ERKjS2_ = comdat any

$_ZN14core_hashtableI17default_map_entryIjjEN9table2mapIS1_6u_hash4u_eqE15entry_hash_procENS5_13entry_eq_procEE12expand_tableEv = comdat any

$_ZNK14core_hashtableI17default_map_entryIjjEN9table2mapIS1_6u_hash4u_eqE15entry_hash_procENS5_13entry_eq_procEE8get_hashERK9_key_dataIjjE = comdat any

$_ZNK18default_hash_entryI9_key_dataIjjEE7is_usedEv = comdat any

$_ZNK18default_hash_entryI9_key_dataIjjEE8get_hashEv = comdat any

$_ZNK14core_hashtableI17default_map_entryIjjEN9table2mapIS1_6u_hash4u_eqE15entry_hash_procENS5_13entry_eq_procEE6equalsERK9_key_dataIjjESC_ = comdat any

$_ZN18default_hash_entryI9_key_dataIjjEE8get_dataEv = comdat any

$_ZN18default_hash_entryI9_key_dataIjjEE8set_dataEOS1_ = comdat any

$_ZNK18default_hash_entryI9_key_dataIjjEE7is_freeEv = comdat any

$_ZN18default_hash_entryI9_key_dataIjjEE8set_hashEj = comdat any

$_ZN14core_hashtableI17default_map_entryIjjEN9table2mapIS1_6u_hash4u_eqE15entry_hash_procENS5_13entry_eq_procEE10move_tableEPS1_jS9_j = comdat any

$_ZN14core_hashtableI17default_map_entryIjjEN9table2mapIS1_6u_hash4u_eqE15entry_hash_procENS5_13entry_eq_procEE12delete_tableEv = comdat any

$_Z12dealloc_vectI17default_map_entryIjjEEvPT_j = comdat any

$_ZNK9table2mapI17default_map_entryIjjE6u_hash4u_eqE15entry_hash_procclERK9_key_dataIjjE = comdat any

$_ZNK9table2mapI17default_map_entryIjjE6u_hash4u_eqE13entry_eq_procclERK9_key_dataIjjES9_ = comdat any

$_ZNK9table2mapI17default_map_entryIjjE6u_hash4u_eqE4findERKjRj = comdat any

$_ZNK6vectorI7svectorIN3sat7literalEjELb1EjEixEj = comdat any

$_ZN14inc_sat_solver17internalize_valueERK7svectorIN3sat7literalEjEP4exprR7obj_refIS6_11ast_managerE = comdat any

$_ZNK3sat11literal_set5emptyEv = comdat any

$_ZN3sat11literal_set3popEv = comdat any

$_Z6mk_andRK10ref_vectorI4expr11ast_managerE = comdat any

$_ZN7obj_refI4expr11ast_managerEaSEPS0_ = comdat any

$_ZNK9table2mapI17default_map_entryIjjE6u_hash4u_eqE9find_coreERKj = comdat any

$_ZNK14core_hashtableI17default_map_entryIjjEN9table2mapIS1_6u_hash4u_eqE15entry_hash_procENS5_13entry_eq_procEE9find_coreERK9_key_dataIjjE = comdat any

$_ZN9_key_dataIjjEC2ERKj = comdat any

$_ZN11ast_manager6mk_notEP4expr = comdat any

$_ZNK6vectorI8rationalLb1EjE5emptyEv = comdat any

$_ZN6vectorI8rationalLb1EjE9push_backERKS0_ = comdat any

$_ZN8rational3oneEv = comdat any

$_ZN6vectorI8rationalLb1EjE9push_backEOS0_ = comdat any

$_ZmlRK8rationalS1_ = comdat any

$_ZN8rationalC2Ei = comdat any

$_ZN6vectorI8rationalLb1EjE4backEv = comdat any

$_ZN6vectorI8rationalLb1EjEixEj = comdat any

$_ZN8rationalpLERKS_ = comdat any

$_ZN6vectorI8rationalLb1EjE13expand_vectorEv = comdat any

$_ZN8rationalC2ERKS_ = comdat any

$_ZSt20uninitialized_move_nIP8rationaljS1_ESt4pairIT_T1_ES3_T0_S4_ = comdat any

$_ZSt27__uninitialized_copy_n_pairISt13move_iteratorIP8rationalEjS2_ESt4pairIT_T1_ES5_T0_S6_ = comdat any

$_ZSt18make_move_iteratorIP8rationalESt13move_iteratorIT_ES3_ = comdat any

$_ZNKSt13move_iteratorIP8rationalE4baseEv = comdat any

$_ZNSt4pairIP8rationalS1_EC2IS1_RS1_TnNSt9enable_ifIXaaclsr5_PCCPE22_MoveConstructiblePairIT_T0_EEclsr5_PCCPE30_ImplicitlyMoveConvertiblePairIS6_S7_EEEbE4typeELb1EEEOS6_OS7_ = comdat any

$_ZSt27__uninitialized_copy_n_pairISt13move_iteratorIP8rationalEjS2_ESt4pairIT_T1_ES5_T0_S6_St26random_access_iterator_tag = comdat any

$_ZSt19__iterator_categoryISt13move_iteratorIP8rationalEENSt15iterator_traitsIT_E17iterator_categoryERKS5_ = comdat any

$_ZSt18uninitialized_copyISt13move_iteratorIP8rationalES2_ET0_T_S5_S4_ = comdat any

$_ZNKSt13move_iteratorIP8rationalEplEl = comdat any

$_ZSt4nextISt13move_iteratorIP8rationalEET_S4_NSt15iterator_traitsIS4_E15difference_typeE = comdat any

$_ZNSt4pairISt13move_iteratorIP8rationalES2_EC2IRS3_RS2_TnNSt9enable_ifIXaaclsr5_PCCPE22_MoveConstructiblePairIT_T0_EEclsr5_PCCPE30_ImplicitlyMoveConvertiblePairIS9_SA_EEEbE4typeELb1EEEOS9_OSA_ = comdat any

$_ZNSt20__uninitialized_copyILb0EE13__uninit_copyISt13move_iteratorIP8rationalES4_EET0_T_S7_S6_ = comdat any

$_ZSt16__do_uninit_copyISt13move_iteratorIP8rationalES2_ET0_T_S5_S4_ = comdat any

$_ZStneIP8rationalEbRKSt13move_iteratorIT_ES6_ = comdat any

$_ZSt10_ConstructI8rationalJS0_EEvPT_DpOT0_ = comdat any

$_ZNKSt13move_iteratorIP8rationalEdeEv = comdat any

$_ZNSt13move_iteratorIP8rationalEppEv = comdat any

$_ZSt8_DestroyIP8rationalEvT_S2_ = comdat any

$_ZSteqIP8rationalEbRKSt13move_iteratorIT_ES6_ = comdat any

$_ZN8rationalC2EOS_ = comdat any

$_ZN3mpqC2EOS_ = comdat any

$_ZN3mpzC2EOS_ = comdat any

$_ZSt4swapIP8mpz_cellENSt9enable_ifIXsr6__and_ISt6__not_ISt15__is_tuple_likeIT_EESt21is_move_constructibleIS5_ESt18is_move_assignableIS5_EEE5valueEvE4typeERS5_SE_ = comdat any

$_ZNSt12_Destroy_auxILb0EE9__destroyIP8rationalEEvT_S4_ = comdat any

$_ZNSt13move_iteratorIP8rationalEC2ES1_ = comdat any

$_ZSt7advanceISt13move_iteratorIP8rationalElEvRT_T0_ = comdat any

$_ZSt9__advanceISt13move_iteratorIP8rationalElEvRT_T0_St26random_access_iterator_tag = comdat any

$_ZNSt13move_iteratorIP8rationalEmmEv = comdat any

$_ZNSt13move_iteratorIP8rationalEpLEl = comdat any

$_ZN3mpqC2Ev = comdat any

$_ZN8rational1mEv = comdat any

$_ZN11mpq_managerILb1EE3setER3mpqRKS1_ = comdat any

$_ZN3mpzC2Ev = comdat any

$_ZN3mpzC2Ei = comdat any

$_ZN11mpq_managerILb1EE3setER3mpzRKS1_ = comdat any

$_ZN11mpz_managerILb1EE3setER3mpzRKS1_ = comdat any

$_ZN11mpz_managerILb1EE8is_smallERK3mpz = comdat any

$_ZN8rationalmLERKS_ = comdat any

$_ZN11mpq_managerILb1EE3mulERK3mpqS3_RS1_ = comdat any

$_ZN11mpq_managerILb1EE6is_intERK3mpq = comdat any

$_ZN11mpq_managerILb1EE17reset_denominatorER3mpq = comdat any

$_ZN11mpq_managerILb1EE6is_oneERK3mpz = comdat any

$_ZN11mpz_managerILb1EE6is_oneERK3mpz = comdat any

$_ZN11mpq_managerILb1EE3delER3mpz = comdat any

$_ZN11mpz_managerILb1EE3delER3mpz = comdat any

$_ZN11mpq_managerILb1EE3setER3mpqi = comdat any

$_ZN11mpq_managerILb1EE3setER3mpzi = comdat any

$_ZN11mpz_managerILb1EE3setER3mpzi = comdat any

$_ZN11mpq_managerILb1EE3addERK3mpqS3_RS1_ = comdat any

$_ZN11mpq_managerILb1EE7is_zeroERK3mpq = comdat any

$_ZN11mpq_managerILb1EE7is_zeroERK3mpz = comdat any

$_ZN11mpz_managerILb1EE7is_zeroERK3mpz = comdat any

$_ZN11mpz_managerILb1EE4signERK3mpz = comdat any

$_ZNK16tracked_uint_set5emptyEv = comdat any

$_ZNK6vectorIjLb0EjE5emptyEv = comdat any

$_ZN3sat10to_literalEj = comdat any

$_ZN16tracked_uint_set5eraseEv = comdat any

$_ZNK10ref_vectorI4expr11ast_managerE11get_managerEv = comdat any

$_ZN3mapIjj6u_hash4u_eqED2Ev = comdat any

$_ZN9table2mapI17default_map_entryIjjE6u_hash4u_eqED2Ev = comdat any

$_ZN14core_hashtableI17default_map_entryIjjEN9table2mapIS1_6u_hash4u_eqE15entry_hash_procENS5_13entry_eq_procEED2Ev = comdat any

$_ZN3euf6solver29user_propagate_register_fixedERSt8functionIFvPvPN15user_propagator8callbackEP4exprS7_EE = comdat any

$_ZN3euf6solver25check_for_user_propagatorEv = comdat any

$_ZN11user_solver6solver14register_fixedERSt8functionIFvPvPN15user_propagator8callbackEP4exprS7_EE = comdat any

$_ZNSt8functionIFvPvPN15user_propagator8callbackEP4exprS5_EEaSERKS7_ = comdat any

$_ZNSt8functionIFvPvPN15user_propagator8callbackEP4exprS5_EEC2ERKS7_ = comdat any

$_ZNSt8functionIFvPvPN15user_propagator8callbackEP4exprS5_EE4swapERS7_ = comdat any

$_ZNSt8functionIFvPvPN15user_propagator8callbackEP4exprS5_EED2Ev = comdat any

$_ZNKSt8functionIFvPvPN15user_propagator8callbackEP4exprS5_EEcvbEv = comdat any

$_ZNSt14_Function_baseD2Ev = comdat any

$_ZNKSt14_Function_base8_M_emptyEv = comdat any

$_ZSt4swapISt9_Any_dataENSt9enable_ifIXsr6__and_ISt6__not_ISt15__is_tuple_likeIT_EESt21is_move_constructibleIS4_ESt18is_move_assignableIS4_EEE5valueEvE4typeERS4_SD_ = comdat any

$_ZSt4swapIPFbRSt9_Any_dataRKS0_St18_Manager_operationEENSt9enable_ifIXsr6__and_ISt6__not_ISt15__is_tuple_likeIT_EESt21is_move_constructibleISA_ESt18is_move_assignableISA_EEE5valueEvE4typeERSA_SJ_ = comdat any

$_ZSt4swapIPFvRKSt9_Any_dataOPvOPN15user_propagator8callbackEOP4exprSB_EENSt9enable_ifIXsr6__and_ISt6__not_ISt15__is_tuple_likeIT_EESt21is_move_constructibleISH_ESt18is_move_assignableISH_EEE5valueEvE4typeERSH_SQ_ = comdat any

$_ZN3euf6solver29user_propagate_register_finalERSt8functionIFvPvPN15user_propagator8callbackEEE = comdat any

$_ZN11user_solver6solver14register_finalERSt8functionIFvPvPN15user_propagator8callbackEEE = comdat any

$_ZNSt8functionIFvPvPN15user_propagator8callbackEEEaSERKS5_ = comdat any

$_ZNSt8functionIFvPvPN15user_propagator8callbackEEEC2ERKS5_ = comdat any

$_ZNSt8functionIFvPvPN15user_propagator8callbackEEE4swapERS5_ = comdat any

$_ZNSt8functionIFvPvPN15user_propagator8callbackEEED2Ev = comdat any

$_ZNKSt8functionIFvPvPN15user_propagator8callbackEEEcvbEv = comdat any

$_ZSt4swapIPFvRKSt9_Any_dataOPvOPN15user_propagator8callbackEEENSt9enable_ifIXsr6__and_ISt6__not_ISt15__is_tuple_likeIT_EESt21is_move_constructibleISE_ESt18is_move_assignableISE_EEE5valueEvE4typeERSE_SN_ = comdat any

$_ZN3euf6solver26user_propagate_register_eqERSt8functionIFvPvPN15user_propagator8callbackEP4exprS7_EE = comdat any

$_ZN11user_solver6solver11register_eqERSt8functionIFvPvPN15user_propagator8callbackEP4exprS7_EE = comdat any

$_ZN3euf6solver29user_propagate_register_diseqERSt8functionIFvPvPN15user_propagator8callbackEP4exprS7_EE = comdat any

$_ZN11user_solver6solver14register_diseqERSt8functionIFvPvPN15user_propagator8callbackEP4exprS7_EE = comdat any

$_ZN3euf6solver28user_propagate_register_exprEP4expr = comdat any

$_ZN3euf6solver31user_propagate_register_createdERSt8functionIFvPvPN15user_propagator8callbackEP4exprEE = comdat any

$_ZN11user_solver6solver16register_createdERSt8functionIFvPvPN15user_propagator8callbackEP4exprEE = comdat any

$_ZNSt8functionIFvPvPN15user_propagator8callbackEP4exprEEaSERKS7_ = comdat any

$_ZNSt8functionIFvPvPN15user_propagator8callbackEP4exprEEC2ERKS7_ = comdat any

$_ZNSt8functionIFvPvPN15user_propagator8callbackEP4exprEE4swapERS7_ = comdat any

$_ZNSt8functionIFvPvPN15user_propagator8callbackEP4exprEED2Ev = comdat any

$_ZNKSt8functionIFvPvPN15user_propagator8callbackEP4exprEEcvbEv = comdat any

$_ZSt4swapIPFvRKSt9_Any_dataOPvOPN15user_propagator8callbackEOP4exprEENSt9enable_ifIXsr6__and_ISt6__not_ISt15__is_tuple_likeIT_EESt21is_move_constructibleISH_ESt18is_move_assignableISH_EEE5valueEvE4typeERSH_SQ_ = comdat any

$_ZN3euf6solver30user_propagate_register_decideERSt8functionIFvPvPN15user_propagator8callbackEP4exprjbEE = comdat any

$_ZN11user_solver6solver15register_decideERSt8functionIFvPvPN15user_propagator8callbackEP4exprjbEE = comdat any

$_ZNSt8functionIFvPvPN15user_propagator8callbackEP4exprjbEEaSERKS7_ = comdat any

$_ZNSt8functionIFvPvPN15user_propagator8callbackEP4exprjbEEC2ERKS7_ = comdat any

$_ZNSt8functionIFvPvPN15user_propagator8callbackEP4exprjbEE4swapERS7_ = comdat any

$_ZNSt8functionIFvPvPN15user_propagator8callbackEP4exprjbEED2Ev = comdat any

$_ZNKSt8functionIFvPvPN15user_propagator8callbackEP4exprjbEEcvbEv = comdat any

$_ZSt4swapIPFvRKSt9_Any_dataOPvOPN15user_propagator8callbackEOP4exprOjObEENSt9enable_ifIXsr6__and_ISt6__not_ISt15__is_tuple_likeIT_EESt21is_move_constructibleISJ_ESt18is_move_assignableISJ_EEE5valueEvE4typeERSJ_SS_ = comdat any

$_ZNK8rational9is_uint64Ev = comdat any

$_ZNK8rational10get_uint64Ev = comdat any

$_ZNK11mpq_managerILb1EE9is_uint64ERK3mpq = comdat any

$_ZNK11mpq_managerILb1EE9is_uint64ERK3mpz = comdat any

$_ZNK11mpq_managerILb1EE10get_uint64ERK3mpq = comdat any

$_ZNK11mpq_managerILb1EE10get_uint64ERK3mpz = comdat any

$_ZN6vectorIdLb0EjE9push_backEOd = comdat any

$_ZN6vectorIdLb0EjE5resetEv = comdat any

$_ZNK6vectorIjLb0EjE4dataEv = comdat any

$_ZN6vectorIdLb0EjE13expand_vectorEv = comdat any

$_ZNSt11char_traitsIcE6lengthEPKc = comdat any

$_ZNSt7__cxx1112basic_stringIcSt11char_traitsIcESaIcEE12_M_constructIPKcEEvT_S8_St20forward_iterator_tag = comdat any

$_ZNSt7__cxx1112basic_stringIcSt11char_traitsIcESaIcEE12_Alloc_hiderD2Ev = comdat any

$_ZSt8distanceIPKcENSt15iterator_traitsIT_E15difference_typeES3_S3_ = comdat any

$_ZZNSt7__cxx1112basic_stringIcSt11char_traitsIcESaIcEE12_M_constructIPKcEEvT_S8_St20forward_iterator_tagEN6_GuardC2EPS4_ = comdat any

$_ZZNSt7__cxx1112basic_stringIcSt11char_traitsIcESaIcEE12_M_constructIPKcEEvT_S8_St20forward_iterator_tagEN6_GuardD2Ev = comdat any

$_ZSt10__distanceIPKcENSt15iterator_traitsIT_E15difference_typeES3_S3_St26random_access_iterator_tag = comdat any

$_ZSt19__iterator_categoryIPKcENSt15iterator_traitsIT_E17iterator_categoryERKS3_ = comdat any

$_ZN6vectorIjLb1EjE7destroyEv = comdat any

$_ZN6vectorIjLb1EjE16destroy_elementsEv = comdat any

$_ZN6vectorIjLb1EjE11free_memoryEv = comdat any

$_ZSt9destroy_nIPjjET_S1_T0_ = comdat any

$_ZNK6vectorIjLb1EjE4sizeEv = comdat any

$_ZSt10_Destroy_nIPjjET_S1_T0_ = comdat any

$_ZNSt14_Destroy_n_auxILb1EE11__destroy_nIPjjEET_S3_T0_ = comdat any

$_ZSt7advanceIPjjEvRT_T0_ = comdat any

$_ZSt9__advanceIPjlEvRT_T0_St26random_access_iterator_tag = comdat any

$_ZSt19__iterator_categoryIPjENSt15iterator_traitsIT_E17iterator_categoryERKS2_ = comdat any

$_ZN6vectorIjLb1EjE13expand_vectorEv = comdat any

$_ZTS14inc_sat_solver = comdat any

$_ZTI14inc_sat_solver = comdat any

$_ZTV14inc_sat_solver = comdat any

$_ZTV16check_sat_result = comdat any

$_ZTS16check_sat_result = comdat any

$_ZTI16check_sat_result = comdat any

$_ZTVN15user_propagator4coreE = comdat any

$_ZTSN15user_propagator4coreE = comdat any

$_ZTIN15user_propagator4coreE = comdat any

$_ZTV27dependent_expr_state_tactic = comdat any

$_ZTS27dependent_expr_state_tactic = comdat any

$_ZTS6tactic = comdat any

$_ZTI6tactic = comdat any

$_ZTS20dependent_expr_state = comdat any

$_ZTI20dependent_expr_state = comdat any

$_ZTI27dependent_expr_state_tactic = comdat any

$_ZTV6tactic = comdat any

$_ZTV20dependent_expr_state = comdat any

$_ZTV11value_trailIjE = comdat any

$_ZTS11value_trailIjE = comdat any

$_ZTS5trail = comdat any

$_ZTI5trail = comdat any

$_ZTI11value_trailIjE = comdat any

$_ZTV5trail = comdat any

$_ZTVN20dependent_expr_state4thawE = comdat any

$_ZTSN20dependent_expr_state4thawE = comdat any

$_ZTIN20dependent_expr_state4thawE = comdat any

$_ZTS18rewriter_exception = comdat any

$_ZTI18rewriter_exception = comdat any

$_ZTS16tactic_exception = comdat any

$_ZTI16tactic_exception = comdat any

$_ZTV16tactic_exception = comdat any

$_ZTSN3sat9extensionE = comdat any

$_ZTIN3sat9extensionE = comdat any

$_ZTVN14inc_sat_solver9sat_phaseE = comdat any

$_ZTSN14inc_sat_solver9sat_phaseE = comdat any

$_ZTSN6solver5phaseE = comdat any

$_ZTIN6solver5phaseE = comdat any

$_ZTS7svectorIN3sat7literalEjE = comdat any

$_ZTS6vectorIN3sat7literalELb0EjE = comdat any

$_ZTI6vectorIN3sat7literalELb0EjE = comdat any

$_ZTI7svectorIN3sat7literalEjE = comdat any

$_ZTIN14inc_sat_solver9sat_phaseE = comdat any

$_ZTVN6solver5phaseE = comdat any

@_ZStL8__ioinit = internal global %"class.std::ios_base::Init" zeroinitializer, align 1
@__dso_handle = external hidden global i8
@_ZN3satL12null_literalE = internal global %"class.sat::literal" zeroinitializer, align 4
@_ZTI6solver = external constant ptr
@_ZTVN10__cxxabiv120__si_class_type_infoE = external global [0 x ptr]
@_ZTS14inc_sat_solver = linkonce_odr hidden constant [17 x i8] c"14inc_sat_solver\00", comdat, align 1
@_ZTI14inc_sat_solver = linkonce_odr hidden constant { ptr, ptr, ptr } { ptr getelementptr inbounds (ptr, ptr @_ZTVN10__cxxabiv120__si_class_type_infoE, i64 2), ptr @_ZTS14inc_sat_solver, ptr @_ZTI6solver }, comdat, align 8
@.str = private unnamed_addr constant [45 x i8] c"Cannot display weights that are not integers\00", align 1
@_ZTI17default_exception = external constant ptr
@_ZTV14inc_sat_solver = linkonce_odr hidden unnamed_addr constant { [57 x ptr], [14 x ptr] } { [57 x ptr] [ptr null, ptr @_ZTI14inc_sat_solver, ptr @_ZN14inc_sat_solverD2Ev, ptr @_ZN14inc_sat_solverD0Ev, ptr @_ZNK14inc_sat_solver18collect_statisticsER10statistics, ptr @_ZN14inc_sat_solver14get_unsat_coreER10ref_vectorI4expr11ast_managerE, ptr @_ZN14inc_sat_solver14get_model_coreER3refI5modelE, ptr @_ZN14inc_sat_solver14get_proof_coreEv, ptr @_ZNK14inc_sat_solver14reason_unknownB5cxx11Ev, ptr @_ZN14inc_sat_solver18set_reason_unknownEPKc, ptr @_ZN14inc_sat_solver10get_labelsER7svectorI6symboljE, ptr @_ZNK14inc_sat_solver11get_managerEv, ptr @_ZN14inc_sat_solver9translateER11ast_managerRK10params_ref, ptr @_ZN14inc_sat_solver11updt_paramsERK10params_ref, ptr @_ZN6solver12reset_paramsERK10params_ref, ptr @_ZNK6solver10get_paramsEv, ptr @_ZN14inc_sat_solver20collect_param_descrsER12param_descrs, ptr @_ZN6solver11push_paramsEv, ptr @_ZN6solver10pop_paramsEv, ptr @_ZN14inc_sat_solver18set_produce_modelsEb, ptr @_ZN14inc_sat_solver16assert_expr_coreEP4expr, ptr @_ZN14inc_sat_solver9set_phaseEP4expr, ptr @_ZN14inc_sat_solver13move_to_frontEP4expr, ptr @_ZN14inc_sat_solver9get_phaseEv, ptr @_ZN14inc_sat_solver9set_phaseEPN6solver5phaseE, ptr @_ZN14inc_sat_solver17assert_expr_core2EP4exprS1_, ptr @_ZN14inc_sat_solver4pushEv, ptr @_ZN14inc_sat_solver3popEj, ptr @_ZNK14inc_sat_solver15get_scope_levelEv, ptr @_ZN6solver12check_sat_ccERK10ref_vectorI4expr11ast_managerERK6vectorIS3_Lb1EjE, ptr @_ZN14inc_sat_solver21set_progress_callbackEP17progress_callback, ptr @_ZNK14inc_sat_solver18get_num_assertionsEv, ptr @_ZNK14inc_sat_solver13get_assertionEj, ptr @_ZNK14inc_sat_solver19get_num_assumptionsEv, ptr @_ZNK14inc_sat_solver14get_assumptionEj, ptr @_ZN6solver16get_consequencesERK10ref_vectorI4expr11ast_managerES5_RS3_, ptr @_ZN14inc_sat_solver12find_mutexesERK10ref_vectorI4expr11ast_managerER6vectorIS3_Lb1EjE, ptr @_ZN6solver13preferred_satERK10ref_vectorI4expr11ast_managerER6vectorIS3_Lb1EjE, ptr @_ZN14inc_sat_solver4cubeER10ref_vectorI4expr11ast_managerEj, ptr @_ZN14inc_sat_solver15congruence_rootEP4expr, ptr @_ZN14inc_sat_solver15congruence_nextEP4expr, ptr @_ZNK6solver7displayERSojPKP4expr, ptr @_ZNK14inc_sat_solver19get_model_converterEv, ptr @_ZN6solver14get_units_coreER10ref_vectorI4expr11ast_managerE, ptr @_ZN14inc_sat_solver9get_trailEj, ptr @_ZN14inc_sat_solver10get_levelsERK10ptr_vectorI4exprER7svectorIjjE, ptr @_ZN14inc_sat_solver14check_sat_coreEjPKP4expr, ptr @_ZN14inc_sat_solver21get_consequences_coreERK10ref_vectorI4expr11ast_managerES5_RS3_, ptr @_ZN14inc_sat_solver18register_on_clauseEPvRSt8functionIFvS0_P4exprjPKjjPKS3_EE, ptr @_ZN14inc_sat_solver19user_propagate_initEPvRSt8functionIFvS0_PN15user_propagator8callbackEEERS1_IFvS0_S4_jEERS1_IFS0_S0_R11ast_managerRPNS2_11context_objEEE, ptr @_ZN14inc_sat_solver29user_propagate_register_fixedERSt8functionIFvPvPN15user_propagator8callbackEP4exprS6_EE, ptr @_ZN14inc_sat_solver29user_propagate_register_finalERSt8functionIFvPvPN15user_propagator8callbackEEE, ptr @_ZN14inc_sat_solver26user_propagate_register_eqERSt8functionIFvPvPN15user_propagator8callbackEP4exprS6_EE, ptr @_ZN14inc_sat_solver29user_propagate_register_diseqERSt8functionIFvPvPN15user_propagator8callbackEP4exprS6_EE, ptr @_ZN14inc_sat_solver28user_propagate_register_exprEP4expr, ptr @_ZN14inc_sat_solver31user_propagate_register_createdERSt8functionIFvPvPN15user_propagator8callbackEP4exprEE, ptr @_ZN14inc_sat_solver30user_propagate_register_decideERSt8functionIFvPvPN15user_propagator8callbackEP4exprjbEE], [14 x ptr] [ptr inttoptr (i64 -72 to ptr), ptr @_ZTI14inc_sat_solver, ptr @_ZThn72_N14inc_sat_solverD1Ev, ptr @_ZThn72_N14inc_sat_solverD0Ev, ptr @_ZThn72_N14inc_sat_solver19user_propagate_initEPvRSt8functionIFvS0_PN15user_propagator8callbackEEERS1_IFvS0_S4_jEERS1_IFS0_S0_R11ast_managerRPNS2_11context_objEEE, ptr @_ZThn72_N14inc_sat_solver29user_propagate_register_fixedERSt8functionIFvPvPN15user_propagator8callbackEP4exprS6_EE, ptr @_ZThn72_N14inc_sat_solver29user_propagate_register_finalERSt8functionIFvPvPN15user_propagator8callbackEEE, ptr @_ZThn72_N14inc_sat_solver26user_propagate_register_eqERSt8functionIFvPvPN15user_propagator8callbackEP4exprS6_EE, ptr @_ZThn72_N14inc_sat_solver29user_propagate_register_diseqERSt8functionIFvPvPN15user_propagator8callbackEP4exprS6_EE, ptr @_ZThn72_N14inc_sat_solver28user_propagate_register_exprEP4expr, ptr @_ZThn72_N14inc_sat_solver31user_propagate_register_createdERSt8functionIFvPvPN15user_propagator8callbackEP4exprEE, ptr @_ZThn72_N14inc_sat_solver30user_propagate_register_decideERSt8functionIFvPvPN15user_propagator8callbackEP4exprjbEE, ptr @_ZN15user_propagator4core20user_propagate_clearEv, ptr @_ZThn72_N14inc_sat_solver18register_on_clauseEPvRSt8functionIFvS0_P4exprjPKjjPKS3_EE] }, comdat, align 8
@.str.2 = private unnamed_addr constant [16 x i8] c"no reason given\00", align 1
@_ZTV6solver = external unnamed_addr constant { [48 x ptr], [14 x ptr] }, align 8
@_ZTV16check_sat_result = linkonce_odr hidden unnamed_addr constant { [12 x ptr] } { [12 x ptr] [ptr null, ptr @_ZTI16check_sat_result, ptr @_ZN16check_sat_resultD2Ev, ptr @_ZN16check_sat_resultD0Ev, ptr @__cxa_pure_virtual, ptr @__cxa_pure_virtual, ptr @__cxa_pure_virtual, ptr @__cxa_pure_virtual, ptr @__cxa_pure_virtual, ptr @__cxa_pure_virtual, ptr @__cxa_pure_virtual, ptr @__cxa_pure_virtual] }, comdat, align 8
@_ZTVN10__cxxabiv117__class_type_infoE = external global [0 x ptr]
@_ZTS16check_sat_result = linkonce_odr hidden constant [19 x i8] c"16check_sat_result\00", comdat, align 1
@_ZTI16check_sat_result = linkonce_odr hidden constant { ptr, ptr } { ptr getelementptr inbounds (ptr, ptr @_ZTVN10__cxxabiv117__class_type_infoE, i64 2), ptr @_ZTS16check_sat_result }, comdat, align 8
@_ZTVN15user_propagator4coreE = linkonce_odr hidden unnamed_addr constant { [14 x ptr] } { [14 x ptr] [ptr null, ptr @_ZTIN15user_propagator4coreE, ptr @_ZN15user_propagator4coreD2Ev, ptr @_ZN15user_propagator4coreD0Ev, ptr @_ZN15user_propagator4core19user_propagate_initEPvRSt8functionIFvS1_PNS_8callbackEEERS2_IFvS1_S4_jEERS2_IFS1_S1_R11ast_managerRPNS_11context_objEEE, ptr @_ZN15user_propagator4core29user_propagate_register_fixedERSt8functionIFvPvPNS_8callbackEP4exprS6_EE, ptr @_ZN15user_propagator4core29user_propagate_register_finalERSt8functionIFvPvPNS_8callbackEEE, ptr @_ZN15user_propagator4core26user_propagate_register_eqERSt8functionIFvPvPNS_8callbackEP4exprS6_EE, ptr @_ZN15user_propagator4core29user_propagate_register_diseqERSt8functionIFvPvPNS_8callbackEP4exprS6_EE, ptr @_ZN15user_propagator4core28user_propagate_register_exprEP4expr, ptr @_ZN15user_propagator4core31user_propagate_register_createdERSt8functionIFvPvPNS_8callbackEP4exprEE, ptr @_ZN15user_propagator4core30user_propagate_register_decideERSt8functionIFvPvPNS_8callbackEP4exprjbEE, ptr @_ZN15user_propagator4core20user_propagate_clearEv, ptr @_ZN15user_propagator4core18register_on_clauseEPvRSt8functionIFvS1_P4exprjPKjjPKS4_EE] }, comdat, align 8
@_ZTSN15user_propagator4coreE = linkonce_odr hidden constant [25 x i8] c"N15user_propagator4coreE\00", comdat, align 1
@_ZTIN15user_propagator4coreE = linkonce_odr hidden constant { ptr, ptr } { ptr getelementptr inbounds (ptr, ptr @_ZTVN10__cxxabiv117__class_type_infoE, i64 2), ptr @_ZTSN15user_propagator4coreE }, comdat, align 8
@.str.3 = private unnamed_addr constant [54 x i8] c"user-propagators are only supported on the SMT solver\00", align 1
@.str.4 = private unnamed_addr constant [51 x i8] c"clause logging is only supported on the SMT solver\00", align 1
@.str.5 = private unnamed_addr constant [43 x i8] c"Overflow encountered when expanding vector\00", align 1
@.str.6 = private unnamed_addr constant [4 x i8] c"som\00", align 1
@.str.7 = private unnamed_addr constant [15 x i8] c"pull_cheap_ite\00", align 1
@.str.8 = private unnamed_addr constant [12 x i8] c"push_ite_bv\00", align 1
@.str.9 = private unnamed_addr constant [10 x i8] c"local_ctx\00", align 1
@.str.10 = private unnamed_addr constant [16 x i8] c"local_ctx_limit\00", align 1
@.str.11 = private unnamed_addr constant [5 x i8] c"flat\00", align 1
@.str.12 = private unnamed_addr constant [10 x i8] c"hoist_mul\00", align 1
@.str.13 = private unnamed_addr constant [9 x i8] c"elim_and\00", align 1
@.str.14 = private unnamed_addr constant [15 x i8] c"blast_distinct\00", align 1
@.str.15 = private unnamed_addr constant [4 x i8] c"sat\00", align 1
@.str.16 = private unnamed_addr constant [4 x i8] c"euf\00", align 1
@_ZTV27dependent_expr_state_tactic = linkonce_odr hidden unnamed_addr constant { [33 x ptr], [14 x ptr] } { [33 x ptr] [ptr null, ptr @_ZTI27dependent_expr_state_tactic, ptr @_ZN27dependent_expr_state_tacticD2Ev, ptr @_ZN27dependent_expr_state_tacticD0Ev, ptr @_ZN6tactic19user_propagate_initEPvRSt8functionIFvS0_PN15user_propagator8callbackEEERS1_IFvS0_S4_jEERS1_IFS0_S0_R11ast_managerRPNS2_11context_objEEE, ptr @_ZN15user_propagator4core29user_propagate_register_fixedERSt8functionIFvPvPNS_8callbackEP4exprS6_EE, ptr @_ZN15user_propagator4core29user_propagate_register_finalERSt8functionIFvPvPNS_8callbackEEE, ptr @_ZN15user_propagator4core26user_propagate_register_eqERSt8functionIFvPvPNS_8callbackEP4exprS6_EE, ptr @_ZN15user_propagator4core29user_propagate_register_diseqERSt8functionIFvPvPNS_8callbackEP4exprS6_EE, ptr @_ZN27dependent_expr_state_tactic28user_propagate_register_exprEP4expr, ptr @_ZN15user_propagator4core31user_propagate_register_createdERSt8functionIFvPvPNS_8callbackEP4exprEE, ptr @_ZN15user_propagator4core30user_propagate_register_decideERSt8functionIFvPvPNS_8callbackEP4exprjbEE, ptr @_ZN27dependent_expr_state_tactic20user_propagate_clearEv, ptr @_ZN6tactic18register_on_clauseEPvRSt8functionIFvS0_P4exprjPKjjPKS3_EE, ptr @_ZN27dependent_expr_state_tactic11updt_paramsERK10params_ref, ptr @_ZN27dependent_expr_state_tactic20collect_param_descrsER12param_descrs, ptr @_ZN27dependent_expr_state_tacticclERK3refI4goalER11sref_bufferIS1_Lj16EE, ptr @_ZNK27dependent_expr_state_tactic18collect_statisticsER10statistics, ptr @_ZN27dependent_expr_state_tactic16reset_statisticsEv, ptr @_ZN27dependent_expr_state_tactic7cleanupEv, ptr @_ZN6tactic5resetEv, ptr @_ZN6tactic9set_logicERK6symbol, ptr @_ZN6tactic21set_progress_callbackEP17progress_callback, ptr @_ZN27dependent_expr_state_tactic9translateER11ast_manager, ptr @_ZNK27dependent_expr_state_tactic4nameEv, ptr @_ZNK27dependent_expr_state_tactic5qtailEv, ptr @_ZN27dependent_expr_state_tacticixEj, ptr @_ZN27dependent_expr_state_tactic6updateEjRK14dependent_expr, ptr @_ZN27dependent_expr_state_tactic3addERK14dependent_expr, ptr @_ZN27dependent_expr_state_tactic12inconsistentEv, ptr @_ZN27dependent_expr_state_tactic11model_trailEv, ptr @_ZN27dependent_expr_state_tactic7updatedEv, ptr @_ZN27dependent_expr_state_tactic13reset_updatedEv], [14 x ptr] [ptr inttoptr (i64 -16 to ptr), ptr @_ZTI27dependent_expr_state_tactic, ptr @_ZThn16_N27dependent_expr_state_tacticD1Ev, ptr @_ZThn16_N27dependent_expr_state_tacticD0Ev, ptr @_ZThn16_NK27dependent_expr_state_tactic5qtailEv, ptr @_ZThn16_N27dependent_expr_state_tacticixEj, ptr @_ZThn16_N27dependent_expr_state_tactic6updateEjRK14dependent_expr, ptr @_ZThn16_N27dependent_expr_state_tactic3addERK14dependent_expr, ptr @_ZThn16_N27dependent_expr_state_tactic12inconsistentEv, ptr @_ZThn16_N27dependent_expr_state_tactic11model_trailEv, ptr @_ZN20dependent_expr_state14flatten_suffixEv, ptr @_ZThn16_N27dependent_expr_state_tactic7updatedEv, ptr @_ZThn16_N27dependent_expr_state_tactic13reset_updatedEv, ptr @_ZNK20dependent_expr_state7displayERSo] }, comdat, align 8
@_ZTVN10__cxxabiv121__vmi_class_type_infoE = external global [0 x ptr]
@_ZTS27dependent_expr_state_tactic = linkonce_odr hidden constant [30 x i8] c"27dependent_expr_state_tactic\00", comdat, align 1
@_ZTS6tactic = linkonce_odr hidden constant [8 x i8] c"6tactic\00", comdat, align 1
@_ZTI6tactic = linkonce_odr hidden constant { ptr, ptr, ptr } { ptr getelementptr inbounds (ptr, ptr @_ZTVN10__cxxabiv120__si_class_type_infoE, i64 2), ptr @_ZTS6tactic, ptr @_ZTIN15user_propagator4coreE }, comdat, align 8
@_ZTS20dependent_expr_state = linkonce_odr hidden constant [23 x i8] c"20dependent_expr_state\00", comdat, align 1
@_ZTI20dependent_expr_state = linkonce_odr hidden constant { ptr, ptr } { ptr getelementptr inbounds (ptr, ptr @_ZTVN10__cxxabiv117__class_type_infoE, i64 2), ptr @_ZTS20dependent_expr_state }, comdat, align 8
@_ZTI27dependent_expr_state_tactic = linkonce_odr hidden constant { ptr, ptr, i32, i32, ptr, i64, ptr, i64 } { ptr getelementptr inbounds (ptr, ptr @_ZTVN10__cxxabiv121__vmi_class_type_infoE, i64 2), ptr @_ZTS27dependent_expr_state_tactic, i32 0, i32 2, ptr @_ZTI6tactic, i64 2, ptr @_ZTI20dependent_expr_state, i64 4098 }, comdat, align 8
@_ZTV6tactic = linkonce_odr hidden unnamed_addr constant { [25 x ptr] } { [25 x ptr] [ptr null, ptr @_ZTI6tactic, ptr @_ZN6tacticD2Ev, ptr @_ZN6tacticD0Ev, ptr @_ZN6tactic19user_propagate_initEPvRSt8functionIFvS0_PN15user_propagator8callbackEEERS1_IFvS0_S4_jEERS1_IFS0_S0_R11ast_managerRPNS2_11context_objEEE, ptr @_ZN15user_propagator4core29user_propagate_register_fixedERSt8functionIFvPvPNS_8callbackEP4exprS6_EE, ptr @_ZN15user_propagator4core29user_propagate_register_finalERSt8functionIFvPvPNS_8callbackEEE, ptr @_ZN15user_propagator4core26user_propagate_register_eqERSt8functionIFvPvPNS_8callbackEP4exprS6_EE, ptr @_ZN15user_propagator4core29user_propagate_register_diseqERSt8functionIFvPvPNS_8callbackEP4exprS6_EE, ptr @_ZN6tactic28user_propagate_register_exprEP4expr, ptr @_ZN15user_propagator4core31user_propagate_register_createdERSt8functionIFvPvPNS_8callbackEP4exprEE, ptr @_ZN15user_propagator4core30user_propagate_register_decideERSt8functionIFvPvPNS_8callbackEP4exprjbEE, ptr @_ZN15user_propagator4core20user_propagate_clearEv, ptr @_ZN6tactic18register_on_clauseEPvRSt8functionIFvS0_P4exprjPKjjPKS3_EE, ptr @_ZN6tactic11updt_paramsERK10params_ref, ptr @_ZN6tactic20collect_param_descrsER12param_descrs, ptr @__cxa_pure_virtual, ptr @_ZNK6tactic18collect_statisticsER10statistics, ptr @_ZN6tactic16reset_statisticsEv, ptr @__cxa_pure_virtual, ptr @_ZN6tactic5resetEv, ptr @_ZN6tactic9set_logicERK6symbol, ptr @_ZN6tactic21set_progress_callbackEP17progress_callback, ptr @__cxa_pure_virtual, ptr @__cxa_pure_virtual] }, comdat, align 8
@_ZTV20dependent_expr_state = linkonce_odr hidden unnamed_addr constant { [14 x ptr] } { [14 x ptr] [ptr null, ptr @_ZTI20dependent_expr_state, ptr @_ZN20dependent_expr_stateD2Ev, ptr @_ZN20dependent_expr_stateD0Ev, ptr @__cxa_pure_virtual, ptr @__cxa_pure_virtual, ptr @__cxa_pure_virtual, ptr @__cxa_pure_virtual, ptr @__cxa_pure_virtual, ptr @__cxa_pure_virtual, ptr @_ZN20dependent_expr_state14flatten_suffixEv, ptr @__cxa_pure_virtual, ptr @__cxa_pure_virtual, ptr @_ZNK20dependent_expr_state7displayERSo] }, comdat, align 8
@_ZTV8ast_mark = external unnamed_addr constant { [6 x ptr] }, align 8
@.str.17 = private unnamed_addr constant [41 x i8] c"tactic does not support user propagation\00", align 1
@_ZTV11value_trailIjE = linkonce_odr hidden unnamed_addr constant { [5 x ptr] } { [5 x ptr] [ptr null, ptr @_ZTI11value_trailIjE, ptr @_ZN11value_trailIjED2Ev, ptr @_ZN11value_trailIjED0Ev, ptr @_ZN11value_trailIjE4undoEv] }, comdat, align 8
@_ZTS11value_trailIjE = linkonce_odr hidden constant [17 x i8] c"11value_trailIjE\00", comdat, align 1
@_ZTS5trail = linkonce_odr hidden constant [7 x i8] c"5trail\00", comdat, align 1
@_ZTI5trail = linkonce_odr hidden constant { ptr, ptr } { ptr getelementptr inbounds (ptr, ptr @_ZTVN10__cxxabiv117__class_type_infoE, i64 2), ptr @_ZTS5trail }, comdat, align 8
@_ZTI11value_trailIjE = linkonce_odr hidden constant { ptr, ptr, ptr } { ptr getelementptr inbounds (ptr, ptr @_ZTVN10__cxxabiv120__si_class_type_infoE, i64 2), ptr @_ZTS11value_trailIjE, ptr @_ZTI5trail }, comdat, align 8
@_ZTV5trail = linkonce_odr hidden unnamed_addr constant { [5 x ptr] } { [5 x ptr] [ptr null, ptr @_ZTI5trail, ptr @_ZN5trailD2Ev, ptr @_ZN5trailD0Ev, ptr @__cxa_pure_virtual] }, comdat, align 8
@_ZTVN20dependent_expr_state4thawE = linkonce_odr hidden unnamed_addr constant { [5 x ptr] } { [5 x ptr] [ptr null, ptr @_ZTIN20dependent_expr_state4thawE, ptr @_ZN20dependent_expr_state4thawD2Ev, ptr @_ZN20dependent_expr_state4thawD0Ev, ptr @_ZN20dependent_expr_state4thaw4undoEv] }, comdat, align 8
@_ZTSN20dependent_expr_state4thawE = linkonce_odr hidden constant [30 x i8] c"N20dependent_expr_state4thawE\00", comdat, align 1
@_ZTIN20dependent_expr_state4thawE = linkonce_odr hidden constant { ptr, ptr, ptr } { ptr getelementptr inbounds (ptr, ptr @_ZTVN10__cxxabiv120__si_class_type_infoE, i64 2), ptr @_ZTSN20dependent_expr_state4thawE, ptr @_ZTI5trail }, comdat, align 8
@.str.18 = private unnamed_addr constant [39 x i8] c"tactic does not support clause logging\00", align 1
@_ZTS18rewriter_exception = linkonce_odr hidden constant [21 x i8] c"18rewriter_exception\00", comdat, align 1
@_ZTI18rewriter_exception = linkonce_odr hidden constant { ptr, ptr, ptr } { ptr getelementptr inbounds (ptr, ptr @_ZTVN10__cxxabiv120__si_class_type_infoE, i64 2), ptr @_ZTS18rewriter_exception, ptr @_ZTI17default_exception }, comdat, align 8
@_ZTS16tactic_exception = linkonce_odr hidden constant [19 x i8] c"16tactic_exception\00", comdat, align 1
@_ZTI12z3_exception = external constant ptr
@_ZTI16tactic_exception = linkonce_odr hidden constant { ptr, ptr, ptr } { ptr getelementptr inbounds (ptr, ptr @_ZTVN10__cxxabiv120__si_class_type_infoE, i64 2), ptr @_ZTS16tactic_exception, ptr @_ZTI12z3_exception }, comdat, align 8
@_ZTV16tactic_exception = linkonce_odr hidden unnamed_addr constant { [6 x ptr] } { [6 x ptr] [ptr null, ptr @_ZTI16tactic_exception, ptr @_ZN16tactic_exceptionD2Ev, ptr @_ZN16tactic_exceptionD0Ev, ptr @_ZNK16tactic_exception3msgEv, ptr @_ZNK12z3_exception10error_codeEv] }, comdat, align 8
@_ZTV12z3_exception = external unnamed_addr constant { [6 x ptr] }, align 8
@.str.19 = private unnamed_addr constant [5 x i8] c"null\00", align 1
@.str.20 = private unnamed_addr constant [101 x i8] c"generated/home/dtcxzyw/WorkSpace/Projects/compilers/llvm-opt-benchmark/bench/z3/z3/src/util/parray.h\00", align 1
@.str.21 = private unnamed_addr constant [29 x i8] c"UNEXPECTED CODE WAS REACHED.\00", align 1
@.str.22 = private unnamed_addr constant [21 x i8] c"override_incremental\00", align 1
@_ZN8rational13g_mpq_managerE = external global ptr, align 8
@.str.23 = private unnamed_addr constant [15 x i8] c"model_validate\00", align 1
@.str.24 = private unnamed_addr constant [20 x i8] c"Verifying solution\0A\00", align 1
@.str.25 = private unnamed_addr constant [19 x i8] c"failed to verify: \00", align 1
@.str.26 = private unnamed_addr constant [2 x i8] c"\0A\00", align 1
@.str.27 = private unnamed_addr constant [14 x i8] c"evaluated to \00", align 1
@.str.28 = private unnamed_addr constant [5 x i8] c"mc0\0A\00", align 1
@.str.29 = private unnamed_addr constant [6 x i8] c" |-> \00", align 1
@.str.30 = private unnamed_addr constant [19 x i8] c"solution verified\0A\00", align 1
@_ZN3app16g_constant_flagsE = external global %struct.app_flags, align 4
@_ZTI15model_converter = external constant ptr
@_ZTIN8sat2goal2mcE = external constant ptr
@_ZTSN3sat9extensionE = linkonce_odr hidden constant [17 x i8] c"N3sat9extensionE\00", comdat, align 1
@_ZTIN3sat9extensionE = linkonce_odr hidden constant { ptr, ptr } { ptr getelementptr inbounds (ptr, ptr @_ZTVN10__cxxabiv117__class_type_infoE, i64 2), ptr @_ZTSN3sat9extensionE }, comdat, align 8
@_ZTIN3euf6solverE = external constant ptr
@.str.31 = private unnamed_addr constant [29 x i8] c"keep_cardinality_constraints\00", align 1
@.str.32 = private unnamed_addr constant [10 x i8] c"pb.solver\00", align 1
@.str.33 = private unnamed_addr constant [19 x i8] c"cardinality.solver\00", align 1
@.str.34 = private unnamed_addr constant [7 x i8] c"solver\00", align 1
@_ZTVN14inc_sat_solver9sat_phaseE = linkonce_odr hidden unnamed_addr constant { [4 x ptr] } { [4 x ptr] [ptr null, ptr @_ZTIN14inc_sat_solver9sat_phaseE, ptr @_ZN14inc_sat_solver9sat_phaseD2Ev, ptr @_ZN14inc_sat_solver9sat_phaseD0Ev] }, comdat, align 8
@_ZTSN14inc_sat_solver9sat_phaseE = linkonce_odr hidden constant [29 x i8] c"N14inc_sat_solver9sat_phaseE\00", comdat, align 1
@_ZTSN6solver5phaseE = linkonce_odr hidden constant [16 x i8] c"N6solver5phaseE\00", comdat, align 1
@_ZTIN6solver5phaseE = linkonce_odr hidden constant { ptr, ptr } { ptr getelementptr inbounds (ptr, ptr @_ZTVN10__cxxabiv117__class_type_infoE, i64 2), ptr @_ZTSN6solver5phaseE }, comdat, align 8
@_ZTS7svectorIN3sat7literalEjE = linkonce_odr hidden constant [26 x i8] c"7svectorIN3sat7literalEjE\00", comdat, align 1
@_ZTS6vectorIN3sat7literalELb0EjE = linkonce_odr hidden constant [29 x i8] c"6vectorIN3sat7literalELb0EjE\00", comdat, align 1
@_ZTI6vectorIN3sat7literalELb0EjE = linkonce_odr hidden constant { ptr, ptr } { ptr getelementptr inbounds (ptr, ptr @_ZTVN10__cxxabiv117__class_type_infoE, i64 2), ptr @_ZTS6vectorIN3sat7literalELb0EjE }, comdat, align 8
@_ZTI7svectorIN3sat7literalEjE = linkonce_odr hidden constant { ptr, ptr, ptr } { ptr getelementptr inbounds (ptr, ptr @_ZTVN10__cxxabiv120__si_class_type_infoE, i64 2), ptr @_ZTS7svectorIN3sat7literalEjE, ptr @_ZTI6vectorIN3sat7literalELb0EjE }, comdat, align 8
@_ZTIN14inc_sat_solver9sat_phaseE = linkonce_odr hidden constant { ptr, ptr, i32, i32, ptr, i64, ptr, i64 } { ptr getelementptr inbounds (ptr, ptr @_ZTVN10__cxxabiv121__vmi_class_type_infoE, i64 2), ptr @_ZTSN14inc_sat_solver9sat_phaseE, i32 0, i32 2, ptr @_ZTIN6solver5phaseE, i64 2, ptr @_ZTI7svectorIN3sat7literalEjE, i64 2050 }, comdat, align 8
@_ZTVN6solver5phaseE = linkonce_odr hidden unnamed_addr constant { [4 x ptr] } { [4 x ptr] [ptr null, ptr @_ZTIN6solver5phaseE, ptr @_ZN6solver5phaseD2Ev, ptr @_ZN6solver5phaseD0Ev] }, comdat, align 8
@.str.35 = private unnamed_addr constant [54 x i8] c"(sat.giveup interpreted functions sent to SAT solver \00", align 1
@.str.36 = private unnamed_addr constant [2 x i8] c")\00", align 1
@.str.37 = private unnamed_addr constant [58 x i8] c"generation of proof objects is not supported in this mode\00", align 1
@.str.38 = private unnamed_addr constant [21 x i8] c"exception in tactic \00", align 1
@.str.39 = private unnamed_addr constant [35 x i8] c"size of subgoals is not 1, it is: \00", align 1
@.str.40 = private unnamed_addr constant [103 x i8] c"generated/home/dtcxzyw/WorkSpace/Projects/compilers/llvm-opt-benchmark/bench/z3/z3/src/solver/solver.h\00", align 1
@.str.41 = private unnamed_addr constant [21 x i8] c"NOT IMPLEMENTED YET!\00", align 1
@.str.42 = private unnamed_addr constant [104 x i8] c"generated/home/dtcxzyw/WorkSpace/Projects/compilers/llvm-opt-benchmark/bench/z3/z3/src/util/hashtable.h\00", align 1
@.str.43 = private unnamed_addr constant [22 x i8] c"internalize produced \00", align 1
@.str.44 = private unnamed_addr constant [2 x i8] c"s\00", align 1
@.str.45 = private unnamed_addr constant [12 x i8] c"exception: \00", align 1
@.str.46 = private unnamed_addr constant [13 x i8] c"(sat.giveup \00", align 1
@.str.47 = private unnamed_addr constant [31 x i8] c"(sat.giveup has-uninterpreted)\00", align 1
@_ZN6symbol4nullE = external global %class.symbol, align 8
@.str.48 = private unnamed_addr constant [28 x i8] c" does not evaluate to true\0A\00", align 1
@.str.49 = private unnamed_addr constant [10 x i8] c"bad state\00", align 1
@.str.50 = private unnamed_addr constant [2 x i8] c" \00", align 1
@.str.51 = private unnamed_addr constant [2 x i8] c"-\00", align 1
@.str.52 = private unnamed_addr constant [1 x i8] zeroinitializer, align 1
@.str.53 = private unnamed_addr constant [121 x i8] c"generated/home/dtcxzyw/WorkSpace/Projects/compilers/llvm-opt-benchmark/bench/z3/z3/src/sat/sat_solver/inc_sat_solver.cpp\00", align 1
@.str.54 = private unnamed_addr constant [46 x i8] c"Failed to verify: asm2dep.find(c.index(), e)\0A\00", align 1
@.str.55 = private unnamed_addr constant [59 x i8] c"Failed to verify: asm2dep.find(premises.pop().index(), e)\0A\00", align 1
@_ZN8rational5m_oneE = external global %class.rational, align 8
@.str.56 = private unnamed_addr constant [36 x i8] c"user propagator must be initialized\00", align 1
@_ZTV17default_exception = external unnamed_addr constant { [6 x ptr] }, align 8
@.str.57 = private unnamed_addr constant [52 x i8] c"Failed to verify: l_true == internalize_formulas()\0A\00", align 1
@.str.58 = private unnamed_addr constant [70 x i8] c"Failed to verify: l_true == internalize_assumptions(sz, asms.data())\0A\00", align 1
@.str.59 = private unnamed_addr constant [9 x i8] c"parallel\00", align 1
@.str.60 = private unnamed_addr constant [7 x i8] c"enable\00", align 1
@.str.61 = private unnamed_addr constant [50 x i8] c"basic_string: construction from null is not valid\00", align 1
@llvm.global_ctors = appending global [1 x { i32, ptr, ptr }] [{ i32, ptr, ptr } { i32 65535, ptr @_GLOBAL__sub_I_inc_sat_solver.cpp, ptr null }]

; Function Attrs: uwtable
define internal void @__cxx_global_var_init() #0 section ".text.startup" {
entry:
  call void @_ZNSt8ios_base4InitC1Ev(ptr noundef nonnull align 1 dereferenceable(1) @_ZStL8__ioinit)
  %0 = call i32 @__cxa_atexit(ptr @_ZNSt8ios_base4InitD1Ev, ptr @_ZStL8__ioinit, ptr @__dso_handle) #3
  ret void
}

declare void @_ZNSt8ios_base4InitC1Ev(ptr noundef nonnull align 1 dereferenceable(1)) unnamed_addr #1

; Function Attrs: nounwind
declare void @_ZNSt8ios_base4InitD1Ev(ptr noundef nonnull align 1 dereferenceable(1)) unnamed_addr #2

; Function Attrs: nounwind
declare i32 @__cxa_atexit(ptr, ptr, ptr) #3

; Function Attrs: uwtable
define internal void @__cxx_global_var_init.1() #0 section ".text.startup" {
entry:
  call void @_ZN3sat7literalC2Ev(ptr noundef nonnull align 4 dereferenceable(4) @_ZN3satL12null_literalE)
  ret void
}

; Function Attrs: mustprogress nounwind uwtable
define linkonce_odr hidden void @_ZN3sat7literalC2Ev(ptr noundef nonnull align 4 dereferenceable(4) %this) unnamed_addr #4 comdat align 2 {
entry:
  %this.addr = alloca ptr, align 8
  store ptr %this, ptr %this.addr, align 8
  %this1 = load ptr, ptr %this.addr, align 8
  %m_val = getelementptr inbounds %"class.sat::literal", ptr %this1, i32 0, i32 0
  store i32 -2, ptr %m_val, align 4
  ret void
}

; Function Attrs: mustprogress uwtable
define hidden noundef ptr @_Z17mk_inc_sat_solverR11ast_managerRK10params_refb(ptr noundef nonnull align 8 dereferenceable(976) %m, ptr noundef nonnull align 8 dereferenceable(8) %p, i1 noundef zeroext %incremental_mode) #5 {
entry:
  %m.addr = alloca ptr, align 8
  %p.addr = alloca ptr, align 8
  %incremental_mode.addr = alloca i8, align 1
  store ptr %m, ptr %m.addr, align 8
  store ptr %p, ptr %p.addr, align 8
  %frombool = zext i1 %incremental_mode to i8
  store i8 %frombool, ptr %incremental_mode.addr, align 1
  %call = call noalias noundef ptr @_ZN6memory8allocateEm(i64 noundef 5008)
  %0 = load ptr, ptr %m.addr, align 8
  %1 = load ptr, ptr %p.addr, align 8
  %2 = load i8, ptr %incremental_mode.addr, align 1
  %tobool = trunc i8 %2 to i1
  call void @_ZN14inc_sat_solverC2ER11ast_managerRK10params_refb(ptr noundef nonnull align 8 dereferenceable(5008) %call, ptr noundef nonnull align 8 dereferenceable(976) %0, ptr noundef nonnull align 8 dereferenceable(8) %1, i1 noundef zeroext %tobool)
  ret ptr %call
}

declare noalias noundef ptr @_ZN6memory8allocateEm(i64 noundef) #1

; Function Attrs: mustprogress uwtable
define linkonce_odr hidden void @_ZN14inc_sat_solverC2ER11ast_managerRK10params_refb(ptr noundef nonnull align 8 dereferenceable(5008) %this, ptr noundef nonnull align 8 dereferenceable(976) %m, ptr noundef nonnull align 8 dereferenceable(8) %p, i1 noundef zeroext %incremental_mode) unnamed_addr #5 comdat align 2 personality ptr @__gxx_personality_v0 {
entry:
  %this.addr = alloca ptr, align 8
  %m.addr = alloca ptr, align 8
  %p.addr = alloca ptr, align 8
  %incremental_mode.addr = alloca i8, align 1
  %exn.slot = alloca ptr, align 8
  %ehselector.slot = alloca i32, align 4
  %ref.tmp = alloca i8, align 1
  %ref.tmp45 = alloca %"class.std::allocator", align 1
  store ptr %this, ptr %this.addr, align 8
  store ptr %m, ptr %m.addr, align 8
  store ptr %p, ptr %p.addr, align 8
  %frombool = zext i1 %incremental_mode to i8
  store i8 %frombool, ptr %incremental_mode.addr, align 1
  %this1 = load ptr, ptr %this.addr, align 8
  %0 = load ptr, ptr %m.addr, align 8
  call void @_ZN6solverC2ER11ast_manager(ptr noundef nonnull align 8 dereferenceable(96) %this1, ptr noundef nonnull align 8 dereferenceable(976) %0)
  store ptr getelementptr inbounds ({ [57 x ptr], [14 x ptr] }, ptr @_ZTV14inc_sat_solver, i32 0, inrange i32 0, i32 2), ptr %this1, align 8
  %add.ptr = getelementptr inbounds i8, ptr %this1, i64 72
  store ptr getelementptr inbounds ({ [57 x ptr], [14 x ptr] }, ptr @_ZTV14inc_sat_solver, i32 0, inrange i32 1, i32 2), ptr %add.ptr, align 8
  %m_solver = getelementptr inbounds %class.inc_sat_solver, ptr %this1, i32 0, i32 1
  %1 = load ptr, ptr %p.addr, align 8
  %2 = load ptr, ptr %m.addr, align 8
  %call = invoke noundef nonnull align 8 dereferenceable(40) ptr @_ZN11ast_manager5limitEv(ptr noundef nonnull align 8 dereferenceable(976) %2)
          to label %invoke.cont unwind label %lpad

invoke.cont:                                      ; preds = %entry
  invoke void @_ZN3sat6solverC1ERK10params_refR8reslimit(ptr noundef nonnull align 8 dereferenceable(4408) %m_solver, ptr noundef nonnull align 8 dereferenceable(8) %1, ptr noundef nonnull align 8 dereferenceable(40) %call)
          to label %invoke.cont2 unwind label %lpad

invoke.cont2:                                     ; preds = %invoke.cont
  %m_has_uninterpreted = getelementptr inbounds %class.inc_sat_solver, ptr %this1, i32 0, i32 2
  store i8 0, ptr %ref.tmp, align 1
  invoke void @_ZN13stacked_valueIbEC2EOKb(ptr noundef nonnull align 8 dereferenceable(16) %m_has_uninterpreted, ptr noundef nonnull align 1 dereferenceable(1) %ref.tmp)
          to label %invoke.cont4 unwind label %lpad3

invoke.cont4:                                     ; preds = %invoke.cont2
  %m_goal2sat = getelementptr inbounds %class.inc_sat_solver, ptr %this1, i32 0, i32 3
  invoke void @_ZN8goal2satC1Ev(ptr noundef nonnull align 8 dereferenceable(12) %m_goal2sat)
          to label %invoke.cont6 unwind label %lpad5

invoke.cont6:                                     ; preds = %invoke.cont4
  %m_params = getelementptr inbounds %class.inc_sat_solver, ptr %this1, i32 0, i32 4
  invoke void @_ZN10params_refC2Ev(ptr noundef nonnull align 8 dereferenceable(8) %m_params)
          to label %invoke.cont8 unwind label %lpad7

invoke.cont8:                                     ; preds = %invoke.cont6
  %m_fmls = getelementptr inbounds %class.inc_sat_solver, ptr %this1, i32 0, i32 5
  %3 = load ptr, ptr %m.addr, align 8
  invoke void @_ZN10ref_vectorI4expr11ast_managerEC2ERS1_(ptr noundef nonnull align 8 dereferenceable(16) %m_fmls, ptr noundef nonnull align 8 dereferenceable(976) %3)
          to label %invoke.cont10 unwind label %lpad9

invoke.cont10:                                    ; preds = %invoke.cont8
  %m_asmsf = getelementptr inbounds %class.inc_sat_solver, ptr %this1, i32 0, i32 6
  %4 = load ptr, ptr %m.addr, align 8
  invoke void @_ZN10ref_vectorI4expr11ast_managerEC2ERS1_(ptr noundef nonnull align 8 dereferenceable(16) %m_asmsf, ptr noundef nonnull align 8 dereferenceable(976) %4)
          to label %invoke.cont12 unwind label %lpad11

invoke.cont12:                                    ; preds = %invoke.cont10
  %m_fmls_lim = getelementptr inbounds %class.inc_sat_solver, ptr %this1, i32 0, i32 7
  invoke void @_ZN7svectorIjjEC2Ev(ptr noundef nonnull align 8 dereferenceable(8) %m_fmls_lim)
          to label %invoke.cont14 unwind label %lpad13

invoke.cont14:                                    ; preds = %invoke.cont12
  %m_asms_lim = getelementptr inbounds %class.inc_sat_solver, ptr %this1, i32 0, i32 8
  invoke void @_ZN7svectorIjjEC2Ev(ptr noundef nonnull align 8 dereferenceable(8) %m_asms_lim)
          to label %invoke.cont16 unwind label %lpad15

invoke.cont16:                                    ; preds = %invoke.cont14
  %m_fmls_head_lim = getelementptr inbounds %class.inc_sat_solver, ptr %this1, i32 0, i32 9
  invoke void @_ZN7svectorIjjEC2Ev(ptr noundef nonnull align 8 dereferenceable(8) %m_fmls_head_lim)
          to label %invoke.cont18 unwind label %lpad17

invoke.cont18:                                    ; preds = %invoke.cont16
  %m_fmls_head = getelementptr inbounds %class.inc_sat_solver, ptr %this1, i32 0, i32 10
  store i32 0, ptr %m_fmls_head, align 8
  %m_core = getelementptr inbounds %class.inc_sat_solver, ptr %this1, i32 0, i32 11
  %5 = load ptr, ptr %m.addr, align 8
  invoke void @_ZN10ref_vectorI4expr11ast_managerEC2ERS1_(ptr noundef nonnull align 8 dereferenceable(16) %m_core, ptr noundef nonnull align 8 dereferenceable(976) %5)
          to label %invoke.cont20 unwind label %lpad19

invoke.cont20:                                    ; preds = %invoke.cont18
  %m_map = getelementptr inbounds %class.inc_sat_solver, ptr %this1, i32 0, i32 12
  %6 = load ptr, ptr %m.addr, align 8
  invoke void @_ZN13atom2bool_varC2ER11ast_manager(ptr noundef nonnull align 8 dereferenceable(41) %m_map, ptr noundef nonnull align 8 dereferenceable(976) %6)
          to label %invoke.cont22 unwind label %lpad21

invoke.cont22:                                    ; preds = %invoke.cont20
  %m_bb_rewriter = getelementptr inbounds %class.inc_sat_solver, ptr %this1, i32 0, i32 13
  invoke void @_ZN10scoped_ptrI20bit_blaster_rewriterEC2EPS0_(ptr noundef nonnull align 8 dereferenceable(8) %m_bb_rewriter, ptr noundef null)
          to label %invoke.cont24 unwind label %lpad23

invoke.cont24:                                    ; preds = %invoke.cont22
  %m_preprocess = getelementptr inbounds %class.inc_sat_solver, ptr %this1, i32 0, i32 14
  invoke void @_ZN3refI6tacticEC2Ev(ptr noundef nonnull align 8 dereferenceable(8) %m_preprocess)
          to label %invoke.cont26 unwind label %lpad25

invoke.cont26:                                    ; preds = %invoke.cont24
  %m_is_cnf = getelementptr inbounds %class.inc_sat_solver, ptr %this1, i32 0, i32 15
  store i8 1, ptr %m_is_cnf, align 8
  %m_num_scopes = getelementptr inbounds %class.inc_sat_solver, ptr %this1, i32 0, i32 16
  store i32 0, ptr %m_num_scopes, align 4
  %m_asms = getelementptr inbounds %class.inc_sat_solver, ptr %this1, i32 0, i32 17
  invoke void @_ZN7svectorIN3sat7literalEjEC2Ev(ptr noundef nonnull align 8 dereferenceable(8) %m_asms)
          to label %invoke.cont28 unwind label %lpad27

invoke.cont28:                                    ; preds = %invoke.cont26
  %m_subgoals = getelementptr inbounds %class.inc_sat_solver, ptr %this1, i32 0, i32 18
  invoke void @_ZN11sref_bufferI4goalLj16EEC2Ev(ptr noundef nonnull align 8 dereferenceable(144) %m_subgoals)
          to label %invoke.cont30 unwind label %lpad29

invoke.cont30:                                    ; preds = %invoke.cont28
  %m_pc = getelementptr inbounds %class.inc_sat_solver, ptr %this1, i32 0, i32 19
  invoke void @_ZN3refI15proof_converterEC2Ev(ptr noundef nonnull align 8 dereferenceable(8) %m_pc)
          to label %invoke.cont32 unwind label %lpad31

invoke.cont32:                                    ; preds = %invoke.cont30
  %m_mcs = getelementptr inbounds %class.inc_sat_solver, ptr %this1, i32 0, i32 20
  invoke void @_ZN15ref_vector_coreI15model_converter21ref_unmanaged_wrapperIS0_EEC2Ev(ptr noundef nonnull align 8 dereferenceable(8) %m_mcs)
          to label %invoke.cont34 unwind label %lpad33

invoke.cont34:                                    ; preds = %invoke.cont32
  %m_mc0 = getelementptr inbounds %class.inc_sat_solver, ptr %this1, i32 0, i32 21
  invoke void @_ZN3refI15model_converterEC2Ev(ptr noundef nonnull align 8 dereferenceable(8) %m_mc0)
          to label %invoke.cont36 unwind label %lpad35

invoke.cont36:                                    ; preds = %invoke.cont34
  %m_inserted_const2bits = getelementptr inbounds %class.inc_sat_solver, ptr %this1, i32 0, i32 22
  invoke void @_ZN13obj_hashtableI9func_declEC2Ej(ptr noundef nonnull align 8 dereferenceable(20) %m_inserted_const2bits, i32 noundef 8)
          to label %invoke.cont38 unwind label %lpad37

invoke.cont38:                                    ; preds = %invoke.cont36
  %m_sat_mc = getelementptr inbounds %class.inc_sat_solver, ptr %this1, i32 0, i32 23
  invoke void @_ZN3refIN8sat2goal2mcEEC2Ev(ptr noundef nonnull align 8 dereferenceable(8) %m_sat_mc)
          to label %invoke.cont40 unwind label %lpad39

invoke.cont40:                                    ; preds = %invoke.cont38
  %m_cached_mc = getelementptr inbounds %class.inc_sat_solver, ptr %this1, i32 0, i32 24
  invoke void @_ZN3refI15model_converterEC2Ev(ptr noundef nonnull align 8 dereferenceable(8) %m_cached_mc)
          to label %invoke.cont42 unwind label %lpad41

invoke.cont42:                                    ; preds = %invoke.cont40
  %m_weights = getelementptr inbounds %class.inc_sat_solver, ptr %this1, i32 0, i32 25
  invoke void @_ZN7svectorIdjEC2Ev(ptr noundef nonnull align 8 dereferenceable(8) %m_weights)
          to label %invoke.cont44 unwind label %lpad43

invoke.cont44:                                    ; preds = %invoke.cont42
  %m_unknown = getelementptr inbounds %class.inc_sat_solver, ptr %this1, i32 0, i32 26
  call void @_ZNSaIcEC1Ev(ptr noundef nonnull align 1 dereferenceable(1) %ref.tmp45) #3
  invoke void @_ZNSt7__cxx1112basic_stringIcSt11char_traitsIcESaIcEEC2IS3_EEPKcRKS3_(ptr noundef nonnull align 8 dereferenceable(32) %m_unknown, ptr noundef @.str.2, ptr noundef nonnull align 1 dereferenceable(1) %ref.tmp45)
          to label %invoke.cont47 unwind label %lpad46

invoke.cont47:                                    ; preds = %invoke.cont44
  call void @_ZNSaIcED1Ev(ptr noundef nonnull align 1 dereferenceable(1) %ref.tmp45) #3
  %m_internalized_converted = getelementptr inbounds %class.inc_sat_solver, ptr %this1, i32 0, i32 27
  store i8 0, ptr %m_internalized_converted, align 8
  %m_internalized_fmls = getelementptr inbounds %class.inc_sat_solver, ptr %this1, i32 0, i32 28
  %7 = load ptr, ptr %m.addr, align 8
  invoke void @_ZN10ref_vectorI4expr11ast_managerEC2ERS1_(ptr noundef nonnull align 8 dereferenceable(16) %m_internalized_fmls, ptr noundef nonnull align 8 dereferenceable(976) %7)
          to label %invoke.cont49 unwind label %lpad48

invoke.cont49:                                    ; preds = %invoke.cont47
  %m_dep2asm = getelementptr inbounds %class.inc_sat_solver, ptr %this1, i32 0, i32 29
  invoke void @_ZN7obj_mapI4exprN3sat7literalEEC2Ev(ptr noundef nonnull align 8 dereferenceable(24) %m_dep2asm)
          to label %invoke.cont51 unwind label %lpad50

invoke.cont51:                                    ; preds = %invoke.cont49
  %m_exps = getelementptr inbounds %class.inc_sat_solver, ptr %this1, i32 0, i32 30
  call void @_ZN6vectorI8rationalLb1EjEC2Ev(ptr noundef nonnull align 8 dereferenceable(8) %m_exps) #3
  %8 = load ptr, ptr %p.addr, align 8
  %vtable = load ptr, ptr %this1, align 8
  %vfn = getelementptr inbounds ptr, ptr %vtable, i64 11
  %9 = load ptr, ptr %vfn, align 8
  invoke void %9(ptr noundef nonnull align 8 dereferenceable(5008) %this1, ptr noundef nonnull align 8 dereferenceable(8) %8)
          to label %invoke.cont53 unwind label %lpad52

invoke.cont53:                                    ; preds = %invoke.cont51
  %m_mcs54 = getelementptr inbounds %class.inc_sat_solver, ptr %this1, i32 0, i32 20
  %call56 = invoke noundef nonnull align 8 dereferenceable(8) ptr @_ZN15ref_vector_coreI15model_converter21ref_unmanaged_wrapperIS0_EE9push_backEPS0_(ptr noundef nonnull align 8 dereferenceable(8) %m_mcs54, ptr noundef null)
          to label %invoke.cont55 unwind label %lpad52

invoke.cont55:                                    ; preds = %invoke.cont53
  invoke void @_ZN14inc_sat_solver15init_preprocessEv(ptr noundef nonnull align 8 dereferenceable(5008) %this1)
          to label %invoke.cont57 unwind label %lpad52

invoke.cont57:                                    ; preds = %invoke.cont55
  %m_solver58 = getelementptr inbounds %class.inc_sat_solver, ptr %this1, i32 0, i32 1
  %10 = load i8, ptr %incremental_mode.addr, align 1
  %tobool = trunc i8 %10 to i1
  br i1 %tobool, label %land.rhs, label %land.end

land.rhs:                                         ; preds = %invoke.cont57
  %call60 = invoke noundef zeroext i1 @_ZNK14inc_sat_solver20override_incrementalEv(ptr noundef nonnull align 8 dereferenceable(5008) %this1)
          to label %invoke.cont59 unwind label %lpad52

invoke.cont59:                                    ; preds = %land.rhs
  %lnot = xor i1 %call60, true
  br label %land.end

land.end:                                         ; preds = %invoke.cont59, %invoke.cont57
  %11 = phi i1 [ false, %invoke.cont57 ], [ %lnot, %invoke.cont59 ]
  invoke void @_ZN3sat6solver15set_incrementalEb(ptr noundef nonnull align 8 dereferenceable(4408) %m_solver58, i1 noundef zeroext %11)
          to label %invoke.cont61 unwind label %lpad52

invoke.cont61:                                    ; preds = %land.end
  ret void

lpad:                                             ; preds = %invoke.cont, %entry
  %12 = landingpad { ptr, i32 }
          cleanup
  %13 = extractvalue { ptr, i32 } %12, 0
  store ptr %13, ptr %exn.slot, align 8
  %14 = extractvalue { ptr, i32 } %12, 1
  store i32 %14, ptr %ehselector.slot, align 4
  br label %ehcleanup85

lpad3:                                            ; preds = %invoke.cont2
  %15 = landingpad { ptr, i32 }
          cleanup
  %16 = extractvalue { ptr, i32 } %15, 0
  store ptr %16, ptr %exn.slot, align 8
  %17 = extractvalue { ptr, i32 } %15, 1
  store i32 %17, ptr %ehselector.slot, align 4
  br label %ehcleanup84

lpad5:                                            ; preds = %invoke.cont4
  %18 = landingpad { ptr, i32 }
          cleanup
  %19 = extractvalue { ptr, i32 } %18, 0
  store ptr %19, ptr %exn.slot, align 8
  %20 = extractvalue { ptr, i32 } %18, 1
  store i32 %20, ptr %ehselector.slot, align 4
  br label %ehcleanup83

lpad7:                                            ; preds = %invoke.cont6
  %21 = landingpad { ptr, i32 }
          cleanup
  %22 = extractvalue { ptr, i32 } %21, 0
  store ptr %22, ptr %exn.slot, align 8
  %23 = extractvalue { ptr, i32 } %21, 1
  store i32 %23, ptr %ehselector.slot, align 4
  br label %ehcleanup82

lpad9:                                            ; preds = %invoke.cont8
  %24 = landingpad { ptr, i32 }
          cleanup
  %25 = extractvalue { ptr, i32 } %24, 0
  store ptr %25, ptr %exn.slot, align 8
  %26 = extractvalue { ptr, i32 } %24, 1
  store i32 %26, ptr %ehselector.slot, align 4
  br label %ehcleanup81

lpad11:                                           ; preds = %invoke.cont10
  %27 = landingpad { ptr, i32 }
          cleanup
  %28 = extractvalue { ptr, i32 } %27, 0
  store ptr %28, ptr %exn.slot, align 8
  %29 = extractvalue { ptr, i32 } %27, 1
  store i32 %29, ptr %ehselector.slot, align 4
  br label %ehcleanup80

lpad13:                                           ; preds = %invoke.cont12
  %30 = landingpad { ptr, i32 }
          cleanup
  %31 = extractvalue { ptr, i32 } %30, 0
  store ptr %31, ptr %exn.slot, align 8
  %32 = extractvalue { ptr, i32 } %30, 1
  store i32 %32, ptr %ehselector.slot, align 4
  br label %ehcleanup79

lpad15:                                           ; preds = %invoke.cont14
  %33 = landingpad { ptr, i32 }
          cleanup
  %34 = extractvalue { ptr, i32 } %33, 0
  store ptr %34, ptr %exn.slot, align 8
  %35 = extractvalue { ptr, i32 } %33, 1
  store i32 %35, ptr %ehselector.slot, align 4
  br label %ehcleanup78

lpad17:                                           ; preds = %invoke.cont16
  %36 = landingpad { ptr, i32 }
          cleanup
  %37 = extractvalue { ptr, i32 } %36, 0
  store ptr %37, ptr %exn.slot, align 8
  %38 = extractvalue { ptr, i32 } %36, 1
  store i32 %38, ptr %ehselector.slot, align 4
  br label %ehcleanup77

lpad19:                                           ; preds = %invoke.cont18
  %39 = landingpad { ptr, i32 }
          cleanup
  %40 = extractvalue { ptr, i32 } %39, 0
  store ptr %40, ptr %exn.slot, align 8
  %41 = extractvalue { ptr, i32 } %39, 1
  store i32 %41, ptr %ehselector.slot, align 4
  br label %ehcleanup76

lpad21:                                           ; preds = %invoke.cont20
  %42 = landingpad { ptr, i32 }
          cleanup
  %43 = extractvalue { ptr, i32 } %42, 0
  store ptr %43, ptr %exn.slot, align 8
  %44 = extractvalue { ptr, i32 } %42, 1
  store i32 %44, ptr %ehselector.slot, align 4
  br label %ehcleanup75

lpad23:                                           ; preds = %invoke.cont22
  %45 = landingpad { ptr, i32 }
          cleanup
  %46 = extractvalue { ptr, i32 } %45, 0
  store ptr %46, ptr %exn.slot, align 8
  %47 = extractvalue { ptr, i32 } %45, 1
  store i32 %47, ptr %ehselector.slot, align 4
  br label %ehcleanup74

lpad25:                                           ; preds = %invoke.cont24
  %48 = landingpad { ptr, i32 }
          cleanup
  %49 = extractvalue { ptr, i32 } %48, 0
  store ptr %49, ptr %exn.slot, align 8
  %50 = extractvalue { ptr, i32 } %48, 1
  store i32 %50, ptr %ehselector.slot, align 4
  br label %ehcleanup73

lpad27:                                           ; preds = %invoke.cont26
  %51 = landingpad { ptr, i32 }
          cleanup
  %52 = extractvalue { ptr, i32 } %51, 0
  store ptr %52, ptr %exn.slot, align 8
  %53 = extractvalue { ptr, i32 } %51, 1
  store i32 %53, ptr %ehselector.slot, align 4
  br label %ehcleanup72

lpad29:                                           ; preds = %invoke.cont28
  %54 = landingpad { ptr, i32 }
          cleanup
  %55 = extractvalue { ptr, i32 } %54, 0
  store ptr %55, ptr %exn.slot, align 8
  %56 = extractvalue { ptr, i32 } %54, 1
  store i32 %56, ptr %ehselector.slot, align 4
  br label %ehcleanup71

lpad31:                                           ; preds = %invoke.cont30
  %57 = landingpad { ptr, i32 }
          cleanup
  %58 = extractvalue { ptr, i32 } %57, 0
  store ptr %58, ptr %exn.slot, align 8
  %59 = extractvalue { ptr, i32 } %57, 1
  store i32 %59, ptr %ehselector.slot, align 4
  br label %ehcleanup70

lpad33:                                           ; preds = %invoke.cont32
  %60 = landingpad { ptr, i32 }
          cleanup
  %61 = extractvalue { ptr, i32 } %60, 0
  store ptr %61, ptr %exn.slot, align 8
  %62 = extractvalue { ptr, i32 } %60, 1
  store i32 %62, ptr %ehselector.slot, align 4
  br label %ehcleanup69

lpad35:                                           ; preds = %invoke.cont34
  %63 = landingpad { ptr, i32 }
          cleanup
  %64 = extractvalue { ptr, i32 } %63, 0
  store ptr %64, ptr %exn.slot, align 8
  %65 = extractvalue { ptr, i32 } %63, 1
  store i32 %65, ptr %ehselector.slot, align 4
  br label %ehcleanup68

lpad37:                                           ; preds = %invoke.cont36
  %66 = landingpad { ptr, i32 }
          cleanup
  %67 = extractvalue { ptr, i32 } %66, 0
  store ptr %67, ptr %exn.slot, align 8
  %68 = extractvalue { ptr, i32 } %66, 1
  store i32 %68, ptr %ehselector.slot, align 4
  br label %ehcleanup67

lpad39:                                           ; preds = %invoke.cont38
  %69 = landingpad { ptr, i32 }
          cleanup
  %70 = extractvalue { ptr, i32 } %69, 0
  store ptr %70, ptr %exn.slot, align 8
  %71 = extractvalue { ptr, i32 } %69, 1
  store i32 %71, ptr %ehselector.slot, align 4
  br label %ehcleanup66

lpad41:                                           ; preds = %invoke.cont40
  %72 = landingpad { ptr, i32 }
          cleanup
  %73 = extractvalue { ptr, i32 } %72, 0
  store ptr %73, ptr %exn.slot, align 8
  %74 = extractvalue { ptr, i32 } %72, 1
  store i32 %74, ptr %ehselector.slot, align 4
  br label %ehcleanup65

lpad43:                                           ; preds = %invoke.cont42
  %75 = landingpad { ptr, i32 }
          cleanup
  %76 = extractvalue { ptr, i32 } %75, 0
  store ptr %76, ptr %exn.slot, align 8
  %77 = extractvalue { ptr, i32 } %75, 1
  store i32 %77, ptr %ehselector.slot, align 4
  br label %ehcleanup64

lpad46:                                           ; preds = %invoke.cont44
  %78 = landingpad { ptr, i32 }
          cleanup
  %79 = extractvalue { ptr, i32 } %78, 0
  store ptr %79, ptr %exn.slot, align 8
  %80 = extractvalue { ptr, i32 } %78, 1
  store i32 %80, ptr %ehselector.slot, align 4
  call void @_ZNSaIcED1Ev(ptr noundef nonnull align 1 dereferenceable(1) %ref.tmp45) #3
  br label %ehcleanup63

lpad48:                                           ; preds = %invoke.cont47
  %81 = landingpad { ptr, i32 }
          cleanup
  %82 = extractvalue { ptr, i32 } %81, 0
  store ptr %82, ptr %exn.slot, align 8
  %83 = extractvalue { ptr, i32 } %81, 1
  store i32 %83, ptr %ehselector.slot, align 4
  br label %ehcleanup62

lpad50:                                           ; preds = %invoke.cont49
  %84 = landingpad { ptr, i32 }
          cleanup
  %85 = extractvalue { ptr, i32 } %84, 0
  store ptr %85, ptr %exn.slot, align 8
  %86 = extractvalue { ptr, i32 } %84, 1
  store i32 %86, ptr %ehselector.slot, align 4
  br label %ehcleanup

lpad52:                                           ; preds = %land.end, %land.rhs, %invoke.cont55, %invoke.cont53, %invoke.cont51
  %87 = landingpad { ptr, i32 }
          cleanup
  %88 = extractvalue { ptr, i32 } %87, 0
  store ptr %88, ptr %exn.slot, align 8
  %89 = extractvalue { ptr, i32 } %87, 1
  store i32 %89, ptr %ehselector.slot, align 4
  call void @_ZN6vectorI8rationalLb1EjED2Ev(ptr noundef nonnull align 8 dereferenceable(8) %m_exps) #3
  call void @_ZN7obj_mapI4exprN3sat7literalEED2Ev(ptr noundef nonnull align 8 dereferenceable(24) %m_dep2asm) #3
  br label %ehcleanup

ehcleanup:                                        ; preds = %lpad52, %lpad50
  call void @_ZN10ref_vectorI4expr11ast_managerED2Ev(ptr noundef nonnull align 8 dereferenceable(16) %m_internalized_fmls) #3
  br label %ehcleanup62

ehcleanup62:                                      ; preds = %ehcleanup, %lpad48
  call void @_ZNSt7__cxx1112basic_stringIcSt11char_traitsIcESaIcEED1Ev(ptr noundef nonnull align 8 dereferenceable(32) %m_unknown) #3
  br label %ehcleanup63

ehcleanup63:                                      ; preds = %ehcleanup62, %lpad46
  call void @_ZN7svectorIdjED2Ev(ptr noundef nonnull align 8 dereferenceable(8) %m_weights) #3
  br label %ehcleanup64

ehcleanup64:                                      ; preds = %ehcleanup63, %lpad43
  call void @_ZN3refI15model_converterED2Ev(ptr noundef nonnull align 8 dereferenceable(8) %m_cached_mc) #3
  br label %ehcleanup65

ehcleanup65:                                      ; preds = %ehcleanup64, %lpad41
  call void @_ZN3refIN8sat2goal2mcEED2Ev(ptr noundef nonnull align 8 dereferenceable(8) %m_sat_mc) #3
  br label %ehcleanup66

ehcleanup66:                                      ; preds = %ehcleanup65, %lpad39
  call void @_ZN13obj_hashtableI9func_declED2Ev(ptr noundef nonnull align 8 dereferenceable(20) %m_inserted_const2bits) #3
  br label %ehcleanup67

ehcleanup67:                                      ; preds = %ehcleanup66, %lpad37
  call void @_ZN3refI15model_converterED2Ev(ptr noundef nonnull align 8 dereferenceable(8) %m_mc0) #3
  br label %ehcleanup68

ehcleanup68:                                      ; preds = %ehcleanup67, %lpad35
  call void @_ZN15ref_vector_coreI15model_converter21ref_unmanaged_wrapperIS0_EED2Ev(ptr noundef nonnull align 8 dereferenceable(8) %m_mcs) #3
  br label %ehcleanup69

ehcleanup69:                                      ; preds = %ehcleanup68, %lpad33
  call void @_ZN3refI15proof_converterED2Ev(ptr noundef nonnull align 8 dereferenceable(8) %m_pc) #3
  br label %ehcleanup70

ehcleanup70:                                      ; preds = %ehcleanup69, %lpad31
  call void @_ZN11sref_bufferI4goalLj16EED2Ev(ptr noundef nonnull align 8 dereferenceable(144) %m_subgoals) #3
  br label %ehcleanup71

ehcleanup71:                                      ; preds = %ehcleanup70, %lpad29
  call void @_ZN7svectorIN3sat7literalEjED2Ev(ptr noundef nonnull align 8 dereferenceable(8) %m_asms) #3
  br label %ehcleanup72

ehcleanup72:                                      ; preds = %ehcleanup71, %lpad27
  call void @_ZN3refI6tacticED2Ev(ptr noundef nonnull align 8 dereferenceable(8) %m_preprocess) #3
  br label %ehcleanup73

ehcleanup73:                                      ; preds = %ehcleanup72, %lpad25
  call void @_ZN10scoped_ptrI20bit_blaster_rewriterED2Ev(ptr noundef nonnull align 8 dereferenceable(8) %m_bb_rewriter) #3
  br label %ehcleanup74

ehcleanup74:                                      ; preds = %ehcleanup73, %lpad23
  call void @_ZN13atom2bool_varD2Ev(ptr noundef nonnull align 8 dereferenceable(41) %m_map) #3
  br label %ehcleanup75

ehcleanup75:                                      ; preds = %ehcleanup74, %lpad21
  call void @_ZN10ref_vectorI4expr11ast_managerED2Ev(ptr noundef nonnull align 8 dereferenceable(16) %m_core) #3
  br label %ehcleanup76

ehcleanup76:                                      ; preds = %ehcleanup75, %lpad19
  call void @_ZN7svectorIjjED2Ev(ptr noundef nonnull align 8 dereferenceable(8) %m_fmls_head_lim) #3
  br label %ehcleanup77

ehcleanup77:                                      ; preds = %ehcleanup76, %lpad17
  call void @_ZN7svectorIjjED2Ev(ptr noundef nonnull align 8 dereferenceable(8) %m_asms_lim) #3
  br label %ehcleanup78

ehcleanup78:                                      ; preds = %ehcleanup77, %lpad15
  call void @_ZN7svectorIjjED2Ev(ptr noundef nonnull align 8 dereferenceable(8) %m_fmls_lim) #3
  br label %ehcleanup79

ehcleanup79:                                      ; preds = %ehcleanup78, %lpad13
  call void @_ZN10ref_vectorI4expr11ast_managerED2Ev(ptr noundef nonnull align 8 dereferenceable(16) %m_asmsf) #3
  br label %ehcleanup80

ehcleanup80:                                      ; preds = %ehcleanup79, %lpad11
  call void @_ZN10ref_vectorI4expr11ast_managerED2Ev(ptr noundef nonnull align 8 dereferenceable(16) %m_fmls) #3
  br label %ehcleanup81

ehcleanup81:                                      ; preds = %ehcleanup80, %lpad9
  call void @_ZN10params_refD1Ev(ptr noundef nonnull align 8 dereferenceable(8) %m_params) #3
  br label %ehcleanup82

ehcleanup82:                                      ; preds = %ehcleanup81, %lpad7
  call void @_ZN8goal2satD1Ev(ptr noundef nonnull align 8 dereferenceable(12) %m_goal2sat) #3
  br label %ehcleanup83

ehcleanup83:                                      ; preds = %ehcleanup82, %lpad5
  call void @_ZN13stacked_valueIbED2Ev(ptr noundef nonnull align 8 dereferenceable(16) %m_has_uninterpreted) #3
  br label %ehcleanup84

ehcleanup84:                                      ; preds = %ehcleanup83, %lpad3
  call void @_ZN3sat6solverD1Ev(ptr noundef nonnull align 8 dereferenceable(4408) %m_solver) #3
  br label %ehcleanup85

ehcleanup85:                                      ; preds = %ehcleanup84, %lpad
  call void @_ZN6solverD2Ev(ptr noundef nonnull align 8 dereferenceable(96) %this1) #3
  br label %eh.resume

eh.resume:                                        ; preds = %ehcleanup85
  %exn = load ptr, ptr %exn.slot, align 8
  %sel = load i32, ptr %ehselector.slot, align 4
  %lpad.val = insertvalue { ptr, i32 } poison, ptr %exn, 0
  %lpad.val86 = insertvalue { ptr, i32 } %lpad.val, i32 %sel, 1
  resume { ptr, i32 } %lpad.val86
}

; Function Attrs: mustprogress uwtable
define hidden void @_Z15inc_sat_displayRSoR6solverjPKP4exprPK8rational(ptr noundef nonnull align 8 dereferenceable(8) %out, ptr noundef nonnull align 8 dereferenceable(96) %_s, i32 noundef %sz, ptr noundef %soft, ptr noundef %_weights) #5 personality ptr @__gxx_personality_v0 {
entry:
  %out.addr = alloca ptr, align 8
  %_s.addr = alloca ptr, align 8
  %sz.addr = alloca i32, align 4
  %soft.addr = alloca ptr, align 8
  %_weights.addr = alloca ptr, align 8
  %s = alloca ptr, align 8
  %weights = alloca %class.vector.103, align 8
  %i = alloca i32, align 4
  %exn.slot = alloca ptr, align 8
  %ehselector.slot = alloca i32, align 4
  %ref.tmp = alloca %"class.std::__cxx11::basic_string", align 8
  %ref.tmp1 = alloca %"class.std::allocator", align 1
  %cleanup.isactive = alloca i1, align 1
  %ref.tmp7 = alloca i32, align 4
  store ptr %out, ptr %out.addr, align 8
  store ptr %_s, ptr %_s.addr, align 8
  store i32 %sz, ptr %sz.addr, align 4
  store ptr %soft, ptr %soft.addr, align 8
  store ptr %_weights, ptr %_weights.addr, align 8
  %0 = load ptr, ptr %_s.addr, align 8
  %1 = call ptr @__dynamic_cast(ptr %0, ptr @_ZTI6solver, ptr @_ZTI14inc_sat_solver, i64 0) #3
  %2 = icmp eq ptr %1, null
  br i1 %2, label %dynamic_cast.bad_cast, label %dynamic_cast.end

dynamic_cast.bad_cast:                            ; preds = %entry
  call void @__cxa_bad_cast() #17
  unreachable

dynamic_cast.end:                                 ; preds = %entry
  store ptr %1, ptr %s, align 8
  call void @_ZN6vectorIjLb1EjEC2Ev(ptr noundef nonnull align 8 dereferenceable(8) %weights) #3
  store i32 0, ptr %i, align 4
  br label %for.cond

for.cond:                                         ; preds = %for.inc, %dynamic_cast.end
  %3 = load ptr, ptr %_weights.addr, align 8
  %tobool = icmp ne ptr %3, null
  br i1 %tobool, label %land.rhs, label %land.end

land.rhs:                                         ; preds = %for.cond
  %4 = load i32, ptr %i, align 4
  %5 = load i32, ptr %sz.addr, align 4
  %cmp = icmp ult i32 %4, %5
  br label %land.end

land.end:                                         ; preds = %land.rhs, %for.cond
  %6 = phi i1 [ false, %for.cond ], [ %cmp, %land.rhs ]
  br i1 %6, label %for.body, label %for.end

for.body:                                         ; preds = %land.end
  %7 = load ptr, ptr %_weights.addr, align 8
  %8 = load i32, ptr %i, align 4
  %idxprom = zext i32 %8 to i64
  %arrayidx = getelementptr inbounds %class.rational, ptr %7, i64 %idxprom
  %call = invoke noundef zeroext i1 @_ZNK8rational11is_unsignedEv(ptr noundef nonnull align 8 dereferenceable(32) %arrayidx)
          to label %invoke.cont unwind label %lpad

invoke.cont:                                      ; preds = %for.body
  br i1 %call, label %if.end, label %if.then

if.then:                                          ; preds = %invoke.cont
  store i1 true, ptr %cleanup.isactive, align 1
  %exception = call ptr @__cxa_allocate_exception(i64 40) #3
  call void @_ZNSaIcEC1Ev(ptr noundef nonnull align 1 dereferenceable(1) %ref.tmp1) #3
  invoke void @_ZNSt7__cxx1112basic_stringIcSt11char_traitsIcESaIcEEC2IS3_EEPKcRKS3_(ptr noundef nonnull align 8 dereferenceable(32) %ref.tmp, ptr noundef @.str, ptr noundef nonnull align 1 dereferenceable(1) %ref.tmp1)
          to label %invoke.cont3 unwind label %lpad2

invoke.cont3:                                     ; preds = %if.then
  invoke void @_ZN17default_exceptionC2EONSt7__cxx1112basic_stringIcSt11char_traitsIcESaIcEEE(ptr noundef nonnull align 8 dereferenceable(40) %exception, ptr noundef nonnull align 8 dereferenceable(32) %ref.tmp)
          to label %invoke.cont5 unwind label %lpad4

invoke.cont5:                                     ; preds = %invoke.cont3
  store i1 false, ptr %cleanup.isactive, align 1
  invoke void @__cxa_throw(ptr %exception, ptr @_ZTI17default_exception, ptr @_ZN17default_exceptionD2Ev) #17
          to label %unreachable unwind label %lpad4

lpad:                                             ; preds = %invoke.cont14, %for.end, %invoke.cont10, %if.end, %for.body
  %9 = landingpad { ptr, i32 }
          cleanup
  %10 = extractvalue { ptr, i32 } %9, 0
  store ptr %10, ptr %exn.slot, align 8
  %11 = extractvalue { ptr, i32 } %9, 1
  store i32 %11, ptr %ehselector.slot, align 4
  br label %ehcleanup17

lpad2:                                            ; preds = %if.then
  %12 = landingpad { ptr, i32 }
          cleanup
  %13 = extractvalue { ptr, i32 } %12, 0
  store ptr %13, ptr %exn.slot, align 8
  %14 = extractvalue { ptr, i32 } %12, 1
  store i32 %14, ptr %ehselector.slot, align 4
  br label %ehcleanup

lpad4:                                            ; preds = %invoke.cont5, %invoke.cont3
  %15 = landingpad { ptr, i32 }
          cleanup
  %16 = extractvalue { ptr, i32 } %15, 0
  store ptr %16, ptr %exn.slot, align 8
  %17 = extractvalue { ptr, i32 } %15, 1
  store i32 %17, ptr %ehselector.slot, align 4
  call void @_ZNSt7__cxx1112basic_stringIcSt11char_traitsIcESaIcEED1Ev(ptr noundef nonnull align 8 dereferenceable(32) %ref.tmp) #3
  br label %ehcleanup

ehcleanup:                                        ; preds = %lpad4, %lpad2
  call void @_ZNSaIcED1Ev(ptr noundef nonnull align 1 dereferenceable(1) %ref.tmp1) #3
  %cleanup.is_active = load i1, ptr %cleanup.isactive, align 1
  br i1 %cleanup.is_active, label %cleanup.action, label %cleanup.done

cleanup.action:                                   ; preds = %ehcleanup
  call void @__cxa_free_exception(ptr %exception) #3
  br label %cleanup.done

cleanup.done:                                     ; preds = %cleanup.action, %ehcleanup
  br label %ehcleanup17

if.end:                                           ; preds = %invoke.cont
  %18 = load ptr, ptr %_weights.addr, align 8
  %19 = load i32, ptr %i, align 4
  %idxprom8 = zext i32 %19 to i64
  %arrayidx9 = getelementptr inbounds %class.rational, ptr %18, i64 %idxprom8
  %call11 = invoke noundef i32 @_ZNK8rational12get_unsignedEv(ptr noundef nonnull align 8 dereferenceable(32) %arrayidx9)
          to label %invoke.cont10 unwind label %lpad

invoke.cont10:                                    ; preds = %if.end
  store i32 %call11, ptr %ref.tmp7, align 4
  %call13 = invoke noundef nonnull align 8 dereferenceable(8) ptr @_ZN6vectorIjLb1EjE9push_backEOj(ptr noundef nonnull align 8 dereferenceable(8) %weights, ptr noundef nonnull align 4 dereferenceable(4) %ref.tmp7)
          to label %invoke.cont12 unwind label %lpad

invoke.cont12:                                    ; preds = %invoke.cont10
  br label %for.inc

for.inc:                                          ; preds = %invoke.cont12
  %20 = load i32, ptr %i, align 4
  %inc = add i32 %20, 1
  store i32 %inc, ptr %i, align 4
  br label %for.cond, !llvm.loop !4

for.end:                                          ; preds = %land.end
  %21 = load ptr, ptr %s, align 8
  %22 = load ptr, ptr %out.addr, align 8
  %23 = load i32, ptr %sz.addr, align 4
  %24 = load ptr, ptr %soft.addr, align 8
  %call15 = invoke noundef ptr @_ZNK6vectorIjLb1EjE4dataEv(ptr noundef nonnull align 8 dereferenceable(8) %weights)
          to label %invoke.cont14 unwind label %lpad

invoke.cont14:                                    ; preds = %for.end
  invoke void @_ZN14inc_sat_solver16display_weightedERSojPKP4exprPKj(ptr noundef nonnull align 8 dereferenceable(5008) %21, ptr noundef nonnull align 8 dereferenceable(8) %22, i32 noundef %23, ptr noundef %24, ptr noundef %call15)
          to label %invoke.cont16 unwind label %lpad

invoke.cont16:                                    ; preds = %invoke.cont14
  call void @_ZN6vectorIjLb1EjED2Ev(ptr noundef nonnull align 8 dereferenceable(8) %weights) #3
  ret void

ehcleanup17:                                      ; preds = %cleanup.done, %lpad
  call void @_ZN6vectorIjLb1EjED2Ev(ptr noundef nonnull align 8 dereferenceable(8) %weights) #3
  br label %eh.resume

eh.resume:                                        ; preds = %ehcleanup17
  %exn = load ptr, ptr %exn.slot, align 8
  %sel = load i32, ptr %ehselector.slot, align 4
  %lpad.val = insertvalue { ptr, i32 } poison, ptr %exn, 0
  %lpad.val18 = insertvalue { ptr, i32 } %lpad.val, i32 %sel, 1
  resume { ptr, i32 } %lpad.val18

unreachable:                                      ; preds = %invoke.cont5
  unreachable
}

; Function Attrs: nounwind memory(read)
declare ptr @__dynamic_cast(ptr, ptr, ptr, i64) #6

declare void @__cxa_bad_cast()

; Function Attrs: mustprogress nounwind uwtable
define linkonce_odr hidden void @_ZN6vectorIjLb1EjEC2Ev(ptr noundef nonnull align 8 dereferenceable(8) %this) unnamed_addr #4 comdat align 2 {
entry:
  %this.addr = alloca ptr, align 8
  store ptr %this, ptr %this.addr, align 8
  %this1 = load ptr, ptr %this.addr, align 8
  %m_data = getelementptr inbounds %class.vector.103, ptr %this1, i32 0, i32 0
  store ptr null, ptr %m_data, align 8
  ret void
}

; Function Attrs: mustprogress uwtable
define linkonce_odr hidden noundef zeroext i1 @_ZNK8rational11is_unsignedEv(ptr noundef nonnull align 8 dereferenceable(32) %this) #5 comdat align 2 {
entry:
  %this.addr = alloca ptr, align 8
  store ptr %this, ptr %this.addr, align 8
  %this1 = load ptr, ptr %this.addr, align 8
  %call = call noundef zeroext i1 @_ZNK8rational9is_uint64Ev(ptr noundef nonnull align 8 dereferenceable(32) %this1)
  br i1 %call, label %land.rhs, label %land.end

land.rhs:                                         ; preds = %entry
  %call2 = call noundef i64 @_ZNK8rational10get_uint64Ev(ptr noundef nonnull align 8 dereferenceable(32) %this1)
  %cmp = icmp ult i64 %call2, 4294967296
  br label %land.end

land.end:                                         ; preds = %land.rhs, %entry
  %0 = phi i1 [ false, %entry ], [ %cmp, %land.rhs ]
  ret i1 %0
}

declare i32 @__gxx_personality_v0(...)

declare ptr @__cxa_allocate_exception(i64)

; Function Attrs: nounwind
declare void @_ZNSaIcEC1Ev(ptr noundef nonnull align 1 dereferenceable(1)) unnamed_addr #2

; Function Attrs: mustprogress uwtable
define linkonce_odr hidden void @_ZNSt7__cxx1112basic_stringIcSt11char_traitsIcESaIcEEC2IS3_EEPKcRKS3_(ptr noundef nonnull align 8 dereferenceable(32) %this, ptr noundef %__s, ptr noundef nonnull align 1 dereferenceable(1) %__a) unnamed_addr #5 comdat align 2 personality ptr @__gxx_personality_v0 {
entry:
  %this.addr = alloca ptr, align 8
  %__s.addr = alloca ptr, align 8
  %__a.addr = alloca ptr, align 8
  %exn.slot = alloca ptr, align 8
  %ehselector.slot = alloca i32, align 4
  %__end = alloca ptr, align 8
  store ptr %this, ptr %this.addr, align 8
  store ptr %__s, ptr %__s.addr, align 8
  store ptr %__a, ptr %__a.addr, align 8
  %this1 = load ptr, ptr %this.addr, align 8
  %_M_dataplus = getelementptr inbounds %"class.std::__cxx11::basic_string", ptr %this1, i32 0, i32 0
  %call = call noundef ptr @_ZNSt7__cxx1112basic_stringIcSt11char_traitsIcESaIcEE13_M_local_dataEv(ptr noundef nonnull align 8 dereferenceable(32) %this1)
  %0 = load ptr, ptr %__a.addr, align 8
  call void @_ZNSt7__cxx1112basic_stringIcSt11char_traitsIcESaIcEE12_Alloc_hiderC1EPcRKS3_(ptr noundef nonnull align 8 dereferenceable(8) %_M_dataplus, ptr noundef %call, ptr noundef nonnull align 1 dereferenceable(1) %0)
  %1 = load ptr, ptr %__s.addr, align 8
  %cmp = icmp eq ptr %1, null
  br i1 %cmp, label %if.then, label %if.end

if.then:                                          ; preds = %entry
  invoke void @_ZSt19__throw_logic_errorPKc(ptr noundef @.str.61) #17
          to label %invoke.cont unwind label %lpad

invoke.cont:                                      ; preds = %if.then
  unreachable

lpad:                                             ; preds = %invoke.cont2, %if.end, %if.then
  %2 = landingpad { ptr, i32 }
          cleanup
  %3 = extractvalue { ptr, i32 } %2, 0
  store ptr %3, ptr %exn.slot, align 8
  %4 = extractvalue { ptr, i32 } %2, 1
  store i32 %4, ptr %ehselector.slot, align 4
  call void @_ZNSt7__cxx1112basic_stringIcSt11char_traitsIcESaIcEE12_Alloc_hiderD2Ev(ptr noundef nonnull align 8 dereferenceable(8) %_M_dataplus) #3
  br label %eh.resume

if.end:                                           ; preds = %entry
  %5 = load ptr, ptr %__s.addr, align 8
  %6 = load ptr, ptr %__s.addr, align 8
  %call3 = invoke noundef i64 @_ZNSt11char_traitsIcE6lengthEPKc(ptr noundef %6)
          to label %invoke.cont2 unwind label %lpad

invoke.cont2:                                     ; preds = %if.end
  %add.ptr = getelementptr inbounds i8, ptr %5, i64 %call3
  store ptr %add.ptr, ptr %__end, align 8
  %7 = load ptr, ptr %__s.addr, align 8
  %8 = load ptr, ptr %__end, align 8
  invoke void @_ZNSt7__cxx1112basic_stringIcSt11char_traitsIcESaIcEE12_M_constructIPKcEEvT_S8_St20forward_iterator_tag(ptr noundef nonnull align 8 dereferenceable(32) %this1, ptr noundef %7, ptr noundef %8)
          to label %invoke.cont4 unwind label %lpad

invoke.cont4:                                     ; preds = %invoke.cont2
  ret void

eh.resume:                                        ; preds = %lpad
  %exn = load ptr, ptr %exn.slot, align 8
  %sel = load i32, ptr %ehselector.slot, align 4
  %lpad.val = insertvalue { ptr, i32 } poison, ptr %exn, 0
  %lpad.val5 = insertvalue { ptr, i32 } %lpad.val, i32 %sel, 1
  resume { ptr, i32 } %lpad.val5
}

; Function Attrs: mustprogress nounwind uwtable
define linkonce_odr hidden void @_ZN17default_exceptionC2EONSt7__cxx1112basic_stringIcSt11char_traitsIcESaIcEEE(ptr noundef nonnull align 8 dereferenceable(40) %this, ptr noundef nonnull align 8 dereferenceable(32) %msg) unnamed_addr #4 comdat align 2 {
entry:
  %this.addr = alloca ptr, align 8
  %msg.addr = alloca ptr, align 8
  store ptr %this, ptr %this.addr, align 8
  store ptr %msg, ptr %msg.addr, align 8
  %this1 = load ptr, ptr %this.addr, align 8
  call void @_ZN12z3_exceptionC2Ev(ptr noundef nonnull align 8 dereferenceable(8) %this1) #3
  store ptr getelementptr inbounds ({ [6 x ptr] }, ptr @_ZTV17default_exception, i32 0, inrange i32 0, i32 2), ptr %this1, align 8
  %m_msg = getelementptr inbounds %class.default_exception, ptr %this1, i32 0, i32 1
  %0 = load ptr, ptr %msg.addr, align 8
  call void @_ZNSt7__cxx1112basic_stringIcSt11char_traitsIcESaIcEEC1EOS4_(ptr noundef nonnull align 8 dereferenceable(32) %m_msg, ptr noundef nonnull align 8 dereferenceable(32) %0) #3
  ret void
}

; Function Attrs: mustprogress nounwind uwtable
define linkonce_odr hidden void @_ZN17default_exceptionD2Ev(ptr noundef nonnull align 8 dereferenceable(40) %this) unnamed_addr #4 comdat align 2 {
entry:
  %this.addr = alloca ptr, align 8
  store ptr %this, ptr %this.addr, align 8
  %this1 = load ptr, ptr %this.addr, align 8
  store ptr getelementptr inbounds ({ [6 x ptr] }, ptr @_ZTV17default_exception, i32 0, inrange i32 0, i32 2), ptr %this1, align 8
  %m_msg = getelementptr inbounds %class.default_exception, ptr %this1, i32 0, i32 1
  call void @_ZNSt7__cxx1112basic_stringIcSt11char_traitsIcESaIcEED1Ev(ptr noundef nonnull align 8 dereferenceable(32) %m_msg) #3
  call void @_ZN12z3_exceptionD2Ev(ptr noundef nonnull align 8 dereferenceable(8) %this1) #3
  ret void
}

declare void @__cxa_throw(ptr, ptr, ptr)

; Function Attrs: nounwind
declare void @_ZNSt7__cxx1112basic_stringIcSt11char_traitsIcESaIcEED1Ev(ptr noundef nonnull align 8 dereferenceable(32)) unnamed_addr #2

; Function Attrs: nounwind
declare void @_ZNSaIcED1Ev(ptr noundef nonnull align 1 dereferenceable(1)) unnamed_addr #2

declare void @__cxa_free_exception(ptr)

; Function Attrs: mustprogress uwtable
define linkonce_odr hidden noundef nonnull align 8 dereferenceable(8) ptr @_ZN6vectorIjLb1EjE9push_backEOj(ptr noundef nonnull align 8 dereferenceable(8) %this, ptr noundef nonnull align 4 dereferenceable(4) %elem) #5 comdat align 2 {
entry:
  %this.addr = alloca ptr, align 8
  %elem.addr = alloca ptr, align 8
  store ptr %this, ptr %this.addr, align 8
  store ptr %elem, ptr %elem.addr, align 8
  %this1 = load ptr, ptr %this.addr, align 8
  %m_data = getelementptr inbounds %class.vector.103, ptr %this1, i32 0, i32 0
  %0 = load ptr, ptr %m_data, align 8
  %cmp = icmp eq ptr %0, null
  br i1 %cmp, label %if.then, label %lor.lhs.false

lor.lhs.false:                                    ; preds = %entry
  %m_data2 = getelementptr inbounds %class.vector.103, ptr %this1, i32 0, i32 0
  %1 = load ptr, ptr %m_data2, align 8
  %arrayidx = getelementptr inbounds i32, ptr %1, i64 -1
  %2 = load i32, ptr %arrayidx, align 4
  %m_data3 = getelementptr inbounds %class.vector.103, ptr %this1, i32 0, i32 0
  %3 = load ptr, ptr %m_data3, align 8
  %arrayidx4 = getelementptr inbounds i32, ptr %3, i64 -2
  %4 = load i32, ptr %arrayidx4, align 4
  %cmp5 = icmp eq i32 %2, %4
  br i1 %cmp5, label %if.then, label %if.end

if.then:                                          ; preds = %lor.lhs.false, %entry
  call void @_ZN6vectorIjLb1EjE13expand_vectorEv(ptr noundef nonnull align 8 dereferenceable(8) %this1)
  br label %if.end

if.end:                                           ; preds = %if.then, %lor.lhs.false
  %m_data6 = getelementptr inbounds %class.vector.103, ptr %this1, i32 0, i32 0
  %5 = load ptr, ptr %m_data6, align 8
  %m_data7 = getelementptr inbounds %class.vector.103, ptr %this1, i32 0, i32 0
  %6 = load ptr, ptr %m_data7, align 8
  %arrayidx8 = getelementptr inbounds i32, ptr %6, i64 -1
  %7 = load i32, ptr %arrayidx8, align 4
  %idx.ext = zext i32 %7 to i64
  %add.ptr = getelementptr inbounds i32, ptr %5, i64 %idx.ext
  %8 = load ptr, ptr %elem.addr, align 8
  %9 = load i32, ptr %8, align 4
  store i32 %9, ptr %add.ptr, align 4
  %m_data9 = getelementptr inbounds %class.vector.103, ptr %this1, i32 0, i32 0
  %10 = load ptr, ptr %m_data9, align 8
  %arrayidx10 = getelementptr inbounds i32, ptr %10, i64 -1
  %11 = load i32, ptr %arrayidx10, align 4
  %inc = add i32 %11, 1
  store i32 %inc, ptr %arrayidx10, align 4
  ret ptr %this1
}

; Function Attrs: mustprogress uwtable
define linkonce_odr hidden noundef i32 @_ZNK8rational12get_unsignedEv(ptr noundef nonnull align 8 dereferenceable(32) %this) #5 comdat align 2 {
entry:
  %this.addr = alloca ptr, align 8
  store ptr %this, ptr %this.addr, align 8
  %this1 = load ptr, ptr %this.addr, align 8
  %call = call noundef i64 @_ZNK8rational10get_uint64Ev(ptr noundef nonnull align 8 dereferenceable(32) %this1)
  %conv = trunc i64 %call to i32
  ret i32 %conv
}

; Function Attrs: mustprogress uwtable
define linkonce_odr hidden void @_ZN14inc_sat_solver16display_weightedERSojPKP4exprPKj(ptr noundef nonnull align 8 dereferenceable(5008) %this, ptr noundef nonnull align 8 dereferenceable(8) %out, i32 noundef %sz, ptr noundef %assumptions, ptr noundef %weights) #5 comdat align 2 personality ptr @__gxx_personality_v0 {
entry:
  %this.addr = alloca ptr, align 8
  %out.addr = alloca ptr, align 8
  %sz.addr = alloca i32, align 4
  %assumptions.addr = alloca ptr, align 8
  %weights.addr = alloca ptr, align 8
  %i = alloca i32, align 4
  %ref.tmp = alloca double, align 8
  %asms = alloca %class.ref_vector, align 8
  %i3 = alloca i32, align 4
  %a = alloca %class.obj_ref.126, align 8
  %exn.slot = alloca ptr, align 8
  %ehselector.slot = alloca i32, align 4
  %fml = alloca %class.obj_ref.126, align 8
  %nweights = alloca %class.svector.6, align 8
  %i45 = alloca i32, align 4
  %ref.tmp50 = alloca i32, align 4
  store ptr %this, ptr %this.addr, align 8
  store ptr %out, ptr %out.addr, align 8
  store i32 %sz, ptr %sz.addr, align 4
  store ptr %assumptions, ptr %assumptions.addr, align 8
  store ptr %weights, ptr %weights.addr, align 8
  %this1 = load ptr, ptr %this.addr, align 8
  %0 = load ptr, ptr %weights.addr, align 8
  %cmp = icmp ne ptr %0, null
  br i1 %cmp, label %if.then, label %if.end

if.then:                                          ; preds = %entry
  store i32 0, ptr %i, align 4
  br label %for.cond

for.cond:                                         ; preds = %for.inc, %if.then
  %1 = load i32, ptr %i, align 4
  %2 = load i32, ptr %sz.addr, align 4
  %cmp2 = icmp ult i32 %1, %2
  br i1 %cmp2, label %for.body, label %for.end

for.body:                                         ; preds = %for.cond
  %m_weights = getelementptr inbounds %class.inc_sat_solver, ptr %this1, i32 0, i32 25
  %3 = load ptr, ptr %weights.addr, align 8
  %4 = load i32, ptr %i, align 4
  %idxprom = zext i32 %4 to i64
  %arrayidx = getelementptr inbounds i32, ptr %3, i64 %idxprom
  %5 = load i32, ptr %arrayidx, align 4
  %conv = uitofp i32 %5 to double
  store double %conv, ptr %ref.tmp, align 8
  %call = call noundef nonnull align 8 dereferenceable(8) ptr @_ZN6vectorIdLb0EjE9push_backEOd(ptr noundef nonnull align 8 dereferenceable(8) %m_weights, ptr noundef nonnull align 8 dereferenceable(8) %ref.tmp)
  br label %for.inc

for.inc:                                          ; preds = %for.body
  %6 = load i32, ptr %i, align 4
  %inc = add i32 %6, 1
  store i32 %inc, ptr %i, align 4
  br label %for.cond, !llvm.loop !6

for.end:                                          ; preds = %for.cond
  br label %if.end

if.end:                                           ; preds = %for.end, %entry
  call void @_ZN14inc_sat_solver15init_preprocessEv(ptr noundef nonnull align 8 dereferenceable(5008) %this1)
  %m_solver = getelementptr inbounds %class.inc_sat_solver, ptr %this1, i32 0, i32 1
  call void @_ZN3sat6solver17pop_to_base_levelEv(ptr noundef nonnull align 8 dereferenceable(4408) %m_solver)
  %m_dep2asm = getelementptr inbounds %class.inc_sat_solver, ptr %this1, i32 0, i32 29
  call void @_ZN7obj_mapI4exprN3sat7literalEE5resetEv(ptr noundef nonnull align 8 dereferenceable(24) %m_dep2asm)
  %m = getelementptr inbounds %class.check_sat_result, ptr %this1, i32 0, i32 1
  %7 = load ptr, ptr %m, align 8
  call void @_ZN10ref_vectorI4expr11ast_managerEC2ERS1_(ptr noundef nonnull align 8 dereferenceable(16) %asms, ptr noundef nonnull align 8 dereferenceable(976) %7)
  store i32 0, ptr %i3, align 4
  br label %for.cond4

for.cond4:                                        ; preds = %for.inc28, %if.end
  %8 = load i32, ptr %i3, align 4
  %9 = load i32, ptr %sz.addr, align 4
  %cmp5 = icmp ult i32 %8, %9
  br i1 %cmp5, label %for.body6, label %for.end30

for.body6:                                        ; preds = %for.cond4
  %m7 = getelementptr inbounds %class.check_sat_result, ptr %this1, i32 0, i32 1
  %10 = load ptr, ptr %m7, align 8
  %m8 = getelementptr inbounds %class.check_sat_result, ptr %this1, i32 0, i32 1
  %11 = load ptr, ptr %m8, align 8
  %call9 = call noundef ptr @_ZNK11ast_manager12mk_bool_sortEv(ptr noundef nonnull align 8 dereferenceable(976) %11)
  %call10 = invoke noundef ptr @_ZN11ast_manager14mk_fresh_constEPKcP4sortb(ptr noundef nonnull align 8 dereferenceable(976) %10, ptr noundef @.str.44, ptr noundef %call9, i1 noundef zeroext true)
          to label %invoke.cont unwind label %lpad

invoke.cont:                                      ; preds = %for.body6
  %m11 = getelementptr inbounds %class.check_sat_result, ptr %this1, i32 0, i32 1
  %12 = load ptr, ptr %m11, align 8
  invoke void @_ZN7obj_refI4expr11ast_managerEC2EPS0_RS1_(ptr noundef nonnull align 8 dereferenceable(16) %a, ptr noundef %call10, ptr noundef nonnull align 8 dereferenceable(976) %12)
          to label %invoke.cont12 unwind label %lpad

invoke.cont12:                                    ; preds = %invoke.cont
  %m13 = getelementptr inbounds %class.check_sat_result, ptr %this1, i32 0, i32 1
  %13 = load ptr, ptr %m13, align 8
  %call14 = call noundef ptr @_ZNK7obj_refI4expr11ast_managerEcvPS0_Ev(ptr noundef nonnull align 8 dereferenceable(16) %a)
  %14 = load ptr, ptr %assumptions.addr, align 8
  %15 = load i32, ptr %i3, align 4
  %idxprom15 = zext i32 %15 to i64
  %arrayidx16 = getelementptr inbounds ptr, ptr %14, i64 %idxprom15
  %16 = load ptr, ptr %arrayidx16, align 8
  %call19 = invoke noundef ptr @_ZN11ast_manager10mk_impliesEP4exprS1_(ptr noundef nonnull align 8 dereferenceable(976) %13, ptr noundef %call14, ptr noundef %16)
          to label %invoke.cont18 unwind label %lpad17

invoke.cont18:                                    ; preds = %invoke.cont12
  %m20 = getelementptr inbounds %class.check_sat_result, ptr %this1, i32 0, i32 1
  %17 = load ptr, ptr %m20, align 8
  invoke void @_ZN7obj_refI4expr11ast_managerEC2EPS0_RS1_(ptr noundef nonnull align 8 dereferenceable(16) %fml, ptr noundef %call19, ptr noundef nonnull align 8 dereferenceable(976) %17)
          to label %invoke.cont21 unwind label %lpad17

invoke.cont21:                                    ; preds = %invoke.cont18
  %call22 = call noundef ptr @_ZNK7obj_refI4expr11ast_managerEcvPS0_Ev(ptr noundef nonnull align 8 dereferenceable(16) %fml)
  invoke void @_ZN6solver11assert_exprEP4expr(ptr noundef nonnull align 8 dereferenceable(96) %this1, ptr noundef %call22)
          to label %invoke.cont24 unwind label %lpad23

invoke.cont24:                                    ; preds = %invoke.cont21
  %call25 = call noundef ptr @_ZNK7obj_refI4expr11ast_managerEcvPS0_Ev(ptr noundef nonnull align 8 dereferenceable(16) %a)
  %call27 = invoke noundef nonnull align 8 dereferenceable(16) ptr @_ZN15ref_vector_coreI4expr19ref_manager_wrapperIS0_11ast_managerEE9push_backEPS0_(ptr noundef nonnull align 8 dereferenceable(16) %asms, ptr noundef %call25)
          to label %invoke.cont26 unwind label %lpad23

invoke.cont26:                                    ; preds = %invoke.cont24
  call void @_ZN7obj_refI4expr11ast_managerED2Ev(ptr noundef nonnull align 8 dereferenceable(16) %fml) #3
  call void @_ZN7obj_refI4expr11ast_managerED2Ev(ptr noundef nonnull align 8 dereferenceable(16) %a) #3
  br label %for.inc28

for.inc28:                                        ; preds = %invoke.cont26
  %18 = load i32, ptr %i3, align 4
  %inc29 = add i32 %18, 1
  store i32 %inc29, ptr %i3, align 4
  br label %for.cond4, !llvm.loop !7

lpad:                                             ; preds = %if.end43, %if.then41, %if.end36, %if.then34, %for.end30, %invoke.cont, %for.body6
  %19 = landingpad { ptr, i32 }
          cleanup
  %20 = extractvalue { ptr, i32 } %19, 0
  store ptr %20, ptr %exn.slot, align 8
  %21 = extractvalue { ptr, i32 } %19, 1
  store i32 %21, ptr %ehselector.slot, align 4
  br label %ehcleanup71

lpad17:                                           ; preds = %invoke.cont18, %invoke.cont12
  %22 = landingpad { ptr, i32 }
          cleanup
  %23 = extractvalue { ptr, i32 } %22, 0
  store ptr %23, ptr %exn.slot, align 8
  %24 = extractvalue { ptr, i32 } %22, 1
  store i32 %24, ptr %ehselector.slot, align 4
  br label %ehcleanup

lpad23:                                           ; preds = %invoke.cont24, %invoke.cont21
  %25 = landingpad { ptr, i32 }
          cleanup
  %26 = extractvalue { ptr, i32 } %25, 0
  store ptr %26, ptr %exn.slot, align 8
  %27 = extractvalue { ptr, i32 } %25, 1
  store i32 %27, ptr %ehselector.slot, align 4
  call void @_ZN7obj_refI4expr11ast_managerED2Ev(ptr noundef nonnull align 8 dereferenceable(16) %fml) #3
  br label %ehcleanup

ehcleanup:                                        ; preds = %lpad23, %lpad17
  call void @_ZN7obj_refI4expr11ast_managerED2Ev(ptr noundef nonnull align 8 dereferenceable(16) %a) #3
  br label %ehcleanup71

for.end30:                                        ; preds = %for.cond4
  %call32 = invoke noundef i32 @_ZN14inc_sat_solver20internalize_formulasEv(ptr noundef nonnull align 8 dereferenceable(5008) %this1)
          to label %invoke.cont31 unwind label %lpad

invoke.cont31:                                    ; preds = %for.end30
  %cmp33 = icmp eq i32 1, %call32
  br i1 %cmp33, label %if.end36, label %if.then34

if.then34:                                        ; preds = %invoke.cont31
  invoke void @_Z26notify_assertion_violationPKciS0_(ptr noundef @.str.53, i32 noundef 162, ptr noundef @.str.57)
          to label %invoke.cont35 unwind label %lpad

invoke.cont35:                                    ; preds = %if.then34
  call void @exit(i32 noundef 114) #18
  unreachable

if.end36:                                         ; preds = %invoke.cont31
  %28 = load i32, ptr %sz.addr, align 4
  %call37 = call noundef ptr @_ZN15ref_vector_coreI4expr19ref_manager_wrapperIS0_11ast_managerEE4dataEv(ptr noundef nonnull align 8 dereferenceable(16) %asms)
  %call39 = invoke noundef i32 @_ZN14inc_sat_solver23internalize_assumptionsEjPKP4expr(ptr noundef nonnull align 8 dereferenceable(5008) %this1, i32 noundef %28, ptr noundef %call37)
          to label %invoke.cont38 unwind label %lpad

invoke.cont38:                                    ; preds = %if.end36
  %cmp40 = icmp eq i32 1, %call39
  br i1 %cmp40, label %if.end43, label %if.then41

if.then41:                                        ; preds = %invoke.cont38
  invoke void @_Z26notify_assertion_violationPKciS0_(ptr noundef @.str.53, i32 noundef 163, ptr noundef @.str.58)
          to label %invoke.cont42 unwind label %lpad

invoke.cont42:                                    ; preds = %if.then41
  call void @exit(i32 noundef 114) #18
  unreachable

if.end43:                                         ; preds = %invoke.cont38
  invoke void @_ZN7svectorIjjEC2Ev(ptr noundef nonnull align 8 dereferenceable(8) %nweights)
          to label %invoke.cont44 unwind label %lpad

invoke.cont44:                                    ; preds = %if.end43
  store i32 0, ptr %i45, align 4
  br label %for.cond46

for.cond46:                                       ; preds = %for.inc57, %invoke.cont44
  %29 = load i32, ptr %i45, align 4
  %m_asms = getelementptr inbounds %class.inc_sat_solver, ptr %this1, i32 0, i32 17
  %call47 = call noundef i32 @_ZNK6vectorIN3sat7literalELb0EjE4sizeEv(ptr noundef nonnull align 8 dereferenceable(8) %m_asms)
  %cmp48 = icmp ult i32 %29, %call47
  br i1 %cmp48, label %for.body49, label %for.end59

for.body49:                                       ; preds = %for.cond46
  %m_weights51 = getelementptr inbounds %class.inc_sat_solver, ptr %this1, i32 0, i32 25
  %30 = load i32, ptr %i45, align 4
  %call52 = call noundef nonnull align 8 dereferenceable(8) ptr @_ZN6vectorIdLb0EjEixEj(ptr noundef nonnull align 8 dereferenceable(8) %m_weights51, i32 noundef %30)
  %31 = load double, ptr %call52, align 8
  %conv53 = fptoui double %31 to i32
  store i32 %conv53, ptr %ref.tmp50, align 4
  %call56 = invoke noundef nonnull align 8 dereferenceable(8) ptr @_ZN6vectorIjLb0EjE9push_backEOj(ptr noundef nonnull align 8 dereferenceable(8) %nweights, ptr noundef nonnull align 4 dereferenceable(4) %ref.tmp50)
          to label %invoke.cont55 unwind label %lpad54

invoke.cont55:                                    ; preds = %for.body49
  br label %for.inc57

for.inc57:                                        ; preds = %invoke.cont55
  %32 = load i32, ptr %i45, align 4
  %inc58 = add i32 %32, 1
  store i32 %inc58, ptr %i45, align 4
  br label %for.cond46, !llvm.loop !8

lpad54:                                           ; preds = %invoke.cont67, %invoke.cont61, %for.end59, %for.body49
  %33 = landingpad { ptr, i32 }
          cleanup
  %34 = extractvalue { ptr, i32 } %33, 0
  store ptr %34, ptr %exn.slot, align 8
  %35 = extractvalue { ptr, i32 } %33, 1
  store i32 %35, ptr %ehselector.slot, align 4
  call void @_ZN7svectorIjjED2Ev(ptr noundef nonnull align 8 dereferenceable(8) %nweights) #3
  br label %ehcleanup71

for.end59:                                        ; preds = %for.cond46
  %m_weights60 = getelementptr inbounds %class.inc_sat_solver, ptr %this1, i32 0, i32 25
  invoke void @_ZN6vectorIdLb0EjE5resetEv(ptr noundef nonnull align 8 dereferenceable(8) %m_weights60)
          to label %invoke.cont61 unwind label %lpad54

invoke.cont61:                                    ; preds = %for.end59
  %m_solver62 = getelementptr inbounds %class.inc_sat_solver, ptr %this1, i32 0, i32 1
  %36 = load ptr, ptr %out.addr, align 8
  %m_asms63 = getelementptr inbounds %class.inc_sat_solver, ptr %this1, i32 0, i32 17
  %call64 = call noundef i32 @_ZNK6vectorIN3sat7literalELb0EjE4sizeEv(ptr noundef nonnull align 8 dereferenceable(8) %m_asms63)
  %m_asms65 = getelementptr inbounds %class.inc_sat_solver, ptr %this1, i32 0, i32 17
  %call66 = call noundef ptr @_ZNK6vectorIN3sat7literalELb0EjE4dataEv(ptr noundef nonnull align 8 dereferenceable(8) %m_asms65)
  %call68 = invoke noundef ptr @_ZNK6vectorIjLb0EjE4dataEv(ptr noundef nonnull align 8 dereferenceable(8) %nweights)
          to label %invoke.cont67 unwind label %lpad54

invoke.cont67:                                    ; preds = %invoke.cont61
  invoke void @_ZNK3sat6solver12display_wcnfERSojPKNS_7literalEPKj(ptr noundef nonnull align 8 dereferenceable(4408) %m_solver62, ptr noundef nonnull align 8 dereferenceable(8) %36, i32 noundef %call64, ptr noundef %call66, ptr noundef %call68)
          to label %invoke.cont69 unwind label %lpad54

invoke.cont69:                                    ; preds = %invoke.cont67
  call void @_ZN7svectorIjjED2Ev(ptr noundef nonnull align 8 dereferenceable(8) %nweights) #3
  call void @_ZN10ref_vectorI4expr11ast_managerED2Ev(ptr noundef nonnull align 8 dereferenceable(16) %asms) #3
  ret void

ehcleanup71:                                      ; preds = %lpad54, %ehcleanup, %lpad
  call void @_ZN10ref_vectorI4expr11ast_managerED2Ev(ptr noundef nonnull align 8 dereferenceable(16) %asms) #3
  br label %eh.resume

eh.resume:                                        ; preds = %ehcleanup71
  %exn = load ptr, ptr %exn.slot, align 8
  %sel = load i32, ptr %ehselector.slot, align 4
  %lpad.val = insertvalue { ptr, i32 } poison, ptr %exn, 0
  %lpad.val72 = insertvalue { ptr, i32 } %lpad.val, i32 %sel, 1
  resume { ptr, i32 } %lpad.val72
}

; Function Attrs: mustprogress nounwind uwtable
define linkonce_odr hidden noundef ptr @_ZNK6vectorIjLb1EjE4dataEv(ptr noundef nonnull align 8 dereferenceable(8) %this) #4 comdat align 2 {
entry:
  %this.addr = alloca ptr, align 8
  store ptr %this, ptr %this.addr, align 8
  %this1 = load ptr, ptr %this.addr, align 8
  %m_data = getelementptr inbounds %class.vector.103, ptr %this1, i32 0, i32 0
  %0 = load ptr, ptr %m_data, align 8
  ret ptr %0
}

; Function Attrs: mustprogress nounwind uwtable
define linkonce_odr hidden void @_ZN6vectorIjLb1EjED2Ev(ptr noundef nonnull align 8 dereferenceable(8) %this) unnamed_addr #4 comdat align 2 personality ptr @__gxx_personality_v0 {
entry:
  %this.addr = alloca ptr, align 8
  store ptr %this, ptr %this.addr, align 8
  %this1 = load ptr, ptr %this.addr, align 8
  invoke void @_ZN6vectorIjLb1EjE7destroyEv(ptr noundef nonnull align 8 dereferenceable(8) %this1)
          to label %invoke.cont unwind label %terminate.lpad

invoke.cont:                                      ; preds = %entry
  ret void

terminate.lpad:                                   ; preds = %entry
  %0 = landingpad { ptr, i32 }
          catch ptr null
  %1 = extractvalue { ptr, i32 } %0, 0
  call void @__clang_call_terminate(ptr %1) #18
  unreachable
}

; Function Attrs: mustprogress uwtable
define hidden noundef ptr @_Z14mk_psat_tacticR11ast_managerRK10params_ref(ptr noundef nonnull align 8 dereferenceable(976) %m, ptr noundef nonnull align 8 dereferenceable(8) %p) #5 personality ptr @__gxx_personality_v0 {
entry:
  %retval = alloca ptr, align 8
  %m.addr = alloca ptr, align 8
  %p.addr = alloca ptr, align 8
  %pp = alloca %struct.parallel_params, align 8
  %exn.slot = alloca ptr, align 8
  %ehselector.slot = alloca i32, align 4
  %ref.tmp = alloca %class.params_ref, align 8
  %cleanup.cond = alloca i1, align 1
  store ptr %m, ptr %m.addr, align 8
  store ptr %p, ptr %p.addr, align 8
  %0 = load ptr, ptr %p.addr, align 8
  call void @_ZN15parallel_paramsC2ERK10params_ref(ptr noundef nonnull align 8 dereferenceable(16) %pp, ptr noundef nonnull align 8 dereferenceable(8) %0)
  store i1 false, ptr %cleanup.cond, align 1
  %call = invoke noundef zeroext i1 @_ZNK15parallel_params6enableEv(ptr noundef nonnull align 8 dereferenceable(16) %pp)
          to label %invoke.cont unwind label %lpad

invoke.cont:                                      ; preds = %entry
  br i1 %call, label %cond.true, label %cond.false

cond.true:                                        ; preds = %invoke.cont
  %1 = load ptr, ptr %m.addr, align 8
  %2 = load ptr, ptr %p.addr, align 8
  %call2 = invoke noundef ptr @_Z17mk_inc_sat_solverR11ast_managerRK10params_refb(ptr noundef nonnull align 8 dereferenceable(976) %1, ptr noundef nonnull align 8 dereferenceable(8) %2, i1 noundef zeroext false)
          to label %invoke.cont1 unwind label %lpad

invoke.cont1:                                     ; preds = %cond.true
  %3 = load ptr, ptr %p.addr, align 8
  %call4 = invoke noundef ptr @_Z18mk_parallel_tacticP6solverRK10params_ref(ptr noundef %call2, ptr noundef nonnull align 8 dereferenceable(8) %3)
          to label %invoke.cont3 unwind label %lpad

invoke.cont3:                                     ; preds = %invoke.cont1
  br label %cond.end

cond.false:                                       ; preds = %invoke.cont
  %4 = load ptr, ptr %m.addr, align 8
  invoke void @_ZN10params_refC2Ev(ptr noundef nonnull align 8 dereferenceable(8) %ref.tmp)
          to label %invoke.cont5 unwind label %lpad

invoke.cont5:                                     ; preds = %cond.false
  store i1 true, ptr %cleanup.cond, align 1
  %call8 = invoke noundef ptr @_Z13mk_sat_tacticR11ast_managerRK10params_ref(ptr noundef nonnull align 8 dereferenceable(976) %4, ptr noundef nonnull align 8 dereferenceable(8) %ref.tmp)
          to label %invoke.cont7 unwind label %lpad6

invoke.cont7:                                     ; preds = %invoke.cont5
  br label %cond.end

cond.end:                                         ; preds = %invoke.cont7, %invoke.cont3
  %cond = phi ptr [ %call4, %invoke.cont3 ], [ %call8, %invoke.cont7 ]
  store ptr %cond, ptr %retval, align 8
  %cleanup.is_active = load i1, ptr %cleanup.cond, align 1
  br i1 %cleanup.is_active, label %cleanup.action, label %cleanup.done

cleanup.action:                                   ; preds = %cond.end
  call void @_ZN10params_refD1Ev(ptr noundef nonnull align 8 dereferenceable(8) %ref.tmp) #3
  br label %cleanup.done

cleanup.done:                                     ; preds = %cleanup.action, %cond.end
  call void @_ZN15parallel_paramsD2Ev(ptr noundef nonnull align 8 dereferenceable(16) %pp) #3
  %5 = load ptr, ptr %retval, align 8
  ret ptr %5

lpad:                                             ; preds = %cond.false, %invoke.cont1, %cond.true, %entry
  %6 = landingpad { ptr, i32 }
          cleanup
  %7 = extractvalue { ptr, i32 } %6, 0
  store ptr %7, ptr %exn.slot, align 8
  %8 = extractvalue { ptr, i32 } %6, 1
  store i32 %8, ptr %ehselector.slot, align 4
  br label %ehcleanup

lpad6:                                            ; preds = %invoke.cont5
  %9 = landingpad { ptr, i32 }
          cleanup
  %10 = extractvalue { ptr, i32 } %9, 0
  store ptr %10, ptr %exn.slot, align 8
  %11 = extractvalue { ptr, i32 } %9, 1
  store i32 %11, ptr %ehselector.slot, align 4
  %cleanup.is_active9 = load i1, ptr %cleanup.cond, align 1
  br i1 %cleanup.is_active9, label %cleanup.action10, label %cleanup.done11

cleanup.action10:                                 ; preds = %lpad6
  call void @_ZN10params_refD1Ev(ptr noundef nonnull align 8 dereferenceable(8) %ref.tmp) #3
  br label %cleanup.done11

cleanup.done11:                                   ; preds = %cleanup.action10, %lpad6
  br label %ehcleanup

ehcleanup:                                        ; preds = %cleanup.done11, %lpad
  call void @_ZN15parallel_paramsD2Ev(ptr noundef nonnull align 8 dereferenceable(16) %pp) #3
  br label %eh.resume

eh.resume:                                        ; preds = %ehcleanup
  %exn = load ptr, ptr %exn.slot, align 8
  %sel = load i32, ptr %ehselector.slot, align 4
  %lpad.val = insertvalue { ptr, i32 } poison, ptr %exn, 0
  %lpad.val12 = insertvalue { ptr, i32 } %lpad.val, i32 %sel, 1
  resume { ptr, i32 } %lpad.val12
}

; Function Attrs: mustprogress uwtable
define linkonce_odr hidden void @_ZN15parallel_paramsC2ERK10params_ref(ptr noundef nonnull align 8 dereferenceable(16) %this, ptr noundef nonnull align 8 dereferenceable(8) %_p) unnamed_addr #5 comdat align 2 {
entry:
  %this.addr = alloca ptr, align 8
  %_p.addr = alloca ptr, align 8
  store ptr %this, ptr %this.addr, align 8
  store ptr %_p, ptr %_p.addr, align 8
  %this1 = load ptr, ptr %this.addr, align 8
  %p = getelementptr inbounds %struct.parallel_params, ptr %this1, i32 0, i32 0
  %0 = load ptr, ptr %_p.addr, align 8
  store ptr %0, ptr %p, align 8
  %g = getelementptr inbounds %struct.parallel_params, ptr %this1, i32 0, i32 1
  call void @_ZN7gparams10get_moduleEPKc(ptr sret(%class.params_ref) align 8 %g, ptr noundef @.str.59)
  ret void
}

; Function Attrs: mustprogress uwtable
define linkonce_odr hidden noundef zeroext i1 @_ZNK15parallel_params6enableEv(ptr noundef nonnull align 8 dereferenceable(16) %this) #5 comdat align 2 {
entry:
  %this.addr = alloca ptr, align 8
  store ptr %this, ptr %this.addr, align 8
  %this1 = load ptr, ptr %this.addr, align 8
  %p = getelementptr inbounds %struct.parallel_params, ptr %this1, i32 0, i32 0
  %0 = load ptr, ptr %p, align 8
  %g = getelementptr inbounds %struct.parallel_params, ptr %this1, i32 0, i32 1
  %call = call noundef zeroext i1 @_ZNK10params_ref8get_boolEPKcRKS_b(ptr noundef nonnull align 8 dereferenceable(8) %0, ptr noundef @.str.60, ptr noundef nonnull align 8 dereferenceable(8) %g, i1 noundef zeroext false)
  ret i1 %call
}

declare noundef ptr @_Z18mk_parallel_tacticP6solverRK10params_ref(ptr noundef, ptr noundef nonnull align 8 dereferenceable(8)) #1

declare noundef ptr @_Z13mk_sat_tacticR11ast_managerRK10params_ref(ptr noundef nonnull align 8 dereferenceable(976), ptr noundef nonnull align 8 dereferenceable(8)) #1

; Function Attrs: mustprogress nounwind uwtable
define linkonce_odr hidden void @_ZN10params_refC2Ev(ptr noundef nonnull align 8 dereferenceable(8) %this) unnamed_addr #4 comdat align 2 {
entry:
  %this.addr = alloca ptr, align 8
  store ptr %this, ptr %this.addr, align 8
  %this1 = load ptr, ptr %this.addr, align 8
  %m_params = getelementptr inbounds %class.params_ref, ptr %this1, i32 0, i32 0
  store ptr null, ptr %m_params, align 8
  ret void
}

; Function Attrs: nounwind
declare void @_ZN10params_refD1Ev(ptr noundef nonnull align 8 dereferenceable(8)) unnamed_addr #2

; Function Attrs: mustprogress nounwind uwtable
define linkonce_odr hidden void @_ZN15parallel_paramsD2Ev(ptr noundef nonnull align 8 dereferenceable(16) %this) unnamed_addr #4 comdat align 2 {
entry:
  %this.addr = alloca ptr, align 8
  store ptr %this, ptr %this.addr, align 8
  %this1 = load ptr, ptr %this.addr, align 8
  %g = getelementptr inbounds %struct.parallel_params, ptr %this1, i32 0, i32 1
  call void @_ZN10params_refD1Ev(ptr noundef nonnull align 8 dereferenceable(8) %g) #3
  ret void
}

; Function Attrs: mustprogress uwtable
define linkonce_odr hidden void @_ZN6solverC2ER11ast_manager(ptr noundef nonnull align 8 dereferenceable(96) %this, ptr noundef nonnull align 8 dereferenceable(976) %m) unnamed_addr #5 comdat align 2 personality ptr @__gxx_personality_v0 {
entry:
  %this.addr = alloca ptr, align 8
  %m.addr = alloca ptr, align 8
  %exn.slot = alloca ptr, align 8
  %ehselector.slot = alloca i32, align 4
  store ptr %this, ptr %this.addr, align 8
  store ptr %m, ptr %m.addr, align 8
  %this1 = load ptr, ptr %this.addr, align 8
  %0 = load ptr, ptr %m.addr, align 8
  call void @_ZN16check_sat_resultC2ER11ast_manager(ptr noundef nonnull align 8 dereferenceable(72) %this1, ptr noundef nonnull align 8 dereferenceable(976) %0)
  %1 = getelementptr inbounds i8, ptr %this1, i64 72
  call void @_ZN15user_propagator4coreC2Ev(ptr noundef nonnull align 8 dereferenceable(8) %1) #3
  store ptr getelementptr inbounds ({ [48 x ptr], [14 x ptr] }, ptr @_ZTV6solver, i32 0, inrange i32 0, i32 2), ptr %this1, align 8
  %add.ptr = getelementptr inbounds i8, ptr %this1, i64 72
  store ptr getelementptr inbounds ({ [48 x ptr], [14 x ptr] }, ptr @_ZTV6solver, i32 0, inrange i32 1, i32 2), ptr %add.ptr, align 8
  %m_params = getelementptr inbounds %class.solver, ptr %this1, i32 0, i32 2
  invoke void @_ZN10params_refC2Ev(ptr noundef nonnull align 8 dereferenceable(8) %m_params)
          to label %invoke.cont unwind label %lpad

invoke.cont:                                      ; preds = %entry
  %m_cancel_backup_file = getelementptr inbounds %class.solver, ptr %this1, i32 0, i32 3
  invoke void @_ZN6symbolC2Ev(ptr noundef nonnull align 8 dereferenceable(8) %m_cancel_backup_file)
          to label %invoke.cont3 unwind label %lpad2

invoke.cont3:                                     ; preds = %invoke.cont
  ret void

lpad:                                             ; preds = %entry
  %2 = landingpad { ptr, i32 }
          cleanup
  %3 = extractvalue { ptr, i32 } %2, 0
  store ptr %3, ptr %exn.slot, align 8
  %4 = extractvalue { ptr, i32 } %2, 1
  store i32 %4, ptr %ehselector.slot, align 4
  br label %ehcleanup

lpad2:                                            ; preds = %invoke.cont
  %5 = landingpad { ptr, i32 }
          cleanup
  %6 = extractvalue { ptr, i32 } %5, 0
  store ptr %6, ptr %exn.slot, align 8
  %7 = extractvalue { ptr, i32 } %5, 1
  store i32 %7, ptr %ehselector.slot, align 4
  call void @_ZN10params_refD1Ev(ptr noundef nonnull align 8 dereferenceable(8) %m_params) #3
  br label %ehcleanup

ehcleanup:                                        ; preds = %lpad2, %lpad
  %8 = getelementptr inbounds i8, ptr %this1, i64 72
  call void @_ZN15user_propagator4coreD2Ev(ptr noundef nonnull align 8 dereferenceable(8) %8) #3
  call void @_ZN16check_sat_resultD2Ev(ptr noundef nonnull align 8 dereferenceable(72) %this1) #3
  br label %eh.resume

eh.resume:                                        ; preds = %ehcleanup
  %exn = load ptr, ptr %exn.slot, align 8
  %sel = load i32, ptr %ehselector.slot, align 4
  %lpad.val = insertvalue { ptr, i32 } poison, ptr %exn, 0
  %lpad.val5 = insertvalue { ptr, i32 } %lpad.val, i32 %sel, 1
  resume { ptr, i32 } %lpad.val5
}

; Function Attrs: mustprogress nounwind uwtable
define linkonce_odr hidden noundef nonnull align 8 dereferenceable(40) ptr @_ZN11ast_manager5limitEv(ptr noundef nonnull align 8 dereferenceable(976) %this) #4 comdat align 2 {
entry:
  %this.addr = alloca ptr, align 8
  store ptr %this, ptr %this.addr, align 8
  %this1 = load ptr, ptr %this.addr, align 8
  %m_limit = getelementptr inbounds %class.ast_manager, ptr %this1, i32 0, i32 0
  ret ptr %m_limit
}

declare void @_ZN3sat6solverC1ERK10params_refR8reslimit(ptr noundef nonnull align 8 dereferenceable(4408), ptr noundef nonnull align 8 dereferenceable(8), ptr noundef nonnull align 8 dereferenceable(40)) unnamed_addr #1

; Function Attrs: mustprogress nounwind uwtable
define linkonce_odr hidden void @_ZN13stacked_valueIbEC2EOKb(ptr noundef nonnull align 8 dereferenceable(16) %this, ptr noundef nonnull align 1 dereferenceable(1) %m) unnamed_addr #4 comdat align 2 {
entry:
  %this.addr = alloca ptr, align 8
  %m.addr = alloca ptr, align 8
  store ptr %this, ptr %this.addr, align 8
  store ptr %m, ptr %m.addr, align 8
  %this1 = load ptr, ptr %this.addr, align 8
  %m_stack = getelementptr inbounds %class.stacked_value, ptr %this1, i32 0, i32 1
  call void @_ZN6vectorIbLb1EjEC2Ev(ptr noundef nonnull align 8 dereferenceable(8) %m_stack) #3
  %0 = load ptr, ptr %m.addr, align 8
  %1 = load i8, ptr %0, align 1
  %tobool = trunc i8 %1 to i1
  %m_value = getelementptr inbounds %class.stacked_value, ptr %this1, i32 0, i32 0
  %frombool = zext i1 %tobool to i8
  store i8 %frombool, ptr %m_value, align 8
  ret void
}

declare void @_ZN8goal2satC1Ev(ptr noundef nonnull align 8 dereferenceable(12)) unnamed_addr #1

; Function Attrs: mustprogress uwtable
define linkonce_odr hidden void @_ZN10ref_vectorI4expr11ast_managerEC2ERS1_(ptr noundef nonnull align 8 dereferenceable(16) %this, ptr noundef nonnull align 8 dereferenceable(976) %m) unnamed_addr #5 comdat align 2 {
entry:
  %this.addr = alloca ptr, align 8
  %m.addr = alloca ptr, align 8
  %ref.tmp = alloca %class.ref_manager_wrapper, align 8
  store ptr %this, ptr %this.addr, align 8
  store ptr %m, ptr %m.addr, align 8
  %this1 = load ptr, ptr %this.addr, align 8
  %0 = load ptr, ptr %m.addr, align 8
  call void @_ZN19ref_manager_wrapperI4expr11ast_managerEC2ERS1_(ptr noundef nonnull align 8 dereferenceable(8) %ref.tmp, ptr noundef nonnull align 8 dereferenceable(976) %0)
  call void @_ZN15ref_vector_coreI4expr19ref_manager_wrapperIS0_11ast_managerEEC2ERKS3_(ptr noundef nonnull align 8 dereferenceable(16) %this1, ptr noundef nonnull align 8 dereferenceable(8) %ref.tmp)
  ret void
}

; Function Attrs: mustprogress nounwind uwtable
define linkonce_odr hidden void @_ZN7svectorIjjEC2Ev(ptr noundef nonnull align 8 dereferenceable(8) %this) unnamed_addr #4 comdat align 2 {
entry:
  %this.addr = alloca ptr, align 8
  store ptr %this, ptr %this.addr, align 8
  %this1 = load ptr, ptr %this.addr, align 8
  %0 = getelementptr inbounds i8, ptr %this1, i64 0
  call void @llvm.memset.p0.i64(ptr align 8 %0, i8 0, i64 8, i1 false)
  call void @_ZN6vectorIjLb0EjEC2Ev(ptr noundef nonnull align 8 dereferenceable(8) %this1) #3
  ret void
}

; Function Attrs: mustprogress uwtable
define linkonce_odr hidden void @_ZN13atom2bool_varC2ER11ast_manager(ptr noundef nonnull align 8 dereferenceable(41) %this, ptr noundef nonnull align 8 dereferenceable(976) %m) unnamed_addr #5 comdat align 2 {
entry:
  %this.addr = alloca ptr, align 8
  %m.addr = alloca ptr, align 8
  store ptr %this, ptr %this.addr, align 8
  store ptr %m, ptr %m.addr, align 8
  %this1 = load ptr, ptr %this.addr, align 8
  %0 = load ptr, ptr %m.addr, align 8
  call void @_ZN8expr2varC2ER11ast_manager(ptr noundef nonnull align 8 dereferenceable(41) %this1, ptr noundef nonnull align 8 dereferenceable(976) %0)
  ret void
}

; Function Attrs: mustprogress nounwind uwtable
define linkonce_odr hidden void @_ZN10scoped_ptrI20bit_blaster_rewriterEC2EPS0_(ptr noundef nonnull align 8 dereferenceable(8) %this, ptr noundef %ptr) unnamed_addr #4 comdat align 2 {
entry:
  %this.addr = alloca ptr, align 8
  %ptr.addr = alloca ptr, align 8
  store ptr %this, ptr %this.addr, align 8
  store ptr %ptr, ptr %ptr.addr, align 8
  %this1 = load ptr, ptr %this.addr, align 8
  %m_ptr = getelementptr inbounds %class.scoped_ptr.56, ptr %this1, i32 0, i32 0
  %0 = load ptr, ptr %ptr.addr, align 8
  store ptr %0, ptr %m_ptr, align 8
  ret void
}

; Function Attrs: mustprogress nounwind uwtable
define linkonce_odr hidden void @_ZN3refI6tacticEC2Ev(ptr noundef nonnull align 8 dereferenceable(8) %this) unnamed_addr #4 comdat align 2 {
entry:
  %this.addr = alloca ptr, align 8
  store ptr %this, ptr %this.addr, align 8
  %this1 = load ptr, ptr %this.addr, align 8
  %m_ptr = getelementptr inbounds %class.ref.57, ptr %this1, i32 0, i32 0
  store ptr null, ptr %m_ptr, align 8
  ret void
}

; Function Attrs: mustprogress nounwind uwtable
define linkonce_odr hidden void @_ZN7svectorIN3sat7literalEjEC2Ev(ptr noundef nonnull align 8 dereferenceable(8) %this) unnamed_addr #4 comdat align 2 {
entry:
  %this.addr = alloca ptr, align 8
  store ptr %this, ptr %this.addr, align 8
  %this1 = load ptr, ptr %this.addr, align 8
  %0 = getelementptr inbounds i8, ptr %this1, i64 0
  call void @llvm.memset.p0.i64(ptr align 8 %0, i8 0, i64 8, i1 false)
  call void @_ZN6vectorIN3sat7literalELb0EjEC2Ev(ptr noundef nonnull align 8 dereferenceable(8) %this1) #3
  ret void
}

; Function Attrs: mustprogress uwtable
define linkonce_odr hidden void @_ZN11sref_bufferI4goalLj16EEC2Ev(ptr noundef nonnull align 8 dereferenceable(144) %this) unnamed_addr #5 comdat align 2 {
entry:
  %this.addr = alloca ptr, align 8
  %ref.tmp = alloca %class.ref_unmanaged_wrapper, align 1
  store ptr %this, ptr %this.addr, align 8
  %this1 = load ptr, ptr %this.addr, align 8
  call void @_ZN15ref_buffer_coreI4goal21ref_unmanaged_wrapperIS0_ELj16EEC2ERKS2_(ptr noundef nonnull align 8 dereferenceable(144) %this1, ptr noundef nonnull align 1 dereferenceable(1) %ref.tmp)
  ret void
}

; Function Attrs: mustprogress nounwind uwtable
define linkonce_odr hidden void @_ZN3refI15proof_converterEC2Ev(ptr noundef nonnull align 8 dereferenceable(8) %this) unnamed_addr #4 comdat align 2 {
entry:
  %this.addr = alloca ptr, align 8
  store ptr %this, ptr %this.addr, align 8
  %this1 = load ptr, ptr %this.addr, align 8
  %m_ptr = getelementptr inbounds %class.ref.58, ptr %this1, i32 0, i32 0
  store ptr null, ptr %m_ptr, align 8
  ret void
}

; Function Attrs: mustprogress uwtable
define linkonce_odr hidden void @_ZN15ref_vector_coreI15model_converter21ref_unmanaged_wrapperIS0_EEC2Ev(ptr noundef nonnull align 8 dereferenceable(8) %this) unnamed_addr #5 comdat align 2 {
entry:
  %this.addr = alloca ptr, align 8
  store ptr %this, ptr %this.addr, align 8
  %this1 = load ptr, ptr %this.addr, align 8
  %m_nodes = getelementptr inbounds %class.ref_vector_core.59, ptr %this1, i32 0, i32 0
  call void @_ZN10ptr_vectorI15model_converterEC2Ev(ptr noundef nonnull align 8 dereferenceable(8) %m_nodes)
  ret void
}

; Function Attrs: mustprogress nounwind uwtable
define linkonce_odr hidden void @_ZN3refI15model_converterEC2Ev(ptr noundef nonnull align 8 dereferenceable(8) %this) unnamed_addr #4 comdat align 2 {
entry:
  %this.addr = alloca ptr, align 8
  store ptr %this, ptr %this.addr, align 8
  %this1 = load ptr, ptr %this.addr, align 8
  %m_ptr = getelementptr inbounds %class.ref, ptr %this1, i32 0, i32 0
  store ptr null, ptr %m_ptr, align 8
  ret void
}

; Function Attrs: mustprogress uwtable
define linkonce_odr hidden void @_ZN13obj_hashtableI9func_declEC2Ej(ptr noundef nonnull align 8 dereferenceable(20) %this, i32 noundef %initial_capacity) unnamed_addr #5 comdat align 2 {
entry:
  %this.addr = alloca ptr, align 8
  %initial_capacity.addr = alloca i32, align 4
  %ref.tmp = alloca %struct.obj_ptr_hash, align 1
  %ref.tmp2 = alloca %struct.ptr_eq, align 1
  store ptr %this, ptr %this.addr, align 8
  store i32 %initial_capacity, ptr %initial_capacity.addr, align 4
  %this1 = load ptr, ptr %this.addr, align 8
  %0 = load i32, ptr %initial_capacity.addr, align 4
  call void @_ZN14core_hashtableI14obj_hash_entryI9func_declE12obj_ptr_hashIS1_E6ptr_eqIS1_EEC2EjRKS4_RKS6_(ptr noundef nonnull align 8 dereferenceable(20) %this1, i32 noundef %0, ptr noundef nonnull align 1 dereferenceable(1) %ref.tmp, ptr noundef nonnull align 1 dereferenceable(1) %ref.tmp2)
  ret void
}

; Function Attrs: mustprogress nounwind uwtable
define linkonce_odr hidden void @_ZN3refIN8sat2goal2mcEEC2Ev(ptr noundef nonnull align 8 dereferenceable(8) %this) unnamed_addr #4 comdat align 2 {
entry:
  %this.addr = alloca ptr, align 8
  store ptr %this, ptr %this.addr, align 8
  %this1 = load ptr, ptr %this.addr, align 8
  %m_ptr = getelementptr inbounds %class.ref.65, ptr %this1, i32 0, i32 0
  store ptr null, ptr %m_ptr, align 8
  ret void
}

; Function Attrs: mustprogress nounwind uwtable
define linkonce_odr hidden void @_ZN7svectorIdjEC2Ev(ptr noundef nonnull align 8 dereferenceable(8) %this) unnamed_addr #4 comdat align 2 {
entry:
  %this.addr = alloca ptr, align 8
  store ptr %this, ptr %this.addr, align 8
  %this1 = load ptr, ptr %this.addr, align 8
  %0 = getelementptr inbounds i8, ptr %this1, i64 0
  call void @llvm.memset.p0.i64(ptr align 8 %0, i8 0, i64 8, i1 false)
  call void @_ZN6vectorIdLb0EjEC2Ev(ptr noundef nonnull align 8 dereferenceable(8) %this1) #3
  ret void
}

; Function Attrs: mustprogress uwtable
define linkonce_odr hidden void @_ZN7obj_mapI4exprN3sat7literalEEC2Ev(ptr noundef nonnull align 8 dereferenceable(24) %this) unnamed_addr #5 comdat align 2 {
entry:
  %this.addr = alloca ptr, align 8
  %ref.tmp = alloca %struct.obj_hash, align 1
  %ref.tmp2 = alloca %struct.default_eq, align 1
  store ptr %this, ptr %this.addr, align 8
  %this1 = load ptr, ptr %this.addr, align 8
  %m_table = getelementptr inbounds %class.obj_map, ptr %this1, i32 0, i32 0
  call void @_ZN14core_hashtableIN7obj_mapI4exprN3sat7literalEE13obj_map_entryE8obj_hashINS4_8key_dataEE10default_eqIS7_EEC2EjRKS8_RKSA_(ptr noundef nonnull align 8 dereferenceable(20) %m_table, i32 noundef 8, ptr noundef nonnull align 1 dereferenceable(1) %ref.tmp, ptr noundef nonnull align 1 dereferenceable(1) %ref.tmp2)
  ret void
}

; Function Attrs: mustprogress nounwind uwtable
define linkonce_odr hidden void @_ZN6vectorI8rationalLb1EjEC2Ev(ptr noundef nonnull align 8 dereferenceable(8) %this) unnamed_addr #4 comdat align 2 {
entry:
  %this.addr = alloca ptr, align 8
  store ptr %this, ptr %this.addr, align 8
  %this1 = load ptr, ptr %this.addr, align 8
  %m_data = getelementptr inbounds %class.vector.70, ptr %this1, i32 0, i32 0
  store ptr null, ptr %m_data, align 8
  ret void
}

; Function Attrs: mustprogress uwtable
define linkonce_odr hidden noundef nonnull align 8 dereferenceable(8) ptr @_ZN15ref_vector_coreI15model_converter21ref_unmanaged_wrapperIS0_EE9push_backEPS0_(ptr noundef nonnull align 8 dereferenceable(8) %this, ptr noundef %n) #5 comdat align 2 {
entry:
  %this.addr = alloca ptr, align 8
  %n.addr = alloca ptr, align 8
  store ptr %this, ptr %this.addr, align 8
  store ptr %n, ptr %n.addr, align 8
  %this1 = load ptr, ptr %this.addr, align 8
  %0 = load ptr, ptr %n.addr, align 8
  call void @_ZN15ref_vector_coreI15model_converter21ref_unmanaged_wrapperIS0_EE7inc_refEPS0_(ptr noundef nonnull align 8 dereferenceable(8) %this1, ptr noundef %0)
  %m_nodes = getelementptr inbounds %class.ref_vector_core.59, ptr %this1, i32 0, i32 0
  %call = call noundef nonnull align 8 dereferenceable(8) ptr @_ZN6vectorIP15model_converterLb0EjE9push_backERKS1_(ptr noundef nonnull align 8 dereferenceable(8) %m_nodes, ptr noundef nonnull align 8 dereferenceable(8) %n.addr)
  ret ptr %this1
}

; Function Attrs: mustprogress uwtable
define linkonce_odr hidden void @_ZN14inc_sat_solver15init_preprocessEv(ptr noundef nonnull align 8 dereferenceable(5008) %this) #5 comdat align 2 personality ptr @__gxx_personality_v0 {
entry:
  %this.addr = alloca ptr, align 8
  %simp1_p = alloca %class.params_ref, align 8
  %exn.slot = alloca ptr, align 8
  %ehselector.slot = alloca i32, align 4
  %simp2_p = alloca %class.params_ref, align 8
  %sp = alloca %struct.sat_params, align 8
  %ref.tmp = alloca %class.params_ref, align 8
  %ref.tmp35 = alloca %class.params_ref, align 8
  %ref.tmp46 = alloca %class.params_ref, align 8
  %ref.tmp52 = alloca %class.params_ref, align 8
  %ref.tmp62 = alloca %class.params_ref, align 8
  %ref.tmp70 = alloca %class.params_ref, align 8
  %ref.tmp79 = alloca %class.params_ref, align 8
  %ref.tmp85 = alloca %class.params_ref, align 8
  store ptr %this, ptr %this.addr, align 8
  %this1 = load ptr, ptr %this.addr, align 8
  %m_preprocess = getelementptr inbounds %class.inc_sat_solver, ptr %this1, i32 0, i32 14
  %call = call noundef zeroext i1 @_ZNK3refI6tacticEcvbEv(ptr noundef nonnull align 8 dereferenceable(8) %m_preprocess)
  br i1 %call, label %if.then, label %if.end

if.then:                                          ; preds = %entry
  %m_preprocess2 = getelementptr inbounds %class.inc_sat_solver, ptr %this1, i32 0, i32 14
  %call3 = call noundef ptr @_ZNK3refI6tacticEptEv(ptr noundef nonnull align 8 dereferenceable(8) %m_preprocess2)
  %vtable = load ptr, ptr %call3, align 8
  %vfn = getelementptr inbounds ptr, ptr %vtable, i64 18
  %0 = load ptr, ptr %vfn, align 8
  call void %0(ptr noundef nonnull align 8 dereferenceable(12) %call3)
  br label %if.end

if.end:                                           ; preds = %if.then, %entry
  %m_bb_rewriter = getelementptr inbounds %class.inc_sat_solver, ptr %this1, i32 0, i32 13
  %call4 = call noundef zeroext i1 @_ZNK10scoped_ptrI20bit_blaster_rewriterEcvbEv(ptr noundef nonnull align 8 dereferenceable(8) %m_bb_rewriter)
  br i1 %call4, label %if.end9, label %if.then5

if.then5:                                         ; preds = %if.end
  %call6 = call noalias noundef ptr @_ZN6memory8allocateEm(i64 noundef 8)
  %m = getelementptr inbounds %class.check_sat_result, ptr %this1, i32 0, i32 1
  %1 = load ptr, ptr %m, align 8
  %m_params = getelementptr inbounds %class.inc_sat_solver, ptr %this1, i32 0, i32 4
  call void @_ZN20bit_blaster_rewriterC1ER11ast_managerRK10params_ref(ptr noundef nonnull align 8 dereferenceable(8) %call6, ptr noundef nonnull align 8 dereferenceable(976) %1, ptr noundef nonnull align 8 dereferenceable(8) %m_params)
  %m_bb_rewriter7 = getelementptr inbounds %class.inc_sat_solver, ptr %this1, i32 0, i32 13
  %call8 = call noundef nonnull align 8 dereferenceable(8) ptr @_ZN10scoped_ptrI20bit_blaster_rewriterEaSEPS0_(ptr noundef nonnull align 8 dereferenceable(8) %m_bb_rewriter7, ptr noundef %call6)
  br label %if.end9

if.end9:                                          ; preds = %if.then5, %if.end
  %m_params10 = getelementptr inbounds %class.inc_sat_solver, ptr %this1, i32 0, i32 4
  call void @_ZN10params_refC1ERKS_(ptr noundef nonnull align 8 dereferenceable(8) %simp1_p, ptr noundef nonnull align 8 dereferenceable(8) %m_params10)
  invoke void @_ZN10params_ref8set_boolEPKcb(ptr noundef nonnull align 8 dereferenceable(8) %simp1_p, ptr noundef @.str.6, i1 noundef zeroext true)
          to label %invoke.cont unwind label %lpad

invoke.cont:                                      ; preds = %if.end9
  invoke void @_ZN10params_ref8set_boolEPKcb(ptr noundef nonnull align 8 dereferenceable(8) %simp1_p, ptr noundef @.str.7, i1 noundef zeroext true)
          to label %invoke.cont11 unwind label %lpad

invoke.cont11:                                    ; preds = %invoke.cont
  invoke void @_ZN10params_ref8set_boolEPKcb(ptr noundef nonnull align 8 dereferenceable(8) %simp1_p, ptr noundef @.str.8, i1 noundef zeroext false)
          to label %invoke.cont12 unwind label %lpad

invoke.cont12:                                    ; preds = %invoke.cont11
  invoke void @_ZN10params_ref8set_boolEPKcb(ptr noundef nonnull align 8 dereferenceable(8) %simp1_p, ptr noundef @.str.9, i1 noundef zeroext true)
          to label %invoke.cont13 unwind label %lpad

invoke.cont13:                                    ; preds = %invoke.cont12
  invoke void @_ZN10params_ref8set_uintEPKcj(ptr noundef nonnull align 8 dereferenceable(8) %simp1_p, ptr noundef @.str.10, i32 noundef 10000000)
          to label %invoke.cont14 unwind label %lpad

invoke.cont14:                                    ; preds = %invoke.cont13
  invoke void @_ZN10params_ref8set_boolEPKcb(ptr noundef nonnull align 8 dereferenceable(8) %simp1_p, ptr noundef @.str.11, i1 noundef zeroext true)
          to label %invoke.cont15 unwind label %lpad

invoke.cont15:                                    ; preds = %invoke.cont14
  invoke void @_ZN10params_ref8set_boolEPKcb(ptr noundef nonnull align 8 dereferenceable(8) %simp1_p, ptr noundef @.str.12, i1 noundef zeroext false)
          to label %invoke.cont16 unwind label %lpad

invoke.cont16:                                    ; preds = %invoke.cont15
  invoke void @_ZN10params_ref8set_boolEPKcb(ptr noundef nonnull align 8 dereferenceable(8) %simp1_p, ptr noundef @.str.13, i1 noundef zeroext true)
          to label %invoke.cont17 unwind label %lpad

invoke.cont17:                                    ; preds = %invoke.cont16
  invoke void @_ZN10params_ref8set_boolEPKcb(ptr noundef nonnull align 8 dereferenceable(8) %simp1_p, ptr noundef @.str.14, i1 noundef zeroext true)
          to label %invoke.cont18 unwind label %lpad

invoke.cont18:                                    ; preds = %invoke.cont17
  %m_params19 = getelementptr inbounds %class.inc_sat_solver, ptr %this1, i32 0, i32 4
  invoke void @_ZN10params_refC1ERKS_(ptr noundef nonnull align 8 dereferenceable(8) %simp2_p, ptr noundef nonnull align 8 dereferenceable(8) %m_params19)
          to label %invoke.cont20 unwind label %lpad

invoke.cont20:                                    ; preds = %invoke.cont18
  invoke void @_ZN10params_ref8set_boolEPKcb(ptr noundef nonnull align 8 dereferenceable(8) %simp2_p, ptr noundef @.str.11, i1 noundef zeroext false)
          to label %invoke.cont22 unwind label %lpad21

invoke.cont22:                                    ; preds = %invoke.cont20
  %m_params23 = getelementptr inbounds %class.inc_sat_solver, ptr %this1, i32 0, i32 4
  invoke void @_ZN10sat_paramsC2ERK10params_ref(ptr noundef nonnull align 8 dereferenceable(16) %sp, ptr noundef nonnull align 8 dereferenceable(8) %m_params23)
          to label %invoke.cont24 unwind label %lpad21

invoke.cont24:                                    ; preds = %invoke.cont22
  %call27 = invoke noundef zeroext i1 @_ZNK10sat_params3eufEv(ptr noundef nonnull align 8 dereferenceable(16) %sp)
          to label %invoke.cont26 unwind label %lpad25

invoke.cont26:                                    ; preds = %invoke.cont24
  br i1 %call27, label %if.then28, label %if.else

if.then28:                                        ; preds = %invoke.cont26
  %m29 = getelementptr inbounds %class.check_sat_result, ptr %this1, i32 0, i32 1
  %2 = load ptr, ptr %m29, align 8
  invoke void @_ZN10params_refC2Ev(ptr noundef nonnull align 8 dereferenceable(8) %ref.tmp)
          to label %invoke.cont30 unwind label %lpad25

invoke.cont30:                                    ; preds = %if.then28
  %call33 = invoke noundef ptr @_Z18mk_simplify_tacticR11ast_managerRK10params_ref(ptr noundef nonnull align 8 dereferenceable(976) %2, ptr noundef nonnull align 8 dereferenceable(8) %ref.tmp)
          to label %invoke.cont32 unwind label %lpad31

invoke.cont32:                                    ; preds = %invoke.cont30
  %m34 = getelementptr inbounds %class.check_sat_result, ptr %this1, i32 0, i32 1
  %3 = load ptr, ptr %m34, align 8
  invoke void @_ZN10params_refC2Ev(ptr noundef nonnull align 8 dereferenceable(8) %ref.tmp35)
          to label %invoke.cont36 unwind label %lpad31

invoke.cont36:                                    ; preds = %invoke.cont32
  %call39 = invoke noundef ptr @_Z26mk_propagate_values_tacticR11ast_managerRK10params_ref(ptr noundef nonnull align 8 dereferenceable(976) %3, ptr noundef nonnull align 8 dereferenceable(8) %ref.tmp35)
          to label %invoke.cont38 unwind label %lpad37

invoke.cont38:                                    ; preds = %invoke.cont36
  %call41 = invoke noundef ptr @_Z8and_thenP6tacticS0_(ptr noundef %call33, ptr noundef %call39)
          to label %invoke.cont40 unwind label %lpad37

invoke.cont40:                                    ; preds = %invoke.cont38
  %m_preprocess42 = getelementptr inbounds %class.inc_sat_solver, ptr %this1, i32 0, i32 14
  %call44 = invoke noundef nonnull align 8 dereferenceable(8) ptr @_ZN3refI6tacticEaSEPS0_(ptr noundef nonnull align 8 dereferenceable(8) %m_preprocess42, ptr noundef %call41)
          to label %invoke.cont43 unwind label %lpad37

invoke.cont43:                                    ; preds = %invoke.cont40
  call void @_ZN10params_refD1Ev(ptr noundef nonnull align 8 dereferenceable(8) %ref.tmp35) #3
  call void @_ZN10params_refD1Ev(ptr noundef nonnull align 8 dereferenceable(8) %ref.tmp) #3
  br label %if.end103

lpad:                                             ; preds = %invoke.cont18, %invoke.cont17, %invoke.cont16, %invoke.cont15, %invoke.cont14, %invoke.cont13, %invoke.cont12, %invoke.cont11, %invoke.cont, %if.end9
  %4 = landingpad { ptr, i32 }
          cleanup
  %5 = extractvalue { ptr, i32 } %4, 0
  store ptr %5, ptr %exn.slot, align 8
  %6 = extractvalue { ptr, i32 } %4, 1
  store i32 %6, ptr %ehselector.slot, align 4
  br label %ehcleanup121

lpad21:                                           ; preds = %invoke.cont22, %invoke.cont20
  %7 = landingpad { ptr, i32 }
          cleanup
  %8 = extractvalue { ptr, i32 } %7, 0
  store ptr %8, ptr %exn.slot, align 8
  %9 = extractvalue { ptr, i32 } %7, 1
  store i32 %9, ptr %ehselector.slot, align 4
  br label %ehcleanup120

lpad25:                                           ; preds = %invoke.cont114, %while.end, %invoke.cont110, %while.body, %invoke.cont105, %while.cond, %if.else, %if.then28, %invoke.cont24
  %10 = landingpad { ptr, i32 }
          cleanup
  %11 = extractvalue { ptr, i32 } %10, 0
  store ptr %11, ptr %exn.slot, align 8
  %12 = extractvalue { ptr, i32 } %10, 1
  store i32 %12, ptr %ehselector.slot, align 4
  br label %ehcleanup119

lpad31:                                           ; preds = %invoke.cont32, %invoke.cont30
  %13 = landingpad { ptr, i32 }
          cleanup
  %14 = extractvalue { ptr, i32 } %13, 0
  store ptr %14, ptr %exn.slot, align 8
  %15 = extractvalue { ptr, i32 } %13, 1
  store i32 %15, ptr %ehselector.slot, align 4
  br label %ehcleanup

lpad37:                                           ; preds = %invoke.cont40, %invoke.cont38, %invoke.cont36
  %16 = landingpad { ptr, i32 }
          cleanup
  %17 = extractvalue { ptr, i32 } %16, 0
  store ptr %17, ptr %exn.slot, align 8
  %18 = extractvalue { ptr, i32 } %16, 1
  store i32 %18, ptr %ehselector.slot, align 4
  call void @_ZN10params_refD1Ev(ptr noundef nonnull align 8 dereferenceable(8) %ref.tmp35) #3
  br label %ehcleanup

ehcleanup:                                        ; preds = %lpad37, %lpad31
  call void @_ZN10params_refD1Ev(ptr noundef nonnull align 8 dereferenceable(8) %ref.tmp) #3
  br label %ehcleanup119

if.else:                                          ; preds = %invoke.cont26
  %m45 = getelementptr inbounds %class.check_sat_result, ptr %this1, i32 0, i32 1
  %19 = load ptr, ptr %m45, align 8
  invoke void @_ZN10params_refC2Ev(ptr noundef nonnull align 8 dereferenceable(8) %ref.tmp46)
          to label %invoke.cont47 unwind label %lpad25

invoke.cont47:                                    ; preds = %if.else
  %call50 = invoke noundef ptr @_Z18mk_simplify_tacticR11ast_managerRK10params_ref(ptr noundef nonnull align 8 dereferenceable(976) %19, ptr noundef nonnull align 8 dereferenceable(8) %ref.tmp46)
          to label %invoke.cont49 unwind label %lpad48

invoke.cont49:                                    ; preds = %invoke.cont47
  %m51 = getelementptr inbounds %class.check_sat_result, ptr %this1, i32 0, i32 1
  %20 = load ptr, ptr %m51, align 8
  invoke void @_ZN10params_refC2Ev(ptr noundef nonnull align 8 dereferenceable(8) %ref.tmp52)
          to label %invoke.cont53 unwind label %lpad48

invoke.cont53:                                    ; preds = %invoke.cont49
  %call56 = invoke noundef ptr @_Z26mk_propagate_values_tacticR11ast_managerRK10params_ref(ptr noundef nonnull align 8 dereferenceable(976) %20, ptr noundef nonnull align 8 dereferenceable(8) %ref.tmp52)
          to label %invoke.cont55 unwind label %lpad54

invoke.cont55:                                    ; preds = %invoke.cont53
  %m57 = getelementptr inbounds %class.check_sat_result, ptr %this1, i32 0, i32 1
  %21 = load ptr, ptr %m57, align 8
  %m_params58 = getelementptr inbounds %class.inc_sat_solver, ptr %this1, i32 0, i32 4
  %call60 = invoke noundef ptr @_Z17mk_card2bv_tacticR11ast_managerRK10params_ref(ptr noundef nonnull align 8 dereferenceable(976) %21, ptr noundef nonnull align 8 dereferenceable(8) %m_params58)
          to label %invoke.cont59 unwind label %lpad54

invoke.cont59:                                    ; preds = %invoke.cont55
  %m61 = getelementptr inbounds %class.check_sat_result, ptr %this1, i32 0, i32 1
  %22 = load ptr, ptr %m61, align 8
  invoke void @_ZN10params_refC2Ev(ptr noundef nonnull align 8 dereferenceable(8) %ref.tmp62)
          to label %invoke.cont63 unwind label %lpad54

invoke.cont63:                                    ; preds = %invoke.cont59
  %call66 = invoke noundef ptr @_Z18mk_simplify_tacticR11ast_managerRK10params_ref(ptr noundef nonnull align 8 dereferenceable(976) %22, ptr noundef nonnull align 8 dereferenceable(8) %ref.tmp62)
          to label %invoke.cont65 unwind label %lpad64

invoke.cont65:                                    ; preds = %invoke.cont63
  %call68 = invoke noundef ptr @_Z12using_paramsP6tacticRK10params_ref(ptr noundef %call66, ptr noundef nonnull align 8 dereferenceable(8) %simp1_p)
          to label %invoke.cont67 unwind label %lpad64

invoke.cont67:                                    ; preds = %invoke.cont65
  %m69 = getelementptr inbounds %class.check_sat_result, ptr %this1, i32 0, i32 1
  %23 = load ptr, ptr %m69, align 8
  invoke void @_ZN10params_refC2Ev(ptr noundef nonnull align 8 dereferenceable(8) %ref.tmp70)
          to label %invoke.cont71 unwind label %lpad64

invoke.cont71:                                    ; preds = %invoke.cont67
  %call74 = invoke noundef ptr @_Z24mk_max_bv_sharing_tacticR11ast_managerRK10params_ref(ptr noundef nonnull align 8 dereferenceable(976) %23, ptr noundef nonnull align 8 dereferenceable(8) %ref.tmp70)
          to label %invoke.cont73 unwind label %lpad72

invoke.cont73:                                    ; preds = %invoke.cont71
  %m75 = getelementptr inbounds %class.check_sat_result, ptr %this1, i32 0, i32 1
  %24 = load ptr, ptr %m75, align 8
  %m_bb_rewriter76 = getelementptr inbounds %class.inc_sat_solver, ptr %this1, i32 0, i32 13
  %call78 = invoke noundef ptr @_ZNK10scoped_ptrI20bit_blaster_rewriterE3getEv(ptr noundef nonnull align 8 dereferenceable(8) %m_bb_rewriter76)
          to label %invoke.cont77 unwind label %lpad72

invoke.cont77:                                    ; preds = %invoke.cont73
  invoke void @_ZN10params_refC2Ev(ptr noundef nonnull align 8 dereferenceable(8) %ref.tmp79)
          to label %invoke.cont80 unwind label %lpad72

invoke.cont80:                                    ; preds = %invoke.cont77
  %call83 = invoke noundef ptr @_Z21mk_bit_blaster_tacticR11ast_managerP20bit_blaster_rewriterRK10params_ref(ptr noundef nonnull align 8 dereferenceable(976) %24, ptr noundef %call78, ptr noundef nonnull align 8 dereferenceable(8) %ref.tmp79)
          to label %invoke.cont82 unwind label %lpad81

invoke.cont82:                                    ; preds = %invoke.cont80
  %m84 = getelementptr inbounds %class.check_sat_result, ptr %this1, i32 0, i32 1
  %25 = load ptr, ptr %m84, align 8
  invoke void @_ZN10params_refC2Ev(ptr noundef nonnull align 8 dereferenceable(8) %ref.tmp85)
          to label %invoke.cont86 unwind label %lpad81

invoke.cont86:                                    ; preds = %invoke.cont82
  %call89 = invoke noundef ptr @_Z18mk_simplify_tacticR11ast_managerRK10params_ref(ptr noundef nonnull align 8 dereferenceable(976) %25, ptr noundef nonnull align 8 dereferenceable(8) %ref.tmp85)
          to label %invoke.cont88 unwind label %lpad87

invoke.cont88:                                    ; preds = %invoke.cont86
  %call91 = invoke noundef ptr @_Z12using_paramsP6tacticRK10params_ref(ptr noundef %call89, ptr noundef nonnull align 8 dereferenceable(8) %simp2_p)
          to label %invoke.cont90 unwind label %lpad87

invoke.cont90:                                    ; preds = %invoke.cont88
  %call93 = invoke noundef ptr @_Z8and_thenP6tacticS0_S0_S0_S0_S0_S0_(ptr noundef %call50, ptr noundef %call56, ptr noundef %call60, ptr noundef %call68, ptr noundef %call74, ptr noundef %call83, ptr noundef %call91)
          to label %invoke.cont92 unwind label %lpad87

invoke.cont92:                                    ; preds = %invoke.cont90
  %m_preprocess94 = getelementptr inbounds %class.inc_sat_solver, ptr %this1, i32 0, i32 14
  %call96 = invoke noundef nonnull align 8 dereferenceable(8) ptr @_ZN3refI6tacticEaSEPS0_(ptr noundef nonnull align 8 dereferenceable(8) %m_preprocess94, ptr noundef %call93)
          to label %invoke.cont95 unwind label %lpad87

invoke.cont95:                                    ; preds = %invoke.cont92
  call void @_ZN10params_refD1Ev(ptr noundef nonnull align 8 dereferenceable(8) %ref.tmp85) #3
  call void @_ZN10params_refD1Ev(ptr noundef nonnull align 8 dereferenceable(8) %ref.tmp79) #3
  call void @_ZN10params_refD1Ev(ptr noundef nonnull align 8 dereferenceable(8) %ref.tmp70) #3
  call void @_ZN10params_refD1Ev(ptr noundef nonnull align 8 dereferenceable(8) %ref.tmp62) #3
  call void @_ZN10params_refD1Ev(ptr noundef nonnull align 8 dereferenceable(8) %ref.tmp52) #3
  call void @_ZN10params_refD1Ev(ptr noundef nonnull align 8 dereferenceable(8) %ref.tmp46) #3
  br label %if.end103

lpad48:                                           ; preds = %invoke.cont49, %invoke.cont47
  %26 = landingpad { ptr, i32 }
          cleanup
  %27 = extractvalue { ptr, i32 } %26, 0
  store ptr %27, ptr %exn.slot, align 8
  %28 = extractvalue { ptr, i32 } %26, 1
  store i32 %28, ptr %ehselector.slot, align 4
  br label %ehcleanup102

lpad54:                                           ; preds = %invoke.cont59, %invoke.cont55, %invoke.cont53
  %29 = landingpad { ptr, i32 }
          cleanup
  %30 = extractvalue { ptr, i32 } %29, 0
  store ptr %30, ptr %exn.slot, align 8
  %31 = extractvalue { ptr, i32 } %29, 1
  store i32 %31, ptr %ehselector.slot, align 4
  br label %ehcleanup101

lpad64:                                           ; preds = %invoke.cont67, %invoke.cont65, %invoke.cont63
  %32 = landingpad { ptr, i32 }
          cleanup
  %33 = extractvalue { ptr, i32 } %32, 0
  store ptr %33, ptr %exn.slot, align 8
  %34 = extractvalue { ptr, i32 } %32, 1
  store i32 %34, ptr %ehselector.slot, align 4
  br label %ehcleanup100

lpad72:                                           ; preds = %invoke.cont77, %invoke.cont73, %invoke.cont71
  %35 = landingpad { ptr, i32 }
          cleanup
  %36 = extractvalue { ptr, i32 } %35, 0
  store ptr %36, ptr %exn.slot, align 8
  %37 = extractvalue { ptr, i32 } %35, 1
  store i32 %37, ptr %ehselector.slot, align 4
  br label %ehcleanup99

lpad81:                                           ; preds = %invoke.cont82, %invoke.cont80
  %38 = landingpad { ptr, i32 }
          cleanup
  %39 = extractvalue { ptr, i32 } %38, 0
  store ptr %39, ptr %exn.slot, align 8
  %40 = extractvalue { ptr, i32 } %38, 1
  store i32 %40, ptr %ehselector.slot, align 4
  br label %ehcleanup98

lpad87:                                           ; preds = %invoke.cont92, %invoke.cont90, %invoke.cont88, %invoke.cont86
  %41 = landingpad { ptr, i32 }
          cleanup
  %42 = extractvalue { ptr, i32 } %41, 0
  store ptr %42, ptr %exn.slot, align 8
  %43 = extractvalue { ptr, i32 } %41, 1
  store i32 %43, ptr %ehselector.slot, align 4
  call void @_ZN10params_refD1Ev(ptr noundef nonnull align 8 dereferenceable(8) %ref.tmp85) #3
  br label %ehcleanup98

ehcleanup98:                                      ; preds = %lpad87, %lpad81
  call void @_ZN10params_refD1Ev(ptr noundef nonnull align 8 dereferenceable(8) %ref.tmp79) #3
  br label %ehcleanup99

ehcleanup99:                                      ; preds = %ehcleanup98, %lpad72
  call void @_ZN10params_refD1Ev(ptr noundef nonnull align 8 dereferenceable(8) %ref.tmp70) #3
  br label %ehcleanup100

ehcleanup100:                                     ; preds = %ehcleanup99, %lpad64
  call void @_ZN10params_refD1Ev(ptr noundef nonnull align 8 dereferenceable(8) %ref.tmp62) #3
  br label %ehcleanup101

ehcleanup101:                                     ; preds = %ehcleanup100, %lpad54
  call void @_ZN10params_refD1Ev(ptr noundef nonnull align 8 dereferenceable(8) %ref.tmp52) #3
  br label %ehcleanup102

ehcleanup102:                                     ; preds = %ehcleanup101, %lpad48
  call void @_ZN10params_refD1Ev(ptr noundef nonnull align 8 dereferenceable(8) %ref.tmp46) #3
  br label %ehcleanup119

if.end103:                                        ; preds = %invoke.cont95, %invoke.cont43
  br label %while.cond

while.cond:                                       ; preds = %invoke.cont112, %if.end103
  %m_bb_rewriter104 = getelementptr inbounds %class.inc_sat_solver, ptr %this1, i32 0, i32 13
  %call106 = invoke noundef ptr @_ZNK10scoped_ptrI20bit_blaster_rewriterEptEv(ptr noundef nonnull align 8 dereferenceable(8) %m_bb_rewriter104)
          to label %invoke.cont105 unwind label %lpad25

invoke.cont105:                                   ; preds = %while.cond
  %call108 = invoke noundef i32 @_ZNK20bit_blaster_rewriter14get_num_scopesEv(ptr noundef nonnull align 8 dereferenceable(8) %call106)
          to label %invoke.cont107 unwind label %lpad25

invoke.cont107:                                   ; preds = %invoke.cont105
  %m_num_scopes = getelementptr inbounds %class.inc_sat_solver, ptr %this1, i32 0, i32 16
  %44 = load i32, ptr %m_num_scopes, align 4
  %cmp = icmp ult i32 %call108, %44
  br i1 %cmp, label %while.body, label %while.end

while.body:                                       ; preds = %invoke.cont107
  %m_bb_rewriter109 = getelementptr inbounds %class.inc_sat_solver, ptr %this1, i32 0, i32 13
  %call111 = invoke noundef ptr @_ZNK10scoped_ptrI20bit_blaster_rewriterEptEv(ptr noundef nonnull align 8 dereferenceable(8) %m_bb_rewriter109)
          to label %invoke.cont110 unwind label %lpad25

invoke.cont110:                                   ; preds = %while.body
  invoke void @_ZN20bit_blaster_rewriter4pushEv(ptr noundef nonnull align 8 dereferenceable(8) %call111)
          to label %invoke.cont112 unwind label %lpad25

invoke.cont112:                                   ; preds = %invoke.cont110
  br label %while.cond, !llvm.loop !9

while.end:                                        ; preds = %invoke.cont107
  %m_preprocess113 = getelementptr inbounds %class.inc_sat_solver, ptr %this1, i32 0, i32 14
  %call115 = invoke noundef ptr @_ZNK3refI6tacticEptEv(ptr noundef nonnull align 8 dereferenceable(8) %m_preprocess113)
          to label %invoke.cont114 unwind label %lpad25

invoke.cont114:                                   ; preds = %while.end
  %vtable116 = load ptr, ptr %call115, align 8
  %vfn117 = getelementptr inbounds ptr, ptr %vtable116, i64 18
  %45 = load ptr, ptr %vfn117, align 8
  invoke void %45(ptr noundef nonnull align 8 dereferenceable(12) %call115)
          to label %invoke.cont118 unwind label %lpad25

invoke.cont118:                                   ; preds = %invoke.cont114
  call void @_ZN10sat_paramsD2Ev(ptr noundef nonnull align 8 dereferenceable(16) %sp) #3
  call void @_ZN10params_refD1Ev(ptr noundef nonnull align 8 dereferenceable(8) %simp2_p) #3
  call void @_ZN10params_refD1Ev(ptr noundef nonnull align 8 dereferenceable(8) %simp1_p) #3
  ret void

ehcleanup119:                                     ; preds = %ehcleanup102, %ehcleanup, %lpad25
  call void @_ZN10sat_paramsD2Ev(ptr noundef nonnull align 8 dereferenceable(16) %sp) #3
  br label %ehcleanup120

ehcleanup120:                                     ; preds = %ehcleanup119, %lpad21
  call void @_ZN10params_refD1Ev(ptr noundef nonnull align 8 dereferenceable(8) %simp2_p) #3
  br label %ehcleanup121

ehcleanup121:                                     ; preds = %ehcleanup120, %lpad
  call void @_ZN10params_refD1Ev(ptr noundef nonnull align 8 dereferenceable(8) %simp1_p) #3
  br label %eh.resume

eh.resume:                                        ; preds = %ehcleanup121
  %exn = load ptr, ptr %exn.slot, align 8
  %sel = load i32, ptr %ehselector.slot, align 4
  %lpad.val = insertvalue { ptr, i32 } poison, ptr %exn, 0
  %lpad.val122 = insertvalue { ptr, i32 } %lpad.val, i32 %sel, 1
  resume { ptr, i32 } %lpad.val122
}

; Function Attrs: mustprogress nounwind uwtable
define linkonce_odr hidden void @_ZN3sat6solver15set_incrementalEb(ptr noundef nonnull align 8 dereferenceable(4408) %this, i1 noundef zeroext %b) #4 comdat align 2 {
entry:
  %this.addr = alloca ptr, align 8
  %b.addr = alloca i8, align 1
  store ptr %this, ptr %this.addr, align 8
  %frombool = zext i1 %b to i8
  store i8 %frombool, ptr %b.addr, align 1
  %this1 = load ptr, ptr %this.addr, align 8
  %0 = load i8, ptr %b.addr, align 1
  %tobool = trunc i8 %0 to i1
  %m_config = getelementptr inbounds %"class.sat::solver", ptr %this1, i32 0, i32 3
  %m_incremental = getelementptr inbounds %"struct.sat::config", ptr %m_config, i32 0, i32 74
  %frombool2 = zext i1 %tobool to i8
  store i8 %frombool2, ptr %m_incremental, align 1
  ret void
}

; Function Attrs: mustprogress uwtable
define linkonce_odr hidden noundef zeroext i1 @_ZNK14inc_sat_solver20override_incrementalEv(ptr noundef nonnull align 8 dereferenceable(5008) %this) #5 comdat align 2 personality ptr @__gxx_personality_v0 {
entry:
  %this.addr = alloca ptr, align 8
  %p = alloca %struct.sat_simplifier_params, align 8
  %exn.slot = alloca ptr, align 8
  %ehselector.slot = alloca i32, align 4
  store ptr %this, ptr %this.addr, align 8
  %this1 = load ptr, ptr %this.addr, align 8
  %m_params = getelementptr inbounds %class.inc_sat_solver, ptr %this1, i32 0, i32 4
  call void @_ZN21sat_simplifier_paramsC2ERK10params_ref(ptr noundef nonnull align 8 dereferenceable(16) %p, ptr noundef nonnull align 8 dereferenceable(8) %m_params)
  %call = invoke noundef zeroext i1 @_ZNK21sat_simplifier_params20override_incrementalEv(ptr noundef nonnull align 8 dereferenceable(16) %p)
          to label %invoke.cont unwind label %lpad

invoke.cont:                                      ; preds = %entry
  call void @_ZN21sat_simplifier_paramsD2Ev(ptr noundef nonnull align 8 dereferenceable(16) %p) #3
  ret i1 %call

lpad:                                             ; preds = %entry
  %0 = landingpad { ptr, i32 }
          cleanup
  %1 = extractvalue { ptr, i32 } %0, 0
  store ptr %1, ptr %exn.slot, align 8
  %2 = extractvalue { ptr, i32 } %0, 1
  store i32 %2, ptr %ehselector.slot, align 4
  call void @_ZN21sat_simplifier_paramsD2Ev(ptr noundef nonnull align 8 dereferenceable(16) %p) #3
  br label %eh.resume

eh.resume:                                        ; preds = %lpad
  %exn = load ptr, ptr %exn.slot, align 8
  %sel = load i32, ptr %ehselector.slot, align 4
  %lpad.val = insertvalue { ptr, i32 } poison, ptr %exn, 0
  %lpad.val2 = insertvalue { ptr, i32 } %lpad.val, i32 %sel, 1
  resume { ptr, i32 } %lpad.val2
}

; Function Attrs: mustprogress nounwind uwtable
define linkonce_odr hidden void @_ZN6vectorI8rationalLb1EjED2Ev(ptr noundef nonnull align 8 dereferenceable(8) %this) unnamed_addr #4 comdat align 2 personality ptr @__gxx_personality_v0 {
entry:
  %this.addr = alloca ptr, align 8
  store ptr %this, ptr %this.addr, align 8
  %this1 = load ptr, ptr %this.addr, align 8
  invoke void @_ZN6vectorI8rationalLb1EjE7destroyEv(ptr noundef nonnull align 8 dereferenceable(8) %this1)
          to label %invoke.cont unwind label %terminate.lpad

invoke.cont:                                      ; preds = %entry
  ret void

terminate.lpad:                                   ; preds = %entry
  %0 = landingpad { ptr, i32 }
          catch ptr null
  %1 = extractvalue { ptr, i32 } %0, 0
  call void @__clang_call_terminate(ptr %1) #18
  unreachable
}

; Function Attrs: mustprogress nounwind uwtable
define linkonce_odr hidden void @_ZN7obj_mapI4exprN3sat7literalEED2Ev(ptr noundef nonnull align 8 dereferenceable(24) %this) unnamed_addr #4 comdat align 2 {
entry:
  %this.addr = alloca ptr, align 8
  store ptr %this, ptr %this.addr, align 8
  %this1 = load ptr, ptr %this.addr, align 8
  %m_table = getelementptr inbounds %class.obj_map, ptr %this1, i32 0, i32 0
  call void @_ZN14core_hashtableIN7obj_mapI4exprN3sat7literalEE13obj_map_entryE8obj_hashINS4_8key_dataEE10default_eqIS7_EED2Ev(ptr noundef nonnull align 8 dereferenceable(20) %m_table) #3
  ret void
}

; Function Attrs: mustprogress nounwind uwtable
define linkonce_odr hidden void @_ZN10ref_vectorI4expr11ast_managerED2Ev(ptr noundef nonnull align 8 dereferenceable(16) %this) unnamed_addr #4 comdat align 2 {
entry:
  %this.addr = alloca ptr, align 8
  store ptr %this, ptr %this.addr, align 8
  %this1 = load ptr, ptr %this.addr, align 8
  call void @_ZN15ref_vector_coreI4expr19ref_manager_wrapperIS0_11ast_managerEED2Ev(ptr noundef nonnull align 8 dereferenceable(16) %this1) #3
  ret void
}

; Function Attrs: mustprogress nounwind uwtable
define linkonce_odr hidden void @_ZN7svectorIdjED2Ev(ptr noundef nonnull align 8 dereferenceable(8) %this) unnamed_addr #4 comdat align 2 {
entry:
  %this.addr = alloca ptr, align 8
  store ptr %this, ptr %this.addr, align 8
  %this1 = load ptr, ptr %this.addr, align 8
  call void @_ZN6vectorIdLb0EjED2Ev(ptr noundef nonnull align 8 dereferenceable(8) %this1) #3
  ret void
}

; Function Attrs: mustprogress nounwind uwtable
define linkonce_odr hidden void @_ZN3refI15model_converterED2Ev(ptr noundef nonnull align 8 dereferenceable(8) %this) unnamed_addr #4 comdat align 2 personality ptr @__gxx_personality_v0 {
entry:
  %this.addr = alloca ptr, align 8
  store ptr %this, ptr %this.addr, align 8
  %this1 = load ptr, ptr %this.addr, align 8
  invoke void @_ZN3refI15model_converterE7dec_refEv(ptr noundef nonnull align 8 dereferenceable(8) %this1)
          to label %invoke.cont unwind label %terminate.lpad

invoke.cont:                                      ; preds = %entry
  ret void

terminate.lpad:                                   ; preds = %entry
  %0 = landingpad { ptr, i32 }
          catch ptr null
  %1 = extractvalue { ptr, i32 } %0, 0
  call void @__clang_call_terminate(ptr %1) #18
  unreachable
}

; Function Attrs: mustprogress nounwind uwtable
define linkonce_odr hidden void @_ZN3refIN8sat2goal2mcEED2Ev(ptr noundef nonnull align 8 dereferenceable(8) %this) unnamed_addr #4 comdat align 2 personality ptr @__gxx_personality_v0 {
entry:
  %this.addr = alloca ptr, align 8
  store ptr %this, ptr %this.addr, align 8
  %this1 = load ptr, ptr %this.addr, align 8
  invoke void @_ZN3refIN8sat2goal2mcEE7dec_refEv(ptr noundef nonnull align 8 dereferenceable(8) %this1)
          to label %invoke.cont unwind label %terminate.lpad

invoke.cont:                                      ; preds = %entry
  ret void

terminate.lpad:                                   ; preds = %entry
  %0 = landingpad { ptr, i32 }
          catch ptr null
  %1 = extractvalue { ptr, i32 } %0, 0
  call void @__clang_call_terminate(ptr %1) #18
  unreachable
}

; Function Attrs: mustprogress nounwind uwtable
define linkonce_odr hidden void @_ZN13obj_hashtableI9func_declED2Ev(ptr noundef nonnull align 8 dereferenceable(20) %this) unnamed_addr #4 comdat align 2 {
entry:
  %this.addr = alloca ptr, align 8
  store ptr %this, ptr %this.addr, align 8
  %this1 = load ptr, ptr %this.addr, align 8
  call void @_ZN14core_hashtableI14obj_hash_entryI9func_declE12obj_ptr_hashIS1_E6ptr_eqIS1_EED2Ev(ptr noundef nonnull align 8 dereferenceable(20) %this1) #3
  ret void
}

; Function Attrs: mustprogress nounwind uwtable
define linkonce_odr hidden void @_ZN15ref_vector_coreI15model_converter21ref_unmanaged_wrapperIS0_EED2Ev(ptr noundef nonnull align 8 dereferenceable(8) %this) unnamed_addr #4 comdat align 2 personality ptr @__gxx_personality_v0 {
entry:
  %this.addr = alloca ptr, align 8
  store ptr %this, ptr %this.addr, align 8
  %this1 = load ptr, ptr %this.addr, align 8
  %m_nodes = getelementptr inbounds %class.ref_vector_core.59, ptr %this1, i32 0, i32 0
  %call = invoke noundef ptr @_ZNK6vectorIP15model_converterLb0EjE4dataEv(ptr noundef nonnull align 8 dereferenceable(8) %m_nodes)
          to label %invoke.cont unwind label %terminate.lpad

invoke.cont:                                      ; preds = %entry
  %m_nodes2 = getelementptr inbounds %class.ref_vector_core.59, ptr %this1, i32 0, i32 0
  %call4 = invoke noundef ptr @_ZNK6vectorIP15model_converterLb0EjE4dataEv(ptr noundef nonnull align 8 dereferenceable(8) %m_nodes2)
          to label %invoke.cont3 unwind label %terminate.lpad

invoke.cont3:                                     ; preds = %invoke.cont
  %m_nodes5 = getelementptr inbounds %class.ref_vector_core.59, ptr %this1, i32 0, i32 0
  %call7 = invoke noundef i32 @_ZNK6vectorIP15model_converterLb0EjE4sizeEv(ptr noundef nonnull align 8 dereferenceable(8) %m_nodes5)
          to label %invoke.cont6 unwind label %terminate.lpad

invoke.cont6:                                     ; preds = %invoke.cont3
  %idx.ext = zext i32 %call7 to i64
  %add.ptr = getelementptr inbounds ptr, ptr %call4, i64 %idx.ext
  invoke void @_ZN15ref_vector_coreI15model_converter21ref_unmanaged_wrapperIS0_EE13dec_range_refEPKPS0_S6_(ptr noundef nonnull align 8 dereferenceable(8) %this1, ptr noundef %call, ptr noundef %add.ptr)
          to label %invoke.cont8 unwind label %terminate.lpad

invoke.cont8:                                     ; preds = %invoke.cont6
  %m_nodes9 = getelementptr inbounds %class.ref_vector_core.59, ptr %this1, i32 0, i32 0
  call void @_ZN10ptr_vectorI15model_converterED2Ev(ptr noundef nonnull align 8 dereferenceable(8) %m_nodes9) #3
  ret void

terminate.lpad:                                   ; preds = %invoke.cont6, %invoke.cont3, %invoke.cont, %entry
  %0 = landingpad { ptr, i32 }
          catch ptr null
  %1 = extractvalue { ptr, i32 } %0, 0
  call void @__clang_call_terminate(ptr %1) #18
  unreachable
}

; Function Attrs: mustprogress nounwind uwtable
define linkonce_odr hidden void @_ZN3refI15proof_converterED2Ev(ptr noundef nonnull align 8 dereferenceable(8) %this) unnamed_addr #4 comdat align 2 personality ptr @__gxx_personality_v0 {
entry:
  %this.addr = alloca ptr, align 8
  store ptr %this, ptr %this.addr, align 8
  %this1 = load ptr, ptr %this.addr, align 8
  invoke void @_ZN3refI15proof_converterE7dec_refEv(ptr noundef nonnull align 8 dereferenceable(8) %this1)
          to label %invoke.cont unwind label %terminate.lpad

invoke.cont:                                      ; preds = %entry
  ret void

terminate.lpad:                                   ; preds = %entry
  %0 = landingpad { ptr, i32 }
          catch ptr null
  %1 = extractvalue { ptr, i32 } %0, 0
  call void @__clang_call_terminate(ptr %1) #18
  unreachable
}

; Function Attrs: mustprogress nounwind uwtable
define linkonce_odr hidden void @_ZN11sref_bufferI4goalLj16EED2Ev(ptr noundef nonnull align 8 dereferenceable(144) %this) unnamed_addr #4 comdat align 2 {
entry:
  %this.addr = alloca ptr, align 8
  store ptr %this, ptr %this.addr, align 8
  %this1 = load ptr, ptr %this.addr, align 8
  call void @_ZN15ref_buffer_coreI4goal21ref_unmanaged_wrapperIS0_ELj16EED2Ev(ptr noundef nonnull align 8 dereferenceable(144) %this1) #3
  ret void
}

; Function Attrs: mustprogress nounwind uwtable
define linkonce_odr hidden void @_ZN7svectorIN3sat7literalEjED2Ev(ptr noundef nonnull align 8 dereferenceable(8) %this) unnamed_addr #4 comdat align 2 {
entry:
  %this.addr = alloca ptr, align 8
  store ptr %this, ptr %this.addr, align 8
  %this1 = load ptr, ptr %this.addr, align 8
  call void @_ZN6vectorIN3sat7literalELb0EjED2Ev(ptr noundef nonnull align 8 dereferenceable(8) %this1) #3
  ret void
}

; Function Attrs: mustprogress nounwind uwtable
define linkonce_odr hidden void @_ZN3refI6tacticED2Ev(ptr noundef nonnull align 8 dereferenceable(8) %this) unnamed_addr #4 comdat align 2 personality ptr @__gxx_personality_v0 {
entry:
  %this.addr = alloca ptr, align 8
  store ptr %this, ptr %this.addr, align 8
  %this1 = load ptr, ptr %this.addr, align 8
  invoke void @_ZN3refI6tacticE7dec_refEv(ptr noundef nonnull align 8 dereferenceable(8) %this1)
          to label %invoke.cont unwind label %terminate.lpad

invoke.cont:                                      ; preds = %entry
  ret void

terminate.lpad:                                   ; preds = %entry
  %0 = landingpad { ptr, i32 }
          catch ptr null
  %1 = extractvalue { ptr, i32 } %0, 0
  call void @__clang_call_terminate(ptr %1) #18
  unreachable
}

; Function Attrs: mustprogress nounwind uwtable
define linkonce_odr hidden void @_ZN10scoped_ptrI20bit_blaster_rewriterED2Ev(ptr noundef nonnull align 8 dereferenceable(8) %this) unnamed_addr #4 comdat align 2 personality ptr @__gxx_personality_v0 {
entry:
  %this.addr = alloca ptr, align 8
  store ptr %this, ptr %this.addr, align 8
  %this1 = load ptr, ptr %this.addr, align 8
  %m_ptr = getelementptr inbounds %class.scoped_ptr.56, ptr %this1, i32 0, i32 0
  %0 = load ptr, ptr %m_ptr, align 8
  invoke void @_Z7deallocI20bit_blaster_rewriterEvPT_(ptr noundef %0)
          to label %invoke.cont unwind label %terminate.lpad

invoke.cont:                                      ; preds = %entry
  ret void

terminate.lpad:                                   ; preds = %entry
  %1 = landingpad { ptr, i32 }
          catch ptr null
  %2 = extractvalue { ptr, i32 } %1, 0
  call void @__clang_call_terminate(ptr %2) #18
  unreachable
}

; Function Attrs: mustprogress nounwind uwtable
define linkonce_odr hidden void @_ZN13atom2bool_varD2Ev(ptr noundef nonnull align 8 dereferenceable(41) %this) unnamed_addr #4 comdat align 2 {
entry:
  %this.addr = alloca ptr, align 8
  store ptr %this, ptr %this.addr, align 8
  %this1 = load ptr, ptr %this.addr, align 8
  call void @_ZN8expr2varD2Ev(ptr noundef nonnull align 8 dereferenceable(41) %this1) #3
  ret void
}

; Function Attrs: mustprogress nounwind uwtable
define linkonce_odr hidden void @_ZN7svectorIjjED2Ev(ptr noundef nonnull align 8 dereferenceable(8) %this) unnamed_addr #4 comdat align 2 {
entry:
  %this.addr = alloca ptr, align 8
  store ptr %this, ptr %this.addr, align 8
  %this1 = load ptr, ptr %this.addr, align 8
  call void @_ZN6vectorIjLb0EjED2Ev(ptr noundef nonnull align 8 dereferenceable(8) %this1) #3
  ret void
}

; Function Attrs: nounwind
declare void @_ZN8goal2satD1Ev(ptr noundef nonnull align 8 dereferenceable(12)) unnamed_addr #2

; Function Attrs: mustprogress nounwind uwtable
define linkonce_odr hidden void @_ZN13stacked_valueIbED2Ev(ptr noundef nonnull align 8 dereferenceable(16) %this) unnamed_addr #4 comdat align 2 {
entry:
  %this.addr = alloca ptr, align 8
  store ptr %this, ptr %this.addr, align 8
  %this1 = load ptr, ptr %this.addr, align 8
  %m_stack = getelementptr inbounds %class.stacked_value, ptr %this1, i32 0, i32 1
  call void @_ZN6vectorIbLb1EjED2Ev(ptr noundef nonnull align 8 dereferenceable(8) %m_stack) #3
  ret void
}

; Function Attrs: nounwind
declare void @_ZN3sat6solverD1Ev(ptr noundef nonnull align 8 dereferenceable(4408)) unnamed_addr #2

; Function Attrs: mustprogress nounwind uwtable
define linkonce_odr hidden void @_ZN6solverD2Ev(ptr noundef nonnull align 8 dereferenceable(96) %this) unnamed_addr #4 comdat align 2 {
entry:
  %this.addr = alloca ptr, align 8
  store ptr %this, ptr %this.addr, align 8
  %this1 = load ptr, ptr %this.addr, align 8
  store ptr getelementptr inbounds ({ [48 x ptr], [14 x ptr] }, ptr @_ZTV6solver, i32 0, inrange i32 0, i32 2), ptr %this1, align 8
  %add.ptr = getelementptr inbounds i8, ptr %this1, i64 72
  store ptr getelementptr inbounds ({ [48 x ptr], [14 x ptr] }, ptr @_ZTV6solver, i32 0, inrange i32 1, i32 2), ptr %add.ptr, align 8
  %m_params = getelementptr inbounds %class.solver, ptr %this1, i32 0, i32 2
  call void @_ZN10params_refD1Ev(ptr noundef nonnull align 8 dereferenceable(8) %m_params) #3
  %0 = getelementptr inbounds i8, ptr %this1, i64 72
  call void @_ZN15user_propagator4coreD2Ev(ptr noundef nonnull align 8 dereferenceable(8) %0) #3
  call void @_ZN16check_sat_resultD2Ev(ptr noundef nonnull align 8 dereferenceable(72) %this1) #3
  ret void
}

; Function Attrs: mustprogress nounwind uwtable
define linkonce_odr hidden void @_ZN14inc_sat_solverD2Ev(ptr noundef nonnull align 8 dereferenceable(5008) %this) unnamed_addr #4 comdat align 2 {
entry:
  %this.addr = alloca ptr, align 8
  store ptr %this, ptr %this.addr, align 8
  %this1 = load ptr, ptr %this.addr, align 8
  store ptr getelementptr inbounds ({ [57 x ptr], [14 x ptr] }, ptr @_ZTV14inc_sat_solver, i32 0, inrange i32 0, i32 2), ptr %this1, align 8
  %add.ptr = getelementptr inbounds i8, ptr %this1, i64 72
  store ptr getelementptr inbounds ({ [57 x ptr], [14 x ptr] }, ptr @_ZTV14inc_sat_solver, i32 0, inrange i32 1, i32 2), ptr %add.ptr, align 8
  %m_exps = getelementptr inbounds %class.inc_sat_solver, ptr %this1, i32 0, i32 30
  call void @_ZN6vectorI8rationalLb1EjED2Ev(ptr noundef nonnull align 8 dereferenceable(8) %m_exps) #3
  %m_dep2asm = getelementptr inbounds %class.inc_sat_solver, ptr %this1, i32 0, i32 29
  call void @_ZN7obj_mapI4exprN3sat7literalEED2Ev(ptr noundef nonnull align 8 dereferenceable(24) %m_dep2asm) #3
  %m_internalized_fmls = getelementptr inbounds %class.inc_sat_solver, ptr %this1, i32 0, i32 28
  call void @_ZN10ref_vectorI4expr11ast_managerED2Ev(ptr noundef nonnull align 8 dereferenceable(16) %m_internalized_fmls) #3
  %m_unknown = getelementptr inbounds %class.inc_sat_solver, ptr %this1, i32 0, i32 26
  call void @_ZNSt7__cxx1112basic_stringIcSt11char_traitsIcESaIcEED1Ev(ptr noundef nonnull align 8 dereferenceable(32) %m_unknown) #3
  %m_weights = getelementptr inbounds %class.inc_sat_solver, ptr %this1, i32 0, i32 25
  call void @_ZN7svectorIdjED2Ev(ptr noundef nonnull align 8 dereferenceable(8) %m_weights) #3
  %m_cached_mc = getelementptr inbounds %class.inc_sat_solver, ptr %this1, i32 0, i32 24
  call void @_ZN3refI15model_converterED2Ev(ptr noundef nonnull align 8 dereferenceable(8) %m_cached_mc) #3
  %m_sat_mc = getelementptr inbounds %class.inc_sat_solver, ptr %this1, i32 0, i32 23
  call void @_ZN3refIN8sat2goal2mcEED2Ev(ptr noundef nonnull align 8 dereferenceable(8) %m_sat_mc) #3
  %m_inserted_const2bits = getelementptr inbounds %class.inc_sat_solver, ptr %this1, i32 0, i32 22
  call void @_ZN13obj_hashtableI9func_declED2Ev(ptr noundef nonnull align 8 dereferenceable(20) %m_inserted_const2bits) #3
  %m_mc0 = getelementptr inbounds %class.inc_sat_solver, ptr %this1, i32 0, i32 21
  call void @_ZN3refI15model_converterED2Ev(ptr noundef nonnull align 8 dereferenceable(8) %m_mc0) #3
  %m_mcs = getelementptr inbounds %class.inc_sat_solver, ptr %this1, i32 0, i32 20
  call void @_ZN15ref_vector_coreI15model_converter21ref_unmanaged_wrapperIS0_EED2Ev(ptr noundef nonnull align 8 dereferenceable(8) %m_mcs) #3
  %m_pc = getelementptr inbounds %class.inc_sat_solver, ptr %this1, i32 0, i32 19
  call void @_ZN3refI15proof_converterED2Ev(ptr noundef nonnull align 8 dereferenceable(8) %m_pc) #3
  %m_subgoals = getelementptr inbounds %class.inc_sat_solver, ptr %this1, i32 0, i32 18
  call void @_ZN11sref_bufferI4goalLj16EED2Ev(ptr noundef nonnull align 8 dereferenceable(144) %m_subgoals) #3
  %m_asms = getelementptr inbounds %class.inc_sat_solver, ptr %this1, i32 0, i32 17
  call void @_ZN7svectorIN3sat7literalEjED2Ev(ptr noundef nonnull align 8 dereferenceable(8) %m_asms) #3
  %m_preprocess = getelementptr inbounds %class.inc_sat_solver, ptr %this1, i32 0, i32 14
  call void @_ZN3refI6tacticED2Ev(ptr noundef nonnull align 8 dereferenceable(8) %m_preprocess) #3
  %m_bb_rewriter = getelementptr inbounds %class.inc_sat_solver, ptr %this1, i32 0, i32 13
  call void @_ZN10scoped_ptrI20bit_blaster_rewriterED2Ev(ptr noundef nonnull align 8 dereferenceable(8) %m_bb_rewriter) #3
  %m_map = getelementptr inbounds %class.inc_sat_solver, ptr %this1, i32 0, i32 12
  call void @_ZN13atom2bool_varD2Ev(ptr noundef nonnull align 8 dereferenceable(41) %m_map) #3
  %m_core = getelementptr inbounds %class.inc_sat_solver, ptr %this1, i32 0, i32 11
  call void @_ZN10ref_vectorI4expr11ast_managerED2Ev(ptr noundef nonnull align 8 dereferenceable(16) %m_core) #3
  %m_fmls_head_lim = getelementptr inbounds %class.inc_sat_solver, ptr %this1, i32 0, i32 9
  call void @_ZN7svectorIjjED2Ev(ptr noundef nonnull align 8 dereferenceable(8) %m_fmls_head_lim) #3
  %m_asms_lim = getelementptr inbounds %class.inc_sat_solver, ptr %this1, i32 0, i32 8
  call void @_ZN7svectorIjjED2Ev(ptr noundef nonnull align 8 dereferenceable(8) %m_asms_lim) #3
  %m_fmls_lim = getelementptr inbounds %class.inc_sat_solver, ptr %this1, i32 0, i32 7
  call void @_ZN7svectorIjjED2Ev(ptr noundef nonnull align 8 dereferenceable(8) %m_fmls_lim) #3
  %m_asmsf = getelementptr inbounds %class.inc_sat_solver, ptr %this1, i32 0, i32 6
  call void @_ZN10ref_vectorI4expr11ast_managerED2Ev(ptr noundef nonnull align 8 dereferenceable(16) %m_asmsf) #3
  %m_fmls = getelementptr inbounds %class.inc_sat_solver, ptr %this1, i32 0, i32 5
  call void @_ZN10ref_vectorI4expr11ast_managerED2Ev(ptr noundef nonnull align 8 dereferenceable(16) %m_fmls) #3
  %m_params = getelementptr inbounds %class.inc_sat_solver, ptr %this1, i32 0, i32 4
  call void @_ZN10params_refD1Ev(ptr noundef nonnull align 8 dereferenceable(8) %m_params) #3
  %m_goal2sat = getelementptr inbounds %class.inc_sat_solver, ptr %this1, i32 0, i32 3
  call void @_ZN8goal2satD1Ev(ptr noundef nonnull align 8 dereferenceable(12) %m_goal2sat) #3
  %m_has_uninterpreted = getelementptr inbounds %class.inc_sat_solver, ptr %this1, i32 0, i32 2
  call void @_ZN13stacked_valueIbED2Ev(ptr noundef nonnull align 8 dereferenceable(16) %m_has_uninterpreted) #3
  %m_solver = getelementptr inbounds %class.inc_sat_solver, ptr %this1, i32 0, i32 1
  call void @_ZN3sat6solverD1Ev(ptr noundef nonnull align 8 dereferenceable(4408) %m_solver) #3
  call void @_ZN6solverD2Ev(ptr noundef nonnull align 8 dereferenceable(96) %this1) #3
  ret void
}

; Function Attrs: mustprogress nounwind uwtable
define linkonce_odr hidden void @_ZN14inc_sat_solverD0Ev(ptr noundef nonnull align 8 dereferenceable(5008) %this) unnamed_addr #4 comdat align 2 {
entry:
  %this.addr = alloca ptr, align 8
  store ptr %this, ptr %this.addr, align 8
  %this1 = load ptr, ptr %this.addr, align 8
  call void @_ZN14inc_sat_solverD2Ev(ptr noundef nonnull align 8 dereferenceable(5008) %this1) #3
  call void @_ZdlPv(ptr noundef %this1) #19
  ret void
}

; Function Attrs: mustprogress uwtable
define linkonce_odr hidden void @_ZNK14inc_sat_solver18collect_statisticsER10statistics(ptr noundef nonnull align 8 dereferenceable(5008) %this, ptr noundef nonnull align 8 dereferenceable(16) %st) unnamed_addr #5 comdat align 2 {
entry:
  %this.addr = alloca ptr, align 8
  %st.addr = alloca ptr, align 8
  store ptr %this, ptr %this.addr, align 8
  store ptr %st, ptr %st.addr, align 8
  %this1 = load ptr, ptr %this.addr, align 8
  %m_preprocess = getelementptr inbounds %class.inc_sat_solver, ptr %this1, i32 0, i32 14
  %call = call noundef zeroext i1 @_ZNK3refI6tacticEcvbEv(ptr noundef nonnull align 8 dereferenceable(8) %m_preprocess)
  br i1 %call, label %if.then, label %if.end

if.then:                                          ; preds = %entry
  %m_preprocess2 = getelementptr inbounds %class.inc_sat_solver, ptr %this1, i32 0, i32 14
  %call3 = call noundef ptr @_ZNK3refI6tacticEptEv(ptr noundef nonnull align 8 dereferenceable(8) %m_preprocess2)
  %0 = load ptr, ptr %st.addr, align 8
  %vtable = load ptr, ptr %call3, align 8
  %vfn = getelementptr inbounds ptr, ptr %vtable, i64 15
  %1 = load ptr, ptr %vfn, align 8
  call void %1(ptr noundef nonnull align 8 dereferenceable(12) %call3, ptr noundef nonnull align 8 dereferenceable(16) %0)
  br label %if.end

if.end:                                           ; preds = %if.then, %entry
  %m_solver = getelementptr inbounds %class.inc_sat_solver, ptr %this1, i32 0, i32 1
  %2 = load ptr, ptr %st.addr, align 8
  call void @_ZNK3sat6solver18collect_statisticsER10statistics(ptr noundef nonnull align 8 dereferenceable(4408) %m_solver, ptr noundef nonnull align 8 dereferenceable(16) %2)
  ret void
}

; Function Attrs: mustprogress uwtable
define linkonce_odr hidden void @_ZN14inc_sat_solver14get_unsat_coreER10ref_vectorI4expr11ast_managerE(ptr noundef nonnull align 8 dereferenceable(5008) %this, ptr noundef nonnull align 8 dereferenceable(16) %r) unnamed_addr #5 comdat align 2 {
entry:
  %this.addr = alloca ptr, align 8
  %r.addr = alloca ptr, align 8
  store ptr %this, ptr %this.addr, align 8
  store ptr %r, ptr %r.addr, align 8
  %this1 = load ptr, ptr %this.addr, align 8
  %0 = load ptr, ptr %r.addr, align 8
  call void @_ZN15ref_vector_coreI4expr19ref_manager_wrapperIS0_11ast_managerEE5resetEv(ptr noundef nonnull align 8 dereferenceable(16) %0)
  %1 = load ptr, ptr %r.addr, align 8
  %m_core = getelementptr inbounds %class.inc_sat_solver, ptr %this1, i32 0, i32 11
  %call = call noundef i32 @_ZNK15ref_vector_coreI4expr19ref_manager_wrapperIS0_11ast_managerEE4sizeEv(ptr noundef nonnull align 8 dereferenceable(16) %m_core)
  %m_core2 = getelementptr inbounds %class.inc_sat_solver, ptr %this1, i32 0, i32 11
  %call3 = call noundef ptr @_ZN15ref_vector_coreI4expr19ref_manager_wrapperIS0_11ast_managerEE4dataEv(ptr noundef nonnull align 8 dereferenceable(16) %m_core2)
  call void @_ZN15ref_vector_coreI4expr19ref_manager_wrapperIS0_11ast_managerEE6appendEjPKPS0_(ptr noundef nonnull align 8 dereferenceable(16) %1, i32 noundef %call, ptr noundef %call3)
  ret void
}

; Function Attrs: mustprogress uwtable
define linkonce_odr hidden void @_ZN14inc_sat_solver14get_model_coreER3refI5modelE(ptr noundef nonnull align 8 dereferenceable(5008) %this, ptr noundef nonnull align 8 dereferenceable(8) %mdl) unnamed_addr #5 comdat align 2 personality ptr @__gxx_personality_v0 {
entry:
  %this.addr = alloca ptr, align 8
  %mdl.addr = alloca ptr, align 8
  %ll_m = alloca %class.svector.13, align 8
  %exn.slot = alloca ptr, align 8
  %ehselector.slot = alloca i32, align 4
  %var2expr = alloca %class.ref_vector, align 8
  %v = alloca i32, align 4
  %n = alloca ptr, align 8
  %cleanup.dest.slot = alloca i32, align 4
  %eval = alloca %class.model_evaluator, align 8
  %ref.tmp = alloca %class.params_ref, align 8
  %all_true = alloca i8, align 1
  %__range1 = alloca ptr, align 8
  %__begin1 = alloca ptr, align 8
  %__end1 = alloca ptr, align 8
  %f = alloca ptr, align 8
  %tmp = alloca %class.obj_ref.126, align 8
  %ref.tmp147 = alloca %struct.mk_pp, align 8
  %ref.tmp161 = alloca %struct.mk_pp, align 8
  %__range5 = alloca ptr, align 8
  %__begin5 = alloca ptr, align 8
  %__end5 = alloca ptr, align 8
  %kv = alloca ptr, align 8
  %ref.tmp291 = alloca %struct.mk_pp, align 8
  %__range5309 = alloca ptr, align 8
  %__begin5311 = alloca ptr, align 8
  %__end5314 = alloca ptr, align 8
  %kv320 = alloca ptr, align 8
  %ref.tmp323 = alloca %struct.mk_pp, align 8
  store ptr %this, ptr %this.addr, align 8
  store ptr %mdl, ptr %mdl.addr, align 8
  %this1 = load ptr, ptr %this.addr, align 8
  %m_solver = getelementptr inbounds %class.inc_sat_solver, ptr %this1, i32 0, i32 1
  %call = call noundef zeroext i1 @_ZNK3sat6solver16model_is_currentEv(ptr noundef nonnull align 8 dereferenceable(4408) %m_solver)
  br i1 %call, label %if.end, label %if.then

if.then:                                          ; preds = %entry
  %0 = load ptr, ptr %mdl.addr, align 8
  %call2 = call noundef nonnull align 8 dereferenceable(8) ptr @_ZN3refI5modelEaSEPS0_(ptr noundef nonnull align 8 dereferenceable(8) %0, ptr noundef null)
  br label %cleanup.cont371

if.end:                                           ; preds = %entry
  %m_fmls = getelementptr inbounds %class.inc_sat_solver, ptr %this1, i32 0, i32 5
  %call3 = call noundef i32 @_ZNK15ref_vector_coreI4expr19ref_manager_wrapperIS0_11ast_managerEE4sizeEv(ptr noundef nonnull align 8 dereferenceable(16) %m_fmls)
  %m_fmls_head = getelementptr inbounds %class.inc_sat_solver, ptr %this1, i32 0, i32 10
  %1 = load i32, ptr %m_fmls_head, align 8
  %cmp = icmp ugt i32 %call3, %1
  br i1 %cmp, label %if.then4, label %if.end6

if.then4:                                         ; preds = %if.end
  %2 = load ptr, ptr %mdl.addr, align 8
  %call5 = call noundef nonnull align 8 dereferenceable(8) ptr @_ZN3refI5modelEaSEPS0_(ptr noundef nonnull align 8 dereferenceable(8) %2, ptr noundef null)
  br label %cleanup.cont371

if.end6:                                          ; preds = %if.end
  %m_solver7 = getelementptr inbounds %class.inc_sat_solver, ptr %this1, i32 0, i32 1
  %call8 = call noundef nonnull align 8 dereferenceable(8) ptr @_ZNK3sat6solver9get_modelEv(ptr noundef nonnull align 8 dereferenceable(4408) %m_solver7)
  call void @_ZN7svectorI5lbooljEC2ERKS1_(ptr noundef nonnull align 8 dereferenceable(8) %ll_m, ptr noundef nonnull align 8 dereferenceable(8) %call8)
  %call9 = invoke noalias noundef ptr @_ZN6memory8allocateEm(i64 noundef 160)
          to label %invoke.cont unwind label %lpad

invoke.cont:                                      ; preds = %if.end6
  %m = getelementptr inbounds %class.check_sat_result, ptr %this1, i32 0, i32 1
  %3 = load ptr, ptr %m, align 8
  invoke void @_ZN5modelC1ER11ast_manager(ptr noundef nonnull align 8 dereferenceable(160) %call9, ptr noundef nonnull align 8 dereferenceable(976) %3)
          to label %invoke.cont10 unwind label %lpad

invoke.cont10:                                    ; preds = %invoke.cont
  %4 = load ptr, ptr %mdl.addr, align 8
  %call12 = invoke noundef nonnull align 8 dereferenceable(8) ptr @_ZN3refI5modelEaSEPS0_(ptr noundef nonnull align 8 dereferenceable(8) %4, ptr noundef %call9)
          to label %invoke.cont11 unwind label %lpad

invoke.cont11:                                    ; preds = %invoke.cont10
  %m_sat_mc = getelementptr inbounds %class.inc_sat_solver, ptr %this1, i32 0, i32 23
  %call14 = invoke noundef zeroext i1 @_ZNK3refIN8sat2goal2mcEEcvbEv(ptr noundef nonnull align 8 dereferenceable(8) %m_sat_mc)
          to label %invoke.cont13 unwind label %lpad

invoke.cont13:                                    ; preds = %invoke.cont11
  br i1 %call14, label %if.then15, label %if.end20

if.then15:                                        ; preds = %invoke.cont13
  %m_sat_mc16 = getelementptr inbounds %class.inc_sat_solver, ptr %this1, i32 0, i32 23
  %call18 = invoke noundef nonnull align 8 dereferenceable(104) ptr @_ZN3refIN8sat2goal2mcEEdeEv(ptr noundef nonnull align 8 dereferenceable(8) %m_sat_mc16)
          to label %invoke.cont17 unwind label %lpad

invoke.cont17:                                    ; preds = %if.then15
  invoke void @_ZN8sat2goal2mcclER7svectorI5lbooljE(ptr noundef nonnull align 8 dereferenceable(104) %call18, ptr noundef nonnull align 8 dereferenceable(8) %ll_m)
          to label %invoke.cont19 unwind label %lpad

invoke.cont19:                                    ; preds = %invoke.cont17
  br label %if.end20

lpad:                                             ; preds = %if.end20, %invoke.cont17, %if.then15, %invoke.cont11, %invoke.cont10, %invoke.cont, %if.end6
  %5 = landingpad { ptr, i32 }
          cleanup
  %6 = extractvalue { ptr, i32 } %5, 0
  store ptr %6, ptr %exn.slot, align 8
  %7 = extractvalue { ptr, i32 } %5, 1
  store i32 %7, ptr %ehselector.slot, align 4
  br label %ehcleanup372

if.end20:                                         ; preds = %invoke.cont19, %invoke.cont13
  %m21 = getelementptr inbounds %class.check_sat_result, ptr %this1, i32 0, i32 1
  %8 = load ptr, ptr %m21, align 8
  invoke void @_ZN10ref_vectorI4expr11ast_managerEC2ERS1_(ptr noundef nonnull align 8 dereferenceable(16) %var2expr, ptr noundef nonnull align 8 dereferenceable(976) %8)
          to label %invoke.cont22 unwind label %lpad

invoke.cont22:                                    ; preds = %if.end20
  %m_map = getelementptr inbounds %class.inc_sat_solver, ptr %this1, i32 0, i32 12
  invoke void @_ZNK13atom2bool_var10mk_var_invER10ref_vectorI4expr11ast_managerE(ptr noundef nonnull align 8 dereferenceable(41) %m_map, ptr noundef nonnull align 8 dereferenceable(16) %var2expr)
          to label %invoke.cont24 unwind label %lpad23

invoke.cont24:                                    ; preds = %invoke.cont22
  store i32 0, ptr %v, align 4
  br label %for.cond

for.cond:                                         ; preds = %for.inc, %invoke.cont24
  %9 = load i32, ptr %v, align 4
  %call25 = call noundef i32 @_ZNK15ref_vector_coreI4expr19ref_manager_wrapperIS0_11ast_managerEE4sizeEv(ptr noundef nonnull align 8 dereferenceable(16) %var2expr)
  %cmp26 = icmp ult i32 %9, %call25
  br i1 %cmp26, label %for.body, label %for.end

for.body:                                         ; preds = %for.cond
  %10 = load i32, ptr %v, align 4
  %call28 = invoke noundef ptr @_ZNK15ref_vector_coreI4expr19ref_manager_wrapperIS0_11ast_managerEE3getEj(ptr noundef nonnull align 8 dereferenceable(16) %var2expr, i32 noundef %10)
          to label %invoke.cont27 unwind label %lpad23

invoke.cont27:                                    ; preds = %for.body
  store ptr %call28, ptr %n, align 8
  %11 = load ptr, ptr %n, align 8
  %tobool = icmp ne ptr %11, null
  br i1 %tobool, label %lor.lhs.false, label %if.then31

lor.lhs.false:                                    ; preds = %invoke.cont27
  %12 = load ptr, ptr %n, align 8
  %call30 = invoke noundef zeroext i1 @_Z17is_uninterp_constPK4expr(ptr noundef %12)
          to label %invoke.cont29 unwind label %lpad23

invoke.cont29:                                    ; preds = %lor.lhs.false
  br i1 %call30, label %if.end32, label %if.then31

if.then31:                                        ; preds = %invoke.cont29, %invoke.cont27
  br label %for.inc

lpad23:                                           ; preds = %invoke.cont100, %if.end99, %invoke.cont94, %if.else, %invoke.cont91, %invoke.cont89, %invoke.cont88, %if.then87, %if.then84, %if.end80, %invoke.cont75, %if.end74, %invoke.cont69, %if.then67, %invoke.cont63, %if.end62, %invoke.cont59, %if.then57, %for.end, %invoke.cont49, %invoke.cont47, %invoke.cont45, %sw.bb44, %invoke.cont39, %invoke.cont37, %invoke.cont35, %sw.bb, %if.end32, %lor.lhs.false, %for.body, %invoke.cont22
  %13 = landingpad { ptr, i32 }
          cleanup
  %14 = extractvalue { ptr, i32 } %13, 0
  store ptr %14, ptr %exn.slot, align 8
  %15 = extractvalue { ptr, i32 } %13, 1
  store i32 %15, ptr %ehselector.slot, align 4
  br label %ehcleanup368

if.end32:                                         ; preds = %invoke.cont29
  %16 = load i32, ptr %v, align 4
  %call34 = invoke noundef i32 @_ZN3sat8value_atEjRK7svectorI5lbooljE(i32 noundef %16, ptr noundef nonnull align 8 dereferenceable(8) %ll_m)
          to label %invoke.cont33 unwind label %lpad23

invoke.cont33:                                    ; preds = %if.end32
  switch i32 %call34, label %sw.default [
    i32 1, label %sw.bb
    i32 -1, label %sw.bb44
  ]

sw.bb:                                            ; preds = %invoke.cont33
  %17 = load ptr, ptr %mdl.addr, align 8
  %call36 = invoke noundef ptr @_ZNK3refI5modelEptEv(ptr noundef nonnull align 8 dereferenceable(8) %17)
          to label %invoke.cont35 unwind label %lpad23

invoke.cont35:                                    ; preds = %sw.bb
  %18 = load ptr, ptr %n, align 8
  %call38 = invoke noundef ptr @_Z6to_appP3ast(ptr noundef %18)
          to label %invoke.cont37 unwind label %lpad23

invoke.cont37:                                    ; preds = %invoke.cont35
  %call40 = invoke noundef ptr @_ZNK3app8get_declEv(ptr noundef nonnull align 8 dereferenceable(32) %call38)
          to label %invoke.cont39 unwind label %lpad23

invoke.cont39:                                    ; preds = %invoke.cont37
  %m41 = getelementptr inbounds %class.check_sat_result, ptr %this1, i32 0, i32 1
  %19 = load ptr, ptr %m41, align 8
  %call42 = call noundef ptr @_ZNK11ast_manager7mk_trueEv(ptr noundef nonnull align 8 dereferenceable(976) %19)
  invoke void @_ZN10model_core13register_declEP9func_declP4expr(ptr noundef nonnull align 8 dereferenceable(96) %call36, ptr noundef %call40, ptr noundef %call42)
          to label %invoke.cont43 unwind label %lpad23

invoke.cont43:                                    ; preds = %invoke.cont39
  br label %sw.epilog

sw.bb44:                                          ; preds = %invoke.cont33
  %20 = load ptr, ptr %mdl.addr, align 8
  %call46 = invoke noundef ptr @_ZNK3refI5modelEptEv(ptr noundef nonnull align 8 dereferenceable(8) %20)
          to label %invoke.cont45 unwind label %lpad23

invoke.cont45:                                    ; preds = %sw.bb44
  %21 = load ptr, ptr %n, align 8
  %call48 = invoke noundef ptr @_Z6to_appP3ast(ptr noundef %21)
          to label %invoke.cont47 unwind label %lpad23

invoke.cont47:                                    ; preds = %invoke.cont45
  %call50 = invoke noundef ptr @_ZNK3app8get_declEv(ptr noundef nonnull align 8 dereferenceable(32) %call48)
          to label %invoke.cont49 unwind label %lpad23

invoke.cont49:                                    ; preds = %invoke.cont47
  %m51 = getelementptr inbounds %class.check_sat_result, ptr %this1, i32 0, i32 1
  %22 = load ptr, ptr %m51, align 8
  %call52 = call noundef ptr @_ZNK11ast_manager8mk_falseEv(ptr noundef nonnull align 8 dereferenceable(976) %22)
  invoke void @_ZN10model_core13register_declEP9func_declP4expr(ptr noundef nonnull align 8 dereferenceable(96) %call46, ptr noundef %call50, ptr noundef %call52)
          to label %invoke.cont53 unwind label %lpad23

invoke.cont53:                                    ; preds = %invoke.cont49
  br label %sw.epilog

sw.default:                                       ; preds = %invoke.cont33
  br label %sw.epilog

sw.epilog:                                        ; preds = %sw.default, %invoke.cont53, %invoke.cont43
  br label %for.inc

for.inc:                                          ; preds = %sw.epilog, %if.then31
  %23 = load i32, ptr %v, align 4
  %inc = add i32 %23, 1
  store i32 %inc, ptr %v, align 4
  br label %for.cond, !llvm.loop !10

for.end:                                          ; preds = %for.cond
  %m_sat_mc54 = getelementptr inbounds %class.inc_sat_solver, ptr %this1, i32 0, i32 23
  %call56 = invoke noundef zeroext i1 @_ZNK3refIN8sat2goal2mcEEcvbEv(ptr noundef nonnull align 8 dereferenceable(8) %m_sat_mc54)
          to label %invoke.cont55 unwind label %lpad23

invoke.cont55:                                    ; preds = %for.end
  br i1 %call56, label %if.then57, label %if.end62

if.then57:                                        ; preds = %invoke.cont55
  %m_sat_mc58 = getelementptr inbounds %class.inc_sat_solver, ptr %this1, i32 0, i32 23
  %call60 = invoke noundef nonnull align 8 dereferenceable(104) ptr @_ZN3refIN8sat2goal2mcEEdeEv(ptr noundef nonnull align 8 dereferenceable(8) %m_sat_mc58)
          to label %invoke.cont59 unwind label %lpad23

invoke.cont59:                                    ; preds = %if.then57
  %24 = load ptr, ptr %mdl.addr, align 8
  %vtable = load ptr, ptr %call60, align 8
  %vfn = getelementptr inbounds ptr, ptr %vtable, i64 4
  %25 = load ptr, ptr %vfn, align 8
  invoke void %25(ptr noundef nonnull align 8 dereferenceable(104) %call60, ptr noundef nonnull align 8 dereferenceable(8) %24)
          to label %invoke.cont61 unwind label %lpad23

invoke.cont61:                                    ; preds = %invoke.cont59
  br label %if.end62

if.end62:                                         ; preds = %invoke.cont61, %invoke.cont55
  %m_goal2sat = getelementptr inbounds %class.inc_sat_solver, ptr %this1, i32 0, i32 3
  %26 = load ptr, ptr %mdl.addr, align 8
  invoke void @_ZN8goal2sat12update_modelER3refI5modelE(ptr noundef nonnull align 8 dereferenceable(12) %m_goal2sat, ptr noundef nonnull align 8 dereferenceable(8) %26)
          to label %invoke.cont63 unwind label %lpad23

invoke.cont63:                                    ; preds = %if.end62
  %m_mcs = getelementptr inbounds %class.inc_sat_solver, ptr %this1, i32 0, i32 20
  %call65 = invoke noundef ptr @_ZNK15ref_vector_coreI15model_converter21ref_unmanaged_wrapperIS0_EE4backEv(ptr noundef nonnull align 8 dereferenceable(8) %m_mcs)
          to label %invoke.cont64 unwind label %lpad23

invoke.cont64:                                    ; preds = %invoke.cont63
  %tobool66 = icmp ne ptr %call65, null
  br i1 %tobool66, label %if.then67, label %if.end74

if.then67:                                        ; preds = %invoke.cont64
  %m_mcs68 = getelementptr inbounds %class.inc_sat_solver, ptr %this1, i32 0, i32 20
  %call70 = invoke noundef ptr @_ZNK15ref_vector_coreI15model_converter21ref_unmanaged_wrapperIS0_EE4backEv(ptr noundef nonnull align 8 dereferenceable(8) %m_mcs68)
          to label %invoke.cont69 unwind label %lpad23

invoke.cont69:                                    ; preds = %if.then67
  %27 = load ptr, ptr %mdl.addr, align 8
  %vtable71 = load ptr, ptr %call70, align 8
  %vfn72 = getelementptr inbounds ptr, ptr %vtable71, i64 4
  %28 = load ptr, ptr %vfn72, align 8
  invoke void %28(ptr noundef nonnull align 8 dereferenceable(25) %call70, ptr noundef nonnull align 8 dereferenceable(8) %27)
          to label %invoke.cont73 unwind label %lpad23

invoke.cont73:                                    ; preds = %invoke.cont69
  br label %if.end74

if.end74:                                         ; preds = %invoke.cont73, %invoke.cont64
  %call76 = invoke noundef nonnull align 8 dereferenceable(8) ptr @_ZN7gparams7get_refEv()
          to label %invoke.cont75 unwind label %lpad23

invoke.cont75:                                    ; preds = %if.end74
  %call78 = invoke noundef zeroext i1 @_ZNK10params_ref8get_boolEPKcb(ptr noundef nonnull align 8 dereferenceable(8) %call76, ptr noundef @.str.23, i1 noundef zeroext false)
          to label %invoke.cont77 unwind label %lpad23

invoke.cont77:                                    ; preds = %invoke.cont75
  br i1 %call78, label %if.end80, label %if.then79

if.then79:                                        ; preds = %invoke.cont77
  store i32 1, ptr %cleanup.dest.slot, align 4
  br label %cleanup367

if.end80:                                         ; preds = %invoke.cont77
  %call82 = invoke noundef i32 @_Z19get_verbosity_levelv()
          to label %invoke.cont81 unwind label %lpad23

invoke.cont81:                                    ; preds = %if.end80
  %cmp83 = icmp uge i32 %call82, 1
  br i1 %cmp83, label %if.then84, label %if.end99

if.then84:                                        ; preds = %invoke.cont81
  %call86 = invoke noundef zeroext i1 @_Z11is_threadedv()
          to label %invoke.cont85 unwind label %lpad23

invoke.cont85:                                    ; preds = %if.then84
  br i1 %call86, label %if.then87, label %if.else

if.then87:                                        ; preds = %invoke.cont85
  invoke void @_Z12verbose_lockv()
          to label %invoke.cont88 unwind label %lpad23

invoke.cont88:                                    ; preds = %if.then87
  %call90 = invoke noundef nonnull align 8 dereferenceable(8) ptr @_Z14verbose_streamv()
          to label %invoke.cont89 unwind label %lpad23

invoke.cont89:                                    ; preds = %invoke.cont88
  %call92 = invoke noundef nonnull align 8 dereferenceable(8) ptr @_ZStlsISt11char_traitsIcEERSt13basic_ostreamIcT_ES5_PKc(ptr noundef nonnull align 8 dereferenceable(8) %call90, ptr noundef @.str.24)
          to label %invoke.cont91 unwind label %lpad23

invoke.cont91:                                    ; preds = %invoke.cont89
  invoke void @_Z14verbose_unlockv()
          to label %invoke.cont93 unwind label %lpad23

invoke.cont93:                                    ; preds = %invoke.cont91
  br label %if.end98

if.else:                                          ; preds = %invoke.cont85
  %call95 = invoke noundef nonnull align 8 dereferenceable(8) ptr @_Z14verbose_streamv()
          to label %invoke.cont94 unwind label %lpad23

invoke.cont94:                                    ; preds = %if.else
  %call97 = invoke noundef nonnull align 8 dereferenceable(8) ptr @_ZStlsISt11char_traitsIcEERSt13basic_ostreamIcT_ES5_PKc(ptr noundef nonnull align 8 dereferenceable(8) %call95, ptr noundef @.str.24)
          to label %invoke.cont96 unwind label %lpad23

invoke.cont96:                                    ; preds = %invoke.cont94
  br label %if.end98

if.end98:                                         ; preds = %invoke.cont96, %invoke.cont93
  br label %if.end99

if.end99:                                         ; preds = %if.end98, %invoke.cont81
  %29 = load ptr, ptr %mdl.addr, align 8
  %call101 = invoke noundef nonnull align 8 dereferenceable(160) ptr @_ZN3refI5modelEdeEv(ptr noundef nonnull align 8 dereferenceable(8) %29)
          to label %invoke.cont100 unwind label %lpad23

invoke.cont100:                                   ; preds = %if.end99
  invoke void @_ZN10params_refC2Ev(ptr noundef nonnull align 8 dereferenceable(8) %ref.tmp)
          to label %invoke.cont102 unwind label %lpad23

invoke.cont102:                                   ; preds = %invoke.cont100
  invoke void @_ZN15model_evaluatorC1ER10model_coreRK10params_ref(ptr noundef nonnull align 8 dereferenceable(8) %eval, ptr noundef nonnull align 8 dereferenceable(96) %call101, ptr noundef nonnull align 8 dereferenceable(8) %ref.tmp)
          to label %invoke.cont104 unwind label %lpad103

invoke.cont104:                                   ; preds = %invoke.cont102
  call void @_ZN10params_refD1Ev(ptr noundef nonnull align 8 dereferenceable(8) %ref.tmp) #3
  invoke void @_ZN15model_evaluator20set_model_completionEb(ptr noundef nonnull align 8 dereferenceable(8) %eval, i1 noundef zeroext true)
          to label %invoke.cont106 unwind label %lpad105

invoke.cont106:                                   ; preds = %invoke.cont104
  store i8 1, ptr %all_true, align 1
  %m_fmls107 = getelementptr inbounds %class.inc_sat_solver, ptr %this1, i32 0, i32 5
  store ptr %m_fmls107, ptr %__range1, align 8
  %30 = load ptr, ptr %__range1, align 8
  %call109 = invoke noundef ptr @_ZNK15ref_vector_coreI4expr19ref_manager_wrapperIS0_11ast_managerEE5beginEv(ptr noundef nonnull align 8 dereferenceable(16) %30)
          to label %invoke.cont108 unwind label %lpad105

invoke.cont108:                                   ; preds = %invoke.cont106
  store ptr %call109, ptr %__begin1, align 8
  %31 = load ptr, ptr %__range1, align 8
  %call111 = invoke noundef ptr @_ZNK15ref_vector_coreI4expr19ref_manager_wrapperIS0_11ast_managerEE3endEv(ptr noundef nonnull align 8 dereferenceable(16) %31)
          to label %invoke.cont110 unwind label %lpad105

invoke.cont110:                                   ; preds = %invoke.cont108
  store ptr %call111, ptr %__end1, align 8
  br label %for.cond112

for.cond112:                                      ; preds = %for.inc200, %invoke.cont110
  %32 = load ptr, ptr %__begin1, align 8
  %33 = load ptr, ptr %__end1, align 8
  %cmp113 = icmp ne ptr %32, %33
  br i1 %cmp113, label %for.body114, label %for.end201

for.body114:                                      ; preds = %for.cond112
  %34 = load ptr, ptr %__begin1, align 8
  %35 = load ptr, ptr %34, align 8
  store ptr %35, ptr %f, align 8
  %36 = load ptr, ptr %f, align 8
  %call116 = invoke noundef zeroext i1 @_Z15has_quantifiersPK4expr(ptr noundef %36)
          to label %invoke.cont115 unwind label %lpad105

invoke.cont115:                                   ; preds = %for.body114
  br i1 %call116, label %if.then117, label %if.end118

if.then117:                                       ; preds = %invoke.cont115
  br label %for.inc200

lpad103:                                          ; preds = %invoke.cont102
  %37 = landingpad { ptr, i32 }
          cleanup
  %38 = extractvalue { ptr, i32 } %37, 0
  store ptr %38, ptr %exn.slot, align 8
  %39 = extractvalue { ptr, i32 } %37, 1
  store i32 %39, ptr %ehselector.slot, align 4
  call void @_ZN10params_refD1Ev(ptr noundef nonnull align 8 dereferenceable(8) %ref.tmp) #3
  br label %ehcleanup368

lpad105:                                          ; preds = %invoke.cont358, %if.else357, %invoke.cont354, %invoke.cont352, %invoke.cont351, %if.then350, %if.then347, %if.else343, %invoke.cont321, %for.body319, %invoke.cont312, %if.else308, %for.end306, %invoke.cont289, %for.body288, %invoke.cont282, %invoke.cont280, %if.then279, %if.then276, %if.end272, %invoke.cont265, %invoke.cont263, %invoke.cont261, %if.then259, %if.else254, %if.end252, %invoke.cont247, %invoke.cont245, %invoke.cont243, %if.then241, %invoke.cont236, %if.then235, %if.then232, %if.end228, %invoke.cont223, %invoke.cont220, %if.else219, %invoke.cont216, %invoke.cont214, %invoke.cont212, %invoke.cont211, %if.then210, %if.then207, %if.then203, %if.end118, %for.body114, %invoke.cont108, %invoke.cont106, %invoke.cont104
  %40 = landingpad { ptr, i32 }
          cleanup
  %41 = extractvalue { ptr, i32 } %40, 0
  store ptr %41, ptr %exn.slot, align 8
  %42 = extractvalue { ptr, i32 } %40, 1
  store i32 %42, ptr %ehselector.slot, align 4
  br label %ehcleanup366

if.end118:                                        ; preds = %invoke.cont115
  %m119 = getelementptr inbounds %class.check_sat_result, ptr %this1, i32 0, i32 1
  %43 = load ptr, ptr %m119, align 8
  invoke void @_ZN7obj_refI4expr11ast_managerEC2ERS1_(ptr noundef nonnull align 8 dereferenceable(16) %tmp, ptr noundef nonnull align 8 dereferenceable(976) %43)
          to label %invoke.cont120 unwind label %lpad105

invoke.cont120:                                   ; preds = %if.end118
  %44 = load ptr, ptr %f, align 8
  invoke void @_ZN15model_evaluatorclEP4exprR7obj_refIS0_11ast_managerE(ptr noundef nonnull align 8 dereferenceable(8) %eval, ptr noundef %44, ptr noundef nonnull align 8 dereferenceable(16) %tmp)
          to label %invoke.cont122 unwind label %lpad121

invoke.cont122:                                   ; preds = %invoke.cont120
  %m123 = getelementptr inbounds %class.check_sat_result, ptr %this1, i32 0, i32 1
  %45 = load ptr, ptr %m123, align 8
  %call124 = call noundef nonnull align 8 dereferenceable(40) ptr @_ZN11ast_manager5limitEv(ptr noundef nonnull align 8 dereferenceable(976) %45)
  %call126 = invoke noundef zeroext i1 @_ZNK8reslimit11is_canceledEv(ptr noundef nonnull align 8 dereferenceable(40) %call124)
          to label %invoke.cont125 unwind label %lpad121

invoke.cont125:                                   ; preds = %invoke.cont122
  br i1 %call126, label %if.then127, label %if.end128

if.then127:                                       ; preds = %invoke.cont125
  store i32 1, ptr %cleanup.dest.slot, align 4
  br label %cleanup

lpad121:                                          ; preds = %invoke.cont193, %invoke.cont191, %invoke.cont189, %if.else188, %invoke.cont185, %invoke.cont183, %invoke.cont181, %invoke.cont179, %invoke.cont178, %if.then177, %if.then174, %if.end170, %invoke.cont159, %invoke.cont157, %if.else156, %invoke.cont153, %invoke.cont145, %invoke.cont143, %invoke.cont142, %if.then141, %if.then138, %if.then134, %invoke.cont130, %if.end128, %invoke.cont122, %invoke.cont120
  %46 = landingpad { ptr, i32 }
          cleanup
  %47 = extractvalue { ptr, i32 } %46, 0
  store ptr %47, ptr %exn.slot, align 8
  %48 = extractvalue { ptr, i32 } %46, 1
  store i32 %48, ptr %ehselector.slot, align 4
  br label %ehcleanup

if.end128:                                        ; preds = %invoke.cont125
  %m129 = getelementptr inbounds %class.check_sat_result, ptr %this1, i32 0, i32 1
  %49 = load ptr, ptr %m129, align 8
  %call131 = invoke noundef ptr @_ZNK7obj_refI4expr11ast_managerEcvPS0_Ev(ptr noundef nonnull align 8 dereferenceable(16) %tmp)
          to label %invoke.cont130 unwind label %lpad121

invoke.cont130:                                   ; preds = %if.end128
  %call133 = invoke noundef zeroext i1 @_ZNK11ast_manager8is_falseEPK4expr(ptr noundef nonnull align 8 dereferenceable(976) %49, ptr noundef %call131)
          to label %invoke.cont132 unwind label %lpad121

invoke.cont132:                                   ; preds = %invoke.cont130
  br i1 %call133, label %if.then134, label %if.end199

if.then134:                                       ; preds = %invoke.cont132
  %call136 = invoke noundef i32 @_Z19get_verbosity_levelv()
          to label %invoke.cont135 unwind label %lpad121

invoke.cont135:                                   ; preds = %if.then134
  %cmp137 = icmp uge i32 %call136, 0
  br i1 %cmp137, label %if.then138, label %if.end170

if.then138:                                       ; preds = %invoke.cont135
  %call140 = invoke noundef zeroext i1 @_Z11is_threadedv()
          to label %invoke.cont139 unwind label %lpad121

invoke.cont139:                                   ; preds = %if.then138
  br i1 %call140, label %if.then141, label %if.else156

if.then141:                                       ; preds = %invoke.cont139
  invoke void @_Z12verbose_lockv()
          to label %invoke.cont142 unwind label %lpad121

invoke.cont142:                                   ; preds = %if.then141
  %call144 = invoke noundef nonnull align 8 dereferenceable(8) ptr @_Z14verbose_streamv()
          to label %invoke.cont143 unwind label %lpad121

invoke.cont143:                                   ; preds = %invoke.cont142
  %call146 = invoke noundef nonnull align 8 dereferenceable(8) ptr @_ZStlsISt11char_traitsIcEERSt13basic_ostreamIcT_ES5_PKc(ptr noundef nonnull align 8 dereferenceable(8) %call144, ptr noundef @.str.25)
          to label %invoke.cont145 unwind label %lpad121

invoke.cont145:                                   ; preds = %invoke.cont143
  %50 = load ptr, ptr %f, align 8
  %m148 = getelementptr inbounds %class.check_sat_result, ptr %this1, i32 0, i32 1
  %51 = load ptr, ptr %m148, align 8
  invoke void @_ZN5mk_ppC2EP3astR11ast_managerjjPKc(ptr noundef nonnull align 8 dereferenceable(48) %ref.tmp147, ptr noundef %50, ptr noundef nonnull align 8 dereferenceable(976) %51, i32 noundef 0, i32 noundef 0, ptr noundef null)
          to label %invoke.cont149 unwind label %lpad121

invoke.cont149:                                   ; preds = %invoke.cont145
  %call152 = invoke noundef nonnull align 8 dereferenceable(8) ptr @_ZlsRSoRK11mk_ismt2_pp(ptr noundef nonnull align 8 dereferenceable(8) %call146, ptr noundef nonnull align 8 dereferenceable(48) %ref.tmp147)
          to label %invoke.cont151 unwind label %lpad150

invoke.cont151:                                   ; preds = %invoke.cont149
  %call154 = invoke noundef nonnull align 8 dereferenceable(8) ptr @_ZStlsISt11char_traitsIcEERSt13basic_ostreamIcT_ES5_PKc(ptr noundef nonnull align 8 dereferenceable(8) %call152, ptr noundef @.str.26)
          to label %invoke.cont153 unwind label %lpad150

invoke.cont153:                                   ; preds = %invoke.cont151
  call void @_ZN5mk_ppD2Ev(ptr noundef nonnull align 8 dereferenceable(48) %ref.tmp147) #3
  invoke void @_Z14verbose_unlockv()
          to label %invoke.cont155 unwind label %lpad121

invoke.cont155:                                   ; preds = %invoke.cont153
  br label %if.end169

lpad150:                                          ; preds = %invoke.cont151, %invoke.cont149
  %52 = landingpad { ptr, i32 }
          cleanup
  %53 = extractvalue { ptr, i32 } %52, 0
  store ptr %53, ptr %exn.slot, align 8
  %54 = extractvalue { ptr, i32 } %52, 1
  store i32 %54, ptr %ehselector.slot, align 4
  call void @_ZN5mk_ppD2Ev(ptr noundef nonnull align 8 dereferenceable(48) %ref.tmp147) #3
  br label %ehcleanup

if.else156:                                       ; preds = %invoke.cont139
  %call158 = invoke noundef nonnull align 8 dereferenceable(8) ptr @_Z14verbose_streamv()
          to label %invoke.cont157 unwind label %lpad121

invoke.cont157:                                   ; preds = %if.else156
  %call160 = invoke noundef nonnull align 8 dereferenceable(8) ptr @_ZStlsISt11char_traitsIcEERSt13basic_ostreamIcT_ES5_PKc(ptr noundef nonnull align 8 dereferenceable(8) %call158, ptr noundef @.str.25)
          to label %invoke.cont159 unwind label %lpad121

invoke.cont159:                                   ; preds = %invoke.cont157
  %55 = load ptr, ptr %f, align 8
  %m162 = getelementptr inbounds %class.check_sat_result, ptr %this1, i32 0, i32 1
  %56 = load ptr, ptr %m162, align 8
  invoke void @_ZN5mk_ppC2EP3astR11ast_managerjjPKc(ptr noundef nonnull align 8 dereferenceable(48) %ref.tmp161, ptr noundef %55, ptr noundef nonnull align 8 dereferenceable(976) %56, i32 noundef 0, i32 noundef 0, ptr noundef null)
          to label %invoke.cont163 unwind label %lpad121

invoke.cont163:                                   ; preds = %invoke.cont159
  %call166 = invoke noundef nonnull align 8 dereferenceable(8) ptr @_ZlsRSoRK11mk_ismt2_pp(ptr noundef nonnull align 8 dereferenceable(8) %call160, ptr noundef nonnull align 8 dereferenceable(48) %ref.tmp161)
          to label %invoke.cont165 unwind label %lpad164

invoke.cont165:                                   ; preds = %invoke.cont163
  %call168 = invoke noundef nonnull align 8 dereferenceable(8) ptr @_ZStlsISt11char_traitsIcEERSt13basic_ostreamIcT_ES5_PKc(ptr noundef nonnull align 8 dereferenceable(8) %call166, ptr noundef @.str.26)
          to label %invoke.cont167 unwind label %lpad164

invoke.cont167:                                   ; preds = %invoke.cont165
  call void @_ZN5mk_ppD2Ev(ptr noundef nonnull align 8 dereferenceable(48) %ref.tmp161) #3
  br label %if.end169

lpad164:                                          ; preds = %invoke.cont165, %invoke.cont163
  %57 = landingpad { ptr, i32 }
          cleanup
  %58 = extractvalue { ptr, i32 } %57, 0
  store ptr %58, ptr %exn.slot, align 8
  %59 = extractvalue { ptr, i32 } %57, 1
  store i32 %59, ptr %ehselector.slot, align 4
  call void @_ZN5mk_ppD2Ev(ptr noundef nonnull align 8 dereferenceable(48) %ref.tmp161) #3
  br label %ehcleanup

if.end169:                                        ; preds = %invoke.cont167, %invoke.cont155
  br label %if.end170

if.end170:                                        ; preds = %if.end169, %invoke.cont135
  %call172 = invoke noundef i32 @_Z19get_verbosity_levelv()
          to label %invoke.cont171 unwind label %lpad121

invoke.cont171:                                   ; preds = %if.end170
  %cmp173 = icmp uge i32 %call172, 0
  br i1 %cmp173, label %if.then174, label %if.end198

if.then174:                                       ; preds = %invoke.cont171
  %call176 = invoke noundef zeroext i1 @_Z11is_threadedv()
          to label %invoke.cont175 unwind label %lpad121

invoke.cont175:                                   ; preds = %if.then174
  br i1 %call176, label %if.then177, label %if.else188

if.then177:                                       ; preds = %invoke.cont175
  invoke void @_Z12verbose_lockv()
          to label %invoke.cont178 unwind label %lpad121

invoke.cont178:                                   ; preds = %if.then177
  %call180 = invoke noundef nonnull align 8 dereferenceable(8) ptr @_Z14verbose_streamv()
          to label %invoke.cont179 unwind label %lpad121

invoke.cont179:                                   ; preds = %invoke.cont178
  %call182 = invoke noundef nonnull align 8 dereferenceable(8) ptr @_ZStlsISt11char_traitsIcEERSt13basic_ostreamIcT_ES5_PKc(ptr noundef nonnull align 8 dereferenceable(8) %call180, ptr noundef @.str.27)
          to label %invoke.cont181 unwind label %lpad121

invoke.cont181:                                   ; preds = %invoke.cont179
  %call184 = invoke noundef nonnull align 8 dereferenceable(8) ptr @_ZlsRSoRK7obj_refI4expr11ast_managerE(ptr noundef nonnull align 8 dereferenceable(8) %call182, ptr noundef nonnull align 8 dereferenceable(16) %tmp)
          to label %invoke.cont183 unwind label %lpad121

invoke.cont183:                                   ; preds = %invoke.cont181
  %call186 = invoke noundef nonnull align 8 dereferenceable(8) ptr @_ZStlsISt11char_traitsIcEERSt13basic_ostreamIcT_ES5_PKc(ptr noundef nonnull align 8 dereferenceable(8) %call184, ptr noundef @.str.26)
          to label %invoke.cont185 unwind label %lpad121

invoke.cont185:                                   ; preds = %invoke.cont183
  invoke void @_Z14verbose_unlockv()
          to label %invoke.cont187 unwind label %lpad121

invoke.cont187:                                   ; preds = %invoke.cont185
  br label %if.end197

if.else188:                                       ; preds = %invoke.cont175
  %call190 = invoke noundef nonnull align 8 dereferenceable(8) ptr @_Z14verbose_streamv()
          to label %invoke.cont189 unwind label %lpad121

invoke.cont189:                                   ; preds = %if.else188
  %call192 = invoke noundef nonnull align 8 dereferenceable(8) ptr @_ZStlsISt11char_traitsIcEERSt13basic_ostreamIcT_ES5_PKc(ptr noundef nonnull align 8 dereferenceable(8) %call190, ptr noundef @.str.27)
          to label %invoke.cont191 unwind label %lpad121

invoke.cont191:                                   ; preds = %invoke.cont189
  %call194 = invoke noundef nonnull align 8 dereferenceable(8) ptr @_ZlsRSoRK7obj_refI4expr11ast_managerE(ptr noundef nonnull align 8 dereferenceable(8) %call192, ptr noundef nonnull align 8 dereferenceable(16) %tmp)
          to label %invoke.cont193 unwind label %lpad121

invoke.cont193:                                   ; preds = %invoke.cont191
  %call196 = invoke noundef nonnull align 8 dereferenceable(8) ptr @_ZStlsISt11char_traitsIcEERSt13basic_ostreamIcT_ES5_PKc(ptr noundef nonnull align 8 dereferenceable(8) %call194, ptr noundef @.str.26)
          to label %invoke.cont195 unwind label %lpad121

invoke.cont195:                                   ; preds = %invoke.cont193
  br label %if.end197

if.end197:                                        ; preds = %invoke.cont195, %invoke.cont187
  br label %if.end198

if.end198:                                        ; preds = %if.end197, %invoke.cont171
  store i8 0, ptr %all_true, align 1
  br label %if.end199

if.end199:                                        ; preds = %if.end198, %invoke.cont132
  store i32 0, ptr %cleanup.dest.slot, align 4
  br label %cleanup

cleanup:                                          ; preds = %if.end199, %if.then127
  call void @_ZN7obj_refI4expr11ast_managerED2Ev(ptr noundef nonnull align 8 dereferenceable(16) %tmp) #3
  %cleanup.dest = load i32, ptr %cleanup.dest.slot, align 4
  switch i32 %cleanup.dest, label %cleanup365 [
    i32 0, label %cleanup.cont
  ]

cleanup.cont:                                     ; preds = %cleanup
  br label %for.inc200

for.inc200:                                       ; preds = %cleanup.cont, %if.then117
  %60 = load ptr, ptr %__begin1, align 8
  %incdec.ptr = getelementptr inbounds ptr, ptr %60, i32 1
  store ptr %incdec.ptr, ptr %__begin1, align 8
  br label %for.cond112

ehcleanup:                                        ; preds = %lpad164, %lpad150, %lpad121
  call void @_ZN7obj_refI4expr11ast_managerED2Ev(ptr noundef nonnull align 8 dereferenceable(16) %tmp) #3
  br label %ehcleanup366

for.end201:                                       ; preds = %for.cond112
  %61 = load i8, ptr %all_true, align 1
  %tobool202 = trunc i8 %61 to i1
  br i1 %tobool202, label %if.else343, label %if.then203

if.then203:                                       ; preds = %for.end201
  %call205 = invoke noundef i32 @_Z19get_verbosity_levelv()
          to label %invoke.cont204 unwind label %lpad105

invoke.cont204:                                   ; preds = %if.then203
  %cmp206 = icmp uge i32 %call205, 0
  br i1 %cmp206, label %if.then207, label %if.end228

if.then207:                                       ; preds = %invoke.cont204
  %call209 = invoke noundef zeroext i1 @_Z11is_threadedv()
          to label %invoke.cont208 unwind label %lpad105

invoke.cont208:                                   ; preds = %if.then207
  br i1 %call209, label %if.then210, label %if.else219

if.then210:                                       ; preds = %invoke.cont208
  invoke void @_Z12verbose_lockv()
          to label %invoke.cont211 unwind label %lpad105

invoke.cont211:                                   ; preds = %if.then210
  %call213 = invoke noundef nonnull align 8 dereferenceable(8) ptr @_Z14verbose_streamv()
          to label %invoke.cont212 unwind label %lpad105

invoke.cont212:                                   ; preds = %invoke.cont211
  %m_params = getelementptr inbounds %class.inc_sat_solver, ptr %this1, i32 0, i32 4
  %call215 = invoke noundef nonnull align 8 dereferenceable(8) ptr @_ZlsRSoRK10params_ref(ptr noundef nonnull align 8 dereferenceable(8) %call213, ptr noundef nonnull align 8 dereferenceable(8) %m_params)
          to label %invoke.cont214 unwind label %lpad105

invoke.cont214:                                   ; preds = %invoke.cont212
  %call217 = invoke noundef nonnull align 8 dereferenceable(8) ptr @_ZStlsISt11char_traitsIcEERSt13basic_ostreamIcT_ES5_PKc(ptr noundef nonnull align 8 dereferenceable(8) %call215, ptr noundef @.str.26)
          to label %invoke.cont216 unwind label %lpad105

invoke.cont216:                                   ; preds = %invoke.cont214
  invoke void @_Z14verbose_unlockv()
          to label %invoke.cont218 unwind label %lpad105

invoke.cont218:                                   ; preds = %invoke.cont216
  br label %if.end227

if.else219:                                       ; preds = %invoke.cont208
  %call221 = invoke noundef nonnull align 8 dereferenceable(8) ptr @_Z14verbose_streamv()
          to label %invoke.cont220 unwind label %lpad105

invoke.cont220:                                   ; preds = %if.else219
  %m_params222 = getelementptr inbounds %class.inc_sat_solver, ptr %this1, i32 0, i32 4
  %call224 = invoke noundef nonnull align 8 dereferenceable(8) ptr @_ZlsRSoRK10params_ref(ptr noundef nonnull align 8 dereferenceable(8) %call221, ptr noundef nonnull align 8 dereferenceable(8) %m_params222)
          to label %invoke.cont223 unwind label %lpad105

invoke.cont223:                                   ; preds = %invoke.cont220
  %call226 = invoke noundef nonnull align 8 dereferenceable(8) ptr @_ZStlsISt11char_traitsIcEERSt13basic_ostreamIcT_ES5_PKc(ptr noundef nonnull align 8 dereferenceable(8) %call224, ptr noundef @.str.26)
          to label %invoke.cont225 unwind label %lpad105

invoke.cont225:                                   ; preds = %invoke.cont223
  br label %if.end227

if.end227:                                        ; preds = %invoke.cont225, %invoke.cont218
  br label %if.end228

if.end228:                                        ; preds = %if.end227, %invoke.cont204
  %call230 = invoke noundef i32 @_Z19get_verbosity_levelv()
          to label %invoke.cont229 unwind label %lpad105

invoke.cont229:                                   ; preds = %if.end228
  %cmp231 = icmp uge i32 %call230, 0
  br i1 %cmp231, label %if.then232, label %if.end272

if.then232:                                       ; preds = %invoke.cont229
  %call234 = invoke noundef zeroext i1 @_Z11is_threadedv()
          to label %invoke.cont233 unwind label %lpad105

invoke.cont233:                                   ; preds = %if.then232
  br i1 %call234, label %if.then235, label %if.else254

if.then235:                                       ; preds = %invoke.cont233
  invoke void @_Z12verbose_lockv()
          to label %invoke.cont236 unwind label %lpad105

invoke.cont236:                                   ; preds = %if.then235
  %m_mcs237 = getelementptr inbounds %class.inc_sat_solver, ptr %this1, i32 0, i32 20
  %call239 = invoke noundef ptr @_ZNK15ref_vector_coreI15model_converter21ref_unmanaged_wrapperIS0_EE4backEv(ptr noundef nonnull align 8 dereferenceable(8) %m_mcs237)
          to label %invoke.cont238 unwind label %lpad105

invoke.cont238:                                   ; preds = %invoke.cont236
  %tobool240 = icmp ne ptr %call239, null
  br i1 %tobool240, label %if.then241, label %if.end252

if.then241:                                       ; preds = %invoke.cont238
  %m_mcs242 = getelementptr inbounds %class.inc_sat_solver, ptr %this1, i32 0, i32 20
  %call244 = invoke noundef ptr @_ZNK15ref_vector_coreI15model_converter21ref_unmanaged_wrapperIS0_EE4backEv(ptr noundef nonnull align 8 dereferenceable(8) %m_mcs242)
          to label %invoke.cont243 unwind label %lpad105

invoke.cont243:                                   ; preds = %if.then241
  %call246 = invoke noundef nonnull align 8 dereferenceable(8) ptr @_Z14verbose_streamv()
          to label %invoke.cont245 unwind label %lpad105

invoke.cont245:                                   ; preds = %invoke.cont243
  %call248 = invoke noundef nonnull align 8 dereferenceable(8) ptr @_ZStlsISt11char_traitsIcEERSt13basic_ostreamIcT_ES5_PKc(ptr noundef nonnull align 8 dereferenceable(8) %call246, ptr noundef @.str.28)
          to label %invoke.cont247 unwind label %lpad105

invoke.cont247:                                   ; preds = %invoke.cont245
  %vtable249 = load ptr, ptr %call244, align 8
  %vfn250 = getelementptr inbounds ptr, ptr %vtable249, i64 3
  %62 = load ptr, ptr %vfn250, align 8
  invoke void %62(ptr noundef nonnull align 8 dereferenceable(12) %call244, ptr noundef nonnull align 8 dereferenceable(8) %call248)
          to label %invoke.cont251 unwind label %lpad105

invoke.cont251:                                   ; preds = %invoke.cont247
  br label %if.end252

if.end252:                                        ; preds = %invoke.cont251, %invoke.cont238
  invoke void @_Z14verbose_unlockv()
          to label %invoke.cont253 unwind label %lpad105

invoke.cont253:                                   ; preds = %if.end252
  br label %if.end271

if.else254:                                       ; preds = %invoke.cont233
  %m_mcs255 = getelementptr inbounds %class.inc_sat_solver, ptr %this1, i32 0, i32 20
  %call257 = invoke noundef ptr @_ZNK15ref_vector_coreI15model_converter21ref_unmanaged_wrapperIS0_EE4backEv(ptr noundef nonnull align 8 dereferenceable(8) %m_mcs255)
          to label %invoke.cont256 unwind label %lpad105

invoke.cont256:                                   ; preds = %if.else254
  %tobool258 = icmp ne ptr %call257, null
  br i1 %tobool258, label %if.then259, label %if.end270

if.then259:                                       ; preds = %invoke.cont256
  %m_mcs260 = getelementptr inbounds %class.inc_sat_solver, ptr %this1, i32 0, i32 20
  %call262 = invoke noundef ptr @_ZNK15ref_vector_coreI15model_converter21ref_unmanaged_wrapperIS0_EE4backEv(ptr noundef nonnull align 8 dereferenceable(8) %m_mcs260)
          to label %invoke.cont261 unwind label %lpad105

invoke.cont261:                                   ; preds = %if.then259
  %call264 = invoke noundef nonnull align 8 dereferenceable(8) ptr @_Z14verbose_streamv()
          to label %invoke.cont263 unwind label %lpad105

invoke.cont263:                                   ; preds = %invoke.cont261
  %call266 = invoke noundef nonnull align 8 dereferenceable(8) ptr @_ZStlsISt11char_traitsIcEERSt13basic_ostreamIcT_ES5_PKc(ptr noundef nonnull align 8 dereferenceable(8) %call264, ptr noundef @.str.28)
          to label %invoke.cont265 unwind label %lpad105

invoke.cont265:                                   ; preds = %invoke.cont263
  %vtable267 = load ptr, ptr %call262, align 8
  %vfn268 = getelementptr inbounds ptr, ptr %vtable267, i64 3
  %63 = load ptr, ptr %vfn268, align 8
  invoke void %63(ptr noundef nonnull align 8 dereferenceable(12) %call262, ptr noundef nonnull align 8 dereferenceable(8) %call266)
          to label %invoke.cont269 unwind label %lpad105

invoke.cont269:                                   ; preds = %invoke.cont265
  br label %if.end270

if.end270:                                        ; preds = %invoke.cont269, %invoke.cont256
  br label %if.end271

if.end271:                                        ; preds = %if.end270, %invoke.cont253
  br label %if.end272

if.end272:                                        ; preds = %if.end271, %invoke.cont229
  %call274 = invoke noundef i32 @_Z19get_verbosity_levelv()
          to label %invoke.cont273 unwind label %lpad105

invoke.cont273:                                   ; preds = %if.end272
  %cmp275 = icmp uge i32 %call274, 0
  br i1 %cmp275, label %if.then276, label %if.end342

if.then276:                                       ; preds = %invoke.cont273
  %call278 = invoke noundef zeroext i1 @_Z11is_threadedv()
          to label %invoke.cont277 unwind label %lpad105

invoke.cont277:                                   ; preds = %if.then276
  br i1 %call278, label %if.then279, label %if.else308

if.then279:                                       ; preds = %invoke.cont277
  invoke void @_Z12verbose_lockv()
          to label %invoke.cont280 unwind label %lpad105

invoke.cont280:                                   ; preds = %if.then279
  %m_map281 = getelementptr inbounds %class.inc_sat_solver, ptr %this1, i32 0, i32 12
  store ptr %m_map281, ptr %__range5, align 8
  %64 = load ptr, ptr %__range5, align 8
  %call283 = invoke noundef ptr @_ZNK8expr2var5beginEv(ptr noundef nonnull align 8 dereferenceable(41) %64)
          to label %invoke.cont282 unwind label %lpad105

invoke.cont282:                                   ; preds = %invoke.cont280
  store ptr %call283, ptr %__begin5, align 8
  %65 = load ptr, ptr %__range5, align 8
  %call285 = invoke noundef ptr @_ZNK8expr2var3endEv(ptr noundef nonnull align 8 dereferenceable(41) %65)
          to label %invoke.cont284 unwind label %lpad105

invoke.cont284:                                   ; preds = %invoke.cont282
  store ptr %call285, ptr %__end5, align 8
  br label %for.cond286

for.cond286:                                      ; preds = %for.inc304, %invoke.cont284
  %66 = load ptr, ptr %__begin5, align 8
  %67 = load ptr, ptr %__end5, align 8
  %cmp287 = icmp ne ptr %66, %67
  br i1 %cmp287, label %for.body288, label %for.end306

for.body288:                                      ; preds = %for.cond286
  %68 = load ptr, ptr %__begin5, align 8
  store ptr %68, ptr %kv, align 8
  %call290 = invoke noundef nonnull align 8 dereferenceable(8) ptr @_Z14verbose_streamv()
          to label %invoke.cont289 unwind label %lpad105

invoke.cont289:                                   ; preds = %for.body288
  %69 = load ptr, ptr %kv, align 8
  %m_key = getelementptr inbounds %"struct.obj_map<expr, unsigned int>::key_data", ptr %69, i32 0, i32 0
  %70 = load ptr, ptr %m_key, align 8
  %m292 = getelementptr inbounds %class.check_sat_result, ptr %this1, i32 0, i32 1
  %71 = load ptr, ptr %m292, align 8
  invoke void @_ZN5mk_ppC2EP3astR11ast_managerjjPKc(ptr noundef nonnull align 8 dereferenceable(48) %ref.tmp291, ptr noundef %70, ptr noundef nonnull align 8 dereferenceable(976) %71, i32 noundef 0, i32 noundef 0, ptr noundef null)
          to label %invoke.cont293 unwind label %lpad105

invoke.cont293:                                   ; preds = %invoke.cont289
  %call296 = invoke noundef nonnull align 8 dereferenceable(8) ptr @_ZlsRSoRK11mk_ismt2_pp(ptr noundef nonnull align 8 dereferenceable(8) %call290, ptr noundef nonnull align 8 dereferenceable(48) %ref.tmp291)
          to label %invoke.cont295 unwind label %lpad294

invoke.cont295:                                   ; preds = %invoke.cont293
  %call298 = invoke noundef nonnull align 8 dereferenceable(8) ptr @_ZStlsISt11char_traitsIcEERSt13basic_ostreamIcT_ES5_PKc(ptr noundef nonnull align 8 dereferenceable(8) %call296, ptr noundef @.str.29)
          to label %invoke.cont297 unwind label %lpad294

invoke.cont297:                                   ; preds = %invoke.cont295
  %72 = load ptr, ptr %kv, align 8
  %m_value = getelementptr inbounds %"struct.obj_map<expr, unsigned int>::key_data", ptr %72, i32 0, i32 1
  %73 = load i32, ptr %m_value, align 8
  %call300 = invoke noundef nonnull align 8 dereferenceable(8) ptr @_ZNSolsEj(ptr noundef nonnull align 8 dereferenceable(8) %call298, i32 noundef %73)
          to label %invoke.cont299 unwind label %lpad294

invoke.cont299:                                   ; preds = %invoke.cont297
  %call302 = invoke noundef nonnull align 8 dereferenceable(8) ptr @_ZStlsISt11char_traitsIcEERSt13basic_ostreamIcT_ES5_PKc(ptr noundef nonnull align 8 dereferenceable(8) %call300, ptr noundef @.str.26)
          to label %invoke.cont301 unwind label %lpad294

invoke.cont301:                                   ; preds = %invoke.cont299
  call void @_ZN5mk_ppD2Ev(ptr noundef nonnull align 8 dereferenceable(48) %ref.tmp291) #3
  br label %for.inc304

for.inc304:                                       ; preds = %invoke.cont301
  %74 = load ptr, ptr %__begin5, align 8
  %incdec.ptr305 = getelementptr inbounds %"struct.obj_map<expr, unsigned int>::key_data", ptr %74, i32 1
  store ptr %incdec.ptr305, ptr %__begin5, align 8
  br label %for.cond286

lpad294:                                          ; preds = %invoke.cont299, %invoke.cont297, %invoke.cont295, %invoke.cont293
  %75 = landingpad { ptr, i32 }
          cleanup
  %76 = extractvalue { ptr, i32 } %75, 0
  store ptr %76, ptr %exn.slot, align 8
  %77 = extractvalue { ptr, i32 } %75, 1
  store i32 %77, ptr %ehselector.slot, align 4
  call void @_ZN5mk_ppD2Ev(ptr noundef nonnull align 8 dereferenceable(48) %ref.tmp291) #3
  br label %ehcleanup366

for.end306:                                       ; preds = %for.cond286
  invoke void @_Z14verbose_unlockv()
          to label %invoke.cont307 unwind label %lpad105

invoke.cont307:                                   ; preds = %for.end306
  br label %if.end341

if.else308:                                       ; preds = %invoke.cont277
  %m_map310 = getelementptr inbounds %class.inc_sat_solver, ptr %this1, i32 0, i32 12
  store ptr %m_map310, ptr %__range5309, align 8
  %78 = load ptr, ptr %__range5309, align 8
  %call313 = invoke noundef ptr @_ZNK8expr2var5beginEv(ptr noundef nonnull align 8 dereferenceable(41) %78)
          to label %invoke.cont312 unwind label %lpad105

invoke.cont312:                                   ; preds = %if.else308
  store ptr %call313, ptr %__begin5311, align 8
  %79 = load ptr, ptr %__range5309, align 8
  %call316 = invoke noundef ptr @_ZNK8expr2var3endEv(ptr noundef nonnull align 8 dereferenceable(41) %79)
          to label %invoke.cont315 unwind label %lpad105

invoke.cont315:                                   ; preds = %invoke.cont312
  store ptr %call316, ptr %__end5314, align 8
  br label %for.cond317

for.cond317:                                      ; preds = %for.inc338, %invoke.cont315
  %80 = load ptr, ptr %__begin5311, align 8
  %81 = load ptr, ptr %__end5314, align 8
  %cmp318 = icmp ne ptr %80, %81
  br i1 %cmp318, label %for.body319, label %for.end340

for.body319:                                      ; preds = %for.cond317
  %82 = load ptr, ptr %__begin5311, align 8
  store ptr %82, ptr %kv320, align 8
  %call322 = invoke noundef nonnull align 8 dereferenceable(8) ptr @_Z14verbose_streamv()
          to label %invoke.cont321 unwind label %lpad105

invoke.cont321:                                   ; preds = %for.body319
  %83 = load ptr, ptr %kv320, align 8
  %m_key324 = getelementptr inbounds %"struct.obj_map<expr, unsigned int>::key_data", ptr %83, i32 0, i32 0
  %84 = load ptr, ptr %m_key324, align 8
  %m325 = getelementptr inbounds %class.check_sat_result, ptr %this1, i32 0, i32 1
  %85 = load ptr, ptr %m325, align 8
  invoke void @_ZN5mk_ppC2EP3astR11ast_managerjjPKc(ptr noundef nonnull align 8 dereferenceable(48) %ref.tmp323, ptr noundef %84, ptr noundef nonnull align 8 dereferenceable(976) %85, i32 noundef 0, i32 noundef 0, ptr noundef null)
          to label %invoke.cont326 unwind label %lpad105

invoke.cont326:                                   ; preds = %invoke.cont321
  %call329 = invoke noundef nonnull align 8 dereferenceable(8) ptr @_ZlsRSoRK11mk_ismt2_pp(ptr noundef nonnull align 8 dereferenceable(8) %call322, ptr noundef nonnull align 8 dereferenceable(48) %ref.tmp323)
          to label %invoke.cont328 unwind label %lpad327

invoke.cont328:                                   ; preds = %invoke.cont326
  %call331 = invoke noundef nonnull align 8 dereferenceable(8) ptr @_ZStlsISt11char_traitsIcEERSt13basic_ostreamIcT_ES5_PKc(ptr noundef nonnull align 8 dereferenceable(8) %call329, ptr noundef @.str.29)
          to label %invoke.cont330 unwind label %lpad327

invoke.cont330:                                   ; preds = %invoke.cont328
  %86 = load ptr, ptr %kv320, align 8
  %m_value332 = getelementptr inbounds %"struct.obj_map<expr, unsigned int>::key_data", ptr %86, i32 0, i32 1
  %87 = load i32, ptr %m_value332, align 8
  %call334 = invoke noundef nonnull align 8 dereferenceable(8) ptr @_ZNSolsEj(ptr noundef nonnull align 8 dereferenceable(8) %call331, i32 noundef %87)
          to label %invoke.cont333 unwind label %lpad327

invoke.cont333:                                   ; preds = %invoke.cont330
  %call336 = invoke noundef nonnull align 8 dereferenceable(8) ptr @_ZStlsISt11char_traitsIcEERSt13basic_ostreamIcT_ES5_PKc(ptr noundef nonnull align 8 dereferenceable(8) %call334, ptr noundef @.str.26)
          to label %invoke.cont335 unwind label %lpad327

invoke.cont335:                                   ; preds = %invoke.cont333
  call void @_ZN5mk_ppD2Ev(ptr noundef nonnull align 8 dereferenceable(48) %ref.tmp323) #3
  br label %for.inc338

for.inc338:                                       ; preds = %invoke.cont335
  %88 = load ptr, ptr %__begin5311, align 8
  %incdec.ptr339 = getelementptr inbounds %"struct.obj_map<expr, unsigned int>::key_data", ptr %88, i32 1
  store ptr %incdec.ptr339, ptr %__begin5311, align 8
  br label %for.cond317

lpad327:                                          ; preds = %invoke.cont333, %invoke.cont330, %invoke.cont328, %invoke.cont326
  %89 = landingpad { ptr, i32 }
          cleanup
  %90 = extractvalue { ptr, i32 } %89, 0
  store ptr %90, ptr %exn.slot, align 8
  %91 = extractvalue { ptr, i32 } %89, 1
  store i32 %91, ptr %ehselector.slot, align 4
  call void @_ZN5mk_ppD2Ev(ptr noundef nonnull align 8 dereferenceable(48) %ref.tmp323) #3
  br label %ehcleanup366

for.end340:                                       ; preds = %for.cond317
  br label %if.end341

if.end341:                                        ; preds = %for.end340, %invoke.cont307
  br label %if.end342

if.end342:                                        ; preds = %if.end341, %invoke.cont273
  call void @exit(i32 noundef 0) #18
  unreachable

if.else343:                                       ; preds = %for.end201
  %call345 = invoke noundef i32 @_Z19get_verbosity_levelv()
          to label %invoke.cont344 unwind label %lpad105

invoke.cont344:                                   ; preds = %if.else343
  %cmp346 = icmp uge i32 %call345, 1
  br i1 %cmp346, label %if.then347, label %if.end363

if.then347:                                       ; preds = %invoke.cont344
  %call349 = invoke noundef zeroext i1 @_Z11is_threadedv()
          to label %invoke.cont348 unwind label %lpad105

invoke.cont348:                                   ; preds = %if.then347
  br i1 %call349, label %if.then350, label %if.else357

if.then350:                                       ; preds = %invoke.cont348
  invoke void @_Z12verbose_lockv()
          to label %invoke.cont351 unwind label %lpad105

invoke.cont351:                                   ; preds = %if.then350
  %call353 = invoke noundef nonnull align 8 dereferenceable(8) ptr @_Z14verbose_streamv()
          to label %invoke.cont352 unwind label %lpad105

invoke.cont352:                                   ; preds = %invoke.cont351
  %call355 = invoke noundef nonnull align 8 dereferenceable(8) ptr @_ZStlsISt11char_traitsIcEERSt13basic_ostreamIcT_ES5_PKc(ptr noundef nonnull align 8 dereferenceable(8) %call353, ptr noundef @.str.30)
          to label %invoke.cont354 unwind label %lpad105

invoke.cont354:                                   ; preds = %invoke.cont352
  invoke void @_Z14verbose_unlockv()
          to label %invoke.cont356 unwind label %lpad105

invoke.cont356:                                   ; preds = %invoke.cont354
  br label %if.end362

if.else357:                                       ; preds = %invoke.cont348
  %call359 = invoke noundef nonnull align 8 dereferenceable(8) ptr @_Z14verbose_streamv()
          to label %invoke.cont358 unwind label %lpad105

invoke.cont358:                                   ; preds = %if.else357
  %call361 = invoke noundef nonnull align 8 dereferenceable(8) ptr @_ZStlsISt11char_traitsIcEERSt13basic_ostreamIcT_ES5_PKc(ptr noundef nonnull align 8 dereferenceable(8) %call359, ptr noundef @.str.30)
          to label %invoke.cont360 unwind label %lpad105

invoke.cont360:                                   ; preds = %invoke.cont358
  br label %if.end362

if.end362:                                        ; preds = %invoke.cont360, %invoke.cont356
  br label %if.end363

if.end363:                                        ; preds = %if.end362, %invoke.cont344
  br label %if.end364

if.end364:                                        ; preds = %if.end363
  store i32 0, ptr %cleanup.dest.slot, align 4
  br label %cleanup365

cleanup365:                                       ; preds = %if.end364, %cleanup
  call void @_ZN15model_evaluatorD1Ev(ptr noundef nonnull align 8 dereferenceable(8) %eval) #3
  br label %cleanup367

cleanup367:                                       ; preds = %cleanup365, %if.then79
  call void @_ZN10ref_vectorI4expr11ast_managerED2Ev(ptr noundef nonnull align 8 dereferenceable(16) %var2expr) #3
  call void @_ZN7svectorI5lbooljED2Ev(ptr noundef nonnull align 8 dereferenceable(8) %ll_m) #3
  %cleanup.dest370 = load i32, ptr %cleanup.dest.slot, align 4
  switch i32 %cleanup.dest370, label %unreachable [
    i32 0, label %cleanup.cont371
    i32 1, label %cleanup.cont371
  ]

cleanup.cont371:                                  ; preds = %cleanup367, %cleanup367, %if.then4, %if.then
  ret void

ehcleanup366:                                     ; preds = %lpad327, %lpad294, %ehcleanup, %lpad105
  call void @_ZN15model_evaluatorD1Ev(ptr noundef nonnull align 8 dereferenceable(8) %eval) #3
  br label %ehcleanup368

ehcleanup368:                                     ; preds = %ehcleanup366, %lpad103, %lpad23
  call void @_ZN10ref_vectorI4expr11ast_managerED2Ev(ptr noundef nonnull align 8 dereferenceable(16) %var2expr) #3
  br label %ehcleanup372

ehcleanup372:                                     ; preds = %ehcleanup368, %lpad
  call void @_ZN7svectorI5lbooljED2Ev(ptr noundef nonnull align 8 dereferenceable(8) %ll_m) #3
  br label %eh.resume

eh.resume:                                        ; preds = %ehcleanup372
  %exn = load ptr, ptr %exn.slot, align 8
  %sel = load i32, ptr %ehselector.slot, align 4
  %lpad.val = insertvalue { ptr, i32 } poison, ptr %exn, 0
  %lpad.val373 = insertvalue { ptr, i32 } %lpad.val, i32 %sel, 1
  resume { ptr, i32 } %lpad.val373

unreachable:                                      ; preds = %cleanup367
  unreachable
}

; Function Attrs: mustprogress nounwind uwtable
define linkonce_odr hidden noundef ptr @_ZN14inc_sat_solver14get_proof_coreEv(ptr noundef nonnull align 8 dereferenceable(5008) %this) unnamed_addr #4 comdat align 2 {
entry:
  %this.addr = alloca ptr, align 8
  store ptr %this, ptr %this.addr, align 8
  ret ptr null
}

; Function Attrs: mustprogress uwtable
define linkonce_odr hidden void @_ZNK14inc_sat_solver14reason_unknownB5cxx11Ev(ptr noalias sret(%"class.std::__cxx11::basic_string") align 8 %agg.result, ptr noundef nonnull align 8 dereferenceable(5008) %this) unnamed_addr #5 comdat align 2 {
entry:
  %result.ptr = alloca ptr, align 8
  %this.addr = alloca ptr, align 8
  store ptr %agg.result, ptr %result.ptr, align 8
  store ptr %this, ptr %this.addr, align 8
  %this1 = load ptr, ptr %this.addr, align 8
  %m_unknown = getelementptr inbounds %class.inc_sat_solver, ptr %this1, i32 0, i32 26
  call void @_ZNSt7__cxx1112basic_stringIcSt11char_traitsIcESaIcEEC1ERKS4_(ptr noundef nonnull align 8 dereferenceable(32) %agg.result, ptr noundef nonnull align 8 dereferenceable(32) %m_unknown)
  ret void
}

; Function Attrs: mustprogress uwtable
define linkonce_odr hidden void @_ZN14inc_sat_solver18set_reason_unknownEPKc(ptr noundef nonnull align 8 dereferenceable(5008) %this, ptr noundef %msg) unnamed_addr #5 comdat align 2 {
entry:
  %this.addr = alloca ptr, align 8
  %msg.addr = alloca ptr, align 8
  store ptr %this, ptr %this.addr, align 8
  store ptr %msg, ptr %msg.addr, align 8
  %this1 = load ptr, ptr %this.addr, align 8
  %0 = load ptr, ptr %msg.addr, align 8
  %m_unknown = getelementptr inbounds %class.inc_sat_solver, ptr %this1, i32 0, i32 26
  %call = call noundef nonnull align 8 dereferenceable(32) ptr @_ZNSt7__cxx1112basic_stringIcSt11char_traitsIcESaIcEEaSEPKc(ptr noundef nonnull align 8 dereferenceable(32) %m_unknown, ptr noundef %0)
  ret void
}

; Function Attrs: mustprogress nounwind uwtable
define linkonce_odr hidden void @_ZN14inc_sat_solver10get_labelsER7svectorI6symboljE(ptr noundef nonnull align 8 dereferenceable(5008) %this, ptr noundef nonnull align 8 dereferenceable(8) %r) unnamed_addr #4 comdat align 2 {
entry:
  %this.addr = alloca ptr, align 8
  %r.addr = alloca ptr, align 8
  store ptr %this, ptr %this.addr, align 8
  store ptr %r, ptr %r.addr, align 8
  ret void
}

; Function Attrs: mustprogress nounwind uwtable
define linkonce_odr hidden noundef nonnull align 8 dereferenceable(976) ptr @_ZNK14inc_sat_solver11get_managerEv(ptr noundef nonnull align 8 dereferenceable(5008) %this) unnamed_addr #4 comdat align 2 {
entry:
  %this.addr = alloca ptr, align 8
  store ptr %this, ptr %this.addr, align 8
  %this1 = load ptr, ptr %this.addr, align 8
  %m = getelementptr inbounds %class.check_sat_result, ptr %this1, i32 0, i32 1
  %0 = load ptr, ptr %m, align 8
  ret ptr %0
}

; Function Attrs: mustprogress uwtable
define linkonce_odr hidden noundef ptr @_ZN14inc_sat_solver9translateER11ast_managerRK10params_ref(ptr noundef nonnull align 8 dereferenceable(5008) %this, ptr noundef nonnull align 8 dereferenceable(976) %dst_m, ptr noundef nonnull align 8 dereferenceable(8) %p) unnamed_addr #5 comdat align 2 personality ptr @__gxx_personality_v0 {
entry:
  %this.addr = alloca ptr, align 8
  %dst_m.addr = alloca ptr, align 8
  %p.addr = alloca ptr, align 8
  %tr = alloca %class.ast_translation, align 8
  %exn.slot = alloca ptr, align 8
  %ehselector.slot = alloca i32, align 4
  %result = alloca ptr, align 8
  %ext = alloca ptr, align 8
  %si = alloca ptr, align 8
  %st = alloca %"struct.euf::solver::scoped_set_translate", align 8
  %__range1 = alloca ptr, align 8
  %__begin1 = alloca ptr, align 8
  %__end1 = alloca ptr, align 8
  %f = alloca ptr, align 8
  %__range131 = alloca ptr, align 8
  %__begin132 = alloca ptr, align 8
  %__end135 = alloca ptr, align 8
  %f41 = alloca ptr, align 8
  %__range150 = alloca ptr, align 8
  %__begin152 = alloca ptr, align 8
  %__end155 = alloca ptr, align 8
  %kv = alloca ptr, align 8
  %__range168 = alloca ptr, align 8
  %__begin169 = alloca ptr, align 8
  %__end172 = alloca ptr, align 8
  %l = alloca i32, align 4
  %__range184 = alloca ptr, align 8
  %__begin185 = alloca ptr, align 8
  %__end188 = alloca ptr, align 8
  %a = alloca i32, align 4
  %__range1100 = alloca ptr, align 8
  %__begin1101 = alloca ptr, align 8
  %__end1104 = alloca ptr, align 8
  %h = alloca i32, align 4
  %__range1116 = alloca ptr, align 8
  %__begin1117 = alloca ptr, align 8
  %__end1120 = alloca ptr, align 8
  %f126 = alloca ptr, align 8
  store ptr %this, ptr %this.addr, align 8
  store ptr %dst_m, ptr %dst_m.addr, align 8
  store ptr %p, ptr %p.addr, align 8
  %this1 = load ptr, ptr %this.addr, align 8
  %m = getelementptr inbounds %class.check_sat_result, ptr %this1, i32 0, i32 1
  %0 = load ptr, ptr %m, align 8
  %1 = load ptr, ptr %dst_m.addr, align 8
  call void @_ZN15ast_translationC2ER11ast_managerS1_b(ptr noundef nonnull align 8 dereferenceable(84) %tr, ptr noundef nonnull align 8 dereferenceable(976) %0, ptr noundef nonnull align 8 dereferenceable(976) %1, i1 noundef zeroext true)
  %m_solver = getelementptr inbounds %class.inc_sat_solver, ptr %this1, i32 0, i32 1
  invoke void @_ZN3sat6solver17pop_to_base_levelEv(ptr noundef nonnull align 8 dereferenceable(4408) %m_solver)
          to label %invoke.cont unwind label %lpad

invoke.cont:                                      ; preds = %entry
  %call = invoke noalias noundef ptr @_ZN6memory8allocateEm(i64 noundef 5008)
          to label %invoke.cont2 unwind label %lpad

invoke.cont2:                                     ; preds = %invoke.cont
  %2 = load ptr, ptr %dst_m.addr, align 8
  %3 = load ptr, ptr %p.addr, align 8
  %call4 = invoke noundef zeroext i1 @_ZNK14inc_sat_solver14is_incrementalEv(ptr noundef nonnull align 8 dereferenceable(5008) %this1)
          to label %invoke.cont3 unwind label %lpad

invoke.cont3:                                     ; preds = %invoke.cont2
  invoke void @_ZN14inc_sat_solverC2ER11ast_managerRK10params_refb(ptr noundef nonnull align 8 dereferenceable(5008) %call, ptr noundef nonnull align 8 dereferenceable(976) %2, ptr noundef nonnull align 8 dereferenceable(8) %3, i1 noundef zeroext %call4)
          to label %invoke.cont5 unwind label %lpad

invoke.cont5:                                     ; preds = %invoke.cont3
  store ptr %call, ptr %result, align 8
  %call7 = invoke noundef ptr @_ZN14inc_sat_solver7get_eufEv(ptr noundef nonnull align 8 dereferenceable(5008) %this1)
          to label %invoke.cont6 unwind label %lpad

invoke.cont6:                                     ; preds = %invoke.cont5
  store ptr %call7, ptr %ext, align 8
  %4 = load ptr, ptr %ext, align 8
  %tobool = icmp ne ptr %4, null
  br i1 %tobool, label %if.then, label %if.else

if.then:                                          ; preds = %invoke.cont6
  %5 = load ptr, ptr %result, align 8
  %m_goal2sat = getelementptr inbounds %class.inc_sat_solver, ptr %5, i32 0, i32 3
  %6 = load ptr, ptr %dst_m.addr, align 8
  %m_params = getelementptr inbounds %class.inc_sat_solver, ptr %this1, i32 0, i32 4
  %7 = load ptr, ptr %result, align 8
  %m_solver8 = getelementptr inbounds %class.inc_sat_solver, ptr %7, i32 0, i32 1
  %8 = load ptr, ptr %result, align 8
  %m_map = getelementptr inbounds %class.inc_sat_solver, ptr %8, i32 0, i32 12
  %9 = load ptr, ptr %result, align 8
  %m_dep2asm = getelementptr inbounds %class.inc_sat_solver, ptr %9, i32 0, i32 29
  %call10 = invoke noundef zeroext i1 @_ZNK14inc_sat_solver14is_incrementalEv(ptr noundef nonnull align 8 dereferenceable(5008) %this1)
          to label %invoke.cont9 unwind label %lpad

invoke.cont9:                                     ; preds = %if.then
  %call12 = invoke noundef nonnull align 8 dereferenceable(8) ptr @_ZN8goal2sat2siER11ast_managerRK10params_refRN3sat11solver_coreER13atom2bool_varR7obj_mapI4exprNS5_7literalEEb(ptr noundef nonnull align 8 dereferenceable(12) %m_goal2sat, ptr noundef nonnull align 8 dereferenceable(976) %6, ptr noundef nonnull align 8 dereferenceable(8) %m_params, ptr noundef nonnull align 8 dereferenceable(16) %m_solver8, ptr noundef nonnull align 8 dereferenceable(41) %m_map, ptr noundef nonnull align 8 dereferenceable(24) %m_dep2asm, i1 noundef zeroext %call10)
          to label %invoke.cont11 unwind label %lpad

invoke.cont11:                                    ; preds = %invoke.cont9
  store ptr %call12, ptr %si, align 8
  %10 = load ptr, ptr %ext, align 8
  %11 = load ptr, ptr %dst_m.addr, align 8
  %12 = load ptr, ptr %si, align 8
  invoke void @_ZN3euf6solver20scoped_set_translateC2ERS0_R11ast_managerRN3sat16sat_internalizerE(ptr noundef nonnull align 8 dereferenceable(8) %st, ptr noundef nonnull align 8 dereferenceable(9136) %10, ptr noundef nonnull align 8 dereferenceable(976) %11, ptr noundef nonnull align 8 dereferenceable(8) %12)
          to label %invoke.cont13 unwind label %lpad

invoke.cont13:                                    ; preds = %invoke.cont11
  %13 = load ptr, ptr %result, align 8
  %m_solver14 = getelementptr inbounds %class.inc_sat_solver, ptr %13, i32 0, i32 1
  %m_solver15 = getelementptr inbounds %class.inc_sat_solver, ptr %this1, i32 0, i32 1
  invoke void @_ZN3sat6solver4copyERKS0_b(ptr noundef nonnull align 8 dereferenceable(4408) %m_solver14, ptr noundef nonnull align 8 dereferenceable(4408) %m_solver15, i1 noundef zeroext false)
          to label %invoke.cont17 unwind label %lpad16

invoke.cont17:                                    ; preds = %invoke.cont13
  call void @_ZN3euf6solver20scoped_set_translateD2Ev(ptr noundef nonnull align 8 dereferenceable(8) %st) #3
  br label %if.end

lpad:                                             ; preds = %if.end160, %dynamic_cast.end, %invoke.cont151, %if.then149, %invoke.cont143, %invoke.cont141, %if.then138, %for.end134, %invoke.cont128, %for.body125, %invoke.cont118, %for.end115, %for.body109, %invoke.cont102, %for.end99, %for.body93, %invoke.cont86, %for.end83, %for.body77, %invoke.cont70, %for.end67, %invoke.cont62, %for.body60, %invoke.cont53, %for.end49, %invoke.cont43, %for.body40, %invoke.cont33, %for.end, %invoke.cont27, %for.body, %invoke.cont22, %if.end, %if.else, %invoke.cont11, %invoke.cont9, %if.then, %invoke.cont5, %invoke.cont3, %invoke.cont2, %invoke.cont, %entry
  %14 = landingpad { ptr, i32 }
          cleanup
  %15 = extractvalue { ptr, i32 } %14, 0
  store ptr %15, ptr %exn.slot, align 8
  %16 = extractvalue { ptr, i32 } %14, 1
  store i32 %16, ptr %ehselector.slot, align 4
  br label %ehcleanup

lpad16:                                           ; preds = %invoke.cont13
  %17 = landingpad { ptr, i32 }
          cleanup
  %18 = extractvalue { ptr, i32 } %17, 0
  store ptr %18, ptr %exn.slot, align 8
  %19 = extractvalue { ptr, i32 } %17, 1
  store i32 %19, ptr %ehselector.slot, align 4
  call void @_ZN3euf6solver20scoped_set_translateD2Ev(ptr noundef nonnull align 8 dereferenceable(8) %st) #3
  br label %ehcleanup

if.else:                                          ; preds = %invoke.cont6
  %20 = load ptr, ptr %result, align 8
  %m_solver18 = getelementptr inbounds %class.inc_sat_solver, ptr %20, i32 0, i32 1
  %m_solver19 = getelementptr inbounds %class.inc_sat_solver, ptr %this1, i32 0, i32 1
  invoke void @_ZN3sat6solver4copyERKS0_b(ptr noundef nonnull align 8 dereferenceable(4408) %m_solver18, ptr noundef nonnull align 8 dereferenceable(4408) %m_solver19, i1 noundef zeroext false)
          to label %invoke.cont20 unwind label %lpad

invoke.cont20:                                    ; preds = %if.else
  br label %if.end

if.end:                                           ; preds = %invoke.cont20, %invoke.cont17
  %m_fmls_head = getelementptr inbounds %class.inc_sat_solver, ptr %this1, i32 0, i32 10
  %21 = load i32, ptr %m_fmls_head, align 8
  %22 = load ptr, ptr %result, align 8
  %m_fmls_head21 = getelementptr inbounds %class.inc_sat_solver, ptr %22, i32 0, i32 10
  store i32 %21, ptr %m_fmls_head21, align 8
  %m_fmls = getelementptr inbounds %class.inc_sat_solver, ptr %this1, i32 0, i32 5
  store ptr %m_fmls, ptr %__range1, align 8
  %23 = load ptr, ptr %__range1, align 8
  %call23 = invoke noundef ptr @_ZNK15ref_vector_coreI4expr19ref_manager_wrapperIS0_11ast_managerEE5beginEv(ptr noundef nonnull align 8 dereferenceable(16) %23)
          to label %invoke.cont22 unwind label %lpad

invoke.cont22:                                    ; preds = %if.end
  store ptr %call23, ptr %__begin1, align 8
  %24 = load ptr, ptr %__range1, align 8
  %call25 = invoke noundef ptr @_ZNK15ref_vector_coreI4expr19ref_manager_wrapperIS0_11ast_managerEE3endEv(ptr noundef nonnull align 8 dereferenceable(16) %24)
          to label %invoke.cont24 unwind label %lpad

invoke.cont24:                                    ; preds = %invoke.cont22
  store ptr %call25, ptr %__end1, align 8
  br label %for.cond

for.cond:                                         ; preds = %for.inc, %invoke.cont24
  %25 = load ptr, ptr %__begin1, align 8
  %26 = load ptr, ptr %__end1, align 8
  %cmp = icmp ne ptr %25, %26
  br i1 %cmp, label %for.body, label %for.end

for.body:                                         ; preds = %for.cond
  %27 = load ptr, ptr %__begin1, align 8
  %28 = load ptr, ptr %27, align 8
  store ptr %28, ptr %f, align 8
  %29 = load ptr, ptr %result, align 8
  %m_fmls26 = getelementptr inbounds %class.inc_sat_solver, ptr %29, i32 0, i32 5
  %30 = load ptr, ptr %f, align 8
  %call28 = invoke noundef ptr @_ZN15ast_translationclI4exprEEPT_PKS2_(ptr noundef nonnull align 8 dereferenceable(84) %tr, ptr noundef %30)
          to label %invoke.cont27 unwind label %lpad

invoke.cont27:                                    ; preds = %for.body
  %call30 = invoke noundef nonnull align 8 dereferenceable(16) ptr @_ZN15ref_vector_coreI4expr19ref_manager_wrapperIS0_11ast_managerEE9push_backEPS0_(ptr noundef nonnull align 8 dereferenceable(16) %m_fmls26, ptr noundef %call28)
          to label %invoke.cont29 unwind label %lpad

invoke.cont29:                                    ; preds = %invoke.cont27
  br label %for.inc

for.inc:                                          ; preds = %invoke.cont29
  %31 = load ptr, ptr %__begin1, align 8
  %incdec.ptr = getelementptr inbounds ptr, ptr %31, i32 1
  store ptr %incdec.ptr, ptr %__begin1, align 8
  br label %for.cond

for.end:                                          ; preds = %for.cond
  %m_asmsf = getelementptr inbounds %class.inc_sat_solver, ptr %this1, i32 0, i32 6
  store ptr %m_asmsf, ptr %__range131, align 8
  %32 = load ptr, ptr %__range131, align 8
  %call34 = invoke noundef ptr @_ZNK15ref_vector_coreI4expr19ref_manager_wrapperIS0_11ast_managerEE5beginEv(ptr noundef nonnull align 8 dereferenceable(16) %32)
          to label %invoke.cont33 unwind label %lpad

invoke.cont33:                                    ; preds = %for.end
  store ptr %call34, ptr %__begin132, align 8
  %33 = load ptr, ptr %__range131, align 8
  %call37 = invoke noundef ptr @_ZNK15ref_vector_coreI4expr19ref_manager_wrapperIS0_11ast_managerEE3endEv(ptr noundef nonnull align 8 dereferenceable(16) %33)
          to label %invoke.cont36 unwind label %lpad

invoke.cont36:                                    ; preds = %invoke.cont33
  store ptr %call37, ptr %__end135, align 8
  br label %for.cond38

for.cond38:                                       ; preds = %for.inc47, %invoke.cont36
  %34 = load ptr, ptr %__begin132, align 8
  %35 = load ptr, ptr %__end135, align 8
  %cmp39 = icmp ne ptr %34, %35
  br i1 %cmp39, label %for.body40, label %for.end49

for.body40:                                       ; preds = %for.cond38
  %36 = load ptr, ptr %__begin132, align 8
  %37 = load ptr, ptr %36, align 8
  store ptr %37, ptr %f41, align 8
  %38 = load ptr, ptr %result, align 8
  %m_asmsf42 = getelementptr inbounds %class.inc_sat_solver, ptr %38, i32 0, i32 6
  %39 = load ptr, ptr %f41, align 8
  %call44 = invoke noundef ptr @_ZN15ast_translationclI4exprEEPT_PKS2_(ptr noundef nonnull align 8 dereferenceable(84) %tr, ptr noundef %39)
          to label %invoke.cont43 unwind label %lpad

invoke.cont43:                                    ; preds = %for.body40
  %call46 = invoke noundef nonnull align 8 dereferenceable(16) ptr @_ZN15ref_vector_coreI4expr19ref_manager_wrapperIS0_11ast_managerEE9push_backEPS0_(ptr noundef nonnull align 8 dereferenceable(16) %m_asmsf42, ptr noundef %call44)
          to label %invoke.cont45 unwind label %lpad

invoke.cont45:                                    ; preds = %invoke.cont43
  br label %for.inc47

for.inc47:                                        ; preds = %invoke.cont45
  %40 = load ptr, ptr %__begin132, align 8
  %incdec.ptr48 = getelementptr inbounds ptr, ptr %40, i32 1
  store ptr %incdec.ptr48, ptr %__begin132, align 8
  br label %for.cond38

for.end49:                                        ; preds = %for.cond38
  %m_map51 = getelementptr inbounds %class.inc_sat_solver, ptr %this1, i32 0, i32 12
  store ptr %m_map51, ptr %__range150, align 8
  %41 = load ptr, ptr %__range150, align 8
  %call54 = invoke noundef ptr @_ZNK8expr2var5beginEv(ptr noundef nonnull align 8 dereferenceable(41) %41)
          to label %invoke.cont53 unwind label %lpad

invoke.cont53:                                    ; preds = %for.end49
  store ptr %call54, ptr %__begin152, align 8
  %42 = load ptr, ptr %__range150, align 8
  %call57 = invoke noundef ptr @_ZNK8expr2var3endEv(ptr noundef nonnull align 8 dereferenceable(41) %42)
          to label %invoke.cont56 unwind label %lpad

invoke.cont56:                                    ; preds = %invoke.cont53
  store ptr %call57, ptr %__end155, align 8
  br label %for.cond58

for.cond58:                                       ; preds = %for.inc65, %invoke.cont56
  %43 = load ptr, ptr %__begin152, align 8
  %44 = load ptr, ptr %__end155, align 8
  %cmp59 = icmp ne ptr %43, %44
  br i1 %cmp59, label %for.body60, label %for.end67

for.body60:                                       ; preds = %for.cond58
  %45 = load ptr, ptr %__begin152, align 8
  store ptr %45, ptr %kv, align 8
  %46 = load ptr, ptr %result, align 8
  %m_map61 = getelementptr inbounds %class.inc_sat_solver, ptr %46, i32 0, i32 12
  %47 = load ptr, ptr %kv, align 8
  %m_key = getelementptr inbounds %"struct.obj_map<expr, unsigned int>::key_data", ptr %47, i32 0, i32 0
  %48 = load ptr, ptr %m_key, align 8
  %call63 = invoke noundef ptr @_ZN15ast_translationclI4exprEEPT_PKS2_(ptr noundef nonnull align 8 dereferenceable(84) %tr, ptr noundef %48)
          to label %invoke.cont62 unwind label %lpad

invoke.cont62:                                    ; preds = %for.body60
  %49 = load ptr, ptr %kv, align 8
  %m_value = getelementptr inbounds %"struct.obj_map<expr, unsigned int>::key_data", ptr %49, i32 0, i32 1
  %50 = load i32, ptr %m_value, align 8
  invoke void @_ZN13atom2bool_var6insertEP4exprj(ptr noundef nonnull align 8 dereferenceable(41) %m_map61, ptr noundef %call63, i32 noundef %50)
          to label %invoke.cont64 unwind label %lpad

invoke.cont64:                                    ; preds = %invoke.cont62
  br label %for.inc65

for.inc65:                                        ; preds = %invoke.cont64
  %51 = load ptr, ptr %__begin152, align 8
  %incdec.ptr66 = getelementptr inbounds %"struct.obj_map<expr, unsigned int>::key_data", ptr %51, i32 1
  store ptr %incdec.ptr66, ptr %__begin152, align 8
  br label %for.cond58

for.end67:                                        ; preds = %for.cond58
  %m_fmls_lim = getelementptr inbounds %class.inc_sat_solver, ptr %this1, i32 0, i32 7
  store ptr %m_fmls_lim, ptr %__range168, align 8
  %52 = load ptr, ptr %__range168, align 8
  %call71 = invoke noundef ptr @_ZN6vectorIjLb0EjE5beginEv(ptr noundef nonnull align 8 dereferenceable(8) %52)
          to label %invoke.cont70 unwind label %lpad

invoke.cont70:                                    ; preds = %for.end67
  store ptr %call71, ptr %__begin169, align 8
  %53 = load ptr, ptr %__range168, align 8
  %call74 = invoke noundef ptr @_ZN6vectorIjLb0EjE3endEv(ptr noundef nonnull align 8 dereferenceable(8) %53)
          to label %invoke.cont73 unwind label %lpad

invoke.cont73:                                    ; preds = %invoke.cont70
  store ptr %call74, ptr %__end172, align 8
  br label %for.cond75

for.cond75:                                       ; preds = %for.inc81, %invoke.cont73
  %54 = load ptr, ptr %__begin169, align 8
  %55 = load ptr, ptr %__end172, align 8
  %cmp76 = icmp ne ptr %54, %55
  br i1 %cmp76, label %for.body77, label %for.end83

for.body77:                                       ; preds = %for.cond75
  %56 = load ptr, ptr %__begin169, align 8
  %57 = load i32, ptr %56, align 4
  store i32 %57, ptr %l, align 4
  %58 = load ptr, ptr %result, align 8
  %m_fmls_lim78 = getelementptr inbounds %class.inc_sat_solver, ptr %58, i32 0, i32 7
  %call80 = invoke noundef nonnull align 8 dereferenceable(8) ptr @_ZN6vectorIjLb0EjE9push_backERKj(ptr noundef nonnull align 8 dereferenceable(8) %m_fmls_lim78, ptr noundef nonnull align 4 dereferenceable(4) %l)
          to label %invoke.cont79 unwind label %lpad

invoke.cont79:                                    ; preds = %for.body77
  br label %for.inc81

for.inc81:                                        ; preds = %invoke.cont79
  %59 = load ptr, ptr %__begin169, align 8
  %incdec.ptr82 = getelementptr inbounds i32, ptr %59, i32 1
  store ptr %incdec.ptr82, ptr %__begin169, align 8
  br label %for.cond75

for.end83:                                        ; preds = %for.cond75
  %m_asms_lim = getelementptr inbounds %class.inc_sat_solver, ptr %this1, i32 0, i32 8
  store ptr %m_asms_lim, ptr %__range184, align 8
  %60 = load ptr, ptr %__range184, align 8
  %call87 = invoke noundef ptr @_ZN6vectorIjLb0EjE5beginEv(ptr noundef nonnull align 8 dereferenceable(8) %60)
          to label %invoke.cont86 unwind label %lpad

invoke.cont86:                                    ; preds = %for.end83
  store ptr %call87, ptr %__begin185, align 8
  %61 = load ptr, ptr %__range184, align 8
  %call90 = invoke noundef ptr @_ZN6vectorIjLb0EjE3endEv(ptr noundef nonnull align 8 dereferenceable(8) %61)
          to label %invoke.cont89 unwind label %lpad

invoke.cont89:                                    ; preds = %invoke.cont86
  store ptr %call90, ptr %__end188, align 8
  br label %for.cond91

for.cond91:                                       ; preds = %for.inc97, %invoke.cont89
  %62 = load ptr, ptr %__begin185, align 8
  %63 = load ptr, ptr %__end188, align 8
  %cmp92 = icmp ne ptr %62, %63
  br i1 %cmp92, label %for.body93, label %for.end99

for.body93:                                       ; preds = %for.cond91
  %64 = load ptr, ptr %__begin185, align 8
  %65 = load i32, ptr %64, align 4
  store i32 %65, ptr %a, align 4
  %66 = load ptr, ptr %result, align 8
  %m_asms_lim94 = getelementptr inbounds %class.inc_sat_solver, ptr %66, i32 0, i32 8
  %call96 = invoke noundef nonnull align 8 dereferenceable(8) ptr @_ZN6vectorIjLb0EjE9push_backERKj(ptr noundef nonnull align 8 dereferenceable(8) %m_asms_lim94, ptr noundef nonnull align 4 dereferenceable(4) %a)
          to label %invoke.cont95 unwind label %lpad

invoke.cont95:                                    ; preds = %for.body93
  br label %for.inc97

for.inc97:                                        ; preds = %invoke.cont95
  %67 = load ptr, ptr %__begin185, align 8
  %incdec.ptr98 = getelementptr inbounds i32, ptr %67, i32 1
  store ptr %incdec.ptr98, ptr %__begin185, align 8
  br label %for.cond91

for.end99:                                        ; preds = %for.cond91
  %m_fmls_head_lim = getelementptr inbounds %class.inc_sat_solver, ptr %this1, i32 0, i32 9
  store ptr %m_fmls_head_lim, ptr %__range1100, align 8
  %68 = load ptr, ptr %__range1100, align 8
  %call103 = invoke noundef ptr @_ZN6vectorIjLb0EjE5beginEv(ptr noundef nonnull align 8 dereferenceable(8) %68)
          to label %invoke.cont102 unwind label %lpad

invoke.cont102:                                   ; preds = %for.end99
  store ptr %call103, ptr %__begin1101, align 8
  %69 = load ptr, ptr %__range1100, align 8
  %call106 = invoke noundef ptr @_ZN6vectorIjLb0EjE3endEv(ptr noundef nonnull align 8 dereferenceable(8) %69)
          to label %invoke.cont105 unwind label %lpad

invoke.cont105:                                   ; preds = %invoke.cont102
  store ptr %call106, ptr %__end1104, align 8
  br label %for.cond107

for.cond107:                                      ; preds = %for.inc113, %invoke.cont105
  %70 = load ptr, ptr %__begin1101, align 8
  %71 = load ptr, ptr %__end1104, align 8
  %cmp108 = icmp ne ptr %70, %71
  br i1 %cmp108, label %for.body109, label %for.end115

for.body109:                                      ; preds = %for.cond107
  %72 = load ptr, ptr %__begin1101, align 8
  %73 = load i32, ptr %72, align 4
  store i32 %73, ptr %h, align 4
  %74 = load ptr, ptr %result, align 8
  %m_fmls_head_lim110 = getelementptr inbounds %class.inc_sat_solver, ptr %74, i32 0, i32 9
  %call112 = invoke noundef nonnull align 8 dereferenceable(8) ptr @_ZN6vectorIjLb0EjE9push_backERKj(ptr noundef nonnull align 8 dereferenceable(8) %m_fmls_head_lim110, ptr noundef nonnull align 4 dereferenceable(4) %h)
          to label %invoke.cont111 unwind label %lpad

invoke.cont111:                                   ; preds = %for.body109
  br label %for.inc113

for.inc113:                                       ; preds = %invoke.cont111
  %75 = load ptr, ptr %__begin1101, align 8
  %incdec.ptr114 = getelementptr inbounds i32, ptr %75, i32 1
  store ptr %incdec.ptr114, ptr %__begin1101, align 8
  br label %for.cond107

for.end115:                                       ; preds = %for.cond107
  %m_internalized_fmls = getelementptr inbounds %class.inc_sat_solver, ptr %this1, i32 0, i32 28
  store ptr %m_internalized_fmls, ptr %__range1116, align 8
  %76 = load ptr, ptr %__range1116, align 8
  %call119 = invoke noundef ptr @_ZNK15ref_vector_coreI4expr19ref_manager_wrapperIS0_11ast_managerEE5beginEv(ptr noundef nonnull align 8 dereferenceable(16) %76)
          to label %invoke.cont118 unwind label %lpad

invoke.cont118:                                   ; preds = %for.end115
  store ptr %call119, ptr %__begin1117, align 8
  %77 = load ptr, ptr %__range1116, align 8
  %call122 = invoke noundef ptr @_ZNK15ref_vector_coreI4expr19ref_manager_wrapperIS0_11ast_managerEE3endEv(ptr noundef nonnull align 8 dereferenceable(16) %77)
          to label %invoke.cont121 unwind label %lpad

invoke.cont121:                                   ; preds = %invoke.cont118
  store ptr %call122, ptr %__end1120, align 8
  br label %for.cond123

for.cond123:                                      ; preds = %for.inc132, %invoke.cont121
  %78 = load ptr, ptr %__begin1117, align 8
  %79 = load ptr, ptr %__end1120, align 8
  %cmp124 = icmp ne ptr %78, %79
  br i1 %cmp124, label %for.body125, label %for.end134

for.body125:                                      ; preds = %for.cond123
  %80 = load ptr, ptr %__begin1117, align 8
  %81 = load ptr, ptr %80, align 8
  store ptr %81, ptr %f126, align 8
  %82 = load ptr, ptr %result, align 8
  %m_internalized_fmls127 = getelementptr inbounds %class.inc_sat_solver, ptr %82, i32 0, i32 28
  %83 = load ptr, ptr %f126, align 8
  %call129 = invoke noundef ptr @_ZN15ast_translationclI4exprEEPT_PKS2_(ptr noundef nonnull align 8 dereferenceable(84) %tr, ptr noundef %83)
          to label %invoke.cont128 unwind label %lpad

invoke.cont128:                                   ; preds = %for.body125
  %call131 = invoke noundef nonnull align 8 dereferenceable(16) ptr @_ZN15ref_vector_coreI4expr19ref_manager_wrapperIS0_11ast_managerEE9push_backEPS0_(ptr noundef nonnull align 8 dereferenceable(16) %m_internalized_fmls127, ptr noundef %call129)
          to label %invoke.cont130 unwind label %lpad

invoke.cont130:                                   ; preds = %invoke.cont128
  br label %for.inc132

for.inc132:                                       ; preds = %invoke.cont130
  %84 = load ptr, ptr %__begin1117, align 8
  %incdec.ptr133 = getelementptr inbounds ptr, ptr %84, i32 1
  store ptr %incdec.ptr133, ptr %__begin1117, align 8
  br label %for.cond123

for.end134:                                       ; preds = %for.cond123
  %m_mcs = getelementptr inbounds %class.inc_sat_solver, ptr %this1, i32 0, i32 20
  %call136 = invoke noundef ptr @_ZNK15ref_vector_coreI15model_converter21ref_unmanaged_wrapperIS0_EE4backEv(ptr noundef nonnull align 8 dereferenceable(8) %m_mcs)
          to label %invoke.cont135 unwind label %lpad

invoke.cont135:                                   ; preds = %for.end134
  %tobool137 = icmp ne ptr %call136, null
  br i1 %tobool137, label %if.then138, label %if.end147

if.then138:                                       ; preds = %invoke.cont135
  %85 = load ptr, ptr %result, align 8
  %m_mcs139 = getelementptr inbounds %class.inc_sat_solver, ptr %85, i32 0, i32 20
  %m_mcs140 = getelementptr inbounds %class.inc_sat_solver, ptr %this1, i32 0, i32 20
  %call142 = invoke noundef ptr @_ZNK15ref_vector_coreI15model_converter21ref_unmanaged_wrapperIS0_EE4backEv(ptr noundef nonnull align 8 dereferenceable(8) %m_mcs140)
          to label %invoke.cont141 unwind label %lpad

invoke.cont141:                                   ; preds = %if.then138
  %vtable = load ptr, ptr %call142, align 8
  %vfn = getelementptr inbounds ptr, ptr %vtable, i64 7
  %86 = load ptr, ptr %vfn, align 8
  %call144 = invoke noundef ptr %86(ptr noundef nonnull align 8 dereferenceable(25) %call142, ptr noundef nonnull align 8 dereferenceable(84) %tr)
          to label %invoke.cont143 unwind label %lpad

invoke.cont143:                                   ; preds = %invoke.cont141
  %call146 = invoke noundef nonnull align 8 dereferenceable(8) ptr @_ZN15ref_vector_coreI15model_converter21ref_unmanaged_wrapperIS0_EE9push_backEPS0_(ptr noundef nonnull align 8 dereferenceable(8) %m_mcs139, ptr noundef %call144)
          to label %invoke.cont145 unwind label %lpad

invoke.cont145:                                   ; preds = %invoke.cont143
  br label %if.end147

if.end147:                                        ; preds = %invoke.cont145, %invoke.cont135
  %m_sat_mc = getelementptr inbounds %class.inc_sat_solver, ptr %this1, i32 0, i32 23
  %call148 = call noundef zeroext i1 @_ZNK3refIN8sat2goal2mcEEcvbEv(ptr noundef nonnull align 8 dereferenceable(8) %m_sat_mc)
  br i1 %call148, label %if.then149, label %if.end160

if.then149:                                       ; preds = %if.end147
  %m_sat_mc150 = getelementptr inbounds %class.inc_sat_solver, ptr %this1, i32 0, i32 23
  %call152 = invoke noundef ptr @_ZNK3refIN8sat2goal2mcEEptEv(ptr noundef nonnull align 8 dereferenceable(8) %m_sat_mc150)
          to label %invoke.cont151 unwind label %lpad

invoke.cont151:                                   ; preds = %if.then149
  %vtable153 = load ptr, ptr %call152, align 8
  %vfn154 = getelementptr inbounds ptr, ptr %vtable153, i64 7
  %87 = load ptr, ptr %vfn154, align 8
  %call156 = invoke noundef ptr %87(ptr noundef nonnull align 8 dereferenceable(104) %call152, ptr noundef nonnull align 8 dereferenceable(84) %tr)
          to label %invoke.cont155 unwind label %lpad

invoke.cont155:                                   ; preds = %invoke.cont151
  %88 = icmp eq ptr %call156, null
  br i1 %88, label %dynamic_cast.null, label %dynamic_cast.notnull

dynamic_cast.notnull:                             ; preds = %invoke.cont155
  %89 = call ptr @__dynamic_cast(ptr %call156, ptr @_ZTI15model_converter, ptr @_ZTIN8sat2goal2mcE, i64 0) #3
  br label %dynamic_cast.end

dynamic_cast.null:                                ; preds = %invoke.cont155
  br label %dynamic_cast.end

dynamic_cast.end:                                 ; preds = %dynamic_cast.null, %dynamic_cast.notnull
  %90 = phi ptr [ %89, %dynamic_cast.notnull ], [ null, %dynamic_cast.null ]
  %91 = load ptr, ptr %result, align 8
  %m_sat_mc157 = getelementptr inbounds %class.inc_sat_solver, ptr %91, i32 0, i32 23
  %call159 = invoke noundef nonnull align 8 dereferenceable(8) ptr @_ZN3refIN8sat2goal2mcEEaSEPS1_(ptr noundef nonnull align 8 dereferenceable(8) %m_sat_mc157, ptr noundef %90)
          to label %invoke.cont158 unwind label %lpad

invoke.cont158:                                   ; preds = %dynamic_cast.end
  br label %if.end160

if.end160:                                        ; preds = %invoke.cont158, %if.end147
  %m_has_uninterpreted = getelementptr inbounds %class.inc_sat_solver, ptr %this1, i32 0, i32 2
  %92 = load ptr, ptr %result, align 8
  %m_has_uninterpreted161 = getelementptr inbounds %class.inc_sat_solver, ptr %92, i32 0, i32 2
  %call163 = invoke noundef nonnull align 8 dereferenceable(16) ptr @_ZN13stacked_valueIbEaSERKS0_(ptr noundef nonnull align 8 dereferenceable(16) %m_has_uninterpreted161, ptr noundef nonnull align 8 dereferenceable(16) %m_has_uninterpreted)
          to label %invoke.cont162 unwind label %lpad

invoke.cont162:                                   ; preds = %if.end160
  %m_internalized_converted = getelementptr inbounds %class.inc_sat_solver, ptr %this1, i32 0, i32 27
  %93 = load i8, ptr %m_internalized_converted, align 8
  %tobool164 = trunc i8 %93 to i1
  %94 = load ptr, ptr %result, align 8
  %m_internalized_converted165 = getelementptr inbounds %class.inc_sat_solver, ptr %94, i32 0, i32 27
  %frombool = zext i1 %tobool164 to i8
  store i8 %frombool, ptr %m_internalized_converted165, align 8
  %95 = load ptr, ptr %result, align 8
  call void @_ZN15ast_translationD1Ev(ptr noundef nonnull align 8 dereferenceable(84) %tr) #3
  ret ptr %95

ehcleanup:                                        ; preds = %lpad16, %lpad
  call void @_ZN15ast_translationD1Ev(ptr noundef nonnull align 8 dereferenceable(84) %tr) #3
  br label %eh.resume

eh.resume:                                        ; preds = %ehcleanup
  %exn = load ptr, ptr %exn.slot, align 8
  %sel = load i32, ptr %ehselector.slot, align 4
  %lpad.val = insertvalue { ptr, i32 } poison, ptr %exn, 0
  %lpad.val166 = insertvalue { ptr, i32 } %lpad.val, i32 %sel, 1
  resume { ptr, i32 } %lpad.val166
}

; Function Attrs: mustprogress uwtable
define linkonce_odr hidden void @_ZN14inc_sat_solver11updt_paramsERK10params_ref(ptr noundef nonnull align 8 dereferenceable(5008) %this, ptr noundef nonnull align 8 dereferenceable(8) %p) unnamed_addr #5 comdat align 2 personality ptr @__gxx_personality_v0 {
entry:
  %this.addr = alloca ptr, align 8
  %p.addr = alloca ptr, align 8
  %p1 = alloca %struct.sat_params, align 8
  %exn.slot = alloca ptr, align 8
  %ehselector.slot = alloca i32, align 4
  %ref.tmp = alloca %class.symbol, align 8
  store ptr %this, ptr %this.addr, align 8
  store ptr %p, ptr %p.addr, align 8
  %this1 = load ptr, ptr %this.addr, align 8
  %m_params = getelementptr inbounds %class.inc_sat_solver, ptr %this1, i32 0, i32 4
  %0 = load ptr, ptr %p.addr, align 8
  call void @_ZN10params_ref6appendERKS_(ptr noundef nonnull align 8 dereferenceable(8) %m_params, ptr noundef nonnull align 8 dereferenceable(8) %0)
  %1 = load ptr, ptr %p.addr, align 8
  call void @_ZN10sat_paramsC2ERK10params_ref(ptr noundef nonnull align 8 dereferenceable(16) %p1, ptr noundef nonnull align 8 dereferenceable(8) %1)
  %m_params2 = getelementptr inbounds %class.inc_sat_solver, ptr %this1, i32 0, i32 4
  %call = invoke noundef zeroext i1 @_ZNK10sat_params18cardinality_solverEv(ptr noundef nonnull align 8 dereferenceable(16) %p1)
          to label %invoke.cont unwind label %lpad

invoke.cont:                                      ; preds = %entry
  invoke void @_ZN10params_ref8set_boolEPKcb(ptr noundef nonnull align 8 dereferenceable(8) %m_params2, ptr noundef @.str.31, i1 noundef zeroext %call)
          to label %invoke.cont3 unwind label %lpad

invoke.cont3:                                     ; preds = %invoke.cont
  %m_params4 = getelementptr inbounds %class.inc_sat_solver, ptr %this1, i32 0, i32 4
  %call6 = invoke ptr @_ZNK10sat_params9pb_solverEv(ptr noundef nonnull align 8 dereferenceable(16) %p1)
          to label %invoke.cont5 unwind label %lpad

invoke.cont5:                                     ; preds = %invoke.cont3
  %coerce.dive = getelementptr inbounds %class.symbol, ptr %ref.tmp, i32 0, i32 0
  store ptr %call6, ptr %coerce.dive, align 8
  invoke void @_ZN10params_ref7set_symEPKcRK6symbol(ptr noundef nonnull align 8 dereferenceable(8) %m_params4, ptr noundef @.str.32, ptr noundef nonnull align 8 dereferenceable(8) %ref.tmp)
          to label %invoke.cont7 unwind label %lpad

invoke.cont7:                                     ; preds = %invoke.cont5
  %m_solver = getelementptr inbounds %class.inc_sat_solver, ptr %this1, i32 0, i32 1
  %m_params8 = getelementptr inbounds %class.inc_sat_solver, ptr %this1, i32 0, i32 4
  invoke void @_ZN3sat6solver11updt_paramsERK10params_ref(ptr noundef nonnull align 8 dereferenceable(4408) %m_solver, ptr noundef nonnull align 8 dereferenceable(8) %m_params8)
          to label %invoke.cont9 unwind label %lpad

invoke.cont9:                                     ; preds = %invoke.cont7
  %m_solver10 = getelementptr inbounds %class.inc_sat_solver, ptr %this1, i32 0, i32 1
  %call12 = invoke noundef zeroext i1 @_ZNK14inc_sat_solver14is_incrementalEv(ptr noundef nonnull align 8 dereferenceable(5008) %this1)
          to label %invoke.cont11 unwind label %lpad

invoke.cont11:                                    ; preds = %invoke.cont9
  br i1 %call12, label %land.rhs, label %land.end

land.rhs:                                         ; preds = %invoke.cont11
  %call14 = invoke noundef zeroext i1 @_ZNK14inc_sat_solver20override_incrementalEv(ptr noundef nonnull align 8 dereferenceable(5008) %this1)
          to label %invoke.cont13 unwind label %lpad

invoke.cont13:                                    ; preds = %land.rhs
  %lnot = xor i1 %call14, true
  br label %land.end

land.end:                                         ; preds = %invoke.cont13, %invoke.cont11
  %2 = phi i1 [ false, %invoke.cont11 ], [ %lnot, %invoke.cont13 ]
  call void @_ZN3sat6solver15set_incrementalEb(ptr noundef nonnull align 8 dereferenceable(4408) %m_solver10, i1 noundef zeroext %2)
  %call16 = invoke noundef zeroext i1 @_ZNK10sat_params3eufEv(ptr noundef nonnull align 8 dereferenceable(16) %p1)
          to label %invoke.cont15 unwind label %lpad

invoke.cont15:                                    ; preds = %land.end
  br i1 %call16, label %land.lhs.true, label %if.end

land.lhs.true:                                    ; preds = %invoke.cont15
  %call18 = invoke noundef ptr @_ZN14inc_sat_solver7get_eufEv(ptr noundef nonnull align 8 dereferenceable(5008) %this1)
          to label %invoke.cont17 unwind label %lpad

invoke.cont17:                                    ; preds = %land.lhs.true
  %tobool = icmp ne ptr %call18, null
  br i1 %tobool, label %if.end, label %if.then

if.then:                                          ; preds = %invoke.cont17
  %call20 = invoke noundef ptr @_ZN14inc_sat_solver10ensure_eufEv(ptr noundef nonnull align 8 dereferenceable(5008) %this1)
          to label %invoke.cont19 unwind label %lpad

invoke.cont19:                                    ; preds = %if.then
  br label %if.end

lpad:                                             ; preds = %if.then, %land.lhs.true, %land.end, %land.rhs, %invoke.cont9, %invoke.cont7, %invoke.cont5, %invoke.cont3, %invoke.cont, %entry
  %3 = landingpad { ptr, i32 }
          cleanup
  %4 = extractvalue { ptr, i32 } %3, 0
  store ptr %4, ptr %exn.slot, align 8
  %5 = extractvalue { ptr, i32 } %3, 1
  store i32 %5, ptr %ehselector.slot, align 4
  call void @_ZN10sat_paramsD2Ev(ptr noundef nonnull align 8 dereferenceable(16) %p1) #3
  br label %eh.resume

if.end:                                           ; preds = %invoke.cont19, %invoke.cont17, %invoke.cont15
  call void @_ZN10sat_paramsD2Ev(ptr noundef nonnull align 8 dereferenceable(16) %p1) #3
  ret void

eh.resume:                                        ; preds = %lpad
  %exn = load ptr, ptr %exn.slot, align 8
  %sel = load i32, ptr %ehselector.slot, align 4
  %lpad.val = insertvalue { ptr, i32 } poison, ptr %exn, 0
  %lpad.val21 = insertvalue { ptr, i32 } %lpad.val, i32 %sel, 1
  resume { ptr, i32 } %lpad.val21
}

declare void @_ZN6solver12reset_paramsERK10params_ref(ptr noundef nonnull align 8 dereferenceable(96), ptr noundef nonnull align 8 dereferenceable(8)) unnamed_addr #1

; Function Attrs: mustprogress nounwind uwtable
define linkonce_odr hidden noundef nonnull align 8 dereferenceable(8) ptr @_ZNK6solver10get_paramsEv(ptr noundef nonnull align 8 dereferenceable(96) %this) unnamed_addr #4 comdat align 2 {
entry:
  %this.addr = alloca ptr, align 8
  store ptr %this, ptr %this.addr, align 8
  %this1 = load ptr, ptr %this.addr, align 8
  %m_params = getelementptr inbounds %class.solver, ptr %this1, i32 0, i32 2
  ret ptr %m_params
}

; Function Attrs: mustprogress uwtable
define linkonce_odr hidden void @_ZN14inc_sat_solver20collect_param_descrsER12param_descrs(ptr noundef nonnull align 8 dereferenceable(5008) %this, ptr noundef nonnull align 8 dereferenceable(8) %r) unnamed_addr #5 comdat align 2 {
entry:
  %this.addr = alloca ptr, align 8
  %r.addr = alloca ptr, align 8
  store ptr %this, ptr %this.addr, align 8
  store ptr %r, ptr %r.addr, align 8
  %this1 = load ptr, ptr %this.addr, align 8
  %0 = load ptr, ptr %r.addr, align 8
  call void @_ZN6solver20collect_param_descrsER12param_descrs(ptr noundef nonnull align 8 dereferenceable(96) %this1, ptr noundef nonnull align 8 dereferenceable(8) %0)
  %1 = load ptr, ptr %r.addr, align 8
  call void @_ZN8goal2sat20collect_param_descrsER12param_descrs(ptr noundef nonnull align 8 dereferenceable(8) %1)
  %2 = load ptr, ptr %r.addr, align 8
  call void @_ZN3sat6solver20collect_param_descrsER12param_descrs(ptr noundef nonnull align 8 dereferenceable(8) %2)
  ret void
}

; Function Attrs: mustprogress nounwind uwtable
define linkonce_odr hidden void @_ZN6solver11push_paramsEv(ptr noundef nonnull align 8 dereferenceable(96) %this) unnamed_addr #4 comdat align 2 {
entry:
  %this.addr = alloca ptr, align 8
  store ptr %this, ptr %this.addr, align 8
  ret void
}

; Function Attrs: mustprogress nounwind uwtable
define linkonce_odr hidden void @_ZN6solver10pop_paramsEv(ptr noundef nonnull align 8 dereferenceable(96) %this) unnamed_addr #4 comdat align 2 {
entry:
  %this.addr = alloca ptr, align 8
  store ptr %this, ptr %this.addr, align 8
  ret void
}

; Function Attrs: mustprogress nounwind uwtable
define linkonce_odr hidden void @_ZN14inc_sat_solver18set_produce_modelsEb(ptr noundef nonnull align 8 dereferenceable(5008) %this, i1 noundef zeroext %f) unnamed_addr #4 comdat align 2 {
entry:
  %this.addr = alloca ptr, align 8
  %f.addr = alloca i8, align 1
  store ptr %this, ptr %this.addr, align 8
  %frombool = zext i1 %f to i8
  store i8 %frombool, ptr %f.addr, align 1
  ret void
}

; Function Attrs: mustprogress uwtable
define linkonce_odr hidden void @_ZN14inc_sat_solver16assert_expr_coreEP4expr(ptr noundef nonnull align 8 dereferenceable(5008) %this, ptr noundef %t) unnamed_addr #5 comdat align 2 {
entry:
  %this.addr = alloca ptr, align 8
  %t.addr = alloca ptr, align 8
  store ptr %this, ptr %this.addr, align 8
  store ptr %t, ptr %t.addr, align 8
  %this1 = load ptr, ptr %this.addr, align 8
  %0 = load ptr, ptr %t.addr, align 8
  %call = call noundef zeroext i1 @_ZN14inc_sat_solver9is_clauseEP4expr(ptr noundef nonnull align 8 dereferenceable(5008) %this1, ptr noundef %0)
  %conv = zext i1 %call to i32
  %m_is_cnf = getelementptr inbounds %class.inc_sat_solver, ptr %this1, i32 0, i32 15
  %1 = load i8, ptr %m_is_cnf, align 8
  %tobool = trunc i8 %1 to i1
  %conv2 = zext i1 %tobool to i32
  %and = and i32 %conv2, %conv
  %tobool3 = icmp ne i32 %and, 0
  %frombool = zext i1 %tobool3 to i8
  store i8 %frombool, ptr %m_is_cnf, align 8
  %m_fmls = getelementptr inbounds %class.inc_sat_solver, ptr %this1, i32 0, i32 5
  %2 = load ptr, ptr %t.addr, align 8
  %call4 = call noundef nonnull align 8 dereferenceable(16) ptr @_ZN15ref_vector_coreI4expr19ref_manager_wrapperIS0_11ast_managerEE9push_backEPS0_(ptr noundef nonnull align 8 dereferenceable(16) %m_fmls, ptr noundef %2)
  ret void
}

; Function Attrs: mustprogress uwtable
define linkonce_odr hidden void @_ZN14inc_sat_solver9set_phaseEP4expr(ptr noundef nonnull align 8 dereferenceable(5008) %this, ptr noundef %e) unnamed_addr #5 comdat align 2 {
entry:
  %this.addr = alloca ptr, align 8
  %e.addr = alloca ptr, align 8
  %is_not = alloca i8, align 1
  %b = alloca i32, align 4
  %agg.tmp = alloca %"class.sat::literal", align 4
  store ptr %this, ptr %this.addr, align 8
  store ptr %e, ptr %e.addr, align 8
  %this1 = load ptr, ptr %this.addr, align 8
  %m = getelementptr inbounds %class.check_sat_result, ptr %this1, i32 0, i32 1
  %0 = load ptr, ptr %m, align 8
  %1 = load ptr, ptr %e.addr, align 8
  %call = call noundef zeroext i1 @_ZNK11ast_manager6is_notEPK4exprRPS0_(ptr noundef nonnull align 8 dereferenceable(976) %0, ptr noundef %1, ptr noundef nonnull align 8 dereferenceable(8) %e.addr)
  %frombool = zext i1 %call to i8
  store i8 %frombool, ptr %is_not, align 1
  %m_map = getelementptr inbounds %class.inc_sat_solver, ptr %this1, i32 0, i32 12
  %2 = load ptr, ptr %e.addr, align 8
  %call2 = call noundef i32 @_ZNK13atom2bool_var11to_bool_varEP4expr(ptr noundef nonnull align 8 dereferenceable(41) %m_map, ptr noundef %2)
  store i32 %call2, ptr %b, align 4
  %3 = load i32, ptr %b, align 4
  %cmp = icmp ne i32 %3, 2147483647
  br i1 %cmp, label %if.then, label %if.end

if.then:                                          ; preds = %entry
  %m_solver = getelementptr inbounds %class.inc_sat_solver, ptr %this1, i32 0, i32 1
  %4 = load i32, ptr %b, align 4
  %5 = load i8, ptr %is_not, align 1
  %tobool = trunc i8 %5 to i1
  call void @_ZN3sat7literalC2Ejb(ptr noundef nonnull align 4 dereferenceable(4) %agg.tmp, i32 noundef %4, i1 noundef zeroext %tobool)
  %coerce.dive = getelementptr inbounds %"class.sat::literal", ptr %agg.tmp, i32 0, i32 0
  %6 = load i32, ptr %coerce.dive, align 4
  call void @_ZN3sat6solver9set_phaseENS_7literalE(ptr noundef nonnull align 8 dereferenceable(4408) %m_solver, i32 %6)
  br label %if.end

if.end:                                           ; preds = %if.then, %entry
  ret void
}

; Function Attrs: mustprogress uwtable
define linkonce_odr hidden void @_ZN14inc_sat_solver13move_to_frontEP4expr(ptr noundef nonnull align 8 dereferenceable(5008) %this, ptr noundef %e) unnamed_addr #5 comdat align 2 {
entry:
  %this.addr = alloca ptr, align 8
  %e.addr = alloca ptr, align 8
  %b = alloca i32, align 4
  store ptr %this, ptr %this.addr, align 8
  store ptr %e, ptr %e.addr, align 8
  %this1 = load ptr, ptr %this.addr, align 8
  %m = getelementptr inbounds %class.check_sat_result, ptr %this1, i32 0, i32 1
  %0 = load ptr, ptr %m, align 8
  %1 = load ptr, ptr %e.addr, align 8
  %call = call noundef zeroext i1 @_ZNK11ast_manager6is_notEPK4exprRPS0_(ptr noundef nonnull align 8 dereferenceable(976) %0, ptr noundef %1, ptr noundef nonnull align 8 dereferenceable(8) %e.addr)
  %m_map = getelementptr inbounds %class.inc_sat_solver, ptr %this1, i32 0, i32 12
  %2 = load ptr, ptr %e.addr, align 8
  %call2 = call noundef i32 @_ZNK13atom2bool_var11to_bool_varEP4expr(ptr noundef nonnull align 8 dereferenceable(41) %m_map, ptr noundef %2)
  store i32 %call2, ptr %b, align 4
  %3 = load i32, ptr %b, align 4
  %cmp = icmp ne i32 %3, 2147483647
  br i1 %cmp, label %if.then, label %if.end

if.then:                                          ; preds = %entry
  %m_solver = getelementptr inbounds %class.inc_sat_solver, ptr %this1, i32 0, i32 1
  %4 = load i32, ptr %b, align 4
  call void @_ZN3sat6solver13move_to_frontEj(ptr noundef nonnull align 8 dereferenceable(4408) %m_solver, i32 noundef %4)
  br label %if.end

if.end:                                           ; preds = %if.then, %entry
  ret void
}

; Function Attrs: mustprogress uwtable
define linkonce_odr hidden noundef ptr @_ZN14inc_sat_solver9get_phaseEv(ptr noundef nonnull align 8 dereferenceable(5008) %this) unnamed_addr #5 comdat align 2 {
entry:
  %this.addr = alloca ptr, align 8
  %p = alloca ptr, align 8
  %v = alloca i32, align 4
  %ref.tmp = alloca %"class.sat::literal", align 4
  store ptr %this, ptr %this.addr, align 8
  %this1 = load ptr, ptr %this.addr, align 8
  %call = call noalias noundef ptr @_ZN6memory8allocateEm(i64 noundef 16)
  call void @llvm.memset.p0.i64(ptr align 8 %call, i8 0, i64 16, i1 false)
  call void @_ZN14inc_sat_solver9sat_phaseC2Ev(ptr noundef nonnull align 8 dereferenceable(16) %call)
  store ptr %call, ptr %p, align 8
  %m_solver = getelementptr inbounds %class.inc_sat_solver, ptr %this1, i32 0, i32 1
  %call2 = call noundef i32 @_ZNK3sat6solver8num_varsEv(ptr noundef nonnull align 8 dereferenceable(4408) %m_solver)
  store i32 %call2, ptr %v, align 4
  br label %for.cond

for.cond:                                         ; preds = %for.body, %entry
  %0 = load i32, ptr %v, align 4
  %dec = add i32 %0, -1
  store i32 %dec, ptr %v, align 4
  %cmp = icmp ugt i32 %0, 0
  br i1 %cmp, label %for.body, label %for.end

for.body:                                         ; preds = %for.cond
  %1 = load ptr, ptr %p, align 8
  %add.ptr = getelementptr inbounds i8, ptr %1, i64 8
  %2 = load i32, ptr %v, align 4
  %m_solver3 = getelementptr inbounds %class.inc_sat_solver, ptr %this1, i32 0, i32 1
  %3 = load i32, ptr %v, align 4
  %call4 = call noundef zeroext i1 @_ZN3sat6solver9get_phaseEj(ptr noundef nonnull align 8 dereferenceable(4408) %m_solver3, i32 noundef %3)
  %lnot = xor i1 %call4, true
  call void @_ZN3sat7literalC2Ejb(ptr noundef nonnull align 4 dereferenceable(4) %ref.tmp, i32 noundef %2, i1 noundef zeroext %lnot)
  %call5 = call noundef nonnull align 8 dereferenceable(8) ptr @_ZN6vectorIN3sat7literalELb0EjE9push_backEOS1_(ptr noundef nonnull align 8 dereferenceable(8) %add.ptr, ptr noundef nonnull align 4 dereferenceable(4) %ref.tmp)
  br label %for.cond, !llvm.loop !11

for.end:                                          ; preds = %for.cond
  %4 = load ptr, ptr %p, align 8
  ret ptr %4
}

; Function Attrs: mustprogress uwtable
define linkonce_odr hidden void @_ZN14inc_sat_solver9set_phaseEPN6solver5phaseE(ptr noundef nonnull align 8 dereferenceable(5008) %this, ptr noundef %p) unnamed_addr #5 comdat align 2 {
entry:
  %this.addr = alloca ptr, align 8
  %p.addr = alloca ptr, align 8
  %__range1 = alloca ptr, align 8
  %__begin1 = alloca ptr, align 8
  %__end1 = alloca ptr, align 8
  %lit = alloca %"class.sat::literal", align 4
  %agg.tmp = alloca %"class.sat::literal", align 4
  store ptr %this, ptr %this.addr, align 8
  store ptr %p, ptr %p.addr, align 8
  %this1 = load ptr, ptr %this.addr, align 8
  %0 = load ptr, ptr %p.addr, align 8
  store ptr %0, ptr %__range1, align 8
  %1 = load ptr, ptr %__range1, align 8
  %add.ptr = getelementptr inbounds i8, ptr %1, i64 8
  %call = call noundef ptr @_ZN6vectorIN3sat7literalELb0EjE5beginEv(ptr noundef nonnull align 8 dereferenceable(8) %add.ptr)
  store ptr %call, ptr %__begin1, align 8
  %2 = load ptr, ptr %__range1, align 8
  %add.ptr2 = getelementptr inbounds i8, ptr %2, i64 8
  %call3 = call noundef ptr @_ZN6vectorIN3sat7literalELb0EjE3endEv(ptr noundef nonnull align 8 dereferenceable(8) %add.ptr2)
  store ptr %call3, ptr %__end1, align 8
  br label %for.cond

for.cond:                                         ; preds = %for.inc, %entry
  %3 = load ptr, ptr %__begin1, align 8
  %4 = load ptr, ptr %__end1, align 8
  %cmp = icmp ne ptr %3, %4
  br i1 %cmp, label %for.body, label %for.end

for.body:                                         ; preds = %for.cond
  %5 = load ptr, ptr %__begin1, align 8
  call void @llvm.memcpy.p0.p0.i64(ptr align 4 %lit, ptr align 4 %5, i64 4, i1 false)
  %m_solver = getelementptr inbounds %class.inc_sat_solver, ptr %this1, i32 0, i32 1
  call void @llvm.memcpy.p0.p0.i64(ptr align 4 %agg.tmp, ptr align 4 %lit, i64 4, i1 false)
  %coerce.dive = getelementptr inbounds %"class.sat::literal", ptr %agg.tmp, i32 0, i32 0
  %6 = load i32, ptr %coerce.dive, align 4
  call void @_ZN3sat6solver9set_phaseENS_7literalE(ptr noundef nonnull align 8 dereferenceable(4408) %m_solver, i32 %6)
  br label %for.inc

for.inc:                                          ; preds = %for.body
  %7 = load ptr, ptr %__begin1, align 8
  %incdec.ptr = getelementptr inbounds %"class.sat::literal", ptr %7, i32 1
  store ptr %incdec.ptr, ptr %__begin1, align 8
  br label %for.cond

for.end:                                          ; preds = %for.cond
  ret void
}

; Function Attrs: mustprogress uwtable
define linkonce_odr hidden void @_ZN14inc_sat_solver17assert_expr_core2EP4exprS1_(ptr noundef nonnull align 8 dereferenceable(5008) %this, ptr noundef %t, ptr noundef %a) unnamed_addr #5 comdat align 2 personality ptr @__gxx_personality_v0 {
entry:
  %this.addr = alloca ptr, align 8
  %t.addr = alloca ptr, align 8
  %a.addr = alloca ptr, align 8
  %args = alloca %class.ref_vector, align 8
  %exn.slot = alloca ptr, align 8
  %ehselector.slot = alloca i32, align 4
  store ptr %this, ptr %this.addr, align 8
  store ptr %t, ptr %t.addr, align 8
  store ptr %a, ptr %a.addr, align 8
  %this1 = load ptr, ptr %this.addr, align 8
  %0 = load ptr, ptr %a.addr, align 8
  %tobool = icmp ne ptr %0, null
  br i1 %tobool, label %if.then, label %if.else46

if.then:                                          ; preds = %entry
  %m_asmsf = getelementptr inbounds %class.inc_sat_solver, ptr %this1, i32 0, i32 6
  %1 = load ptr, ptr %a.addr, align 8
  %call = call noundef nonnull align 8 dereferenceable(16) ptr @_ZN15ref_vector_coreI4expr19ref_manager_wrapperIS0_11ast_managerEE9push_backEPS0_(ptr noundef nonnull align 8 dereferenceable(16) %m_asmsf, ptr noundef %1)
  %m_is_cnf = getelementptr inbounds %class.inc_sat_solver, ptr %this1, i32 0, i32 15
  %2 = load i8, ptr %m_is_cnf, align 8
  %tobool2 = trunc i8 %2 to i1
  br i1 %tobool2, label %land.lhs.true, label %if.else

land.lhs.true:                                    ; preds = %if.then
  %3 = load ptr, ptr %t.addr, align 8
  %call3 = call noundef zeroext i1 @_ZN14inc_sat_solver10is_literalEP4expr(ptr noundef nonnull align 8 dereferenceable(5008) %this1, ptr noundef %3)
  br i1 %call3, label %land.lhs.true4, label %if.else

land.lhs.true4:                                   ; preds = %land.lhs.true
  %4 = load ptr, ptr %a.addr, align 8
  %call5 = call noundef zeroext i1 @_ZN14inc_sat_solver10is_literalEP4expr(ptr noundef nonnull align 8 dereferenceable(5008) %this1, ptr noundef %4)
  br i1 %call5, label %if.then6, label %if.else

if.then6:                                         ; preds = %land.lhs.true4
  %m = getelementptr inbounds %class.check_sat_result, ptr %this1, i32 0, i32 1
  %5 = load ptr, ptr %m, align 8
  %m7 = getelementptr inbounds %class.check_sat_result, ptr %this1, i32 0, i32 1
  %6 = load ptr, ptr %m7, align 8
  %7 = load ptr, ptr %a.addr, align 8
  %call8 = call noundef ptr @_Z6mk_notR11ast_managerP4expr(ptr noundef nonnull align 8 dereferenceable(976) %6, ptr noundef %7)
  %8 = load ptr, ptr %t.addr, align 8
  %call9 = call noundef ptr @_ZN11ast_manager5mk_orEP4exprS1_(ptr noundef nonnull align 8 dereferenceable(976) %5, ptr noundef %call8, ptr noundef %8)
  %vtable = load ptr, ptr %this1, align 8
  %vfn = getelementptr inbounds ptr, ptr %vtable, i64 18
  %9 = load ptr, ptr %vfn, align 8
  call void %9(ptr noundef nonnull align 8 dereferenceable(5008) %this1, ptr noundef %call9)
  br label %if.end45

if.else:                                          ; preds = %land.lhs.true4, %land.lhs.true, %if.then
  %m_is_cnf10 = getelementptr inbounds %class.inc_sat_solver, ptr %this1, i32 0, i32 15
  %10 = load i8, ptr %m_is_cnf10, align 8
  %tobool11 = trunc i8 %10 to i1
  br i1 %tobool11, label %land.lhs.true12, label %if.else39

land.lhs.true12:                                  ; preds = %if.else
  %m13 = getelementptr inbounds %class.check_sat_result, ptr %this1, i32 0, i32 1
  %11 = load ptr, ptr %m13, align 8
  %12 = load ptr, ptr %t.addr, align 8
  %call14 = call noundef zeroext i1 @_ZNK11ast_manager5is_orEPK4expr(ptr noundef nonnull align 8 dereferenceable(976) %11, ptr noundef %12)
  br i1 %call14, label %land.lhs.true15, label %if.else39

land.lhs.true15:                                  ; preds = %land.lhs.true12
  %13 = load ptr, ptr %t.addr, align 8
  %call16 = call noundef zeroext i1 @_ZN14inc_sat_solver9is_clauseEP4expr(ptr noundef nonnull align 8 dereferenceable(5008) %this1, ptr noundef %13)
  br i1 %call16, label %land.lhs.true17, label %if.else39

land.lhs.true17:                                  ; preds = %land.lhs.true15
  %14 = load ptr, ptr %a.addr, align 8
  %call18 = call noundef zeroext i1 @_ZN14inc_sat_solver10is_literalEP4expr(ptr noundef nonnull align 8 dereferenceable(5008) %this1, ptr noundef %14)
  br i1 %call18, label %if.then19, label %if.else39

if.then19:                                        ; preds = %land.lhs.true17
  %m20 = getelementptr inbounds %class.check_sat_result, ptr %this1, i32 0, i32 1
  %15 = load ptr, ptr %m20, align 8
  call void @_ZN10ref_vectorI4expr11ast_managerEC2ERS1_(ptr noundef nonnull align 8 dereferenceable(16) %args, ptr noundef nonnull align 8 dereferenceable(976) %15)
  %m21 = getelementptr inbounds %class.check_sat_result, ptr %this1, i32 0, i32 1
  %16 = load ptr, ptr %m21, align 8
  %17 = load ptr, ptr %a.addr, align 8
  %call22 = invoke noundef ptr @_Z6mk_notR11ast_managerP4expr(ptr noundef nonnull align 8 dereferenceable(976) %16, ptr noundef %17)
          to label %invoke.cont unwind label %lpad

invoke.cont:                                      ; preds = %if.then19
  %call24 = invoke noundef nonnull align 8 dereferenceable(16) ptr @_ZN15ref_vector_coreI4expr19ref_manager_wrapperIS0_11ast_managerEE9push_backEPS0_(ptr noundef nonnull align 8 dereferenceable(16) %args, ptr noundef %call22)
          to label %invoke.cont23 unwind label %lpad

invoke.cont23:                                    ; preds = %invoke.cont
  %18 = load ptr, ptr %t.addr, align 8
  %call25 = call noundef ptr @_Z6to_appP3ast(ptr noundef %18)
  %call26 = call noundef i32 @_ZNK3app12get_num_argsEv(ptr noundef nonnull align 8 dereferenceable(32) %call25)
  %19 = load ptr, ptr %t.addr, align 8
  %call27 = call noundef ptr @_Z6to_appP3ast(ptr noundef %19)
  %call29 = invoke noundef ptr @_ZNK3app8get_argsEv(ptr noundef nonnull align 8 dereferenceable(32) %call27)
          to label %invoke.cont28 unwind label %lpad

invoke.cont28:                                    ; preds = %invoke.cont23
  invoke void @_ZN15ref_vector_coreI4expr19ref_manager_wrapperIS0_11ast_managerEE6appendEjPKPS0_(ptr noundef nonnull align 8 dereferenceable(16) %args, i32 noundef %call26, ptr noundef %call29)
          to label %invoke.cont30 unwind label %lpad

invoke.cont30:                                    ; preds = %invoke.cont28
  %m31 = getelementptr inbounds %class.check_sat_result, ptr %this1, i32 0, i32 1
  %20 = load ptr, ptr %m31, align 8
  %call32 = call noundef i32 @_ZNK15ref_vector_coreI4expr19ref_manager_wrapperIS0_11ast_managerEE4sizeEv(ptr noundef nonnull align 8 dereferenceable(16) %args)
  %call33 = call noundef ptr @_ZN15ref_vector_coreI4expr19ref_manager_wrapperIS0_11ast_managerEE4dataEv(ptr noundef nonnull align 8 dereferenceable(16) %args)
  %call35 = invoke noundef ptr @_ZN11ast_manager5mk_orEjPKP4expr(ptr noundef nonnull align 8 dereferenceable(976) %20, i32 noundef %call32, ptr noundef %call33)
          to label %invoke.cont34 unwind label %lpad

invoke.cont34:                                    ; preds = %invoke.cont30
  %vtable36 = load ptr, ptr %this1, align 8
  %vfn37 = getelementptr inbounds ptr, ptr %vtable36, i64 18
  %21 = load ptr, ptr %vfn37, align 8
  invoke void %21(ptr noundef nonnull align 8 dereferenceable(5008) %this1, ptr noundef %call35)
          to label %invoke.cont38 unwind label %lpad

invoke.cont38:                                    ; preds = %invoke.cont34
  call void @_ZN10ref_vectorI4expr11ast_managerED2Ev(ptr noundef nonnull align 8 dereferenceable(16) %args) #3
  br label %if.end

lpad:                                             ; preds = %invoke.cont34, %invoke.cont30, %invoke.cont28, %invoke.cont23, %invoke.cont, %if.then19
  %22 = landingpad { ptr, i32 }
          cleanup
  %23 = extractvalue { ptr, i32 } %22, 0
  store ptr %23, ptr %exn.slot, align 8
  %24 = extractvalue { ptr, i32 } %22, 1
  store i32 %24, ptr %ehselector.slot, align 4
  call void @_ZN10ref_vectorI4expr11ast_managerED2Ev(ptr noundef nonnull align 8 dereferenceable(16) %args) #3
  br label %eh.resume

if.else39:                                        ; preds = %land.lhs.true17, %land.lhs.true15, %land.lhs.true12, %if.else
  %m_is_cnf40 = getelementptr inbounds %class.inc_sat_solver, ptr %this1, i32 0, i32 15
  store i8 0, ptr %m_is_cnf40, align 8
  %m41 = getelementptr inbounds %class.check_sat_result, ptr %this1, i32 0, i32 1
  %25 = load ptr, ptr %m41, align 8
  %26 = load ptr, ptr %a.addr, align 8
  %27 = load ptr, ptr %t.addr, align 8
  %call42 = call noundef ptr @_ZN11ast_manager10mk_impliesEP4exprS1_(ptr noundef nonnull align 8 dereferenceable(976) %25, ptr noundef %26, ptr noundef %27)
  %vtable43 = load ptr, ptr %this1, align 8
  %vfn44 = getelementptr inbounds ptr, ptr %vtable43, i64 18
  %28 = load ptr, ptr %vfn44, align 8
  call void %28(ptr noundef nonnull align 8 dereferenceable(5008) %this1, ptr noundef %call42)
  br label %if.end

if.end:                                           ; preds = %if.else39, %invoke.cont38
  br label %if.end45

if.end45:                                         ; preds = %if.end, %if.then6
  br label %if.end49

if.else46:                                        ; preds = %entry
  %29 = load ptr, ptr %t.addr, align 8
  %vtable47 = load ptr, ptr %this1, align 8
  %vfn48 = getelementptr inbounds ptr, ptr %vtable47, i64 18
  %30 = load ptr, ptr %vfn48, align 8
  call void %30(ptr noundef nonnull align 8 dereferenceable(5008) %this1, ptr noundef %29)
  br label %if.end49

if.end49:                                         ; preds = %if.else46, %if.end45
  ret void

eh.resume:                                        ; preds = %lpad
  %exn = load ptr, ptr %exn.slot, align 8
  %sel = load i32, ptr %ehselector.slot, align 4
  %lpad.val = insertvalue { ptr, i32 } poison, ptr %exn, 0
  %lpad.val50 = insertvalue { ptr, i32 } %lpad.val, i32 %sel, 1
  resume { ptr, i32 } %lpad.val50
}

; Function Attrs: mustprogress uwtable
define linkonce_odr hidden void @_ZN14inc_sat_solver4pushEv(ptr noundef nonnull align 8 dereferenceable(5008) %this) unnamed_addr #5 comdat align 2 personality ptr @__gxx_personality_v0 {
entry:
  %this.addr = alloca ptr, align 8
  %exn.slot = alloca ptr, align 8
  %ehselector.slot = alloca i32, align 4
  store ptr %this, ptr %this.addr, align 8
  %this1 = load ptr, ptr %this.addr, align 8
  %call = invoke noundef i32 @_ZN14inc_sat_solver20internalize_formulasEv(ptr noundef nonnull align 8 dereferenceable(5008) %this1)
          to label %invoke.cont unwind label %lpad

invoke.cont:                                      ; preds = %entry
  br label %try.cont

lpad:                                             ; preds = %entry
  %0 = landingpad { ptr, i32 }
          catch ptr null
  %1 = extractvalue { ptr, i32 } %0, 0
  store ptr %1, ptr %exn.slot, align 8
  %2 = extractvalue { ptr, i32 } %0, 1
  store i32 %2, ptr %ehselector.slot, align 4
  br label %catch

catch:                                            ; preds = %lpad
  %exn = load ptr, ptr %exn.slot, align 8
  %3 = call ptr @__cxa_begin_catch(ptr %exn) #3
  invoke void @_ZN14inc_sat_solver13push_internalEv(ptr noundef nonnull align 8 dereferenceable(5008) %this1)
          to label %invoke.cont3 unwind label %lpad2

invoke.cont3:                                     ; preds = %catch
  invoke void @__cxa_rethrow() #17
          to label %unreachable unwind label %lpad2

lpad2:                                            ; preds = %invoke.cont3, %catch
  %4 = landingpad { ptr, i32 }
          cleanup
  %5 = extractvalue { ptr, i32 } %4, 0
  store ptr %5, ptr %exn.slot, align 8
  %6 = extractvalue { ptr, i32 } %4, 1
  store i32 %6, ptr %ehselector.slot, align 4
  invoke void @__cxa_end_catch()
          to label %invoke.cont4 unwind label %terminate.lpad

invoke.cont4:                                     ; preds = %lpad2
  br label %eh.resume

try.cont:                                         ; preds = %invoke.cont
  call void @_ZN14inc_sat_solver13push_internalEv(ptr noundef nonnull align 8 dereferenceable(5008) %this1)
  ret void

eh.resume:                                        ; preds = %invoke.cont4
  %exn5 = load ptr, ptr %exn.slot, align 8
  %sel = load i32, ptr %ehselector.slot, align 4
  %lpad.val = insertvalue { ptr, i32 } poison, ptr %exn5, 0
  %lpad.val6 = insertvalue { ptr, i32 } %lpad.val, i32 %sel, 1
  resume { ptr, i32 } %lpad.val6

terminate.lpad:                                   ; preds = %lpad2
  %7 = landingpad { ptr, i32 }
          catch ptr null
  %8 = extractvalue { ptr, i32 } %7, 0
  call void @__clang_call_terminate(ptr %8) #18
  unreachable

unreachable:                                      ; preds = %invoke.cont3
  unreachable
}

; Function Attrs: mustprogress uwtable
define linkonce_odr hidden void @_ZN14inc_sat_solver3popEj(ptr noundef nonnull align 8 dereferenceable(5008) %this, i32 noundef %n) unnamed_addr #5 comdat align 2 {
entry:
  %this.addr = alloca ptr, align 8
  %n.addr = alloca i32, align 4
  store ptr %this, ptr %this.addr, align 8
  store i32 %n, ptr %n.addr, align 4
  %this1 = load ptr, ptr %this.addr, align 8
  %0 = load i32, ptr %n.addr, align 4
  %m_num_scopes = getelementptr inbounds %class.inc_sat_solver, ptr %this1, i32 0, i32 16
  %1 = load i32, ptr %m_num_scopes, align 4
  %cmp = icmp ugt i32 %0, %1
  br i1 %cmp, label %if.then, label %if.end

if.then:                                          ; preds = %entry
  %m_num_scopes2 = getelementptr inbounds %class.inc_sat_solver, ptr %this1, i32 0, i32 16
  %2 = load i32, ptr %m_num_scopes2, align 4
  store i32 %2, ptr %n.addr, align 4
  br label %if.end

if.end:                                           ; preds = %if.then, %entry
  %m_bb_rewriter = getelementptr inbounds %class.inc_sat_solver, ptr %this1, i32 0, i32 13
  %call = call noundef zeroext i1 @_ZNK10scoped_ptrI20bit_blaster_rewriterEcvbEv(ptr noundef nonnull align 8 dereferenceable(8) %m_bb_rewriter)
  br i1 %call, label %if.then3, label %if.end6

if.then3:                                         ; preds = %if.end
  %m_bb_rewriter4 = getelementptr inbounds %class.inc_sat_solver, ptr %this1, i32 0, i32 13
  %call5 = call noundef ptr @_ZNK10scoped_ptrI20bit_blaster_rewriterEptEv(ptr noundef nonnull align 8 dereferenceable(8) %m_bb_rewriter4)
  %3 = load i32, ptr %n.addr, align 4
  call void @_ZN20bit_blaster_rewriter3popEj(ptr noundef nonnull align 8 dereferenceable(8) %call5, i32 noundef %3)
  br label %if.end6

if.end6:                                          ; preds = %if.then3, %if.end
  %m_inserted_const2bits = getelementptr inbounds %class.inc_sat_solver, ptr %this1, i32 0, i32 22
  call void @_ZN14core_hashtableI14obj_hash_entryI9func_declE12obj_ptr_hashIS1_E6ptr_eqIS1_EE5resetEv(ptr noundef nonnull align 8 dereferenceable(20) %m_inserted_const2bits)
  %m_map = getelementptr inbounds %class.inc_sat_solver, ptr %this1, i32 0, i32 12
  %4 = load i32, ptr %n.addr, align 4
  call void @_ZN8expr2var3popEj(ptr noundef nonnull align 8 dereferenceable(41) %m_map, i32 noundef %4)
  %m_goal2sat = getelementptr inbounds %class.inc_sat_solver, ptr %this1, i32 0, i32 3
  %5 = load i32, ptr %n.addr, align 4
  call void @_ZN8goal2sat8user_popEj(ptr noundef nonnull align 8 dereferenceable(12) %m_goal2sat, i32 noundef %5)
  %m_solver = getelementptr inbounds %class.inc_sat_solver, ptr %this1, i32 0, i32 1
  %6 = load i32, ptr %n.addr, align 4
  call void @_ZN3sat6solver8user_popEj(ptr noundef nonnull align 8 dereferenceable(4408) %m_solver, i32 noundef %6)
  %7 = load i32, ptr %n.addr, align 4
  %m_num_scopes7 = getelementptr inbounds %class.inc_sat_solver, ptr %this1, i32 0, i32 16
  %8 = load i32, ptr %m_num_scopes7, align 4
  %sub = sub i32 %8, %7
  store i32 %sub, ptr %m_num_scopes7, align 4
  %m_has_uninterpreted = getelementptr inbounds %class.inc_sat_solver, ptr %this1, i32 0, i32 2
  %9 = load i32, ptr %n.addr, align 4
  call void @_ZN13stacked_valueIbE3popEj(ptr noundef nonnull align 8 dereferenceable(16) %m_has_uninterpreted, i32 noundef %9)
  br label %while.cond

while.cond:                                       ; preds = %while.body, %if.end6
  %10 = load i32, ptr %n.addr, align 4
  %cmp8 = icmp ugt i32 %10, 0
  br i1 %cmp8, label %while.body, label %while.end

while.body:                                       ; preds = %while.cond
  %m_mcs = getelementptr inbounds %class.inc_sat_solver, ptr %this1, i32 0, i32 20
  call void @_ZN15ref_vector_coreI15model_converter21ref_unmanaged_wrapperIS0_EE8pop_backEv(ptr noundef nonnull align 8 dereferenceable(8) %m_mcs)
  %m_fmls_head_lim = getelementptr inbounds %class.inc_sat_solver, ptr %this1, i32 0, i32 9
  %call9 = call noundef nonnull align 4 dereferenceable(4) ptr @_ZN6vectorIjLb0EjE4backEv(ptr noundef nonnull align 8 dereferenceable(8) %m_fmls_head_lim)
  %11 = load i32, ptr %call9, align 4
  %m_fmls_head = getelementptr inbounds %class.inc_sat_solver, ptr %this1, i32 0, i32 10
  store i32 %11, ptr %m_fmls_head, align 8
  %m_fmls = getelementptr inbounds %class.inc_sat_solver, ptr %this1, i32 0, i32 5
  %m_fmls_lim = getelementptr inbounds %class.inc_sat_solver, ptr %this1, i32 0, i32 7
  %call10 = call noundef nonnull align 4 dereferenceable(4) ptr @_ZN6vectorIjLb0EjE4backEv(ptr noundef nonnull align 8 dereferenceable(8) %m_fmls_lim)
  %12 = load i32, ptr %call10, align 4
  call void @_ZN15ref_vector_coreI4expr19ref_manager_wrapperIS0_11ast_managerEE6resizeEj(ptr noundef nonnull align 8 dereferenceable(16) %m_fmls, i32 noundef %12)
  %m_fmls_lim11 = getelementptr inbounds %class.inc_sat_solver, ptr %this1, i32 0, i32 7
  call void @_ZN6vectorIjLb0EjE8pop_backEv(ptr noundef nonnull align 8 dereferenceable(8) %m_fmls_lim11)
  %m_fmls_head_lim12 = getelementptr inbounds %class.inc_sat_solver, ptr %this1, i32 0, i32 9
  call void @_ZN6vectorIjLb0EjE8pop_backEv(ptr noundef nonnull align 8 dereferenceable(8) %m_fmls_head_lim12)
  %m_asmsf = getelementptr inbounds %class.inc_sat_solver, ptr %this1, i32 0, i32 6
  %m_asms_lim = getelementptr inbounds %class.inc_sat_solver, ptr %this1, i32 0, i32 8
  %call13 = call noundef nonnull align 4 dereferenceable(4) ptr @_ZN6vectorIjLb0EjE4backEv(ptr noundef nonnull align 8 dereferenceable(8) %m_asms_lim)
  %13 = load i32, ptr %call13, align 4
  call void @_ZN15ref_vector_coreI4expr19ref_manager_wrapperIS0_11ast_managerEE6resizeEj(ptr noundef nonnull align 8 dereferenceable(16) %m_asmsf, i32 noundef %13)
  %m_asms_lim14 = getelementptr inbounds %class.inc_sat_solver, ptr %this1, i32 0, i32 8
  call void @_ZN6vectorIjLb0EjE8pop_backEv(ptr noundef nonnull align 8 dereferenceable(8) %m_asms_lim14)
  %14 = load i32, ptr %n.addr, align 4
  %dec = add i32 %14, -1
  store i32 %dec, ptr %n.addr, align 4
  br label %while.cond, !llvm.loop !12

while.end:                                        ; preds = %while.cond
  ret void
}

; Function Attrs: mustprogress nounwind uwtable
define linkonce_odr hidden noundef i32 @_ZNK14inc_sat_solver15get_scope_levelEv(ptr noundef nonnull align 8 dereferenceable(5008) %this) unnamed_addr #4 comdat align 2 {
entry:
  %this.addr = alloca ptr, align 8
  store ptr %this, ptr %this.addr, align 8
  %this1 = load ptr, ptr %this.addr, align 8
  %m_num_scopes = getelementptr inbounds %class.inc_sat_solver, ptr %this1, i32 0, i32 16
  %0 = load i32, ptr %m_num_scopes, align 4
  ret i32 %0
}

; Function Attrs: mustprogress uwtable
define linkonce_odr hidden noundef i32 @_ZN6solver12check_sat_ccERK10ref_vectorI4expr11ast_managerERK6vectorIS3_Lb1EjE(ptr noundef nonnull align 8 dereferenceable(96) %this, ptr noundef nonnull align 8 dereferenceable(16) %cube, ptr noundef nonnull align 8 dereferenceable(8) %clauses) unnamed_addr #5 comdat align 2 {
entry:
  %this.addr = alloca ptr, align 8
  %cube.addr = alloca ptr, align 8
  %clauses.addr = alloca ptr, align 8
  store ptr %this, ptr %this.addr, align 8
  store ptr %cube, ptr %cube.addr, align 8
  store ptr %clauses, ptr %clauses.addr, align 8
  %this1 = load ptr, ptr %this.addr, align 8
  %0 = load ptr, ptr %clauses.addr, align 8
  %call = call noundef zeroext i1 @_ZNK6vectorI10ref_vectorI4expr11ast_managerELb1EjE5emptyEv(ptr noundef nonnull align 8 dereferenceable(8) %0)
  br i1 %call, label %if.then, label %if.end

if.then:                                          ; preds = %entry
  %1 = load ptr, ptr %cube.addr, align 8
  %call2 = call noundef i32 @_ZNK15ref_vector_coreI4expr19ref_manager_wrapperIS0_11ast_managerEE4sizeEv(ptr noundef nonnull align 8 dereferenceable(16) %1)
  %2 = load ptr, ptr %cube.addr, align 8
  %call3 = call noundef ptr @_ZNK15ref_vector_coreI4expr19ref_manager_wrapperIS0_11ast_managerEE4dataEv(ptr noundef nonnull align 8 dereferenceable(16) %2)
  %call4 = call noundef i32 @_ZN6solver9check_satEjPKP4expr(ptr noundef nonnull align 8 dereferenceable(96) %this1, i32 noundef %call2, ptr noundef %call3)
  ret i32 %call4

if.end:                                           ; preds = %entry
  call void @_Z26notify_assertion_violationPKciS0_(ptr noundef @.str.40, i32 noundef 174, ptr noundef @.str.41)
  call void @exit(i32 noundef 107) #18
  unreachable
}

; Function Attrs: mustprogress nounwind uwtable
define linkonce_odr hidden void @_ZN14inc_sat_solver21set_progress_callbackEP17progress_callback(ptr noundef nonnull align 8 dereferenceable(5008) %this, ptr noundef %callback) unnamed_addr #4 comdat align 2 {
entry:
  %this.addr = alloca ptr, align 8
  %callback.addr = alloca ptr, align 8
  store ptr %this, ptr %this.addr, align 8
  store ptr %callback, ptr %callback.addr, align 8
  ret void
}

; Function Attrs: mustprogress uwtable
define linkonce_odr hidden noundef i32 @_ZNK14inc_sat_solver18get_num_assertionsEv(ptr noundef nonnull align 8 dereferenceable(5008) %this) unnamed_addr #5 comdat align 2 {
entry:
  %retval = alloca i32, align 4
  %this.addr = alloca ptr, align 8
  store ptr %this, ptr %this.addr, align 8
  %this1 = load ptr, ptr %this.addr, align 8
  call void @_ZN14inc_sat_solver20convert_internalizedEv(ptr noundef nonnull align 8 dereferenceable(5008) %this1)
  %call = call noundef zeroext i1 @_ZNK14inc_sat_solver15is_internalizedEv(ptr noundef nonnull align 8 dereferenceable(5008) %this1)
  br i1 %call, label %land.lhs.true, label %if.else

land.lhs.true:                                    ; preds = %entry
  %m_internalized_converted = getelementptr inbounds %class.inc_sat_solver, ptr %this1, i32 0, i32 27
  %0 = load i8, ptr %m_internalized_converted, align 8
  %tobool = trunc i8 %0 to i1
  br i1 %tobool, label %if.then, label %if.else

if.then:                                          ; preds = %land.lhs.true
  %m_internalized_fmls = getelementptr inbounds %class.inc_sat_solver, ptr %this1, i32 0, i32 28
  %call2 = call noundef i32 @_ZNK15ref_vector_coreI4expr19ref_manager_wrapperIS0_11ast_managerEE4sizeEv(ptr noundef nonnull align 8 dereferenceable(16) %m_internalized_fmls)
  store i32 %call2, ptr %retval, align 4
  br label %return

if.else:                                          ; preds = %land.lhs.true, %entry
  %m_fmls = getelementptr inbounds %class.inc_sat_solver, ptr %this1, i32 0, i32 5
  %call3 = call noundef i32 @_ZNK15ref_vector_coreI4expr19ref_manager_wrapperIS0_11ast_managerEE4sizeEv(ptr noundef nonnull align 8 dereferenceable(16) %m_fmls)
  store i32 %call3, ptr %retval, align 4
  br label %return

return:                                           ; preds = %if.else, %if.then
  %1 = load i32, ptr %retval, align 4
  ret i32 %1
}

; Function Attrs: mustprogress uwtable
define linkonce_odr hidden noundef ptr @_ZNK14inc_sat_solver13get_assertionEj(ptr noundef nonnull align 8 dereferenceable(5008) %this, i32 noundef %idx) unnamed_addr #5 comdat align 2 {
entry:
  %retval = alloca ptr, align 8
  %this.addr = alloca ptr, align 8
  %idx.addr = alloca i32, align 4
  store ptr %this, ptr %this.addr, align 8
  store i32 %idx, ptr %idx.addr, align 4
  %this1 = load ptr, ptr %this.addr, align 8
  %call = call noundef zeroext i1 @_ZNK14inc_sat_solver15is_internalizedEv(ptr noundef nonnull align 8 dereferenceable(5008) %this1)
  br i1 %call, label %land.lhs.true, label %if.end

land.lhs.true:                                    ; preds = %entry
  %m_internalized_converted = getelementptr inbounds %class.inc_sat_solver, ptr %this1, i32 0, i32 27
  %0 = load i8, ptr %m_internalized_converted, align 8
  %tobool = trunc i8 %0 to i1
  br i1 %tobool, label %if.then, label %if.end

if.then:                                          ; preds = %land.lhs.true
  %m_internalized_fmls = getelementptr inbounds %class.inc_sat_solver, ptr %this1, i32 0, i32 28
  %1 = load i32, ptr %idx.addr, align 4
  %call2 = call noundef ptr @_ZNK10ref_vectorI4expr11ast_managerEixEj(ptr noundef nonnull align 8 dereferenceable(16) %m_internalized_fmls, i32 noundef %1)
  store ptr %call2, ptr %retval, align 8
  br label %return

if.end:                                           ; preds = %land.lhs.true, %entry
  %m_fmls = getelementptr inbounds %class.inc_sat_solver, ptr %this1, i32 0, i32 5
  %2 = load i32, ptr %idx.addr, align 4
  %call3 = call noundef ptr @_ZNK10ref_vectorI4expr11ast_managerEixEj(ptr noundef nonnull align 8 dereferenceable(16) %m_fmls, i32 noundef %2)
  store ptr %call3, ptr %retval, align 8
  br label %return

return:                                           ; preds = %if.end, %if.then
  %3 = load ptr, ptr %retval, align 8
  ret ptr %3
}

; Function Attrs: mustprogress nounwind uwtable
define linkonce_odr hidden noundef i32 @_ZNK14inc_sat_solver19get_num_assumptionsEv(ptr noundef nonnull align 8 dereferenceable(5008) %this) unnamed_addr #4 comdat align 2 {
entry:
  %this.addr = alloca ptr, align 8
  store ptr %this, ptr %this.addr, align 8
  %this1 = load ptr, ptr %this.addr, align 8
  %m_asmsf = getelementptr inbounds %class.inc_sat_solver, ptr %this1, i32 0, i32 6
  %call = call noundef i32 @_ZNK15ref_vector_coreI4expr19ref_manager_wrapperIS0_11ast_managerEE4sizeEv(ptr noundef nonnull align 8 dereferenceable(16) %m_asmsf)
  ret i32 %call
}

; Function Attrs: mustprogress uwtable
define linkonce_odr hidden noundef ptr @_ZNK14inc_sat_solver14get_assumptionEj(ptr noundef nonnull align 8 dereferenceable(5008) %this, i32 noundef %idx) unnamed_addr #5 comdat align 2 {
entry:
  %this.addr = alloca ptr, align 8
  %idx.addr = alloca i32, align 4
  store ptr %this, ptr %this.addr, align 8
  store i32 %idx, ptr %idx.addr, align 4
  %this1 = load ptr, ptr %this.addr, align 8
  %m_asmsf = getelementptr inbounds %class.inc_sat_solver, ptr %this1, i32 0, i32 6
  %0 = load i32, ptr %idx.addr, align 4
  %call = call noundef ptr @_ZNK10ref_vectorI4expr11ast_managerEixEj(ptr noundef nonnull align 8 dereferenceable(16) %m_asmsf, i32 noundef %0)
  ret ptr %call
}

declare noundef i32 @_ZN6solver16get_consequencesERK10ref_vectorI4expr11ast_managerES5_RS3_(ptr noundef nonnull align 8 dereferenceable(96), ptr noundef nonnull align 8 dereferenceable(16), ptr noundef nonnull align 8 dereferenceable(16), ptr noundef nonnull align 8 dereferenceable(16)) unnamed_addr #1

; Function Attrs: mustprogress uwtable
define linkonce_odr hidden noundef i32 @_ZN14inc_sat_solver12find_mutexesERK10ref_vectorI4expr11ast_managerER6vectorIS3_Lb1EjE(ptr noundef nonnull align 8 dereferenceable(5008) %this, ptr noundef nonnull align 8 dereferenceable(16) %vars, ptr noundef nonnull align 8 dereferenceable(8) %mutexes) unnamed_addr #5 comdat align 2 personality ptr @__gxx_personality_v0 {
entry:
  %this.addr = alloca ptr, align 8
  %vars.addr = alloca ptr, align 8
  %mutexes.addr = alloca ptr, align 8
  %ls = alloca %class.svector.28, align 8
  %lit2var = alloca %class.u_map.299, align 8
  %exn.slot = alloca ptr, align 8
  %ehselector.slot = alloca i32, align 4
  %i = alloca i32, align 4
  %e = alloca ptr, align 8
  %neg = alloca i8, align 1
  %v = alloca i32, align 4
  %lit = alloca %"class.sat::literal", align 4
  %ref.tmp = alloca i32, align 4
  %ref.tmp15 = alloca ptr, align 8
  %ls_mutexes = alloca %class.vector.32, align 8
  %__range1 = alloca ptr, align 8
  %__begin1 = alloca ptr, align 8
  %__end1 = alloca ptr, align 8
  %ls_mutex = alloca ptr, align 8
  %mutex = alloca %class.ref_vector, align 8
  %__range2 = alloca ptr, align 8
  %__begin2 = alloca ptr, align 8
  %__end2 = alloca ptr, align 8
  %l = alloca %"class.sat::literal", align 4
  %ref.tmp39 = alloca i32, align 4
  store ptr %this, ptr %this.addr, align 8
  store ptr %vars, ptr %vars.addr, align 8
  store ptr %mutexes, ptr %mutexes.addr, align 8
  %this1 = load ptr, ptr %this.addr, align 8
  call void @_ZN7svectorIN3sat7literalEjEC2Ev(ptr noundef nonnull align 8 dereferenceable(8) %ls)
  invoke void @_ZN5u_mapIP4exprEC2Ev(ptr noundef nonnull align 8 dereferenceable(24) %lit2var)
          to label %invoke.cont unwind label %lpad

invoke.cont:                                      ; preds = %entry
  store i32 0, ptr %i, align 4
  br label %for.cond

for.cond:                                         ; preds = %for.inc, %invoke.cont
  %0 = load i32, ptr %i, align 4
  %1 = load ptr, ptr %vars.addr, align 8
  %call = call noundef i32 @_ZNK15ref_vector_coreI4expr19ref_manager_wrapperIS0_11ast_managerEE4sizeEv(ptr noundef nonnull align 8 dereferenceable(16) %1)
  %cmp = icmp ult i32 %0, %call
  br i1 %cmp, label %for.body, label %for.end

for.body:                                         ; preds = %for.cond
  %2 = load ptr, ptr %vars.addr, align 8
  %3 = load i32, ptr %i, align 4
  %call4 = invoke noundef ptr @_ZNK10ref_vectorI4expr11ast_managerEixEj(ptr noundef nonnull align 8 dereferenceable(16) %2, i32 noundef %3)
          to label %invoke.cont3 unwind label %lpad2

invoke.cont3:                                     ; preds = %for.body
  store ptr %call4, ptr %e, align 8
  %m = getelementptr inbounds %class.check_sat_result, ptr %this1, i32 0, i32 1
  %4 = load ptr, ptr %m, align 8
  %5 = load ptr, ptr %e, align 8
  %call6 = invoke noundef zeroext i1 @_ZNK11ast_manager6is_notEPK4exprRPS0_(ptr noundef nonnull align 8 dereferenceable(976) %4, ptr noundef %5, ptr noundef nonnull align 8 dereferenceable(8) %e)
          to label %invoke.cont5 unwind label %lpad2

invoke.cont5:                                     ; preds = %invoke.cont3
  %frombool = zext i1 %call6 to i8
  store i8 %frombool, ptr %neg, align 1
  %m_map = getelementptr inbounds %class.inc_sat_solver, ptr %this1, i32 0, i32 12
  %6 = load ptr, ptr %e, align 8
  %call8 = invoke noundef i32 @_ZNK13atom2bool_var11to_bool_varEP4expr(ptr noundef nonnull align 8 dereferenceable(41) %m_map, ptr noundef %6)
          to label %invoke.cont7 unwind label %lpad2

invoke.cont7:                                     ; preds = %invoke.cont5
  store i32 %call8, ptr %v, align 4
  %7 = load i32, ptr %v, align 4
  %cmp9 = icmp ne i32 %7, 2147483647
  br i1 %cmp9, label %if.then, label %if.end

if.then:                                          ; preds = %invoke.cont7
  %8 = load i32, ptr %v, align 4
  %9 = load i8, ptr %neg, align 1
  %tobool = trunc i8 %9 to i1
  invoke void @_ZN3sat7literalC2Ejb(ptr noundef nonnull align 4 dereferenceable(4) %lit, i32 noundef %8, i1 noundef zeroext %tobool)
          to label %invoke.cont10 unwind label %lpad2

invoke.cont10:                                    ; preds = %if.then
  %call12 = invoke noundef nonnull align 8 dereferenceable(8) ptr @_ZN6vectorIN3sat7literalELb0EjE9push_backERKS1_(ptr noundef nonnull align 8 dereferenceable(8) %ls, ptr noundef nonnull align 4 dereferenceable(4) %lit)
          to label %invoke.cont11 unwind label %lpad2

invoke.cont11:                                    ; preds = %invoke.cont10
  %call14 = invoke noundef i32 @_ZNK3sat7literal5indexEv(ptr noundef nonnull align 4 dereferenceable(4) %lit)
          to label %invoke.cont13 unwind label %lpad2

invoke.cont13:                                    ; preds = %invoke.cont11
  store i32 %call14, ptr %ref.tmp, align 4
  %10 = load ptr, ptr %vars.addr, align 8
  %11 = load i32, ptr %i, align 4
  %call17 = invoke noundef ptr @_ZNK10ref_vectorI4expr11ast_managerEixEj(ptr noundef nonnull align 8 dereferenceable(16) %10, i32 noundef %11)
          to label %invoke.cont16 unwind label %lpad2

invoke.cont16:                                    ; preds = %invoke.cont13
  store ptr %call17, ptr %ref.tmp15, align 8
  invoke void @_ZN9table2mapI17default_map_entryIjP4exprE6u_hash4u_eqE6insertERKjOS2_(ptr noundef nonnull align 8 dereferenceable(24) %lit2var, ptr noundef nonnull align 4 dereferenceable(4) %ref.tmp, ptr noundef nonnull align 8 dereferenceable(8) %ref.tmp15)
          to label %invoke.cont18 unwind label %lpad2

invoke.cont18:                                    ; preds = %invoke.cont16
  br label %if.end

lpad:                                             ; preds = %entry
  %12 = landingpad { ptr, i32 }
          cleanup
  %13 = extractvalue { ptr, i32 } %12, 0
  store ptr %13, ptr %exn.slot, align 8
  %14 = extractvalue { ptr, i32 } %12, 1
  store i32 %14, ptr %ehselector.slot, align 4
  br label %ehcleanup54

lpad2:                                            ; preds = %invoke.cont16, %invoke.cont13, %invoke.cont11, %invoke.cont10, %if.then, %invoke.cont5, %invoke.cont3, %for.body
  %15 = landingpad { ptr, i32 }
          cleanup
  %16 = extractvalue { ptr, i32 } %15, 0
  store ptr %16, ptr %exn.slot, align 8
  %17 = extractvalue { ptr, i32 } %15, 1
  store i32 %17, ptr %ehselector.slot, align 4
  br label %ehcleanup53

if.end:                                           ; preds = %invoke.cont18, %invoke.cont7
  br label %for.inc

for.inc:                                          ; preds = %if.end
  %18 = load i32, ptr %i, align 4
  %inc = add i32 %18, 1
  store i32 %inc, ptr %i, align 4
  br label %for.cond, !llvm.loop !13

for.end:                                          ; preds = %for.cond
  call void @_ZN6vectorI7svectorIN3sat7literalEjELb1EjEC2Ev(ptr noundef nonnull align 8 dereferenceable(8) %ls_mutexes) #3
  %m_solver = getelementptr inbounds %class.inc_sat_solver, ptr %this1, i32 0, i32 1
  %call21 = invoke noundef i32 @_ZN3sat6solver12find_mutexesERK7svectorINS_7literalEjER6vectorIS3_Lb1EjE(ptr noundef nonnull align 8 dereferenceable(4408) %m_solver, ptr noundef nonnull align 8 dereferenceable(8) %ls, ptr noundef nonnull align 8 dereferenceable(8) %ls_mutexes)
          to label %invoke.cont20 unwind label %lpad19

invoke.cont20:                                    ; preds = %for.end
  store ptr %ls_mutexes, ptr %__range1, align 8
  %19 = load ptr, ptr %__range1, align 8
  %call23 = invoke noundef ptr @_ZN6vectorI7svectorIN3sat7literalEjELb1EjE5beginEv(ptr noundef nonnull align 8 dereferenceable(8) %19)
          to label %invoke.cont22 unwind label %lpad19

invoke.cont22:                                    ; preds = %invoke.cont20
  store ptr %call23, ptr %__begin1, align 8
  %20 = load ptr, ptr %__range1, align 8
  %call25 = invoke noundef ptr @_ZN6vectorI7svectorIN3sat7literalEjELb1EjE3endEv(ptr noundef nonnull align 8 dereferenceable(8) %20)
          to label %invoke.cont24 unwind label %lpad19

invoke.cont24:                                    ; preds = %invoke.cont22
  store ptr %call25, ptr %__end1, align 8
  br label %for.cond26

for.cond26:                                       ; preds = %for.inc50, %invoke.cont24
  %21 = load ptr, ptr %__begin1, align 8
  %22 = load ptr, ptr %__end1, align 8
  %cmp27 = icmp ne ptr %21, %22
  br i1 %cmp27, label %for.body28, label %for.end52

for.body28:                                       ; preds = %for.cond26
  %23 = load ptr, ptr %__begin1, align 8
  store ptr %23, ptr %ls_mutex, align 8
  %m29 = getelementptr inbounds %class.check_sat_result, ptr %this1, i32 0, i32 1
  %24 = load ptr, ptr %m29, align 8
  invoke void @_ZN10ref_vectorI4expr11ast_managerEC2ERS1_(ptr noundef nonnull align 8 dereferenceable(16) %mutex, ptr noundef nonnull align 8 dereferenceable(976) %24)
          to label %invoke.cont30 unwind label %lpad19

invoke.cont30:                                    ; preds = %for.body28
  %25 = load ptr, ptr %ls_mutex, align 8
  store ptr %25, ptr %__range2, align 8
  %26 = load ptr, ptr %__range2, align 8
  %call33 = invoke noundef ptr @_ZNK6vectorIN3sat7literalELb0EjE5beginEv(ptr noundef nonnull align 8 dereferenceable(8) %26)
          to label %invoke.cont32 unwind label %lpad31

invoke.cont32:                                    ; preds = %invoke.cont30
  store ptr %call33, ptr %__begin2, align 8
  %27 = load ptr, ptr %__range2, align 8
  %call35 = invoke noundef ptr @_ZNK6vectorIN3sat7literalELb0EjE3endEv(ptr noundef nonnull align 8 dereferenceable(8) %27)
          to label %invoke.cont34 unwind label %lpad31

invoke.cont34:                                    ; preds = %invoke.cont32
  store ptr %call35, ptr %__end2, align 8
  br label %for.cond36

for.cond36:                                       ; preds = %for.inc46, %invoke.cont34
  %28 = load ptr, ptr %__begin2, align 8
  %29 = load ptr, ptr %__end2, align 8
  %cmp37 = icmp ne ptr %28, %29
  br i1 %cmp37, label %for.body38, label %for.end47

for.body38:                                       ; preds = %for.cond36
  %30 = load ptr, ptr %__begin2, align 8
  call void @llvm.memcpy.p0.p0.i64(ptr align 4 %l, ptr align 4 %30, i64 4, i1 false)
  %call41 = invoke noundef i32 @_ZNK3sat7literal5indexEv(ptr noundef nonnull align 4 dereferenceable(4) %l)
          to label %invoke.cont40 unwind label %lpad31

invoke.cont40:                                    ; preds = %for.body38
  store i32 %call41, ptr %ref.tmp39, align 4
  %call43 = invoke noundef nonnull align 8 dereferenceable(8) ptr @_ZN9table2mapI17default_map_entryIjP4exprE6u_hash4u_eqE4findERKj(ptr noundef nonnull align 8 dereferenceable(24) %lit2var, ptr noundef nonnull align 4 dereferenceable(4) %ref.tmp39)
          to label %invoke.cont42 unwind label %lpad31

invoke.cont42:                                    ; preds = %invoke.cont40
  %31 = load ptr, ptr %call43, align 8
  %call45 = invoke noundef nonnull align 8 dereferenceable(16) ptr @_ZN15ref_vector_coreI4expr19ref_manager_wrapperIS0_11ast_managerEE9push_backEPS0_(ptr noundef nonnull align 8 dereferenceable(16) %mutex, ptr noundef %31)
          to label %invoke.cont44 unwind label %lpad31

invoke.cont44:                                    ; preds = %invoke.cont42
  br label %for.inc46

for.inc46:                                        ; preds = %invoke.cont44
  %32 = load ptr, ptr %__begin2, align 8
  %incdec.ptr = getelementptr inbounds %"class.sat::literal", ptr %32, i32 1
  store ptr %incdec.ptr, ptr %__begin2, align 8
  br label %for.cond36

lpad19:                                           ; preds = %for.body28, %invoke.cont22, %invoke.cont20, %for.end
  %33 = landingpad { ptr, i32 }
          cleanup
  %34 = extractvalue { ptr, i32 } %33, 0
  store ptr %34, ptr %exn.slot, align 8
  %35 = extractvalue { ptr, i32 } %33, 1
  store i32 %35, ptr %ehselector.slot, align 4
  br label %ehcleanup

lpad31:                                           ; preds = %for.end47, %invoke.cont42, %invoke.cont40, %for.body38, %invoke.cont32, %invoke.cont30
  %36 = landingpad { ptr, i32 }
          cleanup
  %37 = extractvalue { ptr, i32 } %36, 0
  store ptr %37, ptr %exn.slot, align 8
  %38 = extractvalue { ptr, i32 } %36, 1
  store i32 %38, ptr %ehselector.slot, align 4
  call void @_ZN10ref_vectorI4expr11ast_managerED2Ev(ptr noundef nonnull align 8 dereferenceable(16) %mutex) #3
  br label %ehcleanup

for.end47:                                        ; preds = %for.cond36
  %39 = load ptr, ptr %mutexes.addr, align 8
  %call49 = invoke noundef nonnull align 8 dereferenceable(8) ptr @_ZN6vectorI10ref_vectorI4expr11ast_managerELb1EjE9push_backERKS3_(ptr noundef nonnull align 8 dereferenceable(8) %39, ptr noundef nonnull align 8 dereferenceable(16) %mutex)
          to label %invoke.cont48 unwind label %lpad31

invoke.cont48:                                    ; preds = %for.end47
  call void @_ZN10ref_vectorI4expr11ast_managerED2Ev(ptr noundef nonnull align 8 dereferenceable(16) %mutex) #3
  br label %for.inc50

for.inc50:                                        ; preds = %invoke.cont48
  %40 = load ptr, ptr %__begin1, align 8
  %incdec.ptr51 = getelementptr inbounds %class.svector.28, ptr %40, i32 1
  store ptr %incdec.ptr51, ptr %__begin1, align 8
  br label %for.cond26

for.end52:                                        ; preds = %for.cond26
  call void @_ZN6vectorI7svectorIN3sat7literalEjELb1EjED2Ev(ptr noundef nonnull align 8 dereferenceable(8) %ls_mutexes) #3
  call void @_ZN5u_mapIP4exprED2Ev(ptr noundef nonnull align 8 dereferenceable(24) %lit2var) #3
  call void @_ZN7svectorIN3sat7literalEjED2Ev(ptr noundef nonnull align 8 dereferenceable(8) %ls) #3
  ret i32 1

ehcleanup:                                        ; preds = %lpad31, %lpad19
  call void @_ZN6vectorI7svectorIN3sat7literalEjELb1EjED2Ev(ptr noundef nonnull align 8 dereferenceable(8) %ls_mutexes) #3
  br label %ehcleanup53

ehcleanup53:                                      ; preds = %ehcleanup, %lpad2
  call void @_ZN5u_mapIP4exprED2Ev(ptr noundef nonnull align 8 dereferenceable(24) %lit2var) #3
  br label %ehcleanup54

ehcleanup54:                                      ; preds = %ehcleanup53, %lpad
  call void @_ZN7svectorIN3sat7literalEjED2Ev(ptr noundef nonnull align 8 dereferenceable(8) %ls) #3
  br label %eh.resume

eh.resume:                                        ; preds = %ehcleanup54
  %exn = load ptr, ptr %exn.slot, align 8
  %sel = load i32, ptr %ehselector.slot, align 4
  %lpad.val = insertvalue { ptr, i32 } poison, ptr %exn, 0
  %lpad.val55 = insertvalue { ptr, i32 } %lpad.val, i32 %sel, 1
  resume { ptr, i32 } %lpad.val55
}

declare noundef i32 @_ZN6solver13preferred_satERK10ref_vectorI4expr11ast_managerER6vectorIS3_Lb1EjE(ptr noundef nonnull align 8 dereferenceable(96), ptr noundef nonnull align 8 dereferenceable(16), ptr noundef nonnull align 8 dereferenceable(8)) unnamed_addr #1

; Function Attrs: mustprogress uwtable
define linkonce_odr hidden void @_ZN14inc_sat_solver4cubeER10ref_vectorI4expr11ast_managerEj(ptr noalias sret(%class.ref_vector) align 8 %agg.result, ptr noundef nonnull align 8 dereferenceable(5008) %this, ptr noundef nonnull align 8 dereferenceable(16) %vs, i32 noundef %backtrack_level) unnamed_addr #5 comdat align 2 personality ptr @__gxx_personality_v0 {
entry:
  %result.ptr = alloca ptr, align 8
  %this.addr = alloca ptr, align 8
  %vs.addr = alloca ptr, align 8
  %backtrack_level.addr = alloca i32, align 4
  %r = alloca i32, align 4
  %_vs = alloca %class.obj_hashtable.306, align 8
  %__range1 = alloca ptr, align 8
  %__begin1 = alloca ptr, align 8
  %exn.slot = alloca ptr, align 8
  %ehselector.slot = alloca i32, align 4
  %__end1 = alloca ptr, align 8
  %v = alloca ptr, align 8
  %vars = alloca %class.svector.6, align 8
  %__range129 = alloca ptr, align 8
  %__begin130 = alloca ptr, align 8
  %__end134 = alloca ptr, align 8
  %kv = alloca ptr, align 8
  %lits = alloca %class.svector.28, align 8
  %result = alloca i32, align 4
  %fmls = alloca %class.ref_vector, align 8
  %lit2expr = alloca %class.ref_vector, align 8
  %__range168 = alloca ptr, align 8
  %__begin169 = alloca ptr, align 8
  %__end171 = alloca ptr, align 8
  %l = alloca %"class.sat::literal", align 4
  %e = alloca ptr, align 8
  %__range186 = alloca ptr, align 8
  %__begin187 = alloca ptr, align 8
  %__end189 = alloca ptr, align 8
  %v94 = alloca i32, align 4
  %x = alloca ptr, align 8
  %ref.tmp = alloca %"class.ref_vector<expr, ast_manager>::element_ref", align 8
  %ref.tmp95 = alloca %"class.sat::literal", align 4
  %cleanup.dest.slot = alloca i32, align 4
  store ptr %agg.result, ptr %result.ptr, align 8
  store ptr %this, ptr %this.addr, align 8
  store ptr %vs, ptr %vs.addr, align 8
  store i32 %backtrack_level, ptr %backtrack_level.addr, align 4
  %this1 = load ptr, ptr %this.addr, align 8
  %call = call noundef zeroext i1 @_ZNK14inc_sat_solver15is_internalizedEv(ptr noundef nonnull align 8 dereferenceable(5008) %this1)
  br i1 %call, label %if.end19, label %if.then

if.then:                                          ; preds = %entry
  %call2 = call noundef i32 @_ZN14inc_sat_solver20internalize_formulasEv(ptr noundef nonnull align 8 dereferenceable(5008) %this1)
  store i32 %call2, ptr %r, align 4
  %0 = load i32, ptr %r, align 4
  %cmp = icmp ne i32 %0, 1
  br i1 %cmp, label %if.then3, label %if.end18

if.then3:                                         ; preds = %if.then
  %call4 = call noundef i32 @_Z19get_verbosity_levelv()
  %cmp5 = icmp uge i32 %call4, 0
  br i1 %cmp5, label %if.then6, label %if.end17

if.then6:                                         ; preds = %if.then3
  %call7 = call noundef zeroext i1 @_Z11is_threadedv()
  br i1 %call7, label %if.then8, label %if.else

if.then8:                                         ; preds = %if.then6
  call void @_Z12verbose_lockv()
  %call9 = call noundef nonnull align 8 dereferenceable(8) ptr @_Z14verbose_streamv()
  %call10 = call noundef nonnull align 8 dereferenceable(8) ptr @_ZStlsISt11char_traitsIcEERSt13basic_ostreamIcT_ES5_PKc(ptr noundef nonnull align 8 dereferenceable(8) %call9, ptr noundef @.str.43)
  %1 = load i32, ptr %r, align 4
  %call11 = call noundef nonnull align 8 dereferenceable(8) ptr @_ZlsRSo5lbool(ptr noundef nonnull align 8 dereferenceable(8) %call10, i32 noundef %1)
  %call12 = call noundef nonnull align 8 dereferenceable(8) ptr @_ZStlsISt11char_traitsIcEERSt13basic_ostreamIcT_ES5_PKc(ptr noundef nonnull align 8 dereferenceable(8) %call11, ptr noundef @.str.26)
  call void @_Z14verbose_unlockv()
  br label %if.end

if.else:                                          ; preds = %if.then6
  %call13 = call noundef nonnull align 8 dereferenceable(8) ptr @_Z14verbose_streamv()
  %call14 = call noundef nonnull align 8 dereferenceable(8) ptr @_ZStlsISt11char_traitsIcEERSt13basic_ostreamIcT_ES5_PKc(ptr noundef nonnull align 8 dereferenceable(8) %call13, ptr noundef @.str.43)
  %2 = load i32, ptr %r, align 4
  %call15 = call noundef nonnull align 8 dereferenceable(8) ptr @_ZlsRSo5lbool(ptr noundef nonnull align 8 dereferenceable(8) %call14, i32 noundef %2)
  %call16 = call noundef nonnull align 8 dereferenceable(8) ptr @_ZStlsISt11char_traitsIcEERSt13basic_ostreamIcT_ES5_PKc(ptr noundef nonnull align 8 dereferenceable(8) %call15, ptr noundef @.str.26)
  br label %if.end

if.end:                                           ; preds = %if.else, %if.then8
  br label %if.end17

if.end17:                                         ; preds = %if.end, %if.then3
  %m = getelementptr inbounds %class.check_sat_result, ptr %this1, i32 0, i32 1
  %3 = load ptr, ptr %m, align 8
  call void @_ZN10ref_vectorI4expr11ast_managerEC2ERS1_(ptr noundef nonnull align 8 dereferenceable(16) %agg.result, ptr noundef nonnull align 8 dereferenceable(976) %3)
  br label %return

if.end18:                                         ; preds = %if.then
  br label %if.end19

if.end19:                                         ; preds = %if.end18, %entry
  call void @_ZN14inc_sat_solver20convert_internalizedEv(ptr noundef nonnull align 8 dereferenceable(5008) %this1)
  %m_solver = getelementptr inbounds %class.inc_sat_solver, ptr %this1, i32 0, i32 1
  %call20 = call noundef zeroext i1 @_ZNK3sat6solver12inconsistentEv(ptr noundef nonnull align 8 dereferenceable(4408) %m_solver)
  br i1 %call20, label %if.then21, label %if.end22

if.then21:                                        ; preds = %if.end19
  call void @_ZN14inc_sat_solver9last_cubeEb(ptr sret(%class.ref_vector) align 8 %agg.result, ptr noundef nonnull align 8 dereferenceable(5008) %this1, i1 noundef zeroext false)
  br label %return

if.end22:                                         ; preds = %if.end19
  call void @_ZN13obj_hashtableI4exprEC2Ej(ptr noundef nonnull align 8 dereferenceable(20) %_vs, i32 noundef 8)
  %4 = load ptr, ptr %vs.addr, align 8
  store ptr %4, ptr %__range1, align 8
  %5 = load ptr, ptr %__range1, align 8
  %call23 = invoke noundef ptr @_ZNK15ref_vector_coreI4expr19ref_manager_wrapperIS0_11ast_managerEE5beginEv(ptr noundef nonnull align 8 dereferenceable(16) %5)
          to label %invoke.cont unwind label %lpad

invoke.cont:                                      ; preds = %if.end22
  store ptr %call23, ptr %__begin1, align 8
  %6 = load ptr, ptr %__range1, align 8
  %call25 = invoke noundef ptr @_ZNK15ref_vector_coreI4expr19ref_manager_wrapperIS0_11ast_managerEE3endEv(ptr noundef nonnull align 8 dereferenceable(16) %6)
          to label %invoke.cont24 unwind label %lpad

invoke.cont24:                                    ; preds = %invoke.cont
  store ptr %call25, ptr %__end1, align 8
  br label %for.cond

for.cond:                                         ; preds = %for.inc, %invoke.cont24
  %7 = load ptr, ptr %__begin1, align 8
  %8 = load ptr, ptr %__end1, align 8
  %cmp26 = icmp ne ptr %7, %8
  br i1 %cmp26, label %for.body, label %for.end

for.body:                                         ; preds = %for.cond
  %9 = load ptr, ptr %__begin1, align 8
  %10 = load ptr, ptr %9, align 8
  store ptr %10, ptr %v, align 8
  invoke void @_ZN14core_hashtableI14obj_hash_entryI4exprE12obj_ptr_hashIS1_E6ptr_eqIS1_EE6insertERKPS1_(ptr noundef nonnull align 8 dereferenceable(20) %_vs, ptr noundef nonnull align 8 dereferenceable(8) %v)
          to label %invoke.cont27 unwind label %lpad

invoke.cont27:                                    ; preds = %for.body
  br label %for.inc

for.inc:                                          ; preds = %invoke.cont27
  %11 = load ptr, ptr %__begin1, align 8
  %incdec.ptr = getelementptr inbounds ptr, ptr %11, i32 1
  store ptr %incdec.ptr, ptr %__begin1, align 8
  br label %for.cond

lpad:                                             ; preds = %for.end, %for.body, %invoke.cont, %if.end22
  %12 = landingpad { ptr, i32 }
          cleanup
  %13 = extractvalue { ptr, i32 } %12, 0
  store ptr %13, ptr %exn.slot, align 8
  %14 = extractvalue { ptr, i32 } %12, 1
  store i32 %14, ptr %ehselector.slot, align 4
  br label %ehcleanup126

for.end:                                          ; preds = %for.cond
  invoke void @_ZN7svectorIjjEC2Ev(ptr noundef nonnull align 8 dereferenceable(8) %vars)
          to label %invoke.cont28 unwind label %lpad

invoke.cont28:                                    ; preds = %for.end
  %m_map = getelementptr inbounds %class.inc_sat_solver, ptr %this1, i32 0, i32 12
  store ptr %m_map, ptr %__range129, align 8
  %15 = load ptr, ptr %__range129, align 8
  %call33 = invoke noundef ptr @_ZNK8expr2var5beginEv(ptr noundef nonnull align 8 dereferenceable(41) %15)
          to label %invoke.cont32 unwind label %lpad31

invoke.cont32:                                    ; preds = %invoke.cont28
  store ptr %call33, ptr %__begin130, align 8
  %16 = load ptr, ptr %__range129, align 8
  %call36 = invoke noundef ptr @_ZNK8expr2var3endEv(ptr noundef nonnull align 8 dereferenceable(41) %16)
          to label %invoke.cont35 unwind label %lpad31

invoke.cont35:                                    ; preds = %invoke.cont32
  store ptr %call36, ptr %__end134, align 8
  br label %for.cond37

for.cond37:                                       ; preds = %for.inc48, %invoke.cont35
  %17 = load ptr, ptr %__begin130, align 8
  %18 = load ptr, ptr %__end134, align 8
  %cmp38 = icmp ne ptr %17, %18
  br i1 %cmp38, label %for.body39, label %for.end50

for.body39:                                       ; preds = %for.cond37
  %19 = load ptr, ptr %__begin130, align 8
  store ptr %19, ptr %kv, align 8
  %call41 = invoke noundef zeroext i1 @_ZNK14core_hashtableI14obj_hash_entryI4exprE12obj_ptr_hashIS1_E6ptr_eqIS1_EE5emptyEv(ptr noundef nonnull align 8 dereferenceable(20) %_vs)
          to label %invoke.cont40 unwind label %lpad31

invoke.cont40:                                    ; preds = %for.body39
  br i1 %call41, label %if.then44, label %lor.lhs.false

lor.lhs.false:                                    ; preds = %invoke.cont40
  %20 = load ptr, ptr %kv, align 8
  %m_key = getelementptr inbounds %"struct.obj_map<expr, unsigned int>::key_data", ptr %20, i32 0, i32 0
  %call43 = invoke noundef zeroext i1 @_ZNK14core_hashtableI14obj_hash_entryI4exprE12obj_ptr_hashIS1_E6ptr_eqIS1_EE8containsERKPS1_(ptr noundef nonnull align 8 dereferenceable(20) %_vs, ptr noundef nonnull align 8 dereferenceable(8) %m_key)
          to label %invoke.cont42 unwind label %lpad31

invoke.cont42:                                    ; preds = %lor.lhs.false
  br i1 %call43, label %if.then44, label %if.end47

if.then44:                                        ; preds = %invoke.cont42, %invoke.cont40
  %21 = load ptr, ptr %kv, align 8
  %m_value = getelementptr inbounds %"struct.obj_map<expr, unsigned int>::key_data", ptr %21, i32 0, i32 1
  %call46 = invoke noundef nonnull align 8 dereferenceable(8) ptr @_ZN6vectorIjLb0EjE9push_backERKj(ptr noundef nonnull align 8 dereferenceable(8) %vars, ptr noundef nonnull align 4 dereferenceable(4) %m_value)
          to label %invoke.cont45 unwind label %lpad31

invoke.cont45:                                    ; preds = %if.then44
  br label %if.end47

lpad31:                                           ; preds = %for.end50, %if.then44, %lor.lhs.false, %for.body39, %invoke.cont32, %invoke.cont28
  %22 = landingpad { ptr, i32 }
          cleanup
  %23 = extractvalue { ptr, i32 } %22, 0
  store ptr %23, ptr %exn.slot, align 8
  %24 = extractvalue { ptr, i32 } %22, 1
  store i32 %24, ptr %ehselector.slot, align 4
  br label %ehcleanup124

if.end47:                                         ; preds = %invoke.cont45, %invoke.cont42
  br label %for.inc48

for.inc48:                                        ; preds = %if.end47
  %25 = load ptr, ptr %__begin130, align 8
  %incdec.ptr49 = getelementptr inbounds %"struct.obj_map<expr, unsigned int>::key_data", ptr %25, i32 1
  store ptr %incdec.ptr49, ptr %__begin130, align 8
  br label %for.cond37

for.end50:                                        ; preds = %for.cond37
  invoke void @_ZN7svectorIN3sat7literalEjEC2Ev(ptr noundef nonnull align 8 dereferenceable(8) %lits)
          to label %invoke.cont51 unwind label %lpad31

invoke.cont51:                                    ; preds = %for.end50
  %m_solver52 = getelementptr inbounds %class.inc_sat_solver, ptr %this1, i32 0, i32 1
  %26 = load i32, ptr %backtrack_level.addr, align 4
  %call55 = invoke noundef i32 @_ZN3sat6solver4cubeER7svectorIjjERS1_INS_7literalEjEj(ptr noundef nonnull align 8 dereferenceable(4408) %m_solver52, ptr noundef nonnull align 8 dereferenceable(8) %vars, ptr noundef nonnull align 8 dereferenceable(8) %lits, i32 noundef %26)
          to label %invoke.cont54 unwind label %lpad53

invoke.cont54:                                    ; preds = %invoke.cont51
  store i32 %call55, ptr %result, align 4
  %m56 = getelementptr inbounds %class.check_sat_result, ptr %this1, i32 0, i32 1
  %27 = load ptr, ptr %m56, align 8
  invoke void @_ZN10ref_vectorI4expr11ast_managerEC2ERS1_(ptr noundef nonnull align 8 dereferenceable(16) %fmls, ptr noundef nonnull align 8 dereferenceable(976) %27)
          to label %invoke.cont57 unwind label %lpad53

invoke.cont57:                                    ; preds = %invoke.cont54
  %m58 = getelementptr inbounds %class.check_sat_result, ptr %this1, i32 0, i32 1
  %28 = load ptr, ptr %m58, align 8
  invoke void @_ZN10ref_vectorI4expr11ast_managerEC2ERS1_(ptr noundef nonnull align 8 dereferenceable(16) %lit2expr, ptr noundef nonnull align 8 dereferenceable(976) %28)
          to label %invoke.cont60 unwind label %lpad59

invoke.cont60:                                    ; preds = %invoke.cont57
  %m_solver61 = getelementptr inbounds %class.inc_sat_solver, ptr %this1, i32 0, i32 1
  %call64 = invoke noundef i32 @_ZNK3sat6solver8num_varsEv(ptr noundef nonnull align 8 dereferenceable(4408) %m_solver61)
          to label %invoke.cont63 unwind label %lpad62

invoke.cont63:                                    ; preds = %invoke.cont60
  %mul = mul i32 %call64, 2
  invoke void @_ZN15ref_vector_coreI4expr19ref_manager_wrapperIS0_11ast_managerEE6resizeEj(ptr noundef nonnull align 8 dereferenceable(16) %lit2expr, i32 noundef %mul)
          to label %invoke.cont65 unwind label %lpad62

invoke.cont65:                                    ; preds = %invoke.cont63
  %m_map66 = getelementptr inbounds %class.inc_sat_solver, ptr %this1, i32 0, i32 12
  invoke void @_ZNK13atom2bool_var6mk_invER10ref_vectorI4expr11ast_managerE(ptr noundef nonnull align 8 dereferenceable(41) %m_map66, ptr noundef nonnull align 8 dereferenceable(16) %lit2expr)
          to label %invoke.cont67 unwind label %lpad62

invoke.cont67:                                    ; preds = %invoke.cont65
  store ptr %lits, ptr %__range168, align 8
  %29 = load ptr, ptr %__range168, align 8
  %call70 = call noundef ptr @_ZN6vectorIN3sat7literalELb0EjE5beginEv(ptr noundef nonnull align 8 dereferenceable(8) %29)
  store ptr %call70, ptr %__begin169, align 8
  %30 = load ptr, ptr %__range168, align 8
  %call73 = invoke noundef ptr @_ZN6vectorIN3sat7literalELb0EjE3endEv(ptr noundef nonnull align 8 dereferenceable(8) %30)
          to label %invoke.cont72 unwind label %lpad62

invoke.cont72:                                    ; preds = %invoke.cont67
  store ptr %call73, ptr %__end171, align 8
  br label %for.cond74

for.cond74:                                       ; preds = %for.inc82, %invoke.cont72
  %31 = load ptr, ptr %__begin169, align 8
  %32 = load ptr, ptr %__end171, align 8
  %cmp75 = icmp ne ptr %31, %32
  br i1 %cmp75, label %for.body76, label %for.end84

for.body76:                                       ; preds = %for.cond74
  %33 = load ptr, ptr %__begin169, align 8
  call void @llvm.memcpy.p0.p0.i64(ptr align 4 %l, ptr align 4 %33, i64 4, i1 false)
  %call77 = call noundef i32 @_ZNK3sat7literal5indexEv(ptr noundef nonnull align 4 dereferenceable(4) %l)
  %call79 = invoke noundef ptr @_ZNK15ref_vector_coreI4expr19ref_manager_wrapperIS0_11ast_managerEE3getEj(ptr noundef nonnull align 8 dereferenceable(16) %lit2expr, i32 noundef %call77)
          to label %invoke.cont78 unwind label %lpad62

invoke.cont78:                                    ; preds = %for.body76
  store ptr %call79, ptr %e, align 8
  %34 = load ptr, ptr %e, align 8
  %call81 = invoke noundef nonnull align 8 dereferenceable(16) ptr @_ZN15ref_vector_coreI4expr19ref_manager_wrapperIS0_11ast_managerEE9push_backEPS0_(ptr noundef nonnull align 8 dereferenceable(16) %fmls, ptr noundef %34)
          to label %invoke.cont80 unwind label %lpad62

invoke.cont80:                                    ; preds = %invoke.cont78
  br label %for.inc82

for.inc82:                                        ; preds = %invoke.cont80
  %35 = load ptr, ptr %__begin169, align 8
  %incdec.ptr83 = getelementptr inbounds %"class.sat::literal", ptr %35, i32 1
  store ptr %incdec.ptr83, ptr %__begin169, align 8
  br label %for.cond74

lpad53:                                           ; preds = %invoke.cont54, %invoke.cont51
  %36 = landingpad { ptr, i32 }
          cleanup
  %37 = extractvalue { ptr, i32 } %36, 0
  store ptr %37, ptr %exn.slot, align 8
  %38 = extractvalue { ptr, i32 } %36, 1
  store i32 %38, ptr %ehselector.slot, align 4
  br label %ehcleanup122

lpad59:                                           ; preds = %invoke.cont57
  %39 = landingpad { ptr, i32 }
          cleanup
  %40 = extractvalue { ptr, i32 } %39, 0
  store ptr %40, ptr %exn.slot, align 8
  %41 = extractvalue { ptr, i32 } %39, 1
  store i32 %41, ptr %ehselector.slot, align 4
  br label %ehcleanup

lpad62:                                           ; preds = %invoke.cont116, %if.then114, %sw.epilog, %sw.bb110, %sw.bb, %if.then102, %invoke.cont98, %invoke.cont96, %for.body93, %for.end84, %invoke.cont78, %for.body76, %invoke.cont67, %invoke.cont65, %invoke.cont63, %invoke.cont60
  %42 = landingpad { ptr, i32 }
          cleanup
  %43 = extractvalue { ptr, i32 } %42, 0
  store ptr %43, ptr %exn.slot, align 8
  %44 = extractvalue { ptr, i32 } %42, 1
  store i32 %44, ptr %ehselector.slot, align 4
  call void @_ZN10ref_vectorI4expr11ast_managerED2Ev(ptr noundef nonnull align 8 dereferenceable(16) %lit2expr) #3
  br label %ehcleanup

for.end84:                                        ; preds = %for.cond74
  %45 = load ptr, ptr %vs.addr, align 8
  invoke void @_ZN15ref_vector_coreI4expr19ref_manager_wrapperIS0_11ast_managerEE5resetEv(ptr noundef nonnull align 8 dereferenceable(16) %45)
          to label %invoke.cont85 unwind label %lpad62

invoke.cont85:                                    ; preds = %for.end84
  store ptr %vars, ptr %__range186, align 8
  %46 = load ptr, ptr %__range186, align 8
  %call88 = call noundef ptr @_ZN6vectorIjLb0EjE5beginEv(ptr noundef nonnull align 8 dereferenceable(8) %46)
  store ptr %call88, ptr %__begin187, align 8
  %47 = load ptr, ptr %__range186, align 8
  %call90 = call noundef ptr @_ZN6vectorIjLb0EjE3endEv(ptr noundef nonnull align 8 dereferenceable(8) %47)
  store ptr %call90, ptr %__end189, align 8
  br label %for.cond91

for.cond91:                                       ; preds = %for.inc106, %invoke.cont85
  %48 = load ptr, ptr %__begin187, align 8
  %49 = load ptr, ptr %__end189, align 8
  %cmp92 = icmp ne ptr %48, %49
  br i1 %cmp92, label %for.body93, label %for.end108

for.body93:                                       ; preds = %for.cond91
  %50 = load ptr, ptr %__begin187, align 8
  %51 = load i32, ptr %50, align 4
  store i32 %51, ptr %v94, align 4
  %52 = load i32, ptr %v94, align 4
  invoke void @_ZN3sat7literalC2Ejb(ptr noundef nonnull align 4 dereferenceable(4) %ref.tmp95, i32 noundef %52, i1 noundef zeroext false)
          to label %invoke.cont96 unwind label %lpad62

invoke.cont96:                                    ; preds = %for.body93
  %call97 = call noundef i32 @_ZNK3sat7literal5indexEv(ptr noundef nonnull align 4 dereferenceable(4) %ref.tmp95)
  %call99 = invoke { ptr, ptr } @_ZN10ref_vectorI4expr11ast_managerEixEj(ptr noundef nonnull align 8 dereferenceable(16) %lit2expr, i32 noundef %call97)
          to label %invoke.cont98 unwind label %lpad62

invoke.cont98:                                    ; preds = %invoke.cont96
  %53 = getelementptr inbounds { ptr, ptr }, ptr %ref.tmp, i32 0, i32 0
  %54 = extractvalue { ptr, ptr } %call99, 0
  store ptr %54, ptr %53, align 8
  %55 = getelementptr inbounds { ptr, ptr }, ptr %ref.tmp, i32 0, i32 1
  %56 = extractvalue { ptr, ptr } %call99, 1
  store ptr %56, ptr %55, align 8
  %call101 = invoke noundef ptr @_ZNK10ref_vectorI4expr11ast_managerE11element_ref3getEv(ptr noundef nonnull align 8 dereferenceable(16) %ref.tmp)
          to label %invoke.cont100 unwind label %lpad62

invoke.cont100:                                   ; preds = %invoke.cont98
  store ptr %call101, ptr %x, align 8
  %57 = load ptr, ptr %x, align 8
  %tobool = icmp ne ptr %57, null
  br i1 %tobool, label %if.then102, label %if.end105

if.then102:                                       ; preds = %invoke.cont100
  %58 = load ptr, ptr %vs.addr, align 8
  %59 = load ptr, ptr %x, align 8
  %call104 = invoke noundef nonnull align 8 dereferenceable(16) ptr @_ZN15ref_vector_coreI4expr19ref_manager_wrapperIS0_11ast_managerEE9push_backEPS0_(ptr noundef nonnull align 8 dereferenceable(16) %58, ptr noundef %59)
          to label %invoke.cont103 unwind label %lpad62

invoke.cont103:                                   ; preds = %if.then102
  br label %if.end105

if.end105:                                        ; preds = %invoke.cont103, %invoke.cont100
  br label %for.inc106

for.inc106:                                       ; preds = %if.end105
  %60 = load ptr, ptr %__begin187, align 8
  %incdec.ptr107 = getelementptr inbounds i32, ptr %60, i32 1
  store ptr %incdec.ptr107, ptr %__begin187, align 8
  br label %for.cond91

for.end108:                                       ; preds = %for.cond91
  %61 = load i32, ptr %result, align 4
  switch i32 %61, label %sw.default [
    i32 1, label %sw.bb
    i32 -1, label %sw.bb110
  ]

sw.bb:                                            ; preds = %for.end108
  invoke void @_ZN14inc_sat_solver9last_cubeEb(ptr sret(%class.ref_vector) align 8 %agg.result, ptr noundef nonnull align 8 dereferenceable(5008) %this1, i1 noundef zeroext true)
          to label %invoke.cont109 unwind label %lpad62

invoke.cont109:                                   ; preds = %sw.bb
  store i32 1, ptr %cleanup.dest.slot, align 4
  br label %cleanup

sw.bb110:                                         ; preds = %for.end108
  invoke void @_ZN14inc_sat_solver9last_cubeEb(ptr sret(%class.ref_vector) align 8 %agg.result, ptr noundef nonnull align 8 dereferenceable(5008) %this1, i1 noundef zeroext false)
          to label %invoke.cont111 unwind label %lpad62

invoke.cont111:                                   ; preds = %sw.bb110
  store i32 1, ptr %cleanup.dest.slot, align 4
  br label %cleanup

sw.default:                                       ; preds = %for.end108
  br label %sw.epilog

sw.epilog:                                        ; preds = %sw.default
  %call113 = invoke noundef zeroext i1 @_ZNK6vectorIN3sat7literalELb0EjE5emptyEv(ptr noundef nonnull align 8 dereferenceable(8) %lits)
          to label %invoke.cont112 unwind label %lpad62

invoke.cont112:                                   ; preds = %sw.epilog
  br i1 %call113, label %if.then114, label %if.end119

if.then114:                                       ; preds = %invoke.cont112
  %m_solver115 = getelementptr inbounds %class.inc_sat_solver, ptr %this1, i32 0, i32 1
  %call117 = invoke noundef ptr @_ZNK3sat6solver18get_reason_unknownEv(ptr noundef nonnull align 8 dereferenceable(4408) %m_solver115)
          to label %invoke.cont116 unwind label %lpad62

invoke.cont116:                                   ; preds = %if.then114
  %vtable = load ptr, ptr %this1, align 8
  %vfn = getelementptr inbounds ptr, ptr %vtable, i64 7
  %62 = load ptr, ptr %vfn, align 8
  invoke void %62(ptr noundef nonnull align 8 dereferenceable(5008) %this1, ptr noundef %call117)
          to label %invoke.cont118 unwind label %lpad62

invoke.cont118:                                   ; preds = %invoke.cont116
  br label %if.end119

if.end119:                                        ; preds = %invoke.cont118, %invoke.cont112
  call void @_ZN10ref_vectorI4expr11ast_managerEC2EOS2_(ptr noundef nonnull align 8 dereferenceable(16) %agg.result, ptr noundef nonnull align 8 dereferenceable(16) %fmls) #3
  store i32 1, ptr %cleanup.dest.slot, align 4
  br label %cleanup

cleanup:                                          ; preds = %if.end119, %invoke.cont111, %invoke.cont109
  call void @_ZN10ref_vectorI4expr11ast_managerED2Ev(ptr noundef nonnull align 8 dereferenceable(16) %lit2expr) #3
  call void @_ZN10ref_vectorI4expr11ast_managerED2Ev(ptr noundef nonnull align 8 dereferenceable(16) %fmls) #3
  call void @_ZN7svectorIN3sat7literalEjED2Ev(ptr noundef nonnull align 8 dereferenceable(8) %lits) #3
  call void @_ZN7svectorIjjED2Ev(ptr noundef nonnull align 8 dereferenceable(8) %vars) #3
  call void @_ZN13obj_hashtableI4exprED2Ev(ptr noundef nonnull align 8 dereferenceable(20) %_vs) #3
  br label %return

ehcleanup:                                        ; preds = %lpad62, %lpad59
  call void @_ZN10ref_vectorI4expr11ast_managerED2Ev(ptr noundef nonnull align 8 dereferenceable(16) %fmls) #3
  br label %ehcleanup122

ehcleanup122:                                     ; preds = %ehcleanup, %lpad53
  call void @_ZN7svectorIN3sat7literalEjED2Ev(ptr noundef nonnull align 8 dereferenceable(8) %lits) #3
  br label %ehcleanup124

ehcleanup124:                                     ; preds = %ehcleanup122, %lpad31
  call void @_ZN7svectorIjjED2Ev(ptr noundef nonnull align 8 dereferenceable(8) %vars) #3
  br label %ehcleanup126

ehcleanup126:                                     ; preds = %ehcleanup124, %lpad
  call void @_ZN13obj_hashtableI4exprED2Ev(ptr noundef nonnull align 8 dereferenceable(20) %_vs) #3
  br label %eh.resume

return:                                           ; preds = %cleanup, %if.then21, %if.end17
  ret void

eh.resume:                                        ; preds = %ehcleanup126
  %exn = load ptr, ptr %exn.slot, align 8
  %sel = load i32, ptr %ehselector.slot, align 4
  %lpad.val = insertvalue { ptr, i32 } poison, ptr %exn, 0
  %lpad.val127 = insertvalue { ptr, i32 } %lpad.val, i32 %sel, 1
  resume { ptr, i32 } %lpad.val127
}

; Function Attrs: mustprogress nounwind uwtable
define linkonce_odr hidden noundef ptr @_ZN14inc_sat_solver15congruence_rootEP4expr(ptr noundef nonnull align 8 dereferenceable(5008) %this, ptr noundef %e) unnamed_addr #4 comdat align 2 {
entry:
  %this.addr = alloca ptr, align 8
  %e.addr = alloca ptr, align 8
  store ptr %this, ptr %this.addr, align 8
  store ptr %e, ptr %e.addr, align 8
  %0 = load ptr, ptr %e.addr, align 8
  ret ptr %0
}

; Function Attrs: mustprogress nounwind uwtable
define linkonce_odr hidden noundef ptr @_ZN14inc_sat_solver15congruence_nextEP4expr(ptr noundef nonnull align 8 dereferenceable(5008) %this, ptr noundef %e) unnamed_addr #4 comdat align 2 {
entry:
  %this.addr = alloca ptr, align 8
  %e.addr = alloca ptr, align 8
  store ptr %this, ptr %this.addr, align 8
  store ptr %e, ptr %e.addr, align 8
  %0 = load ptr, ptr %e.addr, align 8
  ret ptr %0
}

declare noundef nonnull align 8 dereferenceable(8) ptr @_ZNK6solver7displayERSojPKP4expr(ptr noundef nonnull align 8 dereferenceable(96), ptr noundef nonnull align 8 dereferenceable(8), i32 noundef, ptr noundef) unnamed_addr #1

; Function Attrs: mustprogress uwtable
define linkonce_odr hidden void @_ZNK14inc_sat_solver19get_model_converterEv(ptr noalias sret(%class.ref) align 8 %agg.result, ptr noundef nonnull align 8 dereferenceable(5008) %this) unnamed_addr #5 comdat align 2 personality ptr @__gxx_personality_v0 {
entry:
  %result.ptr = alloca ptr, align 8
  %this.addr = alloca ptr, align 8
  %ref.tmp = alloca %class.ref, align 8
  %exn.slot = alloca ptr, align 8
  %ehselector.slot = alloca i32, align 4
  store ptr %agg.result, ptr %result.ptr, align 8
  store ptr %this, ptr %this.addr, align 8
  %this1 = load ptr, ptr %this.addr, align 8
  call void @_ZN14inc_sat_solver20convert_internalizedEv(ptr noundef nonnull align 8 dereferenceable(5008) %this1)
  %m_cached_mc = getelementptr inbounds %class.inc_sat_solver, ptr %this1, i32 0, i32 24
  %call = call noundef zeroext i1 @_ZNK3refI15model_converterEcvbEv(ptr noundef nonnull align 8 dereferenceable(8) %m_cached_mc)
  br i1 %call, label %if.then, label %if.end

if.then:                                          ; preds = %entry
  %m_cached_mc2 = getelementptr inbounds %class.inc_sat_solver, ptr %this1, i32 0, i32 24
  call void @_ZN3refI15model_converterEC2ERKS1_(ptr noundef nonnull align 8 dereferenceable(8) %agg.result, ptr noundef nonnull align 8 dereferenceable(8) %m_cached_mc2)
  br label %return

if.end:                                           ; preds = %entry
  %call3 = call noundef zeroext i1 @_ZNK14inc_sat_solver15is_internalizedEv(ptr noundef nonnull align 8 dereferenceable(5008) %this1)
  br i1 %call3, label %land.lhs.true, label %if.else

land.lhs.true:                                    ; preds = %if.end
  %m_internalized_converted = getelementptr inbounds %class.inc_sat_solver, ptr %this1, i32 0, i32 27
  %0 = load i8, ptr %m_internalized_converted, align 8
  %tobool = trunc i8 %0 to i1
  br i1 %tobool, label %if.then4, label %if.else

if.then4:                                         ; preds = %land.lhs.true
  %m_sat_mc = getelementptr inbounds %class.inc_sat_solver, ptr %this1, i32 0, i32 23
  %call5 = call noundef ptr @_ZNK3refIN8sat2goal2mcEEptEv(ptr noundef nonnull align 8 dereferenceable(8) %m_sat_mc)
  %m_solver = getelementptr inbounds %class.inc_sat_solver, ptr %this1, i32 0, i32 1
  %m_map = getelementptr inbounds %class.inc_sat_solver, ptr %this1, i32 0, i32 12
  call void @_ZN8sat2goal2mc9flush_smcERN3sat6solverERK13atom2bool_var(ptr noundef nonnull align 8 dereferenceable(104) %call5, ptr noundef nonnull align 8 dereferenceable(4408) %m_solver, ptr noundef nonnull align 8 dereferenceable(41) %m_map)
  %m_mcs = getelementptr inbounds %class.inc_sat_solver, ptr %this1, i32 0, i32 20
  %call6 = call noundef ptr @_ZNK15ref_vector_coreI15model_converter21ref_unmanaged_wrapperIS0_EE4backEv(ptr noundef nonnull align 8 dereferenceable(8) %m_mcs)
  %m_cached_mc7 = getelementptr inbounds %class.inc_sat_solver, ptr %this1, i32 0, i32 24
  %call8 = call noundef nonnull align 8 dereferenceable(8) ptr @_ZN3refI15model_converterEaSEPS0_(ptr noundef nonnull align 8 dereferenceable(8) %m_cached_mc7, ptr noundef %call6)
  call void @_ZNK6solver19get_model_converterEv(ptr sret(%class.ref) align 8 %ref.tmp, ptr noundef nonnull align 8 dereferenceable(96) %this1)
  %call9 = call noundef ptr @_ZNK3refI15model_converterE3getEv(ptr noundef nonnull align 8 dereferenceable(8) %ref.tmp)
  %m_cached_mc10 = getelementptr inbounds %class.inc_sat_solver, ptr %this1, i32 0, i32 24
  %call11 = call noundef ptr @_ZNK3refI15model_converterE3getEv(ptr noundef nonnull align 8 dereferenceable(8) %m_cached_mc10)
  %call12 = invoke noundef ptr @_Z6concatP15model_converterS0_(ptr noundef %call9, ptr noundef %call11)
          to label %invoke.cont unwind label %lpad

invoke.cont:                                      ; preds = %if.then4
  %m_cached_mc13 = getelementptr inbounds %class.inc_sat_solver, ptr %this1, i32 0, i32 24
  %call15 = invoke noundef nonnull align 8 dereferenceable(8) ptr @_ZN3refI15model_converterEaSEPS0_(ptr noundef nonnull align 8 dereferenceable(8) %m_cached_mc13, ptr noundef %call12)
          to label %invoke.cont14 unwind label %lpad

invoke.cont14:                                    ; preds = %invoke.cont
  call void @_ZN3refI15model_converterED2Ev(ptr noundef nonnull align 8 dereferenceable(8) %ref.tmp) #3
  %m_cached_mc16 = getelementptr inbounds %class.inc_sat_solver, ptr %this1, i32 0, i32 24
  %call17 = call noundef ptr @_ZNK3refI15model_converterE3getEv(ptr noundef nonnull align 8 dereferenceable(8) %m_cached_mc16)
  %m_sat_mc18 = getelementptr inbounds %class.inc_sat_solver, ptr %this1, i32 0, i32 23
  %call19 = call noundef ptr @_ZNK3refIN8sat2goal2mcEE3getEv(ptr noundef nonnull align 8 dereferenceable(8) %m_sat_mc18)
  %call20 = call noundef ptr @_Z6concatP15model_converterS0_(ptr noundef %call17, ptr noundef %call19)
  %m_cached_mc21 = getelementptr inbounds %class.inc_sat_solver, ptr %this1, i32 0, i32 24
  %call22 = call noundef nonnull align 8 dereferenceable(8) ptr @_ZN3refI15model_converterEaSEPS0_(ptr noundef nonnull align 8 dereferenceable(8) %m_cached_mc21, ptr noundef %call20)
  %m_cached_mc23 = getelementptr inbounds %class.inc_sat_solver, ptr %this1, i32 0, i32 24
  call void @_ZN3refI15model_converterEC2ERKS1_(ptr noundef nonnull align 8 dereferenceable(8) %agg.result, ptr noundef nonnull align 8 dereferenceable(8) %m_cached_mc23)
  br label %return

lpad:                                             ; preds = %invoke.cont, %if.then4
  %1 = landingpad { ptr, i32 }
          cleanup
  %2 = extractvalue { ptr, i32 } %1, 0
  store ptr %2, ptr %exn.slot, align 8
  %3 = extractvalue { ptr, i32 } %1, 1
  store i32 %3, ptr %ehselector.slot, align 4
  call void @_ZN3refI15model_converterED2Ev(ptr noundef nonnull align 8 dereferenceable(8) %ref.tmp) #3
  br label %eh.resume

if.else:                                          ; preds = %land.lhs.true, %if.end
  call void @_ZNK6solver19get_model_converterEv(ptr sret(%class.ref) align 8 %agg.result, ptr noundef nonnull align 8 dereferenceable(96) %this1)
  br label %return

return:                                           ; preds = %if.else, %invoke.cont14, %if.then
  ret void

eh.resume:                                        ; preds = %lpad
  %exn = load ptr, ptr %exn.slot, align 8
  %sel = load i32, ptr %ehselector.slot, align 4
  %lpad.val = insertvalue { ptr, i32 } poison, ptr %exn, 0
  %lpad.val24 = insertvalue { ptr, i32 } %lpad.val, i32 %sel, 1
  resume { ptr, i32 } %lpad.val24
}

; Function Attrs: mustprogress nounwind uwtable
define linkonce_odr hidden void @_ZN6solver14get_units_coreER10ref_vectorI4expr11ast_managerE(ptr noundef nonnull align 8 dereferenceable(96) %this, ptr noundef nonnull align 8 dereferenceable(16) %units) unnamed_addr #4 comdat align 2 {
entry:
  %this.addr = alloca ptr, align 8
  %units.addr = alloca ptr, align 8
  store ptr %this, ptr %this.addr, align 8
  store ptr %units, ptr %units.addr, align 8
  ret void
}

; Function Attrs: mustprogress uwtable
define linkonce_odr hidden void @_ZN14inc_sat_solver9get_trailEj(ptr noalias sret(%class.ref_vector) align 8 %agg.result, ptr noundef nonnull align 8 dereferenceable(5008) %this, i32 noundef %max_level) unnamed_addr #5 comdat align 2 personality ptr @__gxx_personality_v0 {
entry:
  %result.ptr = alloca ptr, align 8
  %this.addr = alloca ptr, align 8
  %max_level.addr = alloca i32, align 4
  %nrvo = alloca i1, align 1
  %sz = alloca i32, align 4
  %exn.slot = alloca ptr, align 8
  %ehselector.slot = alloca i32, align 4
  %lit2expr = alloca %class.ref_vector, align 8
  %i = alloca i32, align 4
  %lit = alloca %"class.sat::literal", align 4
  %agg.tmp = alloca %"class.sat::literal", align 4
  %e = alloca %class.obj_ref.126, align 8
  store ptr %agg.result, ptr %result.ptr, align 8
  store ptr %this, ptr %this.addr, align 8
  store i32 %max_level, ptr %max_level.addr, align 4
  %this1 = load ptr, ptr %this.addr, align 8
  store i1 false, ptr %nrvo, align 1
  %m = getelementptr inbounds %class.check_sat_result, ptr %this1, i32 0, i32 1
  %0 = load ptr, ptr %m, align 8
  call void @_ZN10ref_vectorI4expr11ast_managerEC2ERS1_(ptr noundef nonnull align 8 dereferenceable(16) %agg.result, ptr noundef nonnull align 8 dereferenceable(976) %0)
  %m_solver = getelementptr inbounds %class.inc_sat_solver, ptr %this1, i32 0, i32 1
  %call = invoke noundef i32 @_ZNK3sat6solver10trail_sizeEv(ptr noundef nonnull align 8 dereferenceable(4408) %m_solver)
          to label %invoke.cont unwind label %lpad

invoke.cont:                                      ; preds = %entry
  store i32 %call, ptr %sz, align 4
  %m2 = getelementptr inbounds %class.check_sat_result, ptr %this1, i32 0, i32 1
  %1 = load ptr, ptr %m2, align 8
  invoke void @_ZN10ref_vectorI4expr11ast_managerEC2ERS1_(ptr noundef nonnull align 8 dereferenceable(16) %lit2expr, ptr noundef nonnull align 8 dereferenceable(976) %1)
          to label %invoke.cont3 unwind label %lpad

invoke.cont3:                                     ; preds = %invoke.cont
  %m_solver4 = getelementptr inbounds %class.inc_sat_solver, ptr %this1, i32 0, i32 1
  %call7 = invoke noundef i32 @_ZNK3sat6solver8num_varsEv(ptr noundef nonnull align 8 dereferenceable(4408) %m_solver4)
          to label %invoke.cont6 unwind label %lpad5

invoke.cont6:                                     ; preds = %invoke.cont3
  %mul = mul i32 %call7, 2
  invoke void @_ZN15ref_vector_coreI4expr19ref_manager_wrapperIS0_11ast_managerEE6resizeEj(ptr noundef nonnull align 8 dereferenceable(16) %lit2expr, i32 noundef %mul)
          to label %invoke.cont8 unwind label %lpad5

invoke.cont8:                                     ; preds = %invoke.cont6
  %m_map = getelementptr inbounds %class.inc_sat_solver, ptr %this1, i32 0, i32 12
  invoke void @_ZNK13atom2bool_var6mk_invER10ref_vectorI4expr11ast_managerE(ptr noundef nonnull align 8 dereferenceable(41) %m_map, ptr noundef nonnull align 8 dereferenceable(16) %lit2expr)
          to label %invoke.cont9 unwind label %lpad5

invoke.cont9:                                     ; preds = %invoke.cont8
  store i32 0, ptr %i, align 4
  br label %for.cond

for.cond:                                         ; preds = %for.inc, %invoke.cont9
  %2 = load i32, ptr %i, align 4
  %3 = load i32, ptr %sz, align 4
  %cmp = icmp ult i32 %2, %3
  br i1 %cmp, label %for.body, label %for.end

for.body:                                         ; preds = %for.cond
  %m_solver10 = getelementptr inbounds %class.inc_sat_solver, ptr %this1, i32 0, i32 1
  %4 = load i32, ptr %i, align 4
  %call12 = invoke i32 @_ZNK3sat6solver13trail_literalEj(ptr noundef nonnull align 8 dereferenceable(4408) %m_solver10, i32 noundef %4)
          to label %invoke.cont11 unwind label %lpad5

invoke.cont11:                                    ; preds = %for.body
  %coerce.dive = getelementptr inbounds %"class.sat::literal", ptr %lit, i32 0, i32 0
  store i32 %call12, ptr %coerce.dive, align 4
  %m_solver13 = getelementptr inbounds %class.inc_sat_solver, ptr %this1, i32 0, i32 1
  call void @llvm.memcpy.p0.p0.i64(ptr align 4 %agg.tmp, ptr align 4 %lit, i64 4, i1 false)
  %coerce.dive14 = getelementptr inbounds %"class.sat::literal", ptr %agg.tmp, i32 0, i32 0
  %5 = load i32, ptr %coerce.dive14, align 4
  %call16 = invoke noundef i32 @_ZNK3sat6solver3lvlENS_7literalE(ptr noundef nonnull align 8 dereferenceable(4408) %m_solver13, i32 %5)
          to label %invoke.cont15 unwind label %lpad5

invoke.cont15:                                    ; preds = %invoke.cont11
  %6 = load i32, ptr %max_level.addr, align 4
  %cmp17 = icmp ugt i32 %call16, %6
  br i1 %cmp17, label %if.then, label %if.end

if.then:                                          ; preds = %invoke.cont15
  br label %for.inc

lpad:                                             ; preds = %invoke.cont, %entry
  %7 = landingpad { ptr, i32 }
          cleanup
  %8 = extractvalue { ptr, i32 } %7, 0
  store ptr %8, ptr %exn.slot, align 8
  %9 = extractvalue { ptr, i32 } %7, 1
  store i32 %9, ptr %ehselector.slot, align 4
  br label %ehcleanup31

lpad5:                                            ; preds = %invoke.cont19, %if.end, %invoke.cont11, %for.body, %invoke.cont8, %invoke.cont6, %invoke.cont3
  %10 = landingpad { ptr, i32 }
          cleanup
  %11 = extractvalue { ptr, i32 } %10, 0
  store ptr %11, ptr %exn.slot, align 8
  %12 = extractvalue { ptr, i32 } %10, 1
  store i32 %12, ptr %ehselector.slot, align 4
  br label %ehcleanup

if.end:                                           ; preds = %invoke.cont15
  %call18 = call noundef i32 @_ZNK3sat7literal5indexEv(ptr noundef nonnull align 4 dereferenceable(4) %lit)
  %call20 = invoke noundef ptr @_ZNK15ref_vector_coreI4expr19ref_manager_wrapperIS0_11ast_managerEE3getEj(ptr noundef nonnull align 8 dereferenceable(16) %lit2expr, i32 noundef %call18)
          to label %invoke.cont19 unwind label %lpad5

invoke.cont19:                                    ; preds = %if.end
  %m21 = getelementptr inbounds %class.check_sat_result, ptr %this1, i32 0, i32 1
  %13 = load ptr, ptr %m21, align 8
  invoke void @_ZN7obj_refI4expr11ast_managerEC2EPS0_RS1_(ptr noundef nonnull align 8 dereferenceable(16) %e, ptr noundef %call20, ptr noundef nonnull align 8 dereferenceable(976) %13)
          to label %invoke.cont22 unwind label %lpad5

invoke.cont22:                                    ; preds = %invoke.cont19
  %call25 = invoke noundef zeroext i1 @_ZNK7obj_refI4expr11ast_managerEcvbEv(ptr noundef nonnull align 8 dereferenceable(16) %e)
          to label %invoke.cont24 unwind label %lpad23

invoke.cont24:                                    ; preds = %invoke.cont22
  br i1 %call25, label %if.then26, label %if.end30

if.then26:                                        ; preds = %invoke.cont24
  %call27 = call noundef ptr @_ZNK7obj_refI4expr11ast_managerEcvPS0_Ev(ptr noundef nonnull align 8 dereferenceable(16) %e)
  %call29 = invoke noundef nonnull align 8 dereferenceable(16) ptr @_ZN15ref_vector_coreI4expr19ref_manager_wrapperIS0_11ast_managerEE9push_backEPS0_(ptr noundef nonnull align 8 dereferenceable(16) %agg.result, ptr noundef %call27)
          to label %invoke.cont28 unwind label %lpad23

invoke.cont28:                                    ; preds = %if.then26
  br label %if.end30

lpad23:                                           ; preds = %if.then26, %invoke.cont22
  %14 = landingpad { ptr, i32 }
          cleanup
  %15 = extractvalue { ptr, i32 } %14, 0
  store ptr %15, ptr %exn.slot, align 8
  %16 = extractvalue { ptr, i32 } %14, 1
  store i32 %16, ptr %ehselector.slot, align 4
  call void @_ZN7obj_refI4expr11ast_managerED2Ev(ptr noundef nonnull align 8 dereferenceable(16) %e) #3
  br label %ehcleanup

if.end30:                                         ; preds = %invoke.cont28, %invoke.cont24
  call void @_ZN7obj_refI4expr11ast_managerED2Ev(ptr noundef nonnull align 8 dereferenceable(16) %e) #3
  br label %for.inc

for.inc:                                          ; preds = %if.end30, %if.then
  %17 = load i32, ptr %i, align 4
  %inc = add i32 %17, 1
  store i32 %inc, ptr %i, align 4
  br label %for.cond, !llvm.loop !14

for.end:                                          ; preds = %for.cond
  store i1 true, ptr %nrvo, align 1
