target datalayout = "e-m:e-p270:32:32-p271:32:32-p272:64:64-i64:64-i128:128-f80:128-n8:16:32:64-S128"
target triple = "x86_64-unknown-linux-gnu"

%"class.std::ios_base::Init" = type { i8 }
%class.obj_hashtable = type { %class.core_hashtable.base, [4 x i8] }
%class.core_hashtable.base = type <{ ptr, i32, i32, i32 }>
%class.ptr_vector = type { %class.vector }
%class.vector = type { ptr }
%"class.core_hashtable<obj_hash_entry<func_decl>, obj_ptr_hash<func_decl>, ptr_eq<func_decl>>::iterator" = type { ptr, ptr }
%struct.obj_ptr_hash = type { i8 }
%struct.ptr_eq = type { i8 }
%class.model_core = type { ptr, ptr, i32, [4 x i8], %class.obj_map, %class.obj_map.2, %class.ptr_vector, %class.ptr_vector, %class.ptr_vector }
%class.obj_map = type { %class.core_hashtable.0 }
%class.core_hashtable.0 = type <{ ptr, i32, i32, i32, [4 x i8] }>
%class.obj_map.2 = type { %class.core_hashtable.3 }
%class.core_hashtable.3 = type <{ ptr, i32, i32, i32, [4 x i8] }>
%class.func_interp = type { ptr, i32, %class.ptr_vector.7, ptr, i8, ptr, ptr }
%class.ptr_vector.7 = type { %class.vector.8 }
%class.vector.8 = type { ptr }
%class.core_hashtable = type <{ ptr, i32, i32, i32, [4 x i8] }>
%class.obj_hash_entry = type { ptr }
%class.func_decl = type { %class.decl, i32, ptr, [0 x ptr] }
%class.decl = type { %class.ast, %class.symbol, ptr }
%class.ast = type { i32, i24, i32, i32 }
%class.symbol = type { ptr }
%class.buffer = type { ptr, i32, i32, [16 x %"union.std::aligned_storage<8, 8>::type"] }
%"union.std::aligned_storage<8, 8>::type" = type { [8 x i8] }
%class.ptr_buffer.43 = type { %class.buffer.44 }
%class.buffer.44 = type { ptr, i32, i32, [16 x %"union.std::aligned_storage<8, 8>::type"] }
%"class.std::__cxx11::basic_ostringstream" = type { %"class.std::basic_ostream.base", %"class.std::__cxx11::basic_stringbuf", %"class.std::basic_ios" }
%"class.std::basic_ostream.base" = type { ptr }
%"class.std::__cxx11::basic_stringbuf" = type { %"class.std::basic_streambuf", i32, %"class.std::__cxx11::basic_string" }
%"class.std::basic_streambuf" = type { ptr, ptr, ptr, ptr, ptr, ptr, ptr, %"class.std::locale" }
%"class.std::locale" = type { ptr }
%"class.std::__cxx11::basic_string" = type { %"struct.std::__cxx11::basic_string<char>::_Alloc_hider", i64, %union.anon }
%"struct.std::__cxx11::basic_string<char>::_Alloc_hider" = type { ptr }
%union.anon = type { i64, [8 x i8] }
%"class.std::basic_ios" = type { %"class.std::ios_base", ptr, i8, i8, ptr, ptr, ptr, ptr }
%"class.std::ios_base" = type { ptr, i64, i64, i32, i32, i32, ptr, %"struct.std::ios_base::_Words", [8 x %"struct.std::ios_base::_Words"], i32, ptr, %"class.std::locale" }
%"struct.std::ios_base::_Words" = type { ptr, i64 }
%class.obj_ref = type { ptr, ptr }
%class.params_ref = type { ptr }
%"class.recfun::util" = type { ptr, i32, ptr }
%class.sbuffer = type { %class.buffer.48 }
%class.buffer.48 = type { ptr, i32, i32, [16 x %"union.std::aligned_storage<8, 8>::type"] }
%class.ptr_buffer = type { %class.buffer }
%"class.std::__cxx11::basic_stringstream" = type { %"class.std::basic_iostream.base", %"class.std::__cxx11::basic_stringbuf", %"class.std::basic_ios" }
%"class.std::basic_iostream.base" = type { %"class.std::basic_istream.base", %"class.std::basic_ostream.base" }
%"class.std::basic_istream.base" = type { ptr, i64 }
%class.scoped_ptr = type { ptr }
%"struct.obj_map<func_decl, func_interp *>::key_data" = type { ptr, ptr }
%"class.obj_map<func_decl, func_interp *>::obj_map_entry" = type { %"struct.obj_map<func_decl, func_interp *>::key_data" }
%"struct.obj_map<func_decl, std::pair<unsigned int, expr *>>::key_data" = type { ptr, %"struct.std::pair" }
%"struct.std::pair" = type { i32, ptr }
%"class.obj_map<func_decl, std::pair<unsigned int, expr *>>::obj_map_entry" = type { %"struct.obj_map<func_decl, std::pair<unsigned int, expr *>>::key_data" }
%class.vector.46 = type { ptr }
%class.app = type { %class.expr, ptr, i32, [0 x ptr] }
%class.expr = type { %class.ast }
%"struct.format_ns::f2f" = type { i8 }
%class.ref_buffer = type { %class.ref_buffer_core }
%class.ref_buffer_core = type { %class.ref_manager_wrapper, %class.ptr_buffer.43 }
%class.ref_manager_wrapper = type { ptr }
%class.decl_info = type <{ i32, i32, %class.vector.47, i8, [7 x i8] }>
%class.vector.47 = type { ptr }
%class.ast_manager = type { %class.reslimit, %class.small_object_allocator, %class.family_manager, %class.parray_manager, %class.dependency_manager, %class.parray_manager.23, %class.ptr_vector.26, i32, i8, %class.ast_table, %class.obj_map.29, %class.id_gen, %class.id_gen, ptr, ptr, ptr, ptr, ptr, i32, i8, [3 x i8], %class.u_map, ptr, i8, i8, ptr, %class.symbol, %class.obj_map.38, ptr }
%class.reslimit = type { %"struct.std::atomic", i8, i64, i64, %class.svector, %class.ptr_vector.10 }
%"struct.std::atomic" = type { %"struct.std::__atomic_base" }
%"struct.std::__atomic_base" = type { i32 }
%class.svector = type { %class.vector.9 }
%class.vector.9 = type { ptr }
%class.ptr_vector.10 = type { %class.vector.11 }
%class.vector.11 = type { ptr }
%class.small_object_allocator = type { [32 x ptr], [32 x ptr], i64 }
%class.family_manager = type { i32, %class.symbol_table, %class.svector.17 }
%class.symbol_table = type { %class.core_hashtable.12, %class.vector.14, %class.svector.15 }
%class.core_hashtable.12 = type <{ ptr, i32, i32, i32, [4 x i8] }>
%class.vector.14 = type { ptr }
%class.svector.15 = type { %class.vector.16 }
%class.vector.16 = type { ptr }
%class.svector.17 = type { %class.vector.18 }
%class.vector.18 = type { ptr }
%class.parray_manager = type { ptr, ptr, %class.ptr_vector.19, %class.ptr_vector.19 }
%class.ptr_vector.19 = type { %class.vector.20 }
%class.vector.20 = type { ptr }
%class.dependency_manager = type { ptr, ptr, %class.ptr_vector.21 }
%class.ptr_vector.21 = type { %class.vector.22 }
%class.vector.22 = type { ptr }
%class.parray_manager.23 = type { ptr, ptr, %class.ptr_vector.24, %class.ptr_vector.24 }
%class.ptr_vector.24 = type { %class.vector.25 }
%class.vector.25 = type { ptr }
%class.ptr_vector.26 = type { %class.vector.27 }
%class.vector.27 = type { ptr }
%class.ast_table = type { %class.chashtable }
%class.chashtable = type { ptr, i32, i32, i32, i32, i32, i32, i32, ptr, ptr, ptr }
%class.obj_map.29 = type { %class.core_hashtable.30 }
%class.core_hashtable.30 = type <{ ptr, i32, i32, i32, [4 x i8] }>
%class.id_gen = type { i32, %class.svector.34 }
%class.svector.34 = type { %class.vector.35 }
%class.vector.35 = type { ptr }
%class.u_map = type { %class.map }
%class.map = type { %class.table2map }
%class.table2map = type { %class.core_hashtable.36 }
%class.core_hashtable.36 = type <{ ptr, i32, i32, i32, [4 x i8] }>
%class.obj_map.38 = type { %class.core_hashtable.39 }
%class.core_hashtable.39 = type <{ ptr, i32, i32, i32, [4 x i8] }>
%class.func_entry = type { i8, ptr, [0 x ptr] }
%class.parameter = type { %"class.std::variant" }
%"class.std::variant" = type { %"struct.std::__detail::__variant::_Variant_base.base", [7 x i8] }
%"struct.std::__detail::__variant::_Variant_base.base" = type { %"struct.std::__detail::__variant::_Move_assign_base.base" }
%"struct.std::__detail::__variant::_Move_assign_base.base" = type { %"struct.std::__detail::__variant::_Copy_assign_base.base" }
%"struct.std::__detail::__variant::_Copy_assign_base.base" = type { %"struct.std::__detail::__variant::_Move_ctor_base.base" }
%"struct.std::__detail::__variant::_Move_ctor_base.base" = type { %"struct.std::__detail::__variant::_Copy_ctor_base.base" }
%"struct.std::__detail::__variant::_Copy_ctor_base.base" = type { %"struct.std::__detail::__variant::_Variant_storage.base" }
%"struct.std::__detail::__variant::_Variant_storage.base" = type <{ %"union.std::__detail::__variant::_Variadic_union", i8 }>
%"union.std::__detail::__variant::_Variadic_union" = type { %"union.std::__detail::__variant::_Variadic_union.49" }
%"union.std::__detail::__variant::_Variadic_union.49" = type { %"struct.std::__detail::__variant::_Uninitialized.50" }
%"struct.std::__detail::__variant::_Uninitialized.50" = type { ptr }
%"struct.std::__detail::__variant::_Variant_storage" = type <{ %"union.std::__detail::__variant::_Variadic_union", i8, [7 x i8] }>
%"class.std::bad_variant_access" = type { %"class.std::exception", ptr }
%"class.std::exception" = type { ptr }
%"struct.std::__detail::__variant::_Uninitialized" = type { i32 }
%"class.std::allocator" = type { i8 }
%class.default_exception = type { %class.z3_exception, %"class.std::__cxx11::basic_string" }
%class.z3_exception = type { ptr }
%struct._Guard = type { ptr }

$_ZN13obj_hashtableI9func_declEC2Ej = comdat any

$_ZN10ptr_vectorI9func_declEC2Ev = comdat any

$_ZNK10model_core17get_num_functionsEv = comdat any

$_ZNK10model_core12get_functionEj = comdat any

$_ZNK14core_hashtableI14obj_hash_entryI9func_declE12obj_ptr_hashIS1_E6ptr_eqIS1_EE8containsERKPS1_ = comdat any

$_ZN14core_hashtableI14obj_hash_entryI9func_declE12obj_ptr_hashIS1_E6ptr_eqIS1_EE6insertERKPS1_ = comdat any

$_ZN6vectorIP9func_declLb0EjE9push_backERKS1_ = comdat any

$_ZNK6vectorIP9func_declLb0EjE5emptyEv = comdat any

$_ZN6vectorIP9func_declLb0EjE4backEv = comdat any

$_ZNK10model_core15get_func_interpEP9func_decl = comdat any

$_ZNK11func_interp10is_partialEv = comdat any

$_ZNK11func_interp8get_elseEv = comdat any

$_ZNK14core_hashtableI14obj_hash_entryI9func_declE12obj_ptr_hashIS1_E6ptr_eqIS1_EE5beginEv = comdat any

$_ZNK14core_hashtableI14obj_hash_entryI9func_declE12obj_ptr_hashIS1_E6ptr_eqIS1_EE3endEv = comdat any

$_ZNK14core_hashtableI14obj_hash_entryI9func_declE12obj_ptr_hashIS1_E6ptr_eqIS1_EE8iteratorneERKS8_ = comdat any

$_ZN14core_hashtableI14obj_hash_entryI9func_declE12obj_ptr_hashIS1_E6ptr_eqIS1_EE8iteratordeEv = comdat any

$_ZNK9func_decl9get_arityEv = comdat any

$_ZNK10model_core18has_interpretationEP9func_decl = comdat any

$_ZN14core_hashtableI14obj_hash_entryI9func_declE12obj_ptr_hashIS1_E6ptr_eqIS1_EE8iteratorppEv = comdat any

$_ZN13obj_hashtableI9func_declED2Ev = comdat any

$_ZN6vectorIP9func_declLb0EjE8pop_backEv = comdat any

$_ZN6bufferIP9func_declLb0ELj16EE9push_backERKS1_ = comdat any

$_ZN10ptr_vectorI9func_declED2Ev = comdat any

$_ZN10scoped_ptrI19ast_printer_contextEC2EPS0_ = comdat any

$_ZN10scoped_ptrI19ast_printer_contextEaSEPS0_ = comdat any

$_ZNK10scoped_ptrI19ast_printer_contextE3getEv = comdat any

$_ZN10scoped_ptrI19ast_printer_contextED2Ev = comdat any

$_ZNK10model_core11get_managerEv = comdat any

$_ZNK6vectorIP9func_declLb0EjE4sizeEv = comdat any

$_ZNK6vectorIP9func_declLb0EjEixEj = comdat any

$_ZNK7obj_mapI9func_declP11func_interpE4findEPS0_RS2_ = comdat any

$_ZNK7obj_mapI9func_declP11func_interpE9find_coreEPS0_ = comdat any

$_ZN7obj_mapI9func_declP11func_interpE13obj_map_entry8get_dataEv = comdat any

$_ZNK14core_hashtableIN7obj_mapI9func_declP11func_interpE13obj_map_entryE8obj_hashINS4_8key_dataEE10default_eqIS7_EE9find_coreERKS7_ = comdat any

$_ZN7obj_mapI9func_declP11func_interpE8key_dataC2EPS0_ = comdat any

$_ZNK14core_hashtableIN7obj_mapI9func_declP11func_interpE13obj_map_entryE8obj_hashINS4_8key_dataEE10default_eqIS7_EE8get_hashERKS7_ = comdat any

$_ZNK7obj_mapI9func_declP11func_interpE13obj_map_entry7is_usedEv = comdat any

$_ZNK7obj_mapI9func_declP11func_interpE13obj_map_entry8get_hashEv = comdat any

$_ZNK14core_hashtableIN7obj_mapI9func_declP11func_interpE13obj_map_entryE8obj_hashINS4_8key_dataEE10default_eqIS7_EE6equalsERKS7_SD_ = comdat any

$_ZNK7obj_mapI9func_declP11func_interpE13obj_map_entry7is_freeEv = comdat any

$_ZNK8obj_hashIN7obj_mapI9func_declP11func_interpE8key_dataEEclERKS5_ = comdat any

$_ZNK7obj_mapI9func_declP11func_interpE8key_data4hashEv = comdat any

$_ZNK3ast4hashEv = comdat any

$_ZNK10default_eqIN7obj_mapI9func_declP11func_interpE8key_dataEEclERKS5_S8_ = comdat any

$_ZNK7obj_mapI9func_declP11func_interpE8key_dataeqERKS4_ = comdat any

$_ZNK7obj_mapI9func_declSt4pairIjP4exprEE8containsEPS0_ = comdat any

$_ZNK7obj_mapI9func_declP11func_interpE8containsEPS0_ = comdat any

$_ZNK7obj_mapI9func_declSt4pairIjP4exprEE9find_coreEPS0_ = comdat any

$_ZNK14core_hashtableIN7obj_mapI9func_declSt4pairIjP4exprEE13obj_map_entryE8obj_hashINS6_8key_dataEE10default_eqIS9_EE9find_coreERKS9_ = comdat any

$_ZN7obj_mapI9func_declSt4pairIjP4exprEE8key_dataC2EPS0_ = comdat any

$_ZNK14core_hashtableIN7obj_mapI9func_declSt4pairIjP4exprEE13obj_map_entryE8obj_hashINS6_8key_dataEE10default_eqIS9_EE8get_hashERKS9_ = comdat any

$_ZNK7obj_mapI9func_declSt4pairIjP4exprEE13obj_map_entry7is_usedEv = comdat any

$_ZNK7obj_mapI9func_declSt4pairIjP4exprEE13obj_map_entry8get_hashEv = comdat any

$_ZNK14core_hashtableIN7obj_mapI9func_declSt4pairIjP4exprEE13obj_map_entryE8obj_hashINS6_8key_dataEE10default_eqIS9_EE6equalsERKS9_SF_ = comdat any

$_ZN7obj_mapI9func_declSt4pairIjP4exprEE13obj_map_entry8get_dataEv = comdat any

$_ZNK7obj_mapI9func_declSt4pairIjP4exprEE13obj_map_entry7is_freeEv = comdat any

$_ZNK8obj_hashIN7obj_mapI9func_declSt4pairIjP4exprEE8key_dataEEclERKS7_ = comdat any

$_ZNK7obj_mapI9func_declSt4pairIjP4exprEE8key_data4hashEv = comdat any

$_ZNK10default_eqIN7obj_mapI9func_declSt4pairIjP4exprEE8key_dataEEclERKS7_SA_ = comdat any

$_ZNK7obj_mapI9func_declSt4pairIjP4exprEE8key_dataeqERKS6_ = comdat any

$_ZNSt4pairIjP4exprEC2IjS1_TnNSt9enable_ifIXsr6__and_ISt37__is_implicitly_default_constructibleIT_ES5_IT0_EEE5valueEbE4typeELb1EEEv = comdat any

$_ZN14core_hashtableI14obj_hash_entryI9func_declE12obj_ptr_hashIS1_E6ptr_eqIS1_EED2Ev = comdat any

$_ZN14core_hashtableI14obj_hash_entryI9func_declE12obj_ptr_hashIS1_E6ptr_eqIS1_EE12delete_tableEv = comdat any

$__clang_call_terminate = comdat any

$_Z12dealloc_vectI14obj_hash_entryI9func_declEEvPT_j = comdat any

$_ZN6vectorIP9func_declLb0EjED2Ev = comdat any

$_ZN6vectorIP9func_declLb0EjE7destroyEv = comdat any

$_ZN6vectorIP9func_declLb0EjE11free_memoryEv = comdat any

$_ZN10ptr_bufferI3appLj16EEC2Ev = comdat any

$_ZNK6vectorIP4exprLb0EjE5beginEv = comdat any

$_ZNK6vectorIP4exprLb0EjE3endEv = comdat any

$_Z6to_appP3ast = comdat any

$_ZNK3app8get_declEv = comdat any

$_ZNK4decl8get_nameEv = comdat any

$_ZNK9func_decl9get_rangeEv = comdat any

$_ZN6bufferIP3appLb0ELj16EE5resetEv = comdat any

$_ZN6bufferIP3appLb0ELj16EE9push_backEOS1_ = comdat any

$_ZN9format_ns7mk_seq1IPP3appNS_3f2fEEES2_R11ast_managerRKT_S9_T0_PKcSC_SC_ = comdat any

$_ZNK6bufferIP3appLb0ELj16EE4sizeEv = comdat any

$_ZN6bufferIP3appLb0ELj16EE5beginEv = comdat any

$_ZN6bufferIP3appLb0ELj16EE3endEv = comdat any

$_ZN6bufferIP3appLb0ELj16EEixEj = comdat any

$_ZN9format_ns2fmER11ast_manager = comdat any

$_ZN7obj_refI3app11ast_managerEC2ERS1_ = comdat any

$_ZNK7obj_refI3app11ast_managerE3getEv = comdat any

$_ZN7obj_refI3app11ast_managerEaSEPS0_ = comdat any

$_ZNK7obj_refI3app11ast_managerEcvPS0_Ev = comdat any

$_ZN10params_refC2Ev = comdat any

$_ZN7obj_refI3app11ast_managerED2Ev = comdat any

$_ZN10ptr_bufferI3appLj16EED2Ev = comdat any

$_ZN6bufferIP3appLb0ELj16EEC2Ev = comdat any

$_ZNK6vectorIP4exprLb0EjE4sizeEv = comdat any

$_ZNK6symbol12is_numericalEv = comdat any

$_ZNK6symbol8bare_strEv = comdat any

$_ZN6bufferIP3appLb0ELj16EE6expandEv = comdat any

$_ZN6bufferIP3appLb0ELj16EE11free_memoryEv = comdat any

$_Z13dealloc_svectIP3appEvPT_ = comdat any

$_ZN9format_ns3f2fclEP3app = comdat any

$_ZN9format_ns6mk_seqIPP3appNS_3f2fEEES2_R11ast_managerRKT_S9_T0_ = comdat any

$_ZN10ref_bufferI3app11ast_managerLj16EEC2ERS1_ = comdat any

$_ZNK3app13get_decl_kindEv = comdat any

$_ZN15ref_buffer_coreI3app19ref_manager_wrapperIS0_11ast_managerELj16EE9push_backEPS0_ = comdat any

$_ZNK15ref_buffer_coreI3app19ref_manager_wrapperIS0_11ast_managerELj16EE4sizeEv = comdat any

$_ZNK15ref_buffer_coreI3app19ref_manager_wrapperIS0_11ast_managerELj16EE4dataEv = comdat any

$_ZN10ref_bufferI3app11ast_managerLj16EED2Ev = comdat any

$_ZN19ref_manager_wrapperI3app11ast_managerEC2ERS1_ = comdat any

$_ZN15ref_buffer_coreI3app19ref_manager_wrapperIS0_11ast_managerELj16EEC2ERKS3_ = comdat any

$_ZNK4decl13get_decl_kindEv = comdat any

$_ZNK9decl_info13get_decl_kindEv = comdat any

$_ZN15ref_buffer_coreI3app19ref_manager_wrapperIS0_11ast_managerELj16EE7inc_refEPS0_ = comdat any

$_ZN6bufferIP3appLb0ELj16EE9push_backERKS1_ = comdat any

$_ZN19ref_manager_wrapperI3app11ast_managerE7inc_refEPS0_ = comdat any

$_ZN11ast_manager7inc_refEP3ast = comdat any

$_ZN3ast7inc_refEv = comdat any

$_ZNK6bufferIP3appLb0ELj16EE4dataEv = comdat any

$_ZN15ref_buffer_coreI3app19ref_manager_wrapperIS0_11ast_managerELj16EED2Ev = comdat any

$_ZN15ref_buffer_coreI3app19ref_manager_wrapperIS0_11ast_managerELj16EE13dec_range_refEPKPS0_S7_ = comdat any

$_ZN15ref_buffer_coreI3app19ref_manager_wrapperIS0_11ast_managerELj16EE7dec_refEPS0_ = comdat any

$_ZN19ref_manager_wrapperI3app11ast_managerE7dec_refEPS0_ = comdat any

$_ZN11ast_manager7dec_refEP3ast = comdat any

$_ZN3ast7dec_refEv = comdat any

$_ZNK3ast13get_ref_countEv = comdat any

$_ZN11ast_manager18get_format_managerEv = comdat any

$_ZNK11ast_manager17is_format_managerEv = comdat any

$_ZN7obj_refI3app11ast_managerE7dec_refEv = comdat any

$_ZN6bufferIP3appLb0ELj16EED2Ev = comdat any

$_ZN6bufferIP3appLb0ELj16EE7destroyEv = comdat any

$_ZNK10model_core17get_num_constantsEv = comdat any

$_ZNK10model_core12get_constantEj = comdat any

$_ZNK10model_core16get_const_interpEP9func_decl = comdat any

$_ZNK7obj_mapI9func_declSt4pairIjP4exprEE4findEPS0_RS4_ = comdat any

$_ZNSt4pairIjP4exprEaSERKS2_ = comdat any

$_ZN7sbufferI6symbolLj16EEC2Ev = comdat any

$_ZN10ptr_bufferI9func_declLj16EEC2Ev = comdat any

$_ZN6bufferIP9func_declLb0ELj16EE5beginEv = comdat any

$_ZN6bufferIP9func_declLb0ELj16EE3endEv = comdat any

$_ZNK6recfun4util10is_definedEP9func_decl = comdat any

$_ZNK6recfun4util12is_generatedEP9func_decl = comdat any

$_ZN11ast_manager27is_considered_uninterpretedEP9func_decl = comdat any

$_ZN6bufferI6symbolLb0ELj16EE5resetEv = comdat any

$_ZN6bufferI6symbolLb0ELj16EE9push_backEOS0_ = comdat any

$_ZN6symbolC2ERKNSt7__cxx1112basic_stringIcSt11char_traitsIcESaIcEEE = comdat any

$_ZN6bufferI6symbolLb0ELj16EE5beginEv = comdat any

$_ZN6bufferI6symbolLb0ELj16EE3endEv = comdat any

$_ZNK9func_decl10get_domainEj = comdat any

$_ZN9format_ns7mk_seq5IPP3appNS_3f2fEEES2_R11ast_managerRKT_S9_T0_PKcSC_ = comdat any

$_ZNK11func_interp11num_entriesEv = comdat any

$_ZNK11func_interp9get_entryEj = comdat any

$_ZNK10func_entry7get_argEj = comdat any

$_ZNK10func_entry10get_resultEv = comdat any

$_ZN10ptr_bufferI9func_declLj16EED2Ev = comdat any

$_ZN7sbufferI6symbolLj16EED2Ev = comdat any

$_ZN6bufferI6symbolLb0ELj16EEC2Ev = comdat any

$_ZN6bufferIP9func_declLb0ELj16EEC2Ev = comdat any

$_ZNK6bufferIP9func_declLb0ELj16EE4sizeEv = comdat any

$_Z10is_decl_ofPK9func_declii = comdat any

$_ZNK4decl13get_family_idEv = comdat any

$_ZNK9decl_info13get_family_idEv = comdat any

$_ZNK4decl13get_parameterEj = comdat any

$_ZNK9parameter7get_intEv = comdat any

$_ZNK9decl_info13get_parameterEj = comdat any

$_ZNK6vectorI9parameterLb1EjEixEj = comdat any

$_ZSt3getIiJiP3ast6symbolP7zstringP8rationaldjEERKT_RKSt7variantIJDpT0_EE = comdat any

$_ZSt3getILm0EJiP3ast6symbolP7zstringP8rationaldjEERKNSt19variant_alternativeIXT_ESt7variantIJDpT0_EEE4typeERKSB_ = comdat any

$_ZNKSt7variantIJiP3ast6symbolP7zstringP8rationaldjEE5indexEv = comdat any

$_ZSt26__throw_bad_variant_accessb = comdat any

$_ZNKSt7variantIJiP3ast6symbolP7zstringP8rationaldjEE22valueless_by_exceptionEv = comdat any

$_ZNSt8__detail9__variant5__getILm0ERKSt7variantIJiP3ast6symbolP7zstringP8rationaldjEEEEDcOT0_ = comdat any

$_ZSt26__throw_bad_variant_accessPKc = comdat any

$_ZNSt18bad_variant_accessC2EPKc = comdat any

$_ZNSt18bad_variant_accessD2Ev = comdat any

$_ZNSt9exceptionC2Ev = comdat any

$_ZNSt18bad_variant_accessD0Ev = comdat any

$_ZNKSt18bad_variant_access4whatEv = comdat any

$_ZNKSt8__detail9__variant16_Variant_storageILb1EJiP3ast6symbolP7zstringP8rationaldjEE8_M_validEv = comdat any

$_ZNSt8__detail9__variant7__get_nILm0ERKNS0_15_Variadic_unionIJiP3ast6symbolP7zstringP8rationaldjEEEEEDcOT0_ = comdat any

$_ZNKRSt8__detail9__variant14_UninitializedIiLb1EE6_M_getEv = comdat any

$_ZN6bufferI6symbolLb0ELj16EE6expandEv = comdat any

$_ZN6bufferI6symbolLb0ELj16EE11free_memoryEv = comdat any

$_Z13dealloc_svectI6symbolEvPT_ = comdat any

$_ZNK6bufferI6symbolLb0ELj16EE4sizeEv = comdat any

$_ZN9format_ns7mk_seq4IPP3appNS_3f2fEEES2_R11ast_managerRKT_S9_T0_jPKcSC_ = comdat any

$_ZNK6vectorIP10func_entryLb0EjE4sizeEv = comdat any

$_ZNK6vectorIP10func_entryLb0EjEixEj = comdat any

$_ZN6bufferIP9func_declLb0ELj16EED2Ev = comdat any

$_ZN6bufferIP9func_declLb0ELj16EE7destroyEv = comdat any

$_ZN6bufferIP9func_declLb0ELj16EE11free_memoryEv = comdat any

$_Z13dealloc_svectIP9func_declEvPT_ = comdat any

$_ZN6bufferI6symbolLb0ELj16EED2Ev = comdat any

$_ZN6bufferI6symbolLb0ELj16EE7destroyEv = comdat any

$_ZN6vectorIP9func_declLb0EjEC2Ev = comdat any

$_ZN14core_hashtableI14obj_hash_entryI9func_declE12obj_ptr_hashIS1_E6ptr_eqIS1_EEC2EjRKS4_RKS6_ = comdat any

$_ZN14core_hashtableI14obj_hash_entryI9func_declE12obj_ptr_hashIS1_E6ptr_eqIS1_EE11alloc_tableEj = comdat any

$_Z10alloc_vectI14obj_hash_entryI9func_declEEPT_j = comdat any

$_ZN14obj_hash_entryI9func_declEC2Ev = comdat any

$_ZNK14core_hashtableI14obj_hash_entryI9func_declE12obj_ptr_hashIS1_E6ptr_eqIS1_EE9find_coreERKPS1_ = comdat any

$_ZNK14core_hashtableI14obj_hash_entryI9func_declE12obj_ptr_hashIS1_E6ptr_eqIS1_EE8get_hashERKPS1_ = comdat any

$_ZNK14obj_hash_entryI9func_declE7is_usedEv = comdat any

$_ZNK14obj_hash_entryI9func_declE8get_hashEv = comdat any

$_ZNK14core_hashtableI14obj_hash_entryI9func_declE12obj_ptr_hashIS1_E6ptr_eqIS1_EE6equalsERKPS1_SA_ = comdat any

$_ZN14obj_hash_entryI9func_declE8get_dataEv = comdat any

$_ZNK14obj_hash_entryI9func_declE7is_freeEv = comdat any

$_ZNK12obj_ptr_hashI9func_declEclEPS0_ = comdat any

$_ZNK6ptr_eqI9func_declEclEPS0_S2_ = comdat any

$_ZN14core_hashtableI14obj_hash_entryI9func_declE12obj_ptr_hashIS1_E6ptr_eqIS1_EE6insertEOPS1_ = comdat any

$_ZN14core_hashtableI14obj_hash_entryI9func_declE12obj_ptr_hashIS1_E6ptr_eqIS1_EE12expand_tableEv = comdat any

$_ZN14obj_hash_entryI9func_declE8set_dataEPS0_ = comdat any

$_ZN14obj_hash_entryI9func_declE8set_hashEj = comdat any

$_ZN14core_hashtableI14obj_hash_entryI9func_declE12obj_ptr_hashIS1_E6ptr_eqIS1_EE10move_tableEPS2_jS8_j = comdat any

$_ZN6vectorIP9func_declLb0EjE13expand_vectorEv = comdat any

$_ZNSt7__cxx1112basic_stringIcSt11char_traitsIcESaIcEEC2IS3_EEPKcRKS3_ = comdat any

$_ZN17default_exceptionC2EONSt7__cxx1112basic_stringIcSt11char_traitsIcESaIcEEE = comdat any

$_ZN17default_exceptionD2Ev = comdat any

$_ZNSt11char_traitsIcE6lengthEPKc = comdat any

$_ZNSt7__cxx1112basic_stringIcSt11char_traitsIcESaIcEE12_M_constructIPKcEEvT_S8_St20forward_iterator_tag = comdat any

$_ZNSt7__cxx1112basic_stringIcSt11char_traitsIcESaIcEE12_Alloc_hiderD2Ev = comdat any

$_ZSt8distanceIPKcENSt15iterator_traitsIT_E15difference_typeES3_S3_ = comdat any

$_ZZNSt7__cxx1112basic_stringIcSt11char_traitsIcESaIcEE12_M_constructIPKcEEvT_S8_St20forward_iterator_tagEN6_GuardC2EPS4_ = comdat any

$_ZZNSt7__cxx1112basic_stringIcSt11char_traitsIcESaIcEE12_M_constructIPKcEEvT_S8_St20forward_iterator_tagEN6_GuardD2Ev = comdat any

$_ZSt10__distanceIPKcENSt15iterator_traitsIT_E15difference_typeES3_S3_St26random_access_iterator_tag = comdat any

$_ZSt19__iterator_categoryIPKcENSt15iterator_traitsIT_E17iterator_categoryERKS3_ = comdat any

$_ZN12z3_exceptionC2Ev = comdat any

$_ZN12z3_exceptionD2Ev = comdat any

$_ZN6vectorIP9func_declLb0EjEixEj = comdat any

$_ZN14core_hashtableI14obj_hash_entryI9func_declE12obj_ptr_hashIS1_E6ptr_eqIS1_EE8iteratorC2EPS2_S9_ = comdat any

$_ZN14core_hashtableI14obj_hash_entryI9func_declE12obj_ptr_hashIS1_E6ptr_eqIS1_EE8iterator12move_to_usedEv = comdat any

$_ZN6bufferIP9func_declLb0ELj16EE6expandEv = comdat any

$_Z7deallocI19ast_printer_contextEvPT_ = comdat any

$_ZTSSt18bad_variant_access = comdat any

$_ZTISt18bad_variant_access = comdat any

$_ZTVSt18bad_variant_access = comdat any

@_ZStL8__ioinit = internal global %"class.std::ios_base::Init" zeroinitializer, align 1
@__dso_handle = external hidden global i8
@.str = private unnamed_addr constant [14 x i8] c"universe for \00", align 1
@.str.1 = private unnamed_addr constant [3 x i8] c":\0A\00", align 1
@.str.2 = private unnamed_addr constant [2 x i8] c" \00", align 1
@.str.3 = private unnamed_addr constant [13 x i8] c"\0A-----------\00", align 1
@.str.4 = private unnamed_addr constant [4 x i8] c";; \00", align 1
@.str.5 = private unnamed_addr constant [2 x i8] c"\0A\00", align 1
@.str.6 = private unnamed_addr constant [39 x i8] c";; definitions for universe elements:\0A\00", align 1
@.str.7 = private unnamed_addr constant [14 x i8] c"(declare-fun \00", align 1
@.str.8 = private unnamed_addr constant [5 x i8] c" () \00", align 1
@.str.9 = private unnamed_addr constant [3 x i8] c")\0A\00", align 1
@.str.10 = private unnamed_addr constant [28 x i8] c";; cardinality constraint:\0A\00", align 1
@.str.11 = private unnamed_addr constant [2 x i8] c"x\00", align 1
@.str.12 = private unnamed_addr constant [2 x i8] c"=\00", align 1
@.str.13 = private unnamed_addr constant [2 x i8] c"(\00", align 1
@.str.14 = private unnamed_addr constant [2 x i8] c")\00", align 1
@.str.15 = private unnamed_addr constant [3 x i8] c"or\00", align 1
@.str.16 = private unnamed_addr constant [5 x i8] c"((x \00", align 1
@.str.17 = private unnamed_addr constant [3 x i8] c"))\00", align 1
@.str.18 = private unnamed_addr constant [7 x i8] c"forall\00", align 1
@.str.19 = private unnamed_addr constant [16 x i8] c";; -----------\0A\00", align 1
@.str.20 = private unnamed_addr constant [13 x i8] c"(define-fun \00", align 1
@.str.21 = private unnamed_addr constant [13 x i8] c"#unspecified\00", align 1
@.str.22 = private unnamed_addr constant [3 x i8] c"x!\00", align 1
@.str.23 = private unnamed_addr constant [4 x i8] c"and\00", align 1
@.str.24 = private unnamed_addr constant [6 x i8] c"(ite \00", align 1
@.str.25 = private unnamed_addr constant [31 x i8] c"std::get: variant is valueless\00", align 1
@.str.26 = private unnamed_addr constant [34 x i8] c"std::get: wrong index for variant\00", align 1
@_ZTVN10__cxxabiv120__si_class_type_infoE = external global [0 x ptr]
@_ZTSSt18bad_variant_access = linkonce_odr constant [23 x i8] c"St18bad_variant_access\00", comdat, align 1
@_ZTISt9exception = external constant ptr
@_ZTISt18bad_variant_access = linkonce_odr constant { ptr, ptr, ptr } { ptr getelementptr inbounds (ptr, ptr @_ZTVN10__cxxabiv120__si_class_type_infoE, i64 2), ptr @_ZTSSt18bad_variant_access, ptr @_ZTISt9exception }, comdat, align 8
@_ZTVSt18bad_variant_access = linkonce_odr unnamed_addr constant { [5 x ptr] } { [5 x ptr] [ptr null, ptr @_ZTISt18bad_variant_access, ptr @_ZNSt18bad_variant_accessD2Ev, ptr @_ZNSt18bad_variant_accessD0Ev, ptr @_ZNKSt18bad_variant_access4whatEv] }, comdat, align 8
@_ZTVSt9exception = external unnamed_addr constant { [5 x ptr] }, align 8
@.str.27 = private unnamed_addr constant [104 x i8] c"generated/home/dtcxzyw/WorkSpace/Projects/compilers/llvm-opt-benchmark/bench/z3/z3/src/util/hashtable.h\00", align 1
@.str.28 = private unnamed_addr constant [29 x i8] c"UNEXPECTED CODE WAS REACHED.\00", align 1
@.str.29 = private unnamed_addr constant [43 x i8] c"Overflow encountered when expanding vector\00", align 1
@_ZTI17default_exception = external constant ptr
@.str.30 = private unnamed_addr constant [50 x i8] c"basic_string: construction from null is not valid\00", align 1
@_ZTV17default_exception = external unnamed_addr constant { [6 x ptr] }, align 8
@_ZTV12z3_exception = external unnamed_addr constant { [6 x ptr] }, align 8
@llvm.global_ctors = appending global [1 x { i32, ptr, ptr }] [{ i32, ptr, ptr } { i32 65535, ptr @_GLOBAL__sub_I_model_smt2_pp.cpp, ptr null }]

; Function Attrs: uwtable
define internal void @__cxx_global_var_init() #0 section ".text.startup" {
entry:
  call void @_ZNSt8ios_base4InitC1Ev(ptr noundef nonnull align 1 dereferenceable(1) @_ZStL8__ioinit)
  %0 = call i32 @__cxa_atexit(ptr @_ZNSt8ios_base4InitD1Ev, ptr @_ZStL8__ioinit, ptr @__dso_handle) #3
  ret void
}

declare void @_ZNSt8ios_base4InitC1Ev(ptr noundef nonnull align 1 dereferenceable(1)) unnamed_addr #1

; Function Attrs: nounwind
declare void @_ZNSt8ios_base4InitD1Ev(ptr noundef nonnull align 1 dereferenceable(1)) unnamed_addr #2

; Function Attrs: nounwind
declare i32 @__cxa_atexit(ptr, ptr, ptr) #3

; Function Attrs: mustprogress uwtable
define hidden void @_Z14sort_fun_declsR11ast_managerRK10model_coreR10ptr_bufferI9func_declLj16EE(ptr noundef nonnull align 8 dereferenceable(976) %m, ptr noundef nonnull align 8 dereferenceable(96) %md, ptr noundef nonnull align 8 dereferenceable(144) %result) #4 personality ptr @__gxx_personality_v0 {
entry:
  %m.addr = alloca ptr, align 8
  %md.addr = alloca ptr, align 8
  %result.addr = alloca ptr, align 8
  %visited = alloca %class.obj_hashtable, align 8
  %todo = alloca %class.ptr_vector, align 8
  %exn.slot = alloca ptr, align 8
  %ehselector.slot = alloca i32, align 4
  %sz = alloca i32, align 4
  %i = alloca i32, align 4
  %f = alloca ptr, align 8
  %curr = alloca ptr, align 8
  %curr_i = alloca ptr, align 8
  %deps = alloca %class.obj_hashtable, align 8
  %all_visited = alloca i8, align 1
  %__range4 = alloca ptr, align 8
  %__begin4 = alloca %"class.core_hashtable<obj_hash_entry<func_decl>, obj_ptr_hash<func_decl>, ptr_eq<func_decl>>::iterator", align 8
  %__end4 = alloca %"class.core_hashtable<obj_hash_entry<func_decl>, obj_ptr_hash<func_decl>, ptr_eq<func_decl>>::iterator", align 8
  %d = alloca ptr, align 8
  %cleanup.dest.slot = alloca i32, align 4
  store ptr %m, ptr %m.addr, align 8
  store ptr %md, ptr %md.addr, align 8
  store ptr %result, ptr %result.addr, align 8
  call void @_ZN13obj_hashtableI9func_declEC2Ej(ptr noundef nonnull align 8 dereferenceable(20) %visited, i32 noundef 8)
  invoke void @_ZN10ptr_vectorI9func_declEC2Ev(ptr noundef nonnull align 8 dereferenceable(8) %todo)
          to label %invoke.cont unwind label %lpad

invoke.cont:                                      ; preds = %entry
  %0 = load ptr, ptr %md.addr, align 8
  %call = invoke noundef i32 @_ZNK10model_core17get_num_functionsEv(ptr noundef nonnull align 8 dereferenceable(96) %0)
          to label %invoke.cont2 unwind label %lpad1

invoke.cont2:                                     ; preds = %invoke.cont
  store i32 %call, ptr %sz, align 4
  store i32 0, ptr %i, align 4
  br label %for.cond

for.cond:                                         ; preds = %for.inc54, %invoke.cont2
  %1 = load i32, ptr %i, align 4
  %2 = load i32, ptr %sz, align 4
  %cmp = icmp ult i32 %1, %2
  br i1 %cmp, label %for.body, label %for.end55

for.body:                                         ; preds = %for.cond
  %3 = load ptr, ptr %md.addr, align 8
  %4 = load i32, ptr %i, align 4
  %call4 = invoke noundef ptr @_ZNK10model_core12get_functionEj(ptr noundef nonnull align 8 dereferenceable(96) %3, i32 noundef %4)
          to label %invoke.cont3 unwind label %lpad1

invoke.cont3:                                     ; preds = %for.body
  store ptr %call4, ptr %f, align 8
  %call6 = invoke noundef zeroext i1 @_ZNK14core_hashtableI14obj_hash_entryI9func_declE12obj_ptr_hashIS1_E6ptr_eqIS1_EE8containsERKPS1_(ptr noundef nonnull align 8 dereferenceable(20) %visited, ptr noundef nonnull align 8 dereferenceable(8) %f)
          to label %invoke.cont5 unwind label %lpad1

invoke.cont5:                                     ; preds = %invoke.cont3
  br i1 %call6, label %if.then, label %if.end

if.then:                                          ; preds = %invoke.cont5
  br label %for.inc54

lpad:                                             ; preds = %entry
  %5 = landingpad { ptr, i32 }
          cleanup
  %6 = extractvalue { ptr, i32 } %5, 0
  store ptr %6, ptr %exn.slot, align 8
  %7 = extractvalue { ptr, i32 } %5, 1
  store i32 %7, ptr %ehselector.slot, align 4
  br label %ehcleanup56

lpad1:                                            ; preds = %invoke.cont52, %if.end51, %if.then18, %invoke.cont14, %invoke.cont12, %while.body, %while.cond, %invoke.cont7, %if.end, %invoke.cont3, %for.body, %invoke.cont
  %8 = landingpad { ptr, i32 }
          cleanup
  %9 = extractvalue { ptr, i32 } %8, 0
  store ptr %9, ptr %exn.slot, align 8
  %10 = extractvalue { ptr, i32 } %8, 1
  store i32 %10, ptr %ehselector.slot, align 4
  br label %ehcleanup

if.end:                                           ; preds = %invoke.cont5
  invoke void @_ZN14core_hashtableI14obj_hash_entryI9func_declE12obj_ptr_hashIS1_E6ptr_eqIS1_EE6insertERKPS1_(ptr noundef nonnull align 8 dereferenceable(20) %visited, ptr noundef nonnull align 8 dereferenceable(8) %f)
          to label %invoke.cont7 unwind label %lpad1

invoke.cont7:                                     ; preds = %if.end
  %call9 = invoke noundef nonnull align 8 dereferenceable(8) ptr @_ZN6vectorIP9func_declLb0EjE9push_backERKS1_(ptr noundef nonnull align 8 dereferenceable(8) %todo, ptr noundef nonnull align 8 dereferenceable(8) %f)
          to label %invoke.cont8 unwind label %lpad1

invoke.cont8:                                     ; preds = %invoke.cont7
  br label %while.cond

while.cond:                                       ; preds = %invoke.cont53, %cleanup, %invoke.cont8
  %call11 = invoke noundef zeroext i1 @_ZNK6vectorIP9func_declLb0EjE5emptyEv(ptr noundef nonnull align 8 dereferenceable(8) %todo)
          to label %invoke.cont10 unwind label %lpad1

invoke.cont10:                                    ; preds = %while.cond
  %lnot = xor i1 %call11, true
  br i1 %lnot, label %while.body, label %while.end

while.body:                                       ; preds = %invoke.cont10
  %call13 = invoke noundef nonnull align 8 dereferenceable(8) ptr @_ZN6vectorIP9func_declLb0EjE4backEv(ptr noundef nonnull align 8 dereferenceable(8) %todo)
          to label %invoke.cont12 unwind label %lpad1

invoke.cont12:                                    ; preds = %while.body
  %11 = load ptr, ptr %call13, align 8
  store ptr %11, ptr %curr, align 8
  %12 = load ptr, ptr %md.addr, align 8
  %13 = load ptr, ptr %curr, align 8
  %call15 = invoke noundef ptr @_ZNK10model_core15get_func_interpEP9func_decl(ptr noundef nonnull align 8 dereferenceable(96) %12, ptr noundef %13)
          to label %invoke.cont14 unwind label %lpad1

invoke.cont14:                                    ; preds = %invoke.cont12
  store ptr %call15, ptr %curr_i, align 8
  %14 = load ptr, ptr %curr_i, align 8
  %call17 = invoke noundef zeroext i1 @_ZNK11func_interp10is_partialEv(ptr noundef nonnull align 8 dereferenceable(56) %14)
          to label %invoke.cont16 unwind label %lpad1

invoke.cont16:                                    ; preds = %invoke.cont14
  br i1 %call17, label %if.end51, label %if.then18

if.then18:                                        ; preds = %invoke.cont16
  invoke void @_ZN13obj_hashtableI9func_declEC2Ej(ptr noundef nonnull align 8 dereferenceable(20) %deps, i32 noundef 8)
          to label %invoke.cont19 unwind label %lpad1

invoke.cont19:                                    ; preds = %if.then18
  store i8 1, ptr %all_visited, align 1
  %15 = load ptr, ptr %m.addr, align 8
  %16 = load ptr, ptr %curr_i, align 8
  %call22 = invoke noundef ptr @_ZNK11func_interp8get_elseEv(ptr noundef nonnull align 8 dereferenceable(56) %16)
          to label %invoke.cont21 unwind label %lpad20

invoke.cont21:                                    ; preds = %invoke.cont19
  invoke void @_Z18collect_func_declsR11ast_managerP4exprR13obj_hashtableI9func_declEb(ptr noundef nonnull align 8 dereferenceable(976) %15, ptr noundef %call22, ptr noundef nonnull align 8 dereferenceable(20) %deps, i1 noundef zeroext false)
          to label %invoke.cont23 unwind label %lpad20

invoke.cont23:                                    ; preds = %invoke.cont21
  store ptr %deps, ptr %__range4, align 8
  %17 = load ptr, ptr %__range4, align 8
  %call25 = invoke { ptr, ptr } @_ZNK14core_hashtableI14obj_hash_entryI9func_declE12obj_ptr_hashIS1_E6ptr_eqIS1_EE5beginEv(ptr noundef nonnull align 8 dereferenceable(20) %17)
          to label %invoke.cont24 unwind label %lpad20

invoke.cont24:                                    ; preds = %invoke.cont23
  %18 = getelementptr inbounds { ptr, ptr }, ptr %__begin4, i32 0, i32 0
  %19 = extractvalue { ptr, ptr } %call25, 0
  store ptr %19, ptr %18, align 8
  %20 = getelementptr inbounds { ptr, ptr }, ptr %__begin4, i32 0, i32 1
  %21 = extractvalue { ptr, ptr } %call25, 1
  store ptr %21, ptr %20, align 8
  %22 = load ptr, ptr %__range4, align 8
  %call27 = invoke { ptr, ptr } @_ZNK14core_hashtableI14obj_hash_entryI9func_declE12obj_ptr_hashIS1_E6ptr_eqIS1_EE3endEv(ptr noundef nonnull align 8 dereferenceable(20) %22)
          to label %invoke.cont26 unwind label %lpad20

invoke.cont26:                                    ; preds = %invoke.cont24
  %23 = getelementptr inbounds { ptr, ptr }, ptr %__end4, i32 0, i32 0
  %24 = extractvalue { ptr, ptr } %call27, 0
  store ptr %24, ptr %23, align 8
  %25 = getelementptr inbounds { ptr, ptr }, ptr %__end4, i32 0, i32 1
  %26 = extractvalue { ptr, ptr } %call27, 1
  store ptr %26, ptr %25, align 8
  br label %for.cond28

for.cond28:                                       ; preds = %invoke.cont47, %invoke.cont26
  %call30 = invoke noundef zeroext i1 @_ZNK14core_hashtableI14obj_hash_entryI9func_declE12obj_ptr_hashIS1_E6ptr_eqIS1_EE8iteratorneERKS8_(ptr noundef nonnull align 8 dereferenceable(16) %__begin4, ptr noundef nonnull align 8 dereferenceable(16) %__end4)
          to label %invoke.cont29 unwind label %lpad20

invoke.cont29:                                    ; preds = %for.cond28
  br i1 %call30, label %for.body31, label %for.end

for.body31:                                       ; preds = %invoke.cont29
  %call33 = invoke noundef nonnull align 8 dereferenceable(8) ptr @_ZN14core_hashtableI14obj_hash_entryI9func_declE12obj_ptr_hashIS1_E6ptr_eqIS1_EE8iteratordeEv(ptr noundef nonnull align 8 dereferenceable(16) %__begin4)
          to label %invoke.cont32 unwind label %lpad20

invoke.cont32:                                    ; preds = %for.body31
  %27 = load ptr, ptr %call33, align 8
  store ptr %27, ptr %d, align 8
  %28 = load ptr, ptr %d, align 8
  %call35 = invoke noundef i32 @_ZNK9func_decl9get_arityEv(ptr noundef nonnull align 8 dereferenceable(48) %28)
          to label %invoke.cont34 unwind label %lpad20

invoke.cont34:                                    ; preds = %invoke.cont32
  %cmp36 = icmp ugt i32 %call35, 0
  br i1 %cmp36, label %land.lhs.true, label %if.end46

land.lhs.true:                                    ; preds = %invoke.cont34
  %29 = load ptr, ptr %md.addr, align 8
  %30 = load ptr, ptr %d, align 8
  %call38 = invoke noundef zeroext i1 @_ZNK10model_core18has_interpretationEP9func_decl(ptr noundef nonnull align 8 dereferenceable(96) %29, ptr noundef %30)
          to label %invoke.cont37 unwind label %lpad20

invoke.cont37:                                    ; preds = %land.lhs.true
  br i1 %call38, label %land.lhs.true39, label %if.end46

land.lhs.true39:                                  ; preds = %invoke.cont37
  %call41 = invoke noundef zeroext i1 @_ZNK14core_hashtableI14obj_hash_entryI9func_declE12obj_ptr_hashIS1_E6ptr_eqIS1_EE8containsERKPS1_(ptr noundef nonnull align 8 dereferenceable(20) %visited, ptr noundef nonnull align 8 dereferenceable(8) %d)
          to label %invoke.cont40 unwind label %lpad20

invoke.cont40:                                    ; preds = %land.lhs.true39
  br i1 %call41, label %if.end46, label %if.then42

if.then42:                                        ; preds = %invoke.cont40
  %call44 = invoke noundef nonnull align 8 dereferenceable(8) ptr @_ZN6vectorIP9func_declLb0EjE9push_backERKS1_(ptr noundef nonnull align 8 dereferenceable(8) %todo, ptr noundef nonnull align 8 dereferenceable(8) %d)
          to label %invoke.cont43 unwind label %lpad20

invoke.cont43:                                    ; preds = %if.then42
  invoke void @_ZN14core_hashtableI14obj_hash_entryI9func_declE12obj_ptr_hashIS1_E6ptr_eqIS1_EE6insertERKPS1_(ptr noundef nonnull align 8 dereferenceable(20) %visited, ptr noundef nonnull align 8 dereferenceable(8) %d)
          to label %invoke.cont45 unwind label %lpad20

invoke.cont45:                                    ; preds = %invoke.cont43
  store i8 0, ptr %all_visited, align 1
  br label %if.end46

lpad20:                                           ; preds = %for.inc, %invoke.cont43, %if.then42, %land.lhs.true39, %land.lhs.true, %invoke.cont32, %for.body31, %for.cond28, %invoke.cont24, %invoke.cont23, %invoke.cont21, %invoke.cont19
  %31 = landingpad { ptr, i32 }
          cleanup
  %32 = extractvalue { ptr, i32 } %31, 0
  store ptr %32, ptr %exn.slot, align 8
  %33 = extractvalue { ptr, i32 } %31, 1
  store i32 %33, ptr %ehselector.slot, align 4
  call void @_ZN13obj_hashtableI9func_declED2Ev(ptr noundef nonnull align 8 dereferenceable(20) %deps) #3
  br label %ehcleanup

if.end46:                                         ; preds = %invoke.cont45, %invoke.cont40, %invoke.cont37, %invoke.cont34
  br label %for.inc

for.inc:                                          ; preds = %if.end46
  %call48 = invoke noundef nonnull align 8 dereferenceable(16) ptr @_ZN14core_hashtableI14obj_hash_entryI9func_declE12obj_ptr_hashIS1_E6ptr_eqIS1_EE8iteratorppEv(ptr noundef nonnull align 8 dereferenceable(16) %__begin4)
          to label %invoke.cont47 unwind label %lpad20

invoke.cont47:                                    ; preds = %for.inc
  br label %for.cond28

for.end:                                          ; preds = %invoke.cont29
  %34 = load i8, ptr %all_visited, align 1
  %tobool = trunc i8 %34 to i1
  br i1 %tobool, label %if.end50, label %if.then49

if.then49:                                        ; preds = %for.end
  store i32 5, ptr %cleanup.dest.slot, align 4
  br label %cleanup, !llvm.loop !4

if.end50:                                         ; preds = %for.end
  store i32 0, ptr %cleanup.dest.slot, align 4
  br label %cleanup

cleanup:                                          ; preds = %if.end50, %if.then49
  call void @_ZN13obj_hashtableI9func_declED2Ev(ptr noundef nonnull align 8 dereferenceable(20) %deps) #3
  %cleanup.dest = load i32, ptr %cleanup.dest.slot, align 4
  switch i32 %cleanup.dest, label %unreachable [
    i32 0, label %cleanup.cont
    i32 5, label %while.cond
  ]

cleanup.cont:                                     ; preds = %cleanup
  br label %if.end51

if.end51:                                         ; preds = %cleanup.cont, %invoke.cont16
  invoke void @_ZN6vectorIP9func_declLb0EjE8pop_backEv(ptr noundef nonnull align 8 dereferenceable(8) %todo)
          to label %invoke.cont52 unwind label %lpad1

invoke.cont52:                                    ; preds = %if.end51
  %35 = load ptr, ptr %result.addr, align 8
  invoke void @_ZN6bufferIP9func_declLb0ELj16EE9push_backERKS1_(ptr noundef nonnull align 8 dereferenceable(144) %35, ptr noundef nonnull align 8 dereferenceable(8) %curr)
          to label %invoke.cont53 unwind label %lpad1

invoke.cont53:                                    ; preds = %invoke.cont52
  br label %while.cond, !llvm.loop !4

while.end:                                        ; preds = %invoke.cont10
  br label %for.inc54

for.inc54:                                        ; preds = %while.end, %if.then
  %36 = load i32, ptr %i, align 4
  %inc = add i32 %36, 1
  store i32 %inc, ptr %i, align 4
  br label %for.cond, !llvm.loop !6

for.end55:                                        ; preds = %for.cond
  call void @_ZN10ptr_vectorI9func_declED2Ev(ptr noundef nonnull align 8 dereferenceable(8) %todo) #3
  call void @_ZN13obj_hashtableI9func_declED2Ev(ptr noundef nonnull align 8 dereferenceable(20) %visited) #3
  ret void

ehcleanup:                                        ; preds = %lpad20, %lpad1
  call void @_ZN10ptr_vectorI9func_declED2Ev(ptr noundef nonnull align 8 dereferenceable(8) %todo) #3
  br label %ehcleanup56

ehcleanup56:                                      ; preds = %ehcleanup, %lpad
  call void @_ZN13obj_hashtableI9func_declED2Ev(ptr noundef nonnull align 8 dereferenceable(20) %visited) #3
  br label %eh.resume

eh.resume:                                        ; preds = %ehcleanup56
  %exn = load ptr, ptr %exn.slot, align 8
  %sel = load i32, ptr %ehselector.slot, align 4
  %lpad.val = insertvalue { ptr, i32 } poison, ptr %exn, 0
  %lpad.val57 = insertvalue { ptr, i32 } %lpad.val, i32 %sel, 1
  resume { ptr, i32 } %lpad.val57

unreachable:                                      ; preds = %cleanup
  unreachable
}

; Function Attrs: mustprogress uwtable
define linkonce_odr hidden void @_ZN13obj_hashtableI9func_declEC2Ej(ptr noundef nonnull align 8 dereferenceable(20) %this, i32 noundef %initial_capacity) unnamed_addr #4 comdat align 2 {
entry:
  %this.addr = alloca ptr, align 8
  %initial_capacity.addr = alloca i32, align 4
  %ref.tmp = alloca %struct.obj_ptr_hash, align 1
  %ref.tmp2 = alloca %struct.ptr_eq, align 1
  store ptr %this, ptr %this.addr, align 8
  store i32 %initial_capacity, ptr %initial_capacity.addr, align 4
  %this1 = load ptr, ptr %this.addr, align 8
  %0 = load i32, ptr %initial_capacity.addr, align 4
  call void @_ZN14core_hashtableI14obj_hash_entryI9func_declE12obj_ptr_hashIS1_E6ptr_eqIS1_EEC2EjRKS4_RKS6_(ptr noundef nonnull align 8 dereferenceable(20) %this1, i32 noundef %0, ptr noundef nonnull align 1 dereferenceable(1) %ref.tmp, ptr noundef nonnull align 1 dereferenceable(1) %ref.tmp2)
  ret void
}

; Function Attrs: mustprogress nounwind uwtable
define linkonce_odr hidden void @_ZN10ptr_vectorI9func_declEC2Ev(ptr noundef nonnull align 8 dereferenceable(8) %this) unnamed_addr #5 comdat align 2 {
entry:
  %this.addr = alloca ptr, align 8
  store ptr %this, ptr %this.addr, align 8
  %this1 = load ptr, ptr %this.addr, align 8
  %0 = getelementptr inbounds i8, ptr %this1, i64 0
  call void @llvm.memset.p0.i64(ptr align 8 %0, i8 0, i64 8, i1 false)
  call void @_ZN6vectorIP9func_declLb0EjEC2Ev(ptr noundef nonnull align 8 dereferenceable(8) %this1) #3
  ret void
}

declare i32 @__gxx_personality_v0(...)

; Function Attrs: mustprogress uwtable
define linkonce_odr hidden noundef i32 @_ZNK10model_core17get_num_functionsEv(ptr noundef nonnull align 8 dereferenceable(96) %this) #4 comdat align 2 {
entry:
  %this.addr = alloca ptr, align 8
  store ptr %this, ptr %this.addr, align 8
  %this1 = load ptr, ptr %this.addr, align 8
  %m_func_decls = getelementptr inbounds %class.model_core, ptr %this1, i32 0, i32 8
  %call = call noundef i32 @_ZNK6vectorIP9func_declLb0EjE4sizeEv(ptr noundef nonnull align 8 dereferenceable(8) %m_func_decls)
  ret i32 %call
}

; Function Attrs: mustprogress uwtable
define linkonce_odr hidden noundef ptr @_ZNK10model_core12get_functionEj(ptr noundef nonnull align 8 dereferenceable(96) %this, i32 noundef %i) #4 comdat align 2 {
entry:
  %this.addr = alloca ptr, align 8
  %i.addr = alloca i32, align 4
  store ptr %this, ptr %this.addr, align 8
  store i32 %i, ptr %i.addr, align 4
  %this1 = load ptr, ptr %this.addr, align 8
  %m_func_decls = getelementptr inbounds %class.model_core, ptr %this1, i32 0, i32 8
  %0 = load i32, ptr %i.addr, align 4
  %call = call noundef nonnull align 8 dereferenceable(8) ptr @_ZNK6vectorIP9func_declLb0EjEixEj(ptr noundef nonnull align 8 dereferenceable(8) %m_func_decls, i32 noundef %0)
  %1 = load ptr, ptr %call, align 8
  ret ptr %1
}

; Function Attrs: mustprogress uwtable
define linkonce_odr hidden noundef zeroext i1 @_ZNK14core_hashtableI14obj_hash_entryI9func_declE12obj_ptr_hashIS1_E6ptr_eqIS1_EE8containsERKPS1_(ptr noundef nonnull align 8 dereferenceable(20) %this, ptr noundef nonnull align 8 dereferenceable(8) %e) #4 comdat align 2 {
entry:
  %this.addr = alloca ptr, align 8
  %e.addr = alloca ptr, align 8
  store ptr %this, ptr %this.addr, align 8
  store ptr %e, ptr %e.addr, align 8
  %this1 = load ptr, ptr %this.addr, align 8
  %0 = load ptr, ptr %e.addr, align 8
  %call = call noundef ptr @_ZNK14core_hashtableI14obj_hash_entryI9func_declE12obj_ptr_hashIS1_E6ptr_eqIS1_EE9find_coreERKPS1_(ptr noundef nonnull align 8 dereferenceable(20) %this1, ptr noundef nonnull align 8 dereferenceable(8) %0)
  %cmp = icmp ne ptr %call, null
  ret i1 %cmp
}

; Function Attrs: mustprogress uwtable
define linkonce_odr hidden void @_ZN14core_hashtableI14obj_hash_entryI9func_declE12obj_ptr_hashIS1_E6ptr_eqIS1_EE6insertERKPS1_(ptr noundef nonnull align 8 dereferenceable(20) %this, ptr noundef nonnull align 8 dereferenceable(8) %e) #4 comdat align 2 {
entry:
  %this.addr = alloca ptr, align 8
  %e.addr = alloca ptr, align 8
  %tmp = alloca ptr, align 8
  store ptr %this, ptr %this.addr, align 8
  store ptr %e, ptr %e.addr, align 8
  %this1 = load ptr, ptr %this.addr, align 8
  %0 = load ptr, ptr %e.addr, align 8
  %1 = load ptr, ptr %0, align 8
  store ptr %1, ptr %tmp, align 8
  call void @_ZN14core_hashtableI14obj_hash_entryI9func_declE12obj_ptr_hashIS1_E6ptr_eqIS1_EE6insertEOPS1_(ptr noundef nonnull align 8 dereferenceable(20) %this1, ptr noundef nonnull align 8 dereferenceable(8) %tmp)
  ret void
}

; Function Attrs: mustprogress uwtable
define linkonce_odr hidden noundef nonnull align 8 dereferenceable(8) ptr @_ZN6vectorIP9func_declLb0EjE9push_backERKS1_(ptr noundef nonnull align 8 dereferenceable(8) %this, ptr noundef nonnull align 8 dereferenceable(8) %elem) #4 comdat align 2 {
entry:
  %this.addr = alloca ptr, align 8
  %elem.addr = alloca ptr, align 8
  store ptr %this, ptr %this.addr, align 8
  store ptr %elem, ptr %elem.addr, align 8
  %this1 = load ptr, ptr %this.addr, align 8
  %m_data = getelementptr inbounds %class.vector, ptr %this1, i32 0, i32 0
  %0 = load ptr, ptr %m_data, align 8
  %cmp = icmp eq ptr %0, null
  br i1 %cmp, label %if.then, label %lor.lhs.false

lor.lhs.false:                                    ; preds = %entry
  %m_data2 = getelementptr inbounds %class.vector, ptr %this1, i32 0, i32 0
  %1 = load ptr, ptr %m_data2, align 8
  %arrayidx = getelementptr inbounds i32, ptr %1, i64 -1
  %2 = load i32, ptr %arrayidx, align 4
  %m_data3 = getelementptr inbounds %class.vector, ptr %this1, i32 0, i32 0
  %3 = load ptr, ptr %m_data3, align 8
  %arrayidx4 = getelementptr inbounds i32, ptr %3, i64 -2
  %4 = load i32, ptr %arrayidx4, align 4
  %cmp5 = icmp eq i32 %2, %4
  br i1 %cmp5, label %if.then, label %if.end

if.then:                                          ; preds = %lor.lhs.false, %entry
  call void @_ZN6vectorIP9func_declLb0EjE13expand_vectorEv(ptr noundef nonnull align 8 dereferenceable(8) %this1)
  br label %if.end

if.end:                                           ; preds = %if.then, %lor.lhs.false
  %m_data6 = getelementptr inbounds %class.vector, ptr %this1, i32 0, i32 0
  %5 = load ptr, ptr %m_data6, align 8
  %m_data7 = getelementptr inbounds %class.vector, ptr %this1, i32 0, i32 0
  %6 = load ptr, ptr %m_data7, align 8
  %arrayidx8 = getelementptr inbounds i32, ptr %6, i64 -1
  %7 = load i32, ptr %arrayidx8, align 4
  %idx.ext = zext i32 %7 to i64
  %add.ptr = getelementptr inbounds ptr, ptr %5, i64 %idx.ext
  %8 = load ptr, ptr %elem.addr, align 8
  %9 = load ptr, ptr %8, align 8
  store ptr %9, ptr %add.ptr, align 8
  %m_data9 = getelementptr inbounds %class.vector, ptr %this1, i32 0, i32 0
  %10 = load ptr, ptr %m_data9, align 8
  %arrayidx10 = getelementptr inbounds i32, ptr %10, i64 -1
  %11 = load i32, ptr %arrayidx10, align 4
  %inc = add i32 %11, 1
  store i32 %inc, ptr %arrayidx10, align 4
  ret ptr %this1
}

; Function Attrs: mustprogress nounwind uwtable
define linkonce_odr hidden noundef zeroext i1 @_ZNK6vectorIP9func_declLb0EjE5emptyEv(ptr noundef nonnull align 8 dereferenceable(8) %this) #5 comdat align 2 {
entry:
  %this.addr = alloca ptr, align 8
  store ptr %this, ptr %this.addr, align 8
  %this1 = load ptr, ptr %this.addr, align 8
  %m_data = getelementptr inbounds %class.vector, ptr %this1, i32 0, i32 0
  %0 = load ptr, ptr %m_data, align 8
  %cmp = icmp eq ptr %0, null
  br i1 %cmp, label %lor.end, label %lor.rhs

lor.rhs:                                          ; preds = %entry
  %m_data2 = getelementptr inbounds %class.vector, ptr %this1, i32 0, i32 0
  %1 = load ptr, ptr %m_data2, align 8
  %arrayidx = getelementptr inbounds i32, ptr %1, i64 -1
  %2 = load i32, ptr %arrayidx, align 4
  %cmp3 = icmp eq i32 %2, 0
  br label %lor.end

lor.end:                                          ; preds = %lor.rhs, %entry
  %3 = phi i1 [ true, %entry ], [ %cmp3, %lor.rhs ]
  ret i1 %3
}

; Function Attrs: mustprogress uwtable
define linkonce_odr hidden noundef nonnull align 8 dereferenceable(8) ptr @_ZN6vectorIP9func_declLb0EjE4backEv(ptr noundef nonnull align 8 dereferenceable(8) %this) #4 comdat align 2 {
entry:
  %this.addr = alloca ptr, align 8
  store ptr %this, ptr %this.addr, align 8
  %this1 = load ptr, ptr %this.addr, align 8
  %call = call noundef i32 @_ZNK6vectorIP9func_declLb0EjE4sizeEv(ptr noundef nonnull align 8 dereferenceable(8) %this1)
  %sub = sub i32 %call, 1
  %call2 = call noundef nonnull align 8 dereferenceable(8) ptr @_ZN6vectorIP9func_declLb0EjEixEj(ptr noundef nonnull align 8 dereferenceable(8) %this1, i32 noundef %sub)
  ret ptr %call2
}

; Function Attrs: mustprogress uwtable
define linkonce_odr hidden noundef ptr @_ZNK10model_core15get_func_interpEP9func_decl(ptr noundef nonnull align 8 dereferenceable(96) %this, ptr noundef %d) #4 comdat align 2 {
entry:
  %this.addr = alloca ptr, align 8
  %d.addr = alloca ptr, align 8
  %fi = alloca ptr, align 8
  store ptr %this, ptr %this.addr, align 8
  store ptr %d, ptr %d.addr, align 8
  %this1 = load ptr, ptr %this.addr, align 8
  %m_finterp = getelementptr inbounds %class.model_core, ptr %this1, i32 0, i32 5
  %0 = load ptr, ptr %d.addr, align 8
  %call = call noundef zeroext i1 @_ZNK7obj_mapI9func_declP11func_interpE4findEPS0_RS2_(ptr noundef nonnull align 8 dereferenceable(24) %m_finterp, ptr noundef %0, ptr noundef nonnull align 8 dereferenceable(8) %fi)
  br i1 %call, label %cond.true, label %cond.false

cond.true:                                        ; preds = %entry
  %1 = load ptr, ptr %fi, align 8
  br label %cond.end

cond.false:                                       ; preds = %entry
  br label %cond.end

cond.end:                                         ; preds = %cond.false, %cond.true
  %cond = phi ptr [ %1, %cond.true ], [ null, %cond.false ]
  ret ptr %cond
}

; Function Attrs: mustprogress nounwind uwtable
define linkonce_odr hidden noundef zeroext i1 @_ZNK11func_interp10is_partialEv(ptr noundef nonnull align 8 dereferenceable(56) %this) #5 comdat align 2 {
entry:
  %this.addr = alloca ptr, align 8
  store ptr %this, ptr %this.addr, align 8
  %this1 = load ptr, ptr %this.addr, align 8
  %m_else = getelementptr inbounds %class.func_interp, ptr %this1, i32 0, i32 3
  %0 = load ptr, ptr %m_else, align 8
  %cmp = icmp eq ptr %0, null
  ret i1 %cmp
}

declare void @_Z18collect_func_declsR11ast_managerP4exprR13obj_hashtableI9func_declEb(ptr noundef nonnull align 8 dereferenceable(976), ptr noundef, ptr noundef nonnull align 8 dereferenceable(20), i1 noundef zeroext) #1

; Function Attrs: mustprogress nounwind uwtable
define linkonce_odr hidden noundef ptr @_ZNK11func_interp8get_elseEv(ptr noundef nonnull align 8 dereferenceable(56) %this) #5 comdat align 2 {
entry:
  %this.addr = alloca ptr, align 8
  store ptr %this, ptr %this.addr, align 8
  %this1 = load ptr, ptr %this.addr, align 8
  %m_else = getelementptr inbounds %class.func_interp, ptr %this1, i32 0, i32 3
  %0 = load ptr, ptr %m_else, align 8
  ret ptr %0
}

; Function Attrs: mustprogress uwtable
define linkonce_odr hidden { ptr, ptr } @_ZNK14core_hashtableI14obj_hash_entryI9func_declE12obj_ptr_hashIS1_E6ptr_eqIS1_EE5beginEv(ptr noundef nonnull align 8 dereferenceable(20) %this) #4 comdat align 2 {
entry:
  %retval = alloca %"class.core_hashtable<obj_hash_entry<func_decl>, obj_ptr_hash<func_decl>, ptr_eq<func_decl>>::iterator", align 8
  %this.addr = alloca ptr, align 8
  store ptr %this, ptr %this.addr, align 8
  %this1 = load ptr, ptr %this.addr, align 8
  %m_table = getelementptr inbounds %class.core_hashtable, ptr %this1, i32 0, i32 0
  %0 = load ptr, ptr %m_table, align 8
  %m_table2 = getelementptr inbounds %class.core_hashtable, ptr %this1, i32 0, i32 0
  %1 = load ptr, ptr %m_table2, align 8
  %m_capacity = getelementptr inbounds %class.core_hashtable, ptr %this1, i32 0, i32 1
  %2 = load i32, ptr %m_capacity, align 8
  %idx.ext = zext i32 %2 to i64
  %add.ptr = getelementptr inbounds %class.obj_hash_entry, ptr %1, i64 %idx.ext
  call void @_ZN14core_hashtableI14obj_hash_entryI9func_declE12obj_ptr_hashIS1_E6ptr_eqIS1_EE8iteratorC2EPS2_S9_(ptr noundef nonnull align 8 dereferenceable(16) %retval, ptr noundef %0, ptr noundef %add.ptr)
  %3 = load { ptr, ptr }, ptr %retval, align 8
  ret { ptr, ptr } %3
}

; Function Attrs: mustprogress uwtable
define linkonce_odr hidden { ptr, ptr } @_ZNK14core_hashtableI14obj_hash_entryI9func_declE12obj_ptr_hashIS1_E6ptr_eqIS1_EE3endEv(ptr noundef nonnull align 8 dereferenceable(20) %this) #4 comdat align 2 {
entry:
  %retval = alloca %"class.core_hashtable<obj_hash_entry<func_decl>, obj_ptr_hash<func_decl>, ptr_eq<func_decl>>::iterator", align 8
  %this.addr = alloca ptr, align 8
  store ptr %this, ptr %this.addr, align 8
  %this1 = load ptr, ptr %this.addr, align 8
  %m_table = getelementptr inbounds %class.core_hashtable, ptr %this1, i32 0, i32 0
  %0 = load ptr, ptr %m_table, align 8
  %m_capacity = getelementptr inbounds %class.core_hashtable, ptr %this1, i32 0, i32 1
  %1 = load i32, ptr %m_capacity, align 8
  %idx.ext = zext i32 %1 to i64
  %add.ptr = getelementptr inbounds %class.obj_hash_entry, ptr %0, i64 %idx.ext
  %m_table2 = getelementptr inbounds %class.core_hashtable, ptr %this1, i32 0, i32 0
  %2 = load ptr, ptr %m_table2, align 8
  %m_capacity3 = getelementptr inbounds %class.core_hashtable, ptr %this1, i32 0, i32 1
  %3 = load i32, ptr %m_capacity3, align 8
  %idx.ext4 = zext i32 %3 to i64
  %add.ptr5 = getelementptr inbounds %class.obj_hash_entry, ptr %2, i64 %idx.ext4
  call void @_ZN14core_hashtableI14obj_hash_entryI9func_declE12obj_ptr_hashIS1_E6ptr_eqIS1_EE8iteratorC2EPS2_S9_(ptr noundef nonnull align 8 dereferenceable(16) %retval, ptr noundef %add.ptr, ptr noundef %add.ptr5)
  %4 = load { ptr, ptr }, ptr %retval, align 8
  ret { ptr, ptr } %4
}

; Function Attrs: mustprogress nounwind uwtable
define linkonce_odr hidden noundef zeroext i1 @_ZNK14core_hashtableI14obj_hash_entryI9func_declE12obj_ptr_hashIS1_E6ptr_eqIS1_EE8iteratorneERKS8_(ptr noundef nonnull align 8 dereferenceable(16) %this, ptr noundef nonnull align 8 dereferenceable(16) %it) #5 comdat align 2 {
entry:
  %this.addr = alloca ptr, align 8
  %it.addr = alloca ptr, align 8
  store ptr %this, ptr %this.addr, align 8
  store ptr %it, ptr %it.addr, align 8
  %this1 = load ptr, ptr %this.addr, align 8
  %m_curr = getelementptr inbounds %"class.core_hashtable<obj_hash_entry<func_decl>, obj_ptr_hash<func_decl>, ptr_eq<func_decl>>::iterator", ptr %this1, i32 0, i32 0
  %0 = load ptr, ptr %m_curr, align 8
  %1 = load ptr, ptr %it.addr, align 8
  %m_curr2 = getelementptr inbounds %"class.core_hashtable<obj_hash_entry<func_decl>, obj_ptr_hash<func_decl>, ptr_eq<func_decl>>::iterator", ptr %1, i32 0, i32 0
  %2 = load ptr, ptr %m_curr2, align 8
  %cmp = icmp ne ptr %0, %2
  ret i1 %cmp
}

; Function Attrs: mustprogress nounwind uwtable
define linkonce_odr hidden noundef nonnull align 8 dereferenceable(8) ptr @_ZN14core_hashtableI14obj_hash_entryI9func_declE12obj_ptr_hashIS1_E6ptr_eqIS1_EE8iteratordeEv(ptr noundef nonnull align 8 dereferenceable(16) %this) #5 comdat align 2 {
entry:
  %this.addr = alloca ptr, align 8
  store ptr %this, ptr %this.addr, align 8
  %this1 = load ptr, ptr %this.addr, align 8
  %m_curr = getelementptr inbounds %"class.core_hashtable<obj_hash_entry<func_decl>, obj_ptr_hash<func_decl>, ptr_eq<func_decl>>::iterator", ptr %this1, i32 0, i32 0
  %0 = load ptr, ptr %m_curr, align 8
  %call = call noundef nonnull align 8 dereferenceable(8) ptr @_ZN14obj_hash_entryI9func_declE8get_dataEv(ptr noundef nonnull align 8 dereferenceable(8) %0)
  ret ptr %call
}

; Function Attrs: mustprogress nounwind uwtable
define linkonce_odr hidden noundef i32 @_ZNK9func_decl9get_arityEv(ptr noundef nonnull align 8 dereferenceable(48) %this) #5 comdat align 2 {
entry:
  %this.addr = alloca ptr, align 8
  store ptr %this, ptr %this.addr, align 8
  %this1 = load ptr, ptr %this.addr, align 8
  %m_arity = getelementptr inbounds %class.func_decl, ptr %this1, i32 0, i32 1
  %0 = load i32, ptr %m_arity, align 8
  ret i32 %0
}

; Function Attrs: mustprogress uwtable
define linkonce_odr hidden noundef zeroext i1 @_ZNK10model_core18has_interpretationEP9func_decl(ptr noundef nonnull align 8 dereferenceable(96) %this, ptr noundef %d) #4 comdat align 2 {
entry:
  %this.addr = alloca ptr, align 8
  %d.addr = alloca ptr, align 8
  store ptr %this, ptr %this.addr, align 8
  store ptr %d, ptr %d.addr, align 8
  %this1 = load ptr, ptr %this.addr, align 8
  %m_interp = getelementptr inbounds %class.model_core, ptr %this1, i32 0, i32 4
  %0 = load ptr, ptr %d.addr, align 8
  %call = call noundef zeroext i1 @_ZNK7obj_mapI9func_declSt4pairIjP4exprEE8containsEPS0_(ptr noundef nonnull align 8 dereferenceable(24) %m_interp, ptr noundef %0)
  br i1 %call, label %lor.end, label %lor.rhs

lor.rhs:                                          ; preds = %entry
  %m_finterp = getelementptr inbounds %class.model_core, ptr %this1, i32 0, i32 5
  %1 = load ptr, ptr %d.addr, align 8
  %call2 = call noundef zeroext i1 @_ZNK7obj_mapI9func_declP11func_interpE8containsEPS0_(ptr noundef nonnull align 8 dereferenceable(24) %m_finterp, ptr noundef %1)
  br label %lor.end

lor.end:                                          ; preds = %lor.rhs, %entry
  %2 = phi i1 [ true, %entry ], [ %call2, %lor.rhs ]
  ret i1 %2
}

; Function Attrs: mustprogress nounwind uwtable
define linkonce_odr hidden noundef nonnull align 8 dereferenceable(16) ptr @_ZN14core_hashtableI14obj_hash_entryI9func_declE12obj_ptr_hashIS1_E6ptr_eqIS1_EE8iteratorppEv(ptr noundef nonnull align 8 dereferenceable(16) %this) #5 comdat align 2 {
entry:
  %this.addr = alloca ptr, align 8
  store ptr %this, ptr %this.addr, align 8
  %this1 = load ptr, ptr %this.addr, align 8
  %m_curr = getelementptr inbounds %"class.core_hashtable<obj_hash_entry<func_decl>, obj_ptr_hash<func_decl>, ptr_eq<func_decl>>::iterator", ptr %this1, i32 0, i32 0
  %0 = load ptr, ptr %m_curr, align 8
  %incdec.ptr = getelementptr inbounds %class.obj_hash_entry, ptr %0, i32 1
  store ptr %incdec.ptr, ptr %m_curr, align 8
  call void @_ZN14core_hashtableI14obj_hash_entryI9func_declE12obj_ptr_hashIS1_E6ptr_eqIS1_EE8iterator12move_to_usedEv(ptr noundef nonnull align 8 dereferenceable(16) %this1)
  ret ptr %this1
}

; Function Attrs: mustprogress nounwind uwtable
define linkonce_odr hidden void @_ZN13obj_hashtableI9func_declED2Ev(ptr noundef nonnull align 8 dereferenceable(20) %this) unnamed_addr #5 comdat align 2 {
entry:
  %this.addr = alloca ptr, align 8
  store ptr %this, ptr %this.addr, align 8
  %this1 = load ptr, ptr %this.addr, align 8
  call void @_ZN14core_hashtableI14obj_hash_entryI9func_declE12obj_ptr_hashIS1_E6ptr_eqIS1_EED2Ev(ptr noundef nonnull align 8 dereferenceable(20) %this1) #3
  ret void
}

; Function Attrs: mustprogress nounwind uwtable
define linkonce_odr hidden void @_ZN6vectorIP9func_declLb0EjE8pop_backEv(ptr noundef nonnull align 8 dereferenceable(8) %this) #5 comdat align 2 {
entry:
  %this.addr = alloca ptr, align 8
  store ptr %this, ptr %this.addr, align 8
  %this1 = load ptr, ptr %this.addr, align 8
  %m_data = getelementptr inbounds %class.vector, ptr %this1, i32 0, i32 0
  %0 = load ptr, ptr %m_data, align 8
  %arrayidx = getelementptr inbounds i32, ptr %0, i64 -1
  %1 = load i32, ptr %arrayidx, align 4
  %dec = add i32 %1, -1
  store i32 %dec, ptr %arrayidx, align 4
  ret void
}

; Function Attrs: mustprogress uwtable
define linkonce_odr hidden void @_ZN6bufferIP9func_declLb0ELj16EE9push_backERKS1_(ptr noundef nonnull align 8 dereferenceable(144) %this, ptr noundef nonnull align 8 dereferenceable(8) %elem) #4 comdat align 2 {
entry:
  %this.addr = alloca ptr, align 8
  %elem.addr = alloca ptr, align 8
  store ptr %this, ptr %this.addr, align 8
  store ptr %elem, ptr %elem.addr, align 8
  %this1 = load ptr, ptr %this.addr, align 8
  %m_pos = getelementptr inbounds %class.buffer, ptr %this1, i32 0, i32 1
  %0 = load i32, ptr %m_pos, align 8
  %m_capacity = getelementptr inbounds %class.buffer, ptr %this1, i32 0, i32 2
  %1 = load i32, ptr %m_capacity, align 4
  %cmp = icmp uge i32 %0, %1
  br i1 %cmp, label %if.then, label %if.end

if.then:                                          ; preds = %entry
  call void @_ZN6bufferIP9func_declLb0ELj16EE6expandEv(ptr noundef nonnull align 8 dereferenceable(144) %this1)
  br label %if.end

if.end:                                           ; preds = %if.then, %entry
  %m_buffer = getelementptr inbounds %class.buffer, ptr %this1, i32 0, i32 0
  %2 = load ptr, ptr %m_buffer, align 8
  %m_pos2 = getelementptr inbounds %class.buffer, ptr %this1, i32 0, i32 1
  %3 = load i32, ptr %m_pos2, align 8
  %idx.ext = zext i32 %3 to i64
  %add.ptr = getelementptr inbounds ptr, ptr %2, i64 %idx.ext
  %4 = load ptr, ptr %elem.addr, align 8
  %5 = load ptr, ptr %4, align 8
  store ptr %5, ptr %add.ptr, align 8
  %m_pos3 = getelementptr inbounds %class.buffer, ptr %this1, i32 0, i32 1
  %6 = load i32, ptr %m_pos3, align 8
  %inc = add i32 %6, 1
  store i32 %inc, ptr %m_pos3, align 8
  ret void
}

; Function Attrs: mustprogress nounwind uwtable
define linkonce_odr hidden void @_ZN10ptr_vectorI9func_declED2Ev(ptr noundef nonnull align 8 dereferenceable(8) %this) unnamed_addr #5 comdat align 2 {
entry:
  %this.addr = alloca ptr, align 8
  store ptr %this, ptr %this.addr, align 8
  %this1 = load ptr, ptr %this.addr, align 8
  call void @_ZN6vectorIP9func_declLb0EjED2Ev(ptr noundef nonnull align 8 dereferenceable(8) %this1) #3
  ret void
}

; Function Attrs: mustprogress uwtable
define hidden void @_Z13model_smt2_ppRSoR19ast_printer_contextRK10model_corej(ptr noundef nonnull align 8 dereferenceable(8) %out, ptr noundef nonnull align 8 dereferenceable(8) %ctx, ptr noundef nonnull align 8 dereferenceable(96) %m, i32 noundef %indent) #4 {
entry:
  %out.addr = alloca ptr, align 8
  %ctx.addr = alloca ptr, align 8
  %m.addr = alloca ptr, align 8
  %indent.addr = alloca i32, align 4
  store ptr %out, ptr %out.addr, align 8
  store ptr %ctx, ptr %ctx.addr, align 8
  store ptr %m, ptr %m.addr, align 8
  store i32 %indent, ptr %indent.addr, align 4
  %0 = load ptr, ptr %out.addr, align 8
  %1 = load ptr, ptr %ctx.addr, align 8
  %2 = load ptr, ptr %m.addr, align 8
  %3 = load i32, ptr %indent.addr, align 4
  call void @_ZL17pp_uninterp_sortsRSoR19ast_printer_contextRK10model_corej(ptr noundef nonnull align 8 dereferenceable(8) %0, ptr noundef nonnull align 8 dereferenceable(8) %1, ptr noundef nonnull align 8 dereferenceable(96) %2, i32 noundef %3)
  %4 = load ptr, ptr %out.addr, align 8
  %5 = load ptr, ptr %ctx.addr, align 8
  %6 = load ptr, ptr %m.addr, align 8
  %7 = load i32, ptr %indent.addr, align 4
  call void @_ZL9pp_constsRSoR19ast_printer_contextRK10model_corej(ptr noundef nonnull align 8 dereferenceable(8) %4, ptr noundef nonnull align 8 dereferenceable(8) %5, ptr noundef nonnull align 8 dereferenceable(96) %6, i32 noundef %7)
  %8 = load ptr, ptr %out.addr, align 8
  %9 = load ptr, ptr %ctx.addr, align 8
  %10 = load ptr, ptr %m.addr, align 8
  %11 = load i32, ptr %indent.addr, align 4
  call void @_ZL7pp_funsRSoR19ast_printer_contextRK10model_corej(ptr noundef nonnull align 8 dereferenceable(8) %8, ptr noundef nonnull align 8 dereferenceable(8) %9, ptr noundef nonnull align 8 dereferenceable(96) %10, i32 noundef %11)
  ret void
}

; Function Attrs: mustprogress uwtable
define internal void @_ZL17pp_uninterp_sortsRSoR19ast_printer_contextRK10model_corej(ptr noundef nonnull align 8 dereferenceable(8) %out, ptr noundef nonnull align 8 dereferenceable(8) %ctx, ptr noundef nonnull align 8 dereferenceable(96) %md, i32 noundef %indent) #4 personality ptr @__gxx_personality_v0 {
entry:
  %out.addr = alloca ptr, align 8
  %ctx.addr = alloca ptr, align 8
  %md.addr = alloca ptr, align 8
  %indent.addr = alloca i32, align 4
  %m = alloca ptr, align 8
  %f_conds = alloca %class.ptr_buffer.43, align 8
  %num = alloca i32, align 4
  %exn.slot = alloca ptr, align 8
  %ehselector.slot = alloca i32, align 4
  %i = alloca i32, align 4
  %s = alloca ptr, align 8
  %u = alloca ptr, align 8
  %buffer = alloca %"class.std::__cxx11::basic_ostringstream", align 8
  %__range2 = alloca ptr, align 8
  %__begin2 = alloca ptr, align 8
  %__end2 = alloca ptr, align 8
  %e = alloca ptr, align 8
  %c = alloca ptr, align 8
  %buffer_str = alloca %"class.std::__cxx11::basic_string", align 8
  %len = alloca i32, align 4
  %i47 = alloca i32, align 4
  %c51 = alloca i8, align 1
  %__range271 = alloca ptr, align 8
  %__begin272 = alloca ptr, align 8
  %__end275 = alloca ptr, align 8
  %e81 = alloca ptr, align 8
  %c82 = alloca ptr, align 8
  %len88 = alloca i32, align 4
  %var = alloca ptr, align 8
  %__range2116 = alloca ptr, align 8
  %__begin2117 = alloca ptr, align 8
  %__end2120 = alloca ptr, align 8
  %e126 = alloca ptr, align 8
  %c127 = alloca ptr, align 8
  %csym = alloca %class.symbol, align 8
  %cname = alloca %"class.std::__cxx11::basic_string", align 8
  %ref.tmp = alloca %"class.std::__cxx11::basic_string", align 8
  %ref.tmp141 = alloca %"class.std::__cxx11::basic_string", align 8
  %c_args = alloca [2 x ptr], align 16
  %ref.tmp147 = alloca ptr, align 8
  %ref.tmp148 = alloca ptr, align 8
  %ref.tmp149 = alloca ptr, align 8
  %f_cond = alloca ptr, align 8
  %ref.tmp161 = alloca ptr, align 8
  %ref.tmp164 = alloca ptr, align 8
  %f_s = alloca %class.obj_ref, align 8
  %f_args = alloca [2 x ptr], align 16
  %f_card = alloca %class.obj_ref, align 8
  %ref.tmp198 = alloca ptr, align 8
  %ref.tmp200 = alloca ptr, align 8
  %ref.tmp214 = alloca %class.params_ref, align 8
  store ptr %out, ptr %out.addr, align 8
  store ptr %ctx, ptr %ctx.addr, align 8
  store ptr %md, ptr %md.addr, align 8
  store i32 %indent, ptr %indent.addr, align 4
  %0 = load ptr, ptr %ctx.addr, align 8
  %vtable = load ptr, ptr %0, align 8
  %vfn = getelementptr inbounds ptr, ptr %vtable, i64 10
  %1 = load ptr, ptr %vfn, align 8
  %call = call noundef nonnull align 8 dereferenceable(976) ptr %1(ptr noundef nonnull align 8 dereferenceable(8) %0)
  store ptr %call, ptr %m, align 8
  call void @_ZN10ptr_bufferI3appLj16EEC2Ev(ptr noundef nonnull align 8 dereferenceable(144) %f_conds) #3
  %2 = load ptr, ptr %md.addr, align 8
  %vtable1 = load ptr, ptr %2, align 8
  %vfn2 = getelementptr inbounds ptr, ptr %vtable1, i64 3
  %3 = load ptr, ptr %vfn2, align 8
  %call3 = invoke noundef i32 %3(ptr noundef nonnull align 8 dereferenceable(96) %2)
          to label %invoke.cont unwind label %lpad

invoke.cont:                                      ; preds = %entry
  store i32 %call3, ptr %num, align 4
  store i32 0, ptr %i, align 4
  br label %for.cond

for.cond:                                         ; preds = %for.inc226, %invoke.cont
  %4 = load i32, ptr %i, align 4
  %5 = load i32, ptr %num, align 4
  %cmp = icmp ult i32 %4, %5
  br i1 %cmp, label %for.body, label %for.end228

for.body:                                         ; preds = %for.cond
  %6 = load ptr, ptr %md.addr, align 8
  %7 = load i32, ptr %i, align 4
  %vtable4 = load ptr, ptr %6, align 8
  %vfn5 = getelementptr inbounds ptr, ptr %vtable4, i64 4
  %8 = load ptr, ptr %vfn5, align 8
  %call7 = invoke noundef ptr %8(ptr noundef nonnull align 8 dereferenceable(96) %6, i32 noundef %7)
          to label %invoke.cont6 unwind label %lpad

invoke.cont6:                                     ; preds = %for.body
  store ptr %call7, ptr %s, align 8
  %9 = load ptr, ptr %md.addr, align 8
  %10 = load ptr, ptr %s, align 8
  %vtable8 = load ptr, ptr %9, align 8
  %vfn9 = getelementptr inbounds ptr, ptr %vtable8, i64 2
  %11 = load ptr, ptr %vfn9, align 8
  %call11 = invoke noundef nonnull align 8 dereferenceable(8) ptr %11(ptr noundef nonnull align 8 dereferenceable(96) %9, ptr noundef %10)
          to label %invoke.cont10 unwind label %lpad

invoke.cont10:                                    ; preds = %invoke.cont6
  store ptr %call11, ptr %u, align 8
  invoke void @_ZNSt7__cxx1119basic_ostringstreamIcSt11char_traitsIcESaIcEEC1Ev(ptr noundef nonnull align 8 dereferenceable(112) %buffer)
          to label %invoke.cont12 unwind label %lpad

invoke.cont12:                                    ; preds = %invoke.cont10
  %call15 = invoke noundef nonnull align 8 dereferenceable(8) ptr @_ZStlsISt11char_traitsIcEERSt13basic_ostreamIcT_ES5_PKc(ptr noundef nonnull align 8 dereferenceable(8) %buffer, ptr noundef @.str)
          to label %invoke.cont14 unwind label %lpad13

invoke.cont14:                                    ; preds = %invoke.cont12
  %12 = load ptr, ptr %ctx.addr, align 8
  %13 = load ptr, ptr %s, align 8
  %vtable16 = load ptr, ptr %12, align 8
  %vfn17 = getelementptr inbounds ptr, ptr %vtable16, i64 6
  %14 = load ptr, ptr %vfn17, align 8
  invoke void %14(ptr noundef nonnull align 8 dereferenceable(8) %12, ptr noundef nonnull align 8 dereferenceable(8) %buffer, ptr noundef %13, i32 noundef 13)
          to label %invoke.cont18 unwind label %lpad13

invoke.cont18:                                    ; preds = %invoke.cont14
  %call20 = invoke noundef nonnull align 8 dereferenceable(8) ptr @_ZStlsISt11char_traitsIcEERSt13basic_ostreamIcT_ES5_PKc(ptr noundef nonnull align 8 dereferenceable(8) %buffer, ptr noundef @.str.1)
          to label %invoke.cont19 unwind label %lpad13

invoke.cont19:                                    ; preds = %invoke.cont18
  invoke void @_ZL9pp_indentRSoj(ptr noundef nonnull align 8 dereferenceable(8) %buffer, i32 noundef 2)
          to label %invoke.cont21 unwind label %lpad13

invoke.cont21:                                    ; preds = %invoke.cont19
  %15 = load ptr, ptr %u, align 8
  store ptr %15, ptr %__range2, align 8
  %16 = load ptr, ptr %__range2, align 8
  %call23 = invoke noundef ptr @_ZNK6vectorIP4exprLb0EjE5beginEv(ptr noundef nonnull align 8 dereferenceable(8) %16)
          to label %invoke.cont22 unwind label %lpad13

invoke.cont22:                                    ; preds = %invoke.cont21
  store ptr %call23, ptr %__begin2, align 8
  %17 = load ptr, ptr %__range2, align 8
  %call25 = invoke noundef ptr @_ZNK6vectorIP4exprLb0EjE3endEv(ptr noundef nonnull align 8 dereferenceable(8) %17)
          to label %invoke.cont24 unwind label %lpad13

invoke.cont24:                                    ; preds = %invoke.cont22
  store ptr %call25, ptr %__end2, align 8
  br label %for.cond26

for.cond26:                                       ; preds = %for.inc, %invoke.cont24
  %18 = load ptr, ptr %__begin2, align 8
  %19 = load ptr, ptr %__end2, align 8
  %cmp27 = icmp ne ptr %18, %19
  br i1 %cmp27, label %for.body28, label %for.end

for.body28:                                       ; preds = %for.cond26
  %20 = load ptr, ptr %__begin2, align 8
  %21 = load ptr, ptr %20, align 8
  store ptr %21, ptr %e, align 8
  %22 = load ptr, ptr %e, align 8
  %call30 = invoke noundef ptr @_Z6to_appP3ast(ptr noundef %22)
          to label %invoke.cont29 unwind label %lpad13

invoke.cont29:                                    ; preds = %for.body28
  store ptr %call30, ptr %c, align 8
  %23 = load ptr, ptr %c, align 8
  %call32 = invoke noundef ptr @_ZNK3app8get_declEv(ptr noundef nonnull align 8 dereferenceable(32) %23)
          to label %invoke.cont31 unwind label %lpad13

invoke.cont31:                                    ; preds = %invoke.cont29
  %call34 = invoke noundef nonnull align 8 dereferenceable(8) ptr @_ZNK4decl8get_nameEv(ptr noundef nonnull align 8 dereferenceable(32) %call32)
          to label %invoke.cont33 unwind label %lpad13

invoke.cont33:                                    ; preds = %invoke.cont31
  %call36 = invoke noundef i32 @_ZL9pp_symbolRSoRK6symbol(ptr noundef nonnull align 8 dereferenceable(8) %buffer, ptr noundef nonnull align 8 dereferenceable(8) %call34)
          to label %invoke.cont35 unwind label %lpad13

invoke.cont35:                                    ; preds = %invoke.cont33
  %call38 = invoke noundef nonnull align 8 dereferenceable(8) ptr @_ZStlsISt11char_traitsIcEERSt13basic_ostreamIcT_ES5_PKc(ptr noundef nonnull align 8 dereferenceable(8) %buffer, ptr noundef @.str.2)
          to label %invoke.cont37 unwind label %lpad13

invoke.cont37:                                    ; preds = %invoke.cont35
  br label %for.inc

for.inc:                                          ; preds = %invoke.cont37
  %24 = load ptr, ptr %__begin2, align 8
  %incdec.ptr = getelementptr inbounds ptr, ptr %24, i32 1
  store ptr %incdec.ptr, ptr %__begin2, align 8
  br label %for.cond26

lpad:                                             ; preds = %invoke.cont10, %invoke.cont6, %for.body, %entry
  %25 = landingpad { ptr, i32 }
          cleanup
  %26 = extractvalue { ptr, i32 } %25, 0
  store ptr %26, ptr %exn.slot, align 8
  %27 = extractvalue { ptr, i32 } %25, 1
  store i32 %27, ptr %ehselector.slot, align 4
  br label %ehcleanup229

lpad13:                                           ; preds = %invoke.cont39, %for.end, %invoke.cont35, %invoke.cont33, %invoke.cont31, %invoke.cont29, %for.body28, %invoke.cont22, %invoke.cont21, %invoke.cont19, %invoke.cont18, %invoke.cont14, %invoke.cont12
  %28 = landingpad { ptr, i32 }
          cleanup
  %29 = extractvalue { ptr, i32 } %28, 0
  store ptr %29, ptr %exn.slot, align 8
  %30 = extractvalue { ptr, i32 } %28, 1
  store i32 %30, ptr %ehselector.slot, align 4
  br label %ehcleanup225

for.end:                                          ; preds = %for.cond26
  %call40 = invoke noundef nonnull align 8 dereferenceable(8) ptr @_ZStlsISt11char_traitsIcEERSt13basic_ostreamIcT_ES5_PKc(ptr noundef nonnull align 8 dereferenceable(8) %buffer, ptr noundef @.str.3)
          to label %invoke.cont39 unwind label %lpad13

invoke.cont39:                                    ; preds = %for.end
  invoke void @_ZNKSt7__cxx1119basic_ostringstreamIcSt11char_traitsIcESaIcEE3strEv(ptr sret(%"class.std::__cxx11::basic_string") align 8 %buffer_str, ptr noundef nonnull align 8 dereferenceable(112) %buffer)
          to label %invoke.cont41 unwind label %lpad13

invoke.cont41:                                    ; preds = %invoke.cont39
  %call42 = call noundef i64 @_ZNKSt7__cxx1112basic_stringIcSt11char_traitsIcESaIcEE6lengthEv(ptr noundef nonnull align 8 dereferenceable(32) %buffer_str) #3
  %conv = trunc i64 %call42 to i32
  store i32 %conv, ptr %len, align 4
  %31 = load ptr, ptr %out.addr, align 8
  %32 = load i32, ptr %indent.addr, align 4
  invoke void @_ZL9pp_indentRSoj(ptr noundef nonnull align 8 dereferenceable(8) %31, i32 noundef %32)
          to label %invoke.cont44 unwind label %lpad43

invoke.cont44:                                    ; preds = %invoke.cont41
  %33 = load ptr, ptr %out.addr, align 8
  %call46 = invoke noundef nonnull align 8 dereferenceable(8) ptr @_ZStlsISt11char_traitsIcEERSt13basic_ostreamIcT_ES5_PKc(ptr noundef nonnull align 8 dereferenceable(8) %33, ptr noundef @.str.4)
          to label %invoke.cont45 unwind label %lpad43

invoke.cont45:                                    ; preds = %invoke.cont44
  store i32 0, ptr %i47, align 4
  br label %for.cond48

for.cond48:                                       ; preds = %for.inc64, %invoke.cont45
  %34 = load i32, ptr %i47, align 4
  %35 = load i32, ptr %len, align 4
  %cmp49 = icmp ult i32 %34, %35
  br i1 %cmp49, label %for.body50, label %for.end65

for.body50:                                       ; preds = %for.cond48
  %36 = load i32, ptr %i47, align 4
  %conv52 = zext i32 %36 to i64
  %call54 = invoke noundef nonnull align 1 dereferenceable(1) ptr @_ZNSt7__cxx1112basic_stringIcSt11char_traitsIcESaIcEEixEm(ptr noundef nonnull align 8 dereferenceable(32) %buffer_str, i64 noundef %conv52)
          to label %invoke.cont53 unwind label %lpad43

invoke.cont53:                                    ; preds = %for.body50
  %37 = load i8, ptr %call54, align 1
  store i8 %37, ptr %c51, align 1
  %38 = load i8, ptr %c51, align 1
  %conv55 = sext i8 %38 to i32
  %cmp56 = icmp eq i32 %conv55, 10
  br i1 %cmp56, label %if.then, label %if.else

if.then:                                          ; preds = %invoke.cont53
  %39 = load ptr, ptr %out.addr, align 8
  %call58 = invoke noundef nonnull align 8 dereferenceable(8) ptr @_ZStlsISt11char_traitsIcEERSt13basic_ostreamIcT_ES5_PKc(ptr noundef nonnull align 8 dereferenceable(8) %39, ptr noundef @.str.5)
          to label %invoke.cont57 unwind label %lpad43

invoke.cont57:                                    ; preds = %if.then
  %40 = load ptr, ptr %out.addr, align 8
  %41 = load i32, ptr %indent.addr, align 4
  invoke void @_ZL9pp_indentRSoj(ptr noundef nonnull align 8 dereferenceable(8) %40, i32 noundef %41)
          to label %invoke.cont59 unwind label %lpad43

invoke.cont59:                                    ; preds = %invoke.cont57
  %42 = load ptr, ptr %out.addr, align 8
  %call61 = invoke noundef nonnull align 8 dereferenceable(8) ptr @_ZStlsISt11char_traitsIcEERSt13basic_ostreamIcT_ES5_PKc(ptr noundef nonnull align 8 dereferenceable(8) %42, ptr noundef @.str.4)
          to label %invoke.cont60 unwind label %lpad43

invoke.cont60:                                    ; preds = %invoke.cont59
  br label %if.end

lpad43:                                           ; preds = %invoke.cont174, %if.end173, %if.else170, %invoke.cont165, %invoke.cont162, %if.then160, %for.end156, %invoke.cont130, %invoke.cont128, %for.body125, %invoke.cont118, %invoke.cont114, %invoke.cont113, %invoke.cont111, %invoke.cont110, %for.end109, %invoke.cont104, %invoke.cont99, %invoke.cont97, %invoke.cont95, %invoke.cont93, %invoke.cont91, %invoke.cont89, %invoke.cont86, %invoke.cont85, %invoke.cont83, %for.body80, %invoke.cont73, %invoke.cont69, %invoke.cont68, %invoke.cont66, %for.end65, %if.else, %invoke.cont59, %invoke.cont57, %if.then, %for.body50, %invoke.cont44, %invoke.cont41
  %43 = landingpad { ptr, i32 }
          cleanup
  %44 = extractvalue { ptr, i32 } %43, 0
  store ptr %44, ptr %exn.slot, align 8
  %45 = extractvalue { ptr, i32 } %43, 1
  store i32 %45, ptr %ehselector.slot, align 4
  br label %ehcleanup224

if.else:                                          ; preds = %invoke.cont53
  %46 = load ptr, ptr %out.addr, align 8
  %47 = load i8, ptr %c51, align 1
  %call63 = invoke noundef nonnull align 8 dereferenceable(8) ptr @_ZStlsISt11char_traitsIcEERSt13basic_ostreamIcT_ES5_c(ptr noundef nonnull align 8 dereferenceable(8) %46, i8 noundef signext %47)
          to label %invoke.cont62 unwind label %lpad43

invoke.cont62:                                    ; preds = %if.else
  br label %if.end

if.end:                                           ; preds = %invoke.cont62, %invoke.cont60
  br label %for.inc64

for.inc64:                                        ; preds = %if.end
  %48 = load i32, ptr %i47, align 4
  %inc = add i32 %48, 1
  store i32 %inc, ptr %i47, align 4
  br label %for.cond48, !llvm.loop !7

for.end65:                                        ; preds = %for.cond48
  %49 = load ptr, ptr %out.addr, align 8
  %call67 = invoke noundef nonnull align 8 dereferenceable(8) ptr @_ZStlsISt11char_traitsIcEERSt13basic_ostreamIcT_ES5_PKc(ptr noundef nonnull align 8 dereferenceable(8) %49, ptr noundef @.str.5)
          to label %invoke.cont66 unwind label %lpad43

invoke.cont66:                                    ; preds = %for.end65
  %50 = load ptr, ptr %out.addr, align 8
  %51 = load i32, ptr %indent.addr, align 4
  invoke void @_ZL9pp_indentRSoj(ptr noundef nonnull align 8 dereferenceable(8) %50, i32 noundef %51)
          to label %invoke.cont68 unwind label %lpad43

invoke.cont68:                                    ; preds = %invoke.cont66
  %52 = load ptr, ptr %out.addr, align 8
  %call70 = invoke noundef nonnull align 8 dereferenceable(8) ptr @_ZStlsISt11char_traitsIcEERSt13basic_ostreamIcT_ES5_PKc(ptr noundef nonnull align 8 dereferenceable(8) %52, ptr noundef @.str.6)
          to label %invoke.cont69 unwind label %lpad43

invoke.cont69:                                    ; preds = %invoke.cont68
  %53 = load ptr, ptr %u, align 8
  store ptr %53, ptr %__range271, align 8
  %54 = load ptr, ptr %__range271, align 8
  %call74 = invoke noundef ptr @_ZNK6vectorIP4exprLb0EjE5beginEv(ptr noundef nonnull align 8 dereferenceable(8) %54)
          to label %invoke.cont73 unwind label %lpad43

invoke.cont73:                                    ; preds = %invoke.cont69
  store ptr %call74, ptr %__begin272, align 8
  %55 = load ptr, ptr %__range271, align 8
  %call77 = invoke noundef ptr @_ZNK6vectorIP4exprLb0EjE3endEv(ptr noundef nonnull align 8 dereferenceable(8) %55)
          to label %invoke.cont76 unwind label %lpad43

invoke.cont76:                                    ; preds = %invoke.cont73
  store ptr %call77, ptr %__end275, align 8
  br label %for.cond78

for.cond78:                                       ; preds = %for.inc107, %invoke.cont76
  %56 = load ptr, ptr %__begin272, align 8
  %57 = load ptr, ptr %__end275, align 8
  %cmp79 = icmp ne ptr %56, %57
  br i1 %cmp79, label %for.body80, label %for.end109

for.body80:                                       ; preds = %for.cond78
  %58 = load ptr, ptr %__begin272, align 8
  %59 = load ptr, ptr %58, align 8
  store ptr %59, ptr %e81, align 8
  %60 = load ptr, ptr %e81, align 8
  %call84 = invoke noundef ptr @_Z6to_appP3ast(ptr noundef %60)
          to label %invoke.cont83 unwind label %lpad43

invoke.cont83:                                    ; preds = %for.body80
  store ptr %call84, ptr %c82, align 8
  %61 = load ptr, ptr %out.addr, align 8
  %62 = load i32, ptr %indent.addr, align 4
  invoke void @_ZL9pp_indentRSoj(ptr noundef nonnull align 8 dereferenceable(8) %61, i32 noundef %62)
          to label %invoke.cont85 unwind label %lpad43

invoke.cont85:                                    ; preds = %invoke.cont83
  %63 = load ptr, ptr %out.addr, align 8
  %call87 = invoke noundef nonnull align 8 dereferenceable(8) ptr @_ZStlsISt11char_traitsIcEERSt13basic_ostreamIcT_ES5_PKc(ptr noundef nonnull align 8 dereferenceable(8) %63, ptr noundef @.str.7)
          to label %invoke.cont86 unwind label %lpad43

invoke.cont86:                                    ; preds = %invoke.cont85
  %64 = load ptr, ptr %out.addr, align 8
  %65 = load ptr, ptr %c82, align 8
  %call90 = invoke noundef ptr @_ZNK3app8get_declEv(ptr noundef nonnull align 8 dereferenceable(32) %65)
          to label %invoke.cont89 unwind label %lpad43

invoke.cont89:                                    ; preds = %invoke.cont86
  %call92 = invoke noundef nonnull align 8 dereferenceable(8) ptr @_ZNK4decl8get_nameEv(ptr noundef nonnull align 8 dereferenceable(32) %call90)
          to label %invoke.cont91 unwind label %lpad43

invoke.cont91:                                    ; preds = %invoke.cont89
  %call94 = invoke noundef i32 @_ZL9pp_symbolRSoRK6symbol(ptr noundef nonnull align 8 dereferenceable(8) %64, ptr noundef nonnull align 8 dereferenceable(8) %call92)
          to label %invoke.cont93 unwind label %lpad43

invoke.cont93:                                    ; preds = %invoke.cont91
  store i32 %call94, ptr %len88, align 4
  %66 = load ptr, ptr %out.addr, align 8
  %call96 = invoke noundef nonnull align 8 dereferenceable(8) ptr @_ZStlsISt11char_traitsIcEERSt13basic_ostreamIcT_ES5_PKc(ptr noundef nonnull align 8 dereferenceable(8) %66, ptr noundef @.str.8)
          to label %invoke.cont95 unwind label %lpad43

invoke.cont95:                                    ; preds = %invoke.cont93
  %67 = load ptr, ptr %ctx.addr, align 8
  %68 = load ptr, ptr %out.addr, align 8
  %69 = load ptr, ptr %c82, align 8
  %call98 = invoke noundef ptr @_ZNK3app8get_declEv(ptr noundef nonnull align 8 dereferenceable(32) %69)
          to label %invoke.cont97 unwind label %lpad43

invoke.cont97:                                    ; preds = %invoke.cont95
  %call100 = invoke noundef ptr @_ZNK9func_decl9get_rangeEv(ptr noundef nonnull align 8 dereferenceable(48) %call98)
          to label %invoke.cont99 unwind label %lpad43

invoke.cont99:                                    ; preds = %invoke.cont97
  %70 = load i32, ptr %indent.addr, align 4
  %71 = load i32, ptr %len88, align 4
  %add = add i32 %70, %71
  %add101 = add i32 %add, 16
  %vtable102 = load ptr, ptr %67, align 8
  %vfn103 = getelementptr inbounds ptr, ptr %vtable102, i64 6
  %72 = load ptr, ptr %vfn103, align 8
  invoke void %72(ptr noundef nonnull align 8 dereferenceable(8) %67, ptr noundef nonnull align 8 dereferenceable(8) %68, ptr noundef %call100, i32 noundef %add101)
          to label %invoke.cont104 unwind label %lpad43

invoke.cont104:                                   ; preds = %invoke.cont99
  %73 = load ptr, ptr %out.addr, align 8
  %call106 = invoke noundef nonnull align 8 dereferenceable(8) ptr @_ZStlsISt11char_traitsIcEERSt13basic_ostreamIcT_ES5_PKc(ptr noundef nonnull align 8 dereferenceable(8) %73, ptr noundef @.str.9)
          to label %invoke.cont105 unwind label %lpad43

invoke.cont105:                                   ; preds = %invoke.cont104
  br label %for.inc107

for.inc107:                                       ; preds = %invoke.cont105
  %74 = load ptr, ptr %__begin272, align 8
  %incdec.ptr108 = getelementptr inbounds ptr, ptr %74, i32 1
  store ptr %incdec.ptr108, ptr %__begin272, align 8
  br label %for.cond78

for.end109:                                       ; preds = %for.cond78
  %75 = load ptr, ptr %out.addr, align 8
  %76 = load i32, ptr %indent.addr, align 4
  invoke void @_ZL9pp_indentRSoj(ptr noundef nonnull align 8 dereferenceable(8) %75, i32 noundef %76)
          to label %invoke.cont110 unwind label %lpad43

invoke.cont110:                                   ; preds = %for.end109
  %77 = load ptr, ptr %out.addr, align 8
  %call112 = invoke noundef nonnull align 8 dereferenceable(8) ptr @_ZStlsISt11char_traitsIcEERSt13basic_ostreamIcT_ES5_PKc(ptr noundef nonnull align 8 dereferenceable(8) %77, ptr noundef @.str.10)
          to label %invoke.cont111 unwind label %lpad43

invoke.cont111:                                   ; preds = %invoke.cont110
  invoke void @_ZN6bufferIP3appLb0ELj16EE5resetEv(ptr noundef nonnull align 8 dereferenceable(144) %f_conds)
          to label %invoke.cont113 unwind label %lpad43

invoke.cont113:                                   ; preds = %invoke.cont111
  %78 = load ptr, ptr %m, align 8
  %call115 = invoke noundef ptr @_ZN9format_ns9mk_stringER11ast_managerPKc(ptr noundef nonnull align 8 dereferenceable(976) %78, ptr noundef @.str.11)
          to label %invoke.cont114 unwind label %lpad43

invoke.cont114:                                   ; preds = %invoke.cont113
  store ptr %call115, ptr %var, align 8
  %79 = load ptr, ptr %u, align 8
  store ptr %79, ptr %__range2116, align 8
  %80 = load ptr, ptr %__range2116, align 8
  %call119 = invoke noundef ptr @_ZNK6vectorIP4exprLb0EjE5beginEv(ptr noundef nonnull align 8 dereferenceable(8) %80)
          to label %invoke.cont118 unwind label %lpad43

invoke.cont118:                                   ; preds = %invoke.cont114
  store ptr %call119, ptr %__begin2117, align 8
  %81 = load ptr, ptr %__range2116, align 8
  %call122 = invoke noundef ptr @_ZNK6vectorIP4exprLb0EjE3endEv(ptr noundef nonnull align 8 dereferenceable(8) %81)
          to label %invoke.cont121 unwind label %lpad43

invoke.cont121:                                   ; preds = %invoke.cont118
  store ptr %call122, ptr %__end2120, align 8
  br label %for.cond123

for.cond123:                                      ; preds = %for.inc154, %invoke.cont121
  %82 = load ptr, ptr %__begin2117, align 8
  %83 = load ptr, ptr %__end2120, align 8
  %cmp124 = icmp ne ptr %82, %83
  br i1 %cmp124, label %for.body125, label %for.end156

for.body125:                                      ; preds = %for.cond123
  %84 = load ptr, ptr %__begin2117, align 8
  %85 = load ptr, ptr %84, align 8
  store ptr %85, ptr %e126, align 8
  %86 = load ptr, ptr %e126, align 8
  %call129 = invoke noundef ptr @_Z6to_appP3ast(ptr noundef %86)
          to label %invoke.cont128 unwind label %lpad43

invoke.cont128:                                   ; preds = %for.body125
  store ptr %call129, ptr %c127, align 8
  %87 = load ptr, ptr %c127, align 8
  %call131 = invoke noundef ptr @_ZNK3app8get_declEv(ptr noundef nonnull align 8 dereferenceable(32) %87)
          to label %invoke.cont130 unwind label %lpad43

invoke.cont130:                                   ; preds = %invoke.cont128
  %call133 = invoke noundef nonnull align 8 dereferenceable(8) ptr @_ZNK4decl8get_nameEv(ptr noundef nonnull align 8 dereferenceable(32) %call131)
          to label %invoke.cont132 unwind label %lpad43

invoke.cont132:                                   ; preds = %invoke.cont130
  call void @llvm.memcpy.p0.p0.i64(ptr align 8 %csym, ptr align 8 %call133, i64 8, i1 false)
  call void @_ZNSt7__cxx1112basic_stringIcSt11char_traitsIcESaIcEEC1Ev(ptr noundef nonnull align 8 dereferenceable(32) %cname) #3
  %call136 = invoke noundef zeroext i1 @_Z21is_smt2_quoted_symbolRK6symbol(ptr noundef nonnull align 8 dereferenceable(8) %csym)
          to label %invoke.cont135 unwind label %lpad134

invoke.cont135:                                   ; preds = %invoke.cont132
  br i1 %call136, label %if.then137, label %if.else140

if.then137:                                       ; preds = %invoke.cont135
  invoke void @_Z21mk_smt2_quoted_symbolB5cxx11RK6symbol(ptr sret(%"class.std::__cxx11::basic_string") align 8 %ref.tmp, ptr noundef nonnull align 8 dereferenceable(8) %csym)
          to label %invoke.cont138 unwind label %lpad134

invoke.cont138:                                   ; preds = %if.then137
  %call139 = call noundef nonnull align 8 dereferenceable(32) ptr @_ZNSt7__cxx1112basic_stringIcSt11char_traitsIcESaIcEEaSEOS4_(ptr noundef nonnull align 8 dereferenceable(32) %cname, ptr noundef nonnull align 8 dereferenceable(32) %ref.tmp) #3
  call void @_ZNSt7__cxx1112basic_stringIcSt11char_traitsIcESaIcEED1Ev(ptr noundef nonnull align 8 dereferenceable(32) %ref.tmp) #3
  br label %if.end144

lpad134:                                          ; preds = %invoke.cont151, %invoke.cont145, %if.end144, %if.else140, %if.then137, %invoke.cont132
  %88 = landingpad { ptr, i32 }
          cleanup
  %89 = extractvalue { ptr, i32 } %88, 0
  store ptr %89, ptr %exn.slot, align 8
  %90 = extractvalue { ptr, i32 } %88, 1
  store i32 %90, ptr %ehselector.slot, align 4
  call void @_ZNSt7__cxx1112basic_stringIcSt11char_traitsIcESaIcEED1Ev(ptr noundef nonnull align 8 dereferenceable(32) %cname) #3
  br label %ehcleanup224

if.else140:                                       ; preds = %invoke.cont135
  invoke void @_ZNK6symbol3strB5cxx11Ev(ptr sret(%"class.std::__cxx11::basic_string") align 8 %ref.tmp141, ptr noundef nonnull align 8 dereferenceable(8) %csym)
          to label %invoke.cont142 unwind label %lpad134

invoke.cont142:                                   ; preds = %if.else140
  %call143 = call noundef nonnull align 8 dereferenceable(32) ptr @_ZNSt7__cxx1112basic_stringIcSt11char_traitsIcESaIcEEaSEOS4_(ptr noundef nonnull align 8 dereferenceable(32) %cname, ptr noundef nonnull align 8 dereferenceable(32) %ref.tmp141) #3
  call void @_ZNSt7__cxx1112basic_stringIcSt11char_traitsIcESaIcEED1Ev(ptr noundef nonnull align 8 dereferenceable(32) %ref.tmp141) #3
  br label %if.end144

if.end144:                                        ; preds = %invoke.cont142, %invoke.cont138
  %arrayinit.begin = getelementptr inbounds [2 x ptr], ptr %c_args, i64 0, i64 0
  %91 = load ptr, ptr %var, align 8
  store ptr %91, ptr %arrayinit.begin, align 8
  %arrayinit.element = getelementptr inbounds ptr, ptr %arrayinit.begin, i64 1
  %92 = load ptr, ptr %m, align 8
  %call146 = invoke noundef ptr @_ZN9format_nsL9mk_stringER11ast_managerRKNSt7__cxx1112basic_stringIcSt11char_traitsIcESaIcEEE(ptr noundef nonnull align 8 dereferenceable(976) %92, ptr noundef nonnull align 8 dereferenceable(32) %cname)
          to label %invoke.cont145 unwind label %lpad134

invoke.cont145:                                   ; preds = %if.end144
  store ptr %call146, ptr %arrayinit.element, align 8
  %93 = load ptr, ptr %m, align 8
  %arraydecay = getelementptr inbounds [2 x ptr], ptr %c_args, i64 0, i64 0
  store ptr %arraydecay, ptr %ref.tmp148, align 8
  %arraydecay150 = getelementptr inbounds [2 x ptr], ptr %c_args, i64 0, i64 0
  %add.ptr = getelementptr inbounds ptr, ptr %arraydecay150, i64 2
  store ptr %add.ptr, ptr %ref.tmp149, align 8
  %call152 = invoke noundef ptr @_ZN9format_ns7mk_seq1IPP3appNS_3f2fEEES2_R11ast_managerRKT_S9_T0_PKcSC_SC_(ptr noundef nonnull align 8 dereferenceable(976) %93, ptr noundef nonnull align 8 dereferenceable(8) %ref.tmp148, ptr noundef nonnull align 8 dereferenceable(8) %ref.tmp149, ptr noundef @.str.12, ptr noundef @.str.13, ptr noundef @.str.14)
          to label %invoke.cont151 unwind label %lpad134

invoke.cont151:                                   ; preds = %invoke.cont145
  store ptr %call152, ptr %ref.tmp147, align 8
  invoke void @_ZN6bufferIP3appLb0ELj16EE9push_backEOS1_(ptr noundef nonnull align 8 dereferenceable(144) %f_conds, ptr noundef nonnull align 8 dereferenceable(8) %ref.tmp147)
          to label %invoke.cont153 unwind label %lpad134

invoke.cont153:                                   ; preds = %invoke.cont151
  call void @_ZNSt7__cxx1112basic_stringIcSt11char_traitsIcESaIcEED1Ev(ptr noundef nonnull align 8 dereferenceable(32) %cname) #3
  br label %for.inc154

for.inc154:                                       ; preds = %invoke.cont153
  %94 = load ptr, ptr %__begin2117, align 8
  %incdec.ptr155 = getelementptr inbounds ptr, ptr %94, i32 1
  store ptr %incdec.ptr155, ptr %__begin2117, align 8
  br label %for.cond123

for.end156:                                       ; preds = %for.cond123
  %call158 = invoke noundef i32 @_ZNK6bufferIP3appLb0ELj16EE4sizeEv(ptr noundef nonnull align 8 dereferenceable(144) %f_conds)
          to label %invoke.cont157 unwind label %lpad43

invoke.cont157:                                   ; preds = %for.end156
  %cmp159 = icmp ugt i32 %call158, 1
  br i1 %cmp159, label %if.then160, label %if.else170

if.then160:                                       ; preds = %invoke.cont157
  %95 = load ptr, ptr %m, align 8
  %call163 = invoke noundef ptr @_ZN6bufferIP3appLb0ELj16EE5beginEv(ptr noundef nonnull align 8 dereferenceable(144) %f_conds)
          to label %invoke.cont162 unwind label %lpad43

invoke.cont162:                                   ; preds = %if.then160
  store ptr %call163, ptr %ref.tmp161, align 8
  %call166 = invoke noundef ptr @_ZN6bufferIP3appLb0ELj16EE3endEv(ptr noundef nonnull align 8 dereferenceable(144) %f_conds)
          to label %invoke.cont165 unwind label %lpad43

invoke.cont165:                                   ; preds = %invoke.cont162
  store ptr %call166, ptr %ref.tmp164, align 8
  %call169 = invoke noundef ptr @_ZN9format_ns7mk_seq1IPP3appNS_3f2fEEES2_R11ast_managerRKT_S9_T0_PKcSC_SC_(ptr noundef nonnull align 8 dereferenceable(976) %95, ptr noundef nonnull align 8 dereferenceable(8) %ref.tmp161, ptr noundef nonnull align 8 dereferenceable(8) %ref.tmp164, ptr noundef @.str.15, ptr noundef @.str.13, ptr noundef @.str.14)
          to label %invoke.cont168 unwind label %lpad43

invoke.cont168:                                   ; preds = %invoke.cont165
  store ptr %call169, ptr %f_cond, align 8
  br label %if.end173

if.else170:                                       ; preds = %invoke.cont157
  %call172 = invoke noundef nonnull align 8 dereferenceable(8) ptr @_ZN6bufferIP3appLb0ELj16EEixEj(ptr noundef nonnull align 8 dereferenceable(144) %f_conds, i32 noundef 0)
          to label %invoke.cont171 unwind label %lpad43

invoke.cont171:                                   ; preds = %if.else170
  %96 = load ptr, ptr %call172, align 8
  store ptr %96, ptr %f_cond, align 8
  br label %if.end173

if.end173:                                        ; preds = %invoke.cont171, %invoke.cont168
  %97 = load ptr, ptr %m, align 8
  %call175 = invoke noundef nonnull align 8 dereferenceable(976) ptr @_ZN9format_ns2fmER11ast_manager(ptr noundef nonnull align 8 dereferenceable(976) %97)
          to label %invoke.cont174 unwind label %lpad43

invoke.cont174:                                   ; preds = %if.end173
  invoke void @_ZN7obj_refI3app11ast_managerEC2ERS1_(ptr noundef nonnull align 8 dereferenceable(16) %f_s, ptr noundef nonnull align 8 dereferenceable(976) %call175)
          to label %invoke.cont176 unwind label %lpad43

invoke.cont176:                                   ; preds = %invoke.cont174
  %98 = load ptr, ptr %ctx.addr, align 8
  %99 = load ptr, ptr %s, align 8
  %vtable177 = load ptr, ptr %98, align 8
  %vfn178 = getelementptr inbounds ptr, ptr %vtable177, i64 2
  %100 = load ptr, ptr %vfn178, align 8
  invoke void %100(ptr noundef nonnull align 8 dereferenceable(8) %98, ptr noundef %99, ptr noundef nonnull align 8 dereferenceable(16) %f_s)
          to label %invoke.cont180 unwind label %lpad179

invoke.cont180:                                   ; preds = %invoke.cont176
  %arrayinit.begin181 = getelementptr inbounds [2 x ptr], ptr %f_args, i64 0, i64 0
  %101 = load ptr, ptr %m, align 8
  %102 = load ptr, ptr %m, align 8
  %call183 = invoke noundef ptr @_ZN9format_ns9mk_stringER11ast_managerPKc(ptr noundef nonnull align 8 dereferenceable(976) %102, ptr noundef @.str.16)
          to label %invoke.cont182 unwind label %lpad179

invoke.cont182:                                   ; preds = %invoke.cont180
  %103 = load ptr, ptr %m, align 8
  %104 = load ptr, ptr %m, align 8
  %call185 = invoke noundef ptr @_ZNK7obj_refI3app11ast_managerE3getEv(ptr noundef nonnull align 8 dereferenceable(16) %f_s)
          to label %invoke.cont184 unwind label %lpad179

invoke.cont184:                                   ; preds = %invoke.cont182
  %105 = load ptr, ptr %m, align 8
  %call187 = invoke noundef ptr @_ZN9format_ns9mk_stringER11ast_managerPKc(ptr noundef nonnull align 8 dereferenceable(976) %105, ptr noundef @.str.17)
          to label %invoke.cont186 unwind label %lpad179

invoke.cont186:                                   ; preds = %invoke.cont184
  %call189 = invoke noundef ptr @_ZN9format_ns10mk_composeER11ast_managerP3appS3_(ptr noundef nonnull align 8 dereferenceable(976) %104, ptr noundef %call185, ptr noundef %call187)
          to label %invoke.cont188 unwind label %lpad179

invoke.cont188:                                   ; preds = %invoke.cont186
  %call191 = invoke noundef ptr @_ZN9format_ns9mk_indentER11ast_managerjP3app(ptr noundef nonnull align 8 dereferenceable(976) %103, i32 noundef 4, ptr noundef %call189)
          to label %invoke.cont190 unwind label %lpad179

invoke.cont190:                                   ; preds = %invoke.cont188
  %call193 = invoke noundef ptr @_ZN9format_ns10mk_composeER11ast_managerP3appS3_(ptr noundef nonnull align 8 dereferenceable(976) %101, ptr noundef %call183, ptr noundef %call191)
          to label %invoke.cont192 unwind label %lpad179

invoke.cont192:                                   ; preds = %invoke.cont190
  store ptr %call193, ptr %arrayinit.begin181, align 8
  %arrayinit.element194 = getelementptr inbounds ptr, ptr %arrayinit.begin181, i64 1
  %106 = load ptr, ptr %f_cond, align 8
  store ptr %106, ptr %arrayinit.element194, align 8
  %107 = load ptr, ptr %m, align 8
  %call196 = invoke noundef nonnull align 8 dereferenceable(976) ptr @_ZN9format_ns2fmER11ast_manager(ptr noundef nonnull align 8 dereferenceable(976) %107)
          to label %invoke.cont195 unwind label %lpad179

invoke.cont195:                                   ; preds = %invoke.cont192
  invoke void @_ZN7obj_refI3app11ast_managerEC2ERS1_(ptr noundef nonnull align 8 dereferenceable(16) %f_card, ptr noundef nonnull align 8 dereferenceable(976) %call196)
          to label %invoke.cont197 unwind label %lpad179

invoke.cont197:                                   ; preds = %invoke.cont195
  %108 = load ptr, ptr %m, align 8
  %109 = load i32, ptr %indent.addr, align 4
  %110 = load ptr, ptr %m, align 8
  %arraydecay199 = getelementptr inbounds [2 x ptr], ptr %f_args, i64 0, i64 0
  store ptr %arraydecay199, ptr %ref.tmp198, align 8
  %arraydecay201 = getelementptr inbounds [2 x ptr], ptr %f_args, i64 0, i64 0
  %add.ptr202 = getelementptr inbounds ptr, ptr %arraydecay201, i64 2
  store ptr %add.ptr202, ptr %ref.tmp200, align 8
  %call206 = invoke noundef ptr @_ZN9format_ns7mk_seq1IPP3appNS_3f2fEEES2_R11ast_managerRKT_S9_T0_PKcSC_SC_(ptr noundef nonnull align 8 dereferenceable(976) %110, ptr noundef nonnull align 8 dereferenceable(8) %ref.tmp198, ptr noundef nonnull align 8 dereferenceable(8) %ref.tmp200, ptr noundef @.str.18, ptr noundef @.str.13, ptr noundef @.str.14)
          to label %invoke.cont205 unwind label %lpad204

invoke.cont205:                                   ; preds = %invoke.cont197
  %call208 = invoke noundef ptr @_ZN9format_ns9mk_indentER11ast_managerjP3app(ptr noundef nonnull align 8 dereferenceable(976) %108, i32 noundef %109, ptr noundef %call206)
          to label %invoke.cont207 unwind label %lpad204

invoke.cont207:                                   ; preds = %invoke.cont205
  %call210 = invoke noundef nonnull align 8 dereferenceable(16) ptr @_ZN7obj_refI3app11ast_managerEaSEPS0_(ptr noundef nonnull align 8 dereferenceable(16) %f_card, ptr noundef %call208)
          to label %invoke.cont209 unwind label %lpad204

invoke.cont209:                                   ; preds = %invoke.cont207
  %111 = load ptr, ptr %out.addr, align 8
  %112 = load i32, ptr %indent.addr, align 4
  invoke void @_ZL9pp_indentRSoj(ptr noundef nonnull align 8 dereferenceable(8) %111, i32 noundef %112)
          to label %invoke.cont211 unwind label %lpad204

invoke.cont211:                                   ; preds = %invoke.cont209
  %113 = load ptr, ptr %out.addr, align 8
  %call213 = invoke noundef ptr @_ZNK7obj_refI3app11ast_managerEcvPS0_Ev(ptr noundef nonnull align 8 dereferenceable(16) %f_card)
          to label %invoke.cont212 unwind label %lpad204

invoke.cont212:                                   ; preds = %invoke.cont211
  %114 = load ptr, ptr %m, align 8
  invoke void @_ZN10params_refC2Ev(ptr noundef nonnull align 8 dereferenceable(8) %ref.tmp214)
          to label %invoke.cont215 unwind label %lpad204

invoke.cont215:                                   ; preds = %invoke.cont212
  invoke void @_Z2ppRSoP3appR11ast_managerRK10params_ref(ptr noundef nonnull align 8 dereferenceable(8) %113, ptr noundef %call213, ptr noundef nonnull align 8 dereferenceable(976) %114, ptr noundef nonnull align 8 dereferenceable(8) %ref.tmp214)
          to label %invoke.cont217 unwind label %lpad216

invoke.cont217:                                   ; preds = %invoke.cont215
  call void @_ZN10params_refD1Ev(ptr noundef nonnull align 8 dereferenceable(8) %ref.tmp214) #3
  %115 = load ptr, ptr %out.addr, align 8
  %call219 = invoke noundef nonnull align 8 dereferenceable(8) ptr @_ZStlsISt11char_traitsIcEERSt13basic_ostreamIcT_ES5_PKc(ptr noundef nonnull align 8 dereferenceable(8) %115, ptr noundef @.str.5)
          to label %invoke.cont218 unwind label %lpad204

invoke.cont218:                                   ; preds = %invoke.cont217
  %116 = load ptr, ptr %out.addr, align 8
  %117 = load i32, ptr %indent.addr, align 4
  invoke void @_ZL9pp_indentRSoj(ptr noundef nonnull align 8 dereferenceable(8) %116, i32 noundef %117)
          to label %invoke.cont220 unwind label %lpad204

invoke.cont220:                                   ; preds = %invoke.cont218
  %118 = load ptr, ptr %out.addr, align 8
  %call222 = invoke noundef nonnull align 8 dereferenceable(8) ptr @_ZStlsISt11char_traitsIcEERSt13basic_ostreamIcT_ES5_PKc(ptr noundef nonnull align 8 dereferenceable(8) %118, ptr noundef @.str.19)
          to label %invoke.cont221 unwind label %lpad204

invoke.cont221:                                   ; preds = %invoke.cont220
  call void @_ZN7obj_refI3app11ast_managerED2Ev(ptr noundef nonnull align 8 dereferenceable(16) %f_card) #3
  call void @_ZN7obj_refI3app11ast_managerED2Ev(ptr noundef nonnull align 8 dereferenceable(16) %f_s) #3
  call void @_ZNSt7__cxx1112basic_stringIcSt11char_traitsIcESaIcEED1Ev(ptr noundef nonnull align 8 dereferenceable(32) %buffer_str) #3
  call void @_ZNSt7__cxx1119basic_ostringstreamIcSt11char_traitsIcESaIcEED1Ev(ptr noundef nonnull align 8 dereferenceable(112) %buffer) #3
  br label %for.inc226

for.inc226:                                       ; preds = %invoke.cont221
  %119 = load i32, ptr %i, align 4
  %inc227 = add i32 %119, 1
  store i32 %inc227, ptr %i, align 4
  br label %for.cond, !llvm.loop !8

lpad179:                                          ; preds = %invoke.cont195, %invoke.cont192, %invoke.cont190, %invoke.cont188, %invoke.cont186, %invoke.cont184, %invoke.cont182, %invoke.cont180, %invoke.cont176
  %120 = landingpad { ptr, i32 }
          cleanup
  %121 = extractvalue { ptr, i32 } %120, 0
  store ptr %121, ptr %exn.slot, align 8
  %122 = extractvalue { ptr, i32 } %120, 1
  store i32 %122, ptr %ehselector.slot, align 4
  br label %ehcleanup223

lpad204:                                          ; preds = %invoke.cont220, %invoke.cont218, %invoke.cont217, %invoke.cont212, %invoke.cont211, %invoke.cont209, %invoke.cont207, %invoke.cont205, %invoke.cont197
  %123 = landingpad { ptr, i32 }
          cleanup
  %124 = extractvalue { ptr, i32 } %123, 0
  store ptr %124, ptr %exn.slot, align 8
  %125 = extractvalue { ptr, i32 } %123, 1
  store i32 %125, ptr %ehselector.slot, align 4
  br label %ehcleanup

lpad216:                                          ; preds = %invoke.cont215
  %126 = landingpad { ptr, i32 }
          cleanup
  %127 = extractvalue { ptr, i32 } %126, 0
  store ptr %127, ptr %exn.slot, align 8
  %128 = extractvalue { ptr, i32 } %126, 1
  store i32 %128, ptr %ehselector.slot, align 4
  call void @_ZN10params_refD1Ev(ptr noundef nonnull align 8 dereferenceable(8) %ref.tmp214) #3
  br label %ehcleanup

ehcleanup:                                        ; preds = %lpad216, %lpad204
  call void @_ZN7obj_refI3app11ast_managerED2Ev(ptr noundef nonnull align 8 dereferenceable(16) %f_card) #3
  br label %ehcleanup223

ehcleanup223:                                     ; preds = %ehcleanup, %lpad179
  call void @_ZN7obj_refI3app11ast_managerED2Ev(ptr noundef nonnull align 8 dereferenceable(16) %f_s) #3
  br label %ehcleanup224

ehcleanup224:                                     ; preds = %ehcleanup223, %lpad134, %lpad43
  call void @_ZNSt7__cxx1112basic_stringIcSt11char_traitsIcESaIcEED1Ev(ptr noundef nonnull align 8 dereferenceable(32) %buffer_str) #3
  br label %ehcleanup225

ehcleanup225:                                     ; preds = %ehcleanup224, %lpad13
  call void @_ZNSt7__cxx1119basic_ostringstreamIcSt11char_traitsIcESaIcEED1Ev(ptr noundef nonnull align 8 dereferenceable(112) %buffer) #3
  br label %ehcleanup229

for.end228:                                       ; preds = %for.cond
  call void @_ZN10ptr_bufferI3appLj16EED2Ev(ptr noundef nonnull align 8 dereferenceable(144) %f_conds) #3
  ret void

ehcleanup229:                                     ; preds = %ehcleanup225, %lpad
  call void @_ZN10ptr_bufferI3appLj16EED2Ev(ptr noundef nonnull align 8 dereferenceable(144) %f_conds) #3
  br label %eh.resume

eh.resume:                                        ; preds = %ehcleanup229
  %exn = load ptr, ptr %exn.slot, align 8
  %sel = load i32, ptr %ehselector.slot, align 4
  %lpad.val = insertvalue { ptr, i32 } poison, ptr %exn, 0
  %lpad.val230 = insertvalue { ptr, i32 } %lpad.val, i32 %sel, 1
  resume { ptr, i32 } %lpad.val230
}

; Function Attrs: mustprogress uwtable
define internal void @_ZL9pp_constsRSoR19ast_printer_contextRK10model_corej(ptr noundef nonnull align 8 dereferenceable(8) %out, ptr noundef nonnull align 8 dereferenceable(8) %ctx, ptr noundef nonnull align 8 dereferenceable(96) %md, i32 noundef %indent) #4 {
entry:
  %out.addr = alloca ptr, align 8
  %ctx.addr = alloca ptr, align 8
  %md.addr = alloca ptr, align 8
  %indent.addr = alloca i32, align 4
  %num = alloca i32, align 4
  %i = alloca i32, align 4
  %c = alloca ptr, align 8
  %c_i = alloca ptr, align 8
  %len = alloca i32, align 4
  store ptr %out, ptr %out.addr, align 8
  store ptr %ctx, ptr %ctx.addr, align 8
  store ptr %md, ptr %md.addr, align 8
  store i32 %indent, ptr %indent.addr, align 4
  %0 = load ptr, ptr %md.addr, align 8
  %call = call noundef i32 @_ZNK10model_core17get_num_constantsEv(ptr noundef nonnull align 8 dereferenceable(96) %0)
  store i32 %call, ptr %num, align 4
  store i32 0, ptr %i, align 4
  br label %for.cond

for.cond:                                         ; preds = %for.inc, %entry
  %1 = load i32, ptr %i, align 4
  %2 = load i32, ptr %num, align 4
  %cmp = icmp ult i32 %1, %2
  br i1 %cmp, label %for.body, label %for.end

for.body:                                         ; preds = %for.cond
  %3 = load ptr, ptr %md.addr, align 8
  %4 = load i32, ptr %i, align 4
  %call1 = call noundef ptr @_ZNK10model_core12get_constantEj(ptr noundef nonnull align 8 dereferenceable(96) %3, i32 noundef %4)
  store ptr %call1, ptr %c, align 8
  %5 = load ptr, ptr %md.addr, align 8
  %6 = load ptr, ptr %c, align 8
  %call2 = call noundef ptr @_ZNK10model_core16get_const_interpEP9func_decl(ptr noundef nonnull align 8 dereferenceable(96) %5, ptr noundef %6)
  store ptr %call2, ptr %c_i, align 8
  %7 = load ptr, ptr %out.addr, align 8
  %8 = load i32, ptr %indent.addr, align 4
  call void @_ZL9pp_indentRSoj(ptr noundef nonnull align 8 dereferenceable(8) %7, i32 noundef %8)
  %9 = load ptr, ptr %out.addr, align 8
  %call3 = call noundef nonnull align 8 dereferenceable(8) ptr @_ZStlsISt11char_traitsIcEERSt13basic_ostreamIcT_ES5_PKc(ptr noundef nonnull align 8 dereferenceable(8) %9, ptr noundef @.str.20)
  %10 = load ptr, ptr %out.addr, align 8
  %11 = load ptr, ptr %c, align 8
  %call4 = call noundef nonnull align 8 dereferenceable(8) ptr @_ZNK4decl8get_nameEv(ptr noundef nonnull align 8 dereferenceable(32) %11)
  %call5 = call noundef i32 @_ZL9pp_symbolRSoRK6symbol(ptr noundef nonnull align 8 dereferenceable(8) %10, ptr noundef nonnull align 8 dereferenceable(8) %call4)
  store i32 %call5, ptr %len, align 4
  %12 = load ptr, ptr %out.addr, align 8
  %call6 = call noundef nonnull align 8 dereferenceable(8) ptr @_ZStlsISt11char_traitsIcEERSt13basic_ostreamIcT_ES5_PKc(ptr noundef nonnull align 8 dereferenceable(8) %12, ptr noundef @.str.8)
  %13 = load ptr, ptr %ctx.addr, align 8
  %14 = load ptr, ptr %out.addr, align 8
  %15 = load ptr, ptr %c, align 8
  %call7 = call noundef ptr @_ZNK9func_decl9get_rangeEv(ptr noundef nonnull align 8 dereferenceable(48) %15)
  %16 = load i32, ptr %indent.addr, align 4
  %17 = load i32, ptr %len, align 4
  %add = add i32 %16, %17
  %add8 = add i32 %add, 16
  %vtable = load ptr, ptr %13, align 8
  %vfn = getelementptr inbounds ptr, ptr %vtable, i64 6
  %18 = load ptr, ptr %vfn, align 8
  call void %18(ptr noundef nonnull align 8 dereferenceable(8) %13, ptr noundef nonnull align 8 dereferenceable(8) %14, ptr noundef %call7, i32 noundef %add8)
  %19 = load ptr, ptr %out.addr, align 8
  %call9 = call noundef nonnull align 8 dereferenceable(8) ptr @_ZStlsISt11char_traitsIcEERSt13basic_ostreamIcT_ES5_PKc(ptr noundef nonnull align 8 dereferenceable(8) %19, ptr noundef @.str.5)
  %20 = load ptr, ptr %out.addr, align 8
  %21 = load i32, ptr %indent.addr, align 4
  %add10 = add i32 %21, 2
  call void @_ZL9pp_indentRSoj(ptr noundef nonnull align 8 dereferenceable(8) %20, i32 noundef %add10)
  %22 = load ptr, ptr %ctx.addr, align 8
  %23 = load ptr, ptr %out.addr, align 8
  %24 = load ptr, ptr %c_i, align 8
  %vtable11 = load ptr, ptr %22, align 8
  %vfn12 = getelementptr inbounds ptr, ptr %vtable11, i64 8
  %25 = load ptr, ptr %vfn12, align 8
  call void %25(ptr noundef nonnull align 8 dereferenceable(8) %22, ptr noundef nonnull align 8 dereferenceable(8) %23, ptr noundef %24, i32 noundef 0)
  %26 = load ptr, ptr %out.addr, align 8
  %call13 = call noundef nonnull align 8 dereferenceable(8) ptr @_ZStlsISt11char_traitsIcEERSt13basic_ostreamIcT_ES5_PKc(ptr noundef nonnull align 8 dereferenceable(8) %26, ptr noundef @.str.9)
  br label %for.inc

for.inc:                                          ; preds = %for.body
  %27 = load i32, ptr %i, align 4
  %inc = add i32 %27, 1
  store i32 %inc, ptr %i, align 4
  br label %for.cond, !llvm.loop !9

for.end:                                          ; preds = %for.cond
  ret void
}

; Function Attrs: mustprogress uwtable
define internal void @_ZL7pp_funsRSoR19ast_printer_contextRK10model_corej(ptr noundef nonnull align 8 dereferenceable(8) %out, ptr noundef nonnull align 8 dereferenceable(8) %ctx, ptr noundef nonnull align 8 dereferenceable(96) %md, i32 noundef %indent) #4 personality ptr @__gxx_personality_v0 {
entry:
  %out.addr = alloca ptr, align 8
  %ctx.addr = alloca ptr, align 8
  %md.addr = alloca ptr, align 8
  %indent.addr = alloca i32, align 4
  %m = alloca ptr, align 8
  %recfun_util = alloca %"class.recfun::util", align 8
  %var_names = alloca %class.sbuffer, align 8
  %exn.slot = alloca ptr, align 8
  %ehselector.slot = alloca i32, align 4
  %f_var_names = alloca %class.ptr_buffer.43, align 8
  %f_arg_decls = alloca %class.ptr_buffer.43, align 8
  %f_entries = alloca %class.ptr_buffer.43, align 8
  %f_entry_conds = alloca %class.ptr_buffer.43, align 8
  %func_decls = alloca %class.ptr_buffer, align 8
  %__range1 = alloca ptr, align 8
  %__begin1 = alloca ptr, align 8
  %__end1 = alloca ptr, align 8
  %f = alloca ptr, align 8
  %f_i = alloca ptr, align 8
  %body = alloca %class.obj_ref, align 8
  %j = alloca i32, align 4
  %strm = alloca %"class.std::__cxx11::basic_stringstream", align 8
  %ref.tmp = alloca %class.symbol, align 8
  %ref.tmp38 = alloca %"class.std::__cxx11::basic_string", align 8
  %__range2 = alloca ptr, align 8
  %__begin2 = alloca ptr, align 8
  %__end2 = alloca ptr, align 8
  %vn = alloca ptr, align 8
  %ref.tmp56 = alloca ptr, align 8
  %i = alloca i32, align 4
  %f_domain = alloca %class.obj_ref, align 8
  %args = alloca [2 x ptr], align 16
  %ref.tmp78 = alloca ptr, align 8
  %ref.tmp79 = alloca ptr, align 8
  %ref.tmp80 = alloca ptr, align 8
  %f_domain90 = alloca ptr, align 8
  %ref.tmp91 = alloca ptr, align 8
  %ref.tmp93 = alloca ptr, align 8
  %f_range = alloca %class.obj_ref, align 8
  %i110 = alloca i32, align 4
  %e = alloca ptr, align 8
  %j118 = alloca i32, align 4
  %f_arg = alloca %class.obj_ref, align 8
  %eq_args = alloca [2 x ptr], align 16
  %ref.tmp136 = alloca ptr, align 8
  %ref.tmp137 = alloca ptr, align 8
  %ref.tmp139 = alloca ptr, align 8
  %f_entry_cond = alloca ptr, align 8
  %ref.tmp153 = alloca ptr, align 8
  %ref.tmp155 = alloca ptr, align 8
  %f_result = alloca %class.obj_ref, align 8
  %ref.tmp174 = alloca ptr, align 8
  %ref.tmp179 = alloca ptr, align 8
  %ref.tmp200 = alloca ptr, align 8
  %i209 = alloca i32, align 4
  %ref.tmp215 = alloca ptr, align 8
  %def = alloca %class.obj_ref, align 8
  %fname = alloca %"class.std::__cxx11::basic_string", align 8
  %ref.tmp237 = alloca %"class.std::__cxx11::basic_string", align 8
  %ref.tmp242 = alloca %"class.std::__cxx11::basic_string", align 8
  %ref.tmp277 = alloca %class.params_ref, align 8
  store ptr %out, ptr %out.addr, align 8
  store ptr %ctx, ptr %ctx.addr, align 8
  store ptr %md, ptr %md.addr, align 8
  store i32 %indent, ptr %indent.addr, align 4
  %0 = load ptr, ptr %ctx.addr, align 8
  %vtable = load ptr, ptr %0, align 8
  %vfn = getelementptr inbounds ptr, ptr %vtable, i64 10
  %1 = load ptr, ptr %vfn, align 8
  %call = call noundef nonnull align 8 dereferenceable(976) ptr %1(ptr noundef nonnull align 8 dereferenceable(8) %0)
  store ptr %call, ptr %m, align 8
  %2 = load ptr, ptr %m, align 8
  call void @_ZN6recfun4utilC1ER11ast_manager(ptr noundef nonnull align 8 dereferenceable(24) %recfun_util, ptr noundef nonnull align 8 dereferenceable(976) %2)
  invoke void @_ZN7sbufferI6symbolLj16EEC2Ev(ptr noundef nonnull align 8 dereferenceable(144) %var_names)
          to label %invoke.cont unwind label %lpad

invoke.cont:                                      ; preds = %entry
  call void @_ZN10ptr_bufferI3appLj16EEC2Ev(ptr noundef nonnull align 8 dereferenceable(144) %f_var_names) #3
  call void @_ZN10ptr_bufferI3appLj16EEC2Ev(ptr noundef nonnull align 8 dereferenceable(144) %f_arg_decls) #3
  call void @_ZN10ptr_bufferI3appLj16EEC2Ev(ptr noundef nonnull align 8 dereferenceable(144) %f_entries) #3
  call void @_ZN10ptr_bufferI3appLj16EEC2Ev(ptr noundef nonnull align 8 dereferenceable(144) %f_entry_conds) #3
  call void @_ZN10ptr_bufferI9func_declLj16EEC2Ev(ptr noundef nonnull align 8 dereferenceable(144) %func_decls) #3
  %3 = load ptr, ptr %m, align 8
  %4 = load ptr, ptr %md.addr, align 8
  invoke void @_Z14sort_fun_declsR11ast_managerRK10model_coreR10ptr_bufferI9func_declLj16EE(ptr noundef nonnull align 8 dereferenceable(976) %3, ptr noundef nonnull align 8 dereferenceable(96) %4, ptr noundef nonnull align 8 dereferenceable(144) %func_decls)
          to label %invoke.cont2 unwind label %lpad1

invoke.cont2:                                     ; preds = %invoke.cont
  store ptr %func_decls, ptr %__range1, align 8
  %5 = load ptr, ptr %__range1, align 8
  %call4 = invoke noundef ptr @_ZN6bufferIP9func_declLb0ELj16EE5beginEv(ptr noundef nonnull align 8 dereferenceable(144) %5)
          to label %invoke.cont3 unwind label %lpad1

invoke.cont3:                                     ; preds = %invoke.cont2
  store ptr %call4, ptr %__begin1, align 8
  %6 = load ptr, ptr %__range1, align 8
  %call6 = invoke noundef ptr @_ZN6bufferIP9func_declLb0ELj16EE3endEv(ptr noundef nonnull align 8 dereferenceable(144) %6)
          to label %invoke.cont5 unwind label %lpad1

invoke.cont5:                                     ; preds = %invoke.cont3
  store ptr %call6, ptr %__end1, align 8
  br label %for.cond

for.cond:                                         ; preds = %for.inc288, %invoke.cont5
  %7 = load ptr, ptr %__begin1, align 8
  %8 = load ptr, ptr %__end1, align 8
  %cmp = icmp ne ptr %7, %8
  br i1 %cmp, label %for.body, label %for.end290

for.body:                                         ; preds = %for.cond
  %9 = load ptr, ptr %__begin1, align 8
  %10 = load ptr, ptr %9, align 8
  store ptr %10, ptr %f, align 8
  %11 = load ptr, ptr %f, align 8
  %call8 = invoke noundef zeroext i1 @_ZNK6recfun4util10is_definedEP9func_decl(ptr noundef nonnull align 8 dereferenceable(24) %recfun_util, ptr noundef %11)
          to label %invoke.cont7 unwind label %lpad1

invoke.cont7:                                     ; preds = %for.body
  br i1 %call8, label %land.lhs.true, label %if.end

land.lhs.true:                                    ; preds = %invoke.cont7
  %12 = load ptr, ptr %f, align 8
  %call10 = invoke noundef zeroext i1 @_ZNK6recfun4util12is_generatedEP9func_decl(ptr noundef nonnull align 8 dereferenceable(24) %recfun_util, ptr noundef %12)
          to label %invoke.cont9 unwind label %lpad1

invoke.cont9:                                     ; preds = %land.lhs.true
  br i1 %call10, label %if.end, label %if.then

if.then:                                          ; preds = %invoke.cont9
  br label %for.inc288

lpad:                                             ; preds = %entry
  %13 = landingpad { ptr, i32 }
          cleanup
  %14 = extractvalue { ptr, i32 } %13, 0
  store ptr %14, ptr %exn.slot, align 8
  %15 = extractvalue { ptr, i32 } %13, 1
  store i32 %15, ptr %ehselector.slot, align 4
  br label %ehcleanup297

lpad1:                                            ; preds = %invoke.cont17, %invoke.cont15, %if.end14, %if.end, %land.lhs.true, %for.body, %invoke.cont3, %invoke.cont2, %invoke.cont
  %16 = landingpad { ptr, i32 }
          cleanup
  %17 = extractvalue { ptr, i32 } %16, 0
  store ptr %17, ptr %exn.slot, align 8
  %18 = extractvalue { ptr, i32 } %16, 1
  store i32 %18, ptr %ehselector.slot, align 4
  br label %ehcleanup291

if.end:                                           ; preds = %invoke.cont9, %invoke.cont7
  %19 = load ptr, ptr %m, align 8
  %20 = load ptr, ptr %f, align 8
  %call12 = invoke noundef zeroext i1 @_ZN11ast_manager27is_considered_uninterpretedEP9func_decl(ptr noundef nonnull align 8 dereferenceable(976) %19, ptr noundef %20)
          to label %invoke.cont11 unwind label %lpad1

invoke.cont11:                                    ; preds = %if.end
  br i1 %call12, label %if.end14, label %if.then13

if.then13:                                        ; preds = %invoke.cont11
  br label %for.inc288

if.end14:                                         ; preds = %invoke.cont11
  %21 = load ptr, ptr %md.addr, align 8
  %22 = load ptr, ptr %f, align 8
  %call16 = invoke noundef ptr @_ZNK10model_core15get_func_interpEP9func_decl(ptr noundef nonnull align 8 dereferenceable(96) %21, ptr noundef %22)
          to label %invoke.cont15 unwind label %lpad1

invoke.cont15:                                    ; preds = %if.end14
  store ptr %call16, ptr %f_i, align 8
  %23 = load ptr, ptr %m, align 8
  %call18 = invoke noundef nonnull align 8 dereferenceable(976) ptr @_ZN9format_ns2fmER11ast_manager(ptr noundef nonnull align 8 dereferenceable(976) %23)
          to label %invoke.cont17 unwind label %lpad1

invoke.cont17:                                    ; preds = %invoke.cont15
  invoke void @_ZN7obj_refI3app11ast_managerEC2ERS1_(ptr noundef nonnull align 8 dereferenceable(16) %body, ptr noundef nonnull align 8 dereferenceable(976) %call18)
          to label %invoke.cont19 unwind label %lpad1

invoke.cont19:                                    ; preds = %invoke.cont17
  invoke void @_ZN6bufferI6symbolLb0ELj16EE5resetEv(ptr noundef nonnull align 8 dereferenceable(144) %var_names)
          to label %invoke.cont21 unwind label %lpad20

invoke.cont21:                                    ; preds = %invoke.cont19
  %24 = load ptr, ptr %f_i, align 8
  %call22 = call noundef zeroext i1 @_ZNK11func_interp10is_partialEv(ptr noundef nonnull align 8 dereferenceable(56) %24)
  br i1 %call22, label %if.then23, label %if.else

if.then23:                                        ; preds = %invoke.cont21
  %25 = load ptr, ptr %m, align 8
  %call25 = invoke noundef ptr @_ZN9format_ns9mk_stringER11ast_managerPKc(ptr noundef nonnull align 8 dereferenceable(976) %25, ptr noundef @.str.21)
          to label %invoke.cont24 unwind label %lpad20

invoke.cont24:                                    ; preds = %if.then23
  %call27 = invoke noundef nonnull align 8 dereferenceable(16) ptr @_ZN7obj_refI3app11ast_managerEaSEPS0_(ptr noundef nonnull align 8 dereferenceable(16) %body, ptr noundef %call25)
          to label %invoke.cont26 unwind label %lpad20

invoke.cont26:                                    ; preds = %invoke.cont24
  store i32 0, ptr %j, align 4
  br label %for.cond28

for.cond28:                                       ; preds = %for.inc, %invoke.cont26
  %26 = load i32, ptr %j, align 4
  %27 = load ptr, ptr %f, align 8
  %call29 = call noundef i32 @_ZNK9func_decl9get_arityEv(ptr noundef nonnull align 8 dereferenceable(48) %27)
  %cmp30 = icmp ult i32 %26, %call29
  br i1 %cmp30, label %for.body31, label %for.end

for.body31:                                       ; preds = %for.cond28
  invoke void @_ZNSt7__cxx1118basic_stringstreamIcSt11char_traitsIcESaIcEEC1Ev(ptr noundef nonnull align 8 dereferenceable(128) %strm)
          to label %invoke.cont32 unwind label %lpad20

invoke.cont32:                                    ; preds = %for.body31
  %add.ptr = getelementptr inbounds i8, ptr %strm, i64 16
  %call35 = invoke noundef nonnull align 8 dereferenceable(8) ptr @_ZStlsISt11char_traitsIcEERSt13basic_ostreamIcT_ES5_PKc(ptr noundef nonnull align 8 dereferenceable(8) %add.ptr, ptr noundef @.str.22)
          to label %invoke.cont34 unwind label %lpad33

invoke.cont34:                                    ; preds = %invoke.cont32
  %28 = load i32, ptr %j, align 4
  %add = add i32 %28, 1
  %call37 = invoke noundef nonnull align 8 dereferenceable(8) ptr @_ZNSolsEj(ptr noundef nonnull align 8 dereferenceable(8) %call35, i32 noundef %add)
          to label %invoke.cont36 unwind label %lpad33

invoke.cont36:                                    ; preds = %invoke.cont34
  invoke void @_ZNKSt7__cxx1118basic_stringstreamIcSt11char_traitsIcESaIcEE3strEv(ptr sret(%"class.std::__cxx11::basic_string") align 8 %ref.tmp38, ptr noundef nonnull align 8 dereferenceable(128) %strm)
          to label %invoke.cont39 unwind label %lpad33

invoke.cont39:                                    ; preds = %invoke.cont36
  invoke void @_ZN6symbolC2ERKNSt7__cxx1112basic_stringIcSt11char_traitsIcESaIcEEE(ptr noundef nonnull align 8 dereferenceable(8) %ref.tmp, ptr noundef nonnull align 8 dereferenceable(32) %ref.tmp38)
          to label %invoke.cont41 unwind label %lpad40

invoke.cont41:                                    ; preds = %invoke.cont39
  invoke void @_ZN6bufferI6symbolLb0ELj16EE9push_backEOS0_(ptr noundef nonnull align 8 dereferenceable(144) %var_names, ptr noundef nonnull align 8 dereferenceable(8) %ref.tmp)
          to label %invoke.cont42 unwind label %lpad40

invoke.cont42:                                    ; preds = %invoke.cont41
  call void @_ZNSt7__cxx1112basic_stringIcSt11char_traitsIcESaIcEED1Ev(ptr noundef nonnull align 8 dereferenceable(32) %ref.tmp38) #3
  call void @_ZNSt7__cxx1118basic_stringstreamIcSt11char_traitsIcESaIcEED1Ev(ptr noundef nonnull align 8 dereferenceable(128) %strm) #3
  br label %for.inc

for.inc:                                          ; preds = %invoke.cont42
  %29 = load i32, ptr %j, align 4
  %inc = add i32 %29, 1
  store i32 %inc, ptr %j, align 4
  br label %for.cond28, !llvm.loop !10

lpad20:                                           ; preds = %invoke.cont98, %invoke.cont96, %for.end89, %invoke.cont67, %for.body66, %invoke.cont58, %for.body55, %invoke.cont49, %if.end48, %if.else, %for.body31, %invoke.cont24, %if.then23, %invoke.cont19
  %30 = landingpad { ptr, i32 }
          cleanup
  %31 = extractvalue { ptr, i32 } %30, 0
  store ptr %31, ptr %exn.slot, align 8
  %32 = extractvalue { ptr, i32 } %30, 1
  store i32 %32, ptr %ehselector.slot, align 4
  br label %ehcleanup287

lpad33:                                           ; preds = %invoke.cont36, %invoke.cont34, %invoke.cont32
  %33 = landingpad { ptr, i32 }
          cleanup
  %34 = extractvalue { ptr, i32 } %33, 0
  store ptr %34, ptr %exn.slot, align 8
  %35 = extractvalue { ptr, i32 } %33, 1
  store i32 %35, ptr %ehselector.slot, align 4
  br label %ehcleanup

lpad40:                                           ; preds = %invoke.cont41, %invoke.cont39
  %36 = landingpad { ptr, i32 }
          cleanup
  %37 = extractvalue { ptr, i32 } %36, 0
  store ptr %37, ptr %exn.slot, align 8
  %38 = extractvalue { ptr, i32 } %36, 1
  store i32 %38, ptr %ehselector.slot, align 4
  call void @_ZNSt7__cxx1112basic_stringIcSt11char_traitsIcESaIcEED1Ev(ptr noundef nonnull align 8 dereferenceable(32) %ref.tmp38) #3
  br label %ehcleanup

ehcleanup:                                        ; preds = %lpad40, %lpad33
  call void @_ZNSt7__cxx1118basic_stringstreamIcSt11char_traitsIcESaIcEED1Ev(ptr noundef nonnull align 8 dereferenceable(128) %strm) #3
  br label %ehcleanup287

for.end:                                          ; preds = %for.cond28
  br label %if.end48

if.else:                                          ; preds = %invoke.cont21
  %39 = load ptr, ptr %ctx.addr, align 8
  %40 = load ptr, ptr %f_i, align 8
  %call43 = call noundef ptr @_ZNK11func_interp8get_elseEv(ptr noundef nonnull align 8 dereferenceable(56) %40)
  %41 = load ptr, ptr %f, align 8
  %call44 = call noundef i32 @_ZNK9func_decl9get_arityEv(ptr noundef nonnull align 8 dereferenceable(48) %41)
  %vtable45 = load ptr, ptr %39, align 8
  %vfn46 = getelementptr inbounds ptr, ptr %vtable45, i64 4
  %42 = load ptr, ptr %vfn46, align 8
  invoke void %42(ptr noundef nonnull align 8 dereferenceable(8) %39, ptr noundef %call43, i32 noundef %call44, ptr noundef @.str.11, ptr noundef nonnull align 8 dereferenceable(16) %body, ptr noundef nonnull align 8 dereferenceable(144) %var_names)
          to label %invoke.cont47 unwind label %lpad20

invoke.cont47:                                    ; preds = %if.else
  br label %if.end48

if.end48:                                         ; preds = %invoke.cont47, %for.end
  call void @_ZN6bufferIP3appLb0ELj16EE5resetEv(ptr noundef nonnull align 8 dereferenceable(144) %f_var_names)
  store ptr %var_names, ptr %__range2, align 8
  %43 = load ptr, ptr %__range2, align 8
  %call50 = invoke noundef ptr @_ZN6bufferI6symbolLb0ELj16EE5beginEv(ptr noundef nonnull align 8 dereferenceable(144) %43)
          to label %invoke.cont49 unwind label %lpad20

invoke.cont49:                                    ; preds = %if.end48
  store ptr %call50, ptr %__begin2, align 8
  %44 = load ptr, ptr %__range2, align 8
  %call52 = invoke noundef ptr @_ZN6bufferI6symbolLb0ELj16EE3endEv(ptr noundef nonnull align 8 dereferenceable(144) %44)
          to label %invoke.cont51 unwind label %lpad20

invoke.cont51:                                    ; preds = %invoke.cont49
  store ptr %call52, ptr %__end2, align 8
  br label %for.cond53

for.cond53:                                       ; preds = %for.inc61, %invoke.cont51
  %45 = load ptr, ptr %__begin2, align 8
  %46 = load ptr, ptr %__end2, align 8
  %cmp54 = icmp ne ptr %45, %46
  br i1 %cmp54, label %for.body55, label %for.end62

for.body55:                                       ; preds = %for.cond53
  %47 = load ptr, ptr %__begin2, align 8
  store ptr %47, ptr %vn, align 8
  %48 = load ptr, ptr %m, align 8
  %49 = load ptr, ptr %vn, align 8
  %call57 = call noundef ptr @_ZNK6symbol8bare_strEv(ptr noundef nonnull align 8 dereferenceable(8) %49)
  %call59 = invoke noundef ptr @_ZN9format_ns9mk_stringER11ast_managerPKc(ptr noundef nonnull align 8 dereferenceable(976) %48, ptr noundef %call57)
          to label %invoke.cont58 unwind label %lpad20

invoke.cont58:                                    ; preds = %for.body55
  store ptr %call59, ptr %ref.tmp56, align 8
  invoke void @_ZN6bufferIP3appLb0ELj16EE9push_backEOS1_(ptr noundef nonnull align 8 dereferenceable(144) %f_var_names, ptr noundef nonnull align 8 dereferenceable(8) %ref.tmp56)
          to label %invoke.cont60 unwind label %lpad20

invoke.cont60:                                    ; preds = %invoke.cont58
  br label %for.inc61

for.inc61:                                        ; preds = %invoke.cont60
  %50 = load ptr, ptr %__begin2, align 8
  %incdec.ptr = getelementptr inbounds %class.symbol, ptr %50, i32 1
  store ptr %incdec.ptr, ptr %__begin2, align 8
  br label %for.cond53

for.end62:                                        ; preds = %for.cond53
  call void @_ZN6bufferIP3appLb0ELj16EE5resetEv(ptr noundef nonnull align 8 dereferenceable(144) %f_arg_decls)
  store i32 0, ptr %i, align 4
  br label %for.cond63

for.cond63:                                       ; preds = %for.inc87, %for.end62
  %51 = load i32, ptr %i, align 4
  %52 = load ptr, ptr %f, align 8
  %call64 = call noundef i32 @_ZNK9func_decl9get_arityEv(ptr noundef nonnull align 8 dereferenceable(48) %52)
  %cmp65 = icmp ult i32 %51, %call64
  br i1 %cmp65, label %for.body66, label %for.end89

for.body66:                                       ; preds = %for.cond63
  %53 = load ptr, ptr %m, align 8
  %call68 = invoke noundef nonnull align 8 dereferenceable(976) ptr @_ZN9format_ns2fmER11ast_manager(ptr noundef nonnull align 8 dereferenceable(976) %53)
          to label %invoke.cont67 unwind label %lpad20

invoke.cont67:                                    ; preds = %for.body66
  invoke void @_ZN7obj_refI3app11ast_managerEC2ERS1_(ptr noundef nonnull align 8 dereferenceable(16) %f_domain, ptr noundef nonnull align 8 dereferenceable(976) %call68)
          to label %invoke.cont69 unwind label %lpad20

invoke.cont69:                                    ; preds = %invoke.cont67
  %54 = load ptr, ptr %ctx.addr, align 8
  %55 = load ptr, ptr %f, align 8
  %56 = load i32, ptr %i, align 4
  %call72 = invoke noundef ptr @_ZNK9func_decl10get_domainEj(ptr noundef nonnull align 8 dereferenceable(48) %55, i32 noundef %56)
          to label %invoke.cont71 unwind label %lpad70

invoke.cont71:                                    ; preds = %invoke.cont69
  %vtable73 = load ptr, ptr %54, align 8
  %vfn74 = getelementptr inbounds ptr, ptr %vtable73, i64 2
  %57 = load ptr, ptr %vfn74, align 8
  invoke void %57(ptr noundef nonnull align 8 dereferenceable(8) %54, ptr noundef %call72, ptr noundef nonnull align 8 dereferenceable(16) %f_domain)
          to label %invoke.cont75 unwind label %lpad70

invoke.cont75:                                    ; preds = %invoke.cont71
  %arrayinit.begin = getelementptr inbounds [2 x ptr], ptr %args, i64 0, i64 0
  %58 = load i32, ptr %i, align 4
  %call76 = call noundef nonnull align 8 dereferenceable(8) ptr @_ZN6bufferIP3appLb0ELj16EEixEj(ptr noundef nonnull align 8 dereferenceable(144) %f_var_names, i32 noundef %58)
  %59 = load ptr, ptr %call76, align 8
  store ptr %59, ptr %arrayinit.begin, align 8
  %arrayinit.element = getelementptr inbounds ptr, ptr %arrayinit.begin, i64 1
  %call77 = call noundef ptr @_ZNK7obj_refI3app11ast_managerE3getEv(ptr noundef nonnull align 8 dereferenceable(16) %f_domain)
  store ptr %call77, ptr %arrayinit.element, align 8
  %60 = load ptr, ptr %m, align 8
  %arraydecay = getelementptr inbounds [2 x ptr], ptr %args, i64 0, i64 0
  store ptr %arraydecay, ptr %ref.tmp79, align 8
  %arraydecay81 = getelementptr inbounds [2 x ptr], ptr %args, i64 0, i64 0
  %add.ptr82 = getelementptr inbounds ptr, ptr %arraydecay81, i64 2
  store ptr %add.ptr82, ptr %ref.tmp80, align 8
  %call84 = invoke noundef ptr @_ZN9format_ns7mk_seq5IPP3appNS_3f2fEEES2_R11ast_managerRKT_S9_T0_PKcSC_(ptr noundef nonnull align 8 dereferenceable(976) %60, ptr noundef nonnull align 8 dereferenceable(8) %ref.tmp79, ptr noundef nonnull align 8 dereferenceable(8) %ref.tmp80, ptr noundef @.str.13, ptr noundef @.str.14)
          to label %invoke.cont83 unwind label %lpad70

invoke.cont83:                                    ; preds = %invoke.cont75
  store ptr %call84, ptr %ref.tmp78, align 8
  invoke void @_ZN6bufferIP3appLb0ELj16EE9push_backEOS1_(ptr noundef nonnull align 8 dereferenceable(144) %f_arg_decls, ptr noundef nonnull align 8 dereferenceable(8) %ref.tmp78)
          to label %invoke.cont85 unwind label %lpad70

invoke.cont85:                                    ; preds = %invoke.cont83
  call void @_ZN7obj_refI3app11ast_managerED2Ev(ptr noundef nonnull align 8 dereferenceable(16) %f_domain) #3
  br label %for.inc87

for.inc87:                                        ; preds = %invoke.cont85
  %61 = load i32, ptr %i, align 4
  %inc88 = add i32 %61, 1
  store i32 %inc88, ptr %i, align 4
  br label %for.cond63, !llvm.loop !11

lpad70:                                           ; preds = %invoke.cont83, %invoke.cont75, %invoke.cont71, %invoke.cont69
  %62 = landingpad { ptr, i32 }
          cleanup
  %63 = extractvalue { ptr, i32 } %62, 0
  store ptr %63, ptr %exn.slot, align 8
  %64 = extractvalue { ptr, i32 } %62, 1
  store i32 %64, ptr %ehselector.slot, align 4
  call void @_ZN7obj_refI3app11ast_managerED2Ev(ptr noundef nonnull align 8 dereferenceable(16) %f_domain) #3
  br label %ehcleanup287

for.end89:                                        ; preds = %for.cond63
  %65 = load ptr, ptr %m, align 8
  %call92 = call noundef ptr @_ZN6bufferIP3appLb0ELj16EE5beginEv(ptr noundef nonnull align 8 dereferenceable(144) %f_arg_decls)
  store ptr %call92, ptr %ref.tmp91, align 8
  %call94 = call noundef ptr @_ZN6bufferIP3appLb0ELj16EE3endEv(ptr noundef nonnull align 8 dereferenceable(144) %f_arg_decls)
  store ptr %call94, ptr %ref.tmp93, align 8
  %call97 = invoke noundef ptr @_ZN9format_ns7mk_seq5IPP3appNS_3f2fEEES2_R11ast_managerRKT_S9_T0_PKcSC_(ptr noundef nonnull align 8 dereferenceable(976) %65, ptr noundef nonnull align 8 dereferenceable(8) %ref.tmp91, ptr noundef nonnull align 8 dereferenceable(8) %ref.tmp93, ptr noundef @.str.13, ptr noundef @.str.14)
          to label %invoke.cont96 unwind label %lpad20

invoke.cont96:                                    ; preds = %for.end89
  store ptr %call97, ptr %f_domain90, align 8
  %66 = load ptr, ptr %m, align 8
  %call99 = invoke noundef nonnull align 8 dereferenceable(976) ptr @_ZN9format_ns2fmER11ast_manager(ptr noundef nonnull align 8 dereferenceable(976) %66)
          to label %invoke.cont98 unwind label %lpad20

invoke.cont98:                                    ; preds = %invoke.cont96
  invoke void @_ZN7obj_refI3app11ast_managerEC2ERS1_(ptr noundef nonnull align 8 dereferenceable(16) %f_range, ptr noundef nonnull align 8 dereferenceable(976) %call99)
          to label %invoke.cont100 unwind label %lpad20

invoke.cont100:                                   ; preds = %invoke.cont98
  %67 = load ptr, ptr %ctx.addr, align 8
  %68 = load ptr, ptr %f, align 8
  %call101 = call noundef ptr @_ZNK9func_decl9get_rangeEv(ptr noundef nonnull align 8 dereferenceable(48) %68)
  %vtable102 = load ptr, ptr %67, align 8
  %vfn103 = getelementptr inbounds ptr, ptr %vtable102, i64 2
  %69 = load ptr, ptr %vfn103, align 8
  invoke void %69(ptr noundef nonnull align 8 dereferenceable(8) %67, ptr noundef %call101, ptr noundef nonnull align 8 dereferenceable(16) %f_range)
          to label %invoke.cont105 unwind label %lpad104

invoke.cont105:                                   ; preds = %invoke.cont100
  %70 = load ptr, ptr %f_i, align 8
  %call107 = invoke noundef i32 @_ZNK11func_interp11num_entriesEv(ptr noundef nonnull align 8 dereferenceable(56) %70)
          to label %invoke.cont106 unwind label %lpad104

invoke.cont106:                                   ; preds = %invoke.cont105
  %cmp108 = icmp ugt i32 %call107, 0
  br i1 %cmp108, label %if.then109, label %if.end228

if.then109:                                       ; preds = %invoke.cont106
  call void @_ZN6bufferIP3appLb0ELj16EE5resetEv(ptr noundef nonnull align 8 dereferenceable(144) %f_entries)
  store i32 0, ptr %i110, align 4
  br label %for.cond111

for.cond111:                                      ; preds = %for.inc197, %if.then109
  %71 = load i32, ptr %i110, align 4
  %72 = load ptr, ptr %f_i, align 8
  %call113 = invoke noundef i32 @_ZNK11func_interp11num_entriesEv(ptr noundef nonnull align 8 dereferenceable(56) %72)
          to label %invoke.cont112 unwind label %lpad104

invoke.cont112:                                   ; preds = %for.cond111
  %cmp114 = icmp ult i32 %71, %call113
  br i1 %cmp114, label %for.body115, label %for.end199

for.body115:                                      ; preds = %invoke.cont112
  %73 = load ptr, ptr %f_i, align 8
  %74 = load i32, ptr %i110, align 4
  %call117 = invoke noundef ptr @_ZNK11func_interp9get_entryEj(ptr noundef nonnull align 8 dereferenceable(56) %73, i32 noundef %74)
          to label %invoke.cont116 unwind label %lpad104

invoke.cont116:                                   ; preds = %for.body115
  store ptr %call117, ptr %e, align 8
  call void @_ZN6bufferIP3appLb0ELj16EE5resetEv(ptr noundef nonnull align 8 dereferenceable(144) %f_entry_conds)
  store i32 0, ptr %j118, align 4
  br label %for.cond119

for.cond119:                                      ; preds = %for.inc147, %invoke.cont116
  %75 = load i32, ptr %j118, align 4
  %76 = load ptr, ptr %f, align 8
  %call120 = call noundef i32 @_ZNK9func_decl9get_arityEv(ptr noundef nonnull align 8 dereferenceable(48) %76)
  %cmp121 = icmp ult i32 %75, %call120
  br i1 %cmp121, label %for.body122, label %for.end149

for.body122:                                      ; preds = %for.cond119
  %77 = load ptr, ptr %m, align 8
  %call124 = invoke noundef nonnull align 8 dereferenceable(976) ptr @_ZN9format_ns2fmER11ast_manager(ptr noundef nonnull align 8 dereferenceable(976) %77)
          to label %invoke.cont123 unwind label %lpad104

invoke.cont123:                                   ; preds = %for.body122
  invoke void @_ZN7obj_refI3app11ast_managerEC2ERS1_(ptr noundef nonnull align 8 dereferenceable(16) %f_arg, ptr noundef nonnull align 8 dereferenceable(976) %call124)
          to label %invoke.cont125 unwind label %lpad104

invoke.cont125:                                   ; preds = %invoke.cont123
  %78 = load ptr, ptr %ctx.addr, align 8
  %79 = load ptr, ptr %e, align 8
  %80 = load i32, ptr %j118, align 4
  %call128 = invoke noundef ptr @_ZNK10func_entry7get_argEj(ptr noundef nonnull align 8 dereferenceable(16) %79, i32 noundef %80)
          to label %invoke.cont127 unwind label %lpad126

invoke.cont127:                                   ; preds = %invoke.cont125
  %vtable129 = load ptr, ptr %78, align 8
  %vfn130 = getelementptr inbounds ptr, ptr %vtable129, i64 5
  %81 = load ptr, ptr %vfn130, align 8
  invoke void %81(ptr noundef nonnull align 8 dereferenceable(8) %78, ptr noundef %call128, ptr noundef nonnull align 8 dereferenceable(16) %f_arg)
          to label %invoke.cont131 unwind label %lpad126

invoke.cont131:                                   ; preds = %invoke.cont127
  %arrayinit.begin132 = getelementptr inbounds [2 x ptr], ptr %eq_args, i64 0, i64 0
  %82 = load i32, ptr %j118, align 4
  %call133 = call noundef nonnull align 8 dereferenceable(8) ptr @_ZN6bufferIP3appLb0ELj16EEixEj(ptr noundef nonnull align 8 dereferenceable(144) %f_var_names, i32 noundef %82)
  %83 = load ptr, ptr %call133, align 8
  store ptr %83, ptr %arrayinit.begin132, align 8
  %arrayinit.element134 = getelementptr inbounds ptr, ptr %arrayinit.begin132, i64 1
  %call135 = call noundef ptr @_ZNK7obj_refI3app11ast_managerE3getEv(ptr noundef nonnull align 8 dereferenceable(16) %f_arg)
  store ptr %call135, ptr %arrayinit.element134, align 8
  %84 = load ptr, ptr %m, align 8
  %arraydecay138 = getelementptr inbounds [2 x ptr], ptr %eq_args, i64 0, i64 0
  store ptr %arraydecay138, ptr %ref.tmp137, align 8
  %arraydecay140 = getelementptr inbounds [2 x ptr], ptr %eq_args, i64 0, i64 0
  %add.ptr141 = getelementptr inbounds ptr, ptr %arraydecay140, i64 2
  store ptr %add.ptr141, ptr %ref.tmp139, align 8
  %call144 = invoke noundef ptr @_ZN9format_ns7mk_seq1IPP3appNS_3f2fEEES2_R11ast_managerRKT_S9_T0_PKcSC_SC_(ptr noundef nonnull align 8 dereferenceable(976) %84, ptr noundef nonnull align 8 dereferenceable(8) %ref.tmp137, ptr noundef nonnull align 8 dereferenceable(8) %ref.tmp139, ptr noundef @.str.12, ptr noundef @.str.13, ptr noundef @.str.14)
          to label %invoke.cont143 unwind label %lpad126

invoke.cont143:                                   ; preds = %invoke.cont131
  store ptr %call144, ptr %ref.tmp136, align 8
  invoke void @_ZN6bufferIP3appLb0ELj16EE9push_backEOS1_(ptr noundef nonnull align 8 dereferenceable(144) %f_entry_conds, ptr noundef nonnull align 8 dereferenceable(8) %ref.tmp136)
          to label %invoke.cont145 unwind label %lpad126

invoke.cont145:                                   ; preds = %invoke.cont143
  call void @_ZN7obj_refI3app11ast_managerED2Ev(ptr noundef nonnull align 8 dereferenceable(16) %f_arg) #3
  br label %for.inc147

for.inc147:                                       ; preds = %invoke.cont145
  %85 = load i32, ptr %j118, align 4
  %inc148 = add i32 %85, 1
  store i32 %inc148, ptr %j118, align 4
  br label %for.cond119, !llvm.loop !12

lpad104:                                          ; preds = %invoke.cont229, %if.end228, %invoke.cont224, %for.end221, %invoke.cont216, %for.body214, %for.cond210, %invoke.cont206, %invoke.cont204, %invoke.cont201, %for.end199, %invoke.cont163, %if.end162, %if.then152, %invoke.cont123, %for.body122, %for.body115, %for.cond111, %invoke.cont105, %invoke.cont100
  %86 = landingpad { ptr, i32 }
          cleanup
  %87 = extractvalue { ptr, i32 } %86, 0
  store ptr %87, ptr %exn.slot, align 8
  %88 = extractvalue { ptr, i32 } %86, 1
  store i32 %88, ptr %ehselector.slot, align 4
  br label %ehcleanup286

lpad126:                                          ; preds = %invoke.cont143, %invoke.cont131, %invoke.cont127, %invoke.cont125
  %89 = landingpad { ptr, i32 }
          cleanup
  %90 = extractvalue { ptr, i32 } %89, 0
  store ptr %90, ptr %exn.slot, align 8
  %91 = extractvalue { ptr, i32 } %89, 1
  store i32 %91, ptr %ehselector.slot, align 4
  call void @_ZN7obj_refI3app11ast_managerED2Ev(ptr noundef nonnull align 8 dereferenceable(16) %f_arg) #3
  br label %ehcleanup286

for.end149:                                       ; preds = %for.cond119
  %call150 = call noundef i32 @_ZNK6bufferIP3appLb0ELj16EE4sizeEv(ptr noundef nonnull align 8 dereferenceable(144) %f_entry_conds)
  %cmp151 = icmp ugt i32 %call150, 1
  br i1 %cmp151, label %if.then152, label %if.else160

if.then152:                                       ; preds = %for.end149
  %92 = load ptr, ptr %m, align 8
  %call154 = call noundef ptr @_ZN6bufferIP3appLb0ELj16EE5beginEv(ptr noundef nonnull align 8 dereferenceable(144) %f_entry_conds)
  store ptr %call154, ptr %ref.tmp153, align 8
  %call156 = call noundef ptr @_ZN6bufferIP3appLb0ELj16EE3endEv(ptr noundef nonnull align 8 dereferenceable(144) %f_entry_conds)
  store ptr %call156, ptr %ref.tmp155, align 8
  %call159 = invoke noundef ptr @_ZN9format_ns7mk_seq1IPP3appNS_3f2fEEES2_R11ast_managerRKT_S9_T0_PKcSC_SC_(ptr noundef nonnull align 8 dereferenceable(976) %92, ptr noundef nonnull align 8 dereferenceable(8) %ref.tmp153, ptr noundef nonnull align 8 dereferenceable(8) %ref.tmp155, ptr noundef @.str.23, ptr noundef @.str.13, ptr noundef @.str.14)
          to label %invoke.cont158 unwind label %lpad104

invoke.cont158:                                   ; preds = %if.then152
  store ptr %call159, ptr %f_entry_cond, align 8
  br label %if.end162

if.else160:                                       ; preds = %for.end149
  %call161 = call noundef nonnull align 8 dereferenceable(8) ptr @_ZN6bufferIP3appLb0ELj16EEixEj(ptr noundef nonnull align 8 dereferenceable(144) %f_entry_conds, i32 noundef 0)
  %93 = load ptr, ptr %call161, align 8
  store ptr %93, ptr %f_entry_cond, align 8
  br label %if.end162

if.end162:                                        ; preds = %if.else160, %invoke.cont158
  %94 = load ptr, ptr %m, align 8
  %call164 = invoke noundef nonnull align 8 dereferenceable(976) ptr @_ZN9format_ns2fmER11ast_manager(ptr noundef nonnull align 8 dereferenceable(976) %94)
          to label %invoke.cont163 unwind label %lpad104

invoke.cont163:                                   ; preds = %if.end162
  invoke void @_ZN7obj_refI3app11ast_managerEC2ERS1_(ptr noundef nonnull align 8 dereferenceable(16) %f_result, ptr noundef nonnull align 8 dereferenceable(976) %call164)
          to label %invoke.cont165 unwind label %lpad104

invoke.cont165:                                   ; preds = %invoke.cont163
  %95 = load ptr, ptr %ctx.addr, align 8
  %96 = load ptr, ptr %e, align 8
  %call168 = invoke noundef ptr @_ZNK10func_entry10get_resultEv(ptr noundef nonnull align 8 dereferenceable(16) %96)
          to label %invoke.cont167 unwind label %lpad166

invoke.cont167:                                   ; preds = %invoke.cont165
  %vtable169 = load ptr, ptr %95, align 8
  %vfn170 = getelementptr inbounds ptr, ptr %vtable169, i64 5
  %97 = load ptr, ptr %vfn170, align 8
  invoke void %97(ptr noundef nonnull align 8 dereferenceable(8) %95, ptr noundef %call168, ptr noundef nonnull align 8 dereferenceable(16) %f_result)
          to label %invoke.cont171 unwind label %lpad166

invoke.cont171:                                   ; preds = %invoke.cont167
  %98 = load i32, ptr %i110, align 4
  %cmp172 = icmp ugt i32 %98, 0
  br i1 %cmp172, label %if.then173, label %if.end178

if.then173:                                       ; preds = %invoke.cont171
  %99 = load ptr, ptr %m, align 8
  %call176 = invoke noundef ptr @_ZN9format_ns13mk_line_breakER11ast_manager(ptr noundef nonnull align 8 dereferenceable(976) %99)
          to label %invoke.cont175 unwind label %lpad166

invoke.cont175:                                   ; preds = %if.then173
  store ptr %call176, ptr %ref.tmp174, align 8
  invoke void @_ZN6bufferIP3appLb0ELj16EE9push_backEOS1_(ptr noundef nonnull align 8 dereferenceable(144) %f_entries, ptr noundef nonnull align 8 dereferenceable(8) %ref.tmp174)
          to label %invoke.cont177 unwind label %lpad166

invoke.cont177:                                   ; preds = %invoke.cont175
  br label %if.end178

lpad166:                                          ; preds = %invoke.cont193, %invoke.cont191, %invoke.cont189, %invoke.cont187, %invoke.cont184, %invoke.cont182, %invoke.cont180, %if.end178, %invoke.cont175, %if.then173, %invoke.cont167, %invoke.cont165
  %100 = landingpad { ptr, i32 }
          cleanup
  %101 = extractvalue { ptr, i32 } %100, 0
  store ptr %101, ptr %exn.slot, align 8
  %102 = extractvalue { ptr, i32 } %100, 1
  store i32 %102, ptr %ehselector.slot, align 4
  call void @_ZN7obj_refI3app11ast_managerED2Ev(ptr noundef nonnull align 8 dereferenceable(16) %f_result) #3
  br label %ehcleanup286

if.end178:                                        ; preds = %invoke.cont177, %invoke.cont171
  %103 = load ptr, ptr %m, align 8
  %104 = load ptr, ptr %m, align 8
  %105 = load ptr, ptr %m, align 8
  %call181 = invoke noundef ptr @_ZN9format_ns9mk_stringER11ast_managerPKc(ptr noundef nonnull align 8 dereferenceable(976) %105, ptr noundef @.str.24)
          to label %invoke.cont180 unwind label %lpad166

invoke.cont180:                                   ; preds = %if.end178
  %106 = load ptr, ptr %m, align 8
  %107 = load ptr, ptr %f_entry_cond, align 8
  %call183 = invoke noundef ptr @_ZN9format_ns9mk_indentER11ast_managerjP3app(ptr noundef nonnull align 8 dereferenceable(976) %106, i32 noundef 5, ptr noundef %107)
          to label %invoke.cont182 unwind label %lpad166

invoke.cont182:                                   ; preds = %invoke.cont180
  %108 = load ptr, ptr %m, align 8
  %109 = load ptr, ptr %m, align 8
  %110 = load ptr, ptr %m, align 8
  %call185 = invoke noundef ptr @_ZN9format_ns13mk_line_breakER11ast_manager(ptr noundef nonnull align 8 dereferenceable(976) %110)
          to label %invoke.cont184 unwind label %lpad166

invoke.cont184:                                   ; preds = %invoke.cont182
  %call186 = call noundef ptr @_ZNK7obj_refI3app11ast_managerE3getEv(ptr noundef nonnull align 8 dereferenceable(16) %f_result)
  %call188 = invoke noundef ptr @_ZN9format_ns10mk_composeER11ast_managerP3appS3_(ptr noundef nonnull align 8 dereferenceable(976) %109, ptr noundef %call185, ptr noundef %call186)
          to label %invoke.cont187 unwind label %lpad166

invoke.cont187:                                   ; preds = %invoke.cont184
  %call190 = invoke noundef ptr @_ZN9format_ns9mk_indentER11ast_managerjP3app(ptr noundef nonnull align 8 dereferenceable(976) %108, i32 noundef 2, ptr noundef %call188)
          to label %invoke.cont189 unwind label %lpad166

invoke.cont189:                                   ; preds = %invoke.cont187
  %call192 = invoke noundef ptr @_ZN9format_ns10mk_composeER11ast_managerP3appS3_S3_(ptr noundef nonnull align 8 dereferenceable(976) %104, ptr noundef %call181, ptr noundef %call183, ptr noundef %call190)
          to label %invoke.cont191 unwind label %lpad166

invoke.cont191:                                   ; preds = %invoke.cont189
  %call194 = invoke noundef ptr @_ZN9format_ns8mk_groupER11ast_managerP3app(ptr noundef nonnull align 8 dereferenceable(976) %103, ptr noundef %call192)
          to label %invoke.cont193 unwind label %lpad166

invoke.cont193:                                   ; preds = %invoke.cont191
  store ptr %call194, ptr %ref.tmp179, align 8
  invoke void @_ZN6bufferIP3appLb0ELj16EE9push_backEOS1_(ptr noundef nonnull align 8 dereferenceable(144) %f_entries, ptr noundef nonnull align 8 dereferenceable(8) %ref.tmp179)
          to label %invoke.cont195 unwind label %lpad166

invoke.cont195:                                   ; preds = %invoke.cont193
  call void @_ZN7obj_refI3app11ast_managerED2Ev(ptr noundef nonnull align 8 dereferenceable(16) %f_result) #3
  br label %for.inc197

for.inc197:                                       ; preds = %invoke.cont195
  %111 = load i32, ptr %i110, align 4
  %inc198 = add i32 %111, 1
  store i32 %inc198, ptr %i110, align 4
  br label %for.cond111, !llvm.loop !13

for.end199:                                       ; preds = %invoke.cont112
  %112 = load ptr, ptr %m, align 8
  %113 = load ptr, ptr %m, align 8
  %114 = load ptr, ptr %m, align 8
  %call202 = invoke noundef ptr @_ZN9format_ns13mk_line_breakER11ast_manager(ptr noundef nonnull align 8 dereferenceable(976) %114)
          to label %invoke.cont201 unwind label %lpad104

invoke.cont201:                                   ; preds = %for.end199
  %call203 = call noundef ptr @_ZNK7obj_refI3app11ast_managerE3getEv(ptr noundef nonnull align 8 dereferenceable(16) %body)
  %call205 = invoke noundef ptr @_ZN9format_ns10mk_composeER11ast_managerP3appS3_(ptr noundef nonnull align 8 dereferenceable(976) %113, ptr noundef %call202, ptr noundef %call203)
          to label %invoke.cont204 unwind label %lpad104

invoke.cont204:                                   ; preds = %invoke.cont201
  %call207 = invoke noundef ptr @_ZN9format_ns9mk_indentER11ast_managerjP3app(ptr noundef nonnull align 8 dereferenceable(976) %112, i32 noundef 2, ptr noundef %call205)
          to label %invoke.cont206 unwind label %lpad104

invoke.cont206:                                   ; preds = %invoke.cont204
  store ptr %call207, ptr %ref.tmp200, align 8
  invoke void @_ZN6bufferIP3appLb0ELj16EE9push_backEOS1_(ptr noundef nonnull align 8 dereferenceable(144) %f_entries, ptr noundef nonnull align 8 dereferenceable(8) %ref.tmp200)
          to label %invoke.cont208 unwind label %lpad104

invoke.cont208:                                   ; preds = %invoke.cont206
  store i32 0, ptr %i209, align 4
  br label %for.cond210

for.cond210:                                      ; preds = %for.inc219, %invoke.cont208
  %115 = load i32, ptr %i209, align 4
  %116 = load ptr, ptr %f_i, align 8
  %call212 = invoke noundef i32 @_ZNK11func_interp11num_entriesEv(ptr noundef nonnull align 8 dereferenceable(56) %116)
          to label %invoke.cont211 unwind label %lpad104

invoke.cont211:                                   ; preds = %for.cond210
  %cmp213 = icmp ult i32 %115, %call212
  br i1 %cmp213, label %for.body214, label %for.end221

for.body214:                                      ; preds = %invoke.cont211
  %117 = load ptr, ptr %m, align 8
  %call217 = invoke noundef ptr @_ZN9format_ns9mk_stringER11ast_managerPKc(ptr noundef nonnull align 8 dereferenceable(976) %117, ptr noundef @.str.14)
          to label %invoke.cont216 unwind label %lpad104

invoke.cont216:                                   ; preds = %for.body214
  store ptr %call217, ptr %ref.tmp215, align 8
  invoke void @_ZN6bufferIP3appLb0ELj16EE9push_backEOS1_(ptr noundef nonnull align 8 dereferenceable(144) %f_entries, ptr noundef nonnull align 8 dereferenceable(8) %ref.tmp215)
          to label %invoke.cont218 unwind label %lpad104

invoke.cont218:                                   ; preds = %invoke.cont216
  br label %for.inc219

for.inc219:                                       ; preds = %invoke.cont218
  %118 = load i32, ptr %i209, align 4
  %inc220 = add i32 %118, 1
  store i32 %inc220, ptr %i209, align 4
  br label %for.cond210, !llvm.loop !14

for.end221:                                       ; preds = %invoke.cont211
  %119 = load ptr, ptr %m, align 8
  %call222 = call noundef i32 @_ZNK6bufferIP3appLb0ELj16EE4sizeEv(ptr noundef nonnull align 8 dereferenceable(144) %f_entries)
  %call223 = call noundef ptr @_ZNK6bufferIP3appLb0ELj16EE4dataEv(ptr noundef nonnull align 8 dereferenceable(144) %f_entries)
  %call225 = invoke noundef ptr @_ZN9format_ns10mk_composeER11ast_managerjPKP3app(ptr noundef nonnull align 8 dereferenceable(976) %119, i32 noundef %call222, ptr noundef %call223)
          to label %invoke.cont224 unwind label %lpad104

invoke.cont224:                                   ; preds = %for.end221
  %call227 = invoke noundef nonnull align 8 dereferenceable(16) ptr @_ZN7obj_refI3app11ast_managerEaSEPS0_(ptr noundef nonnull align 8 dereferenceable(16) %body, ptr noundef %call225)
          to label %invoke.cont226 unwind label %lpad104

invoke.cont226:                                   ; preds = %invoke.cont224
  br label %if.end228

if.end228:                                        ; preds = %invoke.cont226, %invoke.cont106
  %120 = load ptr, ptr %m, align 8
  %call230 = invoke noundef nonnull align 8 dereferenceable(976) ptr @_ZN9format_ns2fmER11ast_manager(ptr noundef nonnull align 8 dereferenceable(976) %120)
          to label %invoke.cont229 unwind label %lpad104

invoke.cont229:                                   ; preds = %if.end228
  invoke void @_ZN7obj_refI3app11ast_managerEC2ERS1_(ptr noundef nonnull align 8 dereferenceable(16) %def, ptr noundef nonnull align 8 dereferenceable(976) %call230)
          to label %invoke.cont231 unwind label %lpad104

invoke.cont231:                                   ; preds = %invoke.cont229
  call void @_ZNSt7__cxx1112basic_stringIcSt11char_traitsIcESaIcEEC1Ev(ptr noundef nonnull align 8 dereferenceable(32) %fname) #3
  %121 = load ptr, ptr %f, align 8
  %call232 = call noundef nonnull align 8 dereferenceable(8) ptr @_ZNK4decl8get_nameEv(ptr noundef nonnull align 8 dereferenceable(32) %121)
  %call235 = invoke noundef zeroext i1 @_Z21is_smt2_quoted_symbolRK6symbol(ptr noundef nonnull align 8 dereferenceable(8) %call232)
          to label %invoke.cont234 unwind label %lpad233

invoke.cont234:                                   ; preds = %invoke.cont231
  br i1 %call235, label %if.then236, label %if.else241

if.then236:                                       ; preds = %invoke.cont234
  %122 = load ptr, ptr %f, align 8
  %call238 = call noundef nonnull align 8 dereferenceable(8) ptr @_ZNK4decl8get_nameEv(ptr noundef nonnull align 8 dereferenceable(32) %122)
  invoke void @_Z21mk_smt2_quoted_symbolB5cxx11RK6symbol(ptr sret(%"class.std::__cxx11::basic_string") align 8 %ref.tmp237, ptr noundef nonnull align 8 dereferenceable(8) %call238)
          to label %invoke.cont239 unwind label %lpad233

invoke.cont239:                                   ; preds = %if.then236
  %call240 = call noundef nonnull align 8 dereferenceable(32) ptr @_ZNSt7__cxx1112basic_stringIcSt11char_traitsIcESaIcEEaSEOS4_(ptr noundef nonnull align 8 dereferenceable(32) %fname, ptr noundef nonnull align 8 dereferenceable(32) %ref.tmp237) #3
  call void @_ZNSt7__cxx1112basic_stringIcSt11char_traitsIcESaIcEED1Ev(ptr noundef nonnull align 8 dereferenceable(32) %ref.tmp237) #3
  br label %if.end246

lpad233:                                          ; preds = %invoke.cont280, %invoke.cont275, %invoke.cont273, %invoke.cont271, %invoke.cont269, %invoke.cont267, %invoke.cont265, %invoke.cont263, %invoke.cont260, %invoke.cont258, %invoke.cont256, %invoke.cont253, %invoke.cont251, %invoke.cont249, %invoke.cont247, %if.end246, %if.else241, %if.then236, %invoke.cont231
  %123 = landingpad { ptr, i32 }
          cleanup
  %124 = extractvalue { ptr, i32 } %123, 0
  store ptr %124, ptr %exn.slot, align 8
  %125 = extractvalue { ptr, i32 } %123, 1
  store i32 %125, ptr %ehselector.slot, align 4
  br label %ehcleanup284

if.else241:                                       ; preds = %invoke.cont234
  %126 = load ptr, ptr %f, align 8
  %call243 = call noundef nonnull align 8 dereferenceable(8) ptr @_ZNK4decl8get_nameEv(ptr noundef nonnull align 8 dereferenceable(32) %126)
  invoke void @_ZNK6symbol3strB5cxx11Ev(ptr sret(%"class.std::__cxx11::basic_string") align 8 %ref.tmp242, ptr noundef nonnull align 8 dereferenceable(8) %call243)
          to label %invoke.cont244 unwind label %lpad233

invoke.cont244:                                   ; preds = %if.else241
  %call245 = call noundef nonnull align 8 dereferenceable(32) ptr @_ZNSt7__cxx1112basic_stringIcSt11char_traitsIcESaIcEEaSEOS4_(ptr noundef nonnull align 8 dereferenceable(32) %fname, ptr noundef nonnull align 8 dereferenceable(32) %ref.tmp242) #3
  call void @_ZNSt7__cxx1112basic_stringIcSt11char_traitsIcESaIcEED1Ev(ptr noundef nonnull align 8 dereferenceable(32) %ref.tmp242) #3
  br label %if.end246

if.end246:                                        ; preds = %invoke.cont244, %invoke.cont239
  %127 = load ptr, ptr %m, align 8
  %128 = load i32, ptr %indent.addr, align 4
  %129 = load ptr, ptr %m, align 8
  %130 = load ptr, ptr %m, align 8
  %131 = load ptr, ptr %m, align 8
  %call248 = invoke noundef ptr @_ZN9format_ns9mk_stringER11ast_managerPKc(ptr noundef nonnull align 8 dereferenceable(976) %131, ptr noundef @.str.20)
          to label %invoke.cont247 unwind label %lpad233

invoke.cont247:                                   ; preds = %if.end246
  %132 = load ptr, ptr %m, align 8
  %call250 = invoke noundef ptr @_ZN9format_nsL9mk_stringER11ast_managerRKNSt7__cxx1112basic_stringIcSt11char_traitsIcESaIcEEE(ptr noundef nonnull align 8 dereferenceable(976) %132, ptr noundef nonnull align 8 dereferenceable(32) %fname)
          to label %invoke.cont249 unwind label %lpad233

invoke.cont249:                                   ; preds = %invoke.cont247
  %133 = load ptr, ptr %m, align 8
  %call252 = invoke noundef ptr @_ZN9format_ns9mk_stringER11ast_managerPKc(ptr noundef nonnull align 8 dereferenceable(976) %133, ptr noundef @.str.2)
          to label %invoke.cont251 unwind label %lpad233

invoke.cont251:                                   ; preds = %invoke.cont249
  %134 = load ptr, ptr %m, align 8
  %135 = load ptr, ptr %f_domain90, align 8
  %136 = load ptr, ptr %m, align 8
  %call254 = invoke noundef ptr @_ZN9format_ns9mk_stringER11ast_managerPKc(ptr noundef nonnull align 8 dereferenceable(976) %136, ptr noundef @.str.2)
          to label %invoke.cont253 unwind label %lpad233

invoke.cont253:                                   ; preds = %invoke.cont251
  %call255 = call noundef ptr @_ZNK7obj_refI3app11ast_managerEcvPS0_Ev(ptr noundef nonnull align 8 dereferenceable(16) %f_range)
  %call257 = invoke noundef ptr @_ZN9format_ns10mk_composeER11ast_managerP3appS3_S3_(ptr noundef nonnull align 8 dereferenceable(976) %134, ptr noundef %135, ptr noundef %call254, ptr noundef %call255)
          to label %invoke.cont256 unwind label %lpad233

invoke.cont256:                                   ; preds = %invoke.cont253
  %call259 = invoke noundef ptr @_ZN9format_ns10mk_composeER11ast_managerP3appS3_S3_S3_(ptr noundef nonnull align 8 dereferenceable(976) %130, ptr noundef %call248, ptr noundef %call250, ptr noundef %call252, ptr noundef %call257)
          to label %invoke.cont258 unwind label %lpad233

invoke.cont258:                                   ; preds = %invoke.cont256
  %137 = load ptr, ptr %m, align 8
  %138 = load ptr, ptr %m, align 8
  %139 = load ptr, ptr %m, align 8
  %call261 = invoke noundef ptr @_ZN9format_ns13mk_line_breakER11ast_manager(ptr noundef nonnull align 8 dereferenceable(976) %139)
          to label %invoke.cont260 unwind label %lpad233

invoke.cont260:                                   ; preds = %invoke.cont258
  %call262 = call noundef ptr @_ZNK7obj_refI3app11ast_managerE3getEv(ptr noundef nonnull align 8 dereferenceable(16) %body)
  %140 = load ptr, ptr %m, align 8
  %call264 = invoke noundef ptr @_ZN9format_ns9mk_stringER11ast_managerPKc(ptr noundef nonnull align 8 dereferenceable(976) %140, ptr noundef @.str.14)
          to label %invoke.cont263 unwind label %lpad233

invoke.cont263:                                   ; preds = %invoke.cont260
  %call266 = invoke noundef ptr @_ZN9format_ns10mk_composeER11ast_managerP3appS3_S3_(ptr noundef nonnull align 8 dereferenceable(976) %138, ptr noundef %call261, ptr noundef %call262, ptr noundef %call264)
          to label %invoke.cont265 unwind label %lpad233

invoke.cont265:                                   ; preds = %invoke.cont263
  %call268 = invoke noundef ptr @_ZN9format_ns9mk_indentER11ast_managerjP3app(ptr noundef nonnull align 8 dereferenceable(976) %137, i32 noundef 2, ptr noundef %call266)
          to label %invoke.cont267 unwind label %lpad233

invoke.cont267:                                   ; preds = %invoke.cont265
  %call270 = invoke noundef ptr @_ZN9format_ns10mk_composeER11ast_managerP3appS3_(ptr noundef nonnull align 8 dereferenceable(976) %129, ptr noundef %call259, ptr noundef %call268)
          to label %invoke.cont269 unwind label %lpad233

invoke.cont269:                                   ; preds = %invoke.cont267
  %call272 = invoke noundef ptr @_ZN9format_ns9mk_indentER11ast_managerjP3app(ptr noundef nonnull align 8 dereferenceable(976) %127, i32 noundef %128, ptr noundef %call270)
          to label %invoke.cont271 unwind label %lpad233

invoke.cont271:                                   ; preds = %invoke.cont269
  %call274 = invoke noundef nonnull align 8 dereferenceable(16) ptr @_ZN7obj_refI3app11ast_managerEaSEPS0_(ptr noundef nonnull align 8 dereferenceable(16) %def, ptr noundef %call272)
          to label %invoke.cont273 unwind label %lpad233

invoke.cont273:                                   ; preds = %invoke.cont271
  %141 = load ptr, ptr %out.addr, align 8
  %142 = load i32, ptr %indent.addr, align 4
  invoke void @_ZL9pp_indentRSoj(ptr noundef nonnull align 8 dereferenceable(8) %141, i32 noundef %142)
          to label %invoke.cont275 unwind label %lpad233

invoke.cont275:                                   ; preds = %invoke.cont273
  %143 = load ptr, ptr %out.addr, align 8
  %call276 = call noundef ptr @_ZNK7obj_refI3app11ast_managerE3getEv(ptr noundef nonnull align 8 dereferenceable(16) %def)
  %144 = load ptr, ptr %m, align 8
  invoke void @_ZN10params_refC2Ev(ptr noundef nonnull align 8 dereferenceable(8) %ref.tmp277)
          to label %invoke.cont278 unwind label %lpad233

invoke.cont278:                                   ; preds = %invoke.cont275
  invoke void @_Z2ppRSoP3appR11ast_managerRK10params_ref(ptr noundef nonnull align 8 dereferenceable(8) %143, ptr noundef %call276, ptr noundef nonnull align 8 dereferenceable(976) %144, ptr noundef nonnull align 8 dereferenceable(8) %ref.tmp277)
          to label %invoke.cont280 unwind label %lpad279

invoke.cont280:                                   ; preds = %invoke.cont278
  call void @_ZN10params_refD1Ev(ptr noundef nonnull align 8 dereferenceable(8) %ref.tmp277) #3
  %145 = load ptr, ptr %out.addr, align 8
  %call283 = invoke noundef nonnull align 8 dereferenceable(8) ptr @_ZStlsISt11char_traitsIcEERSt13basic_ostreamIcT_ES5_PKc(ptr noundef nonnull align 8 dereferenceable(8) %145, ptr noundef @.str.5)
          to label %invoke.cont282 unwind label %lpad233

invoke.cont282:                                   ; preds = %invoke.cont280
  call void @_ZNSt7__cxx1112basic_stringIcSt11char_traitsIcESaIcEED1Ev(ptr noundef nonnull align 8 dereferenceable(32) %fname) #3
  call void @_ZN7obj_refI3app11ast_managerED2Ev(ptr noundef nonnull align 8 dereferenceable(16) %def) #3
  call void @_ZN7obj_refI3app11ast_managerED2Ev(ptr noundef nonnull align 8 dereferenceable(16) %f_range) #3
  call void @_ZN7obj_refI3app11ast_managerED2Ev(ptr noundef nonnull align 8 dereferenceable(16) %body) #3
  br label %for.inc288

for.inc288:                                       ; preds = %invoke.cont282, %if.then13, %if.then
  %146 = load ptr, ptr %__begin1, align 8
  %incdec.ptr289 = getelementptr inbounds ptr, ptr %146, i32 1
  store ptr %incdec.ptr289, ptr %__begin1, align 8
  br label %for.cond

lpad279:                                          ; preds = %invoke.cont278
  %147 = landingpad { ptr, i32 }
          cleanup
  %148 = extractvalue { ptr, i32 } %147, 0
  store ptr %148, ptr %exn.slot, align 8
  %149 = extractvalue { ptr, i32 } %147, 1
  store i32 %149, ptr %ehselector.slot, align 4
  call void @_ZN10params_refD1Ev(ptr noundef nonnull align 8 dereferenceable(8) %ref.tmp277) #3
  br label %ehcleanup284

ehcleanup284:                                     ; preds = %lpad279, %lpad233
  call void @_ZNSt7__cxx1112basic_stringIcSt11char_traitsIcESaIcEED1Ev(ptr noundef nonnull align 8 dereferenceable(32) %fname) #3
  call void @_ZN7obj_refI3app11ast_managerED2Ev(ptr noundef nonnull align 8 dereferenceable(16) %def) #3
  br label %ehcleanup286

ehcleanup286:                                     ; preds = %ehcleanup284, %lpad166, %lpad126, %lpad104
  call void @_ZN7obj_refI3app11ast_managerED2Ev(ptr noundef nonnull align 8 dereferenceable(16) %f_range) #3
  br label %ehcleanup287

ehcleanup287:                                     ; preds = %ehcleanup286, %lpad70, %ehcleanup, %lpad20
  call void @_ZN7obj_refI3app11ast_managerED2Ev(ptr noundef nonnull align 8 dereferenceable(16) %body) #3
  br label %ehcleanup291

for.end290:                                       ; preds = %for.cond
  call void @_ZN10ptr_bufferI9func_declLj16EED2Ev(ptr noundef nonnull align 8 dereferenceable(144) %func_decls) #3
  call void @_ZN10ptr_bufferI3appLj16EED2Ev(ptr noundef nonnull align 8 dereferenceable(144) %f_entry_conds) #3
  call void @_ZN10ptr_bufferI3appLj16EED2Ev(ptr noundef nonnull align 8 dereferenceable(144) %f_entries) #3
  call void @_ZN10ptr_bufferI3appLj16EED2Ev(ptr noundef nonnull align 8 dereferenceable(144) %f_arg_decls) #3
  call void @_ZN10ptr_bufferI3appLj16EED2Ev(ptr noundef nonnull align 8 dereferenceable(144) %f_var_names) #3
  call void @_ZN7sbufferI6symbolLj16EED2Ev(ptr noundef nonnull align 8 dereferenceable(144) %var_names) #3
  call void @_ZN6recfun4utilD1Ev(ptr noundef nonnull align 8 dereferenceable(24) %recfun_util) #3
  ret void

ehcleanup291:                                     ; preds = %ehcleanup287, %lpad1
  call void @_ZN10ptr_bufferI9func_declLj16EED2Ev(ptr noundef nonnull align 8 dereferenceable(144) %func_decls) #3
  call void @_ZN10ptr_bufferI3appLj16EED2Ev(ptr noundef nonnull align 8 dereferenceable(144) %f_entry_conds) #3
  call void @_ZN10ptr_bufferI3appLj16EED2Ev(ptr noundef nonnull align 8 dereferenceable(144) %f_entries) #3
  call void @_ZN10ptr_bufferI3appLj16EED2Ev(ptr noundef nonnull align 8 dereferenceable(144) %f_arg_decls) #3
  call void @_ZN10ptr_bufferI3appLj16EED2Ev(ptr noundef nonnull align 8 dereferenceable(144) %f_var_names) #3
  call void @_ZN7sbufferI6symbolLj16EED2Ev(ptr noundef nonnull align 8 dereferenceable(144) %var_names) #3
  br label %ehcleanup297

ehcleanup297:                                     ; preds = %ehcleanup291, %lpad
  call void @_ZN6recfun4utilD1Ev(ptr noundef nonnull align 8 dereferenceable(24) %recfun_util) #3
  br label %eh.resume

eh.resume:                                        ; preds = %ehcleanup297
  %exn = load ptr, ptr %exn.slot, align 8
  %sel = load i32, ptr %ehselector.slot, align 4
  %lpad.val = insertvalue { ptr, i32 } poison, ptr %exn, 0
  %lpad.val298 = insertvalue { ptr, i32 } %lpad.val, i32 %sel, 1
  resume { ptr, i32 } %lpad.val298
}

; Function Attrs: mustprogress uwtable
define hidden void @_Z13model_smt2_ppRSoR11ast_managerRK10model_corej(ptr noundef nonnull align 8 dereferenceable(8) %out, ptr noundef nonnull align 8 dereferenceable(976) %m, ptr noundef nonnull align 8 dereferenceable(96) %md, i32 noundef %indent) #4 personality ptr @__gxx_personality_v0 {
entry:
  %out.addr = alloca ptr, align 8
  %m.addr = alloca ptr, align 8
  %md.addr = alloca ptr, align 8
  %indent.addr = alloca i32, align 4
  %ctx = alloca %class.scoped_ptr, align 8
  %exn.slot = alloca ptr, align 8
  %ehselector.slot = alloca i32, align 4
  store ptr %out, ptr %out.addr, align 8
  store ptr %m, ptr %m.addr, align 8
  store ptr %md, ptr %md.addr, align 8
  store i32 %indent, ptr %indent.addr, align 4
  call void @_ZN10scoped_ptrI19ast_printer_contextEC2EPS0_(ptr noundef nonnull align 8 dereferenceable(8) %ctx, ptr noundef null)
  %0 = load ptr, ptr %m.addr, align 8
  %call = invoke noundef ptr @_Z29mk_simple_ast_printer_contextR11ast_manager(ptr noundef nonnull align 8 dereferenceable(976) %0)
          to label %invoke.cont unwind label %lpad

invoke.cont:                                      ; preds = %entry
  %call2 = invoke noundef nonnull align 8 dereferenceable(8) ptr @_ZN10scoped_ptrI19ast_printer_contextEaSEPS0_(ptr noundef nonnull align 8 dereferenceable(8) %ctx, ptr noundef %call)
          to label %invoke.cont1 unwind label %lpad

invoke.cont1:                                     ; preds = %invoke.cont
  %1 = load ptr, ptr %out.addr, align 8
  %call4 = invoke noundef ptr @_ZNK10scoped_ptrI19ast_printer_contextE3getEv(ptr noundef nonnull align 8 dereferenceable(8) %ctx)
          to label %invoke.cont3 unwind label %lpad

invoke.cont3:                                     ; preds = %invoke.cont1
  %2 = load ptr, ptr %md.addr, align 8
  %3 = load i32, ptr %indent.addr, align 4
  invoke void @_ZL17pp_uninterp_sortsRSoR19ast_printer_contextRK10model_corej(ptr noundef nonnull align 8 dereferenceable(8) %1, ptr noundef nonnull align 8 dereferenceable(8) %call4, ptr noundef nonnull align 8 dereferenceable(96) %2, i32 noundef %3)
          to label %invoke.cont5 unwind label %lpad

invoke.cont5:                                     ; preds = %invoke.cont3
  %4 = load ptr, ptr %out.addr, align 8
  %call7 = invoke noundef ptr @_ZNK10scoped_ptrI19ast_printer_contextE3getEv(ptr noundef nonnull align 8 dereferenceable(8) %ctx)
          to label %invoke.cont6 unwind label %lpad

invoke.cont6:                                     ; preds = %invoke.cont5
  %5 = load ptr, ptr %md.addr, align 8
  %6 = load i32, ptr %indent.addr, align 4
  invoke void @_ZL9pp_constsRSoR19ast_printer_contextRK10model_corej(ptr noundef nonnull align 8 dereferenceable(8) %4, ptr noundef nonnull align 8 dereferenceable(8) %call7, ptr noundef nonnull align 8 dereferenceable(96) %5, i32 noundef %6)
          to label %invoke.cont8 unwind label %lpad

invoke.cont8:                                     ; preds = %invoke.cont6
  %7 = load ptr, ptr %out.addr, align 8
  %call10 = invoke noundef ptr @_ZNK10scoped_ptrI19ast_printer_contextE3getEv(ptr noundef nonnull align 8 dereferenceable(8) %ctx)
          to label %invoke.cont9 unwind label %lpad

invoke.cont9:                                     ; preds = %invoke.cont8
  %8 = load ptr, ptr %md.addr, align 8
  %9 = load i32, ptr %indent.addr, align 4
  invoke void @_ZL7pp_funsRSoR19ast_printer_contextRK10model_corej(ptr noundef nonnull align 8 dereferenceable(8) %7, ptr noundef nonnull align 8 dereferenceable(8) %call10, ptr noundef nonnull align 8 dereferenceable(96) %8, i32 noundef %9)
          to label %invoke.cont11 unwind label %lpad

invoke.cont11:                                    ; preds = %invoke.cont9
  call void @_ZN10scoped_ptrI19ast_printer_contextED2Ev(ptr noundef nonnull align 8 dereferenceable(8) %ctx) #3
  ret void

lpad:                                             ; preds = %invoke.cont9, %invoke.cont8, %invoke.cont6, %invoke.cont5, %invoke.cont3, %invoke.cont1, %invoke.cont, %entry
  %10 = landingpad { ptr, i32 }
          cleanup
  %11 = extractvalue { ptr, i32 } %10, 0
  store ptr %11, ptr %exn.slot, align 8
  %12 = extractvalue { ptr, i32 } %10, 1
  store i32 %12, ptr %ehselector.slot, align 4
  call void @_ZN10scoped_ptrI19ast_printer_contextED2Ev(ptr noundef nonnull align 8 dereferenceable(8) %ctx) #3
  br label %eh.resume

eh.resume:                                        ; preds = %lpad
  %exn = load ptr, ptr %exn.slot, align 8
  %sel = load i32, ptr %ehselector.slot, align 4
  %lpad.val = insertvalue { ptr, i32 } poison, ptr %exn, 0
  %lpad.val12 = insertvalue { ptr, i32 } %lpad.val, i32 %sel, 1
  resume { ptr, i32 } %lpad.val12
}

; Function Attrs: mustprogress nounwind uwtable
define linkonce_odr hidden void @_ZN10scoped_ptrI19ast_printer_contextEC2EPS0_(ptr noundef nonnull align 8 dereferenceable(8) %this, ptr noundef %ptr) unnamed_addr #5 comdat align 2 {
entry:
  %this.addr = alloca ptr, align 8
  %ptr.addr = alloca ptr, align 8
  store ptr %this, ptr %this.addr, align 8
  store ptr %ptr, ptr %ptr.addr, align 8
  %this1 = load ptr, ptr %this.addr, align 8
  %m_ptr = getelementptr inbounds %class.scoped_ptr, ptr %this1, i32 0, i32 0
  %0 = load ptr, ptr %ptr.addr, align 8
  store ptr %0, ptr %m_ptr, align 8
  ret void
}

declare noundef ptr @_Z29mk_simple_ast_printer_contextR11ast_manager(ptr noundef nonnull align 8 dereferenceable(976)) #1

; Function Attrs: mustprogress uwtable
define linkonce_odr hidden noundef nonnull align 8 dereferenceable(8) ptr @_ZN10scoped_ptrI19ast_printer_contextEaSEPS0_(ptr noundef nonnull align 8 dereferenceable(8) %this, ptr noundef %n) #4 comdat align 2 {
entry:
  %this.addr = alloca ptr, align 8
  %n.addr = alloca ptr, align 8
  store ptr %this, ptr %this.addr, align 8
  store ptr %n, ptr %n.addr, align 8
  %this1 = load ptr, ptr %this.addr, align 8
  %m_ptr = getelementptr inbounds %class.scoped_ptr, ptr %this1, i32 0, i32 0
  %0 = load ptr, ptr %m_ptr, align 8
  %1 = load ptr, ptr %n.addr, align 8
  %cmp = icmp ne ptr %0, %1
  br i1 %cmp, label %if.then, label %if.end

if.then:                                          ; preds = %entry
  %m_ptr2 = getelementptr inbounds %class.scoped_ptr, ptr %this1, i32 0, i32 0
  %2 = load ptr, ptr %m_ptr2, align 8
  call void @_Z7deallocI19ast_printer_contextEvPT_(ptr noundef %2)
  %3 = load ptr, ptr %n.addr, align 8
  %m_ptr3 = getelementptr inbounds %class.scoped_ptr, ptr %this1, i32 0, i32 0
  store ptr %3, ptr %m_ptr3, align 8
  br label %if.end

if.end:                                           ; preds = %if.then, %entry
  ret ptr %this1
}

; Function Attrs: mustprogress nounwind uwtable
define linkonce_odr hidden noundef ptr @_ZNK10scoped_ptrI19ast_printer_contextE3getEv(ptr noundef nonnull align 8 dereferenceable(8) %this) #5 comdat align 2 {
entry:
  %this.addr = alloca ptr, align 8
  store ptr %this, ptr %this.addr, align 8
  %this1 = load ptr, ptr %this.addr, align 8
  %m_ptr = getelementptr inbounds %class.scoped_ptr, ptr %this1, i32 0, i32 0
  %0 = load ptr, ptr %m_ptr, align 8
  ret ptr %0
}

; Function Attrs: mustprogress nounwind uwtable
define linkonce_odr hidden void @_ZN10scoped_ptrI19ast_printer_contextED2Ev(ptr noundef nonnull align 8 dereferenceable(8) %this) unnamed_addr #5 comdat align 2 personality ptr @__gxx_personality_v0 {
entry:
  %this.addr = alloca ptr, align 8
  store ptr %this, ptr %this.addr, align 8
  %this1 = load ptr, ptr %this.addr, align 8
  %m_ptr = getelementptr inbounds %class.scoped_ptr, ptr %this1, i32 0, i32 0
  %0 = load ptr, ptr %m_ptr, align 8
  invoke void @_Z7deallocI19ast_printer_contextEvPT_(ptr noundef %0)
          to label %invoke.cont unwind label %terminate.lpad

invoke.cont:                                      ; preds = %entry
  ret void

terminate.lpad:                                   ; preds = %entry
  %1 = landingpad { ptr, i32 }
          catch ptr null
  %2 = extractvalue { ptr, i32 } %1, 0
  call void @__clang_call_terminate(ptr %2) #13
  unreachable
}

; Function Attrs: mustprogress uwtable
define hidden noundef nonnull align 8 dereferenceable(8) ptr @_ZlsRSoRK10model_core(ptr noundef nonnull align 8 dereferenceable(8) %out, ptr noundef nonnull align 8 dereferenceable(96) %m) #4 {
entry:
  %out.addr = alloca ptr, align 8
  %m.addr = alloca ptr, align 8
  store ptr %out, ptr %out.addr, align 8
  store ptr %m, ptr %m.addr, align 8
  %0 = load ptr, ptr %out.addr, align 8
  %1 = load ptr, ptr %m.addr, align 8
  %call = call noundef nonnull align 8 dereferenceable(976) ptr @_ZNK10model_core11get_managerEv(ptr noundef nonnull align 8 dereferenceable(96) %1)
  %2 = load ptr, ptr %m.addr, align 8
  call void @_Z13model_smt2_ppRSoR11ast_managerRK10model_corej(ptr noundef nonnull align 8 dereferenceable(8) %0, ptr noundef nonnull align 8 dereferenceable(976) %call, ptr noundef nonnull align 8 dereferenceable(96) %2, i32 noundef 0)
  %3 = load ptr, ptr %out.addr, align 8
  ret ptr %3
}

; Function Attrs: mustprogress nounwind uwtable
define linkonce_odr hidden noundef nonnull align 8 dereferenceable(976) ptr @_ZNK10model_core11get_managerEv(ptr noundef nonnull align 8 dereferenceable(96) %this) #5 comdat align 2 {
entry:
  %this.addr = alloca ptr, align 8
  store ptr %this, ptr %this.addr, align 8
  %this1 = load ptr, ptr %this.addr, align 8
  %m = getelementptr inbounds %class.model_core, ptr %this1, i32 0, i32 1
  %0 = load ptr, ptr %m, align 8
  ret ptr %0
}

; Function Attrs: mustprogress nounwind uwtable
define linkonce_odr hidden noundef i32 @_ZNK6vectorIP9func_declLb0EjE4sizeEv(ptr noundef nonnull align 8 dereferenceable(8) %this) #5 comdat align 2 {
entry:
  %retval = alloca i32, align 4
  %this.addr = alloca ptr, align 8
  store ptr %this, ptr %this.addr, align 8
  %this1 = load ptr, ptr %this.addr, align 8
  %m_data = getelementptr inbounds %class.vector, ptr %this1, i32 0, i32 0
  %0 = load ptr, ptr %m_data, align 8
  %cmp = icmp eq ptr %0, null
  br i1 %cmp, label %if.then, label %if.end

if.then:                                          ; preds = %entry
  store i32 0, ptr %retval, align 4
  br label %return

if.end:                                           ; preds = %entry
  %m_data2 = getelementptr inbounds %class.vector, ptr %this1, i32 0, i32 0
  %1 = load ptr, ptr %m_data2, align 8
  %arrayidx = getelementptr inbounds i32, ptr %1, i64 -1
  %2 = load i32, ptr %arrayidx, align 4
  store i32 %2, ptr %retval, align 4
  br label %return

return:                                           ; preds = %if.end, %if.then
  %3 = load i32, ptr %retval, align 4
  ret i32 %3
}

; Function Attrs: mustprogress nounwind uwtable
define linkonce_odr hidden noundef nonnull align 8 dereferenceable(8) ptr @_ZNK6vectorIP9func_declLb0EjEixEj(ptr noundef nonnull align 8 dereferenceable(8) %this, i32 noundef %idx) #5 comdat align 2 {
entry:
  %this.addr = alloca ptr, align 8
  %idx.addr = alloca i32, align 4
  store ptr %this, ptr %this.addr, align 8
  store i32 %idx, ptr %idx.addr, align 4
  %this1 = load ptr, ptr %this.addr, align 8
  %m_data = getelementptr inbounds %class.vector, ptr %this1, i32 0, i32 0
  %0 = load ptr, ptr %m_data, align 8
  %1 = load i32, ptr %idx.addr, align 4
  %idxprom = zext i32 %1 to i64
  %arrayidx = getelementptr inbounds ptr, ptr %0, i64 %idxprom
  ret ptr %arrayidx
}

; Function Attrs: mustprogress uwtable
define linkonce_odr hidden noundef zeroext i1 @_ZNK7obj_mapI9func_declP11func_interpE4findEPS0_RS2_(ptr noundef nonnull align 8 dereferenceable(24) %this, ptr noundef %k, ptr noundef nonnull align 8 dereferenceable(8) %v) #4 comdat align 2 {
entry:
  %this.addr = alloca ptr, align 8
  %k.addr = alloca ptr, align 8
  %v.addr = alloca ptr, align 8
  %e = alloca ptr, align 8
  store ptr %this, ptr %this.addr, align 8
  store ptr %k, ptr %k.addr, align 8
  store ptr %v, ptr %v.addr, align 8
  %this1 = load ptr, ptr %this.addr, align 8
  %0 = load ptr, ptr %k.addr, align 8
  %call = call noundef ptr @_ZNK7obj_mapI9func_declP11func_interpE9find_coreEPS0_(ptr noundef nonnull align 8 dereferenceable(24) %this1, ptr noundef %0)
  store ptr %call, ptr %e, align 8
  %1 = load ptr, ptr %e, align 8
  %tobool = icmp ne ptr %1, null
  br i1 %tobool, label %if.then, label %if.end

if.then:                                          ; preds = %entry
  %2 = load ptr, ptr %e, align 8
  %call2 = call noundef nonnull align 8 dereferenceable(16) ptr @_ZN7obj_mapI9func_declP11func_interpE13obj_map_entry8get_dataEv(ptr noundef nonnull align 8 dereferenceable(16) %2)
  %m_value = getelementptr inbounds %"struct.obj_map<func_decl, func_interp *>::key_data", ptr %call2, i32 0, i32 1
  %3 = load ptr, ptr %m_value, align 8
  %4 = load ptr, ptr %v.addr, align 8
  store ptr %3, ptr %4, align 8
  br label %if.end

if.end:                                           ; preds = %if.then, %entry
  %5 = load ptr, ptr %e, align 8
  %cmp = icmp ne ptr null, %5
  ret i1 %cmp
}

; Function Attrs: mustprogress uwtable
define linkonce_odr hidden noundef ptr @_ZNK7obj_mapI9func_declP11func_interpE9find_coreEPS0_(ptr noundef nonnull align 8 dereferenceable(24) %this, ptr noundef %k) #4 comdat align 2 {
entry:
  %this.addr = alloca ptr, align 8
  %k.addr = alloca ptr, align 8
  %ref.tmp = alloca %"struct.obj_map<func_decl, func_interp *>::key_data", align 8
  store ptr %this, ptr %this.addr, align 8
  store ptr %k, ptr %k.addr, align 8
  %this1 = load ptr, ptr %this.addr, align 8
  %m_table = getelementptr inbounds %class.obj_map.2, ptr %this1, i32 0, i32 0
  %0 = load ptr, ptr %k.addr, align 8
  call void @_ZN7obj_mapI9func_declP11func_interpE8key_dataC2EPS0_(ptr noundef nonnull align 8 dereferenceable(16) %ref.tmp, ptr noundef %0)
  %call = call noundef ptr @_ZNK14core_hashtableIN7obj_mapI9func_declP11func_interpE13obj_map_entryE8obj_hashINS4_8key_dataEE10default_eqIS7_EE9find_coreERKS7_(ptr noundef nonnull align 8 dereferenceable(20) %m_table, ptr noundef nonnull align 8 dereferenceable(16) %ref.tmp)
  ret ptr %call
}

; Function Attrs: mustprogress nounwind uwtable
define linkonce_odr hidden noundef nonnull align 8 dereferenceable(16) ptr @_ZN7obj_mapI9func_declP11func_interpE13obj_map_entry8get_dataEv(ptr noundef nonnull align 8 dereferenceable(16) %this) #5 comdat align 2 {
entry:
  %this.addr = alloca ptr, align 8
  store ptr %this, ptr %this.addr, align 8
  %this1 = load ptr, ptr %this.addr, align 8
  %m_data = getelementptr inbounds %"class.obj_map<func_decl, func_interp *>::obj_map_entry", ptr %this1, i32 0, i32 0
  ret ptr %m_data
}

; Function Attrs: mustprogress uwtable
define linkonce_odr hidden noundef ptr @_ZNK14core_hashtableIN7obj_mapI9func_declP11func_interpE13obj_map_entryE8obj_hashINS4_8key_dataEE10default_eqIS7_EE9find_coreERKS7_(ptr noundef nonnull align 8 dereferenceable(20) %this, ptr noundef nonnull align 8 dereferenceable(16) %e) #4 comdat align 2 {
entry:
  %retval = alloca ptr, align 8
  %this.addr = alloca ptr, align 8
  %e.addr = alloca ptr, align 8
  %hash = alloca i32, align 4
  %mask = alloca i32, align 4
  %idx = alloca i32, align 4
  %begin = alloca ptr, align 8
  %end = alloca ptr, align 8
  %curr = alloca ptr, align 8
  store ptr %this, ptr %this.addr, align 8
  store ptr %e, ptr %e.addr, align 8
  %this1 = load ptr, ptr %this.addr, align 8
  %0 = load ptr, ptr %e.addr, align 8
  %call = call noundef i32 @_ZNK14core_hashtableIN7obj_mapI9func_declP11func_interpE13obj_map_entryE8obj_hashINS4_8key_dataEE10default_eqIS7_EE8get_hashERKS7_(ptr noundef nonnull align 8 dereferenceable(20) %this1, ptr noundef nonnull align 8 dereferenceable(16) %0)
  store i32 %call, ptr %hash, align 4
  %m_capacity = getelementptr inbounds %class.core_hashtable.3, ptr %this1, i32 0, i32 1
  %1 = load i32, ptr %m_capacity, align 8
  %sub = sub i32 %1, 1
  store i32 %sub, ptr %mask, align 4
  %2 = load i32, ptr %hash, align 4
  %3 = load i32, ptr %mask, align 4
  %and = and i32 %2, %3
  store i32 %and, ptr %idx, align 4
  %m_table = getelementptr inbounds %class.core_hashtable.3, ptr %this1, i32 0, i32 0
  %4 = load ptr, ptr %m_table, align 8
  %5 = load i32, ptr %idx, align 4
  %idx.ext = zext i32 %5 to i64
  %add.ptr = getelementptr inbounds %"class.obj_map<func_decl, func_interp *>::obj_map_entry", ptr %4, i64 %idx.ext
  store ptr %add.ptr, ptr %begin, align 8
  %m_table2 = getelementptr inbounds %class.core_hashtable.3, ptr %this1, i32 0, i32 0
  %6 = load ptr, ptr %m_table2, align 8
  %m_capacity3 = getelementptr inbounds %class.core_hashtable.3, ptr %this1, i32 0, i32 1
  %7 = load i32, ptr %m_capacity3, align 8
  %idx.ext4 = zext i32 %7 to i64
  %add.ptr5 = getelementptr inbounds %"class.obj_map<func_decl, func_interp *>::obj_map_entry", ptr %6, i64 %idx.ext4
  store ptr %add.ptr5, ptr %end, align 8
  %8 = load ptr, ptr %begin, align 8
  store ptr %8, ptr %curr, align 8
  br label %for.cond

for.cond:                                         ; preds = %for.inc, %entry
  %9 = load ptr, ptr %curr, align 8
  %10 = load ptr, ptr %end, align 8
  %cmp = icmp ne ptr %9, %10
  br i1 %cmp, label %for.body, label %for.end

for.body:                                         ; preds = %for.cond
  %11 = load ptr, ptr %curr, align 8
  %call6 = call noundef zeroext i1 @_ZNK7obj_mapI9func_declP11func_interpE13obj_map_entry7is_usedEv(ptr noundef nonnull align 8 dereferenceable(16) %11)
  br i1 %call6, label %if.then, label %if.else

if.then:                                          ; preds = %for.body
  %12 = load ptr, ptr %curr, align 8
  %call7 = call noundef i32 @_ZNK7obj_mapI9func_declP11func_interpE13obj_map_entry8get_hashEv(ptr noundef nonnull align 8 dereferenceable(16) %12)
  %13 = load i32, ptr %hash, align 4
  %cmp8 = icmp eq i32 %call7, %13
  br i1 %cmp8, label %land.lhs.true, label %if.end

land.lhs.true:                                    ; preds = %if.then
  %14 = load ptr, ptr %curr, align 8
  %call9 = call noundef nonnull align 8 dereferenceable(16) ptr @_ZN7obj_mapI9func_declP11func_interpE13obj_map_entry8get_dataEv(ptr noundef nonnull align 8 dereferenceable(16) %14)
  %15 = load ptr, ptr %e.addr, align 8
  %call10 = call noundef zeroext i1 @_ZNK14core_hashtableIN7obj_mapI9func_declP11func_interpE13obj_map_entryE8obj_hashINS4_8key_dataEE10default_eqIS7_EE6equalsERKS7_SD_(ptr noundef nonnull align 8 dereferenceable(20) %this1, ptr noundef nonnull align 8 dereferenceable(16) %call9, ptr noundef nonnull align 8 dereferenceable(16) %15)
  br i1 %call10, label %if.then11, label %if.end

if.then11:                                        ; preds = %land.lhs.true
  %16 = load ptr, ptr %curr, align 8
  store ptr %16, ptr %retval, align 8
  br label %return

if.end:                                           ; preds = %land.lhs.true, %if.then
  br label %if.end16

if.else:                                          ; preds = %for.body
  %17 = load ptr, ptr %curr, align 8
  %call12 = call noundef zeroext i1 @_ZNK7obj_mapI9func_declP11func_interpE13obj_map_entry7is_freeEv(ptr noundef nonnull align 8 dereferenceable(16) %17)
  br i1 %call12, label %if.then13, label %if.else14

if.then13:                                        ; preds = %if.else
  store ptr null, ptr %retval, align 8
  br label %return

if.else14:                                        ; preds = %if.else
  br label %if.end15

if.end15:                                         ; preds = %if.else14
  br label %if.end16

if.end16:                                         ; preds = %if.end15, %if.end
  br label %for.inc

for.inc:                                          ; preds = %if.end16
  %18 = load ptr, ptr %curr, align 8
  %incdec.ptr = getelementptr inbounds %"class.obj_map<func_decl, func_interp *>::obj_map_entry", ptr %18, i32 1
  store ptr %incdec.ptr, ptr %curr, align 8
  br label %for.cond, !llvm.loop !15

for.end:                                          ; preds = %for.cond
  %m_table17 = getelementptr inbounds %class.core_hashtable.3, ptr %this1, i32 0, i32 0
  %19 = load ptr, ptr %m_table17, align 8
  store ptr %19, ptr %curr, align 8
  br label %for.cond18

for.cond18:                                       ; preds = %for.inc36, %for.end
  %20 = load ptr, ptr %curr, align 8
  %21 = load ptr, ptr %begin, align 8
  %cmp19 = icmp ne ptr %20, %21
  br i1 %cmp19, label %for.body20, label %for.end38

for.body20:                                       ; preds = %for.cond18
  %22 = load ptr, ptr %curr, align 8
  %call21 = call noundef zeroext i1 @_ZNK7obj_mapI9func_declP11func_interpE13obj_map_entry7is_usedEv(ptr noundef nonnull align 8 dereferenceable(16) %22)
  br i1 %call21, label %if.then22, label %if.else30

if.then22:                                        ; preds = %for.body20
  %23 = load ptr, ptr %curr, align 8
  %call23 = call noundef i32 @_ZNK7obj_mapI9func_declP11func_interpE13obj_map_entry8get_hashEv(ptr noundef nonnull align 8 dereferenceable(16) %23)
  %24 = load i32, ptr %hash, align 4
  %cmp24 = icmp eq i32 %call23, %24
  br i1 %cmp24, label %land.lhs.true25, label %if.end29

land.lhs.true25:                                  ; preds = %if.then22
  %25 = load ptr, ptr %curr, align 8
  %call26 = call noundef nonnull align 8 dereferenceable(16) ptr @_ZN7obj_mapI9func_declP11func_interpE13obj_map_entry8get_dataEv(ptr noundef nonnull align 8 dereferenceable(16) %25)
  %26 = load ptr, ptr %e.addr, align 8
  %call27 = call noundef zeroext i1 @_ZNK14core_hashtableIN7obj_mapI9func_declP11func_interpE13obj_map_entryE8obj_hashINS4_8key_dataEE10default_eqIS7_EE6equalsERKS7_SD_(ptr noundef nonnull align 8 dereferenceable(20) %this1, ptr noundef nonnull align 8 dereferenceable(16) %call26, ptr noundef nonnull align 8 dereferenceable(16) %26)
  br i1 %call27, label %if.then28, label %if.end29

if.then28:                                        ; preds = %land.lhs.true25
  %27 = load ptr, ptr %curr, align 8
  store ptr %27, ptr %retval, align 8
  br label %return

if.end29:                                         ; preds = %land.lhs.true25, %if.then22
  br label %if.end35

if.else30:                                        ; preds = %for.body20
  %28 = load ptr, ptr %curr, align 8
  %call31 = call noundef zeroext i1 @_ZNK7obj_mapI9func_declP11func_interpE13obj_map_entry7is_freeEv(ptr noundef nonnull align 8 dereferenceable(16) %28)
  br i1 %call31, label %if.then32, label %if.else33

if.then32:                                        ; preds = %if.else30
  store ptr null, ptr %retval, align 8
  br label %return

if.else33:                                        ; preds = %if.else30
  br label %if.end34

if.end34:                                         ; preds = %if.else33
  br label %if.end35

if.end35:                                         ; preds = %if.end34, %if.end29
  br label %for.inc36

for.inc36:                                        ; preds = %if.end35
  %29 = load ptr, ptr %curr, align 8
  %incdec.ptr37 = getelementptr inbounds %"class.obj_map<func_decl, func_interp *>::obj_map_entry", ptr %29, i32 1
  store ptr %incdec.ptr37, ptr %curr, align 8
  br label %for.cond18, !llvm.loop !16

for.end38:                                        ; preds = %for.cond18
  store ptr null, ptr %retval, align 8
  br label %return

return:                                           ; preds = %for.end38, %if.then32, %if.then28, %if.then13, %if.then11
  %30 = load ptr, ptr %retval, align 8
  ret ptr %30
}

; Function Attrs: mustprogress nounwind uwtable
define linkonce_odr hidden void @_ZN7obj_mapI9func_declP11func_interpE8key_dataC2EPS0_(ptr noundef nonnull align 8 dereferenceable(16) %this, ptr noundef %k) unnamed_addr #5 comdat align 2 {
entry:
  %this.addr = alloca ptr, align 8
  %k.addr = alloca ptr, align 8
  store ptr %this, ptr %this.addr, align 8
  store ptr %k, ptr %k.addr, align 8
  %this1 = load ptr, ptr %this.addr, align 8
  %m_key = getelementptr inbounds %"struct.obj_map<func_decl, func_interp *>::key_data", ptr %this1, i32 0, i32 0
  %0 = load ptr, ptr %k.addr, align 8
  store ptr %0, ptr %m_key, align 8
  %m_value = getelementptr inbounds %"struct.obj_map<func_decl, func_interp *>::key_data", ptr %this1, i32 0, i32 1
  store ptr null, ptr %m_value, align 8
  ret void
}

; Function Attrs: mustprogress uwtable
define linkonce_odr hidden noundef i32 @_ZNK14core_hashtableIN7obj_mapI9func_declP11func_interpE13obj_map_entryE8obj_hashINS4_8key_dataEE10default_eqIS7_EE8get_hashERKS7_(ptr noundef nonnull align 8 dereferenceable(20) %this, ptr noundef nonnull align 8 dereferenceable(16) %e) #4 comdat align 2 {
entry:
  %this.addr = alloca ptr, align 8
  %e.addr = alloca ptr, align 8
  store ptr %this, ptr %this.addr, align 8
  store ptr %e, ptr %e.addr, align 8
  %this1 = load ptr, ptr %this.addr, align 8
  %0 = load ptr, ptr %e.addr, align 8
  %call = call noundef i32 @_ZNK8obj_hashIN7obj_mapI9func_declP11func_interpE8key_dataEEclERKS5_(ptr noundef nonnull align 1 dereferenceable(1) %this1, ptr noundef nonnull align 8 dereferenceable(16) %0)
  ret i32 %call
}

; Function Attrs: mustprogress nounwind uwtable
define linkonce_odr hidden noundef zeroext i1 @_ZNK7obj_mapI9func_declP11func_interpE13obj_map_entry7is_usedEv(ptr noundef nonnull align 8 dereferenceable(16) %this) #5 comdat align 2 {
entry:
  %this.addr = alloca ptr, align 8
  store ptr %this, ptr %this.addr, align 8
  %this1 = load ptr, ptr %this.addr, align 8
  %m_data = getelementptr inbounds %"class.obj_map<func_decl, func_interp *>::obj_map_entry", ptr %this1, i32 0, i32 0
  %m_key = getelementptr inbounds %"struct.obj_map<func_decl, func_interp *>::key_data", ptr %m_data, i32 0, i32 0
  %0 = load ptr, ptr %m_key, align 8
  %cmp = icmp ne ptr %0, null
  br i1 %cmp, label %land.rhs, label %land.end

land.rhs:                                         ; preds = %entry
  %m_data2 = getelementptr inbounds %"class.obj_map<func_decl, func_interp *>::obj_map_entry", ptr %this1, i32 0, i32 0
  %m_key3 = getelementptr inbounds %"struct.obj_map<func_decl, func_interp *>::key_data", ptr %m_data2, i32 0, i32 0
  %1 = load ptr, ptr %m_key3, align 8
  %cmp4 = icmp ne ptr %1, inttoptr (i64 1 to ptr)
  br label %land.end

land.end:                                         ; preds = %land.rhs, %entry
  %2 = phi i1 [ false, %entry ], [ %cmp4, %land.rhs ]
  ret i1 %2
}

; Function Attrs: mustprogress uwtable
define linkonce_odr hidden noundef i32 @_ZNK7obj_mapI9func_declP11func_interpE13obj_map_entry8get_hashEv(ptr noundef nonnull align 8 dereferenceable(16) %this) #4 comdat align 2 {
entry:
  %this.addr = alloca ptr, align 8
  store ptr %this, ptr %this.addr, align 8
  %this1 = load ptr, ptr %this.addr, align 8
  %m_data = getelementptr inbounds %"class.obj_map<func_decl, func_interp *>::obj_map_entry", ptr %this1, i32 0, i32 0
  %call = call noundef i32 @_ZNK7obj_mapI9func_declP11func_interpE8key_data4hashEv(ptr noundef nonnull align 8 dereferenceable(16) %m_data)
  ret i32 %call
}

; Function Attrs: mustprogress uwtable
define linkonce_odr hidden noundef zeroext i1 @_ZNK14core_hashtableIN7obj_mapI9func_declP11func_interpE13obj_map_entryE8obj_hashINS4_8key_dataEE10default_eqIS7_EE6equalsERKS7_SD_(ptr noundef nonnull align 8 dereferenceable(20) %this, ptr noundef nonnull align 8 dereferenceable(16) %e1, ptr noundef nonnull align 8 dereferenceable(16) %e2) #4 comdat align 2 {
entry:
  %this.addr = alloca ptr, align 8
  %e1.addr = alloca ptr, align 8
  %e2.addr = alloca ptr, align 8
  store ptr %this, ptr %this.addr, align 8
  store ptr %e1, ptr %e1.addr, align 8
  store ptr %e2, ptr %e2.addr, align 8
  %this1 = load ptr, ptr %this.addr, align 8
  %0 = load ptr, ptr %e1.addr, align 8
  %1 = load ptr, ptr %e2.addr, align 8
  %call = call noundef zeroext i1 @_ZNK10default_eqIN7obj_mapI9func_declP11func_interpE8key_dataEEclERKS5_S8_(ptr noundef nonnull align 1 dereferenceable(1) %this1, ptr noundef nonnull align 8 dereferenceable(16) %0, ptr noundef nonnull align 8 dereferenceable(16) %1)
  ret i1 %call
}

; Function Attrs: mustprogress nounwind uwtable
define linkonce_odr hidden noundef zeroext i1 @_ZNK7obj_mapI9func_declP11func_interpE13obj_map_entry7is_freeEv(ptr noundef nonnull align 8 dereferenceable(16) %this) #5 comdat align 2 {
entry:
  %this.addr = alloca ptr, align 8
  store ptr %this, ptr %this.addr, align 8
  %this1 = load ptr, ptr %this.addr, align 8
  %m_data = getelementptr inbounds %"class.obj_map<func_decl, func_interp *>::obj_map_entry", ptr %this1, i32 0, i32 0
  %m_key = getelementptr inbounds %"struct.obj_map<func_decl, func_interp *>::key_data", ptr %m_data, i32 0, i32 0
  %0 = load ptr, ptr %m_key, align 8
  %cmp = icmp eq ptr %0, null
  ret i1 %cmp
}

; Function Attrs: mustprogress uwtable
define linkonce_odr hidden noundef i32 @_ZNK8obj_hashIN7obj_mapI9func_declP11func_interpE8key_dataEEclERKS5_(ptr noundef nonnull align 1 dereferenceable(1) %this, ptr noundef nonnull align 8 dereferenceable(16) %e) #4 comdat align 2 {
entry:
  %this.addr = alloca ptr, align 8
  %e.addr = alloca ptr, align 8
  store ptr %this, ptr %this.addr, align 8
  store ptr %e, ptr %e.addr, align 8
  %0 = load ptr, ptr %e.addr, align 8
  %call = call noundef i32 @_ZNK7obj_mapI9func_declP11func_interpE8key_data4hashEv(ptr noundef nonnull align 8 dereferenceable(16) %0)
  ret i32 %call
}

; Function Attrs: mustprogress uwtable
define linkonce_odr hidden noundef i32 @_ZNK7obj_mapI9func_declP11func_interpE8key_data4hashEv(ptr noundef nonnull align 8 dereferenceable(16) %this) #4 comdat align 2 {
entry:
  %this.addr = alloca ptr, align 8
  store ptr %this, ptr %this.addr, align 8
  %this1 = load ptr, ptr %this.addr, align 8
  %m_key = getelementptr inbounds %"struct.obj_map<func_decl, func_interp *>::key_data", ptr %this1, i32 0, i32 0
  %0 = load ptr, ptr %m_key, align 8
  %call = call noundef i32 @_ZNK3ast4hashEv(ptr noundef nonnull align 4 dereferenceable(16) %0)
  ret i32 %call
}

; Function Attrs: mustprogress nounwind uwtable
define linkonce_odr hidden noundef i32 @_ZNK3ast4hashEv(ptr noundef nonnull align 4 dereferenceable(16) %this) #5 comdat align 2 {
entry:
  %this.addr = alloca ptr, align 8
  store ptr %this, ptr %this.addr, align 8
  %this1 = load ptr, ptr %this.addr, align 8
  %m_hash = getelementptr inbounds %class.ast, ptr %this1, i32 0, i32 3
  %0 = load i32, ptr %m_hash, align 4
  ret i32 %0
}

; Function Attrs: mustprogress uwtable
define linkonce_odr hidden noundef zeroext i1 @_ZNK10default_eqIN7obj_mapI9func_declP11func_interpE8key_dataEEclERKS5_S8_(ptr noundef nonnull align 1 dereferenceable(1) %this, ptr noundef nonnull align 8 dereferenceable(16) %e1, ptr noundef nonnull align 8 dereferenceable(16) %e2) #4 comdat align 2 {
entry:
  %this.addr = alloca ptr, align 8
  %e1.addr = alloca ptr, align 8
  %e2.addr = alloca ptr, align 8
  store ptr %this, ptr %this.addr, align 8
  store ptr %e1, ptr %e1.addr, align 8
  store ptr %e2, ptr %e2.addr, align 8
  %0 = load ptr, ptr %e1.addr, align 8
  %1 = load ptr, ptr %e2.addr, align 8
  %call = call noundef zeroext i1 @_ZNK7obj_mapI9func_declP11func_interpE8key_dataeqERKS4_(ptr noundef nonnull align 8 dereferenceable(16) %0, ptr noundef nonnull align 8 dereferenceable(16) %1)
  ret i1 %call
}

; Function Attrs: mustprogress nounwind uwtable
define linkonce_odr hidden noundef zeroext i1 @_ZNK7obj_mapI9func_declP11func_interpE8key_dataeqERKS4_(ptr noundef nonnull align 8 dereferenceable(16) %this, ptr noundef nonnull align 8 dereferenceable(16) %other) #5 comdat align 2 {
entry:
  %this.addr = alloca ptr, align 8
  %other.addr = alloca ptr, align 8
  store ptr %this, ptr %this.addr, align 8
  store ptr %other, ptr %other.addr, align 8
  %this1 = load ptr, ptr %this.addr, align 8
  %m_key = getelementptr inbounds %"struct.obj_map<func_decl, func_interp *>::key_data", ptr %this1, i32 0, i32 0
  %0 = load ptr, ptr %m_key, align 8
  %1 = load ptr, ptr %other.addr, align 8
  %m_key2 = getelementptr inbounds %"struct.obj_map<func_decl, func_interp *>::key_data", ptr %1, i32 0, i32 0
  %2 = load ptr, ptr %m_key2, align 8
  %cmp = icmp eq ptr %0, %2
  ret i1 %cmp
}

; Function Attrs: mustprogress uwtable
define linkonce_odr hidden noundef zeroext i1 @_ZNK7obj_mapI9func_declSt4pairIjP4exprEE8containsEPS0_(ptr noundef nonnull align 8 dereferenceable(24) %this, ptr noundef %k) #4 comdat align 2 {
entry:
  %this.addr = alloca ptr, align 8
  %k.addr = alloca ptr, align 8
  store ptr %this, ptr %this.addr, align 8
  store ptr %k, ptr %k.addr, align 8
  %this1 = load ptr, ptr %this.addr, align 8
  %0 = load ptr, ptr %k.addr, align 8
  %call = call noundef ptr @_ZNK7obj_mapI9func_declSt4pairIjP4exprEE9find_coreEPS0_(ptr noundef nonnull align 8 dereferenceable(24) %this1, ptr noundef %0)
  %cmp = icmp ne ptr %call, null
  ret i1 %cmp
}

; Function Attrs: mustprogress uwtable
define linkonce_odr hidden noundef zeroext i1 @_ZNK7obj_mapI9func_declP11func_interpE8containsEPS0_(ptr noundef nonnull align 8 dereferenceable(24) %this, ptr noundef %k) #4 comdat align 2 {
entry:
  %this.addr = alloca ptr, align 8
  %k.addr = alloca ptr, align 8
  store ptr %this, ptr %this.addr, align 8
  store ptr %k, ptr %k.addr, align 8
  %this1 = load ptr, ptr %this.addr, align 8
  %0 = load ptr, ptr %k.addr, align 8
  %call = call noundef ptr @_ZNK7obj_mapI9func_declP11func_interpE9find_coreEPS0_(ptr noundef nonnull align 8 dereferenceable(24) %this1, ptr noundef %0)
  %cmp = icmp ne ptr %call, null
  ret i1 %cmp
}

; Function Attrs: mustprogress uwtable
define linkonce_odr hidden noundef ptr @_ZNK7obj_mapI9func_declSt4pairIjP4exprEE9find_coreEPS0_(ptr noundef nonnull align 8 dereferenceable(24) %this, ptr noundef %k) #4 comdat align 2 {
entry:
  %this.addr = alloca ptr, align 8
  %k.addr = alloca ptr, align 8
  %ref.tmp = alloca %"struct.obj_map<func_decl, std::pair<unsigned int, expr *>>::key_data", align 8
  store ptr %this, ptr %this.addr, align 8
  store ptr %k, ptr %k.addr, align 8
  %this1 = load ptr, ptr %this.addr, align 8
  %m_table = getelementptr inbounds %class.obj_map, ptr %this1, i32 0, i32 0
  %0 = load ptr, ptr %k.addr, align 8
  call void @_ZN7obj_mapI9func_declSt4pairIjP4exprEE8key_dataC2EPS0_(ptr noundef nonnull align 8 dereferenceable(24) %ref.tmp, ptr noundef %0)
  %call = call noundef ptr @_ZNK14core_hashtableIN7obj_mapI9func_declSt4pairIjP4exprEE13obj_map_entryE8obj_hashINS6_8key_dataEE10default_eqIS9_EE9find_coreERKS9_(ptr noundef nonnull align 8 dereferenceable(20) %m_table, ptr noundef nonnull align 8 dereferenceable(24) %ref.tmp)
  ret ptr %call
}

; Function Attrs: mustprogress uwtable
define linkonce_odr hidden noundef ptr @_ZNK14core_hashtableIN7obj_mapI9func_declSt4pairIjP4exprEE13obj_map_entryE8obj_hashINS6_8key_dataEE10default_eqIS9_EE9find_coreERKS9_(ptr noundef nonnull align 8 dereferenceable(20) %this, ptr noundef nonnull align 8 dereferenceable(24) %e) #4 comdat align 2 {
entry:
  %retval = alloca ptr, align 8
  %this.addr = alloca ptr, align 8
  %e.addr = alloca ptr, align 8
  %hash = alloca i32, align 4
  %mask = alloca i32, align 4
  %idx = alloca i32, align 4
  %begin = alloca ptr, align 8
  %end = alloca ptr, align 8
  %curr = alloca ptr, align 8
  store ptr %this, ptr %this.addr, align 8
  store ptr %e, ptr %e.addr, align 8
  %this1 = load ptr, ptr %this.addr, align 8
  %0 = load ptr, ptr %e.addr, align 8
  %call = call noundef i32 @_ZNK14core_hashtableIN7obj_mapI9func_declSt4pairIjP4exprEE13obj_map_entryE8obj_hashINS6_8key_dataEE10default_eqIS9_EE8get_hashERKS9_(ptr noundef nonnull align 8 dereferenceable(20) %this1, ptr noundef nonnull align 8 dereferenceable(24) %0)
  store i32 %call, ptr %hash, align 4
  %m_capacity = getelementptr inbounds %class.core_hashtable.0, ptr %this1, i32 0, i32 1
  %1 = load i32, ptr %m_capacity, align 8
  %sub = sub i32 %1, 1
  store i32 %sub, ptr %mask, align 4
  %2 = load i32, ptr %hash, align 4
  %3 = load i32, ptr %mask, align 4
  %and = and i32 %2, %3
  store i32 %and, ptr %idx, align 4
  %m_table = getelementptr inbounds %class.core_hashtable.0, ptr %this1, i32 0, i32 0
  %4 = load ptr, ptr %m_table, align 8
  %5 = load i32, ptr %idx, align 4
  %idx.ext = zext i32 %5 to i64
  %add.ptr = getelementptr inbounds %"class.obj_map<func_decl, std::pair<unsigned int, expr *>>::obj_map_entry", ptr %4, i64 %idx.ext
  store ptr %add.ptr, ptr %begin, align 8
  %m_table2 = getelementptr inbounds %class.core_hashtable.0, ptr %this1, i32 0, i32 0
  %6 = load ptr, ptr %m_table2, align 8
  %m_capacity3 = getelementptr inbounds %class.core_hashtable.0, ptr %this1, i32 0, i32 1
  %7 = load i32, ptr %m_capacity3, align 8
  %idx.ext4 = zext i32 %7 to i64
  %add.ptr5 = getelementptr inbounds %"class.obj_map<func_decl, std::pair<unsigned int, expr *>>::obj_map_entry", ptr %6, i64 %idx.ext4
  store ptr %add.ptr5, ptr %end, align 8
  %8 = load ptr, ptr %begin, align 8
  store ptr %8, ptr %curr, align 8
  br label %for.cond

for.cond:                                         ; preds = %for.inc, %entry
  %9 = load ptr, ptr %curr, align 8
  %10 = load ptr, ptr %end, align 8
  %cmp = icmp ne ptr %9, %10
  br i1 %cmp, label %for.body, label %for.end

for.body:                                         ; preds = %for.cond
  %11 = load ptr, ptr %curr, align 8
  %call6 = call noundef zeroext i1 @_ZNK7obj_mapI9func_declSt4pairIjP4exprEE13obj_map_entry7is_usedEv(ptr noundef nonnull align 8 dereferenceable(24) %11)
  br i1 %call6, label %if.then, label %if.else

if.then:                                          ; preds = %for.body
  %12 = load ptr, ptr %curr, align 8
  %call7 = call noundef i32 @_ZNK7obj_mapI9func_declSt4pairIjP4exprEE13obj_map_entry8get_hashEv(ptr noundef nonnull align 8 dereferenceable(24) %12)
  %13 = load i32, ptr %hash, align 4
  %cmp8 = icmp eq i32 %call7, %13
  br i1 %cmp8, label %land.lhs.true, label %if.end

land.lhs.true:                                    ; preds = %if.then
  %14 = load ptr, ptr %curr, align 8
  %call9 = call noundef nonnull align 8 dereferenceable(24) ptr @_ZN7obj_mapI9func_declSt4pairIjP4exprEE13obj_map_entry8get_dataEv(ptr noundef nonnull align 8 dereferenceable(24) %14)
  %15 = load ptr, ptr %e.addr, align 8
  %call10 = call noundef zeroext i1 @_ZNK14core_hashtableIN7obj_mapI9func_declSt4pairIjP4exprEE13obj_map_entryE8obj_hashINS6_8key_dataEE10default_eqIS9_EE6equalsERKS9_SF_(ptr noundef nonnull align 8 dereferenceable(20) %this1, ptr noundef nonnull align 8 dereferenceable(24) %call9, ptr noundef nonnull align 8 dereferenceable(24) %15)
  br i1 %call10, label %if.then11, label %if.end

if.then11:                                        ; preds = %land.lhs.true
  %16 = load ptr, ptr %curr, align 8
  store ptr %16, ptr %retval, align 8
  br label %return

if.end:                                           ; preds = %land.lhs.true, %if.then
  br label %if.end16

if.else:                                          ; preds = %for.body
  %17 = load ptr, ptr %curr, align 8
  %call12 = call noundef zeroext i1 @_ZNK7obj_mapI9func_declSt4pairIjP4exprEE13obj_map_entry7is_freeEv(ptr noundef nonnull align 8 dereferenceable(24) %17)
  br i1 %call12, label %if.then13, label %if.else14

if.then13:                                        ; preds = %if.else
  store ptr null, ptr %retval, align 8
  br label %return

if.else14:                                        ; preds = %if.else
  br label %if.end15

if.end15:                                         ; preds = %if.else14
  br label %if.end16

if.end16:                                         ; preds = %if.end15, %if.end
  br label %for.inc

for.inc:                                          ; preds = %if.end16
  %18 = load ptr, ptr %curr, align 8
  %incdec.ptr = getelementptr inbounds %"class.obj_map<func_decl, std::pair<unsigned int, expr *>>::obj_map_entry", ptr %18, i32 1
  store ptr %incdec.ptr, ptr %curr, align 8
  br label %for.cond, !llvm.loop !17

for.end:                                          ; preds = %for.cond
  %m_table17 = getelementptr inbounds %class.core_hashtable.0, ptr %this1, i32 0, i32 0
  %19 = load ptr, ptr %m_table17, align 8
  store ptr %19, ptr %curr, align 8
  br label %for.cond18

for.cond18:                                       ; preds = %for.inc36, %for.end
  %20 = load ptr, ptr %curr, align 8
  %21 = load ptr, ptr %begin, align 8
  %cmp19 = icmp ne ptr %20, %21
  br i1 %cmp19, label %for.body20, label %for.end38

for.body20:                                       ; preds = %for.cond18
  %22 = load ptr, ptr %curr, align 8
  %call21 = call noundef zeroext i1 @_ZNK7obj_mapI9func_declSt4pairIjP4exprEE13obj_map_entry7is_usedEv(ptr noundef nonnull align 8 dereferenceable(24) %22)
  br i1 %call21, label %if.then22, label %if.else30

if.then22:                                        ; preds = %for.body20
  %23 = load ptr, ptr %curr, align 8
  %call23 = call noundef i32 @_ZNK7obj_mapI9func_declSt4pairIjP4exprEE13obj_map_entry8get_hashEv(ptr noundef nonnull align 8 dereferenceable(24) %23)
  %24 = load i32, ptr %hash, align 4
  %cmp24 = icmp eq i32 %call23, %24
  br i1 %cmp24, label %land.lhs.true25, label %if.end29

land.lhs.true25:                                  ; preds = %if.then22
  %25 = load ptr, ptr %curr, align 8
  %call26 = call noundef nonnull align 8 dereferenceable(24) ptr @_ZN7obj_mapI9func_declSt4pairIjP4exprEE13obj_map_entry8get_dataEv(ptr noundef nonnull align 8 dereferenceable(24) %25)
  %26 = load ptr, ptr %e.addr, align 8
  %call27 = call noundef zeroext i1 @_ZNK14core_hashtableIN7obj_mapI9func_declSt4pairIjP4exprEE13obj_map_entryE8obj_hashINS6_8key_dataEE10default_eqIS9_EE6equalsERKS9_SF_(ptr noundef nonnull align 8 dereferenceable(20) %this1, ptr noundef nonnull align 8 dereferenceable(24) %call26, ptr noundef nonnull align 8 dereferenceable(24) %26)
  br i1 %call27, label %if.then28, label %if.end29

if.then28:                                        ; preds = %land.lhs.true25
  %27 = load ptr, ptr %curr, align 8
  store ptr %27, ptr %retval, align 8
  br label %return

if.end29:                                         ; preds = %land.lhs.true25, %if.then22
  br label %if.end35

if.else30:                                        ; preds = %for.body20
  %28 = load ptr, ptr %curr, align 8
  %call31 = call noundef zeroext i1 @_ZNK7obj_mapI9func_declSt4pairIjP4exprEE13obj_map_entry7is_freeEv(ptr noundef nonnull align 8 dereferenceable(24) %28)
  br i1 %call31, label %if.then32, label %if.else33

if.then32:                                        ; preds = %if.else30
  store ptr null, ptr %retval, align 8
  br label %return

if.else33:                                        ; preds = %if.else30
  br label %if.end34

if.end34:                                         ; preds = %if.else33
  br label %if.end35

if.end35:                                         ; preds = %if.end34, %if.end29
  br label %for.inc36

for.inc36:                                        ; preds = %if.end35
  %29 = load ptr, ptr %curr, align 8
  %incdec.ptr37 = getelementptr inbounds %"class.obj_map<func_decl, std::pair<unsigned int, expr *>>::obj_map_entry", ptr %29, i32 1
  store ptr %incdec.ptr37, ptr %curr, align 8
  br label %for.cond18, !llvm.loop !18

for.end38:                                        ; preds = %for.cond18
  store ptr null, ptr %retval, align 8
  br label %return

return:                                           ; preds = %for.end38, %if.then32, %if.then28, %if.then13, %if.then11
  %30 = load ptr, ptr %retval, align 8
  ret ptr %30
}

; Function Attrs: mustprogress uwtable
define linkonce_odr hidden void @_ZN7obj_mapI9func_declSt4pairIjP4exprEE8key_dataC2EPS0_(ptr noundef nonnull align 8 dereferenceable(24) %this, ptr noundef %k) unnamed_addr #4 comdat align 2 {
entry:
  %this.addr = alloca ptr, align 8
  %k.addr = alloca ptr, align 8
  store ptr %this, ptr %this.addr, align 8
  store ptr %k, ptr %k.addr, align 8
  %this1 = load ptr, ptr %this.addr, align 8
  %m_key = getelementptr inbounds %"struct.obj_map<func_decl, std::pair<unsigned int, expr *>>::key_data", ptr %this1, i32 0, i32 0
  %0 = load ptr, ptr %k.addr, align 8
  store ptr %0, ptr %m_key, align 8
  %m_value = getelementptr inbounds %"struct.obj_map<func_decl, std::pair<unsigned int, expr *>>::key_data", ptr %this1, i32 0, i32 1
  call void @_ZNSt4pairIjP4exprEC2IjS1_TnNSt9enable_ifIXsr6__and_ISt37__is_implicitly_default_constructibleIT_ES5_IT0_EEE5valueEbE4typeELb1EEEv(ptr noundef nonnull align 8 dereferenceable(16) %m_value)
  ret void
}

; Function Attrs: mustprogress uwtable
define linkonce_odr hidden noundef i32 @_ZNK14core_hashtableIN7obj_mapI9func_declSt4pairIjP4exprEE13obj_map_entryE8obj_hashINS6_8key_dataEE10default_eqIS9_EE8get_hashERKS9_(ptr noundef nonnull align 8 dereferenceable(20) %this, ptr noundef nonnull align 8 dereferenceable(24) %e) #4 comdat align 2 {
entry:
  %this.addr = alloca ptr, align 8
  %e.addr = alloca ptr, align 8
  store ptr %this, ptr %this.addr, align 8
  store ptr %e, ptr %e.addr, align 8
  %this1 = load ptr, ptr %this.addr, align 8
  %0 = load ptr, ptr %e.addr, align 8
  %call = call noundef i32 @_ZNK8obj_hashIN7obj_mapI9func_declSt4pairIjP4exprEE8key_dataEEclERKS7_(ptr noundef nonnull align 1 dereferenceable(1) %this1, ptr noundef nonnull align 8 dereferenceable(24) %0)
  ret i32 %call
}

; Function Attrs: mustprogress nounwind uwtable
define linkonce_odr hidden noundef zeroext i1 @_ZNK7obj_mapI9func_declSt4pairIjP4exprEE13obj_map_entry7is_usedEv(ptr noundef nonnull align 8 dereferenceable(24) %this) #5 comdat align 2 {
entry:
  %this.addr = alloca ptr, align 8
  store ptr %this, ptr %this.addr, align 8
  %this1 = load ptr, ptr %this.addr, align 8
  %m_data = getelementptr inbounds %"class.obj_map<func_decl, std::pair<unsigned int, expr *>>::obj_map_entry", ptr %this1, i32 0, i32 0
  %m_key = getelementptr inbounds %"struct.obj_map<func_decl, std::pair<unsigned int, expr *>>::key_data", ptr %m_data, i32 0, i32 0
  %0 = load ptr, ptr %m_key, align 8
  %cmp = icmp ne ptr %0, null
  br i1 %cmp, label %land.rhs, label %land.end

land.rhs:                                         ; preds = %entry
  %m_data2 = getelementptr inbounds %"class.obj_map<func_decl, std::pair<unsigned int, expr *>>::obj_map_entry", ptr %this1, i32 0, i32 0
  %m_key3 = getelementptr inbounds %"struct.obj_map<func_decl, std::pair<unsigned int, expr *>>::key_data", ptr %m_data2, i32 0, i32 0
  %1 = load ptr, ptr %m_key3, align 8
  %cmp4 = icmp ne ptr %1, inttoptr (i64 1 to ptr)
  br label %land.end

land.end:                                         ; preds = %land.rhs, %entry
  %2 = phi i1 [ false, %entry ], [ %cmp4, %land.rhs ]
  ret i1 %2
}

; Function Attrs: mustprogress nounwind uwtable
define linkonce_odr hidden noundef i32 @_ZNK7obj_mapI9func_declSt4pairIjP4exprEE13obj_map_entry8get_hashEv(ptr noundef nonnull align 8 dereferenceable(24) %this) #5 comdat align 2 {
entry:
  %this.addr = alloca ptr, align 8
  store ptr %this, ptr %this.addr, align 8
  %this1 = load ptr, ptr %this.addr, align 8
  %m_data = getelementptr inbounds %"class.obj_map<func_decl, std::pair<unsigned int, expr *>>::obj_map_entry", ptr %this1, i32 0, i32 0
  %call = call noundef i32 @_ZNK7obj_mapI9func_declSt4pairIjP4exprEE8key_data4hashEv(ptr noundef nonnull align 8 dereferenceable(24) %m_data)
  ret i32 %call
}

; Function Attrs: mustprogress uwtable
define linkonce_odr hidden noundef zeroext i1 @_ZNK14core_hashtableIN7obj_mapI9func_declSt4pairIjP4exprEE13obj_map_entryE8obj_hashINS6_8key_dataEE10default_eqIS9_EE6equalsERKS9_SF_(ptr noundef nonnull align 8 dereferenceable(20) %this, ptr noundef nonnull align 8 dereferenceable(24) %e1, ptr noundef nonnull align 8 dereferenceable(24) %e2) #4 comdat align 2 {
entry:
  %this.addr = alloca ptr, align 8
  %e1.addr = alloca ptr, align 8
  %e2.addr = alloca ptr, align 8
  store ptr %this, ptr %this.addr, align 8
  store ptr %e1, ptr %e1.addr, align 8
  store ptr %e2, ptr %e2.addr, align 8
  %this1 = load ptr, ptr %this.addr, align 8
  %0 = load ptr, ptr %e1.addr, align 8
  %1 = load ptr, ptr %e2.addr, align 8
  %call = call noundef zeroext i1 @_ZNK10default_eqIN7obj_mapI9func_declSt4pairIjP4exprEE8key_dataEEclERKS7_SA_(ptr noundef nonnull align 1 dereferenceable(1) %this1, ptr noundef nonnull align 8 dereferenceable(24) %0, ptr noundef nonnull align 8 dereferenceable(24) %1)
  ret i1 %call
}

; Function Attrs: mustprogress nounwind uwtable
define linkonce_odr hidden noundef nonnull align 8 dereferenceable(24) ptr @_ZN7obj_mapI9func_declSt4pairIjP4exprEE13obj_map_entry8get_dataEv(ptr noundef nonnull align 8 dereferenceable(24) %this) #5 comdat align 2 {
entry:
  %this.addr = alloca ptr, align 8
  store ptr %this, ptr %this.addr, align 8
  %this1 = load ptr, ptr %this.addr, align 8
  %m_data = getelementptr inbounds %"class.obj_map<func_decl, std::pair<unsigned int, expr *>>::obj_map_entry", ptr %this1, i32 0, i32 0
  ret ptr %m_data
}

; Function Attrs: mustprogress nounwind uwtable
define linkonce_odr hidden noundef zeroext i1 @_ZNK7obj_mapI9func_declSt4pairIjP4exprEE13obj_map_entry7is_freeEv(ptr noundef nonnull align 8 dereferenceable(24) %this) #5 comdat align 2 {
entry:
  %this.addr = alloca ptr, align 8
  store ptr %this, ptr %this.addr, align 8
  %this1 = load ptr, ptr %this.addr, align 8
  %m_data = getelementptr inbounds %"class.obj_map<func_decl, std::pair<unsigned int, expr *>>::obj_map_entry", ptr %this1, i32 0, i32 0
  %m_key = getelementptr inbounds %"struct.obj_map<func_decl, std::pair<unsigned int, expr *>>::key_data", ptr %m_data, i32 0, i32 0
  %0 = load ptr, ptr %m_key, align 8
  %cmp = icmp eq ptr %0, null
  ret i1 %cmp
}

; Function Attrs: mustprogress uwtable
define linkonce_odr hidden noundef i32 @_ZNK8obj_hashIN7obj_mapI9func_declSt4pairIjP4exprEE8key_dataEEclERKS7_(ptr noundef nonnull align 1 dereferenceable(1) %this, ptr noundef nonnull align 8 dereferenceable(24) %e) #4 comdat align 2 {
entry:
  %this.addr = alloca ptr, align 8
  %e.addr = alloca ptr, align 8
  store ptr %this, ptr %this.addr, align 8
  store ptr %e, ptr %e.addr, align 8
  %0 = load ptr, ptr %e.addr, align 8
  %call = call noundef i32 @_ZNK7obj_mapI9func_declSt4pairIjP4exprEE8key_data4hashEv(ptr noundef nonnull align 8 dereferenceable(24) %0)
  ret i32 %call
}

; Function Attrs: mustprogress nounwind uwtable
define linkonce_odr hidden noundef i32 @_ZNK7obj_mapI9func_declSt4pairIjP4exprEE8key_data4hashEv(ptr noundef nonnull align 8 dereferenceable(24) %this) #5 comdat align 2 {
entry:
  %this.addr = alloca ptr, align 8
  store ptr %this, ptr %this.addr, align 8
  %this1 = load ptr, ptr %this.addr, align 8
  %m_key = getelementptr inbounds %"struct.obj_map<func_decl, std::pair<unsigned int, expr *>>::key_data", ptr %this1, i32 0, i32 0
  %0 = load ptr, ptr %m_key, align 8
  %call = call noundef i32 @_ZNK3ast4hashEv(ptr noundef nonnull align 4 dereferenceable(16) %0)
  ret i32 %call
}

; Function Attrs: mustprogress uwtable
define linkonce_odr hidden noundef zeroext i1 @_ZNK10default_eqIN7obj_mapI9func_declSt4pairIjP4exprEE8key_dataEEclERKS7_SA_(ptr noundef nonnull align 1 dereferenceable(1) %this, ptr noundef nonnull align 8 dereferenceable(24) %e1, ptr noundef nonnull align 8 dereferenceable(24) %e2) #4 comdat align 2 {
entry:
  %this.addr = alloca ptr, align 8
  %e1.addr = alloca ptr, align 8
  %e2.addr = alloca ptr, align 8
  store ptr %this, ptr %this.addr, align 8
  store ptr %e1, ptr %e1.addr, align 8
  store ptr %e2, ptr %e2.addr, align 8
  %0 = load ptr, ptr %e1.addr, align 8
  %1 = load ptr, ptr %e2.addr, align 8
  %call = call noundef zeroext i1 @_ZNK7obj_mapI9func_declSt4pairIjP4exprEE8key_dataeqERKS6_(ptr noundef nonnull align 8 dereferenceable(24) %0, ptr noundef nonnull align 8 dereferenceable(24) %1)
  ret i1 %call
}

; Function Attrs: mustprogress nounwind uwtable
define linkonce_odr hidden noundef zeroext i1 @_ZNK7obj_mapI9func_declSt4pairIjP4exprEE8key_dataeqERKS6_(ptr noundef nonnull align 8 dereferenceable(24) %this, ptr noundef nonnull align 8 dereferenceable(24) %other) #5 comdat align 2 {
entry:
  %this.addr = alloca ptr, align 8
  %other.addr = alloca ptr, align 8
  store ptr %this, ptr %this.addr, align 8
  store ptr %other, ptr %other.addr, align 8
  %this1 = load ptr, ptr %this.addr, align 8
  %m_key = getelementptr inbounds %"struct.obj_map<func_decl, std::pair<unsigned int, expr *>>::key_data", ptr %this1, i32 0, i32 0
  %0 = load ptr, ptr %m_key, align 8
  %1 = load ptr, ptr %other.addr, align 8
  %m_key2 = getelementptr inbounds %"struct.obj_map<func_decl, std::pair<unsigned int, expr *>>::key_data", ptr %1, i32 0, i32 0
  %2 = load ptr, ptr %m_key2, align 8
  %cmp = icmp eq ptr %0, %2
  ret i1 %cmp
}

; Function Attrs: mustprogress nounwind uwtable
define linkonce_odr hidden void @_ZNSt4pairIjP4exprEC2IjS1_TnNSt9enable_ifIXsr6__and_ISt37__is_implicitly_default_constructibleIT_ES5_IT0_EEE5valueEbE4typeELb1EEEv(ptr noundef nonnull align 8 dereferenceable(16) %this) unnamed_addr #5 comdat align 2 {
entry:
  %this.addr = alloca ptr, align 8
  store ptr %this, ptr %this.addr, align 8
  %this1 = load ptr, ptr %this.addr, align 8
  %first = getelementptr inbounds %"struct.std::pair", ptr %this1, i32 0, i32 0
  store i32 0, ptr %first, align 8
  %second = getelementptr inbounds %"struct.std::pair", ptr %this1, i32 0, i32 1
  store ptr null, ptr %second, align 8
  ret void
}

; Function Attrs: mustprogress nounwind uwtable
define linkonce_odr hidden void @_ZN14core_hashtableI14obj_hash_entryI9func_declE12obj_ptr_hashIS1_E6ptr_eqIS1_EED2Ev(ptr noundef nonnull align 8 dereferenceable(20) %this) unnamed_addr #5 comdat align 2 personality ptr @__gxx_personality_v0 {
entry:
  %this.addr = alloca ptr, align 8
  store ptr %this, ptr %this.addr, align 8
  %this1 = load ptr, ptr %this.addr, align 8
  invoke void @_ZN14core_hashtableI14obj_hash_entryI9func_declE12obj_ptr_hashIS1_E6ptr_eqIS1_EE12delete_tableEv(ptr noundef nonnull align 8 dereferenceable(20) %this1)
          to label %invoke.cont unwind label %terminate.lpad

invoke.cont:                                      ; preds = %entry
  ret void

terminate.lpad:                                   ; preds = %entry
  %0 = landingpad { ptr, i32 }
          catch ptr null
  %1 = extractvalue { ptr, i32 } %0, 0
  call void @__clang_call_terminate(ptr %1) #13
  unreachable
}

; Function Attrs: mustprogress uwtable
define linkonce_odr hidden void @_ZN14core_hashtableI14obj_hash_entryI9func_declE12obj_ptr_hashIS1_E6ptr_eqIS1_EE12delete_tableEv(ptr noundef nonnull align 8 dereferenceable(20) %this) #4 comdat align 2 {
entry:
  %this.addr = alloca ptr, align 8
  store ptr %this, ptr %this.addr, align 8
  %this1 = load ptr, ptr %this.addr, align 8
  %m_table = getelementptr inbounds %class.core_hashtable, ptr %this1, i32 0, i32 0
  %0 = load ptr, ptr %m_table, align 8
  %m_capacity = getelementptr inbounds %class.core_hashtable, ptr %this1, i32 0, i32 1
  %1 = load i32, ptr %m_capacity, align 8
  call void @_Z12dealloc_vectI14obj_hash_entryI9func_declEEvPT_j(ptr noundef %0, i32 noundef %1)
  %m_table2 = getelementptr inbounds %class.core_hashtable, ptr %this1, i32 0, i32 0
  store ptr null, ptr %m_table2, align 8
  ret void
}

; Function Attrs: noreturn nounwind uwtable
define linkonce_odr hidden void @__clang_call_terminate(ptr noundef %0) #6 comdat {
  %2 = call ptr @__cxa_begin_catch(ptr %0) #3
  call void @_ZSt9terminatev() #13
  unreachable
}

declare ptr @__cxa_begin_catch(ptr)

declare void @_ZSt9terminatev()

; Function Attrs: mustprogress uwtable
define linkonce_odr hidden void @_Z12dealloc_vectI14obj_hash_entryI9func_declEEvPT_j(ptr noundef %ptr, i32 noundef %sz) #4 comdat {
entry:
  %ptr.addr = alloca ptr, align 8
  %sz.addr = alloca i32, align 4
  %curr = alloca ptr, align 8
  %i = alloca i32, align 4
  store ptr %ptr, ptr %ptr.addr, align 8
  store i32 %sz, ptr %sz.addr, align 4
  %0 = load ptr, ptr %ptr.addr, align 8
  %cmp = icmp eq ptr %0, null
  br i1 %cmp, label %if.then, label %if.end

if.then:                                          ; preds = %entry
  br label %return

if.end:                                           ; preds = %entry
  %1 = load ptr, ptr %ptr.addr, align 8
  store ptr %1, ptr %curr, align 8
  store i32 0, ptr %i, align 4
  br label %for.cond

for.cond:                                         ; preds = %for.inc, %if.end
  %2 = load i32, ptr %i, align 4
  %3 = load i32, ptr %sz.addr, align 4
  %cmp1 = icmp ult i32 %2, %3
  br i1 %cmp1, label %for.body, label %for.end

for.body:                                         ; preds = %for.cond
  br label %for.inc

for.inc:                                          ; preds = %for.body
  %4 = load i32, ptr %i, align 4
  %inc = add i32 %4, 1
  store i32 %inc, ptr %i, align 4
  %5 = load ptr, ptr %curr, align 8
  %incdec.ptr = getelementptr inbounds %class.obj_hash_entry, ptr %5, i32 1
  store ptr %incdec.ptr, ptr %curr, align 8
  br label %for.cond, !llvm.loop !19

for.end:                                          ; preds = %for.cond
  %6 = load ptr, ptr %ptr.addr, align 8
  call void @_ZN6memory10deallocateEPv(ptr noundef %6)
  br label %return

return:                                           ; preds = %for.end, %if.then
  ret void
}

declare void @_ZN6memory10deallocateEPv(ptr noundef) #1

; Function Attrs: mustprogress nounwind uwtable
define linkonce_odr hidden void @_ZN6vectorIP9func_declLb0EjED2Ev(ptr noundef nonnull align 8 dereferenceable(8) %this) unnamed_addr #5 comdat align 2 personality ptr @__gxx_personality_v0 {
entry:
  %this.addr = alloca ptr, align 8
  store ptr %this, ptr %this.addr, align 8
  %this1 = load ptr, ptr %this.addr, align 8
  invoke void @_ZN6vectorIP9func_declLb0EjE7destroyEv(ptr noundef nonnull align 8 dereferenceable(8) %this1)
          to label %invoke.cont unwind label %terminate.lpad

invoke.cont:                                      ; preds = %entry
  ret void

terminate.lpad:                                   ; preds = %entry
  %0 = landingpad { ptr, i32 }
          catch ptr null
  %1 = extractvalue { ptr, i32 } %0, 0
  call void @__clang_call_terminate(ptr %1) #13
  unreachable
}

; Function Attrs: mustprogress uwtable
define linkonce_odr hidden void @_ZN6vectorIP9func_declLb0EjE7destroyEv(ptr noundef nonnull align 8 dereferenceable(8) %this) #4 comdat align 2 {
entry:
  %this.addr = alloca ptr, align 8
  store ptr %this, ptr %this.addr, align 8
  %this1 = load ptr, ptr %this.addr, align 8
  %m_data = getelementptr inbounds %class.vector, ptr %this1, i32 0, i32 0
  %0 = load ptr, ptr %m_data, align 8
  %tobool = icmp ne ptr %0, null
  br i1 %tobool, label %if.then, label %if.end

if.then:                                          ; preds = %entry
  call void @_ZN6vectorIP9func_declLb0EjE11free_memoryEv(ptr noundef nonnull align 8 dereferenceable(8) %this1)
  br label %if.end

if.end:                                           ; preds = %if.then, %entry
  ret void
}

; Function Attrs: mustprogress uwtable
define linkonce_odr hidden void @_ZN6vectorIP9func_declLb0EjE11free_memoryEv(ptr noundef nonnull align 8 dereferenceable(8) %this) #4 comdat align 2 {
entry:
  %this.addr = alloca ptr, align 8
  store ptr %this, ptr %this.addr, align 8
  %this1 = load ptr, ptr %this.addr, align 8
  %m_data = getelementptr inbounds %class.vector, ptr %this1, i32 0, i32 0
  %0 = load ptr, ptr %m_data, align 8
  %add.ptr = getelementptr inbounds i32, ptr %0, i64 -2
  call void @_ZN6memory10deallocateEPv(ptr noundef %add.ptr)
  ret void
}

; Function Attrs: mustprogress nounwind uwtable
define linkonce_odr hidden void @_ZN10ptr_bufferI3appLj16EEC2Ev(ptr noundef nonnull align 8 dereferenceable(144) %this) unnamed_addr #5 comdat align 2 {
entry:
  %this.addr = alloca ptr, align 8
  store ptr %this, ptr %this.addr, align 8
  %this1 = load ptr, ptr %this.addr, align 8
  call void @_ZN6bufferIP3appLb0ELj16EEC2Ev(ptr noundef nonnull align 8 dereferenceable(144) %this1) #3
  ret void
}

declare void @_ZNSt7__cxx1119basic_ostringstreamIcSt11char_traitsIcESaIcEEC1Ev(ptr noundef nonnull align 8 dereferenceable(112)) unnamed_addr #1

declare noundef nonnull align 8 dereferenceable(8) ptr @_ZStlsISt11char_traitsIcEERSt13basic_ostreamIcT_ES5_PKc(ptr noundef nonnull align 8 dereferenceable(8), ptr noundef) #1

; Function Attrs: mustprogress uwtable
define internal void @_ZL9pp_indentRSoj(ptr noundef nonnull align 8 dereferenceable(8) %out, i32 noundef %indent) #4 {
entry:
  %out.addr = alloca ptr, align 8
  %indent.addr = alloca i32, align 4
  %i = alloca i32, align 4
  store ptr %out, ptr %out.addr, align 8
  store i32 %indent, ptr %indent.addr, align 4
  store i32 0, ptr %i, align 4
  br label %for.cond

for.cond:                                         ; preds = %for.inc, %entry
  %0 = load i32, ptr %i, align 4
  %1 = load i32, ptr %indent.addr, align 4
  %cmp = icmp ult i32 %0, %1
  br i1 %cmp, label %for.body, label %for.end

for.body:                                         ; preds = %for.cond
  %2 = load ptr, ptr %out.addr, align 8
  %call = call noundef nonnull align 8 dereferenceable(8) ptr @_ZStlsISt11char_traitsIcEERSt13basic_ostreamIcT_ES5_PKc(ptr noundef nonnull align 8 dereferenceable(8) %2, ptr noundef @.str.2)
  br label %for.inc

for.inc:                                          ; preds = %for.body
  %3 = load i32, ptr %i, align 4
  %inc = add i32 %3, 1
  store i32 %inc, ptr %i, align 4
  br label %for.cond, !llvm.loop !20

for.end:                                          ; preds = %for.cond
  ret void
}

; Function Attrs: mustprogress nounwind uwtable
define linkonce_odr hidden noundef ptr @_ZNK6vectorIP4exprLb0EjE5beginEv(ptr noundef nonnull align 8 dereferenceable(8) %this) #5 comdat align 2 {
entry:
  %this.addr = alloca ptr, align 8
  store ptr %this, ptr %this.addr, align 8
  %this1 = load ptr, ptr %this.addr, align 8
  %m_data = getelementptr inbounds %class.vector.46, ptr %this1, i32 0, i32 0
  %0 = load ptr, ptr %m_data, align 8
  ret ptr %0
}

; Function Attrs: mustprogress uwtable
define linkonce_odr hidden noundef ptr @_ZNK6vectorIP4exprLb0EjE3endEv(ptr noundef nonnull align 8 dereferenceable(8) %this) #4 comdat align 2 {
entry:
  %this.addr = alloca ptr, align 8
  store ptr %this, ptr %this.addr, align 8
  %this1 = load ptr, ptr %this.addr, align 8
  %m_data = getelementptr inbounds %class.vector.46, ptr %this1, i32 0, i32 0
  %0 = load ptr, ptr %m_data, align 8
  %call = call noundef i32 @_ZNK6vectorIP4exprLb0EjE4sizeEv(ptr noundef nonnull align 8 dereferenceable(8) %this1)
  %idx.ext = zext i32 %call to i64
  %add.ptr = getelementptr inbounds ptr, ptr %0, i64 %idx.ext
  ret ptr %add.ptr
}

; Function Attrs: mustprogress nounwind uwtable
define linkonce_odr hidden noundef ptr @_Z6to_appP3ast(ptr noundef %n) #5 comdat {
entry:
  %n.addr = alloca ptr, align 8
  store ptr %n, ptr %n.addr, align 8
  %0 = load ptr, ptr %n.addr, align 8
  ret ptr %0
}

; Function Attrs: mustprogress uwtable
define internal noundef i32 @_ZL9pp_symbolRSoRK6symbol(ptr noundef nonnull align 8 dereferenceable(8) %out, ptr noundef nonnull align 8 dereferenceable(8) %s) #4 personality ptr @__gxx_personality_v0 {
entry:
  %retval = alloca i32, align 4
  %out.addr = alloca ptr, align 8
  %s.addr = alloca ptr, align 8
  %str = alloca %"class.std::__cxx11::basic_string", align 8
  %exn.slot = alloca ptr, align 8
  %ehselector.slot = alloca i32, align 4
  %str5 = alloca %"class.std::__cxx11::basic_string", align 8
  store ptr %out, ptr %out.addr, align 8
  store ptr %s, ptr %s.addr, align 8
  %0 = load ptr, ptr %s.addr, align 8
  %call = call noundef zeroext i1 @_Z21is_smt2_quoted_symbolRK6symbol(ptr noundef nonnull align 8 dereferenceable(8) %0)
  br i1 %call, label %if.then, label %if.else

if.then:                                          ; preds = %entry
  %1 = load ptr, ptr %s.addr, align 8
  call void @_Z21mk_smt2_quoted_symbolB5cxx11RK6symbol(ptr sret(%"class.std::__cxx11::basic_string") align 8 %str, ptr noundef nonnull align 8 dereferenceable(8) %1)
  %2 = load ptr, ptr %out.addr, align 8
  %call1 = invoke noundef nonnull align 8 dereferenceable(8) ptr @_ZStlsIcSt11char_traitsIcESaIcEERSt13basic_ostreamIT_T0_ES7_RKNSt7__cxx1112basic_stringIS4_S5_T1_EE(ptr noundef nonnull align 8 dereferenceable(8) %2, ptr noundef nonnull align 8 dereferenceable(32) %str)
          to label %invoke.cont unwind label %lpad

invoke.cont:                                      ; preds = %if.then
  %call2 = call noundef i64 @_ZNKSt7__cxx1112basic_stringIcSt11char_traitsIcESaIcEE6lengthEv(ptr noundef nonnull align 8 dereferenceable(32) %str) #3
  %conv = trunc i64 %call2 to i32
  store i32 %conv, ptr %retval, align 4
  call void @_ZNSt7__cxx1112basic_stringIcSt11char_traitsIcESaIcEED1Ev(ptr noundef nonnull align 8 dereferenceable(32) %str) #3
  br label %return

lpad:                                             ; preds = %if.then
  %3 = landingpad { ptr, i32 }
          cleanup
  %4 = extractvalue { ptr, i32 } %3, 0
  store ptr %4, ptr %exn.slot, align 8
  %5 = extractvalue { ptr, i32 } %3, 1
  store i32 %5, ptr %ehselector.slot, align 4
  call void @_ZNSt7__cxx1112basic_stringIcSt11char_traitsIcESaIcEED1Ev(ptr noundef nonnull align 8 dereferenceable(32) %str) #3
  br label %eh.resume

if.else:                                          ; preds = %entry
  %6 = load ptr, ptr %s.addr, align 8
  %call3 = call noundef zeroext i1 @_ZNK6symbol12is_numericalEv(ptr noundef nonnull align 8 dereferenceable(8) %6)
  br i1 %call3, label %if.then4, label %if.else11

if.then4:                                         ; preds = %if.else
  %7 = load ptr, ptr %s.addr, align 8
  call void @_ZNK6symbol3strB5cxx11Ev(ptr sret(%"class.std::__cxx11::basic_string") align 8 %str5, ptr noundef nonnull align 8 dereferenceable(8) %7)
  %8 = load ptr, ptr %out.addr, align 8
  %call8 = invoke noundef nonnull align 8 dereferenceable(8) ptr @_ZStlsIcSt11char_traitsIcESaIcEERSt13basic_ostreamIT_T0_ES7_RKNSt7__cxx1112basic_stringIS4_S5_T1_EE(ptr noundef nonnull align 8 dereferenceable(8) %8, ptr noundef nonnull align 8 dereferenceable(32) %str5)
          to label %invoke.cont7 unwind label %lpad6

invoke.cont7:                                     ; preds = %if.then4
  %call9 = call noundef i64 @_ZNKSt7__cxx1112basic_stringIcSt11char_traitsIcESaIcEE6lengthEv(ptr noundef nonnull align 8 dereferenceable(32) %str5) #3
  %conv10 = trunc i64 %call9 to i32
  store i32 %conv10, ptr %retval, align 4
  call void @_ZNSt7__cxx1112basic_stringIcSt11char_traitsIcESaIcEED1Ev(ptr noundef nonnull align 8 dereferenceable(32) %str5) #3
  br label %return

lpad6:                                            ; preds = %if.then4
  %9 = landingpad { ptr, i32 }
          cleanup
  %10 = extractvalue { ptr, i32 } %9, 0
  store ptr %10, ptr %exn.slot, align 8
  %11 = extractvalue { ptr, i32 } %9, 1
  store i32 %11, ptr %ehselector.slot, align 4
  call void @_ZNSt7__cxx1112basic_stringIcSt11char_traitsIcESaIcEED1Ev(ptr noundef nonnull align 8 dereferenceable(32) %str5) #3
  br label %eh.resume

if.else11:                                        ; preds = %if.else
  %12 = load ptr, ptr %out.addr, align 8
  %13 = load ptr, ptr %s.addr, align 8
  %call12 = call noundef ptr @_ZNK6symbol8bare_strEv(ptr noundef nonnull align 8 dereferenceable(8) %13)
  %call13 = call noundef nonnull align 8 dereferenceable(8) ptr @_ZStlsISt11char_traitsIcEERSt13basic_ostreamIcT_ES5_PKc(ptr noundef nonnull align 8 dereferenceable(8) %12, ptr noundef %call12)
  %14 = load ptr, ptr %s.addr, align 8
  %call14 = call noundef ptr @_ZNK6symbol8bare_strEv(ptr noundef nonnull align 8 dereferenceable(8) %14)
  %call15 = call i64 @strlen(ptr noundef %call14) #14
  %conv16 = trunc i64 %call15 to i32
  store i32 %conv16, ptr %retval, align 4
  br label %return

return:                                           ; preds = %if.else11, %invoke.cont7, %invoke.cont
  %15 = load i32, ptr %retval, align 4
  ret i32 %15

eh.resume:                                        ; preds = %lpad6, %lpad
  %exn = load ptr, ptr %exn.slot, align 8
  %sel = load i32, ptr %ehselector.slot, align 4
  %lpad.val = insertvalue { ptr, i32 } poison, ptr %exn, 0
  %lpad.val17 = insertvalue { ptr, i32 } %lpad.val, i32 %sel, 1
  resume { ptr, i32 } %lpad.val17
}

; Function Attrs: mustprogress nounwind uwtable
define linkonce_odr hidden noundef ptr @_ZNK3app8get_declEv(ptr noundef nonnull align 8 dereferenceable(32) %this) #5 comdat align 2 {
entry:
  %this.addr = alloca ptr, align 8
  store ptr %this, ptr %this.addr, align 8
  %this1 = load ptr, ptr %this.addr, align 8
  %m_decl = getelementptr inbounds %class.app, ptr %this1, i32 0, i32 1
  %0 = load ptr, ptr %m_decl, align 8
  ret ptr %0
}

; Function Attrs: mustprogress nounwind uwtable
define linkonce_odr hidden noundef nonnull align 8 dereferenceable(8) ptr @_ZNK4decl8get_nameEv(ptr noundef nonnull align 8 dereferenceable(32) %this) #5 comdat align 2 {
entry:
  %this.addr = alloca ptr, align 8
  store ptr %this, ptr %this.addr, align 8
  %this1 = load ptr, ptr %this.addr, align 8
  %m_name = getelementptr inbounds %class.decl, ptr %this1, i32 0, i32 1
  ret ptr %m_name
}

declare void @_ZNKSt7__cxx1119basic_ostringstreamIcSt11char_traitsIcESaIcEE3strEv(ptr sret(%"class.std::__cxx11::basic_string") align 8, ptr noundef nonnull align 8 dereferenceable(112)) #1

; Function Attrs: nounwind
declare noundef i64 @_ZNKSt7__cxx1112basic_stringIcSt11char_traitsIcESaIcEE6lengthEv(ptr noundef nonnull align 8 dereferenceable(32)) #2

declare noundef nonnull align 1 dereferenceable(1) ptr @_ZNSt7__cxx1112basic_stringIcSt11char_traitsIcESaIcEEixEm(ptr noundef nonnull align 8 dereferenceable(32), i64 noundef) #1

declare noundef nonnull align 8 dereferenceable(8) ptr @_ZStlsISt11char_traitsIcEERSt13basic_ostreamIcT_ES5_c(ptr noundef nonnull align 8 dereferenceable(8), i8 noundef signext) #1

; Function Attrs: mustprogress nounwind uwtable
define linkonce_odr hidden noundef ptr @_ZNK9func_decl9get_rangeEv(ptr noundef nonnull align 8 dereferenceable(48) %this) #5 comdat align 2 {
entry:
  %this.addr = alloca ptr, align 8
  store ptr %this, ptr %this.addr, align 8
  %this1 = load ptr, ptr %this.addr, align 8
  %m_range = getelementptr inbounds %class.func_decl, ptr %this1, i32 0, i32 2
  %0 = load ptr, ptr %m_range, align 8
  ret ptr %0
}

; Function Attrs: mustprogress nounwind uwtable
define linkonce_odr hidden void @_ZN6bufferIP3appLb0ELj16EE5resetEv(ptr noundef nonnull align 8 dereferenceable(144) %this) #5 comdat align 2 {
entry:
  %this.addr = alloca ptr, align 8
  store ptr %this, ptr %this.addr, align 8
  %this1 = load ptr, ptr %this.addr, align 8
  %m_pos = getelementptr inbounds %class.buffer.44, ptr %this1, i32 0, i32 1
  store i32 0, ptr %m_pos, align 8
  ret void
}

declare noundef ptr @_ZN9format_ns9mk_stringER11ast_managerPKc(ptr noundef nonnull align 8 dereferenceable(976), ptr noundef) #1

; Function Attrs: nocallback nofree nounwind willreturn memory(argmem: readwrite)
declare void @llvm.memcpy.p0.p0.i64(ptr noalias nocapture writeonly, ptr noalias nocapture readonly, i64, i1 immarg) #7

; Function Attrs: nounwind
declare void @_ZNSt7__cxx1112basic_stringIcSt11char_traitsIcESaIcEEC1Ev(ptr noundef nonnull align 8 dereferenceable(32)) unnamed_addr #2

declare noundef zeroext i1 @_Z21is_smt2_quoted_symbolRK6symbol(ptr noundef nonnull align 8 dereferenceable(8)) #1

declare void @_Z21mk_smt2_quoted_symbolB5cxx11RK6symbol(ptr sret(%"class.std::__cxx11::basic_string") align 8, ptr noundef nonnull align 8 dereferenceable(8)) #1

; Function Attrs: nounwind
declare noundef nonnull align 8 dereferenceable(32) ptr @_ZNSt7__cxx1112basic_stringIcSt11char_traitsIcESaIcEEaSEOS4_(ptr noundef nonnull align 8 dereferenceable(32), ptr noundef nonnull align 8 dereferenceable(32)) #2

; Function Attrs: nounwind
declare void @_ZNSt7__cxx1112basic_stringIcSt11char_traitsIcESaIcEED1Ev(ptr noundef nonnull align 8 dereferenceable(32)) unnamed_addr #2

declare void @_ZNK6symbol3strB5cxx11Ev(ptr sret(%"class.std::__cxx11::basic_string") align 8, ptr noundef nonnull align 8 dereferenceable(8)) #1

; Function Attrs: mustprogress uwtable
define internal noundef ptr @_ZN9format_nsL9mk_stringER11ast_managerRKNSt7__cxx1112basic_stringIcSt11char_traitsIcESaIcEEE(ptr noundef nonnull align 8 dereferenceable(976) %m, ptr noundef nonnull align 8 dereferenceable(32) %str) #4 {
entry:
  %m.addr = alloca ptr, align 8
  %str.addr = alloca ptr, align 8
  store ptr %m, ptr %m.addr, align 8
  store ptr %str, ptr %str.addr, align 8
  %0 = load ptr, ptr %m.addr, align 8
  %1 = load ptr, ptr %str.addr, align 8
  %call = call noundef ptr @_ZNKSt7__cxx1112basic_stringIcSt11char_traitsIcESaIcEE5c_strEv(ptr noundef nonnull align 8 dereferenceable(32) %1) #3
  %call1 = call noundef ptr @_ZN9format_ns9mk_stringER11ast_managerPKc(ptr noundef nonnull align 8 dereferenceable(976) %0, ptr noundef %call)
  ret ptr %call1
}

; Function Attrs: mustprogress uwtable
define linkonce_odr hidden void @_ZN6bufferIP3appLb0ELj16EE9push_backEOS1_(ptr noundef nonnull align 8 dereferenceable(144) %this, ptr noundef nonnull align 8 dereferenceable(8) %elem) #4 comdat align 2 {
entry:
  %this.addr = alloca ptr, align 8
  %elem.addr = alloca ptr, align 8
  store ptr %this, ptr %this.addr, align 8
  store ptr %elem, ptr %elem.addr, align 8
  %this1 = load ptr, ptr %this.addr, align 8
  %m_pos = getelementptr inbounds %class.buffer.44, ptr %this1, i32 0, i32 1
  %0 = load i32, ptr %m_pos, align 8
  %m_capacity = getelementptr inbounds %class.buffer.44, ptr %this1, i32 0, i32 2
  %1 = load i32, ptr %m_capacity, align 4
  %cmp = icmp uge i32 %0, %1
  br i1 %cmp, label %if.then, label %if.end

if.then:                                          ; preds = %entry
  call void @_ZN6bufferIP3appLb0ELj16EE6expandEv(ptr noundef nonnull align 8 dereferenceable(144) %this1)
  br label %if.end

if.end:                                           ; preds = %if.then, %entry
  %m_buffer = getelementptr inbounds %class.buffer.44, ptr %this1, i32 0, i32 0
  %2 = load ptr, ptr %m_buffer, align 8
  %m_pos2 = getelementptr inbounds %class.buffer.44, ptr %this1, i32 0, i32 1
  %3 = load i32, ptr %m_pos2, align 8
  %idx.ext = zext i32 %3 to i64
  %add.ptr = getelementptr inbounds ptr, ptr %2, i64 %idx.ext
