target datalayout = "e-m:e-p270:32:32-p271:32:32-p272:64:64-i64:64-i128:128-f80:128-n8:16:32:64-S128"
target triple = "x86_64-unknown-linux-gnu"

%"class.std::ios_base::Init" = type { i8 }
%class.mpz_cell = type { i32, i32, [0 x i32] }
%class.mpz_manager = type { %class.small_object_allocator, %"class.std::recursive_mutex", %class.mpn_manager, i32, %class.mpz, %class.mpz }
%class.small_object_allocator = type { [32 x ptr], [32 x ptr], i64 }
%"class.std::recursive_mutex" = type { %"class.std::__recursive_mutex_base" }
%"class.std::__recursive_mutex_base" = type { %union.pthread_mutex_t }
%union.pthread_mutex_t = type { %struct.__pthread_mutex_s }
%struct.__pthread_mutex_s = type { i32, i32, i32, i32, i32, i16, i16, %struct.__pthread_internal_list }
%struct.__pthread_internal_list = type { ptr, ptr }
%class.mpn_manager = type { i8 }
%class.mpz = type { i32, i8, ptr }
%"class.mpz_manager<true>::sign_cell" = type { [16 x i8], %class.mpz, ptr, i32, ptr }
%class.mpz_stack = type { %class.mpz, [40 x i8] }
%"struct.mpz_manager<true>::sz_lt" = type { ptr, ptr }
%"class.std::__cxx11::basic_string" = type { %"struct.std::__cxx11::basic_string<char>::_Alloc_hider", i64, %union.anon }
%"struct.std::__cxx11::basic_string<char>::_Alloc_hider" = type { ptr }
%union.anon = type { i64, [8 x i8] }
%"class.std::allocator" = type { i8 }
%class.default_exception = type { %class.z3_exception, %"class.std::__cxx11::basic_string" }
%class.z3_exception = type { ptr }
%class._scoped_numeral = type { ptr, %class.mpz }
%"class.std::__cxx11::basic_ostringstream" = type { %"class.std::basic_ostream.base", %"class.std::__cxx11::basic_stringbuf", %"class.std::basic_ios" }
%"class.std::basic_ostream.base" = type { ptr }
%"class.std::__cxx11::basic_stringbuf" = type { %"class.std::basic_streambuf", i32, %"class.std::__cxx11::basic_string" }
%"class.std::basic_streambuf" = type { ptr, ptr, ptr, ptr, ptr, ptr, ptr, %"class.std::locale" }
%"class.std::locale" = type { ptr }
%"class.std::basic_ios" = type { %"class.std::ios_base", ptr, i8, i8, ptr, ptr, ptr, ptr }
%"class.std::ios_base" = type { ptr, i64, i64, i32, i32, i32, ptr, %"struct.std::ios_base::_Words", [8 x %"struct.std::ios_base::_Words"], i32, ptr, %"class.std::locale" }
%"struct.std::ios_base::_Words" = type { ptr, i64 }
%class.sbuffer = type { %class.buffer }
%class.buffer = type { ptr, i32, i32, [1024 x %"union.std::aligned_storage<1, 1>::type"] }
%"union.std::aligned_storage<1, 1>::type" = type { [1 x i8] }
%"struct.std::_Setw" = type { i32 }
%"struct.std::_Setfill" = type { i8 }
%class.vector = type { ptr }
%class.mpz_manager.0 = type { %class.small_object_allocator, %"class.std::recursive_mutex", %class.mpn_manager, i32, %class.mpz, %class.mpz }
%"class.mpz_manager<false>::sign_cell" = type { [16 x i8], %class.mpz, ptr, i32, ptr }
%"struct.mpz_manager<false>::sz_lt" = type { ptr, ptr }
%class._scoped_numeral.1 = type { ptr, %class.mpz }
%struct._Guard = type { ptr }

$_ZSt4swapImENSt9enable_ifIXsr6__and_ISt6__not_ISt15__is_tuple_likeIT_EESt21is_move_constructibleIS3_ESt18is_move_assignableIS3_EEE5valueEvE4typeERS3_SC_ = comdat any

$_ZN11mpz_managerILb1EE9cell_sizeEj = comdat any

$_ZN11mpz_managerILb1EE8allocateEj = comdat any

$_ZN11mpz_managerILb1EE18allocate_if_neededER3mpzj = comdat any

$_ZN11mpz_managerILb1EE8capacityERK3mpz = comdat any

$_ZN11mpz_managerILb1EE10deallocateER3mpz = comdat any

$_ZN11mpz_managerILb1EE10deallocateEbP8mpz_cell = comdat any

$_ZN11mpz_managerILb1EE15ensure_capacityER3mpzj = comdat any

$_ZN11mpz_managerILb1EE8is_smallERK3mpz = comdat any

$_ZN11mpz_managerILb1EE9normalizeER3mpz = comdat any

$_ZN11mpz_managerILb1EE3setER3mpzi = comdat any

$_ZN11mpz_managerILb1EE5clearER3mpz = comdat any

$_ZN11mpz_managerILb1EE5resetER3mpz = comdat any

$_ZN11mpz_managerILb1EE3setER8mpz_cellR3mpzij = comdat any

$_ZN11mpz_managerILb1EE10set_digitsER3mpzjPKj = comdat any

$_ZN11mpz_managerILb1EE3i64ERK3mpz = comdat any

$_ZN11mpz_managerILb1EE11set_big_i64ER3mpzl = comdat any

$_ZNSt14numeric_limitsIlE3minEv = comdat any

$_ZN11mpz_managerILb1EE6digitsERK3mpz = comdat any

$_ZN11mpz_managerILb1EE7big_addERK3mpzS3_RS1_ = comdat any

$_ZN11mpz_managerILb1EE7set_i64ER3mpzl = comdat any

$_ZN11mpz_managerILb1EE12set_big_ui64ER3mpzm = comdat any

$_ZN11mpz_managerILb1EE4sizeERK3mpz = comdat any

$_ZN11mpz_managerILb1EE13is_abs_uint64ERK3mpz = comdat any

$_ZN11mpz_managerILb1EE17big_abs_to_uint64ERK3mpz = comdat any

$_ZN11mpz_managerILb1EE9sign_cellC5ERS0_RK3mpz = comdat any

$_ZN3mpzC2EP8mpz_cell = comdat any

$_ZN11mpz_managerILb1EE13get_sign_cellERK3mpzRiRP8mpz_cellS6_ = comdat any

$_ZN11mpz_managerILb1EE9sign_cell4signEv = comdat any

$_ZN11mpz_managerILb1EE9sign_cell4cellEv = comdat any

$_ZN11mpz_managerILb1EE11big_add_subILb0EEEvRK3mpzS4_RS2_ = comdat any

$_ZN11mpz_managerILb1EE7big_subERK3mpzS3_RS1_ = comdat any

$_ZN11mpz_managerILb1EE11big_add_subILb1EEEvRK3mpzS4_RS2_ = comdat any

$_ZN11mpz_managerILb1EE7big_mulERK3mpzS3_RS1_ = comdat any

$_ZN9mpz_stackC2Ev = comdat any

$_ZN11mpz_managerILb1EE3delER3mpz = comdat any

$_ZN11mpz_managerILb1EE7big_setER3mpzRKS1_ = comdat any

$_ZN11mpz_managerILb1EE11big_div_remERK3mpzS3_RS1_S4_ = comdat any

$_ZN11mpz_managerILb1EE13quot_rem_coreILi2EEEvRK3mpzS4_RS2_S5_ = comdat any

$_ZN11mpz_managerILb1EE7big_divERK3mpzS3_RS1_ = comdat any

$_ZN3mpzC2Ev = comdat any

$_ZN11mpz_managerILb1EE13quot_rem_coreILi0EEEvRK3mpzS4_RS2_S5_ = comdat any

$_ZN11mpz_managerILb1EE7big_remERK3mpzS3_RS1_ = comdat any

$_ZN11mpz_managerILb1EE13quot_rem_coreILi1EEEvRK3mpzS4_RS2_S5_ = comdat any

$_ZN11mpz_managerILb1EE11big_compareERK3mpzS3_ = comdat any

$_ZN11mpz_managerILb1EE4signERK3mpz = comdat any

$_ZN11mpz_managerILb1EE9size_infoERK3mpz = comdat any

$_ZN11mpz_managerILb1EE5sz_ltC5ERS0_PK3mpz = comdat any

$_ZN11mpz_managerILb1EE5sz_ltclEjj = comdat any

$_ZN11mpz_managerILb1EE7preciseEv = comdat any

$_ZN11mpz_managerILb1EE5fieldEv = comdat any

$_ZN11mpz_managerILb1EEC5Ev = comdat any

$_ZNSt15recursive_mutexC2Ev = comdat any

$_ZN11mpz_managerILb1EE3setER3mpzl = comdat any

$_ZN3mpzC2Ei = comdat any

$_ZN11mpz_managerILb1EE3setER3mpzm = comdat any

$_ZN11mpz_managerILb1EE3addERK3mpzS3_RS1_ = comdat any

$_ZN11mpz_managerILb1EED5Ev = comdat any

$__clang_call_terminate = comdat any

$_ZN11mpz_managerILb1EE4mk_zEi = comdat any

$_ZN11mpz_managerILb1EE3delEPS0_R3mpz = comdat any

$_ZN11mpz_managerILb1EE3subERK3mpzS3_RS1_ = comdat any

$_ZN11mpz_managerILb1EE3incER3mpz = comdat any

$_ZN11mpz_managerILb1EE3decER3mpz = comdat any

$_ZN11mpz_managerILb1EE3mulERK3mpzS3_RS1_ = comdat any

$_ZN11mpz_managerILb1EE6addmulERK3mpzS3_S3_RS1_ = comdat any

$_ZN11mpz_managerILb1EE6is_oneERK3mpz = comdat any

$_ZN11mpz_managerILb1EE12is_minus_oneERK3mpz = comdat any

$_ZN11mpz_managerILb1EE6submulERK3mpzS3_S3_RS1_ = comdat any

$_ZN11mpz_managerILb1EE15machine_div_remERK3mpzS3_RS1_S4_ = comdat any

$_ZN11mpz_managerILb1EE11machine_divERK3mpzS3_RS1_ = comdat any

$_ZNSt7__cxx1112basic_stringIcSt11char_traitsIcESaIcEEC2IS3_EEPKcRKS3_ = comdat any

$_ZN17default_exceptionC2EONSt7__cxx1112basic_stringIcSt11char_traitsIcESaIcEEE = comdat any

$_ZN17default_exceptionD2Ev = comdat any

$_ZN11mpz_managerILb1EE3remERK3mpzS3_RS1_ = comdat any

$_ZN11mpz_managerILb1EE7div_gcdERK3mpzS3_RS1_ = comdat any

$_ZN11mpz_managerILb1EE3setER3mpzRKS1_ = comdat any

$_ZN11mpz_managerILb1EE3divERK3mpzS3_RS1_ = comdat any

$_ZN11mpz_managerILb1EE6is_negERK3mpz = comdat any

$_ZN11mpz_managerILb1EE7is_zeroERK3mpz = comdat any

$_ZN11mpz_managerILb1EE3modERK3mpzS3_RS1_ = comdat any

$_ZN11mpz_managerILb1EE6is_posERK3mpz = comdat any

$_ZN11mpz_managerILb1EE3negER3mpz = comdat any

$_ZN11mpz_managerILb1EE3absER3mpz = comdat any

$_ZN11mpz_managerILb1EE9is_nonposERK3mpz = comdat any

$_ZN11mpz_managerILb1EE9is_nonnegERK3mpz = comdat any

$_ZN11mpz_managerILb1EE2eqERK3mpzS3_ = comdat any

$_ZN11mpz_managerILb1EE2ltERK3mpzi = comdat any

$_ZN11mpz_managerILb1EE2ltERK3mpzS3_ = comdat any

$_ZN11mpz_managerILb1EE3neqERK3mpzS3_ = comdat any

$_ZN11mpz_managerILb1EE2gtERK3mpzS3_ = comdat any

$_ZN11mpz_managerILb1EE2geERK3mpzS3_ = comdat any

$_ZN11mpz_managerILb1EE2leERK3mpzS3_ = comdat any

$_ZN11mpz_managerILb1EE3gcdERK3mpzS3_RS1_ = comdat any

$_ZN11mpz_managerILb1EE3setER3mpzj = comdat any

$_ZN11mpz_managerILb1EE4swapER3mpzS2_ = comdat any

$_ZN11mpz_managerILb1EE3gcdEjPK3mpzRS1_ = comdat any

$_ZN11mpz_managerILb1EE3gcdERK3mpzS3_RS1_S4_S4_ = comdat any

$_ZN11mpz_managerILb1EE3lcmERK3mpzS3_RS1_ = comdat any

$_ZN11mpz_managerILb1EE7dividesERK3mpzS3_ = comdat any

$_ZN15_scoped_numeralI11mpz_managerILb1EEEC2ERS1_ = comdat any

$_ZN15_scoped_numeralI11mpz_managerILb1EEEcvR3mpzEv = comdat any

$_ZN15_scoped_numeralI11mpz_managerILb1EEED2Ev = comdat any

$_ZN11mpz_managerILb1EE3invER3mpz = comdat any

$_ZN11mpz_managerILb1EE10bitwise_orERK3mpzS3_RS1_ = comdat any

$_ZNK11mpz_managerILb1EE10get_uint64ERK3mpz = comdat any

$_ZN11mpz_managerILb1EE11bitwise_andERK3mpzS3_RS1_ = comdat any

$_ZN11mpz_managerILb1EE11bitwise_xorERK3mpzS3_RS1_ = comdat any

$_ZN11mpz_managerILb1EE11bitwise_notEjRK3mpzRS1_ = comdat any

$_ZN11mpz_managerILb1EE3setER3mpzPKc = comdat any

$_ZN11mpz_managerILb1EE3dupERK3mpz = comdat any

$_ZSt4swapIiENSt9enable_ifIXsr6__and_ISt6__not_ISt15__is_tuple_likeIT_EESt21is_move_constructibleIS3_ESt18is_move_assignableIS3_EEE5valueEvE4typeERS3_SC_ = comdat any

$_ZSt4swapIP8mpz_cellENSt9enable_ifIXsr6__and_ISt6__not_ISt15__is_tuple_likeIT_EESt21is_move_constructibleIS5_ESt18is_move_assignableIS5_EEE5valueEvE4typeERS5_SE_ = comdat any

$_ZNK11mpz_managerILb1EE9is_uint64ERK3mpz = comdat any

$_ZNK11mpz_managerILb1EE8is_int64ERK3mpz = comdat any

$_ZNK11mpz_managerILb1EE9get_int64ERK3mpz = comdat any

$_ZNK11mpz_managerILb1EE7is_uintERK3mpz = comdat any

$_ZNK11mpz_managerILb1EE8get_uintERK3mpz = comdat any

$_ZNK11mpz_managerILb1EE6is_intERK3mpz = comdat any

$_ZNK11mpz_managerILb1EE7get_intERK3mpz = comdat any

$_ZNK11mpz_managerILb1EE10get_doubleERK3mpz = comdat any

$_ZNK11mpz_managerILb1EE9to_stringB5cxx11ERK3mpz = comdat any

$_ZNK11mpz_managerILb1EE7displayERSoRK3mpz = comdat any

$_ZN7sbufferIcLj1024EEC2EjRKc = comdat any

$_ZN6bufferIcLb0ELj1024EE5beginEv = comdat any

$_ZNK6bufferIcLb0ELj1024EE4sizeEv = comdat any

$_ZN7sbufferIcLj1024EED2Ev = comdat any

$_ZNK11mpz_managerILb1EE12display_smt2ERSoRK3mpzb = comdat any

$_ZNK11mpz_managerILb1EE11display_hexERSoRK3mpzj = comdat any

$_ZSt3hexRSt8ios_base = comdat any

$_ZSt4setwi = comdat any

$_ZSt7setfillIcESt8_SetfillIT_ES1_ = comdat any

$_ZNK11mpz_managerILb1EE11display_binERSoRK3mpzj = comdat any

$_ZN11mpz_managerILb1EE4hashERK3mpz = comdat any

$_ZN11mpz_managerILb1EE5powerERK3mpzjRS1_ = comdat any

$_ZN11mpz_managerILb1EE15is_power_of_twoERK3mpz = comdat any

$_ZN11mpz_managerILb1EE15is_power_of_twoERK3mpzRj = comdat any

$_Z15is_power_of_twoj = comdat any

$_ZN11mpz_managerILb1EE4log2ERK3mpz = comdat any

$_ZN11mpz_managerILb1EE13machine_div2kER3mpzj = comdat any

$_ZN11mpz_managerILb1EE13machine_div2kERK3mpzjRS1_ = comdat any

$_ZN11mpz_managerILb1EE5mul2kER3mpzj = comdat any

$_ZN11mpz_managerILb1EE5mul2kERK3mpzjRS1_ = comdat any

$_ZN11mpz_managerILb1EE21power_of_two_multipleERK3mpz = comdat any

$_ZN11mpz_managerILb1EE5mlog2ERK3mpz = comdat any

$_ZN11mpz_managerILb1EE7bitsizeERK3mpz = comdat any

$_ZN11mpz_managerILb1EE17is_perfect_squareERK3mpzRS1_ = comdat any

$_ZN11mpz_managerILb1EE17prev_power_of_twoERK3mpz = comdat any

$_ZN11mpz_managerILb1EE17next_power_of_twoERK3mpz = comdat any

$_ZN11mpz_managerILb1EE4rootER3mpzj = comdat any

$_ZN11mpz_managerILb1EE4rootERK3mpzjRS1_ = comdat any

$_ZN11mpz_managerILb1EE7is_evenERK3mpz = comdat any

$_ZN11mpz_managerILb1EE6is_oddERK3mpz = comdat any

$_ZN11mpz_managerILb1EE9decomposeERK3mpzR7svectorIjjE = comdat any

$_ZN6vectorIjLb0EjE5resetEv = comdat any

$_ZN6vectorIjLb0EjE9push_backEOj = comdat any

$_ZN6vectorIjLb0EjE9push_backERKj = comdat any

$_ZN11mpz_managerILb1EE7get_bitERK3mpzj = comdat any

$_ZN11mpz_managerILb0EE9cell_sizeEj = comdat any

$_ZN11mpz_managerILb0EE8allocateEj = comdat any

$_ZN11mpz_managerILb0EE18allocate_if_neededER3mpzj = comdat any

$_ZN11mpz_managerILb0EE8capacityERK3mpz = comdat any

$_ZN11mpz_managerILb0EE10deallocateER3mpz = comdat any

$_ZN11mpz_managerILb0EE10deallocateEbP8mpz_cell = comdat any

$_ZN11mpz_managerILb0EE15ensure_capacityER3mpzj = comdat any

$_ZN11mpz_managerILb0EE8is_smallERK3mpz = comdat any

$_ZN11mpz_managerILb0EE9normalizeER3mpz = comdat any

$_ZN11mpz_managerILb0EE3setER3mpzi = comdat any

$_ZN11mpz_managerILb0EE5clearER3mpz = comdat any

$_ZN11mpz_managerILb0EE5resetER3mpz = comdat any

$_ZN11mpz_managerILb0EE3setER8mpz_cellR3mpzij = comdat any

$_ZN11mpz_managerILb0EE10set_digitsER3mpzjPKj = comdat any

$_ZN11mpz_managerILb0EE3i64ERK3mpz = comdat any

$_ZN11mpz_managerILb0EE11set_big_i64ER3mpzl = comdat any

$_ZN11mpz_managerILb0EE6digitsERK3mpz = comdat any

$_ZN11mpz_managerILb0EE7big_addERK3mpzS3_RS1_ = comdat any

$_ZN11mpz_managerILb0EE7set_i64ER3mpzl = comdat any

$_ZN11mpz_managerILb0EE12set_big_ui64ER3mpzm = comdat any

$_ZN11mpz_managerILb0EE4sizeERK3mpz = comdat any

$_ZN11mpz_managerILb0EE13is_abs_uint64ERK3mpz = comdat any

$_ZN11mpz_managerILb0EE17big_abs_to_uint64ERK3mpz = comdat any

$_ZN11mpz_managerILb0EE9sign_cellC5ERS0_RK3mpz = comdat any

$_ZN11mpz_managerILb0EE13get_sign_cellERK3mpzRiRP8mpz_cellS6_ = comdat any

$_ZN11mpz_managerILb0EE9sign_cell4signEv = comdat any

$_ZN11mpz_managerILb0EE9sign_cell4cellEv = comdat any

$_ZN11mpz_managerILb0EE11big_add_subILb0EEEvRK3mpzS4_RS2_ = comdat any

$_ZN11mpz_managerILb0EE7big_subERK3mpzS3_RS1_ = comdat any

$_ZN11mpz_managerILb0EE11big_add_subILb1EEEvRK3mpzS4_RS2_ = comdat any

$_ZN11mpz_managerILb0EE7big_mulERK3mpzS3_RS1_ = comdat any

$_ZN11mpz_managerILb0EE3delER3mpz = comdat any

$_ZN11mpz_managerILb0EE7big_setER3mpzRKS1_ = comdat any

$_ZN11mpz_managerILb0EE11big_div_remERK3mpzS3_RS1_S4_ = comdat any

$_ZN11mpz_managerILb0EE13quot_rem_coreILi2EEEvRK3mpzS4_RS2_S5_ = comdat any

$_ZN11mpz_managerILb0EE7big_divERK3mpzS3_RS1_ = comdat any

$_ZN11mpz_managerILb0EE13quot_rem_coreILi0EEEvRK3mpzS4_RS2_S5_ = comdat any

$_ZN11mpz_managerILb0EE7big_remERK3mpzS3_RS1_ = comdat any

$_ZN11mpz_managerILb0EE13quot_rem_coreILi1EEEvRK3mpzS4_RS2_S5_ = comdat any

$_ZN11mpz_managerILb0EE11big_compareERK3mpzS3_ = comdat any

$_ZN11mpz_managerILb0EE4signERK3mpz = comdat any

$_ZN11mpz_managerILb0EE9size_infoERK3mpz = comdat any

$_ZN11mpz_managerILb0EE5sz_ltC5ERS0_PK3mpz = comdat any

$_ZN11mpz_managerILb0EE5sz_ltclEjj = comdat any

$_ZN11mpz_managerILb0EE7preciseEv = comdat any

$_ZN11mpz_managerILb0EE5fieldEv = comdat any

$_ZN11mpz_managerILb0EEC5Ev = comdat any

$_ZN11mpz_managerILb0EE3setER3mpzl = comdat any

$_ZN11mpz_managerILb0EE3setER3mpzm = comdat any

$_ZN11mpz_managerILb0EE3addERK3mpzS3_RS1_ = comdat any

$_ZN11mpz_managerILb0EED5Ev = comdat any

$_ZN11mpz_managerILb0EE4mk_zEi = comdat any

$_ZN11mpz_managerILb0EE3delEPS0_R3mpz = comdat any

$_ZN11mpz_managerILb0EE3subERK3mpzS3_RS1_ = comdat any

$_ZN11mpz_managerILb0EE3incER3mpz = comdat any

$_ZN11mpz_managerILb0EE3decER3mpz = comdat any

$_ZN11mpz_managerILb0EE3mulERK3mpzS3_RS1_ = comdat any

$_ZN11mpz_managerILb0EE6addmulERK3mpzS3_S3_RS1_ = comdat any

$_ZN11mpz_managerILb0EE6is_oneERK3mpz = comdat any

$_ZN11mpz_managerILb0EE12is_minus_oneERK3mpz = comdat any

$_ZN11mpz_managerILb0EE6submulERK3mpzS3_S3_RS1_ = comdat any

$_ZN11mpz_managerILb0EE15machine_div_remERK3mpzS3_RS1_S4_ = comdat any

$_ZN11mpz_managerILb0EE11machine_divERK3mpzS3_RS1_ = comdat any

$_ZN11mpz_managerILb0EE3remERK3mpzS3_RS1_ = comdat any

$_ZN11mpz_managerILb0EE7div_gcdERK3mpzS3_RS1_ = comdat any

$_ZN11mpz_managerILb0EE3setER3mpzRKS1_ = comdat any

$_ZN11mpz_managerILb0EE3divERK3mpzS3_RS1_ = comdat any

$_ZN11mpz_managerILb0EE6is_negERK3mpz = comdat any

$_ZN11mpz_managerILb0EE7is_zeroERK3mpz = comdat any

$_ZN11mpz_managerILb0EE3modERK3mpzS3_RS1_ = comdat any

$_ZN11mpz_managerILb0EE6is_posERK3mpz = comdat any

$_ZN11mpz_managerILb0EE3negER3mpz = comdat any

$_ZN11mpz_managerILb0EE3absER3mpz = comdat any

$_ZN11mpz_managerILb0EE9is_nonposERK3mpz = comdat any

$_ZN11mpz_managerILb0EE9is_nonnegERK3mpz = comdat any

$_ZN11mpz_managerILb0EE2eqERK3mpzS3_ = comdat any

$_ZN11mpz_managerILb0EE2ltERK3mpzi = comdat any

$_ZN11mpz_managerILb0EE2ltERK3mpzS3_ = comdat any

$_ZN11mpz_managerILb0EE3neqERK3mpzS3_ = comdat any

$_ZN11mpz_managerILb0EE2gtERK3mpzS3_ = comdat any

$_ZN11mpz_managerILb0EE2geERK3mpzS3_ = comdat any

$_ZN11mpz_managerILb0EE2leERK3mpzS3_ = comdat any

$_ZN11mpz_managerILb0EE3gcdERK3mpzS3_RS1_ = comdat any

$_ZN11mpz_managerILb0EE3setER3mpzj = comdat any

$_ZN11mpz_managerILb0EE4swapER3mpzS2_ = comdat any

$_ZN11mpz_managerILb0EE3gcdEjPK3mpzRS1_ = comdat any

$_ZN11mpz_managerILb0EE3gcdERK3mpzS3_RS1_S4_S4_ = comdat any

$_ZN11mpz_managerILb0EE3lcmERK3mpzS3_RS1_ = comdat any

$_ZN11mpz_managerILb0EE7dividesERK3mpzS3_ = comdat any

$_ZN15_scoped_numeralI11mpz_managerILb0EEEC2ERS1_ = comdat any

$_ZN15_scoped_numeralI11mpz_managerILb0EEEcvR3mpzEv = comdat any

$_ZN15_scoped_numeralI11mpz_managerILb0EEED2Ev = comdat any

$_ZN11mpz_managerILb0EE3invER3mpz = comdat any

$_ZN11mpz_managerILb0EE10bitwise_orERK3mpzS3_RS1_ = comdat any

$_ZNK11mpz_managerILb0EE10get_uint64ERK3mpz = comdat any

$_ZN11mpz_managerILb0EE11bitwise_andERK3mpzS3_RS1_ = comdat any

$_ZN11mpz_managerILb0EE11bitwise_xorERK3mpzS3_RS1_ = comdat any

$_ZN11mpz_managerILb0EE11bitwise_notEjRK3mpzRS1_ = comdat any

$_ZN11mpz_managerILb0EE3setER3mpzPKc = comdat any

$_ZN11mpz_managerILb0EE3dupERK3mpz = comdat any

$_ZNK11mpz_managerILb0EE9is_uint64ERK3mpz = comdat any

$_ZNK11mpz_managerILb0EE8is_int64ERK3mpz = comdat any

$_ZNK11mpz_managerILb0EE9get_int64ERK3mpz = comdat any

$_ZNK11mpz_managerILb0EE7is_uintERK3mpz = comdat any

$_ZNK11mpz_managerILb0EE8get_uintERK3mpz = comdat any

$_ZNK11mpz_managerILb0EE6is_intERK3mpz = comdat any

$_ZNK11mpz_managerILb0EE7get_intERK3mpz = comdat any

$_ZNK11mpz_managerILb0EE10get_doubleERK3mpz = comdat any

$_ZNK11mpz_managerILb0EE9to_stringB5cxx11ERK3mpz = comdat any

$_ZNK11mpz_managerILb0EE7displayERSoRK3mpz = comdat any

$_ZNK11mpz_managerILb0EE12display_smt2ERSoRK3mpzb = comdat any

$_ZNK11mpz_managerILb0EE11display_hexERSoRK3mpzj = comdat any

$_ZNK11mpz_managerILb0EE11display_binERSoRK3mpzj = comdat any

$_ZN11mpz_managerILb0EE4hashERK3mpz = comdat any

$_ZN11mpz_managerILb0EE5powerERK3mpzjRS1_ = comdat any

$_ZN11mpz_managerILb0EE15is_power_of_twoERK3mpz = comdat any

$_ZN11mpz_managerILb0EE15is_power_of_twoERK3mpzRj = comdat any

$_ZN11mpz_managerILb0EE4log2ERK3mpz = comdat any

$_ZN11mpz_managerILb0EE13machine_div2kER3mpzj = comdat any

$_ZN11mpz_managerILb0EE13machine_div2kERK3mpzjRS1_ = comdat any

$_ZN11mpz_managerILb0EE5mul2kER3mpzj = comdat any

$_ZN11mpz_managerILb0EE5mul2kERK3mpzjRS1_ = comdat any

$_ZN11mpz_managerILb0EE21power_of_two_multipleERK3mpz = comdat any

$_ZN11mpz_managerILb0EE5mlog2ERK3mpz = comdat any

$_ZN11mpz_managerILb0EE7bitsizeERK3mpz = comdat any

$_ZN11mpz_managerILb0EE17is_perfect_squareERK3mpzRS1_ = comdat any

$_ZN11mpz_managerILb0EE17prev_power_of_twoERK3mpz = comdat any

$_ZN11mpz_managerILb0EE17next_power_of_twoERK3mpz = comdat any

$_ZN11mpz_managerILb0EE4rootER3mpzj = comdat any

$_ZN11mpz_managerILb0EE4rootERK3mpzjRS1_ = comdat any

$_ZN11mpz_managerILb0EE7is_evenERK3mpz = comdat any

$_ZN11mpz_managerILb0EE6is_oddERK3mpz = comdat any

$_ZN11mpz_managerILb0EE9decomposeERK3mpzR7svectorIjjE = comdat any

$_ZN11mpz_managerILb0EE7get_bitERK3mpzj = comdat any

$_ZNSt22__recursive_mutex_baseC2Ev = comdat any

$_ZN12z3_exceptionC2Ev = comdat any

$_ZN12z3_exceptionD2Ev = comdat any

$_ZN6bufferIcLb0ELj1024EED2Ev = comdat any

$_ZN6bufferIcLb0ELj1024EE7destroyEv = comdat any

$_ZN6bufferIcLb0ELj1024EE11free_memoryEv = comdat any

$_Z13dealloc_svectIcEvPT_ = comdat any

$_ZNSt8ios_base4setfESt13_Ios_FmtflagsS0_ = comdat any

$_ZStaNRSt13_Ios_FmtflagsS_ = comdat any

$_ZStcoSt13_Ios_Fmtflags = comdat any

$_ZStoRRSt13_Ios_FmtflagsS_ = comdat any

$_ZStanSt13_Ios_FmtflagsS_ = comdat any

$_ZStorSt13_Ios_FmtflagsS_ = comdat any

$_ZSt3maxIjERKT_S2_S2_ = comdat any

$_ZNSt11char_traitsIcE6lengthEPKc = comdat any

$_ZNSt7__cxx1112basic_stringIcSt11char_traitsIcESaIcEE12_M_constructIPKcEEvT_S8_St20forward_iterator_tag = comdat any

$_ZNSt7__cxx1112basic_stringIcSt11char_traitsIcESaIcEE12_Alloc_hiderD2Ev = comdat any

$_ZSt8distanceIPKcENSt15iterator_traitsIT_E15difference_typeES3_S3_ = comdat any

$_ZZNSt7__cxx1112basic_stringIcSt11char_traitsIcESaIcEE12_M_constructIPKcEEvT_S8_St20forward_iterator_tagEN6_GuardC2EPS4_ = comdat any

$_ZZNSt7__cxx1112basic_stringIcSt11char_traitsIcESaIcEE12_M_constructIPKcEEvT_S8_St20forward_iterator_tagEN6_GuardD2Ev = comdat any

$_ZSt10__distanceIPKcENSt15iterator_traitsIT_E15difference_typeES3_S3_St26random_access_iterator_tag = comdat any

$_ZSt19__iterator_categoryIPKcENSt15iterator_traitsIT_E17iterator_categoryERKS3_ = comdat any

$_ZN6bufferIcLb0ELj1024EEC2EjRKc = comdat any

$_ZN6bufferIcLb0ELj1024EE9push_backERKc = comdat any

$_ZN6bufferIcLb0ELj1024EE6expandEv = comdat any

$_ZN6vectorIjLb0EjE13expand_vectorEv = comdat any

@_ZStL8__ioinit = internal global %"class.std::ios_base::Init" zeroinitializer, align 1
@__dso_handle = external hidden global i8
@.str = private unnamed_addr constant [12 x i8] c"mpz_manager\00", align 1
@.str.1 = private unnamed_addr constant [14 x i8] c"division by 0\00", align 1
@_ZTI17default_exception = external constant ptr
@.str.2 = private unnamed_addr constant [2 x i8] c"-\00", align 1
@.str.3 = private unnamed_addr constant [4 x i8] c"(- \00", align 1
@.str.4 = private unnamed_addr constant [3 x i8] c".0\00", align 1
@.str.5 = private unnamed_addr constant [2 x i8] c")\00", align 1
@.str.6 = private unnamed_addr constant [2 x i8] c"0\00", align 1
@_ZTV17default_exception = external unnamed_addr constant { [6 x ptr] }, align 8
@_ZTV12z3_exception = external unnamed_addr constant { [6 x ptr] }, align 8
@.str.7 = private unnamed_addr constant [2 x i8] c"1\00", align 1
@.str.8 = private unnamed_addr constant [50 x i8] c"basic_string: construction from null is not valid\00", align 1
@.str.9 = private unnamed_addr constant [43 x i8] c"Overflow encountered when expanding vector\00", align 1
@llvm.global_ctors = appending global [1 x { i32, ptr, ptr }] [{ i32, ptr, ptr } { i32 65535, ptr @_GLOBAL__sub_I_mpz.cpp, ptr null }]

@_ZN11mpz_managerILb1EE9sign_cellC1ERS0_RK3mpz = weak_odr hidden unnamed_addr alias void (ptr, ptr, ptr), ptr @_ZN11mpz_managerILb1EE9sign_cellC2ERS0_RK3mpz
@_ZN11mpz_managerILb1EE5sz_ltC1ERS0_PK3mpz = weak_odr hidden unnamed_addr alias void (ptr, ptr, ptr), ptr @_ZN11mpz_managerILb1EE5sz_ltC2ERS0_PK3mpz
@_ZN11mpz_managerILb1EEC1Ev = weak_odr hidden unnamed_addr alias void (ptr), ptr @_ZN11mpz_managerILb1EEC2Ev
@_ZN11mpz_managerILb1EED1Ev = weak_odr hidden unnamed_addr alias void (ptr), ptr @_ZN11mpz_managerILb1EED2Ev
@_ZN11mpz_managerILb0EE9sign_cellC1ERS0_RK3mpz = weak_odr hidden unnamed_addr alias void (ptr, ptr, ptr), ptr @_ZN11mpz_managerILb0EE9sign_cellC2ERS0_RK3mpz
@_ZN11mpz_managerILb0EE5sz_ltC1ERS0_PK3mpz = weak_odr hidden unnamed_addr alias void (ptr, ptr, ptr), ptr @_ZN11mpz_managerILb0EE5sz_ltC2ERS0_PK3mpz
@_ZN11mpz_managerILb0EEC1Ev = weak_odr hidden unnamed_addr alias void (ptr), ptr @_ZN11mpz_managerILb0EEC2Ev
@_ZN11mpz_managerILb0EED1Ev = weak_odr hidden unnamed_addr alias void (ptr), ptr @_ZN11mpz_managerILb0EED2Ev

; Function Attrs: uwtable
define internal void @__cxx_global_var_init() #0 section ".text.startup" {
entry:
  call void @_ZNSt8ios_base4InitC1Ev(ptr noundef nonnull align 1 dereferenceable(1) @_ZStL8__ioinit)
  %0 = call i32 @__cxa_atexit(ptr @_ZNSt8ios_base4InitD1Ev, ptr @_ZStL8__ioinit, ptr @__dso_handle) #3
  ret void
}

declare void @_ZNSt8ios_base4InitC1Ev(ptr noundef nonnull align 1 dereferenceable(1)) unnamed_addr #1

; Function Attrs: nounwind
declare void @_ZNSt8ios_base4InitD1Ev(ptr noundef nonnull align 1 dereferenceable(1)) unnamed_addr #2

; Function Attrs: nounwind
declare i32 @__cxa_atexit(ptr, ptr, ptr) #3

; Function Attrs: mustprogress nounwind uwtable
define hidden noundef i32 @_Z14trailing_zerosj(i32 noundef %x) #4 {
entry:
  %x.addr = alloca i32, align 4
  store i32 %x, ptr %x.addr, align 4
  %0 = load i32, ptr %x.addr, align 4
  %1 = call i32 @llvm.cttz.i32(i32 %0, i1 true)
  ret i32 %1
}

; Function Attrs: nocallback nofree nosync nounwind speculatable willreturn memory(none)
declare i32 @llvm.cttz.i32(i32, i1 immarg) #5

; Function Attrs: mustprogress uwtable
define hidden noundef i32 @_Z14trailing_zerosm(i64 noundef %x) #6 {
entry:
  %x.addr = alloca i64, align 8
  store i64 %x, ptr %x.addr, align 8
  %0 = load i64, ptr %x.addr, align 8
  %call = call noundef i64 @_ZL17_trailing_zeros64m(i64 noundef %0)
  %conv = trunc i64 %call to i32
  ret i32 %conv
}

; Function Attrs: mustprogress nounwind uwtable
define internal noundef i64 @_ZL17_trailing_zeros64m(i64 noundef %x) #4 {
entry:
  %x.addr = alloca i64, align 8
  %r = alloca i64, align 8
  store i64 %x, ptr %x.addr, align 8
  store i64 0, ptr %r, align 8
  br label %for.cond

for.cond:                                         ; preds = %for.inc, %entry
  %0 = load i64, ptr %x.addr, align 8
  %and = and i64 %0, 1
  %cmp = icmp eq i64 0, %and
  br i1 %cmp, label %land.rhs, label %land.end

land.rhs:                                         ; preds = %for.cond
  %1 = load i64, ptr %r, align 8
  %cmp1 = icmp ult i64 %1, 64
  br label %land.end

land.end:                                         ; preds = %land.rhs, %for.cond
  %2 = phi i1 [ false, %for.cond ], [ %cmp1, %land.rhs ]
  br i1 %2, label %for.body, label %for.end

for.body:                                         ; preds = %land.end
  br label %for.inc

for.inc:                                          ; preds = %for.body
  %3 = load i64, ptr %r, align 8
  %inc = add i64 %3, 1
  store i64 %inc, ptr %r, align 8
  %4 = load i64, ptr %x.addr, align 8
  %shr = lshr i64 %4, 1
  store i64 %shr, ptr %x.addr, align 8
  br label %for.cond, !llvm.loop !4

for.end:                                          ; preds = %land.end
  %5 = load i64, ptr %r, align 8
  ret i64 %5
}

; Function Attrs: mustprogress nounwind uwtable
define hidden noundef i32 @_Z5u_gcdjj(i32 noundef %u, i32 noundef %v) #4 {
entry:
  %retval = alloca i32, align 4
  %u.addr = alloca i32, align 4
  %v.addr = alloca i32, align 4
  %shift = alloca i32, align 4
  %diff = alloca i32, align 4
  %mdiff = alloca i32, align 4
  store i32 %u, ptr %u.addr, align 4
  store i32 %v, ptr %v.addr, align 4
  %0 = load i32, ptr %u.addr, align 4
  %cmp = icmp eq i32 %0, 0
  br i1 %cmp, label %if.then, label %if.end

if.then:                                          ; preds = %entry
  %1 = load i32, ptr %v.addr, align 4
  store i32 %1, ptr %retval, align 4
  br label %return

if.end:                                           ; preds = %entry
  %2 = load i32, ptr %v.addr, align 4
  %cmp1 = icmp eq i32 %2, 0
  br i1 %cmp1, label %if.then2, label %if.end3

if.then2:                                         ; preds = %if.end
  %3 = load i32, ptr %u.addr, align 4
  store i32 %3, ptr %retval, align 4
  br label %return

if.end3:                                          ; preds = %if.end
  %4 = load i32, ptr %u.addr, align 4
  %5 = load i32, ptr %v.addr, align 4
  %or = or i32 %4, %5
  %6 = call i32 @llvm.cttz.i32(i32 %or, i1 true)
  store i32 %6, ptr %shift, align 4
  %7 = load i32, ptr %u.addr, align 4
  %8 = call i32 @llvm.cttz.i32(i32 %7, i1 true)
  %9 = load i32, ptr %u.addr, align 4
  %shr = lshr i32 %9, %8
  store i32 %shr, ptr %u.addr, align 4
  %10 = load i32, ptr %u.addr, align 4
  %cmp4 = icmp eq i32 %10, 1
  br i1 %cmp4, label %if.then6, label %lor.lhs.false

lor.lhs.false:                                    ; preds = %if.end3
  %11 = load i32, ptr %v.addr, align 4
  %cmp5 = icmp eq i32 %11, 1
  br i1 %cmp5, label %if.then6, label %if.end7

if.then6:                                         ; preds = %lor.lhs.false, %if.end3
  %12 = load i32, ptr %shift, align 4
  %shl = shl i32 1, %12
  store i32 %shl, ptr %retval, align 4
  br label %return

if.end7:                                          ; preds = %lor.lhs.false
  %13 = load i32, ptr %u.addr, align 4
  %14 = load i32, ptr %v.addr, align 4
  %cmp8 = icmp eq i32 %13, %14
  br i1 %cmp8, label %if.then9, label %if.end11

if.then9:                                         ; preds = %if.end7
  %15 = load i32, ptr %u.addr, align 4
  %16 = load i32, ptr %shift, align 4
  %shl10 = shl i32 %15, %16
  store i32 %shl10, ptr %retval, align 4
  br label %return

if.end11:                                         ; preds = %if.end7
  br label %do.body

do.body:                                          ; preds = %do.cond, %if.end11
  %17 = load i32, ptr %v.addr, align 4
  %18 = call i32 @llvm.cttz.i32(i32 %17, i1 true)
  %19 = load i32, ptr %v.addr, align 4
  %shr12 = lshr i32 %19, %18
  store i32 %shr12, ptr %v.addr, align 4
  %20 = load i32, ptr %u.addr, align 4
  %21 = load i32, ptr %v.addr, align 4
  %sub = sub i32 %20, %21
  store i32 %sub, ptr %diff, align 4
  %22 = load i32, ptr %diff, align 4
  %23 = load i32, ptr %diff, align 4
  %shr13 = ashr i32 %23, 31
  %and = and i32 %22, %shr13
  store i32 %and, ptr %mdiff, align 4
  %24 = load i32, ptr %v.addr, align 4
  %25 = load i32, ptr %mdiff, align 4
  %add = add i32 %24, %25
  store i32 %add, ptr %u.addr, align 4
  %26 = load i32, ptr %diff, align 4
  %27 = load i32, ptr %mdiff, align 4
  %mul = mul i32 2, %27
  %sub14 = sub i32 %26, %mul
  store i32 %sub14, ptr %v.addr, align 4
  br label %do.cond

do.cond:                                          ; preds = %do.body
  %28 = load i32, ptr %v.addr, align 4
  %cmp15 = icmp ne i32 %28, 0
  br i1 %cmp15, label %do.body, label %do.end, !llvm.loop !6

do.end:                                           ; preds = %do.cond
  %29 = load i32, ptr %u.addr, align 4
  %30 = load i32, ptr %shift, align 4
  %shl16 = shl i32 %29, %30
  store i32 %shl16, ptr %retval, align 4
  br label %return

return:                                           ; preds = %do.end, %if.then9, %if.then6, %if.then2, %if.then
  %31 = load i32, ptr %retval, align 4
  ret i32 %31
}

; Function Attrs: mustprogress uwtable
define hidden noundef i64 @_Z7u64_gcdmm(i64 noundef %u, i64 noundef %v) #6 {
entry:
  %retval = alloca i64, align 8
  %u.addr = alloca i64, align 8
  %v.addr = alloca i64, align 8
  %shift = alloca i64, align 8
  store i64 %u, ptr %u.addr, align 8
  store i64 %v, ptr %v.addr, align 8
  %0 = load i64, ptr %u.addr, align 8
  %cmp = icmp eq i64 %0, 0
  br i1 %cmp, label %if.then, label %if.end

if.then:                                          ; preds = %entry
  %1 = load i64, ptr %v.addr, align 8
  store i64 %1, ptr %retval, align 8
  br label %return

if.end:                                           ; preds = %entry
  %2 = load i64, ptr %v.addr, align 8
  %cmp1 = icmp eq i64 %2, 0
  br i1 %cmp1, label %if.then2, label %if.end3

if.then2:                                         ; preds = %if.end
  %3 = load i64, ptr %u.addr, align 8
  store i64 %3, ptr %retval, align 8
  br label %return

if.end3:                                          ; preds = %if.end
  %4 = load i64, ptr %u.addr, align 8
  %cmp4 = icmp eq i64 %4, 1
  br i1 %cmp4, label %if.then6, label %lor.lhs.false

lor.lhs.false:                                    ; preds = %if.end3
  %5 = load i64, ptr %v.addr, align 8
  %cmp5 = icmp eq i64 %5, 1
  br i1 %cmp5, label %if.then6, label %if.end7

if.then6:                                         ; preds = %lor.lhs.false, %if.end3
  store i64 1, ptr %retval, align 8
  br label %return

if.end7:                                          ; preds = %lor.lhs.false
  %6 = load i64, ptr %u.addr, align 8
  %7 = load i64, ptr %v.addr, align 8
  %or = or i64 %6, %7
  %call = call noundef i64 @_ZL17_trailing_zeros64m(i64 noundef %or)
  store i64 %call, ptr %shift, align 8
  %8 = load i64, ptr %u.addr, align 8
  %call8 = call noundef i64 @_ZL17_trailing_zeros64m(i64 noundef %8)
  %9 = load i64, ptr %u.addr, align 8
  %shr = lshr i64 %9, %call8
  store i64 %shr, ptr %u.addr, align 8
  br label %do.body

do.body:                                          ; preds = %do.cond, %if.end7
  %10 = load i64, ptr %v.addr, align 8
  %call9 = call noundef i64 @_ZL17_trailing_zeros64m(i64 noundef %10)
  %11 = load i64, ptr %v.addr, align 8
  %shr10 = lshr i64 %11, %call9
  store i64 %shr10, ptr %v.addr, align 8
  %12 = load i64, ptr %u.addr, align 8
  %13 = load i64, ptr %v.addr, align 8
  %cmp11 = icmp ugt i64 %12, %13
  br i1 %cmp11, label %if.then12, label %if.end13

if.then12:                                        ; preds = %do.body
  call void @_ZSt4swapImENSt9enable_ifIXsr6__and_ISt6__not_ISt15__is_tuple_likeIT_EESt21is_move_constructibleIS3_ESt18is_move_assignableIS3_EEE5valueEvE4typeERS3_SC_(ptr noundef nonnull align 8 dereferenceable(8) %u.addr, ptr noundef nonnull align 8 dereferenceable(8) %v.addr) #3
  br label %if.end13

if.end13:                                         ; preds = %if.then12, %do.body
  %14 = load i64, ptr %u.addr, align 8
  %15 = load i64, ptr %v.addr, align 8
  %sub = sub i64 %15, %14
  store i64 %sub, ptr %v.addr, align 8
  br label %do.cond

do.cond:                                          ; preds = %if.end13
  %16 = load i64, ptr %v.addr, align 8
  %cmp14 = icmp ne i64 %16, 0
  br i1 %cmp14, label %do.body, label %do.end, !llvm.loop !7

do.end:                                           ; preds = %do.cond
  %17 = load i64, ptr %u.addr, align 8
  %18 = load i64, ptr %shift, align 8
  %shl = shl i64 %17, %18
  store i64 %shl, ptr %retval, align 8
  br label %return

return:                                           ; preds = %do.end, %if.then6, %if.then2, %if.then
  %19 = load i64, ptr %retval, align 8
  ret i64 %19
}

; Function Attrs: mustprogress nounwind uwtable
define linkonce_odr void @_ZSt4swapImENSt9enable_ifIXsr6__and_ISt6__not_ISt15__is_tuple_likeIT_EESt21is_move_constructibleIS3_ESt18is_move_assignableIS3_EEE5valueEvE4typeERS3_SC_(ptr noundef nonnull align 8 dereferenceable(8) %__a, ptr noundef nonnull align 8 dereferenceable(8) %__b) #4 comdat {
entry:
  %__a.addr = alloca ptr, align 8
  %__b.addr = alloca ptr, align 8
  %__tmp = alloca i64, align 8
  store ptr %__a, ptr %__a.addr, align 8
  store ptr %__b, ptr %__b.addr, align 8
  %0 = load ptr, ptr %__a.addr, align 8
  %1 = load i64, ptr %0, align 8
  store i64 %1, ptr %__tmp, align 8
  %2 = load ptr, ptr %__b.addr, align 8
  %3 = load i64, ptr %2, align 8
  %4 = load ptr, ptr %__a.addr, align 8
  store i64 %3, ptr %4, align 8
  %5 = load i64, ptr %__tmp, align 8
  %6 = load ptr, ptr %__b.addr, align 8
  store i64 %5, ptr %6, align 8
  ret void
}

; Function Attrs: mustprogress nounwind uwtable
define weak_odr hidden noundef i32 @_ZN11mpz_managerILb1EE9cell_sizeEj(i32 noundef %capacity) #4 comdat align 2 {
entry:
  %capacity.addr = alloca i32, align 4
  store i32 %capacity, ptr %capacity.addr, align 4
  %0 = load i32, ptr %capacity.addr, align 4
  %conv = zext i32 %0 to i64
  %mul = mul i64 4, %conv
  %add = add i64 8, %mul
  %conv1 = trunc i64 %add to i32
  ret i32 %conv1
}

; Function Attrs: mustprogress uwtable
define weak_odr hidden noundef ptr @_ZN11mpz_managerILb1EE8allocateEj(ptr noundef nonnull align 8 dereferenceable(600) %this, i32 noundef %capacity) #6 comdat align 2 {
entry:
  %this.addr = alloca ptr, align 8
  %capacity.addr = alloca i32, align 4
  %cell = alloca ptr, align 8
  store ptr %this, ptr %this.addr, align 8
  store i32 %capacity, ptr %capacity.addr, align 4
  %0 = load i32, ptr %capacity.addr, align 4
  %call = call noundef i32 @_ZN11mpz_managerILb1EE9cell_sizeEj(i32 noundef %0)
  %conv = zext i32 %call to i64
  %call2 = call noalias noundef ptr @_ZN6memory8allocateEm(i64 noundef %conv)
  store ptr %call2, ptr %cell, align 8
  %1 = load i32, ptr %capacity.addr, align 4
  %2 = load ptr, ptr %cell, align 8
  %m_capacity = getelementptr inbounds %class.mpz_cell, ptr %2, i32 0, i32 1
  store i32 %1, ptr %m_capacity, align 4
  %3 = load ptr, ptr %cell, align 8
  ret ptr %3
}

declare noalias noundef ptr @_ZN6memory8allocateEm(i64 noundef) #1

; Function Attrs: mustprogress uwtable
define weak_odr hidden void @_ZN11mpz_managerILb1EE18allocate_if_neededER3mpzj(ptr noundef nonnull align 8 dereferenceable(600) %this, ptr noundef nonnull align 8 dereferenceable(16) %n, i32 noundef %c) #6 comdat align 2 {
entry:
  %this.addr = alloca ptr, align 8
  %n.addr = alloca ptr, align 8
  %c.addr = alloca i32, align 4
  store ptr %this, ptr %this.addr, align 8
  store ptr %n, ptr %n.addr, align 8
  store i32 %c, ptr %c.addr, align 4
  %this1 = load ptr, ptr %this.addr, align 8
  %m_init_cell_capacity = getelementptr inbounds %class.mpz_manager, ptr %this1, i32 0, i32 3
  %0 = load i32, ptr %m_init_cell_capacity, align 4
  %1 = load i32, ptr %c.addr, align 4
  %cmp = icmp ugt i32 %0, %1
  br i1 %cmp, label %if.then, label %if.end

if.then:                                          ; preds = %entry
  %m_init_cell_capacity2 = getelementptr inbounds %class.mpz_manager, ptr %this1, i32 0, i32 3
  %2 = load i32, ptr %m_init_cell_capacity2, align 4
  store i32 %2, ptr %c.addr, align 4
  br label %if.end

if.end:                                           ; preds = %if.then, %entry
  %3 = load ptr, ptr %n.addr, align 8
  %m_ptr = getelementptr inbounds %class.mpz, ptr %3, i32 0, i32 2
  %4 = load ptr, ptr %m_ptr, align 8
  %cmp3 = icmp eq ptr %4, null
  br i1 %cmp3, label %if.then5, label %lor.lhs.false

lor.lhs.false:                                    ; preds = %if.end
  %5 = load ptr, ptr %n.addr, align 8
  %call = call noundef i32 @_ZN11mpz_managerILb1EE8capacityERK3mpz(ptr noundef nonnull align 8 dereferenceable(16) %5)
  %6 = load i32, ptr %c.addr, align 4
  %cmp4 = icmp ult i32 %call, %6
  br i1 %cmp4, label %if.then5, label %if.else

if.then5:                                         ; preds = %lor.lhs.false, %if.end
  %7 = load ptr, ptr %n.addr, align 8
  call void @_ZN11mpz_managerILb1EE10deallocateER3mpz(ptr noundef nonnull align 8 dereferenceable(600) %this1, ptr noundef nonnull align 8 dereferenceable(16) %7)
  %8 = load ptr, ptr %n.addr, align 8
  %m_val = getelementptr inbounds %class.mpz, ptr %8, i32 0, i32 0
  store i32 1, ptr %m_val, align 8
  %9 = load ptr, ptr %n.addr, align 8
  %m_kind = getelementptr inbounds %class.mpz, ptr %9, i32 0, i32 1
  %bf.load = load i8, ptr %m_kind, align 4
  %bf.clear = and i8 %bf.load, -2
  %bf.set = or i8 %bf.clear, 1
  store i8 %bf.set, ptr %m_kind, align 4
  %10 = load ptr, ptr %n.addr, align 8
  %m_owner = getelementptr inbounds %class.mpz, ptr %10, i32 0, i32 1
  %bf.load6 = load i8, ptr %m_owner, align 4
  %bf.clear7 = and i8 %bf.load6, -3
  %bf.set8 = or i8 %bf.clear7, 0
  store i8 %bf.set8, ptr %m_owner, align 4
  %11 = load i32, ptr %c.addr, align 4
  %call9 = call noundef ptr @_ZN11mpz_managerILb1EE8allocateEj(ptr noundef nonnull align 8 dereferenceable(600) %this1, i32 noundef %11)
  %12 = load ptr, ptr %n.addr, align 8
  %m_ptr10 = getelementptr inbounds %class.mpz, ptr %12, i32 0, i32 2
  store ptr %call9, ptr %m_ptr10, align 8
  br label %if.end15

if.else:                                          ; preds = %lor.lhs.false
  %13 = load ptr, ptr %n.addr, align 8
  %m_kind11 = getelementptr inbounds %class.mpz, ptr %13, i32 0, i32 1
  %bf.load12 = load i8, ptr %m_kind11, align 4
  %bf.clear13 = and i8 %bf.load12, -2
  %bf.set14 = or i8 %bf.clear13, 1
  store i8 %bf.set14, ptr %m_kind11, align 4
  br label %if.end15

if.end15:                                         ; preds = %if.else, %if.then5
  ret void
}

; Function Attrs: mustprogress nounwind uwtable
define weak_odr hidden noundef i32 @_ZN11mpz_managerILb1EE8capacityERK3mpz(ptr noundef nonnull align 8 dereferenceable(16) %c) #4 comdat align 2 {
entry:
  %c.addr = alloca ptr, align 8
  store ptr %c, ptr %c.addr, align 8
  %0 = load ptr, ptr %c.addr, align 8
  %m_ptr = getelementptr inbounds %class.mpz, ptr %0, i32 0, i32 2
  %1 = load ptr, ptr %m_ptr, align 8
  %m_capacity = getelementptr inbounds %class.mpz_cell, ptr %1, i32 0, i32 1
  %2 = load i32, ptr %m_capacity, align 4
  ret i32 %2
}

; Function Attrs: mustprogress uwtable
define weak_odr hidden void @_ZN11mpz_managerILb1EE10deallocateER3mpz(ptr noundef nonnull align 8 dereferenceable(600) %this, ptr noundef nonnull align 8 dereferenceable(16) %n) #6 comdat align 2 {
entry:
  %this.addr = alloca ptr, align 8
  %n.addr = alloca ptr, align 8
  store ptr %this, ptr %this.addr, align 8
  store ptr %n, ptr %n.addr, align 8
  %this1 = load ptr, ptr %this.addr, align 8
  %0 = load ptr, ptr %n.addr, align 8
  %m_ptr = getelementptr inbounds %class.mpz, ptr %0, i32 0, i32 2
  %1 = load ptr, ptr %m_ptr, align 8
  %tobool = icmp ne ptr %1, null
  br i1 %tobool, label %if.then, label %if.end

if.then:                                          ; preds = %entry
  %2 = load ptr, ptr %n.addr, align 8
  %m_owner = getelementptr inbounds %class.mpz, ptr %2, i32 0, i32 1
  %bf.load = load i8, ptr %m_owner, align 4
  %bf.lshr = lshr i8 %bf.load, 1
  %bf.clear = and i8 %bf.lshr, 1
  %bf.cast = zext i8 %bf.clear to i32
  %cmp = icmp eq i32 %bf.cast, 0
  %3 = load ptr, ptr %n.addr, align 8
  %m_ptr2 = getelementptr inbounds %class.mpz, ptr %3, i32 0, i32 2
  %4 = load ptr, ptr %m_ptr2, align 8
  call void @_ZN11mpz_managerILb1EE10deallocateEbP8mpz_cell(ptr noundef nonnull align 8 dereferenceable(600) %this1, i1 noundef zeroext %cmp, ptr noundef %4)
  %5 = load ptr, ptr %n.addr, align 8
  %m_ptr3 = getelementptr inbounds %class.mpz, ptr %5, i32 0, i32 2
  store ptr null, ptr %m_ptr3, align 8
  %6 = load ptr, ptr %n.addr, align 8
  %m_kind = getelementptr inbounds %class.mpz, ptr %6, i32 0, i32 1
  %bf.load4 = load i8, ptr %m_kind, align 4
  %bf.clear5 = and i8 %bf.load4, -2
  %bf.set = or i8 %bf.clear5, 0
  store i8 %bf.set, ptr %m_kind, align 4
  br label %if.end

if.end:                                           ; preds = %if.then, %entry
  ret void
}

; Function Attrs: mustprogress uwtable
define weak_odr hidden void @_ZN11mpz_managerILb1EE10deallocateEbP8mpz_cell(ptr noundef nonnull align 8 dereferenceable(600) %this, i1 noundef zeroext %is_heap, ptr noundef %ptr) #6 comdat align 2 {
entry:
  %this.addr = alloca ptr, align 8
  %is_heap.addr = alloca i8, align 1
  %ptr.addr = alloca ptr, align 8
  store ptr %this, ptr %this.addr, align 8
  %frombool = zext i1 %is_heap to i8
  store i8 %frombool, ptr %is_heap.addr, align 1
  store ptr %ptr, ptr %ptr.addr, align 8
  %0 = load i8, ptr %is_heap.addr, align 1
  %tobool = trunc i8 %0 to i1
  br i1 %tobool, label %if.then, label %if.end

if.then:                                          ; preds = %entry
  %1 = load ptr, ptr %ptr.addr, align 8
  call void @_ZN6memory10deallocateEPv(ptr noundef %1)
  br label %if.end

if.end:                                           ; preds = %if.then, %entry
  ret void
}

declare void @_ZN6memory10deallocateEPv(ptr noundef) #1

; Function Attrs: mustprogress uwtable
define weak_odr hidden void @_ZN11mpz_managerILb1EE15ensure_capacityER3mpzj(ptr noundef nonnull align 8 dereferenceable(600) %this, ptr noundef nonnull align 8 dereferenceable(16) %a, i32 noundef %capacity) #6 comdat align 2 {
entry:
  %this.addr = alloca ptr, align 8
  %a.addr = alloca ptr, align 8
  %capacity.addr = alloca i32, align 4
  %val = alloca i32, align 4
  %intmin_sz = alloca i32, align 4
  %i = alloca i32, align 4
  %new_cell = alloca ptr, align 8
  %old_sz = alloca i32, align 4
  %i47 = alloca i32, align 4
  store ptr %this, ptr %this.addr, align 8
  store ptr %a, ptr %a.addr, align 8
  store i32 %capacity, ptr %capacity.addr, align 4
  %this1 = load ptr, ptr %this.addr, align 8
  %0 = load i32, ptr %capacity.addr, align 4
  %cmp = icmp ule i32 %0, 1
  br i1 %cmp, label %if.then, label %if.end

if.then:                                          ; preds = %entry
  br label %if.end70

if.end:                                           ; preds = %entry
  %1 = load i32, ptr %capacity.addr, align 4
  %m_init_cell_capacity = getelementptr inbounds %class.mpz_manager, ptr %this1, i32 0, i32 3
  %2 = load i32, ptr %m_init_cell_capacity, align 4
  %cmp2 = icmp ult i32 %1, %2
  br i1 %cmp2, label %if.then3, label %if.end5

if.then3:                                         ; preds = %if.end
  %m_init_cell_capacity4 = getelementptr inbounds %class.mpz_manager, ptr %this1, i32 0, i32 3
  %3 = load i32, ptr %m_init_cell_capacity4, align 4
  store i32 %3, ptr %capacity.addr, align 4
  br label %if.end5

if.end5:                                          ; preds = %if.then3, %if.end
  %4 = load ptr, ptr %a.addr, align 8
  %call = call noundef zeroext i1 @_ZN11mpz_managerILb1EE8is_smallERK3mpz(ptr noundef nonnull align 8 dereferenceable(16) %4)
  br i1 %call, label %if.then6, label %if.else39

if.then6:                                         ; preds = %if.end5
  %5 = load ptr, ptr %a.addr, align 8
  %m_val = getelementptr inbounds %class.mpz, ptr %5, i32 0, i32 0
  %6 = load i32, ptr %m_val, align 8
  store i32 %6, ptr %val, align 4
  %7 = load ptr, ptr %a.addr, align 8
  %8 = load i32, ptr %capacity.addr, align 4
  call void @_ZN11mpz_managerILb1EE18allocate_if_neededER3mpzj(ptr noundef nonnull align 8 dereferenceable(600) %this1, ptr noundef nonnull align 8 dereferenceable(16) %7, i32 noundef %8)
  %9 = load ptr, ptr %a.addr, align 8
  %m_kind = getelementptr inbounds %class.mpz, ptr %9, i32 0, i32 1
  %bf.load = load i8, ptr %m_kind, align 4
  %bf.clear = and i8 %bf.load, -2
  %bf.set = or i8 %bf.clear, 1
  store i8 %bf.set, ptr %m_kind, align 4
  %10 = load i32, ptr %val, align 4
  %cmp7 = icmp eq i32 %10, -2147483648
  br i1 %cmp7, label %if.then8, label %if.else

if.then8:                                         ; preds = %if.then6
  %m_int_min = getelementptr inbounds %class.mpz_manager, ptr %this1, i32 0, i32 4
  %m_ptr = getelementptr inbounds %class.mpz, ptr %m_int_min, i32 0, i32 2
  %11 = load ptr, ptr %m_ptr, align 8
  %m_size = getelementptr inbounds %class.mpz_cell, ptr %11, i32 0, i32 0
  %12 = load i32, ptr %m_size, align 4
  store i32 %12, ptr %intmin_sz, align 4
  store i32 0, ptr %i, align 4
  br label %for.cond

for.cond:                                         ; preds = %for.inc, %if.then8
  %13 = load i32, ptr %i, align 4
  %14 = load i32, ptr %intmin_sz, align 4
  %cmp9 = icmp ult i32 %13, %14
  br i1 %cmp9, label %for.body, label %for.end

for.body:                                         ; preds = %for.cond
  %m_int_min10 = getelementptr inbounds %class.mpz_manager, ptr %this1, i32 0, i32 4
  %m_ptr11 = getelementptr inbounds %class.mpz, ptr %m_int_min10, i32 0, i32 2
  %15 = load ptr, ptr %m_ptr11, align 8
  %m_digits = getelementptr inbounds %class.mpz_cell, ptr %15, i32 0, i32 2
  %16 = load i32, ptr %i, align 4
  %idxprom = zext i32 %16 to i64
  %arrayidx = getelementptr inbounds [0 x i32], ptr %m_digits, i64 0, i64 %idxprom
  %17 = load i32, ptr %arrayidx, align 4
  %18 = load ptr, ptr %a.addr, align 8
  %m_ptr12 = getelementptr inbounds %class.mpz, ptr %18, i32 0, i32 2
  %19 = load ptr, ptr %m_ptr12, align 8
  %m_digits13 = getelementptr inbounds %class.mpz_cell, ptr %19, i32 0, i32 2
  %20 = load i32, ptr %i, align 4
  %idxprom14 = zext i32 %20 to i64
  %arrayidx15 = getelementptr inbounds [0 x i32], ptr %m_digits13, i64 0, i64 %idxprom14
  store i32 %17, ptr %arrayidx15, align 4
  br label %for.inc

for.inc:                                          ; preds = %for.body
  %21 = load i32, ptr %i, align 4
  %inc = add i32 %21, 1
  store i32 %inc, ptr %i, align 4
  br label %for.cond, !llvm.loop !8

for.end:                                          ; preds = %for.cond
  %22 = load ptr, ptr %a.addr, align 8
  %m_val16 = getelementptr inbounds %class.mpz, ptr %22, i32 0, i32 0
  store i32 -1, ptr %m_val16, align 8
  %m_int_min17 = getelementptr inbounds %class.mpz_manager, ptr %this1, i32 0, i32 4
  %m_ptr18 = getelementptr inbounds %class.mpz, ptr %m_int_min17, i32 0, i32 2
  %23 = load ptr, ptr %m_ptr18, align 8
  %m_size19 = getelementptr inbounds %class.mpz_cell, ptr %23, i32 0, i32 0
  %24 = load i32, ptr %m_size19, align 4
  %25 = load ptr, ptr %a.addr, align 8
  %m_ptr20 = getelementptr inbounds %class.mpz, ptr %25, i32 0, i32 2
  %26 = load ptr, ptr %m_ptr20, align 8
  %m_size21 = getelementptr inbounds %class.mpz_cell, ptr %26, i32 0, i32 0
  store i32 %24, ptr %m_size21, align 4
  br label %if.end38

if.else:                                          ; preds = %if.then6
  %27 = load i32, ptr %val, align 4
  %cmp22 = icmp slt i32 %27, 0
  br i1 %cmp22, label %if.then23, label %if.else30

if.then23:                                        ; preds = %if.else
  %28 = load i32, ptr %val, align 4
  %sub = sub nsw i32 0, %28
  %29 = load ptr, ptr %a.addr, align 8
  %m_ptr24 = getelementptr inbounds %class.mpz, ptr %29, i32 0, i32 2
  %30 = load ptr, ptr %m_ptr24, align 8
  %m_digits25 = getelementptr inbounds %class.mpz_cell, ptr %30, i32 0, i32 2
  %arrayidx26 = getelementptr inbounds [0 x i32], ptr %m_digits25, i64 0, i64 0
  store i32 %sub, ptr %arrayidx26, align 4
  %31 = load ptr, ptr %a.addr, align 8
  %m_val27 = getelementptr inbounds %class.mpz, ptr %31, i32 0, i32 0
  store i32 -1, ptr %m_val27, align 8
  %32 = load ptr, ptr %a.addr, align 8
  %m_ptr28 = getelementptr inbounds %class.mpz, ptr %32, i32 0, i32 2
  %33 = load ptr, ptr %m_ptr28, align 8
  %m_size29 = getelementptr inbounds %class.mpz_cell, ptr %33, i32 0, i32 0
  store i32 1, ptr %m_size29, align 4
  br label %if.end37

if.else30:                                        ; preds = %if.else
  %34 = load i32, ptr %val, align 4
  %35 = load ptr, ptr %a.addr, align 8
  %m_ptr31 = getelementptr inbounds %class.mpz, ptr %35, i32 0, i32 2
  %36 = load ptr, ptr %m_ptr31, align 8
  %m_digits32 = getelementptr inbounds %class.mpz_cell, ptr %36, i32 0, i32 2
  %arrayidx33 = getelementptr inbounds [0 x i32], ptr %m_digits32, i64 0, i64 0
  store i32 %34, ptr %arrayidx33, align 4
  %37 = load ptr, ptr %a.addr, align 8
  %m_val34 = getelementptr inbounds %class.mpz, ptr %37, i32 0, i32 0
  store i32 1, ptr %m_val34, align 8
  %38 = load ptr, ptr %a.addr, align 8
  %m_ptr35 = getelementptr inbounds %class.mpz, ptr %38, i32 0, i32 2
  %39 = load ptr, ptr %m_ptr35, align 8
  %m_size36 = getelementptr inbounds %class.mpz_cell, ptr %39, i32 0, i32 0
  store i32 1, ptr %m_size36, align 4
  br label %if.end37

if.end37:                                         ; preds = %if.else30, %if.then23
  br label %if.end38

if.end38:                                         ; preds = %if.end37, %for.end
  br label %if.end70

if.else39:                                        ; preds = %if.end5
  %40 = load ptr, ptr %a.addr, align 8
  %m_ptr40 = getelementptr inbounds %class.mpz, ptr %40, i32 0, i32 2
  %41 = load ptr, ptr %m_ptr40, align 8
  %m_capacity = getelementptr inbounds %class.mpz_cell, ptr %41, i32 0, i32 1
  %42 = load i32, ptr %m_capacity, align 4
  %43 = load i32, ptr %capacity.addr, align 4
  %cmp41 = icmp ult i32 %42, %43
  br i1 %cmp41, label %if.then42, label %if.end69

if.then42:                                        ; preds = %if.else39
  %44 = load i32, ptr %capacity.addr, align 4
  %call43 = call noundef ptr @_ZN11mpz_managerILb1EE8allocateEj(ptr noundef nonnull align 8 dereferenceable(600) %this1, i32 noundef %44)
  store ptr %call43, ptr %new_cell, align 8
  %45 = load ptr, ptr %a.addr, align 8
  %m_ptr44 = getelementptr inbounds %class.mpz, ptr %45, i32 0, i32 2
  %46 = load ptr, ptr %m_ptr44, align 8
  %m_size45 = getelementptr inbounds %class.mpz_cell, ptr %46, i32 0, i32 0
  %47 = load i32, ptr %m_size45, align 4
  store i32 %47, ptr %old_sz, align 4
  %48 = load i32, ptr %old_sz, align 4
  %49 = load ptr, ptr %new_cell, align 8
  %m_size46 = getelementptr inbounds %class.mpz_cell, ptr %49, i32 0, i32 0
  store i32 %48, ptr %m_size46, align 4
  store i32 0, ptr %i47, align 4
  br label %for.cond48

for.cond48:                                       ; preds = %for.inc58, %if.then42
  %50 = load i32, ptr %i47, align 4
  %51 = load i32, ptr %old_sz, align 4
  %cmp49 = icmp ult i32 %50, %51
  br i1 %cmp49, label %for.body50, label %for.end60

for.body50:                                       ; preds = %for.cond48
  %52 = load ptr, ptr %a.addr, align 8
  %m_ptr51 = getelementptr inbounds %class.mpz, ptr %52, i32 0, i32 2
  %53 = load ptr, ptr %m_ptr51, align 8
  %m_digits52 = getelementptr inbounds %class.mpz_cell, ptr %53, i32 0, i32 2
  %54 = load i32, ptr %i47, align 4
  %idxprom53 = zext i32 %54 to i64
  %arrayidx54 = getelementptr inbounds [0 x i32], ptr %m_digits52, i64 0, i64 %idxprom53
  %55 = load i32, ptr %arrayidx54, align 4
  %56 = load ptr, ptr %new_cell, align 8
  %m_digits55 = getelementptr inbounds %class.mpz_cell, ptr %56, i32 0, i32 2
  %57 = load i32, ptr %i47, align 4
  %idxprom56 = zext i32 %57 to i64
  %arrayidx57 = getelementptr inbounds [0 x i32], ptr %m_digits55, i64 0, i64 %idxprom56
  store i32 %55, ptr %arrayidx57, align 4
  br label %for.inc58

for.inc58:                                        ; preds = %for.body50
  %58 = load i32, ptr %i47, align 4
  %inc59 = add i32 %58, 1
  store i32 %inc59, ptr %i47, align 4
  br label %for.cond48, !llvm.loop !9

for.end60:                                        ; preds = %for.cond48
  %59 = load ptr, ptr %a.addr, align 8
  call void @_ZN11mpz_managerILb1EE10deallocateER3mpz(ptr noundef nonnull align 8 dereferenceable(600) %this1, ptr noundef nonnull align 8 dereferenceable(16) %59)
  %60 = load ptr, ptr %new_cell, align 8
  %61 = load ptr, ptr %a.addr, align 8
  %m_ptr61 = getelementptr inbounds %class.mpz, ptr %61, i32 0, i32 2
  store ptr %60, ptr %m_ptr61, align 8
  %62 = load ptr, ptr %a.addr, align 8
  %m_owner = getelementptr inbounds %class.mpz, ptr %62, i32 0, i32 1
  %bf.load62 = load i8, ptr %m_owner, align 4
  %bf.clear63 = and i8 %bf.load62, -3
  %bf.set64 = or i8 %bf.clear63, 0
  store i8 %bf.set64, ptr %m_owner, align 4
  %63 = load ptr, ptr %a.addr, align 8
  %m_kind65 = getelementptr inbounds %class.mpz, ptr %63, i32 0, i32 1
  %bf.load66 = load i8, ptr %m_kind65, align 4
  %bf.clear67 = and i8 %bf.load66, -2
  %bf.set68 = or i8 %bf.clear67, 1
  store i8 %bf.set68, ptr %m_kind65, align 4
  br label %if.end69

if.end69:                                         ; preds = %for.end60, %if.else39
  br label %if.end70

if.end70:                                         ; preds = %if.end69, %if.end38, %if.then
  ret void
}

; Function Attrs: mustprogress nounwind uwtable
define weak_odr hidden noundef zeroext i1 @_ZN11mpz_managerILb1EE8is_smallERK3mpz(ptr noundef nonnull align 8 dereferenceable(16) %a) #4 comdat align 2 {
entry:
  %a.addr = alloca ptr, align 8
  store ptr %a, ptr %a.addr, align 8
  %0 = load ptr, ptr %a.addr, align 8
  %m_kind = getelementptr inbounds %class.mpz, ptr %0, i32 0, i32 1
  %bf.load = load i8, ptr %m_kind, align 4
  %bf.clear = and i8 %bf.load, 1
  %bf.cast = zext i8 %bf.clear to i32
  %cmp = icmp eq i32 %bf.cast, 0
  ret i1 %cmp
}

; Function Attrs: mustprogress uwtable
define weak_odr hidden void @_ZN11mpz_managerILb1EE9normalizeER3mpz(ptr noundef nonnull align 8 dereferenceable(600) %this, ptr noundef nonnull align 8 dereferenceable(16) %a) #6 comdat align 2 {
entry:
  %this.addr = alloca ptr, align 8
  %a.addr = alloca ptr, align 8
  %c = alloca ptr, align 8
  %ds = alloca ptr, align 8
  %i = alloca i32, align 4
  %val = alloca i32, align 4
  store ptr %this, ptr %this.addr, align 8
  store ptr %a, ptr %a.addr, align 8
  %this1 = load ptr, ptr %this.addr, align 8
  %0 = load ptr, ptr %a.addr, align 8
  %m_ptr = getelementptr inbounds %class.mpz, ptr %0, i32 0, i32 2
  %1 = load ptr, ptr %m_ptr, align 8
  store ptr %1, ptr %c, align 8
  %2 = load ptr, ptr %c, align 8
  %m_digits = getelementptr inbounds %class.mpz_cell, ptr %2, i32 0, i32 2
  %arraydecay = getelementptr inbounds [0 x i32], ptr %m_digits, i64 0, i64 0
  store ptr %arraydecay, ptr %ds, align 8
  %3 = load ptr, ptr %c, align 8
  %m_size = getelementptr inbounds %class.mpz_cell, ptr %3, i32 0, i32 0
  %4 = load i32, ptr %m_size, align 4
  store i32 %4, ptr %i, align 4
  br label %for.cond

for.cond:                                         ; preds = %for.inc, %entry
  %5 = load i32, ptr %i, align 4
  %cmp = icmp ugt i32 %5, 0
  br i1 %cmp, label %for.body, label %for.end

for.body:                                         ; preds = %for.cond
  %6 = load ptr, ptr %ds, align 8
  %7 = load i32, ptr %i, align 4
  %sub = sub i32 %7, 1
  %idxprom = zext i32 %sub to i64
  %arrayidx = getelementptr inbounds i32, ptr %6, i64 %idxprom
  %8 = load i32, ptr %arrayidx, align 4
  %cmp2 = icmp ne i32 %8, 0
  br i1 %cmp2, label %if.then, label %if.end

if.then:                                          ; preds = %for.body
  br label %for.end

if.end:                                           ; preds = %for.body
  br label %for.inc

for.inc:                                          ; preds = %if.end
  %9 = load i32, ptr %i, align 4
  %dec = add i32 %9, -1
  store i32 %dec, ptr %i, align 4
  br label %for.cond, !llvm.loop !10

for.end:                                          ; preds = %if.then, %for.cond
  %10 = load i32, ptr %i, align 4
  %cmp3 = icmp eq i32 %10, 0
  br i1 %cmp3, label %if.then4, label %if.end5

if.then4:                                         ; preds = %for.end
  %11 = load ptr, ptr %a.addr, align 8
  call void @_ZN11mpz_managerILb1EE3setER3mpzi(ptr noundef nonnull align 8 dereferenceable(600) %this1, ptr noundef nonnull align 8 dereferenceable(16) %11, i32 noundef 0)
  br label %return

if.end5:                                          ; preds = %for.end
  %12 = load i32, ptr %i, align 4
  %cmp6 = icmp eq i32 %12, 1
  br i1 %cmp6, label %land.lhs.true, label %if.end15

land.lhs.true:                                    ; preds = %if.end5
  %13 = load ptr, ptr %ds, align 8
  %arrayidx7 = getelementptr inbounds i32, ptr %13, i64 0
  %14 = load i32, ptr %arrayidx7, align 4
  %cmp8 = icmp ule i32 %14, 2147483647
  br i1 %cmp8, label %if.then9, label %if.end15

if.then9:                                         ; preds = %land.lhs.true
  %15 = load ptr, ptr %a.addr, align 8
  %m_val = getelementptr inbounds %class.mpz, ptr %15, i32 0, i32 0
  %16 = load i32, ptr %m_val, align 8
  %cmp10 = icmp slt i32 %16, 0
  br i1 %cmp10, label %cond.true, label %cond.false

cond.true:                                        ; preds = %if.then9
  %17 = load ptr, ptr %ds, align 8
  %arrayidx11 = getelementptr inbounds i32, ptr %17, i64 0
  %18 = load i32, ptr %arrayidx11, align 4
  %sub12 = sub nsw i32 0, %18
  br label %cond.end

cond.false:                                       ; preds = %if.then9
  %19 = load ptr, ptr %ds, align 8
  %arrayidx13 = getelementptr inbounds i32, ptr %19, i64 0
  %20 = load i32, ptr %arrayidx13, align 4
  br label %cond.end

cond.end:                                         ; preds = %cond.false, %cond.true
  %cond = phi i32 [ %sub12, %cond.true ], [ %20, %cond.false ]
  store i32 %cond, ptr %val, align 4
  %21 = load i32, ptr %val, align 4
  %22 = load ptr, ptr %a.addr, align 8
  %m_val14 = getelementptr inbounds %class.mpz, ptr %22, i32 0, i32 0
  store i32 %21, ptr %m_val14, align 8
  %23 = load ptr, ptr %a.addr, align 8
  %m_kind = getelementptr inbounds %class.mpz, ptr %23, i32 0, i32 1
  %bf.load = load i8, ptr %m_kind, align 4
  %bf.clear = and i8 %bf.load, -2
  %bf.set = or i8 %bf.clear, 0
  store i8 %bf.set, ptr %m_kind, align 4
  br label %return

if.end15:                                         ; preds = %land.lhs.true, %if.end5
  %24 = load i32, ptr %i, align 4
  %25 = load ptr, ptr %c, align 8
  %m_size16 = getelementptr inbounds %class.mpz_cell, ptr %25, i32 0, i32 0
  store i32 %24, ptr %m_size16, align 4
  br label %return

return:                                           ; preds = %if.end15, %cond.end, %if.then4
  ret void
}

; Function Attrs: mustprogress nounwind uwtable
define weak_odr hidden void @_ZN11mpz_managerILb1EE3setER3mpzi(ptr noundef nonnull align 8 dereferenceable(600) %this, ptr noundef nonnull align 8 dereferenceable(16) %a, i32 noundef %val) #4 comdat align 2 {
entry:
  %this.addr = alloca ptr, align 8
  %a.addr = alloca ptr, align 8
  %val.addr = alloca i32, align 4
  store ptr %this, ptr %this.addr, align 8
  store ptr %a, ptr %a.addr, align 8
  store i32 %val, ptr %val.addr, align 4
  %0 = load i32, ptr %val.addr, align 4
  %1 = load ptr, ptr %a.addr, align 8
  %m_val = getelementptr inbounds %class.mpz, ptr %1, i32 0, i32 0
  store i32 %0, ptr %m_val, align 8
  %2 = load ptr, ptr %a.addr, align 8
  %m_kind = getelementptr inbounds %class.mpz, ptr %2, i32 0, i32 1
  %bf.load = load i8, ptr %m_kind, align 4
  %bf.clear = and i8 %bf.load, -2
  %bf.set = or i8 %bf.clear, 0
  store i8 %bf.set, ptr %m_kind, align 4
  ret void
}

; Function Attrs: mustprogress uwtable
define weak_odr hidden void @_ZN11mpz_managerILb1EE5clearER3mpz(ptr noundef nonnull align 8 dereferenceable(600) %this, ptr noundef nonnull align 8 dereferenceable(16) %n) #6 comdat align 2 {
entry:
  %this.addr = alloca ptr, align 8
  %n.addr = alloca ptr, align 8
  store ptr %this, ptr %this.addr, align 8
  store ptr %n, ptr %n.addr, align 8
  %this1 = load ptr, ptr %this.addr, align 8
  %0 = load ptr, ptr %n.addr, align 8
  call void @_ZN11mpz_managerILb1EE5resetER3mpz(ptr noundef nonnull align 8 dereferenceable(600) %this1, ptr noundef nonnull align 8 dereferenceable(16) %0)
  ret void
}

; Function Attrs: mustprogress uwtable
define weak_odr hidden void @_ZN11mpz_managerILb1EE5resetER3mpz(ptr noundef nonnull align 8 dereferenceable(600) %this, ptr noundef nonnull align 8 dereferenceable(16) %a) #6 comdat align 2 {
entry:
  %this.addr = alloca ptr, align 8
  %a.addr = alloca ptr, align 8
  store ptr %this, ptr %this.addr, align 8
  store ptr %a, ptr %a.addr, align 8
  %this1 = load ptr, ptr %this.addr, align 8
  %0 = load ptr, ptr %a.addr, align 8
  call void @_ZN11mpz_managerILb1EE10deallocateER3mpz(ptr noundef nonnull align 8 dereferenceable(600) %this1, ptr noundef nonnull align 8 dereferenceable(16) %0)
  %1 = load ptr, ptr %a.addr, align 8
  call void @_ZN11mpz_managerILb1EE3setER3mpzi(ptr noundef nonnull align 8 dereferenceable(600) %this1, ptr noundef nonnull align 8 dereferenceable(16) %1, i32 noundef 0)
  ret void
}

; Function Attrs: mustprogress uwtable
define weak_odr hidden void @_ZN11mpz_managerILb1EE3setER8mpz_cellR3mpzij(ptr noundef nonnull align 8 dereferenceable(600) %this, ptr noundef nonnull align 4 dereferenceable(8) %src, ptr noundef nonnull align 8 dereferenceable(16) %a, i32 noundef %sign, i32 noundef %sz) #6 comdat align 2 {
entry:
  %this.addr = alloca ptr, align 8
  %src.addr = alloca ptr, align 8
  %a.addr = alloca ptr, align 8
  %sign.addr = alloca i32, align 4
  %sz.addr = alloca i32, align 4
  %i = alloca i32, align 4
  %d = alloca i32, align 4
  store ptr %this, ptr %this.addr, align 8
  store ptr %src, ptr %src.addr, align 8
  store ptr %a, ptr %a.addr, align 8
  store i32 %sign, ptr %sign.addr, align 4
  store i32 %sz, ptr %sz.addr, align 4
  %this1 = load ptr, ptr %this.addr, align 8
  %0 = load i32, ptr %sz.addr, align 4
  store i32 %0, ptr %i, align 4
  br label %for.cond

for.cond:                                         ; preds = %for.inc, %entry
  %1 = load i32, ptr %i, align 4
  %cmp = icmp ugt i32 %1, 0
  br i1 %cmp, label %land.rhs, label %land.end

land.rhs:                                         ; preds = %for.cond
  %2 = load ptr, ptr %src.addr, align 8
  %m_digits = getelementptr inbounds %class.mpz_cell, ptr %2, i32 0, i32 2
  %3 = load i32, ptr %i, align 4
  %sub = sub i32 %3, 1
  %idxprom = zext i32 %sub to i64
  %arrayidx = getelementptr inbounds [0 x i32], ptr %m_digits, i64 0, i64 %idxprom
  %4 = load i32, ptr %arrayidx, align 4
  %cmp2 = icmp eq i32 %4, 0
  br label %land.end

land.end:                                         ; preds = %land.rhs, %for.cond
  %5 = phi i1 [ false, %for.cond ], [ %cmp2, %land.rhs ]
  br i1 %5, label %for.body, label %for.end

for.body:                                         ; preds = %land.end
  br label %for.inc

for.inc:                                          ; preds = %for.body
  %6 = load i32, ptr %i, align 4
  %dec = add i32 %6, -1
  store i32 %dec, ptr %i, align 4
  br label %for.cond, !llvm.loop !11

for.end:                                          ; preds = %land.end
  %7 = load i32, ptr %i, align 4
  %cmp3 = icmp eq i32 %7, 0
  br i1 %cmp3, label %if.then, label %if.end

if.then:                                          ; preds = %for.end
  %8 = load ptr, ptr %a.addr, align 8
  call void @_ZN11mpz_managerILb1EE3setER3mpzi(ptr noundef nonnull align 8 dereferenceable(600) %this1, ptr noundef nonnull align 8 dereferenceable(16) %8, i32 noundef 0)
  br label %return

if.end:                                           ; preds = %for.end
  %9 = load ptr, ptr %src.addr, align 8
  %m_digits4 = getelementptr inbounds %class.mpz_cell, ptr %9, i32 0, i32 2
  %arrayidx5 = getelementptr inbounds [0 x i32], ptr %m_digits4, i64 0, i64 0
  %10 = load i32, ptr %arrayidx5, align 4
  store i32 %10, ptr %d, align 4
  %11 = load i32, ptr %i, align 4
  %cmp6 = icmp eq i32 %11, 1
  br i1 %cmp6, label %land.lhs.true, label %if.end11

land.lhs.true:                                    ; preds = %if.end
  %12 = load i32, ptr %d, align 4
  %cmp7 = icmp ule i32 %12, 2147483647
  br i1 %cmp7, label %if.then8, label %if.end11

if.then8:                                         ; preds = %land.lhs.true
  %13 = load i32, ptr %sign.addr, align 4
  %cmp9 = icmp slt i32 %13, 0
  br i1 %cmp9, label %cond.true, label %cond.false

cond.true:                                        ; preds = %if.then8
  %14 = load i32, ptr %d, align 4
  %sub10 = sub nsw i32 0, %14
  br label %cond.end

cond.false:                                       ; preds = %if.then8
  %15 = load i32, ptr %d, align 4
  br label %cond.end

cond.end:                                         ; preds = %cond.false, %cond.true
  %cond = phi i32 [ %sub10, %cond.true ], [ %15, %cond.false ]
  %16 = load ptr, ptr %a.addr, align 8
  %m_val = getelementptr inbounds %class.mpz, ptr %16, i32 0, i32 0
  store i32 %cond, ptr %m_val, align 8
  %17 = load ptr, ptr %a.addr, align 8
  %m_kind = getelementptr inbounds %class.mpz, ptr %17, i32 0, i32 1
  %bf.load = load i8, ptr %m_kind, align 4
  %bf.clear = and i8 %bf.load, -2
  %bf.set = or i8 %bf.clear, 0
  store i8 %bf.set, ptr %m_kind, align 4
  br label %return

if.end11:                                         ; preds = %land.lhs.true, %if.end
  %18 = load ptr, ptr %a.addr, align 8
  %19 = load i32, ptr %i, align 4
  %20 = load ptr, ptr %src.addr, align 8
  %m_digits12 = getelementptr inbounds %class.mpz_cell, ptr %20, i32 0, i32 2
  %arraydecay = getelementptr inbounds [0 x i32], ptr %m_digits12, i64 0, i64 0
  call void @_ZN11mpz_managerILb1EE10set_digitsER3mpzjPKj(ptr noundef nonnull align 8 dereferenceable(600) %this1, ptr noundef nonnull align 8 dereferenceable(16) %18, i32 noundef %19, ptr noundef %arraydecay)
  %21 = load i32, ptr %sign.addr, align 4
  %22 = load ptr, ptr %a.addr, align 8
  %m_val13 = getelementptr inbounds %class.mpz, ptr %22, i32 0, i32 0
  store i32 %21, ptr %m_val13, align 8
  br label %return

return:                                           ; preds = %if.end11, %cond.end, %if.then
  ret void
}

; Function Attrs: mustprogress uwtable
define weak_odr hidden void @_ZN11mpz_managerILb1EE10set_digitsER3mpzjPKj(ptr noundef nonnull align 8 dereferenceable(600) %this, ptr noundef nonnull align 8 dereferenceable(16) %target, i32 noundef %sz, ptr noundef %digits) #6 comdat align 2 {
entry:
  %this.addr = alloca ptr, align 8
  %target.addr = alloca ptr, align 8
  %sz.addr = alloca i32, align 4
  %digits.addr = alloca ptr, align 8
  %c = alloca i32, align 4
  %ptr = alloca ptr, align 8
  store ptr %this, ptr %this.addr, align 8
  store ptr %target, ptr %target.addr, align 8
  store i32 %sz, ptr %sz.addr, align 4
  store ptr %digits, ptr %digits.addr, align 8
  %this1 = load ptr, ptr %this.addr, align 8
  br label %while.cond

while.cond:                                       ; preds = %while.body, %entry
  %0 = load i32, ptr %sz.addr, align 4
  %cmp = icmp ugt i32 %0, 0
  br i1 %cmp, label %land.rhs, label %land.end

land.rhs:                                         ; preds = %while.cond
  %1 = load ptr, ptr %digits.addr, align 8
  %2 = load i32, ptr %sz.addr, align 4
  %sub = sub i32 %2, 1
  %idxprom = zext i32 %sub to i64
  %arrayidx = getelementptr inbounds i32, ptr %1, i64 %idxprom
  %3 = load i32, ptr %arrayidx, align 4
  %cmp2 = icmp eq i32 %3, 0
  br label %land.end

land.end:                                         ; preds = %land.rhs, %while.cond
  %4 = phi i1 [ false, %while.cond ], [ %cmp2, %land.rhs ]
  br i1 %4, label %while.body, label %while.end

while.body:                                       ; preds = %land.end
  %5 = load i32, ptr %sz.addr, align 4
  %dec = add i32 %5, -1
  store i32 %dec, ptr %sz.addr, align 4
  br label %while.cond, !llvm.loop !12

while.end:                                        ; preds = %land.end
  %6 = load i32, ptr %sz.addr, align 4
  %cmp3 = icmp eq i32 %6, 0
  br i1 %cmp3, label %if.then, label %if.else

if.then:                                          ; preds = %while.end
  %7 = load ptr, ptr %target.addr, align 8
  call void @_ZN11mpz_managerILb1EE3setER3mpzi(ptr noundef nonnull align 8 dereferenceable(600) %this1, ptr noundef nonnull align 8 dereferenceable(16) %7, i32 noundef 0)
  br label %if.end60

if.else:                                          ; preds = %while.end
  %8 = load i32, ptr %sz.addr, align 4
  %cmp4 = icmp eq i32 %8, 1
  br i1 %cmp4, label %if.then5, label %if.else7

if.then5:                                         ; preds = %if.else
  %9 = load ptr, ptr %target.addr, align 8
  %10 = load ptr, ptr %digits.addr, align 8
  %arrayidx6 = getelementptr inbounds i32, ptr %10, i64 0
  %11 = load i32, ptr %arrayidx6, align 4
  call void @_ZN11mpz_managerILb1EE3setER3mpzj(ptr noundef nonnull align 8 dereferenceable(600) %this1, ptr noundef nonnull align 8 dereferenceable(16) %9, i32 noundef %11)
  br label %if.end59

if.else7:                                         ; preds = %if.else
  %12 = load ptr, ptr %target.addr, align 8
  %m_val = getelementptr inbounds %class.mpz, ptr %12, i32 0, i32 0
  store i32 1, ptr %m_val, align 8
  %13 = load ptr, ptr %target.addr, align 8
  %m_ptr = getelementptr inbounds %class.mpz, ptr %13, i32 0, i32 2
  %14 = load ptr, ptr %m_ptr, align 8
  %cmp8 = icmp eq ptr %14, null
  br i1 %cmp8, label %if.then9, label %if.else19

if.then9:                                         ; preds = %if.else7
  %15 = load i32, ptr %sz.addr, align 4
  %m_init_cell_capacity = getelementptr inbounds %class.mpz_manager, ptr %this1, i32 0, i32 3
  %16 = load i32, ptr %m_init_cell_capacity, align 4
  %cmp10 = icmp ult i32 %15, %16
  br i1 %cmp10, label %cond.true, label %cond.false

cond.true:                                        ; preds = %if.then9
  %m_init_cell_capacity11 = getelementptr inbounds %class.mpz_manager, ptr %this1, i32 0, i32 3
  %17 = load i32, ptr %m_init_cell_capacity11, align 4
  br label %cond.end

cond.false:                                       ; preds = %if.then9
  %18 = load i32, ptr %sz.addr, align 4
  br label %cond.end

cond.end:                                         ; preds = %cond.false, %cond.true
  %cond = phi i32 [ %17, %cond.true ], [ %18, %cond.false ]
  store i32 %cond, ptr %c, align 4
  %19 = load i32, ptr %c, align 4
  %call = call noundef ptr @_ZN11mpz_managerILb1EE8allocateEj(ptr noundef nonnull align 8 dereferenceable(600) %this1, i32 noundef %19)
  %20 = load ptr, ptr %target.addr, align 8
  %m_ptr12 = getelementptr inbounds %class.mpz, ptr %20, i32 0, i32 2
  store ptr %call, ptr %m_ptr12, align 8
  %21 = load i32, ptr %sz.addr, align 4
  %22 = load ptr, ptr %target.addr, align 8
  %m_ptr13 = getelementptr inbounds %class.mpz, ptr %22, i32 0, i32 2
  %23 = load ptr, ptr %m_ptr13, align 8
  %m_size = getelementptr inbounds %class.mpz_cell, ptr %23, i32 0, i32 0
  store i32 %21, ptr %m_size, align 4
  %24 = load i32, ptr %c, align 4
  %25 = load ptr, ptr %target.addr, align 8
  %m_ptr14 = getelementptr inbounds %class.mpz, ptr %25, i32 0, i32 2
  %26 = load ptr, ptr %m_ptr14, align 8
  %m_capacity = getelementptr inbounds %class.mpz_cell, ptr %26, i32 0, i32 1
  store i32 %24, ptr %m_capacity, align 4
  %27 = load ptr, ptr %target.addr, align 8
  %m_kind = getelementptr inbounds %class.mpz, ptr %27, i32 0, i32 1
  %bf.load = load i8, ptr %m_kind, align 4
  %bf.clear = and i8 %bf.load, -2
  %bf.set = or i8 %bf.clear, 1
  store i8 %bf.set, ptr %m_kind, align 4
  %28 = load ptr, ptr %target.addr, align 8
  %m_owner = getelementptr inbounds %class.mpz, ptr %28, i32 0, i32 1
  %bf.load15 = load i8, ptr %m_owner, align 4
  %bf.clear16 = and i8 %bf.load15, -3
  %bf.set17 = or i8 %bf.clear16, 0
  store i8 %bf.set17, ptr %m_owner, align 4
  %29 = load ptr, ptr %target.addr, align 8
  %m_ptr18 = getelementptr inbounds %class.mpz, ptr %29, i32 0, i32 2
  %30 = load ptr, ptr %m_ptr18, align 8
  %m_digits = getelementptr inbounds %class.mpz_cell, ptr %30, i32 0, i32 2
  %arraydecay = getelementptr inbounds [0 x i32], ptr %m_digits, i64 0, i64 0
  %31 = load ptr, ptr %digits.addr, align 8
  %32 = load i32, ptr %sz.addr, align 4
  %conv = zext i32 %32 to i64
  %mul = mul i64 4, %conv
  call void @llvm.memcpy.p0.p0.i64(ptr align 4 %arraydecay, ptr align 4 %31, i64 %mul, i1 false)
  br label %if.end58

if.else19:                                        ; preds = %if.else7
  %33 = load ptr, ptr %target.addr, align 8
  %call20 = call noundef i32 @_ZN11mpz_managerILb1EE8capacityERK3mpz(ptr noundef nonnull align 8 dereferenceable(16) %33)
  %34 = load i32, ptr %sz.addr, align 4
  %cmp21 = icmp ult i32 %call20, %34
  br i1 %cmp21, label %if.then22, label %if.else40

if.then22:                                        ; preds = %if.else19
  %35 = load i32, ptr %sz.addr, align 4
  %call23 = call noundef ptr @_ZN11mpz_managerILb1EE8allocateEj(ptr noundef nonnull align 8 dereferenceable(600) %this1, i32 noundef %35)
  store ptr %call23, ptr %ptr, align 8
  %36 = load ptr, ptr %ptr, align 8
  %m_digits24 = getelementptr inbounds %class.mpz_cell, ptr %36, i32 0, i32 2
  %arraydecay25 = getelementptr inbounds [0 x i32], ptr %m_digits24, i64 0, i64 0
  %37 = load ptr, ptr %digits.addr, align 8
  %38 = load i32, ptr %sz.addr, align 4
  %conv26 = zext i32 %38 to i64
  %mul27 = mul i64 4, %conv26
  call void @llvm.memcpy.p0.p0.i64(ptr align 4 %arraydecay25, ptr align 4 %37, i64 %mul27, i1 false)
  %39 = load i32, ptr %sz.addr, align 4
  %40 = load ptr, ptr %ptr, align 8
  %m_size28 = getelementptr inbounds %class.mpz_cell, ptr %40, i32 0, i32 0
  store i32 %39, ptr %m_size28, align 4
  %41 = load i32, ptr %sz.addr, align 4
  %42 = load ptr, ptr %ptr, align 8
  %m_capacity29 = getelementptr inbounds %class.mpz_cell, ptr %42, i32 0, i32 1
  store i32 %41, ptr %m_capacity29, align 4
  %43 = load ptr, ptr %target.addr, align 8
  call void @_ZN11mpz_managerILb1EE10deallocateER3mpz(ptr noundef nonnull align 8 dereferenceable(600) %this1, ptr noundef nonnull align 8 dereferenceable(16) %43)
  %44 = load ptr, ptr %target.addr, align 8
  %m_val30 = getelementptr inbounds %class.mpz, ptr %44, i32 0, i32 0
  store i32 1, ptr %m_val30, align 8
  %45 = load ptr, ptr %ptr, align 8
  %46 = load ptr, ptr %target.addr, align 8
  %m_ptr31 = getelementptr inbounds %class.mpz, ptr %46, i32 0, i32 2
  store ptr %45, ptr %m_ptr31, align 8
  %47 = load ptr, ptr %target.addr, align 8
  %m_kind32 = getelementptr inbounds %class.mpz, ptr %47, i32 0, i32 1
  %bf.load33 = load i8, ptr %m_kind32, align 4
  %bf.clear34 = and i8 %bf.load33, -2
  %bf.set35 = or i8 %bf.clear34, 1
  store i8 %bf.set35, ptr %m_kind32, align 4
  %48 = load ptr, ptr %target.addr, align 8
  %m_owner36 = getelementptr inbounds %class.mpz, ptr %48, i32 0, i32 1
  %bf.load37 = load i8, ptr %m_owner36, align 4
  %bf.clear38 = and i8 %bf.load37, -3
  %bf.set39 = or i8 %bf.clear38, 0
  store i8 %bf.set39, ptr %m_owner36, align 4
  br label %if.end57

if.else40:                                        ; preds = %if.else19
  %49 = load i32, ptr %sz.addr, align 4
  %50 = load ptr, ptr %target.addr, align 8
  %m_ptr41 = getelementptr inbounds %class.mpz, ptr %50, i32 0, i32 2
  %51 = load ptr, ptr %m_ptr41, align 8
  %m_size42 = getelementptr inbounds %class.mpz_cell, ptr %51, i32 0, i32 0
  store i32 %49, ptr %m_size42, align 4
  %52 = load ptr, ptr %target.addr, align 8
  %m_ptr43 = getelementptr inbounds %class.mpz, ptr %52, i32 0, i32 2
  %53 = load ptr, ptr %m_ptr43, align 8
  %m_digits44 = getelementptr inbounds %class.mpz_cell, ptr %53, i32 0, i32 2
  %arraydecay45 = getelementptr inbounds [0 x i32], ptr %m_digits44, i64 0, i64 0
  %54 = load ptr, ptr %digits.addr, align 8
  %cmp46 = icmp ne ptr %arraydecay45, %54
  br i1 %cmp46, label %if.then47, label %if.end

if.then47:                                        ; preds = %if.else40
  %55 = load ptr, ptr %target.addr, align 8
  %m_ptr48 = getelementptr inbounds %class.mpz, ptr %55, i32 0, i32 2
  %56 = load ptr, ptr %m_ptr48, align 8
  %m_digits49 = getelementptr inbounds %class.mpz_cell, ptr %56, i32 0, i32 2
  %arraydecay50 = getelementptr inbounds [0 x i32], ptr %m_digits49, i64 0, i64 0
  %57 = load ptr, ptr %digits.addr, align 8
  %58 = load i32, ptr %sz.addr, align 4
  %conv51 = zext i32 %58 to i64
  %mul52 = mul i64 4, %conv51
  call void @llvm.memcpy.p0.p0.i64(ptr align 4 %arraydecay50, ptr align 4 %57, i64 %mul52, i1 false)
  br label %if.end

if.end:                                           ; preds = %if.then47, %if.else40
  %59 = load ptr, ptr %target.addr, align 8
  %m_kind53 = getelementptr inbounds %class.mpz, ptr %59, i32 0, i32 1
  %bf.load54 = load i8, ptr %m_kind53, align 4
  %bf.clear55 = and i8 %bf.load54, -2
  %bf.set56 = or i8 %bf.clear55, 1
  store i8 %bf.set56, ptr %m_kind53, align 4
  br label %if.end57

if.end57:                                         ; preds = %if.end, %if.then22
  br label %if.end58

if.end58:                                         ; preds = %if.end57, %cond.end
  br label %if.end59

if.end59:                                         ; preds = %if.end58, %if.then5
  br label %if.end60

if.end60:                                         ; preds = %if.end59, %if.then
  ret void
}

; Function Attrs: mustprogress nounwind uwtable
define weak_odr hidden noundef i64 @_ZN11mpz_managerILb1EE3i64ERK3mpz(ptr noundef nonnull align 8 dereferenceable(16) %a) #4 comdat align 2 {
entry:
  %a.addr = alloca ptr, align 8
  store ptr %a, ptr %a.addr, align 8
  %0 = load ptr, ptr %a.addr, align 8
  %m_val = getelementptr inbounds %class.mpz, ptr %0, i32 0, i32 0
  %1 = load i32, ptr %m_val, align 8
  %conv = sext i32 %1 to i64
  ret i64 %conv
}

; Function Attrs: mustprogress uwtable
define weak_odr hidden void @_ZN11mpz_managerILb1EE11set_big_i64ER3mpzl(ptr noundef nonnull align 8 dereferenceable(600) %this, ptr noundef nonnull align 8 dereferenceable(16) %c, i64 noundef %v) #6 comdat align 2 {
entry:
  %this.addr = alloca ptr, align 8
  %c.addr = alloca ptr, align 8
  %v.addr = alloca i64, align 8
  %_v = alloca i64, align 8
  store ptr %this, ptr %this.addr, align 8
  store ptr %c, ptr %c.addr, align 8
  store i64 %v, ptr %v.addr, align 8
  %this1 = load ptr, ptr %this.addr, align 8
  %0 = load ptr, ptr %c.addr, align 8
  %m_ptr = getelementptr inbounds %class.mpz, ptr %0, i32 0, i32 2
  %1 = load ptr, ptr %m_ptr, align 8
  %cmp = icmp eq ptr %1, null
  br i1 %cmp, label %if.then, label %if.end

if.then:                                          ; preds = %entry
  %m_init_cell_capacity = getelementptr inbounds %class.mpz_manager, ptr %this1, i32 0, i32 3
  %2 = load i32, ptr %m_init_cell_capacity, align 4
  %call = call noundef ptr @_ZN11mpz_managerILb1EE8allocateEj(ptr noundef nonnull align 8 dereferenceable(600) %this1, i32 noundef %2)
  %3 = load ptr, ptr %c.addr, align 8
  %m_ptr2 = getelementptr inbounds %class.mpz, ptr %3, i32 0, i32 2
  store ptr %call, ptr %m_ptr2, align 8
  %4 = load ptr, ptr %c.addr, align 8
  %m_owner = getelementptr inbounds %class.mpz, ptr %4, i32 0, i32 1
  %bf.load = load i8, ptr %m_owner, align 4
  %bf.clear = and i8 %bf.load, -3
  %bf.set = or i8 %bf.clear, 0
  store i8 %bf.set, ptr %m_owner, align 4
  br label %if.end

if.end:                                           ; preds = %if.then, %entry
  %5 = load ptr, ptr %c.addr, align 8
  %m_kind = getelementptr inbounds %class.mpz, ptr %5, i32 0, i32 1
  %bf.load3 = load i8, ptr %m_kind, align 4
  %bf.clear4 = and i8 %bf.load3, -2
  %bf.set5 = or i8 %bf.clear4, 1
  store i8 %bf.set5, ptr %m_kind, align 4
  %6 = load i64, ptr %v.addr, align 8
  %call6 = call noundef i64 @_ZNSt14numeric_limitsIlE3minEv() #3
  %cmp7 = icmp eq i64 %6, %call6
  br i1 %cmp7, label %if.then8, label %if.else

if.then8:                                         ; preds = %if.end
  %7 = load i64, ptr %v.addr, align 8
  %div = sdiv i64 %7, 2
  %sub = sub nsw i64 0, %div
  store i64 %sub, ptr %_v, align 8
  %8 = load ptr, ptr %c.addr, align 8
  %m_val = getelementptr inbounds %class.mpz, ptr %8, i32 0, i32 0
  store i32 -1, ptr %m_val, align 8
  br label %if.end16

if.else:                                          ; preds = %if.end
  %9 = load i64, ptr %v.addr, align 8
  %cmp9 = icmp slt i64 %9, 0
  br i1 %cmp9, label %if.then10, label %if.else13

if.then10:                                        ; preds = %if.else
  %10 = load i64, ptr %v.addr, align 8
  %sub11 = sub nsw i64 0, %10
  store i64 %sub11, ptr %_v, align 8
  %11 = load ptr, ptr %c.addr, align 8
  %m_val12 = getelementptr inbounds %class.mpz, ptr %11, i32 0, i32 0
  store i32 -1, ptr %m_val12, align 8
  br label %if.end15

if.else13:                                        ; preds = %if.else
  %12 = load i64, ptr %v.addr, align 8
  store i64 %12, ptr %_v, align 8
  %13 = load ptr, ptr %c.addr, align 8
  %m_val14 = getelementptr inbounds %class.mpz, ptr %13, i32 0, i32 0
  store i32 1, ptr %m_val14, align 8
  br label %if.end15

if.end15:                                         ; preds = %if.else13, %if.then10
  br label %if.end16

if.end16:                                         ; preds = %if.end15, %if.then8
  %14 = load i64, ptr %_v, align 8
  %conv = trunc i64 %14 to i32
  %15 = load ptr, ptr %c.addr, align 8
  %call17 = call noundef ptr @_ZN11mpz_managerILb1EE6digitsERK3mpz(ptr noundef nonnull align 8 dereferenceable(16) %15)
  %arrayidx = getelementptr inbounds i32, ptr %call17, i64 0
  store i32 %conv, ptr %arrayidx, align 4
  %16 = load i64, ptr %_v, align 8
  %shr = lshr i64 %16, 32
  %conv18 = trunc i64 %shr to i32
  %17 = load ptr, ptr %c.addr, align 8
  %call19 = call noundef ptr @_ZN11mpz_managerILb1EE6digitsERK3mpz(ptr noundef nonnull align 8 dereferenceable(16) %17)
  %arrayidx20 = getelementptr inbounds i32, ptr %call19, i64 1
  store i32 %conv18, ptr %arrayidx20, align 4
  %18 = load ptr, ptr %c.addr, align 8
  %call21 = call noundef ptr @_ZN11mpz_managerILb1EE6digitsERK3mpz(ptr noundef nonnull align 8 dereferenceable(16) %18)
  %arrayidx22 = getelementptr inbounds i32, ptr %call21, i64 1
  %19 = load i32, ptr %arrayidx22, align 4
  %cmp23 = icmp eq i32 %19, 0
  %cond = select i1 %cmp23, i32 1, i32 2
  %20 = load ptr, ptr %c.addr, align 8
  %m_ptr24 = getelementptr inbounds %class.mpz, ptr %20, i32 0, i32 2
  %21 = load ptr, ptr %m_ptr24, align 8
  %m_size = getelementptr inbounds %class.mpz_cell, ptr %21, i32 0, i32 0
  store i32 %cond, ptr %m_size, align 4
  %22 = load i64, ptr %v.addr, align 8
  %call25 = call noundef i64 @_ZNSt14numeric_limitsIlE3minEv() #3
  %cmp26 = icmp eq i64 %22, %call25
  br i1 %cmp26, label %if.then27, label %if.end28

if.then27:                                        ; preds = %if.end16
  %23 = load ptr, ptr %c.addr, align 8
  %24 = load ptr, ptr %c.addr, align 8
  %25 = load ptr, ptr %c.addr, align 8
  call void @_ZN11mpz_managerILb1EE7big_addERK3mpzS3_RS1_(ptr noundef nonnull align 8 dereferenceable(600) %this1, ptr noundef nonnull align 8 dereferenceable(16) %23, ptr noundef nonnull align 8 dereferenceable(16) %24, ptr noundef nonnull align 8 dereferenceable(16) %25)
  br label %if.end28

if.end28:                                         ; preds = %if.then27, %if.end16
  ret void
}

; Function Attrs: mustprogress nounwind uwtable
define linkonce_odr hidden noundef i64 @_ZNSt14numeric_limitsIlE3minEv() #4 comdat align 2 {
entry:
  ret i64 -9223372036854775808
}

; Function Attrs: mustprogress nounwind uwtable
define weak_odr hidden noundef ptr @_ZN11mpz_managerILb1EE6digitsERK3mpz(ptr noundef nonnull align 8 dereferenceable(16) %c) #4 comdat align 2 {
entry:
  %c.addr = alloca ptr, align 8
  store ptr %c, ptr %c.addr, align 8
  %0 = load ptr, ptr %c.addr, align 8
  %m_ptr = getelementptr inbounds %class.mpz, ptr %0, i32 0, i32 2
  %1 = load ptr, ptr %m_ptr, align 8
  %m_digits = getelementptr inbounds %class.mpz_cell, ptr %1, i32 0, i32 2
  %arraydecay = getelementptr inbounds [0 x i32], ptr %m_digits, i64 0, i64 0
  ret ptr %arraydecay
}

; Function Attrs: mustprogress uwtable
define weak_odr hidden void @_ZN11mpz_managerILb1EE7big_addERK3mpzS3_RS1_(ptr noundef nonnull align 8 dereferenceable(600) %this, ptr noundef nonnull align 8 dereferenceable(16) %a, ptr noundef nonnull align 8 dereferenceable(16) %b, ptr noundef nonnull align 8 dereferenceable(16) %c) #6 comdat align 2 {
entry:
  %this.addr = alloca ptr, align 8
  %a.addr = alloca ptr, align 8
  %b.addr = alloca ptr, align 8
  %c.addr = alloca ptr, align 8
  store ptr %this, ptr %this.addr, align 8
  store ptr %a, ptr %a.addr, align 8
  store ptr %b, ptr %b.addr, align 8
  store ptr %c, ptr %c.addr, align 8
  %this1 = load ptr, ptr %this.addr, align 8
  %0 = load ptr, ptr %a.addr, align 8
  %1 = load ptr, ptr %b.addr, align 8
  %2 = load ptr, ptr %c.addr, align 8
  call void @_ZN11mpz_managerILb1EE11big_add_subILb0EEEvRK3mpzS4_RS2_(ptr noundef nonnull align 8 dereferenceable(600) %this1, ptr noundef nonnull align 8 dereferenceable(16) %0, ptr noundef nonnull align 8 dereferenceable(16) %1, ptr noundef nonnull align 8 dereferenceable(16) %2)
  ret void
}

; Function Attrs: mustprogress uwtable
define weak_odr hidden void @_ZN11mpz_managerILb1EE7set_i64ER3mpzl(ptr noundef nonnull align 8 dereferenceable(600) %this, ptr noundef nonnull align 8 dereferenceable(16) %c, i64 noundef %v) #6 comdat align 2 {
entry:
  %this.addr = alloca ptr, align 8
  %c.addr = alloca ptr, align 8
  %v.addr = alloca i64, align 8
  store ptr %this, ptr %this.addr, align 8
  store ptr %c, ptr %c.addr, align 8
  store i64 %v, ptr %v.addr, align 8
  %this1 = load ptr, ptr %this.addr, align 8
  %0 = load i64, ptr %v.addr, align 8
  %cmp = icmp sge i64 %0, -2147483648
  br i1 %cmp, label %land.lhs.true, label %if.else

land.lhs.true:                                    ; preds = %entry
  %1 = load i64, ptr %v.addr, align 8
  %cmp2 = icmp sle i64 %1, 2147483647
  br i1 %cmp2, label %if.then, label %if.else

if.then:                                          ; preds = %land.lhs.true
  %2 = load i64, ptr %v.addr, align 8
  %conv = trunc i64 %2 to i32
  %3 = load ptr, ptr %c.addr, align 8
  %m_val = getelementptr inbounds %class.mpz, ptr %3, i32 0, i32 0
  store i32 %conv, ptr %m_val, align 8
  %4 = load ptr, ptr %c.addr, align 8
  %m_kind = getelementptr inbounds %class.mpz, ptr %4, i32 0, i32 1
  %bf.load = load i8, ptr %m_kind, align 4
  %bf.clear = and i8 %bf.load, -2
  %bf.set = or i8 %bf.clear, 0
  store i8 %bf.set, ptr %m_kind, align 4
  br label %if.end

if.else:                                          ; preds = %land.lhs.true, %entry
  %5 = load ptr, ptr %c.addr, align 8
  %6 = load i64, ptr %v.addr, align 8
  call void @_ZN11mpz_managerILb1EE11set_big_i64ER3mpzl(ptr noundef nonnull align 8 dereferenceable(600) %this1, ptr noundef nonnull align 8 dereferenceable(16) %5, i64 noundef %6)
  br label %if.end

if.end:                                           ; preds = %if.else, %if.then
  ret void
}

; Function Attrs: mustprogress uwtable
define weak_odr hidden void @_ZN11mpz_managerILb1EE12set_big_ui64ER3mpzm(ptr noundef nonnull align 8 dereferenceable(600) %this, ptr noundef nonnull align 8 dereferenceable(16) %c, i64 noundef %v) #6 comdat align 2 {
entry:
  %this.addr = alloca ptr, align 8
  %c.addr = alloca ptr, align 8
  %v.addr = alloca i64, align 8
  store ptr %this, ptr %this.addr, align 8
  store ptr %c, ptr %c.addr, align 8
  store i64 %v, ptr %v.addr, align 8
  %this1 = load ptr, ptr %this.addr, align 8
  %0 = load ptr, ptr %c.addr, align 8
  %m_ptr = getelementptr inbounds %class.mpz, ptr %0, i32 0, i32 2
  %1 = load ptr, ptr %m_ptr, align 8
  %cmp = icmp eq ptr %1, null
  br i1 %cmp, label %if.then, label %if.end

if.then:                                          ; preds = %entry
  %m_init_cell_capacity = getelementptr inbounds %class.mpz_manager, ptr %this1, i32 0, i32 3
  %2 = load i32, ptr %m_init_cell_capacity, align 4
  %call = call noundef ptr @_ZN11mpz_managerILb1EE8allocateEj(ptr noundef nonnull align 8 dereferenceable(600) %this1, i32 noundef %2)
  %3 = load ptr, ptr %c.addr, align 8
  %m_ptr2 = getelementptr inbounds %class.mpz, ptr %3, i32 0, i32 2
  store ptr %call, ptr %m_ptr2, align 8
  %4 = load ptr, ptr %c.addr, align 8
  %m_owner = getelementptr inbounds %class.mpz, ptr %4, i32 0, i32 1
  %bf.load = load i8, ptr %m_owner, align 4
  %bf.clear = and i8 %bf.load, -3
  %bf.set = or i8 %bf.clear, 0
  store i8 %bf.set, ptr %m_owner, align 4
  br label %if.end

if.end:                                           ; preds = %if.then, %entry
  %5 = load ptr, ptr %c.addr, align 8
  %m_kind = getelementptr inbounds %class.mpz, ptr %5, i32 0, i32 1
  %bf.load3 = load i8, ptr %m_kind, align 4
  %bf.clear4 = and i8 %bf.load3, -2
  %bf.set5 = or i8 %bf.clear4, 1
  store i8 %bf.set5, ptr %m_kind, align 4
  %6 = load ptr, ptr %c.addr, align 8
  %m_val = getelementptr inbounds %class.mpz, ptr %6, i32 0, i32 0
  store i32 1, ptr %m_val, align 8
  %7 = load i64, ptr %v.addr, align 8
  %conv = trunc i64 %7 to i32
  %8 = load ptr, ptr %c.addr, align 8
  %call6 = call noundef ptr @_ZN11mpz_managerILb1EE6digitsERK3mpz(ptr noundef nonnull align 8 dereferenceable(16) %8)
  %arrayidx = getelementptr inbounds i32, ptr %call6, i64 0
  store i32 %conv, ptr %arrayidx, align 4
  %9 = load i64, ptr %v.addr, align 8
  %shr = lshr i64 %9, 32
  %conv7 = trunc i64 %shr to i32
  %10 = load ptr, ptr %c.addr, align 8
  %call8 = call noundef ptr @_ZN11mpz_managerILb1EE6digitsERK3mpz(ptr noundef nonnull align 8 dereferenceable(16) %10)
  %arrayidx9 = getelementptr inbounds i32, ptr %call8, i64 1
  store i32 %conv7, ptr %arrayidx9, align 4
  %11 = load ptr, ptr %c.addr, align 8
  %call10 = call noundef ptr @_ZN11mpz_managerILb1EE6digitsERK3mpz(ptr noundef nonnull align 8 dereferenceable(16) %11)
  %arrayidx11 = getelementptr inbounds i32, ptr %call10, i64 1
  %12 = load i32, ptr %arrayidx11, align 4
  %cmp12 = icmp eq i32 %12, 0
  %cond = select i1 %cmp12, i32 1, i32 2
  %13 = load ptr, ptr %c.addr, align 8
  %m_ptr13 = getelementptr inbounds %class.mpz, ptr %13, i32 0, i32 2
  %14 = load ptr, ptr %m_ptr13, align 8
  %m_size = getelementptr inbounds %class.mpz_cell, ptr %14, i32 0, i32 0
  store i32 %cond, ptr %m_size, align 4
  ret void
}

; Function Attrs: mustprogress nounwind uwtable
define weak_odr hidden noundef i32 @_ZN11mpz_managerILb1EE4sizeERK3mpz(ptr noundef nonnull align 8 dereferenceable(16) %c) #4 comdat align 2 {
entry:
  %c.addr = alloca ptr, align 8
  store ptr %c, ptr %c.addr, align 8
  %0 = load ptr, ptr %c.addr, align 8
  %m_ptr = getelementptr inbounds %class.mpz, ptr %0, i32 0, i32 2
  %1 = load ptr, ptr %m_ptr, align 8
  %m_size = getelementptr inbounds %class.mpz_cell, ptr %1, i32 0, i32 0
  %2 = load i32, ptr %m_size, align 4
  ret i32 %2
}

; Function Attrs: mustprogress uwtable
define weak_odr hidden noundef zeroext i1 @_ZN11mpz_managerILb1EE13is_abs_uint64ERK3mpz(ptr noundef nonnull align 8 dereferenceable(16) %a) #6 comdat align 2 {
entry:
  %retval = alloca i1, align 1
  %a.addr = alloca ptr, align 8
  store ptr %a, ptr %a.addr, align 8
  %0 = load ptr, ptr %a.addr, align 8
  %call = call noundef zeroext i1 @_ZN11mpz_managerILb1EE8is_smallERK3mpz(ptr noundef nonnull align 8 dereferenceable(16) %0)
  br i1 %call, label %if.then, label %if.end

if.then:                                          ; preds = %entry
  store i1 true, ptr %retval, align 1
  br label %return

if.end:                                           ; preds = %entry
  %1 = load ptr, ptr %a.addr, align 8
  %call1 = call noundef i32 @_ZN11mpz_managerILb1EE4sizeERK3mpz(ptr noundef nonnull align 8 dereferenceable(16) %1)
  %cmp = icmp ule i32 %call1, 2
  store i1 %cmp, ptr %retval, align 1
  br label %return

return:                                           ; preds = %if.end, %if.then
  %2 = load i1, ptr %retval, align 1
  ret i1 %2
}

; Function Attrs: mustprogress nounwind uwtable
define weak_odr hidden noundef i64 @_ZN11mpz_managerILb1EE17big_abs_to_uint64ERK3mpz(ptr noundef nonnull align 8 dereferenceable(16) %a) #4 comdat align 2 {
entry:
  %retval = alloca i64, align 8
  %a.addr = alloca ptr, align 8
  store ptr %a, ptr %a.addr, align 8
  %0 = load ptr, ptr %a.addr, align 8
  %m_ptr = getelementptr inbounds %class.mpz, ptr %0, i32 0, i32 2
  %1 = load ptr, ptr %m_ptr, align 8
  %m_size = getelementptr inbounds %class.mpz_cell, ptr %1, i32 0, i32 0
  %2 = load i32, ptr %m_size, align 4
  %cmp = icmp eq i32 %2, 1
  br i1 %cmp, label %if.then, label %if.end

if.then:                                          ; preds = %entry
  %3 = load ptr, ptr %a.addr, align 8
  %call = call noundef ptr @_ZN11mpz_managerILb1EE6digitsERK3mpz(ptr noundef nonnull align 8 dereferenceable(16) %3)
  %arrayidx = getelementptr inbounds i32, ptr %call, i64 0
  %4 = load i32, ptr %arrayidx, align 4
  %conv = zext i32 %4 to i64
  store i64 %conv, ptr %retval, align 8
  br label %return

if.end:                                           ; preds = %entry
  %5 = load ptr, ptr %a.addr, align 8
  %call1 = call noundef ptr @_ZN11mpz_managerILb1EE6digitsERK3mpz(ptr noundef nonnull align 8 dereferenceable(16) %5)
  %arrayidx2 = getelementptr inbounds i32, ptr %call1, i64 1
  %6 = load i32, ptr %arrayidx2, align 4
  %conv3 = zext i32 %6 to i64
  %shl = shl i64 %conv3, 32
  %7 = load ptr, ptr %a.addr, align 8
  %call4 = call noundef ptr @_ZN11mpz_managerILb1EE6digitsERK3mpz(ptr noundef nonnull align 8 dereferenceable(16) %7)
  %arrayidx5 = getelementptr inbounds i32, ptr %call4, i64 0
  %8 = load i32, ptr %arrayidx5, align 4
  %conv6 = zext i32 %8 to i64
  %or = or i64 %shl, %conv6
  store i64 %or, ptr %retval, align 8
  br label %return

return:                                           ; preds = %if.end, %if.then
  %9 = load i64, ptr %retval, align 8
  ret i64 %9
}

; Function Attrs: mustprogress uwtable
define weak_odr hidden void @_ZN11mpz_managerILb1EE9sign_cellC2ERS0_RK3mpz(ptr noundef nonnull align 8 dereferenceable(56) %this, ptr noundef nonnull align 8 dereferenceable(600) %m, ptr noundef nonnull align 8 dereferenceable(16) %a) unnamed_addr #6 comdat($_ZN11mpz_managerILb1EE9sign_cellC5ERS0_RK3mpz) align 2 {
entry:
  %this.addr = alloca ptr, align 8
  %m.addr = alloca ptr, align 8
  %a.addr = alloca ptr, align 8
  store ptr %this, ptr %this.addr, align 8
  store ptr %m, ptr %m.addr, align 8
  store ptr %a, ptr %a.addr, align 8
  %this1 = load ptr, ptr %this.addr, align 8
  %m_local = getelementptr inbounds %"class.mpz_manager<true>::sign_cell", ptr %this1, i32 0, i32 1
  %m_bytes = getelementptr inbounds %"class.mpz_manager<true>::sign_cell", ptr %this1, i32 0, i32 0
  %arraydecay = getelementptr inbounds [16 x i8], ptr %m_bytes, i64 0, i64 0
  call void @_ZN3mpzC2EP8mpz_cell(ptr noundef nonnull align 8 dereferenceable(16) %m_local, ptr noundef %arraydecay)
  %m_a = getelementptr inbounds %"class.mpz_manager<true>::sign_cell", ptr %this1, i32 0, i32 2
  %0 = load ptr, ptr %a.addr, align 8
  store ptr %0, ptr %m_a, align 8
  %m_local2 = getelementptr inbounds %"class.mpz_manager<true>::sign_cell", ptr %this1, i32 0, i32 1
  %m_ptr = getelementptr inbounds %class.mpz, ptr %m_local2, i32 0, i32 2
  %1 = load ptr, ptr %m_ptr, align 8
  %m_capacity = getelementptr inbounds %class.mpz_cell, ptr %1, i32 0, i32 1
  store i32 2, ptr %m_capacity, align 4
  %2 = load ptr, ptr %m.addr, align 8
  %3 = load ptr, ptr %a.addr, align 8
  %m_sign = getelementptr inbounds %"class.mpz_manager<true>::sign_cell", ptr %this1, i32 0, i32 3
  %m_cell = getelementptr inbounds %"class.mpz_manager<true>::sign_cell", ptr %this1, i32 0, i32 4
  %m_local3 = getelementptr inbounds %"class.mpz_manager<true>::sign_cell", ptr %this1, i32 0, i32 1
  %m_ptr4 = getelementptr inbounds %class.mpz, ptr %m_local3, i32 0, i32 2
  %4 = load ptr, ptr %m_ptr4, align 8
  call void @_ZN11mpz_managerILb1EE13get_sign_cellERK3mpzRiRP8mpz_cellS6_(ptr noundef nonnull align 8 dereferenceable(600) %2, ptr noundef nonnull align 8 dereferenceable(16) %3, ptr noundef nonnull align 4 dereferenceable(4) %m_sign, ptr noundef nonnull align 8 dereferenceable(8) %m_cell, ptr noundef %4)
  ret void
}

; Function Attrs: mustprogress nounwind uwtable
define linkonce_odr hidden void @_ZN3mpzC2EP8mpz_cell(ptr noundef nonnull align 8 dereferenceable(16) %this, ptr noundef %ptr) unnamed_addr #4 comdat align 2 {
entry:
  %this.addr = alloca ptr, align 8
  %ptr.addr = alloca ptr, align 8
  store ptr %this, ptr %this.addr, align 8
  store ptr %ptr, ptr %ptr.addr, align 8
  %this1 = load ptr, ptr %this.addr, align 8
  %m_val = getelementptr inbounds %class.mpz, ptr %this1, i32 0, i32 0
  store i32 0, ptr %m_val, align 8
  %m_kind = getelementptr inbounds %class.mpz, ptr %this1, i32 0, i32 1
  %bf.load = load i8, ptr %m_kind, align 4
  %bf.clear = and i8 %bf.load, -2
  %bf.set = or i8 %bf.clear, 0
  store i8 %bf.set, ptr %m_kind, align 4
  %m_owner = getelementptr inbounds %class.mpz, ptr %this1, i32 0, i32 1
  %bf.load2 = load i8, ptr %m_owner, align 4
  %bf.clear3 = and i8 %bf.load2, -3
  %bf.set4 = or i8 %bf.clear3, 2
  store i8 %bf.set4, ptr %m_owner, align 4
  %m_ptr = getelementptr inbounds %class.mpz, ptr %this1, i32 0, i32 2
  %0 = load ptr, ptr %ptr.addr, align 8
  store ptr %0, ptr %m_ptr, align 8
  ret void
}

; Function Attrs: mustprogress uwtable
define weak_odr hidden void @_ZN11mpz_managerILb1EE13get_sign_cellERK3mpzRiRP8mpz_cellS6_(ptr noundef nonnull align 8 dereferenceable(600) %this, ptr noundef nonnull align 8 dereferenceable(16) %a, ptr noundef nonnull align 4 dereferenceable(4) %sign, ptr noundef nonnull align 8 dereferenceable(8) %cell, ptr noundef %reserve) #6 comdat align 2 {
entry:
  %this.addr = alloca ptr, align 8
  %a.addr = alloca ptr, align 8
  %sign.addr = alloca ptr, align 8
  %cell.addr = alloca ptr, align 8
  %reserve.addr = alloca ptr, align 8
  store ptr %this, ptr %this.addr, align 8
  store ptr %a, ptr %a.addr, align 8
  store ptr %sign, ptr %sign.addr, align 8
  store ptr %cell, ptr %cell.addr, align 8
  store ptr %reserve, ptr %reserve.addr, align 8
  %this1 = load ptr, ptr %this.addr, align 8
  %0 = load ptr, ptr %a.addr, align 8
  %call = call noundef zeroext i1 @_ZN11mpz_managerILb1EE8is_smallERK3mpz(ptr noundef nonnull align 8 dereferenceable(16) %0)
  br i1 %call, label %if.then, label %if.else12

if.then:                                          ; preds = %entry
  %1 = load ptr, ptr %a.addr, align 8
  %m_val = getelementptr inbounds %class.mpz, ptr %1, i32 0, i32 0
  %2 = load i32, ptr %m_val, align 8
  %cmp = icmp eq i32 %2, -2147483648
  br i1 %cmp, label %if.then2, label %if.else

if.then2:                                         ; preds = %if.then
  %3 = load ptr, ptr %sign.addr, align 8
  store i32 -1, ptr %3, align 4
  %m_int_min = getelementptr inbounds %class.mpz_manager, ptr %this1, i32 0, i32 4
  %m_ptr = getelementptr inbounds %class.mpz, ptr %m_int_min, i32 0, i32 2
  %4 = load ptr, ptr %m_ptr, align 8
  %5 = load ptr, ptr %cell.addr, align 8
  store ptr %4, ptr %5, align 8
  br label %if.end11

if.else:                                          ; preds = %if.then
  %6 = load ptr, ptr %reserve.addr, align 8
  %7 = load ptr, ptr %cell.addr, align 8
  store ptr %6, ptr %7, align 8
  %8 = load ptr, ptr %cell.addr, align 8
  %9 = load ptr, ptr %8, align 8
  %m_size = getelementptr inbounds %class.mpz_cell, ptr %9, i32 0, i32 0
  store i32 1, ptr %m_size, align 4
  %10 = load ptr, ptr %a.addr, align 8
  %m_val3 = getelementptr inbounds %class.mpz, ptr %10, i32 0, i32 0
  %11 = load i32, ptr %m_val3, align 8
  %cmp4 = icmp slt i32 %11, 0
  br i1 %cmp4, label %if.then5, label %if.else7

if.then5:                                         ; preds = %if.else
  %12 = load ptr, ptr %sign.addr, align 8
  store i32 -1, ptr %12, align 4
  %13 = load ptr, ptr %a.addr, align 8
  %m_val6 = getelementptr inbounds %class.mpz, ptr %13, i32 0, i32 0
  %14 = load i32, ptr %m_val6, align 8
  %sub = sub nsw i32 0, %14
  %15 = load ptr, ptr %cell.addr, align 8
  %16 = load ptr, ptr %15, align 8
  %m_digits = getelementptr inbounds %class.mpz_cell, ptr %16, i32 0, i32 2
  %arrayidx = getelementptr inbounds [0 x i32], ptr %m_digits, i64 0, i64 0
  store i32 %sub, ptr %arrayidx, align 4
  br label %if.end

if.else7:                                         ; preds = %if.else
  %17 = load ptr, ptr %sign.addr, align 8
  store i32 1, ptr %17, align 4
  %18 = load ptr, ptr %a.addr, align 8
  %m_val8 = getelementptr inbounds %class.mpz, ptr %18, i32 0, i32 0
  %19 = load i32, ptr %m_val8, align 8
  %20 = load ptr, ptr %cell.addr, align 8
  %21 = load ptr, ptr %20, align 8
  %m_digits9 = getelementptr inbounds %class.mpz_cell, ptr %21, i32 0, i32 2
  %arrayidx10 = getelementptr inbounds [0 x i32], ptr %m_digits9, i64 0, i64 0
  store i32 %19, ptr %arrayidx10, align 4
  br label %if.end

if.end:                                           ; preds = %if.else7, %if.then5
  br label %if.end11

if.end11:                                         ; preds = %if.end, %if.then2
  br label %if.end15

if.else12:                                        ; preds = %entry
  %22 = load ptr, ptr %a.addr, align 8
  %m_val13 = getelementptr inbounds %class.mpz, ptr %22, i32 0, i32 0
  %23 = load i32, ptr %m_val13, align 8
  %24 = load ptr, ptr %sign.addr, align 8
  store i32 %23, ptr %24, align 4
  %25 = load ptr, ptr %a.addr, align 8
  %m_ptr14 = getelementptr inbounds %class.mpz, ptr %25, i32 0, i32 2
  %26 = load ptr, ptr %m_ptr14, align 8
  %27 = load ptr, ptr %cell.addr, align 8
  store ptr %26, ptr %27, align 8
  br label %if.end15

if.end15:                                         ; preds = %if.else12, %if.end11
  ret void
}

; Function Attrs: mustprogress nounwind uwtable
define weak_odr hidden noundef i32 @_ZN11mpz_managerILb1EE9sign_cell4signEv(ptr noundef nonnull align 8 dereferenceable(56) %this) #4 comdat align 2 {
entry:
  %this.addr = alloca ptr, align 8
  store ptr %this, ptr %this.addr, align 8
  %this1 = load ptr, ptr %this.addr, align 8
  %m_sign = getelementptr inbounds %"class.mpz_manager<true>::sign_cell", ptr %this1, i32 0, i32 3
  %0 = load i32, ptr %m_sign, align 8
  ret i32 %0
}

; Function Attrs: mustprogress nounwind uwtable
define weak_odr hidden noundef ptr @_ZN11mpz_managerILb1EE9sign_cell4cellEv(ptr noundef nonnull align 8 dereferenceable(56) %this) #4 comdat align 2 {
entry:
  %this.addr = alloca ptr, align 8
  store ptr %this, ptr %this.addr, align 8
  %this1 = load ptr, ptr %this.addr, align 8
  %m_cell = getelementptr inbounds %"class.mpz_manager<true>::sign_cell", ptr %this1, i32 0, i32 4
  %0 = load ptr, ptr %m_cell, align 8
  ret ptr %0
}

; Function Attrs: mustprogress uwtable
define linkonce_odr hidden void @_ZN11mpz_managerILb1EE11big_add_subILb0EEEvRK3mpzS4_RS2_(ptr noundef nonnull align 8 dereferenceable(600) %this, ptr noundef nonnull align 8 dereferenceable(16) %a, ptr noundef nonnull align 8 dereferenceable(16) %b, ptr noundef nonnull align 8 dereferenceable(16) %c) #6 comdat align 2 {
entry:
  %this.addr = alloca ptr, align 8
  %a.addr = alloca ptr, align 8
  %b.addr = alloca ptr, align 8
  %c.addr = alloca ptr, align 8
  %ca = alloca %"class.mpz_manager<true>::sign_cell", align 8
  %cb = alloca %"class.mpz_manager<true>::sign_cell", align 8
  %sign_b = alloca i32, align 4
  %tmp = alloca %class.mpz_stack, align 8
  %real_sz = alloca i32, align 4
  %sz = alloca i32, align 4
  %borrow = alloca i32, align 4
  %r = alloca i32, align 4
  %sz37 = alloca i32, align 4
  %sz57 = alloca i32, align 4
  store ptr %this, ptr %this.addr, align 8
  store ptr %a, ptr %a.addr, align 8
  store ptr %b, ptr %b.addr, align 8
  store ptr %c, ptr %c.addr, align 8
  %this1 = load ptr, ptr %this.addr, align 8
  %0 = load ptr, ptr %a.addr, align 8
  call void @_ZN11mpz_managerILb1EE9sign_cellC1ERS0_RK3mpz(ptr noundef nonnull align 8 dereferenceable(56) %ca, ptr noundef nonnull align 8 dereferenceable(600) %this1, ptr noundef nonnull align 8 dereferenceable(16) %0)
  %1 = load ptr, ptr %b.addr, align 8
  call void @_ZN11mpz_managerILb1EE9sign_cellC1ERS0_RK3mpz(ptr noundef nonnull align 8 dereferenceable(56) %cb, ptr noundef nonnull align 8 dereferenceable(600) %this1, ptr noundef nonnull align 8 dereferenceable(16) %1)
  %call = call noundef i32 @_ZN11mpz_managerILb1EE9sign_cell4signEv(ptr noundef nonnull align 8 dereferenceable(56) %cb)
  store i32 %call, ptr %sign_b, align 4
  call void @_ZN9mpz_stackC2Ev(ptr noundef nonnull align 8 dereferenceable(56) %tmp)
  %call2 = call noundef i32 @_ZN11mpz_managerILb1EE9sign_cell4signEv(ptr noundef nonnull align 8 dereferenceable(56) %ca)
  %2 = load i32, ptr %sign_b, align 4
  %cmp = icmp eq i32 %call2, %2
  br i1 %cmp, label %if.then, label %if.else

if.then:                                          ; preds = %entry
  %call3 = call noundef ptr @_ZN11mpz_managerILb1EE9sign_cell4cellEv(ptr noundef nonnull align 8 dereferenceable(56) %ca)
  %m_size = getelementptr inbounds %class.mpz_cell, ptr %call3, i32 0, i32 0
  %call4 = call noundef ptr @_ZN11mpz_managerILb1EE9sign_cell4cellEv(ptr noundef nonnull align 8 dereferenceable(56) %cb)
  %m_size5 = getelementptr inbounds %class.mpz_cell, ptr %call4, i32 0, i32 0
  %call6 = call noundef nonnull align 4 dereferenceable(4) ptr @_ZSt3maxIjERKT_S2_S2_(ptr noundef nonnull align 4 dereferenceable(4) %m_size, ptr noundef nonnull align 4 dereferenceable(4) %m_size5)
  %3 = load i32, ptr %call6, align 4
  %add = add i32 %3, 1
  store i32 %add, ptr %sz, align 4
  %4 = load i32, ptr %sz, align 4
  call void @_ZN11mpz_managerILb1EE18allocate_if_neededER3mpzj(ptr noundef nonnull align 8 dereferenceable(600) %this1, ptr noundef nonnull align 8 dereferenceable(16) %tmp, i32 noundef %4)
  %m_mpn_manager = getelementptr inbounds %class.mpz_manager, ptr %this1, i32 0, i32 2
  %call7 = call noundef ptr @_ZN11mpz_managerILb1EE9sign_cell4cellEv(ptr noundef nonnull align 8 dereferenceable(56) %ca)
  %m_digits = getelementptr inbounds %class.mpz_cell, ptr %call7, i32 0, i32 2
  %arraydecay = getelementptr inbounds [0 x i32], ptr %m_digits, i64 0, i64 0
  %call8 = call noundef ptr @_ZN11mpz_managerILb1EE9sign_cell4cellEv(ptr noundef nonnull align 8 dereferenceable(56) %ca)
  %m_size9 = getelementptr inbounds %class.mpz_cell, ptr %call8, i32 0, i32 0
  %5 = load i32, ptr %m_size9, align 4
  %call10 = call noundef ptr @_ZN11mpz_managerILb1EE9sign_cell4cellEv(ptr noundef nonnull align 8 dereferenceable(56) %cb)
  %m_digits11 = getelementptr inbounds %class.mpz_cell, ptr %call10, i32 0, i32 2
  %arraydecay12 = getelementptr inbounds [0 x i32], ptr %m_digits11, i64 0, i64 0
  %call13 = call noundef ptr @_ZN11mpz_managerILb1EE9sign_cell4cellEv(ptr noundef nonnull align 8 dereferenceable(56) %cb)
  %m_size14 = getelementptr inbounds %class.mpz_cell, ptr %call13, i32 0, i32 0
  %6 = load i32, ptr %m_size14, align 4
  %m_ptr = getelementptr inbounds %class.mpz, ptr %tmp, i32 0, i32 2
  %7 = load ptr, ptr %m_ptr, align 8
  %m_digits15 = getelementptr inbounds %class.mpz_cell, ptr %7, i32 0, i32 2
  %arraydecay16 = getelementptr inbounds [0 x i32], ptr %m_digits15, i64 0, i64 0
  %8 = load i32, ptr %sz, align 4
  %call17 = call noundef zeroext i1 @_ZNK11mpn_manager3addEPKjjS1_jPjjS2_(ptr noundef nonnull align 1 dereferenceable(1) %m_mpn_manager, ptr noundef %arraydecay, i32 noundef %5, ptr noundef %arraydecay12, i32 noundef %6, ptr noundef %arraydecay16, i32 noundef %8, ptr noundef %real_sz)
  %m_ptr18 = getelementptr inbounds %class.mpz, ptr %tmp, i32 0, i32 2
  %9 = load ptr, ptr %m_ptr18, align 8
  %10 = load ptr, ptr %c.addr, align 8
  %call19 = call noundef i32 @_ZN11mpz_managerILb1EE9sign_cell4signEv(ptr noundef nonnull align 8 dereferenceable(56) %ca)
  %11 = load i32, ptr %real_sz, align 4
  call void @_ZN11mpz_managerILb1EE3setER8mpz_cellR3mpzij(ptr noundef nonnull align 8 dereferenceable(600) %this1, ptr noundef nonnull align 4 dereferenceable(8) %9, ptr noundef nonnull align 8 dereferenceable(16) %10, i32 noundef %call19, i32 noundef %11)
  br label %if.end78

if.else:                                          ; preds = %entry
  %m_mpn_manager20 = getelementptr inbounds %class.mpz_manager, ptr %this1, i32 0, i32 2
  %call21 = call noundef ptr @_ZN11mpz_managerILb1EE9sign_cell4cellEv(ptr noundef nonnull align 8 dereferenceable(56) %ca)
  %m_digits22 = getelementptr inbounds %class.mpz_cell, ptr %call21, i32 0, i32 2
  %arraydecay23 = getelementptr inbounds [0 x i32], ptr %m_digits22, i64 0, i64 0
  %call24 = call noundef ptr @_ZN11mpz_managerILb1EE9sign_cell4cellEv(ptr noundef nonnull align 8 dereferenceable(56) %ca)
  %m_size25 = getelementptr inbounds %class.mpz_cell, ptr %call24, i32 0, i32 0
  %12 = load i32, ptr %m_size25, align 4
  %call26 = call noundef ptr @_ZN11mpz_managerILb1EE9sign_cell4cellEv(ptr noundef nonnull align 8 dereferenceable(56) %cb)
  %m_digits27 = getelementptr inbounds %class.mpz_cell, ptr %call26, i32 0, i32 2
  %arraydecay28 = getelementptr inbounds [0 x i32], ptr %m_digits27, i64 0, i64 0
  %call29 = call noundef ptr @_ZN11mpz_managerILb1EE9sign_cell4cellEv(ptr noundef nonnull align 8 dereferenceable(56) %cb)
  %m_size30 = getelementptr inbounds %class.mpz_cell, ptr %call29, i32 0, i32 0
  %13 = load i32, ptr %m_size30, align 4
  %call31 = call noundef i32 @_ZNK11mpn_manager7compareEPKjjS1_j(ptr noundef nonnull align 1 dereferenceable(1) %m_mpn_manager20, ptr noundef %arraydecay23, i32 noundef %12, ptr noundef %arraydecay28, i32 noundef %13)
  store i32 %call31, ptr %r, align 4
  %14 = load i32, ptr %r, align 4
  %cmp32 = icmp eq i32 %14, 0
  br i1 %cmp32, label %if.then33, label %if.else34

if.then33:                                        ; preds = %if.else
  %15 = load ptr, ptr %c.addr, align 8
  call void @_ZN11mpz_managerILb1EE3setER3mpzi(ptr noundef nonnull align 8 dereferenceable(600) %this1, ptr noundef nonnull align 8 dereferenceable(16) %15, i32 noundef 0)
  br label %if.end77

if.else34:                                        ; preds = %if.else
  %16 = load i32, ptr %r, align 4
  %cmp35 = icmp slt i32 %16, 0
  br i1 %cmp35, label %if.then36, label %if.else56

if.then36:                                        ; preds = %if.else34
  %call38 = call noundef ptr @_ZN11mpz_managerILb1EE9sign_cell4cellEv(ptr noundef nonnull align 8 dereferenceable(56) %cb)
  %m_size39 = getelementptr inbounds %class.mpz_cell, ptr %call38, i32 0, i32 0
  %17 = load i32, ptr %m_size39, align 4
  store i32 %17, ptr %sz37, align 4
  %18 = load i32, ptr %sz37, align 4
  call void @_ZN11mpz_managerILb1EE18allocate_if_neededER3mpzj(ptr noundef nonnull align 8 dereferenceable(600) %this1, ptr noundef nonnull align 8 dereferenceable(16) %tmp, i32 noundef %18)
  %m_mpn_manager40 = getelementptr inbounds %class.mpz_manager, ptr %this1, i32 0, i32 2
  %call41 = call noundef ptr @_ZN11mpz_managerILb1EE9sign_cell4cellEv(ptr noundef nonnull align 8 dereferenceable(56) %cb)
  %m_digits42 = getelementptr inbounds %class.mpz_cell, ptr %call41, i32 0, i32 2
  %arraydecay43 = getelementptr inbounds [0 x i32], ptr %m_digits42, i64 0, i64 0
  %call44 = call noundef ptr @_ZN11mpz_managerILb1EE9sign_cell4cellEv(ptr noundef nonnull align 8 dereferenceable(56) %cb)
  %m_size45 = getelementptr inbounds %class.mpz_cell, ptr %call44, i32 0, i32 0
  %19 = load i32, ptr %m_size45, align 4
  %call46 = call noundef ptr @_ZN11mpz_managerILb1EE9sign_cell4cellEv(ptr noundef nonnull align 8 dereferenceable(56) %ca)
  %m_digits47 = getelementptr inbounds %class.mpz_cell, ptr %call46, i32 0, i32 2
  %arraydecay48 = getelementptr inbounds [0 x i32], ptr %m_digits47, i64 0, i64 0
  %call49 = call noundef ptr @_ZN11mpz_managerILb1EE9sign_cell4cellEv(ptr noundef nonnull align 8 dereferenceable(56) %ca)
  %m_size50 = getelementptr inbounds %class.mpz_cell, ptr %call49, i32 0, i32 0
  %20 = load i32, ptr %m_size50, align 4
  %m_ptr51 = getelementptr inbounds %class.mpz, ptr %tmp, i32 0, i32 2
  %21 = load ptr, ptr %m_ptr51, align 8
  %m_digits52 = getelementptr inbounds %class.mpz_cell, ptr %21, i32 0, i32 2
  %arraydecay53 = getelementptr inbounds [0 x i32], ptr %m_digits52, i64 0, i64 0
  %call54 = call noundef zeroext i1 @_ZNK11mpn_manager3subEPKjjS1_jPjS2_(ptr noundef nonnull align 1 dereferenceable(1) %m_mpn_manager40, ptr noundef %arraydecay43, i32 noundef %19, ptr noundef %arraydecay48, i32 noundef %20, ptr noundef %arraydecay53, ptr noundef %borrow)
  %m_ptr55 = getelementptr inbounds %class.mpz, ptr %tmp, i32 0, i32 2
  %22 = load ptr, ptr %m_ptr55, align 8
  %23 = load ptr, ptr %c.addr, align 8
  %24 = load i32, ptr %sign_b, align 4
  %25 = load i32, ptr %sz37, align 4
  call void @_ZN11mpz_managerILb1EE3setER8mpz_cellR3mpzij(ptr noundef nonnull align 8 dereferenceable(600) %this1, ptr noundef nonnull align 4 dereferenceable(8) %22, ptr noundef nonnull align 8 dereferenceable(16) %23, i32 noundef %24, i32 noundef %25)
  br label %if.end

if.else56:                                        ; preds = %if.else34
  %call58 = call noundef ptr @_ZN11mpz_managerILb1EE9sign_cell4cellEv(ptr noundef nonnull align 8 dereferenceable(56) %ca)
  %m_size59 = getelementptr inbounds %class.mpz_cell, ptr %call58, i32 0, i32 0
  %26 = load i32, ptr %m_size59, align 4
  store i32 %26, ptr %sz57, align 4
  %27 = load i32, ptr %sz57, align 4
  call void @_ZN11mpz_managerILb1EE18allocate_if_neededER3mpzj(ptr noundef nonnull align 8 dereferenceable(600) %this1, ptr noundef nonnull align 8 dereferenceable(16) %tmp, i32 noundef %27)
  %m_mpn_manager60 = getelementptr inbounds %class.mpz_manager, ptr %this1, i32 0, i32 2
  %call61 = call noundef ptr @_ZN11mpz_managerILb1EE9sign_cell4cellEv(ptr noundef nonnull align 8 dereferenceable(56) %ca)
  %m_digits62 = getelementptr inbounds %class.mpz_cell, ptr %call61, i32 0, i32 2
  %arraydecay63 = getelementptr inbounds [0 x i32], ptr %m_digits62, i64 0, i64 0
  %call64 = call noundef ptr @_ZN11mpz_managerILb1EE9sign_cell4cellEv(ptr noundef nonnull align 8 dereferenceable(56) %ca)
  %m_size65 = getelementptr inbounds %class.mpz_cell, ptr %call64, i32 0, i32 0
  %28 = load i32, ptr %m_size65, align 4
  %call66 = call noundef ptr @_ZN11mpz_managerILb1EE9sign_cell4cellEv(ptr noundef nonnull align 8 dereferenceable(56) %cb)
  %m_digits67 = getelementptr inbounds %class.mpz_cell, ptr %call66, i32 0, i32 2
  %arraydecay68 = getelementptr inbounds [0 x i32], ptr %m_digits67, i64 0, i64 0
  %call69 = call noundef ptr @_ZN11mpz_managerILb1EE9sign_cell4cellEv(ptr noundef nonnull align 8 dereferenceable(56) %cb)
  %m_size70 = getelementptr inbounds %class.mpz_cell, ptr %call69, i32 0, i32 0
  %29 = load i32, ptr %m_size70, align 4
  %m_ptr71 = getelementptr inbounds %class.mpz, ptr %tmp, i32 0, i32 2
  %30 = load ptr, ptr %m_ptr71, align 8
  %m_digits72 = getelementptr inbounds %class.mpz_cell, ptr %30, i32 0, i32 2
  %arraydecay73 = getelementptr inbounds [0 x i32], ptr %m_digits72, i64 0, i64 0
  %call74 = call noundef zeroext i1 @_ZNK11mpn_manager3subEPKjjS1_jPjS2_(ptr noundef nonnull align 1 dereferenceable(1) %m_mpn_manager60, ptr noundef %arraydecay63, i32 noundef %28, ptr noundef %arraydecay68, i32 noundef %29, ptr noundef %arraydecay73, ptr noundef %borrow)
  %m_ptr75 = getelementptr inbounds %class.mpz, ptr %tmp, i32 0, i32 2
  %31 = load ptr, ptr %m_ptr75, align 8
  %32 = load ptr, ptr %c.addr, align 8
  %call76 = call noundef i32 @_ZN11mpz_managerILb1EE9sign_cell4signEv(ptr noundef nonnull align 8 dereferenceable(56) %ca)
  %33 = load i32, ptr %sz57, align 4
  call void @_ZN11mpz_managerILb1EE3setER8mpz_cellR3mpzij(ptr noundef nonnull align 8 dereferenceable(600) %this1, ptr noundef nonnull align 4 dereferenceable(8) %31, ptr noundef nonnull align 8 dereferenceable(16) %32, i32 noundef %call76, i32 noundef %33)
  br label %if.end

if.end:                                           ; preds = %if.else56, %if.then36
  br label %if.end77

if.end77:                                         ; preds = %if.end, %if.then33
  br label %if.end78

if.end78:                                         ; preds = %if.end77, %if.then
  call void @_ZN11mpz_managerILb1EE3delER3mpz(ptr noundef nonnull align 8 dereferenceable(600) %this1, ptr noundef nonnull align 8 dereferenceable(16) %tmp)
  ret void
}

; Function Attrs: mustprogress uwtable
define weak_odr hidden void @_ZN11mpz_managerILb1EE7big_subERK3mpzS3_RS1_(ptr noundef nonnull align 8 dereferenceable(600) %this, ptr noundef nonnull align 8 dereferenceable(16) %a, ptr noundef nonnull align 8 dereferenceable(16) %b, ptr noundef nonnull align 8 dereferenceable(16) %c) #6 comdat align 2 {
entry:
  %this.addr = alloca ptr, align 8
  %a.addr = alloca ptr, align 8
  %b.addr = alloca ptr, align 8
  %c.addr = alloca ptr, align 8
  store ptr %this, ptr %this.addr, align 8
  store ptr %a, ptr %a.addr, align 8
  store ptr %b, ptr %b.addr, align 8
  store ptr %c, ptr %c.addr, align 8
  %this1 = load ptr, ptr %this.addr, align 8
  %0 = load ptr, ptr %a.addr, align 8
  %1 = load ptr, ptr %b.addr, align 8
  %2 = load ptr, ptr %c.addr, align 8
  call void @_ZN11mpz_managerILb1EE11big_add_subILb1EEEvRK3mpzS4_RS2_(ptr noundef nonnull align 8 dereferenceable(600) %this1, ptr noundef nonnull align 8 dereferenceable(16) %0, ptr noundef nonnull align 8 dereferenceable(16) %1, ptr noundef nonnull align 8 dereferenceable(16) %2)
  ret void
}

; Function Attrs: mustprogress uwtable
define linkonce_odr hidden void @_ZN11mpz_managerILb1EE11big_add_subILb1EEEvRK3mpzS4_RS2_(ptr noundef nonnull align 8 dereferenceable(600) %this, ptr noundef nonnull align 8 dereferenceable(16) %a, ptr noundef nonnull align 8 dereferenceable(16) %b, ptr noundef nonnull align 8 dereferenceable(16) %c) #6 comdat align 2 {
entry:
  %this.addr = alloca ptr, align 8
  %a.addr = alloca ptr, align 8
  %b.addr = alloca ptr, align 8
  %c.addr = alloca ptr, align 8
  %ca = alloca %"class.mpz_manager<true>::sign_cell", align 8
  %cb = alloca %"class.mpz_manager<true>::sign_cell", align 8
  %sign_b = alloca i32, align 4
  %tmp = alloca %class.mpz_stack, align 8
  %real_sz = alloca i32, align 4
  %sz = alloca i32, align 4
  %borrow = alloca i32, align 4
  %r = alloca i32, align 4
  %sz37 = alloca i32, align 4
  %sz57 = alloca i32, align 4
  store ptr %this, ptr %this.addr, align 8
  store ptr %a, ptr %a.addr, align 8
  store ptr %b, ptr %b.addr, align 8
  store ptr %c, ptr %c.addr, align 8
  %this1 = load ptr, ptr %this.addr, align 8
  %0 = load ptr, ptr %a.addr, align 8
  call void @_ZN11mpz_managerILb1EE9sign_cellC1ERS0_RK3mpz(ptr noundef nonnull align 8 dereferenceable(56) %ca, ptr noundef nonnull align 8 dereferenceable(600) %this1, ptr noundef nonnull align 8 dereferenceable(16) %0)
  %1 = load ptr, ptr %b.addr, align 8
  call void @_ZN11mpz_managerILb1EE9sign_cellC1ERS0_RK3mpz(ptr noundef nonnull align 8 dereferenceable(56) %cb, ptr noundef nonnull align 8 dereferenceable(600) %this1, ptr noundef nonnull align 8 dereferenceable(16) %1)
  %call = call noundef i32 @_ZN11mpz_managerILb1EE9sign_cell4signEv(ptr noundef nonnull align 8 dereferenceable(56) %cb)
  store i32 %call, ptr %sign_b, align 4
  call void @_ZN9mpz_stackC2Ev(ptr noundef nonnull align 8 dereferenceable(56) %tmp)
  %2 = load i32, ptr %sign_b, align 4
  %sub = sub nsw i32 0, %2
  store i32 %sub, ptr %sign_b, align 4
  %call2 = call noundef i32 @_ZN11mpz_managerILb1EE9sign_cell4signEv(ptr noundef nonnull align 8 dereferenceable(56) %ca)
  %3 = load i32, ptr %sign_b, align 4
  %cmp = icmp eq i32 %call2, %3
  br i1 %cmp, label %if.then, label %if.else

if.then:                                          ; preds = %entry
  %call3 = call noundef ptr @_ZN11mpz_managerILb1EE9sign_cell4cellEv(ptr noundef nonnull align 8 dereferenceable(56) %ca)
  %m_size = getelementptr inbounds %class.mpz_cell, ptr %call3, i32 0, i32 0
  %call4 = call noundef ptr @_ZN11mpz_managerILb1EE9sign_cell4cellEv(ptr noundef nonnull align 8 dereferenceable(56) %cb)
  %m_size5 = getelementptr inbounds %class.mpz_cell, ptr %call4, i32 0, i32 0
  %call6 = call noundef nonnull align 4 dereferenceable(4) ptr @_ZSt3maxIjERKT_S2_S2_(ptr noundef nonnull align 4 dereferenceable(4) %m_size, ptr noundef nonnull align 4 dereferenceable(4) %m_size5)
  %4 = load i32, ptr %call6, align 4
  %add = add i32 %4, 1
  store i32 %add, ptr %sz, align 4
  %5 = load i32, ptr %sz, align 4
  call void @_ZN11mpz_managerILb1EE18allocate_if_neededER3mpzj(ptr noundef nonnull align 8 dereferenceable(600) %this1, ptr noundef nonnull align 8 dereferenceable(16) %tmp, i32 noundef %5)
  %m_mpn_manager = getelementptr inbounds %class.mpz_manager, ptr %this1, i32 0, i32 2
  %call7 = call noundef ptr @_ZN11mpz_managerILb1EE9sign_cell4cellEv(ptr noundef nonnull align 8 dereferenceable(56) %ca)
  %m_digits = getelementptr inbounds %class.mpz_cell, ptr %call7, i32 0, i32 2
  %arraydecay = getelementptr inbounds [0 x i32], ptr %m_digits, i64 0, i64 0
  %call8 = call noundef ptr @_ZN11mpz_managerILb1EE9sign_cell4cellEv(ptr noundef nonnull align 8 dereferenceable(56) %ca)
  %m_size9 = getelementptr inbounds %class.mpz_cell, ptr %call8, i32 0, i32 0
  %6 = load i32, ptr %m_size9, align 4
  %call10 = call noundef ptr @_ZN11mpz_managerILb1EE9sign_cell4cellEv(ptr noundef nonnull align 8 dereferenceable(56) %cb)
  %m_digits11 = getelementptr inbounds %class.mpz_cell, ptr %call10, i32 0, i32 2
  %arraydecay12 = getelementptr inbounds [0 x i32], ptr %m_digits11, i64 0, i64 0
  %call13 = call noundef ptr @_ZN11mpz_managerILb1EE9sign_cell4cellEv(ptr noundef nonnull align 8 dereferenceable(56) %cb)
  %m_size14 = getelementptr inbounds %class.mpz_cell, ptr %call13, i32 0, i32 0
  %7 = load i32, ptr %m_size14, align 4
  %m_ptr = getelementptr inbounds %class.mpz, ptr %tmp, i32 0, i32 2
  %8 = load ptr, ptr %m_ptr, align 8
  %m_digits15 = getelementptr inbounds %class.mpz_cell, ptr %8, i32 0, i32 2
  %arraydecay16 = getelementptr inbounds [0 x i32], ptr %m_digits15, i64 0, i64 0
  %9 = load i32, ptr %sz, align 4
  %call17 = call noundef zeroext i1 @_ZNK11mpn_manager3addEPKjjS1_jPjjS2_(ptr noundef nonnull align 1 dereferenceable(1) %m_mpn_manager, ptr noundef %arraydecay, i32 noundef %6, ptr noundef %arraydecay12, i32 noundef %7, ptr noundef %arraydecay16, i32 noundef %9, ptr noundef %real_sz)
  %m_ptr18 = getelementptr inbounds %class.mpz, ptr %tmp, i32 0, i32 2
  %10 = load ptr, ptr %m_ptr18, align 8
  %11 = load ptr, ptr %c.addr, align 8
  %call19 = call noundef i32 @_ZN11mpz_managerILb1EE9sign_cell4signEv(ptr noundef nonnull align 8 dereferenceable(56) %ca)
  %12 = load i32, ptr %real_sz, align 4
  call void @_ZN11mpz_managerILb1EE3setER8mpz_cellR3mpzij(ptr noundef nonnull align 8 dereferenceable(600) %this1, ptr noundef nonnull align 4 dereferenceable(8) %10, ptr noundef nonnull align 8 dereferenceable(16) %11, i32 noundef %call19, i32 noundef %12)
  br label %if.end78

if.else:                                          ; preds = %entry
  %m_mpn_manager20 = getelementptr inbounds %class.mpz_manager, ptr %this1, i32 0, i32 2
  %call21 = call noundef ptr @_ZN11mpz_managerILb1EE9sign_cell4cellEv(ptr noundef nonnull align 8 dereferenceable(56) %ca)
  %m_digits22 = getelementptr inbounds %class.mpz_cell, ptr %call21, i32 0, i32 2
  %arraydecay23 = getelementptr inbounds [0 x i32], ptr %m_digits22, i64 0, i64 0
  %call24 = call noundef ptr @_ZN11mpz_managerILb1EE9sign_cell4cellEv(ptr noundef nonnull align 8 dereferenceable(56) %ca)
  %m_size25 = getelementptr inbounds %class.mpz_cell, ptr %call24, i32 0, i32 0
  %13 = load i32, ptr %m_size25, align 4
  %call26 = call noundef ptr @_ZN11mpz_managerILb1EE9sign_cell4cellEv(ptr noundef nonnull align 8 dereferenceable(56) %cb)
  %m_digits27 = getelementptr inbounds %class.mpz_cell, ptr %call26, i32 0, i32 2
  %arraydecay28 = getelementptr inbounds [0 x i32], ptr %m_digits27, i64 0, i64 0
  %call29 = call noundef ptr @_ZN11mpz_managerILb1EE9sign_cell4cellEv(ptr noundef nonnull align 8 dereferenceable(56) %cb)
  %m_size30 = getelementptr inbounds %class.mpz_cell, ptr %call29, i32 0, i32 0
  %14 = load i32, ptr %m_size30, align 4
  %call31 = call noundef i32 @_ZNK11mpn_manager7compareEPKjjS1_j(ptr noundef nonnull align 1 dereferenceable(1) %m_mpn_manager20, ptr noundef %arraydecay23, i32 noundef %13, ptr noundef %arraydecay28, i32 noundef %14)
  store i32 %call31, ptr %r, align 4
  %15 = load i32, ptr %r, align 4
  %cmp32 = icmp eq i32 %15, 0
  br i1 %cmp32, label %if.then33, label %if.else34

if.then33:                                        ; preds = %if.else
  %16 = load ptr, ptr %c.addr, align 8
  call void @_ZN11mpz_managerILb1EE3setER3mpzi(ptr noundef nonnull align 8 dereferenceable(600) %this1, ptr noundef nonnull align 8 dereferenceable(16) %16, i32 noundef 0)
  br label %if.end77

if.else34:                                        ; preds = %if.else
  %17 = load i32, ptr %r, align 4
  %cmp35 = icmp slt i32 %17, 0
  br i1 %cmp35, label %if.then36, label %if.else56

if.then36:                                        ; preds = %if.else34
  %call38 = call noundef ptr @_ZN11mpz_managerILb1EE9sign_cell4cellEv(ptr noundef nonnull align 8 dereferenceable(56) %cb)
  %m_size39 = getelementptr inbounds %class.mpz_cell, ptr %call38, i32 0, i32 0
  %18 = load i32, ptr %m_size39, align 4
  store i32 %18, ptr %sz37, align 4
  %19 = load i32, ptr %sz37, align 4
  call void @_ZN11mpz_managerILb1EE18allocate_if_neededER3mpzj(ptr noundef nonnull align 8 dereferenceable(600) %this1, ptr noundef nonnull align 8 dereferenceable(16) %tmp, i32 noundef %19)
  %m_mpn_manager40 = getelementptr inbounds %class.mpz_manager, ptr %this1, i32 0, i32 2
  %call41 = call noundef ptr @_ZN11mpz_managerILb1EE9sign_cell4cellEv(ptr noundef nonnull align 8 dereferenceable(56) %cb)
  %m_digits42 = getelementptr inbounds %class.mpz_cell, ptr %call41, i32 0, i32 2
  %arraydecay43 = getelementptr inbounds [0 x i32], ptr %m_digits42, i64 0, i64 0
  %call44 = call noundef ptr @_ZN11mpz_managerILb1EE9sign_cell4cellEv(ptr noundef nonnull align 8 dereferenceable(56) %cb)
  %m_size45 = getelementptr inbounds %class.mpz_cell, ptr %call44, i32 0, i32 0
  %20 = load i32, ptr %m_size45, align 4
  %call46 = call noundef ptr @_ZN11mpz_managerILb1EE9sign_cell4cellEv(ptr noundef nonnull align 8 dereferenceable(56) %ca)
  %m_digits47 = getelementptr inbounds %class.mpz_cell, ptr %call46, i32 0, i32 2
  %arraydecay48 = getelementptr inbounds [0 x i32], ptr %m_digits47, i64 0, i64 0
  %call49 = call noundef ptr @_ZN11mpz_managerILb1EE9sign_cell4cellEv(ptr noundef nonnull align 8 dereferenceable(56) %ca)
  %m_size50 = getelementptr inbounds %class.mpz_cell, ptr %call49, i32 0, i32 0
  %21 = load i32, ptr %m_size50, align 4
  %m_ptr51 = getelementptr inbounds %class.mpz, ptr %tmp, i32 0, i32 2
  %22 = load ptr, ptr %m_ptr51, align 8
  %m_digits52 = getelementptr inbounds %class.mpz_cell, ptr %22, i32 0, i32 2
  %arraydecay53 = getelementptr inbounds [0 x i32], ptr %m_digits52, i64 0, i64 0
  %call54 = call noundef zeroext i1 @_ZNK11mpn_manager3subEPKjjS1_jPjS2_(ptr noundef nonnull align 1 dereferenceable(1) %m_mpn_manager40, ptr noundef %arraydecay43, i32 noundef %20, ptr noundef %arraydecay48, i32 noundef %21, ptr noundef %arraydecay53, ptr noundef %borrow)
  %m_ptr55 = getelementptr inbounds %class.mpz, ptr %tmp, i32 0, i32 2
  %23 = load ptr, ptr %m_ptr55, align 8
  %24 = load ptr, ptr %c.addr, align 8
  %25 = load i32, ptr %sign_b, align 4
  %26 = load i32, ptr %sz37, align 4
  call void @_ZN11mpz_managerILb1EE3setER8mpz_cellR3mpzij(ptr noundef nonnull align 8 dereferenceable(600) %this1, ptr noundef nonnull align 4 dereferenceable(8) %23, ptr noundef nonnull align 8 dereferenceable(16) %24, i32 noundef %25, i32 noundef %26)
  br label %if.end

if.else56:                                        ; preds = %if.else34
  %call58 = call noundef ptr @_ZN11mpz_managerILb1EE9sign_cell4cellEv(ptr noundef nonnull align 8 dereferenceable(56) %ca)
  %m_size59 = getelementptr inbounds %class.mpz_cell, ptr %call58, i32 0, i32 0
  %27 = load i32, ptr %m_size59, align 4
  store i32 %27, ptr %sz57, align 4
  %28 = load i32, ptr %sz57, align 4
  call void @_ZN11mpz_managerILb1EE18allocate_if_neededER3mpzj(ptr noundef nonnull align 8 dereferenceable(600) %this1, ptr noundef nonnull align 8 dereferenceable(16) %tmp, i32 noundef %28)
  %m_mpn_manager60 = getelementptr inbounds %class.mpz_manager, ptr %this1, i32 0, i32 2
  %call61 = call noundef ptr @_ZN11mpz_managerILb1EE9sign_cell4cellEv(ptr noundef nonnull align 8 dereferenceable(56) %ca)
  %m_digits62 = getelementptr inbounds %class.mpz_cell, ptr %call61, i32 0, i32 2
  %arraydecay63 = getelementptr inbounds [0 x i32], ptr %m_digits62, i64 0, i64 0
  %call64 = call noundef ptr @_ZN11mpz_managerILb1EE9sign_cell4cellEv(ptr noundef nonnull align 8 dereferenceable(56) %ca)
  %m_size65 = getelementptr inbounds %class.mpz_cell, ptr %call64, i32 0, i32 0
  %29 = load i32, ptr %m_size65, align 4
  %call66 = call noundef ptr @_ZN11mpz_managerILb1EE9sign_cell4cellEv(ptr noundef nonnull align 8 dereferenceable(56) %cb)
  %m_digits67 = getelementptr inbounds %class.mpz_cell, ptr %call66, i32 0, i32 2
  %arraydecay68 = getelementptr inbounds [0 x i32], ptr %m_digits67, i64 0, i64 0
  %call69 = call noundef ptr @_ZN11mpz_managerILb1EE9sign_cell4cellEv(ptr noundef nonnull align 8 dereferenceable(56) %cb)
  %m_size70 = getelementptr inbounds %class.mpz_cell, ptr %call69, i32 0, i32 0
  %30 = load i32, ptr %m_size70, align 4
  %m_ptr71 = getelementptr inbounds %class.mpz, ptr %tmp, i32 0, i32 2
  %31 = load ptr, ptr %m_ptr71, align 8
  %m_digits72 = getelementptr inbounds %class.mpz_cell, ptr %31, i32 0, i32 2
  %arraydecay73 = getelementptr inbounds [0 x i32], ptr %m_digits72, i64 0, i64 0
  %call74 = call noundef zeroext i1 @_ZNK11mpn_manager3subEPKjjS1_jPjS2_(ptr noundef nonnull align 1 dereferenceable(1) %m_mpn_manager60, ptr noundef %arraydecay63, i32 noundef %29, ptr noundef %arraydecay68, i32 noundef %30, ptr noundef %arraydecay73, ptr noundef %borrow)
  %m_ptr75 = getelementptr inbounds %class.mpz, ptr %tmp, i32 0, i32 2
  %32 = load ptr, ptr %m_ptr75, align 8
  %33 = load ptr, ptr %c.addr, align 8
  %call76 = call noundef i32 @_ZN11mpz_managerILb1EE9sign_cell4signEv(ptr noundef nonnull align 8 dereferenceable(56) %ca)
  %34 = load i32, ptr %sz57, align 4
  call void @_ZN11mpz_managerILb1EE3setER8mpz_cellR3mpzij(ptr noundef nonnull align 8 dereferenceable(600) %this1, ptr noundef nonnull align 4 dereferenceable(8) %32, ptr noundef nonnull align 8 dereferenceable(16) %33, i32 noundef %call76, i32 noundef %34)
  br label %if.end

if.end:                                           ; preds = %if.else56, %if.then36
  br label %if.end77

if.end77:                                         ; preds = %if.end, %if.then33
  br label %if.end78

if.end78:                                         ; preds = %if.end77, %if.then
  call void @_ZN11mpz_managerILb1EE3delER3mpz(ptr noundef nonnull align 8 dereferenceable(600) %this1, ptr noundef nonnull align 8 dereferenceable(16) %tmp)
  ret void
}

; Function Attrs: mustprogress uwtable
define weak_odr hidden void @_ZN11mpz_managerILb1EE7big_mulERK3mpzS3_RS1_(ptr noundef nonnull align 8 dereferenceable(600) %this, ptr noundef nonnull align 8 dereferenceable(16) %a, ptr noundef nonnull align 8 dereferenceable(16) %b, ptr noundef nonnull align 8 dereferenceable(16) %c) #6 comdat align 2 {
entry:
  %this.addr = alloca ptr, align 8
  %a.addr = alloca ptr, align 8
  %b.addr = alloca ptr, align 8
  %c.addr = alloca ptr, align 8
  %tmp = alloca %class.mpz_stack, align 8
  %ca = alloca %"class.mpz_manager<true>::sign_cell", align 8
  %cb = alloca %"class.mpz_manager<true>::sign_cell", align 8
  %sz = alloca i32, align 4
  store ptr %this, ptr %this.addr, align 8
  store ptr %a, ptr %a.addr, align 8
  store ptr %b, ptr %b.addr, align 8
  store ptr %c, ptr %c.addr, align 8
  %this1 = load ptr, ptr %this.addr, align 8
  call void @_ZN9mpz_stackC2Ev(ptr noundef nonnull align 8 dereferenceable(56) %tmp)
  %0 = load ptr, ptr %a.addr, align 8
  call void @_ZN11mpz_managerILb1EE9sign_cellC1ERS0_RK3mpz(ptr noundef nonnull align 8 dereferenceable(56) %ca, ptr noundef nonnull align 8 dereferenceable(600) %this1, ptr noundef nonnull align 8 dereferenceable(16) %0)
  %1 = load ptr, ptr %b.addr, align 8
  call void @_ZN11mpz_managerILb1EE9sign_cellC1ERS0_RK3mpz(ptr noundef nonnull align 8 dereferenceable(56) %cb, ptr noundef nonnull align 8 dereferenceable(600) %this1, ptr noundef nonnull align 8 dereferenceable(16) %1)
  %call = call noundef ptr @_ZN11mpz_managerILb1EE9sign_cell4cellEv(ptr noundef nonnull align 8 dereferenceable(56) %ca)
  %m_size = getelementptr inbounds %class.mpz_cell, ptr %call, i32 0, i32 0
  %2 = load i32, ptr %m_size, align 4
  %call2 = call noundef ptr @_ZN11mpz_managerILb1EE9sign_cell4cellEv(ptr noundef nonnull align 8 dereferenceable(56) %cb)
  %m_size3 = getelementptr inbounds %class.mpz_cell, ptr %call2, i32 0, i32 0
  %3 = load i32, ptr %m_size3, align 4
  %add = add i32 %2, %3
  store i32 %add, ptr %sz, align 4
  %4 = load i32, ptr %sz, align 4
  call void @_ZN11mpz_managerILb1EE18allocate_if_neededER3mpzj(ptr noundef nonnull align 8 dereferenceable(600) %this1, ptr noundef nonnull align 8 dereferenceable(16) %tmp, i32 noundef %4)
  %m_mpn_manager = getelementptr inbounds %class.mpz_manager, ptr %this1, i32 0, i32 2
  %call4 = call noundef ptr @_ZN11mpz_managerILb1EE9sign_cell4cellEv(ptr noundef nonnull align 8 dereferenceable(56) %ca)
  %m_digits = getelementptr inbounds %class.mpz_cell, ptr %call4, i32 0, i32 2
  %arraydecay = getelementptr inbounds [0 x i32], ptr %m_digits, i64 0, i64 0
  %call5 = call noundef ptr @_ZN11mpz_managerILb1EE9sign_cell4cellEv(ptr noundef nonnull align 8 dereferenceable(56) %ca)
  %m_size6 = getelementptr inbounds %class.mpz_cell, ptr %call5, i32 0, i32 0
  %5 = load i32, ptr %m_size6, align 4
  %call7 = call noundef ptr @_ZN11mpz_managerILb1EE9sign_cell4cellEv(ptr noundef nonnull align 8 dereferenceable(56) %cb)
  %m_digits8 = getelementptr inbounds %class.mpz_cell, ptr %call7, i32 0, i32 2
  %arraydecay9 = getelementptr inbounds [0 x i32], ptr %m_digits8, i64 0, i64 0
  %call10 = call noundef ptr @_ZN11mpz_managerILb1EE9sign_cell4cellEv(ptr noundef nonnull align 8 dereferenceable(56) %cb)
  %m_size11 = getelementptr inbounds %class.mpz_cell, ptr %call10, i32 0, i32 0
  %6 = load i32, ptr %m_size11, align 4
  %m_ptr = getelementptr inbounds %class.mpz, ptr %tmp, i32 0, i32 2
  %7 = load ptr, ptr %m_ptr, align 8
  %m_digits12 = getelementptr inbounds %class.mpz_cell, ptr %7, i32 0, i32 2
  %arraydecay13 = getelementptr inbounds [0 x i32], ptr %m_digits12, i64 0, i64 0
  %call14 = call noundef zeroext i1 @_ZNK11mpn_manager3mulEPKjjS1_jPj(ptr noundef nonnull align 1 dereferenceable(1) %m_mpn_manager, ptr noundef %arraydecay, i32 noundef %5, ptr noundef %arraydecay9, i32 noundef %6, ptr noundef %arraydecay13)
  %m_ptr15 = getelementptr inbounds %class.mpz, ptr %tmp, i32 0, i32 2
  %8 = load ptr, ptr %m_ptr15, align 8
  %9 = load ptr, ptr %c.addr, align 8
  %call16 = call noundef i32 @_ZN11mpz_managerILb1EE9sign_cell4signEv(ptr noundef nonnull align 8 dereferenceable(56) %ca)
  %call17 = call noundef i32 @_ZN11mpz_managerILb1EE9sign_cell4signEv(ptr noundef nonnull align 8 dereferenceable(56) %cb)
  %cmp = icmp eq i32 %call16, %call17
  %cond = select i1 %cmp, i32 1, i32 -1
  %10 = load i32, ptr %sz, align 4
  call void @_ZN11mpz_managerILb1EE3setER8mpz_cellR3mpzij(ptr noundef nonnull align 8 dereferenceable(600) %this1, ptr noundef nonnull align 4 dereferenceable(8) %8, ptr noundef nonnull align 8 dereferenceable(16) %9, i32 noundef %cond, i32 noundef %10)
  call void @_ZN11mpz_managerILb1EE3delER3mpz(ptr noundef nonnull align 8 dereferenceable(600) %this1, ptr noundef nonnull align 8 dereferenceable(16) %tmp)
  ret void
}

; Function Attrs: mustprogress nounwind uwtable
define linkonce_odr hidden void @_ZN9mpz_stackC2Ev(ptr noundef nonnull align 8 dereferenceable(56) %this) unnamed_addr #4 comdat align 2 {
entry:
  %this.addr = alloca ptr, align 8
  store ptr %this, ptr %this.addr, align 8
  %this1 = load ptr, ptr %this.addr, align 8
  %m_bytes = getelementptr inbounds %class.mpz_stack, ptr %this1, i32 0, i32 1
  %arraydecay = getelementptr inbounds [40 x i8], ptr %m_bytes, i64 0, i64 0
  call void @_ZN3mpzC2EP8mpz_cell(ptr noundef nonnull align 8 dereferenceable(16) %this1, ptr noundef %arraydecay)
  %m_ptr = getelementptr inbounds %class.mpz, ptr %this1, i32 0, i32 2
  %0 = load ptr, ptr %m_ptr, align 8
  %m_capacity = getelementptr inbounds %class.mpz_cell, ptr %0, i32 0, i32 1
  store i32 8, ptr %m_capacity, align 4
  ret void
}

declare noundef zeroext i1 @_ZNK11mpn_manager3mulEPKjjS1_jPj(ptr noundef nonnull align 1 dereferenceable(1), ptr noundef, i32 noundef, ptr noundef, i32 noundef, ptr noundef) #1

; Function Attrs: mustprogress uwtable
define weak_odr hidden void @_ZN11mpz_managerILb1EE3delER3mpz(ptr noundef nonnull align 8 dereferenceable(600) %this, ptr noundef nonnull align 8 dereferenceable(16) %a) #6 comdat align 2 {
entry:
  %this.addr = alloca ptr, align 8
  %a.addr = alloca ptr, align 8
  store ptr %this, ptr %this.addr, align 8
  store ptr %a, ptr %a.addr, align 8
  %this1 = load ptr, ptr %this.addr, align 8
  %0 = load ptr, ptr %a.addr, align 8
  call void @_ZN11mpz_managerILb1EE3delEPS0_R3mpz(ptr noundef %this1, ptr noundef nonnull align 8 dereferenceable(16) %0)
  ret void
}

; Function Attrs: mustprogress uwtable
define weak_odr hidden void @_ZN11mpz_managerILb1EE7big_setER3mpzRKS1_(ptr noundef nonnull align 8 dereferenceable(600) %this, ptr noundef nonnull align 8 dereferenceable(16) %target, ptr noundef nonnull align 8 dereferenceable(16) %source) #6 comdat align 2 {
entry:
  %this.addr = alloca ptr, align 8
  %target.addr = alloca ptr, align 8
  %source.addr = alloca ptr, align 8
  store ptr %this, ptr %this.addr, align 8
  store ptr %target, ptr %target.addr, align 8
  store ptr %source, ptr %source.addr, align 8
  %this1 = load ptr, ptr %this.addr, align 8
  %0 = load ptr, ptr %target.addr, align 8
  %1 = load ptr, ptr %source.addr, align 8
  %cmp = icmp eq ptr %0, %1
  br i1 %cmp, label %if.then, label %if.end

if.then:                                          ; preds = %entry
  br label %if.end67

if.end:                                           ; preds = %entry
  %2 = load ptr, ptr %source.addr, align 8
  %m_val = getelementptr inbounds %class.mpz, ptr %2, i32 0, i32 0
  %3 = load i32, ptr %m_val, align 8
  %4 = load ptr, ptr %target.addr, align 8
  %m_val2 = getelementptr inbounds %class.mpz, ptr %4, i32 0, i32 0
  store i32 %3, ptr %m_val2, align 8
  %5 = load ptr, ptr %target.addr, align 8
  %m_ptr = getelementptr inbounds %class.mpz, ptr %5, i32 0, i32 2
  %6 = load ptr, ptr %m_ptr, align 8
  %cmp3 = icmp eq ptr %6, null
  br i1 %cmp3, label %if.then4, label %if.else

if.then4:                                         ; preds = %if.end
  %7 = load ptr, ptr %source.addr, align 8
  %call = call noundef i32 @_ZN11mpz_managerILb1EE8capacityERK3mpz(ptr noundef nonnull align 8 dereferenceable(16) %7)
  %call5 = call noundef ptr @_ZN11mpz_managerILb1EE8allocateEj(ptr noundef nonnull align 8 dereferenceable(600) %this1, i32 noundef %call)
  %8 = load ptr, ptr %target.addr, align 8
  %m_ptr6 = getelementptr inbounds %class.mpz, ptr %8, i32 0, i32 2
  store ptr %call5, ptr %m_ptr6, align 8
  %9 = load ptr, ptr %source.addr, align 8
  %call7 = call noundef i32 @_ZN11mpz_managerILb1EE4sizeERK3mpz(ptr noundef nonnull align 8 dereferenceable(16) %9)
  %10 = load ptr, ptr %target.addr, align 8
  %m_ptr8 = getelementptr inbounds %class.mpz, ptr %10, i32 0, i32 2
  %11 = load ptr, ptr %m_ptr8, align 8
  %m_size = getelementptr inbounds %class.mpz_cell, ptr %11, i32 0, i32 0
  store i32 %call7, ptr %m_size, align 4
  %12 = load ptr, ptr %source.addr, align 8
  %call9 = call noundef i32 @_ZN11mpz_managerILb1EE8capacityERK3mpz(ptr noundef nonnull align 8 dereferenceable(16) %12)
  %13 = load ptr, ptr %target.addr, align 8
  %m_ptr10 = getelementptr inbounds %class.mpz, ptr %13, i32 0, i32 2
  %14 = load ptr, ptr %m_ptr10, align 8
  %m_capacity = getelementptr inbounds %class.mpz_cell, ptr %14, i32 0, i32 1
  store i32 %call9, ptr %m_capacity, align 4
  %15 = load ptr, ptr %target.addr, align 8
  %m_kind = getelementptr inbounds %class.mpz, ptr %15, i32 0, i32 1
  %bf.load = load i8, ptr %m_kind, align 4
  %bf.clear = and i8 %bf.load, -2
  %bf.set = or i8 %bf.clear, 1
  store i8 %bf.set, ptr %m_kind, align 4
  %16 = load ptr, ptr %target.addr, align 8
  %m_owner = getelementptr inbounds %class.mpz, ptr %16, i32 0, i32 1
  %bf.load11 = load i8, ptr %m_owner, align 4
  %bf.clear12 = and i8 %bf.load11, -3
  %bf.set13 = or i8 %bf.clear12, 0
  store i8 %bf.set13, ptr %m_owner, align 4
  %17 = load ptr, ptr %target.addr, align 8
  %m_ptr14 = getelementptr inbounds %class.mpz, ptr %17, i32 0, i32 2
  %18 = load ptr, ptr %m_ptr14, align 8
  %m_digits = getelementptr inbounds %class.mpz_cell, ptr %18, i32 0, i32 2
  %arraydecay = getelementptr inbounds [0 x i32], ptr %m_digits, i64 0, i64 0
  %19 = load ptr, ptr %source.addr, align 8
  %m_ptr15 = getelementptr inbounds %class.mpz, ptr %19, i32 0, i32 2
  %20 = load ptr, ptr %m_ptr15, align 8
  %m_digits16 = getelementptr inbounds %class.mpz_cell, ptr %20, i32 0, i32 2
  %arraydecay17 = getelementptr inbounds [0 x i32], ptr %m_digits16, i64 0, i64 0
  %21 = load ptr, ptr %source.addr, align 8
  %call18 = call noundef i32 @_ZN11mpz_managerILb1EE4sizeERK3mpz(ptr noundef nonnull align 8 dereferenceable(16) %21)
  %conv = zext i32 %call18 to i64
  %mul = mul i64 4, %conv
  call void @llvm.memcpy.p0.p0.i64(ptr align 4 %arraydecay, ptr align 4 %arraydecay17, i64 %mul, i1 false)
  br label %if.end67

if.else:                                          ; preds = %if.end
  %22 = load ptr, ptr %target.addr, align 8
  %call19 = call noundef i32 @_ZN11mpz_managerILb1EE8capacityERK3mpz(ptr noundef nonnull align 8 dereferenceable(16) %22)
  %23 = load ptr, ptr %source.addr, align 8
  %call20 = call noundef i32 @_ZN11mpz_managerILb1EE4sizeERK3mpz(ptr noundef nonnull align 8 dereferenceable(16) %23)
  %cmp21 = icmp ult i32 %call19, %call20
  br i1 %cmp21, label %if.then22, label %if.else49

if.then22:                                        ; preds = %if.else
  %24 = load ptr, ptr %target.addr, align 8
  call void @_ZN11mpz_managerILb1EE10deallocateER3mpz(ptr noundef nonnull align 8 dereferenceable(600) %this1, ptr noundef nonnull align 8 dereferenceable(16) %24)
  %25 = load ptr, ptr %source.addr, align 8
  %call23 = call noundef i32 @_ZN11mpz_managerILb1EE8capacityERK3mpz(ptr noundef nonnull align 8 dereferenceable(16) %25)
  %call24 = call noundef ptr @_ZN11mpz_managerILb1EE8allocateEj(ptr noundef nonnull align 8 dereferenceable(600) %this1, i32 noundef %call23)
  %26 = load ptr, ptr %target.addr, align 8
  %m_ptr25 = getelementptr inbounds %class.mpz, ptr %26, i32 0, i32 2
  store ptr %call24, ptr %m_ptr25, align 8
  %27 = load ptr, ptr %source.addr, align 8
  %call26 = call noundef i32 @_ZN11mpz_managerILb1EE4sizeERK3mpz(ptr noundef nonnull align 8 dereferenceable(16) %27)
  %28 = load ptr, ptr %target.addr, align 8
  %m_ptr27 = getelementptr inbounds %class.mpz, ptr %28, i32 0, i32 2
  %29 = load ptr, ptr %m_ptr27, align 8
  %m_size28 = getelementptr inbounds %class.mpz_cell, ptr %29, i32 0, i32 0
  store i32 %call26, ptr %m_size28, align 4
  %30 = load ptr, ptr %source.addr, align 8
  %call29 = call noundef i32 @_ZN11mpz_managerILb1EE8capacityERK3mpz(ptr noundef nonnull align 8 dereferenceable(16) %30)
  %31 = load ptr, ptr %target.addr, align 8
  %m_ptr30 = getelementptr inbounds %class.mpz, ptr %31, i32 0, i32 2
  %32 = load ptr, ptr %m_ptr30, align 8
  %m_capacity31 = getelementptr inbounds %class.mpz_cell, ptr %32, i32 0, i32 1
  store i32 %call29, ptr %m_capacity31, align 4
  %33 = load ptr, ptr %target.addr, align 8
  %m_kind32 = getelementptr inbounds %class.mpz, ptr %33, i32 0, i32 1
  %bf.load33 = load i8, ptr %m_kind32, align 4
  %bf.clear34 = and i8 %bf.load33, -2
  %bf.set35 = or i8 %bf.clear34, 1
  store i8 %bf.set35, ptr %m_kind32, align 4
  %34 = load ptr, ptr %target.addr, align 8
  %m_owner36 = getelementptr inbounds %class.mpz, ptr %34, i32 0, i32 1
  %bf.load37 = load i8, ptr %m_owner36, align 4
  %bf.clear38 = and i8 %bf.load37, -3
  %bf.set39 = or i8 %bf.clear38, 0
  store i8 %bf.set39, ptr %m_owner36, align 4
  %35 = load ptr, ptr %target.addr, align 8
  %m_ptr40 = getelementptr inbounds %class.mpz, ptr %35, i32 0, i32 2
  %36 = load ptr, ptr %m_ptr40, align 8
  %m_digits41 = getelementptr inbounds %class.mpz_cell, ptr %36, i32 0, i32 2
  %arraydecay42 = getelementptr inbounds [0 x i32], ptr %m_digits41, i64 0, i64 0
  %37 = load ptr, ptr %source.addr, align 8
  %m_ptr43 = getelementptr inbounds %class.mpz, ptr %37, i32 0, i32 2
  %38 = load ptr, ptr %m_ptr43, align 8
  %m_digits44 = getelementptr inbounds %class.mpz_cell, ptr %38, i32 0, i32 2
  %arraydecay45 = getelementptr inbounds [0 x i32], ptr %m_digits44, i64 0, i64 0
  %39 = load ptr, ptr %source.addr, align 8
  %call46 = call noundef i32 @_ZN11mpz_managerILb1EE4sizeERK3mpz(ptr noundef nonnull align 8 dereferenceable(16) %39)
  %conv47 = zext i32 %call46 to i64
  %mul48 = mul i64 4, %conv47
  call void @llvm.memcpy.p0.p0.i64(ptr align 4 %arraydecay42, ptr align 4 %arraydecay45, i64 %mul48, i1 false)
  br label %if.end66

if.else49:                                        ; preds = %if.else
  %40 = load ptr, ptr %source.addr, align 8
  %call50 = call noundef i32 @_ZN11mpz_managerILb1EE4sizeERK3mpz(ptr noundef nonnull align 8 dereferenceable(16) %40)
  %41 = load ptr, ptr %target.addr, align 8
  %m_ptr51 = getelementptr inbounds %class.mpz, ptr %41, i32 0, i32 2
  %42 = load ptr, ptr %m_ptr51, align 8
  %m_size52 = getelementptr inbounds %class.mpz_cell, ptr %42, i32 0, i32 0
  store i32 %call50, ptr %m_size52, align 4
  %43 = load ptr, ptr %target.addr, align 8
  %m_ptr53 = getelementptr inbounds %class.mpz, ptr %43, i32 0, i32 2
  %44 = load ptr, ptr %m_ptr53, align 8
  %m_digits54 = getelementptr inbounds %class.mpz_cell, ptr %44, i32 0, i32 2
  %arraydecay55 = getelementptr inbounds [0 x i32], ptr %m_digits54, i64 0, i64 0
  %45 = load ptr, ptr %source.addr, align 8
  %m_ptr56 = getelementptr inbounds %class.mpz, ptr %45, i32 0, i32 2
  %46 = load ptr, ptr %m_ptr56, align 8
  %m_digits57 = getelementptr inbounds %class.mpz_cell, ptr %46, i32 0, i32 2
  %arraydecay58 = getelementptr inbounds [0 x i32], ptr %m_digits57, i64 0, i64 0
  %47 = load ptr, ptr %source.addr, align 8
  %call59 = call noundef i32 @_ZN11mpz_managerILb1EE4sizeERK3mpz(ptr noundef nonnull align 8 dereferenceable(16) %47)
  %conv60 = zext i32 %call59 to i64
  %mul61 = mul i64 4, %conv60
  call void @llvm.memcpy.p0.p0.i64(ptr align 4 %arraydecay55, ptr align 4 %arraydecay58, i64 %mul61, i1 false)
  %48 = load ptr, ptr %target.addr, align 8
  %m_kind62 = getelementptr inbounds %class.mpz, ptr %48, i32 0, i32 1
  %bf.load63 = load i8, ptr %m_kind62, align 4
  %bf.clear64 = and i8 %bf.load63, -2
  %bf.set65 = or i8 %bf.clear64, 1
  store i8 %bf.set65, ptr %m_kind62, align 4
  br label %if.end66

if.end66:                                         ; preds = %if.else49, %if.then22
  br label %if.end67

if.end67:                                         ; preds = %if.end66, %if.then4, %if.then
  ret void
}

; Function Attrs: nocallback nofree nounwind willreturn memory(argmem: readwrite)
declare void @llvm.memcpy.p0.p0.i64(ptr noalias nocapture writeonly, ptr noalias nocapture readonly, i64, i1 immarg) #7

; Function Attrs: mustprogress uwtable
define weak_odr hidden void @_ZN11mpz_managerILb1EE11big_div_remERK3mpzS3_RS1_S4_(ptr noundef nonnull align 8 dereferenceable(600) %this, ptr noundef nonnull align 8 dereferenceable(16) %a, ptr noundef nonnull align 8 dereferenceable(16) %b, ptr noundef nonnull align 8 dereferenceable(16) %q, ptr noundef nonnull align 8 dereferenceable(16) %r) #6 comdat align 2 {
entry:
  %this.addr = alloca ptr, align 8
  %a.addr = alloca ptr, align 8
  %b.addr = alloca ptr, align 8
  %q.addr = alloca ptr, align 8
  %r.addr = alloca ptr, align 8
  store ptr %this, ptr %this.addr, align 8
  store ptr %a, ptr %a.addr, align 8
  store ptr %b, ptr %b.addr, align 8
  store ptr %q, ptr %q.addr, align 8
  store ptr %r, ptr %r.addr, align 8
  %this1 = load ptr, ptr %this.addr, align 8
  %0 = load ptr, ptr %a.addr, align 8
  %1 = load ptr, ptr %b.addr, align 8
  %2 = load ptr, ptr %q.addr, align 8
  %3 = load ptr, ptr %r.addr, align 8
  call void @_ZN11mpz_managerILb1EE13quot_rem_coreILi2EEEvRK3mpzS4_RS2_S5_(ptr noundef nonnull align 8 dereferenceable(600) %this1, ptr noundef nonnull align 8 dereferenceable(16) %0, ptr noundef nonnull align 8 dereferenceable(16) %1, ptr noundef nonnull align 8 dereferenceable(16) %2, ptr noundef nonnull align 8 dereferenceable(16) %3)
  ret void
}

; Function Attrs: mustprogress uwtable
define linkonce_odr hidden void @_ZN11mpz_managerILb1EE13quot_rem_coreILi2EEEvRK3mpzS4_RS2_S5_(ptr noundef nonnull align 8 dereferenceable(600) %this, ptr noundef nonnull align 8 dereferenceable(16) %a, ptr noundef nonnull align 8 dereferenceable(16) %b, ptr noundef nonnull align 8 dereferenceable(16) %q, ptr noundef nonnull align 8 dereferenceable(16) %r) #6 comdat align 2 {
entry:
  %this.addr = alloca ptr, align 8
  %a.addr = alloca ptr, align 8
  %b.addr = alloca ptr, align 8
  %q.addr = alloca ptr, align 8
  %r.addr = alloca ptr, align 8
  %q1 = alloca %class.mpz_stack, align 8
  %r1 = alloca %class.mpz_stack, align 8
  %ca = alloca %"class.mpz_manager<true>::sign_cell", align 8
  %cb = alloca %"class.mpz_manager<true>::sign_cell", align 8
  %q_sz = alloca i32, align 4
  %r_sz = alloca i32, align 4
  store ptr %this, ptr %this.addr, align 8
  store ptr %a, ptr %a.addr, align 8
  store ptr %b, ptr %b.addr, align 8
  store ptr %q, ptr %q.addr, align 8
  store ptr %r, ptr %r.addr, align 8
  %this1 = load ptr, ptr %this.addr, align 8
  call void @_ZN9mpz_stackC2Ev(ptr noundef nonnull align 8 dereferenceable(56) %q1)
  call void @_ZN9mpz_stackC2Ev(ptr noundef nonnull align 8 dereferenceable(56) %r1)
  %0 = load ptr, ptr %a.addr, align 8
  call void @_ZN11mpz_managerILb1EE9sign_cellC1ERS0_RK3mpz(ptr noundef nonnull align 8 dereferenceable(56) %ca, ptr noundef nonnull align 8 dereferenceable(600) %this1, ptr noundef nonnull align 8 dereferenceable(16) %0)
  %1 = load ptr, ptr %b.addr, align 8
  call void @_ZN11mpz_managerILb1EE9sign_cellC1ERS0_RK3mpz(ptr noundef nonnull align 8 dereferenceable(56) %cb, ptr noundef nonnull align 8 dereferenceable(600) %this1, ptr noundef nonnull align 8 dereferenceable(16) %1)
  %call = call noundef ptr @_ZN11mpz_managerILb1EE9sign_cell4cellEv(ptr noundef nonnull align 8 dereferenceable(56) %cb)
  %m_size = getelementptr inbounds %class.mpz_cell, ptr %call, i32 0, i32 0
  %2 = load i32, ptr %m_size, align 4
  %call2 = call noundef ptr @_ZN11mpz_managerILb1EE9sign_cell4cellEv(ptr noundef nonnull align 8 dereferenceable(56) %ca)
  %m_size3 = getelementptr inbounds %class.mpz_cell, ptr %call2, i32 0, i32 0
  %3 = load i32, ptr %m_size3, align 4
  %cmp = icmp ugt i32 %2, %3
  br i1 %cmp, label %if.then, label %if.end

if.then:                                          ; preds = %entry
  %4 = load ptr, ptr %r.addr, align 8
  %5 = load ptr, ptr %a.addr, align 8
  call void @_ZN11mpz_managerILb1EE3setER3mpzRKS1_(ptr noundef nonnull align 8 dereferenceable(600) %this1, ptr noundef nonnull align 8 dereferenceable(16) %4, ptr noundef nonnull align 8 dereferenceable(16) %5)
  %6 = load ptr, ptr %q.addr, align 8
  call void @_ZN11mpz_managerILb1EE3setER3mpzi(ptr noundef nonnull align 8 dereferenceable(600) %this1, ptr noundef nonnull align 8 dereferenceable(16) %6, i32 noundef 0)
  br label %return

if.end:                                           ; preds = %entry
  %call4 = call noundef ptr @_ZN11mpz_managerILb1EE9sign_cell4cellEv(ptr noundef nonnull align 8 dereferenceable(56) %ca)
  %m_size5 = getelementptr inbounds %class.mpz_cell, ptr %call4, i32 0, i32 0
  %7 = load i32, ptr %m_size5, align 4
  %call6 = call noundef ptr @_ZN11mpz_managerILb1EE9sign_cell4cellEv(ptr noundef nonnull align 8 dereferenceable(56) %cb)
  %m_size7 = getelementptr inbounds %class.mpz_cell, ptr %call6, i32 0, i32 0
  %8 = load i32, ptr %m_size7, align 4
  %sub = sub i32 %7, %8
  %add = add i32 %sub, 1
  store i32 %add, ptr %q_sz, align 4
  %call8 = call noundef ptr @_ZN11mpz_managerILb1EE9sign_cell4cellEv(ptr noundef nonnull align 8 dereferenceable(56) %cb)
  %m_size9 = getelementptr inbounds %class.mpz_cell, ptr %call8, i32 0, i32 0
  %9 = load i32, ptr %m_size9, align 4
  store i32 %9, ptr %r_sz, align 4
  %10 = load i32, ptr %q_sz, align 4
  call void @_ZN11mpz_managerILb1EE18allocate_if_neededER3mpzj(ptr noundef nonnull align 8 dereferenceable(600) %this1, ptr noundef nonnull align 8 dereferenceable(16) %q1, i32 noundef %10)
  %11 = load i32, ptr %r_sz, align 4
  call void @_ZN11mpz_managerILb1EE18allocate_if_neededER3mpzj(ptr noundef nonnull align 8 dereferenceable(600) %this1, ptr noundef nonnull align 8 dereferenceable(16) %r1, i32 noundef %11)
  %m_mpn_manager = getelementptr inbounds %class.mpz_manager, ptr %this1, i32 0, i32 2
  %call10 = call noundef ptr @_ZN11mpz_managerILb1EE9sign_cell4cellEv(ptr noundef nonnull align 8 dereferenceable(56) %ca)
  %m_digits = getelementptr inbounds %class.mpz_cell, ptr %call10, i32 0, i32 2
  %arraydecay = getelementptr inbounds [0 x i32], ptr %m_digits, i64 0, i64 0
  %call11 = call noundef ptr @_ZN11mpz_managerILb1EE9sign_cell4cellEv(ptr noundef nonnull align 8 dereferenceable(56) %ca)
  %m_size12 = getelementptr inbounds %class.mpz_cell, ptr %call11, i32 0, i32 0
  %12 = load i32, ptr %m_size12, align 4
  %call13 = call noundef ptr @_ZN11mpz_managerILb1EE9sign_cell4cellEv(ptr noundef nonnull align 8 dereferenceable(56) %cb)
  %m_digits14 = getelementptr inbounds %class.mpz_cell, ptr %call13, i32 0, i32 2
  %arraydecay15 = getelementptr inbounds [0 x i32], ptr %m_digits14, i64 0, i64 0
  %call16 = call noundef ptr @_ZN11mpz_managerILb1EE9sign_cell4cellEv(ptr noundef nonnull align 8 dereferenceable(56) %cb)
  %m_size17 = getelementptr inbounds %class.mpz_cell, ptr %call16, i32 0, i32 0
  %13 = load i32, ptr %m_size17, align 4
  %m_ptr = getelementptr inbounds %class.mpz, ptr %q1, i32 0, i32 2
  %14 = load ptr, ptr %m_ptr, align 8
  %m_digits18 = getelementptr inbounds %class.mpz_cell, ptr %14, i32 0, i32 2
  %arraydecay19 = getelementptr inbounds [0 x i32], ptr %m_digits18, i64 0, i64 0
  %m_ptr20 = getelementptr inbounds %class.mpz, ptr %r1, i32 0, i32 2
  %15 = load ptr, ptr %m_ptr20, align 8
  %m_digits21 = getelementptr inbounds %class.mpz_cell, ptr %15, i32 0, i32 2
  %arraydecay22 = getelementptr inbounds [0 x i32], ptr %m_digits21, i64 0, i64 0
  %call23 = call noundef zeroext i1 @_ZN11mpn_manager3divEPKjjS1_jPjS2_(ptr noundef nonnull align 1 dereferenceable(1) %m_mpn_manager, ptr noundef %arraydecay, i32 noundef %12, ptr noundef %arraydecay15, i32 noundef %13, ptr noundef %arraydecay19, ptr noundef %arraydecay22)
  %m_ptr24 = getelementptr inbounds %class.mpz, ptr %q1, i32 0, i32 2
  %16 = load ptr, ptr %m_ptr24, align 8
  %17 = load ptr, ptr %q.addr, align 8
  %call25 = call noundef i32 @_ZN11mpz_managerILb1EE9sign_cell4signEv(ptr noundef nonnull align 8 dereferenceable(56) %ca)
  %call26 = call noundef i32 @_ZN11mpz_managerILb1EE9sign_cell4signEv(ptr noundef nonnull align 8 dereferenceable(56) %cb)
  %cmp27 = icmp eq i32 %call25, %call26
  %cond = select i1 %cmp27, i32 1, i32 -1
  %18 = load i32, ptr %q_sz, align 4
  call void @_ZN11mpz_managerILb1EE3setER8mpz_cellR3mpzij(ptr noundef nonnull align 8 dereferenceable(600) %this1, ptr noundef nonnull align 4 dereferenceable(8) %16, ptr noundef nonnull align 8 dereferenceable(16) %17, i32 noundef %cond, i32 noundef %18)
  %m_ptr28 = getelementptr inbounds %class.mpz, ptr %r1, i32 0, i32 2
  %19 = load ptr, ptr %m_ptr28, align 8
  %20 = load ptr, ptr %r.addr, align 8
  %call29 = call noundef i32 @_ZN11mpz_managerILb1EE9sign_cell4signEv(ptr noundef nonnull align 8 dereferenceable(56) %ca)
  %21 = load i32, ptr %r_sz, align 4
  call void @_ZN11mpz_managerILb1EE3setER8mpz_cellR3mpzij(ptr noundef nonnull align 8 dereferenceable(600) %this1, ptr noundef nonnull align 4 dereferenceable(8) %19, ptr noundef nonnull align 8 dereferenceable(16) %20, i32 noundef %call29, i32 noundef %21)
  call void @_ZN11mpz_managerILb1EE3delER3mpz(ptr noundef nonnull align 8 dereferenceable(600) %this1, ptr noundef nonnull align 8 dereferenceable(16) %q1)
  call void @_ZN11mpz_managerILb1EE3delER3mpz(ptr noundef nonnull align 8 dereferenceable(600) %this1, ptr noundef nonnull align 8 dereferenceable(16) %r1)
  br label %return

return:                                           ; preds = %if.end, %if.then
  ret void
}

; Function Attrs: mustprogress uwtable
define weak_odr hidden void @_ZN11mpz_managerILb1EE7big_divERK3mpzS3_RS1_(ptr noundef nonnull align 8 dereferenceable(600) %this, ptr noundef nonnull align 8 dereferenceable(16) %a, ptr noundef nonnull align 8 dereferenceable(16) %b, ptr noundef nonnull align 8 dereferenceable(16) %c) #6 comdat align 2 {
entry:
  %this.addr = alloca ptr, align 8
  %a.addr = alloca ptr, align 8
  %b.addr = alloca ptr, align 8
  %c.addr = alloca ptr, align 8
  %dummy = alloca %class.mpz, align 8
  store ptr %this, ptr %this.addr, align 8
  store ptr %a, ptr %a.addr, align 8
  store ptr %b, ptr %b.addr, align 8
  store ptr %c, ptr %c.addr, align 8
  %this1 = load ptr, ptr %this.addr, align 8
  call void @_ZN3mpzC2Ev(ptr noundef nonnull align 8 dereferenceable(16) %dummy)
  %0 = load ptr, ptr %a.addr, align 8
  %1 = load ptr, ptr %b.addr, align 8
  %2 = load ptr, ptr %c.addr, align 8
  call void @_ZN11mpz_managerILb1EE13quot_rem_coreILi0EEEvRK3mpzS4_RS2_S5_(ptr noundef nonnull align 8 dereferenceable(600) %this1, ptr noundef nonnull align 8 dereferenceable(16) %0, ptr noundef nonnull align 8 dereferenceable(16) %1, ptr noundef nonnull align 8 dereferenceable(16) %2, ptr noundef nonnull align 8 dereferenceable(16) %dummy)
  call void @_ZN11mpz_managerILb1EE3delER3mpz(ptr noundef nonnull align 8 dereferenceable(600) %this1, ptr noundef nonnull align 8 dereferenceable(16) %dummy)
  ret void
}

; Function Attrs: mustprogress nounwind uwtable
define linkonce_odr hidden void @_ZN3mpzC2Ev(ptr noundef nonnull align 8 dereferenceable(16) %this) unnamed_addr #4 comdat align 2 {
entry:
  %this.addr = alloca ptr, align 8
  store ptr %this, ptr %this.addr, align 8
  %this1 = load ptr, ptr %this.addr, align 8
  %m_val = getelementptr inbounds %class.mpz, ptr %this1, i32 0, i32 0
  store i32 0, ptr %m_val, align 8
  %m_kind = getelementptr inbounds %class.mpz, ptr %this1, i32 0, i32 1
  %bf.load = load i8, ptr %m_kind, align 4
  %bf.clear = and i8 %bf.load, -2
  %bf.set = or i8 %bf.clear, 0
  store i8 %bf.set, ptr %m_kind, align 4
  %m_owner = getelementptr inbounds %class.mpz, ptr %this1, i32 0, i32 1
  %bf.load2 = load i8, ptr %m_owner, align 4
  %bf.clear3 = and i8 %bf.load2, -3
  %bf.set4 = or i8 %bf.clear3, 0
  store i8 %bf.set4, ptr %m_owner, align 4
  %m_ptr = getelementptr inbounds %class.mpz, ptr %this1, i32 0, i32 2
  store ptr null, ptr %m_ptr, align 8
  ret void
}

; Function Attrs: mustprogress uwtable
define linkonce_odr hidden void @_ZN11mpz_managerILb1EE13quot_rem_coreILi0EEEvRK3mpzS4_RS2_S5_(ptr noundef nonnull align 8 dereferenceable(600) %this, ptr noundef nonnull align 8 dereferenceable(16) %a, ptr noundef nonnull align 8 dereferenceable(16) %b, ptr noundef nonnull align 8 dereferenceable(16) %q, ptr noundef nonnull align 8 dereferenceable(16) %r) #6 comdat align 2 {
entry:
  %this.addr = alloca ptr, align 8
  %a.addr = alloca ptr, align 8
  %b.addr = alloca ptr, align 8
  %q.addr = alloca ptr, align 8
  %r.addr = alloca ptr, align 8
  %q1 = alloca %class.mpz_stack, align 8
  %r1 = alloca %class.mpz_stack, align 8
  %ca = alloca %"class.mpz_manager<true>::sign_cell", align 8
  %cb = alloca %"class.mpz_manager<true>::sign_cell", align 8
  %q_sz = alloca i32, align 4
  %r_sz = alloca i32, align 4
  store ptr %this, ptr %this.addr, align 8
  store ptr %a, ptr %a.addr, align 8
  store ptr %b, ptr %b.addr, align 8
  store ptr %q, ptr %q.addr, align 8
  store ptr %r, ptr %r.addr, align 8
  %this1 = load ptr, ptr %this.addr, align 8
  call void @_ZN9mpz_stackC2Ev(ptr noundef nonnull align 8 dereferenceable(56) %q1)
  call void @_ZN9mpz_stackC2Ev(ptr noundef nonnull align 8 dereferenceable(56) %r1)
  %0 = load ptr, ptr %a.addr, align 8
  call void @_ZN11mpz_managerILb1EE9sign_cellC1ERS0_RK3mpz(ptr noundef nonnull align 8 dereferenceable(56) %ca, ptr noundef nonnull align 8 dereferenceable(600) %this1, ptr noundef nonnull align 8 dereferenceable(16) %0)
  %1 = load ptr, ptr %b.addr, align 8
  call void @_ZN11mpz_managerILb1EE9sign_cellC1ERS0_RK3mpz(ptr noundef nonnull align 8 dereferenceable(56) %cb, ptr noundef nonnull align 8 dereferenceable(600) %this1, ptr noundef nonnull align 8 dereferenceable(16) %1)
  %call = call noundef ptr @_ZN11mpz_managerILb1EE9sign_cell4cellEv(ptr noundef nonnull align 8 dereferenceable(56) %cb)
  %m_size = getelementptr inbounds %class.mpz_cell, ptr %call, i32 0, i32 0
  %2 = load i32, ptr %m_size, align 4
  %call2 = call noundef ptr @_ZN11mpz_managerILb1EE9sign_cell4cellEv(ptr noundef nonnull align 8 dereferenceable(56) %ca)
  %m_size3 = getelementptr inbounds %class.mpz_cell, ptr %call2, i32 0, i32 0
  %3 = load i32, ptr %m_size3, align 4
  %cmp = icmp ugt i32 %2, %3
  br i1 %cmp, label %if.then, label %if.end

if.then:                                          ; preds = %entry
  %4 = load ptr, ptr %q.addr, align 8
  call void @_ZN11mpz_managerILb1EE3setER3mpzi(ptr noundef nonnull align 8 dereferenceable(600) %this1, ptr noundef nonnull align 8 dereferenceable(16) %4, i32 noundef 0)
  br label %return

if.end:                                           ; preds = %entry
  %call4 = call noundef ptr @_ZN11mpz_managerILb1EE9sign_cell4cellEv(ptr noundef nonnull align 8 dereferenceable(56) %ca)
  %m_size5 = getelementptr inbounds %class.mpz_cell, ptr %call4, i32 0, i32 0
  %5 = load i32, ptr %m_size5, align 4
  %call6 = call noundef ptr @_ZN11mpz_managerILb1EE9sign_cell4cellEv(ptr noundef nonnull align 8 dereferenceable(56) %cb)
  %m_size7 = getelementptr inbounds %class.mpz_cell, ptr %call6, i32 0, i32 0
  %6 = load i32, ptr %m_size7, align 4
  %sub = sub i32 %5, %6
  %add = add i32 %sub, 1
  store i32 %add, ptr %q_sz, align 4
  %call8 = call noundef ptr @_ZN11mpz_managerILb1EE9sign_cell4cellEv(ptr noundef nonnull align 8 dereferenceable(56) %cb)
  %m_size9 = getelementptr inbounds %class.mpz_cell, ptr %call8, i32 0, i32 0
  %7 = load i32, ptr %m_size9, align 4
  store i32 %7, ptr %r_sz, align 4
  %8 = load i32, ptr %q_sz, align 4
  call void @_ZN11mpz_managerILb1EE18allocate_if_neededER3mpzj(ptr noundef nonnull align 8 dereferenceable(600) %this1, ptr noundef nonnull align 8 dereferenceable(16) %q1, i32 noundef %8)
  %9 = load i32, ptr %r_sz, align 4
  call void @_ZN11mpz_managerILb1EE18allocate_if_neededER3mpzj(ptr noundef nonnull align 8 dereferenceable(600) %this1, ptr noundef nonnull align 8 dereferenceable(16) %r1, i32 noundef %9)
  %m_mpn_manager = getelementptr inbounds %class.mpz_manager, ptr %this1, i32 0, i32 2
  %call10 = call noundef ptr @_ZN11mpz_managerILb1EE9sign_cell4cellEv(ptr noundef nonnull align 8 dereferenceable(56) %ca)
  %m_digits = getelementptr inbounds %class.mpz_cell, ptr %call10, i32 0, i32 2
  %arraydecay = getelementptr inbounds [0 x i32], ptr %m_digits, i64 0, i64 0
  %call11 = call noundef ptr @_ZN11mpz_managerILb1EE9sign_cell4cellEv(ptr noundef nonnull align 8 dereferenceable(56) %ca)
  %m_size12 = getelementptr inbounds %class.mpz_cell, ptr %call11, i32 0, i32 0
  %10 = load i32, ptr %m_size12, align 4
  %call13 = call noundef ptr @_ZN11mpz_managerILb1EE9sign_cell4cellEv(ptr noundef nonnull align 8 dereferenceable(56) %cb)
  %m_digits14 = getelementptr inbounds %class.mpz_cell, ptr %call13, i32 0, i32 2
  %arraydecay15 = getelementptr inbounds [0 x i32], ptr %m_digits14, i64 0, i64 0
  %call16 = call noundef ptr @_ZN11mpz_managerILb1EE9sign_cell4cellEv(ptr noundef nonnull align 8 dereferenceable(56) %cb)
  %m_size17 = getelementptr inbounds %class.mpz_cell, ptr %call16, i32 0, i32 0
  %11 = load i32, ptr %m_size17, align 4
  %m_ptr = getelementptr inbounds %class.mpz, ptr %q1, i32 0, i32 2
  %12 = load ptr, ptr %m_ptr, align 8
  %m_digits18 = getelementptr inbounds %class.mpz_cell, ptr %12, i32 0, i32 2
  %arraydecay19 = getelementptr inbounds [0 x i32], ptr %m_digits18, i64 0, i64 0
  %m_ptr20 = getelementptr inbounds %class.mpz, ptr %r1, i32 0, i32 2
  %13 = load ptr, ptr %m_ptr20, align 8
  %m_digits21 = getelementptr inbounds %class.mpz_cell, ptr %13, i32 0, i32 2
  %arraydecay22 = getelementptr inbounds [0 x i32], ptr %m_digits21, i64 0, i64 0
  %call23 = call noundef zeroext i1 @_ZN11mpn_manager3divEPKjjS1_jPjS2_(ptr noundef nonnull align 1 dereferenceable(1) %m_mpn_manager, ptr noundef %arraydecay, i32 noundef %10, ptr noundef %arraydecay15, i32 noundef %11, ptr noundef %arraydecay19, ptr noundef %arraydecay22)
  %m_ptr24 = getelementptr inbounds %class.mpz, ptr %q1, i32 0, i32 2
  %14 = load ptr, ptr %m_ptr24, align 8
  %15 = load ptr, ptr %q.addr, align 8
  %call25 = call noundef i32 @_ZN11mpz_managerILb1EE9sign_cell4signEv(ptr noundef nonnull align 8 dereferenceable(56) %ca)
  %call26 = call noundef i32 @_ZN11mpz_managerILb1EE9sign_cell4signEv(ptr noundef nonnull align 8 dereferenceable(56) %cb)
  %cmp27 = icmp eq i32 %call25, %call26
  %cond = select i1 %cmp27, i32 1, i32 -1
  %16 = load i32, ptr %q_sz, align 4
  call void @_ZN11mpz_managerILb1EE3setER8mpz_cellR3mpzij(ptr noundef nonnull align 8 dereferenceable(600) %this1, ptr noundef nonnull align 4 dereferenceable(8) %14, ptr noundef nonnull align 8 dereferenceable(16) %15, i32 noundef %cond, i32 noundef %16)
  call void @_ZN11mpz_managerILb1EE3delER3mpz(ptr noundef nonnull align 8 dereferenceable(600) %this1, ptr noundef nonnull align 8 dereferenceable(16) %q1)
  call void @_ZN11mpz_managerILb1EE3delER3mpz(ptr noundef nonnull align 8 dereferenceable(600) %this1, ptr noundef nonnull align 8 dereferenceable(16) %r1)
  br label %return

return:                                           ; preds = %if.end, %if.then
  ret void
}

; Function Attrs: mustprogress uwtable
define weak_odr hidden void @_ZN11mpz_managerILb1EE7big_remERK3mpzS3_RS1_(ptr noundef nonnull align 8 dereferenceable(600) %this, ptr noundef nonnull align 8 dereferenceable(16) %a, ptr noundef nonnull align 8 dereferenceable(16) %b, ptr noundef nonnull align 8 dereferenceable(16) %c) #6 comdat align 2 {
entry:
  %this.addr = alloca ptr, align 8
  %a.addr = alloca ptr, align 8
  %b.addr = alloca ptr, align 8
  %c.addr = alloca ptr, align 8
  %dummy = alloca %class.mpz, align 8
  store ptr %this, ptr %this.addr, align 8
  store ptr %a, ptr %a.addr, align 8
  store ptr %b, ptr %b.addr, align 8
  store ptr %c, ptr %c.addr, align 8
  %this1 = load ptr, ptr %this.addr, align 8
  call void @_ZN3mpzC2Ev(ptr noundef nonnull align 8 dereferenceable(16) %dummy)
  %0 = load ptr, ptr %a.addr, align 8
  %1 = load ptr, ptr %b.addr, align 8
  %2 = load ptr, ptr %c.addr, align 8
  call void @_ZN11mpz_managerILb1EE13quot_rem_coreILi1EEEvRK3mpzS4_RS2_S5_(ptr noundef nonnull align 8 dereferenceable(600) %this1, ptr noundef nonnull align 8 dereferenceable(16) %0, ptr noundef nonnull align 8 dereferenceable(16) %1, ptr noundef nonnull align 8 dereferenceable(16) %dummy, ptr noundef nonnull align 8 dereferenceable(16) %2)
  call void @_ZN11mpz_managerILb1EE3delER3mpz(ptr noundef nonnull align 8 dereferenceable(600) %this1, ptr noundef nonnull align 8 dereferenceable(16) %dummy)
  ret void
}

; Function Attrs: mustprogress uwtable
define linkonce_odr hidden void @_ZN11mpz_managerILb1EE13quot_rem_coreILi1EEEvRK3mpzS4_RS2_S5_(ptr noundef nonnull align 8 dereferenceable(600) %this, ptr noundef nonnull align 8 dereferenceable(16) %a, ptr noundef nonnull align 8 dereferenceable(16) %b, ptr noundef nonnull align 8 dereferenceable(16) %q, ptr noundef nonnull align 8 dereferenceable(16) %r) #6 comdat align 2 {
entry:
  %this.addr = alloca ptr, align 8
  %a.addr = alloca ptr, align 8
  %b.addr = alloca ptr, align 8
  %q.addr = alloca ptr, align 8
  %r.addr = alloca ptr, align 8
  %q1 = alloca %class.mpz_stack, align 8
  %r1 = alloca %class.mpz_stack, align 8
  %ca = alloca %"class.mpz_manager<true>::sign_cell", align 8
  %cb = alloca %"class.mpz_manager<true>::sign_cell", align 8
  %q_sz = alloca i32, align 4
  %r_sz = alloca i32, align 4
  store ptr %this, ptr %this.addr, align 8
  store ptr %a, ptr %a.addr, align 8
  store ptr %b, ptr %b.addr, align 8
  store ptr %q, ptr %q.addr, align 8
  store ptr %r, ptr %r.addr, align 8
  %this1 = load ptr, ptr %this.addr, align 8
  call void @_ZN9mpz_stackC2Ev(ptr noundef nonnull align 8 dereferenceable(56) %q1)
  call void @_ZN9mpz_stackC2Ev(ptr noundef nonnull align 8 dereferenceable(56) %r1)
  %0 = load ptr, ptr %a.addr, align 8
  call void @_ZN11mpz_managerILb1EE9sign_cellC1ERS0_RK3mpz(ptr noundef nonnull align 8 dereferenceable(56) %ca, ptr noundef nonnull align 8 dereferenceable(600) %this1, ptr noundef nonnull align 8 dereferenceable(16) %0)
  %1 = load ptr, ptr %b.addr, align 8
  call void @_ZN11mpz_managerILb1EE9sign_cellC1ERS0_RK3mpz(ptr noundef nonnull align 8 dereferenceable(56) %cb, ptr noundef nonnull align 8 dereferenceable(600) %this1, ptr noundef nonnull align 8 dereferenceable(16) %1)
  %call = call noundef ptr @_ZN11mpz_managerILb1EE9sign_cell4cellEv(ptr noundef nonnull align 8 dereferenceable(56) %cb)
  %m_size = getelementptr inbounds %class.mpz_cell, ptr %call, i32 0, i32 0
  %2 = load i32, ptr %m_size, align 4
  %call2 = call noundef ptr @_ZN11mpz_managerILb1EE9sign_cell4cellEv(ptr noundef nonnull align 8 dereferenceable(56) %ca)
  %m_size3 = getelementptr inbounds %class.mpz_cell, ptr %call2, i32 0, i32 0
  %3 = load i32, ptr %m_size3, align 4
  %cmp = icmp ugt i32 %2, %3
  br i1 %cmp, label %if.then, label %if.end

if.then:                                          ; preds = %entry
  %4 = load ptr, ptr %r.addr, align 8
  %5 = load ptr, ptr %a.addr, align 8
  call void @_ZN11mpz_managerILb1EE3setER3mpzRKS1_(ptr noundef nonnull align 8 dereferenceable(600) %this1, ptr noundef nonnull align 8 dereferenceable(16) %4, ptr noundef nonnull align 8 dereferenceable(16) %5)
  br label %return

if.end:                                           ; preds = %entry
  %call4 = call noundef ptr @_ZN11mpz_managerILb1EE9sign_cell4cellEv(ptr noundef nonnull align 8 dereferenceable(56) %ca)
  %m_size5 = getelementptr inbounds %class.mpz_cell, ptr %call4, i32 0, i32 0
  %6 = load i32, ptr %m_size5, align 4
  %call6 = call noundef ptr @_ZN11mpz_managerILb1EE9sign_cell4cellEv(ptr noundef nonnull align 8 dereferenceable(56) %cb)
  %m_size7 = getelementptr inbounds %class.mpz_cell, ptr %call6, i32 0, i32 0
  %7 = load i32, ptr %m_size7, align 4
  %sub = sub i32 %6, %7
  %add = add i32 %sub, 1
  store i32 %add, ptr %q_sz, align 4
  %call8 = call noundef ptr @_ZN11mpz_managerILb1EE9sign_cell4cellEv(ptr noundef nonnull align 8 dereferenceable(56) %cb)
  %m_size9 = getelementptr inbounds %class.mpz_cell, ptr %call8, i32 0, i32 0
  %8 = load i32, ptr %m_size9, align 4
  store i32 %8, ptr %r_sz, align 4
  %9 = load i32, ptr %q_sz, align 4
  call void @_ZN11mpz_managerILb1EE18allocate_if_neededER3mpzj(ptr noundef nonnull align 8 dereferenceable(600) %this1, ptr noundef nonnull align 8 dereferenceable(16) %q1, i32 noundef %9)
  %10 = load i32, ptr %r_sz, align 4
  call void @_ZN11mpz_managerILb1EE18allocate_if_neededER3mpzj(ptr noundef nonnull align 8 dereferenceable(600) %this1, ptr noundef nonnull align 8 dereferenceable(16) %r1, i32 noundef %10)
  %m_mpn_manager = getelementptr inbounds %class.mpz_manager, ptr %this1, i32 0, i32 2
  %call10 = call noundef ptr @_ZN11mpz_managerILb1EE9sign_cell4cellEv(ptr noundef nonnull align 8 dereferenceable(56) %ca)
  %m_digits = getelementptr inbounds %class.mpz_cell, ptr %call10, i32 0, i32 2
  %arraydecay = getelementptr inbounds [0 x i32], ptr %m_digits, i64 0, i64 0
  %call11 = call noundef ptr @_ZN11mpz_managerILb1EE9sign_cell4cellEv(ptr noundef nonnull align 8 dereferenceable(56) %ca)
  %m_size12 = getelementptr inbounds %class.mpz_cell, ptr %call11, i32 0, i32 0
  %11 = load i32, ptr %m_size12, align 4
  %call13 = call noundef ptr @_ZN11mpz_managerILb1EE9sign_cell4cellEv(ptr noundef nonnull align 8 dereferenceable(56) %cb)
  %m_digits14 = getelementptr inbounds %class.mpz_cell, ptr %call13, i32 0, i32 2
  %arraydecay15 = getelementptr inbounds [0 x i32], ptr %m_digits14, i64 0, i64 0
  %call16 = call noundef ptr @_ZN11mpz_managerILb1EE9sign_cell4cellEv(ptr noundef nonnull align 8 dereferenceable(56) %cb)
  %m_size17 = getelementptr inbounds %class.mpz_cell, ptr %call16, i32 0, i32 0
  %12 = load i32, ptr %m_size17, align 4
  %m_ptr = getelementptr inbounds %class.mpz, ptr %q1, i32 0, i32 2
  %13 = load ptr, ptr %m_ptr, align 8
  %m_digits18 = getelementptr inbounds %class.mpz_cell, ptr %13, i32 0, i32 2
  %arraydecay19 = getelementptr inbounds [0 x i32], ptr %m_digits18, i64 0, i64 0
  %m_ptr20 = getelementptr inbounds %class.mpz, ptr %r1, i32 0, i32 2
  %14 = load ptr, ptr %m_ptr20, align 8
  %m_digits21 = getelementptr inbounds %class.mpz_cell, ptr %14, i32 0, i32 2
  %arraydecay22 = getelementptr inbounds [0 x i32], ptr %m_digits21, i64 0, i64 0
  %call23 = call noundef zeroext i1 @_ZN11mpn_manager3divEPKjjS1_jPjS2_(ptr noundef nonnull align 1 dereferenceable(1) %m_mpn_manager, ptr noundef %arraydecay, i32 noundef %11, ptr noundef %arraydecay15, i32 noundef %12, ptr noundef %arraydecay19, ptr noundef %arraydecay22)
  %m_ptr24 = getelementptr inbounds %class.mpz, ptr %r1, i32 0, i32 2
  %15 = load ptr, ptr %m_ptr24, align 8
  %16 = load ptr, ptr %r.addr, align 8
  %call25 = call noundef i32 @_ZN11mpz_managerILb1EE9sign_cell4signEv(ptr noundef nonnull align 8 dereferenceable(56) %ca)
  %17 = load i32, ptr %r_sz, align 4
  call void @_ZN11mpz_managerILb1EE3setER8mpz_cellR3mpzij(ptr noundef nonnull align 8 dereferenceable(600) %this1, ptr noundef nonnull align 4 dereferenceable(8) %15, ptr noundef nonnull align 8 dereferenceable(16) %16, i32 noundef %call25, i32 noundef %17)
  call void @_ZN11mpz_managerILb1EE3delER3mpz(ptr noundef nonnull align 8 dereferenceable(600) %this1, ptr noundef nonnull align 8 dereferenceable(16) %q1)
  call void @_ZN11mpz_managerILb1EE3delER3mpz(ptr noundef nonnull align 8 dereferenceable(600) %this1, ptr noundef nonnull align 8 dereferenceable(16) %r1)
  br label %return

return:                                           ; preds = %if.end, %if.then
  ret void
}

; Function Attrs: mustprogress uwtable
define weak_odr hidden noundef i32 @_ZN11mpz_managerILb1EE11big_compareERK3mpzS3_(ptr noundef nonnull align 8 dereferenceable(600) %this, ptr noundef nonnull align 8 dereferenceable(16) %a, ptr noundef nonnull align 8 dereferenceable(16) %b) #6 comdat align 2 {
entry:
  %retval = alloca i32, align 4
  %this.addr = alloca ptr, align 8
  %a.addr = alloca ptr, align 8
  %b.addr = alloca ptr, align 8
  %ca = alloca %"class.mpz_manager<true>::sign_cell", align 8
  %cb = alloca %"class.mpz_manager<true>::sign_cell", align 8
  %ca18 = alloca %"class.mpz_manager<true>::sign_cell", align 8
  %cb19 = alloca %"class.mpz_manager<true>::sign_cell", align 8
  store ptr %this, ptr %this.addr, align 8
  store ptr %a, ptr %a.addr, align 8
  store ptr %b, ptr %b.addr, align 8
  %this1 = load ptr, ptr %this.addr, align 8
  %0 = load ptr, ptr %a.addr, align 8
  %call = call noundef i32 @_ZN11mpz_managerILb1EE4signERK3mpz(ptr noundef nonnull align 8 dereferenceable(16) %0)
  %cmp = icmp sgt i32 %call, 0
  br i1 %cmp, label %if.then, label %if.else13

if.then:                                          ; preds = %entry
  %1 = load ptr, ptr %b.addr, align 8
  %call2 = call noundef i32 @_ZN11mpz_managerILb1EE4signERK3mpz(ptr noundef nonnull align 8 dereferenceable(16) %1)
  %cmp3 = icmp sgt i32 %call2, 0
  br i1 %cmp3, label %if.then4, label %if.else

if.then4:                                         ; preds = %if.then
  %2 = load ptr, ptr %a.addr, align 8
  call void @_ZN11mpz_managerILb1EE9sign_cellC1ERS0_RK3mpz(ptr noundef nonnull align 8 dereferenceable(56) %ca, ptr noundef nonnull align 8 dereferenceable(600) %this1, ptr noundef nonnull align 8 dereferenceable(16) %2)
  %3 = load ptr, ptr %b.addr, align 8
  call void @_ZN11mpz_managerILb1EE9sign_cellC1ERS0_RK3mpz(ptr noundef nonnull align 8 dereferenceable(56) %cb, ptr noundef nonnull align 8 dereferenceable(600) %this1, ptr noundef nonnull align 8 dereferenceable(16) %3)
  %m_mpn_manager = getelementptr inbounds %class.mpz_manager, ptr %this1, i32 0, i32 2
  %call5 = call noundef ptr @_ZN11mpz_managerILb1EE9sign_cell4cellEv(ptr noundef nonnull align 8 dereferenceable(56) %ca)
  %m_digits = getelementptr inbounds %class.mpz_cell, ptr %call5, i32 0, i32 2
  %arraydecay = getelementptr inbounds [0 x i32], ptr %m_digits, i64 0, i64 0
  %call6 = call noundef ptr @_ZN11mpz_managerILb1EE9sign_cell4cellEv(ptr noundef nonnull align 8 dereferenceable(56) %ca)
  %m_size = getelementptr inbounds %class.mpz_cell, ptr %call6, i32 0, i32 0
  %4 = load i32, ptr %m_size, align 4
  %call7 = call noundef ptr @_ZN11mpz_managerILb1EE9sign_cell4cellEv(ptr noundef nonnull align 8 dereferenceable(56) %cb)
  %m_digits8 = getelementptr inbounds %class.mpz_cell, ptr %call7, i32 0, i32 2
  %arraydecay9 = getelementptr inbounds [0 x i32], ptr %m_digits8, i64 0, i64 0
  %call10 = call noundef ptr @_ZN11mpz_managerILb1EE9sign_cell4cellEv(ptr noundef nonnull align 8 dereferenceable(56) %cb)
  %m_size11 = getelementptr inbounds %class.mpz_cell, ptr %call10, i32 0, i32 0
  %5 = load i32, ptr %m_size11, align 4
  %call12 = call noundef i32 @_ZNK11mpn_manager7compareEPKjjS1_j(ptr noundef nonnull align 1 dereferenceable(1) %m_mpn_manager, ptr noundef %arraydecay, i32 noundef %4, ptr noundef %arraydecay9, i32 noundef %5)
  store i32 %call12, ptr %retval, align 4
  br label %return

if.else:                                          ; preds = %if.then
  store i32 1, ptr %retval, align 4
  br label %return

if.else13:                                        ; preds = %entry
  %6 = load ptr, ptr %b.addr, align 8
  %call14 = call noundef i32 @_ZN11mpz_managerILb1EE4signERK3mpz(ptr noundef nonnull align 8 dereferenceable(16) %6)
  %cmp15 = icmp sgt i32 %call14, 0
  br i1 %cmp15, label %if.then16, label %if.else17

if.then16:                                        ; preds = %if.else13
  store i32 -1, ptr %retval, align 4
  br label %return

if.else17:                                        ; preds = %if.else13
  %7 = load ptr, ptr %a.addr, align 8
  call void @_ZN11mpz_managerILb1EE9sign_cellC1ERS0_RK3mpz(ptr noundef nonnull align 8 dereferenceable(56) %ca18, ptr noundef nonnull align 8 dereferenceable(600) %this1, ptr noundef nonnull align 8 dereferenceable(16) %7)
  %8 = load ptr, ptr %b.addr, align 8
  call void @_ZN11mpz_managerILb1EE9sign_cellC1ERS0_RK3mpz(ptr noundef nonnull align 8 dereferenceable(56) %cb19, ptr noundef nonnull align 8 dereferenceable(600) %this1, ptr noundef nonnull align 8 dereferenceable(16) %8)
  %m_mpn_manager20 = getelementptr inbounds %class.mpz_manager, ptr %this1, i32 0, i32 2
  %call21 = call noundef ptr @_ZN11mpz_managerILb1EE9sign_cell4cellEv(ptr noundef nonnull align 8 dereferenceable(56) %cb19)
  %m_digits22 = getelementptr inbounds %class.mpz_cell, ptr %call21, i32 0, i32 2
  %arraydecay23 = getelementptr inbounds [0 x i32], ptr %m_digits22, i64 0, i64 0
  %call24 = call noundef ptr @_ZN11mpz_managerILb1EE9sign_cell4cellEv(ptr noundef nonnull align 8 dereferenceable(56) %cb19)
  %m_size25 = getelementptr inbounds %class.mpz_cell, ptr %call24, i32 0, i32 0
  %9 = load i32, ptr %m_size25, align 4
  %call26 = call noundef ptr @_ZN11mpz_managerILb1EE9sign_cell4cellEv(ptr noundef nonnull align 8 dereferenceable(56) %ca18)
  %m_digits27 = getelementptr inbounds %class.mpz_cell, ptr %call26, i32 0, i32 2
  %arraydecay28 = getelementptr inbounds [0 x i32], ptr %m_digits27, i64 0, i64 0
  %call29 = call noundef ptr @_ZN11mpz_managerILb1EE9sign_cell4cellEv(ptr noundef nonnull align 8 dereferenceable(56) %ca18)
  %m_size30 = getelementptr inbounds %class.mpz_cell, ptr %call29, i32 0, i32 0
  %10 = load i32, ptr %m_size30, align 4
  %call31 = call noundef i32 @_ZNK11mpn_manager7compareEPKjjS1_j(ptr noundef nonnull align 1 dereferenceable(1) %m_mpn_manager20, ptr noundef %arraydecay23, i32 noundef %9, ptr noundef %arraydecay28, i32 noundef %10)
  store i32 %call31, ptr %retval, align 4
  br label %return

return:                                           ; preds = %if.else17, %if.then16, %if.else, %if.then4
  %11 = load i32, ptr %retval, align 4
  ret i32 %11
}

; Function Attrs: mustprogress nounwind uwtable
define weak_odr hidden noundef i32 @_ZN11mpz_managerILb1EE4signERK3mpz(ptr noundef nonnull align 8 dereferenceable(16) %a) #4 comdat align 2 {
entry:
  %a.addr = alloca ptr, align 8
  store ptr %a, ptr %a.addr, align 8
  %0 = load ptr, ptr %a.addr, align 8
  %m_val = getelementptr inbounds %class.mpz, ptr %0, i32 0, i32 0
  %1 = load i32, ptr %m_val, align 8
  ret i32 %1
}

declare noundef i32 @_ZNK11mpn_manager7compareEPKjjS1_j(ptr noundef nonnull align 1 dereferenceable(1), ptr noundef, i32 noundef, ptr noundef, i32 noundef) #1

; Function Attrs: mustprogress uwtable
define weak_odr hidden noundef i32 @_ZN11mpz_managerILb1EE9size_infoERK3mpz(ptr noundef nonnull align 8 dereferenceable(600) %this, ptr noundef nonnull align 8 dereferenceable(16) %a) #6 comdat align 2 {
entry:
  %retval = alloca i32, align 4
  %this.addr = alloca ptr, align 8
  %a.addr = alloca ptr, align 8
  store ptr %this, ptr %this.addr, align 8
  store ptr %a, ptr %a.addr, align 8
  %0 = load ptr, ptr %a.addr, align 8
  %call = call noundef zeroext i1 @_ZN11mpz_managerILb1EE8is_smallERK3mpz(ptr noundef nonnull align 8 dereferenceable(16) %0)
  br i1 %call, label %if.then, label %if.end

if.then:                                          ; preds = %entry
  store i32 1, ptr %retval, align 4
  br label %return

if.end:                                           ; preds = %entry
  %1 = load ptr, ptr %a.addr, align 8
  %m_ptr = getelementptr inbounds %class.mpz, ptr %1, i32 0, i32 2
  %2 = load ptr, ptr %m_ptr, align 8
  %m_size = getelementptr inbounds %class.mpz_cell, ptr %2, i32 0, i32 0
  %3 = load i32, ptr %m_size, align 4
  %add = add i32 %3, 1
  store i32 %add, ptr %retval, align 4
  br label %return

return:                                           ; preds = %if.end, %if.then
  %4 = load i32, ptr %retval, align 4
  ret i32 %4
}

; Function Attrs: mustprogress nounwind uwtable
define weak_odr hidden void @_ZN11mpz_managerILb1EE5sz_ltC2ERS0_PK3mpz(ptr noundef nonnull align 8 dereferenceable(16) %this, ptr noundef nonnull align 8 dereferenceable(600) %_m, ptr noundef %as) unnamed_addr #4 comdat($_ZN11mpz_managerILb1EE5sz_ltC5ERS0_PK3mpz) align 2 {
entry:
  %this.addr = alloca ptr, align 8
  %_m.addr = alloca ptr, align 8
  %as.addr = alloca ptr, align 8
  store ptr %this, ptr %this.addr, align 8
  store ptr %_m, ptr %_m.addr, align 8
  store ptr %as, ptr %as.addr, align 8
  %this1 = load ptr, ptr %this.addr, align 8
  %m = getelementptr inbounds %"struct.mpz_manager<true>::sz_lt", ptr %this1, i32 0, i32 0
  %0 = load ptr, ptr %_m.addr, align 8
  store ptr %0, ptr %m, align 8
  %m_as = getelementptr inbounds %"struct.mpz_manager<true>::sz_lt", ptr %this1, i32 0, i32 1
  %1 = load ptr, ptr %as.addr, align 8
  store ptr %1, ptr %m_as, align 8
  ret void
}

; Function Attrs: mustprogress uwtable
define weak_odr hidden noundef zeroext i1 @_ZN11mpz_managerILb1EE5sz_ltclEjj(ptr noundef nonnull align 8 dereferenceable(16) %this, i32 noundef %p1, i32 noundef %p2) #6 comdat align 2 {
entry:
  %this.addr = alloca ptr, align 8
  %p1.addr = alloca i32, align 4
  %p2.addr = alloca i32, align 4
  store ptr %this, ptr %this.addr, align 8
  store i32 %p1, ptr %p1.addr, align 4
  store i32 %p2, ptr %p2.addr, align 4
  %this1 = load ptr, ptr %this.addr, align 8
  %m = getelementptr inbounds %"struct.mpz_manager<true>::sz_lt", ptr %this1, i32 0, i32 0
  %0 = load ptr, ptr %m, align 8
  %m_as = getelementptr inbounds %"struct.mpz_manager<true>::sz_lt", ptr %this1, i32 0, i32 1
  %1 = load ptr, ptr %m_as, align 8
  %2 = load i32, ptr %p1.addr, align 4
  %idxprom = zext i32 %2 to i64
  %arrayidx = getelementptr inbounds %class.mpz, ptr %1, i64 %idxprom
  %call = call noundef i32 @_ZN11mpz_managerILb1EE9size_infoERK3mpz(ptr noundef nonnull align 8 dereferenceable(600) %0, ptr noundef nonnull align 8 dereferenceable(16) %arrayidx)
  %m2 = getelementptr inbounds %"struct.mpz_manager<true>::sz_lt", ptr %this1, i32 0, i32 0
  %3 = load ptr, ptr %m2, align 8
  %m_as3 = getelementptr inbounds %"struct.mpz_manager<true>::sz_lt", ptr %this1, i32 0, i32 1
  %4 = load ptr, ptr %m_as3, align 8
  %5 = load i32, ptr %p2.addr, align 4
  %idxprom4 = zext i32 %5 to i64
  %arrayidx5 = getelementptr inbounds %class.mpz, ptr %4, i64 %idxprom4
  %call6 = call noundef i32 @_ZN11mpz_managerILb1EE9size_infoERK3mpz(ptr noundef nonnull align 8 dereferenceable(600) %3, ptr noundef nonnull align 8 dereferenceable(16) %arrayidx5)
  %cmp = icmp ult i32 %call, %call6
  ret i1 %cmp
}

; Function Attrs: mustprogress nounwind uwtable
define weak_odr hidden noundef zeroext i1 @_ZN11mpz_managerILb1EE7preciseEv() #4 comdat align 2 {
entry:
  ret i1 true
}

; Function Attrs: mustprogress nounwind uwtable
define weak_odr hidden noundef zeroext i1 @_ZN11mpz_managerILb1EE5fieldEv() #4 comdat align 2 {
entry:
  ret i1 false
}

; Function Attrs: mustprogress uwtable
define weak_odr hidden void @_ZN11mpz_managerILb1EEC2Ev(ptr noundef nonnull align 8 dereferenceable(600) %this) unnamed_addr #6 comdat($_ZN11mpz_managerILb1EEC5Ev) align 2 personality ptr @__gxx_personality_v0 {
entry:
  %this.addr = alloca ptr, align 8
  %exn.slot = alloca ptr, align 8
  %ehselector.slot = alloca i32, align 4
  %one = alloca %class.mpz, align 8
  store ptr %this, ptr %this.addr, align 8
  %this1 = load ptr, ptr %this.addr, align 8
  %m_allocator = getelementptr inbounds %class.mpz_manager, ptr %this1, i32 0, i32 0
  call void @_ZN22small_object_allocatorC1EPKc(ptr noundef nonnull align 8 dereferenceable(520) %m_allocator, ptr noundef @.str)
  %m_lock = getelementptr inbounds %class.mpz_manager, ptr %this1, i32 0, i32 1
  call void @_ZNSt15recursive_mutexC2Ev(ptr noundef nonnull align 8 dereferenceable(40) %m_lock) #3
  %m_int_min = getelementptr inbounds %class.mpz_manager, ptr %this1, i32 0, i32 4
  invoke void @_ZN3mpzC2Ev(ptr noundef nonnull align 8 dereferenceable(16) %m_int_min)
          to label %invoke.cont unwind label %lpad

invoke.cont:                                      ; preds = %entry
  %m_two64 = getelementptr inbounds %class.mpz_manager, ptr %this1, i32 0, i32 5
  invoke void @_ZN3mpzC2Ev(ptr noundef nonnull align 8 dereferenceable(16) %m_two64)
          to label %invoke.cont2 unwind label %lpad

invoke.cont2:                                     ; preds = %invoke.cont
  %m_init_cell_capacity = getelementptr inbounds %class.mpz_manager, ptr %this1, i32 0, i32 3
  store i32 6, ptr %m_init_cell_capacity, align 4
  %m_int_min3 = getelementptr inbounds %class.mpz_manager, ptr %this1, i32 0, i32 4
  invoke void @_ZN11mpz_managerILb1EE3setER3mpzl(ptr noundef nonnull align 8 dereferenceable(600) %this1, ptr noundef nonnull align 8 dereferenceable(16) %m_int_min3, i64 noundef 2147483648)
          to label %invoke.cont4 unwind label %lpad

invoke.cont4:                                     ; preds = %invoke.cont2
  invoke void @_ZN3mpzC2Ei(ptr noundef nonnull align 8 dereferenceable(16) %one, i32 noundef 1)
          to label %invoke.cont5 unwind label %lpad

invoke.cont5:                                     ; preds = %invoke.cont4
  %m_two646 = getelementptr inbounds %class.mpz_manager, ptr %this1, i32 0, i32 5
  invoke void @_ZN11mpz_managerILb1EE3setER3mpzm(ptr noundef nonnull align 8 dereferenceable(600) %this1, ptr noundef nonnull align 8 dereferenceable(16) %m_two646, i64 noundef -1)
          to label %invoke.cont7 unwind label %lpad

invoke.cont7:                                     ; preds = %invoke.cont5
  %m_two648 = getelementptr inbounds %class.mpz_manager, ptr %this1, i32 0, i32 5
  %m_two649 = getelementptr inbounds %class.mpz_manager, ptr %this1, i32 0, i32 5
  invoke void @_ZN11mpz_managerILb1EE3addERK3mpzS3_RS1_(ptr noundef nonnull align 8 dereferenceable(600) %this1, ptr noundef nonnull align 8 dereferenceable(16) %m_two648, ptr noundef nonnull align 8 dereferenceable(16) %one, ptr noundef nonnull align 8 dereferenceable(16) %m_two649)
          to label %invoke.cont10 unwind label %lpad

invoke.cont10:                                    ; preds = %invoke.cont7
  ret void

lpad:                                             ; preds = %invoke.cont7, %invoke.cont5, %invoke.cont4, %invoke.cont2, %invoke.cont, %entry
  %0 = landingpad { ptr, i32 }
          cleanup
  %1 = extractvalue { ptr, i32 } %0, 0
  store ptr %1, ptr %exn.slot, align 8
  %2 = extractvalue { ptr, i32 } %0, 1
  store i32 %2, ptr %ehselector.slot, align 4
  call void @_ZN22small_object_allocatorD1Ev(ptr noundef nonnull align 8 dereferenceable(520) %m_allocator) #3
  br label %eh.resume

eh.resume:                                        ; preds = %lpad
  %exn = load ptr, ptr %exn.slot, align 8
  %sel = load i32, ptr %ehselector.slot, align 4
  %lpad.val = insertvalue { ptr, i32 } poison, ptr %exn, 0
  %lpad.val11 = insertvalue { ptr, i32 } %lpad.val, i32 %sel, 1
  resume { ptr, i32 } %lpad.val11
}

declare void @_ZN22small_object_allocatorC1EPKc(ptr noundef nonnull align 8 dereferenceable(520), ptr noundef) unnamed_addr #1

; Function Attrs: mustprogress nounwind uwtable
define linkonce_odr hidden void @_ZNSt15recursive_mutexC2Ev(ptr noundef nonnull align 8 dereferenceable(40) %this) unnamed_addr #4 comdat align 2 {
entry:
  %this.addr = alloca ptr, align 8
  store ptr %this, ptr %this.addr, align 8
  %this1 = load ptr, ptr %this.addr, align 8
  call void @_ZNSt22__recursive_mutex_baseC2Ev(ptr noundef nonnull align 8 dereferenceable(40) %this1) #3
  ret void
}

declare i32 @__gxx_personality_v0(...)

; Function Attrs: mustprogress uwtable
define weak_odr hidden void @_ZN11mpz_managerILb1EE3setER3mpzl(ptr noundef nonnull align 8 dereferenceable(600) %this, ptr noundef nonnull align 8 dereferenceable(16) %a, i64 noundef %val) #6 comdat align 2 {
entry:
  %this.addr = alloca ptr, align 8
  %a.addr = alloca ptr, align 8
  %val.addr = alloca i64, align 8
  store ptr %this, ptr %this.addr, align 8
  store ptr %a, ptr %a.addr, align 8
  store i64 %val, ptr %val.addr, align 8
  %this1 = load ptr, ptr %this.addr, align 8
  %0 = load ptr, ptr %a.addr, align 8
  %1 = load i64, ptr %val.addr, align 8
  call void @_ZN11mpz_managerILb1EE7set_i64ER3mpzl(ptr noundef nonnull align 8 dereferenceable(600) %this1, ptr noundef nonnull align 8 dereferenceable(16) %0, i64 noundef %1)
  ret void
}

; Function Attrs: mustprogress nounwind uwtable
define linkonce_odr hidden void @_ZN3mpzC2Ei(ptr noundef nonnull align 8 dereferenceable(16) %this, i32 noundef %v) unnamed_addr #4 comdat align 2 {
entry:
  %this.addr = alloca ptr, align 8
  %v.addr = alloca i32, align 4
  store ptr %this, ptr %this.addr, align 8
  store i32 %v, ptr %v.addr, align 4
  %this1 = load ptr, ptr %this.addr, align 8
  %m_val = getelementptr inbounds %class.mpz, ptr %this1, i32 0, i32 0
  %0 = load i32, ptr %v.addr, align 4
  store i32 %0, ptr %m_val, align 8
  %m_kind = getelementptr inbounds %class.mpz, ptr %this1, i32 0, i32 1
  %bf.load = load i8, ptr %m_kind, align 4
  %bf.clear = and i8 %bf.load, -2
  %bf.set = or i8 %bf.clear, 0
  store i8 %bf.set, ptr %m_kind, align 4
  %m_owner = getelementptr inbounds %class.mpz, ptr %this1, i32 0, i32 1
  %bf.load2 = load i8, ptr %m_owner, align 4
  %bf.clear3 = and i8 %bf.load2, -3
  %bf.set4 = or i8 %bf.clear3, 0
  store i8 %bf.set4, ptr %m_owner, align 4
  %m_ptr = getelementptr inbounds %class.mpz, ptr %this1, i32 0, i32 2
  store ptr null, ptr %m_ptr, align 8
  ret void
}

; Function Attrs: mustprogress uwtable
define weak_odr hidden void @_ZN11mpz_managerILb1EE3setER3mpzm(ptr noundef nonnull align 8 dereferenceable(600) %this, ptr noundef nonnull align 8 dereferenceable(16) %a, i64 noundef %val) #6 comdat align 2 {
entry:
  %this.addr = alloca ptr, align 8
  %a.addr = alloca ptr, align 8
  %val.addr = alloca i64, align 8
  store ptr %this, ptr %this.addr, align 8
  store ptr %a, ptr %a.addr, align 8
  store i64 %val, ptr %val.addr, align 8
  %this1 = load ptr, ptr %this.addr, align 8
  %0 = load i64, ptr %val.addr, align 8
  %cmp = icmp ult i64 %0, 2147483647
  br i1 %cmp, label %if.then, label %if.else

if.then:                                          ; preds = %entry
  %1 = load i64, ptr %val.addr, align 8
  %conv = trunc i64 %1 to i32
  %2 = load ptr, ptr %a.addr, align 8
  %m_val = getelementptr inbounds %class.mpz, ptr %2, i32 0, i32 0
  store i32 %conv, ptr %m_val, align 8
  %3 = load ptr, ptr %a.addr, align 8
  %m_kind = getelementptr inbounds %class.mpz, ptr %3, i32 0, i32 1
  %bf.load = load i8, ptr %m_kind, align 4
  %bf.clear = and i8 %bf.load, -2
  %bf.set = or i8 %bf.clear, 0
  store i8 %bf.set, ptr %m_kind, align 4
  br label %if.end

if.else:                                          ; preds = %entry
  %4 = load ptr, ptr %a.addr, align 8
  %5 = load i64, ptr %val.addr, align 8
  call void @_ZN11mpz_managerILb1EE12set_big_ui64ER3mpzm(ptr noundef nonnull align 8 dereferenceable(600) %this1, ptr noundef nonnull align 8 dereferenceable(16) %4, i64 noundef %5)
  br label %if.end

if.end:                                           ; preds = %if.else, %if.then
  ret void
}

; Function Attrs: mustprogress uwtable
define weak_odr hidden void @_ZN11mpz_managerILb1EE3addERK3mpzS3_RS1_(ptr noundef nonnull align 8 dereferenceable(600) %this, ptr noundef nonnull align 8 dereferenceable(16) %a, ptr noundef nonnull align 8 dereferenceable(16) %b, ptr noundef nonnull align 8 dereferenceable(16) %c) #6 comdat align 2 {
entry:
  %this.addr = alloca ptr, align 8
  %a.addr = alloca ptr, align 8
  %b.addr = alloca ptr, align 8
  %c.addr = alloca ptr, align 8
  store ptr %this, ptr %this.addr, align 8
  store ptr %a, ptr %a.addr, align 8
  store ptr %b, ptr %b.addr, align 8
  store ptr %c, ptr %c.addr, align 8
  %this1 = load ptr, ptr %this.addr, align 8
  %0 = load ptr, ptr %a.addr, align 8
  %call = call noundef zeroext i1 @_ZN11mpz_managerILb1EE8is_smallERK3mpz(ptr noundef nonnull align 8 dereferenceable(16) %0)
  br i1 %call, label %land.lhs.true, label %if.else

land.lhs.true:                                    ; preds = %entry
  %1 = load ptr, ptr %b.addr, align 8
  %call2 = call noundef zeroext i1 @_ZN11mpz_managerILb1EE8is_smallERK3mpz(ptr noundef nonnull align 8 dereferenceable(16) %1)
  br i1 %call2, label %if.then, label %if.else

if.then:                                          ; preds = %land.lhs.true
  %2 = load ptr, ptr %c.addr, align 8
  %3 = load ptr, ptr %a.addr, align 8
  %call3 = call noundef i64 @_ZN11mpz_managerILb1EE3i64ERK3mpz(ptr noundef nonnull align 8 dereferenceable(16) %3)
  %4 = load ptr, ptr %b.addr, align 8
  %call4 = call noundef i64 @_ZN11mpz_managerILb1EE3i64ERK3mpz(ptr noundef nonnull align 8 dereferenceable(16) %4)
  %add = add nsw i64 %call3, %call4
  call void @_ZN11mpz_managerILb1EE7set_i64ER3mpzl(ptr noundef nonnull align 8 dereferenceable(600) %this1, ptr noundef nonnull align 8 dereferenceable(16) %2, i64 noundef %add)
  br label %if.end

if.else:                                          ; preds = %land.lhs.true, %entry
  %5 = load ptr, ptr %a.addr, align 8
  %6 = load ptr, ptr %b.addr, align 8
  %7 = load ptr, ptr %c.addr, align 8
  call void @_ZN11mpz_managerILb1EE7big_addERK3mpzS3_RS1_(ptr noundef nonnull align 8 dereferenceable(600) %this1, ptr noundef nonnull align 8 dereferenceable(16) %5, ptr noundef nonnull align 8 dereferenceable(16) %6, ptr noundef nonnull align 8 dereferenceable(16) %7)
  br label %if.end

if.end:                                           ; preds = %if.else, %if.then
  ret void
}

; Function Attrs: nounwind
declare void @_ZN22small_object_allocatorD1Ev(ptr noundef nonnull align 8 dereferenceable(520)) unnamed_addr #2

; Function Attrs: mustprogress nounwind uwtable
define weak_odr hidden void @_ZN11mpz_managerILb1EED2Ev(ptr noundef nonnull align 8 dereferenceable(600) %this) unnamed_addr #4 comdat($_ZN11mpz_managerILb1EED5Ev) align 2 personality ptr @__gxx_personality_v0 {
entry:
  %this.addr = alloca ptr, align 8
  store ptr %this, ptr %this.addr, align 8
  %this1 = load ptr, ptr %this.addr, align 8
  %m_two64 = getelementptr inbounds %class.mpz_manager, ptr %this1, i32 0, i32 5
  invoke void @_ZN11mpz_managerILb1EE3delER3mpz(ptr noundef nonnull align 8 dereferenceable(600) %this1, ptr noundef nonnull align 8 dereferenceable(16) %m_two64)
          to label %invoke.cont unwind label %terminate.lpad

invoke.cont:                                      ; preds = %entry
  %m_int_min = getelementptr inbounds %class.mpz_manager, ptr %this1, i32 0, i32 4
  invoke void @_ZN11mpz_managerILb1EE3delER3mpz(ptr noundef nonnull align 8 dereferenceable(600) %this1, ptr noundef nonnull align 8 dereferenceable(16) %m_int_min)
          to label %invoke.cont2 unwind label %terminate.lpad

invoke.cont2:                                     ; preds = %invoke.cont
  %m_allocator = getelementptr inbounds %class.mpz_manager, ptr %this1, i32 0, i32 0
  call void @_ZN22small_object_allocatorD1Ev(ptr noundef nonnull align 8 dereferenceable(520) %m_allocator) #3
  ret void

terminate.lpad:                                   ; preds = %invoke.cont, %entry
  %0 = landingpad { ptr, i32 }
          catch ptr null
  %1 = extractvalue { ptr, i32 } %0, 0
  call void @__clang_call_terminate(ptr %1) #11
  unreachable
}

; Function Attrs: noreturn nounwind uwtable
define linkonce_odr hidden void @__clang_call_terminate(ptr noundef %0) #8 comdat {
  %2 = call ptr @__cxa_begin_catch(ptr %0) #3
  call void @_ZSt9terminatev() #11
  unreachable
}

declare ptr @__cxa_begin_catch(ptr)

declare void @_ZSt9terminatev()

; Function Attrs: mustprogress uwtable
define weak_odr hidden void @_ZN11mpz_managerILb1EE4mk_zEi(ptr noalias sret(%class.mpz) align 8 %agg.result, i32 noundef %val) #6 comdat align 2 {
entry:
  %result.ptr = alloca ptr, align 8
  %val.addr = alloca i32, align 4
  store ptr %agg.result, ptr %result.ptr, align 8
  store i32 %val, ptr %val.addr, align 4
  %0 = load i32, ptr %val.addr, align 4
  call void @_ZN3mpzC2Ei(ptr noundef nonnull align 8 dereferenceable(16) %agg.result, i32 noundef %0)
  ret void
}

; Function Attrs: mustprogress uwtable
define weak_odr hidden void @_ZN11mpz_managerILb1EE3delEPS0_R3mpz(ptr noundef %m, ptr noundef nonnull align 8 dereferenceable(16) %a) #6 comdat align 2 {
entry:
  %m.addr = alloca ptr, align 8
  %a.addr = alloca ptr, align 8
  store ptr %m, ptr %m.addr, align 8
  store ptr %a, ptr %a.addr, align 8
  %0 = load ptr, ptr %a.addr, align 8
  %m_ptr = getelementptr inbounds %class.mpz, ptr %0, i32 0, i32 2
  %1 = load ptr, ptr %m_ptr, align 8
  %tobool = icmp ne ptr %1, null
  br i1 %tobool, label %if.then, label %if.end

if.then:                                          ; preds = %entry
  %2 = load ptr, ptr %m.addr, align 8
  %3 = load ptr, ptr %a.addr, align 8
  %m_owner = getelementptr inbounds %class.mpz, ptr %3, i32 0, i32 1
  %bf.load = load i8, ptr %m_owner, align 4
  %bf.lshr = lshr i8 %bf.load, 1
  %bf.clear = and i8 %bf.lshr, 1
  %bf.cast = zext i8 %bf.clear to i32
  %cmp = icmp eq i32 %bf.cast, 0
  %4 = load ptr, ptr %a.addr, align 8
  %m_ptr1 = getelementptr inbounds %class.mpz, ptr %4, i32 0, i32 2
  %5 = load ptr, ptr %m_ptr1, align 8
  call void @_ZN11mpz_managerILb1EE10deallocateEbP8mpz_cell(ptr noundef nonnull align 8 dereferenceable(600) %2, i1 noundef zeroext %cmp, ptr noundef %5)
  %6 = load ptr, ptr %a.addr, align 8
  %m_ptr2 = getelementptr inbounds %class.mpz, ptr %6, i32 0, i32 2
  store ptr null, ptr %m_ptr2, align 8
  %7 = load ptr, ptr %a.addr, align 8
  %m_kind = getelementptr inbounds %class.mpz, ptr %7, i32 0, i32 1
  %bf.load3 = load i8, ptr %m_kind, align 4
  %bf.clear4 = and i8 %bf.load3, -2
  %bf.set = or i8 %bf.clear4, 0
  store i8 %bf.set, ptr %m_kind, align 4
  %8 = load ptr, ptr %a.addr, align 8
  %m_owner5 = getelementptr inbounds %class.mpz, ptr %8, i32 0, i32 1
  %bf.load6 = load i8, ptr %m_owner5, align 4
  %bf.clear7 = and i8 %bf.load6, -3
  %bf.set8 = or i8 %bf.clear7, 0
  store i8 %bf.set8, ptr %m_owner5, align 4
  br label %if.end

if.end:                                           ; preds = %if.then, %entry
  ret void
}

; Function Attrs: mustprogress uwtable
define weak_odr hidden void @_ZN11mpz_managerILb1EE3subERK3mpzS3_RS1_(ptr noundef nonnull align 8 dereferenceable(600) %this, ptr noundef nonnull align 8 dereferenceable(16) %a, ptr noundef nonnull align 8 dereferenceable(16) %b, ptr noundef nonnull align 8 dereferenceable(16) %c) #6 comdat align 2 {
entry:
  %this.addr = alloca ptr, align 8
  %a.addr = alloca ptr, align 8
  %b.addr = alloca ptr, align 8
  %c.addr = alloca ptr, align 8
  store ptr %this, ptr %this.addr, align 8
  store ptr %a, ptr %a.addr, align 8
  store ptr %b, ptr %b.addr, align 8
  store ptr %c, ptr %c.addr, align 8
  %this1 = load ptr, ptr %this.addr, align 8
  %0 = load ptr, ptr %a.addr, align 8
  %call = call noundef zeroext i1 @_ZN11mpz_managerILb1EE8is_smallERK3mpz(ptr noundef nonnull align 8 dereferenceable(16) %0)
  br i1 %call, label %land.lhs.true, label %if.else

land.lhs.true:                                    ; preds = %entry
  %1 = load ptr, ptr %b.addr, align 8
  %call2 = call noundef zeroext i1 @_ZN11mpz_managerILb1EE8is_smallERK3mpz(ptr noundef nonnull align 8 dereferenceable(16) %1)
  br i1 %call2, label %if.then, label %if.else

if.then:                                          ; preds = %land.lhs.true
  %2 = load ptr, ptr %c.addr, align 8
  %3 = load ptr, ptr %a.addr, align 8
  %call3 = call noundef i64 @_ZN11mpz_managerILb1EE3i64ERK3mpz(ptr noundef nonnull align 8 dereferenceable(16) %3)
  %4 = load ptr, ptr %b.addr, align 8
  %call4 = call noundef i64 @_ZN11mpz_managerILb1EE3i64ERK3mpz(ptr noundef nonnull align 8 dereferenceable(16) %4)
  %sub = sub nsw i64 %call3, %call4
  call void @_ZN11mpz_managerILb1EE7set_i64ER3mpzl(ptr noundef nonnull align 8 dereferenceable(600) %this1, ptr noundef nonnull align 8 dereferenceable(16) %2, i64 noundef %sub)
  br label %if.end

if.else:                                          ; preds = %land.lhs.true, %entry
  %5 = load ptr, ptr %a.addr, align 8
  %6 = load ptr, ptr %b.addr, align 8
  %7 = load ptr, ptr %c.addr, align 8
  call void @_ZN11mpz_managerILb1EE7big_subERK3mpzS3_RS1_(ptr noundef nonnull align 8 dereferenceable(600) %this1, ptr noundef nonnull align 8 dereferenceable(16) %5, ptr noundef nonnull align 8 dereferenceable(16) %6, ptr noundef nonnull align 8 dereferenceable(16) %7)
  br label %if.end

if.end:                                           ; preds = %if.else, %if.then
  ret void
}

; Function Attrs: mustprogress uwtable
define weak_odr hidden void @_ZN11mpz_managerILb1EE3incER3mpz(ptr noundef nonnull align 8 dereferenceable(600) %this, ptr noundef nonnull align 8 dereferenceable(16) %a) #6 comdat align 2 {
entry:
  %this.addr = alloca ptr, align 8
  %a.addr = alloca ptr, align 8
  %ref.tmp = alloca %class.mpz, align 8
  store ptr %this, ptr %this.addr, align 8
  store ptr %a, ptr %a.addr, align 8
  %this1 = load ptr, ptr %this.addr, align 8
  %0 = load ptr, ptr %a.addr, align 8
  call void @_ZN3mpzC2Ei(ptr noundef nonnull align 8 dereferenceable(16) %ref.tmp, i32 noundef 1)
  %1 = load ptr, ptr %a.addr, align 8
  call void @_ZN11mpz_managerILb1EE3addERK3mpzS3_RS1_(ptr noundef nonnull align 8 dereferenceable(600) %this1, ptr noundef nonnull align 8 dereferenceable(16) %0, ptr noundef nonnull align 8 dereferenceable(16) %ref.tmp, ptr noundef nonnull align 8 dereferenceable(16) %1)
  ret void
}

; Function Attrs: mustprogress uwtable
define weak_odr hidden void @_ZN11mpz_managerILb1EE3decER3mpz(ptr noundef nonnull align 8 dereferenceable(600) %this, ptr noundef nonnull align 8 dereferenceable(16) %a) #6 comdat align 2 {
entry:
  %this.addr = alloca ptr, align 8
  %a.addr = alloca ptr, align 8
  %ref.tmp = alloca %class.mpz, align 8
  store ptr %this, ptr %this.addr, align 8
  store ptr %a, ptr %a.addr, align 8
  %this1 = load ptr, ptr %this.addr, align 8
  %0 = load ptr, ptr %a.addr, align 8
  call void @_ZN3mpzC2Ei(ptr noundef nonnull align 8 dereferenceable(16) %ref.tmp, i32 noundef -1)
  %1 = load ptr, ptr %a.addr, align 8
  call void @_ZN11mpz_managerILb1EE3addERK3mpzS3_RS1_(ptr noundef nonnull align 8 dereferenceable(600) %this1, ptr noundef nonnull align 8 dereferenceable(16) %0, ptr noundef nonnull align 8 dereferenceable(16) %ref.tmp, ptr noundef nonnull align 8 dereferenceable(16) %1)
  ret void
}

; Function Attrs: mustprogress uwtable
define weak_odr hidden void @_ZN11mpz_managerILb1EE3mulERK3mpzS3_RS1_(ptr noundef nonnull align 8 dereferenceable(600) %this, ptr noundef nonnull align 8 dereferenceable(16) %a, ptr noundef nonnull align 8 dereferenceable(16) %b, ptr noundef nonnull align 8 dereferenceable(16) %c) #6 comdat align 2 {
entry:
  %this.addr = alloca ptr, align 8
  %a.addr = alloca ptr, align 8
  %b.addr = alloca ptr, align 8
  %c.addr = alloca ptr, align 8
  store ptr %this, ptr %this.addr, align 8
  store ptr %a, ptr %a.addr, align 8
  store ptr %b, ptr %b.addr, align 8
  store ptr %c, ptr %c.addr, align 8
  %this1 = load ptr, ptr %this.addr, align 8
  %0 = load ptr, ptr %a.addr, align 8
  %call = call noundef zeroext i1 @_ZN11mpz_managerILb1EE8is_smallERK3mpz(ptr noundef nonnull align 8 dereferenceable(16) %0)
  br i1 %call, label %land.lhs.true, label %if.else

land.lhs.true:                                    ; preds = %entry
  %1 = load ptr, ptr %b.addr, align 8
  %call2 = call noundef zeroext i1 @_ZN11mpz_managerILb1EE8is_smallERK3mpz(ptr noundef nonnull align 8 dereferenceable(16) %1)
  br i1 %call2, label %if.then, label %if.else

if.then:                                          ; preds = %land.lhs.true
  %2 = load ptr, ptr %c.addr, align 8
  %3 = load ptr, ptr %a.addr, align 8
  %call3 = call noundef i64 @_ZN11mpz_managerILb1EE3i64ERK3mpz(ptr noundef nonnull align 8 dereferenceable(16) %3)
  %4 = load ptr, ptr %b.addr, align 8
  %call4 = call noundef i64 @_ZN11mpz_managerILb1EE3i64ERK3mpz(ptr noundef nonnull align 8 dereferenceable(16) %4)
  %mul = mul nsw i64 %call3, %call4
  call void @_ZN11mpz_managerILb1EE7set_i64ER3mpzl(ptr noundef nonnull align 8 dereferenceable(600) %this1, ptr noundef nonnull align 8 dereferenceable(16) %2, i64 noundef %mul)
  br label %if.end

if.else:                                          ; preds = %land.lhs.true, %entry
  %5 = load ptr, ptr %a.addr, align 8
  %6 = load ptr, ptr %b.addr, align 8
  %7 = load ptr, ptr %c.addr, align 8
  call void @_ZN11mpz_managerILb1EE7big_mulERK3mpzS3_RS1_(ptr noundef nonnull align 8 dereferenceable(600) %this1, ptr noundef nonnull align 8 dereferenceable(16) %5, ptr noundef nonnull align 8 dereferenceable(16) %6, ptr noundef nonnull align 8 dereferenceable(16) %7)
  br label %if.end

if.end:                                           ; preds = %if.else, %if.then
  ret void
}

; Function Attrs: mustprogress uwtable
define weak_odr hidden void @_ZN11mpz_managerILb1EE6addmulERK3mpzS3_S3_RS1_(ptr noundef nonnull align 8 dereferenceable(600) %this, ptr noundef nonnull align 8 dereferenceable(16) %a, ptr noundef nonnull align 8 dereferenceable(16) %b, ptr noundef nonnull align 8 dereferenceable(16) %c, ptr noundef nonnull align 8 dereferenceable(16) %d) #6 comdat align 2 {
entry:
  %this.addr = alloca ptr, align 8
  %a.addr = alloca ptr, align 8
  %b.addr = alloca ptr, align 8
  %c.addr = alloca ptr, align 8
  %d.addr = alloca ptr, align 8
  %tmp = alloca %class.mpz, align 8
  store ptr %this, ptr %this.addr, align 8
  store ptr %a, ptr %a.addr, align 8
  store ptr %b, ptr %b.addr, align 8
  store ptr %c, ptr %c.addr, align 8
  store ptr %d, ptr %d.addr, align 8
  %this1 = load ptr, ptr %this.addr, align 8
  %0 = load ptr, ptr %b.addr, align 8
  %call = call noundef zeroext i1 @_ZN11mpz_managerILb1EE6is_oneERK3mpz(ptr noundef nonnull align 8 dereferenceable(16) %0)
  br i1 %call, label %if.then, label %if.else

if.then:                                          ; preds = %entry
  %1 = load ptr, ptr %a.addr, align 8
  %2 = load ptr, ptr %c.addr, align 8
  %3 = load ptr, ptr %d.addr, align 8
  call void @_ZN11mpz_managerILb1EE3addERK3mpzS3_RS1_(ptr noundef nonnull align 8 dereferenceable(600) %this1, ptr noundef nonnull align 8 dereferenceable(16) %1, ptr noundef nonnull align 8 dereferenceable(16) %2, ptr noundef nonnull align 8 dereferenceable(16) %3)
  br label %if.end5

if.else:                                          ; preds = %entry
  %4 = load ptr, ptr %b.addr, align 8
  %call2 = call noundef zeroext i1 @_ZN11mpz_managerILb1EE12is_minus_oneERK3mpz(ptr noundef nonnull align 8 dereferenceable(16) %4)
  br i1 %call2, label %if.then3, label %if.else4

if.then3:                                         ; preds = %if.else
  %5 = load ptr, ptr %a.addr, align 8
  %6 = load ptr, ptr %c.addr, align 8
  %7 = load ptr, ptr %d.addr, align 8
  call void @_ZN11mpz_managerILb1EE3subERK3mpzS3_RS1_(ptr noundef nonnull align 8 dereferenceable(600) %this1, ptr noundef nonnull align 8 dereferenceable(16) %5, ptr noundef nonnull align 8 dereferenceable(16) %6, ptr noundef nonnull align 8 dereferenceable(16) %7)
  br label %if.end

if.else4:                                         ; preds = %if.else
  call void @_ZN3mpzC2Ev(ptr noundef nonnull align 8 dereferenceable(16) %tmp)
  %8 = load ptr, ptr %b.addr, align 8
  %9 = load ptr, ptr %c.addr, align 8
  call void @_ZN11mpz_managerILb1EE3mulERK3mpzS3_RS1_(ptr noundef nonnull align 8 dereferenceable(600) %this1, ptr noundef nonnull align 8 dereferenceable(16) %8, ptr noundef nonnull align 8 dereferenceable(16) %9, ptr noundef nonnull align 8 dereferenceable(16) %tmp)
  %10 = load ptr, ptr %a.addr, align 8
  %11 = load ptr, ptr %d.addr, align 8
  call void @_ZN11mpz_managerILb1EE3addERK3mpzS3_RS1_(ptr noundef nonnull align 8 dereferenceable(600) %this1, ptr noundef nonnull align 8 dereferenceable(16) %10, ptr noundef nonnull align 8 dereferenceable(16) %tmp, ptr noundef nonnull align 8 dereferenceable(16) %11)
  call void @_ZN11mpz_managerILb1EE3delER3mpz(ptr noundef nonnull align 8 dereferenceable(600) %this1, ptr noundef nonnull align 8 dereferenceable(16) %tmp)
  br label %if.end

if.end:                                           ; preds = %if.else4, %if.then3
  br label %if.end5

if.end5:                                          ; preds = %if.end, %if.then
  ret void
}

; Function Attrs: mustprogress nounwind uwtable
define weak_odr hidden noundef zeroext i1 @_ZN11mpz_managerILb1EE6is_oneERK3mpz(ptr noundef nonnull align 8 dereferenceable(16) %a) #4 comdat align 2 {
entry:
  %a.addr = alloca ptr, align 8
  store ptr %a, ptr %a.addr, align 8
  %0 = load ptr, ptr %a.addr, align 8
  %call = call noundef zeroext i1 @_ZN11mpz_managerILb1EE8is_smallERK3mpz(ptr noundef nonnull align 8 dereferenceable(16) %0)
  br i1 %call, label %land.rhs, label %land.end

land.rhs:                                         ; preds = %entry
  %1 = load ptr, ptr %a.addr, align 8
  %m_val = getelementptr inbounds %class.mpz, ptr %1, i32 0, i32 0
  %2 = load i32, ptr %m_val, align 8
  %cmp = icmp eq i32 %2, 1
  br label %land.end

land.end:                                         ; preds = %land.rhs, %entry
  %3 = phi i1 [ false, %entry ], [ %cmp, %land.rhs ]
  ret i1 %3
}

; Function Attrs: mustprogress nounwind uwtable
define weak_odr hidden noundef zeroext i1 @_ZN11mpz_managerILb1EE12is_minus_oneERK3mpz(ptr noundef nonnull align 8 dereferenceable(16) %a) #4 comdat align 2 {
entry:
  %a.addr = alloca ptr, align 8
  store ptr %a, ptr %a.addr, align 8
  %0 = load ptr, ptr %a.addr, align 8
  %call = call noundef zeroext i1 @_ZN11mpz_managerILb1EE8is_smallERK3mpz(ptr noundef nonnull align 8 dereferenceable(16) %0)
  br i1 %call, label %land.rhs, label %land.end

land.rhs:                                         ; preds = %entry
  %1 = load ptr, ptr %a.addr, align 8
  %m_val = getelementptr inbounds %class.mpz, ptr %1, i32 0, i32 0
  %2 = load i32, ptr %m_val, align 8
  %cmp = icmp eq i32 %2, -1
  br label %land.end

land.end:                                         ; preds = %land.rhs, %entry
  %3 = phi i1 [ false, %entry ], [ %cmp, %land.rhs ]
  ret i1 %3
}

; Function Attrs: mustprogress uwtable
define weak_odr hidden void @_ZN11mpz_managerILb1EE6submulERK3mpzS3_S3_RS1_(ptr noundef nonnull align 8 dereferenceable(600) %this, ptr noundef nonnull align 8 dereferenceable(16) %a, ptr noundef nonnull align 8 dereferenceable(16) %b, ptr noundef nonnull align 8 dereferenceable(16) %c, ptr noundef nonnull align 8 dereferenceable(16) %d) #6 comdat align 2 {
entry:
  %this.addr = alloca ptr, align 8
  %a.addr = alloca ptr, align 8
  %b.addr = alloca ptr, align 8
  %c.addr = alloca ptr, align 8
  %d.addr = alloca ptr, align 8
  %tmp = alloca %class.mpz, align 8
  store ptr %this, ptr %this.addr, align 8
  store ptr %a, ptr %a.addr, align 8
  store ptr %b, ptr %b.addr, align 8
  store ptr %c, ptr %c.addr, align 8
  store ptr %d, ptr %d.addr, align 8
  %this1 = load ptr, ptr %this.addr, align 8
  %0 = load ptr, ptr %b.addr, align 8
  %call = call noundef zeroext i1 @_ZN11mpz_managerILb1EE6is_oneERK3mpz(ptr noundef nonnull align 8 dereferenceable(16) %0)
  br i1 %call, label %if.then, label %if.else

if.then:                                          ; preds = %entry
  %1 = load ptr, ptr %a.addr, align 8
  %2 = load ptr, ptr %c.addr, align 8
  %3 = load ptr, ptr %d.addr, align 8
  call void @_ZN11mpz_managerILb1EE3subERK3mpzS3_RS1_(ptr noundef nonnull align 8 dereferenceable(600) %this1, ptr noundef nonnull align 8 dereferenceable(16) %1, ptr noundef nonnull align 8 dereferenceable(16) %2, ptr noundef nonnull align 8 dereferenceable(16) %3)
  br label %if.end5

if.else:                                          ; preds = %entry
  %4 = load ptr, ptr %b.addr, align 8
  %call2 = call noundef zeroext i1 @_ZN11mpz_managerILb1EE12is_minus_oneERK3mpz(ptr noundef nonnull align 8 dereferenceable(16) %4)
  br i1 %call2, label %if.then3, label %if.else4

if.then3:                                         ; preds = %if.else
  %5 = load ptr, ptr %a.addr, align 8
  %6 = load ptr, ptr %c.addr, align 8
  %7 = load ptr, ptr %d.addr, align 8
  call void @_ZN11mpz_managerILb1EE3addERK3mpzS3_RS1_(ptr noundef nonnull align 8 dereferenceable(600) %this1, ptr noundef nonnull align 8 dereferenceable(16) %5, ptr noundef nonnull align 8 dereferenceable(16) %6, ptr noundef nonnull align 8 dereferenceable(16) %7)
  br label %if.end

if.else4:                                         ; preds = %if.else
  call void @_ZN3mpzC2Ev(ptr noundef nonnull align 8 dereferenceable(16) %tmp)
  %8 = load ptr, ptr %b.addr, align 8
  %9 = load ptr, ptr %c.addr, align 8
  call void @_ZN11mpz_managerILb1EE3mulERK3mpzS3_RS1_(ptr noundef nonnull align 8 dereferenceable(600) %this1, ptr noundef nonnull align 8 dereferenceable(16) %8, ptr noundef nonnull align 8 dereferenceable(16) %9, ptr noundef nonnull align 8 dereferenceable(16) %tmp)
  %10 = load ptr, ptr %a.addr, align 8
  %11 = load ptr, ptr %d.addr, align 8
  call void @_ZN11mpz_managerILb1EE3subERK3mpzS3_RS1_(ptr noundef nonnull align 8 dereferenceable(600) %this1, ptr noundef nonnull align 8 dereferenceable(16) %10, ptr noundef nonnull align 8 dereferenceable(16) %tmp, ptr noundef nonnull align 8 dereferenceable(16) %11)
  call void @_ZN11mpz_managerILb1EE3delER3mpz(ptr noundef nonnull align 8 dereferenceable(600) %this1, ptr noundef nonnull align 8 dereferenceable(16) %tmp)
  br label %if.end

if.end:                                           ; preds = %if.else4, %if.then3
  br label %if.end5

if.end5:                                          ; preds = %if.end, %if.then
  ret void
}

; Function Attrs: mustprogress uwtable
define weak_odr hidden void @_ZN11mpz_managerILb1EE15machine_div_remERK3mpzS3_RS1_S4_(ptr noundef nonnull align 8 dereferenceable(600) %this, ptr noundef nonnull align 8 dereferenceable(16) %a, ptr noundef nonnull align 8 dereferenceable(16) %b, ptr noundef nonnull align 8 dereferenceable(16) %q, ptr noundef nonnull align 8 dereferenceable(16) %r) #6 comdat align 2 {
entry:
  %this.addr = alloca ptr, align 8
  %a.addr = alloca ptr, align 8
  %b.addr = alloca ptr, align 8
  %q.addr = alloca ptr, align 8
  %r.addr = alloca ptr, align 8
  %_a = alloca i64, align 8
  %_b = alloca i64, align 8
  store ptr %this, ptr %this.addr, align 8
  store ptr %a, ptr %a.addr, align 8
  store ptr %b, ptr %b.addr, align 8
  store ptr %q, ptr %q.addr, align 8
  store ptr %r, ptr %r.addr, align 8
  %this1 = load ptr, ptr %this.addr, align 8
  %0 = load ptr, ptr %a.addr, align 8
  %call = call noundef zeroext i1 @_ZN11mpz_managerILb1EE8is_smallERK3mpz(ptr noundef nonnull align 8 dereferenceable(16) %0)
  br i1 %call, label %land.lhs.true, label %if.else

land.lhs.true:                                    ; preds = %entry
  %1 = load ptr, ptr %b.addr, align 8
  %call2 = call noundef zeroext i1 @_ZN11mpz_managerILb1EE8is_smallERK3mpz(ptr noundef nonnull align 8 dereferenceable(16) %1)
  br i1 %call2, label %if.then, label %if.else

if.then:                                          ; preds = %land.lhs.true
  %2 = load ptr, ptr %a.addr, align 8
  %call3 = call noundef i64 @_ZN11mpz_managerILb1EE3i64ERK3mpz(ptr noundef nonnull align 8 dereferenceable(16) %2)
  store i64 %call3, ptr %_a, align 8
  %3 = load ptr, ptr %b.addr, align 8
  %call4 = call noundef i64 @_ZN11mpz_managerILb1EE3i64ERK3mpz(ptr noundef nonnull align 8 dereferenceable(16) %3)
  store i64 %call4, ptr %_b, align 8
  %4 = load ptr, ptr %q.addr, align 8
  %5 = load i64, ptr %_a, align 8
  %6 = load i64, ptr %_b, align 8
  %div = sdiv i64 %5, %6
  call void @_ZN11mpz_managerILb1EE7set_i64ER3mpzl(ptr noundef nonnull align 8 dereferenceable(600) %this1, ptr noundef nonnull align 8 dereferenceable(16) %4, i64 noundef %div)
  %7 = load ptr, ptr %r.addr, align 8
  %8 = load i64, ptr %_a, align 8
  %9 = load i64, ptr %_b, align 8
  %rem = srem i64 %8, %9
  call void @_ZN11mpz_managerILb1EE7set_i64ER3mpzl(ptr noundef nonnull align 8 dereferenceable(600) %this1, ptr noundef nonnull align 8 dereferenceable(16) %7, i64 noundef %rem)
  br label %if.end

if.else:                                          ; preds = %land.lhs.true, %entry
  %10 = load ptr, ptr %a.addr, align 8
  %11 = load ptr, ptr %b.addr, align 8
  %12 = load ptr, ptr %q.addr, align 8
  %13 = load ptr, ptr %r.addr, align 8
  call void @_ZN11mpz_managerILb1EE11big_div_remERK3mpzS3_RS1_S4_(ptr noundef nonnull align 8 dereferenceable(600) %this1, ptr noundef nonnull align 8 dereferenceable(16) %10, ptr noundef nonnull align 8 dereferenceable(16) %11, ptr noundef nonnull align 8 dereferenceable(16) %12, ptr noundef nonnull align 8 dereferenceable(16) %13)
  br label %if.end

if.end:                                           ; preds = %if.else, %if.then
  ret void
}

; Function Attrs: mustprogress uwtable
define weak_odr hidden void @_ZN11mpz_managerILb1EE11machine_divERK3mpzS3_RS1_(ptr noundef nonnull align 8 dereferenceable(600) %this, ptr noundef nonnull align 8 dereferenceable(16) %a, ptr noundef nonnull align 8 dereferenceable(16) %b, ptr noundef nonnull align 8 dereferenceable(16) %c) #6 comdat align 2 personality ptr @__gxx_personality_v0 {
entry:
  %this.addr = alloca ptr, align 8
  %a.addr = alloca ptr, align 8
  %b.addr = alloca ptr, align 8
  %c.addr = alloca ptr, align 8
  %ref.tmp = alloca %"class.std::__cxx11::basic_string", align 8
  %ref.tmp3 = alloca %"class.std::allocator", align 1
  %exn.slot = alloca ptr, align 8
  %ehselector.slot = alloca i32, align 4
  %cleanup.isactive = alloca i1, align 1
  store ptr %this, ptr %this.addr, align 8
  store ptr %a, ptr %a.addr, align 8
  store ptr %b, ptr %b.addr, align 8
  store ptr %c, ptr %c.addr, align 8
  %this1 = load ptr, ptr %this.addr, align 8
  %0 = load ptr, ptr %b.addr, align 8
  %call = call noundef zeroext i1 @_ZN11mpz_managerILb1EE8is_smallERK3mpz(ptr noundef nonnull align 8 dereferenceable(16) %0)
  br i1 %call, label %land.lhs.true, label %if.end

land.lhs.true:                                    ; preds = %entry
  %1 = load ptr, ptr %b.addr, align 8
  %call2 = call noundef i64 @_ZN11mpz_managerILb1EE3i64ERK3mpz(ptr noundef nonnull align 8 dereferenceable(16) %1)
  %cmp = icmp eq i64 %call2, 0
  br i1 %cmp, label %if.then, label %if.end

if.then:                                          ; preds = %land.lhs.true
  store i1 true, ptr %cleanup.isactive, align 1
  %exception = call ptr @__cxa_allocate_exception(i64 40) #3
  call void @_ZNSaIcEC1Ev(ptr noundef nonnull align 1 dereferenceable(1) %ref.tmp3) #3
  invoke void @_ZNSt7__cxx1112basic_stringIcSt11char_traitsIcESaIcEEC2IS3_EEPKcRKS3_(ptr noundef nonnull align 8 dereferenceable(32) %ref.tmp, ptr noundef @.str.1, ptr noundef nonnull align 1 dereferenceable(1) %ref.tmp3)
          to label %invoke.cont unwind label %lpad

invoke.cont:                                      ; preds = %if.then
  invoke void @_ZN17default_exceptionC2EONSt7__cxx1112basic_stringIcSt11char_traitsIcESaIcEEE(ptr noundef nonnull align 8 dereferenceable(40) %exception, ptr noundef nonnull align 8 dereferenceable(32) %ref.tmp)
          to label %invoke.cont5 unwind label %lpad4

invoke.cont5:                                     ; preds = %invoke.cont
  store i1 false, ptr %cleanup.isactive, align 1
  invoke void @__cxa_throw(ptr %exception, ptr @_ZTI17default_exception, ptr @_ZN17default_exceptionD2Ev) #12
          to label %unreachable unwind label %lpad4

lpad:                                             ; preds = %if.then
  %2 = landingpad { ptr, i32 }
          cleanup
  %3 = extractvalue { ptr, i32 } %2, 0
  store ptr %3, ptr %exn.slot, align 8
  %4 = extractvalue { ptr, i32 } %2, 1
  store i32 %4, ptr %ehselector.slot, align 4
  br label %ehcleanup

lpad4:                                            ; preds = %invoke.cont5, %invoke.cont
  %5 = landingpad { ptr, i32 }
          cleanup
  %6 = extractvalue { ptr, i32 } %5, 0
  store ptr %6, ptr %exn.slot, align 8
  %7 = extractvalue { ptr, i32 } %5, 1
  store i32 %7, ptr %ehselector.slot, align 4
  call void @_ZNSt7__cxx1112basic_stringIcSt11char_traitsIcESaIcEED1Ev(ptr noundef nonnull align 8 dereferenceable(32) %ref.tmp) #3
  br label %ehcleanup

ehcleanup:                                        ; preds = %lpad4, %lpad
  call void @_ZNSaIcED1Ev(ptr noundef nonnull align 1 dereferenceable(1) %ref.tmp3) #3
  %cleanup.is_active = load i1, ptr %cleanup.isactive, align 1
  br i1 %cleanup.is_active, label %cleanup.action, label %cleanup.done

cleanup.action:                                   ; preds = %ehcleanup
  call void @__cxa_free_exception(ptr %exception) #3
  br label %cleanup.done

cleanup.done:                                     ; preds = %cleanup.action, %ehcleanup
  br label %eh.resume

if.end:                                           ; preds = %land.lhs.true, %entry
  %8 = load ptr, ptr %a.addr, align 8
  %call7 = call noundef zeroext i1 @_ZN11mpz_managerILb1EE8is_smallERK3mpz(ptr noundef nonnull align 8 dereferenceable(16) %8)
  br i1 %call7, label %land.lhs.true8, label %if.else

land.lhs.true8:                                   ; preds = %if.end
  %9 = load ptr, ptr %b.addr, align 8
  %call9 = call noundef zeroext i1 @_ZN11mpz_managerILb1EE8is_smallERK3mpz(ptr noundef nonnull align 8 dereferenceable(16) %9)
  br i1 %call9, label %if.then10, label %if.else

if.then10:                                        ; preds = %land.lhs.true8
  %10 = load ptr, ptr %c.addr, align 8
  %11 = load ptr, ptr %a.addr, align 8
  %call11 = call noundef i64 @_ZN11mpz_managerILb1EE3i64ERK3mpz(ptr noundef nonnull align 8 dereferenceable(16) %11)
  %12 = load ptr, ptr %b.addr, align 8
  %call12 = call noundef i64 @_ZN11mpz_managerILb1EE3i64ERK3mpz(ptr noundef nonnull align 8 dereferenceable(16) %12)
  %div = sdiv i64 %call11, %call12
  call void @_ZN11mpz_managerILb1EE7set_i64ER3mpzl(ptr noundef nonnull align 8 dereferenceable(600) %this1, ptr noundef nonnull align 8 dereferenceable(16) %10, i64 noundef %div)
  br label %if.end13

if.else:                                          ; preds = %land.lhs.true8, %if.end
  %13 = load ptr, ptr %a.addr, align 8
  %14 = load ptr, ptr %b.addr, align 8
  %15 = load ptr, ptr %c.addr, align 8
  call void @_ZN11mpz_managerILb1EE7big_divERK3mpzS3_RS1_(ptr noundef nonnull align 8 dereferenceable(600) %this1, ptr noundef nonnull align 8 dereferenceable(16) %13, ptr noundef nonnull align 8 dereferenceable(16) %14, ptr noundef nonnull align 8 dereferenceable(16) %15)
  br label %if.end13

if.end13:                                         ; preds = %if.else, %if.then10
  ret void

eh.resume:                                        ; preds = %cleanup.done
  %exn = load ptr, ptr %exn.slot, align 8
  %sel = load i32, ptr %ehselector.slot, align 4
  %lpad.val = insertvalue { ptr, i32 } poison, ptr %exn, 0
  %lpad.val14 = insertvalue { ptr, i32 } %lpad.val, i32 %sel, 1
  resume { ptr, i32 } %lpad.val14

unreachable:                                      ; preds = %invoke.cont5
  unreachable
}

declare ptr @__cxa_allocate_exception(i64)

; Function Attrs: nounwind
declare void @_ZNSaIcEC1Ev(ptr noundef nonnull align 1 dereferenceable(1)) unnamed_addr #2

; Function Attrs: mustprogress uwtable
define linkonce_odr hidden void @_ZNSt7__cxx1112basic_stringIcSt11char_traitsIcESaIcEEC2IS3_EEPKcRKS3_(ptr noundef nonnull align 8 dereferenceable(32) %this, ptr noundef %__s, ptr noundef nonnull align 1 dereferenceable(1) %__a) unnamed_addr #6 comdat align 2 personality ptr @__gxx_personality_v0 {
entry:
  %this.addr = alloca ptr, align 8
  %__s.addr = alloca ptr, align 8
  %__a.addr = alloca ptr, align 8
  %exn.slot = alloca ptr, align 8
  %ehselector.slot = alloca i32, align 4
  %__end = alloca ptr, align 8
  store ptr %this, ptr %this.addr, align 8
  store ptr %__s, ptr %__s.addr, align 8
  store ptr %__a, ptr %__a.addr, align 8
  %this1 = load ptr, ptr %this.addr, align 8
  %_M_dataplus = getelementptr inbounds %"class.std::__cxx11::basic_string", ptr %this1, i32 0, i32 0
  %call = call noundef ptr @_ZNSt7__cxx1112basic_stringIcSt11char_traitsIcESaIcEE13_M_local_dataEv(ptr noundef nonnull align 8 dereferenceable(32) %this1)
  %0 = load ptr, ptr %__a.addr, align 8
  call void @_ZNSt7__cxx1112basic_stringIcSt11char_traitsIcESaIcEE12_Alloc_hiderC1EPcRKS3_(ptr noundef nonnull align 8 dereferenceable(8) %_M_dataplus, ptr noundef %call, ptr noundef nonnull align 1 dereferenceable(1) %0)
  %1 = load ptr, ptr %__s.addr, align 8
  %cmp = icmp eq ptr %1, null
  br i1 %cmp, label %if.then, label %if.end

if.then:                                          ; preds = %entry
  invoke void @_ZSt19__throw_logic_errorPKc(ptr noundef @.str.8) #12
          to label %invoke.cont unwind label %lpad

invoke.cont:                                      ; preds = %if.then
  unreachable

lpad:                                             ; preds = %invoke.cont2, %if.end, %if.then
  %2 = landingpad { ptr, i32 }
          cleanup
  %3 = extractvalue { ptr, i32 } %2, 0
  store ptr %3, ptr %exn.slot, align 8
  %4 = extractvalue { ptr, i32 } %2, 1
  store i32 %4, ptr %ehselector.slot, align 4
  call void @_ZNSt7__cxx1112basic_stringIcSt11char_traitsIcESaIcEE12_Alloc_hiderD2Ev(ptr noundef nonnull align 8 dereferenceable(8) %_M_dataplus) #3
  br label %eh.resume

if.end:                                           ; preds = %entry
  %5 = load ptr, ptr %__s.addr, align 8
  %6 = load ptr, ptr %__s.addr, align 8
  %call3 = invoke noundef i64 @_ZNSt11char_traitsIcE6lengthEPKc(ptr noundef %6)
          to label %invoke.cont2 unwind label %lpad

invoke.cont2:                                     ; preds = %if.end
  %add.ptr = getelementptr inbounds i8, ptr %5, i64 %call3
  store ptr %add.ptr, ptr %__end, align 8
  %7 = load ptr, ptr %__s.addr, align 8
  %8 = load ptr, ptr %__end, align 8
  invoke void @_ZNSt7__cxx1112basic_stringIcSt11char_traitsIcESaIcEE12_M_constructIPKcEEvT_S8_St20forward_iterator_tag(ptr noundef nonnull align 8 dereferenceable(32) %this1, ptr noundef %7, ptr noundef %8)
          to label %invoke.cont4 unwind label %lpad

invoke.cont4:                                     ; preds = %invoke.cont2
  ret void

eh.resume:                                        ; preds = %lpad
  %exn = load ptr, ptr %exn.slot, align 8
  %sel = load i32, ptr %ehselector.slot, align 4
  %lpad.val = insertvalue { ptr, i32 } poison, ptr %exn, 0
  %lpad.val5 = insertvalue { ptr, i32 } %lpad.val, i32 %sel, 1
  resume { ptr, i32 } %lpad.val5
}

; Function Attrs: mustprogress nounwind uwtable
define linkonce_odr hidden void @_ZN17default_exceptionC2EONSt7__cxx1112basic_stringIcSt11char_traitsIcESaIcEEE(ptr noundef nonnull align 8 dereferenceable(40) %this, ptr noundef nonnull align 8 dereferenceable(32) %msg) unnamed_addr #4 comdat align 2 {
entry:
  %this.addr = alloca ptr, align 8
  %msg.addr = alloca ptr, align 8
  store ptr %this, ptr %this.addr, align 8
  store ptr %msg, ptr %msg.addr, align 8
  %this1 = load ptr, ptr %this.addr, align 8
  call void @_ZN12z3_exceptionC2Ev(ptr noundef nonnull align 8 dereferenceable(8) %this1) #3
  store ptr getelementptr inbounds ({ [6 x ptr] }, ptr @_ZTV17default_exception, i32 0, inrange i32 0, i32 2), ptr %this1, align 8
  %m_msg = getelementptr inbounds %class.default_exception, ptr %this1, i32 0, i32 1
  %0 = load ptr, ptr %msg.addr, align 8
  call void @_ZNSt7__cxx1112basic_stringIcSt11char_traitsIcESaIcEEC1EOS4_(ptr noundef nonnull align 8 dereferenceable(32) %m_msg, ptr noundef nonnull align 8 dereferenceable(32) %0) #3
  ret void
}

; Function Attrs: mustprogress nounwind uwtable
define linkonce_odr hidden void @_ZN17default_exceptionD2Ev(ptr noundef nonnull align 8 dereferenceable(40) %this) unnamed_addr #4 comdat align 2 {
entry:
  %this.addr = alloca ptr, align 8
  store ptr %this, ptr %this.addr, align 8
  %this1 = load ptr, ptr %this.addr, align 8
  store ptr getelementptr inbounds ({ [6 x ptr] }, ptr @_ZTV17default_exception, i32 0, inrange i32 0, i32 2), ptr %this1, align 8
  %m_msg = getelementptr inbounds %class.default_exception, ptr %this1, i32 0, i32 1
  call void @_ZNSt7__cxx1112basic_stringIcSt11char_traitsIcESaIcEED1Ev(ptr noundef nonnull align 8 dereferenceable(32) %m_msg) #3
  call void @_ZN12z3_exceptionD2Ev(ptr noundef nonnull align 8 dereferenceable(8) %this1) #3
  ret void
}

declare void @__cxa_throw(ptr, ptr, ptr)

; Function Attrs: nounwind
declare void @_ZNSt7__cxx1112basic_stringIcSt11char_traitsIcESaIcEED1Ev(ptr noundef nonnull align 8 dereferenceable(32)) unnamed_addr #2

; Function Attrs: nounwind
declare void @_ZNSaIcED1Ev(ptr noundef nonnull align 1 dereferenceable(1)) unnamed_addr #2

declare void @__cxa_free_exception(ptr)

; Function Attrs: mustprogress uwtable
define weak_odr hidden void @_ZN11mpz_managerILb1EE3remERK3mpzS3_RS1_(ptr noundef nonnull align 8 dereferenceable(600) %this, ptr noundef nonnull align 8 dereferenceable(16) %a, ptr noundef nonnull align 8 dereferenceable(16) %b, ptr noundef nonnull align 8 dereferenceable(16) %c) #6 comdat align 2 {
entry:
  %this.addr = alloca ptr, align 8
  %a.addr = alloca ptr, align 8
  %b.addr = alloca ptr, align 8
  %c.addr = alloca ptr, align 8
  store ptr %this, ptr %this.addr, align 8
  store ptr %a, ptr %a.addr, align 8
  store ptr %b, ptr %b.addr, align 8
  store ptr %c, ptr %c.addr, align 8
  %this1 = load ptr, ptr %this.addr, align 8
  %0 = load ptr, ptr %a.addr, align 8
  %call = call noundef zeroext i1 @_ZN11mpz_managerILb1EE8is_smallERK3mpz(ptr noundef nonnull align 8 dereferenceable(16) %0)
  br i1 %call, label %land.lhs.true, label %if.else

land.lhs.true:                                    ; preds = %entry
  %1 = load ptr, ptr %b.addr, align 8
  %call2 = call noundef zeroext i1 @_ZN11mpz_managerILb1EE8is_smallERK3mpz(ptr noundef nonnull align 8 dereferenceable(16) %1)
  br i1 %call2, label %if.then, label %if.else

if.then:                                          ; preds = %land.lhs.true
  %2 = load ptr, ptr %c.addr, align 8
  %3 = load ptr, ptr %a.addr, align 8
  %call3 = call noundef i64 @_ZN11mpz_managerILb1EE3i64ERK3mpz(ptr noundef nonnull align 8 dereferenceable(16) %3)
  %4 = load ptr, ptr %b.addr, align 8
  %call4 = call noundef i64 @_ZN11mpz_managerILb1EE3i64ERK3mpz(ptr noundef nonnull align 8 dereferenceable(16) %4)
  %rem = srem i64 %call3, %call4
  call void @_ZN11mpz_managerILb1EE7set_i64ER3mpzl(ptr noundef nonnull align 8 dereferenceable(600) %this1, ptr noundef nonnull align 8 dereferenceable(16) %2, i64 noundef %rem)
  br label %if.end

if.else:                                          ; preds = %land.lhs.true, %entry
  %5 = load ptr, ptr %a.addr, align 8
  %6 = load ptr, ptr %b.addr, align 8
  %7 = load ptr, ptr %c.addr, align 8
  call void @_ZN11mpz_managerILb1EE7big_remERK3mpzS3_RS1_(ptr noundef nonnull align 8 dereferenceable(600) %this1, ptr noundef nonnull align 8 dereferenceable(16) %5, ptr noundef nonnull align 8 dereferenceable(16) %6, ptr noundef nonnull align 8 dereferenceable(16) %7)
  br label %if.end

if.end:                                           ; preds = %if.else, %if.then
  ret void
}

; Function Attrs: mustprogress uwtable
define weak_odr hidden void @_ZN11mpz_managerILb1EE7div_gcdERK3mpzS3_RS1_(ptr noundef nonnull align 8 dereferenceable(600) %this, ptr noundef nonnull align 8 dereferenceable(16) %a, ptr noundef nonnull align 8 dereferenceable(16) %b, ptr noundef nonnull align 8 dereferenceable(16) %c) #6 comdat align 2 {
entry:
  %this.addr = alloca ptr, align 8
  %a.addr = alloca ptr, align 8
  %b.addr = alloca ptr, align 8
  %c.addr = alloca ptr, align 8
  store ptr %this, ptr %this.addr, align 8
  store ptr %a, ptr %a.addr, align 8
  store ptr %b, ptr %b.addr, align 8
  store ptr %c, ptr %c.addr, align 8
  %this1 = load ptr, ptr %this.addr, align 8
  %0 = load ptr, ptr %b.addr, align 8
  %call = call noundef zeroext i1 @_ZN11mpz_managerILb1EE6is_oneERK3mpz(ptr noundef nonnull align 8 dereferenceable(16) %0)
  br i1 %call, label %if.then, label %if.else

if.then:                                          ; preds = %entry
  %1 = load ptr, ptr %c.addr, align 8
  %2 = load ptr, ptr %a.addr, align 8
  call void @_ZN11mpz_managerILb1EE3setER3mpzRKS1_(ptr noundef nonnull align 8 dereferenceable(600) %this1, ptr noundef nonnull align 8 dereferenceable(16) %1, ptr noundef nonnull align 8 dereferenceable(16) %2)
  br label %if.end

if.else:                                          ; preds = %entry
  %3 = load ptr, ptr %a.addr, align 8
  %4 = load ptr, ptr %b.addr, align 8
  %5 = load ptr, ptr %c.addr, align 8
  call void @_ZN11mpz_managerILb1EE11machine_divERK3mpzS3_RS1_(ptr noundef nonnull align 8 dereferenceable(600) %this1, ptr noundef nonnull align 8 dereferenceable(16) %3, ptr noundef nonnull align 8 dereferenceable(16) %4, ptr noundef nonnull align 8 dereferenceable(16) %5)
  br label %if.end

if.end:                                           ; preds = %if.else, %if.then
  ret void
}

; Function Attrs: mustprogress uwtable
define weak_odr hidden void @_ZN11mpz_managerILb1EE3setER3mpzRKS1_(ptr noundef nonnull align 8 dereferenceable(600) %this, ptr noundef nonnull align 8 dereferenceable(16) %target, ptr noundef nonnull align 8 dereferenceable(16) %source) #6 comdat align 2 {
entry:
  %this.addr = alloca ptr, align 8
  %target.addr = alloca ptr, align 8
  %source.addr = alloca ptr, align 8
  store ptr %this, ptr %this.addr, align 8
  store ptr %target, ptr %target.addr, align 8
  store ptr %source, ptr %source.addr, align 8
  %this1 = load ptr, ptr %this.addr, align 8
  %0 = load ptr, ptr %source.addr, align 8
  %call = call noundef zeroext i1 @_ZN11mpz_managerILb1EE8is_smallERK3mpz(ptr noundef nonnull align 8 dereferenceable(16) %0)
  br i1 %call, label %if.then, label %if.else

if.then:                                          ; preds = %entry
  %1 = load ptr, ptr %source.addr, align 8
  %m_val = getelementptr inbounds %class.mpz, ptr %1, i32 0, i32 0
  %2 = load i32, ptr %m_val, align 8
  %3 = load ptr, ptr %target.addr, align 8
  %m_val2 = getelementptr inbounds %class.mpz, ptr %3, i32 0, i32 0
  store i32 %2, ptr %m_val2, align 8
  %4 = load ptr, ptr %target.addr, align 8
  %m_kind = getelementptr inbounds %class.mpz, ptr %4, i32 0, i32 1
  %bf.load = load i8, ptr %m_kind, align 4
  %bf.clear = and i8 %bf.load, -2
  %bf.set = or i8 %bf.clear, 0
  store i8 %bf.set, ptr %m_kind, align 4
  br label %if.end

if.else:                                          ; preds = %entry
  %5 = load ptr, ptr %target.addr, align 8
  %6 = load ptr, ptr %source.addr, align 8
  call void @_ZN11mpz_managerILb1EE7big_setER3mpzRKS1_(ptr noundef nonnull align 8 dereferenceable(600) %this1, ptr noundef nonnull align 8 dereferenceable(16) %5, ptr noundef nonnull align 8 dereferenceable(16) %6)
  br label %if.end

if.end:                                           ; preds = %if.else, %if.then
  ret void
}

; Function Attrs: mustprogress uwtable
define weak_odr hidden void @_ZN11mpz_managerILb1EE3divERK3mpzS3_RS1_(ptr noundef nonnull align 8 dereferenceable(600) %this, ptr noundef nonnull align 8 dereferenceable(16) %a, ptr noundef nonnull align 8 dereferenceable(16) %b, ptr noundef nonnull align 8 dereferenceable(16) %c) #6 comdat align 2 {
entry:
  %this.addr = alloca ptr, align 8
  %a.addr = alloca ptr, align 8
  %b.addr = alloca ptr, align 8
  %c.addr = alloca ptr, align 8
  %tmp = alloca %class.mpz, align 8
  %ref.tmp = alloca %class.mpz, align 8
  %ref.tmp9 = alloca %class.mpz, align 8
  store ptr %this, ptr %this.addr, align 8
  store ptr %a, ptr %a.addr, align 8
  store ptr %b, ptr %b.addr, align 8
  store ptr %c, ptr %c.addr, align 8
  %this1 = load ptr, ptr %this.addr, align 8
  %0 = load ptr, ptr %b.addr, align 8
  %call = call noundef zeroext i1 @_ZN11mpz_managerILb1EE6is_oneERK3mpz(ptr noundef nonnull align 8 dereferenceable(16) %0)
  br i1 %call, label %if.then, label %if.else

if.then:                                          ; preds = %entry
  %1 = load ptr, ptr %c.addr, align 8
  %2 = load ptr, ptr %a.addr, align 8
  call void @_ZN11mpz_managerILb1EE3setER3mpzRKS1_(ptr noundef nonnull align 8 dereferenceable(600) %this1, ptr noundef nonnull align 8 dereferenceable(16) %1, ptr noundef nonnull align 8 dereferenceable(16) %2)
  br label %if.end13

if.else:                                          ; preds = %entry
  %3 = load ptr, ptr %a.addr, align 8
  %call2 = call noundef zeroext i1 @_ZN11mpz_managerILb1EE6is_negERK3mpz(ptr noundef nonnull align 8 dereferenceable(16) %3)
  br i1 %call2, label %if.then3, label %if.else11

if.then3:                                         ; preds = %if.else
  call void @_ZN3mpzC2Ev(ptr noundef nonnull align 8 dereferenceable(16) %tmp)
  %4 = load ptr, ptr %a.addr, align 8
  %5 = load ptr, ptr %b.addr, align 8
  %6 = load ptr, ptr %c.addr, align 8
  call void @_ZN11mpz_managerILb1EE15machine_div_remERK3mpzS3_RS1_S4_(ptr noundef nonnull align 8 dereferenceable(600) %this1, ptr noundef nonnull align 8 dereferenceable(16) %4, ptr noundef nonnull align 8 dereferenceable(16) %5, ptr noundef nonnull align 8 dereferenceable(16) %6, ptr noundef nonnull align 8 dereferenceable(16) %tmp)
  %call4 = call noundef zeroext i1 @_ZN11mpz_managerILb1EE7is_zeroERK3mpz(ptr noundef nonnull align 8 dereferenceable(16) %tmp)
  br i1 %call4, label %if.end10, label %if.then5

if.then5:                                         ; preds = %if.then3
  %7 = load ptr, ptr %b.addr, align 8
  %call6 = call noundef zeroext i1 @_ZN11mpz_managerILb1EE6is_negERK3mpz(ptr noundef nonnull align 8 dereferenceable(16) %7)
  br i1 %call6, label %if.then7, label %if.else8

if.then7:                                         ; preds = %if.then5
  %8 = load ptr, ptr %c.addr, align 8
  call void @_ZN11mpz_managerILb1EE4mk_zEi(ptr sret(%class.mpz) align 8 %ref.tmp, i32 noundef 1)
  %9 = load ptr, ptr %c.addr, align 8
  call void @_ZN11mpz_managerILb1EE3addERK3mpzS3_RS1_(ptr noundef nonnull align 8 dereferenceable(600) %this1, ptr noundef nonnull align 8 dereferenceable(16) %8, ptr noundef nonnull align 8 dereferenceable(16) %ref.tmp, ptr noundef nonnull align 8 dereferenceable(16) %9)
  br label %if.end

if.else8:                                         ; preds = %if.then5
  %10 = load ptr, ptr %c.addr, align 8
  call void @_ZN11mpz_managerILb1EE4mk_zEi(ptr sret(%class.mpz) align 8 %ref.tmp9, i32 noundef 1)
  %11 = load ptr, ptr %c.addr, align 8
  call void @_ZN11mpz_managerILb1EE3subERK3mpzS3_RS1_(ptr noundef nonnull align 8 dereferenceable(600) %this1, ptr noundef nonnull align 8 dereferenceable(16) %10, ptr noundef nonnull align 8 dereferenceable(16) %ref.tmp9, ptr noundef nonnull align 8 dereferenceable(16) %11)
  br label %if.end

if.end:                                           ; preds = %if.else8, %if.then7
  br label %if.end10

if.end10:                                         ; preds = %if.end, %if.then3
  call void @_ZN11mpz_managerILb1EE3delER3mpz(ptr noundef nonnull align 8 dereferenceable(600) %this1, ptr noundef nonnull align 8 dereferenceable(16) %tmp)
  br label %if.end12

if.else11:                                        ; preds = %if.else
  %12 = load ptr, ptr %a.addr, align 8
  %13 = load ptr, ptr %b.addr, align 8
  %14 = load ptr, ptr %c.addr, align 8
  call void @_ZN11mpz_managerILb1EE11machine_divERK3mpzS3_RS1_(ptr noundef nonnull align 8 dereferenceable(600) %this1, ptr noundef nonnull align 8 dereferenceable(16) %12, ptr noundef nonnull align 8 dereferenceable(16) %13, ptr noundef nonnull align 8 dereferenceable(16) %14)
  br label %if.end12

if.end12:                                         ; preds = %if.else11, %if.end10
  br label %if.end13

if.end13:                                         ; preds = %if.end12, %if.then
  ret void
}

; Function Attrs: mustprogress uwtable
define weak_odr hidden noundef zeroext i1 @_ZN11mpz_managerILb1EE6is_negERK3mpz(ptr noundef nonnull align 8 dereferenceable(16) %a) #6 comdat align 2 {
entry:
  %a.addr = alloca ptr, align 8
  store ptr %a, ptr %a.addr, align 8
  %0 = load ptr, ptr %a.addr, align 8
  %call = call noundef i32 @_ZN11mpz_managerILb1EE4signERK3mpz(ptr noundef nonnull align 8 dereferenceable(16) %0)
  %cmp = icmp slt i32 %call, 0
  ret i1 %cmp
}

; Function Attrs: mustprogress uwtable
define weak_odr hidden noundef zeroext i1 @_ZN11mpz_managerILb1EE7is_zeroERK3mpz(ptr noundef nonnull align 8 dereferenceable(16) %a) #6 comdat align 2 {
entry:
  %a.addr = alloca ptr, align 8
  store ptr %a, ptr %a.addr, align 8
  %0 = load ptr, ptr %a.addr, align 8
  %call = call noundef i32 @_ZN11mpz_managerILb1EE4signERK3mpz(ptr noundef nonnull align 8 dereferenceable(16) %0)
  %cmp = icmp eq i32 %call, 0
  ret i1 %cmp
}

; Function Attrs: mustprogress uwtable
define weak_odr hidden void @_ZN11mpz_managerILb1EE3modERK3mpzS3_RS1_(ptr noundef nonnull align 8 dereferenceable(600) %this, ptr noundef nonnull align 8 dereferenceable(16) %a, ptr noundef nonnull align 8 dereferenceable(16) %b, ptr noundef nonnull align 8 dereferenceable(16) %c) #6 comdat align 2 {
entry:
  %this.addr = alloca ptr, align 8
  %a.addr = alloca ptr, align 8
  %b.addr = alloca ptr, align 8
  %c.addr = alloca ptr, align 8
  store ptr %this, ptr %this.addr, align 8
  store ptr %a, ptr %a.addr, align 8
  store ptr %b, ptr %b.addr, align 8
  store ptr %c, ptr %c.addr, align 8
  %this1 = load ptr, ptr %this.addr, align 8
  %0 = load ptr, ptr %a.addr, align 8
  %1 = load ptr, ptr %b.addr, align 8
  %2 = load ptr, ptr %c.addr, align 8
  call void @_ZN11mpz_managerILb1EE3remERK3mpzS3_RS1_(ptr noundef nonnull align 8 dereferenceable(600) %this1, ptr noundef nonnull align 8 dereferenceable(16) %0, ptr noundef nonnull align 8 dereferenceable(16) %1, ptr noundef nonnull align 8 dereferenceable(16) %2)
  %3 = load ptr, ptr %c.addr, align 8
  %call = call noundef zeroext i1 @_ZN11mpz_managerILb1EE6is_negERK3mpz(ptr noundef nonnull align 8 dereferenceable(16) %3)
  br i1 %call, label %if.then, label %if.end4

if.then:                                          ; preds = %entry
  %4 = load ptr, ptr %b.addr, align 8
  %call2 = call noundef zeroext i1 @_ZN11mpz_managerILb1EE6is_posERK3mpz(ptr noundef nonnull align 8 dereferenceable(16) %4)
  br i1 %call2, label %if.then3, label %if.else

if.then3:                                         ; preds = %if.then
  %5 = load ptr, ptr %c.addr, align 8
  %6 = load ptr, ptr %b.addr, align 8
  %7 = load ptr, ptr %c.addr, align 8
  call void @_ZN11mpz_managerILb1EE3addERK3mpzS3_RS1_(ptr noundef nonnull align 8 dereferenceable(600) %this1, ptr noundef nonnull align 8 dereferenceable(16) %5, ptr noundef nonnull align 8 dereferenceable(16) %6, ptr noundef nonnull align 8 dereferenceable(16) %7)
  br label %if.end

if.else:                                          ; preds = %if.then
  %8 = load ptr, ptr %c.addr, align 8
  %9 = load ptr, ptr %b.addr, align 8
  %10 = load ptr, ptr %c.addr, align 8
  call void @_ZN11mpz_managerILb1EE3subERK3mpzS3_RS1_(ptr noundef nonnull align 8 dereferenceable(600) %this1, ptr noundef nonnull align 8 dereferenceable(16) %8, ptr noundef nonnull align 8 dereferenceable(16) %9, ptr noundef nonnull align 8 dereferenceable(16) %10)
  br label %if.end

if.end:                                           ; preds = %if.else, %if.then3
  br label %if.end4

if.end4:                                          ; preds = %if.end, %entry
  ret void
}

; Function Attrs: mustprogress uwtable
define weak_odr hidden noundef zeroext i1 @_ZN11mpz_managerILb1EE6is_posERK3mpz(ptr noundef nonnull align 8 dereferenceable(16) %a) #6 comdat align 2 {
entry:
  %a.addr = alloca ptr, align 8
  store ptr %a, ptr %a.addr, align 8
  %0 = load ptr, ptr %a.addr, align 8
  %call = call noundef i32 @_ZN11mpz_managerILb1EE4signERK3mpz(ptr noundef nonnull align 8 dereferenceable(16) %0)
  %cmp = icmp sgt i32 %call, 0
  ret i1 %cmp
}

; Function Attrs: mustprogress uwtable
define weak_odr hidden void @_ZN11mpz_managerILb1EE3negER3mpz(ptr noundef nonnull align 8 dereferenceable(600) %this, ptr noundef nonnull align 8 dereferenceable(16) %a) #6 comdat align 2 {
entry:
  %this.addr = alloca ptr, align 8
  %a.addr = alloca ptr, align 8
  store ptr %this, ptr %this.addr, align 8
  store ptr %a, ptr %a.addr, align 8
  %this1 = load ptr, ptr %this.addr, align 8
  %0 = load ptr, ptr %a.addr, align 8
  %call = call noundef zeroext i1 @_ZN11mpz_managerILb1EE8is_smallERK3mpz(ptr noundef nonnull align 8 dereferenceable(16) %0)
  br i1 %call, label %land.lhs.true, label %if.end

land.lhs.true:                                    ; preds = %entry
  %1 = load ptr, ptr %a.addr, align 8
  %m_val = getelementptr inbounds %class.mpz, ptr %1, i32 0, i32 0
  %2 = load i32, ptr %m_val, align 8
  %cmp = icmp eq i32 %2, -2147483648
  br i1 %cmp, label %if.then, label %if.end

if.then:                                          ; preds = %land.lhs.true
  %3 = load ptr, ptr %a.addr, align 8
  call void @_ZN11mpz_managerILb1EE11set_big_i64ER3mpzl(ptr noundef nonnull align 8 dereferenceable(600) %this1, ptr noundef nonnull align 8 dereferenceable(16) %3, i64 noundef 2147483648)
  br label %return

if.end:                                           ; preds = %land.lhs.true, %entry
  %4 = load ptr, ptr %a.addr, align 8
  %m_val2 = getelementptr inbounds %class.mpz, ptr %4, i32 0, i32 0
  %5 = load i32, ptr %m_val2, align 8
  %sub = sub nsw i32 0, %5
  %6 = load ptr, ptr %a.addr, align 8
  %m_val3 = getelementptr inbounds %class.mpz, ptr %6, i32 0, i32 0
  store i32 %sub, ptr %m_val3, align 8
  br label %return

return:                                           ; preds = %if.end, %if.then
  ret void
}

; Function Attrs: mustprogress uwtable
define weak_odr hidden void @_ZN11mpz_managerILb1EE3absER3mpz(ptr noundef nonnull align 8 dereferenceable(600) %this, ptr noundef nonnull align 8 dereferenceable(16) %a) #6 comdat align 2 {
entry:
  %this.addr = alloca ptr, align 8
  %a.addr = alloca ptr, align 8
