target datalayout = "e-m:e-p270:32:32-p271:32:32-p272:64:64-i64:64-i128:128-f80:128-n8:16:32:64-S128"
target triple = "x86_64-unknown-linux-gnu"

%"class.std::ios_base::Init" = type { i8 }
%"class.sat::literal" = type { i32 }
%"class.smt::eq_justification" = type { ptr }
%"class.smt::b_justification" = type { ptr }
%class.symbol = type { ptr }
%struct.app_flags = type { i24 }
%class.rational = type { %class.mpq }
%class.mpq = type { %class.mpz, %class.mpz }
%class.mpz = type { i32, i8, ptr }
%"struct.std::in_place_index_t" = type { i8 }
%class.inf_rational = type { %class.rational, %class.rational }
%"class.opt::context::scoped_state" = type { ptr, %class.arith_util, %class.bv_util, %class.svector, %class.svector, %class.svector, %class.svector, %class.svector, %class.map, %class.ref_vector, %class.ref_vector, %class.vector.1 }
%class.arith_util = type { ptr, ptr }
%class.bv_util = type { %class.bv_recognizers, ptr, ptr }
%class.bv_recognizers = type { i32 }
%class.svector = type { %class.vector }
%class.vector = type { ptr }
%class.map = type { %class.table2map }
%class.table2map = type { %class.core_hashtable }
%class.core_hashtable = type <{ ptr, i32, i32, i32, [4 x i8] }>
%class.ref_vector = type { %class.ref_vector_core }
%class.ref_vector_core = type { %class.ref_manager_wrapper, %class.ptr_vector }
%class.ref_manager_wrapper = type { ptr }
%class.ptr_vector = type { %class.vector.0 }
%class.vector.0 = type { ptr }
%class.vector.1 = type { ptr }
%"struct.opt::context::objective" = type <{ i32, [4 x i8], %class.obj_ref, %class.ref_vector, %class.vector.2, %"class.opt::adjust_value", %class.symbol, i32, [4 x i8] }>
%class.obj_ref = type { ptr, ptr }
%class.vector.2 = type { ptr }
%"class.opt::adjust_value" = type <{ %class.rational, i8, [7 x i8] }>
%"class.std::__cxx11::basic_string" = type { %"struct.std::__cxx11::basic_string<char>::_Alloc_hider", i64, %union.anon }
%"struct.std::__cxx11::basic_string<char>::_Alloc_hider" = type { ptr }
%union.anon = type { i64, [8 x i8] }
%"class.std::allocator" = type { i8 }
%class.default_exception = type { %class.z3_exception, %"class.std::__cxx11::basic_string" }
%class.z3_exception = type { ptr }
%struct._key_data.161 = type <{ %class.symbol, i32, [4 x i8] }>
%struct.symbol_hash_proc = type { i8 }
%struct.symbol_eq_proc = type { i8 }
%class.params_ref = type { ptr }
%"class.opt::context" = type { %class.opt_wrapper, %"class.opt::pareto_callback", %"class.opt::maxsat_context", double, %"struct.opt::on_model_t", %"class.std::function", i8, %class.arith_util, %class.bv_util, %class.ref_vector, %class.ref.34, %class.ref.35, %class.ref.35, %class.scoped_ptr, i8, %class.scoped_ptr.36, %class.ref_vector_core.37, i32, %class.params_ref, %"class.opt::optsmt", %class.map.47, %"class.opt::context::scoped_state", %class.vector.1, %class.ref.46, %class.ref, %class.ref.51, %class.ref_vector_core.37, i32, [4 x i8], %class.obj_map.52, %class.obj_map.57, %class.ref_vector.62, %class.ref_vector, %class.ref.67, i8, i8, i8, i8, i8, i8, %class.symbol, %class.symbol, %class.svector.12, %"class.std::__cxx11::basic_string" }
%class.opt_wrapper = type { %class.check_sat_result }
%class.check_sat_result = type { ptr, ptr, %class.ref_vector, %class.obj_ref, i32, i32, %class.ref, double }
%"class.opt::pareto_callback" = type { ptr }
%"class.opt::maxsat_context" = type { ptr }
%"struct.opt::on_model_t" = type { ptr, ptr, ptr, ptr }
%"class.std::function" = type { %"class.std::_Function_base", ptr }
%"class.std::_Function_base" = type { %"union.std::_Any_data", ptr }
%"union.std::_Any_data" = type { %"union.std::_Nocopy_types" }
%"union.std::_Nocopy_types" = type { { i64, i64 } }
%class.ref.34 = type { ptr }
%class.ref.35 = type { ptr }
%class.scoped_ptr = type { ptr }
%class.scoped_ptr.36 = type { ptr }
%"class.opt::optsmt" = type { ptr, ptr, ptr, %class.vector.40, %class.vector.40, %class.ref_vector.41, %class.ref_vector, %class.svector.10, %class.symbol, %class.ref.46, %class.ref.46, %class.svector.12, %class.ref_vector_core.37 }
%class.vector.40 = type { ptr }
%class.ref_vector.41 = type { %class.ref_vector_core.42 }
%class.ref_vector_core.42 = type { %class.ref_manager_wrapper.43, %class.ptr_vector.44 }
%class.ref_manager_wrapper.43 = type { ptr }
%class.ptr_vector.44 = type { %class.vector.45 }
%class.vector.45 = type { ptr }
%class.svector.10 = type { %class.vector.11 }
%class.vector.11 = type { ptr }
%class.map.47 = type { %class.table2map.48 }
%class.table2map.48 = type { %class.core_hashtable.49 }
%class.core_hashtable.49 = type <{ ptr, i32, i32, i32, [4 x i8] }>
%class.ref.46 = type { ptr }
%class.ref = type { ptr }
%class.ref.51 = type { ptr }
%class.ref_vector_core.37 = type { %class.ptr_vector.38 }
%class.ptr_vector.38 = type { %class.vector.39 }
%class.vector.39 = type { ptr }
%class.obj_map.52 = type { %class.core_hashtable.53 }
%class.core_hashtable.53 = type <{ ptr, i32, i32, i32, [4 x i8] }>
%class.obj_map.57 = type { %class.core_hashtable.58 }
%class.core_hashtable.58 = type <{ ptr, i32, i32, i32, [4 x i8] }>
%class.ref_vector.62 = type { %class.ref_vector_core.63 }
%class.ref_vector_core.63 = type { %class.ref_manager_wrapper.64, %class.ptr_vector.65 }
%class.ref_manager_wrapper.64 = type { ptr }
%class.ptr_vector.65 = type { %class.vector.66 }
%class.vector.66 = type { ptr }
%class.ref.67 = type { ptr }
%class.svector.12 = type { %class.vector.13 }
%class.vector.13 = type { ptr }
%class.generic_model_converter = type { %class.model_converter.base, ptr, %"class.std::__cxx11::basic_string", %class.vector.68 }
%class.model_converter.base = type <{ %class.converter.base, [4 x i8], ptr, i8 }>
%class.converter.base = type <{ ptr, i32 }>
%class.vector.68 = type { ptr }
%struct.obj_hash.54 = type { i8 }
%struct.default_eq.55 = type { i8 }
%struct.obj_hash.59 = type { i8 }
%struct.default_eq.60 = type { i8 }
%"class.core_hashtable<default_map_entry<symbol, opt::maxsmt *>, table2map<default_map_entry<symbol, opt::maxsmt *>, symbol_hash_proc, symbol_eq_proc>::entry_hash_proc, table2map<default_map_entry<symbol, opt::maxsmt *>, symbol_hash_proc, symbol_eq_proc>::entry_eq_proc>::iterator" = type { ptr, ptr }
%struct._key_data = type { %class.symbol, ptr }
%class.default_map_entry.162 = type { %class.default_hash_entry.163 }
%class.default_hash_entry.163 = type { i32, i32, %struct._key_data }
%class.inf_eps_rational = type { %class.rational, %class.inf_rational }
%class.obj_ref.76 = type { ptr, ptr }
%"class.opt::context::scoped_time" = type { ptr, %class.timer }
%class.timer = type { %class.stopwatch }
%class.stopwatch = type <{ %"class.std::chrono::time_point", %"class.std::chrono::duration", i8, [7 x i8] }>
%"class.std::chrono::time_point" = type { %"class.std::chrono::duration" }
%"class.std::chrono::duration" = type { i64 }
%struct.opt_params = type { ptr, %class.params_ref }
%"class.solver::scoped_push" = type <{ ptr, i8, [7 x i8] }>
%class.ast_manager = type { %class.reslimit, %class.small_object_allocator, %class.family_manager, %class.parray_manager, %class.dependency_manager, %class.parray_manager.18, %class.ptr_vector.21, i32, i8, %class.ast_table, %class.obj_map, %class.id_gen, %class.id_gen, ptr, ptr, ptr, ptr, ptr, i32, i8, [3 x i8], %class.u_map, ptr, i8, i8, ptr, %class.symbol, %class.obj_map.29, ptr }
%class.reslimit = type { %"struct.std::atomic", i8, i64, i64, %class.svector.3, %class.ptr_vector.5 }
%"struct.std::atomic" = type { %"struct.std::__atomic_base" }
%"struct.std::__atomic_base" = type { i32 }
%class.svector.3 = type { %class.vector.4 }
%class.vector.4 = type { ptr }
%class.ptr_vector.5 = type { %class.vector.6 }
%class.vector.6 = type { ptr }
%class.small_object_allocator = type { [32 x ptr], [32 x ptr], i64 }
%class.family_manager = type { i32, %class.symbol_table, %class.svector.12 }
%class.symbol_table = type { %class.core_hashtable.7, %class.vector.9, %class.svector.10 }
%class.core_hashtable.7 = type <{ ptr, i32, i32, i32, [4 x i8] }>
%class.vector.9 = type { ptr }
%class.parray_manager = type { ptr, ptr, %class.ptr_vector.14, %class.ptr_vector.14 }
%class.ptr_vector.14 = type { %class.vector.15 }
%class.vector.15 = type { ptr }
%class.dependency_manager = type { ptr, ptr, %class.ptr_vector.16 }
%class.ptr_vector.16 = type { %class.vector.17 }
%class.vector.17 = type { ptr }
%class.parray_manager.18 = type { ptr, ptr, %class.ptr_vector.19, %class.ptr_vector.19 }
%class.ptr_vector.19 = type { %class.vector.20 }
%class.vector.20 = type { ptr }
%class.ptr_vector.21 = type { %class.vector.22 }
%class.vector.22 = type { ptr }
%class.ast_table = type { %class.chashtable }
%class.chashtable = type { ptr, i32, i32, i32, i32, i32, i32, i32, ptr, ptr, ptr }
%class.obj_map = type { %class.core_hashtable.23 }
%class.core_hashtable.23 = type <{ ptr, i32, i32, i32, [4 x i8] }>
%class.id_gen = type { i32, %class.svector }
%class.u_map = type { %class.map.25 }
%class.map.25 = type { %class.table2map.26 }
%class.table2map.26 = type { %class.core_hashtable.27 }
%class.core_hashtable.27 = type <{ ptr, i32, i32, i32, [4 x i8] }>
%class.obj_map.29 = type { %class.core_hashtable.30 }
%class.core_hashtable.30 = type <{ ptr, i32, i32, i32, [4 x i8] }>
%struct.sat_params = type { ptr, %class.params_ref }
%"class.opt::opt_solver" = type <{ %class.solver_na2as, %struct.smt_params, %"class.smt::kernel", ptr, ptr, ptr, %class.symbol, %class.ref.46, %class.svector.10, %class.vector.40, %class.ref_vector_core.37, %class.ref_vector, i8, [7 x i8], %class.statistics, i8, i8, [6 x i8] }>
%class.solver_na2as = type { %class.solver, %class.ref_vector, %class.svector }
%class.solver = type { %class.check_sat_result, %"class.user_propagator::core", %class.params_ref, %class.symbol }
%"class.user_propagator::core" = type { ptr }
%struct.smt_params = type { %struct.preprocessor_params.base, %struct.dyn_ack_params, %struct.qi_params, %struct.theory_arith_params.base, i8, %struct.theory_array_params.base, %struct.theory_bv_params, %struct.theory_str_params.base, %struct.theory_seq_params, %struct.theory_pb_params.base, %struct.theory_datatype_params, i8, i8, i8, i8, i8, i8, i32, i8, i32, double, double, i32, i32, i32, i32, i32, i8, i32, i32, i32, i32, i32, i32, i8, i32, i8, i8, i8, i8, i8, %class.symbol, i32, i32, i8, i8, i8, i8, i32, i8, i32, i32, double, i8, double, double, i32, i8, i32, i32, double, i32, i32, i32, i32, i32, double, i8, i8, i8, %class.symbol, i8, i8, i8, i8, i8, i8, i32, i8, i8, i8, i8, i8, i8, i8, i8, i8, double, i8, %class.symbol }
%struct.preprocessor_params.base = type <{ %struct.pattern_inference_params.base, %struct.bit_blaster_params, i32, i32, i8, i8, i8, i8, i8, i8, i8, i8, i8, i8, i8, i8, i8, i8, i8, i8, i8, i8, i8 }>
%struct.pattern_inference_params.base = type <{ i8, [3 x i8], i32, i8, i8, [2 x i8], i32, i8, [3 x i8], i32, i32, i8, [3 x i8], i32, i8, i8 }>
%struct.bit_blaster_params = type { i8, i8 }
%struct.dyn_ack_params = type { i32, i8, double, i32, i32, double }
%struct.qi_params = type { %"class.std::__cxx11::basic_string", %"class.std::__cxx11::basic_string", double, double, i32, i32, i8, i32, i32, i8, i8, i32, i8, i8, i8, i8, i32, i32, i32, i8, i32, ptr }
%struct.theory_arith_params.base = type <{ i8, i8, [2 x i8], i32, i8, [3 x i8], i32, i8, [3 x i8], i32, i8, i8, [2 x i8], i32, i32, i8, i8, [2 x i8], i32, i32, i8, [3 x i8], i32, i32, i8, [3 x i8], double, double, i8, [3 x i8], i32, i8, i8, i8, i8, i8, [3 x i8], i32, i32, i8, [3 x i8], i32, i8, i8, i8, i8, i8, i8, [2 x i8], i32, i8, i8, [2 x i8], i32, i8, [3 x i8], i32, i8, i8, i8 }>
%struct.theory_array_params.base = type <{ i8, i8, [2 x i8], i32, i8, i8, [2 x i8], i32, i8, i8, i8, i8, i32, i8 }>
%struct.theory_bv_params = type { i32, i8, i8, i8, i8, i32, i8, i8, i8, i8, i32 }
%struct.theory_str_params.base = type <{ i8, i8, i8, i8, i8, i8, i8, i8, double, i32, i32, i32, i32, i32, i8, i8 }>
%struct.theory_seq_params = type { i8, i8, i32, i32 }
%struct.theory_pb_params.base = type <{ i32, i8 }>
%struct.theory_datatype_params = type { i32 }
%"class.smt::kernel" = type { ptr }
%class.statistics = type { %class.svector.77, %class.svector.79 }
%class.svector.77 = type { %class.vector.78 }
%class.vector.78 = type { ptr }
%class.svector.79 = type { %class.vector.80 }
%class.vector.80 = type { ptr }
%class.flet = type <{ ptr, i8, [7 x i8] }>
%class.model = type { %class.model_core, %class.ptr_vector.91, %class.obj_map.93, %class.model_evaluator, i8, i8, %class.plugin_manager }
%class.model_core = type { ptr, ptr, i32, [4 x i8], %class.obj_map.81, %class.obj_map.86, %class.ptr_vector.65, %class.ptr_vector.65, %class.ptr_vector.65 }
%class.obj_map.81 = type { %class.core_hashtable.82 }
%class.core_hashtable.82 = type <{ ptr, i32, i32, i32, [4 x i8] }>
%class.obj_map.86 = type { %class.core_hashtable.87 }
%class.core_hashtable.87 = type <{ ptr, i32, i32, i32, [4 x i8] }>
%class.ptr_vector.91 = type { %class.vector.92 }
%class.vector.92 = type { ptr }
%class.obj_map.93 = type { %class.core_hashtable.94 }
%class.core_hashtable.94 = type <{ ptr, i32, i32, i32, [4 x i8] }>
%class.model_evaluator = type { ptr }
%class.plugin_manager = type { %class.ptr_vector.98, %class.ptr_vector.98 }
%class.ptr_vector.98 = type { %class.vector.99 }
%class.vector.99 = type { ptr }
%class.pb_util = type { ptr, i32, %class.vector.2, %class.vector.100, %class.rational }
%class.vector.100 = type { ptr }
%"struct.std::pair" = type { %class.inf_eps_rational, %class.inf_eps_rational }
%class.vector.101 = type { ptr }
%class.ast_fast_mark = type { %class.ptr_buffer }
%class.ptr_buffer = type { %class.buffer }
%class.buffer = type { ptr, i32, i32, [16 x %"union.std::aligned_storage<8, 8>::type"] }
%"union.std::aligned_storage<8, 8>::type" = type { [8 x i8] }
%"struct.opt::context::is_fd" = type { ptr, %class.pb_util, %class.bv_util }
%"class.opt::maxsmt" = type { ptr, ptr, i32, %class.scoped_ptr.69, %class.vector.70, %class.obj_map.71, %class.ref_vector, %class.rational, %class.rational, %class.ref.46, %class.svector.12, %class.params_ref }
%class.scoped_ptr.69 = type { ptr }
%class.vector.70 = type { ptr }
%class.obj_map.71 = type { %class.core_hashtable.72 }
%class.core_hashtable.72 = type <{ ptr, i32, i32, i32, [4 x i8] }>
%"struct.opt::soft" = type <{ %class.obj_ref.76, %class.rational, i32, [4 x i8] }>
%"struct.opt::context::is_propositional_fn" = type { ptr }
%class.ref.102 = type { ptr }
%class.obj_ref.105 = type { ptr, ptr }
%class.sref_buffer = type { %class.ref_buffer_core }
%class.ref_buffer_core = type { %class.ptr_buffer.107 }
%class.ptr_buffer.107 = type { %class.buffer.108 }
%class.buffer.108 = type { ptr, i32, i32, [16 x %"union.std::aligned_storage<8, 8>::type"] }
%class.anon = type { i8 }
%class.goal = type <{ ptr, %class.ref, %class.ref.103, %class.ref.104, i32, [4 x i8], %"class.std::__cxx11::basic_string", %"class.parray_manager<ast_manager::expr_array_config>::ref", %"class.parray_manager<ast_manager::expr_array_config>::ref", %"class.parray_manager<ast_manager::expr_dependency_array_config>::ref", i32, [4 x i8] }>
%class.ref.103 = type { ptr }
%class.ref.104 = type { ptr }
%"class.parray_manager<ast_manager::expr_array_config>::ref" = type <{ ptr, i32, [4 x i8] }>
%"class.parray_manager<ast_manager::expr_dependency_array_config>::ref" = type <{ ptr, i32, [4 x i8] }>
%class.ref_unmanaged_wrapper.106 = type { i8 }
%class.app = type { %class.expr, ptr, i32, [0 x ptr] }
%class.expr = type { %class.ast }
%class.ast = type { i32, i24, i32, i32 }
%"struct.obj_map<func_decl, unsigned int>::key_data" = type <{ ptr, i32, [4 x i8] }>
%"struct.obj_map<func_decl, expr *>::key_data" = type { ptr, ptr }
%struct.mk_pp = type { %struct.mk_ismt2_pp }
%struct.mk_ismt2_pp = type { ptr, ptr, %class.params_ref, ptr, i32, i32, ptr }
%"class.ref_vector<expr, ast_manager>::element_ref" = type { ptr, ptr }
%"class.std::__cxx11::basic_ostringstream" = type { %"class.std::basic_ostream.base", %"class.std::__cxx11::basic_stringbuf", %"class.std::basic_ios" }
%"class.std::basic_ostream.base" = type { ptr }
%"class.std::__cxx11::basic_stringbuf" = type { %"class.std::basic_streambuf", i32, %"class.std::__cxx11::basic_string" }
%"class.std::basic_streambuf" = type { ptr, ptr, ptr, ptr, ptr, ptr, ptr, %"class.std::locale" }
%"class.std::locale" = type { ptr }
%"class.std::basic_ios" = type { %"class.std::ios_base", ptr, i8, i8, ptr, ptr, ptr, ptr }
%"class.std::ios_base" = type { ptr, i64, i64, i32, i32, i32, ptr, %"struct.std::ios_base::_Words", [8 x %"struct.std::ios_base::_Words"], i32, ptr, %"class.std::locale" }
%"struct.std::ios_base::_Words" = type { ptr, i64 }
%struct.mk_bounded_pp = type <{ ptr, ptr, i32, [4 x i8] }>
%class.parameter = type { %"class.std::variant" }
%"class.std::variant" = type { %"struct.std::__detail::__variant::_Variant_base.base", [7 x i8] }
%"struct.std::__detail::__variant::_Variant_base.base" = type { %"struct.std::__detail::__variant::_Move_assign_base.base" }
%"struct.std::__detail::__variant::_Move_assign_base.base" = type { %"struct.std::__detail::__variant::_Copy_assign_base.base" }
%"struct.std::__detail::__variant::_Copy_assign_base.base" = type { %"struct.std::__detail::__variant::_Move_ctor_base.base" }
%"struct.std::__detail::__variant::_Move_ctor_base.base" = type { %"struct.std::__detail::__variant::_Copy_ctor_base.base" }
%"struct.std::__detail::__variant::_Copy_ctor_base.base" = type { %"struct.std::__detail::__variant::_Variant_storage.base" }
%"struct.std::__detail::__variant::_Variant_storage.base" = type <{ %"union.std::__detail::__variant::_Variadic_union", i8 }>
%"union.std::__detail::__variant::_Variadic_union" = type { %"union.std::__detail::__variant::_Variadic_union.165" }
%"union.std::__detail::__variant::_Variadic_union.165" = type { %"struct.std::__detail::__variant::_Uninitialized.166" }
%"struct.std::__detail::__variant::_Uninitialized.166" = type { ptr }
%class.svector.109 = type { %class.vector.110 }
%class.vector.110 = type { ptr }
%class.smt2_pp_environment_dbg = type { %class.smt2_pp_environment, ptr, %class.arith_util, %class.bv_util, %class.array_util, %class.fpa_util, %class.seq_util, %"class.datatype::util", %"class.datalog::dl_decl_util" }
%class.smt2_pp_environment = type { ptr, %class.smt_renaming }
%class.smt_renaming = type { %class.map.111, %class.map.115 }
%class.map.111 = type { %class.table2map.112 }
%class.table2map.112 = type { %class.core_hashtable.113 }
%class.core_hashtable.113 = type <{ ptr, i32, i32, i32, [4 x i8] }>
%class.map.115 = type { %class.table2map.116 }
%class.table2map.116 = type { %class.core_hashtable.117 }
%class.core_hashtable.117 = type <{ ptr, i32, i32, i32, [4 x i8] }>
%class.array_util = type { %class.array_recognizers, ptr }
%class.array_recognizers = type { i32 }
%class.fpa_util = type { ptr, ptr, i32, %class.arith_util, %class.bv_util }
%class.seq_util = type { ptr, ptr, ptr, i32, [4 x i8], %"class.seq_util::str", %"class.seq_util::rex" }
%"class.seq_util::str" = type <{ ptr, ptr, i32, [4 x i8] }>
%"class.seq_util::rex" = type { ptr, ptr, i32, %class.vector.119, %class.ref_vector, %"struct.seq_util::rex::info", %"struct.seq_util::rex::info" }
%class.vector.119 = type { ptr }
%"struct.seq_util::rex::info" = type { i32, i8, i32, i32 }
%"class.datatype::util" = type { ptr, i32, ptr, %class.obj_map.120, %class.obj_map.125, %class.obj_map.130, %class.obj_map.29, %class.obj_map.29, %class.obj_map.29, %class.obj_map.135, %class.obj_map.135, %class.obj_map.135, %class.ref_vector.140, %class.ref_vector_core.145, %class.ptr_vector.149, i32, %class.ptr_vector.91 }
%class.obj_map.120 = type { %class.core_hashtable.121 }
%class.core_hashtable.121 = type <{ ptr, i32, i32, i32, [4 x i8] }>
%class.obj_map.125 = type { %class.core_hashtable.126 }
%class.core_hashtable.126 = type <{ ptr, i32, i32, i32, [4 x i8] }>
%class.obj_map.130 = type { %class.core_hashtable.131 }
%class.core_hashtable.131 = type <{ ptr, i32, i32, i32, [4 x i8] }>
%class.obj_map.135 = type { %class.core_hashtable.136 }
%class.core_hashtable.136 = type <{ ptr, i32, i32, i32, [4 x i8] }>
%class.ref_vector.140 = type { %class.ref_vector_core.141 }
%class.ref_vector_core.141 = type { %class.ref_manager_wrapper.142, %class.ptr_vector.143 }
%class.ref_manager_wrapper.142 = type { ptr }
%class.ptr_vector.143 = type { %class.vector.144 }
%class.vector.144 = type { ptr }
%class.ref_vector_core.145 = type { %class.ptr_vector.147 }
%class.ptr_vector.147 = type { %class.vector.148 }
%class.vector.148 = type { ptr }
%class.ptr_vector.149 = type { %class.vector.150 }
%class.vector.150 = type { ptr }
%"class.datalog::dl_decl_util" = type <{ ptr, %class.scoped_ptr.151, %class.scoped_ptr.152, i32, [4 x i8] }>
%class.scoped_ptr.151 = type { ptr }
%class.scoped_ptr.152 = type { ptr }
%class.ast_pp_util = type { ptr, %class.obj_hashtable, %class.smt2_pp_environment_dbg, %class.stacked_value, %class.stacked_value, %class.stacked_value, %class.obj_mark, %class.ref_vector, %class.svector, %class.decl_collector }
%class.obj_hashtable = type { %class.core_hashtable.base.155, [4 x i8] }
%class.core_hashtable.base.155 = type <{ ptr, i32, i32, i32 }>
%class.stacked_value = type { i32, %class.vector.156 }
%class.vector.156 = type { ptr }
%class.obj_mark = type { %struct.default_t2uint, %class.bit_vector }
%struct.default_t2uint = type { i8 }
%class.bit_vector = type { i32, i32, ptr }
%class.decl_collector = type { ptr, %class.lim_svector, %class.lim_svector.158, %class.lim_svector.158, %class.ast_mark, %class.ref_vector.140, %class.svector, i32, i32, %"class.datatype::util", %class.array_util, i32, %class.ptr_vector.143 }
%class.lim_svector = type { %class.svector.157, %class.svector }
%class.svector.157 = type { %class.vector.92 }
%class.lim_svector.158 = type { %class.svector.159, %class.svector }
%class.svector.159 = type { %class.vector.66 }
%class.ast_mark = type { ptr, %class.obj_mark, %class.obj_mark.160 }
%class.obj_mark.160 = type { %"struct.ast_mark::decl2uint", %class.bit_vector }
%"struct.ast_mark::decl2uint" = type { i8 }
%class.param_descrs = type { ptr }
%class.decl = type { %class.ast, %class.symbol, ptr }
%class.decl_info = type <{ i32, i32, %class.vector.100, i8, [7 x i8] }>
%"struct.table2map<default_map_entry<symbol, unsigned int>, symbol_hash_proc, symbol_eq_proc>::entry_hash_proc" = type { i8 }
%"struct.table2map<default_map_entry<symbol, unsigned int>, symbol_hash_proc, symbol_eq_proc>::entry_eq_proc" = type { i8 }
%class.default_map_entry = type { %class.default_hash_entry }
%class.default_hash_entry = type { i32, i32, %struct._key_data.161 }
%class.model_converter = type <{ %class.converter.base, [4 x i8], ptr, i8, [7 x i8] }>
%class.converter = type <{ ptr, i32, [4 x i8] }>
%"class.obj_map<func_decl, expr *>::obj_map_entry" = type { %"struct.obj_map<func_decl, expr *>::key_data" }
%"class.obj_map<func_decl, unsigned int>::obj_map_entry" = type { %"struct.obj_map<func_decl, unsigned int>::key_data" }
%"class.std::chrono::duration.164" = type { i64 }
%"class.opt::pareto_base" = type { ptr, ptr, ptr, %class.ref.35, %class.params_ref, %class.ref.46, %class.svector.12 }
%class.dependent_expr_state_tactic = type <{ %class.tactic.base, [4 x i8], %class.dependent_expr_state, ptr, %class.params_ref, %class.trail_stack, %class.ref.102, %class.dependent_expr, %class.statistics, ptr, %class.ref_vector, %class.scoped_ptr.180, %class.scoped_ptr.181, i8, [7 x i8] }>
%class.tactic.base = type <{ %"class.user_propagator::core", i32 }>
%class.dependent_expr_state = type { ptr, i32, i8, i32, i32, i32, %class.ast_mark, %class.ref_vector.62, %class.trail_stack }
%class.trail_stack = type { %class.ptr_vector.178, %class.svector, %class.region }
%class.ptr_vector.178 = type { %class.vector.179 }
%class.vector.179 = type { ptr }
%class.region = type { ptr, ptr, ptr, ptr, ptr }
%class.dependent_expr = type { ptr, ptr, ptr, ptr }
%class.scoped_ptr.180 = type { ptr }
%class.scoped_ptr.181 = type { ptr }
%class.tactic = type <{ %"class.user_propagator::core", i32, [4 x i8] }>
%class.statistics_report = type { ptr, %"class.std::function.203" }
%"class.std::function.203" = type { %"class.std::_Function_base", ptr }
%class.tactic_report = type { ptr }
%"class.std::tuple.207" = type { %"struct.std::_Tuple_impl.208" }
%"struct.std::_Tuple_impl.208" = type { %"struct.std::_Tuple_impl.209", %"struct.std::_Head_base.213" }
%"struct.std::_Tuple_impl.209" = type { %"struct.std::_Tuple_impl.210", %"struct.std::_Head_base.212" }
%"struct.std::_Tuple_impl.210" = type { %"struct.std::_Head_base.211" }
%"struct.std::_Head_base.211" = type { ptr }
%"struct.std::_Head_base.212" = type { ptr }
%"struct.std::_Head_base.213" = type { ptr }
%"struct.dependency_manager<ast_manager::expr_dependency_config>::leaf" = type { %"class.dependency_manager<ast_manager::expr_dependency_config>::dependency", ptr }
%"class.dependency_manager<ast_manager::expr_dependency_config>::dependency" = type { i32 }
%"struct.dependency_manager<ast_manager::expr_dependency_config>::join" = type { %"class.dependency_manager<ast_manager::expr_dependency_config>::dependency", [2 x ptr] }
%class.model_reconstruction_trail = type <{ ptr, ptr, %class.scoped_ptr_vector.186, %class.ref_vector.62, %class.ast_mark, i8, [7 x i8] }>
%class.scoped_ptr_vector.186 = type { %class.ptr_vector.187 }
%class.ptr_vector.187 = type { %class.vector.188 }
%class.vector.188 = type { ptr }
%struct.delete_proc = type { i8 }
%"struct.model_reconstruction_trail::entry" = type <{ %class.scoped_ptr.185, %class.vector.189, %class.obj_ref.190, %class.vector.191, i8, [7 x i8] }>
%class.scoped_ptr.185 = type { ptr }
%class.vector.189 = type { ptr }
%class.obj_ref.190 = type { ptr, ptr }
%class.vector.191 = type { ptr }
%"class.std::tuple" = type { %"struct.std::_Tuple_impl" }
%"struct.std::_Tuple_impl" = type { %"struct.std::_Tuple_impl.192", %"struct.std::_Head_base.195" }
%"struct.std::_Tuple_impl.192" = type { %"struct.std::_Tuple_impl.193", %"struct.std::_Head_base.194" }
%"struct.std::_Tuple_impl.193" = type { %"struct.std::_Head_base" }
%"struct.std::_Head_base" = type { %class.obj_ref.105 }
%"struct.std::_Head_base.194" = type { %class.obj_ref.76 }
%"struct.std::_Head_base.195" = type { %class.obj_ref.190 }
%class.value_trail = type <{ %class.trail, ptr, i32, [4 x i8] }>
%class.trail = type { ptr }
%"struct.dependent_expr_state::thaw" = type { %class.trail, i32, ptr }
%class.tactic_exception = type { %class.z3_exception, %"class.std::__cxx11::basic_string" }
%"struct.parray_manager<ast_manager::expr_array_config>::cell" = type { i32, %union.anon.205, ptr, %union.anon.206 }
%union.anon.205 = type { i32 }
%union.anon.206 = type { ptr }
%"struct.parray_manager<ast_manager::expr_dependency_array_config>::cell" = type { i32, %union.anon.214, ptr, %union.anon.215 }
%union.anon.214 = type { i32 }
%union.anon.215 = type { ptr }
%"struct.std::__detail::__variant::_Variant_storage" = type <{ %"union.std::__detail::__variant::_Variadic_union", i8, [7 x i8] }>
%"class.std::bad_variant_access" = type { %"class.std::exception", ptr }
%"class.std::exception" = type { ptr }
%"struct.std::__detail::__variant::_Uninitialized" = type { i32 }
%"struct.generic_model_converter::entry" = type <{ %class.obj_ref.190, %class.obj_ref.76, i32, [4 x i8] }>
%"struct.std::pair.216" = type { ptr, ptr }
%"struct.std::pair.218" = type { %"class.std::move_iterator", ptr }
%"class.std::move_iterator" = type { ptr }
%class.seq_decl_plugin = type { %class.decl_plugin.base, %class.ptr_vector.220, %class.ptr_vector.91, i8, %class.symbol, ptr, ptr, ptr, i8, i8, ptr }
%class.decl_plugin.base = type <{ ptr, ptr, i32 }>
%class.ptr_vector.220 = type { %class.vector.221 }
%class.vector.221 = type { ptr }
%class.decl_plugin = type <{ ptr, ptr, i32, [4 x i8] }>
%class.default_map_entry.222 = type { %class.default_hash_entry.223 }
%class.default_hash_entry.223 = type { i32, i32, %struct._key_data.224 }
%struct._key_data.224 = type { %class.symbol, %class.symbol }
%class.default_map_entry.225 = type { %class.default_hash_entry.226 }
%class.default_hash_entry.226 = type { i32, i32, %struct._key_data.227 }
%struct._key_data.227 = type { %class.symbol, %"struct.smt_renaming::sym_b" }
%"struct.smt_renaming::sym_b" = type { %class.symbol, i8, %class.symbol }
%struct.obj_ptr_hash.154 = type { i8 }
%struct.ptr_eq = type { i8 }
%class.core_hashtable.153 = type <{ ptr, i32, i32, i32, [4 x i8] }>
%class.obj_hash_entry = type { ptr }
%struct._Guard = type { ptr }
%"struct.std::pair.435" = type { ptr, ptr }
%"struct.std::pair.437" = type { %"class.std::move_iterator.439", ptr }
%"class.std::move_iterator.439" = type { ptr }
%"struct.std::pair.440" = type { ptr, ptr }
%"struct.std::pair.442" = type { %"class.std::move_iterator.444", ptr }
%"class.std::move_iterator.444" = type { ptr }
%"struct.table2map<default_map_entry<symbol, opt::maxsmt *>, symbol_hash_proc, symbol_eq_proc>::entry_hash_proc" = type { i8 }
%"struct.table2map<default_map_entry<symbol, opt::maxsmt *>, symbol_hash_proc, symbol_eq_proc>::entry_eq_proc" = type { i8 }
%"class.obj_map<expr, unsigned int>::obj_map_entry" = type { %"struct.obj_map<expr, unsigned int>::key_data" }
%"struct.obj_map<expr, unsigned int>::key_data" = type <{ ptr, i32, [4 x i8] }>
%class.sbuffer = type { %class.buffer.445 }
%class.buffer.445 = type { ptr, i32, i32, [16 x %"union.std::aligned_storage<16, 8>::type"] }
%"union.std::aligned_storage<16, 8>::type" = type { [16 x i8] }
%"struct.std::pair.447" = type <{ ptr, i32, [4 x i8] }>
%class.quantifier = type { %class.expr, i32, i32, ptr, ptr, i32, i32, i8, i8, %class.symbol, %class.symbol, i32, i32, [0 x i8] }

$_ZN3sat7literalC2Ev = comdat any

$_ZN3sat7literalC2Ejb = comdat any

$_ZN3smt16eq_justificationC2EPNS_13justificationE = comdat any

$_ZN3smt15b_justificationC2EPNS_6clauseE = comdat any

$_ZN6vectorIjLb0EjE9push_backEOj = comdat any

$_ZNK15ref_vector_coreI4expr19ref_manager_wrapperIS0_11ast_managerEE4sizeEv = comdat any

$_ZNK6vectorIN3opt7context9objectiveELb1EjE4sizeEv = comdat any

$_ZNK6vectorIjLb0EjE4sizeEv = comdat any

$_ZN15ref_vector_coreI4expr19ref_manager_wrapperIS0_11ast_managerEE6resizeEj = comdat any

$_ZN6vectorIjLb0EjE4backEv = comdat any

$_ZN6vectorIN3opt7context9objectiveELb1EjEixEj = comdat any

$_ZN15ref_vector_coreI4expr19ref_manager_wrapperIS0_11ast_managerEE8pop_backEv = comdat any

$_ZN6vectorI8rationalLb1EjE8pop_backEv = comdat any

$_ZN6vectorIjLb0EjE8pop_backEv = comdat any

$_ZN6vectorIN3opt7context9objectiveELb1EjE4backEv = comdat any

$_ZN9table2mapI17default_map_entryI6symboljE16symbol_hash_proc14symbol_eq_procE5eraseERKS1_ = comdat any

$_ZN6vectorIN3opt7context9objectiveELb1EjE8pop_backEv = comdat any

$_ZN15ref_vector_coreI4expr19ref_manager_wrapperIS0_11ast_managerEE9push_backEPS0_ = comdat any

$_ZNK15ref_vector_coreI4expr19ref_manager_wrapperIS0_11ast_managerEE3getEj = comdat any

$_ZN15ref_vector_coreI4expr19ref_manager_wrapperIS0_11ast_managerEE5resetEv = comdat any

$_ZN15ref_vector_coreI4expr19ref_manager_wrapperIS0_11ast_managerEE6appendERKS4_ = comdat any

$_ZNSt7__cxx1112basic_stringIcSt11char_traitsIcESaIcEEC2IS3_EEPKcRKS3_ = comdat any

$_ZN17default_exceptionC2EONSt7__cxx1112basic_stringIcSt11char_traitsIcESaIcEEE = comdat any

$_ZN17default_exceptionD2Ev = comdat any

$_ZNK9table2mapI17default_map_entryI6symboljE16symbol_hash_proc14symbol_eq_procE8containsERKS1_ = comdat any

$_ZN6vectorIN3opt7context9objectiveELb1EjE9push_backEOS2_ = comdat any

$_ZN3opt7context9objectiveC2ER11ast_manager6symbol = comdat any

$_ZN3opt7context9objectiveD2Ev = comdat any

$_ZN9table2mapI17default_map_entryI6symboljE16symbol_hash_proc14symbol_eq_procE6insertERKS1_Oj = comdat any

$_ZN9table2mapI17default_map_entryI6symboljE16symbol_hash_proc14symbol_eq_procEixERKS1_ = comdat any

$_ZNK8rational7is_zeroEv = comdat any

$_ZN6vectorI8rationalLb1EjE9push_backERKS0_ = comdat any

$_ZN6vectorIjLb0EjE9push_backERKj = comdat any

$_ZN7obj_refI3app11ast_managerEC2EPS0_RS1_ = comdat any

$_ZNK14bv_recognizers5is_bvEPK4expr = comdat any

$_ZNK17arith_recognizers11is_int_realEPK4expr = comdat any

$_ZN3opt7context9objectiveC2EbR7obj_refI3app11ast_managerEj = comdat any

$_ZN7obj_refI3app11ast_managerED2Ev = comdat any

$_ZN11opt_wrapperC2ER11ast_manager = comdat any

$_ZN3opt15pareto_callbackC2Ev = comdat any

$_ZN3opt14maxsat_contextC2Ev = comdat any

$_ZNSt8functionIFvRN3opt10on_model_tER3refI5modelEEEC2Ev = comdat any

$_ZN10ref_vectorI4expr11ast_managerEC2ERS1_ = comdat any

$_ZN3refIN3opt10opt_solverEEC2Ev = comdat any

$_ZN3refI6solverEC2EPS0_ = comdat any

$_ZN3refI6solverEC2Ev = comdat any

$_ZN10scoped_ptrIN3opt11pareto_baseEEC2EPS1_ = comdat any

$_ZN10scoped_ptrIN2qe4qmaxEEC2EPS1_ = comdat any

$_ZN15ref_vector_coreI5model21ref_unmanaged_wrapperIS0_EEC2Ev = comdat any

$_ZN10params_refC2Ev = comdat any

$_ZN3opt6optsmtC2ER11ast_managerRNS_7contextE = comdat any

$_ZN3mapI6symbolPN3opt6maxsmtE16symbol_hash_proc14symbol_eq_procEC2ERKS4_RKS5_ = comdat any

$_ZN3opt7context12scoped_stateC2ER11ast_manager = comdat any

$_ZN6vectorIN3opt7context9objectiveELb1EjEC2Ev = comdat any

$_ZN3refI5modelEC2Ev = comdat any

$_ZN3refI15model_converterEC2Ev = comdat any

$_ZN23generic_model_converterC2ER11ast_managerPKc = comdat any

$_ZN3refI23generic_model_converterEC2EPS0_ = comdat any

$_ZN7obj_mapI9func_decljEC2Ev = comdat any

$_ZN7obj_mapI9func_declP4exprEC2Ev = comdat any

$_ZN10ref_vectorI9func_decl11ast_managerEC2ERS1_ = comdat any

$_ZN3refI6tacticEC2Ev = comdat any

$_ZN6symbolC2Ev = comdat any

$_ZN7svectorI6symboljEC2Ev = comdat any

$_ZN7svectorI6symboljED2Ev = comdat any

$_ZN3refI6tacticED2Ev = comdat any

$_ZN10ref_vectorI4expr11ast_managerED2Ev = comdat any

$_ZN10ref_vectorI9func_decl11ast_managerED2Ev = comdat any

$_ZN7obj_mapI9func_declP4exprED2Ev = comdat any

$_ZN7obj_mapI9func_decljED2Ev = comdat any

$_ZN15ref_vector_coreI5model21ref_unmanaged_wrapperIS0_EED2Ev = comdat any

$_ZN3refI23generic_model_converterED2Ev = comdat any

$_ZN3refI15model_converterED2Ev = comdat any

$_ZN3refI5modelED2Ev = comdat any

$_ZN6vectorIN3opt7context9objectiveELb1EjED2Ev = comdat any

$_ZN3opt7context12scoped_stateD2Ev = comdat any

$_ZN3mapI6symbolPN3opt6maxsmtE16symbol_hash_proc14symbol_eq_procED2Ev = comdat any

$_ZN3opt6optsmtD2Ev = comdat any

$_ZN10scoped_ptrIN2qe4qmaxEED2Ev = comdat any

$_ZN10scoped_ptrIN3opt11pareto_baseEED2Ev = comdat any

$_ZN3refI6solverED2Ev = comdat any

$_ZN3refIN3opt10opt_solverEED2Ev = comdat any

$_ZNSt8functionIFvRN3opt10on_model_tER3refI5modelEEED2Ev = comdat any

$__clang_call_terminate = comdat any

$_ZNK9table2mapI17default_map_entryI6symbolPN3opt6maxsmtEE16symbol_hash_proc14symbol_eq_procE5beginEv = comdat any

$_ZNK9table2mapI17default_map_entryI6symbolPN3opt6maxsmtEE16symbol_hash_proc14symbol_eq_procE3endEv = comdat any

$_ZNK14core_hashtableI17default_map_entryI6symbolPN3opt6maxsmtEEN9table2mapIS5_16symbol_hash_proc14symbol_eq_procE15entry_hash_procENS9_13entry_eq_procEE8iteratorneERKSD_ = comdat any

$_ZN14core_hashtableI17default_map_entryI6symbolPN3opt6maxsmtEEN9table2mapIS5_16symbol_hash_proc14symbol_eq_procE15entry_hash_procENS9_13entry_eq_procEE8iteratordeEv = comdat any

$_Z7deallocIN3opt6maxsmtEEvPT_ = comdat any

$_ZN14core_hashtableI17default_map_entryI6symbolPN3opt6maxsmtEEN9table2mapIS5_16symbol_hash_proc14symbol_eq_procE15entry_hash_procENS9_13entry_eq_procEE8iteratorppEv = comdat any

$_ZN9table2mapI17default_map_entryI6symbolPN3opt6maxsmtEE16symbol_hash_proc14symbol_eq_procE5resetEv = comdat any

$_ZSt3minIjERKT_S2_S2_ = comdat any

$_ZNK3opt7context12scoped_state10num_scopesEv = comdat any

$_ZN6vectorI6symbolLb0EjE6appendERKS1_ = comdat any

$_ZNK15ref_vector_coreI4expr19ref_manager_wrapperIS0_11ast_managerEE5beginEv = comdat any

$_ZNK15ref_vector_coreI4expr19ref_manager_wrapperIS0_11ast_managerEE3endEv = comdat any

$_ZN16inf_eps_rationalI12inf_rationalE8infinityEv = comdat any

$_ZN16inf_eps_rationalI12inf_rationalED2Ev = comdat any

$_ZN11ast_manager10mk_impliesEP4exprS1_ = comdat any

$_ZN7obj_refI4expr11ast_managerEC2ERS1_ = comdat any

$_ZNK10arith_util10mk_numeralERK8rationalb = comdat any

$_ZN8rationalC2Ei = comdat any

$_ZN7obj_refI4expr11ast_managerEaSEPS0_ = comdat any

$_ZN8rationalD2Ev = comdat any

$_ZN11ast_manager6mk_iteEP4exprS1_S1_ = comdat any

$_ZNK10ref_vectorI4expr11ast_managerEixEj = comdat any

$_ZNK7obj_refI4expr11ast_managerEcvPS0_Ev = comdat any

$_ZNK6vectorI8rationalLb1EjEixEj = comdat any

$_ZNK10arith_util6mk_addEjPKP4expr = comdat any

$_ZN15ref_vector_coreI4expr19ref_manager_wrapperIS0_11ast_managerEE4dataEv = comdat any

$_ZNK7obj_refI3app11ast_managerEcvPS0_Ev = comdat any

$_ZNK10arith_util9mk_uminusEP4expr = comdat any

$_ZN7bv_util9mk_bv_negEP4expr = comdat any

$_ZN7obj_refI4expr11ast_managerED2Ev = comdat any

$_ZN6vectorIN3opt7context9objectiveELb1EjE5resetEv = comdat any

$_ZN6vectorIN3opt7context9objectiveELb1EjE9push_backERKS2_ = comdat any

$_ZN3opt7context11scoped_timeC2ERS0_ = comdat any

$_ZNK10scoped_ptrIN3opt11pareto_baseEEcvbEv = comdat any

$_ZN10ref_vectorI4expr11ast_managerEC2ERKS2_ = comdat any

$_ZNK11ast_manager8is_falseEPK4expr = comdat any

$_ZN6solver11assert_exprERK10ref_vectorI4expr11ast_managerE = comdat any

$_ZN10opt_paramsC2ERK10params_ref = comdat any

$_ZNK10opt_params8priorityEv = comdat any

$_ZN16check_sat_result9get_modelER3refI5modelE = comdat any

$_ZNK3refI5modelE3getEv = comdat any

$_ZNK3refI5modelEntEv = comdat any

$_ZNK15ref_vector_coreI4expr19ref_manager_wrapperIS0_11ast_managerEE5emptyEv = comdat any

$_ZNK3refIN3opt10opt_solverEE3getEv = comdat any

$_ZN3opt7context12update_lowerEv = comdat any

$_ZeqRK6symbolS1_ = comdat any

$_ZN10opt_paramsD2Ev = comdat any

$_ZN3opt7context11scoped_timeD2Ev = comdat any

$_ZNK3refIN3opt10opt_solverEEptEv = comdat any

$_ZNK3opt10opt_solver11was_unknownEv = comdat any

$_ZN3refI5modelEaSERS1_ = comdat any

$_ZNK3refI5modelEcvbEv = comdat any

$_ZNK15ref_vector_coreI5model21ref_unmanaged_wrapperIS0_EE8containsEPS0_ = comdat any

$_ZN3refI23generic_model_converterEdeEv = comdat any

$_ZN15ref_vector_coreI5model21ref_unmanaged_wrapperIS0_EE9push_backEPS0_ = comdat any

$_ZNK10opt_params11dump_modelsEv = comdat any

$_ZNK3refI5modelEptEv = comdat any

$_ZN3refI5modelEC2EPS0_ = comdat any

$_ZNKSt8functionIFvRN3opt10on_model_tER3refI5modelEEEcvbEv = comdat any

$_ZN4fletIbEC2ERbRKb = comdat any

$_ZNKSt8functionIFvRN3opt10on_model_tER3refI5modelEEEclES2_S6_ = comdat any

$_ZN15ref_vector_coreI5model21ref_unmanaged_wrapperIS0_EE8pop_backEv = comdat any

$_ZN4fletIbED2Ev = comdat any

$_ZN5model20set_model_completionEb = comdat any

$_ZNK15ref_vector_coreI5model21ref_unmanaged_wrapperIS0_EE4sizeEv = comdat any

$_ZNK15ref_vector_coreI5model21ref_unmanaged_wrapperIS0_EEixEj = comdat any

$_ZN3refI5modelEaSEPS0_ = comdat any

$_Z15has_quantifiersPK4expr = comdat any

$_ZN9table2mapI17default_map_entryI6symbolPN3opt6maxsmtEE16symbol_hash_proc14symbol_eq_procE4findERKS1_ = comdat any

$_ZN6vectorIN3opt7context9objectiveELb1EjE5beginEv = comdat any

$_ZN6vectorIN3opt7context9objectiveELb1EjE3endEv = comdat any

$_ZNK16inf_eps_rationalI12inf_rationalE9is_finiteEv = comdat any

$_ZN15ref_vector_coreI5model21ref_unmanaged_wrapperIS0_EE5resetEv = comdat any

$_ZN6solver11scoped_pushC2ERS_ = comdat any

$_ZN6solver11scoped_pushD2Ev = comdat any

$_ZNK3opt6optsmt9get_modelEj = comdat any

$_ZNK15ref_vector_coreI5model21ref_unmanaged_wrapperIS0_EE5emptyEv = comdat any

$_ZN3refI5modelEdeEv = comdat any

$_ZN7obj_refI4expr11ast_managerEaSEOS2_ = comdat any

$_ZNK11ast_manager7mk_trueEv = comdat any

$_ZN7pb_utilC2ER11ast_manager = comdat any

$_ZN10ptr_vectorI4exprEC2Ev = comdat any

$_ZN6vectorI8rationalLb1EjEC2Ev = comdat any

$_ZN6vectorIP4exprLb0EjE9push_backEOS1_ = comdat any

$_ZN8rationalpLERKS_ = comdat any

$_ZNK6vectorI8rationalLb1EjE4dataEv = comdat any

$_ZNK6vectorIP4exprLb0EjE4dataEv = comdat any

$_ZN6vectorI8rationalLb1EjED2Ev = comdat any

$_ZN10ptr_vectorI4exprED2Ev = comdat any

$_ZN7pb_utilD2Ev = comdat any

$_ZN7bv_util6mk_uleEP4exprS1_ = comdat any

$_ZNK10arith_util5mk_geEP4exprS1_ = comdat any

$_ZNK10scoped_ptrIN3opt11pareto_baseEEptEv = comdat any

$_ZNK3refI6solverE3getEv = comdat any

$_ZN3opt10gia_paretoC2ER11ast_managerRNS_15pareto_callbackEP6solverR10params_ref = comdat any

$_ZNK10scoped_ptrIN3opt11pareto_baseEE3getEv = comdat any

$_ZN11ast_manager3incEv = comdat any

$_ZNK3refI6solverEptEv = comdat any

$_ZNK6vectorIN3opt7context9objectiveELb1EjEixEj = comdat any

$_ZlsI12inf_rationalERSoS1_RK16inf_eps_rationalIT_E = comdat any

$_ZNK6vectorISt4pairI16inf_eps_rationalI12inf_rationalES3_ELb1EjEixEj = comdat any

$_ZngI12inf_rationalE16inf_eps_rationalIT_ERKS3_ = comdat any

$_ZN3refI6solverEaSEPS0_ = comdat any

$_ZN3refIN3opt10opt_solverEEaSEPS1_ = comdat any

$_ZNK10opt_params13optsmt_engineEv = comdat any

$_ZNSt7__cxx119to_stringEj = comdat any

$_ZN10sat_paramsC2ERK10params_ref = comdat any

$_ZNK10sat_params3eufEv = comdat any

$_ZneRK6symbolS1_ = comdat any

$_ZNK11ast_manager14proofs_enabledEv = comdat any

$_ZN10sat_paramsD2Ev = comdat any

$_ZN13ast_fast_markILj1EEC2Ev = comdat any

$_ZN3opt7context5is_fdC2ER11ast_manager = comdat any

$_ZNK3opt6maxsmt4sizeEv = comdat any

$_Z19quick_for_each_exprIN3opt7context5is_fdEEvRT_R13ast_fast_markILj1EEP4expr = comdat any

$_ZNK3opt6maxsmtixEj = comdat any

$_ZN3opt7context5is_fdD2Ev = comdat any

$_ZN13ast_fast_markILj1EED2Ev = comdat any

$_Z17is_uninterp_constPK4expr = comdat any

$_ZNK11ast_manager6is_notEPK4exprRPS0_ = comdat any

$_ZN3opt7context19is_propositional_fnC2ER11ast_manager = comdat any

$_Z19quick_for_each_exprIN3opt7context19is_propositional_fnEEvRT_R13ast_fast_markILj1EEP4expr = comdat any

$_ZN9table2mapI17default_map_entryI6symbolPN3opt6maxsmtEE16symbol_hash_proc14symbol_eq_procE6insertERKS1_RKS4_ = comdat any

$_ZNK10arith_util10is_numeralEPK4exprR8rational = comdat any

$_ZN3refI15model_converterEaSEPS0_ = comdat any

$_ZN3refI4goalEC2EPS0_ = comdat any

$_ZNK3refI4goalEptEv = comdat any

$_ZN4goal11assert_exprEP4expr = comdat any

$_ZN4goal11assert_exprEP4exprS1_ = comdat any

$_Z19mk_solve_eqs_tacticR11ast_managerRK10params_ref = comdat any

$_ZN3refI6tacticEC2EPS0_ = comdat any

$_ZNK4goal4sizeEv = comdat any

$_ZNK4goal3depEj = comdat any

$_ZN7obj_refIN18dependency_managerIN11ast_manager22expr_dependency_configEE10dependencyES1_EC2EPS4_RS1_ = comdat any

$_ZNK7obj_refIN18dependency_managerIN11ast_manager22expr_dependency_configEE10dependencyES1_EcvPS4_Ev = comdat any

$_ZNK6vectorIP4exprLb0EjE5emptyEv = comdat any

$_ZN7obj_refIN18dependency_managerIN11ast_manager22expr_dependency_configEE10dependencyES1_ED2Ev = comdat any

$_ZNK10opt_params7elim_01Ev = comdat any

$_ZNK6symbol7is_nullEv = comdat any

$_ZN3refI6tacticEaSEPS0_ = comdat any

$_ZNK10opt_params19pb_compile_equalityEv = comdat any

$_ZNK3refI6tacticEptEv = comdat any

$_ZNK3refI6tacticE3getEv = comdat any

$_ZN11sref_bufferI4goalLj16EEC2Ev = comdat any

$_ZN3refI6tacticEdeEv = comdat any

$_ZNK15ref_buffer_coreI4goal21ref_unmanaged_wrapperIS0_ELj16EEixEj = comdat any

$_ZNK4goal2mcEv = comdat any

$_ZNK4goal4formEj = comdat any

$_ZNK6vectorIP4exprLb0EjE4sizeEv = comdat any

$_ZN6vectorIP4exprLb0EjEixEj = comdat any

$_ZNK4goal12inconsistentEv = comdat any

$_ZN15ref_vector_coreI4expr19ref_manager_wrapperIS0_11ast_managerEE6appendEjPKPS0_ = comdat any

$_ZN11sref_bufferI4goalLj16EED2Ev = comdat any

$_ZN3refI4goalED2Ev = comdat any

$_Z6is_appPK3ast = comdat any

$_ZNK7obj_mapI9func_decljE8containsEPS0_ = comdat any

$_Z6to_appP3ast = comdat any

$_ZNK3app8get_declEv = comdat any

$_ZNK7obj_mapI9func_decljE4findEPS0_Rj = comdat any

$_ZNK3app7get_argEj = comdat any

$_ZN7obj_refI3app11ast_managerEaSEPS0_ = comdat any

$_ZN7obj_mapI9func_declP4exprE4findEPS0_ = comdat any

$_ZNK3app12get_num_argsEv = comdat any

$_ZN7obj_refI4expr11ast_managerEC2EPS0_RS1_ = comdat any

$_ZN6vectorI8rationalLb1EjEixEj = comdat any

$_ZN8rationalC2ERKS_ = comdat any

$_ZNK8rational6is_negEv = comdat any

$_ZN8rational3negEv = comdat any

$_ZN8rationalmIERKS_ = comdat any

$_ZNK11ast_manager7is_trueEPK4expr = comdat any

$_ZlsRSoRK8rational = comdat any

$_ZN10ref_vectorI4expr11ast_managerEixEj = comdat any

$_ZNK10ref_vectorI4expr11ast_managerE11element_ref3getEv = comdat any

$_ZN5mk_ppC2EP3astR11ast_managerjjPKc = comdat any

$_ZN5mk_ppD2Ev = comdat any

$_ZN7obj_refI3app11ast_managerEC2ERS1_ = comdat any

$_ZN8rational4zeroEv = comdat any

$_ZN8rationalaSERKS_ = comdat any

$_ZNK6vectorI8rationalLb1EjE4sizeEv = comdat any

$_ZN10ref_vectorI4expr11ast_managerE11element_refaSEPS0_ = comdat any

$_ZlsRSoRK13mk_bounded_pp = comdat any

$_ZN13mk_bounded_ppC2EP3astR11ast_managerj = comdat any

$_ZN6symbolC2ERKNSt7__cxx1112basic_stringIcSt11char_traitsIcESaIcEEE = comdat any

$_ZN8rational5resetEv = comdat any

$_ZNK7bv_util11get_bv_sizeEPK4expr = comdat any

$_ZNK7bv_util10mk_numeralEmj = comdat any

$_Z5powerRK8rationalj = comdat any

$_ZN11ast_manager5mk_eqEP4exprS1_ = comdat any

$_ZN7bv_util10mk_extractEjjP4expr = comdat any

$_ZN10ptr_vectorI4sortEC2Ev = comdat any

$_ZN6vectorIP4sortLb0EjE9push_backEOS1_ = comdat any

$_ZN11ast_manager18mk_fresh_func_declEPKcS1_jPKP4sortS3_b = comdat any

$_ZNK6vectorIP4sortLb0EjE4sizeEv = comdat any

$_ZNK6vectorIP4sortLb0EjE4dataEv = comdat any

$_ZNK11ast_manager12mk_bool_sortEv = comdat any

$_ZN7obj_mapI9func_decljE6insertEPS0_RKj = comdat any

$_ZN15ref_vector_coreI9func_decl19ref_manager_wrapperIS0_11ast_managerEE9push_backEPS0_ = comdat any

$_ZN7obj_mapI9func_declP4exprE6insertEPS0_OS2_ = comdat any

$_ZN10ptr_vectorI4sortED2Ev = comdat any

$_ZNK7obj_refI4expr11ast_managerEcvbEv = comdat any

$_ZN6vectorI8rationalLb1EjE5resetEv = comdat any

$_ZN6vectorI8rationalLb1EjE6appendERKS1_ = comdat any

$_ZN3opt12adjust_value10set_offsetERK8rational = comdat any

$_ZN3opt12adjust_value10set_negateEb = comdat any

$_ZN7obj_refI3app11ast_managerEaSERKS2_ = comdat any

$_ZNK17arith_recognizers6is_intEPK4expr = comdat any

$_ZNK17arith_recognizers7is_realEPK4expr = comdat any

$_ZNK3opt12adjust_valueclERK8rational = comdat any

$_ZN3opt12adjust_value10add_offsetERK8rational = comdat any

$_ZN8rationalC2Ev = comdat any

$_ZN7obj_refI3app11ast_managerEC2ERKS2_ = comdat any

$_ZNK7obj_refI3app11ast_managerEntEv = comdat any

$_ZneRK8rationalS1_ = comdat any

$_ZN3refI23generic_model_converterEC2Ev = comdat any

$_ZNK17arith_recognizers6is_addEPK4expr = comdat any

$_ZNK7obj_refI3app11ast_managerEdeEv = comdat any

$_ZNK3app5beginEv = comdat any

$_ZNK3app3endEv = comdat any

$_ZNK11ast_manager6is_iteEPK4expr = comdat any

$_ZNK3refI23generic_model_converterEcvbEv = comdat any

$_ZNK3refI15model_converterE3getEv = comdat any

$_ZNK3refI23generic_model_converterE3getEv = comdat any

$_ZNK10arith_util10is_numeralEPK4expr = comdat any

$_ZNK17arith_recognizers6is_mulEPK4exprRPS0_S4_ = comdat any

$_ZN11ast_manager14mk_fresh_constERKNSt7__cxx1112basic_stringIcSt11char_traitsIcESaIcEEEP4sortb = comdat any

$_ZNK3refI23generic_model_converterEntEv = comdat any

$_ZN3refI23generic_model_converterEaSEPS0_ = comdat any

$_ZNK10arith_util5mk_leEP4exprS1_ = comdat any

$_ZNK3refI23generic_model_converterEptEv = comdat any

$_ZN23generic_model_converter4hideEP4expr = comdat any

$_ZN7obj_mapI9func_decljE5resetEv = comdat any

$_ZNK15ref_vector_coreI4expr19ref_manager_wrapperIS0_11ast_managerEE4dataEv = comdat any

$_ZN12inf_rationalC2ERK8rational = comdat any

$_ZN16inf_eps_rationalI12inf_rationalEC2ERKS0_ = comdat any

$_ZN12inf_rationalD2Ev = comdat any

$_ZneI12inf_rationalEbRK16inf_eps_rationalIT_ES5_ = comdat any

$_ZlsRSo6symbol = comdat any

$_ZNK3opt12adjust_valueclERK16inf_eps_rationalI12inf_rationalE = comdat any

$_ZNK16inf_eps_rationalI12inf_rationalE12get_infinityEv = comdat any

$_ZNK16inf_eps_rationalI12inf_rationalE12get_rationalEv = comdat any

$_ZNK16inf_eps_rationalI12inf_rationalE17get_infinitesimalEv = comdat any

$_ZNK8rational6is_intEv = comdat any

$_ZN11ast_manager8mk_constERK6symbolP4sort = comdat any

$_ZN10arith_util6mk_intEv = comdat any

$_ZN10arith_util7mk_realEv = comdat any

$_ZNK8rational6is_oneEv = comdat any

$_ZNK10arith_util6mk_mulEP4exprS1_ = comdat any

$_ZN10scoped_ptrIN3opt11pareto_baseEEaSEPS1_ = comdat any

$_ZN3refI5modelE5resetEv = comdat any

$_ZNK3refI6solverEcvbEv = comdat any

$_ZNK3refI6tacticEcvbEv = comdat any

$_ZN11ast_manager5limitEv = comdat any

$_ZNK10scoped_ptrIN2qe4qmaxEEcvbEv = comdat any

$_ZNK10scoped_ptrIN2qe4qmaxEEptEv = comdat any

$_ZN10opt_params20collect_param_descrsER12param_descrs = comdat any

$_ZN10params_ref6appendERKS_ = comdat any

$_ZNK10opt_params10enable_satEv = comdat any

$_ZNK10opt_params10enable_slsEv = comdat any

$_ZNK10opt_params13maxsat_engineEv = comdat any

$_ZNK10opt_params7pp_neatEv = comdat any

$_ZNK10opt_params7pp_wcnfEv = comdat any

$_ZNK10opt_params11incrementalEv = comdat any

$_ZN7svectorISt4pairIP4exprjEjEC2Ev = comdat any

$_ZNK8rational11is_unsignedEv = comdat any

$_ZN7svectorISt4pairIP4exprjEjED2Ev = comdat any

$_ZN23smt2_pp_environment_dbgC2ER11ast_manager = comdat any

$_ZN11ast_pp_utilC2ER11ast_manager = comdat any

$_ZN3refI15model_converterEC2EPS0_ = comdat any

$_ZNK6vectorIN3opt7context9objectiveELb1EjE5beginEv = comdat any

$_ZNK6vectorIN3opt7context9objectiveELb1EjE3endEv = comdat any

$_ZNK3refI15model_converterEcvbEv = comdat any

$_ZNK3refI15model_converterEptEv = comdat any

$_ZNK8rational15display_decimalERSojb = comdat any

$_ZN11ast_pp_utilD2Ev = comdat any

$_ZN23smt2_pp_environment_dbgD2Ev = comdat any

$_ZN8rationalaSEOS_ = comdat any

$_ZN16inf_eps_rationalI12inf_rationalEC2Ev = comdat any

$_ZN10scoped_ptrIN2qe4qmaxEEaSEPS1_ = comdat any

$_ZN10scoped_ptrIN2qe4qmaxEEdeEv = comdat any

$_ZN16inf_eps_rationalI12inf_rationalE3negEv = comdat any

$_ZN3opt7context14get_proof_coreEv = comdat any

$_ZN3opt7context18set_reason_unknownEPKc = comdat any

$_ZNK3opt7context11get_managerEv = comdat any

$_ZN3opt7context5emptyEv = comdat any

$_ZN3opt7context9is_paretoEv = comdat any

$_ZN3opt7context9set_logicERK6symbol = comdat any

$_ZN3opt7context14num_objectivesEv = comdat any

$_ZN3opt7context2fmEv = comdat any

$_ZN3opt7context11smt_contextEv = comdat any

$_ZNK3opt7context11sat_enabledEv = comdat any

$_ZN3opt7context6paramsEv = comdat any

$_ZNK3opt7context13maxsat_engineEv = comdat any

$_ZThn72_N3opt7context14num_objectivesEv = comdat any

$_ZThn80_N3opt7context2fmEv = comdat any

$_ZThn80_NK3opt7context11sat_enabledEv = comdat any

$_ZThn80_NK3opt7context11get_managerEv = comdat any

$_ZThn80_N3opt7context6paramsEv = comdat any

$_ZThn80_NK3opt7context13maxsat_engineEv = comdat any

$_ZThn80_N3opt7context11smt_contextEv = comdat any

$_ZThn80_N3opt7context14num_objectivesEv = comdat any

$_ZN12z3_exceptionC2Ev = comdat any

$_ZN12z3_exceptionD2Ev = comdat any

$_ZN3opt12adjust_valueC2Ev = comdat any

$_ZN3opt12adjust_valueD2Ev = comdat any

$_ZN8rational1mEv = comdat any

$_ZN11mpq_managerILb1EE7is_zeroERK3mpq = comdat any

$_ZN11mpq_managerILb1EE7is_zeroERK3mpz = comdat any

$_ZN11mpz_managerILb1EE7is_zeroERK3mpz = comdat any

$_ZN11mpz_managerILb1EE4signERK3mpz = comdat any

$_ZNK17arith_recognizers11is_int_realEPK4sort = comdat any

$_ZNK4decl13get_family_idEv = comdat any

$_ZNK9decl_info13get_family_idEv = comdat any

$_ZNK7obj_refI3app11ast_managerE11get_managerEv = comdat any

$_ZN16check_sat_resultC2ER11ast_manager = comdat any

$_ZN11opt_wrapperD2Ev = comdat any

$_ZN11opt_wrapperD0Ev = comdat any

$_ZN16check_sat_resultD2Ev = comdat any

$_ZN16check_sat_resultD0Ev = comdat any

$_ZN3opt15pareto_callbackD2Ev = comdat any

$_ZN3opt15pareto_callbackD0Ev = comdat any

$_ZN3opt14maxsat_contextD2Ev = comdat any

$_ZN3opt14maxsat_contextD0Ev = comdat any

$_ZN10ptr_vectorI5modelEC2Ev = comdat any

$_ZN6vectorIP5modelLb0EjEC2Ev = comdat any

$_ZN6vectorI16inf_eps_rationalI12inf_rationalELb1EjEC2Ev = comdat any

$_ZN10ref_vectorI3app11ast_managerEC2ERS1_ = comdat any

$_ZN7svectorIijEC2Ev = comdat any

$_ZN7svectorIijED2Ev = comdat any

$_ZN10ref_vectorI3app11ast_managerED2Ev = comdat any

$_ZN6vectorI16inf_eps_rationalI12inf_rationalELb1EjED2Ev = comdat any

$_ZN19ref_manager_wrapperI3app11ast_managerEC2ERS1_ = comdat any

$_ZN15ref_vector_coreI3app19ref_manager_wrapperIS0_11ast_managerEEC2ERKS3_ = comdat any

$_ZN10ptr_vectorI3appEC2Ev = comdat any

$_ZN6vectorIP3appLb0EjEC2Ev = comdat any

$_ZN6vectorIiLb0EjEC2Ev = comdat any

$_ZN6vectorIiLb0EjED2Ev = comdat any

$_ZN6vectorIiLb0EjE7destroyEv = comdat any

$_ZN6vectorIiLb0EjE11free_memoryEv = comdat any

$_ZN15ref_vector_coreI3app19ref_manager_wrapperIS0_11ast_managerEED2Ev = comdat any

$_ZN15ref_vector_coreI3app19ref_manager_wrapperIS0_11ast_managerEE13dec_range_refEPKPS0_S7_ = comdat any

$_ZNK6vectorIP3appLb0EjE4dataEv = comdat any

$_ZNK6vectorIP3appLb0EjE4sizeEv = comdat any

$_ZN10ptr_vectorI3appED2Ev = comdat any

$_ZN15ref_vector_coreI3app19ref_manager_wrapperIS0_11ast_managerEE7dec_refEPS0_ = comdat any

$_ZN19ref_manager_wrapperI3app11ast_managerE7dec_refEPS0_ = comdat any

$_ZN11ast_manager7dec_refEP3ast = comdat any

$_ZN3ast7dec_refEv = comdat any

$_ZNK3ast13get_ref_countEv = comdat any

$_ZN6vectorIP3appLb0EjED2Ev = comdat any

$_ZN6vectorIP3appLb0EjE7destroyEv = comdat any

$_ZN6vectorIP3appLb0EjE11free_memoryEv = comdat any

$_ZN6vectorI16inf_eps_rationalI12inf_rationalELb1EjE7destroyEv = comdat any

$_ZN6vectorI16inf_eps_rationalI12inf_rationalELb1EjE16destroy_elementsEv = comdat any

$_ZN6vectorI16inf_eps_rationalI12inf_rationalELb1EjE11free_memoryEv = comdat any

$_ZSt9destroy_nIP16inf_eps_rationalI12inf_rationalEjET_S4_T0_ = comdat any

$_ZNK6vectorI16inf_eps_rationalI12inf_rationalELb1EjE4sizeEv = comdat any

$_ZSt10_Destroy_nIP16inf_eps_rationalI12inf_rationalEjET_S4_T0_ = comdat any

$_ZNSt14_Destroy_n_auxILb0EE11__destroy_nIP16inf_eps_rationalI12inf_rationalEjEET_S6_T0_ = comdat any

$_ZSt8_DestroyI16inf_eps_rationalI12inf_rationalEEvPT_ = comdat any

$_ZN7svectorIjjEC2Ev = comdat any

$_ZN3mapI6symbolj16symbol_hash_proc14symbol_eq_procEC2ERKS1_RKS2_ = comdat any

$_ZN3mapI6symbolj16symbol_hash_proc14symbol_eq_procED2Ev = comdat any

$_ZN7svectorIjjED2Ev = comdat any

$_ZN6vectorIjLb0EjEC2Ev = comdat any

$_ZN9table2mapI17default_map_entryI6symboljE16symbol_hash_proc14symbol_eq_procEC2ERKS3_RKS4_ = comdat any

$_ZN9table2mapI17default_map_entryI6symboljE16symbol_hash_proc14symbol_eq_procE15entry_hash_procC2ERKS3_ = comdat any

$_ZN9table2mapI17default_map_entryI6symboljE16symbol_hash_proc14symbol_eq_procE13entry_eq_procC2ERKS4_ = comdat any

$_ZN14core_hashtableI17default_map_entryI6symboljEN9table2mapIS2_16symbol_hash_proc14symbol_eq_procE15entry_hash_procENS6_13entry_eq_procEEC2EjRKS7_RKS8_ = comdat any

$_ZN14core_hashtableI17default_map_entryI6symboljEN9table2mapIS2_16symbol_hash_proc14symbol_eq_procE15entry_hash_procENS6_13entry_eq_procEE11alloc_tableEj = comdat any

$_Z10alloc_vectI17default_map_entryI6symboljEEPT_j = comdat any

$_ZN17default_map_entryI6symboljEC2Ev = comdat any

$_ZN18default_hash_entryI9_key_dataI6symboljEEC2Ev = comdat any

$_ZN9_key_dataI6symboljEC2Ev = comdat any

$_ZN9table2mapI17default_map_entryI6symboljE16symbol_hash_proc14symbol_eq_procED2Ev = comdat any

$_ZN14core_hashtableI17default_map_entryI6symboljEN9table2mapIS2_16symbol_hash_proc14symbol_eq_procE15entry_hash_procENS6_13entry_eq_procEED2Ev = comdat any

$_ZN14core_hashtableI17default_map_entryI6symboljEN9table2mapIS2_16symbol_hash_proc14symbol_eq_procE15entry_hash_procENS6_13entry_eq_procEE12delete_tableEv = comdat any

$_Z12dealloc_vectI17default_map_entryI6symboljEEvPT_j = comdat any

$_ZN6vectorIjLb0EjED2Ev = comdat any

$_ZN6vectorIjLb0EjE7destroyEv = comdat any

$_ZN6vectorIjLb0EjE11free_memoryEv = comdat any

$_ZN15model_converterC2Ev = comdat any

$_ZN6vectorIN23generic_model_converter5entryELb1EjEC2Ev = comdat any

$_ZN15model_converterD2Ev = comdat any

$_ZN9converterC2Ev = comdat any

$_ZN9converterD2Ev = comdat any

$_ZN9converterD0Ev = comdat any

$_ZN9converter6cancelEv = comdat any

$_ZN6vectorI6symbolLb0EjED2Ev = comdat any

$_ZN6vectorI6symbolLb0EjE7destroyEv = comdat any

$_ZN6vectorI6symbolLb0EjE11free_memoryEv = comdat any

$_ZN15ref_vector_coreI4expr19ref_manager_wrapperIS0_11ast_managerEED2Ev = comdat any

$_ZN15ref_vector_coreI4expr19ref_manager_wrapperIS0_11ast_managerEE13dec_range_refEPKPS0_S7_ = comdat any

$_ZN15ref_vector_coreI4expr19ref_manager_wrapperIS0_11ast_managerEE7dec_refEPS0_ = comdat any

$_ZN19ref_manager_wrapperI4expr11ast_managerE7dec_refEPS0_ = comdat any

$_ZN15ref_vector_coreI9func_decl19ref_manager_wrapperIS0_11ast_managerEED2Ev = comdat any

$_ZN15ref_vector_coreI9func_decl19ref_manager_wrapperIS0_11ast_managerEE13dec_range_refEPKPS0_S7_ = comdat any

$_ZNK6vectorIP9func_declLb0EjE4dataEv = comdat any

$_ZNK6vectorIP9func_declLb0EjE4sizeEv = comdat any

$_ZN10ptr_vectorI9func_declED2Ev = comdat any

$_ZN15ref_vector_coreI9func_decl19ref_manager_wrapperIS0_11ast_managerEE7dec_refEPS0_ = comdat any

$_ZN19ref_manager_wrapperI9func_decl11ast_managerE7dec_refEPS0_ = comdat any

$_ZN6vectorIP9func_declLb0EjED2Ev = comdat any

$_ZN6vectorIP9func_declLb0EjE7destroyEv = comdat any

$_ZN6vectorIP9func_declLb0EjE11free_memoryEv = comdat any

$_ZN14core_hashtableIN7obj_mapI9func_declP4exprE13obj_map_entryE8obj_hashINS4_8key_dataEE10default_eqIS7_EED2Ev = comdat any

$_ZN14core_hashtableIN7obj_mapI9func_declP4exprE13obj_map_entryE8obj_hashINS4_8key_dataEE10default_eqIS7_EE12delete_tableEv = comdat any

$_Z12dealloc_vectIN7obj_mapI9func_declP4exprE13obj_map_entryEEvPT_j = comdat any

$_ZN14core_hashtableIN7obj_mapI9func_decljE13obj_map_entryE8obj_hashINS2_8key_dataEE10default_eqIS5_EED2Ev = comdat any

$_ZN14core_hashtableIN7obj_mapI9func_decljE13obj_map_entryE8obj_hashINS2_8key_dataEE10default_eqIS5_EE12delete_tableEv = comdat any

$_Z12dealloc_vectIN7obj_mapI9func_decljE13obj_map_entryEEvPT_j = comdat any

$_ZN9table2mapI17default_map_entryI6symbolPN3opt6maxsmtEE16symbol_hash_proc14symbol_eq_procED2Ev = comdat any

$_ZN14core_hashtableI17default_map_entryI6symbolPN3opt6maxsmtEEN9table2mapIS5_16symbol_hash_proc14symbol_eq_procE15entry_hash_procENS9_13entry_eq_procEED2Ev = comdat any

$_ZN14core_hashtableI17default_map_entryI6symbolPN3opt6maxsmtEEN9table2mapIS5_16symbol_hash_proc14symbol_eq_procE15entry_hash_procENS9_13entry_eq_procEE12delete_tableEv = comdat any

$_Z12dealloc_vectI17default_map_entryI6symbolPN3opt6maxsmtEEEvPT_j = comdat any

$_ZNSt14_Function_baseD2Ev = comdat any

$_ZNK10arith_util6pluginEv = comdat any

$_ZN3mpqC2Ev = comdat any

$_ZN11mpq_managerILb1EE3setER3mpqi = comdat any

$_ZN3mpzC2Ev = comdat any

$_ZN3mpzC2Ei = comdat any

$_ZN11mpq_managerILb1EE3setER3mpzi = comdat any

$_ZN11mpq_managerILb1EE17reset_denominatorER3mpq = comdat any

$_ZN11mpz_managerILb1EE3setER3mpzi = comdat any

$_ZN11mpq_managerILb1EE3delER3mpz = comdat any

$_ZN11mpz_managerILb1EE3delER3mpz = comdat any

$_ZN11mpq_managerILb1EE3delEPS0_R3mpq = comdat any

$_ZNK14bv_recognizers7get_fidEv = comdat any

$_ZN5timerC2Ev = comdat any

$_ZN9stopwatchC2Ev = comdat any

$_ZN9stopwatch5startEv = comdat any

$_ZNSt6chrono10time_pointINS_3_V212steady_clockENS_8durationIlSt5ratioILl1ELl1000000000EEEEEC2Ev = comdat any

$_ZN9stopwatch5resetEv = comdat any

$_ZNSt6chrono8durationIlSt5ratioILl1ELl1000000000EEE4zeroEv = comdat any

$_ZNSt6chrono15duration_valuesIlE4zeroEv = comdat any

$_ZNSt6chrono8durationIlSt5ratioILl1ELl1000000000EEEC2IlvEERKT_ = comdat any

$_ZN9stopwatch3getEv = comdat any

$_ZNK16check_sat_result3mc0Ev = comdat any

$_ZNK5timer11get_secondsEv = comdat any

$_ZNK9stopwatch19get_current_secondsEv = comdat any

$_ZNK9stopwatch11get_secondsEv = comdat any

$_ZN9stopwatch4stopEv = comdat any

$_ZNSt6chrono13duration_castINS_8durationIlSt5ratioILl1ELl1000EEEElS2_ILl1ELl1000000000EEEENSt9enable_ifIXsr13__is_durationIT_EE5valueES7_E4typeERKNS1_IT0_T1_EE = comdat any

$_ZNKSt6chrono8durationIlSt5ratioILl1ELl1000EEE5countEv = comdat any

$_ZNSt6chronomiINS_3_V212steady_clockENS_8durationIlSt5ratioILl1ELl1000000000EEEES6_EENSt11common_typeIJT0_T1_EE4typeERKNS_10time_pointIT_S8_EERKNSC_ISD_S9_EE = comdat any

$_ZNSt6chrono8durationIlSt5ratioILl1ELl1000000000EEEpLERKS3_ = comdat any

$_ZNSt6chronomiIlSt5ratioILl1ELl1000000000EElS2_EENSt11common_typeIJNS_8durationIT_T0_EENS4_IT1_T2_EEEE4typeERKS7_RKSA_ = comdat any

$_ZNKSt6chrono10time_pointINS_3_V212steady_clockENS_8durationIlSt5ratioILl1ELl1000000000EEEEE16time_since_epochEv = comdat any

$_ZNKSt6chrono8durationIlSt5ratioILl1ELl1000000000EEE5countEv = comdat any

$_ZNSt6chrono20__duration_cast_implINS_8durationIlSt5ratioILl1ELl1000EEEES2_ILl1ELl1000000EElLb1ELb0EE6__castIlS2_ILl1ELl1000000000EEEES4_RKNS1_IT_T0_EE = comdat any

$_ZNSt6chrono8durationIlSt5ratioILl1ELl1000EEEC2IlvEERKT_ = comdat any

$_Z6to_appPK3ast = comdat any

$_ZNK3app15has_quantifiersEv = comdat any

$_Z13is_quantifierPK3ast = comdat any

$_ZNK3app5flagsEv = comdat any

$_ZNK3ast8get_kindEv = comdat any

$_ZN11ast_manager12mk_family_idEPKc = comdat any

$_ZN6vectorI9parameterLb1EjEC2Ev = comdat any

$_ZN6vectorI9parameterLb1EjED2Ev = comdat any

$_ZN11ast_manager12mk_family_idERK6symbol = comdat any

$_ZN6vectorI9parameterLb1EjE7destroyEv = comdat any

$_ZN6vectorI9parameterLb1EjE16destroy_elementsEv = comdat any

$_ZN6vectorI9parameterLb1EjE11free_memoryEv = comdat any

$_ZSt9destroy_nIP9parameterjET_S2_T0_ = comdat any

$_ZNK6vectorI9parameterLb1EjE4sizeEv = comdat any

$_ZSt10_Destroy_nIP9parameterjET_S2_T0_ = comdat any

$_ZNSt14_Destroy_n_auxILb0EE11__destroy_nIP9parameterjEET_S4_T0_ = comdat any

$_ZSt8_DestroyI9parameterEvPT_ = comdat any

$_ZN11mpq_managerILb1EE3addERK3mpqS3_RS1_ = comdat any

$_ZN11mpq_managerILb1EE3setER3mpqRKS1_ = comdat any

$_ZN11mpq_managerILb1EE6is_intERK3mpq = comdat any

$_ZN11mpq_managerILb1EE3setER3mpzRKS1_ = comdat any

$_ZN11mpz_managerILb1EE3setER3mpzRKS1_ = comdat any

$_ZN11mpz_managerILb1EE8is_smallERK3mpz = comdat any

$_ZN11mpq_managerILb1EE6is_oneERK3mpz = comdat any

$_ZN11mpz_managerILb1EE6is_oneERK3mpz = comdat any

$_ZN6vectorIP4exprLb0EjED2Ev = comdat any

$_ZN6vectorIP4exprLb0EjE7destroyEv = comdat any

$_ZN6vectorIP4exprLb0EjE11free_memoryEv = comdat any

$_ZN3opt11pareto_baseC2ER11ast_managerRNS_15pareto_callbackEP6solverR10params_ref = comdat any

$_ZN3opt11pareto_baseD2Ev = comdat any

$_ZN3opt11pareto_baseD0Ev = comdat any

$_ZN3opt11pareto_base11updt_paramsER10params_ref = comdat any

$_ZN3opt11pareto_base20collect_param_descrsER12param_descrs = comdat any

$_ZNK3opt11pareto_base18collect_statisticsER10statistics = comdat any

$_ZNK3opt11pareto_base7displayERSo = comdat any

$_ZN3opt11pareto_base9get_modelER3refI5modelER7svectorI6symboljE = comdat any

$_ZN7svectorI6symboljEaSERKS1_ = comdat any

$_ZN6vectorI6symbolLb0EjEaSERKS1_ = comdat any

$_ZN6vectorI6symbolLb0EjE9copy_coreERKS1_ = comdat any

$_ZNK6vectorI6symbolLb0EjE4sizeEv = comdat any

$_ZNK6vectorI6symbolLb0EjE8capacityEv = comdat any

$_ZSt18uninitialized_copyIPK6symbolPS0_ET0_T_S5_S4_ = comdat any

$_ZNK6vectorI6symbolLb0EjE5beginEv = comdat any

$_ZNK6vectorI6symbolLb0EjE3endEv = comdat any

$_ZN6vectorI6symbolLb0EjE5beginEv = comdat any

$_ZNSt20__uninitialized_copyILb0EE13__uninit_copyIPK6symbolPS2_EET0_T_S7_S6_ = comdat any

$_ZSt16__do_uninit_copyIPK6symbolPS0_ET0_T_S5_S4_ = comdat any

$_ZSt10_ConstructI6symbolJRKS0_EEvPT_DpOT0_ = comdat any

$_ZSt8_DestroyIP6symbolEvT_S2_ = comdat any

$_ZNSt12_Destroy_auxILb1EE9__destroyIP6symbolEEvT_S4_ = comdat any

$_ZNSt8__detail14__to_chars_lenIjEEjT_i = comdat any

$_ZNSt7__cxx1112basic_stringIcSt11char_traitsIcESaIcEEC2IS3_EEmcRKS3_ = comdat any

$_ZNSt8__detail18__to_chars_10_implIjEEvPcjT_ = comdat any

$_ZNSt7__cxx1112basic_stringIcSt11char_traitsIcESaIcEE12_Alloc_hiderD2Ev = comdat any

$_ZN10ptr_bufferI3astLj16EEC2Ev = comdat any

$_ZN6bufferIP3astLb0ELj16EEC2Ev = comdat any

$_ZNK6vectorIN3opt4softELb1EjE4sizeEv = comdat any

$_ZNK6vectorIN3opt4softELb1EjEixEj = comdat any

$_ZNK3app13get_family_idEv = comdat any

$_ZNK11ast_manager6is_notEPK4expr = comdat any

$_Z9is_app_ofPK4exprii = comdat any

$_ZNK3app9is_app_ofEii = comdat any

$_ZNK4decl10is_decl_ofEii = comdat any

$_ZNK9decl_info10is_decl_ofEii = comdat any

$_ZNK4goal1mEv = comdat any

$_ZZ19mk_solve_eqs_tacticR11ast_managerRK10params_refENKUlRT_RT0_RT1_E_cvPFP25dependent_expr_simplifierS5_S7_S9_EIS_S2_20dependent_expr_stateEEv = comdat any

$_ZN27dependent_expr_state_tacticC2ER11ast_managerRK10params_refPFP25dependent_expr_simplifierS1_S4_R20dependent_expr_stateE = comdat any

$_ZZ19mk_solve_eqs_tacticR11ast_managerRK10params_refENUlRT_RT0_RT1_E_8__invokeIS_S2_20dependent_expr_stateEEP25dependent_expr_simplifierS5_S7_S9_ = comdat any

$_ZZ19mk_solve_eqs_tacticR11ast_managerRK10params_refENKUlRT_RT0_RT1_E_clIS_S2_20dependent_expr_stateEEP25dependent_expr_simplifierS5_S7_S9_ = comdat any

$_ZN6tacticC2Ev = comdat any

$_ZN20dependent_expr_stateC2ER11ast_manager = comdat any

$_ZN11trail_stackC2Ev = comdat any

$_ZN3refI4goalEC2Ev = comdat any

$_ZN14dependent_exprC2ER11ast_managerP4exprP3appPN18dependency_managerINS0_22expr_dependency_configEE10dependencyE = comdat any

$_ZN10statisticsC2Ev = comdat any

$_ZN10scoped_ptrI25dependent_expr_simplifierEC2EPS0_ = comdat any

$_ZN10scoped_ptrI26model_reconstruction_trailEC2EPS0_ = comdat any

$_ZN10scoped_ptrI25dependent_expr_simplifierED2Ev = comdat any

$_ZN10statisticsD2Ev = comdat any

$_ZN14dependent_exprD2Ev = comdat any

$_ZN11trail_stackD2Ev = comdat any

$_ZN27dependent_expr_state_tacticD2Ev = comdat any

$_ZN27dependent_expr_state_tacticD0Ev = comdat any

$_ZN6tactic19user_propagate_initEPvRSt8functionIFvS0_PN15user_propagator8callbackEEERS1_IFvS0_S4_jEERS1_IFS0_S0_R11ast_managerRPNS2_11context_objEEE = comdat any

$_ZN15user_propagator4core29user_propagate_register_fixedERSt8functionIFvPvPNS_8callbackEP4exprS6_EE = comdat any

$_ZN15user_propagator4core29user_propagate_register_finalERSt8functionIFvPvPNS_8callbackEEE = comdat any

$_ZN15user_propagator4core26user_propagate_register_eqERSt8functionIFvPvPNS_8callbackEP4exprS6_EE = comdat any

$_ZN15user_propagator4core29user_propagate_register_diseqERSt8functionIFvPvPNS_8callbackEP4exprS6_EE = comdat any

$_ZN27dependent_expr_state_tactic28user_propagate_register_exprEP4expr = comdat any

$_ZN15user_propagator4core31user_propagate_register_createdERSt8functionIFvPvPNS_8callbackEP4exprEE = comdat any

$_ZN15user_propagator4core30user_propagate_register_decideERSt8functionIFvPvPNS_8callbackEP4exprjbEE = comdat any

$_ZN27dependent_expr_state_tactic20user_propagate_clearEv = comdat any

$_ZN6tactic18register_on_clauseEPvRSt8functionIFvS0_P4exprjPKjjPKS3_EE = comdat any

$_ZN27dependent_expr_state_tactic11updt_paramsERK10params_ref = comdat any

$_ZN27dependent_expr_state_tactic20collect_param_descrsER12param_descrs = comdat any

$_ZN27dependent_expr_state_tacticclERK3refI4goalER11sref_bufferIS1_Lj16EE = comdat any

$_ZNK27dependent_expr_state_tactic18collect_statisticsER10statistics = comdat any

$_ZN27dependent_expr_state_tactic16reset_statisticsEv = comdat any

$_ZN27dependent_expr_state_tactic7cleanupEv = comdat any

$_ZN6tactic5resetEv = comdat any

$_ZN6tactic9set_logicERK6symbol = comdat any

$_ZN6tactic21set_progress_callbackEP17progress_callback = comdat any

$_ZN27dependent_expr_state_tactic9translateER11ast_manager = comdat any

$_ZNK27dependent_expr_state_tactic4nameEv = comdat any

$_ZNK27dependent_expr_state_tactic5qtailEv = comdat any

$_ZN27dependent_expr_state_tacticixEj = comdat any

$_ZN27dependent_expr_state_tactic6updateEjRK14dependent_expr = comdat any

$_ZN27dependent_expr_state_tactic3addERK14dependent_expr = comdat any

$_ZN27dependent_expr_state_tactic12inconsistentEv = comdat any

$_ZN27dependent_expr_state_tactic11model_trailEv = comdat any

$_ZN27dependent_expr_state_tactic7updatedEv = comdat any

$_ZN27dependent_expr_state_tactic13reset_updatedEv = comdat any

$_ZThn16_N27dependent_expr_state_tacticD1Ev = comdat any

$_ZThn16_N27dependent_expr_state_tacticD0Ev = comdat any

$_ZThn16_NK27dependent_expr_state_tactic5qtailEv = comdat any

$_ZThn16_N27dependent_expr_state_tacticixEj = comdat any

$_ZThn16_N27dependent_expr_state_tactic6updateEjRK14dependent_expr = comdat any

$_ZThn16_N27dependent_expr_state_tactic3addERK14dependent_expr = comdat any

$_ZThn16_N27dependent_expr_state_tactic12inconsistentEv = comdat any

$_ZThn16_N27dependent_expr_state_tactic11model_trailEv = comdat any

$_ZN20dependent_expr_state14flatten_suffixEv = comdat any

$_ZThn16_N27dependent_expr_state_tactic7updatedEv = comdat any

$_ZThn16_N27dependent_expr_state_tactic13reset_updatedEv = comdat any

$_ZNK20dependent_expr_state7displayERSo = comdat any

$_ZN15user_propagator4coreC2Ev = comdat any

$_ZN6tacticD2Ev = comdat any

$_ZN6tacticD0Ev = comdat any

$_ZN6tactic28user_propagate_register_exprEP4expr = comdat any

$_ZN15user_propagator4core20user_propagate_clearEv = comdat any

$_ZN6tactic11updt_paramsERK10params_ref = comdat any

$_ZN6tactic20collect_param_descrsER12param_descrs = comdat any

$_ZNK6tactic18collect_statisticsER10statistics = comdat any

$_ZN6tactic16reset_statisticsEv = comdat any

$_ZN15user_propagator4coreD2Ev = comdat any

$_ZN15user_propagator4coreD0Ev = comdat any

$_ZN15user_propagator4core19user_propagate_initEPvRSt8functionIFvS1_PNS_8callbackEEERS2_IFvS1_S4_jEERS2_IFS1_S1_R11ast_managerRPNS_11context_objEEE = comdat any

$_ZN15user_propagator4core28user_propagate_register_exprEP4expr = comdat any

$_ZN15user_propagator4core18register_on_clauseEPvRSt8functionIFvS1_P4exprjPKjjPKS4_EE = comdat any

$_ZN8ast_markC2Ev = comdat any

$_ZN8ast_markD2Ev = comdat any

$_ZN20dependent_expr_stateD2Ev = comdat any

$_ZN20dependent_expr_stateD0Ev = comdat any

$_ZN8obj_markI4expr10bit_vector14default_t2uintIS0_EEC2ERKS3_ = comdat any

$_ZN8obj_markI4decl10bit_vectorN8ast_mark9decl2uintEEC2ERKS3_ = comdat any

$_ZN8obj_markI4expr10bit_vector14default_t2uintIS0_EED2Ev = comdat any

$_ZN10bit_vectorC2Ev = comdat any

$_ZN10bit_vectorD2Ev = comdat any

$_Z13dealloc_svectIjEvPT_ = comdat any

$_ZN8obj_markI4decl10bit_vectorN8ast_mark9decl2uintEED2Ev = comdat any

$_ZN10ptr_vectorI5trailEC2Ev = comdat any

$_ZN10ptr_vectorI5trailED2Ev = comdat any

$_ZN6vectorIP5trailLb0EjEC2Ev = comdat any

$_ZN6vectorIP5trailLb0EjED2Ev = comdat any

$_ZN6vectorIP5trailLb0EjE7destroyEv = comdat any

$_ZN6vectorIP5trailLb0EjE11free_memoryEv = comdat any

$_ZN11ast_manager7inc_refEP3ast = comdat any

$_ZN11ast_manager7inc_refEPN18dependency_managerINS_22expr_dependency_configEE10dependencyE = comdat any

$_ZN3ast7inc_refEv = comdat any

$_ZN18dependency_managerIN11ast_manager22expr_dependency_configEE7inc_refEPNS2_10dependencyE = comdat any

$_ZN7svectorISt4pairIPKcjEjEC2Ev = comdat any

$_ZN7svectorISt4pairIPKcdEjEC2Ev = comdat any

$_ZN7svectorISt4pairIPKcjEjED2Ev = comdat any

$_ZN6vectorISt4pairIPKcjELb0EjEC2Ev = comdat any

$_ZN6vectorISt4pairIPKcdELb0EjEC2Ev = comdat any

$_ZN6vectorISt4pairIPKcjELb0EjED2Ev = comdat any

$_ZN6vectorISt4pairIPKcjELb0EjE7destroyEv = comdat any

$_ZN6vectorISt4pairIPKcjELb0EjE11free_memoryEv = comdat any

$_Z7deallocI25dependent_expr_simplifierEvPT_ = comdat any

$_ZN7svectorISt4pairIPKcdEjED2Ev = comdat any

$_ZN6vectorISt4pairIPKcdELb0EjED2Ev = comdat any

$_ZN6vectorISt4pairIPKcdELb0EjE7destroyEv = comdat any

$_ZN6vectorISt4pairIPKcdELb0EjE11free_memoryEv = comdat any

$_ZN11ast_manager7dec_refEPN18dependency_managerINS_22expr_dependency_configEE10dependencyE = comdat any

$_ZN18dependency_managerIN11ast_manager22expr_dependency_configEE7dec_refEPNS2_10dependencyE = comdat any

$_ZN18dependency_managerIN11ast_manager22expr_dependency_configEE3delEPNS2_10dependencyE = comdat any

$_ZN6vectorIPN18dependency_managerIN11ast_manager22expr_dependency_configEE10dependencyELb0EjE9push_backERKS5_ = comdat any

$_ZNK6vectorIPN18dependency_managerIN11ast_manager22expr_dependency_configEE10dependencyELb0EjE5emptyEv = comdat any

$_ZN6vectorIPN18dependency_managerIN11ast_manager22expr_dependency_configEE10dependencyELb0EjE4backEv = comdat any

$_ZN6vectorIPN18dependency_managerIN11ast_manager22expr_dependency_configEE10dependencyELb0EjE8pop_backEv = comdat any

$_ZNK18dependency_managerIN11ast_manager22expr_dependency_configEE10dependency7is_leafEv = comdat any

$_ZN18dependency_managerIN11ast_manager22expr_dependency_configEE7dec_refERKP4expr = comdat any

$_ZN18dependency_managerIN11ast_manager22expr_dependency_configEE7to_leafEPNS2_10dependencyE = comdat any

$_ZN18dependency_managerIN11ast_manager22expr_dependency_configEE7to_joinEPNS2_10dependencyE = comdat any

$_ZN6vectorIPN18dependency_managerIN11ast_manager22expr_dependency_configEE10dependencyELb0EjE13expand_vectorEv = comdat any

$_ZN6vectorIPN18dependency_managerIN11ast_manager22expr_dependency_configEE10dependencyELb0EjEixEj = comdat any

$_ZNK6vectorIPN18dependency_managerIN11ast_manager22expr_dependency_configEE10dependencyELb0EjE4sizeEv = comdat any

$_ZNK10scoped_ptrI25dependent_expr_simplifierEcvbEv = comdat any

$_ZN20dependent_expr_state3popEj = comdat any

$_ZN10scoped_ptrI26model_reconstruction_trailED2Ev = comdat any

$_ZN11trail_stack9pop_scopeEj = comdat any

$_ZN6vectorIjLb0EjEixEj = comdat any

$_Z16undo_trail_stackR10ptr_vectorI5trailEj = comdat any

$_ZN6vectorIjLb0EjE6shrinkEj = comdat any

$_ZN6region9pop_scopeEj = comdat any

$_ZN6vectorIP5trailLb0EjE5beginEv = comdat any

$_ZN6vectorIP5trailLb0EjE3endEv = comdat any

$_ZN6vectorIP5trailLb0EjE6shrinkEj = comdat any

$_ZNK6vectorIP5trailLb0EjE4sizeEv = comdat any

$_Z7deallocI26model_reconstruction_trailEvPT_ = comdat any

$_ZN26model_reconstruction_trailD2Ev = comdat any

$_ZN17scoped_ptr_vectorIN26model_reconstruction_trail5entryEED2Ev = comdat any

$_ZN17scoped_ptr_vectorIN26model_reconstruction_trail5entryEE5resetEv = comdat any

$_ZN10ptr_vectorIN26model_reconstruction_trail5entryEED2Ev = comdat any

$_ZSt8for_eachIPPN26model_reconstruction_trail5entryE11delete_procIS1_EET0_T_S7_S6_ = comdat any

$_ZN6vectorIPN26model_reconstruction_trail5entryELb0EjE5beginEv = comdat any

$_ZN6vectorIPN26model_reconstruction_trail5entryELb0EjE3endEv = comdat any

$_ZN6vectorIPN26model_reconstruction_trail5entryELb0EjE5resetEv = comdat any

$_ZN11delete_procIN26model_reconstruction_trail5entryEEclEPS1_ = comdat any

$_Z7deallocIN26model_reconstruction_trail5entryEEvPT_ = comdat any

$_ZN26model_reconstruction_trail5entryD2Ev = comdat any

$_ZN6vectorISt5tupleIJ7obj_refI9func_decl11ast_managerES1_I4exprS3_ES1_IN18dependency_managerINS3_22expr_dependency_configEE10dependencyES3_EEELb1EjED2Ev = comdat any

$_ZN7obj_refI9func_decl11ast_managerED2Ev = comdat any

$_ZN6vectorI14dependent_exprLb1EjED2Ev = comdat any

$_ZN10scoped_ptrI17expr_substitutionED2Ev = comdat any

$_ZN6vectorISt5tupleIJ7obj_refI9func_decl11ast_managerES1_I4exprS3_ES1_IN18dependency_managerINS3_22expr_dependency_configEE10dependencyES3_EEELb1EjE7destroyEv = comdat any

$_ZN6vectorISt5tupleIJ7obj_refI9func_decl11ast_managerES1_I4exprS3_ES1_IN18dependency_managerINS3_22expr_dependency_configEE10dependencyES3_EEELb1EjE16destroy_elementsEv = comdat any

$_ZN6vectorISt5tupleIJ7obj_refI9func_decl11ast_managerES1_I4exprS3_ES1_IN18dependency_managerINS3_22expr_dependency_configEE10dependencyES3_EEELb1EjE11free_memoryEv = comdat any

$_ZSt9destroy_nIPSt5tupleIJ7obj_refI9func_decl11ast_managerES1_I4exprS3_ES1_IN18dependency_managerINS3_22expr_dependency_configEE10dependencyES3_EEEjET_SE_T0_ = comdat any

$_ZNK6vectorISt5tupleIJ7obj_refI9func_decl11ast_managerES1_I4exprS3_ES1_IN18dependency_managerINS3_22expr_dependency_configEE10dependencyES3_EEELb1EjE4sizeEv = comdat any

$_ZSt10_Destroy_nIPSt5tupleIJ7obj_refI9func_decl11ast_managerES1_I4exprS3_ES1_IN18dependency_managerINS3_22expr_dependency_configEE10dependencyES3_EEEjET_SE_T0_ = comdat any

$_ZNSt14_Destroy_n_auxILb0EE11__destroy_nIPSt5tupleIJ7obj_refI9func_decl11ast_managerES3_I4exprS5_ES3_IN18dependency_managerINS5_22expr_dependency_configEE10dependencyES5_EEEjEET_SG_T0_ = comdat any

$_ZSt8_DestroyISt5tupleIJ7obj_refI9func_decl11ast_managerES1_I4exprS3_ES1_IN18dependency_managerINS3_22expr_dependency_configEE10dependencyES3_EEEEvPT_ = comdat any

$_ZNSt5tupleIJ7obj_refI9func_decl11ast_managerES0_I4exprS2_ES0_IN18dependency_managerINS2_22expr_dependency_configEE10dependencyES2_EEED2Ev = comdat any

$_ZNSt11_Tuple_implILm0EJ7obj_refI9func_decl11ast_managerES0_I4exprS2_ES0_IN18dependency_managerINS2_22expr_dependency_configEE10dependencyES2_EEED2Ev = comdat any

$_ZNSt10_Head_baseILm0E7obj_refI9func_decl11ast_managerELb0EED2Ev = comdat any

$_ZNSt11_Tuple_implILm1EJ7obj_refI4expr11ast_managerES0_IN18dependency_managerINS2_22expr_dependency_configEE10dependencyES2_EEED2Ev = comdat any

$_ZNSt10_Head_baseILm1E7obj_refI4expr11ast_managerELb0EED2Ev = comdat any

$_ZNSt11_Tuple_implILm2EJ7obj_refIN18dependency_managerIN11ast_manager22expr_dependency_configEE10dependencyES2_EEED2Ev = comdat any

$_ZNSt10_Head_baseILm2E7obj_refIN18dependency_managerIN11ast_manager22expr_dependency_configEE10dependencyES2_ELb0EED2Ev = comdat any

$_ZN7obj_refI9func_decl11ast_managerE7dec_refEv = comdat any

$_ZN6vectorI14dependent_exprLb1EjE7destroyEv = comdat any

$_ZN6vectorI14dependent_exprLb1EjE16destroy_elementsEv = comdat any

$_ZN6vectorI14dependent_exprLb1EjE11free_memoryEv = comdat any

$_ZSt9destroy_nIP14dependent_exprjET_S2_T0_ = comdat any

$_ZNK6vectorI14dependent_exprLb1EjE4sizeEv = comdat any

$_ZSt10_Destroy_nIP14dependent_exprjET_S2_T0_ = comdat any

$_ZNSt14_Destroy_n_auxILb0EE11__destroy_nIP14dependent_exprjEET_S4_T0_ = comdat any

$_ZSt8_DestroyI14dependent_exprEvPT_ = comdat any

$_Z7deallocI17expr_substitutionEvPT_ = comdat any

$_ZNK6vectorIPN26model_reconstruction_trail5entryELb0EjE4sizeEv = comdat any

$_ZN6vectorIPN26model_reconstruction_trail5entryELb0EjED2Ev = comdat any

$_ZN6vectorIPN26model_reconstruction_trail5entryELb0EjE7destroyEv = comdat any

$_ZN6vectorIPN26model_reconstruction_trail5entryELb0EjE11free_memoryEv = comdat any

$_ZN20dependent_expr_state4pushEv = comdat any

$_ZN11trail_stack10push_scopeEv = comdat any

$_ZN11trail_stack4pushI11value_trailIjEEEvRKT_ = comdat any

$_ZN11value_trailIjEC2ERj = comdat any

$_ZN11value_trailIjED2Ev = comdat any

$_ZN11trail_stack4pushIN20dependent_expr_state4thawEEEvRKT_ = comdat any

$_ZN20dependent_expr_state4thawC2ERS_ = comdat any

$_ZN20dependent_expr_state4thawD2Ev = comdat any

$_ZN6vectorIP5trailLb0EjE9push_backEOS1_ = comdat any

$_ZnwmR6region = comdat any

$_ZN11value_trailIjEC2ERKS0_ = comdat any

$_ZN6vectorIP5trailLb0EjE13expand_vectorEv = comdat any

$_ZN5trailC2ERKS_ = comdat any

$_ZN11value_trailIjED0Ev = comdat any

$_ZN11value_trailIjE4undoEv = comdat any

$_ZN5trailD2Ev = comdat any

$_ZN5trailD0Ev = comdat any

$_ZN5trailC2Ev = comdat any

$_ZN20dependent_expr_state4thawC2ERKS0_ = comdat any

$_ZN20dependent_expr_state4thawD0Ev = comdat any

$_ZN20dependent_expr_state4thaw4undoEv = comdat any

$_ZNK15ref_vector_coreI9func_decl19ref_manager_wrapperIS0_11ast_managerEE4sizeEv = comdat any

$_ZNK15ref_vector_coreI9func_decl19ref_manager_wrapperIS0_11ast_managerEE3getEj = comdat any

$_ZN15ref_vector_coreI9func_decl19ref_manager_wrapperIS0_11ast_managerEE6shrinkEj = comdat any

$_ZNK6vectorIP9func_declLb0EjEixEj = comdat any

$_ZN6vectorIP9func_declLb0EjE5beginEv = comdat any

$_ZN6vectorIP9func_declLb0EjE3endEv = comdat any

$_ZN6vectorIP9func_declLb0EjE6shrinkEj = comdat any

$_ZN27dependent_expr_state_tactic4initEv = comdat any

$_ZNK10scoped_ptrI25dependent_expr_simplifierEptEv = comdat any

$_ZN10scoped_ptrI25dependent_expr_simplifierEaSEPS0_ = comdat any

$_ZNK10scoped_ptrI26model_reconstruction_trailEcvbEv = comdat any

$_ZN26model_reconstruction_trailC2ER11ast_managerR11trail_stack = comdat any

$_ZN10scoped_ptrI26model_reconstruction_trailEaSEPS0_ = comdat any

$_ZN17scoped_ptr_vectorIN26model_reconstruction_trail5entryEEC2Ev = comdat any

$_ZN10ptr_vectorIN26model_reconstruction_trail5entryEEC2Ev = comdat any

$_ZN6vectorIPN26model_reconstruction_trail5entryELb0EjEC2Ev = comdat any

$_ZN17statistics_reportC2ER6tactic = comdat any

$_ZNK3refI4goalEdeEv = comdat any

$_ZNK3refI4goalE3getEv = comdat any

$_ZN3refI4goalEaSEPS0_ = comdat any

$_ZNK4goal14proofs_enabledEv = comdat any

$_ZN16tactic_exceptionC2EONSt7__cxx1112basic_stringIcSt11char_traitsIcESaIcEEE = comdat any

$_ZN16tactic_exceptionD2Ev = comdat any

$_ZN4goal9inc_depthEv = comdat any

$_ZNK4goal14models_enabledEv = comdat any

$_ZN4goal3addEP15model_converter = comdat any

$_ZNK10scoped_ptrI26model_reconstruction_trailEptEv = comdat any

$_ZN15ref_buffer_coreI4goal21ref_unmanaged_wrapperIS0_ELj16EE9push_backEPS0_ = comdat any

$_ZNSt8functionIFvR10statisticsEEC2Ev = comdat any

$_ZNSt14_Function_baseC2Ev = comdat any

$_ZN4goal7inc_refEv = comdat any

$_ZN3refI4goalE7dec_refEv = comdat any

$_ZN4goal7dec_refEv = comdat any

$_Z7deallocI4goalEvPT_ = comdat any

$_ZN16tactic_exceptionD0Ev = comdat any

$_ZNK16tactic_exception3msgEv = comdat any

$_ZN15ref_buffer_coreI4goal21ref_unmanaged_wrapperIS0_ELj16EE7inc_refEPS0_ = comdat any

$_ZN6bufferIP4goalLb0ELj16EE9push_backERKS1_ = comdat any

$_ZN21ref_unmanaged_wrapperI4goalE7inc_refEPS0_ = comdat any

$_ZN6bufferIP4goalLb0ELj16EE6expandEv = comdat any

$_ZN6bufferIP4goalLb0ELj16EE11free_memoryEv = comdat any

$_Z13dealloc_svectIP4goalEvPT_ = comdat any

$_ZN14dependent_expraSERKS_ = comdat any

$_ZNK4goal2prEj = comdat any

$_ZNK11ast_manager4sizeERKN14parray_managerINS_17expr_array_configEE3refE = comdat any

$_ZNK11ast_manager3getERKN14parray_managerINS_17expr_array_configEE3refEj = comdat any

$_ZNK14parray_managerIN11ast_manager17expr_array_configEE4sizeERKNS2_3refE = comdat any

$_ZNK14parray_managerIN11ast_manager17expr_array_configEE4cell4kindEv = comdat any

$_ZNK14parray_managerIN11ast_manager17expr_array_configEE4cell4nextEv = comdat any

$_ZNK14parray_managerIN11ast_manager17expr_array_configEE4cell3idxEv = comdat any

$_ZNK14parray_managerIN11ast_manager17expr_array_configEE4cell4sizeEv = comdat any

$_ZNK14parray_managerIN11ast_manager17expr_array_configEE3getERKNS2_3refEj = comdat any

$_ZN14parray_managerIN11ast_manager17expr_array_configEE6rerootERNS2_3refE = comdat any

$_ZNK14parray_managerIN11ast_manager17expr_array_configEE4cell4elemEv = comdat any

$_ZNK14parray_managerIN11ast_manager17expr_array_configEE3ref4rootEv = comdat any

$_ZN6vectorIPN14parray_managerIN11ast_manager17expr_array_configEE4cellELb0EjE5resetEv = comdat any

$_ZN6vectorIPN14parray_managerIN11ast_manager17expr_array_configEE4cellELb0EjE9push_backERKS5_ = comdat any

$_ZN14parray_managerIN11ast_manager17expr_array_configEE6unfoldEPNS2_4cellE = comdat any

$_ZNK6vectorIPN14parray_managerIN11ast_manager17expr_array_configEE4cellELb0EjE4sizeEv = comdat any

$_ZN6vectorIPN14parray_managerIN11ast_manager17expr_array_configEE4cellELb0EjEixEj = comdat any

$_ZN14parray_managerIN11ast_manager17expr_array_configEE8capacityEPP4expr = comdat any

$_ZN14parray_managerIN11ast_manager17expr_array_configEE6expandERPP4expr = comdat any

$_ZN14parray_managerIN11ast_manager17expr_array_configEE7inc_refEPNS2_4cellE = comdat any

$_ZN14parray_managerIN11ast_manager17expr_array_configEE7dec_refEPNS2_4cellE = comdat any

$_ZN6vectorIPN14parray_managerIN11ast_manager17expr_array_configEE4cellELb0EjE13expand_vectorEv = comdat any

$_ZN14parray_managerIN11ast_manager17expr_array_configEE10get_valuesEPNS2_4cellERPP4expr = comdat any

$_ZN14parray_managerIN11ast_manager17expr_array_configEE7dec_refERKP4expr = comdat any

$_ZN14parray_managerIN11ast_manager17expr_array_configEE11copy_valuesEPP4exprjRS5_ = comdat any

$_ZN14parray_managerIN11ast_manager17expr_array_configEE4rsetEPP4exprjRKS4_ = comdat any

$_ZN14parray_managerIN11ast_manager17expr_array_configEE9rpop_backEPP4exprRj = comdat any

$_ZN14parray_managerIN11ast_manager17expr_array_configEE10rpush_backERPP4exprRjRKS4_ = comdat any

$_ZN14parray_managerIN11ast_manager17expr_array_configEE15allocate_valuesEm = comdat any

$_ZN14parray_managerIN11ast_manager17expr_array_configEE7inc_refERKP4expr = comdat any

$_ZN14parray_managerIN11ast_manager17expr_array_configEE17deallocate_valuesEPP4expr = comdat any

$_ZN14parray_managerIN11ast_manager17expr_array_configEE3delEPNS2_4cellE = comdat any

$_ZN14parray_managerIN11ast_manager17expr_array_configEE7dec_refEjPP4expr = comdat any

$_ZNK14dependent_exprclEv = comdat any

$_ZSt3getILm0EJP4exprP3appPN18dependency_managerIN11ast_manager22expr_dependency_configEE10dependencyEEEONSt13tuple_elementIXT_ESt5tupleIJDpT0_EEE4typeEOSE_ = comdat any

$_ZSt3getILm1EJP4exprP3appPN18dependency_managerIN11ast_manager22expr_dependency_configEE10dependencyEEEONSt13tuple_elementIXT_ESt5tupleIJDpT0_EEE4typeEOSE_ = comdat any

$_ZSt3getILm2EJP4exprP3appPN18dependency_managerIN11ast_manager22expr_dependency_configEE10dependencyEEEONSt13tuple_elementIXT_ESt5tupleIJDpT0_EEE4typeEOSE_ = comdat any

$_ZNSt5tupleIJP4exprP3appPN18dependency_managerIN11ast_manager22expr_dependency_configEE10dependencyEEEC2ILb1ETnNSt9enable_ifIXclsr4_TCCIXT_EEE29__is_implicitly_constructibleIRKS1_RKS3_RKS9_EEEbE4typeELb1EEESE_SG_SI_ = comdat any

$_ZNSt11_Tuple_implILm0EJP4exprP3appPN18dependency_managerIN11ast_manager22expr_dependency_configEE10dependencyEEEC2ERKS1_RKS3_RKS9_ = comdat any

$_ZNSt11_Tuple_implILm1EJP3appPN18dependency_managerIN11ast_manager22expr_dependency_configEE10dependencyEEEC2ERKS1_RKS7_ = comdat any

$_ZNSt10_Head_baseILm0EP4exprLb0EEC2ERKS1_ = comdat any

$_ZNSt11_Tuple_implILm2EJPN18dependency_managerIN11ast_manager22expr_dependency_configEE10dependencyEEEC2ERKS5_ = comdat any

$_ZNSt10_Head_baseILm1EP3appLb0EEC2ERKS1_ = comdat any

$_ZNSt10_Head_baseILm2EPN18dependency_managerIN11ast_manager22expr_dependency_configEE10dependencyELb0EEC2ERKS5_ = comdat any

$_ZSt12__get_helperILm0EP4exprJP3appPN18dependency_managerIN11ast_manager22expr_dependency_configEE10dependencyEEERT0_RSt11_Tuple_implIXT_EJSA_DpT1_EE = comdat any

$_ZNSt11_Tuple_implILm0EJP4exprP3appPN18dependency_managerIN11ast_manager22expr_dependency_configEE10dependencyEEE7_M_headERSA_ = comdat any

$_ZNSt10_Head_baseILm0EP4exprLb0EE7_M_headERS2_ = comdat any

$_ZSt12__get_helperILm1EP3appJPN18dependency_managerIN11ast_manager22expr_dependency_configEE10dependencyEEERT0_RSt11_Tuple_implIXT_EJS8_DpT1_EE = comdat any

$_ZNSt11_Tuple_implILm1EJP3appPN18dependency_managerIN11ast_manager22expr_dependency_configEE10dependencyEEE7_M_headERS8_ = comdat any

$_ZNSt10_Head_baseILm1EP3appLb0EE7_M_headERS2_ = comdat any

$_ZSt12__get_helperILm2EPN18dependency_managerIN11ast_manager22expr_dependency_configEE10dependencyEJEERT0_RSt11_Tuple_implIXT_EJS6_DpT1_EE = comdat any

$_ZNSt11_Tuple_implILm2EJPN18dependency_managerIN11ast_manager22expr_dependency_configEE10dependencyEEE7_M_headERS6_ = comdat any

$_ZNSt10_Head_baseILm2EPN18dependency_managerIN11ast_manager22expr_dependency_configEE10dependencyELb0EE7_M_headERS6_ = comdat any

$_ZN10scoped_ptrI26model_reconstruction_trailEdeEv = comdat any

$_ZNK4goal18unsat_core_enabledEv = comdat any

$_ZNK11ast_manager3getERKN14parray_managerINS_28expr_dependency_array_configEE3refEj = comdat any

$_ZNK14parray_managerIN11ast_manager28expr_dependency_array_configEE3getERKNS2_3refEj = comdat any

$_ZN14parray_managerIN11ast_manager28expr_dependency_array_configEE6rerootERNS2_3refE = comdat any

$_ZNK14parray_managerIN11ast_manager28expr_dependency_array_configEE4cell4kindEv = comdat any

$_ZNK14parray_managerIN11ast_manager28expr_dependency_array_configEE4cell3idxEv = comdat any

$_ZNK14parray_managerIN11ast_manager28expr_dependency_array_configEE4cell4elemEv = comdat any

$_ZNK14parray_managerIN11ast_manager28expr_dependency_array_configEE4cell4nextEv = comdat any

$_ZNK14parray_managerIN11ast_manager28expr_dependency_array_configEE3ref4rootEv = comdat any

$_ZN6vectorIPN14parray_managerIN11ast_manager28expr_dependency_array_configEE4cellELb0EjE5resetEv = comdat any

$_ZNK14parray_managerIN11ast_manager28expr_dependency_array_configEE4sizeERKNS2_3refE = comdat any

$_ZN6vectorIPN14parray_managerIN11ast_manager28expr_dependency_array_configEE4cellELb0EjE9push_backERKS5_ = comdat any

$_ZN14parray_managerIN11ast_manager28expr_dependency_array_configEE6unfoldEPNS2_4cellE = comdat any

$_ZNK6vectorIPN14parray_managerIN11ast_manager28expr_dependency_array_configEE4cellELb0EjE4sizeEv = comdat any

$_ZN6vectorIPN14parray_managerIN11ast_manager28expr_dependency_array_configEE4cellELb0EjEixEj = comdat any

$_ZN14parray_managerIN11ast_manager28expr_dependency_array_configEE8capacityEPPN18dependency_managerINS0_22expr_dependency_configEE10dependencyE = comdat any

$_ZN14parray_managerIN11ast_manager28expr_dependency_array_configEE6expandERPPN18dependency_managerINS0_22expr_dependency_configEE10dependencyE = comdat any

$_ZN14parray_managerIN11ast_manager28expr_dependency_array_configEE7inc_refEPNS2_4cellE = comdat any

$_ZN14parray_managerIN11ast_manager28expr_dependency_array_configEE7dec_refEPNS2_4cellE = comdat any

$_ZNK14parray_managerIN11ast_manager28expr_dependency_array_configEE4cell4sizeEv = comdat any

$_ZN6vectorIPN14parray_managerIN11ast_manager28expr_dependency_array_configEE4cellELb0EjE13expand_vectorEv = comdat any

$_ZN14parray_managerIN11ast_manager28expr_dependency_array_configEE10get_valuesEPNS2_4cellERPPN18dependency_managerINS0_22expr_dependency_configEE10dependencyE = comdat any

$_ZN14parray_managerIN11ast_manager28expr_dependency_array_configEE7dec_refERKPN18dependency_managerINS0_22expr_dependency_configEE10dependencyE = comdat any

$_ZN14parray_managerIN11ast_manager28expr_dependency_array_configEE11copy_valuesEPPN18dependency_managerINS0_22expr_dependency_configEE10dependencyEjRS8_ = comdat any

$_ZN14parray_managerIN11ast_manager28expr_dependency_array_configEE4rsetEPPN18dependency_managerINS0_22expr_dependency_configEE10dependencyEjRKS7_ = comdat any

$_ZN14parray_managerIN11ast_manager28expr_dependency_array_configEE9rpop_backEPPN18dependency_managerINS0_22expr_dependency_configEE10dependencyERj = comdat any

$_ZN14parray_managerIN11ast_manager28expr_dependency_array_configEE10rpush_backERPPN18dependency_managerINS0_22expr_dependency_configEE10dependencyERjRKS7_ = comdat any

$_ZN14parray_managerIN11ast_manager28expr_dependency_array_configEE15allocate_valuesEm = comdat any

$_ZN14parray_managerIN11ast_manager28expr_dependency_array_configEE7inc_refERKPN18dependency_managerINS0_22expr_dependency_configEE10dependencyE = comdat any

$_ZN14parray_managerIN11ast_manager28expr_dependency_array_configEE17deallocate_valuesEPPN18dependency_managerINS0_22expr_dependency_configEE10dependencyE = comdat any

$_ZN14parray_managerIN11ast_manager28expr_dependency_array_configEE3delEPNS2_4cellE = comdat any

$_ZN14parray_managerIN11ast_manager28expr_dependency_array_configEE7dec_refEjPPN18dependency_managerINS0_22expr_dependency_configEE10dependencyE = comdat any

$_ZN15ref_buffer_coreI4goal21ref_unmanaged_wrapperIS0_ELj16EEC2ERKS2_ = comdat any

$_ZN10ptr_bufferI4goalLj16EEC2Ev = comdat any

$_ZN6bufferIP4goalLb0ELj16EEC2Ev = comdat any

$_ZNK11ast_manager8mk_falseEv = comdat any

$_ZN15ref_buffer_coreI4goal21ref_unmanaged_wrapperIS0_ELj16EED2Ev = comdat any

$_ZN15ref_buffer_coreI4goal21ref_unmanaged_wrapperIS0_ELj16EE13dec_range_refEPKPS0_S6_ = comdat any

$_ZN6bufferIP4goalLb0ELj16EE5beginEv = comdat any

$_ZN6bufferIP4goalLb0ELj16EE3endEv = comdat any

$_ZN10ptr_bufferI4goalLj16EED2Ev = comdat any

$_ZN15ref_buffer_coreI4goal21ref_unmanaged_wrapperIS0_ELj16EE7dec_refEPS0_ = comdat any

$_ZN21ref_unmanaged_wrapperI4goalE7dec_refEPS0_ = comdat any

$_ZNK6bufferIP4goalLb0ELj16EE4sizeEv = comdat any

$_ZN6bufferIP4goalLb0ELj16EED2Ev = comdat any

$_ZN6bufferIP4goalLb0ELj16EE7destroyEv = comdat any

$_ZN11mpq_managerILb1EE6is_negERK3mpq = comdat any

$_ZN11mpq_managerILb1EE6is_negERK3mpz = comdat any

$_ZN11mpz_managerILb1EE6is_negERK3mpz = comdat any

$_ZN11mpq_managerILb1EE3negER3mpq = comdat any

$_ZN11mpq_managerILb1EE3subERK3mpqS3_RS1_ = comdat any

$_ZN11mk_ismt2_ppD2Ev = comdat any

$_ZN11mpq_managerILb1EE5resetER3mpq = comdat any

$_ZN11mpq_managerILb1EE5resetER3mpz = comdat any

$_ZNK7bv_util11get_bv_sizeEPK4sort = comdat any

$_ZNK4decl13get_parameterEj = comdat any

$_ZNK9parameter7get_intEv = comdat any

$_ZNK9decl_info13get_parameterEj = comdat any

$_ZNK6vectorI9parameterLb1EjEixEj = comdat any

$_ZSt3getIiJiP3ast6symbolP7zstringP8rationaldjEERKT_RKSt7variantIJDpT0_EE = comdat any

$_ZSt3getILm0EJiP3ast6symbolP7zstringP8rationaldjEERKNSt19variant_alternativeIXT_ESt7variantIJDpT0_EEE4typeERKSB_ = comdat any

$_ZNKSt7variantIJiP3ast6symbolP7zstringP8rationaldjEE5indexEv = comdat any

$_ZSt26__throw_bad_variant_accessb = comdat any

$_ZNKSt7variantIJiP3ast6symbolP7zstringP8rationaldjEE22valueless_by_exceptionEv = comdat any

$_ZNSt8__detail9__variant5__getILm0ERKSt7variantIJiP3ast6symbolP7zstringP8rationaldjEEEEDcOT0_ = comdat any

$_ZSt26__throw_bad_variant_accessPKc = comdat any

$_ZNSt18bad_variant_accessC2EPKc = comdat any

$_ZNSt18bad_variant_accessD2Ev = comdat any

$_ZNSt9exceptionC2Ev = comdat any

$_ZNSt18bad_variant_accessD0Ev = comdat any

$_ZNKSt18bad_variant_access4whatEv = comdat any

$_ZNKSt8__detail9__variant16_Variant_storageILb1EJiP3ast6symbolP7zstringP8rationaldjEE8_M_validEv = comdat any

$_ZNSt8__detail9__variant7__get_nILm0ERKNS0_15_Variadic_unionIJiP3ast6symbolP7zstringP8rationaldjEEEEEDcOT0_ = comdat any

$_ZNKRSt8__detail9__variant14_UninitializedIiLb1EE6_M_getEv = comdat any

$_ZN8rationalC2EmNS_4ui64E = comdat any

$_ZN11mpq_managerILb1EE3setER3mpqm = comdat any

$_ZN11mpq_managerILb1EE3setER3mpzm = comdat any

$_ZN11mpz_managerILb1EE3setER3mpzm = comdat any

$_ZNK8rational4exptEi = comdat any

$_ZNK11ast_manager9get_eq_opEPK4expr = comdat any

$_ZN9parameterC2Ej = comdat any

$_ZNSt7variantIJiP3ast6symbolP7zstringP8rationaldjEEC2IivvivEEOT_ = comdat any

$_ZNSt7variantIJiP3ast6symbolP7zstringP8rationaldjEEC2ILm0EJiEivEESt16in_place_index_tIXT_EEDpOT0_ = comdat any

$_ZNSt8__detail9__variant13_Variant_baseIJiP3ast6symbolP7zstringP8rationaldjEEC2ILm0EJiEEESt16in_place_index_tIXT_EEDpOT0_ = comdat any

$_ZNSt27_Enable_default_constructorILb1ESt7variantIJiP3ast6symbolP7zstringP8rationaldjEEEC2ESt31_Enable_default_constructor_tag = comdat any

$_ZNSt8__detail9__variant17_Move_assign_baseILb1EJiP3ast6symbolP7zstringP8rationaldjEECI2NS0_16_Variant_storageILb1EJiS3_S4_S6_S8_djEEEILm0EJiEEESt16in_place_index_tIXT_EEDpOT0_ = comdat any

$_ZNSt8__detail9__variant17_Copy_assign_baseILb1EJiP3ast6symbolP7zstringP8rationaldjEECI2NS0_16_Variant_storageILb1EJiS3_S4_S6_S8_djEEEILm0EJiEEESt16in_place_index_tIXT_EEDpOT0_ = comdat any

$_ZNSt8__detail9__variant15_Move_ctor_baseILb1EJiP3ast6symbolP7zstringP8rationaldjEECI2NS0_16_Variant_storageILb1EJiS3_S4_S6_S8_djEEEILm0EJiEEESt16in_place_index_tIXT_EEDpOT0_ = comdat any

$_ZNSt8__detail9__variant15_Copy_ctor_baseILb1EJiP3ast6symbolP7zstringP8rationaldjEECI2NS0_16_Variant_storageILb1EJiS3_S4_S6_S8_djEEEILm0EJiEEESt16in_place_index_tIXT_EEDpOT0_ = comdat any

$_ZNSt8__detail9__variant16_Variant_storageILb1EJiP3ast6symbolP7zstringP8rationaldjEEC2ILm0EJiEEESt16in_place_index_tIXT_EEDpOT0_ = comdat any

$_ZNSt8__detail9__variant15_Variadic_unionIJiP3ast6symbolP7zstringP8rationaldjEEC2IJiEEESt16in_place_index_tILm0EEDpOT_ = comdat any

$_ZNSt8__detail9__variant14_UninitializedIiLb1EEC2IJiEEESt16in_place_index_tILm0EEDpOT_ = comdat any

$_ZN6vectorIP4sortLb0EjED2Ev = comdat any

$_ZN6vectorIP4sortLb0EjE7destroyEv = comdat any

$_ZN6vectorIP4sortLb0EjE11free_memoryEv = comdat any

$_ZNK17arith_recognizers6is_intEPK4sort = comdat any

$_Z10is_sort_ofPK4sortii = comdat any

$_ZNK4sort10is_sort_ofEii = comdat any

$_ZNK4decl13get_decl_kindEv = comdat any

$_ZNK9decl_info13get_decl_kindEv = comdat any

$_ZNK17arith_recognizers7is_realEPK4sort = comdat any

$_ZeqRK8rationalS1_ = comdat any

$_ZN11mpq_managerILb1EE2eqERK3mpqS3_ = comdat any

$_ZN11mpq_managerILb1EE2eqERK3mpzS3_ = comdat any

$_ZN11mpz_managerILb1EE2eqERK3mpzS3_ = comdat any

$_ZNK17arith_recognizers10is_numeralEPK4expr = comdat any

$_ZNK17arith_recognizers6is_mulEPK4expr = comdat any

$_ZN11ast_manager14mk_fresh_constEPKcP4sortb = comdat any

$_ZN11ast_manager8mk_constEP9func_decl = comdat any

$_ZN11ast_manager18mk_fresh_func_declEPKcjPKP4sortS3_b = comdat any

$_ZN23generic_model_converter4hideEP9func_decl = comdat any

$_ZN6vectorIN23generic_model_converter5entryELb1EjE9push_backEOS1_ = comdat any

$_ZN23generic_model_converter5entryC2EP9func_declP4exprR11ast_managerNS_11instructionE = comdat any

$_ZN23generic_model_converter5entryD2Ev = comdat any

$_ZN6vectorIN23generic_model_converter5entryELb1EjE13expand_vectorEv = comdat any

$_ZN23generic_model_converter5entryC2EOS0_ = comdat any

$_ZNK6vectorIN23generic_model_converter5entryELb1EjE4sizeEv = comdat any

$_ZSt20uninitialized_move_nIPN23generic_model_converter5entryEjS2_ESt4pairIT_T1_ES4_T0_S5_ = comdat any

$_ZN6vectorIN23generic_model_converter5entryELb1EjE7destroyEv = comdat any

$_ZSt27__uninitialized_copy_n_pairISt13move_iteratorIPN23generic_model_converter5entryEEjS3_ESt4pairIT_T1_ES6_T0_S7_ = comdat any

$_ZSt18make_move_iteratorIPN23generic_model_converter5entryEESt13move_iteratorIT_ES4_ = comdat any

$_ZNKSt13move_iteratorIPN23generic_model_converter5entryEE4baseEv = comdat any

$_ZNSt4pairIPN23generic_model_converter5entryES2_EC2IS2_RS2_TnNSt9enable_ifIXaaclsr5_PCCPE22_MoveConstructiblePairIT_T0_EEclsr5_PCCPE30_ImplicitlyMoveConvertiblePairIS7_S8_EEEbE4typeELb1EEEOS7_OS8_ = comdat any

$_ZSt27__uninitialized_copy_n_pairISt13move_iteratorIPN23generic_model_converter5entryEEjS3_ESt4pairIT_T1_ES6_T0_S7_St26random_access_iterator_tag = comdat any

$_ZSt19__iterator_categoryISt13move_iteratorIPN23generic_model_converter5entryEEENSt15iterator_traitsIT_E17iterator_categoryERKS6_ = comdat any

$_ZSt18uninitialized_copyISt13move_iteratorIPN23generic_model_converter5entryEES3_ET0_T_S6_S5_ = comdat any

$_ZNKSt13move_iteratorIPN23generic_model_converter5entryEEplEl = comdat any

$_ZSt4nextISt13move_iteratorIPN23generic_model_converter5entryEEET_S5_NSt15iterator_traitsIS5_E15difference_typeE = comdat any

$_ZNSt4pairISt13move_iteratorIPN23generic_model_converter5entryEES3_EC2IRS4_RS3_TnNSt9enable_ifIXaaclsr5_PCCPE22_MoveConstructiblePairIT_T0_EEclsr5_PCCPE30_ImplicitlyMoveConvertiblePairISA_SB_EEEbE4typeELb1EEEOSA_OSB_ = comdat any

$_ZNSt20__uninitialized_copyILb0EE13__uninit_copyISt13move_iteratorIPN23generic_model_converter5entryEES5_EET0_T_S8_S7_ = comdat any

$_ZSt16__do_uninit_copyISt13move_iteratorIPN23generic_model_converter5entryEES3_ET0_T_S6_S5_ = comdat any

$_ZStneIPN23generic_model_converter5entryEEbRKSt13move_iteratorIT_ES7_ = comdat any

$_ZSt10_ConstructIN23generic_model_converter5entryEJS1_EEvPT_DpOT0_ = comdat any

$_ZNKSt13move_iteratorIPN23generic_model_converter5entryEEdeEv = comdat any

$_ZNSt13move_iteratorIPN23generic_model_converter5entryEEppEv = comdat any

$_ZSt8_DestroyIPN23generic_model_converter5entryEEvT_S3_ = comdat any

$_ZSteqIPN23generic_model_converter5entryEEbRKSt13move_iteratorIT_ES7_ = comdat any

$_ZNSt12_Destroy_auxILb0EE9__destroyIPN23generic_model_converter5entryEEEvT_S5_ = comdat any

$_ZSt8_DestroyIN23generic_model_converter5entryEEvPT_ = comdat any

$_ZNSt13move_iteratorIPN23generic_model_converter5entryEEC2ES2_ = comdat any

$_ZSt7advanceISt13move_iteratorIPN23generic_model_converter5entryEElEvRT_T0_ = comdat any

$_ZSt9__advanceISt13move_iteratorIPN23generic_model_converter5entryEElEvRT_T0_St26random_access_iterator_tag = comdat any

$_ZNSt13move_iteratorIPN23generic_model_converter5entryEEmmEv = comdat any

$_ZNSt13move_iteratorIPN23generic_model_converter5entryEEpLEl = comdat any

$_ZN6vectorIN23generic_model_converter5entryELb1EjE16destroy_elementsEv = comdat any

$_ZN6vectorIN23generic_model_converter5entryELb1EjE11free_memoryEv = comdat any

$_ZSt9destroy_nIPN23generic_model_converter5entryEjET_S3_T0_ = comdat any

$_ZSt10_Destroy_nIPN23generic_model_converter5entryEjET_S3_T0_ = comdat any

$_ZNSt14_Destroy_n_auxILb0EE11__destroy_nIPN23generic_model_converter5entryEjEET_S5_T0_ = comdat any

$_ZN7obj_refI9func_decl11ast_managerEC2EOS2_ = comdat any

$_ZN7obj_refI4expr11ast_managerEC2EOS2_ = comdat any

$_ZSt4swapIP9func_declENSt9enable_ifIXsr6__and_ISt6__not_ISt15__is_tuple_likeIT_EESt21is_move_constructibleIS5_ESt18is_move_assignableIS5_EEE5valueEvE4typeERS5_SE_ = comdat any

$_ZSt4swapIP4exprENSt9enable_ifIXsr6__and_ISt6__not_ISt15__is_tuple_likeIT_EESt21is_move_constructibleIS5_ESt18is_move_assignableIS5_EEE5valueEvE4typeERS5_SE_ = comdat any

$_ZN7obj_refI9func_decl11ast_managerEC2EPS0_RS1_ = comdat any

$_ZN7obj_refI9func_decl11ast_managerE7inc_refEv = comdat any

$_ZN16inf_eps_rationalI12inf_rationalEC2ERKS1_ = comdat any

$_ZN16inf_eps_rationalI12inf_rationalEpLERK8rational = comdat any

$_ZN12inf_rationalC2ERKS_ = comdat any

$_ZN12inf_rationalpLERK8rational = comdat any

$_ZN11ast_manager13mk_const_declERK6symbolP4sort = comdat any

$_ZN11ast_manager12mk_func_declERK6symboljPKP4sortS4_ = comdat any

$_ZN11mpq_managerILb1EE6is_oneERK3mpq = comdat any

$_ZNK8rational9is_uint64Ev = comdat any

$_ZNK8rational10get_uint64Ev = comdat any

$_ZNK11mpq_managerILb1EE9is_uint64ERK3mpq = comdat any

$_ZNK11mpq_managerILb1EE9is_uint64ERK3mpz = comdat any

$_ZNK11mpq_managerILb1EE10get_uint64ERK3mpq = comdat any

$_ZNK11mpq_managerILb1EE10get_uint64ERK3mpz = comdat any

$_ZN6vectorISt4pairIP4exprjELb0EjED2Ev = comdat any

$_ZN6vectorISt4pairIP4exprjELb0EjE7destroyEv = comdat any

$_ZN6vectorISt4pairIP4exprjELb0EjE11free_memoryEv = comdat any

$_ZN19smt2_pp_environmentC2Ev = comdat any

$_ZN8seq_utilC2ER11ast_manager = comdat any

$_ZN8seq_utilD2Ev = comdat any

$_ZN19smt2_pp_environmentD2Ev = comdat any

$_ZN23smt2_pp_environment_dbgD0Ev = comdat any

$_ZNK23smt2_pp_environment_dbg11get_managerEv = comdat any

$_ZN23smt2_pp_environment_dbg9get_autilEv = comdat any

$_ZN23smt2_pp_environment_dbg10get_bvutilEv = comdat any

$_ZN23smt2_pp_environment_dbg10get_arutilEv = comdat any

$_ZN23smt2_pp_environment_dbg9get_futilEv = comdat any

$_ZN23smt2_pp_environment_dbg9get_sutilEv = comdat any

$_ZN23smt2_pp_environment_dbg10get_dlutilEv = comdat any

$_ZN23smt2_pp_environment_dbg10get_dtutilEv = comdat any

$_ZNK23smt2_pp_environment_dbg4usesERK6symbol = comdat any

$_ZNK15seq_decl_plugin15get_char_pluginEv = comdat any

$_ZNK11decl_plugin13get_family_idEv = comdat any

$_ZN8seq_util3strC2ERS_ = comdat any

$_ZN8seq_util3rexC2ERS_ = comdat any

$_ZN6vectorIN8seq_util3rex4infoELb1EjEC2Ev = comdat any

$_ZN8seq_util3rex4infoC2E5lbool = comdat any

$_ZN6vectorIN8seq_util3rex4infoELb1EjED2Ev = comdat any

$_ZN6vectorIN8seq_util3rex4infoELb1EjE7destroyEv = comdat any

$_ZN6vectorIN8seq_util3rex4infoELb1EjE16destroy_elementsEv = comdat any

$_ZN6vectorIN8seq_util3rex4infoELb1EjE11free_memoryEv = comdat any

$_ZSt9destroy_nIPN8seq_util3rex4infoEjET_S4_T0_ = comdat any

$_ZNK6vectorIN8seq_util3rex4infoELb1EjE4sizeEv = comdat any

$_ZSt10_Destroy_nIPN8seq_util3rex4infoEjET_S4_T0_ = comdat any

$_ZNSt14_Destroy_n_auxILb1EE11__destroy_nIPN8seq_util3rex4infoEjEET_S6_T0_ = comdat any

$_ZSt7advanceIPN8seq_util3rex4infoEjEvRT_T0_ = comdat any

$_ZSt9__advanceIPN8seq_util3rex4infoElEvRT_T0_St26random_access_iterator_tag = comdat any

$_ZSt19__iterator_categoryIPN8seq_util3rex4infoEENSt15iterator_traitsIT_E17iterator_categoryERKS5_ = comdat any

$_ZN8seq_util3rexD2Ev = comdat any

$_ZN12smt_renamingD2Ev = comdat any

$_ZN3mapI6symbolS0_16symbol_hash_proc14symbol_eq_procED2Ev = comdat any

$_ZN3mapI6symbolN12smt_renaming5sym_bE16symbol_hash_proc14symbol_eq_procED2Ev = comdat any

$_ZN9table2mapI17default_map_entryI6symbolS1_E16symbol_hash_proc14symbol_eq_procED2Ev = comdat any

$_ZN14core_hashtableI17default_map_entryI6symbolS1_EN9table2mapIS2_16symbol_hash_proc14symbol_eq_procE15entry_hash_procENS6_13entry_eq_procEED2Ev = comdat any

$_ZN14core_hashtableI17default_map_entryI6symbolS1_EN9table2mapIS2_16symbol_hash_proc14symbol_eq_procE15entry_hash_procENS6_13entry_eq_procEE12delete_tableEv = comdat any

$_Z12dealloc_vectI17default_map_entryI6symbolS1_EEvPT_j = comdat any

$_ZN9table2mapI17default_map_entryI6symbolN12smt_renaming5sym_bEE16symbol_hash_proc14symbol_eq_procED2Ev = comdat any

$_ZN14core_hashtableI17default_map_entryI6symbolN12smt_renaming5sym_bEEN9table2mapIS4_16symbol_hash_proc14symbol_eq_procE15entry_hash_procENS8_13entry_eq_procEED2Ev = comdat any

$_ZN14core_hashtableI17default_map_entryI6symbolN12smt_renaming5sym_bEEN9table2mapIS4_16symbol_hash_proc14symbol_eq_procE15entry_hash_procENS8_13entry_eq_procEE12delete_tableEv = comdat any

$_Z12dealloc_vectI17default_map_entryI6symbolN12smt_renaming5sym_bEEEvPT_j = comdat any

$_ZN13obj_hashtableI9func_declEC2Ej = comdat any

$_ZN13stacked_valueIjEC2EOKj = comdat any

$_ZN13stacked_valueIjED2Ev = comdat any

$_ZN13obj_hashtableI9func_declED2Ev = comdat any

$_ZN14core_hashtableI14obj_hash_entryI9func_declE12obj_ptr_hashIS1_E6ptr_eqIS1_EEC2EjRKS4_RKS6_ = comdat any

$_ZN14core_hashtableI14obj_hash_entryI9func_declE12obj_ptr_hashIS1_E6ptr_eqIS1_EE11alloc_tableEj = comdat any

$_Z10alloc_vectI14obj_hash_entryI9func_declEEPT_j = comdat any

$_ZN14obj_hash_entryI9func_declEC2Ev = comdat any

$_ZN6vectorIjLb1EjEC2Ev = comdat any

$_ZN6vectorIjLb1EjED2Ev = comdat any

$_ZN6vectorIjLb1EjE7destroyEv = comdat any

$_ZN6vectorIjLb1EjE16destroy_elementsEv = comdat any

$_ZN6vectorIjLb1EjE11free_memoryEv = comdat any

$_ZSt9destroy_nIPjjET_S1_T0_ = comdat any

$_ZNK6vectorIjLb1EjE4sizeEv = comdat any

$_ZSt10_Destroy_nIPjjET_S1_T0_ = comdat any

$_ZNSt14_Destroy_n_auxILb1EE11__destroy_nIPjjEET_S3_T0_ = comdat any

$_ZSt7advanceIPjjEvRT_T0_ = comdat any

$_ZSt9__advanceIPjlEvRT_T0_St26random_access_iterator_tag = comdat any

$_ZSt19__iterator_categoryIPjENSt15iterator_traitsIT_E17iterator_categoryERKS2_ = comdat any

$_ZN14core_hashtableI14obj_hash_entryI9func_declE12obj_ptr_hashIS1_E6ptr_eqIS1_EED2Ev = comdat any

$_ZN14core_hashtableI14obj_hash_entryI9func_declE12obj_ptr_hashIS1_E6ptr_eqIS1_EE12delete_tableEv = comdat any

$_Z12dealloc_vectI14obj_hash_entryI9func_declEEvPT_j = comdat any

$_ZN14decl_collectorD2Ev = comdat any

$_ZN10ptr_vectorI3astED2Ev = comdat any

$_ZN10ref_vectorI3ast11ast_managerED2Ev = comdat any

$_ZN11lim_svectorIP9func_declED2Ev = comdat any

$_ZN11lim_svectorIP4sortED2Ev = comdat any

$_ZN6vectorIP3astLb0EjED2Ev = comdat any

$_ZN6vectorIP3astLb0EjE7destroyEv = comdat any

$_ZN6vectorIP3astLb0EjE11free_memoryEv = comdat any

$_ZN15ref_vector_coreI3ast19ref_manager_wrapperIS0_11ast_managerEED2Ev = comdat any

$_ZN15ref_vector_coreI3ast19ref_manager_wrapperIS0_11ast_managerEE13dec_range_refEPKPS0_S7_ = comdat any

$_ZNK6vectorIP3astLb0EjE4dataEv = comdat any

$_ZNK6vectorIP3astLb0EjE4sizeEv = comdat any

$_ZN15ref_vector_coreI3ast19ref_manager_wrapperIS0_11ast_managerEE7dec_refEPS0_ = comdat any

$_ZN19ref_manager_wrapperI3ast11ast_managerE7dec_refEPS0_ = comdat any

$_ZN7svectorIP9func_decljED2Ev = comdat any

$_ZN7svectorIP4sortjED2Ev = comdat any

$_ZN7datalog12dl_decl_utilD2Ev = comdat any

$_ZN10scoped_ptrI7bv_utilED2Ev = comdat any

$_ZN10scoped_ptrI10arith_utilED2Ev = comdat any

$_Z7deallocI7bv_utilEvPT_ = comdat any

$_Z7deallocI10arith_utilEvPT_ = comdat any

$_ZN3mpqaSEOS_ = comdat any

$_ZN3mpzaSEOS_ = comdat any

$_ZN3mpz4swapERS_ = comdat any

$_ZSt4swapIiENSt9enable_ifIXsr6__and_ISt6__not_ISt15__is_tuple_likeIT_EESt21is_move_constructibleIS3_ESt18is_move_assignableIS3_EEE5valueEvE4typeERS3_SC_ = comdat any

$_ZSt4swapIP8mpz_cellENSt9enable_ifIXsr6__and_ISt6__not_ISt15__is_tuple_likeIT_EESt21is_move_constructibleIS5_ESt18is_move_assignableIS5_EEE5valueEvE4typeERS5_SE_ = comdat any

$_ZN12inf_rationalC2Ev = comdat any

$_ZNK6vectorIN3opt7context9objectiveELb1EjE5emptyEv = comdat any

$_ZN3opt10opt_solver11get_contextEv = comdat any

$_ZNSt11char_traitsIcE6lengthEPKc = comdat any

$_ZNSt7__cxx1112basic_stringIcSt11char_traitsIcESaIcEE12_M_constructIPKcEEvT_S8_St20forward_iterator_tag = comdat any

$_ZSt8distanceIPKcENSt15iterator_traitsIT_E15difference_typeES3_S3_ = comdat any

$_ZZNSt7__cxx1112basic_stringIcSt11char_traitsIcESaIcEE12_M_constructIPKcEEvT_S8_St20forward_iterator_tagEN6_GuardC2EPS4_ = comdat any

$_ZZNSt7__cxx1112basic_stringIcSt11char_traitsIcESaIcEE12_M_constructIPKcEEvT_S8_St20forward_iterator_tagEN6_GuardD2Ev = comdat any

$_ZSt10__distanceIPKcENSt15iterator_traitsIT_E15difference_typeES3_S3_St26random_access_iterator_tag = comdat any

$_ZSt19__iterator_categoryIPKcENSt15iterator_traitsIT_E17iterator_categoryERKS3_ = comdat any

$_ZN6vectorIjLb0EjE13expand_vectorEv = comdat any

$_ZN7obj_refI4expr11ast_managerE7inc_refEv = comdat any

$_ZN7obj_refI4expr11ast_managerE7dec_refEv = comdat any

$_ZN7obj_refI3app11ast_managerE7inc_refEv = comdat any

$_ZN7obj_refI3app11ast_managerE7dec_refEv = comdat any

$_ZN19ref_manager_wrapperI4expr11ast_managerEC2ERS1_ = comdat any

$_ZN15ref_vector_coreI4expr19ref_manager_wrapperIS0_11ast_managerEEC2ERKS3_ = comdat any

$_ZN6vectorI6symbolLb0EjEC2Ev = comdat any

$_ZN9table2mapI17default_map_entryI6symboljE16symbol_hash_proc14symbol_eq_procE4findERKS1_ = comdat any

$_ZNK9table2mapI17default_map_entryI6symboljE16symbol_hash_proc14symbol_eq_procE9find_coreERKS1_ = comdat any

$_ZN18default_hash_entryI9_key_dataI6symboljEE8get_dataEv = comdat any

$_ZNK14core_hashtableI17default_map_entryI6symboljEN9table2mapIS2_16symbol_hash_proc14symbol_eq_procE15entry_hash_procENS6_13entry_eq_procEE9find_coreERK9_key_dataIS1_jE = comdat any

$_ZN9_key_dataI6symboljEC2ERKS0_ = comdat any

$_ZNK14core_hashtableI17default_map_entryI6symboljEN9table2mapIS2_16symbol_hash_proc14symbol_eq_procE15entry_hash_procENS6_13entry_eq_procEE8get_hashERK9_key_dataIS1_jE = comdat any

$_ZNK18default_hash_entryI9_key_dataI6symboljEE7is_usedEv = comdat any

$_ZNK18default_hash_entryI9_key_dataI6symboljEE8get_hashEv = comdat any

$_ZNK14core_hashtableI17default_map_entryI6symboljEN9table2mapIS2_16symbol_hash_proc14symbol_eq_procE15entry_hash_procENS6_13entry_eq_procEE6equalsERK9_key_dataIS1_jESD_ = comdat any

$_ZNK18default_hash_entryI9_key_dataI6symboljEE7is_freeEv = comdat any

$_ZNK9table2mapI17default_map_entryI6symboljE16symbol_hash_proc14symbol_eq_procE15entry_hash_procclERK9_key_dataIS1_jE = comdat any

$_ZNK16symbol_hash_procclERK6symbol = comdat any

$_ZNK6symbol4hashEv = comdat any

$_ZNK6symbol12is_numericalEv = comdat any

$_ZNK6symbol7get_numEv = comdat any

$_ZNK9table2mapI17default_map_entryI6symboljE16symbol_hash_proc14symbol_eq_procE13entry_eq_procclERK9_key_dataIS1_jESA_ = comdat any

$_ZNK14symbol_eq_procclERK6symbolS2_ = comdat any

$_ZN15ref_vector_coreI4expr19ref_manager_wrapperIS0_11ast_managerEE7inc_refEPS0_ = comdat any

$_ZN6vectorIP4exprLb0EjE9push_backERKS1_ = comdat any

$_ZN19ref_manager_wrapperI4expr11ast_managerE7inc_refEPS0_ = comdat any

$_ZN6vectorIP4exprLb0EjE13expand_vectorEv = comdat any

$_ZN6vectorI8rationalLb1EjE7destroyEv = comdat any

$_ZN6vectorI8rationalLb1EjE16destroy_elementsEv = comdat any

$_ZN6vectorI8rationalLb1EjE11free_memoryEv = comdat any

$_ZSt9destroy_nIP8rationaljET_S2_T0_ = comdat any

$_ZSt10_Destroy_nIP8rationaljET_S2_T0_ = comdat any

$_ZNSt14_Destroy_n_auxILb0EE11__destroy_nIP8rationaljEET_S4_T0_ = comdat any

$_ZSt8_DestroyI8rationalEvPT_ = comdat any

$_ZN6vectorIP4exprLb0EjEC2Ev = comdat any

$_ZN9converter7inc_refEv = comdat any

$_ZN3refI15model_converterE7dec_refEv = comdat any

$_ZN9converter7dec_refEv = comdat any

$_Z7deallocI9converterEvPT_ = comdat any

$_ZN6vectorIP4exprLb0EjE5resetEv = comdat any

$_ZN10ref_vectorI4expr11ast_managerE11element_refC2ERPS0_RS1_ = comdat any

$_ZN6vectorIP4exprLb0EjE6resizeEj = comdat any

$_ZN6vectorIP4exprLb0EjE6shrinkEj = comdat any

$_ZNK6vectorIP4exprLb0EjE8capacityEv = comdat any

$_ZNK6vectorIP4exprLb0EjEixEj = comdat any

$_ZN7obj_refIN18dependency_managerIN11ast_manager22expr_dependency_configEE10dependencyES1_E7dec_refEv = comdat any

$_ZN7obj_refIN18dependency_managerIN11ast_manager22expr_dependency_configEE10dependencyES1_E7inc_refEv = comdat any

$_ZN15ref_vector_coreI9func_decl19ref_manager_wrapperIS0_11ast_managerEE7inc_refEPS0_ = comdat any

$_ZN6vectorIP9func_declLb0EjE9push_backERKS1_ = comdat any

$_ZN19ref_manager_wrapperI9func_decl11ast_managerE7inc_refEPS0_ = comdat any

$_ZN6vectorIP9func_declLb0EjE13expand_vectorEv = comdat any

$_ZN19ref_manager_wrapperI9func_decl11ast_managerEC2ERS1_ = comdat any

$_ZN15ref_vector_coreI9func_decl19ref_manager_wrapperIS0_11ast_managerEEC2ERKS3_ = comdat any

$_ZN10ptr_vectorI9func_declEC2Ev = comdat any

$_ZN6vectorIP9func_declLb0EjEC2Ev = comdat any

$_ZNK6vectorIP4exprLb0EjE5beginEv = comdat any

$_ZNK15ref_vector_coreI4expr19ref_manager_wrapperIS0_11ast_managerEEixEj = comdat any

$_ZN12inf_rational3negEv = comdat any

$_ZNK6vectorIP5modelLb0EjEixEj = comdat any

$_ZN3refI6solverE7inc_refEv = comdat any

$_ZN16check_sat_result7inc_refEv = comdat any

$_ZN3refI6solverE7dec_refEv = comdat any

$_ZN16check_sat_result7dec_refEv = comdat any

$_Z7deallocI16check_sat_resultEvPT_ = comdat any

$_ZN3refI5modelE7dec_refEv = comdat any

$_ZN10model_core7dec_refEv = comdat any

$_Z7deallocI10model_coreEvPT_ = comdat any

$_ZN3refI5modelE7inc_refEv = comdat any

$_ZN10model_core7inc_refEv = comdat any

$_ZN15ref_vector_coreI5model21ref_unmanaged_wrapperIS0_EE13dec_range_refEPKPS0_S6_ = comdat any

$_ZNK6vectorIP5modelLb0EjE4dataEv = comdat any

$_ZNK6vectorIP5modelLb0EjE4sizeEv = comdat any

$_ZN10ptr_vectorI5modelED2Ev = comdat any

$_ZN15ref_vector_coreI5model21ref_unmanaged_wrapperIS0_EE7dec_refEPS0_ = comdat any

$_ZN21ref_unmanaged_wrapperI5modelE7dec_refEPS0_ = comdat any

$_ZN6vectorIP5modelLb0EjED2Ev = comdat any

$_ZN6vectorIP5modelLb0EjE7destroyEv = comdat any

$_ZN6vectorIP5modelLb0EjE11free_memoryEv = comdat any

$_ZN6vectorIP4sortLb0EjEC2Ev = comdat any

$_ZNK7obj_mapI9func_decljE9find_coreEPS0_ = comdat any

$_ZN7obj_mapI9func_decljE13obj_map_entry8get_dataEv = comdat any

$_ZNK14core_hashtableIN7obj_mapI9func_decljE13obj_map_entryE8obj_hashINS2_8key_dataEE10default_eqIS5_EE9find_coreERKS5_ = comdat any

$_ZN7obj_mapI9func_decljE8key_dataC2EPS0_ = comdat any

$_ZNK14core_hashtableIN7obj_mapI9func_decljE13obj_map_entryE8obj_hashINS2_8key_dataEE10default_eqIS5_EE8get_hashERKS5_ = comdat any

$_ZNK7obj_mapI9func_decljE13obj_map_entry7is_usedEv = comdat any

$_ZNK7obj_mapI9func_decljE13obj_map_entry8get_hashEv = comdat any

$_ZNK14core_hashtableIN7obj_mapI9func_decljE13obj_map_entryE8obj_hashINS2_8key_dataEE10default_eqIS5_EE6equalsERKS5_SB_ = comdat any

$_ZNK7obj_mapI9func_decljE13obj_map_entry7is_freeEv = comdat any

$_ZNK8obj_hashIN7obj_mapI9func_decljE8key_dataEEclERKS3_ = comdat any

$_ZNK7obj_mapI9func_decljE8key_data4hashEv = comdat any

$_ZNK3ast4hashEv = comdat any

$_ZNK10default_eqIN7obj_mapI9func_decljE8key_dataEEclERKS3_S6_ = comdat any

$_ZNK7obj_mapI9func_decljE8key_dataeqERKS2_ = comdat any

$_ZN6vectorIN3opt7context9objectiveELb1EjE7destroyEv = comdat any

$_ZN6vectorIN3opt7context9objectiveELb1EjE16destroy_elementsEv = comdat any

$_ZN6vectorIN3opt7context9objectiveELb1EjE11free_memoryEv = comdat any

$_ZSt9destroy_nIPN3opt7context9objectiveEjET_S4_T0_ = comdat any

$_ZSt10_Destroy_nIPN3opt7context9objectiveEjET_S4_T0_ = comdat any

$_ZNSt14_Destroy_n_auxILb0EE11__destroy_nIPN3opt7context9objectiveEjEET_S6_T0_ = comdat any

$_ZSt8_DestroyIN3opt7context9objectiveEEvPT_ = comdat any

$_ZN6vectorIP4exprLb0EjE4backEv = comdat any

$_ZN6vectorIP4exprLb0EjE8pop_backEv = comdat any

$_ZN6vectorI8rationalLb1EjE4backEv = comdat any

$_ZN9table2mapI17default_map_entryI6symboljE16symbol_hash_proc14symbol_eq_procE6removeERKS1_ = comdat any

$_ZN14core_hashtableI17default_map_entryI6symboljEN9table2mapIS2_16symbol_hash_proc14symbol_eq_procE15entry_hash_procENS6_13entry_eq_procEE6removeERK9_key_dataIS1_jE = comdat any

$_ZN18default_hash_entryI9_key_dataI6symboljEE12mark_as_freeEv = comdat any

$_ZN18default_hash_entryI9_key_dataI6symboljEE15mark_as_deletedEv = comdat any

$_ZN14core_hashtableI17default_map_entryI6symboljEN9table2mapIS2_16symbol_hash_proc14symbol_eq_procE15entry_hash_procENS6_13entry_eq_procEE22remove_deleted_entriesEv = comdat any

$_ZN14core_hashtableI17default_map_entryI6symboljEN9table2mapIS2_16symbol_hash_proc14symbol_eq_procE15entry_hash_procENS6_13entry_eq_procEE10move_tableEPS2_jSA_j = comdat any

$_ZN6vectorIN3opt7context9objectiveELb1EjE13expand_vectorEv = comdat any

$_ZN3opt7context9objectiveC2EOS1_ = comdat any

$_ZSt20uninitialized_move_nIPN3opt7context9objectiveEjS3_ESt4pairIT_T1_ES5_T0_S6_ = comdat any

$_ZSt27__uninitialized_copy_n_pairISt13move_iteratorIPN3opt7context9objectiveEEjS4_ESt4pairIT_T1_ES7_T0_S8_ = comdat any

$_ZSt18make_move_iteratorIPN3opt7context9objectiveEESt13move_iteratorIT_ES5_ = comdat any

$_ZNKSt13move_iteratorIPN3opt7context9objectiveEE4baseEv = comdat any

$_ZNSt4pairIPN3opt7context9objectiveES3_EC2IS3_RS3_TnNSt9enable_ifIXaaclsr5_PCCPE22_MoveConstructiblePairIT_T0_EEclsr5_PCCPE30_ImplicitlyMoveConvertiblePairIS8_S9_EEEbE4typeELb1EEEOS8_OS9_ = comdat any

$_ZSt27__uninitialized_copy_n_pairISt13move_iteratorIPN3opt7context9objectiveEEjS4_ESt4pairIT_T1_ES7_T0_S8_St26random_access_iterator_tag = comdat any

$_ZSt19__iterator_categoryISt13move_iteratorIPN3opt7context9objectiveEEENSt15iterator_traitsIT_E17iterator_categoryERKS7_ = comdat any

$_ZSt18uninitialized_copyISt13move_iteratorIPN3opt7context9objectiveEES4_ET0_T_S7_S6_ = comdat any

$_ZNKSt13move_iteratorIPN3opt7context9objectiveEEplEl = comdat any

$_ZSt4nextISt13move_iteratorIPN3opt7context9objectiveEEET_S6_NSt15iterator_traitsIS6_E15difference_typeE = comdat any

$_ZNSt4pairISt13move_iteratorIPN3opt7context9objectiveEES4_EC2IRS5_RS4_TnNSt9enable_ifIXaaclsr5_PCCPE22_MoveConstructiblePairIT_T0_EEclsr5_PCCPE30_ImplicitlyMoveConvertiblePairISB_SC_EEEbE4typeELb1EEEOSB_OSC_ = comdat any

$_ZNSt20__uninitialized_copyILb0EE13__uninit_copyISt13move_iteratorIPN3opt7context9objectiveEES6_EET0_T_S9_S8_ = comdat any

$_ZSt16__do_uninit_copyISt13move_iteratorIPN3opt7context9objectiveEES4_ET0_T_S7_S6_ = comdat any

$_ZStneIPN3opt7context9objectiveEEbRKSt13move_iteratorIT_ES8_ = comdat any

$_ZSt10_ConstructIN3opt7context9objectiveEJS2_EEvPT_DpOT0_ = comdat any

$_ZNKSt13move_iteratorIPN3opt7context9objectiveEEdeEv = comdat any

$_ZNSt13move_iteratorIPN3opt7context9objectiveEEppEv = comdat any

$_ZSt8_DestroyIPN3opt7context9objectiveEEvT_S4_ = comdat any

$_ZSteqIPN3opt7context9objectiveEEbRKSt13move_iteratorIT_ES8_ = comdat any

$_ZNSt12_Destroy_auxILb0EE9__destroyIPN3opt7context9objectiveEEEvT_S6_ = comdat any

$_ZNSt13move_iteratorIPN3opt7context9objectiveEEC2ES3_ = comdat any

$_ZSt7advanceISt13move_iteratorIPN3opt7context9objectiveEElEvRT_T0_ = comdat any

$_ZSt9__advanceISt13move_iteratorIPN3opt7context9objectiveEElEvRT_T0_St26random_access_iterator_tag = comdat any

$_ZNSt13move_iteratorIPN3opt7context9objectiveEEmmEv = comdat any

$_ZNSt13move_iteratorIPN3opt7context9objectiveEEpLEl = comdat any

$_ZN7obj_refI3app11ast_managerEC2EOS2_ = comdat any

$_ZN10ref_vectorI4expr11ast_managerEC2EOS2_ = comdat any

$_ZN6vectorI8rationalLb1EjEC2EOS1_ = comdat any

$_ZN3opt12adjust_valueC2EOS0_ = comdat any

$_ZSt4swapIP3appENSt9enable_ifIXsr6__and_ISt6__not_ISt15__is_tuple_likeIT_EESt21is_move_constructibleIS5_ESt18is_move_assignableIS5_EEE5valueEvE4typeERS5_SE_ = comdat any

$_ZN15ref_vector_coreI4expr19ref_manager_wrapperIS0_11ast_managerEEC2EOS4_ = comdat any

$_ZN10ptr_vectorI4exprEC2EOS1_ = comdat any

$_ZN6vectorIP4exprLb0EjEC2EOS2_ = comdat any

$_ZSt4swapIPP4exprENSt9enable_ifIXsr6__and_ISt6__not_ISt15__is_tuple_likeIT_EESt21is_move_constructibleIS6_ESt18is_move_assignableIS6_EEE5valueEvE4typeERS6_SF_ = comdat any

$_ZSt4swapIP8rationalENSt9enable_ifIXsr6__and_ISt6__not_ISt15__is_tuple_likeIT_EESt21is_move_constructibleIS5_ESt18is_move_assignableIS5_EEE5valueEvE4typeERS5_SE_ = comdat any

$_ZN8rationalC2EOS_ = comdat any

$_ZN3mpqC2EOS_ = comdat any

$_ZN3mpzC2EOS_ = comdat any

$_ZN14core_hashtableI17default_map_entryI6symboljEN9table2mapIS2_16symbol_hash_proc14symbol_eq_procE15entry_hash_procENS6_13entry_eq_procEE6insertEO9_key_dataIS1_jE = comdat any

$_ZN9_key_dataI6symboljEC2ERKS0_Oj = comdat any

$_ZN14core_hashtableI17default_map_entryI6symboljEN9table2mapIS2_16symbol_hash_proc14symbol_eq_procE15entry_hash_procENS6_13entry_eq_procEE12expand_tableEv = comdat any

$_ZN18default_hash_entryI9_key_dataI6symboljEE8set_dataEOS2_ = comdat any

$_ZN18default_hash_entryI9_key_dataI6symboljEE8set_hashEj = comdat any

$_ZN6vectorI8rationalLb1EjE13expand_vectorEv = comdat any

$_ZSt20uninitialized_move_nIP8rationaljS1_ESt4pairIT_T1_ES3_T0_S4_ = comdat any

$_ZSt27__uninitialized_copy_n_pairISt13move_iteratorIP8rationalEjS2_ESt4pairIT_T1_ES5_T0_S6_ = comdat any

$_ZSt18make_move_iteratorIP8rationalESt13move_iteratorIT_ES3_ = comdat any

$_ZNKSt13move_iteratorIP8rationalE4baseEv = comdat any

$_ZNSt4pairIP8rationalS1_EC2IS1_RS1_TnNSt9enable_ifIXaaclsr5_PCCPE22_MoveConstructiblePairIT_T0_EEclsr5_PCCPE30_ImplicitlyMoveConvertiblePairIS6_S7_EEEbE4typeELb1EEEOS6_OS7_ = comdat any

$_ZSt27__uninitialized_copy_n_pairISt13move_iteratorIP8rationalEjS2_ESt4pairIT_T1_ES5_T0_S6_St26random_access_iterator_tag = comdat any

$_ZSt19__iterator_categoryISt13move_iteratorIP8rationalEENSt15iterator_traitsIT_E17iterator_categoryERKS5_ = comdat any

$_ZSt18uninitialized_copyISt13move_iteratorIP8rationalES2_ET0_T_S5_S4_ = comdat any

$_ZNKSt13move_iteratorIP8rationalEplEl = comdat any

$_ZSt4nextISt13move_iteratorIP8rationalEET_S4_NSt15iterator_traitsIS4_E15difference_typeE = comdat any

$_ZNSt4pairISt13move_iteratorIP8rationalES2_EC2IRS3_RS2_TnNSt9enable_ifIXaaclsr5_PCCPE22_MoveConstructiblePairIT_T0_EEclsr5_PCCPE30_ImplicitlyMoveConvertiblePairIS9_SA_EEEbE4typeELb1EEEOS9_OSA_ = comdat any

$_ZNSt20__uninitialized_copyILb0EE13__uninit_copyISt13move_iteratorIP8rationalES4_EET0_T_S7_S6_ = comdat any

$_ZSt16__do_uninit_copyISt13move_iteratorIP8rationalES2_ET0_T_S5_S4_ = comdat any

$_ZStneIP8rationalEbRKSt13move_iteratorIT_ES6_ = comdat any

$_ZSt10_ConstructI8rationalJS0_EEvPT_DpOT0_ = comdat any

$_ZNKSt13move_iteratorIP8rationalEdeEv = comdat any

$_ZNSt13move_iteratorIP8rationalEppEv = comdat any

$_ZSt8_DestroyIP8rationalEvT_S2_ = comdat any

$_ZSteqIP8rationalEbRKSt13move_iteratorIT_ES6_ = comdat any

$_ZNSt12_Destroy_auxILb0EE9__destroyIP8rationalEEvT_S4_ = comdat any

$_ZNSt13move_iteratorIP8rationalEC2ES1_ = comdat any

$_ZSt7advanceISt13move_iteratorIP8rationalElEvRT_T0_ = comdat any

$_ZSt9__advanceISt13move_iteratorIP8rationalElEvRT_T0_St26random_access_iterator_tag = comdat any

$_ZNSt13move_iteratorIP8rationalEmmEv = comdat any

$_ZNSt13move_iteratorIP8rationalEpLEl = comdat any

$_ZN3refI23generic_model_converterE7inc_refEv = comdat any

$_ZN9table2mapI17default_map_entryI6symbolPN3opt6maxsmtEE16symbol_hash_proc14symbol_eq_procEC2ERKS6_RKS7_ = comdat any

$_ZN9table2mapI17default_map_entryI6symbolPN3opt6maxsmtEE16symbol_hash_proc14symbol_eq_procE15entry_hash_procC2ERKS6_ = comdat any

$_ZN9table2mapI17default_map_entryI6symbolPN3opt6maxsmtEE16symbol_hash_proc14symbol_eq_procE13entry_eq_procC2ERKS7_ = comdat any

$_ZN14core_hashtableI17default_map_entryI6symbolPN3opt6maxsmtEEN9table2mapIS5_16symbol_hash_proc14symbol_eq_procE15entry_hash_procENS9_13entry_eq_procEEC2EjRKSA_RKSB_ = comdat any

$_ZN14core_hashtableI17default_map_entryI6symbolPN3opt6maxsmtEEN9table2mapIS5_16symbol_hash_proc14symbol_eq_procE15entry_hash_procENS9_13entry_eq_procEE11alloc_tableEj = comdat any

$_Z10alloc_vectI17default_map_entryI6symbolPN3opt6maxsmtEEEPT_j = comdat any

$_ZN17default_map_entryI6symbolPN3opt6maxsmtEEC2Ev = comdat any

$_ZN18default_hash_entryI9_key_dataI6symbolPN3opt6maxsmtEEEC2Ev = comdat any

$_ZN9_key_dataI6symbolPN3opt6maxsmtEEC2Ev = comdat any

$_ZN14core_hashtableIN7obj_mapI9func_decljE13obj_map_entryE8obj_hashINS2_8key_dataEE10default_eqIS5_EEC2EjRKS6_RKS8_ = comdat any

$_ZN14core_hashtableIN7obj_mapI9func_decljE13obj_map_entryE8obj_hashINS2_8key_dataEE10default_eqIS5_EE11alloc_tableEj = comdat any

$_Z10alloc_vectIN7obj_mapI9func_decljE13obj_map_entryEEPT_j = comdat any

$_ZN7obj_mapI9func_decljE13obj_map_entryC2Ev = comdat any

$_ZN7obj_mapI9func_decljE8key_dataC2Ev = comdat any

$_ZN14core_hashtableIN7obj_mapI9func_declP4exprE13obj_map_entryE8obj_hashINS4_8key_dataEE10default_eqIS7_EEC2EjRKS8_RKSA_ = comdat any

$_ZN14core_hashtableIN7obj_mapI9func_declP4exprE13obj_map_entryE8obj_hashINS4_8key_dataEE10default_eqIS7_EE11alloc_tableEj = comdat any

$_Z10alloc_vectIN7obj_mapI9func_declP4exprE13obj_map_entryEEPT_j = comdat any

$_ZN7obj_mapI9func_declP4exprE13obj_map_entryC2Ev = comdat any

$_ZN7obj_mapI9func_declP4exprE8key_dataC2Ev = comdat any

$_ZN3refIN3opt10opt_solverEE7dec_refEv = comdat any

$_Z7deallocIN3opt11pareto_baseEEvPT_ = comdat any

$_Z7deallocIN2qe4qmaxEEvPT_ = comdat any

$_ZN3refI23generic_model_converterE7dec_refEv = comdat any

$_ZN3refI6tacticE7dec_refEv = comdat any

$_ZN6tactic7dec_refEv = comdat any

$_Z7deallocI6tacticEvPT_ = comdat any

$_ZNK14core_hashtableI17default_map_entryI6symbolPN3opt6maxsmtEEN9table2mapIS5_16symbol_hash_proc14symbol_eq_procE15entry_hash_procENS9_13entry_eq_procEE5beginEv = comdat any

$_ZN14core_hashtableI17default_map_entryI6symbolPN3opt6maxsmtEEN9table2mapIS5_16symbol_hash_proc14symbol_eq_procE15entry_hash_procENS9_13entry_eq_procEE8iteratorC2EPS5_SE_ = comdat any

$_ZN14core_hashtableI17default_map_entryI6symbolPN3opt6maxsmtEEN9table2mapIS5_16symbol_hash_proc14symbol_eq_procE15entry_hash_procENS9_13entry_eq_procEE8iterator12move_to_usedEv = comdat any

$_ZNK18default_hash_entryI9_key_dataI6symbolPN3opt6maxsmtEEE7is_usedEv = comdat any

$_ZNK14core_hashtableI17default_map_entryI6symbolPN3opt6maxsmtEEN9table2mapIS5_16symbol_hash_proc14symbol_eq_procE15entry_hash_procENS9_13entry_eq_procEE3endEv = comdat any

$_ZN18default_hash_entryI9_key_dataI6symbolPN3opt6maxsmtEEE8get_dataEv = comdat any

$_ZN3opt6maxsmtD2Ev = comdat any

$_ZN7obj_mapI4exprjED2Ev = comdat any

$_ZN6vectorIN3opt4softELb1EjED2Ev = comdat any

$_ZN10scoped_ptrIN3opt18maxsmt_solver_baseEED2Ev = comdat any

$_ZN14core_hashtableIN7obj_mapI4exprjE13obj_map_entryE8obj_hashINS2_8key_dataEE10default_eqIS5_EED2Ev = comdat any

$_ZN14core_hashtableIN7obj_mapI4exprjE13obj_map_entryE8obj_hashINS2_8key_dataEE10default_eqIS5_EE12delete_tableEv = comdat any

$_Z12dealloc_vectIN7obj_mapI4exprjE13obj_map_entryEEvPT_j = comdat any

$_ZN6vectorIN3opt4softELb1EjE7destroyEv = comdat any

$_ZN6vectorIN3opt4softELb1EjE16destroy_elementsEv = comdat any

$_ZN6vectorIN3opt4softELb1EjE11free_memoryEv = comdat any

$_ZSt9destroy_nIPN3opt4softEjET_S3_T0_ = comdat any

$_ZSt10_Destroy_nIPN3opt4softEjET_S3_T0_ = comdat any

$_ZNSt14_Destroy_n_auxILb0EE11__destroy_nIPN3opt4softEjEET_S5_T0_ = comdat any

$_ZSt8_DestroyIN3opt4softEEvPT_ = comdat any

$_ZN3opt4softD2Ev = comdat any

$_Z7deallocIN3opt18maxsmt_solver_baseEEvPT_ = comdat any

$_ZN14core_hashtableI17default_map_entryI6symbolPN3opt6maxsmtEEN9table2mapIS5_16symbol_hash_proc14symbol_eq_procE15entry_hash_procENS9_13entry_eq_procEE5resetEv = comdat any

$_ZNK18default_hash_entryI9_key_dataI6symbolPN3opt6maxsmtEEE7is_freeEv = comdat any

$_ZN18default_hash_entryI9_key_dataI6symbolPN3opt6maxsmtEEE12mark_as_freeEv = comdat any

$_ZN6vectorI6symbolLb0EjE9push_backERKS0_ = comdat any

$_ZNK6vectorI6symbolLb0EjEixEj = comdat any

$_ZN6vectorI6symbolLb0EjE13expand_vectorEv = comdat any

$_ZN8rational3oneEv = comdat any

$_ZN12inf_rational4zeroEv = comdat any

$_ZN16inf_eps_rationalI12inf_rationalEC2ERK8rationalRKS0_ = comdat any

$_ZN3opt7context9objectiveC2ERKS1_ = comdat any

$_ZN6vectorI8rationalLb1EjEC2ERKS1_ = comdat any

$_ZN3opt12adjust_valueC2ERKS0_ = comdat any

$_ZN6vectorI8rationalLb1EjE9copy_coreERKS1_ = comdat any

$_ZNK6vectorI8rationalLb1EjE8capacityEv = comdat any

$_ZSt18uninitialized_copyIPK8rationalPS0_ET0_T_S5_S4_ = comdat any

$_ZNK6vectorI8rationalLb1EjE5beginEv = comdat any

$_ZNK6vectorI8rationalLb1EjE3endEv = comdat any

$_ZN6vectorI8rationalLb1EjE5beginEv = comdat any

$_ZNSt20__uninitialized_copyILb0EE13__uninit_copyIPK8rationalPS2_EET0_T_S7_S6_ = comdat any

$_ZSt16__do_uninit_copyIPK8rationalPS0_ET0_T_S5_S4_ = comdat any

$_ZSt10_ConstructI8rationalJRKS0_EEvPT_DpOT0_ = comdat any

$_ZN15ref_vector_coreI5model21ref_unmanaged_wrapperIS0_EE7inc_refEPS0_ = comdat any

$_ZN6vectorIP5modelLb0EjE9push_backERKS1_ = comdat any

$_ZN21ref_unmanaged_wrapperI5modelE7inc_refEPS0_ = comdat any

$_ZN6vectorIP5modelLb0EjE13expand_vectorEv = comdat any

$_ZNKSt14_Function_base8_M_emptyEv = comdat any

$_ZN6vectorIP5modelLb0EjE4backEv = comdat any

$_ZN6vectorIP5modelLb0EjE8pop_backEv = comdat any

$_ZN6vectorIP5modelLb0EjEixEj = comdat any

$_ZNK9table2mapI17default_map_entryI6symbolPN3opt6maxsmtEE16symbol_hash_proc14symbol_eq_procE9find_coreERKS1_ = comdat any

$_ZNK14core_hashtableI17default_map_entryI6symbolPN3opt6maxsmtEEN9table2mapIS5_16symbol_hash_proc14symbol_eq_procE15entry_hash_procENS9_13entry_eq_procEE9find_coreERK9_key_dataIS1_S4_E = comdat any

$_ZN9_key_dataI6symbolPN3opt6maxsmtEEC2ERKS0_ = comdat any

$_ZNK14core_hashtableI17default_map_entryI6symbolPN3opt6maxsmtEEN9table2mapIS5_16symbol_hash_proc14symbol_eq_procE15entry_hash_procENS9_13entry_eq_procEE8get_hashERK9_key_dataIS1_S4_E = comdat any

$_ZNK18default_hash_entryI9_key_dataI6symbolPN3opt6maxsmtEEE8get_hashEv = comdat any

$_ZNK14core_hashtableI17default_map_entryI6symbolPN3opt6maxsmtEEN9table2mapIS5_16symbol_hash_proc14symbol_eq_procE15entry_hash_procENS9_13entry_eq_procEE6equalsERK9_key_dataIS1_S4_ESG_ = comdat any

$_ZNK9table2mapI17default_map_entryI6symbolPN3opt6maxsmtEE16symbol_hash_proc14symbol_eq_procE15entry_hash_procclERK9_key_dataIS1_S4_E = comdat any

$_ZNK9table2mapI17default_map_entryI6symbolPN3opt6maxsmtEE16symbol_hash_proc14symbol_eq_procE13entry_eq_procclERK9_key_dataIS1_S4_ESD_ = comdat any

$_ZN6vectorIP5modelLb0EjE5resetEv = comdat any

$_ZNK6vectorIP5modelLb0EjE5emptyEv = comdat any

$_ZN7obj_refI4expr11ast_managerE5resetEv = comdat any

$_ZNK16inf_eps_rationalI12inf_rationalE9to_stringB5cxx11Ev = comdat any

$_ZNK12inf_rational9to_stringB5cxx11Ev = comdat any

$_ZNK8rational12is_minus_oneEv = comdat any

$_ZNK8rational9to_stringB5cxx11Ev = comdat any

$_ZNK12inf_rational7is_zeroEv = comdat any

$_Z3absRK8rational = comdat any

$_ZN11mpq_managerILb1EE3absER3mpq = comdat any

$_ZN11mpq_managerILb1EE12is_minus_oneERK3mpq = comdat any

$_ZN11mpq_managerILb1EE12is_minus_oneERK3mpz = comdat any

$_ZN11mpz_managerILb1EE12is_minus_oneERK3mpz = comdat any

$_ZN13ast_fast_markILj1EE5resetEv = comdat any

$_ZN10ptr_bufferI3astLj16EED2Ev = comdat any

$_ZN6bufferIP3astLb0ELj16EE5beginEv = comdat any

$_ZN6bufferIP3astLb0ELj16EE3endEv = comdat any

$_ZN13ast_fast_markILj1EE10reset_markEP3ast = comdat any

$_ZN6bufferIP3astLb0ELj16EE5resetEv = comdat any

$_ZNK6bufferIP3astLb0ELj16EE4sizeEv = comdat any

$_ZN3ast11reset_mark1Ev = comdat any

$_ZN6bufferIP3astLb0ELj16EED2Ev = comdat any

$_ZN6bufferIP3astLb0ELj16EE7destroyEv = comdat any

$_ZN6bufferIP3astLb0ELj16EE11free_memoryEv = comdat any

$_Z13dealloc_svectIP3astEvPT_ = comdat any

$_Z18for_each_expr_coreIN3opt7context5is_fdE13ast_fast_markILj1EELb0ELb0EEvRT_RT0_P4expr = comdat any

$_ZN13ast_fast_markILj1EE9is_markedEP3ast = comdat any

$_ZN13ast_fast_markILj1EE4markEP3ast = comdat any

$_ZN7sbufferISt4pairIP4exprjELj16EEC2Ev = comdat any

$_ZN6bufferISt4pairIP4exprjELb0ELj16EE9push_backEOS3_ = comdat any

$_ZNSt4pairIP4exprjEC2IRS1_iTnNSt9enable_ifIXaaclsr5_PCCPE22_MoveConstructiblePairIT_T0_EEclsr5_PCCPE30_ImplicitlyMoveConvertiblePairIS6_S7_EEEbE4typeELb1EEEOS6_OS7_ = comdat any

$_ZNK6bufferISt4pairIP4exprjELb0ELj16EE5emptyEv = comdat any

$_ZN6bufferISt4pairIP4exprjELb0ELj16EE4backEv = comdat any

$_ZN3opt7context5is_fdclEP3var = comdat any

$_Z6to_varP3ast = comdat any

$_ZN6bufferISt4pairIP4exprjELb0ELj16EE8pop_backEv = comdat any

$_ZN3opt7context5is_fdclEP3app = comdat any

$_Z13to_quantifierP3ast = comdat any

$_ZNK10quantifier16get_num_childrenEv = comdat any

$_ZNK10quantifier9get_childEj = comdat any

$_ZN3opt7context5is_fdclEP10quantifier = comdat any

$_ZN7sbufferISt4pairIP4exprjELj16EED2Ev = comdat any

$_ZNK3ast10is_marked1Ev = comdat any

$_ZN3ast5mark1Eb = comdat any

$_ZN6bufferIP3astLb0ELj16EE9push_backERKS1_ = comdat any

$_ZN6bufferIP3astLb0ELj16EE6expandEv = comdat any

$_ZN6bufferISt4pairIP4exprjELb0ELj16EEC2Ev = comdat any

$_ZN6bufferISt4pairIP4exprjELb0ELj16EE6expandEv = comdat any

$_ZN6bufferISt4pairIP4exprjELb0ELj16EE11free_memoryEv = comdat any

$_Z13dealloc_svectISt4pairIP4exprjEEvPT_ = comdat any

$_ZNK11ast_manager19get_basic_family_idEv = comdat any

$_ZNK7pb_util13get_family_idEv = comdat any

$_ZNK14bv_recognizers13get_family_idEv = comdat any

$_ZNK10quantifier16get_num_patternsEv = comdat any

$_ZNK10quantifier19get_num_no_patternsEv = comdat any

$_ZNK10quantifier8get_exprEv = comdat any

$_ZNK10quantifier11get_patternEj = comdat any

$_ZNK10quantifier14get_no_patternEj = comdat any

$_ZNK10quantifier12get_patternsEv = comdat any

$_ZNK10quantifier14get_decl_namesEv = comdat any

$_ZNK10quantifier14get_decl_sortsEv = comdat any

$_ZNK10quantifier15get_no_patternsEv = comdat any

$_ZN6bufferISt4pairIP4exprjELb0ELj16EED2Ev = comdat any

$_ZN6bufferISt4pairIP4exprjELb0ELj16EE7destroyEv = comdat any

$_Z18for_each_expr_coreIN3opt7context19is_propositional_fnE13ast_fast_markILj1EELb0ELb0EEvRT_RT0_P4expr = comdat any

$_ZN3opt7context19is_propositional_fnclEP3var = comdat any

$_ZN3opt7context19is_propositional_fnclEP3app = comdat any

$_ZN3opt7context19is_propositional_fnclEP10quantifier = comdat any

$_ZN14core_hashtableI17default_map_entryI6symbolPN3opt6maxsmtEEN9table2mapIS5_16symbol_hash_proc14symbol_eq_procE15entry_hash_procENS9_13entry_eq_procEE6insertEO9_key_dataIS1_S4_E = comdat any

$_ZN9_key_dataI6symbolPN3opt6maxsmtEEC2ERKS0_RKS3_ = comdat any

$_ZN14core_hashtableI17default_map_entryI6symbolPN3opt6maxsmtEEN9table2mapIS5_16symbol_hash_proc14symbol_eq_procE15entry_hash_procENS9_13entry_eq_procEE12expand_tableEv = comdat any

$_ZN18default_hash_entryI9_key_dataI6symbolPN3opt6maxsmtEEE8set_dataEOS5_ = comdat any

$_ZN18default_hash_entryI9_key_dataI6symbolPN3opt6maxsmtEEE8set_hashEj = comdat any

$_ZN14core_hashtableI17default_map_entryI6symbolPN3opt6maxsmtEEN9table2mapIS5_16symbol_hash_proc14symbol_eq_procE15entry_hash_procENS9_13entry_eq_procEE10move_tableEPS5_jSD_j = comdat any

$_ZN3refI4goalE7inc_refEv = comdat any

$_ZN3refI6tacticE7inc_refEv = comdat any

$_ZN6tactic7inc_refEv = comdat any

$_ZNK6bufferIP4goalLb0ELj16EEixEj = comdat any

$_ZNK7obj_mapI9func_declP4exprE9find_coreEPS0_ = comdat any

$_ZN7obj_mapI9func_declP4exprE13obj_map_entry8get_dataEv = comdat any

$_ZNK14core_hashtableIN7obj_mapI9func_declP4exprE13obj_map_entryE8obj_hashINS4_8key_dataEE10default_eqIS7_EE9find_coreERKS7_ = comdat any

$_ZN7obj_mapI9func_declP4exprE8key_dataC2EPS0_ = comdat any

$_ZNK14core_hashtableIN7obj_mapI9func_declP4exprE13obj_map_entryE8obj_hashINS4_8key_dataEE10default_eqIS7_EE8get_hashERKS7_ = comdat any

$_ZNK7obj_mapI9func_declP4exprE13obj_map_entry7is_usedEv = comdat any

$_ZNK7obj_mapI9func_declP4exprE13obj_map_entry8get_hashEv = comdat any

$_ZNK14core_hashtableIN7obj_mapI9func_declP4exprE13obj_map_entryE8obj_hashINS4_8key_dataEE10default_eqIS7_EE6equalsERKS7_SD_ = comdat any

$_ZNK7obj_mapI9func_declP4exprE13obj_map_entry7is_freeEv = comdat any

$_ZNK8obj_hashIN7obj_mapI9func_declP4exprE8key_dataEEclERKS5_ = comdat any

$_ZNK7obj_mapI9func_declP4exprE8key_data4hashEv = comdat any

$_ZNK10default_eqIN7obj_mapI9func_declP4exprE8key_dataEEclERKS5_S8_ = comdat any

$_ZNK7obj_mapI9func_declP4exprE8key_dataeqERKS4_ = comdat any

$_ZN6vectorIP4sortLb0EjE13expand_vectorEv = comdat any

$_ZN14core_hashtableIN7obj_mapI9func_decljE13obj_map_entryE8obj_hashINS2_8key_dataEE10default_eqIS5_EE6insertEOS5_ = comdat any

$_ZN7obj_mapI9func_decljE8key_dataC2EPS0_RKj = comdat any

$_ZN14core_hashtableIN7obj_mapI9func_decljE13obj_map_entryE8obj_hashINS2_8key_dataEE10default_eqIS5_EE12expand_tableEv = comdat any

$_ZN7obj_mapI9func_decljE13obj_map_entry8set_dataEONS1_8key_dataE = comdat any

$_ZN7obj_mapI9func_decljE13obj_map_entry8set_hashEj = comdat any

$_ZN14core_hashtableIN7obj_mapI9func_decljE13obj_map_entryE8obj_hashINS2_8key_dataEE10default_eqIS5_EE10move_tableEPS3_jSA_j = comdat any

$_ZN14core_hashtableIN7obj_mapI9func_declP4exprE13obj_map_entryE8obj_hashINS4_8key_dataEE10default_eqIS7_EE6insertEOS7_ = comdat any

$_ZN7obj_mapI9func_declP4exprE8key_dataC2EPS0_OS2_ = comdat any

$_ZN14core_hashtableIN7obj_mapI9func_declP4exprE13obj_map_entryE8obj_hashINS4_8key_dataEE10default_eqIS7_EE12expand_tableEv = comdat any

$_ZN7obj_mapI9func_declP4exprE13obj_map_entry8set_dataEONS3_8key_dataE = comdat any

$_ZN7obj_mapI9func_declP4exprE13obj_map_entry8set_hashEj = comdat any

$_ZN14core_hashtableIN7obj_mapI9func_declP4exprE13obj_map_entryE8obj_hashINS4_8key_dataEE10default_eqIS7_EE10move_tableEPS5_jSC_j = comdat any

$_ZN14core_hashtableIN7obj_mapI9func_decljE13obj_map_entryE8obj_hashINS2_8key_dataEE10default_eqIS5_EE5resetEv = comdat any

$_ZN7obj_mapI9func_decljE13obj_map_entry12mark_as_freeEv = comdat any

$_ZeqRK16inf_eps_rationalI12inf_rationalES3_ = comdat any

$_ZeqRK12inf_rationalS1_ = comdat any

$_ZNK12inf_rational12get_rationalEv = comdat any

$_ZNK12inf_rational17get_infinitesimalEv = comdat any

$_ZN6vectorISt4pairIP4exprjELb0EjEC2Ev = comdat any

$_ZN3refI15model_converterE7inc_refEv = comdat any

$_ZTSN3opt7context5is_fd8found_fdE = comdat any

$_ZTIN3opt7context5is_fd8found_fdE = comdat any

$_ZTSN3opt7context19is_propositional_fn5foundE = comdat any

$_ZTIN3opt7context19is_propositional_fn5foundE = comdat any

$_ZTS11opt_wrapper = comdat any

$_ZTS16check_sat_result = comdat any

$_ZTI16check_sat_result = comdat any

$_ZTI11opt_wrapper = comdat any

$_ZTSN3opt15pareto_callbackE = comdat any

$_ZTIN3opt15pareto_callbackE = comdat any

$_ZTSN3opt14maxsat_contextE = comdat any

$_ZTIN3opt14maxsat_contextE = comdat any

$_ZTV11opt_wrapper = comdat any

$_ZTV16check_sat_result = comdat any

$_ZTVN3opt15pareto_callbackE = comdat any

$_ZTVN3opt14maxsat_contextE = comdat any

$_ZTV9converter = comdat any

$_ZTS9converter = comdat any

$_ZTI9converter = comdat any

$_ZTVN3opt11pareto_baseE = comdat any

$_ZTSN3opt11pareto_baseE = comdat any

$_ZTIN3opt11pareto_baseE = comdat any

$_ZZNSt8__detail18__to_chars_10_implIjEEvPcjT_E8__digits = comdat any

$_ZTV27dependent_expr_state_tactic = comdat any

$_ZTS27dependent_expr_state_tactic = comdat any

$_ZTS6tactic = comdat any

$_ZTSN15user_propagator4coreE = comdat any

$_ZTIN15user_propagator4coreE = comdat any

$_ZTI6tactic = comdat any

$_ZTS20dependent_expr_state = comdat any

$_ZTI20dependent_expr_state = comdat any

$_ZTI27dependent_expr_state_tactic = comdat any

$_ZTV6tactic = comdat any

$_ZTVN15user_propagator4coreE = comdat any

$_ZTV20dependent_expr_state = comdat any

$_ZTV11value_trailIjE = comdat any

$_ZTS11value_trailIjE = comdat any

$_ZTS5trail = comdat any

$_ZTI5trail = comdat any

$_ZTI11value_trailIjE = comdat any

$_ZTV5trail = comdat any

$_ZTVN20dependent_expr_state4thawE = comdat any

$_ZTSN20dependent_expr_state4thawE = comdat any

$_ZTIN20dependent_expr_state4thawE = comdat any

$_ZTS18rewriter_exception = comdat any

$_ZTI18rewriter_exception = comdat any

$_ZTS16tactic_exception = comdat any

$_ZTI16tactic_exception = comdat any

$_ZTV16tactic_exception = comdat any

$_ZTSSt18bad_variant_access = comdat any

$_ZTISt18bad_variant_access = comdat any

$_ZTVSt18bad_variant_access = comdat any

$_ZSt14in_place_indexILm0EE = comdat any

$_ZTV23smt2_pp_environment_dbg = comdat any

$_ZTS23smt2_pp_environment_dbg = comdat any

$_ZTI23smt2_pp_environment_dbg = comdat any

@_ZStL8__ioinit = internal global %"class.std::ios_base::Init" zeroinitializer, align 1
@__dso_handle = external hidden global i8
@_ZN3satL12null_literalE = internal global %"class.sat::literal" zeroinitializer, align 4
@_ZN3smtL12null_literalE = internal global %"class.sat::literal" zeroinitializer, align 4
@_ZN3smtL12true_literalE = internal global %"class.sat::literal" zeroinitializer, align 4
@_ZN3smtL13false_literalE = internal global %"class.sat::literal" zeroinitializer, align 4
@_ZN3smtL21null_eq_justificationE = internal global %"class.smt::eq_justification" zeroinitializer, align 8
@_ZN3smtL20null_b_justificationE = internal global %"class.smt::b_justification" zeroinitializer, align 8
@.str = private unnamed_addr constant [34 x i8] c"Soft constraint should be Boolean\00", align 1
@_ZTI17default_exception = external constant ptr
@.str.7 = private unnamed_addr constant [46 x i8] c"Objective must be bit-vector, integer or real\00", align 1
@_ZTVN3opt7contextE = hidden unnamed_addr constant { [40 x ptr], [9 x ptr], [19 x ptr] } { [40 x ptr] [ptr null, ptr @_ZTIN3opt7contextE, ptr @_ZN3opt7contextD1Ev, ptr @_ZN3opt7contextD0Ev, ptr @_ZNK3opt7context18collect_statisticsER10statistics, ptr @_ZN3opt7context14get_unsat_coreER10ref_vectorI4expr11ast_managerE, ptr @_ZN3opt7context14get_model_coreER3refI5modelE, ptr @_ZN3opt7context14get_proof_coreEv, ptr @_ZNK3opt7context14reason_unknownB5cxx11Ev, ptr @_ZN3opt7context18set_reason_unknownEPKc, ptr @_ZN3opt7context10get_labelsER7svectorI6symboljE, ptr @_ZNK3opt7context11get_managerEv, ptr @_ZN3opt7context5emptyEv, ptr @_ZN3opt7context4pushEv, ptr @_ZN3opt7context3popEj, ptr @_ZN3opt7context8optimizeERK10ref_vectorI4expr11ast_managerE, ptr @_ZN3opt7context20set_hard_constraintsERK10ref_vectorI4expr11ast_managerE, ptr @_ZN3opt7context18display_assignmentERSo, ptr @_ZN3opt7context9is_paretoEv, ptr @_ZN3opt7context9set_logicERK6symbol, ptr @_ZN3opt7context13get_box_modelER3refI5modelEj, ptr @_ZN3opt7context11updt_paramsERK10params_ref, ptr @_ZN3opt7context9set_modelER3refI5modelE, ptr @_ZN3opt7context9fix_modelER3refI5modelE, ptr @_ZN3opt7context14num_objectivesEv, ptr @_ZN3opt7context5mk_gtEjR3refI5modelE, ptr @_ZN3opt7context5mk_geEjR3refI5modelE, ptr @_ZN3opt7context5mk_leEjR3refI5modelE, ptr @_ZN3opt7context2fmEv, ptr @_ZN3opt7context11smt_contextEv, ptr @_ZNK3opt7context11sat_enabledEv, ptr @_ZN3opt7context10get_solverEv, ptr @_ZN3opt7context6paramsEv, ptr @_ZN3opt7context10enable_slsEb, ptr @_ZNK3opt7context13maxsat_engineEv, ptr @_ZN3opt7context14get_base_modelER3refI5modelE, ptr @_ZN3opt7context12verify_modelEjP5modelRK8rational, ptr @_ZN3opt7context13model_updatedEP5model, ptr @_ZN3opt7context6adjustEjRK8rational, ptr @_ZN3opt7context10add_offsetEjRK8rational], [9 x ptr] [ptr inttoptr (i64 -72 to ptr), ptr @_ZTIN3opt7contextE, ptr @_ZThn72_N3opt7contextD1Ev, ptr @_ZThn72_N3opt7contextD0Ev, ptr @_ZThn72_N3opt7context14num_objectivesEv, ptr @_ZThn72_N3opt7context5mk_gtEjR3refI5modelE, ptr @_ZThn72_N3opt7context5mk_geEjR3refI5modelE, ptr @_ZThn72_N3opt7context5mk_leEjR3refI5modelE, ptr @_ZThn72_N3opt7context9fix_modelER3refI5modelE], [19 x ptr] [ptr inttoptr (i64 -80 to ptr), ptr @_ZTIN3opt7contextE, ptr @_ZThn80_N3opt7contextD1Ev, ptr @_ZThn80_N3opt7contextD0Ev, ptr @_ZThn80_N3opt7context2fmEv, ptr @_ZThn80_NK3opt7context11sat_enabledEv, ptr @_ZThn80_N3opt7context10get_solverEv, ptr @_ZThn80_NK3opt7context11get_managerEv, ptr @_ZThn80_N3opt7context6paramsEv, ptr @_ZThn80_N3opt7context10enable_slsEb, ptr @_ZThn80_NK3opt7context13maxsat_engineEv, ptr @_ZThn80_N3opt7context14get_base_modelER3refI5modelE, ptr @_ZThn80_N3opt7context11smt_contextEv, ptr @_ZThn80_N3opt7context14num_objectivesEv, ptr @_ZThn80_N3opt7context12verify_modelEjP5modelRK8rational, ptr @_ZThn80_N3opt7context6adjustEjRK8rational, ptr @_ZThn80_N3opt7context10add_offsetEjRK8rational, ptr @_ZThn80_N3opt7context9set_modelER3refI5modelE, ptr @_ZThn80_N3opt7context13model_updatedEP5model] }, align 8
@.str.8 = private unnamed_addr constant [4 x i8] c"opt\00", align 1
@.str.9 = private unnamed_addr constant [8 x i8] c"unknown\00", align 1
@.str.10 = private unnamed_addr constant [6 x i8] c"model\00", align 1
@.str.11 = private unnamed_addr constant [11 x i8] c"unsat_core\00", align 1
@.str.12 = private unnamed_addr constant [13 x i8] c"elim_to_real\00", align 1
@.str.13 = private unnamed_addr constant [69 x i8] c"Set opt.incremental = true to allow adding constraints during search\00", align 1
@.str.14 = private unnamed_addr constant [58 x i8] c"adding hard constraints is not supported during callbacks\00", align 1
@.str.15 = private unnamed_addr constant [107 x i8] c"generated/home/dtcxzyw/WorkSpace/Projects/compilers/llvm-opt-benchmark/bench/z3/z3/src/opt/opt_context.cpp\00", align 1
@.str.16 = private unnamed_addr constant [29 x i8] c"UNEXPECTED CODE WAS REACHED.\00", align 1
@.str.17 = private unnamed_addr constant [58 x i8] c"optimization with quantified constraints is not supported\00", align 1
@.str.18 = private unnamed_addr constant [22 x i8] c"(optimize:check-sat)\0A\00", align 1
@.str.19 = private unnamed_addr constant [16 x i8] c"(optimize:sat)\0A\00", align 1
@.str.20 = private unnamed_addr constant [7 x i8] c"pareto\00", align 1
@.str.21 = private unnamed_addr constant [4 x i8] c"box\00", align 1
@.str.22 = private unnamed_addr constant [35 x i8] c"index into models is out of bounds\00", align 1
@.str.23 = private unnamed_addr constant [64 x i8] c"unbounded objectives on quantified constraints is not supported\00", align 1
@.str.24 = private unnamed_addr constant [7 x i8] c"maxres\00", align 1
@.str.25 = private unnamed_addr constant [12 x i8] c"(opt :lex)\0A\00", align 1
@_ZN11common_msgs14g_canceled_msgE = external global ptr, align 8
@.str.26 = private unnamed_addr constant [7 x i8] c" |-> [\00", align 1
@.str.27 = private unnamed_addr constant [2 x i8] c":\00", align 1
@.str.28 = private unnamed_addr constant [3 x i8] c"]\0A\00", align 1
@.str.29 = private unnamed_addr constant [6 x i8] c"symba\00", align 1
@.str.30 = private unnamed_addr constant [7 x i8] c"farkas\00", align 1
@.str.31 = private unnamed_addr constant [17 x i8] c"smt.arith.solver\00", align 1
@.str.32 = private unnamed_addr constant [4 x i8] c"rc2\00", align 1
@.str.33 = private unnamed_addr constant [7 x i8] c"rc2tot\00", align 1
@.str.34 = private unnamed_addr constant [7 x i8] c"rc2bin\00", align 1
@.str.35 = private unnamed_addr constant [11 x i8] c"maxres-bin\00", align 1
@.str.36 = private unnamed_addr constant [17 x i8] c"maxres-bin-delay\00", align 1
@.str.37 = private unnamed_addr constant [10 x i8] c"pd-maxres\00", align 1
@.str.38 = private unnamed_addr constant [5 x i8] c"bcd2\00", align 1
@.str.39 = private unnamed_addr constant [4 x i8] c"sls\00", align 1
@.str.40 = private unnamed_addr constant [22 x i8] c"minimize_core_partial\00", align 1
@.str.41 = private unnamed_addr constant [14 x i8] c"minimize_core\00", align 1
@.str.42 = private unnamed_addr constant [15 x i8] c"optimize_model\00", align 1
@_ZTVN10__cxxabiv117__class_type_infoE = external global [0 x ptr]
@_ZTSN3opt7context5is_fd8found_fdE = linkonce_odr hidden constant [30 x i8] c"N3opt7context5is_fd8found_fdE\00", comdat, align 1
@_ZTIN3opt7context5is_fd8found_fdE = linkonce_odr hidden constant { ptr, ptr } { ptr getelementptr inbounds (ptr, ptr @_ZTVN10__cxxabiv117__class_type_infoE, i64 2), ptr @_ZTSN3opt7context5is_fd8found_fdE }, comdat, align 8
@_ZTSN3opt7context19is_propositional_fn5foundE = linkonce_odr hidden constant [42 x i8] c"N3opt7context19is_propositional_fn5foundE\00", comdat, align 1
@_ZTIN3opt7context19is_propositional_fn5foundE = linkonce_odr hidden constant { ptr, ptr } { ptr getelementptr inbounds (ptr, ptr @_ZTVN10__cxxabiv117__class_type_infoE, i64 2), ptr @_ZTSN3opt7context19is_propositional_fn5foundE }, comdat, align 8
@.str.43 = private unnamed_addr constant [17 x i8] c"compile_equality\00", align 1
@.str.44 = private unnamed_addr constant [3 x i8] c": \00", align 1
@.str.45 = private unnamed_addr constant [11 x i8] c" |-> true\0A\00", align 1
@.str.46 = private unnamed_addr constant [12 x i8] c" |-> false\0A\00", align 1
@.str.47 = private unnamed_addr constant [1 x i8] zeroinitializer, align 1
@.str.48 = private unnamed_addr constant [9 x i8] c"maximize\00", align 1
@.str.49 = private unnamed_addr constant [9 x i8] c"minimize\00", align 1
@.str.50 = private unnamed_addr constant [7 x i8] c"maxsat\00", align 1
@.str.51 = private unnamed_addr constant [53 x i8] c"check-sat has not been called with latest objectives\00", align 1
@.str.52 = private unnamed_addr constant [13 x i8] c"(objectives\0A\00", align 1
@.str.53 = private unnamed_addr constant [3 x i8] c" (\00", align 1
@.str.54 = private unnamed_addr constant [13 x i8] c"  (interval \00", align 1
@.str.55 = private unnamed_addr constant [2 x i8] c" \00", align 1
@.str.56 = private unnamed_addr constant [2 x i8] c")\00", align 1
@.str.57 = private unnamed_addr constant [3 x i8] c")\0A\00", align 1
@_ZN6symbol4nullE = external global %class.symbol, align 8
@.str.58 = private unnamed_addr constant [20 x i8] c"index out of bounds\00", align 1
@.str.59 = private unnamed_addr constant [3 x i8] c"oo\00", align 1
@.str.60 = private unnamed_addr constant [8 x i8] c"epsilon\00", align 1
@.str.61 = private unnamed_addr constant [63 x i8] c"only single objective weighted MaxSAT wcnf output is supported\00", align 1
@.str.62 = private unnamed_addr constant [11 x i8] c"(maximize \00", align 1
@.str.63 = private unnamed_addr constant [11 x i8] c"(minimize \00", align 1
@.str.64 = private unnamed_addr constant [14 x i8] c"(assert-soft \00", align 1
@.str.65 = private unnamed_addr constant [10 x i8] c" :weight \00", align 1
@.str.66 = private unnamed_addr constant [6 x i8] c" :id \00", align 1
@.str.67 = private unnamed_addr constant [13 x i8] c"(check-sat)\0A\00", align 1
@_ZTVN10__cxxabiv121__vmi_class_type_infoE = external global [0 x ptr]
@_ZTSN3opt7contextE = hidden constant [15 x i8] c"N3opt7contextE\00", align 1
@_ZTVN10__cxxabiv120__si_class_type_infoE = external global [0 x ptr]
@_ZTS11opt_wrapper = linkonce_odr hidden constant [14 x i8] c"11opt_wrapper\00", comdat, align 1
@_ZTS16check_sat_result = linkonce_odr hidden constant [19 x i8] c"16check_sat_result\00", comdat, align 1
@_ZTI16check_sat_result = linkonce_odr hidden constant { ptr, ptr } { ptr getelementptr inbounds (ptr, ptr @_ZTVN10__cxxabiv117__class_type_infoE, i64 2), ptr @_ZTS16check_sat_result }, comdat, align 8
@_ZTI11opt_wrapper = linkonce_odr hidden constant { ptr, ptr, ptr } { ptr getelementptr inbounds (ptr, ptr @_ZTVN10__cxxabiv120__si_class_type_infoE, i64 2), ptr @_ZTS11opt_wrapper, ptr @_ZTI16check_sat_result }, comdat, align 8
@_ZTSN3opt15pareto_callbackE = linkonce_odr hidden constant [24 x i8] c"N3opt15pareto_callbackE\00", comdat, align 1
@_ZTIN3opt15pareto_callbackE = linkonce_odr hidden constant { ptr, ptr } { ptr getelementptr inbounds (ptr, ptr @_ZTVN10__cxxabiv117__class_type_infoE, i64 2), ptr @_ZTSN3opt15pareto_callbackE }, comdat, align 8
@_ZTSN3opt14maxsat_contextE = linkonce_odr hidden constant [23 x i8] c"N3opt14maxsat_contextE\00", comdat, align 1
@_ZTIN3opt14maxsat_contextE = linkonce_odr hidden constant { ptr, ptr } { ptr getelementptr inbounds (ptr, ptr @_ZTVN10__cxxabiv117__class_type_infoE, i64 2), ptr @_ZTSN3opt14maxsat_contextE }, comdat, align 8
@_ZTIN3opt7contextE = hidden constant { ptr, ptr, i32, i32, ptr, i64, ptr, i64, ptr, i64 } { ptr getelementptr inbounds (ptr, ptr @_ZTVN10__cxxabiv121__vmi_class_type_infoE, i64 2), ptr @_ZTSN3opt7contextE, i32 0, i32 3, ptr @_ZTI11opt_wrapper, i64 2, ptr @_ZTIN3opt15pareto_callbackE, i64 18434, ptr @_ZTIN3opt14maxsat_contextE, i64 20482 }, align 8
@_ZTV17default_exception = external unnamed_addr constant { [6 x ptr] }, align 8
@_ZTV12z3_exception = external unnamed_addr constant { [6 x ptr] }, align 8
@_ZN8rational13g_mpq_managerE = external global ptr, align 8
@_ZTV11opt_wrapper = linkonce_odr hidden unnamed_addr constant { [22 x ptr] } { [22 x ptr] [ptr null, ptr @_ZTI11opt_wrapper, ptr @_ZN11opt_wrapperD2Ev, ptr @_ZN11opt_wrapperD0Ev, ptr @__cxa_pure_virtual, ptr @__cxa_pure_virtual, ptr @__cxa_pure_virtual, ptr @__cxa_pure_virtual, ptr @__cxa_pure_virtual, ptr @__cxa_pure_virtual, ptr @__cxa_pure_virtual, ptr @__cxa_pure_virtual, ptr @__cxa_pure_virtual, ptr @__cxa_pure_virtual, ptr @__cxa_pure_virtual, ptr @__cxa_pure_virtual, ptr @__cxa_pure_virtual, ptr @__cxa_pure_virtual, ptr @__cxa_pure_virtual, ptr @__cxa_pure_virtual, ptr @__cxa_pure_virtual, ptr @__cxa_pure_virtual] }, comdat, align 8
@_ZTV16check_sat_result = linkonce_odr hidden unnamed_addr constant { [12 x ptr] } { [12 x ptr] [ptr null, ptr @_ZTI16check_sat_result, ptr @_ZN16check_sat_resultD2Ev, ptr @_ZN16check_sat_resultD0Ev, ptr @__cxa_pure_virtual, ptr @__cxa_pure_virtual, ptr @__cxa_pure_virtual, ptr @__cxa_pure_virtual, ptr @__cxa_pure_virtual, ptr @__cxa_pure_virtual, ptr @__cxa_pure_virtual, ptr @__cxa_pure_virtual] }, comdat, align 8
@_ZTVN3opt15pareto_callbackE = linkonce_odr hidden unnamed_addr constant { [9 x ptr] } { [9 x ptr] [ptr null, ptr @_ZTIN3opt15pareto_callbackE, ptr @_ZN3opt15pareto_callbackD2Ev, ptr @_ZN3opt15pareto_callbackD0Ev, ptr @__cxa_pure_virtual, ptr @__cxa_pure_virtual, ptr @__cxa_pure_virtual, ptr @__cxa_pure_virtual, ptr @__cxa_pure_virtual] }, comdat, align 8
@_ZTVN3opt14maxsat_contextE = linkonce_odr hidden unnamed_addr constant { [19 x ptr] } { [19 x ptr] [ptr null, ptr @_ZTIN3opt14maxsat_contextE, ptr @_ZN3opt14maxsat_contextD2Ev, ptr @_ZN3opt14maxsat_contextD0Ev, ptr @__cxa_pure_virtual, ptr @__cxa_pure_virtual, ptr @__cxa_pure_virtual, ptr @__cxa_pure_virtual, ptr @__cxa_pure_virtual, ptr @__cxa_pure_virtual, ptr @__cxa_pure_virtual, ptr @__cxa_pure_virtual, ptr @__cxa_pure_virtual, ptr @__cxa_pure_virtual, ptr @__cxa_pure_virtual, ptr @__cxa_pure_virtual, ptr @__cxa_pure_virtual, ptr @__cxa_pure_virtual, ptr @__cxa_pure_virtual] }, comdat, align 8
@_ZTV23generic_model_converter = external unnamed_addr constant { [12 x ptr] }, align 8
@_ZTV15model_converter = external unnamed_addr constant { [12 x ptr] }, align 8
@_ZTV9converter = linkonce_odr hidden unnamed_addr constant { [6 x ptr] } { [6 x ptr] [ptr null, ptr @_ZTI9converter, ptr @_ZN9converterD2Ev, ptr @_ZN9converterD0Ev, ptr @_ZN9converter6cancelEv, ptr @__cxa_pure_virtual] }, comdat, align 8
@_ZTS9converter = linkonce_odr hidden constant [11 x i8] c"9converter\00", comdat, align 1
@_ZTI9converter = linkonce_odr hidden constant { ptr, ptr } { ptr getelementptr inbounds (ptr, ptr @_ZTVN10__cxxabiv117__class_type_infoE, i64 2), ptr @_ZTS9converter }, comdat, align 8
@.str.68 = private unnamed_addr constant [9 x i8] c"priority\00", align 1
@.str.69 = private unnamed_addr constant [4 x i8] c"lex\00", align 1
@.str.70 = private unnamed_addr constant [12 x i8] c"dump_models\00", align 1
@_ZN3app16g_constant_flagsE = external global %struct.app_flags, align 4
@.str.71 = private unnamed_addr constant [3 x i8] c"pb\00", align 1
@_ZTVN3opt10gia_paretoE = external unnamed_addr constant { [10 x ptr] }, align 8
@_ZTVN3opt11pareto_baseE = linkonce_odr hidden unnamed_addr constant { [10 x ptr] } { [10 x ptr] [ptr null, ptr @_ZTIN3opt11pareto_baseE, ptr @_ZN3opt11pareto_baseD2Ev, ptr @_ZN3opt11pareto_baseD0Ev, ptr @_ZN3opt11pareto_base11updt_paramsER10params_ref, ptr @_ZN3opt11pareto_base20collect_param_descrsER12param_descrs, ptr @_ZNK3opt11pareto_base18collect_statisticsER10statistics, ptr @_ZNK3opt11pareto_base7displayERSo, ptr @__cxa_pure_virtual, ptr @_ZN3opt11pareto_base9get_modelER3refI5modelER7svectorI6symboljE] }, comdat, align 8
@_ZTSN3opt11pareto_baseE = linkonce_odr hidden constant [20 x i8] c"N3opt11pareto_baseE\00", comdat, align 1
@_ZTIN3opt11pareto_baseE = linkonce_odr hidden constant { ptr, ptr } { ptr getelementptr inbounds (ptr, ptr @_ZTVN10__cxxabiv117__class_type_infoE, i64 2), ptr @_ZTSN3opt11pareto_baseE }, comdat, align 8
@.str.72 = private unnamed_addr constant [14 x i8] c"optsmt_engine\00", align 1
@.str.73 = private unnamed_addr constant [6 x i8] c"basic\00", align 1
@_ZZNSt8__detail18__to_chars_10_implIjEEvPcjT_E8__digits = linkonce_odr constant [201 x i8] c"00010203040506070809101112131415161718192021222324252627282930313233343536373839404142434445464748495051525354555657585960616263646566676869707172737475767778798081828384858687888990919293949596979899\00", comdat, align 16
@.str.74 = private unnamed_addr constant [4 x i8] c"sat\00", align 1
@.str.75 = private unnamed_addr constant [4 x i8] c"euf\00", align 1
@_ZTV27dependent_expr_state_tactic = linkonce_odr hidden unnamed_addr constant { [33 x ptr], [14 x ptr] } { [33 x ptr] [ptr null, ptr @_ZTI27dependent_expr_state_tactic, ptr @_ZN27dependent_expr_state_tacticD2Ev, ptr @_ZN27dependent_expr_state_tacticD0Ev, ptr @_ZN6tactic19user_propagate_initEPvRSt8functionIFvS0_PN15user_propagator8callbackEEERS1_IFvS0_S4_jEERS1_IFS0_S0_R11ast_managerRPNS2_11context_objEEE, ptr @_ZN15user_propagator4core29user_propagate_register_fixedERSt8functionIFvPvPNS_8callbackEP4exprS6_EE, ptr @_ZN15user_propagator4core29user_propagate_register_finalERSt8functionIFvPvPNS_8callbackEEE, ptr @_ZN15user_propagator4core26user_propagate_register_eqERSt8functionIFvPvPNS_8callbackEP4exprS6_EE, ptr @_ZN15user_propagator4core29user_propagate_register_diseqERSt8functionIFvPvPNS_8callbackEP4exprS6_EE, ptr @_ZN27dependent_expr_state_tactic28user_propagate_register_exprEP4expr, ptr @_ZN15user_propagator4core31user_propagate_register_createdERSt8functionIFvPvPNS_8callbackEP4exprEE, ptr @_ZN15user_propagator4core30user_propagate_register_decideERSt8functionIFvPvPNS_8callbackEP4exprjbEE, ptr @_ZN27dependent_expr_state_tactic20user_propagate_clearEv, ptr @_ZN6tactic18register_on_clauseEPvRSt8functionIFvS0_P4exprjPKjjPKS3_EE, ptr @_ZN27dependent_expr_state_tactic11updt_paramsERK10params_ref, ptr @_ZN27dependent_expr_state_tactic20collect_param_descrsER12param_descrs, ptr @_ZN27dependent_expr_state_tacticclERK3refI4goalER11sref_bufferIS1_Lj16EE, ptr @_ZNK27dependent_expr_state_tactic18collect_statisticsER10statistics, ptr @_ZN27dependent_expr_state_tactic16reset_statisticsEv, ptr @_ZN27dependent_expr_state_tactic7cleanupEv, ptr @_ZN6tactic5resetEv, ptr @_ZN6tactic9set_logicERK6symbol, ptr @_ZN6tactic21set_progress_callbackEP17progress_callback, ptr @_ZN27dependent_expr_state_tactic9translateER11ast_manager, ptr @_ZNK27dependent_expr_state_tactic4nameEv, ptr @_ZNK27dependent_expr_state_tactic5qtailEv, ptr @_ZN27dependent_expr_state_tacticixEj, ptr @_ZN27dependent_expr_state_tactic6updateEjRK14dependent_expr, ptr @_ZN27dependent_expr_state_tactic3addERK14dependent_expr, ptr @_ZN27dependent_expr_state_tactic12inconsistentEv, ptr @_ZN27dependent_expr_state_tactic11model_trailEv, ptr @_ZN27dependent_expr_state_tactic7updatedEv, ptr @_ZN27dependent_expr_state_tactic13reset_updatedEv], [14 x ptr] [ptr inttoptr (i64 -16 to ptr), ptr @_ZTI27dependent_expr_state_tactic, ptr @_ZThn16_N27dependent_expr_state_tacticD1Ev, ptr @_ZThn16_N27dependent_expr_state_tacticD0Ev, ptr @_ZThn16_NK27dependent_expr_state_tactic5qtailEv, ptr @_ZThn16_N27dependent_expr_state_tacticixEj, ptr @_ZThn16_N27dependent_expr_state_tactic6updateEjRK14dependent_expr, ptr @_ZThn16_N27dependent_expr_state_tactic3addERK14dependent_expr, ptr @_ZThn16_N27dependent_expr_state_tactic12inconsistentEv, ptr @_ZThn16_N27dependent_expr_state_tactic11model_trailEv, ptr @_ZN20dependent_expr_state14flatten_suffixEv, ptr @_ZThn16_N27dependent_expr_state_tactic7updatedEv, ptr @_ZThn16_N27dependent_expr_state_tactic13reset_updatedEv, ptr @_ZNK20dependent_expr_state7displayERSo] }, comdat, align 8
@_ZTS27dependent_expr_state_tactic = linkonce_odr hidden constant [30 x i8] c"27dependent_expr_state_tactic\00", comdat, align 1
@_ZTS6tactic = linkonce_odr hidden constant [8 x i8] c"6tactic\00", comdat, align 1
@_ZTSN15user_propagator4coreE = linkonce_odr hidden constant [25 x i8] c"N15user_propagator4coreE\00", comdat, align 1
@_ZTIN15user_propagator4coreE = linkonce_odr hidden constant { ptr, ptr } { ptr getelementptr inbounds (ptr, ptr @_ZTVN10__cxxabiv117__class_type_infoE, i64 2), ptr @_ZTSN15user_propagator4coreE }, comdat, align 8
@_ZTI6tactic = linkonce_odr hidden constant { ptr, ptr, ptr } { ptr getelementptr inbounds (ptr, ptr @_ZTVN10__cxxabiv120__si_class_type_infoE, i64 2), ptr @_ZTS6tactic, ptr @_ZTIN15user_propagator4coreE }, comdat, align 8
@_ZTS20dependent_expr_state = linkonce_odr hidden constant [23 x i8] c"20dependent_expr_state\00", comdat, align 1
@_ZTI20dependent_expr_state = linkonce_odr hidden constant { ptr, ptr } { ptr getelementptr inbounds (ptr, ptr @_ZTVN10__cxxabiv117__class_type_infoE, i64 2), ptr @_ZTS20dependent_expr_state }, comdat, align 8
@_ZTI27dependent_expr_state_tactic = linkonce_odr hidden constant { ptr, ptr, i32, i32, ptr, i64, ptr, i64 } { ptr getelementptr inbounds (ptr, ptr @_ZTVN10__cxxabiv121__vmi_class_type_infoE, i64 2), ptr @_ZTS27dependent_expr_state_tactic, i32 0, i32 2, ptr @_ZTI6tactic, i64 2, ptr @_ZTI20dependent_expr_state, i64 4098 }, comdat, align 8
@_ZTV6tactic = linkonce_odr hidden unnamed_addr constant { [25 x ptr] } { [25 x ptr] [ptr null, ptr @_ZTI6tactic, ptr @_ZN6tacticD2Ev, ptr @_ZN6tacticD0Ev, ptr @_ZN6tactic19user_propagate_initEPvRSt8functionIFvS0_PN15user_propagator8callbackEEERS1_IFvS0_S4_jEERS1_IFS0_S0_R11ast_managerRPNS2_11context_objEEE, ptr @_ZN15user_propagator4core29user_propagate_register_fixedERSt8functionIFvPvPNS_8callbackEP4exprS6_EE, ptr @_ZN15user_propagator4core29user_propagate_register_finalERSt8functionIFvPvPNS_8callbackEEE, ptr @_ZN15user_propagator4core26user_propagate_register_eqERSt8functionIFvPvPNS_8callbackEP4exprS6_EE, ptr @_ZN15user_propagator4core29user_propagate_register_diseqERSt8functionIFvPvPNS_8callbackEP4exprS6_EE, ptr @_ZN6tactic28user_propagate_register_exprEP4expr, ptr @_ZN15user_propagator4core31user_propagate_register_createdERSt8functionIFvPvPNS_8callbackEP4exprEE, ptr @_ZN15user_propagator4core30user_propagate_register_decideERSt8functionIFvPvPNS_8callbackEP4exprjbEE, ptr @_ZN15user_propagator4core20user_propagate_clearEv, ptr @_ZN6tactic18register_on_clauseEPvRSt8functionIFvS0_P4exprjPKjjPKS3_EE, ptr @_ZN6tactic11updt_paramsERK10params_ref, ptr @_ZN6tactic20collect_param_descrsER12param_descrs, ptr @__cxa_pure_virtual, ptr @_ZNK6tactic18collect_statisticsER10statistics, ptr @_ZN6tactic16reset_statisticsEv, ptr @__cxa_pure_virtual, ptr @_ZN6tactic5resetEv, ptr @_ZN6tactic9set_logicERK6symbol, ptr @_ZN6tactic21set_progress_callbackEP17progress_callback, ptr @__cxa_pure_virtual, ptr @__cxa_pure_virtual] }, comdat, align 8
@_ZTVN15user_propagator4coreE = linkonce_odr hidden unnamed_addr constant { [14 x ptr] } { [14 x ptr] [ptr null, ptr @_ZTIN15user_propagator4coreE, ptr @_ZN15user_propagator4coreD2Ev, ptr @_ZN15user_propagator4coreD0Ev, ptr @_ZN15user_propagator4core19user_propagate_initEPvRSt8functionIFvS1_PNS_8callbackEEERS2_IFvS1_S4_jEERS2_IFS1_S1_R11ast_managerRPNS_11context_objEEE, ptr @_ZN15user_propagator4core29user_propagate_register_fixedERSt8functionIFvPvPNS_8callbackEP4exprS6_EE, ptr @_ZN15user_propagator4core29user_propagate_register_finalERSt8functionIFvPvPNS_8callbackEEE, ptr @_ZN15user_propagator4core26user_propagate_register_eqERSt8functionIFvPvPNS_8callbackEP4exprS6_EE, ptr @_ZN15user_propagator4core29user_propagate_register_diseqERSt8functionIFvPvPNS_8callbackEP4exprS6_EE, ptr @_ZN15user_propagator4core28user_propagate_register_exprEP4expr, ptr @_ZN15user_propagator4core31user_propagate_register_createdERSt8functionIFvPvPNS_8callbackEP4exprEE, ptr @_ZN15user_propagator4core30user_propagate_register_decideERSt8functionIFvPvPNS_8callbackEP4exprjbEE, ptr @_ZN15user_propagator4core20user_propagate_clearEv, ptr @_ZN15user_propagator4core18register_on_clauseEPvRSt8functionIFvS1_P4exprjPKjjPKS4_EE] }, comdat, align 8
@.str.76 = private unnamed_addr constant [54 x i8] c"user-propagators are only supported on the SMT solver\00", align 1
@.str.77 = private unnamed_addr constant [51 x i8] c"clause logging is only supported on the SMT solver\00", align 1
@_ZTV20dependent_expr_state = linkonce_odr hidden unnamed_addr constant { [14 x ptr] } { [14 x ptr] [ptr null, ptr @_ZTI20dependent_expr_state, ptr @_ZN20dependent_expr_stateD2Ev, ptr @_ZN20dependent_expr_stateD0Ev, ptr @__cxa_pure_virtual, ptr @__cxa_pure_virtual, ptr @__cxa_pure_virtual, ptr @__cxa_pure_virtual, ptr @__cxa_pure_virtual, ptr @__cxa_pure_virtual, ptr @_ZN20dependent_expr_state14flatten_suffixEv, ptr @__cxa_pure_virtual, ptr @__cxa_pure_virtual, ptr @_ZNK20dependent_expr_state7displayERSo] }, comdat, align 8
@_ZTV8ast_mark = external unnamed_addr constant { [6 x ptr] }, align 8
@.str.78 = private unnamed_addr constant [43 x i8] c"Overflow encountered when expanding vector\00", align 1
@.str.79 = private unnamed_addr constant [41 x i8] c"tactic does not support user propagation\00", align 1
@_ZTV11value_trailIjE = linkonce_odr hidden unnamed_addr constant { [5 x ptr] } { [5 x ptr] [ptr null, ptr @_ZTI11value_trailIjE, ptr @_ZN11value_trailIjED2Ev, ptr @_ZN11value_trailIjED0Ev, ptr @_ZN11value_trailIjE4undoEv] }, comdat, align 8
@_ZTS11value_trailIjE = linkonce_odr hidden constant [17 x i8] c"11value_trailIjE\00", comdat, align 1
@_ZTS5trail = linkonce_odr hidden constant [7 x i8] c"5trail\00", comdat, align 1
@_ZTI5trail = linkonce_odr hidden constant { ptr, ptr } { ptr getelementptr inbounds (ptr, ptr @_ZTVN10__cxxabiv117__class_type_infoE, i64 2), ptr @_ZTS5trail }, comdat, align 8
@_ZTI11value_trailIjE = linkonce_odr hidden constant { ptr, ptr, ptr } { ptr getelementptr inbounds (ptr, ptr @_ZTVN10__cxxabiv120__si_class_type_infoE, i64 2), ptr @_ZTS11value_trailIjE, ptr @_ZTI5trail }, comdat, align 8
@_ZTV5trail = linkonce_odr hidden unnamed_addr constant { [5 x ptr] } { [5 x ptr] [ptr null, ptr @_ZTI5trail, ptr @_ZN5trailD2Ev, ptr @_ZN5trailD0Ev, ptr @__cxa_pure_virtual] }, comdat, align 8
@_ZTVN20dependent_expr_state4thawE = linkonce_odr hidden unnamed_addr constant { [5 x ptr] } { [5 x ptr] [ptr null, ptr @_ZTIN20dependent_expr_state4thawE, ptr @_ZN20dependent_expr_state4thawD2Ev, ptr @_ZN20dependent_expr_state4thawD0Ev, ptr @_ZN20dependent_expr_state4thaw4undoEv] }, comdat, align 8
@_ZTSN20dependent_expr_state4thawE = linkonce_odr hidden constant [30 x i8] c"N20dependent_expr_state4thawE\00", comdat, align 1
@_ZTIN20dependent_expr_state4thawE = linkonce_odr hidden constant { ptr, ptr, ptr } { ptr getelementptr inbounds (ptr, ptr @_ZTVN10__cxxabiv120__si_class_type_infoE, i64 2), ptr @_ZTSN20dependent_expr_state4thawE, ptr @_ZTI5trail }, comdat, align 8
@.str.80 = private unnamed_addr constant [39 x i8] c"tactic does not support clause logging\00", align 1
@_ZTS18rewriter_exception = linkonce_odr hidden constant [21 x i8] c"18rewriter_exception\00", comdat, align 1
@_ZTI18rewriter_exception = linkonce_odr hidden constant { ptr, ptr, ptr } { ptr getelementptr inbounds (ptr, ptr @_ZTVN10__cxxabiv120__si_class_type_infoE, i64 2), ptr @_ZTS18rewriter_exception, ptr @_ZTI17default_exception }, comdat, align 8
@_ZTS16tactic_exception = linkonce_odr hidden constant [19 x i8] c"16tactic_exception\00", comdat, align 1
@_ZTI12z3_exception = external constant ptr
@_ZTI16tactic_exception = linkonce_odr hidden constant { ptr, ptr, ptr } { ptr getelementptr inbounds (ptr, ptr @_ZTVN10__cxxabiv120__si_class_type_infoE, i64 2), ptr @_ZTS16tactic_exception, ptr @_ZTI12z3_exception }, comdat, align 8
@_ZTV16tactic_exception = linkonce_odr hidden unnamed_addr constant { [6 x ptr] } { [6 x ptr] [ptr null, ptr @_ZTI16tactic_exception, ptr @_ZN16tactic_exceptionD2Ev, ptr @_ZN16tactic_exceptionD0Ev, ptr @_ZNK16tactic_exception3msgEv, ptr @_ZNK12z3_exception10error_codeEv] }, comdat, align 8
@.str.81 = private unnamed_addr constant [5 x i8] c"null\00", align 1
@.str.82 = private unnamed_addr constant [101 x i8] c"generated/home/dtcxzyw/WorkSpace/Projects/compilers/llvm-opt-benchmark/bench/z3/z3/src/util/parray.h\00", align 1
@.str.83 = private unnamed_addr constant [8 x i8] c"elim_01\00", align 1
@.str.84 = private unnamed_addr constant [20 x i8] c"pb.compile_equality\00", align 1
@_ZN8rational6m_zeroE = external global %class.rational, align 8
@.str.85 = private unnamed_addr constant [31 x i8] c"std::get: variant is valueless\00", align 1
@.str.86 = private unnamed_addr constant [34 x i8] c"std::get: wrong index for variant\00", align 1
@_ZTSSt18bad_variant_access = linkonce_odr constant [23 x i8] c"St18bad_variant_access\00", comdat, align 1
@_ZTISt9exception = external constant ptr
@_ZTISt18bad_variant_access = linkonce_odr constant { ptr, ptr, ptr } { ptr getelementptr inbounds (ptr, ptr @_ZTVN10__cxxabiv120__si_class_type_infoE, i64 2), ptr @_ZTSSt18bad_variant_access, ptr @_ZTISt9exception }, comdat, align 8
@_ZTVSt18bad_variant_access = linkonce_odr unnamed_addr constant { [5 x ptr] } { [5 x ptr] [ptr null, ptr @_ZTISt18bad_variant_access, ptr @_ZNSt18bad_variant_accessD2Ev, ptr @_ZNSt18bad_variant_accessD0Ev, ptr @_ZNKSt18bad_variant_access4whatEv] }, comdat, align 8
@_ZTVSt9exception = external unnamed_addr constant { [5 x ptr] }, align 8
@_ZSt14in_place_indexILm0EE = linkonce_odr constant %"struct.std::in_place_index_t" zeroinitializer, comdat, align 1
@.str.87 = private unnamed_addr constant [3 x i8] c"k!\00", align 1
@.str.88 = private unnamed_addr constant [45 x i8] c"select optimization engine: 'basic', 'symba'\00", align 1
@.str.89 = private unnamed_addr constant [14 x i8] c"maxsat_engine\00", align 1
@.str.90 = private unnamed_addr constant [92 x i8] c"select engine for maxsat: 'core_maxsat', 'wmax', 'maxres', 'pd-maxres', 'maxres-bin', 'rc2'\00", align 1
@.str.91 = private unnamed_addr constant [75 x i8] c"select how to priortize objectives: 'lex' (lexicographic), 'pareto', 'box'\00", align 1
@.str.92 = private unnamed_addr constant [16 x i8] c"dump_benchmarks\00", align 1
@.str.93 = private unnamed_addr constant [30 x i8] c"dump benchmarks for profiling\00", align 1
@.str.94 = private unnamed_addr constant [6 x i8] c"false\00", align 1
@.str.95 = private unnamed_addr constant [38 x i8] c"display intermediary models to stdout\00", align 1
@.str.96 = private unnamed_addr constant [16 x i8] c"solution_prefix\00", align 1
@.str.97 = private unnamed_addr constant [61 x i8] c"path prefix to dump intermediary, but non-optimal, solutions\00", align 1
@.str.98 = private unnamed_addr constant [8 x i8] c"timeout\00", align 1
@.str.99 = private unnamed_addr constant [59 x i8] c"timeout (in milliseconds) (UINT_MAX and 0 mean no timeout)\00", align 1
@.str.100 = private unnamed_addr constant [11 x i8] c"4294967295\00", align 1
@.str.101 = private unnamed_addr constant [7 x i8] c"rlimit\00", align 1
@.str.102 = private unnamed_addr constant [34 x i8] c"resource limit (0 means no limit)\00", align 1
@.str.103 = private unnamed_addr constant [2 x i8] c"0\00", align 1
@.str.104 = private unnamed_addr constant [11 x i8] c"enable_sls\00", align 1
@.str.105 = private unnamed_addr constant [41 x i8] c"enable SLS tuning during weighted maxsat\00", align 1
@.str.106 = private unnamed_addr constant [11 x i8] c"enable_lns\00", align 1
@.str.107 = private unnamed_addr constant [34 x i8] c"enable LNS during weighted maxsat\00", align 1
@.str.108 = private unnamed_addr constant [14 x i8] c"lns_conflicts\00", align 1
@.str.109 = private unnamed_addr constant [38 x i8] c"initial conflict count for LNS search\00", align 1
@.str.110 = private unnamed_addr constant [5 x i8] c"1000\00", align 1
@.str.111 = private unnamed_addr constant [19 x i8] c"enable_core_rotate\00", align 1
@.str.112 = private unnamed_addr constant [62 x i8] c"enable core rotation to both sample cores and correction sets\00", align 1
@.str.113 = private unnamed_addr constant [11 x i8] c"enable_sat\00", align 1
@.str.114 = private unnamed_addr constant [54 x i8] c"enable the new SAT core for propositional constraints\00", align 1
@.str.115 = private unnamed_addr constant [5 x i8] c"true\00", align 1
@.str.116 = private unnamed_addr constant [23 x i8] c"eliminate 01 variables\00", align 1
@.str.117 = private unnamed_addr constant [12 x i8] c"incremental\00", align 1
@.str.118 = private unnamed_addr constant [103 x i8] c"set incremental mode. It disables pre-processing and enables adding constraints in model event handler\00", align 1
@.str.119 = private unnamed_addr constant [8 x i8] c"pp.neat\00", align 1
@.str.120 = private unnamed_addr constant [90 x i8] c"use neat (as opposed to less readable, but faster) pretty printer when displaying context\00", align 1
@.str.121 = private unnamed_addr constant [90 x i8] c"compile arithmetical equalities into pseudo-Boolean equality (instead of two inequalites)\00", align 1
@.str.122 = private unnamed_addr constant [8 x i8] c"pp.wcnf\00", align 1
@.str.123 = private unnamed_addr constant [40 x i8] c"print maxsat benchmark into wcnf format\00", align 1
@.str.124 = private unnamed_addr constant [14 x i8] c"maxlex.enable\00", align 1
@.str.125 = private unnamed_addr constant [58 x i8] c"enable maxlex heuristic for lexicographic MaxSAT problems\00", align 1
@.str.126 = private unnamed_addr constant [14 x i8] c"rc2.totalizer\00", align 1
@.str.127 = private unnamed_addr constant [31 x i8] c"use totalizer for rc2 encoding\00", align 1
@.str.128 = private unnamed_addr constant [18 x i8] c"maxres.hill_climb\00", align 1
@.str.129 = private unnamed_addr constant [39 x i8] c"give preference for large weight cores\00", align 1
@.str.130 = private unnamed_addr constant [29 x i8] c"maxres.add_upper_bound_block\00", align 1
@.str.131 = private unnamed_addr constant [36 x i8] c"restict upper bound with constraint\00", align 1
@.str.132 = private unnamed_addr constant [21 x i8] c"maxres.max_num_cores\00", align 1
@.str.133 = private unnamed_addr constant [34 x i8] c"maximal number of cores per round\00", align 1
@.str.134 = private unnamed_addr constant [4 x i8] c"200\00", align 1
@.str.135 = private unnamed_addr constant [21 x i8] c"maxres.max_core_size\00", align 1
@.str.136 = private unnamed_addr constant [59 x i8] c"break batch of generated cores if size reaches this number\00", align 1
@.str.137 = private unnamed_addr constant [2 x i8] c"3\00", align 1
@.str.138 = private unnamed_addr constant [27 x i8] c"maxres.maximize_assignment\00", align 1
@.str.139 = private unnamed_addr constant [46 x i8] c"find an MSS/MCS to improve current assignment\00", align 1
@.str.140 = private unnamed_addr constant [31 x i8] c"maxres.max_correction_set_size\00", align 1
@.str.141 = private unnamed_addr constant [63 x i8] c"allow generating correction set constraints up to maximal size\00", align 1
@.str.142 = private unnamed_addr constant [12 x i8] c"maxres.wmax\00", align 1
@.str.143 = private unnamed_addr constant [53 x i8] c"use weighted theory solver to constrain upper bounds\00", align 1
@.str.144 = private unnamed_addr constant [31 x i8] c"maxres.pivot_on_correction_set\00", align 1
@.str.145 = private unnamed_addr constant [83 x i8] c"reduce soft constraints if the current correction set is smaller than current core\00", align 1
@_ZTV23smt2_pp_environment_dbg = linkonce_odr hidden unnamed_addr constant { [21 x ptr] } { [21 x ptr] [ptr null, ptr @_ZTI23smt2_pp_environment_dbg, ptr @_ZN23smt2_pp_environment_dbgD2Ev, ptr @_ZN23smt2_pp_environment_dbgD0Ev, ptr @_ZNK23smt2_pp_environment_dbg11get_managerEv, ptr @_ZN23smt2_pp_environment_dbg9get_autilEv, ptr @_ZN23smt2_pp_environment_dbg10get_bvutilEv, ptr @_ZN23smt2_pp_environment_dbg10get_arutilEv, ptr @_ZN23smt2_pp_environment_dbg9get_futilEv, ptr @_ZN23smt2_pp_environment_dbg9get_sutilEv, ptr @_ZN23smt2_pp_environment_dbg10get_dlutilEv, ptr @_ZN23smt2_pp_environment_dbg10get_dtutilEv, ptr @_ZNK23smt2_pp_environment_dbg4usesERK6symbol, ptr @_ZN19smt2_pp_environment8pp_fdeclEP9func_declRj, ptr @_ZN19smt2_pp_environment13pp_bv_literalEP3appbb, ptr @_ZN19smt2_pp_environment16pp_arith_literalEP3appbj, ptr @_ZN19smt2_pp_environment16pp_float_literalEP3appbb, ptr @_ZN19smt2_pp_environment18pp_datalog_literalEP3app, ptr @_ZN19smt2_pp_environment17pp_string_literalEP3app, ptr @_ZN19smt2_pp_environment7pp_sortEP4sort, ptr @_ZN19smt2_pp_environment12pp_fdecl_refEP9func_decl] }, comdat, align 8
@_ZTS23smt2_pp_environment_dbg = linkonce_odr hidden constant [26 x i8] c"23smt2_pp_environment_dbg\00", comdat, align 1
@_ZTI19smt2_pp_environment = external constant ptr
@_ZTI23smt2_pp_environment_dbg = linkonce_odr hidden constant { ptr, ptr, ptr } { ptr getelementptr inbounds (ptr, ptr @_ZTVN10__cxxabiv120__si_class_type_infoE, i64 2), ptr @_ZTS23smt2_pp_environment_dbg, ptr @_ZTI19smt2_pp_environment }, comdat, align 8
@_ZTV19smt2_pp_environment = external unnamed_addr constant { [21 x ptr] }, align 8
@.str.146 = private unnamed_addr constant [4 x i8] c"seq\00", align 1
@.str.147 = private unnamed_addr constant [50 x i8] c"basic_string: construction from null is not valid\00", align 1
@.str.148 = private unnamed_addr constant [104 x i8] c"generated/home/dtcxzyw/WorkSpace/Projects/compilers/llvm-opt-benchmark/bench/z3/z3/src/util/hashtable.h\00", align 1
@_ZN8rational5m_oneE = external global %class.rational, align 8
@_ZN12inf_rational6m_zeroE = external global %class.inf_rational, align 8
@.str.149 = private unnamed_addr constant [4 x i8] c"-oo\00", align 1
@.str.150 = private unnamed_addr constant [4 x i8] c"*oo\00", align 1
@.str.151 = private unnamed_addr constant [2 x i8] c"(\00", align 1
@.str.152 = private unnamed_addr constant [4 x i8] c" + \00", align 1
@.str.153 = private unnamed_addr constant [5 x i8] c" -e*\00", align 1
@.str.154 = private unnamed_addr constant [5 x i8] c" +e*\00", align 1
@.str.155 = private unnamed_addr constant [107 x i8] c"generated/home/dtcxzyw/WorkSpace/Projects/compilers/llvm-opt-benchmark/bench/z3/z3/src/ast/for_each_expr.h\00", align 1
@llvm.global_ctors = appending global [1 x { i32, ptr, ptr }] [{ i32, ptr, ptr } { i32 65535, ptr @_GLOBAL__sub_I_opt_context.cpp, ptr null }]

@_ZN3opt7contextC1ER11ast_manager = hidden unnamed_addr alias void (ptr, ptr), ptr @_ZN3opt7contextC2ER11ast_manager
@_ZN3opt7contextD1Ev = hidden unnamed_addr alias void (ptr), ptr @_ZN3opt7contextD2Ev

; Function Attrs: uwtable
define internal void @__cxx_global_var_init() #0 section ".text.startup" {
entry:
  call void @_ZNSt8ios_base4InitC1Ev(ptr noundef nonnull align 1 dereferenceable(1) @_ZStL8__ioinit)
  %0 = call i32 @__cxa_atexit(ptr @_ZNSt8ios_base4InitD1Ev, ptr @_ZStL8__ioinit, ptr @__dso_handle) #3
  ret void
}

declare void @_ZNSt8ios_base4InitC1Ev(ptr noundef nonnull align 1 dereferenceable(1)) unnamed_addr #1

; Function Attrs: nounwind
declare void @_ZNSt8ios_base4InitD1Ev(ptr noundef nonnull align 1 dereferenceable(1)) unnamed_addr #2

; Function Attrs: nounwind
declare i32 @__cxa_atexit(ptr, ptr, ptr) #3

; Function Attrs: uwtable
define internal void @__cxx_global_var_init.1() #0 section ".text.startup" {
entry:
  call void @_ZN3sat7literalC2Ev(ptr noundef nonnull align 4 dereferenceable(4) @_ZN3satL12null_literalE)
  ret void
}

; Function Attrs: mustprogress nounwind uwtable
define linkonce_odr hidden void @_ZN3sat7literalC2Ev(ptr noundef nonnull align 4 dereferenceable(4) %this) unnamed_addr #4 comdat align 2 {
entry:
  %this.addr = alloca ptr, align 8
  store ptr %this, ptr %this.addr, align 8
  %this1 = load ptr, ptr %this.addr, align 8
  %m_val = getelementptr inbounds %"class.sat::literal", ptr %this1, i32 0, i32 0
  store i32 -2, ptr %m_val, align 4
  ret void
}

; Function Attrs: uwtable
define internal void @__cxx_global_var_init.2() #0 section ".text.startup" {
entry:
  call void @_ZN3sat7literalC2Ev(ptr noundef nonnull align 4 dereferenceable(4) @_ZN3smtL12null_literalE)
  ret void
}

; Function Attrs: uwtable
define internal void @__cxx_global_var_init.3() #0 section ".text.startup" {
entry:
  call void @_ZN3sat7literalC2Ejb(ptr noundef nonnull align 4 dereferenceable(4) @_ZN3smtL12true_literalE, i32 noundef 0, i1 noundef zeroext false)
  ret void
}

; Function Attrs: mustprogress nounwind uwtable
define linkonce_odr hidden void @_ZN3sat7literalC2Ejb(ptr noundef nonnull align 4 dereferenceable(4) %this, i32 noundef %v, i1 noundef zeroext %_sign) unnamed_addr #4 comdat align 2 {
entry:
  %this.addr = alloca ptr, align 8
  %v.addr = alloca i32, align 4
  %_sign.addr = alloca i8, align 1
  store ptr %this, ptr %this.addr, align 8
  store i32 %v, ptr %v.addr, align 4
  %frombool = zext i1 %_sign to i8
  store i8 %frombool, ptr %_sign.addr, align 1
  %this1 = load ptr, ptr %this.addr, align 8
  %m_val = getelementptr inbounds %"class.sat::literal", ptr %this1, i32 0, i32 0
  %0 = load i32, ptr %v.addr, align 4
  %shl = shl i32 %0, 1
  %1 = load i8, ptr %_sign.addr, align 1
  %tobool = trunc i8 %1 to i1
  %conv = zext i1 %tobool to i32
  %add = add i32 %shl, %conv
  store i32 %add, ptr %m_val, align 4
  ret void
}

; Function Attrs: uwtable
define internal void @__cxx_global_var_init.4() #0 section ".text.startup" {
entry:
  call void @_ZN3sat7literalC2Ejb(ptr noundef nonnull align 4 dereferenceable(4) @_ZN3smtL13false_literalE, i32 noundef 0, i1 noundef zeroext true)
  ret void
}

; Function Attrs: uwtable
define internal void @__cxx_global_var_init.5() #0 section ".text.startup" {
entry:
  call void @_ZN3smt16eq_justificationC2EPNS_13justificationE(ptr noundef nonnull align 8 dereferenceable(8) @_ZN3smtL21null_eq_justificationE, ptr noundef null)
  ret void
}

; Function Attrs: mustprogress nounwind uwtable
define linkonce_odr hidden void @_ZN3smt16eq_justificationC2EPNS_13justificationE(ptr noundef nonnull align 8 dereferenceable(8) %this, ptr noundef %js) unnamed_addr #4 comdat align 2 {
entry:
  %this.addr = alloca ptr, align 8
  %js.addr = alloca ptr, align 8
  store ptr %this, ptr %this.addr, align 8
  store ptr %js, ptr %js.addr, align 8
  %this1 = load ptr, ptr %this.addr, align 8
  %m_data = getelementptr inbounds %"class.smt::eq_justification", ptr %this1, i32 0, i32 0
  %0 = load ptr, ptr %js.addr, align 8
  %1 = ptrtoint ptr %0 to i64
  %or = or i64 %1, 3
  %2 = inttoptr i64 %or to ptr
  store ptr %2, ptr %m_data, align 8
  ret void
}

; Function Attrs: uwtable
define internal void @__cxx_global_var_init.6() #0 section ".text.startup" {
entry:
  call void @_ZN3smt15b_justificationC2EPNS_6clauseE(ptr noundef nonnull align 8 dereferenceable(8) @_ZN3smtL20null_b_justificationE, ptr noundef null)
  ret void
}

; Function Attrs: mustprogress nounwind uwtable
define linkonce_odr hidden void @_ZN3smt15b_justificationC2EPNS_6clauseE(ptr noundef nonnull align 8 dereferenceable(8) %this, ptr noundef %c) unnamed_addr #4 comdat align 2 {
entry:
  %this.addr = alloca ptr, align 8
  %c.addr = alloca ptr, align 8
  store ptr %this, ptr %this.addr, align 8
  store ptr %c, ptr %c.addr, align 8
  %this1 = load ptr, ptr %this.addr, align 8
  %m_data = getelementptr inbounds %"class.smt::b_justification", ptr %this1, i32 0, i32 0
  %0 = load ptr, ptr %c.addr, align 8
  %1 = ptrtoint ptr %0 to i64
  %or = or i64 %1, 0
  %2 = inttoptr i64 %or to ptr
  store ptr %2, ptr %m_data, align 8
  ret void
}

; Function Attrs: mustprogress uwtable
define hidden void @_ZN3opt7context12scoped_state4pushEv(ptr noundef nonnull align 8 dereferenceable(152) %this) #5 align 2 {
entry:
  %this.addr = alloca ptr, align 8
  %ref.tmp = alloca i32, align 4
  %ref.tmp3 = alloca i32, align 4
  %ref.tmp6 = alloca i32, align 4
  %ref.tmp9 = alloca i32, align 4
  store ptr %this, ptr %this.addr, align 8
  %this1 = load ptr, ptr %this.addr, align 8
  %m_asms_lim = getelementptr inbounds %"class.opt::context::scoped_state", ptr %this1, i32 0, i32 4
  %m_asms = getelementptr inbounds %"class.opt::context::scoped_state", ptr %this1, i32 0, i32 10
  %call = call noundef i32 @_ZNK15ref_vector_coreI4expr19ref_manager_wrapperIS0_11ast_managerEE4sizeEv(ptr noundef nonnull align 8 dereferenceable(16) %m_asms)
  store i32 %call, ptr %ref.tmp, align 4
  %call2 = call noundef nonnull align 8 dereferenceable(8) ptr @_ZN6vectorIjLb0EjE9push_backEOj(ptr noundef nonnull align 8 dereferenceable(8) %m_asms_lim, ptr noundef nonnull align 4 dereferenceable(4) %ref.tmp)
  %m_hard_lim = getelementptr inbounds %"class.opt::context::scoped_state", ptr %this1, i32 0, i32 3
  %m_hard = getelementptr inbounds %"class.opt::context::scoped_state", ptr %this1, i32 0, i32 9
  %call4 = call noundef i32 @_ZNK15ref_vector_coreI4expr19ref_manager_wrapperIS0_11ast_managerEE4sizeEv(ptr noundef nonnull align 8 dereferenceable(16) %m_hard)
  store i32 %call4, ptr %ref.tmp3, align 4
  %call5 = call noundef nonnull align 8 dereferenceable(8) ptr @_ZN6vectorIjLb0EjE9push_backEOj(ptr noundef nonnull align 8 dereferenceable(8) %m_hard_lim, ptr noundef nonnull align 4 dereferenceable(4) %ref.tmp3)
  %m_objectives_lim = getelementptr inbounds %"class.opt::context::scoped_state", ptr %this1, i32 0, i32 5
  %m_objectives = getelementptr inbounds %"class.opt::context::scoped_state", ptr %this1, i32 0, i32 11
  %call7 = call noundef i32 @_ZNK6vectorIN3opt7context9objectiveELb1EjE4sizeEv(ptr noundef nonnull align 8 dereferenceable(8) %m_objectives)
  store i32 %call7, ptr %ref.tmp6, align 4
  %call8 = call noundef nonnull align 8 dereferenceable(8) ptr @_ZN6vectorIjLb0EjE9push_backEOj(ptr noundef nonnull align 8 dereferenceable(8) %m_objectives_lim, ptr noundef nonnull align 4 dereferenceable(4) %ref.tmp6)
  %m_objectives_term_trail_lim = getelementptr inbounds %"class.opt::context::scoped_state", ptr %this1, i32 0, i32 7
  %m_objectives_term_trail = getelementptr inbounds %"class.opt::context::scoped_state", ptr %this1, i32 0, i32 6
  %call10 = call noundef i32 @_ZNK6vectorIjLb0EjE4sizeEv(ptr noundef nonnull align 8 dereferenceable(8) %m_objectives_term_trail)
  store i32 %call10, ptr %ref.tmp9, align 4
  %call11 = call noundef nonnull align 8 dereferenceable(8) ptr @_ZN6vectorIjLb0EjE9push_backEOj(ptr noundef nonnull align 8 dereferenceable(8) %m_objectives_term_trail_lim, ptr noundef nonnull align 4 dereferenceable(4) %ref.tmp9)
  ret void
}

; Function Attrs: mustprogress uwtable
define linkonce_odr hidden noundef nonnull align 8 dereferenceable(8) ptr @_ZN6vectorIjLb0EjE9push_backEOj(ptr noundef nonnull align 8 dereferenceable(8) %this, ptr noundef nonnull align 4 dereferenceable(4) %elem) #5 comdat align 2 {
entry:
  %this.addr = alloca ptr, align 8
  %elem.addr = alloca ptr, align 8
  store ptr %this, ptr %this.addr, align 8
  store ptr %elem, ptr %elem.addr, align 8
  %this1 = load ptr, ptr %this.addr, align 8
  %m_data = getelementptr inbounds %class.vector, ptr %this1, i32 0, i32 0
  %0 = load ptr, ptr %m_data, align 8
  %cmp = icmp eq ptr %0, null
  br i1 %cmp, label %if.then, label %lor.lhs.false

lor.lhs.false:                                    ; preds = %entry
  %m_data2 = getelementptr inbounds %class.vector, ptr %this1, i32 0, i32 0
  %1 = load ptr, ptr %m_data2, align 8
  %arrayidx = getelementptr inbounds i32, ptr %1, i64 -1
  %2 = load i32, ptr %arrayidx, align 4
  %m_data3 = getelementptr inbounds %class.vector, ptr %this1, i32 0, i32 0
  %3 = load ptr, ptr %m_data3, align 8
  %arrayidx4 = getelementptr inbounds i32, ptr %3, i64 -2
  %4 = load i32, ptr %arrayidx4, align 4
  %cmp5 = icmp eq i32 %2, %4
  br i1 %cmp5, label %if.then, label %if.end

if.then:                                          ; preds = %lor.lhs.false, %entry
  call void @_ZN6vectorIjLb0EjE13expand_vectorEv(ptr noundef nonnull align 8 dereferenceable(8) %this1)
  br label %if.end

if.end:                                           ; preds = %if.then, %lor.lhs.false
  %m_data6 = getelementptr inbounds %class.vector, ptr %this1, i32 0, i32 0
  %5 = load ptr, ptr %m_data6, align 8
  %m_data7 = getelementptr inbounds %class.vector, ptr %this1, i32 0, i32 0
  %6 = load ptr, ptr %m_data7, align 8
  %arrayidx8 = getelementptr inbounds i32, ptr %6, i64 -1
  %7 = load i32, ptr %arrayidx8, align 4
  %idx.ext = zext i32 %7 to i64
  %add.ptr = getelementptr inbounds i32, ptr %5, i64 %idx.ext
  %8 = load ptr, ptr %elem.addr, align 8
  %9 = load i32, ptr %8, align 4
  store i32 %9, ptr %add.ptr, align 4
  %m_data9 = getelementptr inbounds %class.vector, ptr %this1, i32 0, i32 0
  %10 = load ptr, ptr %m_data9, align 8
  %arrayidx10 = getelementptr inbounds i32, ptr %10, i64 -1
  %11 = load i32, ptr %arrayidx10, align 4
  %inc = add i32 %11, 1
  store i32 %inc, ptr %arrayidx10, align 4
  ret ptr %this1
}

; Function Attrs: mustprogress uwtable
define linkonce_odr hidden noundef i32 @_ZNK15ref_vector_coreI4expr19ref_manager_wrapperIS0_11ast_managerEE4sizeEv(ptr noundef nonnull align 8 dereferenceable(16) %this) #5 comdat align 2 {
entry:
  %this.addr = alloca ptr, align 8
  store ptr %this, ptr %this.addr, align 8
  %this1 = load ptr, ptr %this.addr, align 8
  %m_nodes = getelementptr inbounds %class.ref_vector_core, ptr %this1, i32 0, i32 1
  %call = call noundef i32 @_ZNK6vectorIP4exprLb0EjE4sizeEv(ptr noundef nonnull align 8 dereferenceable(8) %m_nodes)
  ret i32 %call
}

; Function Attrs: mustprogress nounwind uwtable
define linkonce_odr hidden noundef i32 @_ZNK6vectorIN3opt7context9objectiveELb1EjE4sizeEv(ptr noundef nonnull align 8 dereferenceable(8) %this) #4 comdat align 2 {
entry:
  %retval = alloca i32, align 4
  %this.addr = alloca ptr, align 8
  store ptr %this, ptr %this.addr, align 8
  %this1 = load ptr, ptr %this.addr, align 8
  %m_data = getelementptr inbounds %class.vector.1, ptr %this1, i32 0, i32 0
  %0 = load ptr, ptr %m_data, align 8
  %cmp = icmp eq ptr %0, null
  br i1 %cmp, label %if.then, label %if.end

if.then:                                          ; preds = %entry
  store i32 0, ptr %retval, align 4
  br label %return

if.end:                                           ; preds = %entry
  %m_data2 = getelementptr inbounds %class.vector.1, ptr %this1, i32 0, i32 0
  %1 = load ptr, ptr %m_data2, align 8
  %arrayidx = getelementptr inbounds i32, ptr %1, i64 -1
  %2 = load i32, ptr %arrayidx, align 4
  store i32 %2, ptr %retval, align 4
  br label %return

return:                                           ; preds = %if.end, %if.then
  %3 = load i32, ptr %retval, align 4
  ret i32 %3
}

; Function Attrs: mustprogress nounwind uwtable
define linkonce_odr hidden noundef i32 @_ZNK6vectorIjLb0EjE4sizeEv(ptr noundef nonnull align 8 dereferenceable(8) %this) #4 comdat align 2 {
entry:
  %retval = alloca i32, align 4
  %this.addr = alloca ptr, align 8
  store ptr %this, ptr %this.addr, align 8
  %this1 = load ptr, ptr %this.addr, align 8
  %m_data = getelementptr inbounds %class.vector, ptr %this1, i32 0, i32 0
  %0 = load ptr, ptr %m_data, align 8
  %cmp = icmp eq ptr %0, null
  br i1 %cmp, label %if.then, label %if.end

if.then:                                          ; preds = %entry
  store i32 0, ptr %retval, align 4
  br label %return

if.end:                                           ; preds = %entry
  %m_data2 = getelementptr inbounds %class.vector, ptr %this1, i32 0, i32 0
  %1 = load ptr, ptr %m_data2, align 8
  %arrayidx = getelementptr inbounds i32, ptr %1, i64 -1
  %2 = load i32, ptr %arrayidx, align 4
  store i32 %2, ptr %retval, align 4
  br label %return

return:                                           ; preds = %if.end, %if.then
  %3 = load i32, ptr %retval, align 4
  ret i32 %3
}

; Function Attrs: mustprogress uwtable
define hidden void @_ZN3opt7context12scoped_state3popEv(ptr noundef nonnull align 8 dereferenceable(152) %this) #5 align 2 {
entry:
  %this.addr = alloca ptr, align 8
  %k = alloca i32, align 4
  %idx = alloca i32, align 4
  %obj = alloca ptr, align 8
  store ptr %this, ptr %this.addr, align 8
  %this1 = load ptr, ptr %this.addr, align 8
  %m_hard = getelementptr inbounds %"class.opt::context::scoped_state", ptr %this1, i32 0, i32 9
  %m_hard_lim = getelementptr inbounds %"class.opt::context::scoped_state", ptr %this1, i32 0, i32 3
  %call = call noundef nonnull align 4 dereferenceable(4) ptr @_ZN6vectorIjLb0EjE4backEv(ptr noundef nonnull align 8 dereferenceable(8) %m_hard_lim)
  %0 = load i32, ptr %call, align 4
  call void @_ZN15ref_vector_coreI4expr19ref_manager_wrapperIS0_11ast_managerEE6resizeEj(ptr noundef nonnull align 8 dereferenceable(16) %m_hard, i32 noundef %0)
  %m_asms = getelementptr inbounds %"class.opt::context::scoped_state", ptr %this1, i32 0, i32 10
  %m_asms_lim = getelementptr inbounds %"class.opt::context::scoped_state", ptr %this1, i32 0, i32 4
  %call2 = call noundef nonnull align 4 dereferenceable(4) ptr @_ZN6vectorIjLb0EjE4backEv(ptr noundef nonnull align 8 dereferenceable(8) %m_asms_lim)
  %1 = load i32, ptr %call2, align 4
  call void @_ZN15ref_vector_coreI4expr19ref_manager_wrapperIS0_11ast_managerEE6resizeEj(ptr noundef nonnull align 8 dereferenceable(16) %m_asms, i32 noundef %1)
  %m_objectives_term_trail_lim = getelementptr inbounds %"class.opt::context::scoped_state", ptr %this1, i32 0, i32 7
  %call3 = call noundef nonnull align 4 dereferenceable(4) ptr @_ZN6vectorIjLb0EjE4backEv(ptr noundef nonnull align 8 dereferenceable(8) %m_objectives_term_trail_lim)
  %2 = load i32, ptr %call3, align 4
  store i32 %2, ptr %k, align 4
  br label %while.cond

while.cond:                                       ; preds = %while.body, %entry
  %m_objectives_term_trail = getelementptr inbounds %"class.opt::context::scoped_state", ptr %this1, i32 0, i32 6
  %call4 = call noundef i32 @_ZNK6vectorIjLb0EjE4sizeEv(ptr noundef nonnull align 8 dereferenceable(8) %m_objectives_term_trail)
  %3 = load i32, ptr %k, align 4
  %cmp = icmp ugt i32 %call4, %3
  br i1 %cmp, label %while.body, label %while.end

while.body:                                       ; preds = %while.cond
  %m_objectives_term_trail5 = getelementptr inbounds %"class.opt::context::scoped_state", ptr %this1, i32 0, i32 6
  %call6 = call noundef nonnull align 4 dereferenceable(4) ptr @_ZN6vectorIjLb0EjE4backEv(ptr noundef nonnull align 8 dereferenceable(8) %m_objectives_term_trail5)
  %4 = load i32, ptr %call6, align 4
  store i32 %4, ptr %idx, align 4
  %m_objectives = getelementptr inbounds %"class.opt::context::scoped_state", ptr %this1, i32 0, i32 11
  %5 = load i32, ptr %idx, align 4
  %call7 = call noundef nonnull align 8 dereferenceable(100) ptr @_ZN6vectorIN3opt7context9objectiveELb1EjEixEj(ptr noundef nonnull align 8 dereferenceable(8) %m_objectives, i32 noundef %5)
  %m_terms = getelementptr inbounds %"struct.opt::context::objective", ptr %call7, i32 0, i32 3
  call void @_ZN15ref_vector_coreI4expr19ref_manager_wrapperIS0_11ast_managerEE8pop_backEv(ptr noundef nonnull align 8 dereferenceable(16) %m_terms)
  %m_objectives8 = getelementptr inbounds %"class.opt::context::scoped_state", ptr %this1, i32 0, i32 11
  %6 = load i32, ptr %idx, align 4
  %call9 = call noundef nonnull align 8 dereferenceable(100) ptr @_ZN6vectorIN3opt7context9objectiveELb1EjEixEj(ptr noundef nonnull align 8 dereferenceable(8) %m_objectives8, i32 noundef %6)
  %m_weights = getelementptr inbounds %"struct.opt::context::objective", ptr %call9, i32 0, i32 4
  call void @_ZN6vectorI8rationalLb1EjE8pop_backEv(ptr noundef nonnull align 8 dereferenceable(8) %m_weights)
  %m_objectives_term_trail10 = getelementptr inbounds %"class.opt::context::scoped_state", ptr %this1, i32 0, i32 6
  call void @_ZN6vectorIjLb0EjE8pop_backEv(ptr noundef nonnull align 8 dereferenceable(8) %m_objectives_term_trail10)
  br label %while.cond, !llvm.loop !4

while.end:                                        ; preds = %while.cond
  %m_objectives_term_trail_lim11 = getelementptr inbounds %"class.opt::context::scoped_state", ptr %this1, i32 0, i32 7
  call void @_ZN6vectorIjLb0EjE8pop_backEv(ptr noundef nonnull align 8 dereferenceable(8) %m_objectives_term_trail_lim11)
  %m_objectives_lim = getelementptr inbounds %"class.opt::context::scoped_state", ptr %this1, i32 0, i32 5
  %call12 = call noundef nonnull align 4 dereferenceable(4) ptr @_ZN6vectorIjLb0EjE4backEv(ptr noundef nonnull align 8 dereferenceable(8) %m_objectives_lim)
  %7 = load i32, ptr %call12, align 4
  store i32 %7, ptr %k, align 4
  br label %while.cond13

while.cond13:                                     ; preds = %if.end, %while.end
  %m_objectives14 = getelementptr inbounds %"class.opt::context::scoped_state", ptr %this1, i32 0, i32 11
  %call15 = call noundef i32 @_ZNK6vectorIN3opt7context9objectiveELb1EjE4sizeEv(ptr noundef nonnull align 8 dereferenceable(8) %m_objectives14)
  %8 = load i32, ptr %k, align 4
  %cmp16 = icmp ugt i32 %call15, %8
  br i1 %cmp16, label %while.body17, label %while.end22

while.body17:                                     ; preds = %while.cond13
  %m_objectives18 = getelementptr inbounds %"class.opt::context::scoped_state", ptr %this1, i32 0, i32 11
  %call19 = call noundef nonnull align 8 dereferenceable(100) ptr @_ZN6vectorIN3opt7context9objectiveELb1EjE4backEv(ptr noundef nonnull align 8 dereferenceable(8) %m_objectives18)
  store ptr %call19, ptr %obj, align 8
  %9 = load ptr, ptr %obj, align 8
  %m_type = getelementptr inbounds %"struct.opt::context::objective", ptr %9, i32 0, i32 0
  %10 = load i32, ptr %m_type, align 8
  %cmp20 = icmp eq i32 %10, 2
  br i1 %cmp20, label %if.then, label %if.end

if.then:                                          ; preds = %while.body17
  %m_indices = getelementptr inbounds %"class.opt::context::scoped_state", ptr %this1, i32 0, i32 8
  %11 = load ptr, ptr %obj, align 8
  %m_id = getelementptr inbounds %"struct.opt::context::objective", ptr %11, i32 0, i32 6
  call void @_ZN9table2mapI17default_map_entryI6symboljE16symbol_hash_proc14symbol_eq_procE5eraseERKS1_(ptr noundef nonnull align 8 dereferenceable(24) %m_indices, ptr noundef nonnull align 8 dereferenceable(8) %m_id)
  br label %if.end

if.end:                                           ; preds = %if.then, %while.body17
  %m_objectives21 = getelementptr inbounds %"class.opt::context::scoped_state", ptr %this1, i32 0, i32 11
  call void @_ZN6vectorIN3opt7context9objectiveELb1EjE8pop_backEv(ptr noundef nonnull align 8 dereferenceable(8) %m_objectives21)
  br label %while.cond13, !llvm.loop !6

while.end22:                                      ; preds = %while.cond13
  %m_objectives_lim23 = getelementptr inbounds %"class.opt::context::scoped_state", ptr %this1, i32 0, i32 5
  call void @_ZN6vectorIjLb0EjE8pop_backEv(ptr noundef nonnull align 8 dereferenceable(8) %m_objectives_lim23)
  %m_hard_lim24 = getelementptr inbounds %"class.opt::context::scoped_state", ptr %this1, i32 0, i32 3
  call void @_ZN6vectorIjLb0EjE8pop_backEv(ptr noundef nonnull align 8 dereferenceable(8) %m_hard_lim24)
  %m_asms_lim25 = getelementptr inbounds %"class.opt::context::scoped_state", ptr %this1, i32 0, i32 4
  call void @_ZN6vectorIjLb0EjE8pop_backEv(ptr noundef nonnull align 8 dereferenceable(8) %m_asms_lim25)
  ret void
}

; Function Attrs: mustprogress uwtable
define linkonce_odr hidden void @_ZN15ref_vector_coreI4expr19ref_manager_wrapperIS0_11ast_managerEE6resizeEj(ptr noundef nonnull align 8 dereferenceable(16) %this, i32 noundef %sz) #5 comdat align 2 {
entry:
  %this.addr = alloca ptr, align 8
  %sz.addr = alloca i32, align 4
  store ptr %this, ptr %this.addr, align 8
  store i32 %sz, ptr %sz.addr, align 4
  %this1 = load ptr, ptr %this.addr, align 8
  %0 = load i32, ptr %sz.addr, align 4
  %m_nodes = getelementptr inbounds %class.ref_vector_core, ptr %this1, i32 0, i32 1
  %call = call noundef i32 @_ZNK6vectorIP4exprLb0EjE4sizeEv(ptr noundef nonnull align 8 dereferenceable(8) %m_nodes)
  %cmp = icmp ult i32 %0, %call
  br i1 %cmp, label %if.then, label %if.end

if.then:                                          ; preds = %entry
  %m_nodes2 = getelementptr inbounds %class.ref_vector_core, ptr %this1, i32 0, i32 1
  %call3 = call noundef ptr @_ZNK6vectorIP4exprLb0EjE4dataEv(ptr noundef nonnull align 8 dereferenceable(8) %m_nodes2)
  %1 = load i32, ptr %sz.addr, align 4
  %idx.ext = zext i32 %1 to i64
  %add.ptr = getelementptr inbounds ptr, ptr %call3, i64 %idx.ext
  %m_nodes4 = getelementptr inbounds %class.ref_vector_core, ptr %this1, i32 0, i32 1
  %call5 = call noundef ptr @_ZNK6vectorIP4exprLb0EjE4dataEv(ptr noundef nonnull align 8 dereferenceable(8) %m_nodes4)
  %m_nodes6 = getelementptr inbounds %class.ref_vector_core, ptr %this1, i32 0, i32 1
  %call7 = call noundef i32 @_ZNK6vectorIP4exprLb0EjE4sizeEv(ptr noundef nonnull align 8 dereferenceable(8) %m_nodes6)
  %idx.ext8 = zext i32 %call7 to i64
  %add.ptr9 = getelementptr inbounds ptr, ptr %call5, i64 %idx.ext8
  call void @_ZN15ref_vector_coreI4expr19ref_manager_wrapperIS0_11ast_managerEE13dec_range_refEPKPS0_S7_(ptr noundef nonnull align 8 dereferenceable(16) %this1, ptr noundef %add.ptr, ptr noundef %add.ptr9)
  br label %if.end

if.end:                                           ; preds = %if.then, %entry
  %m_nodes10 = getelementptr inbounds %class.ref_vector_core, ptr %this1, i32 0, i32 1
  %2 = load i32, ptr %sz.addr, align 4
  call void @_ZN6vectorIP4exprLb0EjE6resizeEj(ptr noundef nonnull align 8 dereferenceable(8) %m_nodes10, i32 noundef %2)
  ret void
}

; Function Attrs: mustprogress uwtable
define linkonce_odr hidden noundef nonnull align 4 dereferenceable(4) ptr @_ZN6vectorIjLb0EjE4backEv(ptr noundef nonnull align 8 dereferenceable(8) %this) #5 comdat align 2 {
entry:
  %this.addr = alloca ptr, align 8
  store ptr %this, ptr %this.addr, align 8
  %this1 = load ptr, ptr %this.addr, align 8
  %call = call noundef i32 @_ZNK6vectorIjLb0EjE4sizeEv(ptr noundef nonnull align 8 dereferenceable(8) %this1)
  %sub = sub i32 %call, 1
  %call2 = call noundef nonnull align 4 dereferenceable(4) ptr @_ZN6vectorIjLb0EjEixEj(ptr noundef nonnull align 8 dereferenceable(8) %this1, i32 noundef %sub)
  ret ptr %call2
}

; Function Attrs: mustprogress nounwind uwtable
define linkonce_odr hidden noundef nonnull align 8 dereferenceable(100) ptr @_ZN6vectorIN3opt7context9objectiveELb1EjEixEj(ptr noundef nonnull align 8 dereferenceable(8) %this, i32 noundef %idx) #4 comdat align 2 {
entry:
  %this.addr = alloca ptr, align 8
  %idx.addr = alloca i32, align 4
  store ptr %this, ptr %this.addr, align 8
  store i32 %idx, ptr %idx.addr, align 4
  %this1 = load ptr, ptr %this.addr, align 8
  %m_data = getelementptr inbounds %class.vector.1, ptr %this1, i32 0, i32 0
  %0 = load ptr, ptr %m_data, align 8
  %1 = load i32, ptr %idx.addr, align 4
  %idxprom = zext i32 %1 to i64
  %arrayidx = getelementptr inbounds %"struct.opt::context::objective", ptr %0, i64 %idxprom
  ret ptr %arrayidx
}

; Function Attrs: mustprogress uwtable
define linkonce_odr hidden void @_ZN15ref_vector_coreI4expr19ref_manager_wrapperIS0_11ast_managerEE8pop_backEv(ptr noundef nonnull align 8 dereferenceable(16) %this) #5 comdat align 2 {
entry:
  %this.addr = alloca ptr, align 8
  %n = alloca ptr, align 8
  store ptr %this, ptr %this.addr, align 8
  %this1 = load ptr, ptr %this.addr, align 8
  %m_nodes = getelementptr inbounds %class.ref_vector_core, ptr %this1, i32 0, i32 1
  %call = call noundef nonnull align 8 dereferenceable(8) ptr @_ZN6vectorIP4exprLb0EjE4backEv(ptr noundef nonnull align 8 dereferenceable(8) %m_nodes)
  %0 = load ptr, ptr %call, align 8
  store ptr %0, ptr %n, align 8
  %m_nodes2 = getelementptr inbounds %class.ref_vector_core, ptr %this1, i32 0, i32 1
  call void @_ZN6vectorIP4exprLb0EjE8pop_backEv(ptr noundef nonnull align 8 dereferenceable(8) %m_nodes2)
  %1 = load ptr, ptr %n, align 8
  call void @_ZN15ref_vector_coreI4expr19ref_manager_wrapperIS0_11ast_managerEE7dec_refEPS0_(ptr noundef nonnull align 8 dereferenceable(16) %this1, ptr noundef %1)
  ret void
}

; Function Attrs: mustprogress uwtable
define linkonce_odr hidden void @_ZN6vectorI8rationalLb1EjE8pop_backEv(ptr noundef nonnull align 8 dereferenceable(8) %this) #5 comdat align 2 {
entry:
  %this.addr = alloca ptr, align 8
  store ptr %this, ptr %this.addr, align 8
  %this1 = load ptr, ptr %this.addr, align 8
  %call = call noundef nonnull align 8 dereferenceable(32) ptr @_ZN6vectorI8rationalLb1EjE4backEv(ptr noundef nonnull align 8 dereferenceable(8) %this1)
  call void @_ZN8rationalD2Ev(ptr noundef nonnull align 8 dereferenceable(32) %call) #3
  %m_data = getelementptr inbounds %class.vector.2, ptr %this1, i32 0, i32 0
  %0 = load ptr, ptr %m_data, align 8
  %arrayidx = getelementptr inbounds i32, ptr %0, i64 -1
  %1 = load i32, ptr %arrayidx, align 4
  %dec = add i32 %1, -1
  store i32 %dec, ptr %arrayidx, align 4
  ret void
}

; Function Attrs: mustprogress nounwind uwtable
define linkonce_odr hidden void @_ZN6vectorIjLb0EjE8pop_backEv(ptr noundef nonnull align 8 dereferenceable(8) %this) #4 comdat align 2 {
entry:
  %this.addr = alloca ptr, align 8
  store ptr %this, ptr %this.addr, align 8
  %this1 = load ptr, ptr %this.addr, align 8
  %m_data = getelementptr inbounds %class.vector, ptr %this1, i32 0, i32 0
  %0 = load ptr, ptr %m_data, align 8
  %arrayidx = getelementptr inbounds i32, ptr %0, i64 -1
  %1 = load i32, ptr %arrayidx, align 4
  %dec = add i32 %1, -1
  store i32 %dec, ptr %arrayidx, align 4
  ret void
}

; Function Attrs: mustprogress nounwind uwtable
define linkonce_odr hidden noundef nonnull align 8 dereferenceable(100) ptr @_ZN6vectorIN3opt7context9objectiveELb1EjE4backEv(ptr noundef nonnull align 8 dereferenceable(8) %this) #4 comdat align 2 {
entry:
  %this.addr = alloca ptr, align 8
  store ptr %this, ptr %this.addr, align 8
  %this1 = load ptr, ptr %this.addr, align 8
  %call = call noundef i32 @_ZNK6vectorIN3opt7context9objectiveELb1EjE4sizeEv(ptr noundef nonnull align 8 dereferenceable(8) %this1)
  %sub = sub i32 %call, 1
  %call2 = call noundef nonnull align 8 dereferenceable(100) ptr @_ZN6vectorIN3opt7context9objectiveELb1EjEixEj(ptr noundef nonnull align 8 dereferenceable(8) %this1, i32 noundef %sub)
  ret ptr %call2
}

; Function Attrs: mustprogress uwtable
define linkonce_odr hidden void @_ZN9table2mapI17default_map_entryI6symboljE16symbol_hash_proc14symbol_eq_procE5eraseERKS1_(ptr noundef nonnull align 8 dereferenceable(24) %this, ptr noundef nonnull align 8 dereferenceable(8) %k) #5 comdat align 2 {
entry:
  %this.addr = alloca ptr, align 8
  %k.addr = alloca ptr, align 8
  store ptr %this, ptr %this.addr, align 8
  store ptr %k, ptr %k.addr, align 8
  %this1 = load ptr, ptr %this.addr, align 8
  %0 = load ptr, ptr %k.addr, align 8
  call void @_ZN9table2mapI17default_map_entryI6symboljE16symbol_hash_proc14symbol_eq_procE6removeERKS1_(ptr noundef nonnull align 8 dereferenceable(24) %this1, ptr noundef nonnull align 8 dereferenceable(8) %0)
  ret void
}

; Function Attrs: mustprogress nounwind uwtable
define linkonce_odr hidden void @_ZN6vectorIN3opt7context9objectiveELb1EjE8pop_backEv(ptr noundef nonnull align 8 dereferenceable(8) %this) #4 comdat align 2 {
entry:
  %this.addr = alloca ptr, align 8
  store ptr %this, ptr %this.addr, align 8
  %this1 = load ptr, ptr %this.addr, align 8
  %call = call noundef nonnull align 8 dereferenceable(100) ptr @_ZN6vectorIN3opt7context9objectiveELb1EjE4backEv(ptr noundef nonnull align 8 dereferenceable(8) %this1)
  call void @_ZN3opt7context9objectiveD2Ev(ptr noundef nonnull align 8 dereferenceable(100) %call) #3
  %m_data = getelementptr inbounds %class.vector.1, ptr %this1, i32 0, i32 0
  %0 = load ptr, ptr %m_data, align 8
  %arrayidx = getelementptr inbounds i32, ptr %0, i64 -1
  %1 = load i32, ptr %arrayidx, align 4
  %dec = add i32 %1, -1
  store i32 %dec, ptr %arrayidx, align 4
  ret void
}

; Function Attrs: mustprogress uwtable
define hidden void @_ZN3opt7context12scoped_state3addEP4expr(ptr noundef nonnull align 8 dereferenceable(152) %this, ptr noundef %hard) #5 align 2 {
entry:
  %this.addr = alloca ptr, align 8
  %hard.addr = alloca ptr, align 8
  store ptr %this, ptr %this.addr, align 8
  store ptr %hard, ptr %hard.addr, align 8
  %this1 = load ptr, ptr %this.addr, align 8
  %m_hard = getelementptr inbounds %"class.opt::context::scoped_state", ptr %this1, i32 0, i32 9
  %0 = load ptr, ptr %hard.addr, align 8
  %call = call noundef nonnull align 8 dereferenceable(16) ptr @_ZN15ref_vector_coreI4expr19ref_manager_wrapperIS0_11ast_managerEE9push_backEPS0_(ptr noundef nonnull align 8 dereferenceable(16) %m_hard, ptr noundef %0)
  ret void
}

; Function Attrs: mustprogress uwtable
define linkonce_odr hidden noundef nonnull align 8 dereferenceable(16) ptr @_ZN15ref_vector_coreI4expr19ref_manager_wrapperIS0_11ast_managerEE9push_backEPS0_(ptr noundef nonnull align 8 dereferenceable(16) %this, ptr noundef %n) #5 comdat align 2 {
entry:
  %this.addr = alloca ptr, align 8
  %n.addr = alloca ptr, align 8
  store ptr %this, ptr %this.addr, align 8
  store ptr %n, ptr %n.addr, align 8
  %this1 = load ptr, ptr %this.addr, align 8
  %0 = load ptr, ptr %n.addr, align 8
  call void @_ZN15ref_vector_coreI4expr19ref_manager_wrapperIS0_11ast_managerEE7inc_refEPS0_(ptr noundef nonnull align 8 dereferenceable(16) %this1, ptr noundef %0)
  %m_nodes = getelementptr inbounds %class.ref_vector_core, ptr %this1, i32 0, i32 1
  %call = call noundef nonnull align 8 dereferenceable(8) ptr @_ZN6vectorIP4exprLb0EjE9push_backERKS1_(ptr noundef nonnull align 8 dereferenceable(8) %m_nodes, ptr noundef nonnull align 8 dereferenceable(8) %n.addr)
  ret ptr %this1
}

; Function Attrs: mustprogress uwtable
define hidden noundef zeroext i1 @_ZN3opt7context12scoped_state3setERK10ref_vectorI4expr11ast_managerE(ptr noundef nonnull align 8 dereferenceable(152) %this, ptr noundef nonnull align 8 dereferenceable(16) %hard) #5 align 2 {
entry:
  %this.addr = alloca ptr, align 8
  %hard.addr = alloca ptr, align 8
  %eq = alloca i8, align 1
  %i = alloca i32, align 4
  store ptr %this, ptr %this.addr, align 8
  store ptr %hard, ptr %hard.addr, align 8
  %this1 = load ptr, ptr %this.addr, align 8
  %0 = load ptr, ptr %hard.addr, align 8
  %call = call noundef i32 @_ZNK15ref_vector_coreI4expr19ref_manager_wrapperIS0_11ast_managerEE4sizeEv(ptr noundef nonnull align 8 dereferenceable(16) %0)
  %m_hard = getelementptr inbounds %"class.opt::context::scoped_state", ptr %this1, i32 0, i32 9
  %call2 = call noundef i32 @_ZNK15ref_vector_coreI4expr19ref_manager_wrapperIS0_11ast_managerEE4sizeEv(ptr noundef nonnull align 8 dereferenceable(16) %m_hard)
  %cmp = icmp eq i32 %call, %call2
  %frombool = zext i1 %cmp to i8
  store i8 %frombool, ptr %eq, align 1
  store i32 0, ptr %i, align 4
  br label %for.cond

for.cond:                                         ; preds = %for.inc, %entry
  %1 = load i8, ptr %eq, align 1
  %tobool = trunc i8 %1 to i1
  br i1 %tobool, label %land.rhs, label %land.end

land.rhs:                                         ; preds = %for.cond
  %2 = load i32, ptr %i, align 4
  %3 = load ptr, ptr %hard.addr, align 8
  %call3 = call noundef i32 @_ZNK15ref_vector_coreI4expr19ref_manager_wrapperIS0_11ast_managerEE4sizeEv(ptr noundef nonnull align 8 dereferenceable(16) %3)
  %cmp4 = icmp ult i32 %2, %call3
  br label %land.end

land.end:                                         ; preds = %land.rhs, %for.cond
  %4 = phi i1 [ false, %for.cond ], [ %cmp4, %land.rhs ]
  br i1 %4, label %for.body, label %for.end

for.body:                                         ; preds = %land.end
  %5 = load ptr, ptr %hard.addr, align 8
  %6 = load i32, ptr %i, align 4
  %call5 = call noundef ptr @_ZNK15ref_vector_coreI4expr19ref_manager_wrapperIS0_11ast_managerEE3getEj(ptr noundef nonnull align 8 dereferenceable(16) %5, i32 noundef %6)
  %m_hard6 = getelementptr inbounds %"class.opt::context::scoped_state", ptr %this1, i32 0, i32 9
  %7 = load i32, ptr %i, align 4
  %call7 = call noundef ptr @_ZNK15ref_vector_coreI4expr19ref_manager_wrapperIS0_11ast_managerEE3getEj(ptr noundef nonnull align 8 dereferenceable(16) %m_hard6, i32 noundef %7)
  %cmp8 = icmp eq ptr %call5, %call7
  %frombool9 = zext i1 %cmp8 to i8
  store i8 %frombool9, ptr %eq, align 1
  br label %for.inc

for.inc:                                          ; preds = %for.body
  %8 = load i32, ptr %i, align 4
  %inc = add i32 %8, 1
  store i32 %inc, ptr %i, align 4
  br label %for.cond, !llvm.loop !7

for.end:                                          ; preds = %land.end
  %m_hard10 = getelementptr inbounds %"class.opt::context::scoped_state", ptr %this1, i32 0, i32 9
  call void @_ZN15ref_vector_coreI4expr19ref_manager_wrapperIS0_11ast_managerEE5resetEv(ptr noundef nonnull align 8 dereferenceable(16) %m_hard10)
  %m_hard11 = getelementptr inbounds %"class.opt::context::scoped_state", ptr %this1, i32 0, i32 9
  %9 = load ptr, ptr %hard.addr, align 8
  call void @_ZN15ref_vector_coreI4expr19ref_manager_wrapperIS0_11ast_managerEE6appendERKS4_(ptr noundef nonnull align 8 dereferenceable(16) %m_hard11, ptr noundef nonnull align 8 dereferenceable(16) %9)
  %10 = load i8, ptr %eq, align 1
  %tobool12 = trunc i8 %10 to i1
  %lnot = xor i1 %tobool12, true
  ret i1 %lnot
}

; Function Attrs: mustprogress uwtable
define linkonce_odr hidden noundef ptr @_ZNK15ref_vector_coreI4expr19ref_manager_wrapperIS0_11ast_managerEE3getEj(ptr noundef nonnull align 8 dereferenceable(16) %this, i32 noundef %idx) #5 comdat align 2 {
entry:
  %this.addr = alloca ptr, align 8
  %idx.addr = alloca i32, align 4
  store ptr %this, ptr %this.addr, align 8
  store i32 %idx, ptr %idx.addr, align 4
  %this1 = load ptr, ptr %this.addr, align 8
  %m_nodes = getelementptr inbounds %class.ref_vector_core, ptr %this1, i32 0, i32 1
  %0 = load i32, ptr %idx.addr, align 4
  %call = call noundef nonnull align 8 dereferenceable(8) ptr @_ZNK6vectorIP4exprLb0EjEixEj(ptr noundef nonnull align 8 dereferenceable(8) %m_nodes, i32 noundef %0)
  %1 = load ptr, ptr %call, align 8
  ret ptr %1
}

; Function Attrs: mustprogress uwtable
define linkonce_odr hidden void @_ZN15ref_vector_coreI4expr19ref_manager_wrapperIS0_11ast_managerEE5resetEv(ptr noundef nonnull align 8 dereferenceable(16) %this) #5 comdat align 2 {
entry:
  %this.addr = alloca ptr, align 8
  store ptr %this, ptr %this.addr, align 8
  %this1 = load ptr, ptr %this.addr, align 8
  %m_nodes = getelementptr inbounds %class.ref_vector_core, ptr %this1, i32 0, i32 1
  %call = call noundef ptr @_ZNK6vectorIP4exprLb0EjE4dataEv(ptr noundef nonnull align 8 dereferenceable(8) %m_nodes)
  %m_nodes2 = getelementptr inbounds %class.ref_vector_core, ptr %this1, i32 0, i32 1
  %call3 = call noundef ptr @_ZNK6vectorIP4exprLb0EjE4dataEv(ptr noundef nonnull align 8 dereferenceable(8) %m_nodes2)
  %m_nodes4 = getelementptr inbounds %class.ref_vector_core, ptr %this1, i32 0, i32 1
  %call5 = call noundef i32 @_ZNK6vectorIP4exprLb0EjE4sizeEv(ptr noundef nonnull align 8 dereferenceable(8) %m_nodes4)
  %idx.ext = zext i32 %call5 to i64
  %add.ptr = getelementptr inbounds ptr, ptr %call3, i64 %idx.ext
  call void @_ZN15ref_vector_coreI4expr19ref_manager_wrapperIS0_11ast_managerEE13dec_range_refEPKPS0_S7_(ptr noundef nonnull align 8 dereferenceable(16) %this1, ptr noundef %call, ptr noundef %add.ptr)
  %m_nodes6 = getelementptr inbounds %class.ref_vector_core, ptr %this1, i32 0, i32 1
  call void @_ZN6vectorIP4exprLb0EjE5resetEv(ptr noundef nonnull align 8 dereferenceable(8) %m_nodes6)
  ret void
}

; Function Attrs: mustprogress uwtable
define linkonce_odr hidden void @_ZN15ref_vector_coreI4expr19ref_manager_wrapperIS0_11ast_managerEE6appendERKS4_(ptr noundef nonnull align 8 dereferenceable(16) %this, ptr noundef nonnull align 8 dereferenceable(16) %other) #5 comdat align 2 {
entry:
  %this.addr = alloca ptr, align 8
  %other.addr = alloca ptr, align 8
  %i = alloca i32, align 4
  store ptr %this, ptr %this.addr, align 8
  store ptr %other, ptr %other.addr, align 8
  %this1 = load ptr, ptr %this.addr, align 8
  store i32 0, ptr %i, align 4
  br label %for.cond

for.cond:                                         ; preds = %for.inc, %entry
  %0 = load i32, ptr %i, align 4
  %1 = load ptr, ptr %other.addr, align 8
  %call = call noundef i32 @_ZNK15ref_vector_coreI4expr19ref_manager_wrapperIS0_11ast_managerEE4sizeEv(ptr noundef nonnull align 8 dereferenceable(16) %1)
  %cmp = icmp ult i32 %0, %call
  br i1 %cmp, label %for.body, label %for.end

for.body:                                         ; preds = %for.cond
  %2 = load ptr, ptr %other.addr, align 8
  %3 = load i32, ptr %i, align 4
  %call2 = call noundef ptr @_ZNK15ref_vector_coreI4expr19ref_manager_wrapperIS0_11ast_managerEEixEj(ptr noundef nonnull align 8 dereferenceable(16) %2, i32 noundef %3)
  %call3 = call noundef nonnull align 8 dereferenceable(16) ptr @_ZN15ref_vector_coreI4expr19ref_manager_wrapperIS0_11ast_managerEE9push_backEPS0_(ptr noundef nonnull align 8 dereferenceable(16) %this1, ptr noundef %call2)
  br label %for.inc

for.inc:                                          ; preds = %for.body
  %4 = load i32, ptr %i, align 4
  %inc = add i32 %4, 1
  store i32 %inc, ptr %i, align 4
  br label %for.cond, !llvm.loop !8

for.end:                                          ; preds = %for.cond
  ret void
}

; Function Attrs: mustprogress uwtable
define hidden noundef i32 @_ZN3opt7context12scoped_state3addEP4exprRK8rationalRK6symbol(ptr noundef nonnull align 8 dereferenceable(152) %this, ptr noundef %f, ptr noundef nonnull align 8 dereferenceable(32) %w, ptr noundef nonnull align 8 dereferenceable(8) %id) #5 align 2 personality ptr @__gxx_personality_v0 {
entry:
  %this.addr = alloca ptr, align 8
  %f.addr = alloca ptr, align 8
  %w.addr = alloca ptr, align 8
  %id.addr = alloca ptr, align 8
  %ref.tmp = alloca %"class.std::__cxx11::basic_string", align 8
  %ref.tmp2 = alloca %"class.std::allocator", align 1
  %exn.slot = alloca ptr, align 8
  %ehselector.slot = alloca i32, align 4
  %cleanup.isactive = alloca i1, align 1
  %ref.tmp8 = alloca %"struct.opt::context::objective", align 8
  %agg.tmp = alloca %class.symbol, align 8
  %ref.tmp15 = alloca i32, align 4
  %idx = alloca i32, align 4
  store ptr %this, ptr %this.addr, align 8
  store ptr %f, ptr %f.addr, align 8
  store ptr %w, ptr %w.addr, align 8
  store ptr %id, ptr %id.addr, align 8
  %this1 = load ptr, ptr %this.addr, align 8
  %m = getelementptr inbounds %"class.opt::context::scoped_state", ptr %this1, i32 0, i32 0
  %0 = load ptr, ptr %m, align 8
  %1 = load ptr, ptr %f.addr, align 8
  %call = call noundef zeroext i1 @_ZNK11ast_manager7is_boolEPK4expr(ptr noundef nonnull align 8 dereferenceable(976) %0, ptr noundef %1)
  br i1 %call, label %if.end, label %if.then

if.then:                                          ; preds = %entry
  store i1 true, ptr %cleanup.isactive, align 1
  %exception = call ptr @__cxa_allocate_exception(i64 40) #3
  call void @_ZNSaIcEC1Ev(ptr noundef nonnull align 1 dereferenceable(1) %ref.tmp2) #3
  invoke void @_ZNSt7__cxx1112basic_stringIcSt11char_traitsIcESaIcEEC2IS3_EEPKcRKS3_(ptr noundef nonnull align 8 dereferenceable(32) %ref.tmp, ptr noundef @.str, ptr noundef nonnull align 1 dereferenceable(1) %ref.tmp2)
          to label %invoke.cont unwind label %lpad

invoke.cont:                                      ; preds = %if.then
  invoke void @_ZN17default_exceptionC2EONSt7__cxx1112basic_stringIcSt11char_traitsIcESaIcEEE(ptr noundef nonnull align 8 dereferenceable(40) %exception, ptr noundef nonnull align 8 dereferenceable(32) %ref.tmp)
          to label %invoke.cont4 unwind label %lpad3

invoke.cont4:                                     ; preds = %invoke.cont
  store i1 false, ptr %cleanup.isactive, align 1
  invoke void @__cxa_throw(ptr %exception, ptr @_ZTI17default_exception, ptr @_ZN17default_exceptionD2Ev) #16
          to label %unreachable unwind label %lpad3

lpad:                                             ; preds = %if.then
  %2 = landingpad { ptr, i32 }
          cleanup
  %3 = extractvalue { ptr, i32 } %2, 0
  store ptr %3, ptr %exn.slot, align 8
  %4 = extractvalue { ptr, i32 } %2, 1
  store i32 %4, ptr %ehselector.slot, align 4
  br label %ehcleanup

lpad3:                                            ; preds = %invoke.cont4, %invoke.cont
  %5 = landingpad { ptr, i32 }
          cleanup
  %6 = extractvalue { ptr, i32 } %5, 0
  store ptr %6, ptr %exn.slot, align 8
  %7 = extractvalue { ptr, i32 } %5, 1
  store i32 %7, ptr %ehselector.slot, align 4
  call void @_ZNSt7__cxx1112basic_stringIcSt11char_traitsIcESaIcEED1Ev(ptr noundef nonnull align 8 dereferenceable(32) %ref.tmp) #3
  br label %ehcleanup

ehcleanup:                                        ; preds = %lpad3, %lpad
  call void @_ZNSaIcED1Ev(ptr noundef nonnull align 1 dereferenceable(1) %ref.tmp2) #3
  %cleanup.is_active = load i1, ptr %cleanup.isactive, align 1
  br i1 %cleanup.is_active, label %cleanup.action, label %cleanup.done

cleanup.action:                                   ; preds = %ehcleanup
  call void @__cxa_free_exception(ptr %exception) #3
  br label %cleanup.done

cleanup.done:                                     ; preds = %cleanup.action, %ehcleanup
  br label %eh.resume

if.end:                                           ; preds = %entry
  %m_indices = getelementptr inbounds %"class.opt::context::scoped_state", ptr %this1, i32 0, i32 8
  %8 = load ptr, ptr %id.addr, align 8
  %call6 = call noundef zeroext i1 @_ZNK9table2mapI17default_map_entryI6symboljE16symbol_hash_proc14symbol_eq_procE8containsERKS1_(ptr noundef nonnull align 8 dereferenceable(24) %m_indices, ptr noundef nonnull align 8 dereferenceable(8) %8)
  br i1 %call6, label %if.end18, label %if.then7

if.then7:                                         ; preds = %if.end
  %m_objectives = getelementptr inbounds %"class.opt::context::scoped_state", ptr %this1, i32 0, i32 11
  %m9 = getelementptr inbounds %"class.opt::context::scoped_state", ptr %this1, i32 0, i32 0
  %9 = load ptr, ptr %m9, align 8
  %10 = load ptr, ptr %id.addr, align 8
  call void @llvm.memcpy.p0.p0.i64(ptr align 8 %agg.tmp, ptr align 8 %10, i64 8, i1 false)
  %coerce.dive = getelementptr inbounds %class.symbol, ptr %agg.tmp, i32 0, i32 0
  %11 = load ptr, ptr %coerce.dive, align 8
  call void @_ZN3opt7context9objectiveC2ER11ast_manager6symbol(ptr noundef nonnull align 8 dereferenceable(100) %ref.tmp8, ptr noundef nonnull align 8 dereferenceable(976) %9, ptr %11)
  %call12 = invoke noundef nonnull align 8 dereferenceable(8) ptr @_ZN6vectorIN3opt7context9objectiveELb1EjE9push_backEOS2_(ptr noundef nonnull align 8 dereferenceable(8) %m_objectives, ptr noundef nonnull align 8 dereferenceable(100) %ref.tmp8)
          to label %invoke.cont11 unwind label %lpad10

invoke.cont11:                                    ; preds = %if.then7
  call void @_ZN3opt7context9objectiveD2Ev(ptr noundef nonnull align 8 dereferenceable(100) %ref.tmp8) #3
  %m_indices14 = getelementptr inbounds %"class.opt::context::scoped_state", ptr %this1, i32 0, i32 8
  %12 = load ptr, ptr %id.addr, align 8
  %m_objectives16 = getelementptr inbounds %"class.opt::context::scoped_state", ptr %this1, i32 0, i32 11
  %call17 = call noundef i32 @_ZNK6vectorIN3opt7context9objectiveELb1EjE4sizeEv(ptr noundef nonnull align 8 dereferenceable(8) %m_objectives16)
  %sub = sub i32 %call17, 1
  store i32 %sub, ptr %ref.tmp15, align 4
  call void @_ZN9table2mapI17default_map_entryI6symboljE16symbol_hash_proc14symbol_eq_procE6insertERKS1_Oj(ptr noundef nonnull align 8 dereferenceable(24) %m_indices14, ptr noundef nonnull align 8 dereferenceable(8) %12, ptr noundef nonnull align 4 dereferenceable(4) %ref.tmp15)
  br label %if.end18

lpad10:                                           ; preds = %if.then7
  %13 = landingpad { ptr, i32 }
          cleanup
  %14 = extractvalue { ptr, i32 } %13, 0
  store ptr %14, ptr %exn.slot, align 8
  %15 = extractvalue { ptr, i32 } %13, 1
  store i32 %15, ptr %ehselector.slot, align 4
  call void @_ZN3opt7context9objectiveD2Ev(ptr noundef nonnull align 8 dereferenceable(100) %ref.tmp8) #3
  br label %eh.resume

if.end18:                                         ; preds = %invoke.cont11, %if.end
  %m_indices19 = getelementptr inbounds %"class.opt::context::scoped_state", ptr %this1, i32 0, i32 8
  %16 = load ptr, ptr %id.addr, align 8
  %call20 = call noundef nonnull align 4 dereferenceable(4) ptr @_ZN9table2mapI17default_map_entryI6symboljE16symbol_hash_proc14symbol_eq_procEixERKS1_(ptr noundef nonnull align 8 dereferenceable(24) %m_indices19, ptr noundef nonnull align 8 dereferenceable(8) %16)
  %17 = load i32, ptr %call20, align 4
  store i32 %17, ptr %idx, align 4
  %18 = load ptr, ptr %w.addr, align 8
  %call21 = call noundef zeroext i1 @_ZNK8rational7is_zeroEv(ptr noundef nonnull align 8 dereferenceable(32) %18)
  br i1 %call21, label %if.end30, label %if.then22

if.then22:                                        ; preds = %if.end18
  %m_objectives23 = getelementptr inbounds %"class.opt::context::scoped_state", ptr %this1, i32 0, i32 11
  %19 = load i32, ptr %idx, align 4
  %call24 = call noundef nonnull align 8 dereferenceable(100) ptr @_ZN6vectorIN3opt7context9objectiveELb1EjEixEj(ptr noundef nonnull align 8 dereferenceable(8) %m_objectives23, i32 noundef %19)
  %m_terms = getelementptr inbounds %"struct.opt::context::objective", ptr %call24, i32 0, i32 3
  %20 = load ptr, ptr %f.addr, align 8
  %call25 = call noundef nonnull align 8 dereferenceable(16) ptr @_ZN15ref_vector_coreI4expr19ref_manager_wrapperIS0_11ast_managerEE9push_backEPS0_(ptr noundef nonnull align 8 dereferenceable(16) %m_terms, ptr noundef %20)
  %m_objectives26 = getelementptr inbounds %"class.opt::context::scoped_state", ptr %this1, i32 0, i32 11
  %21 = load i32, ptr %idx, align 4
  %call27 = call noundef nonnull align 8 dereferenceable(100) ptr @_ZN6vectorIN3opt7context9objectiveELb1EjEixEj(ptr noundef nonnull align 8 dereferenceable(8) %m_objectives26, i32 noundef %21)
  %m_weights = getelementptr inbounds %"struct.opt::context::objective", ptr %call27, i32 0, i32 4
  %22 = load ptr, ptr %w.addr, align 8
  %call28 = call noundef nonnull align 8 dereferenceable(8) ptr @_ZN6vectorI8rationalLb1EjE9push_backERKS0_(ptr noundef nonnull align 8 dereferenceable(8) %m_weights, ptr noundef nonnull align 8 dereferenceable(32) %22)
  %m_objectives_term_trail = getelementptr inbounds %"class.opt::context::scoped_state", ptr %this1, i32 0, i32 6
  %call29 = call noundef nonnull align 8 dereferenceable(8) ptr @_ZN6vectorIjLb0EjE9push_backERKj(ptr noundef nonnull align 8 dereferenceable(8) %m_objectives_term_trail, ptr noundef nonnull align 4 dereferenceable(4) %idx)
  br label %if.end30

if.end30:                                         ; preds = %if.then22, %if.end18
  %23 = load i32, ptr %idx, align 4
  ret i32 %23

eh.resume:                                        ; preds = %lpad10, %cleanup.done
  %exn = load ptr, ptr %exn.slot, align 8
  %sel = load i32, ptr %ehselector.slot, align 4
  %lpad.val = insertvalue { ptr, i32 } poison, ptr %exn, 0
  %lpad.val31 = insertvalue { ptr, i32 } %lpad.val, i32 %sel, 1
  resume { ptr, i32 } %lpad.val31

unreachable:                                      ; preds = %invoke.cont4
  unreachable
}

declare noundef zeroext i1 @_ZNK11ast_manager7is_boolEPK4expr(ptr noundef nonnull align 8 dereferenceable(976), ptr noundef) #1

declare ptr @__cxa_allocate_exception(i64)

; Function Attrs: nounwind
declare void @_ZNSaIcEC1Ev(ptr noundef nonnull align 1 dereferenceable(1)) unnamed_addr #2

; Function Attrs: mustprogress uwtable
define linkonce_odr hidden void @_ZNSt7__cxx1112basic_stringIcSt11char_traitsIcESaIcEEC2IS3_EEPKcRKS3_(ptr noundef nonnull align 8 dereferenceable(32) %this, ptr noundef %__s, ptr noundef nonnull align 1 dereferenceable(1) %__a) unnamed_addr #5 comdat align 2 personality ptr @__gxx_personality_v0 {
entry:
  %this.addr = alloca ptr, align 8
  %__s.addr = alloca ptr, align 8
  %__a.addr = alloca ptr, align 8
  %exn.slot = alloca ptr, align 8
  %ehselector.slot = alloca i32, align 4
  %__end = alloca ptr, align 8
  store ptr %this, ptr %this.addr, align 8
  store ptr %__s, ptr %__s.addr, align 8
  store ptr %__a, ptr %__a.addr, align 8
  %this1 = load ptr, ptr %this.addr, align 8
  %_M_dataplus = getelementptr inbounds %"class.std::__cxx11::basic_string", ptr %this1, i32 0, i32 0
  %call = call noundef ptr @_ZNSt7__cxx1112basic_stringIcSt11char_traitsIcESaIcEE13_M_local_dataEv(ptr noundef nonnull align 8 dereferenceable(32) %this1)
  %0 = load ptr, ptr %__a.addr, align 8
  call void @_ZNSt7__cxx1112basic_stringIcSt11char_traitsIcESaIcEE12_Alloc_hiderC1EPcRKS3_(ptr noundef nonnull align 8 dereferenceable(8) %_M_dataplus, ptr noundef %call, ptr noundef nonnull align 1 dereferenceable(1) %0)
  %1 = load ptr, ptr %__s.addr, align 8
  %cmp = icmp eq ptr %1, null
  br i1 %cmp, label %if.then, label %if.end

if.then:                                          ; preds = %entry
  invoke void @_ZSt19__throw_logic_errorPKc(ptr noundef @.str.147) #16
          to label %invoke.cont unwind label %lpad

invoke.cont:                                      ; preds = %if.then
  unreachable

lpad:                                             ; preds = %invoke.cont2, %if.end, %if.then
  %2 = landingpad { ptr, i32 }
          cleanup
  %3 = extractvalue { ptr, i32 } %2, 0
  store ptr %3, ptr %exn.slot, align 8
  %4 = extractvalue { ptr, i32 } %2, 1
  store i32 %4, ptr %ehselector.slot, align 4
  call void @_ZNSt7__cxx1112basic_stringIcSt11char_traitsIcESaIcEE12_Alloc_hiderD2Ev(ptr noundef nonnull align 8 dereferenceable(8) %_M_dataplus) #3
  br label %eh.resume

if.end:                                           ; preds = %entry
  %5 = load ptr, ptr %__s.addr, align 8
  %6 = load ptr, ptr %__s.addr, align 8
  %call3 = invoke noundef i64 @_ZNSt11char_traitsIcE6lengthEPKc(ptr noundef %6)
          to label %invoke.cont2 unwind label %lpad

invoke.cont2:                                     ; preds = %if.end
  %add.ptr = getelementptr inbounds i8, ptr %5, i64 %call3
  store ptr %add.ptr, ptr %__end, align 8
  %7 = load ptr, ptr %__s.addr, align 8
  %8 = load ptr, ptr %__end, align 8
  invoke void @_ZNSt7__cxx1112basic_stringIcSt11char_traitsIcESaIcEE12_M_constructIPKcEEvT_S8_St20forward_iterator_tag(ptr noundef nonnull align 8 dereferenceable(32) %this1, ptr noundef %7, ptr noundef %8)
          to label %invoke.cont4 unwind label %lpad

invoke.cont4:                                     ; preds = %invoke.cont2
  ret void

eh.resume:                                        ; preds = %lpad
  %exn = load ptr, ptr %exn.slot, align 8
  %sel = load i32, ptr %ehselector.slot, align 4
  %lpad.val = insertvalue { ptr, i32 } poison, ptr %exn, 0
  %lpad.val5 = insertvalue { ptr, i32 } %lpad.val, i32 %sel, 1
  resume { ptr, i32 } %lpad.val5
}

declare i32 @__gxx_personality_v0(...)

; Function Attrs: mustprogress nounwind uwtable
define linkonce_odr hidden void @_ZN17default_exceptionC2EONSt7__cxx1112basic_stringIcSt11char_traitsIcESaIcEEE(ptr noundef nonnull align 8 dereferenceable(40) %this, ptr noundef nonnull align 8 dereferenceable(32) %msg) unnamed_addr #4 comdat align 2 {
entry:
  %this.addr = alloca ptr, align 8
  %msg.addr = alloca ptr, align 8
  store ptr %this, ptr %this.addr, align 8
  store ptr %msg, ptr %msg.addr, align 8
  %this1 = load ptr, ptr %this.addr, align 8
  call void @_ZN12z3_exceptionC2Ev(ptr noundef nonnull align 8 dereferenceable(8) %this1) #3
  store ptr getelementptr inbounds ({ [6 x ptr] }, ptr @_ZTV17default_exception, i32 0, inrange i32 0, i32 2), ptr %this1, align 8
  %m_msg = getelementptr inbounds %class.default_exception, ptr %this1, i32 0, i32 1
  %0 = load ptr, ptr %msg.addr, align 8
  call void @_ZNSt7__cxx1112basic_stringIcSt11char_traitsIcESaIcEEC1EOS4_(ptr noundef nonnull align 8 dereferenceable(32) %m_msg, ptr noundef nonnull align 8 dereferenceable(32) %0) #3
  ret void
}

; Function Attrs: mustprogress nounwind uwtable
define linkonce_odr hidden void @_ZN17default_exceptionD2Ev(ptr noundef nonnull align 8 dereferenceable(40) %this) unnamed_addr #4 comdat align 2 {
entry:
  %this.addr = alloca ptr, align 8
  store ptr %this, ptr %this.addr, align 8
  %this1 = load ptr, ptr %this.addr, align 8
  store ptr getelementptr inbounds ({ [6 x ptr] }, ptr @_ZTV17default_exception, i32 0, inrange i32 0, i32 2), ptr %this1, align 8
  %m_msg = getelementptr inbounds %class.default_exception, ptr %this1, i32 0, i32 1
  call void @_ZNSt7__cxx1112basic_stringIcSt11char_traitsIcESaIcEED1Ev(ptr noundef nonnull align 8 dereferenceable(32) %m_msg) #3
  call void @_ZN12z3_exceptionD2Ev(ptr noundef nonnull align 8 dereferenceable(8) %this1) #3
  ret void
}

declare void @__cxa_throw(ptr, ptr, ptr)

; Function Attrs: nounwind
declare void @_ZNSt7__cxx1112basic_stringIcSt11char_traitsIcESaIcEED1Ev(ptr noundef nonnull align 8 dereferenceable(32)) unnamed_addr #2

; Function Attrs: nounwind
declare void @_ZNSaIcED1Ev(ptr noundef nonnull align 1 dereferenceable(1)) unnamed_addr #2

declare void @__cxa_free_exception(ptr)

; Function Attrs: mustprogress uwtable
define linkonce_odr hidden noundef zeroext i1 @_ZNK9table2mapI17default_map_entryI6symboljE16symbol_hash_proc14symbol_eq_procE8containsERKS1_(ptr noundef nonnull align 8 dereferenceable(24) %this, ptr noundef nonnull align 8 dereferenceable(8) %k) #5 comdat align 2 {
entry:
  %this.addr = alloca ptr, align 8
  %k.addr = alloca ptr, align 8
  store ptr %this, ptr %this.addr, align 8
  store ptr %k, ptr %k.addr, align 8
  %this1 = load ptr, ptr %this.addr, align 8
  %0 = load ptr, ptr %k.addr, align 8
  %call = call noundef ptr @_ZNK9table2mapI17default_map_entryI6symboljE16symbol_hash_proc14symbol_eq_procE9find_coreERKS1_(ptr noundef nonnull align 8 dereferenceable(24) %this1, ptr noundef nonnull align 8 dereferenceable(8) %0)
  %cmp = icmp ne ptr %call, null
  ret i1 %cmp
}

; Function Attrs: mustprogress uwtable
define linkonce_odr hidden noundef nonnull align 8 dereferenceable(8) ptr @_ZN6vectorIN3opt7context9objectiveELb1EjE9push_backEOS2_(ptr noundef nonnull align 8 dereferenceable(8) %this, ptr noundef nonnull align 8 dereferenceable(100) %elem) #5 comdat align 2 {
entry:
  %this.addr = alloca ptr, align 8
  %elem.addr = alloca ptr, align 8
  store ptr %this, ptr %this.addr, align 8
  store ptr %elem, ptr %elem.addr, align 8
  %this1 = load ptr, ptr %this.addr, align 8
  %m_data = getelementptr inbounds %class.vector.1, ptr %this1, i32 0, i32 0
  %0 = load ptr, ptr %m_data, align 8
  %cmp = icmp eq ptr %0, null
  br i1 %cmp, label %if.then, label %lor.lhs.false

lor.lhs.false:                                    ; preds = %entry
  %m_data2 = getelementptr inbounds %class.vector.1, ptr %this1, i32 0, i32 0
  %1 = load ptr, ptr %m_data2, align 8
  %arrayidx = getelementptr inbounds i32, ptr %1, i64 -1
  %2 = load i32, ptr %arrayidx, align 4
  %m_data3 = getelementptr inbounds %class.vector.1, ptr %this1, i32 0, i32 0
  %3 = load ptr, ptr %m_data3, align 8
  %arrayidx4 = getelementptr inbounds i32, ptr %3, i64 -2
  %4 = load i32, ptr %arrayidx4, align 4
  %cmp5 = icmp eq i32 %2, %4
  br i1 %cmp5, label %if.then, label %if.end

if.then:                                          ; preds = %lor.lhs.false, %entry
  call void @_ZN6vectorIN3opt7context9objectiveELb1EjE13expand_vectorEv(ptr noundef nonnull align 8 dereferenceable(8) %this1)
  br label %if.end

if.end:                                           ; preds = %if.then, %lor.lhs.false
  %m_data6 = getelementptr inbounds %class.vector.1, ptr %this1, i32 0, i32 0
  %5 = load ptr, ptr %m_data6, align 8
  %m_data7 = getelementptr inbounds %class.vector.1, ptr %this1, i32 0, i32 0
  %6 = load ptr, ptr %m_data7, align 8
  %arrayidx8 = getelementptr inbounds i32, ptr %6, i64 -1
  %7 = load i32, ptr %arrayidx8, align 4
  %idx.ext = zext i32 %7 to i64
  %add.ptr = getelementptr inbounds %"struct.opt::context::objective", ptr %5, i64 %idx.ext
  %8 = load ptr, ptr %elem.addr, align 8
  call void @_ZN3opt7context9objectiveC2EOS1_(ptr noundef nonnull align 8 dereferenceable(100) %add.ptr, ptr noundef nonnull align 8 dereferenceable(100) %8) #3
  %m_data9 = getelementptr inbounds %class.vector.1, ptr %this1, i32 0, i32 0
  %9 = load ptr, ptr %m_data9, align 8
  %arrayidx10 = getelementptr inbounds i32, ptr %9, i64 -1
  %10 = load i32, ptr %arrayidx10, align 4
  %inc = add i32 %10, 1
  store i32 %inc, ptr %arrayidx10, align 4
  ret ptr %this1
}

; Function Attrs: nocallback nofree nounwind willreturn memory(argmem: readwrite)
declare void @llvm.memcpy.p0.p0.i64(ptr noalias nocapture writeonly, ptr noalias nocapture readonly, i64, i1 immarg) #6

; Function Attrs: mustprogress uwtable
define linkonce_odr hidden void @_ZN3opt7context9objectiveC2ER11ast_manager6symbol(ptr noundef nonnull align 8 dereferenceable(100) %this, ptr noundef nonnull align 8 dereferenceable(976) %m, ptr %id.coerce) unnamed_addr #5 comdat align 2 personality ptr @__gxx_personality_v0 {
entry:
  %id = alloca %class.symbol, align 8
  %this.addr = alloca ptr, align 8
  %m.addr = alloca ptr, align 8
  %exn.slot = alloca ptr, align 8
  %ehselector.slot = alloca i32, align 4
  %coerce.dive = getelementptr inbounds %class.symbol, ptr %id, i32 0, i32 0
  store ptr %id.coerce, ptr %coerce.dive, align 8
  store ptr %this, ptr %this.addr, align 8
  store ptr %m, ptr %m.addr, align 8
  %this1 = load ptr, ptr %this.addr, align 8
  %m_type = getelementptr inbounds %"struct.opt::context::objective", ptr %this1, i32 0, i32 0
  store i32 2, ptr %m_type, align 8
  %m_term = getelementptr inbounds %"struct.opt::context::objective", ptr %this1, i32 0, i32 2
  %0 = load ptr, ptr %m.addr, align 8
  call void @_ZN7obj_refI3app11ast_managerEC2ERS1_(ptr noundef nonnull align 8 dereferenceable(16) %m_term, ptr noundef nonnull align 8 dereferenceable(976) %0)
  %m_terms = getelementptr inbounds %"struct.opt::context::objective", ptr %this1, i32 0, i32 3
  %1 = load ptr, ptr %m.addr, align 8
  invoke void @_ZN10ref_vectorI4expr11ast_managerEC2ERS1_(ptr noundef nonnull align 8 dereferenceable(16) %m_terms, ptr noundef nonnull align 8 dereferenceable(976) %1)
          to label %invoke.cont unwind label %lpad

invoke.cont:                                      ; preds = %entry
  %m_weights = getelementptr inbounds %"struct.opt::context::objective", ptr %this1, i32 0, i32 4
  call void @_ZN6vectorI8rationalLb1EjEC2Ev(ptr noundef nonnull align 8 dereferenceable(8) %m_weights) #3
  %m_adjust_value = getelementptr inbounds %"struct.opt::context::objective", ptr %this1, i32 0, i32 5
  invoke void @_ZN3opt12adjust_valueC2Ev(ptr noundef nonnull align 8 dereferenceable(33) %m_adjust_value)
          to label %invoke.cont3 unwind label %lpad2

invoke.cont3:                                     ; preds = %invoke.cont
  %m_id = getelementptr inbounds %"struct.opt::context::objective", ptr %this1, i32 0, i32 6
  call void @llvm.memcpy.p0.p0.i64(ptr align 8 %m_id, ptr align 8 %id, i64 8, i1 false)
  %m_index = getelementptr inbounds %"struct.opt::context::objective", ptr %this1, i32 0, i32 7
  store i32 0, ptr %m_index, align 8
  ret void

lpad:                                             ; preds = %entry
  %2 = landingpad { ptr, i32 }
          cleanup
  %3 = extractvalue { ptr, i32 } %2, 0
  store ptr %3, ptr %exn.slot, align 8
  %4 = extractvalue { ptr, i32 } %2, 1
  store i32 %4, ptr %ehselector.slot, align 4
  br label %ehcleanup

lpad2:                                            ; preds = %invoke.cont
  %5 = landingpad { ptr, i32 }
          cleanup
  %6 = extractvalue { ptr, i32 } %5, 0
  store ptr %6, ptr %exn.slot, align 8
  %7 = extractvalue { ptr, i32 } %5, 1
  store i32 %7, ptr %ehselector.slot, align 4
  call void @_ZN6vectorI8rationalLb1EjED2Ev(ptr noundef nonnull align 8 dereferenceable(8) %m_weights) #3
  call void @_ZN10ref_vectorI4expr11ast_managerED2Ev(ptr noundef nonnull align 8 dereferenceable(16) %m_terms) #3
  br label %ehcleanup

ehcleanup:                                        ; preds = %lpad2, %lpad
  call void @_ZN7obj_refI3app11ast_managerED2Ev(ptr noundef nonnull align 8 dereferenceable(16) %m_term) #3
  br label %eh.resume

eh.resume:                                        ; preds = %ehcleanup
  %exn = load ptr, ptr %exn.slot, align 8
  %sel = load i32, ptr %ehselector.slot, align 4
  %lpad.val = insertvalue { ptr, i32 } poison, ptr %exn, 0
  %lpad.val4 = insertvalue { ptr, i32 } %lpad.val, i32 %sel, 1
  resume { ptr, i32 } %lpad.val4
}

; Function Attrs: mustprogress nounwind uwtable
define linkonce_odr hidden void @_ZN3opt7context9objectiveD2Ev(ptr noundef nonnull align 8 dereferenceable(100) %this) unnamed_addr #4 comdat align 2 {
entry:
  %this.addr = alloca ptr, align 8
  store ptr %this, ptr %this.addr, align 8
  %this1 = load ptr, ptr %this.addr, align 8
  %m_adjust_value = getelementptr inbounds %"struct.opt::context::objective", ptr %this1, i32 0, i32 5
  call void @_ZN3opt12adjust_valueD2Ev(ptr noundef nonnull align 8 dereferenceable(33) %m_adjust_value) #3
  %m_weights = getelementptr inbounds %"struct.opt::context::objective", ptr %this1, i32 0, i32 4
  call void @_ZN6vectorI8rationalLb1EjED2Ev(ptr noundef nonnull align 8 dereferenceable(8) %m_weights) #3
  %m_terms = getelementptr inbounds %"struct.opt::context::objective", ptr %this1, i32 0, i32 3
  call void @_ZN10ref_vectorI4expr11ast_managerED2Ev(ptr noundef nonnull align 8 dereferenceable(16) %m_terms) #3
  %m_term = getelementptr inbounds %"struct.opt::context::objective", ptr %this1, i32 0, i32 2
  call void @_ZN7obj_refI3app11ast_managerED2Ev(ptr noundef nonnull align 8 dereferenceable(16) %m_term) #3
  ret void
}

; Function Attrs: mustprogress uwtable
define linkonce_odr hidden void @_ZN9table2mapI17default_map_entryI6symboljE16symbol_hash_proc14symbol_eq_procE6insertERKS1_Oj(ptr noundef nonnull align 8 dereferenceable(24) %this, ptr noundef nonnull align 8 dereferenceable(8) %k, ptr noundef nonnull align 4 dereferenceable(4) %v) #5 comdat align 2 {
entry:
  %this.addr = alloca ptr, align 8
  %k.addr = alloca ptr, align 8
  %v.addr = alloca ptr, align 8
  %ref.tmp = alloca %struct._key_data.161, align 8
  store ptr %this, ptr %this.addr, align 8
  store ptr %k, ptr %k.addr, align 8
  store ptr %v, ptr %v.addr, align 8
  %this1 = load ptr, ptr %this.addr, align 8
  %m_table = getelementptr inbounds %class.table2map, ptr %this1, i32 0, i32 0
  %0 = load ptr, ptr %k.addr, align 8
  %1 = load ptr, ptr %v.addr, align 8
  call void @_ZN9_key_dataI6symboljEC2ERKS0_Oj(ptr noundef nonnull align 8 dereferenceable(12) %ref.tmp, ptr noundef nonnull align 8 dereferenceable(8) %0, ptr noundef nonnull align 4 dereferenceable(4) %1)
  call void @_ZN14core_hashtableI17default_map_entryI6symboljEN9table2mapIS2_16symbol_hash_proc14symbol_eq_procE15entry_hash_procENS6_13entry_eq_procEE6insertEO9_key_dataIS1_jE(ptr noundef nonnull align 8 dereferenceable(20) %m_table, ptr noundef nonnull align 8 dereferenceable(12) %ref.tmp)
  ret void
}

; Function Attrs: mustprogress uwtable
define linkonce_odr hidden noundef nonnull align 4 dereferenceable(4) ptr @_ZN9table2mapI17default_map_entryI6symboljE16symbol_hash_proc14symbol_eq_procEixERKS1_(ptr noundef nonnull align 8 dereferenceable(24) %this, ptr noundef nonnull align 8 dereferenceable(8) %k) #5 comdat align 2 {
entry:
  %this.addr = alloca ptr, align 8
  %k.addr = alloca ptr, align 8
  store ptr %this, ptr %this.addr, align 8
  store ptr %k, ptr %k.addr, align 8
  %this1 = load ptr, ptr %this.addr, align 8
  %0 = load ptr, ptr %k.addr, align 8
  %call = call noundef nonnull align 4 dereferenceable(4) ptr @_ZN9table2mapI17default_map_entryI6symboljE16symbol_hash_proc14symbol_eq_procE4findERKS1_(ptr noundef nonnull align 8 dereferenceable(24) %this1, ptr noundef nonnull align 8 dereferenceable(8) %0)
  ret ptr %call
}

; Function Attrs: mustprogress uwtable
define linkonce_odr hidden noundef zeroext i1 @_ZNK8rational7is_zeroEv(ptr noundef nonnull align 8 dereferenceable(32) %this) #5 comdat align 2 {
entry:
  %this.addr = alloca ptr, align 8
  store ptr %this, ptr %this.addr, align 8
  %this1 = load ptr, ptr %this.addr, align 8
  %call = call noundef nonnull align 8 dereferenceable(728) ptr @_ZN8rational1mEv()
  %m_val = getelementptr inbounds %class.rational, ptr %this1, i32 0, i32 0
  %call2 = call noundef zeroext i1 @_ZN11mpq_managerILb1EE7is_zeroERK3mpq(ptr noundef nonnull align 8 dereferenceable(32) %m_val)
  ret i1 %call2
}

; Function Attrs: mustprogress uwtable
define linkonce_odr hidden noundef nonnull align 8 dereferenceable(8) ptr @_ZN6vectorI8rationalLb1EjE9push_backERKS0_(ptr noundef nonnull align 8 dereferenceable(8) %this, ptr noundef nonnull align 8 dereferenceable(32) %elem) #5 comdat align 2 {
entry:
  %this.addr = alloca ptr, align 8
  %elem.addr = alloca ptr, align 8
  store ptr %this, ptr %this.addr, align 8
  store ptr %elem, ptr %elem.addr, align 8
  %this1 = load ptr, ptr %this.addr, align 8
  %m_data = getelementptr inbounds %class.vector.2, ptr %this1, i32 0, i32 0
  %0 = load ptr, ptr %m_data, align 8
  %cmp = icmp eq ptr %0, null
  br i1 %cmp, label %if.then, label %lor.lhs.false

lor.lhs.false:                                    ; preds = %entry
  %m_data2 = getelementptr inbounds %class.vector.2, ptr %this1, i32 0, i32 0
  %1 = load ptr, ptr %m_data2, align 8
  %arrayidx = getelementptr inbounds i32, ptr %1, i64 -1
  %2 = load i32, ptr %arrayidx, align 4
  %m_data3 = getelementptr inbounds %class.vector.2, ptr %this1, i32 0, i32 0
  %3 = load ptr, ptr %m_data3, align 8
  %arrayidx4 = getelementptr inbounds i32, ptr %3, i64 -2
  %4 = load i32, ptr %arrayidx4, align 4
  %cmp5 = icmp eq i32 %2, %4
  br i1 %cmp5, label %if.then, label %if.end

if.then:                                          ; preds = %lor.lhs.false, %entry
  call void @_ZN6vectorI8rationalLb1EjE13expand_vectorEv(ptr noundef nonnull align 8 dereferenceable(8) %this1)
  br label %if.end

if.end:                                           ; preds = %if.then, %lor.lhs.false
  %m_data6 = getelementptr inbounds %class.vector.2, ptr %this1, i32 0, i32 0
  %5 = load ptr, ptr %m_data6, align 8
  %m_data7 = getelementptr inbounds %class.vector.2, ptr %this1, i32 0, i32 0
  %6 = load ptr, ptr %m_data7, align 8
  %arrayidx8 = getelementptr inbounds i32, ptr %6, i64 -1
  %7 = load i32, ptr %arrayidx8, align 4
  %idx.ext = zext i32 %7 to i64
  %add.ptr = getelementptr inbounds %class.rational, ptr %5, i64 %idx.ext
  %8 = load ptr, ptr %elem.addr, align 8
  call void @_ZN8rationalC2ERKS_(ptr noundef nonnull align 8 dereferenceable(32) %add.ptr, ptr noundef nonnull align 8 dereferenceable(32) %8)
  %m_data9 = getelementptr inbounds %class.vector.2, ptr %this1, i32 0, i32 0
  %9 = load ptr, ptr %m_data9, align 8
  %arrayidx10 = getelementptr inbounds i32, ptr %9, i64 -1
  %10 = load i32, ptr %arrayidx10, align 4
  %inc = add i32 %10, 1
  store i32 %inc, ptr %arrayidx10, align 4
  ret ptr %this1
}

; Function Attrs: mustprogress uwtable
define linkonce_odr hidden noundef nonnull align 8 dereferenceable(8) ptr @_ZN6vectorIjLb0EjE9push_backERKj(ptr noundef nonnull align 8 dereferenceable(8) %this, ptr noundef nonnull align 4 dereferenceable(4) %elem) #5 comdat align 2 {
entry:
  %this.addr = alloca ptr, align 8
  %elem.addr = alloca ptr, align 8
  store ptr %this, ptr %this.addr, align 8
  store ptr %elem, ptr %elem.addr, align 8
  %this1 = load ptr, ptr %this.addr, align 8
  %m_data = getelementptr inbounds %class.vector, ptr %this1, i32 0, i32 0
  %0 = load ptr, ptr %m_data, align 8
  %cmp = icmp eq ptr %0, null
  br i1 %cmp, label %if.then, label %lor.lhs.false

lor.lhs.false:                                    ; preds = %entry
  %m_data2 = getelementptr inbounds %class.vector, ptr %this1, i32 0, i32 0
  %1 = load ptr, ptr %m_data2, align 8
  %arrayidx = getelementptr inbounds i32, ptr %1, i64 -1
  %2 = load i32, ptr %arrayidx, align 4
  %m_data3 = getelementptr inbounds %class.vector, ptr %this1, i32 0, i32 0
  %3 = load ptr, ptr %m_data3, align 8
  %arrayidx4 = getelementptr inbounds i32, ptr %3, i64 -2
  %4 = load i32, ptr %arrayidx4, align 4
  %cmp5 = icmp eq i32 %2, %4
  br i1 %cmp5, label %if.then, label %if.end

if.then:                                          ; preds = %lor.lhs.false, %entry
  call void @_ZN6vectorIjLb0EjE13expand_vectorEv(ptr noundef nonnull align 8 dereferenceable(8) %this1)
  br label %if.end

if.end:                                           ; preds = %if.then, %lor.lhs.false
  %m_data6 = getelementptr inbounds %class.vector, ptr %this1, i32 0, i32 0
  %5 = load ptr, ptr %m_data6, align 8
  %m_data7 = getelementptr inbounds %class.vector, ptr %this1, i32 0, i32 0
  %6 = load ptr, ptr %m_data7, align 8
  %arrayidx8 = getelementptr inbounds i32, ptr %6, i64 -1
  %7 = load i32, ptr %arrayidx8, align 4
  %idx.ext = zext i32 %7 to i64
  %add.ptr = getelementptr inbounds i32, ptr %5, i64 %idx.ext
  %8 = load ptr, ptr %elem.addr, align 8
  %9 = load i32, ptr %8, align 4
  store i32 %9, ptr %add.ptr, align 4
  %m_data9 = getelementptr inbounds %class.vector, ptr %this1, i32 0, i32 0
  %10 = load ptr, ptr %m_data9, align 8
  %arrayidx10 = getelementptr inbounds i32, ptr %10, i64 -1
  %11 = load i32, ptr %arrayidx10, align 4
  %inc = add i32 %11, 1
  store i32 %inc, ptr %arrayidx10, align 4
  ret ptr %this1
}

; Function Attrs: mustprogress uwtable
define hidden noundef i32 @_ZN3opt7context12scoped_state3addEP3appb(ptr noundef nonnull align 8 dereferenceable(152) %this, ptr noundef %t, i1 noundef zeroext %is_max) #5 align 2 personality ptr @__gxx_personality_v0 {
entry:
  %this.addr = alloca ptr, align 8
  %t.addr = alloca ptr, align 8
  %is_max.addr = alloca i8, align 1
  %tr = alloca %class.obj_ref, align 8
  %exn.slot = alloca ptr, align 8
  %ehselector.slot = alloca i32, align 4
  %ref.tmp = alloca %"class.std::__cxx11::basic_string", align 8
  %ref.tmp4 = alloca %"class.std::allocator", align 1
  %cleanup.isactive = alloca i1, align 1
  %index = alloca i32, align 4
  %ref.tmp13 = alloca %"struct.opt::context::objective", align 8
  store ptr %this, ptr %this.addr, align 8
  store ptr %t, ptr %t.addr, align 8
  %frombool = zext i1 %is_max to i8
  store i8 %frombool, ptr %is_max.addr, align 1
  %this1 = load ptr, ptr %this.addr, align 8
  %0 = load ptr, ptr %t.addr, align 8
  %m = getelementptr inbounds %"class.opt::context::scoped_state", ptr %this1, i32 0, i32 0
  %1 = load ptr, ptr %m, align 8
  call void @_ZN7obj_refI3app11ast_managerEC2EPS0_RS1_(ptr noundef nonnull align 8 dereferenceable(16) %tr, ptr noundef %0, ptr noundef nonnull align 8 dereferenceable(976) %1)
  %m_bv = getelementptr inbounds %"class.opt::context::scoped_state", ptr %this1, i32 0, i32 2
  %2 = load ptr, ptr %t.addr, align 8
  %call = invoke noundef zeroext i1 @_ZNK14bv_recognizers5is_bvEPK4expr(ptr noundef nonnull align 4 dereferenceable(4) %m_bv, ptr noundef %2)
          to label %invoke.cont unwind label %lpad

invoke.cont:                                      ; preds = %entry
  br i1 %call, label %if.end, label %land.lhs.true

land.lhs.true:                                    ; preds = %invoke.cont
  %m_arith = getelementptr inbounds %"class.opt::context::scoped_state", ptr %this1, i32 0, i32 1
  %3 = load ptr, ptr %t.addr, align 8
  %call3 = invoke noundef zeroext i1 @_ZNK17arith_recognizers11is_int_realEPK4expr(ptr noundef nonnull align 1 dereferenceable(1) %m_arith, ptr noundef %3)
          to label %invoke.cont2 unwind label %lpad

invoke.cont2:                                     ; preds = %land.lhs.true
  br i1 %call3, label %if.end, label %if.then

if.then:                                          ; preds = %invoke.cont2
  store i1 true, ptr %cleanup.isactive, align 1
  %exception = call ptr @__cxa_allocate_exception(i64 40) #3
  call void @_ZNSaIcEC1Ev(ptr noundef nonnull align 1 dereferenceable(1) %ref.tmp4) #3
  invoke void @_ZNSt7__cxx1112basic_stringIcSt11char_traitsIcESaIcEEC2IS3_EEPKcRKS3_(ptr noundef nonnull align 8 dereferenceable(32) %ref.tmp, ptr noundef @.str.7, ptr noundef nonnull align 1 dereferenceable(1) %ref.tmp4)
          to label %invoke.cont6 unwind label %lpad5

invoke.cont6:                                     ; preds = %if.then
  invoke void @_ZN17default_exceptionC2EONSt7__cxx1112basic_stringIcSt11char_traitsIcESaIcEEE(ptr noundef nonnull align 8 dereferenceable(40) %exception, ptr noundef nonnull align 8 dereferenceable(32) %ref.tmp)
          to label %invoke.cont8 unwind label %lpad7

invoke.cont8:                                     ; preds = %invoke.cont6
  store i1 false, ptr %cleanup.isactive, align 1
  invoke void @__cxa_throw(ptr %exception, ptr @_ZTI17default_exception, ptr @_ZN17default_exceptionD2Ev) #16
          to label %unreachable unwind label %lpad7

lpad:                                             ; preds = %invoke.cont10, %if.end, %land.lhs.true, %entry
  %4 = landingpad { ptr, i32 }
          cleanup
  %5 = extractvalue { ptr, i32 } %4, 0
  store ptr %5, ptr %exn.slot, align 8
  %6 = extractvalue { ptr, i32 } %4, 1
  store i32 %6, ptr %ehselector.slot, align 4
  br label %ehcleanup19

lpad5:                                            ; preds = %if.then
  %7 = landingpad { ptr, i32 }
          cleanup
  %8 = extractvalue { ptr, i32 } %7, 0
  store ptr %8, ptr %exn.slot, align 8
  %9 = extractvalue { ptr, i32 } %7, 1
  store i32 %9, ptr %ehselector.slot, align 4
  br label %ehcleanup

lpad7:                                            ; preds = %invoke.cont8, %invoke.cont6
  %10 = landingpad { ptr, i32 }
          cleanup
  %11 = extractvalue { ptr, i32 } %10, 0
  store ptr %11, ptr %exn.slot, align 8
  %12 = extractvalue { ptr, i32 } %10, 1
  store i32 %12, ptr %ehselector.slot, align 4
  call void @_ZNSt7__cxx1112basic_stringIcSt11char_traitsIcESaIcEED1Ev(ptr noundef nonnull align 8 dereferenceable(32) %ref.tmp) #3
  br label %ehcleanup

ehcleanup:                                        ; preds = %lpad7, %lpad5
  call void @_ZNSaIcED1Ev(ptr noundef nonnull align 1 dereferenceable(1) %ref.tmp4) #3
  %cleanup.is_active = load i1, ptr %cleanup.isactive, align 1
  br i1 %cleanup.is_active, label %cleanup.action, label %cleanup.done

cleanup.action:                                   ; preds = %ehcleanup
  call void @__cxa_free_exception(ptr %exception) #3
  br label %cleanup.done

cleanup.done:                                     ; preds = %cleanup.action, %ehcleanup
  br label %ehcleanup19

if.end:                                           ; preds = %invoke.cont2, %invoke.cont
  %m_objectives = getelementptr inbounds %"class.opt::context::scoped_state", ptr %this1, i32 0, i32 11
  %call11 = invoke noundef i32 @_ZNK6vectorIN3opt7context9objectiveELb1EjE4sizeEv(ptr noundef nonnull align 8 dereferenceable(8) %m_objectives)
          to label %invoke.cont10 unwind label %lpad

invoke.cont10:                                    ; preds = %if.end
  store i32 %call11, ptr %index, align 4
  %m_objectives12 = getelementptr inbounds %"class.opt::context::scoped_state", ptr %this1, i32 0, i32 11
  %13 = load i8, ptr %is_max.addr, align 1
  %tobool = trunc i8 %13 to i1
  %14 = load i32, ptr %index, align 4
  invoke void @_ZN3opt7context9objectiveC2EbR7obj_refI3app11ast_managerEj(ptr noundef nonnull align 8 dereferenceable(100) %ref.tmp13, i1 noundef zeroext %tobool, ptr noundef nonnull align 8 dereferenceable(16) %tr, i32 noundef %14)
          to label %invoke.cont14 unwind label %lpad

invoke.cont14:                                    ; preds = %invoke.cont10
  %call17 = invoke noundef nonnull align 8 dereferenceable(8) ptr @_ZN6vectorIN3opt7context9objectiveELb1EjE9push_backEOS2_(ptr noundef nonnull align 8 dereferenceable(8) %m_objectives12, ptr noundef nonnull align 8 dereferenceable(100) %ref.tmp13)
          to label %invoke.cont16 unwind label %lpad15

invoke.cont16:                                    ; preds = %invoke.cont14
  call void @_ZN3opt7context9objectiveD2Ev(ptr noundef nonnull align 8 dereferenceable(100) %ref.tmp13) #3
  %15 = load i32, ptr %index, align 4
  call void @_ZN7obj_refI3app11ast_managerED2Ev(ptr noundef nonnull align 8 dereferenceable(16) %tr) #3
  ret i32 %15

lpad15:                                           ; preds = %invoke.cont14
  %16 = landingpad { ptr, i32 }
          cleanup
  %17 = extractvalue { ptr, i32 } %16, 0
  store ptr %17, ptr %exn.slot, align 8
  %18 = extractvalue { ptr, i32 } %16, 1
  store i32 %18, ptr %ehselector.slot, align 4
  call void @_ZN3opt7context9objectiveD2Ev(ptr noundef nonnull align 8 dereferenceable(100) %ref.tmp13) #3
  br label %ehcleanup19

ehcleanup19:                                      ; preds = %lpad15, %cleanup.done, %lpad
  call void @_ZN7obj_refI3app11ast_managerED2Ev(ptr noundef nonnull align 8 dereferenceable(16) %tr) #3
  br label %eh.resume

eh.resume:                                        ; preds = %ehcleanup19
  %exn = load ptr, ptr %exn.slot, align 8
  %sel = load i32, ptr %ehselector.slot, align 4
  %lpad.val = insertvalue { ptr, i32 } poison, ptr %exn, 0
  %lpad.val20 = insertvalue { ptr, i32 } %lpad.val, i32 %sel, 1
  resume { ptr, i32 } %lpad.val20

unreachable:                                      ; preds = %invoke.cont8
  unreachable
}

; Function Attrs: mustprogress uwtable
define linkonce_odr hidden void @_ZN7obj_refI3app11ast_managerEC2EPS0_RS1_(ptr noundef nonnull align 8 dereferenceable(16) %this, ptr noundef %n, ptr noundef nonnull align 8 dereferenceable(976) %m) unnamed_addr #5 comdat align 2 {
entry:
  %this.addr = alloca ptr, align 8
  %n.addr = alloca ptr, align 8
  %m.addr = alloca ptr, align 8
  store ptr %this, ptr %this.addr, align 8
  store ptr %n, ptr %n.addr, align 8
  store ptr %m, ptr %m.addr, align 8
  %this1 = load ptr, ptr %this.addr, align 8
  %m_obj = getelementptr inbounds %class.obj_ref, ptr %this1, i32 0, i32 0
  %0 = load ptr, ptr %n.addr, align 8
  store ptr %0, ptr %m_obj, align 8
  %m_manager = getelementptr inbounds %class.obj_ref, ptr %this1, i32 0, i32 1
  %1 = load ptr, ptr %m.addr, align 8
  store ptr %1, ptr %m_manager, align 8
  call void @_ZN7obj_refI3app11ast_managerE7inc_refEv(ptr noundef nonnull align 8 dereferenceable(16) %this1)
  ret void
}

; Function Attrs: mustprogress uwtable
define linkonce_odr hidden noundef zeroext i1 @_ZNK14bv_recognizers5is_bvEPK4expr(ptr noundef nonnull align 4 dereferenceable(4) %this, ptr noundef %e) #5 comdat align 2 {
entry:
  %this.addr = alloca ptr, align 8
  %e.addr = alloca ptr, align 8
  store ptr %this, ptr %this.addr, align 8
  store ptr %e, ptr %e.addr, align 8
  %this1 = load ptr, ptr %this.addr, align 8
  %0 = load ptr, ptr %e.addr, align 8
  %call = call noundef ptr @_ZNK4expr8get_sortEv(ptr noundef nonnull align 4 dereferenceable(16) %0)
  %call2 = call noundef zeroext i1 @_ZNK14bv_recognizers10is_bv_sortEPK4sort(ptr noundef nonnull align 4 dereferenceable(4) %this1, ptr noundef %call)
  ret i1 %call2
}

; Function Attrs: mustprogress uwtable
define linkonce_odr hidden noundef zeroext i1 @_ZNK17arith_recognizers11is_int_realEPK4expr(ptr noundef nonnull align 1 dereferenceable(1) %this, ptr noundef %n) #5 comdat align 2 {
entry:
  %this.addr = alloca ptr, align 8
  %n.addr = alloca ptr, align 8
  store ptr %this, ptr %this.addr, align 8
  store ptr %n, ptr %n.addr, align 8
  %this1 = load ptr, ptr %this.addr, align 8
  %0 = load ptr, ptr %n.addr, align 8
  %call = call noundef ptr @_ZNK4expr8get_sortEv(ptr noundef nonnull align 4 dereferenceable(16) %0)
  %call2 = call noundef zeroext i1 @_ZNK17arith_recognizers11is_int_realEPK4sort(ptr noundef nonnull align 1 dereferenceable(1) %this1, ptr noundef %call)
  ret i1 %call2
}

; Function Attrs: mustprogress uwtable
define linkonce_odr hidden void @_ZN3opt7context9objectiveC2EbR7obj_refI3app11ast_managerEj(ptr noundef nonnull align 8 dereferenceable(100) %this, i1 noundef zeroext %is_max, ptr noundef nonnull align 8 dereferenceable(16) %t, i32 noundef %idx) unnamed_addr #5 comdat align 2 personality ptr @__gxx_personality_v0 {
entry:
  %this.addr = alloca ptr, align 8
  %is_max.addr = alloca i8, align 1
  %t.addr = alloca ptr, align 8
  %idx.addr = alloca i32, align 4
  %exn.slot = alloca ptr, align 8
  %ehselector.slot = alloca i32, align 4
  store ptr %this, ptr %this.addr, align 8
  %frombool = zext i1 %is_max to i8
  store i8 %frombool, ptr %is_max.addr, align 1
  store ptr %t, ptr %t.addr, align 8
  store i32 %idx, ptr %idx.addr, align 4
  %this1 = load ptr, ptr %this.addr, align 8
  %m_type = getelementptr inbounds %"struct.opt::context::objective", ptr %this1, i32 0, i32 0
  %0 = load i8, ptr %is_max.addr, align 1
  %tobool = trunc i8 %0 to i1
  %cond = select i1 %tobool, i32 0, i32 1
  store i32 %cond, ptr %m_type, align 8
  %m_term = getelementptr inbounds %"struct.opt::context::objective", ptr %this1, i32 0, i32 2
  %1 = load ptr, ptr %t.addr, align 8
  call void @_ZN7obj_refI3app11ast_managerEC2ERKS2_(ptr noundef nonnull align 8 dereferenceable(16) %m_term, ptr noundef nonnull align 8 dereferenceable(16) %1)
  %m_terms = getelementptr inbounds %"struct.opt::context::objective", ptr %this1, i32 0, i32 3
  %2 = load ptr, ptr %t.addr, align 8
  %call = invoke noundef nonnull align 8 dereferenceable(976) ptr @_ZNK7obj_refI3app11ast_managerE11get_managerEv(ptr noundef nonnull align 8 dereferenceable(16) %2)
          to label %invoke.cont unwind label %lpad

invoke.cont:                                      ; preds = %entry
  invoke void @_ZN10ref_vectorI4expr11ast_managerEC2ERS1_(ptr noundef nonnull align 8 dereferenceable(16) %m_terms, ptr noundef nonnull align 8 dereferenceable(976) %call)
          to label %invoke.cont2 unwind label %lpad

invoke.cont2:                                     ; preds = %invoke.cont
  %m_weights = getelementptr inbounds %"struct.opt::context::objective", ptr %this1, i32 0, i32 4
  call void @_ZN6vectorI8rationalLb1EjEC2Ev(ptr noundef nonnull align 8 dereferenceable(8) %m_weights) #3
  %m_adjust_value = getelementptr inbounds %"struct.opt::context::objective", ptr %this1, i32 0, i32 5
  invoke void @_ZN3opt12adjust_valueC2Ev(ptr noundef nonnull align 8 dereferenceable(33) %m_adjust_value)
          to label %invoke.cont4 unwind label %lpad3

invoke.cont4:                                     ; preds = %invoke.cont2
  %m_id = getelementptr inbounds %"struct.opt::context::objective", ptr %this1, i32 0, i32 6
  invoke void @_ZN6symbolC2Ev(ptr noundef nonnull align 8 dereferenceable(8) %m_id)
          to label %invoke.cont6 unwind label %lpad5

invoke.cont6:                                     ; preds = %invoke.cont4
  %m_index = getelementptr inbounds %"struct.opt::context::objective", ptr %this1, i32 0, i32 7
  %3 = load i32, ptr %idx.addr, align 4
  store i32 %3, ptr %m_index, align 8
  %4 = load i8, ptr %is_max.addr, align 1
  %tobool7 = trunc i8 %4 to i1
  br i1 %tobool7, label %if.end, label %if.then

if.then:                                          ; preds = %invoke.cont6
  %m_adjust_value8 = getelementptr inbounds %"struct.opt::context::objective", ptr %this1, i32 0, i32 5
  invoke void @_ZN3opt12adjust_value10set_negateEb(ptr noundef nonnull align 8 dereferenceable(33) %m_adjust_value8, i1 noundef zeroext true)
          to label %invoke.cont9 unwind label %lpad5

invoke.cont9:                                     ; preds = %if.then
  br label %if.end

lpad:                                             ; preds = %invoke.cont, %entry
  %5 = landingpad { ptr, i32 }
          cleanup
  %6 = extractvalue { ptr, i32 } %5, 0
  store ptr %6, ptr %exn.slot, align 8
  %7 = extractvalue { ptr, i32 } %5, 1
  store i32 %7, ptr %ehselector.slot, align 4
  br label %ehcleanup11

lpad3:                                            ; preds = %invoke.cont2
  %8 = landingpad { ptr, i32 }
          cleanup
  %9 = extractvalue { ptr, i32 } %8, 0
  store ptr %9, ptr %exn.slot, align 8
  %10 = extractvalue { ptr, i32 } %8, 1
  store i32 %10, ptr %ehselector.slot, align 4
  br label %ehcleanup

lpad5:                                            ; preds = %if.then, %invoke.cont4
  %11 = landingpad { ptr, i32 }
          cleanup
  %12 = extractvalue { ptr, i32 } %11, 0
  store ptr %12, ptr %exn.slot, align 8
  %13 = extractvalue { ptr, i32 } %11, 1
  store i32 %13, ptr %ehselector.slot, align 4
  call void @_ZN3opt12adjust_valueD2Ev(ptr noundef nonnull align 8 dereferenceable(33) %m_adjust_value) #3
  br label %ehcleanup

if.end:                                           ; preds = %invoke.cont9, %invoke.cont6
  ret void

ehcleanup:                                        ; preds = %lpad5, %lpad3
  call void @_ZN6vectorI8rationalLb1EjED2Ev(ptr noundef nonnull align 8 dereferenceable(8) %m_weights) #3
  call void @_ZN10ref_vectorI4expr11ast_managerED2Ev(ptr noundef nonnull align 8 dereferenceable(16) %m_terms) #3
  br label %ehcleanup11

ehcleanup11:                                      ; preds = %ehcleanup, %lpad
  call void @_ZN7obj_refI3app11ast_managerED2Ev(ptr noundef nonnull align 8 dereferenceable(16) %m_term) #3
  br label %eh.resume

eh.resume:                                        ; preds = %ehcleanup11
  %exn = load ptr, ptr %exn.slot, align 8
  %sel = load i32, ptr %ehselector.slot, align 4
  %lpad.val = insertvalue { ptr, i32 } poison, ptr %exn, 0
  %lpad.val12 = insertvalue { ptr, i32 } %lpad.val, i32 %sel, 1
  resume { ptr, i32 } %lpad.val12
}

; Function Attrs: mustprogress nounwind uwtable
define linkonce_odr hidden void @_ZN7obj_refI3app11ast_managerED2Ev(ptr noundef nonnull align 8 dereferenceable(16) %this) unnamed_addr #4 comdat align 2 personality ptr @__gxx_personality_v0 {
entry:
  %this.addr = alloca ptr, align 8
  store ptr %this, ptr %this.addr, align 8
  %this1 = load ptr, ptr %this.addr, align 8
  invoke void @_ZN7obj_refI3app11ast_managerE7dec_refEv(ptr noundef nonnull align 8 dereferenceable(16) %this1)
          to label %invoke.cont unwind label %terminate.lpad

invoke.cont:                                      ; preds = %entry
  ret void

terminate.lpad:                                   ; preds = %entry
  %0 = landingpad { ptr, i32 }
          catch ptr null
  %1 = extractvalue { ptr, i32 } %0, 0
  call void @__clang_call_terminate(ptr %1) #17
  unreachable
}

; Function Attrs: mustprogress uwtable
define hidden void @_ZN3opt7contextC2ER11ast_manager(ptr noundef nonnull align 8 dereferenceable(792) %this, ptr noundef nonnull align 8 dereferenceable(976) %m) unnamed_addr #5 align 2 personality ptr @__gxx_personality_v0 {
entry:
  %this.addr = alloca ptr, align 8
  %m.addr = alloca ptr, align 8
  %exn.slot = alloca ptr, align 8
  %ehselector.slot = alloca i32, align 4
  %ref.tmp = alloca %struct.symbol_hash_proc, align 1
  %ref.tmp21 = alloca %struct.symbol_eq_proc, align 1
  %ref.tmp50 = alloca %"class.std::allocator", align 1
  %p = alloca %class.params_ref, align 8
  store ptr %this, ptr %this.addr, align 8
  store ptr %m, ptr %m.addr, align 8
  %this1 = load ptr, ptr %this.addr, align 8
  %0 = load ptr, ptr %m.addr, align 8
  call void @_ZN11opt_wrapperC2ER11ast_manager(ptr noundef nonnull align 8 dereferenceable(72) %this1, ptr noundef nonnull align 8 dereferenceable(976) %0)
  %1 = getelementptr inbounds i8, ptr %this1, i64 72
  call void @_ZN3opt15pareto_callbackC2Ev(ptr noundef nonnull align 8 dereferenceable(8) %1) #3
  %2 = getelementptr inbounds i8, ptr %this1, i64 80
  call void @_ZN3opt14maxsat_contextC2Ev(ptr noundef nonnull align 8 dereferenceable(8) %2) #3
  store ptr getelementptr inbounds ({ [40 x ptr], [9 x ptr], [19 x ptr] }, ptr @_ZTVN3opt7contextE, i32 0, inrange i32 0, i32 2), ptr %this1, align 8
  %add.ptr = getelementptr inbounds i8, ptr %this1, i64 72
  store ptr getelementptr inbounds ({ [40 x ptr], [9 x ptr], [19 x ptr] }, ptr @_ZTVN3opt7contextE, i32 0, inrange i32 1, i32 2), ptr %add.ptr, align 8
  %add.ptr2 = getelementptr inbounds i8, ptr %this1, i64 80
  store ptr getelementptr inbounds ({ [40 x ptr], [9 x ptr], [19 x ptr] }, ptr @_ZTVN3opt7contextE, i32 0, inrange i32 2, i32 2), ptr %add.ptr2, align 8
  %m_time = getelementptr inbounds %"class.opt::context", ptr %this1, i32 0, i32 3
  store double 0.000000e+00, ptr %m_time, align 8
  %m_on_model_eh = getelementptr inbounds %"class.opt::context", ptr %this1, i32 0, i32 5
  call void @_ZNSt8functionIFvRN3opt10on_model_tER3refI5modelEEEC2Ev(ptr noundef nonnull align 8 dereferenceable(32) %m_on_model_eh) #3
  %m_calling_on_model = getelementptr inbounds %"class.opt::context", ptr %this1, i32 0, i32 6
  store i8 0, ptr %m_calling_on_model, align 8
  %m_arith = getelementptr inbounds %"class.opt::context", ptr %this1, i32 0, i32 7
  %3 = load ptr, ptr %m.addr, align 8
  invoke void @_ZN10arith_utilC1ER11ast_manager(ptr noundef nonnull align 8 dereferenceable(16) %m_arith, ptr noundef nonnull align 8 dereferenceable(976) %3)
          to label %invoke.cont unwind label %lpad

invoke.cont:                                      ; preds = %entry
  %m_bv = getelementptr inbounds %"class.opt::context", ptr %this1, i32 0, i32 8
  %4 = load ptr, ptr %m.addr, align 8
  invoke void @_ZN7bv_utilC1ER11ast_manager(ptr noundef nonnull align 8 dereferenceable(24) %m_bv, ptr noundef nonnull align 8 dereferenceable(976) %4)
          to label %invoke.cont3 unwind label %lpad

invoke.cont3:                                     ; preds = %invoke.cont
  %m_hard_constraints = getelementptr inbounds %"class.opt::context", ptr %this1, i32 0, i32 9
  %5 = load ptr, ptr %m.addr, align 8
  invoke void @_ZN10ref_vectorI4expr11ast_managerEC2ERS1_(ptr noundef nonnull align 8 dereferenceable(16) %m_hard_constraints, ptr noundef nonnull align 8 dereferenceable(976) %5)
          to label %invoke.cont4 unwind label %lpad

invoke.cont4:                                     ; preds = %invoke.cont3
  %m_opt_solver = getelementptr inbounds %"class.opt::context", ptr %this1, i32 0, i32 10
  invoke void @_ZN3refIN3opt10opt_solverEEC2Ev(ptr noundef nonnull align 8 dereferenceable(8) %m_opt_solver)
          to label %invoke.cont6 unwind label %lpad5

invoke.cont6:                                     ; preds = %invoke.cont4
  %m_solver = getelementptr inbounds %"class.opt::context", ptr %this1, i32 0, i32 11
  invoke void @_ZN3refI6solverEC2EPS0_(ptr noundef nonnull align 8 dereferenceable(8) %m_solver, ptr noundef null)
          to label %invoke.cont8 unwind label %lpad7

invoke.cont8:                                     ; preds = %invoke.cont6
  %m_sat_solver = getelementptr inbounds %"class.opt::context", ptr %this1, i32 0, i32 12
  invoke void @_ZN3refI6solverEC2Ev(ptr noundef nonnull align 8 dereferenceable(8) %m_sat_solver)
          to label %invoke.cont10 unwind label %lpad9

invoke.cont10:                                    ; preds = %invoke.cont8
  %m_pareto = getelementptr inbounds %"class.opt::context", ptr %this1, i32 0, i32 13
  invoke void @_ZN10scoped_ptrIN3opt11pareto_baseEEC2EPS1_(ptr noundef nonnull align 8 dereferenceable(8) %m_pareto, ptr noundef null)
          to label %invoke.cont12 unwind label %lpad11

invoke.cont12:                                    ; preds = %invoke.cont10
  %m_pareto1 = getelementptr inbounds %"class.opt::context", ptr %this1, i32 0, i32 14
  store i8 0, ptr %m_pareto1, align 8
  %m_qmax = getelementptr inbounds %"class.opt::context", ptr %this1, i32 0, i32 15
  invoke void @_ZN10scoped_ptrIN2qe4qmaxEEC2EPS1_(ptr noundef nonnull align 8 dereferenceable(8) %m_qmax, ptr noundef null)
          to label %invoke.cont14 unwind label %lpad13

invoke.cont14:                                    ; preds = %invoke.cont12
  %m_box_models = getelementptr inbounds %"class.opt::context", ptr %this1, i32 0, i32 16
  invoke void @_ZN15ref_vector_coreI5model21ref_unmanaged_wrapperIS0_EEC2Ev(ptr noundef nonnull align 8 dereferenceable(8) %m_box_models)
          to label %invoke.cont16 unwind label %lpad15

invoke.cont16:                                    ; preds = %invoke.cont14
  %m_box_index = getelementptr inbounds %"class.opt::context", ptr %this1, i32 0, i32 17
  store i32 -1, ptr %m_box_index, align 8
  %m_params = getelementptr inbounds %"class.opt::context", ptr %this1, i32 0, i32 18
  invoke void @_ZN10params_refC2Ev(ptr noundef nonnull align 8 dereferenceable(8) %m_params)
          to label %invoke.cont18 unwind label %lpad17

invoke.cont18:                                    ; preds = %invoke.cont16
  %m_optsmt = getelementptr inbounds %"class.opt::context", ptr %this1, i32 0, i32 19
  %6 = load ptr, ptr %m.addr, align 8
  invoke void @_ZN3opt6optsmtC2ER11ast_managerRNS_7contextE(ptr noundef nonnull align 8 dereferenceable(120) %m_optsmt, ptr noundef nonnull align 8 dereferenceable(976) %6, ptr noundef nonnull align 8 dereferenceable(792) %this1)
          to label %invoke.cont20 unwind label %lpad19

invoke.cont20:                                    ; preds = %invoke.cont18
  %m_maxsmts = getelementptr inbounds %"class.opt::context", ptr %this1, i32 0, i32 20
  invoke void @_ZN3mapI6symbolPN3opt6maxsmtE16symbol_hash_proc14symbol_eq_procEC2ERKS4_RKS5_(ptr noundef nonnull align 8 dereferenceable(24) %m_maxsmts, ptr noundef nonnull align 1 dereferenceable(1) %ref.tmp, ptr noundef nonnull align 1 dereferenceable(1) %ref.tmp21)
          to label %invoke.cont23 unwind label %lpad22

invoke.cont23:                                    ; preds = %invoke.cont20
  %m_scoped_state = getelementptr inbounds %"class.opt::context", ptr %this1, i32 0, i32 21
  %7 = load ptr, ptr %m.addr, align 8
  invoke void @_ZN3opt7context12scoped_stateC2ER11ast_manager(ptr noundef nonnull align 8 dereferenceable(152) %m_scoped_state, ptr noundef nonnull align 8 dereferenceable(976) %7)
          to label %invoke.cont25 unwind label %lpad24

invoke.cont25:                                    ; preds = %invoke.cont23
  %m_objectives = getelementptr inbounds %"class.opt::context", ptr %this1, i32 0, i32 22
  call void @_ZN6vectorIN3opt7context9objectiveELb1EjEC2Ev(ptr noundef nonnull align 8 dereferenceable(8) %m_objectives) #3
  %m_model = getelementptr inbounds %"class.opt::context", ptr %this1, i32 0, i32 23
  invoke void @_ZN3refI5modelEC2Ev(ptr noundef nonnull align 8 dereferenceable(8) %m_model)
          to label %invoke.cont27 unwind label %lpad26

invoke.cont27:                                    ; preds = %invoke.cont25
  %m_model_converter = getelementptr inbounds %"class.opt::context", ptr %this1, i32 0, i32 24
  invoke void @_ZN3refI15model_converterEC2Ev(ptr noundef nonnull align 8 dereferenceable(8) %m_model_converter)
          to label %invoke.cont29 unwind label %lpad28

invoke.cont29:                                    ; preds = %invoke.cont27
  %m_fm = getelementptr inbounds %"class.opt::context", ptr %this1, i32 0, i32 25
  %call = invoke noalias noundef ptr @_ZN6memory8allocateEm(i64 noundef 80)
          to label %invoke.cont31 unwind label %lpad30

invoke.cont31:                                    ; preds = %invoke.cont29
  %8 = load ptr, ptr %m.addr, align 8
  invoke void @_ZN23generic_model_converterC2ER11ast_managerPKc(ptr noundef nonnull align 8 dereferenceable(80) %call, ptr noundef nonnull align 8 dereferenceable(976) %8, ptr noundef @.str.8)
          to label %invoke.cont32 unwind label %lpad30

invoke.cont32:                                    ; preds = %invoke.cont31
  invoke void @_ZN3refI23generic_model_converterEC2EPS0_(ptr noundef nonnull align 8 dereferenceable(8) %m_fm, ptr noundef %call)
          to label %invoke.cont33 unwind label %lpad30

invoke.cont33:                                    ; preds = %invoke.cont32
  %m_model_fixed = getelementptr inbounds %"class.opt::context", ptr %this1, i32 0, i32 26
  call void @llvm.memset.p0.i64(ptr align 8 %m_model_fixed, i8 0, i64 8, i1 false)
  invoke void @_ZN15ref_vector_coreI5model21ref_unmanaged_wrapperIS0_EEC2Ev(ptr noundef nonnull align 8 dereferenceable(8) %m_model_fixed)
          to label %invoke.cont35 unwind label %lpad34

invoke.cont35:                                    ; preds = %invoke.cont33
  %m_objective_fns = getelementptr inbounds %"class.opt::context", ptr %this1, i32 0, i32 29
  invoke void @_ZN7obj_mapI9func_decljEC2Ev(ptr noundef nonnull align 8 dereferenceable(24) %m_objective_fns)
          to label %invoke.cont37 unwind label %lpad36

invoke.cont37:                                    ; preds = %invoke.cont35
  %m_objective_orig = getelementptr inbounds %"class.opt::context", ptr %this1, i32 0, i32 30
  invoke void @_ZN7obj_mapI9func_declP4exprEC2Ev(ptr noundef nonnull align 8 dereferenceable(24) %m_objective_orig)
          to label %invoke.cont39 unwind label %lpad38

invoke.cont39:                                    ; preds = %invoke.cont37
  %m_objective_refs = getelementptr inbounds %"class.opt::context", ptr %this1, i32 0, i32 31
  %9 = load ptr, ptr %m.addr, align 8
  invoke void @_ZN10ref_vectorI9func_decl11ast_managerEC2ERS1_(ptr noundef nonnull align 8 dereferenceable(16) %m_objective_refs, ptr noundef nonnull align 8 dereferenceable(976) %9)
          to label %invoke.cont41 unwind label %lpad40

invoke.cont41:                                    ; preds = %invoke.cont39
  %m_core = getelementptr inbounds %"class.opt::context", ptr %this1, i32 0, i32 32
  %10 = load ptr, ptr %m.addr, align 8
  invoke void @_ZN10ref_vectorI4expr11ast_managerEC2ERS1_(ptr noundef nonnull align 8 dereferenceable(16) %m_core, ptr noundef nonnull align 8 dereferenceable(976) %10)
          to label %invoke.cont43 unwind label %lpad42

invoke.cont43:                                    ; preds = %invoke.cont41
  %m_simplify = getelementptr inbounds %"class.opt::context", ptr %this1, i32 0, i32 33
  invoke void @_ZN3refI6tacticEC2Ev(ptr noundef nonnull align 8 dereferenceable(8) %m_simplify)
          to label %invoke.cont45 unwind label %lpad44

invoke.cont45:                                    ; preds = %invoke.cont43
  %m_enable_sat = getelementptr inbounds %"class.opt::context", ptr %this1, i32 0, i32 34
  store i8 1, ptr %m_enable_sat, align 8
  %m_enable_sls = getelementptr inbounds %"class.opt::context", ptr %this1, i32 0, i32 35
  store i8 0, ptr %m_enable_sls, align 1
  %m_is_clausal = getelementptr inbounds %"class.opt::context", ptr %this1, i32 0, i32 36
  store i8 0, ptr %m_is_clausal, align 2
  %m_pp_neat = getelementptr inbounds %"class.opt::context", ptr %this1, i32 0, i32 37
  store i8 0, ptr %m_pp_neat, align 1
  %m_pp_wcnf = getelementptr inbounds %"class.opt::context", ptr %this1, i32 0, i32 38
  store i8 0, ptr %m_pp_wcnf, align 4
  %m_incremental = getelementptr inbounds %"class.opt::context", ptr %this1, i32 0, i32 39
  store i8 0, ptr %m_incremental, align 1
  %m_maxsat_engine = getelementptr inbounds %"class.opt::context", ptr %this1, i32 0, i32 40
  invoke void @_ZN6symbolC2Ev(ptr noundef nonnull align 8 dereferenceable(8) %m_maxsat_engine)
          to label %invoke.cont47 unwind label %lpad46

invoke.cont47:                                    ; preds = %invoke.cont45
  %m_logic = getelementptr inbounds %"class.opt::context", ptr %this1, i32 0, i32 41
  invoke void @_ZN6symbolC2Ev(ptr noundef nonnull align 8 dereferenceable(8) %m_logic)
          to label %invoke.cont48 unwind label %lpad46

invoke.cont48:                                    ; preds = %invoke.cont47
  %m_labels = getelementptr inbounds %"class.opt::context", ptr %this1, i32 0, i32 42
  invoke void @_ZN7svectorI6symboljEC2Ev(ptr noundef nonnull align 8 dereferenceable(8) %m_labels)
          to label %invoke.cont49 unwind label %lpad46

invoke.cont49:                                    ; preds = %invoke.cont48
  %m_unknown = getelementptr inbounds %"class.opt::context", ptr %this1, i32 0, i32 43
  call void @_ZNSaIcEC1Ev(ptr noundef nonnull align 1 dereferenceable(1) %ref.tmp50) #3
  invoke void @_ZNSt7__cxx1112basic_stringIcSt11char_traitsIcESaIcEEC2IS3_EEPKcRKS3_(ptr noundef nonnull align 8 dereferenceable(32) %m_unknown, ptr noundef @.str.9, ptr noundef nonnull align 1 dereferenceable(1) %ref.tmp50)
          to label %invoke.cont52 unwind label %lpad51

invoke.cont52:                                    ; preds = %invoke.cont49
  call void @_ZNSaIcED1Ev(ptr noundef nonnull align 1 dereferenceable(1) %ref.tmp50) #3
  invoke void @_ZN10params_refC2Ev(ptr noundef nonnull align 8 dereferenceable(8) %p)
          to label %invoke.cont54 unwind label %lpad53

invoke.cont54:                                    ; preds = %invoke.cont52
  invoke void @_ZN10params_ref8set_boolEPKcb(ptr noundef nonnull align 8 dereferenceable(8) %p, ptr noundef @.str.10, i1 noundef zeroext true)
          to label %invoke.cont56 unwind label %lpad55

invoke.cont56:                                    ; preds = %invoke.cont54
  invoke void @_ZN10params_ref8set_boolEPKcb(ptr noundef nonnull align 8 dereferenceable(8) %p, ptr noundef @.str.11, i1 noundef zeroext true)
          to label %invoke.cont57 unwind label %lpad55

invoke.cont57:                                    ; preds = %invoke.cont56
  invoke void @_ZN10params_ref8set_boolEPKcb(ptr noundef nonnull align 8 dereferenceable(8) %p, ptr noundef @.str.12, i1 noundef zeroext true)
          to label %invoke.cont58 unwind label %lpad55

invoke.cont58:                                    ; preds = %invoke.cont57
  %vtable = load ptr, ptr %this1, align 8
  %vfn = getelementptr inbounds ptr, ptr %vtable, i64 19
  %11 = load ptr, ptr %vfn, align 8
  invoke void %11(ptr noundef nonnull align 8 dereferenceable(792) %this1, ptr noundef nonnull align 8 dereferenceable(8) %p)
          to label %invoke.cont59 unwind label %lpad55

invoke.cont59:                                    ; preds = %invoke.cont58
  %m_model_counter = getelementptr inbounds %"class.opt::context", ptr %this1, i32 0, i32 27
  store i32 0, ptr %m_model_counter, align 8
  call void @_ZN10params_refD1Ev(ptr noundef nonnull align 8 dereferenceable(8) %p) #3
  ret void

lpad:                                             ; preds = %invoke.cont3, %invoke.cont, %entry
  %12 = landingpad { ptr, i32 }
          cleanup
  %13 = extractvalue { ptr, i32 } %12, 0
  store ptr %13, ptr %exn.slot, align 8
  %14 = extractvalue { ptr, i32 } %12, 1
  store i32 %14, ptr %ehselector.slot, align 4
  br label %ehcleanup82

lpad5:                                            ; preds = %invoke.cont4
  %15 = landingpad { ptr, i32 }
          cleanup
  %16 = extractvalue { ptr, i32 } %15, 0
  store ptr %16, ptr %exn.slot, align 8
  %17 = extractvalue { ptr, i32 } %15, 1
  store i32 %17, ptr %ehselector.slot, align 4
  br label %ehcleanup81

lpad7:                                            ; preds = %invoke.cont6
  %18 = landingpad { ptr, i32 }
          cleanup
  %19 = extractvalue { ptr, i32 } %18, 0
  store ptr %19, ptr %exn.slot, align 8
  %20 = extractvalue { ptr, i32 } %18, 1
  store i32 %20, ptr %ehselector.slot, align 4
  br label %ehcleanup80

lpad9:                                            ; preds = %invoke.cont8
  %21 = landingpad { ptr, i32 }
          cleanup
  %22 = extractvalue { ptr, i32 } %21, 0
  store ptr %22, ptr %exn.slot, align 8
  %23 = extractvalue { ptr, i32 } %21, 1
  store i32 %23, ptr %ehselector.slot, align 4
  br label %ehcleanup79

lpad11:                                           ; preds = %invoke.cont10
  %24 = landingpad { ptr, i32 }
          cleanup
  %25 = extractvalue { ptr, i32 } %24, 0
  store ptr %25, ptr %exn.slot, align 8
  %26 = extractvalue { ptr, i32 } %24, 1
  store i32 %26, ptr %ehselector.slot, align 4
  br label %ehcleanup78

lpad13:                                           ; preds = %invoke.cont12
  %27 = landingpad { ptr, i32 }
          cleanup
  %28 = extractvalue { ptr, i32 } %27, 0
  store ptr %28, ptr %exn.slot, align 8
  %29 = extractvalue { ptr, i32 } %27, 1
  store i32 %29, ptr %ehselector.slot, align 4
  br label %ehcleanup77

lpad15:                                           ; preds = %invoke.cont14
  %30 = landingpad { ptr, i32 }
          cleanup
  %31 = extractvalue { ptr, i32 } %30, 0
  store ptr %31, ptr %exn.slot, align 8
  %32 = extractvalue { ptr, i32 } %30, 1
  store i32 %32, ptr %ehselector.slot, align 4
  br label %ehcleanup76

lpad17:                                           ; preds = %invoke.cont16
  %33 = landingpad { ptr, i32 }
          cleanup
  %34 = extractvalue { ptr, i32 } %33, 0
  store ptr %34, ptr %exn.slot, align 8
  %35 = extractvalue { ptr, i32 } %33, 1
  store i32 %35, ptr %ehselector.slot, align 4
  br label %ehcleanup75

lpad19:                                           ; preds = %invoke.cont18
  %36 = landingpad { ptr, i32 }
          cleanup
  %37 = extractvalue { ptr, i32 } %36, 0
  store ptr %37, ptr %exn.slot, align 8
  %38 = extractvalue { ptr, i32 } %36, 1
  store i32 %38, ptr %ehselector.slot, align 4
  br label %ehcleanup74

lpad22:                                           ; preds = %invoke.cont20
  %39 = landingpad { ptr, i32 }
          cleanup
  %40 = extractvalue { ptr, i32 } %39, 0
  store ptr %40, ptr %exn.slot, align 8
  %41 = extractvalue { ptr, i32 } %39, 1
  store i32 %41, ptr %ehselector.slot, align 4
  br label %ehcleanup73

lpad24:                                           ; preds = %invoke.cont23
  %42 = landingpad { ptr, i32 }
          cleanup
  %43 = extractvalue { ptr, i32 } %42, 0
  store ptr %43, ptr %exn.slot, align 8
  %44 = extractvalue { ptr, i32 } %42, 1
  store i32 %44, ptr %ehselector.slot, align 4
  br label %ehcleanup72

lpad26:                                           ; preds = %invoke.cont25
  %45 = landingpad { ptr, i32 }
          cleanup
  %46 = extractvalue { ptr, i32 } %45, 0
  store ptr %46, ptr %exn.slot, align 8
  %47 = extractvalue { ptr, i32 } %45, 1
  store i32 %47, ptr %ehselector.slot, align 4
  br label %ehcleanup70

lpad28:                                           ; preds = %invoke.cont27
  %48 = landingpad { ptr, i32 }
          cleanup
  %49 = extractvalue { ptr, i32 } %48, 0
  store ptr %49, ptr %exn.slot, align 8
  %50 = extractvalue { ptr, i32 } %48, 1
  store i32 %50, ptr %ehselector.slot, align 4
  br label %ehcleanup69

lpad30:                                           ; preds = %invoke.cont32, %invoke.cont31, %invoke.cont29
  %51 = landingpad { ptr, i32 }
          cleanup
  %52 = extractvalue { ptr, i32 } %51, 0
  store ptr %52, ptr %exn.slot, align 8
  %53 = extractvalue { ptr, i32 } %51, 1
  store i32 %53, ptr %ehselector.slot, align 4
  br label %ehcleanup68

lpad34:                                           ; preds = %invoke.cont33
  %54 = landingpad { ptr, i32 }
          cleanup
  %55 = extractvalue { ptr, i32 } %54, 0
  store ptr %55, ptr %exn.slot, align 8
  %56 = extractvalue { ptr, i32 } %54, 1
  store i32 %56, ptr %ehselector.slot, align 4
  br label %ehcleanup67

lpad36:                                           ; preds = %invoke.cont35
  %57 = landingpad { ptr, i32 }
          cleanup
  %58 = extractvalue { ptr, i32 } %57, 0
  store ptr %58, ptr %exn.slot, align 8
  %59 = extractvalue { ptr, i32 } %57, 1
  store i32 %59, ptr %ehselector.slot, align 4
  br label %ehcleanup66

lpad38:                                           ; preds = %invoke.cont37
  %60 = landingpad { ptr, i32 }
          cleanup
  %61 = extractvalue { ptr, i32 } %60, 0
  store ptr %61, ptr %exn.slot, align 8
  %62 = extractvalue { ptr, i32 } %60, 1
  store i32 %62, ptr %ehselector.slot, align 4
  br label %ehcleanup65

lpad40:                                           ; preds = %invoke.cont39
  %63 = landingpad { ptr, i32 }
          cleanup
  %64 = extractvalue { ptr, i32 } %63, 0
  store ptr %64, ptr %exn.slot, align 8
  %65 = extractvalue { ptr, i32 } %63, 1
  store i32 %65, ptr %ehselector.slot, align 4
  br label %ehcleanup64

lpad42:                                           ; preds = %invoke.cont41
  %66 = landingpad { ptr, i32 }
          cleanup
  %67 = extractvalue { ptr, i32 } %66, 0
  store ptr %67, ptr %exn.slot, align 8
  %68 = extractvalue { ptr, i32 } %66, 1
  store i32 %68, ptr %ehselector.slot, align 4
  br label %ehcleanup63

lpad44:                                           ; preds = %invoke.cont43
  %69 = landingpad { ptr, i32 }
          cleanup
  %70 = extractvalue { ptr, i32 } %69, 0
  store ptr %70, ptr %exn.slot, align 8
  %71 = extractvalue { ptr, i32 } %69, 1
  store i32 %71, ptr %ehselector.slot, align 4
  br label %ehcleanup62

lpad46:                                           ; preds = %invoke.cont48, %invoke.cont47, %invoke.cont45
  %72 = landingpad { ptr, i32 }
          cleanup
  %73 = extractvalue { ptr, i32 } %72, 0
  store ptr %73, ptr %exn.slot, align 8
  %74 = extractvalue { ptr, i32 } %72, 1
  store i32 %74, ptr %ehselector.slot, align 4
  br label %ehcleanup61

lpad51:                                           ; preds = %invoke.cont49
  %75 = landingpad { ptr, i32 }
          cleanup
  %76 = extractvalue { ptr, i32 } %75, 0
  store ptr %76, ptr %exn.slot, align 8
  %77 = extractvalue { ptr, i32 } %75, 1
  store i32 %77, ptr %ehselector.slot, align 4
  call void @_ZNSaIcED1Ev(ptr noundef nonnull align 1 dereferenceable(1) %ref.tmp50) #3
  br label %ehcleanup60

lpad53:                                           ; preds = %invoke.cont52
  %78 = landingpad { ptr, i32 }
          cleanup
  %79 = extractvalue { ptr, i32 } %78, 0
  store ptr %79, ptr %exn.slot, align 8
  %80 = extractvalue { ptr, i32 } %78, 1
  store i32 %80, ptr %ehselector.slot, align 4
  br label %ehcleanup

lpad55:                                           ; preds = %invoke.cont58, %invoke.cont57, %invoke.cont56, %invoke.cont54
  %81 = landingpad { ptr, i32 }
          cleanup
  %82 = extractvalue { ptr, i32 } %81, 0
  store ptr %82, ptr %exn.slot, align 8
  %83 = extractvalue { ptr, i32 } %81, 1
  store i32 %83, ptr %ehselector.slot, align 4
  call void @_ZN10params_refD1Ev(ptr noundef nonnull align 8 dereferenceable(8) %p) #3
  br label %ehcleanup

ehcleanup:                                        ; preds = %lpad55, %lpad53
  call void @_ZNSt7__cxx1112basic_stringIcSt11char_traitsIcESaIcEED1Ev(ptr noundef nonnull align 8 dereferenceable(32) %m_unknown) #3
  br label %ehcleanup60

ehcleanup60:                                      ; preds = %ehcleanup, %lpad51
  call void @_ZN7svectorI6symboljED2Ev(ptr noundef nonnull align 8 dereferenceable(8) %m_labels) #3
  br label %ehcleanup61

ehcleanup61:                                      ; preds = %ehcleanup60, %lpad46
  call void @_ZN3refI6tacticED2Ev(ptr noundef nonnull align 8 dereferenceable(8) %m_simplify) #3
  br label %ehcleanup62

ehcleanup62:                                      ; preds = %ehcleanup61, %lpad44
  call void @_ZN10ref_vectorI4expr11ast_managerED2Ev(ptr noundef nonnull align 8 dereferenceable(16) %m_core) #3
  br label %ehcleanup63

ehcleanup63:                                      ; preds = %ehcleanup62, %lpad42
  call void @_ZN10ref_vectorI9func_decl11ast_managerED2Ev(ptr noundef nonnull align 8 dereferenceable(16) %m_objective_refs) #3
  br label %ehcleanup64

ehcleanup64:                                      ; preds = %ehcleanup63, %lpad40
  call void @_ZN7obj_mapI9func_declP4exprED2Ev(ptr noundef nonnull align 8 dereferenceable(24) %m_objective_orig) #3
  br label %ehcleanup65

ehcleanup65:                                      ; preds = %ehcleanup64, %lpad38
  call void @_ZN7obj_mapI9func_decljED2Ev(ptr noundef nonnull align 8 dereferenceable(24) %m_objective_fns) #3
  br label %ehcleanup66

ehcleanup66:                                      ; preds = %ehcleanup65, %lpad36
  call void @_ZN15ref_vector_coreI5model21ref_unmanaged_wrapperIS0_EED2Ev(ptr noundef nonnull align 8 dereferenceable(8) %m_model_fixed) #3
  br label %ehcleanup67

ehcleanup67:                                      ; preds = %ehcleanup66, %lpad34
  call void @_ZN3refI23generic_model_converterED2Ev(ptr noundef nonnull align 8 dereferenceable(8) %m_fm) #3
  br label %ehcleanup68

ehcleanup68:                                      ; preds = %ehcleanup67, %lpad30
  call void @_ZN3refI15model_converterED2Ev(ptr noundef nonnull align 8 dereferenceable(8) %m_model_converter) #3
  br label %ehcleanup69

ehcleanup69:                                      ; preds = %ehcleanup68, %lpad28
  call void @_ZN3refI5modelED2Ev(ptr noundef nonnull align 8 dereferenceable(8) %m_model) #3
  br label %ehcleanup70

ehcleanup70:                                      ; preds = %ehcleanup69, %lpad26
  call void @_ZN6vectorIN3opt7context9objectiveELb1EjED2Ev(ptr noundef nonnull align 8 dereferenceable(8) %m_objectives) #3
  call void @_ZN3opt7context12scoped_stateD2Ev(ptr noundef nonnull align 8 dereferenceable(152) %m_scoped_state) #3
  br label %ehcleanup72

ehcleanup72:                                      ; preds = %ehcleanup70, %lpad24
  call void @_ZN3mapI6symbolPN3opt6maxsmtE16symbol_hash_proc14symbol_eq_procED2Ev(ptr noundef nonnull align 8 dereferenceable(24) %m_maxsmts) #3
  br label %ehcleanup73

ehcleanup73:                                      ; preds = %ehcleanup72, %lpad22
  call void @_ZN3opt6optsmtD2Ev(ptr noundef nonnull align 8 dereferenceable(120) %m_optsmt) #3
  br label %ehcleanup74

ehcleanup74:                                      ; preds = %ehcleanup73, %lpad19
  call void @_ZN10params_refD1Ev(ptr noundef nonnull align 8 dereferenceable(8) %m_params) #3
  br label %ehcleanup75

ehcleanup75:                                      ; preds = %ehcleanup74, %lpad17
  call void @_ZN15ref_vector_coreI5model21ref_unmanaged_wrapperIS0_EED2Ev(ptr noundef nonnull align 8 dereferenceable(8) %m_box_models) #3
  br label %ehcleanup76

ehcleanup76:                                      ; preds = %ehcleanup75, %lpad15
  call void @_ZN10scoped_ptrIN2qe4qmaxEED2Ev(ptr noundef nonnull align 8 dereferenceable(8) %m_qmax) #3
  br label %ehcleanup77

ehcleanup77:                                      ; preds = %ehcleanup76, %lpad13
  call void @_ZN10scoped_ptrIN3opt11pareto_baseEED2Ev(ptr noundef nonnull align 8 dereferenceable(8) %m_pareto) #3
  br label %ehcleanup78

ehcleanup78:                                      ; preds = %ehcleanup77, %lpad11
  call void @_ZN3refI6solverED2Ev(ptr noundef nonnull align 8 dereferenceable(8) %m_sat_solver) #3
  br label %ehcleanup79

ehcleanup79:                                      ; preds = %ehcleanup78, %lpad9
  call void @_ZN3refI6solverED2Ev(ptr noundef nonnull align 8 dereferenceable(8) %m_solver) #3
  br label %ehcleanup80

ehcleanup80:                                      ; preds = %ehcleanup79, %lpad7
  call void @_ZN3refIN3opt10opt_solverEED2Ev(ptr noundef nonnull align 8 dereferenceable(8) %m_opt_solver) #3
  br label %ehcleanup81

ehcleanup81:                                      ; preds = %ehcleanup80, %lpad5
  call void @_ZN10ref_vectorI4expr11ast_managerED2Ev(ptr noundef nonnull align 8 dereferenceable(16) %m_hard_constraints) #3
  br label %ehcleanup82

ehcleanup82:                                      ; preds = %ehcleanup81, %lpad
  call void @_ZNSt8functionIFvRN3opt10on_model_tER3refI5modelEEED2Ev(ptr noundef nonnull align 8 dereferenceable(32) %m_on_model_eh) #3
  %84 = getelementptr inbounds i8, ptr %this1, i64 80
  call void @_ZN3opt14maxsat_contextD2Ev(ptr noundef nonnull align 8 dereferenceable(8) %84) #3
  %85 = getelementptr inbounds i8, ptr %this1, i64 72
  call void @_ZN3opt15pareto_callbackD2Ev(ptr noundef nonnull align 8 dereferenceable(8) %85) #3
  call void @_ZN11opt_wrapperD2Ev(ptr noundef nonnull align 8 dereferenceable(72) %this1) #3
  br label %eh.resume

eh.resume:                                        ; preds = %ehcleanup82
  %exn = load ptr, ptr %exn.slot, align 8
  %sel = load i32, ptr %ehselector.slot, align 4
  %lpad.val = insertvalue { ptr, i32 } poison, ptr %exn, 0
  %lpad.val86 = insertvalue { ptr, i32 } %lpad.val, i32 %sel, 1
  resume { ptr, i32 } %lpad.val86
}

; Function Attrs: mustprogress uwtable
define linkonce_odr hidden void @_ZN11opt_wrapperC2ER11ast_manager(ptr noundef nonnull align 8 dereferenceable(72) %this, ptr noundef nonnull align 8 dereferenceable(976) %m) unnamed_addr #5 comdat align 2 {
entry:
  %this.addr = alloca ptr, align 8
  %m.addr = alloca ptr, align 8
  store ptr %this, ptr %this.addr, align 8
  store ptr %m, ptr %m.addr, align 8
  %this1 = load ptr, ptr %this.addr, align 8
  %0 = load ptr, ptr %m.addr, align 8
  call void @_ZN16check_sat_resultC2ER11ast_manager(ptr noundef nonnull align 8 dereferenceable(72) %this1, ptr noundef nonnull align 8 dereferenceable(976) %0)
  store ptr getelementptr inbounds ({ [22 x ptr] }, ptr @_ZTV11opt_wrapper, i32 0, inrange i32 0, i32 2), ptr %this1, align 8
  ret void
}

; Function Attrs: mustprogress nounwind uwtable
define linkonce_odr hidden void @_ZN3opt15pareto_callbackC2Ev(ptr noundef nonnull align 8 dereferenceable(8) %this) unnamed_addr #4 comdat align 2 {
entry:
  %this.addr = alloca ptr, align 8
  store ptr %this, ptr %this.addr, align 8
  %this1 = load ptr, ptr %this.addr, align 8
  store ptr getelementptr inbounds ({ [9 x ptr] }, ptr @_ZTVN3opt15pareto_callbackE, i32 0, inrange i32 0, i32 2), ptr %this1, align 8
  ret void
}

; Function Attrs: mustprogress nounwind uwtable
define linkonce_odr hidden void @_ZN3opt14maxsat_contextC2Ev(ptr noundef nonnull align 8 dereferenceable(8) %this) unnamed_addr #4 comdat align 2 {
entry:
  %this.addr = alloca ptr, align 8
  store ptr %this, ptr %this.addr, align 8
  %this1 = load ptr, ptr %this.addr, align 8
  store ptr getelementptr inbounds ({ [19 x ptr] }, ptr @_ZTVN3opt14maxsat_contextE, i32 0, inrange i32 0, i32 2), ptr %this1, align 8
  ret void
}

; Function Attrs: mustprogress nounwind uwtable
define linkonce_odr hidden void @_ZNSt8functionIFvRN3opt10on_model_tER3refI5modelEEEC2Ev(ptr noundef nonnull align 8 dereferenceable(32) %this) unnamed_addr #4 comdat align 2 {
entry:
  %this.addr = alloca ptr, align 8
  store ptr %this, ptr %this.addr, align 8
  %this1 = load ptr, ptr %this.addr, align 8
  %0 = getelementptr inbounds i8, ptr %this1, i64 0
  call void @llvm.memset.p0.i64(ptr align 8 %0, i8 0, i64 24, i1 false)
  call void @_ZNSt14_Function_baseC2Ev(ptr noundef nonnull align 8 dereferenceable(24) %this1) #3
  %_M_invoker = getelementptr inbounds %"class.std::function", ptr %this1, i32 0, i32 1
  store ptr null, ptr %_M_invoker, align 8
  ret void
}

declare void @_ZN10arith_utilC1ER11ast_manager(ptr noundef nonnull align 8 dereferenceable(16), ptr noundef nonnull align 8 dereferenceable(976)) unnamed_addr #1

declare void @_ZN7bv_utilC1ER11ast_manager(ptr noundef nonnull align 8 dereferenceable(24), ptr noundef nonnull align 8 dereferenceable(976)) unnamed_addr #1

; Function Attrs: mustprogress uwtable
define linkonce_odr hidden void @_ZN10ref_vectorI4expr11ast_managerEC2ERS1_(ptr noundef nonnull align 8 dereferenceable(16) %this, ptr noundef nonnull align 8 dereferenceable(976) %m) unnamed_addr #5 comdat align 2 {
entry:
  %this.addr = alloca ptr, align 8
  %m.addr = alloca ptr, align 8
  %ref.tmp = alloca %class.ref_manager_wrapper, align 8
  store ptr %this, ptr %this.addr, align 8
  store ptr %m, ptr %m.addr, align 8
  %this1 = load ptr, ptr %this.addr, align 8
  %0 = load ptr, ptr %m.addr, align 8
  call void @_ZN19ref_manager_wrapperI4expr11ast_managerEC2ERS1_(ptr noundef nonnull align 8 dereferenceable(8) %ref.tmp, ptr noundef nonnull align 8 dereferenceable(976) %0)
  call void @_ZN15ref_vector_coreI4expr19ref_manager_wrapperIS0_11ast_managerEEC2ERKS3_(ptr noundef nonnull align 8 dereferenceable(16) %this1, ptr noundef nonnull align 8 dereferenceable(8) %ref.tmp)
  ret void
}

; Function Attrs: mustprogress nounwind uwtable
define linkonce_odr hidden void @_ZN3refIN3opt10opt_solverEEC2Ev(ptr noundef nonnull align 8 dereferenceable(8) %this) unnamed_addr #4 comdat align 2 {
entry:
  %this.addr = alloca ptr, align 8
  store ptr %this, ptr %this.addr, align 8
  %this1 = load ptr, ptr %this.addr, align 8
  %m_ptr = getelementptr inbounds %class.ref.34, ptr %this1, i32 0, i32 0
  store ptr null, ptr %m_ptr, align 8
  ret void
}

; Function Attrs: mustprogress uwtable
define linkonce_odr hidden void @_ZN3refI6solverEC2EPS0_(ptr noundef nonnull align 8 dereferenceable(8) %this, ptr noundef %ptr) unnamed_addr #5 comdat align 2 {
entry:
  %this.addr = alloca ptr, align 8
  %ptr.addr = alloca ptr, align 8
  store ptr %this, ptr %this.addr, align 8
  store ptr %ptr, ptr %ptr.addr, align 8
  %this1 = load ptr, ptr %this.addr, align 8
  %m_ptr = getelementptr inbounds %class.ref.35, ptr %this1, i32 0, i32 0
  %0 = load ptr, ptr %ptr.addr, align 8
  store ptr %0, ptr %m_ptr, align 8
  call void @_ZN3refI6solverE7inc_refEv(ptr noundef nonnull align 8 dereferenceable(8) %this1)
  ret void
}

; Function Attrs: mustprogress nounwind uwtable
define linkonce_odr hidden void @_ZN3refI6solverEC2Ev(ptr noundef nonnull align 8 dereferenceable(8) %this) unnamed_addr #4 comdat align 2 {
entry:
  %this.addr = alloca ptr, align 8
  store ptr %this, ptr %this.addr, align 8
  %this1 = load ptr, ptr %this.addr, align 8
  %m_ptr = getelementptr inbounds %class.ref.35, ptr %this1, i32 0, i32 0
  store ptr null, ptr %m_ptr, align 8
  ret void
}

; Function Attrs: mustprogress nounwind uwtable
define linkonce_odr hidden void @_ZN10scoped_ptrIN3opt11pareto_baseEEC2EPS1_(ptr noundef nonnull align 8 dereferenceable(8) %this, ptr noundef %ptr) unnamed_addr #4 comdat align 2 {
entry:
  %this.addr = alloca ptr, align 8
  %ptr.addr = alloca ptr, align 8
  store ptr %this, ptr %this.addr, align 8
  store ptr %ptr, ptr %ptr.addr, align 8
  %this1 = load ptr, ptr %this.addr, align 8
  %m_ptr = getelementptr inbounds %class.scoped_ptr, ptr %this1, i32 0, i32 0
  %0 = load ptr, ptr %ptr.addr, align 8
  store ptr %0, ptr %m_ptr, align 8
  ret void
}

; Function Attrs: mustprogress nounwind uwtable
define linkonce_odr hidden void @_ZN10scoped_ptrIN2qe4qmaxEEC2EPS1_(ptr noundef nonnull align 8 dereferenceable(8) %this, ptr noundef %ptr) unnamed_addr #4 comdat align 2 {
entry:
  %this.addr = alloca ptr, align 8
  %ptr.addr = alloca ptr, align 8
  store ptr %this, ptr %this.addr, align 8
  store ptr %ptr, ptr %ptr.addr, align 8
  %this1 = load ptr, ptr %this.addr, align 8
  %m_ptr = getelementptr inbounds %class.scoped_ptr.36, ptr %this1, i32 0, i32 0
  %0 = load ptr, ptr %ptr.addr, align 8
  store ptr %0, ptr %m_ptr, align 8
  ret void
}

; Function Attrs: mustprogress uwtable
define linkonce_odr hidden void @_ZN15ref_vector_coreI5model21ref_unmanaged_wrapperIS0_EEC2Ev(ptr noundef nonnull align 8 dereferenceable(8) %this) unnamed_addr #5 comdat align 2 {
entry:
  %this.addr = alloca ptr, align 8
  store ptr %this, ptr %this.addr, align 8
  %this1 = load ptr, ptr %this.addr, align 8
  %m_nodes = getelementptr inbounds %class.ref_vector_core.37, ptr %this1, i32 0, i32 0
  call void @_ZN10ptr_vectorI5modelEC2Ev(ptr noundef nonnull align 8 dereferenceable(8) %m_nodes)
  ret void
}

; Function Attrs: mustprogress nounwind uwtable
define linkonce_odr hidden void @_ZN10params_refC2Ev(ptr noundef nonnull align 8 dereferenceable(8) %this) unnamed_addr #4 comdat align 2 {
entry:
  %this.addr = alloca ptr, align 8
  store ptr %this, ptr %this.addr, align 8
  %this1 = load ptr, ptr %this.addr, align 8
  %m_params = getelementptr inbounds %class.params_ref, ptr %this1, i32 0, i32 0
  store ptr null, ptr %m_params, align 8
  ret void
}

; Function Attrs: mustprogress uwtable
define linkonce_odr hidden void @_ZN3opt6optsmtC2ER11ast_managerRNS_7contextE(ptr noundef nonnull align 8 dereferenceable(120) %this, ptr noundef nonnull align 8 dereferenceable(976) %m, ptr noundef nonnull align 8 dereferenceable(792) %ctx) unnamed_addr #5 comdat align 2 personality ptr @__gxx_personality_v0 {
entry:
  %this.addr = alloca ptr, align 8
  %m.addr = alloca ptr, align 8
  %ctx.addr = alloca ptr, align 8
  %exn.slot = alloca ptr, align 8
  %ehselector.slot = alloca i32, align 4
  store ptr %this, ptr %this.addr, align 8
  store ptr %m, ptr %m.addr, align 8
  store ptr %ctx, ptr %ctx.addr, align 8
  %this1 = load ptr, ptr %this.addr, align 8
  %m2 = getelementptr inbounds %"class.opt::optsmt", ptr %this1, i32 0, i32 0
  %0 = load ptr, ptr %m.addr, align 8
  store ptr %0, ptr %m2, align 8
  %m_context = getelementptr inbounds %"class.opt::optsmt", ptr %this1, i32 0, i32 1
  %1 = load ptr, ptr %ctx.addr, align 8
  store ptr %1, ptr %m_context, align 8
  %m_s = getelementptr inbounds %"class.opt::optsmt", ptr %this1, i32 0, i32 2
  store ptr null, ptr %m_s, align 8
  %m_lower = getelementptr inbounds %"class.opt::optsmt", ptr %this1, i32 0, i32 3
  call void @_ZN6vectorI16inf_eps_rationalI12inf_rationalELb1EjEC2Ev(ptr noundef nonnull align 8 dereferenceable(8) %m_lower) #3
  %m_upper = getelementptr inbounds %"class.opt::optsmt", ptr %this1, i32 0, i32 4
  call void @_ZN6vectorI16inf_eps_rationalI12inf_rationalELb1EjEC2Ev(ptr noundef nonnull align 8 dereferenceable(8) %m_upper) #3
  %m_objs = getelementptr inbounds %"class.opt::optsmt", ptr %this1, i32 0, i32 5
  %2 = load ptr, ptr %m.addr, align 8
  invoke void @_ZN10ref_vectorI3app11ast_managerEC2ERS1_(ptr noundef nonnull align 8 dereferenceable(16) %m_objs, ptr noundef nonnull align 8 dereferenceable(976) %2)
          to label %invoke.cont unwind label %lpad

invoke.cont:                                      ; preds = %entry
  %m_lower_fmls = getelementptr inbounds %"class.opt::optsmt", ptr %this1, i32 0, i32 6
  %3 = load ptr, ptr %m.addr, align 8
  invoke void @_ZN10ref_vectorI4expr11ast_managerEC2ERS1_(ptr noundef nonnull align 8 dereferenceable(16) %m_lower_fmls, ptr noundef nonnull align 8 dereferenceable(976) %3)
          to label %invoke.cont4 unwind label %lpad3

invoke.cont4:                                     ; preds = %invoke.cont
  %m_vars = getelementptr inbounds %"class.opt::optsmt", ptr %this1, i32 0, i32 7
  invoke void @_ZN7svectorIijEC2Ev(ptr noundef nonnull align 8 dereferenceable(8) %m_vars)
          to label %invoke.cont6 unwind label %lpad5

invoke.cont6:                                     ; preds = %invoke.cont4
  %m_optsmt_engine = getelementptr inbounds %"class.opt::optsmt", ptr %this1, i32 0, i32 8
  invoke void @_ZN6symbolC2Ev(ptr noundef nonnull align 8 dereferenceable(8) %m_optsmt_engine)
          to label %invoke.cont8 unwind label %lpad7

invoke.cont8:                                     ; preds = %invoke.cont6
  %m_model = getelementptr inbounds %"class.opt::optsmt", ptr %this1, i32 0, i32 9
  invoke void @_ZN3refI5modelEC2Ev(ptr noundef nonnull align 8 dereferenceable(8) %m_model)
          to label %invoke.cont9 unwind label %lpad7

invoke.cont9:                                     ; preds = %invoke.cont8
  %m_best_model = getelementptr inbounds %"class.opt::optsmt", ptr %this1, i32 0, i32 10
  invoke void @_ZN3refI5modelEC2Ev(ptr noundef nonnull align 8 dereferenceable(8) %m_best_model)
          to label %invoke.cont11 unwind label %lpad10

invoke.cont11:                                    ; preds = %invoke.cont9
  %m_labels = getelementptr inbounds %"class.opt::optsmt", ptr %this1, i32 0, i32 11
  invoke void @_ZN7svectorI6symboljEC2Ev(ptr noundef nonnull align 8 dereferenceable(8) %m_labels)
          to label %invoke.cont13 unwind label %lpad12

invoke.cont13:                                    ; preds = %invoke.cont11
  %m_models = getelementptr inbounds %"class.opt::optsmt", ptr %this1, i32 0, i32 12
  invoke void @_ZN15ref_vector_coreI5model21ref_unmanaged_wrapperIS0_EEC2Ev(ptr noundef nonnull align 8 dereferenceable(8) %m_models)
          to label %invoke.cont15 unwind label %lpad14

invoke.cont15:                                    ; preds = %invoke.cont13
  ret void

lpad:                                             ; preds = %entry
  %4 = landingpad { ptr, i32 }
          cleanup
  %5 = extractvalue { ptr, i32 } %4, 0
  store ptr %5, ptr %exn.slot, align 8
  %6 = extractvalue { ptr, i32 } %4, 1
  store i32 %6, ptr %ehselector.slot, align 4
  br label %ehcleanup20

lpad3:                                            ; preds = %invoke.cont
  %7 = landingpad { ptr, i32 }
          cleanup
  %8 = extractvalue { ptr, i32 } %7, 0
  store ptr %8, ptr %exn.slot, align 8
  %9 = extractvalue { ptr, i32 } %7, 1
  store i32 %9, ptr %ehselector.slot, align 4
  br label %ehcleanup19

lpad5:                                            ; preds = %invoke.cont4
  %10 = landingpad { ptr, i32 }
          cleanup
  %11 = extractvalue { ptr, i32 } %10, 0
  store ptr %11, ptr %exn.slot, align 8
  %12 = extractvalue { ptr, i32 } %10, 1
  store i32 %12, ptr %ehselector.slot, align 4
  br label %ehcleanup18

lpad7:                                            ; preds = %invoke.cont8, %invoke.cont6
  %13 = landingpad { ptr, i32 }
          cleanup
  %14 = extractvalue { ptr, i32 } %13, 0
  store ptr %14, ptr %exn.slot, align 8
  %15 = extractvalue { ptr, i32 } %13, 1
  store i32 %15, ptr %ehselector.slot, align 4
  br label %ehcleanup17

lpad10:                                           ; preds = %invoke.cont9
  %16 = landingpad { ptr, i32 }
          cleanup
  %17 = extractvalue { ptr, i32 } %16, 0
  store ptr %17, ptr %exn.slot, align 8
  %18 = extractvalue { ptr, i32 } %16, 1
  store i32 %18, ptr %ehselector.slot, align 4
  br label %ehcleanup16

lpad12:                                           ; preds = %invoke.cont11
  %19 = landingpad { ptr, i32 }
          cleanup
  %20 = extractvalue { ptr, i32 } %19, 0
  store ptr %20, ptr %exn.slot, align 8
  %21 = extractvalue { ptr, i32 } %19, 1
  store i32 %21, ptr %ehselector.slot, align 4
  br label %ehcleanup

lpad14:                                           ; preds = %invoke.cont13
  %22 = landingpad { ptr, i32 }
          cleanup
  %23 = extractvalue { ptr, i32 } %22, 0
  store ptr %23, ptr %exn.slot, align 8
  %24 = extractvalue { ptr, i32 } %22, 1
  store i32 %24, ptr %ehselector.slot, align 4
  call void @_ZN7svectorI6symboljED2Ev(ptr noundef nonnull align 8 dereferenceable(8) %m_labels) #3
  br label %ehcleanup

ehcleanup:                                        ; preds = %lpad14, %lpad12
  call void @_ZN3refI5modelED2Ev(ptr noundef nonnull align 8 dereferenceable(8) %m_best_model) #3
  br label %ehcleanup16

ehcleanup16:                                      ; preds = %ehcleanup, %lpad10
  call void @_ZN3refI5modelED2Ev(ptr noundef nonnull align 8 dereferenceable(8) %m_model) #3
  br label %ehcleanup17

ehcleanup17:                                      ; preds = %ehcleanup16, %lpad7
  call void @_ZN7svectorIijED2Ev(ptr noundef nonnull align 8 dereferenceable(8) %m_vars) #3
  br label %ehcleanup18

ehcleanup18:                                      ; preds = %ehcleanup17, %lpad5
  call void @_ZN10ref_vectorI4expr11ast_managerED2Ev(ptr noundef nonnull align 8 dereferenceable(16) %m_lower_fmls) #3
  br label %ehcleanup19

ehcleanup19:                                      ; preds = %ehcleanup18, %lpad3
  call void @_ZN10ref_vectorI3app11ast_managerED2Ev(ptr noundef nonnull align 8 dereferenceable(16) %m_objs) #3
  br label %ehcleanup20

ehcleanup20:                                      ; preds = %ehcleanup19, %lpad
  call void @_ZN6vectorI16inf_eps_rationalI12inf_rationalELb1EjED2Ev(ptr noundef nonnull align 8 dereferenceable(8) %m_upper) #3
  call void @_ZN6vectorI16inf_eps_rationalI12inf_rationalELb1EjED2Ev(ptr noundef nonnull align 8 dereferenceable(8) %m_lower) #3
  br label %eh.resume

eh.resume:                                        ; preds = %ehcleanup20
  %exn = load ptr, ptr %exn.slot, align 8
  %sel = load i32, ptr %ehselector.slot, align 4
  %lpad.val = insertvalue { ptr, i32 } poison, ptr %exn, 0
  %lpad.val22 = insertvalue { ptr, i32 } %lpad.val, i32 %sel, 1
  resume { ptr, i32 } %lpad.val22
}

; Function Attrs: mustprogress uwtable
define linkonce_odr hidden void @_ZN3mapI6symbolPN3opt6maxsmtE16symbol_hash_proc14symbol_eq_procEC2ERKS4_RKS5_(ptr noundef nonnull align 8 dereferenceable(24) %this, ptr noundef nonnull align 1 dereferenceable(1) %h, ptr noundef nonnull align 1 dereferenceable(1) %e) unnamed_addr #5 comdat align 2 {
entry:
  %this.addr = alloca ptr, align 8
  %h.addr = alloca ptr, align 8
  %e.addr = alloca ptr, align 8
  store ptr %this, ptr %this.addr, align 8
  store ptr %h, ptr %h.addr, align 8
  store ptr %e, ptr %e.addr, align 8
  %this1 = load ptr, ptr %this.addr, align 8
  %0 = load ptr, ptr %h.addr, align 8
  %1 = load ptr, ptr %e.addr, align 8
  call void @_ZN9table2mapI17default_map_entryI6symbolPN3opt6maxsmtEE16symbol_hash_proc14symbol_eq_procEC2ERKS6_RKS7_(ptr noundef nonnull align 8 dereferenceable(24) %this1, ptr noundef nonnull align 1 dereferenceable(1) %0, ptr noundef nonnull align 1 dereferenceable(1) %1)
  ret void
}

; Function Attrs: mustprogress uwtable
define linkonce_odr hidden void @_ZN3opt7context12scoped_stateC2ER11ast_manager(ptr noundef nonnull align 8 dereferenceable(152) %this, ptr noundef nonnull align 8 dereferenceable(976) %m) unnamed_addr #5 comdat align 2 personality ptr @__gxx_personality_v0 {
entry:
  %this.addr = alloca ptr, align 8
  %m.addr = alloca ptr, align 8
  %exn.slot = alloca ptr, align 8
  %ehselector.slot = alloca i32, align 4
  %ref.tmp = alloca %struct.symbol_hash_proc, align 1
  %ref.tmp9 = alloca %struct.symbol_eq_proc, align 1
  store ptr %this, ptr %this.addr, align 8
  store ptr %m, ptr %m.addr, align 8
  %this1 = load ptr, ptr %this.addr, align 8
  %m2 = getelementptr inbounds %"class.opt::context::scoped_state", ptr %this1, i32 0, i32 0
  %0 = load ptr, ptr %m.addr, align 8
  store ptr %0, ptr %m2, align 8
  %m_arith = getelementptr inbounds %"class.opt::context::scoped_state", ptr %this1, i32 0, i32 1
  %1 = load ptr, ptr %m.addr, align 8
  call void @_ZN10arith_utilC1ER11ast_manager(ptr noundef nonnull align 8 dereferenceable(16) %m_arith, ptr noundef nonnull align 8 dereferenceable(976) %1)
  %m_bv = getelementptr inbounds %"class.opt::context::scoped_state", ptr %this1, i32 0, i32 2
  %2 = load ptr, ptr %m.addr, align 8
  call void @_ZN7bv_utilC1ER11ast_manager(ptr noundef nonnull align 8 dereferenceable(24) %m_bv, ptr noundef nonnull align 8 dereferenceable(976) %2)
  %m_hard_lim = getelementptr inbounds %"class.opt::context::scoped_state", ptr %this1, i32 0, i32 3
  call void @_ZN7svectorIjjEC2Ev(ptr noundef nonnull align 8 dereferenceable(8) %m_hard_lim)
  %m_asms_lim = getelementptr inbounds %"class.opt::context::scoped_state", ptr %this1, i32 0, i32 4
  invoke void @_ZN7svectorIjjEC2Ev(ptr noundef nonnull align 8 dereferenceable(8) %m_asms_lim)
          to label %invoke.cont unwind label %lpad

invoke.cont:                                      ; preds = %entry
  %m_objectives_lim = getelementptr inbounds %"class.opt::context::scoped_state", ptr %this1, i32 0, i32 5
  invoke void @_ZN7svectorIjjEC2Ev(ptr noundef nonnull align 8 dereferenceable(8) %m_objectives_lim)
          to label %invoke.cont4 unwind label %lpad3

invoke.cont4:                                     ; preds = %invoke.cont
  %m_objectives_term_trail = getelementptr inbounds %"class.opt::context::scoped_state", ptr %this1, i32 0, i32 6
  invoke void @_ZN7svectorIjjEC2Ev(ptr noundef nonnull align 8 dereferenceable(8) %m_objectives_term_trail)
          to label %invoke.cont6 unwind label %lpad5

invoke.cont6:                                     ; preds = %invoke.cont4
  %m_objectives_term_trail_lim = getelementptr inbounds %"class.opt::context::scoped_state", ptr %this1, i32 0, i32 7
  invoke void @_ZN7svectorIjjEC2Ev(ptr noundef nonnull align 8 dereferenceable(8) %m_objectives_term_trail_lim)
          to label %invoke.cont8 unwind label %lpad7

invoke.cont8:                                     ; preds = %invoke.cont6
  %m_indices = getelementptr inbounds %"class.opt::context::scoped_state", ptr %this1, i32 0, i32 8
  invoke void @_ZN3mapI6symbolj16symbol_hash_proc14symbol_eq_procEC2ERKS1_RKS2_(ptr noundef nonnull align 8 dereferenceable(24) %m_indices, ptr noundef nonnull align 1 dereferenceable(1) %ref.tmp, ptr noundef nonnull align 1 dereferenceable(1) %ref.tmp9)
          to label %invoke.cont11 unwind label %lpad10

invoke.cont11:                                    ; preds = %invoke.cont8
  %m_hard = getelementptr inbounds %"class.opt::context::scoped_state", ptr %this1, i32 0, i32 9
  %3 = load ptr, ptr %m.addr, align 8
  invoke void @_ZN10ref_vectorI4expr11ast_managerEC2ERS1_(ptr noundef nonnull align 8 dereferenceable(16) %m_hard, ptr noundef nonnull align 8 dereferenceable(976) %3)
          to label %invoke.cont13 unwind label %lpad12

invoke.cont13:                                    ; preds = %invoke.cont11
  %m_asms = getelementptr inbounds %"class.opt::context::scoped_state", ptr %this1, i32 0, i32 10
  %4 = load ptr, ptr %m.addr, align 8
  invoke void @_ZN10ref_vectorI4expr11ast_managerEC2ERS1_(ptr noundef nonnull align 8 dereferenceable(16) %m_asms, ptr noundef nonnull align 8 dereferenceable(976) %4)
          to label %invoke.cont15 unwind label %lpad14

invoke.cont15:                                    ; preds = %invoke.cont13
  %m_objectives = getelementptr inbounds %"class.opt::context::scoped_state", ptr %this1, i32 0, i32 11
  call void @_ZN6vectorIN3opt7context9objectiveELb1EjEC2Ev(ptr noundef nonnull align 8 dereferenceable(8) %m_objectives) #3
  ret void

lpad:                                             ; preds = %entry
  %5 = landingpad { ptr, i32 }
          cleanup
  %6 = extractvalue { ptr, i32 } %5, 0
  store ptr %6, ptr %exn.slot, align 8
  %7 = extractvalue { ptr, i32 } %5, 1
  store i32 %7, ptr %ehselector.slot, align 4
  br label %ehcleanup20

lpad3:                                            ; preds = %invoke.cont
  %8 = landingpad { ptr, i32 }
          cleanup
  %9 = extractvalue { ptr, i32 } %8, 0
  store ptr %9, ptr %exn.slot, align 8
  %10 = extractvalue { ptr, i32 } %8, 1
  store i32 %10, ptr %ehselector.slot, align 4
  br label %ehcleanup19

lpad5:                                            ; preds = %invoke.cont4
  %11 = landingpad { ptr, i32 }
          cleanup
  %12 = extractvalue { ptr, i32 } %11, 0
  store ptr %12, ptr %exn.slot, align 8
  %13 = extractvalue { ptr, i32 } %11, 1
  store i32 %13, ptr %ehselector.slot, align 4
  br label %ehcleanup18

lpad7:                                            ; preds = %invoke.cont6
  %14 = landingpad { ptr, i32 }
          cleanup
  %15 = extractvalue { ptr, i32 } %14, 0
  store ptr %15, ptr %exn.slot, align 8
  %16 = extractvalue { ptr, i32 } %14, 1
  store i32 %16, ptr %ehselector.slot, align 4
  br label %ehcleanup17

lpad10:                                           ; preds = %invoke.cont8
  %17 = landingpad { ptr, i32 }
          cleanup
  %18 = extractvalue { ptr, i32 } %17, 0
  store ptr %18, ptr %exn.slot, align 8
  %19 = extractvalue { ptr, i32 } %17, 1
  store i32 %19, ptr %ehselector.slot, align 4
  br label %ehcleanup16

lpad12:                                           ; preds = %invoke.cont11
  %20 = landingpad { ptr, i32 }
          cleanup
  %21 = extractvalue { ptr, i32 } %20, 0
  store ptr %21, ptr %exn.slot, align 8
  %22 = extractvalue { ptr, i32 } %20, 1
  store i32 %22, ptr %ehselector.slot, align 4
  br label %ehcleanup

lpad14:                                           ; preds = %invoke.cont13
  %23 = landingpad { ptr, i32 }
          cleanup
  %24 = extractvalue { ptr, i32 } %23, 0
  store ptr %24, ptr %exn.slot, align 8
  %25 = extractvalue { ptr, i32 } %23, 1
  store i32 %25, ptr %ehselector.slot, align 4
  call void @_ZN10ref_vectorI4expr11ast_managerED2Ev(ptr noundef nonnull align 8 dereferenceable(16) %m_hard) #3
  br label %ehcleanup

ehcleanup:                                        ; preds = %lpad14, %lpad12
  call void @_ZN3mapI6symbolj16symbol_hash_proc14symbol_eq_procED2Ev(ptr noundef nonnull align 8 dereferenceable(24) %m_indices) #3
  br label %ehcleanup16

ehcleanup16:                                      ; preds = %ehcleanup, %lpad10
  call void @_ZN7svectorIjjED2Ev(ptr noundef nonnull align 8 dereferenceable(8) %m_objectives_term_trail_lim) #3
  br label %ehcleanup17

ehcleanup17:                                      ; preds = %ehcleanup16, %lpad7
  call void @_ZN7svectorIjjED2Ev(ptr noundef nonnull align 8 dereferenceable(8) %m_objectives_term_trail) #3
  br label %ehcleanup18

ehcleanup18:                                      ; preds = %ehcleanup17, %lpad5
  call void @_ZN7svectorIjjED2Ev(ptr noundef nonnull align 8 dereferenceable(8) %m_objectives_lim) #3
  br label %ehcleanup19

ehcleanup19:                                      ; preds = %ehcleanup18, %lpad3
  call void @_ZN7svectorIjjED2Ev(ptr noundef nonnull align 8 dereferenceable(8) %m_asms_lim) #3
  br label %ehcleanup20

ehcleanup20:                                      ; preds = %ehcleanup19, %lpad
  call void @_ZN7svectorIjjED2Ev(ptr noundef nonnull align 8 dereferenceable(8) %m_hard_lim) #3
  br label %eh.resume

eh.resume:                                        ; preds = %ehcleanup20
  %exn = load ptr, ptr %exn.slot, align 8
  %sel = load i32, ptr %ehselector.slot, align 4
  %lpad.val = insertvalue { ptr, i32 } poison, ptr %exn, 0
  %lpad.val21 = insertvalue { ptr, i32 } %lpad.val, i32 %sel, 1
  resume { ptr, i32 } %lpad.val21
}

; Function Attrs: mustprogress nounwind uwtable
define linkonce_odr hidden void @_ZN6vectorIN3opt7context9objectiveELb1EjEC2Ev(ptr noundef nonnull align 8 dereferenceable(8) %this) unnamed_addr #4 comdat align 2 {
entry:
  %this.addr = alloca ptr, align 8
  store ptr %this, ptr %this.addr, align 8
  %this1 = load ptr, ptr %this.addr, align 8
  %m_data = getelementptr inbounds %class.vector.1, ptr %this1, i32 0, i32 0
  store ptr null, ptr %m_data, align 8
  ret void
}

; Function Attrs: mustprogress nounwind uwtable
define linkonce_odr hidden void @_ZN3refI5modelEC2Ev(ptr noundef nonnull align 8 dereferenceable(8) %this) unnamed_addr #4 comdat align 2 {
entry:
  %this.addr = alloca ptr, align 8
  store ptr %this, ptr %this.addr, align 8
  %this1 = load ptr, ptr %this.addr, align 8
  %m_ptr = getelementptr inbounds %class.ref.46, ptr %this1, i32 0, i32 0
  store ptr null, ptr %m_ptr, align 8
  ret void
}

; Function Attrs: mustprogress nounwind uwtable
define linkonce_odr hidden void @_ZN3refI15model_converterEC2Ev(ptr noundef nonnull align 8 dereferenceable(8) %this) unnamed_addr #4 comdat align 2 {
entry:
  %this.addr = alloca ptr, align 8
  store ptr %this, ptr %this.addr, align 8
  %this1 = load ptr, ptr %this.addr, align 8
  %m_ptr = getelementptr inbounds %class.ref, ptr %this1, i32 0, i32 0
  store ptr null, ptr %m_ptr, align 8
  ret void
}

declare noalias noundef ptr @_ZN6memory8allocateEm(i64 noundef) #1

; Function Attrs: mustprogress uwtable
define linkonce_odr hidden void @_ZN23generic_model_converterC2ER11ast_managerPKc(ptr noundef nonnull align 8 dereferenceable(80) %this, ptr noundef nonnull align 8 dereferenceable(976) %m, ptr noundef %orig) unnamed_addr #5 comdat align 2 personality ptr @__gxx_personality_v0 {
entry:
  %this.addr = alloca ptr, align 8
  %m.addr = alloca ptr, align 8
  %orig.addr = alloca ptr, align 8
  %ref.tmp = alloca %"class.std::allocator", align 1
  %exn.slot = alloca ptr, align 8
  %ehselector.slot = alloca i32, align 4
  store ptr %this, ptr %this.addr, align 8
  store ptr %m, ptr %m.addr, align 8
  store ptr %orig, ptr %orig.addr, align 8
  %this1 = load ptr, ptr %this.addr, align 8
  call void @_ZN15model_converterC2Ev(ptr noundef nonnull align 8 dereferenceable(25) %this1)
  store ptr getelementptr inbounds ({ [12 x ptr] }, ptr @_ZTV23generic_model_converter, i32 0, inrange i32 0, i32 2), ptr %this1, align 8
  %m2 = getelementptr inbounds %class.generic_model_converter, ptr %this1, i32 0, i32 1
  %0 = load ptr, ptr %m.addr, align 8
  store ptr %0, ptr %m2, align 8
  %m_orig = getelementptr inbounds %class.generic_model_converter, ptr %this1, i32 0, i32 2
  %1 = load ptr, ptr %orig.addr, align 8
  call void @_ZNSaIcEC1Ev(ptr noundef nonnull align 1 dereferenceable(1) %ref.tmp) #3
  invoke void @_ZNSt7__cxx1112basic_stringIcSt11char_traitsIcESaIcEEC2IS3_EEPKcRKS3_(ptr noundef nonnull align 8 dereferenceable(32) %m_orig, ptr noundef %1, ptr noundef nonnull align 1 dereferenceable(1) %ref.tmp)
          to label %invoke.cont unwind label %lpad

invoke.cont:                                      ; preds = %entry
  call void @_ZNSaIcED1Ev(ptr noundef nonnull align 1 dereferenceable(1) %ref.tmp) #3
  %m_entries = getelementptr inbounds %class.generic_model_converter, ptr %this1, i32 0, i32 3
  call void @_ZN6vectorIN23generic_model_converter5entryELb1EjEC2Ev(ptr noundef nonnull align 8 dereferenceable(8) %m_entries) #3
  ret void

lpad:                                             ; preds = %entry
  %2 = landingpad { ptr, i32 }
          cleanup
  %3 = extractvalue { ptr, i32 } %2, 0
  store ptr %3, ptr %exn.slot, align 8
  %4 = extractvalue { ptr, i32 } %2, 1
  store i32 %4, ptr %ehselector.slot, align 4
  call void @_ZNSaIcED1Ev(ptr noundef nonnull align 1 dereferenceable(1) %ref.tmp) #3
  call void @_ZN15model_converterD2Ev(ptr noundef nonnull align 8 dereferenceable(25) %this1) #3
  br label %eh.resume

eh.resume:                                        ; preds = %lpad
  %exn = load ptr, ptr %exn.slot, align 8
  %sel = load i32, ptr %ehselector.slot, align 4
  %lpad.val = insertvalue { ptr, i32 } poison, ptr %exn, 0
  %lpad.val3 = insertvalue { ptr, i32 } %lpad.val, i32 %sel, 1
  resume { ptr, i32 } %lpad.val3
}

; Function Attrs: mustprogress uwtable
define linkonce_odr hidden void @_ZN3refI23generic_model_converterEC2EPS0_(ptr noundef nonnull align 8 dereferenceable(8) %this, ptr noundef %ptr) unnamed_addr #5 comdat align 2 {
entry:
  %this.addr = alloca ptr, align 8
  %ptr.addr = alloca ptr, align 8
  store ptr %this, ptr %this.addr, align 8
  store ptr %ptr, ptr %ptr.addr, align 8
  %this1 = load ptr, ptr %this.addr, align 8
  %m_ptr = getelementptr inbounds %class.ref.51, ptr %this1, i32 0, i32 0
  %0 = load ptr, ptr %ptr.addr, align 8
  store ptr %0, ptr %m_ptr, align 8
  call void @_ZN3refI23generic_model_converterE7inc_refEv(ptr noundef nonnull align 8 dereferenceable(8) %this1)
  ret void
}

; Function Attrs: nocallback nofree nounwind willreturn memory(argmem: write)
declare void @llvm.memset.p0.i64(ptr nocapture writeonly, i8, i64, i1 immarg) #7

; Function Attrs: mustprogress uwtable
define linkonce_odr hidden void @_ZN7obj_mapI9func_decljEC2Ev(ptr noundef nonnull align 8 dereferenceable(24) %this) unnamed_addr #5 comdat align 2 {
entry:
  %this.addr = alloca ptr, align 8
  %ref.tmp = alloca %struct.obj_hash.54, align 1
  %ref.tmp2 = alloca %struct.default_eq.55, align 1
  store ptr %this, ptr %this.addr, align 8
  %this1 = load ptr, ptr %this.addr, align 8
  %m_table = getelementptr inbounds %class.obj_map.52, ptr %this1, i32 0, i32 0
  call void @_ZN14core_hashtableIN7obj_mapI9func_decljE13obj_map_entryE8obj_hashINS2_8key_dataEE10default_eqIS5_EEC2EjRKS6_RKS8_(ptr noundef nonnull align 8 dereferenceable(20) %m_table, i32 noundef 8, ptr noundef nonnull align 1 dereferenceable(1) %ref.tmp, ptr noundef nonnull align 1 dereferenceable(1) %ref.tmp2)
  ret void
}

; Function Attrs: mustprogress uwtable
define linkonce_odr hidden void @_ZN7obj_mapI9func_declP4exprEC2Ev(ptr noundef nonnull align 8 dereferenceable(24) %this) unnamed_addr #5 comdat align 2 {
entry:
  %this.addr = alloca ptr, align 8
  %ref.tmp = alloca %struct.obj_hash.59, align 1
  %ref.tmp2 = alloca %struct.default_eq.60, align 1
  store ptr %this, ptr %this.addr, align 8
  %this1 = load ptr, ptr %this.addr, align 8
  %m_table = getelementptr inbounds %class.obj_map.57, ptr %this1, i32 0, i32 0
  call void @_ZN14core_hashtableIN7obj_mapI9func_declP4exprE13obj_map_entryE8obj_hashINS4_8key_dataEE10default_eqIS7_EEC2EjRKS8_RKSA_(ptr noundef nonnull align 8 dereferenceable(20) %m_table, i32 noundef 8, ptr noundef nonnull align 1 dereferenceable(1) %ref.tmp, ptr noundef nonnull align 1 dereferenceable(1) %ref.tmp2)
  ret void
}

; Function Attrs: mustprogress uwtable
define linkonce_odr hidden void @_ZN10ref_vectorI9func_decl11ast_managerEC2ERS1_(ptr noundef nonnull align 8 dereferenceable(16) %this, ptr noundef nonnull align 8 dereferenceable(976) %m) unnamed_addr #5 comdat align 2 {
entry:
  %this.addr = alloca ptr, align 8
  %m.addr = alloca ptr, align 8
  %ref.tmp = alloca %class.ref_manager_wrapper.64, align 8
  store ptr %this, ptr %this.addr, align 8
  store ptr %m, ptr %m.addr, align 8
  %this1 = load ptr, ptr %this.addr, align 8
  %0 = load ptr, ptr %m.addr, align 8
  call void @_ZN19ref_manager_wrapperI9func_decl11ast_managerEC2ERS1_(ptr noundef nonnull align 8 dereferenceable(8) %ref.tmp, ptr noundef nonnull align 8 dereferenceable(976) %0)
  call void @_ZN15ref_vector_coreI9func_decl19ref_manager_wrapperIS0_11ast_managerEEC2ERKS3_(ptr noundef nonnull align 8 dereferenceable(16) %this1, ptr noundef nonnull align 8 dereferenceable(8) %ref.tmp)
  ret void
}

; Function Attrs: mustprogress nounwind uwtable
define linkonce_odr hidden void @_ZN3refI6tacticEC2Ev(ptr noundef nonnull align 8 dereferenceable(8) %this) unnamed_addr #4 comdat align 2 {
entry:
  %this.addr = alloca ptr, align 8
  store ptr %this, ptr %this.addr, align 8
  %this1 = load ptr, ptr %this.addr, align 8
  %m_ptr = getelementptr inbounds %class.ref.67, ptr %this1, i32 0, i32 0
  store ptr null, ptr %m_ptr, align 8
  ret void
}

; Function Attrs: mustprogress nounwind uwtable
define linkonce_odr hidden void @_ZN6symbolC2Ev(ptr noundef nonnull align 8 dereferenceable(8) %this) unnamed_addr #4 comdat align 2 {
entry:
  %this.addr = alloca ptr, align 8
  store ptr %this, ptr %this.addr, align 8
  %this1 = load ptr, ptr %this.addr, align 8
  %m_data = getelementptr inbounds %class.symbol, ptr %this1, i32 0, i32 0
  store ptr null, ptr %m_data, align 8
  ret void
}

; Function Attrs: mustprogress nounwind uwtable
define linkonce_odr hidden void @_ZN7svectorI6symboljEC2Ev(ptr noundef nonnull align 8 dereferenceable(8) %this) unnamed_addr #4 comdat align 2 {
entry:
  %this.addr = alloca ptr, align 8
  store ptr %this, ptr %this.addr, align 8
  %this1 = load ptr, ptr %this.addr, align 8
  %0 = getelementptr inbounds i8, ptr %this1, i64 0
  call void @llvm.memset.p0.i64(ptr align 8 %0, i8 0, i64 8, i1 false)
  call void @_ZN6vectorI6symbolLb0EjEC2Ev(ptr noundef nonnull align 8 dereferenceable(8) %this1) #3
  ret void
}

declare void @_ZN10params_ref8set_boolEPKcb(ptr noundef nonnull align 8 dereferenceable(8), ptr noundef, i1 noundef zeroext) #1

; Function Attrs: nounwind
declare void @_ZN10params_refD1Ev(ptr noundef nonnull align 8 dereferenceable(8)) unnamed_addr #2

; Function Attrs: mustprogress nounwind uwtable
define linkonce_odr hidden void @_ZN7svectorI6symboljED2Ev(ptr noundef nonnull align 8 dereferenceable(8) %this) unnamed_addr #4 comdat align 2 {
entry:
  %this.addr = alloca ptr, align 8
  store ptr %this, ptr %this.addr, align 8
  %this1 = load ptr, ptr %this.addr, align 8
  call void @_ZN6vectorI6symbolLb0EjED2Ev(ptr noundef nonnull align 8 dereferenceable(8) %this1) #3
  ret void
}

; Function Attrs: mustprogress nounwind uwtable
define linkonce_odr hidden void @_ZN3refI6tacticED2Ev(ptr noundef nonnull align 8 dereferenceable(8) %this) unnamed_addr #4 comdat align 2 personality ptr @__gxx_personality_v0 {
entry:
  %this.addr = alloca ptr, align 8
  store ptr %this, ptr %this.addr, align 8
  %this1 = load ptr, ptr %this.addr, align 8
  invoke void @_ZN3refI6tacticE7dec_refEv(ptr noundef nonnull align 8 dereferenceable(8) %this1)
          to label %invoke.cont unwind label %terminate.lpad

invoke.cont:                                      ; preds = %entry
  ret void

terminate.lpad:                                   ; preds = %entry
  %0 = landingpad { ptr, i32 }
          catch ptr null
  %1 = extractvalue { ptr, i32 } %0, 0
  call void @__clang_call_terminate(ptr %1) #17
  unreachable
}

; Function Attrs: mustprogress nounwind uwtable
define linkonce_odr hidden void @_ZN10ref_vectorI4expr11ast_managerED2Ev(ptr noundef nonnull align 8 dereferenceable(16) %this) unnamed_addr #4 comdat align 2 {
entry:
  %this.addr = alloca ptr, align 8
  store ptr %this, ptr %this.addr, align 8
  %this1 = load ptr, ptr %this.addr, align 8
  call void @_ZN15ref_vector_coreI4expr19ref_manager_wrapperIS0_11ast_managerEED2Ev(ptr noundef nonnull align 8 dereferenceable(16) %this1) #3
  ret void
}

; Function Attrs: mustprogress nounwind uwtable
define linkonce_odr hidden void @_ZN10ref_vectorI9func_decl11ast_managerED2Ev(ptr noundef nonnull align 8 dereferenceable(16) %this) unnamed_addr #4 comdat align 2 {
entry:
  %this.addr = alloca ptr, align 8
  store ptr %this, ptr %this.addr, align 8
  %this1 = load ptr, ptr %this.addr, align 8
  call void @_ZN15ref_vector_coreI9func_decl19ref_manager_wrapperIS0_11ast_managerEED2Ev(ptr noundef nonnull align 8 dereferenceable(16) %this1) #3
  ret void
}

; Function Attrs: mustprogress nounwind uwtable
define linkonce_odr hidden void @_ZN7obj_mapI9func_declP4exprED2Ev(ptr noundef nonnull align 8 dereferenceable(24) %this) unnamed_addr #4 comdat align 2 {
entry:
  %this.addr = alloca ptr, align 8
  store ptr %this, ptr %this.addr, align 8
  %this1 = load ptr, ptr %this.addr, align 8
  %m_table = getelementptr inbounds %class.obj_map.57, ptr %this1, i32 0, i32 0
  call void @_ZN14core_hashtableIN7obj_mapI9func_declP4exprE13obj_map_entryE8obj_hashINS4_8key_dataEE10default_eqIS7_EED2Ev(ptr noundef nonnull align 8 dereferenceable(20) %m_table) #3
  ret void
}

; Function Attrs: mustprogress nounwind uwtable
define linkonce_odr hidden void @_ZN7obj_mapI9func_decljED2Ev(ptr noundef nonnull align 8 dereferenceable(24) %this) unnamed_addr #4 comdat align 2 {
entry:
  %this.addr = alloca ptr, align 8
  store ptr %this, ptr %this.addr, align 8
  %this1 = load ptr, ptr %this.addr, align 8
  %m_table = getelementptr inbounds %class.obj_map.52, ptr %this1, i32 0, i32 0
  call void @_ZN14core_hashtableIN7obj_mapI9func_decljE13obj_map_entryE8obj_hashINS2_8key_dataEE10default_eqIS5_EED2Ev(ptr noundef nonnull align 8 dereferenceable(20) %m_table) #3
  ret void
}

; Function Attrs: mustprogress nounwind uwtable
define linkonce_odr hidden void @_ZN15ref_vector_coreI5model21ref_unmanaged_wrapperIS0_EED2Ev(ptr noundef nonnull align 8 dereferenceable(8) %this) unnamed_addr #4 comdat align 2 personality ptr @__gxx_personality_v0 {
entry:
  %this.addr = alloca ptr, align 8
  store ptr %this, ptr %this.addr, align 8
  %this1 = load ptr, ptr %this.addr, align 8
  %m_nodes = getelementptr inbounds %class.ref_vector_core.37, ptr %this1, i32 0, i32 0
  %call = invoke noundef ptr @_ZNK6vectorIP5modelLb0EjE4dataEv(ptr noundef nonnull align 8 dereferenceable(8) %m_nodes)
          to label %invoke.cont unwind label %terminate.lpad

invoke.cont:                                      ; preds = %entry
  %m_nodes2 = getelementptr inbounds %class.ref_vector_core.37, ptr %this1, i32 0, i32 0
  %call4 = invoke noundef ptr @_ZNK6vectorIP5modelLb0EjE4dataEv(ptr noundef nonnull align 8 dereferenceable(8) %m_nodes2)
          to label %invoke.cont3 unwind label %terminate.lpad

invoke.cont3:                                     ; preds = %invoke.cont
  %m_nodes5 = getelementptr inbounds %class.ref_vector_core.37, ptr %this1, i32 0, i32 0
  %call7 = invoke noundef i32 @_ZNK6vectorIP5modelLb0EjE4sizeEv(ptr noundef nonnull align 8 dereferenceable(8) %m_nodes5)
          to label %invoke.cont6 unwind label %terminate.lpad

invoke.cont6:                                     ; preds = %invoke.cont3
  %idx.ext = zext i32 %call7 to i64
  %add.ptr = getelementptr inbounds ptr, ptr %call4, i64 %idx.ext
  invoke void @_ZN15ref_vector_coreI5model21ref_unmanaged_wrapperIS0_EE13dec_range_refEPKPS0_S6_(ptr noundef nonnull align 8 dereferenceable(8) %this1, ptr noundef %call, ptr noundef %add.ptr)
          to label %invoke.cont8 unwind label %terminate.lpad

invoke.cont8:                                     ; preds = %invoke.cont6
  %m_nodes9 = getelementptr inbounds %class.ref_vector_core.37, ptr %this1, i32 0, i32 0
  call void @_ZN10ptr_vectorI5modelED2Ev(ptr noundef nonnull align 8 dereferenceable(8) %m_nodes9) #3
  ret void

terminate.lpad:                                   ; preds = %invoke.cont6, %invoke.cont3, %invoke.cont, %entry
  %0 = landingpad { ptr, i32 }
          catch ptr null
  %1 = extractvalue { ptr, i32 } %0, 0
  call void @__clang_call_terminate(ptr %1) #17
  unreachable
}

; Function Attrs: mustprogress nounwind uwtable
define linkonce_odr hidden void @_ZN3refI23generic_model_converterED2Ev(ptr noundef nonnull align 8 dereferenceable(8) %this) unnamed_addr #4 comdat align 2 personality ptr @__gxx_personality_v0 {
entry:
  %this.addr = alloca ptr, align 8
  store ptr %this, ptr %this.addr, align 8
  %this1 = load ptr, ptr %this.addr, align 8
  invoke void @_ZN3refI23generic_model_converterE7dec_refEv(ptr noundef nonnull align 8 dereferenceable(8) %this1)
          to label %invoke.cont unwind label %terminate.lpad

invoke.cont:                                      ; preds = %entry
  ret void

terminate.lpad:                                   ; preds = %entry
  %0 = landingpad { ptr, i32 }
          catch ptr null
  %1 = extractvalue { ptr, i32 } %0, 0
  call void @__clang_call_terminate(ptr %1) #17
  unreachable
}

; Function Attrs: mustprogress nounwind uwtable
define linkonce_odr hidden void @_ZN3refI15model_converterED2Ev(ptr noundef nonnull align 8 dereferenceable(8) %this) unnamed_addr #4 comdat align 2 personality ptr @__gxx_personality_v0 {
entry:
  %this.addr = alloca ptr, align 8
  store ptr %this, ptr %this.addr, align 8
  %this1 = load ptr, ptr %this.addr, align 8
  invoke void @_ZN3refI15model_converterE7dec_refEv(ptr noundef nonnull align 8 dereferenceable(8) %this1)
          to label %invoke.cont unwind label %terminate.lpad

invoke.cont:                                      ; preds = %entry
  ret void

terminate.lpad:                                   ; preds = %entry
  %0 = landingpad { ptr, i32 }
          catch ptr null
  %1 = extractvalue { ptr, i32 } %0, 0
  call void @__clang_call_terminate(ptr %1) #17
  unreachable
}

; Function Attrs: mustprogress nounwind uwtable
define linkonce_odr hidden void @_ZN3refI5modelED2Ev(ptr noundef nonnull align 8 dereferenceable(8) %this) unnamed_addr #4 comdat align 2 personality ptr @__gxx_personality_v0 {
entry:
  %this.addr = alloca ptr, align 8
  store ptr %this, ptr %this.addr, align 8
  %this1 = load ptr, ptr %this.addr, align 8
  invoke void @_ZN3refI5modelE7dec_refEv(ptr noundef nonnull align 8 dereferenceable(8) %this1)
          to label %invoke.cont unwind label %terminate.lpad

invoke.cont:                                      ; preds = %entry
  ret void

terminate.lpad:                                   ; preds = %entry
  %0 = landingpad { ptr, i32 }
          catch ptr null
  %1 = extractvalue { ptr, i32 } %0, 0
  call void @__clang_call_terminate(ptr %1) #17
  unreachable
}

; Function Attrs: mustprogress nounwind uwtable
define linkonce_odr hidden void @_ZN6vectorIN3opt7context9objectiveELb1EjED2Ev(ptr noundef nonnull align 8 dereferenceable(8) %this) unnamed_addr #4 comdat align 2 personality ptr @__gxx_personality_v0 {
entry:
  %this.addr = alloca ptr, align 8
  store ptr %this, ptr %this.addr, align 8
  %this1 = load ptr, ptr %this.addr, align 8
  invoke void @_ZN6vectorIN3opt7context9objectiveELb1EjE7destroyEv(ptr noundef nonnull align 8 dereferenceable(8) %this1)
          to label %invoke.cont unwind label %terminate.lpad

invoke.cont:                                      ; preds = %entry
  ret void

terminate.lpad:                                   ; preds = %entry
  %0 = landingpad { ptr, i32 }
          catch ptr null
  %1 = extractvalue { ptr, i32 } %0, 0
  call void @__clang_call_terminate(ptr %1) #17
  unreachable
}

; Function Attrs: mustprogress nounwind uwtable
define linkonce_odr hidden void @_ZN3opt7context12scoped_stateD2Ev(ptr noundef nonnull align 8 dereferenceable(152) %this) unnamed_addr #4 comdat align 2 {
entry:
  %this.addr = alloca ptr, align 8
  store ptr %this, ptr %this.addr, align 8
  %this1 = load ptr, ptr %this.addr, align 8
  %m_objectives = getelementptr inbounds %"class.opt::context::scoped_state", ptr %this1, i32 0, i32 11
  call void @_ZN6vectorIN3opt7context9objectiveELb1EjED2Ev(ptr noundef nonnull align 8 dereferenceable(8) %m_objectives) #3
  %m_asms = getelementptr inbounds %"class.opt::context::scoped_state", ptr %this1, i32 0, i32 10
  call void @_ZN10ref_vectorI4expr11ast_managerED2Ev(ptr noundef nonnull align 8 dereferenceable(16) %m_asms) #3
  %m_hard = getelementptr inbounds %"class.opt::context::scoped_state", ptr %this1, i32 0, i32 9
  call void @_ZN10ref_vectorI4expr11ast_managerED2Ev(ptr noundef nonnull align 8 dereferenceable(16) %m_hard) #3
  %m_indices = getelementptr inbounds %"class.opt::context::scoped_state", ptr %this1, i32 0, i32 8
  call void @_ZN3mapI6symbolj16symbol_hash_proc14symbol_eq_procED2Ev(ptr noundef nonnull align 8 dereferenceable(24) %m_indices) #3
  %m_objectives_term_trail_lim = getelementptr inbounds %"class.opt::context::scoped_state", ptr %this1, i32 0, i32 7
  call void @_ZN7svectorIjjED2Ev(ptr noundef nonnull align 8 dereferenceable(8) %m_objectives_term_trail_lim) #3
  %m_objectives_term_trail = getelementptr inbounds %"class.opt::context::scoped_state", ptr %this1, i32 0, i32 6
  call void @_ZN7svectorIjjED2Ev(ptr noundef nonnull align 8 dereferenceable(8) %m_objectives_term_trail) #3
  %m_objectives_lim = getelementptr inbounds %"class.opt::context::scoped_state", ptr %this1, i32 0, i32 5
  call void @_ZN7svectorIjjED2Ev(ptr noundef nonnull align 8 dereferenceable(8) %m_objectives_lim) #3
  %m_asms_lim = getelementptr inbounds %"class.opt::context::scoped_state", ptr %this1, i32 0, i32 4
  call void @_ZN7svectorIjjED2Ev(ptr noundef nonnull align 8 dereferenceable(8) %m_asms_lim) #3
  %m_hard_lim = getelementptr inbounds %"class.opt::context::scoped_state", ptr %this1, i32 0, i32 3
  call void @_ZN7svectorIjjED2Ev(ptr noundef nonnull align 8 dereferenceable(8) %m_hard_lim) #3
  ret void
}

; Function Attrs: mustprogress nounwind uwtable
define linkonce_odr hidden void @_ZN3mapI6symbolPN3opt6maxsmtE16symbol_hash_proc14symbol_eq_procED2Ev(ptr noundef nonnull align 8 dereferenceable(24) %this) unnamed_addr #4 comdat align 2 {
entry:
  %this.addr = alloca ptr, align 8
  store ptr %this, ptr %this.addr, align 8
  %this1 = load ptr, ptr %this.addr, align 8
  call void @_ZN9table2mapI17default_map_entryI6symbolPN3opt6maxsmtEE16symbol_hash_proc14symbol_eq_procED2Ev(ptr noundef nonnull align 8 dereferenceable(24) %this1) #3
  ret void
}

; Function Attrs: mustprogress nounwind uwtable
define linkonce_odr hidden void @_ZN3opt6optsmtD2Ev(ptr noundef nonnull align 8 dereferenceable(120) %this) unnamed_addr #4 comdat align 2 {
entry:
  %this.addr = alloca ptr, align 8
  store ptr %this, ptr %this.addr, align 8
  %this1 = load ptr, ptr %this.addr, align 8
  %m_models = getelementptr inbounds %"class.opt::optsmt", ptr %this1, i32 0, i32 12
  call void @_ZN15ref_vector_coreI5model21ref_unmanaged_wrapperIS0_EED2Ev(ptr noundef nonnull align 8 dereferenceable(8) %m_models) #3
  %m_labels = getelementptr inbounds %"class.opt::optsmt", ptr %this1, i32 0, i32 11
  call void @_ZN7svectorI6symboljED2Ev(ptr noundef nonnull align 8 dereferenceable(8) %m_labels) #3
  %m_best_model = getelementptr inbounds %"class.opt::optsmt", ptr %this1, i32 0, i32 10
  call void @_ZN3refI5modelED2Ev(ptr noundef nonnull align 8 dereferenceable(8) %m_best_model) #3
  %m_model = getelementptr inbounds %"class.opt::optsmt", ptr %this1, i32 0, i32 9
  call void @_ZN3refI5modelED2Ev(ptr noundef nonnull align 8 dereferenceable(8) %m_model) #3
  %m_vars = getelementptr inbounds %"class.opt::optsmt", ptr %this1, i32 0, i32 7
  call void @_ZN7svectorIijED2Ev(ptr noundef nonnull align 8 dereferenceable(8) %m_vars) #3
  %m_lower_fmls = getelementptr inbounds %"class.opt::optsmt", ptr %this1, i32 0, i32 6
  call void @_ZN10ref_vectorI4expr11ast_managerED2Ev(ptr noundef nonnull align 8 dereferenceable(16) %m_lower_fmls) #3
  %m_objs = getelementptr inbounds %"class.opt::optsmt", ptr %this1, i32 0, i32 5
  call void @_ZN10ref_vectorI3app11ast_managerED2Ev(ptr noundef nonnull align 8 dereferenceable(16) %m_objs) #3
  %m_upper = getelementptr inbounds %"class.opt::optsmt", ptr %this1, i32 0, i32 4
  call void @_ZN6vectorI16inf_eps_rationalI12inf_rationalELb1EjED2Ev(ptr noundef nonnull align 8 dereferenceable(8) %m_upper) #3
  %m_lower = getelementptr inbounds %"class.opt::optsmt", ptr %this1, i32 0, i32 3
  call void @_ZN6vectorI16inf_eps_rationalI12inf_rationalELb1EjED2Ev(ptr noundef nonnull align 8 dereferenceable(8) %m_lower) #3
  ret void
}

; Function Attrs: mustprogress nounwind uwtable
define linkonce_odr hidden void @_ZN10scoped_ptrIN2qe4qmaxEED2Ev(ptr noundef nonnull align 8 dereferenceable(8) %this) unnamed_addr #4 comdat align 2 personality ptr @__gxx_personality_v0 {
entry:
  %this.addr = alloca ptr, align 8
  store ptr %this, ptr %this.addr, align 8
  %this1 = load ptr, ptr %this.addr, align 8
  %m_ptr = getelementptr inbounds %class.scoped_ptr.36, ptr %this1, i32 0, i32 0
  %0 = load ptr, ptr %m_ptr, align 8
  invoke void @_Z7deallocIN2qe4qmaxEEvPT_(ptr noundef %0)
          to label %invoke.cont unwind label %terminate.lpad

invoke.cont:                                      ; preds = %entry
  ret void

terminate.lpad:                                   ; preds = %entry
  %1 = landingpad { ptr, i32 }
          catch ptr null
  %2 = extractvalue { ptr, i32 } %1, 0
  call void @__clang_call_terminate(ptr %2) #17
  unreachable
}

; Function Attrs: mustprogress nounwind uwtable
define linkonce_odr hidden void @_ZN10scoped_ptrIN3opt11pareto_baseEED2Ev(ptr noundef nonnull align 8 dereferenceable(8) %this) unnamed_addr #4 comdat align 2 personality ptr @__gxx_personality_v0 {
entry:
  %this.addr = alloca ptr, align 8
  store ptr %this, ptr %this.addr, align 8
  %this1 = load ptr, ptr %this.addr, align 8
  %m_ptr = getelementptr inbounds %class.scoped_ptr, ptr %this1, i32 0, i32 0
  %0 = load ptr, ptr %m_ptr, align 8
  invoke void @_Z7deallocIN3opt11pareto_baseEEvPT_(ptr noundef %0)
          to label %invoke.cont unwind label %terminate.lpad

invoke.cont:                                      ; preds = %entry
  ret void

terminate.lpad:                                   ; preds = %entry
  %1 = landingpad { ptr, i32 }
          catch ptr null
  %2 = extractvalue { ptr, i32 } %1, 0
  call void @__clang_call_terminate(ptr %2) #17
  unreachable
}

; Function Attrs: mustprogress nounwind uwtable
define linkonce_odr hidden void @_ZN3refI6solverED2Ev(ptr noundef nonnull align 8 dereferenceable(8) %this) unnamed_addr #4 comdat align 2 personality ptr @__gxx_personality_v0 {
entry:
  %this.addr = alloca ptr, align 8
  store ptr %this, ptr %this.addr, align 8
  %this1 = load ptr, ptr %this.addr, align 8
  invoke void @_ZN3refI6solverE7dec_refEv(ptr noundef nonnull align 8 dereferenceable(8) %this1)
          to label %invoke.cont unwind label %terminate.lpad

invoke.cont:                                      ; preds = %entry
  ret void

terminate.lpad:                                   ; preds = %entry
  %0 = landingpad { ptr, i32 }
          catch ptr null
  %1 = extractvalue { ptr, i32 } %0, 0
  call void @__clang_call_terminate(ptr %1) #17
  unreachable
}

; Function Attrs: mustprogress nounwind uwtable
define linkonce_odr hidden void @_ZN3refIN3opt10opt_solverEED2Ev(ptr noundef nonnull align 8 dereferenceable(8) %this) unnamed_addr #4 comdat align 2 personality ptr @__gxx_personality_v0 {
entry:
  %this.addr = alloca ptr, align 8
  store ptr %this, ptr %this.addr, align 8
  %this1 = load ptr, ptr %this.addr, align 8
  invoke void @_ZN3refIN3opt10opt_solverEE7dec_refEv(ptr noundef nonnull align 8 dereferenceable(8) %this1)
          to label %invoke.cont unwind label %terminate.lpad

invoke.cont:                                      ; preds = %entry
  ret void

terminate.lpad:                                   ; preds = %entry
  %0 = landingpad { ptr, i32 }
          catch ptr null
  %1 = extractvalue { ptr, i32 } %0, 0
  call void @__clang_call_terminate(ptr %1) #17
  unreachable
}

; Function Attrs: mustprogress nounwind uwtable
define linkonce_odr hidden void @_ZNSt8functionIFvRN3opt10on_model_tER3refI5modelEEED2Ev(ptr noundef nonnull align 8 dereferenceable(32) %this) unnamed_addr #4 comdat align 2 {
entry:
  %this.addr = alloca ptr, align 8
  store ptr %this, ptr %this.addr, align 8
  %this1 = load ptr, ptr %this.addr, align 8
  call void @_ZNSt14_Function_baseD2Ev(ptr noundef nonnull align 8 dereferenceable(24) %this1) #3
  ret void
}

; Function Attrs: mustprogress nounwind uwtable
define hidden void @_ZN3opt7contextD2Ev(ptr noundef nonnull align 8 dereferenceable(792) %this) unnamed_addr #4 align 2 personality ptr @__gxx_personality_v0 {
entry:
  %this.addr = alloca ptr, align 8
  store ptr %this, ptr %this.addr, align 8
  %this1 = load ptr, ptr %this.addr, align 8
  store ptr getelementptr inbounds ({ [40 x ptr], [9 x ptr], [19 x ptr] }, ptr @_ZTVN3opt7contextE, i32 0, inrange i32 0, i32 2), ptr %this1, align 8
  %add.ptr = getelementptr inbounds i8, ptr %this1, i64 72
  store ptr getelementptr inbounds ({ [40 x ptr], [9 x ptr], [19 x ptr] }, ptr @_ZTVN3opt7contextE, i32 0, inrange i32 1, i32 2), ptr %add.ptr, align 8
  %add.ptr2 = getelementptr inbounds i8, ptr %this1, i64 80
  store ptr getelementptr inbounds ({ [40 x ptr], [9 x ptr], [19 x ptr] }, ptr @_ZTVN3opt7contextE, i32 0, inrange i32 2, i32 2), ptr %add.ptr2, align 8
  invoke void @_ZN3opt7context13reset_maxsmtsEv(ptr noundef nonnull align 8 dereferenceable(792) %this1)
          to label %invoke.cont unwind label %terminate.lpad

invoke.cont:                                      ; preds = %entry
  %m_unknown = getelementptr inbounds %"class.opt::context", ptr %this1, i32 0, i32 43
  call void @_ZNSt7__cxx1112basic_stringIcSt11char_traitsIcESaIcEED1Ev(ptr noundef nonnull align 8 dereferenceable(32) %m_unknown) #3
  %m_labels = getelementptr inbounds %"class.opt::context", ptr %this1, i32 0, i32 42
  call void @_ZN7svectorI6symboljED2Ev(ptr noundef nonnull align 8 dereferenceable(8) %m_labels) #3
  %m_simplify = getelementptr inbounds %"class.opt::context", ptr %this1, i32 0, i32 33
  call void @_ZN3refI6tacticED2Ev(ptr noundef nonnull align 8 dereferenceable(8) %m_simplify) #3
  %m_core = getelementptr inbounds %"class.opt::context", ptr %this1, i32 0, i32 32
  call void @_ZN10ref_vectorI4expr11ast_managerED2Ev(ptr noundef nonnull align 8 dereferenceable(16) %m_core) #3
  %m_objective_refs = getelementptr inbounds %"class.opt::context", ptr %this1, i32 0, i32 31
  call void @_ZN10ref_vectorI9func_decl11ast_managerED2Ev(ptr noundef nonnull align 8 dereferenceable(16) %m_objective_refs) #3
  %m_objective_orig = getelementptr inbounds %"class.opt::context", ptr %this1, i32 0, i32 30
  call void @_ZN7obj_mapI9func_declP4exprED2Ev(ptr noundef nonnull align 8 dereferenceable(24) %m_objective_orig) #3
  %m_objective_fns = getelementptr inbounds %"class.opt::context", ptr %this1, i32 0, i32 29
  call void @_ZN7obj_mapI9func_decljED2Ev(ptr noundef nonnull align 8 dereferenceable(24) %m_objective_fns) #3
  %m_model_fixed = getelementptr inbounds %"class.opt::context", ptr %this1, i32 0, i32 26
  call void @_ZN15ref_vector_coreI5model21ref_unmanaged_wrapperIS0_EED2Ev(ptr noundef nonnull align 8 dereferenceable(8) %m_model_fixed) #3
  %m_fm = getelementptr inbounds %"class.opt::context", ptr %this1, i32 0, i32 25
  call void @_ZN3refI23generic_model_converterED2Ev(ptr noundef nonnull align 8 dereferenceable(8) %m_fm) #3
  %m_model_converter = getelementptr inbounds %"class.opt::context", ptr %this1, i32 0, i32 24
  call void @_ZN3refI15model_converterED2Ev(ptr noundef nonnull align 8 dereferenceable(8) %m_model_converter) #3
  %m_model = getelementptr inbounds %"class.opt::context", ptr %this1, i32 0, i32 23
  call void @_ZN3refI5modelED2Ev(ptr noundef nonnull align 8 dereferenceable(8) %m_model) #3
  %m_objectives = getelementptr inbounds %"class.opt::context", ptr %this1, i32 0, i32 22
  call void @_ZN6vectorIN3opt7context9objectiveELb1EjED2Ev(ptr noundef nonnull align 8 dereferenceable(8) %m_objectives) #3
  %m_scoped_state = getelementptr inbounds %"class.opt::context", ptr %this1, i32 0, i32 21
  call void @_ZN3opt7context12scoped_stateD2Ev(ptr noundef nonnull align 8 dereferenceable(152) %m_scoped_state) #3
  %m_maxsmts = getelementptr inbounds %"class.opt::context", ptr %this1, i32 0, i32 20
  call void @_ZN3mapI6symbolPN3opt6maxsmtE16symbol_hash_proc14symbol_eq_procED2Ev(ptr noundef nonnull align 8 dereferenceable(24) %m_maxsmts) #3
  %m_optsmt = getelementptr inbounds %"class.opt::context", ptr %this1, i32 0, i32 19
  call void @_ZN3opt6optsmtD2Ev(ptr noundef nonnull align 8 dereferenceable(120) %m_optsmt) #3
  %m_params = getelementptr inbounds %"class.opt::context", ptr %this1, i32 0, i32 18
  call void @_ZN10params_refD1Ev(ptr noundef nonnull align 8 dereferenceable(8) %m_params) #3
  %m_box_models = getelementptr inbounds %"class.opt::context", ptr %this1, i32 0, i32 16
  call void @_ZN15ref_vector_coreI5model21ref_unmanaged_wrapperIS0_EED2Ev(ptr noundef nonnull align 8 dereferenceable(8) %m_box_models) #3
  %m_qmax = getelementptr inbounds %"class.opt::context", ptr %this1, i32 0, i32 15
  call void @_ZN10scoped_ptrIN2qe4qmaxEED2Ev(ptr noundef nonnull align 8 dereferenceable(8) %m_qmax) #3
  %m_pareto = getelementptr inbounds %"class.opt::context", ptr %this1, i32 0, i32 13
  call void @_ZN10scoped_ptrIN3opt11pareto_baseEED2Ev(ptr noundef nonnull align 8 dereferenceable(8) %m_pareto) #3
  %m_sat_solver = getelementptr inbounds %"class.opt::context", ptr %this1, i32 0, i32 12
  call void @_ZN3refI6solverED2Ev(ptr noundef nonnull align 8 dereferenceable(8) %m_sat_solver) #3
  %m_solver = getelementptr inbounds %"class.opt::context", ptr %this1, i32 0, i32 11
  call void @_ZN3refI6solverED2Ev(ptr noundef nonnull align 8 dereferenceable(8) %m_solver) #3
  %m_opt_solver = getelementptr inbounds %"class.opt::context", ptr %this1, i32 0, i32 10
  call void @_ZN3refIN3opt10opt_solverEED2Ev(ptr noundef nonnull align 8 dereferenceable(8) %m_opt_solver) #3
  %m_hard_constraints = getelementptr inbounds %"class.opt::context", ptr %this1, i32 0, i32 9
  call void @_ZN10ref_vectorI4expr11ast_managerED2Ev(ptr noundef nonnull align 8 dereferenceable(16) %m_hard_constraints) #3
  %m_on_model_eh = getelementptr inbounds %"class.opt::context", ptr %this1, i32 0, i32 5
  call void @_ZNSt8functionIFvRN3opt10on_model_tER3refI5modelEEED2Ev(ptr noundef nonnull align 8 dereferenceable(32) %m_on_model_eh) #3
  %0 = getelementptr inbounds i8, ptr %this1, i64 80
  call void @_ZN3opt14maxsat_contextD2Ev(ptr noundef nonnull align 8 dereferenceable(8) %0) #3
  %1 = getelementptr inbounds i8, ptr %this1, i64 72
  call void @_ZN3opt15pareto_callbackD2Ev(ptr noundef nonnull align 8 dereferenceable(8) %1) #3
  call void @_ZN11opt_wrapperD2Ev(ptr noundef nonnull align 8 dereferenceable(72) %this1) #3
  ret void

terminate.lpad:                                   ; preds = %entry
  %2 = landingpad { ptr, i32 }
          catch ptr null
  %3 = extractvalue { ptr, i32 } %2, 0
  call void @__clang_call_terminate(ptr %3) #17
  unreachable
}

; Function Attrs: mustprogress uwtable
define hidden void @_ZN3opt7context13reset_maxsmtsEv(ptr noundef nonnull align 8 dereferenceable(792) %this) #5 align 2 {
entry:
  %this.addr = alloca ptr, align 8
  %__range1 = alloca ptr, align 8
  %__begin1 = alloca %"class.core_hashtable<default_map_entry<symbol, opt::maxsmt *>, table2map<default_map_entry<symbol, opt::maxsmt *>, symbol_hash_proc, symbol_eq_proc>::entry_hash_proc, table2map<default_map_entry<symbol, opt::maxsmt *>, symbol_hash_proc, symbol_eq_proc>::entry_eq_proc>::iterator", align 8
  %__end1 = alloca %"class.core_hashtable<default_map_entry<symbol, opt::maxsmt *>, table2map<default_map_entry<symbol, opt::maxsmt *>, symbol_hash_proc, symbol_eq_proc>::entry_hash_proc, table2map<default_map_entry<symbol, opt::maxsmt *>, symbol_hash_proc, symbol_eq_proc>::entry_eq_proc>::iterator", align 8
  %kv = alloca ptr, align 8
  store ptr %this, ptr %this.addr, align 8
  %this1 = load ptr, ptr %this.addr, align 8
  %m_maxsmts = getelementptr inbounds %"class.opt::context", ptr %this1, i32 0, i32 20
  store ptr %m_maxsmts, ptr %__range1, align 8
  %0 = load ptr, ptr %__range1, align 8
  %call = call { ptr, ptr } @_ZNK9table2mapI17default_map_entryI6symbolPN3opt6maxsmtEE16symbol_hash_proc14symbol_eq_procE5beginEv(ptr noundef nonnull align 8 dereferenceable(24) %0)
  %1 = getelementptr inbounds { ptr, ptr }, ptr %__begin1, i32 0, i32 0
  %2 = extractvalue { ptr, ptr } %call, 0
  store ptr %2, ptr %1, align 8
  %3 = getelementptr inbounds { ptr, ptr }, ptr %__begin1, i32 0, i32 1
  %4 = extractvalue { ptr, ptr } %call, 1
  store ptr %4, ptr %3, align 8
  %5 = load ptr, ptr %__range1, align 8
  %call2 = call { ptr, ptr } @_ZNK9table2mapI17default_map_entryI6symbolPN3opt6maxsmtEE16symbol_hash_proc14symbol_eq_procE3endEv(ptr noundef nonnull align 8 dereferenceable(24) %5)
  %6 = getelementptr inbounds { ptr, ptr }, ptr %__end1, i32 0, i32 0
  %7 = extractvalue { ptr, ptr } %call2, 0
  store ptr %7, ptr %6, align 8
  %8 = getelementptr inbounds { ptr, ptr }, ptr %__end1, i32 0, i32 1
  %9 = extractvalue { ptr, ptr } %call2, 1
  store ptr %9, ptr %8, align 8
  br label %for.cond

for.cond:                                         ; preds = %for.inc, %entry
  %call3 = call noundef zeroext i1 @_ZNK14core_hashtableI17default_map_entryI6symbolPN3opt6maxsmtEEN9table2mapIS5_16symbol_hash_proc14symbol_eq_procE15entry_hash_procENS9_13entry_eq_procEE8iteratorneERKSD_(ptr noundef nonnull align 8 dereferenceable(16) %__begin1, ptr noundef nonnull align 8 dereferenceable(16) %__end1)
  br i1 %call3, label %for.body, label %for.end

for.body:                                         ; preds = %for.cond
  %call4 = call noundef nonnull align 8 dereferenceable(16) ptr @_ZN14core_hashtableI17default_map_entryI6symbolPN3opt6maxsmtEEN9table2mapIS5_16symbol_hash_proc14symbol_eq_procE15entry_hash_procENS9_13entry_eq_procEE8iteratordeEv(ptr noundef nonnull align 8 dereferenceable(16) %__begin1)
  store ptr %call4, ptr %kv, align 8
  %10 = load ptr, ptr %kv, align 8
  %m_value = getelementptr inbounds %struct._key_data, ptr %10, i32 0, i32 1
  %11 = load ptr, ptr %m_value, align 8
  call void @_Z7deallocIN3opt6maxsmtEEvPT_(ptr noundef %11)
  br label %for.inc

for.inc:                                          ; preds = %for.body
  %call5 = call noundef nonnull align 8 dereferenceable(16) ptr @_ZN14core_hashtableI17default_map_entryI6symbolPN3opt6maxsmtEEN9table2mapIS5_16symbol_hash_proc14symbol_eq_procE15entry_hash_procENS9_13entry_eq_procEE8iteratorppEv(ptr noundef nonnull align 8 dereferenceable(16) %__begin1)
  br label %for.cond

for.end:                                          ; preds = %for.cond
  %m_maxsmts6 = getelementptr inbounds %"class.opt::context", ptr %this1, i32 0, i32 20
  call void @_ZN9table2mapI17default_map_entryI6symbolPN3opt6maxsmtEE16symbol_hash_proc14symbol_eq_procE5resetEv(ptr noundef nonnull align 8 dereferenceable(24) %m_maxsmts6)
  ret void
}

; Function Attrs: noreturn nounwind uwtable
define linkonce_odr hidden void @__clang_call_terminate(ptr noundef %0) #8 comdat {
  %2 = call ptr @__cxa_begin_catch(ptr %0) #3
  call void @_ZSt9terminatev() #17
  unreachable
}

declare ptr @__cxa_begin_catch(ptr)

declare void @_ZSt9terminatev()

; Function Attrs: nounwind uwtable
define hidden void @_ZThn72_N3opt7contextD1Ev(ptr noundef %this) unnamed_addr #9 align 2 {
entry:
  %this.addr = alloca ptr, align 8
  store ptr %this, ptr %this.addr, align 8
  %this1 = load ptr, ptr %this.addr, align 8
  %0 = getelementptr inbounds i8, ptr %this1, i64 -72
  tail call void @_ZN3opt7contextD1Ev(ptr noundef nonnull align 8 dereferenceable(792) %0) #3
  ret void
}

; Function Attrs: nounwind uwtable
define hidden void @_ZThn80_N3opt7contextD1Ev(ptr noundef %this) unnamed_addr #9 align 2 {
entry:
  %this.addr = alloca ptr, align 8
  store ptr %this, ptr %this.addr, align 8
  %this1 = load ptr, ptr %this.addr, align 8
  %0 = getelementptr inbounds i8, ptr %this1, i64 -80
  tail call void @_ZN3opt7contextD1Ev(ptr noundef nonnull align 8 dereferenceable(792) %0) #3
  ret void
}

; Function Attrs: mustprogress nounwind uwtable
define hidden void @_ZN3opt7contextD0Ev(ptr noundef nonnull align 8 dereferenceable(792) %this) unnamed_addr #4 align 2 {
entry:
  %this.addr = alloca ptr, align 8
  store ptr %this, ptr %this.addr, align 8
  %this1 = load ptr, ptr %this.addr, align 8
  call void @_ZN3opt7contextD1Ev(ptr noundef nonnull align 8 dereferenceable(792) %this1) #3
  call void @_ZdlPv(ptr noundef %this1) #18
  ret void
}

; Function Attrs: nobuiltin nounwind
declare void @_ZdlPv(ptr noundef) #10

; Function Attrs: nounwind uwtable
define hidden void @_ZThn72_N3opt7contextD0Ev(ptr noundef %this) unnamed_addr #9 align 2 {
entry:
  %this.addr = alloca ptr, align 8
  store ptr %this, ptr %this.addr, align 8
  %this1 = load ptr, ptr %this.addr, align 8
  %0 = getelementptr inbounds i8, ptr %this1, i64 -72
  tail call void @_ZN3opt7contextD0Ev(ptr noundef nonnull align 8 dereferenceable(792) %0) #3
  ret void
}

; Function Attrs: nounwind uwtable
define hidden void @_ZThn80_N3opt7contextD0Ev(ptr noundef %this) unnamed_addr #9 align 2 {
entry:
  %this.addr = alloca ptr, align 8
  store ptr %this, ptr %this.addr, align 8
  %this1 = load ptr, ptr %this.addr, align 8
  %0 = getelementptr inbounds i8, ptr %this1, i64 -80
  tail call void @_ZN3opt7contextD0Ev(ptr noundef nonnull align 8 dereferenceable(792) %0) #3
  ret void
}

; Function Attrs: mustprogress uwtable
define linkonce_odr hidden { ptr, ptr } @_ZNK9table2mapI17default_map_entryI6symbolPN3opt6maxsmtEE16symbol_hash_proc14symbol_eq_procE5beginEv(ptr noundef nonnull align 8 dereferenceable(24) %this) #5 comdat align 2 {
entry:
  %retval = alloca %"class.core_hashtable<default_map_entry<symbol, opt::maxsmt *>, table2map<default_map_entry<symbol, opt::maxsmt *>, symbol_hash_proc, symbol_eq_proc>::entry_hash_proc, table2map<default_map_entry<symbol, opt::maxsmt *>, symbol_hash_proc, symbol_eq_proc>::entry_eq_proc>::iterator", align 8
  %this.addr = alloca ptr, align 8
  store ptr %this, ptr %this.addr, align 8
  %this1 = load ptr, ptr %this.addr, align 8
  %m_table = getelementptr inbounds %class.table2map.48, ptr %this1, i32 0, i32 0
  %call = call { ptr, ptr } @_ZNK14core_hashtableI17default_map_entryI6symbolPN3opt6maxsmtEEN9table2mapIS5_16symbol_hash_proc14symbol_eq_procE15entry_hash_procENS9_13entry_eq_procEE5beginEv(ptr noundef nonnull align 8 dereferenceable(20) %m_table)
  %0 = getelementptr inbounds { ptr, ptr }, ptr %retval, i32 0, i32 0
  %1 = extractvalue { ptr, ptr } %call, 0
  store ptr %1, ptr %0, align 8
  %2 = getelementptr inbounds { ptr, ptr }, ptr %retval, i32 0, i32 1
  %3 = extractvalue { ptr, ptr } %call, 1
  store ptr %3, ptr %2, align 8
  %4 = load { ptr, ptr }, ptr %retval, align 8
  ret { ptr, ptr } %4
}

; Function Attrs: mustprogress uwtable
define linkonce_odr hidden { ptr, ptr } @_ZNK9table2mapI17default_map_entryI6symbolPN3opt6maxsmtEE16symbol_hash_proc14symbol_eq_procE3endEv(ptr noundef nonnull align 8 dereferenceable(24) %this) #5 comdat align 2 {
entry:
  %retval = alloca %"class.core_hashtable<default_map_entry<symbol, opt::maxsmt *>, table2map<default_map_entry<symbol, opt::maxsmt *>, symbol_hash_proc, symbol_eq_proc>::entry_hash_proc, table2map<default_map_entry<symbol, opt::maxsmt *>, symbol_hash_proc, symbol_eq_proc>::entry_eq_proc>::iterator", align 8
  %this.addr = alloca ptr, align 8
  store ptr %this, ptr %this.addr, align 8
  %this1 = load ptr, ptr %this.addr, align 8
  %m_table = getelementptr inbounds %class.table2map.48, ptr %this1, i32 0, i32 0
  %call = call { ptr, ptr } @_ZNK14core_hashtableI17default_map_entryI6symbolPN3opt6maxsmtEEN9table2mapIS5_16symbol_hash_proc14symbol_eq_procE15entry_hash_procENS9_13entry_eq_procEE3endEv(ptr noundef nonnull align 8 dereferenceable(20) %m_table)
  %0 = getelementptr inbounds { ptr, ptr }, ptr %retval, i32 0, i32 0
  %1 = extractvalue { ptr, ptr } %call, 0
  store ptr %1, ptr %0, align 8
  %2 = getelementptr inbounds { ptr, ptr }, ptr %retval, i32 0, i32 1
  %3 = extractvalue { ptr, ptr } %call, 1
  store ptr %3, ptr %2, align 8
  %4 = load { ptr, ptr }, ptr %retval, align 8
  ret { ptr, ptr } %4
}

; Function Attrs: mustprogress nounwind uwtable
define linkonce_odr hidden noundef zeroext i1 @_ZNK14core_hashtableI17default_map_entryI6symbolPN3opt6maxsmtEEN9table2mapIS5_16symbol_hash_proc14symbol_eq_procE15entry_hash_procENS9_13entry_eq_procEE8iteratorneERKSD_(ptr noundef nonnull align 8 dereferenceable(16) %this, ptr noundef nonnull align 8 dereferenceable(16) %it) #4 comdat align 2 {
entry:
  %this.addr = alloca ptr, align 8
  %it.addr = alloca ptr, align 8
  store ptr %this, ptr %this.addr, align 8
  store ptr %it, ptr %it.addr, align 8
  %this1 = load ptr, ptr %this.addr, align 8
  %m_curr = getelementptr inbounds %"class.core_hashtable<default_map_entry<symbol, opt::maxsmt *>, table2map<default_map_entry<symbol, opt::maxsmt *>, symbol_hash_proc, symbol_eq_proc>::entry_hash_proc, table2map<default_map_entry<symbol, opt::maxsmt *>, symbol_hash_proc, symbol_eq_proc>::entry_eq_proc>::iterator", ptr %this1, i32 0, i32 0
  %0 = load ptr, ptr %m_curr, align 8
  %1 = load ptr, ptr %it.addr, align 8
  %m_curr2 = getelementptr inbounds %"class.core_hashtable<default_map_entry<symbol, opt::maxsmt *>, table2map<default_map_entry<symbol, opt::maxsmt *>, symbol_hash_proc, symbol_eq_proc>::entry_hash_proc, table2map<default_map_entry<symbol, opt::maxsmt *>, symbol_hash_proc, symbol_eq_proc>::entry_eq_proc>::iterator", ptr %1, i32 0, i32 0
  %2 = load ptr, ptr %m_curr2, align 8
  %cmp = icmp ne ptr %0, %2
  ret i1 %cmp
}

; Function Attrs: mustprogress uwtable
define linkonce_odr hidden noundef nonnull align 8 dereferenceable(16) ptr @_ZN14core_hashtableI17default_map_entryI6symbolPN3opt6maxsmtEEN9table2mapIS5_16symbol_hash_proc14symbol_eq_procE15entry_hash_procENS9_13entry_eq_procEE8iteratordeEv(ptr noundef nonnull align 8 dereferenceable(16) %this) #5 comdat align 2 {
entry:
  %this.addr = alloca ptr, align 8
  store ptr %this, ptr %this.addr, align 8
  %this1 = load ptr, ptr %this.addr, align 8
  %m_curr = getelementptr inbounds %"class.core_hashtable<default_map_entry<symbol, opt::maxsmt *>, table2map<default_map_entry<symbol, opt::maxsmt *>, symbol_hash_proc, symbol_eq_proc>::entry_hash_proc, table2map<default_map_entry<symbol, opt::maxsmt *>, symbol_hash_proc, symbol_eq_proc>::entry_eq_proc>::iterator", ptr %this1, i32 0, i32 0
  %0 = load ptr, ptr %m_curr, align 8
  %call = call noundef nonnull align 8 dereferenceable(16) ptr @_ZN18default_hash_entryI9_key_dataI6symbolPN3opt6maxsmtEEE8get_dataEv(ptr noundef nonnull align 8 dereferenceable(24) %0)
  ret ptr %call
}

; Function Attrs: mustprogress uwtable
define linkonce_odr hidden void @_Z7deallocIN3opt6maxsmtEEvPT_(ptr noundef %ptr) #5 comdat {
entry:
  %ptr.addr = alloca ptr, align 8
  store ptr %ptr, ptr %ptr.addr, align 8
  %0 = load ptr, ptr %ptr.addr, align 8
  %cmp = icmp eq ptr %0, null
  br i1 %cmp, label %if.then, label %if.end

if.then:                                          ; preds = %entry
  br label %return

if.end:                                           ; preds = %entry
  %1 = load ptr, ptr %ptr.addr, align 8
  call void @_ZN3opt6maxsmtD2Ev(ptr noundef nonnull align 8 dereferenceable(168) %1) #3
  %2 = load ptr, ptr %ptr.addr, align 8
  call void @_ZN6memory10deallocateEPv(ptr noundef %2)
  br label %return

return:                                           ; preds = %if.end, %if.then
  ret void
}

; Function Attrs: mustprogress uwtable
define linkonce_odr hidden noundef nonnull align 8 dereferenceable(16) ptr @_ZN14core_hashtableI17default_map_entryI6symbolPN3opt6maxsmtEEN9table2mapIS5_16symbol_hash_proc14symbol_eq_procE15entry_hash_procENS9_13entry_eq_procEE8iteratorppEv(ptr noundef nonnull align 8 dereferenceable(16) %this) #5 comdat align 2 {
entry:
  %this.addr = alloca ptr, align 8
  store ptr %this, ptr %this.addr, align 8
  %this1 = load ptr, ptr %this.addr, align 8
  %m_curr = getelementptr inbounds %"class.core_hashtable<default_map_entry<symbol, opt::maxsmt *>, table2map<default_map_entry<symbol, opt::maxsmt *>, symbol_hash_proc, symbol_eq_proc>::entry_hash_proc, table2map<default_map_entry<symbol, opt::maxsmt *>, symbol_hash_proc, symbol_eq_proc>::entry_eq_proc>::iterator", ptr %this1, i32 0, i32 0
  %0 = load ptr, ptr %m_curr, align 8
  %incdec.ptr = getelementptr inbounds %class.default_map_entry.162, ptr %0, i32 1
  store ptr %incdec.ptr, ptr %m_curr, align 8
  call void @_ZN14core_hashtableI17default_map_entryI6symbolPN3opt6maxsmtEEN9table2mapIS5_16symbol_hash_proc14symbol_eq_procE15entry_hash_procENS9_13entry_eq_procEE8iterator12move_to_usedEv(ptr noundef nonnull align 8 dereferenceable(16) %this1)
  ret ptr %this1
}

; Function Attrs: mustprogress uwtable
define linkonce_odr hidden void @_ZN9table2mapI17default_map_entryI6symbolPN3opt6maxsmtEE16symbol_hash_proc14symbol_eq_procE5resetEv(ptr noundef nonnull align 8 dereferenceable(24) %this) #5 comdat align 2 {
entry:
  %this.addr = alloca ptr, align 8
  store ptr %this, ptr %this.addr, align 8
  %this1 = load ptr, ptr %this.addr, align 8
  %m_table = getelementptr inbounds %class.table2map.48, ptr %this1, i32 0, i32 0
  call void @_ZN14core_hashtableI17default_map_entryI6symbolPN3opt6maxsmtEEN9table2mapIS5_16symbol_hash_proc14symbol_eq_procE15entry_hash_procENS9_13entry_eq_procEE5resetEv(ptr noundef nonnull align 8 dereferenceable(20) %m_table)
  ret void
}

; Function Attrs: mustprogress uwtable
define hidden void @_ZN3opt7context4pushEv(ptr noundef nonnull align 8 dereferenceable(792) %this) unnamed_addr #5 align 2 {
entry:
  %this.addr = alloca ptr, align 8
  store ptr %this, ptr %this.addr, align 8
  %this1 = load ptr, ptr %this.addr, align 8
  %m_scoped_state = getelementptr inbounds %"class.opt::context", ptr %this1, i32 0, i32 21
  call void @_ZN3opt7context12scoped_state4pushEv(ptr noundef nonnull align 8 dereferenceable(152) %m_scoped_state)
  ret void
}

; Function Attrs: mustprogress uwtable
define hidden void @_ZN3opt7context3popEj(ptr noundef nonnull align 8 dereferenceable(792) %this, i32 noundef %n) unnamed_addr #5 align 2 {
entry:
  %this.addr = alloca ptr, align 8
  %n.addr = alloca i32, align 4
  %ref.tmp = alloca i32, align 4
  %i = alloca i32, align 4
  store ptr %this, ptr %this.addr, align 8
  store i32 %n, ptr %n.addr, align 4
  %this1 = load ptr, ptr %this.addr, align 8
  %m_scoped_state = getelementptr inbounds %"class.opt::context", ptr %this1, i32 0, i32 21
  %call = call noundef i32 @_ZNK3opt7context12scoped_state10num_scopesEv(ptr noundef nonnull align 8 dereferenceable(152) %m_scoped_state)
  store i32 %call, ptr %ref.tmp, align 4
  %call2 = call noundef nonnull align 4 dereferenceable(4) ptr @_ZSt3minIjERKT_S2_S2_(ptr noundef nonnull align 4 dereferenceable(4) %n.addr, ptr noundef nonnull align 4 dereferenceable(4) %ref.tmp)
  %0 = load i32, ptr %call2, align 4
  store i32 %0, ptr %n.addr, align 4
  store i32 0, ptr %i, align 4
  br label %for.cond

for.cond:                                         ; preds = %for.inc, %entry
  %1 = load i32, ptr %i, align 4
  %2 = load i32, ptr %n.addr, align 4
  %cmp = icmp ult i32 %1, %2
  br i1 %cmp, label %for.body, label %for.end

for.body:                                         ; preds = %for.cond
  %m_scoped_state3 = getelementptr inbounds %"class.opt::context", ptr %this1, i32 0, i32 21
  call void @_ZN3opt7context12scoped_state3popEv(ptr noundef nonnull align 8 dereferenceable(152) %m_scoped_state3)
  br label %for.inc

for.inc:                                          ; preds = %for.body
  %3 = load i32, ptr %i, align 4
  %inc = add i32 %3, 1
  store i32 %inc, ptr %i, align 4
  br label %for.cond, !llvm.loop !9

for.end:                                          ; preds = %for.cond
  call void @_ZN3opt7context11clear_stateEv(ptr noundef nonnull align 8 dereferenceable(792) %this1)
  call void @_ZN3opt7context13reset_maxsmtsEv(ptr noundef nonnull align 8 dereferenceable(792) %this1)
  %m_optsmt = getelementptr inbounds %"class.opt::context", ptr %this1, i32 0, i32 19
  call void @_ZN3opt6optsmt5resetEv(ptr noundef nonnull align 8 dereferenceable(120) %m_optsmt)
  %m_hard_constraints = getelementptr inbounds %"class.opt::context", ptr %this1, i32 0, i32 9
  call void @_ZN15ref_vector_coreI4expr19ref_manager_wrapperIS0_11ast_managerEE5resetEv(ptr noundef nonnull align 8 dereferenceable(16) %m_hard_constraints)
  ret void
}

; Function Attrs: mustprogress nounwind uwtable
define linkonce_odr noundef nonnull align 4 dereferenceable(4) ptr @_ZSt3minIjERKT_S2_S2_(ptr noundef nonnull align 4 dereferenceable(4) %__a, ptr noundef nonnull align 4 dereferenceable(4) %__b) #4 comdat {
entry:
  %retval = alloca ptr, align 8
  %__a.addr = alloca ptr, align 8
  %__b.addr = alloca ptr, align 8
  store ptr %__a, ptr %__a.addr, align 8
  store ptr %__b, ptr %__b.addr, align 8
  %0 = load ptr, ptr %__b.addr, align 8
  %1 = load i32, ptr %0, align 4
  %2 = load ptr, ptr %__a.addr, align 8
  %3 = load i32, ptr %2, align 4
  %cmp = icmp ult i32 %1, %3
  br i1 %cmp, label %if.then, label %if.end

if.then:                                          ; preds = %entry
  %4 = load ptr, ptr %__b.addr, align 8
  store ptr %4, ptr %retval, align 8
  br label %return

if.end:                                           ; preds = %entry
  %5 = load ptr, ptr %__a.addr, align 8
  store ptr %5, ptr %retval, align 8
  br label %return

return:                                           ; preds = %if.end, %if.then
  %6 = load ptr, ptr %retval, align 8
  ret ptr %6
}

; Function Attrs: mustprogress uwtable
define linkonce_odr hidden noundef i32 @_ZNK3opt7context12scoped_state10num_scopesEv(ptr noundef nonnull align 8 dereferenceable(152) %this) #5 comdat align 2 {
entry:
  %this.addr = alloca ptr, align 8
  store ptr %this, ptr %this.addr, align 8
  %this1 = load ptr, ptr %this.addr, align 8
  %m_hard_lim = getelementptr inbounds %"class.opt::context::scoped_state", ptr %this1, i32 0, i32 3
  %call = call noundef i32 @_ZNK6vectorIjLb0EjE4sizeEv(ptr noundef nonnull align 8 dereferenceable(8) %m_hard_lim)
  ret i32 %call
}

; Function Attrs: mustprogress uwtable
define hidden void @_ZN3opt7context11clear_stateEv(ptr noundef nonnull align 8 dereferenceable(792) %this) #5 align 2 {
entry:
  %this.addr = alloca ptr, align 8
  store ptr %this, ptr %this.addr, align 8
  %this1 = load ptr, ptr %this.addr, align 8
  %m_pareto = getelementptr inbounds %"class.opt::context", ptr %this1, i32 0, i32 13
  %call = call noundef nonnull align 8 dereferenceable(8) ptr @_ZN10scoped_ptrIN3opt11pareto_baseEEaSEPS1_(ptr noundef nonnull align 8 dereferenceable(8) %m_pareto, ptr noundef null)
  %m_pareto1 = getelementptr inbounds %"class.opt::context", ptr %this1, i32 0, i32 14
  store i8 0, ptr %m_pareto1, align 8
  %m_box_index = getelementptr inbounds %"class.opt::context", ptr %this1, i32 0, i32 17
  store i32 -1, ptr %m_box_index, align 8
  %m_box_models = getelementptr inbounds %"class.opt::context", ptr %this1, i32 0, i32 16
  call void @_ZN15ref_vector_coreI5model21ref_unmanaged_wrapperIS0_EE5resetEv(ptr noundef nonnull align 8 dereferenceable(8) %m_box_models)
  %m_model = getelementptr inbounds %"class.opt::context", ptr %this1, i32 0, i32 23
  call void @_ZN3refI5modelE5resetEv(ptr noundef nonnull align 8 dereferenceable(8) %m_model)
  %m_model_fixed = getelementptr inbounds %"class.opt::context", ptr %this1, i32 0, i32 26
  call void @_ZN15ref_vector_coreI5model21ref_unmanaged_wrapperIS0_EE5resetEv(ptr noundef nonnull align 8 dereferenceable(8) %m_model_fixed)
  %m_core = getelementptr inbounds %"class.opt::context", ptr %this1, i32 0, i32 32
  call void @_ZN15ref_vector_coreI4expr19ref_manager_wrapperIS0_11ast_managerEE5resetEv(ptr noundef nonnull align 8 dereferenceable(16) %m_core)
  ret void
}

declare void @_ZN3opt6optsmt5resetEv(ptr noundef nonnull align 8 dereferenceable(120)) #1

; Function Attrs: mustprogress uwtable
define hidden void @_ZN3opt7context10get_labelsER7svectorI6symboljE(ptr noundef nonnull align 8 dereferenceable(792) %this, ptr noundef nonnull align 8 dereferenceable(8) %r) unnamed_addr #5 align 2 {
entry:
  %this.addr = alloca ptr, align 8
  %r.addr = alloca ptr, align 8
  store ptr %this, ptr %this.addr, align 8
  store ptr %r, ptr %r.addr, align 8
  %this1 = load ptr, ptr %this.addr, align 8
  %0 = load ptr, ptr %r.addr, align 8
  %m_labels = getelementptr inbounds %"class.opt::context", ptr %this1, i32 0, i32 42
  call void @_ZN6vectorI6symbolLb0EjE6appendERKS1_(ptr noundef nonnull align 8 dereferenceable(8) %0, ptr noundef nonnull align 8 dereferenceable(8) %m_labels)
  ret void
}

; Function Attrs: mustprogress uwtable
define linkonce_odr hidden void @_ZN6vectorI6symbolLb0EjE6appendERKS1_(ptr noundef nonnull align 8 dereferenceable(8) %this, ptr noundef nonnull align 8 dereferenceable(8) %other) #5 comdat align 2 {
entry:
  %this.addr = alloca ptr, align 8
  %other.addr = alloca ptr, align 8
  %i = alloca i32, align 4
  store ptr %this, ptr %this.addr, align 8
  store ptr %other, ptr %other.addr, align 8
  %this1 = load ptr, ptr %this.addr, align 8
  store i32 0, ptr %i, align 4
  br label %for.cond

for.cond:                                         ; preds = %for.inc, %entry
  %0 = load i32, ptr %i, align 4
  %1 = load ptr, ptr %other.addr, align 8
  %call = call noundef i32 @_ZNK6vectorI6symbolLb0EjE4sizeEv(ptr noundef nonnull align 8 dereferenceable(8) %1)
  %cmp = icmp ult i32 %0, %call
  br i1 %cmp, label %for.body, label %for.end

for.body:                                         ; preds = %for.cond
  %2 = load ptr, ptr %other.addr, align 8
  %3 = load i32, ptr %i, align 4
  %call2 = call noundef nonnull align 8 dereferenceable(8) ptr @_ZNK6vectorI6symbolLb0EjEixEj(ptr noundef nonnull align 8 dereferenceable(8) %2, i32 noundef %3)
  %call3 = call noundef nonnull align 8 dereferenceable(8) ptr @_ZN6vectorI6symbolLb0EjE9push_backERKS0_(ptr noundef nonnull align 8 dereferenceable(8) %this1, ptr noundef nonnull align 8 dereferenceable(8) %call2)
  br label %for.inc

for.inc:                                          ; preds = %for.body
  %4 = load i32, ptr %i, align 4
  %inc = add i32 %4, 1
  store i32 %inc, ptr %i, align 4
  br label %for.cond, !llvm.loop !10

for.end:                                          ; preds = %for.cond
  ret void
}

; Function Attrs: mustprogress uwtable
define hidden void @_ZN3opt7context14get_unsat_coreER10ref_vectorI4expr11ast_managerE(ptr noundef nonnull align 8 dereferenceable(792) %this, ptr noundef nonnull align 8 dereferenceable(16) %r) unnamed_addr #5 align 2 {
entry:
  %this.addr = alloca ptr, align 8
  %r.addr = alloca ptr, align 8
  store ptr %this, ptr %this.addr, align 8
  store ptr %r, ptr %r.addr, align 8
  %this1 = load ptr, ptr %this.addr, align 8
  %0 = load ptr, ptr %r.addr, align 8
  %m_core = getelementptr inbounds %"class.opt::context", ptr %this1, i32 0, i32 32
  call void @_ZN15ref_vector_coreI4expr19ref_manager_wrapperIS0_11ast_managerEE6appendERKS4_(ptr noundef nonnull align 8 dereferenceable(16) %0, ptr noundef nonnull align 8 dereferenceable(16) %m_core)
  ret void
}

; Function Attrs: mustprogress uwtable
define hidden void @_ZN3opt7context20set_hard_constraintsERK10ref_vectorI4expr11ast_managerE(ptr noundef nonnull align 8 dereferenceable(792) %this, ptr noundef nonnull align 8 dereferenceable(16) %fmls) unnamed_addr #5 align 2 {
entry:
  %this.addr = alloca ptr, align 8
  %fmls.addr = alloca ptr, align 8
  %__range2 = alloca ptr, align 8
  %__begin2 = alloca ptr, align 8
  %__end2 = alloca ptr, align 8
  %f = alloca ptr, align 8
  store ptr %this, ptr %this.addr, align 8
  store ptr %fmls, ptr %fmls.addr, align 8
  %this1 = load ptr, ptr %this.addr, align 8
  %m_calling_on_model = getelementptr inbounds %"class.opt::context", ptr %this1, i32 0, i32 6
  %0 = load i8, ptr %m_calling_on_model, align 8
  %tobool = trunc i8 %0 to i1
  br i1 %tobool, label %if.then, label %if.end

if.then:                                          ; preds = %entry
  %1 = load ptr, ptr %fmls.addr, align 8
  store ptr %1, ptr %__range2, align 8
  %2 = load ptr, ptr %__range2, align 8
  %call = call noundef ptr @_ZNK15ref_vector_coreI4expr19ref_manager_wrapperIS0_11ast_managerEE5beginEv(ptr noundef nonnull align 8 dereferenceable(16) %2)
  store ptr %call, ptr %__begin2, align 8
  %3 = load ptr, ptr %__range2, align 8
  %call2 = call noundef ptr @_ZNK15ref_vector_coreI4expr19ref_manager_wrapperIS0_11ast_managerEE3endEv(ptr noundef nonnull align 8 dereferenceable(16) %3)
  store ptr %call2, ptr %__end2, align 8
  br label %for.cond

for.cond:                                         ; preds = %for.inc, %if.then
  %4 = load ptr, ptr %__begin2, align 8
  %5 = load ptr, ptr %__end2, align 8
  %cmp = icmp ne ptr %4, %5
  br i1 %cmp, label %for.body, label %for.end

for.body:                                         ; preds = %for.cond
  %6 = load ptr, ptr %__begin2, align 8
  %7 = load ptr, ptr %6, align 8
  store ptr %7, ptr %f, align 8
  %8 = load ptr, ptr %f, align 8
  call void @_ZN3opt7context19add_hard_constraintEP4expr(ptr noundef nonnull align 8 dereferenceable(792) %this1, ptr noundef %8)
  br label %for.inc

for.inc:                                          ; preds = %for.body
  %9 = load ptr, ptr %__begin2, align 8
  %incdec.ptr = getelementptr inbounds ptr, ptr %9, i32 1
  store ptr %incdec.ptr, ptr %__begin2, align 8
  br label %for.cond

for.end:                                          ; preds = %for.cond
  br label %if.end5

if.end:                                           ; preds = %entry
  %m_scoped_state = getelementptr inbounds %"class.opt::context", ptr %this1, i32 0, i32 21
  %10 = load ptr, ptr %fmls.addr, align 8
  %call3 = call noundef zeroext i1 @_ZN3opt7context12scoped_state3setERK10ref_vectorI4expr11ast_managerE(ptr noundef nonnull align 8 dereferenceable(152) %m_scoped_state, ptr noundef nonnull align 8 dereferenceable(16) %10)
  br i1 %call3, label %if.then4, label %if.end5

if.then4:                                         ; preds = %if.end
  call void @_ZN3opt7context11clear_stateEv(ptr noundef nonnull align 8 dereferenceable(792) %this1)
  br label %if.end5

if.end5:                                          ; preds = %if.then4, %if.end, %for.end
  ret void
}

; Function Attrs: mustprogress uwtable
define linkonce_odr hidden noundef ptr @_ZNK15ref_vector_coreI4expr19ref_manager_wrapperIS0_11ast_managerEE5beginEv(ptr noundef nonnull align 8 dereferenceable(16) %this) #5 comdat align 2 {
entry:
  %this.addr = alloca ptr, align 8
  store ptr %this, ptr %this.addr, align 8
  %this1 = load ptr, ptr %this.addr, align 8
  %m_nodes = getelementptr inbounds %class.ref_vector_core, ptr %this1, i32 0, i32 1
  %call = call noundef ptr @_ZNK6vectorIP4exprLb0EjE5beginEv(ptr noundef nonnull align 8 dereferenceable(8) %m_nodes)
  ret ptr %call
}

; Function Attrs: mustprogress uwtable
define linkonce_odr hidden noundef ptr @_ZNK15ref_vector_coreI4expr19ref_manager_wrapperIS0_11ast_managerEE3endEv(ptr noundef nonnull align 8 dereferenceable(16) %this) #5 comdat align 2 {
entry:
  %this.addr = alloca ptr, align 8
  store ptr %this, ptr %this.addr, align 8
  %this1 = load ptr, ptr %this.addr, align 8
  %call = call noundef ptr @_ZNK15ref_vector_coreI4expr19ref_manager_wrapperIS0_11ast_managerEE5beginEv(ptr noundef nonnull align 8 dereferenceable(16) %this1)
  %call2 = call noundef i32 @_ZNK15ref_vector_coreI4expr19ref_manager_wrapperIS0_11ast_managerEE4sizeEv(ptr noundef nonnull align 8 dereferenceable(16) %this1)
  %idx.ext = zext i32 %call2 to i64
  %add.ptr = getelementptr inbounds ptr, ptr %call, i64 %idx.ext
  ret ptr %add.ptr
}

; Function Attrs: mustprogress uwtable
define hidden void @_ZN3opt7context19add_hard_constraintEP4expr(ptr noundef nonnull align 8 dereferenceable(792) %this, ptr noundef %f) #5 align 2 personality ptr @__gxx_personality_v0 {
entry:
  %this.addr = alloca ptr, align 8
  %f.addr = alloca ptr, align 8
  %ref.tmp = alloca %"class.std::__cxx11::basic_string", align 8
  %ref.tmp4 = alloca %"class.std::allocator", align 1
  %exn.slot = alloca ptr, align 8
  %ehselector.slot = alloca i32, align 4
  %cleanup.isactive = alloca i1, align 1
  %__range2 = alloca ptr, align 8
  %__begin2 = alloca %"class.core_hashtable<default_map_entry<symbol, opt::maxsmt *>, table2map<default_map_entry<symbol, opt::maxsmt *>, symbol_hash_proc, symbol_eq_proc>::entry_hash_proc, table2map<default_map_entry<symbol, opt::maxsmt *>, symbol_hash_proc, symbol_eq_proc>::entry_eq_proc>::iterator", align 8
  %__end2 = alloca %"class.core_hashtable<default_map_entry<symbol, opt::maxsmt *>, table2map<default_map_entry<symbol, opt::maxsmt *>, symbol_hash_proc, symbol_eq_proc>::entry_hash_proc, table2map<default_map_entry<symbol, opt::maxsmt *>, symbol_hash_proc, symbol_eq_proc>::entry_eq_proc>::iterator", align 8
  %0 = alloca ptr, align 8
  %i = alloca i32, align 4
  %o = alloca ptr, align 8
  %ref.tmp21 = alloca %class.inf_eps_rational, align 8
  store ptr %this, ptr %this.addr, align 8
  store ptr %f, ptr %f.addr, align 8
  %this1 = load ptr, ptr %this.addr, align 8
  %m_calling_on_model = getelementptr inbounds %"class.opt::context", ptr %this1, i32 0, i32 6
  %1 = load i8, ptr %m_calling_on_model, align 8
  %tobool = trunc i8 %1 to i1
  br i1 %tobool, label %if.then, label %if.else

if.then:                                          ; preds = %entry
  %m_incremental = getelementptr inbounds %"class.opt::context", ptr %this1, i32 0, i32 39
  %2 = load i8, ptr %m_incremental, align 1
  %tobool2 = trunc i8 %2 to i1
  br i1 %tobool2, label %if.end, label %if.then3

if.then3:                                         ; preds = %if.then
  store i1 true, ptr %cleanup.isactive, align 1
  %exception = call ptr @__cxa_allocate_exception(i64 40) #3
  call void @_ZNSaIcEC1Ev(ptr noundef nonnull align 1 dereferenceable(1) %ref.tmp4) #3
  invoke void @_ZNSt7__cxx1112basic_stringIcSt11char_traitsIcESaIcEEC2IS3_EEPKcRKS3_(ptr noundef nonnull align 8 dereferenceable(32) %ref.tmp, ptr noundef @.str.13, ptr noundef nonnull align 1 dereferenceable(1) %ref.tmp4)
          to label %invoke.cont unwind label %lpad

invoke.cont:                                      ; preds = %if.then3
  invoke void @_ZN17default_exceptionC2EONSt7__cxx1112basic_stringIcSt11char_traitsIcESaIcEEE(ptr noundef nonnull align 8 dereferenceable(40) %exception, ptr noundef nonnull align 8 dereferenceable(32) %ref.tmp)
          to label %invoke.cont6 unwind label %lpad5

invoke.cont6:                                     ; preds = %invoke.cont
  store i1 false, ptr %cleanup.isactive, align 1
  invoke void @__cxa_throw(ptr %exception, ptr @_ZTI17default_exception, ptr @_ZN17default_exceptionD2Ev) #16
          to label %unreachable unwind label %lpad5

lpad:                                             ; preds = %if.then3
  %3 = landingpad { ptr, i32 }
          cleanup
  %4 = extractvalue { ptr, i32 } %3, 0
  store ptr %4, ptr %exn.slot, align 8
  %5 = extractvalue { ptr, i32 } %3, 1
  store i32 %5, ptr %ehselector.slot, align 4
  br label %ehcleanup

lpad5:                                            ; preds = %invoke.cont6, %invoke.cont
  %6 = landingpad { ptr, i32 }
          cleanup
  %7 = extractvalue { ptr, i32 } %6, 0
  store ptr %7, ptr %exn.slot, align 8
  %8 = extractvalue { ptr, i32 } %6, 1
  store i32 %8, ptr %ehselector.slot, align 4
  call void @_ZNSt7__cxx1112basic_stringIcSt11char_traitsIcESaIcEED1Ev(ptr noundef nonnull align 8 dereferenceable(32) %ref.tmp) #3
  br label %ehcleanup

ehcleanup:                                        ; preds = %lpad5, %lpad
  call void @_ZNSaIcED1Ev(ptr noundef nonnull align 1 dereferenceable(1) %ref.tmp4) #3
  %cleanup.is_active = load i1, ptr %cleanup.isactive, align 1
  br i1 %cleanup.is_active, label %cleanup.action, label %cleanup.done

cleanup.action:                                   ; preds = %ehcleanup
  call void @__cxa_free_exception(ptr %exception) #3
  br label %cleanup.done

cleanup.done:                                     ; preds = %cleanup.action, %ehcleanup
  br label %eh.resume

if.end:                                           ; preds = %if.then
  %vtable = load ptr, ptr %this1, align 8
  %vfn = getelementptr inbounds ptr, ptr %vtable, i64 29
  %9 = load ptr, ptr %vfn, align 8
  %call = call noundef nonnull align 8 dereferenceable(96) ptr %9(ptr noundef nonnull align 8 dereferenceable(792) %this1)
  %10 = load ptr, ptr %f.addr, align 8
  call void @_ZN6solver11assert_exprEP4expr(ptr noundef nonnull align 8 dereferenceable(96) %call, ptr noundef %10)
  %m_maxsmts = getelementptr inbounds %"class.opt::context", ptr %this1, i32 0, i32 20
  store ptr %m_maxsmts, ptr %__range2, align 8
  %11 = load ptr, ptr %__range2, align 8
  %call8 = call { ptr, ptr } @_ZNK9table2mapI17default_map_entryI6symbolPN3opt6maxsmtEE16symbol_hash_proc14symbol_eq_procE5beginEv(ptr noundef nonnull align 8 dereferenceable(24) %11)
  %12 = getelementptr inbounds { ptr, ptr }, ptr %__begin2, i32 0, i32 0
  %13 = extractvalue { ptr, ptr } %call8, 0
  store ptr %13, ptr %12, align 8
  %14 = getelementptr inbounds { ptr, ptr }, ptr %__begin2, i32 0, i32 1
  %15 = extractvalue { ptr, ptr } %call8, 1
  store ptr %15, ptr %14, align 8
  %16 = load ptr, ptr %__range2, align 8
  %call9 = call { ptr, ptr } @_ZNK9table2mapI17default_map_entryI6symbolPN3opt6maxsmtEE16symbol_hash_proc14symbol_eq_procE3endEv(ptr noundef nonnull align 8 dereferenceable(24) %16)
  %17 = getelementptr inbounds { ptr, ptr }, ptr %__end2, i32 0, i32 0
  %18 = extractvalue { ptr, ptr } %call9, 0
  store ptr %18, ptr %17, align 8
  %19 = getelementptr inbounds { ptr, ptr }, ptr %__end2, i32 0, i32 1
  %20 = extractvalue { ptr, ptr } %call9, 1
  store ptr %20, ptr %19, align 8
  br label %for.cond

for.cond:                                         ; preds = %for.inc, %if.end
  %call10 = call noundef zeroext i1 @_ZNK14core_hashtableI17default_map_entryI6symbolPN3opt6maxsmtEEN9table2mapIS5_16symbol_hash_proc14symbol_eq_procE15entry_hash_procENS9_13entry_eq_procEE8iteratorneERKSD_(ptr noundef nonnull align 8 dereferenceable(16) %__begin2, ptr noundef nonnull align 8 dereferenceable(16) %__end2)
  br i1 %call10, label %for.body, label %for.end

for.body:                                         ; preds = %for.cond
  %call11 = call noundef nonnull align 8 dereferenceable(16) ptr @_ZN14core_hashtableI17default_map_entryI6symbolPN3opt6maxsmtEEN9table2mapIS5_16symbol_hash_proc14symbol_eq_procE15entry_hash_procENS9_13entry_eq_procEE8iteratordeEv(ptr noundef nonnull align 8 dereferenceable(16) %__begin2)
  store ptr %call11, ptr %0, align 8
  %21 = load ptr, ptr %0, align 8
  %m_value = getelementptr inbounds %struct._key_data, ptr %21, i32 0, i32 1
  %22 = load ptr, ptr %m_value, align 8
  call void @_ZN3opt6maxsmt11reset_upperEv(ptr noundef nonnull align 8 dereferenceable(168) %22)
  br label %for.inc

for.inc:                                          ; preds = %for.body
  %call12 = call noundef nonnull align 8 dereferenceable(16) ptr @_ZN14core_hashtableI17default_map_entryI6symbolPN3opt6maxsmtEEN9table2mapIS5_16symbol_hash_proc14symbol_eq_procE15entry_hash_procENS9_13entry_eq_procEE8iteratorppEv(ptr noundef nonnull align 8 dereferenceable(16) %__begin2)
  br label %for.cond

for.end:                                          ; preds = %for.cond
  store i32 0, ptr %i, align 4
  br label %for.cond13

for.cond13:                                       ; preds = %for.inc26, %for.end
  %23 = load i32, ptr %i, align 4
  %vtable14 = load ptr, ptr %this1, align 8
  %vfn15 = getelementptr inbounds ptr, ptr %vtable14, i64 22
  %24 = load ptr, ptr %vfn15, align 8
  %call16 = call noundef i32 %24(ptr noundef nonnull align 8 dereferenceable(792) %this1)
  %cmp = icmp ult i32 %23, %call16
  br i1 %cmp, label %for.body17, label %for.end27

for.body17:                                       ; preds = %for.cond13
  %m_scoped_state = getelementptr inbounds %"class.opt::context", ptr %this1, i32 0, i32 21
  %m_objectives = getelementptr inbounds %"class.opt::context::scoped_state", ptr %m_scoped_state, i32 0, i32 11
  %25 = load i32, ptr %i, align 4
  %call18 = call noundef nonnull align 8 dereferenceable(100) ptr @_ZN6vectorIN3opt7context9objectiveELb1EjEixEj(ptr noundef nonnull align 8 dereferenceable(8) %m_objectives, i32 noundef %25)
  store ptr %call18, ptr %o, align 8
  %26 = load ptr, ptr %o, align 8
  %m_type = getelementptr inbounds %"struct.opt::context::objective", ptr %26, i32 0, i32 0
  %27 = load i32, ptr %m_type, align 8
  %cmp19 = icmp ne i32 %27, 2
  br i1 %cmp19, label %if.then20, label %if.end25

if.then20:                                        ; preds = %for.body17
  %m_optsmt = getelementptr inbounds %"class.opt::context", ptr %this1, i32 0, i32 19
  %28 = load ptr, ptr %o, align 8
  %m_index = getelementptr inbounds %"struct.opt::context::objective", ptr %28, i32 0, i32 7
  %29 = load i32, ptr %m_index, align 8
  call void @_ZN16inf_eps_rationalI12inf_rationalE8infinityEv(ptr sret(%class.inf_eps_rational) align 8 %ref.tmp21)
  invoke void @_ZN3opt6optsmt12update_upperEjRK16inf_eps_rationalI12inf_rationalE(ptr noundef nonnull align 8 dereferenceable(120) %m_optsmt, i32 noundef %29, ptr noundef nonnull align 8 dereferenceable(96) %ref.tmp21)
          to label %invoke.cont23 unwind label %lpad22

invoke.cont23:                                    ; preds = %if.then20
  call void @_ZN16inf_eps_rationalI12inf_rationalED2Ev(ptr noundef nonnull align 8 dereferenceable(96) %ref.tmp21) #3
  br label %if.end25

lpad22:                                           ; preds = %if.then20
  %30 = landingpad { ptr, i32 }
          cleanup
  %31 = extractvalue { ptr, i32 } %30, 0
  store ptr %31, ptr %exn.slot, align 8
  %32 = extractvalue { ptr, i32 } %30, 1
  store i32 %32, ptr %ehselector.slot, align 4
  call void @_ZN16inf_eps_rationalI12inf_rationalED2Ev(ptr noundef nonnull align 8 dereferenceable(96) %ref.tmp21) #3
  br label %eh.resume

if.end25:                                         ; preds = %invoke.cont23, %for.body17
  br label %for.inc26

for.inc26:                                        ; preds = %if.end25
  %33 = load i32, ptr %i, align 4
  %inc = add i32 %33, 1
  store i32 %inc, ptr %i, align 4
  br label %for.cond13, !llvm.loop !11

for.end27:                                        ; preds = %for.cond13
  br label %if.end29

if.else:                                          ; preds = %entry
  %m_scoped_state28 = getelementptr inbounds %"class.opt::context", ptr %this1, i32 0, i32 21
  %34 = load ptr, ptr %f.addr, align 8
  call void @_ZN3opt7context12scoped_state3addEP4expr(ptr noundef nonnull align 8 dereferenceable(152) %m_scoped_state28, ptr noundef %34)
  call void @_ZN3opt7context11clear_stateEv(ptr noundef nonnull align 8 dereferenceable(792) %this1)
  br label %if.end29

if.end29:                                         ; preds = %if.else, %for.end27
  ret void

eh.resume:                                        ; preds = %lpad22, %cleanup.done
  %exn = load ptr, ptr %exn.slot, align 8
  %sel = load i32, ptr %ehselector.slot, align 4
  %lpad.val = insertvalue { ptr, i32 } poison, ptr %exn, 0
  %lpad.val30 = insertvalue { ptr, i32 } %lpad.val, i32 %sel, 1
  resume { ptr, i32 } %lpad.val30

unreachable:                                      ; preds = %invoke.cont6
  unreachable
}

declare void @_ZN6solver11assert_exprEP4expr(ptr noundef nonnull align 8 dereferenceable(96), ptr noundef) #1

declare void @_ZN3opt6maxsmt11reset_upperEv(ptr noundef nonnull align 8 dereferenceable(168)) #1

declare void @_ZN3opt6optsmt12update_upperEjRK16inf_eps_rationalI12inf_rationalE(ptr noundef nonnull align 8 dereferenceable(120), i32 noundef, ptr noundef nonnull align 8 dereferenceable(96)) #1

; Function Attrs: mustprogress uwtable
define linkonce_odr hidden void @_ZN16inf_eps_rationalI12inf_rationalE8infinityEv(ptr noalias sret(%class.inf_eps_rational) align 8 %agg.result) #5 comdat align 2 {
entry:
  %result.ptr = alloca ptr, align 8
  store ptr %agg.result, ptr %result.ptr, align 8
  %call = call noundef nonnull align 8 dereferenceable(32) ptr @_ZN8rational3oneEv()
  %call1 = call noundef nonnull align 8 dereferenceable(64) ptr @_ZN12inf_rational4zeroEv()
  call void @_ZN16inf_eps_rationalI12inf_rationalEC2ERK8rationalRKS0_(ptr noundef nonnull align 8 dereferenceable(96) %agg.result, ptr noundef nonnull align 8 dereferenceable(32) %call, ptr noundef nonnull align 8 dereferenceable(64) %call1)
  ret void
}

; Function Attrs: mustprogress nounwind uwtable
define linkonce_odr hidden void @_ZN16inf_eps_rationalI12inf_rationalED2Ev(ptr noundef nonnull align 8 dereferenceable(96) %this) unnamed_addr #4 comdat align 2 {
entry:
  %this.addr = alloca ptr, align 8
  store ptr %this, ptr %this.addr, align 8
  %this1 = load ptr, ptr %this.addr, align 8
  %m_r = getelementptr inbounds %class.inf_eps_rational, ptr %this1, i32 0, i32 1
  call void @_ZN12inf_rationalD2Ev(ptr noundef nonnull align 8 dereferenceable(64) %m_r) #3
  %m_infty = getelementptr inbounds %class.inf_eps_rational, ptr %this1, i32 0, i32 0
  call void @_ZN8rationalD2Ev(ptr noundef nonnull align 8 dereferenceable(32) %m_infty) #3
  ret void
}

; Function Attrs: mustprogress uwtable
define hidden void @_ZN3opt7context19add_hard_constraintEP4exprS2_(ptr noundef nonnull align 8 dereferenceable(792) %this, ptr noundef %f, ptr noundef %t) #5 align 2 personality ptr @__gxx_personality_v0 {
entry:
  %this.addr = alloca ptr, align 8
  %f.addr = alloca ptr, align 8
  %t.addr = alloca ptr, align 8
  %ref.tmp = alloca %"class.std::__cxx11::basic_string", align 8
  %ref.tmp2 = alloca %"class.std::allocator", align 1
  %exn.slot = alloca ptr, align 8
  %ehselector.slot = alloca i32, align 4
  %cleanup.isactive = alloca i1, align 1
  store ptr %this, ptr %this.addr, align 8
  store ptr %f, ptr %f.addr, align 8
  store ptr %t, ptr %t.addr, align 8
  %this1 = load ptr, ptr %this.addr, align 8
  %m_calling_on_model = getelementptr inbounds %"class.opt::context", ptr %this1, i32 0, i32 6
  %0 = load i8, ptr %m_calling_on_model, align 8
  %tobool = trunc i8 %0 to i1
  br i1 %tobool, label %if.then, label %if.end

if.then:                                          ; preds = %entry
  store i1 true, ptr %cleanup.isactive, align 1
  %exception = call ptr @__cxa_allocate_exception(i64 40) #3
  call void @_ZNSaIcEC1Ev(ptr noundef nonnull align 1 dereferenceable(1) %ref.tmp2) #3
  invoke void @_ZNSt7__cxx1112basic_stringIcSt11char_traitsIcESaIcEEC2IS3_EEPKcRKS3_(ptr noundef nonnull align 8 dereferenceable(32) %ref.tmp, ptr noundef @.str.14, ptr noundef nonnull align 1 dereferenceable(1) %ref.tmp2)
          to label %invoke.cont unwind label %lpad

invoke.cont:                                      ; preds = %if.then
  invoke void @_ZN17default_exceptionC2EONSt7__cxx1112basic_stringIcSt11char_traitsIcESaIcEEE(ptr noundef nonnull align 8 dereferenceable(40) %exception, ptr noundef nonnull align 8 dereferenceable(32) %ref.tmp)
          to label %invoke.cont4 unwind label %lpad3

invoke.cont4:                                     ; preds = %invoke.cont
  store i1 false, ptr %cleanup.isactive, align 1
  invoke void @__cxa_throw(ptr %exception, ptr @_ZTI17default_exception, ptr @_ZN17default_exceptionD2Ev) #16
          to label %unreachable unwind label %lpad3

lpad:                                             ; preds = %if.then
  %1 = landingpad { ptr, i32 }
          cleanup
  %2 = extractvalue { ptr, i32 } %1, 0
  store ptr %2, ptr %exn.slot, align 8
  %3 = extractvalue { ptr, i32 } %1, 1
  store i32 %3, ptr %ehselector.slot, align 4
  br label %ehcleanup

lpad3:                                            ; preds = %invoke.cont4, %invoke.cont
  %4 = landingpad { ptr, i32 }
          cleanup
  %5 = extractvalue { ptr, i32 } %4, 0
  store ptr %5, ptr %exn.slot, align 8
  %6 = extractvalue { ptr, i32 } %4, 1
  store i32 %6, ptr %ehselector.slot, align 4
  call void @_ZNSt7__cxx1112basic_stringIcSt11char_traitsIcESaIcEED1Ev(ptr noundef nonnull align 8 dereferenceable(32) %ref.tmp) #3
  br label %ehcleanup

ehcleanup:                                        ; preds = %lpad3, %lpad
  call void @_ZNSaIcED1Ev(ptr noundef nonnull align 1 dereferenceable(1) %ref.tmp2) #3
  %cleanup.is_active = load i1, ptr %cleanup.isactive, align 1
  br i1 %cleanup.is_active, label %cleanup.action, label %cleanup.done

cleanup.action:                                   ; preds = %ehcleanup
  call void @__cxa_free_exception(ptr %exception) #3
  br label %cleanup.done

cleanup.done:                                     ; preds = %cleanup.action, %ehcleanup
  br label %eh.resume

if.end:                                           ; preds = %entry
  %m_scoped_state = getelementptr inbounds %"class.opt::context", ptr %this1, i32 0, i32 21
  %m_asms = getelementptr inbounds %"class.opt::context::scoped_state", ptr %m_scoped_state, i32 0, i32 10
  %7 = load ptr, ptr %t.addr, align 8
  %call = call noundef nonnull align 8 dereferenceable(16) ptr @_ZN15ref_vector_coreI4expr19ref_manager_wrapperIS0_11ast_managerEE9push_backEPS0_(ptr noundef nonnull align 8 dereferenceable(16) %m_asms, ptr noundef %7)
  %m_scoped_state6 = getelementptr inbounds %"class.opt::context", ptr %this1, i32 0, i32 21
  %m = getelementptr inbounds %class.check_sat_result, ptr %this1, i32 0, i32 1
  %8 = load ptr, ptr %m, align 8
  %9 = load ptr, ptr %t.addr, align 8
  %10 = load ptr, ptr %f.addr, align 8
  %call7 = call noundef ptr @_ZN11ast_manager10mk_impliesEP4exprS1_(ptr noundef nonnull align 8 dereferenceable(976) %8, ptr noundef %9, ptr noundef %10)
  call void @_ZN3opt7context12scoped_state3addEP4expr(ptr noundef nonnull align 8 dereferenceable(152) %m_scoped_state6, ptr noundef %call7)
  call void @_ZN3opt7context11clear_stateEv(ptr noundef nonnull align 8 dereferenceable(792) %this1)
  ret void

eh.resume:                                        ; preds = %cleanup.done
  %exn = load ptr, ptr %exn.slot, align 8
  %sel = load i32, ptr %ehselector.slot, align 4
  %lpad.val = insertvalue { ptr, i32 } poison, ptr %exn, 0
  %lpad.val8 = insertvalue { ptr, i32 } %lpad.val, i32 %sel, 1
  resume { ptr, i32 } %lpad.val8

unreachable:                                      ; preds = %invoke.cont4
  unreachable
}

; Function Attrs: mustprogress uwtable
define linkonce_odr hidden noundef ptr @_ZN11ast_manager10mk_impliesEP4exprS1_(ptr noundef nonnull align 8 dereferenceable(976) %this, ptr noundef %arg1, ptr noundef %arg2) #5 comdat align 2 {
entry:
  %this.addr = alloca ptr, align 8
  %arg1.addr = alloca ptr, align 8
  %arg2.addr = alloca ptr, align 8
  store ptr %this, ptr %this.addr, align 8
  store ptr %arg1, ptr %arg1.addr, align 8
  store ptr %arg2, ptr %arg2.addr, align 8
  %this1 = load ptr, ptr %this.addr, align 8
  %0 = load ptr, ptr %arg1.addr, align 8
  %1 = load ptr, ptr %arg2.addr, align 8
  %call = call noundef ptr @_ZN11ast_manager6mk_appEiiP4exprS1_(ptr noundef nonnull align 8 dereferenceable(976) %this1, i32 noundef 0, i32 noundef 9, ptr noundef %0, ptr noundef %1)
  ret ptr %call
}

; Function Attrs: mustprogress uwtable
define hidden void @_ZN3opt7context20get_hard_constraintsER10ref_vectorI4expr11ast_managerE(ptr noundef nonnull align 8 dereferenceable(792) %this, ptr noundef nonnull align 8 dereferenceable(16) %hard) #5 align 2 {
entry:
  %this.addr = alloca ptr, align 8
  %hard.addr = alloca ptr, align 8
  store ptr %this, ptr %this.addr, align 8
  store ptr %hard, ptr %hard.addr, align 8
  %this1 = load ptr, ptr %this.addr, align 8
  %0 = load ptr, ptr %hard.addr, align 8
  %m_scoped_state = getelementptr inbounds %"class.opt::context", ptr %this1, i32 0, i32 21
  %m_hard = getelementptr inbounds %"class.opt::context::scoped_state", ptr %m_scoped_state, i32 0, i32 9
  call void @_ZN15ref_vector_coreI4expr19ref_manager_wrapperIS0_11ast_managerEE6appendERKS4_(ptr noundef nonnull align 8 dereferenceable(16) %0, ptr noundef nonnull align 8 dereferenceable(16) %m_hard)
  ret void
}

; Function Attrs: mustprogress uwtable
define hidden void @_ZN3opt7context13get_objectiveEj(ptr noalias sret(%class.obj_ref.76) align 8 %agg.result, ptr noundef nonnull align 8 dereferenceable(792) %this, i32 noundef %i) #5 align 2 personality ptr @__gxx_personality_v0 {
entry:
  %result.ptr = alloca ptr, align 8
  %this.addr = alloca ptr, align 8
  %i.addr = alloca i32, align 4
  %o = alloca ptr, align 8
  %nrvo = alloca i1, align 1
  %zero = alloca %class.obj_ref.76, align 8
  %exn.slot = alloca ptr, align 8
  %ehselector.slot = alloca i32, align 4
  %args = alloca %class.ref_vector, align 8
  %ref.tmp = alloca %class.rational, align 8
  %i13 = alloca i32, align 4
  store ptr %agg.result, ptr %result.ptr, align 8
  store ptr %this, ptr %this.addr, align 8
  store i32 %i, ptr %i.addr, align 4
  %this1 = load ptr, ptr %this.addr, align 8
  %m_scoped_state = getelementptr inbounds %"class.opt::context", ptr %this1, i32 0, i32 21
  %m_objectives = getelementptr inbounds %"class.opt::context::scoped_state", ptr %m_scoped_state, i32 0, i32 11
  %0 = load i32, ptr %i.addr, align 4
  %call = call noundef nonnull align 8 dereferenceable(100) ptr @_ZN6vectorIN3opt7context9objectiveELb1EjEixEj(ptr noundef nonnull align 8 dereferenceable(8) %m_objectives, i32 noundef %0)
  store ptr %call, ptr %o, align 8
  store i1 false, ptr %nrvo, align 1
  %m = getelementptr inbounds %class.check_sat_result, ptr %this1, i32 0, i32 1
  %1 = load ptr, ptr %m, align 8
  call void @_ZN7obj_refI4expr11ast_managerEC2ERS1_(ptr noundef nonnull align 8 dereferenceable(16) %agg.result, ptr noundef nonnull align 8 dereferenceable(976) %1)
  %m2 = getelementptr inbounds %class.check_sat_result, ptr %this1, i32 0, i32 1
  %2 = load ptr, ptr %m2, align 8
  invoke void @_ZN7obj_refI4expr11ast_managerEC2ERS1_(ptr noundef nonnull align 8 dereferenceable(16) %zero, ptr noundef nonnull align 8 dereferenceable(976) %2)
          to label %invoke.cont unwind label %lpad

invoke.cont:                                      ; preds = %entry
  %m3 = getelementptr inbounds %class.check_sat_result, ptr %this1, i32 0, i32 1
  %3 = load ptr, ptr %m3, align 8
  invoke void @_ZN10ref_vectorI4expr11ast_managerEC2ERS1_(ptr noundef nonnull align 8 dereferenceable(16) %args, ptr noundef nonnull align 8 dereferenceable(976) %3)
          to label %invoke.cont5 unwind label %lpad4

invoke.cont5:                                     ; preds = %invoke.cont
  %4 = load ptr, ptr %o, align 8
  %m_type = getelementptr inbounds %"struct.opt::context::objective", ptr %4, i32 0, i32 0
  %5 = load i32, ptr %m_type, align 8
  switch i32 %5, label %sw.epilog [
    i32 2, label %sw.bb
    i32 0, label %sw.bb40
    i32 1, label %sw.bb72
  ]

lpad:                                             ; preds = %entry
  %6 = landingpad { ptr, i32 }
          cleanup
  %7 = extractvalue { ptr, i32 } %6, 0
  store ptr %7, ptr %exn.slot, align 8
  %8 = extractvalue { ptr, i32 } %6, 1
  store i32 %8, ptr %ehselector.slot, align 4
  br label %ehcleanup79

lpad4:                                            ; preds = %invoke.cont
  %9 = landingpad { ptr, i32 }
          cleanup
  %10 = extractvalue { ptr, i32 } %9, 0
  store ptr %10, ptr %exn.slot, align 8
  %11 = extractvalue { ptr, i32 } %9, 1
  store i32 %11, ptr %ehselector.slot, align 4
  br label %ehcleanup78

sw.bb:                                            ; preds = %invoke.cont5
  %m_arith = getelementptr inbounds %"class.opt::context", ptr %this1, i32 0, i32 7
  invoke void @_ZN8rationalC2Ei(ptr noundef nonnull align 8 dereferenceable(32) %ref.tmp, i32 noundef 0)
          to label %invoke.cont7 unwind label %lpad6

invoke.cont7:                                     ; preds = %sw.bb
  %call10 = invoke noundef ptr @_ZNK10arith_util10mk_numeralERK8rationalb(ptr noundef nonnull align 8 dereferenceable(16) %m_arith, ptr noundef nonnull align 8 dereferenceable(32) %ref.tmp, i1 noundef zeroext false)
          to label %invoke.cont9 unwind label %lpad8

invoke.cont9:                                     ; preds = %invoke.cont7
  %call12 = invoke noundef nonnull align 8 dereferenceable(16) ptr @_ZN7obj_refI4expr11ast_managerEaSEPS0_(ptr noundef nonnull align 8 dereferenceable(16) %zero, ptr noundef %call10)
          to label %invoke.cont11 unwind label %lpad8

invoke.cont11:                                    ; preds = %invoke.cont9
  call void @_ZN8rationalD2Ev(ptr noundef nonnull align 8 dereferenceable(32) %ref.tmp) #3
  store i32 0, ptr %i13, align 4
  br label %for.cond

for.cond:                                         ; preds = %for.inc, %invoke.cont11
  %12 = load i32, ptr %i13, align 4
  %13 = load ptr, ptr %o, align 8
  %m_terms = getelementptr inbounds %"struct.opt::context::objective", ptr %13, i32 0, i32 3
  %call15 = invoke noundef i32 @_ZNK15ref_vector_coreI4expr19ref_manager_wrapperIS0_11ast_managerEE4sizeEv(ptr noundef nonnull align 8 dereferenceable(16) %m_terms)
          to label %invoke.cont14 unwind label %lpad6

invoke.cont14:                                    ; preds = %for.cond
  %cmp = icmp ult i32 %12, %call15
  br i1 %cmp, label %for.body, label %for.end

for.body:                                         ; preds = %invoke.cont14
  %m16 = getelementptr inbounds %class.check_sat_result, ptr %this1, i32 0, i32 1
  %14 = load ptr, ptr %m16, align 8
  %15 = load ptr, ptr %o, align 8
  %m_terms17 = getelementptr inbounds %"struct.opt::context::objective", ptr %15, i32 0, i32 3
  %16 = load i32, ptr %i13, align 4
  %call19 = invoke noundef ptr @_ZNK10ref_vectorI4expr11ast_managerEixEj(ptr noundef nonnull align 8 dereferenceable(16) %m_terms17, i32 noundef %16)
          to label %invoke.cont18 unwind label %lpad6

invoke.cont18:                                    ; preds = %for.body
  %call21 = invoke noundef ptr @_ZNK7obj_refI4expr11ast_managerEcvPS0_Ev(ptr noundef nonnull align 8 dereferenceable(16) %zero)
          to label %invoke.cont20 unwind label %lpad6

invoke.cont20:                                    ; preds = %invoke.cont18
  %m_arith22 = getelementptr inbounds %"class.opt::context", ptr %this1, i32 0, i32 7
  %17 = load ptr, ptr %o, align 8
  %m_weights = getelementptr inbounds %"struct.opt::context::objective", ptr %17, i32 0, i32 4
  %18 = load i32, ptr %i13, align 4
  %call24 = invoke noundef nonnull align 8 dereferenceable(32) ptr @_ZNK6vectorI8rationalLb1EjEixEj(ptr noundef nonnull align 8 dereferenceable(8) %m_weights, i32 noundef %18)
          to label %invoke.cont23 unwind label %lpad6

invoke.cont23:                                    ; preds = %invoke.cont20
  %call26 = invoke noundef ptr @_ZNK10arith_util10mk_numeralERK8rationalb(ptr noundef nonnull align 8 dereferenceable(16) %m_arith22, ptr noundef nonnull align 8 dereferenceable(32) %call24, i1 noundef zeroext false)
          to label %invoke.cont25 unwind label %lpad6

invoke.cont25:                                    ; preds = %invoke.cont23
  %call28 = invoke noundef ptr @_ZN11ast_manager6mk_iteEP4exprS1_S1_(ptr noundef nonnull align 8 dereferenceable(976) %14, ptr noundef %call19, ptr noundef %call21, ptr noundef %call26)
          to label %invoke.cont27 unwind label %lpad6

invoke.cont27:                                    ; preds = %invoke.cont25
  %call30 = invoke noundef nonnull align 8 dereferenceable(16) ptr @_ZN15ref_vector_coreI4expr19ref_manager_wrapperIS0_11ast_managerEE9push_backEPS0_(ptr noundef nonnull align 8 dereferenceable(16) %args, ptr noundef %call28)
          to label %invoke.cont29 unwind label %lpad6

invoke.cont29:                                    ; preds = %invoke.cont27
  br label %for.inc

for.inc:                                          ; preds = %invoke.cont29
  %19 = load i32, ptr %i13, align 4
  %inc = add i32 %19, 1
  store i32 %inc, ptr %i13, align 4
  br label %for.cond, !llvm.loop !12

lpad6:                                            ; preds = %invoke.cont74, %sw.bb72, %if.else69, %invoke.cont65, %invoke.cont63, %if.then61, %invoke.cont57, %if.else, %invoke.cont53, %invoke.cont51, %if.then, %invoke.cont46, %invoke.cont43, %invoke.cont41, %sw.bb40, %invoke.cont36, %invoke.cont34, %invoke.cont32, %for.end, %invoke.cont27, %invoke.cont25, %invoke.cont23, %invoke.cont20, %invoke.cont18, %for.body, %for.cond, %sw.bb
  %20 = landingpad { ptr, i32 }
          cleanup
  %21 = extractvalue { ptr, i32 } %20, 0
  store ptr %21, ptr %exn.slot, align 8
  %22 = extractvalue { ptr, i32 } %20, 1
  store i32 %22, ptr %ehselector.slot, align 4
  br label %ehcleanup

lpad8:                                            ; preds = %invoke.cont9, %invoke.cont7
  %23 = landingpad { ptr, i32 }
          cleanup
  %24 = extractvalue { ptr, i32 } %23, 0
  store ptr %24, ptr %exn.slot, align 8
  %25 = extractvalue { ptr, i32 } %23, 1
  store i32 %25, ptr %ehselector.slot, align 4
  call void @_ZN8rationalD2Ev(ptr noundef nonnull align 8 dereferenceable(32) %ref.tmp) #3
  br label %ehcleanup

for.end:                                          ; preds = %invoke.cont14
  %m_arith31 = getelementptr inbounds %"class.opt::context", ptr %this1, i32 0, i32 7
  %call33 = invoke noundef i32 @_ZNK15ref_vector_coreI4expr19ref_manager_wrapperIS0_11ast_managerEE4sizeEv(ptr noundef nonnull align 8 dereferenceable(16) %args)
          to label %invoke.cont32 unwind label %lpad6

invoke.cont32:                                    ; preds = %for.end
  %call35 = invoke noundef ptr @_ZN15ref_vector_coreI4expr19ref_manager_wrapperIS0_11ast_managerEE4dataEv(ptr noundef nonnull align 8 dereferenceable(16) %args)
          to label %invoke.cont34 unwind label %lpad6

invoke.cont34:                                    ; preds = %invoke.cont32
  %call37 = invoke noundef ptr @_ZNK10arith_util6mk_addEjPKP4expr(ptr noundef nonnull align 8 dereferenceable(16) %m_arith31, i32 noundef %call33, ptr noundef %call35)
          to label %invoke.cont36 unwind label %lpad6

invoke.cont36:                                    ; preds = %invoke.cont34
  %call39 = invoke noundef nonnull align 8 dereferenceable(16) ptr @_ZN7obj_refI4expr11ast_managerEaSEPS0_(ptr noundef nonnull align 8 dereferenceable(16) %agg.result, ptr noundef %call37)
          to label %invoke.cont38 unwind label %lpad6

invoke.cont38:                                    ; preds = %invoke.cont36
  br label %sw.epilog

sw.bb40:                                          ; preds = %invoke.cont5
  %26 = load ptr, ptr %o, align 8
  %m_term = getelementptr inbounds %"struct.opt::context::objective", ptr %26, i32 0, i32 2
  %call42 = invoke noundef ptr @_ZNK7obj_refI3app11ast_managerEcvPS0_Ev(ptr noundef nonnull align 8 dereferenceable(16) %m_term)
          to label %invoke.cont41 unwind label %lpad6

invoke.cont41:                                    ; preds = %sw.bb40
  %call44 = invoke noundef nonnull align 8 dereferenceable(16) ptr @_ZN7obj_refI4expr11ast_managerEaSEPS0_(ptr noundef nonnull align 8 dereferenceable(16) %agg.result, ptr noundef %call42)
          to label %invoke.cont43 unwind label %lpad6

invoke.cont43:                                    ; preds = %invoke.cont41
  %m_arith45 = getelementptr inbounds %"class.opt::context", ptr %this1, i32 0, i32 7
  %call47 = invoke noundef ptr @_ZNK7obj_refI4expr11ast_managerEcvPS0_Ev(ptr noundef nonnull align 8 dereferenceable(16) %agg.result)
          to label %invoke.cont46 unwind label %lpad6

invoke.cont46:                                    ; preds = %invoke.cont43
  %call49 = invoke noundef zeroext i1 @_ZNK17arith_recognizers11is_int_realEPK4expr(ptr noundef nonnull align 1 dereferenceable(1) %m_arith45, ptr noundef %call47)
          to label %invoke.cont48 unwind label %lpad6

invoke.cont48:                                    ; preds = %invoke.cont46
  br i1 %call49, label %if.then, label %if.else

if.then:                                          ; preds = %invoke.cont48
  %m_arith50 = getelementptr inbounds %"class.opt::context", ptr %this1, i32 0, i32 7
  %call52 = invoke noundef ptr @_ZNK7obj_refI4expr11ast_managerEcvPS0_Ev(ptr noundef nonnull align 8 dereferenceable(16) %agg.result)
          to label %invoke.cont51 unwind label %lpad6

invoke.cont51:                                    ; preds = %if.then
  %call54 = invoke noundef ptr @_ZNK10arith_util9mk_uminusEP4expr(ptr noundef nonnull align 8 dereferenceable(16) %m_arith50, ptr noundef %call52)
          to label %invoke.cont53 unwind label %lpad6

invoke.cont53:                                    ; preds = %invoke.cont51
  %call56 = invoke noundef nonnull align 8 dereferenceable(16) ptr @_ZN7obj_refI4expr11ast_managerEaSEPS0_(ptr noundef nonnull align 8 dereferenceable(16) %agg.result, ptr noundef %call54)
          to label %invoke.cont55 unwind label %lpad6

invoke.cont55:                                    ; preds = %invoke.cont53
  br label %if.end71

if.else:                                          ; preds = %invoke.cont48
  %m_bv = getelementptr inbounds %"class.opt::context", ptr %this1, i32 0, i32 8
  %call58 = invoke noundef ptr @_ZNK7obj_refI4expr11ast_managerEcvPS0_Ev(ptr noundef nonnull align 8 dereferenceable(16) %agg.result)
          to label %invoke.cont57 unwind label %lpad6

invoke.cont57:                                    ; preds = %if.else
  %call60 = invoke noundef zeroext i1 @_ZNK14bv_recognizers5is_bvEPK4expr(ptr noundef nonnull align 4 dereferenceable(4) %m_bv, ptr noundef %call58)
          to label %invoke.cont59 unwind label %lpad6

invoke.cont59:                                    ; preds = %invoke.cont57
  br i1 %call60, label %if.then61, label %if.else69

if.then61:                                        ; preds = %invoke.cont59
  %m_bv62 = getelementptr inbounds %"class.opt::context", ptr %this1, i32 0, i32 8
  %call64 = invoke noundef ptr @_ZNK7obj_refI4expr11ast_managerEcvPS0_Ev(ptr noundef nonnull align 8 dereferenceable(16) %agg.result)
          to label %invoke.cont63 unwind label %lpad6

invoke.cont63:                                    ; preds = %if.then61
  %call66 = invoke noundef ptr @_ZN7bv_util9mk_bv_negEP4expr(ptr noundef nonnull align 8 dereferenceable(24) %m_bv62, ptr noundef %call64)
          to label %invoke.cont65 unwind label %lpad6

invoke.cont65:                                    ; preds = %invoke.cont63
  %call68 = invoke noundef nonnull align 8 dereferenceable(16) ptr @_ZN7obj_refI4expr11ast_managerEaSEPS0_(ptr noundef nonnull align 8 dereferenceable(16) %agg.result, ptr noundef %call66)
          to label %invoke.cont67 unwind label %lpad6

invoke.cont67:                                    ; preds = %invoke.cont65
  br label %if.end

if.else69:                                        ; preds = %invoke.cont59
  invoke void @_Z26notify_assertion_violationPKciS0_(ptr noundef @.str.15, i32 noundef 248, ptr noundef @.str.16)
          to label %invoke.cont70 unwind label %lpad6

invoke.cont70:                                    ; preds = %if.else69
  call void @exit(i32 noundef 114) #17
  unreachable

if.end:                                           ; preds = %invoke.cont67
  br label %if.end71

if.end71:                                         ; preds = %if.end, %invoke.cont55
  br label %sw.epilog

sw.bb72:                                          ; preds = %invoke.cont5
  %27 = load ptr, ptr %o, align 8
  %m_term73 = getelementptr inbounds %"struct.opt::context::objective", ptr %27, i32 0, i32 2
  %call75 = invoke noundef ptr @_ZNK7obj_refI3app11ast_managerEcvPS0_Ev(ptr noundef nonnull align 8 dereferenceable(16) %m_term73)
          to label %invoke.cont74 unwind label %lpad6

invoke.cont74:                                    ; preds = %sw.bb72
  %call77 = invoke noundef nonnull align 8 dereferenceable(16) ptr @_ZN7obj_refI4expr11ast_managerEaSEPS0_(ptr noundef nonnull align 8 dereferenceable(16) %agg.result, ptr noundef %call75)
          to label %invoke.cont76 unwind label %lpad6

invoke.cont76:                                    ; preds = %invoke.cont74
  br label %sw.epilog

sw.epilog:                                        ; preds = %invoke.cont76, %if.end71, %invoke.cont38, %invoke.cont5
  store i1 true, ptr %nrvo, align 1
  call void @_ZN10ref_vectorI4expr11ast_managerED2Ev(ptr noundef nonnull align 8 dereferenceable(16) %args) #3
  call void @_ZN7obj_refI4expr11ast_managerED2Ev(ptr noundef nonnull align 8 dereferenceable(16) %zero) #3
  %nrvo.val = load i1, ptr %nrvo, align 1
  br i1 %nrvo.val, label %nrvo.skipdtor, label %nrvo.unused

ehcleanup:                                        ; preds = %lpad8, %lpad6
  call void @_ZN10ref_vectorI4expr11ast_managerED2Ev(ptr noundef nonnull align 8 dereferenceable(16) %args) #3
  br label %ehcleanup78

ehcleanup78:                                      ; preds = %ehcleanup, %lpad4
  call void @_ZN7obj_refI4expr11ast_managerED2Ev(ptr noundef nonnull align 8 dereferenceable(16) %zero) #3
  br label %ehcleanup79

nrvo.unused:                                      ; preds = %sw.epilog
  call void @_ZN7obj_refI4expr11ast_managerED2Ev(ptr noundef nonnull align 8 dereferenceable(16) %agg.result) #3
  br label %nrvo.skipdtor

nrvo.skipdtor:                                    ; preds = %nrvo.unused, %sw.epilog
  ret void

ehcleanup79:                                      ; preds = %ehcleanup78, %lpad
  call void @_ZN7obj_refI4expr11ast_managerED2Ev(ptr noundef nonnull align 8 dereferenceable(16) %agg.result) #3
  br label %eh.resume

eh.resume:                                        ; preds = %ehcleanup79
  %exn = load ptr, ptr %exn.slot, align 8
  %sel = load i32, ptr %ehselector.slot, align 4
  %lpad.val = insertvalue { ptr, i32 } poison, ptr %exn, 0
  %lpad.val80 = insertvalue { ptr, i32 } %lpad.val, i32 %sel, 1
  resume { ptr, i32 } %lpad.val80
}

; Function Attrs: mustprogress nounwind uwtable
define linkonce_odr hidden void @_ZN7obj_refI4expr11ast_managerEC2ERS1_(ptr noundef nonnull align 8 dereferenceable(16) %this, ptr noundef nonnull align 8 dereferenceable(976) %m) unnamed_addr #4 comdat align 2 {
entry:
  %this.addr = alloca ptr, align 8
  %m.addr = alloca ptr, align 8
  store ptr %this, ptr %this.addr, align 8
  store ptr %m, ptr %m.addr, align 8
  %this1 = load ptr, ptr %this.addr, align 8
  %m_obj = getelementptr inbounds %class.obj_ref.76, ptr %this1, i32 0, i32 0
  store ptr null, ptr %m_obj, align 8
  %m_manager = getelementptr inbounds %class.obj_ref.76, ptr %this1, i32 0, i32 1
  %0 = load ptr, ptr %m.addr, align 8
  store ptr %0, ptr %m_manager, align 8
  ret void
}

; Function Attrs: mustprogress uwtable
define linkonce_odr hidden noundef ptr @_ZNK10arith_util10mk_numeralERK8rationalb(ptr noundef nonnull align 8 dereferenceable(16) %this, ptr noundef nonnull align 8 dereferenceable(32) %val, i1 noundef zeroext %is_int) #5 comdat align 2 {
entry:
  %this.addr = alloca ptr, align 8
  %val.addr = alloca ptr, align 8
  %is_int.addr = alloca i8, align 1
  store ptr %this, ptr %this.addr, align 8
  store ptr %val, ptr %val.addr, align 8
  %frombool = zext i1 %is_int to i8
  store i8 %frombool, ptr %is_int.addr, align 1
  %this1 = load ptr, ptr %this.addr, align 8
  %call = call noundef nonnull align 8 dereferenceable(441) ptr @_ZNK10arith_util6pluginEv(ptr noundef nonnull align 8 dereferenceable(16) %this1)
  %0 = load ptr, ptr %val.addr, align 8
  %1 = load i8, ptr %is_int.addr, align 1
  %tobool = trunc i8 %1 to i1
  %call2 = call noundef ptr @_ZN17arith_decl_plugin10mk_numeralERK8rationalb(ptr noundef nonnull align 8 dereferenceable(441) %call, ptr noundef nonnull align 8 dereferenceable(32) %0, i1 noundef zeroext %tobool)
  ret ptr %call2
}

; Function Attrs: mustprogress uwtable
define linkonce_odr hidden void @_ZN8rationalC2Ei(ptr noundef nonnull align 8 dereferenceable(32) %this, i32 noundef %n) unnamed_addr #5 comdat align 2 {
entry:
  %this.addr = alloca ptr, align 8
  %n.addr = alloca i32, align 4
  store ptr %this, ptr %this.addr, align 8
  store i32 %n, ptr %n.addr, align 4
  %this1 = load ptr, ptr %this.addr, align 8
  %m_val = getelementptr inbounds %class.rational, ptr %this1, i32 0, i32 0
  call void @_ZN3mpqC2Ev(ptr noundef nonnull align 8 dereferenceable(32) %m_val)
  %call = call noundef nonnull align 8 dereferenceable(728) ptr @_ZN8rational1mEv()
  %m_val2 = getelementptr inbounds %class.rational, ptr %this1, i32 0, i32 0
  %0 = load i32, ptr %n.addr, align 4
  call void @_ZN11mpq_managerILb1EE3setER3mpqi(ptr noundef nonnull align 8 dereferenceable(728) %call, ptr noundef nonnull align 8 dereferenceable(32) %m_val2, i32 noundef %0)
  ret void
}

; Function Attrs: mustprogress uwtable
define linkonce_odr hidden noundef nonnull align 8 dereferenceable(16) ptr @_ZN7obj_refI4expr11ast_managerEaSEPS0_(ptr noundef nonnull align 8 dereferenceable(16) %this, ptr noundef %n) #5 comdat align 2 {
entry:
  %this.addr = alloca ptr, align 8
  %n.addr = alloca ptr, align 8
  store ptr %this, ptr %this.addr, align 8
  store ptr %n, ptr %n.addr, align 8
  %this1 = load ptr, ptr %this.addr, align 8
  %0 = load ptr, ptr %n.addr, align 8
  %tobool = icmp ne ptr %0, null
  br i1 %tobool, label %if.then, label %if.end

if.then:                                          ; preds = %entry
  %m_manager = getelementptr inbounds %class.obj_ref.76, ptr %this1, i32 0, i32 1
  %1 = load ptr, ptr %m_manager, align 8
  %2 = load ptr, ptr %n.addr, align 8
  call void @_ZN11ast_manager7inc_refEP3ast(ptr noundef nonnull align 8 dereferenceable(976) %1, ptr noundef %2)
  br label %if.end

if.end:                                           ; preds = %if.then, %entry
  call void @_ZN7obj_refI4expr11ast_managerE7dec_refEv(ptr noundef nonnull align 8 dereferenceable(16) %this1)
  %3 = load ptr, ptr %n.addr, align 8
  %m_obj = getelementptr inbounds %class.obj_ref.76, ptr %this1, i32 0, i32 0
  store ptr %3, ptr %m_obj, align 8
  ret ptr %this1
}

; Function Attrs: mustprogress nounwind uwtable
define linkonce_odr hidden void @_ZN8rationalD2Ev(ptr noundef nonnull align 8 dereferenceable(32) %this) unnamed_addr #4 comdat align 2 personality ptr @__gxx_personality_v0 {
entry:
  %this.addr = alloca ptr, align 8
  store ptr %this, ptr %this.addr, align 8
  %this1 = load ptr, ptr %this.addr, align 8
  %0 = load ptr, ptr @_ZN8rational13g_mpq_managerE, align 8
  %m_val = getelementptr inbounds %class.rational, ptr %this1, i32 0, i32 0
  invoke void @_ZN11mpq_managerILb1EE3delEPS0_R3mpq(ptr noundef %0, ptr noundef nonnull align 8 dereferenceable(32) %m_val)
          to label %invoke.cont unwind label %terminate.lpad

invoke.cont:                                      ; preds = %entry
  ret void

terminate.lpad:                                   ; preds = %entry
  %1 = landingpad { ptr, i32 }
          catch ptr null
  %2 = extractvalue { ptr, i32 } %1, 0
  call void @__clang_call_terminate(ptr %2) #17
  unreachable
}

; Function Attrs: mustprogress uwtable
define linkonce_odr hidden noundef ptr @_ZN11ast_manager6mk_iteEP4exprS1_S1_(ptr noundef nonnull align 8 dereferenceable(976) %this, ptr noundef %c, ptr noundef %t, ptr noundef %e) #5 comdat align 2 {
entry:
  %this.addr = alloca ptr, align 8
  %c.addr = alloca ptr, align 8
  %t.addr = alloca ptr, align 8
  %e.addr = alloca ptr, align 8
  store ptr %this, ptr %this.addr, align 8
  store ptr %c, ptr %c.addr, align 8
  store ptr %t, ptr %t.addr, align 8
  store ptr %e, ptr %e.addr, align 8
  %this1 = load ptr, ptr %this.addr, align 8
  %0 = load ptr, ptr %c.addr, align 8
  %1 = load ptr, ptr %t.addr, align 8
  %2 = load ptr, ptr %e.addr, align 8
  %call = call noundef ptr @_ZN11ast_manager6mk_appEiiP4exprS1_S1_(ptr noundef nonnull align 8 dereferenceable(976) %this1, i32 noundef 0, i32 noundef 4, ptr noundef %0, ptr noundef %1, ptr noundef %2)
  ret ptr %call
}

; Function Attrs: mustprogress uwtable
define linkonce_odr hidden noundef ptr @_ZNK10ref_vectorI4expr11ast_managerEixEj(ptr noundef nonnull align 8 dereferenceable(16) %this, i32 noundef %idx) #5 comdat align 2 {
entry:
  %this.addr = alloca ptr, align 8
  %idx.addr = alloca i32, align 4
  store ptr %this, ptr %this.addr, align 8
  store i32 %idx, ptr %idx.addr, align 4
  %this1 = load ptr, ptr %this.addr, align 8
  %0 = load i32, ptr %idx.addr, align 4
  %call = call noundef ptr @_ZNK15ref_vector_coreI4expr19ref_manager_wrapperIS0_11ast_managerEEixEj(ptr noundef nonnull align 8 dereferenceable(16) %this1, i32 noundef %0)
  ret ptr %call
}

; Function Attrs: mustprogress nounwind uwtable
define linkonce_odr hidden noundef ptr @_ZNK7obj_refI4expr11ast_managerEcvPS0_Ev(ptr noundef nonnull align 8 dereferenceable(16) %this) #4 comdat align 2 {
entry:
  %this.addr = alloca ptr, align 8
  store ptr %this, ptr %this.addr, align 8
  %this1 = load ptr, ptr %this.addr, align 8
  %m_obj = getelementptr inbounds %class.obj_ref.76, ptr %this1, i32 0, i32 0
  %0 = load ptr, ptr %m_obj, align 8
  ret ptr %0
}

; Function Attrs: mustprogress nounwind uwtable
define linkonce_odr hidden noundef nonnull align 8 dereferenceable(32) ptr @_ZNK6vectorI8rationalLb1EjEixEj(ptr noundef nonnull align 8 dereferenceable(8) %this, i32 noundef %idx) #4 comdat align 2 {
entry:
  %this.addr = alloca ptr, align 8
  %idx.addr = alloca i32, align 4
  store ptr %this, ptr %this.addr, align 8
  store i32 %idx, ptr %idx.addr, align 4
  %this1 = load ptr, ptr %this.addr, align 8
  %m_data = getelementptr inbounds %class.vector.2, ptr %this1, i32 0, i32 0
  %0 = load ptr, ptr %m_data, align 8
  %1 = load i32, ptr %idx.addr, align 4
  %idxprom = zext i32 %1 to i64
  %arrayidx = getelementptr inbounds %class.rational, ptr %0, i64 %idxprom
  ret ptr %arrayidx
}

; Function Attrs: mustprogress uwtable
define linkonce_odr hidden noundef ptr @_ZNK10arith_util6mk_addEjPKP4expr(ptr noundef nonnull align 8 dereferenceable(16) %this, i32 noundef %num_args, ptr noundef %args) #5 comdat align 2 {
entry:
  %this.addr = alloca ptr, align 8
  %num_args.addr = alloca i32, align 4
  %args.addr = alloca ptr, align 8
  store ptr %this, ptr %this.addr, align 8
  store i32 %num_args, ptr %num_args.addr, align 4
  store ptr %args, ptr %args.addr, align 8
  %this1 = load ptr, ptr %this.addr, align 8
  %0 = load i32, ptr %num_args.addr, align 4
  %cmp = icmp eq i32 %0, 1
  br i1 %cmp, label %land.lhs.true, label %cond.false

land.lhs.true:                                    ; preds = %entry
  %1 = load ptr, ptr %args.addr, align 8
  %arrayidx = getelementptr inbounds ptr, ptr %1, i64 0
  %2 = load ptr, ptr %arrayidx, align 8
  %call = call noundef zeroext i1 @_Z6is_appPK3ast(ptr noundef %2)
  br i1 %call, label %cond.true, label %cond.false

cond.true:                                        ; preds = %land.lhs.true
  %3 = load ptr, ptr %args.addr, align 8
  %arrayidx2 = getelementptr inbounds ptr, ptr %3, i64 0
  %4 = load ptr, ptr %arrayidx2, align 8
  %call3 = call noundef ptr @_Z6to_appP3ast(ptr noundef %4)
  br label %cond.end

cond.false:                                       ; preds = %land.lhs.true, %entry
  %m_manager = getelementptr inbounds %class.arith_util, ptr %this1, i32 0, i32 0
  %5 = load ptr, ptr %m_manager, align 8
  %6 = load i32, ptr %num_args.addr, align 4
  %7 = load ptr, ptr %args.addr, align 8
  %call4 = call noundef ptr @_ZN11ast_manager6mk_appEiijPKP4expr(ptr noundef nonnull align 8 dereferenceable(976) %5, i32 noundef 5, i32 noundef 6, i32 noundef %6, ptr noundef %7)
  br label %cond.end

cond.end:                                         ; preds = %cond.false, %cond.true
  %cond = phi ptr [ %call3, %cond.true ], [ %call4, %cond.false ]
  ret ptr %cond
}

; Function Attrs: mustprogress nounwind uwtable
define linkonce_odr hidden noundef ptr @_ZN15ref_vector_coreI4expr19ref_manager_wrapperIS0_11ast_managerEE4dataEv(ptr noundef nonnull align 8 dereferenceable(16) %this) #4 comdat align 2 {
entry:
  %this.addr = alloca ptr, align 8
  store ptr %this, ptr %this.addr, align 8
  %this1 = load ptr, ptr %this.addr, align 8
  %m_nodes = getelementptr inbounds %class.ref_vector_core, ptr %this1, i32 0, i32 1
  %call = call noundef ptr @_ZNK6vectorIP4exprLb0EjE4dataEv(ptr noundef nonnull align 8 dereferenceable(8) %m_nodes)
  ret ptr %call
}

; Function Attrs: mustprogress nounwind uwtable
define linkonce_odr hidden noundef ptr @_ZNK7obj_refI3app11ast_managerEcvPS0_Ev(ptr noundef nonnull align 8 dereferenceable(16) %this) #4 comdat align 2 {
entry:
  %this.addr = alloca ptr, align 8
  store ptr %this, ptr %this.addr, align 8
  %this1 = load ptr, ptr %this.addr, align 8
  %m_obj = getelementptr inbounds %class.obj_ref, ptr %this1, i32 0, i32 0
  %0 = load ptr, ptr %m_obj, align 8
  ret ptr %0
}

; Function Attrs: mustprogress uwtable
define linkonce_odr hidden noundef ptr @_ZNK10arith_util9mk_uminusEP4expr(ptr noundef nonnull align 8 dereferenceable(16) %this, ptr noundef %arg) #5 comdat align 2 {
entry:
  %this.addr = alloca ptr, align 8
  %arg.addr = alloca ptr, align 8
  store ptr %this, ptr %this.addr, align 8
  store ptr %arg, ptr %arg.addr, align 8
  %this1 = load ptr, ptr %this.addr, align 8
  %m_manager = getelementptr inbounds %class.arith_util, ptr %this1, i32 0, i32 0
  %0 = load ptr, ptr %m_manager, align 8
  %1 = load ptr, ptr %arg.addr, align 8
  %call = call noundef ptr @_ZN11ast_manager6mk_appEiiP4expr(ptr noundef nonnull align 8 dereferenceable(976) %0, i32 noundef 5, i32 noundef 8, ptr noundef %1)
  ret ptr %call
}

; Function Attrs: mustprogress uwtable
define linkonce_odr hidden noundef ptr @_ZN7bv_util9mk_bv_negEP4expr(ptr noundef nonnull align 8 dereferenceable(24) %this, ptr noundef %arg) #5 comdat align 2 {
entry:
  %this.addr = alloca ptr, align 8
  %arg.addr = alloca ptr, align 8
  store ptr %this, ptr %this.addr, align 8
  store ptr %arg, ptr %arg.addr, align 8
  %this1 = load ptr, ptr %this.addr, align 8
  %m_manager = getelementptr inbounds %class.bv_util, ptr %this1, i32 0, i32 1
  %0 = load ptr, ptr %m_manager, align 8
  %call = call noundef i32 @_ZNK14bv_recognizers7get_fidEv(ptr noundef nonnull align 4 dereferenceable(4) %this1)
  %1 = load ptr, ptr %arg.addr, align 8
  %call2 = call noundef ptr @_ZN11ast_manager6mk_appEiiP4expr(ptr noundef nonnull align 8 dereferenceable(976) %0, i32 noundef %call, i32 noundef 3, ptr noundef %1)
  ret ptr %call2
}

declare void @_Z26notify_assertion_violationPKciS0_(ptr noundef, i32 noundef, ptr noundef) #1

; Function Attrs: noreturn nounwind
declare void @exit(i32 noundef) #11

; Function Attrs: mustprogress nounwind uwtable
define linkonce_odr hidden void @_ZN7obj_refI4expr11ast_managerED2Ev(ptr noundef nonnull align 8 dereferenceable(16) %this) unnamed_addr #4 comdat align 2 personality ptr @__gxx_personality_v0 {
entry:
  %this.addr = alloca ptr, align 8
  store ptr %this, ptr %this.addr, align 8
  %this1 = load ptr, ptr %this.addr, align 8
  invoke void @_ZN7obj_refI4expr11ast_managerE7dec_refEv(ptr noundef nonnull align 8 dereferenceable(16) %this1)
          to label %invoke.cont unwind label %terminate.lpad

invoke.cont:                                      ; preds = %entry
  ret void

terminate.lpad:                                   ; preds = %entry
  %0 = landingpad { ptr, i32 }
          catch ptr null
  %1 = extractvalue { ptr, i32 } %0, 0
  call void @__clang_call_terminate(ptr %1) #17
  unreachable
}

; Function Attrs: mustprogress uwtable
define hidden noundef i32 @_ZN3opt7context19add_soft_constraintEP4exprRK8rationalRK6symbol(ptr noundef nonnull align 8 dereferenceable(792) %this, ptr noundef %f, ptr noundef nonnull align 8 dereferenceable(32) %w, ptr noundef nonnull align 8 dereferenceable(8) %id) #5 align 2 {
entry:
  %this.addr = alloca ptr, align 8
  %f.addr = alloca ptr, align 8
  %w.addr = alloca ptr, align 8
  %id.addr = alloca ptr, align 8
  store ptr %this, ptr %this.addr, align 8
  store ptr %f, ptr %f.addr, align 8
  store ptr %w, ptr %w.addr, align 8
  store ptr %id, ptr %id.addr, align 8
  %this1 = load ptr, ptr %this.addr, align 8
  call void @_ZN3opt7context11clear_stateEv(ptr noundef nonnull align 8 dereferenceable(792) %this1)
  %m_scoped_state = getelementptr inbounds %"class.opt::context", ptr %this1, i32 0, i32 21
  %0 = load ptr, ptr %f.addr, align 8
  %1 = load ptr, ptr %w.addr, align 8
  %2 = load ptr, ptr %id.addr, align 8
  %call = call noundef i32 @_ZN3opt7context12scoped_state3addEP4exprRK8rationalRK6symbol(ptr noundef nonnull align 8 dereferenceable(152) %m_scoped_state, ptr noundef %0, ptr noundef nonnull align 8 dereferenceable(32) %1, ptr noundef nonnull align 8 dereferenceable(8) %2)
  ret i32 %call
}

; Function Attrs: mustprogress uwtable
define hidden noundef i32 @_ZN3opt7context13add_objectiveEP3appb(ptr noundef nonnull align 8 dereferenceable(792) %this, ptr noundef %t, i1 noundef zeroext %is_max) #5 align 2 {
entry:
  %this.addr = alloca ptr, align 8
  %t.addr = alloca ptr, align 8
  %is_max.addr = alloca i8, align 1
  store ptr %this, ptr %this.addr, align 8
  store ptr %t, ptr %t.addr, align 8
  %frombool = zext i1 %is_max to i8
  store i8 %frombool, ptr %is_max.addr, align 1
  %this1 = load ptr, ptr %this.addr, align 8
  call void @_ZN3opt7context11clear_stateEv(ptr noundef nonnull align 8 dereferenceable(792) %this1)
  %m_scoped_state = getelementptr inbounds %"class.opt::context", ptr %this1, i32 0, i32 21
  %0 = load ptr, ptr %t.addr, align 8
  %1 = load i8, ptr %is_max.addr, align 1
  %tobool = trunc i8 %1 to i1
  %call = call noundef i32 @_ZN3opt7context12scoped_state3addEP3appb(ptr noundef nonnull align 8 dereferenceable(152) %m_scoped_state, ptr noundef %0, i1 noundef zeroext %tobool)
  ret i32 %call
}

; Function Attrs: mustprogress uwtable
define hidden void @_ZN3opt7context19import_scoped_stateEv(ptr noundef nonnull align 8 dereferenceable(792) %this) #5 align 2 {
entry:
  %this.addr = alloca ptr, align 8
  %s = alloca ptr, align 8
  %i = alloca i32, align 4
  %obj = alloca ptr, align 8
  store ptr %this, ptr %this.addr, align 8
  %this1 = load ptr, ptr %this.addr, align 8
  %m_optsmt = getelementptr inbounds %"class.opt::context", ptr %this1, i32 0, i32 19
  call void @_ZN3opt6optsmt5resetEv(ptr noundef nonnull align 8 dereferenceable(120) %m_optsmt)
  call void @_ZN3opt7context13reset_maxsmtsEv(ptr noundef nonnull align 8 dereferenceable(792) %this1)
  %m_objectives = getelementptr inbounds %"class.opt::context", ptr %this1, i32 0, i32 22
  call void @_ZN6vectorIN3opt7context9objectiveELb1EjE5resetEv(ptr noundef nonnull align 8 dereferenceable(8) %m_objectives)
  %m_hard_constraints = getelementptr inbounds %"class.opt::context", ptr %this1, i32 0, i32 9
  call void @_ZN15ref_vector_coreI4expr19ref_manager_wrapperIS0_11ast_managerEE5resetEv(ptr noundef nonnull align 8 dereferenceable(16) %m_hard_constraints)
  %m_scoped_state = getelementptr inbounds %"class.opt::context", ptr %this1, i32 0, i32 21
  store ptr %m_scoped_state, ptr %s, align 8
  store i32 0, ptr %i, align 4
  br label %for.cond

for.cond:                                         ; preds = %for.inc, %entry
  %0 = load i32, ptr %i, align 4
  %1 = load ptr, ptr %s, align 8
  %m_objectives2 = getelementptr inbounds %"class.opt::context::scoped_state", ptr %1, i32 0, i32 11
  %call = call noundef i32 @_ZNK6vectorIN3opt7context9objectiveELb1EjE4sizeEv(ptr noundef nonnull align 8 dereferenceable(8) %m_objectives2)
  %cmp = icmp ult i32 %0, %call
  br i1 %cmp, label %for.body, label %for.end

for.body:                                         ; preds = %for.cond
  %2 = load ptr, ptr %s, align 8
  %m_objectives3 = getelementptr inbounds %"class.opt::context::scoped_state", ptr %2, i32 0, i32 11
  %3 = load i32, ptr %i, align 4
  %call4 = call noundef nonnull align 8 dereferenceable(100) ptr @_ZN6vectorIN3opt7context9objectiveELb1EjEixEj(ptr noundef nonnull align 8 dereferenceable(8) %m_objectives3, i32 noundef %3)
  store ptr %call4, ptr %obj, align 8
  %m_objectives5 = getelementptr inbounds %"class.opt::context", ptr %this1, i32 0, i32 22
  %4 = load ptr, ptr %obj, align 8
  %call6 = call noundef nonnull align 8 dereferenceable(8) ptr @_ZN6vectorIN3opt7context9objectiveELb1EjE9push_backERKS2_(ptr noundef nonnull align 8 dereferenceable(8) %m_objectives5, ptr noundef nonnull align 8 dereferenceable(100) %4)
  %5 = load ptr, ptr %obj, align 8
  %m_type = getelementptr inbounds %"struct.opt::context::objective", ptr %5, i32 0, i32 0
  %6 = load i32, ptr %m_type, align 8
  %cmp7 = icmp eq i32 %6, 2
  br i1 %cmp7, label %if.then, label %if.end

if.then:                                          ; preds = %for.body
  %7 = load ptr, ptr %obj, align 8
  %m_id = getelementptr inbounds %"struct.opt::context::objective", ptr %7, i32 0, i32 6
  %8 = load i32, ptr %i, align 4
  call void @_ZN3opt7context10add_maxsmtERK6symbolj(ptr noundef nonnull align 8 dereferenceable(792) %this1, ptr noundef nonnull align 8 dereferenceable(8) %m_id, i32 noundef %8)
  br label %if.end

if.end:                                           ; preds = %if.then, %for.body
  br label %for.inc

for.inc:                                          ; preds = %if.end
  %9 = load i32, ptr %i, align 4
  %inc = add i32 %9, 1
  store i32 %inc, ptr %i, align 4
  br label %for.cond, !llvm.loop !13

for.end:                                          ; preds = %for.cond
  %m_hard_constraints8 = getelementptr inbounds %"class.opt::context", ptr %this1, i32 0, i32 9
  %10 = load ptr, ptr %s, align 8
  %m_hard = getelementptr inbounds %"class.opt::context::scoped_state", ptr %10, i32 0, i32 9
  call void @_ZN15ref_vector_coreI4expr19ref_manager_wrapperIS0_11ast_managerEE6appendERKS4_(ptr noundef nonnull align 8 dereferenceable(16) %m_hard_constraints8, ptr noundef nonnull align 8 dereferenceable(16) %m_hard)
  ret void
}

; Function Attrs: mustprogress uwtable
define linkonce_odr hidden void @_ZN6vectorIN3opt7context9objectiveELb1EjE5resetEv(ptr noundef nonnull align 8 dereferenceable(8) %this) #5 comdat align 2 {
entry:
  %this.addr = alloca ptr, align 8
  store ptr %this, ptr %this.addr, align 8
  %this1 = load ptr, ptr %this.addr, align 8
  %m_data = getelementptr inbounds %class.vector.1, ptr %this1, i32 0, i32 0
  %0 = load ptr, ptr %m_data, align 8
  %tobool = icmp ne ptr %0, null
  br i1 %tobool, label %if.then, label %if.end

if.then:                                          ; preds = %entry
  call void @_ZN6vectorIN3opt7context9objectiveELb1EjE16destroy_elementsEv(ptr noundef nonnull align 8 dereferenceable(8) %this1)
  %m_data2 = getelementptr inbounds %class.vector.1, ptr %this1, i32 0, i32 0
  %1 = load ptr, ptr %m_data2, align 8
  %arrayidx = getelementptr inbounds i32, ptr %1, i64 -1
  store i32 0, ptr %arrayidx, align 4
  br label %if.end

if.end:                                           ; preds = %if.then, %entry
  ret void
}

; Function Attrs: mustprogress uwtable
define linkonce_odr hidden noundef nonnull align 8 dereferenceable(8) ptr @_ZN6vectorIN3opt7context9objectiveELb1EjE9push_backERKS2_(ptr noundef nonnull align 8 dereferenceable(8) %this, ptr noundef nonnull align 8 dereferenceable(100) %elem) #5 comdat align 2 {
entry:
  %this.addr = alloca ptr, align 8
  %elem.addr = alloca ptr, align 8
  store ptr %this, ptr %this.addr, align 8
  store ptr %elem, ptr %elem.addr, align 8
  %this1 = load ptr, ptr %this.addr, align 8
  %m_data = getelementptr inbounds %class.vector.1, ptr %this1, i32 0, i32 0
  %0 = load ptr, ptr %m_data, align 8
  %cmp = icmp eq ptr %0, null
  br i1 %cmp, label %if.then, label %lor.lhs.false

lor.lhs.false:                                    ; preds = %entry
  %m_data2 = getelementptr inbounds %class.vector.1, ptr %this1, i32 0, i32 0
  %1 = load ptr, ptr %m_data2, align 8
  %arrayidx = getelementptr inbounds i32, ptr %1, i64 -1
  %2 = load i32, ptr %arrayidx, align 4
  %m_data3 = getelementptr inbounds %class.vector.1, ptr %this1, i32 0, i32 0
  %3 = load ptr, ptr %m_data3, align 8
  %arrayidx4 = getelementptr inbounds i32, ptr %3, i64 -2
  %4 = load i32, ptr %arrayidx4, align 4
  %cmp5 = icmp eq i32 %2, %4
  br i1 %cmp5, label %if.then, label %if.end

if.then:                                          ; preds = %lor.lhs.false, %entry
  call void @_ZN6vectorIN3opt7context9objectiveELb1EjE13expand_vectorEv(ptr noundef nonnull align 8 dereferenceable(8) %this1)
  br label %if.end

if.end:                                           ; preds = %if.then, %lor.lhs.false
  %m_data6 = getelementptr inbounds %class.vector.1, ptr %this1, i32 0, i32 0
  %5 = load ptr, ptr %m_data6, align 8
  %m_data7 = getelementptr inbounds %class.vector.1, ptr %this1, i32 0, i32 0
  %6 = load ptr, ptr %m_data7, align 8
  %arrayidx8 = getelementptr inbounds i32, ptr %6, i64 -1
  %7 = load i32, ptr %arrayidx8, align 4
  %idx.ext = zext i32 %7 to i64
  %add.ptr = getelementptr inbounds %"struct.opt::context::objective", ptr %5, i64 %idx.ext
  %8 = load ptr, ptr %elem.addr, align 8
  call void @_ZN3opt7context9objectiveC2ERKS1_(ptr noundef nonnull align 8 dereferenceable(100) %add.ptr, ptr noundef nonnull align 8 dereferenceable(100) %8)
  %m_data9 = getelementptr inbounds %class.vector.1, ptr %this1, i32 0, i32 0
  %9 = load ptr, ptr %m_data9, align 8
  %arrayidx10 = getelementptr inbounds i32, ptr %9, i64 -1
  %10 = load i32, ptr %arrayidx10, align 4
  %inc = add i32 %10, 1
  store i32 %inc, ptr %arrayidx10, align 4
  ret ptr %this1
}

; Function Attrs: mustprogress uwtable
define hidden void @_ZN3opt7context10add_maxsmtERK6symbolj(ptr noundef nonnull align 8 dereferenceable(792) %this, ptr noundef nonnull align 8 dereferenceable(8) %id, i32 noundef %index) #5 align 2 {
entry:
  %this.addr = alloca ptr, align 8
  %id.addr = alloca ptr, align 8
  %index.addr = alloca i32, align 4
  %ms = alloca ptr, align 8
  store ptr %this, ptr %this.addr, align 8
  store ptr %id, ptr %id.addr, align 8
  store i32 %index, ptr %index.addr, align 4
  %this1 = load ptr, ptr %this.addr, align 8
  %call = call noalias noundef ptr @_ZN6memory8allocateEm(i64 noundef 168)
  %add.ptr = getelementptr inbounds i8, ptr %this1, i64 80
  %0 = load i32, ptr %index.addr, align 4
  call void @_ZN3opt6maxsmtC1ERNS_14maxsat_contextEj(ptr noundef nonnull align 8 dereferenceable(168) %call, ptr noundef nonnull align 8 dereferenceable(8) %add.ptr, i32 noundef %0)
  store ptr %call, ptr %ms, align 8
  %1 = load ptr, ptr %ms, align 8
  %m_params = getelementptr inbounds %"class.opt::context", ptr %this1, i32 0, i32 18
  call void @_ZN3opt6maxsmt11updt_paramsER10params_ref(ptr noundef nonnull align 8 dereferenceable(168) %1, ptr noundef nonnull align 8 dereferenceable(8) %m_params)
  %m_maxsmts = getelementptr inbounds %"class.opt::context", ptr %this1, i32 0, i32 20
  %2 = load ptr, ptr %id.addr, align 8
  call void @_ZN9table2mapI17default_map_entryI6symbolPN3opt6maxsmtEE16symbol_hash_proc14symbol_eq_procE6insertERKS1_RKS4_(ptr noundef nonnull align 8 dereferenceable(24) %m_maxsmts, ptr noundef nonnull align 8 dereferenceable(8) %2, ptr noundef nonnull align 8 dereferenceable(8) %ms)
  ret void
}

; Function Attrs: mustprogress uwtable
define hidden noundef i32 @_ZN3opt7context8optimizeERK10ref_vectorI4expr11ast_managerE(ptr noundef nonnull align 8 dereferenceable(792) %this, ptr noundef nonnull align 8 dereferenceable(16) %_asms) unnamed_addr #5 align 2 personality ptr @__gxx_personality_v0 {
entry:
  %retval = alloca i32, align 4
  %this.addr = alloca ptr, align 8
  %_asms.addr = alloca ptr, align 8
  %_st = alloca %"class.opt::context::scoped_time", align 8
  %exn.slot = alloca ptr, align 8
  %ehselector.slot = alloca i32, align 4
  %cleanup.dest.slot = alloca i32, align 4
  %asms = alloca %class.ref_vector, align 8
  %s = alloca ptr, align 8
  %optp = alloca %struct.opt_params, align 8
  %pri = alloca %class.symbol, align 8
  %is_sat = alloca i32, align 4
  %ref.tmp = alloca %class.symbol, align 8
  %optp134 = alloca %struct.opt_params, align 8
  %pri137 = alloca %class.symbol, align 8
  %ref.tmp142 = alloca %class.symbol, align 8
  %ref.tmp150 = alloca %class.symbol, align 8
  store ptr %this, ptr %this.addr, align 8
  store ptr %_asms, ptr %_asms.addr, align 8
  %this1 = load ptr, ptr %this.addr, align 8
  call void @_ZN3opt7context11scoped_timeC2ERS0_(ptr noundef nonnull align 8 dereferenceable(32) %_st, ptr noundef nonnull align 8 dereferenceable(792) %this1)
  %m_pareto = getelementptr inbounds %"class.opt::context", ptr %this1, i32 0, i32 13
  %call = invoke noundef zeroext i1 @_ZNK10scoped_ptrIN3opt11pareto_baseEEcvbEv(ptr noundef nonnull align 8 dereferenceable(8) %m_pareto)
          to label %invoke.cont unwind label %lpad

invoke.cont:                                      ; preds = %entry
  br i1 %call, label %if.then, label %if.end

if.then:                                          ; preds = %invoke.cont
  %call3 = invoke noundef i32 @_ZN3opt7context14execute_paretoEv(ptr noundef nonnull align 8 dereferenceable(792) %this1)
          to label %invoke.cont2 unwind label %lpad

invoke.cont2:                                     ; preds = %if.then
  store i32 %call3, ptr %retval, align 4
  store i32 1, ptr %cleanup.dest.slot, align 4
  br label %cleanup170

lpad:                                             ; preds = %invoke.cont10, %invoke.cont9, %invoke.cont8, %if.end7, %if.then4, %if.then, %entry
  %0 = landingpad { ptr, i32 }
          cleanup
  %1 = extractvalue { ptr, i32 } %0, 0
  store ptr %1, ptr %exn.slot, align 8
  %2 = extractvalue { ptr, i32 } %0, 1
  store i32 %2, ptr %ehselector.slot, align 4
  br label %ehcleanup171

if.end:                                           ; preds = %invoke.cont
  %m_box_index = getelementptr inbounds %"class.opt::context", ptr %this1, i32 0, i32 17
  %3 = load i32, ptr %m_box_index, align 8
  %cmp = icmp ne i32 %3, -1
  br i1 %cmp, label %if.then4, label %if.end7

if.then4:                                         ; preds = %if.end
  %call6 = invoke noundef i32 @_ZN3opt7context11execute_boxEv(ptr noundef nonnull align 8 dereferenceable(792) %this1)
          to label %invoke.cont5 unwind label %lpad

invoke.cont5:                                     ; preds = %if.then4
  store i32 %call6, ptr %retval, align 4
  store i32 1, ptr %cleanup.dest.slot, align 4
  br label %cleanup170

if.end7:                                          ; preds = %if.end
  invoke void @_ZN3opt7context11clear_stateEv(ptr noundef nonnull align 8 dereferenceable(792) %this1)
          to label %invoke.cont8 unwind label %lpad

invoke.cont8:                                     ; preds = %if.end7
  invoke void @_ZN3opt7context11init_solverEv(ptr noundef nonnull align 8 dereferenceable(792) %this1)
          to label %invoke.cont9 unwind label %lpad

invoke.cont9:                                     ; preds = %invoke.cont8
  invoke void @_ZN3opt7context19import_scoped_stateEv(ptr noundef nonnull align 8 dereferenceable(792) %this1)
          to label %invoke.cont10 unwind label %lpad

invoke.cont10:                                    ; preds = %invoke.cont9
  %4 = load ptr, ptr %_asms.addr, align 8
  invoke void @_ZN10ref_vectorI4expr11ast_managerEC2ERKS2_(ptr noundef nonnull align 8 dereferenceable(16) %asms, ptr noundef nonnull align 8 dereferenceable(16) %4)
          to label %invoke.cont11 unwind label %lpad

invoke.cont11:                                    ; preds = %invoke.cont10
  %m_scoped_state = getelementptr inbounds %"class.opt::context", ptr %this1, i32 0, i32 21
  %m_asms = getelementptr inbounds %"class.opt::context::scoped_state", ptr %m_scoped_state, i32 0, i32 10
  invoke void @_ZN15ref_vector_coreI4expr19ref_manager_wrapperIS0_11ast_managerEE6appendERKS4_(ptr noundef nonnull align 8 dereferenceable(16) %asms, ptr noundef nonnull align 8 dereferenceable(16) %m_asms)
          to label %invoke.cont13 unwind label %lpad12

invoke.cont13:                                    ; preds = %invoke.cont11
  invoke void @_ZN3opt7context9normalizeERK10ref_vectorI4expr11ast_managerE(ptr noundef nonnull align 8 dereferenceable(792) %this1, ptr noundef nonnull align 8 dereferenceable(16) %asms)
          to label %invoke.cont14 unwind label %lpad12

invoke.cont14:                                    ; preds = %invoke.cont13
  %m_hard_constraints = getelementptr inbounds %"class.opt::context", ptr %this1, i32 0, i32 9
  %call16 = invoke noundef i32 @_ZNK15ref_vector_coreI4expr19ref_manager_wrapperIS0_11ast_managerEE4sizeEv(ptr noundef nonnull align 8 dereferenceable(16) %m_hard_constraints)
          to label %invoke.cont15 unwind label %lpad12

invoke.cont15:                                    ; preds = %invoke.cont14
  %cmp17 = icmp eq i32 %call16, 1
  br i1 %cmp17, label %land.lhs.true, label %if.end24

land.lhs.true:                                    ; preds = %invoke.cont15
  %m = getelementptr inbounds %class.check_sat_result, ptr %this1, i32 0, i32 1
  %5 = load ptr, ptr %m, align 8
  %m_hard_constraints18 = getelementptr inbounds %"class.opt::context", ptr %this1, i32 0, i32 9
  %call20 = invoke noundef ptr @_ZNK15ref_vector_coreI4expr19ref_manager_wrapperIS0_11ast_managerEE3getEj(ptr noundef nonnull align 8 dereferenceable(16) %m_hard_constraints18, i32 noundef 0)
          to label %invoke.cont19 unwind label %lpad12

invoke.cont19:                                    ; preds = %land.lhs.true
  %call22 = invoke noundef zeroext i1 @_ZNK11ast_manager8is_falseEPK4expr(ptr noundef nonnull align 8 dereferenceable(976) %5, ptr noundef %call20)
          to label %invoke.cont21 unwind label %lpad12

invoke.cont21:                                    ; preds = %invoke.cont19
  br i1 %call22, label %if.then23, label %if.end24

if.then23:                                        ; preds = %invoke.cont21
  store i32 -1, ptr %retval, align 4
  store i32 1, ptr %cleanup.dest.slot, align 4
  br label %cleanup168

lpad12:                                           ; preds = %invoke.cont35, %invoke.cont32, %if.end31, %if.then29, %invoke.cont26, %invoke.cont25, %if.end24, %invoke.cont19, %land.lhs.true, %invoke.cont14, %invoke.cont13, %invoke.cont11
  %6 = landingpad { ptr, i32 }
          cleanup
  %7 = extractvalue { ptr, i32 } %6, 0
  store ptr %7, ptr %exn.slot, align 8
  %8 = extractvalue { ptr, i32 } %6, 1
  store i32 %8, ptr %ehselector.slot, align 4
  br label %ehcleanup169

if.end24:                                         ; preds = %invoke.cont21, %invoke.cont15
  invoke void @_ZN3opt7context11internalizeEv(ptr noundef nonnull align 8 dereferenceable(792) %this1)
          to label %invoke.cont25 unwind label %lpad12

invoke.cont25:                                    ; preds = %if.end24
  invoke void @_ZN3opt7context13update_solverEv(ptr noundef nonnull align 8 dereferenceable(792) %this1)
          to label %invoke.cont26 unwind label %lpad12

invoke.cont26:                                    ; preds = %invoke.cont25
  %call28 = invoke noundef zeroext i1 @_ZNK3opt7context20contains_quantifiersEv(ptr noundef nonnull align 8 dereferenceable(792) %this1)
          to label %invoke.cont27 unwind label %lpad12

invoke.cont27:                                    ; preds = %invoke.cont26
  br i1 %call28, label %if.then29, label %if.end31

if.then29:                                        ; preds = %invoke.cont27
  invoke void (ptr, ...) @_Z11warning_msgPKcz(ptr noundef @.str.17)
          to label %invoke.cont30 unwind label %lpad12

invoke.cont30:                                    ; preds = %if.then29
  br label %if.end31

if.end31:                                         ; preds = %invoke.cont30, %invoke.cont27
  %vtable = load ptr, ptr %this1, align 8
  %vfn = getelementptr inbounds ptr, ptr %vtable, i64 29
  %9 = load ptr, ptr %vfn, align 8
  %call33 = invoke noundef nonnull align 8 dereferenceable(96) ptr %9(ptr noundef nonnull align 8 dereferenceable(792) %this1)
          to label %invoke.cont32 unwind label %lpad12

invoke.cont32:                                    ; preds = %if.end31
  store ptr %call33, ptr %s, align 8
  %10 = load ptr, ptr %s, align 8
  %m_hard_constraints34 = getelementptr inbounds %"class.opt::context", ptr %this1, i32 0, i32 9
  invoke void @_ZN6solver11assert_exprERK10ref_vectorI4expr11ast_managerE(ptr noundef nonnull align 8 dereferenceable(96) %10, ptr noundef nonnull align 8 dereferenceable(16) %m_hard_constraints34)
          to label %invoke.cont35 unwind label %lpad12

invoke.cont35:                                    ; preds = %invoke.cont32
  %m_params = getelementptr inbounds %"class.opt::context", ptr %this1, i32 0, i32 18
  invoke void @_ZN10opt_paramsC2ERK10params_ref(ptr noundef nonnull align 8 dereferenceable(16) %optp, ptr noundef nonnull align 8 dereferenceable(8) %m_params)
          to label %invoke.cont36 unwind label %lpad12

invoke.cont36:                                    ; preds = %invoke.cont35
  %call39 = invoke ptr @_ZNK10opt_params8priorityEv(ptr noundef nonnull align 8 dereferenceable(16) %optp)
          to label %invoke.cont38 unwind label %lpad37

invoke.cont38:                                    ; preds = %invoke.cont36
  %coerce.dive = getelementptr inbounds %class.symbol, ptr %pri, i32 0, i32 0
  store ptr %call39, ptr %coerce.dive, align 8
  %call41 = invoke noundef i32 @_Z19get_verbosity_levelv()
          to label %invoke.cont40 unwind label %lpad37

invoke.cont40:                                    ; preds = %invoke.cont38
  %cmp42 = icmp uge i32 %call41, 1
  br i1 %cmp42, label %if.then43, label %if.end58

if.then43:                                        ; preds = %invoke.cont40
  %call45 = invoke noundef zeroext i1 @_Z11is_threadedv()
          to label %invoke.cont44 unwind label %lpad37

invoke.cont44:                                    ; preds = %if.then43
  br i1 %call45, label %if.then46, label %if.else

if.then46:                                        ; preds = %invoke.cont44
  invoke void @_Z12verbose_lockv()
          to label %invoke.cont47 unwind label %lpad37

invoke.cont47:                                    ; preds = %if.then46
  %call49 = invoke noundef nonnull align 8 dereferenceable(8) ptr @_Z14verbose_streamv()
          to label %invoke.cont48 unwind label %lpad37

invoke.cont48:                                    ; preds = %invoke.cont47
  %call51 = invoke noundef nonnull align 8 dereferenceable(8) ptr @_ZStlsISt11char_traitsIcEERSt13basic_ostreamIcT_ES5_PKc(ptr noundef nonnull align 8 dereferenceable(8) %call49, ptr noundef @.str.18)
          to label %invoke.cont50 unwind label %lpad37

invoke.cont50:                                    ; preds = %invoke.cont48
  invoke void @_Z14verbose_unlockv()
          to label %invoke.cont52 unwind label %lpad37

invoke.cont52:                                    ; preds = %invoke.cont50
  br label %if.end57

lpad37:                                           ; preds = %if.end165, %if.then163, %sw.default, %invoke.cont129, %invoke.cont125, %invoke.cont124, %if.else123, %invoke.cont117, %invoke.cont116, %invoke.cont114, %if.end113, %invoke.cont108, %if.else107, %invoke.cont104, %invoke.cont102, %invoke.cont101, %if.then100, %if.then97, %invoke.cont93, %if.end92, %if.then87, %if.then84, %invoke.cont76, %invoke.cont72, %invoke.cont70, %invoke.cont67, %if.then66, %invoke.cont61, %invoke.cont59, %if.end58, %invoke.cont53, %if.else, %invoke.cont50, %invoke.cont48, %invoke.cont47, %if.then46, %if.then43, %invoke.cont38, %invoke.cont36
  %11 = landingpad { ptr, i32 }
          cleanup
  %12 = extractvalue { ptr, i32 } %11, 0
  store ptr %12, ptr %exn.slot, align 8
  %13 = extractvalue { ptr, i32 } %11, 1
  store i32 %13, ptr %ehselector.slot, align 4
  br label %ehcleanup

if.else:                                          ; preds = %invoke.cont44
  %call54 = invoke noundef nonnull align 8 dereferenceable(8) ptr @_Z14verbose_streamv()
          to label %invoke.cont53 unwind label %lpad37

invoke.cont53:                                    ; preds = %if.else
  %call56 = invoke noundef nonnull align 8 dereferenceable(8) ptr @_ZStlsISt11char_traitsIcEERSt13basic_ostreamIcT_ES5_PKc(ptr noundef nonnull align 8 dereferenceable(8) %call54, ptr noundef @.str.18)
          to label %invoke.cont55 unwind label %lpad37

invoke.cont55:                                    ; preds = %invoke.cont53
  br label %if.end57

if.end57:                                         ; preds = %invoke.cont55, %invoke.cont52
  br label %if.end58

if.end58:                                         ; preds = %if.end57, %invoke.cont40
  %14 = load ptr, ptr %s, align 8
  %call60 = invoke noundef i32 @_ZNK15ref_vector_coreI4expr19ref_manager_wrapperIS0_11ast_managerEE4sizeEv(ptr noundef nonnull align 8 dereferenceable(16) %asms)
          to label %invoke.cont59 unwind label %lpad37

invoke.cont59:                                    ; preds = %if.end58
  %call62 = invoke noundef ptr @_ZN15ref_vector_coreI4expr19ref_manager_wrapperIS0_11ast_managerEE4dataEv(ptr noundef nonnull align 8 dereferenceable(16) %asms)
          to label %invoke.cont61 unwind label %lpad37

invoke.cont61:                                    ; preds = %invoke.cont59
  %call64 = invoke noundef i32 @_ZN6solver9check_satEjPKP4expr(ptr noundef nonnull align 8 dereferenceable(96) %14, i32 noundef %call60, ptr noundef %call62)
          to label %invoke.cont63 unwind label %lpad37

invoke.cont63:                                    ; preds = %invoke.cont61
  store i32 %call64, ptr %is_sat, align 4
  %15 = load i32, ptr %is_sat, align 4
  %cmp65 = icmp ne i32 %15, -1
  br i1 %cmp65, label %if.then66, label %if.end82

if.then66:                                        ; preds = %invoke.cont63
  %16 = load ptr, ptr %s, align 8
  %m_model = getelementptr inbounds %"class.opt::context", ptr %this1, i32 0, i32 23
  invoke void @_ZN16check_sat_result9get_modelER3refI5modelE(ptr noundef nonnull align 8 dereferenceable(72) %16, ptr noundef nonnull align 8 dereferenceable(8) %m_model)
          to label %invoke.cont67 unwind label %lpad37

invoke.cont67:                                    ; preds = %if.then66
  %17 = load ptr, ptr %s, align 8
  %m_labels = getelementptr inbounds %"class.opt::context", ptr %this1, i32 0, i32 42
  %vtable68 = load ptr, ptr %17, align 8
  %vfn69 = getelementptr inbounds ptr, ptr %vtable68, i64 8
  %18 = load ptr, ptr %vfn69, align 8
  invoke void %18(ptr noundef nonnull align 8 dereferenceable(72) %17, ptr noundef nonnull align 8 dereferenceable(8) %m_labels)
          to label %invoke.cont70 unwind label %lpad37

invoke.cont70:                                    ; preds = %invoke.cont67
  %m_model71 = getelementptr inbounds %"class.opt::context", ptr %this1, i32 0, i32 23
  %call73 = invoke noundef ptr @_ZNK3refI5modelE3getEv(ptr noundef nonnull align 8 dereferenceable(8) %m_model71)
          to label %invoke.cont72 unwind label %lpad37

invoke.cont72:                                    ; preds = %invoke.cont70
  %vtable74 = load ptr, ptr %this1, align 8
  %vfn75 = getelementptr inbounds ptr, ptr %vtable74, i64 35
  %19 = load ptr, ptr %vfn75, align 8
  invoke void %19(ptr noundef nonnull align 8 dereferenceable(792) %this1, ptr noundef %call73)
          to label %invoke.cont76 unwind label %lpad37

invoke.cont76:                                    ; preds = %invoke.cont72
  %m_model77 = getelementptr inbounds %"class.opt::context", ptr %this1, i32 0, i32 23
  %call79 = invoke noundef zeroext i1 @_ZNK3refI5modelEntEv(ptr noundef nonnull align 8 dereferenceable(8) %m_model77)
          to label %invoke.cont78 unwind label %lpad37

invoke.cont78:                                    ; preds = %invoke.cont76
  br i1 %call79, label %if.then80, label %if.end81

if.then80:                                        ; preds = %invoke.cont78
  store i32 0, ptr %is_sat, align 4
  br label %if.end81

if.end81:                                         ; preds = %if.then80, %invoke.cont78
  br label %if.end82

if.end82:                                         ; preds = %if.end81, %invoke.cont63
  %20 = load i32, ptr %is_sat, align 4
  %cmp83 = icmp ne i32 %20, 1
  br i1 %cmp83, label %if.then84, label %if.end92

if.then84:                                        ; preds = %if.end82
  %call86 = invoke noundef zeroext i1 @_ZNK15ref_vector_coreI4expr19ref_manager_wrapperIS0_11ast_managerEE5emptyEv(ptr noundef nonnull align 8 dereferenceable(16) %asms)
          to label %invoke.cont85 unwind label %lpad37

invoke.cont85:                                    ; preds = %if.then84
  br i1 %call86, label %if.end91, label %if.then87

if.then87:                                        ; preds = %invoke.cont85
  %21 = load ptr, ptr %s, align 8
  %m_core = getelementptr inbounds %"class.opt::context", ptr %this1, i32 0, i32 32
  %vtable88 = load ptr, ptr %21, align 8
  %vfn89 = getelementptr inbounds ptr, ptr %vtable88, i64 3
  %22 = load ptr, ptr %vfn89, align 8
  invoke void %22(ptr noundef nonnull align 8 dereferenceable(72) %21, ptr noundef nonnull align 8 dereferenceable(16) %m_core)
          to label %invoke.cont90 unwind label %lpad37

invoke.cont90:                                    ; preds = %if.then87
  br label %if.end91

if.end91:                                         ; preds = %invoke.cont90, %invoke.cont85
  %23 = load i32, ptr %is_sat, align 4
  store i32 %23, ptr %retval, align 4
  store i32 1, ptr %cleanup.dest.slot, align 4
  br label %cleanup

if.end92:                                         ; preds = %if.end82
  %24 = load ptr, ptr %s, align 8
  invoke void @_ZN6solver11assert_exprERK10ref_vectorI4expr11ast_managerE(ptr noundef nonnull align 8 dereferenceable(96) %24, ptr noundef nonnull align 8 dereferenceable(16) %asms)
          to label %invoke.cont93 unwind label %lpad37

invoke.cont93:                                    ; preds = %if.end92
  %call95 = invoke noundef i32 @_Z19get_verbosity_levelv()
          to label %invoke.cont94 unwind label %lpad37

invoke.cont94:                                    ; preds = %invoke.cont93
  %cmp96 = icmp uge i32 %call95, 1
  br i1 %cmp96, label %if.then97, label %if.end113

if.then97:                                        ; preds = %invoke.cont94
  %call99 = invoke noundef zeroext i1 @_Z11is_threadedv()
          to label %invoke.cont98 unwind label %lpad37

invoke.cont98:                                    ; preds = %if.then97
  br i1 %call99, label %if.then100, label %if.else107

if.then100:                                       ; preds = %invoke.cont98
  invoke void @_Z12verbose_lockv()
          to label %invoke.cont101 unwind label %lpad37

invoke.cont101:                                   ; preds = %if.then100
  %call103 = invoke noundef nonnull align 8 dereferenceable(8) ptr @_Z14verbose_streamv()
          to label %invoke.cont102 unwind label %lpad37

invoke.cont102:                                   ; preds = %invoke.cont101
  %call105 = invoke noundef nonnull align 8 dereferenceable(8) ptr @_ZStlsISt11char_traitsIcEERSt13basic_ostreamIcT_ES5_PKc(ptr noundef nonnull align 8 dereferenceable(8) %call103, ptr noundef @.str.19)
          to label %invoke.cont104 unwind label %lpad37

invoke.cont104:                                   ; preds = %invoke.cont102
  invoke void @_Z14verbose_unlockv()
          to label %invoke.cont106 unwind label %lpad37

invoke.cont106:                                   ; preds = %invoke.cont104
  br label %if.end112

if.else107:                                       ; preds = %invoke.cont98
  %call109 = invoke noundef nonnull align 8 dereferenceable(8) ptr @_Z14verbose_streamv()
          to label %invoke.cont108 unwind label %lpad37

invoke.cont108:                                   ; preds = %if.else107
  %call111 = invoke noundef nonnull align 8 dereferenceable(8) ptr @_ZStlsISt11char_traitsIcEERSt13basic_ostreamIcT_ES5_PKc(ptr noundef nonnull align 8 dereferenceable(8) %call109, ptr noundef @.str.19)
          to label %invoke.cont110 unwind label %lpad37

invoke.cont110:                                   ; preds = %invoke.cont108
  br label %if.end112

if.end112:                                        ; preds = %invoke.cont110, %invoke.cont106
  br label %if.end113

if.end113:                                        ; preds = %if.end112, %invoke.cont94
  %m_optsmt = getelementptr inbounds %"class.opt::context", ptr %this1, i32 0, i32 19
  %m_opt_solver = getelementptr inbounds %"class.opt::context", ptr %this1, i32 0, i32 10
  %call115 = invoke noundef ptr @_ZNK3refIN3opt10opt_solverEE3getEv(ptr noundef nonnull align 8 dereferenceable(8) %m_opt_solver)
          to label %invoke.cont114 unwind label %lpad37

invoke.cont114:                                   ; preds = %if.end113
  invoke void @_ZN3opt6optsmt5setupERNS_10opt_solverE(ptr noundef nonnull align 8 dereferenceable(120) %m_optsmt, ptr noundef nonnull align 8 dereferenceable(1034) %call115)
          to label %invoke.cont116 unwind label %lpad37

invoke.cont116:                                   ; preds = %invoke.cont114
  invoke void @_ZN3opt7context12update_lowerEv(ptr noundef nonnull align 8 dereferenceable(792) %this1)
          to label %invoke.cont117 unwind label %lpad37

invoke.cont117:                                   ; preds = %invoke.cont116
  %m_objectives = getelementptr inbounds %"class.opt::context", ptr %this1, i32 0, i32 22
  %call119 = invoke noundef i32 @_ZNK6vectorIN3opt7context9objectiveELb1EjE4sizeEv(ptr noundef nonnull align 8 dereferenceable(8) %m_objectives)
          to label %invoke.cont118 unwind label %lpad37

invoke.cont118:                                   ; preds = %invoke.cont117
  switch i32 %call119, label %sw.default [
    i32 0, label %sw.bb
    i32 1, label %sw.bb120
  ]

sw.bb:                                            ; preds = %invoke.cont118
  br label %sw.epilog

sw.bb120:                                         ; preds = %invoke.cont118
  %m_pareto1 = getelementptr inbounds %"class.opt::context", ptr %this1, i32 0, i32 14
  %25 = load i8, ptr %m_pareto1, align 8
  %tobool = trunc i8 %25 to i1
  br i1 %tobool, label %if.then121, label %if.else123

if.then121:                                       ; preds = %sw.bb120
  store i32 -1, ptr %is_sat, align 4
  %m_pareto1122 = getelementptr inbounds %"class.opt::context", ptr %this1, i32 0, i32 14
  store i8 0, ptr %m_pareto1122, align 8
  br label %if.end133

if.else123:                                       ; preds = %sw.bb120
  invoke void @_ZN6symbolC1EPKc(ptr noundef nonnull align 8 dereferenceable(8) %ref.tmp, ptr noundef @.str.20)
          to label %invoke.cont124 unwind label %lpad37

invoke.cont124:                                   ; preds = %if.else123
  %call126 = invoke noundef zeroext i1 @_ZeqRK6symbolS1_(ptr noundef nonnull align 8 dereferenceable(8) %pri, ptr noundef nonnull align 8 dereferenceable(8) %ref.tmp)
          to label %invoke.cont125 unwind label %lpad37

invoke.cont125:                                   ; preds = %invoke.cont124
  %m_pareto1127 = getelementptr inbounds %"class.opt::context", ptr %this1, i32 0, i32 14
  %frombool = zext i1 %call126 to i8
  store i8 %frombool, ptr %m_pareto1127, align 8
  %m_objectives128 = getelementptr inbounds %"class.opt::context", ptr %this1, i32 0, i32 22
  %call130 = invoke noundef nonnull align 8 dereferenceable(100) ptr @_ZN6vectorIN3opt7context9objectiveELb1EjEixEj(ptr noundef nonnull align 8 dereferenceable(8) %m_objectives128, i32 noundef 0)
          to label %invoke.cont129 unwind label %lpad37

invoke.cont129:                                   ; preds = %invoke.cont125
  %call132 = invoke noundef i32 @_ZN3opt7context7executeERKNS0_9objectiveEbb(ptr noundef nonnull align 8 dereferenceable(792) %this1, ptr noundef nonnull align 8 dereferenceable(100) %call130, i1 noundef zeroext true, i1 noundef zeroext false)
          to label %invoke.cont131 unwind label %lpad37

invoke.cont131:                                   ; preds = %invoke.cont129
  store i32 %call132, ptr %is_sat, align 4
  br label %if.end133

if.end133:                                        ; preds = %invoke.cont131, %if.then121
  br label %sw.epilog

sw.default:                                       ; preds = %invoke.cont118
  %m_params135 = getelementptr inbounds %"class.opt::context", ptr %this1, i32 0, i32 18
  invoke void @_ZN10opt_paramsC2ERK10params_ref(ptr noundef nonnull align 8 dereferenceable(16) %optp134, ptr noundef nonnull align 8 dereferenceable(8) %m_params135)
          to label %invoke.cont136 unwind label %lpad37

invoke.cont136:                                   ; preds = %sw.default
  %call140 = invoke ptr @_ZNK10opt_params8priorityEv(ptr noundef nonnull align 8 dereferenceable(16) %optp134)
          to label %invoke.cont139 unwind label %lpad138

invoke.cont139:                                   ; preds = %invoke.cont136
  %coerce.dive141 = getelementptr inbounds %class.symbol, ptr %pri137, i32 0, i32 0
  store ptr %call140, ptr %coerce.dive141, align 8
  invoke void @_ZN6symbolC1EPKc(ptr noundef nonnull align 8 dereferenceable(8) %ref.tmp142, ptr noundef @.str.20)
          to label %invoke.cont143 unwind label %lpad138

invoke.cont143:                                   ; preds = %invoke.cont139
  %call145 = invoke noundef zeroext i1 @_ZeqRK6symbolS1_(ptr noundef nonnull align 8 dereferenceable(8) %pri137, ptr noundef nonnull align 8 dereferenceable(8) %ref.tmp142)
          to label %invoke.cont144 unwind label %lpad138

invoke.cont144:                                   ; preds = %invoke.cont143
  br i1 %call145, label %if.then146, label %if.else149

if.then146:                                       ; preds = %invoke.cont144
  %call148 = invoke noundef i32 @_ZN3opt7context14execute_paretoEv(ptr noundef nonnull align 8 dereferenceable(792) %this1)
          to label %invoke.cont147 unwind label %lpad138

invoke.cont147:                                   ; preds = %if.then146
  store i32 %call148, ptr %is_sat, align 4
  br label %if.end161

lpad138:                                          ; preds = %if.else157, %if.then154, %invoke.cont151, %if.else149, %if.then146, %invoke.cont143, %invoke.cont139, %invoke.cont136
  %26 = landingpad { ptr, i32 }
          cleanup
  %27 = extractvalue { ptr, i32 } %26, 0
  store ptr %27, ptr %exn.slot, align 8
  %28 = extractvalue { ptr, i32 } %26, 1
  store i32 %28, ptr %ehselector.slot, align 4
  call void @_ZN10opt_paramsD2Ev(ptr noundef nonnull align 8 dereferenceable(16) %optp134) #3
  br label %ehcleanup

if.else149:                                       ; preds = %invoke.cont144
  invoke void @_ZN6symbolC1EPKc(ptr noundef nonnull align 8 dereferenceable(8) %ref.tmp150, ptr noundef @.str.21)
          to label %invoke.cont151 unwind label %lpad138

invoke.cont151:                                   ; preds = %if.else149
  %call153 = invoke noundef zeroext i1 @_ZeqRK6symbolS1_(ptr noundef nonnull align 8 dereferenceable(8) %pri137, ptr noundef nonnull align 8 dereferenceable(8) %ref.tmp150)
          to label %invoke.cont152 unwind label %lpad138

invoke.cont152:                                   ; preds = %invoke.cont151
  br i1 %call153, label %if.then154, label %if.else157

if.then154:                                       ; preds = %invoke.cont152
  %call156 = invoke noundef i32 @_ZN3opt7context11execute_boxEv(ptr noundef nonnull align 8 dereferenceable(792) %this1)
          to label %invoke.cont155 unwind label %lpad138

invoke.cont155:                                   ; preds = %if.then154
  store i32 %call156, ptr %is_sat, align 4
  br label %if.end160

if.else157:                                       ; preds = %invoke.cont152
  %call159 = invoke noundef i32 @_ZN3opt7context11execute_lexEv(ptr noundef nonnull align 8 dereferenceable(792) %this1)
          to label %invoke.cont158 unwind label %lpad138

invoke.cont158:                                   ; preds = %if.else157
  store i32 %call159, ptr %is_sat, align 4
  br label %if.end160

if.end160:                                        ; preds = %invoke.cont158, %invoke.cont155
  br label %if.end161

if.end161:                                        ; preds = %if.end160, %invoke.cont147
  call void @_ZN10opt_paramsD2Ev(ptr noundef nonnull align 8 dereferenceable(16) %optp134) #3
  br label %sw.epilog

sw.epilog:                                        ; preds = %if.end161, %if.end133, %sw.bb
  %29 = load i32, ptr %is_sat, align 4
  %cmp162 = icmp eq i32 %29, 1
  br i1 %cmp162, label %if.then163, label %if.end165

if.then163:                                       ; preds = %sw.epilog
  invoke void @_ZN3opt7context14validate_modelEv(ptr noundef nonnull align 8 dereferenceable(792) %this1)
          to label %invoke.cont164 unwind label %lpad37

invoke.cont164:                                   ; preds = %if.then163
  br label %if.end165

if.end165:                                        ; preds = %invoke.cont164, %sw.epilog
  %30 = load i32, ptr %is_sat, align 4
  %call167 = invoke noundef i32 @_ZN3opt7context14adjust_unknownE5lbool(ptr noundef nonnull align 8 dereferenceable(792) %this1, i32 noundef %30)
          to label %invoke.cont166 unwind label %lpad37

invoke.cont166:                                   ; preds = %if.end165
  store i32 %call167, ptr %retval, align 4
  store i32 1, ptr %cleanup.dest.slot, align 4
  br label %cleanup

cleanup:                                          ; preds = %invoke.cont166, %if.end91
  call void @_ZN10opt_paramsD2Ev(ptr noundef nonnull align 8 dereferenceable(16) %optp) #3
  br label %cleanup168

ehcleanup:                                        ; preds = %lpad138, %lpad37
  call void @_ZN10opt_paramsD2Ev(ptr noundef nonnull align 8 dereferenceable(16) %optp) #3
  br label %ehcleanup169

cleanup168:                                       ; preds = %cleanup, %if.then23
  call void @_ZN10ref_vectorI4expr11ast_managerED2Ev(ptr noundef nonnull align 8 dereferenceable(16) %asms) #3
  br label %cleanup170

ehcleanup169:                                     ; preds = %ehcleanup, %lpad12
  call void @_ZN10ref_vectorI4expr11ast_managerED2Ev(ptr noundef nonnull align 8 dereferenceable(16) %asms) #3
  br label %ehcleanup171

cleanup170:                                       ; preds = %cleanup168, %invoke.cont5, %invoke.cont2
  call void @_ZN3opt7context11scoped_timeD2Ev(ptr noundef nonnull align 8 dereferenceable(32) %_st) #3
  %31 = load i32, ptr %retval, align 4
  ret i32 %31

ehcleanup171:                                     ; preds = %ehcleanup169, %lpad
  call void @_ZN3opt7context11scoped_timeD2Ev(ptr noundef nonnull align 8 dereferenceable(32) %_st) #3
  br label %eh.resume

eh.resume:                                        ; preds = %ehcleanup171
  %exn = load ptr, ptr %exn.slot, align 8
  %sel = load i32, ptr %ehselector.slot, align 4
  %lpad.val = insertvalue { ptr, i32 } poison, ptr %exn, 0
  %lpad.val172 = insertvalue { ptr, i32 } %lpad.val, i32 %sel, 1
  resume { ptr, i32 } %lpad.val172
}

; Function Attrs: mustprogress uwtable
define linkonce_odr hidden void @_ZN3opt7context11scoped_timeC2ERS0_(ptr noundef nonnull align 8 dereferenceable(32) %this, ptr noundef nonnull align 8 dereferenceable(792) %c) unnamed_addr #5 comdat align 2 {
entry:
  %this.addr = alloca ptr, align 8
  %c.addr = alloca ptr, align 8
  store ptr %this, ptr %this.addr, align 8
  store ptr %c, ptr %c.addr, align 8
  %this1 = load ptr, ptr %this.addr, align 8
  %c2 = getelementptr inbounds %"class.opt::context::scoped_time", ptr %this1, i32 0, i32 0
  %0 = load ptr, ptr %c.addr, align 8
  store ptr %0, ptr %c2, align 8
  %t = getelementptr inbounds %"class.opt::context::scoped_time", ptr %this1, i32 0, i32 1
  call void @_ZN5timerC2Ev(ptr noundef nonnull align 8 dereferenceable(24) %t)
  %1 = load ptr, ptr %c.addr, align 8
  %m_time = getelementptr inbounds %"class.opt::context", ptr %1, i32 0, i32 3
  store double 0.000000e+00, ptr %m_time, align 8
  ret void
}

; Function Attrs: mustprogress nounwind uwtable
define linkonce_odr hidden noundef zeroext i1 @_ZNK10scoped_ptrIN3opt11pareto_baseEEcvbEv(ptr noundef nonnull align 8 dereferenceable(8) %this) #4 comdat align 2 {
entry:
  %this.addr = alloca ptr, align 8
  store ptr %this, ptr %this.addr, align 8
  %this1 = load ptr, ptr %this.addr, align 8
  %m_ptr = getelementptr inbounds %class.scoped_ptr, ptr %this1, i32 0, i32 0
  %0 = load ptr, ptr %m_ptr, align 8
  %cmp = icmp ne ptr %0, null
  ret i1 %cmp
}

; Function Attrs: mustprogress uwtable
define hidden noundef i32 @_ZN3opt7context14execute_paretoEv(ptr noundef nonnull align 8 dereferenceable(792) %this) #5 align 2 {
entry:
  %this.addr = alloca ptr, align 8
  %is_sat = alloca i32, align 4
  store ptr %this, ptr %this.addr, align 8
  %this1 = load ptr, ptr %this.addr, align 8
  %m_pareto = getelementptr inbounds %"class.opt::context", ptr %this1, i32 0, i32 13
  %call = call noundef zeroext i1 @_ZNK10scoped_ptrIN3opt11pareto_baseEEcvbEv(ptr noundef nonnull align 8 dereferenceable(8) %m_pareto)
  br i1 %call, label %if.end, label %if.then

if.then:                                          ; preds = %entry
  %call2 = call noalias noundef ptr @_ZN6memory8allocateEm(i64 noundef 56)
  %m = getelementptr inbounds %class.check_sat_result, ptr %this1, i32 0, i32 1
  %0 = load ptr, ptr %m, align 8
  %add.ptr = getelementptr inbounds i8, ptr %this1, i64 72
  %m_solver = getelementptr inbounds %"class.opt::context", ptr %this1, i32 0, i32 11
  %call3 = call noundef ptr @_ZNK3refI6solverE3getEv(ptr noundef nonnull align 8 dereferenceable(8) %m_solver)
  %m_params = getelementptr inbounds %"class.opt::context", ptr %this1, i32 0, i32 18
  call void @_ZN3opt10gia_paretoC2ER11ast_managerRNS_15pareto_callbackEP6solverR10params_ref(ptr noundef nonnull align 8 dereferenceable(56) %call2, ptr noundef nonnull align 8 dereferenceable(976) %0, ptr noundef nonnull align 8 dereferenceable(8) %add.ptr, ptr noundef %call3, ptr noundef nonnull align 8 dereferenceable(8) %m_params)
  call void @_ZN3opt7context10set_paretoEPNS_11pareto_baseE(ptr noundef nonnull align 8 dereferenceable(792) %this1, ptr noundef %call2)
  br label %if.end

if.end:                                           ; preds = %if.then, %entry
  %m_pareto4 = getelementptr inbounds %"class.opt::context", ptr %this1, i32 0, i32 13
  %call5 = call noundef ptr @_ZNK10scoped_ptrIN3opt11pareto_baseEE3getEv(ptr noundef nonnull align 8 dereferenceable(8) %m_pareto4)
  %vtable = load ptr, ptr %call5, align 8
  %vfn = getelementptr inbounds ptr, ptr %vtable, i64 6
  %1 = load ptr, ptr %vfn, align 8
  %call6 = call noundef i32 %1(ptr noundef nonnull align 8 dereferenceable(56) %call5)
  store i32 %call6, ptr %is_sat, align 4
  %2 = load i32, ptr %is_sat, align 4
  %cmp = icmp ne i32 %2, 1
  br i1 %cmp, label %if.then7, label %if.end8

if.then7:                                         ; preds = %if.end
  call void @_ZN3opt7context10set_paretoEPNS_11pareto_baseE(ptr noundef nonnull align 8 dereferenceable(792) %this1, ptr noundef null)
  br label %if.end8

if.end8:                                          ; preds = %if.then7, %if.end
  %3 = load i32, ptr %is_sat, align 4
  %cmp9 = icmp eq i32 %3, 1
  br i1 %cmp9, label %if.then10, label %if.end11

if.then10:                                        ; preds = %if.end8
  call void @_ZN3opt7context5yieldEv(ptr noundef nonnull align 8 dereferenceable(792) %this1)
  br label %if.end11

if.end11:                                         ; preds = %if.then10, %if.end8
  %4 = load i32, ptr %is_sat, align 4
  ret i32 %4
}

; Function Attrs: mustprogress uwtable
define hidden noundef i32 @_ZN3opt7context11execute_boxEv(ptr noundef nonnull align 8 dereferenceable(792) %this) #5 align 2 personality ptr @__gxx_personality_v0 {
entry:
  %retval = alloca i32, align 4
  %this.addr = alloca ptr, align 8
  %r = alloca i32, align 4
  %i = alloca i32, align 4
  %j = alloca i32, align 4
  %obj = alloca ptr, align 8
  %_sp = alloca %"class.solver::scoped_push", align 8
  %exn.slot = alloca ptr, align 8
  %ehselector.slot = alloca i32, align 4
  %mdl = alloca ptr, align 8
  store ptr %this, ptr %this.addr, align 8
  %this1 = load ptr, ptr %this.addr, align 8
  %m_box_index = getelementptr inbounds %"class.opt::context", ptr %this1, i32 0, i32 17
  %0 = load i32, ptr %m_box_index, align 8
  %m_box_models = getelementptr inbounds %"class.opt::context", ptr %this1, i32 0, i32 16
  %call = call noundef i32 @_ZNK15ref_vector_coreI5model21ref_unmanaged_wrapperIS0_EE4sizeEv(ptr noundef nonnull align 8 dereferenceable(8) %m_box_models)
  %cmp = icmp ult i32 %0, %call
  br i1 %cmp, label %if.then, label %if.end

if.then:                                          ; preds = %entry
  %m_box_models2 = getelementptr inbounds %"class.opt::context", ptr %this1, i32 0, i32 16
  %m_box_index3 = getelementptr inbounds %"class.opt::context", ptr %this1, i32 0, i32 17
  %1 = load i32, ptr %m_box_index3, align 8
  %call4 = call noundef ptr @_ZNK15ref_vector_coreI5model21ref_unmanaged_wrapperIS0_EEixEj(ptr noundef nonnull align 8 dereferenceable(8) %m_box_models2, i32 noundef %1)
  %m_model = getelementptr inbounds %"class.opt::context", ptr %this1, i32 0, i32 23
  %call5 = call noundef nonnull align 8 dereferenceable(8) ptr @_ZN3refI5modelEaSEPS0_(ptr noundef nonnull align 8 dereferenceable(8) %m_model, ptr noundef %call4)
  %m_box_index6 = getelementptr inbounds %"class.opt::context", ptr %this1, i32 0, i32 17
  %2 = load i32, ptr %m_box_index6, align 8
  %inc = add i32 %2, 1
  store i32 %inc, ptr %m_box_index6, align 8
  store i32 1, ptr %retval, align 4
  br label %return

if.end:                                           ; preds = %entry
  %m_box_index7 = getelementptr inbounds %"class.opt::context", ptr %this1, i32 0, i32 17
  %3 = load i32, ptr %m_box_index7, align 8
  %m_objectives = getelementptr inbounds %"class.opt::context", ptr %this1, i32 0, i32 22
  %call8 = call noundef i32 @_ZNK6vectorIN3opt7context9objectiveELb1EjE4sizeEv(ptr noundef nonnull align 8 dereferenceable(8) %m_objectives)
  %cmp9 = icmp ult i32 %3, %call8
  br i1 %cmp9, label %if.then10, label %if.end15

if.then10:                                        ; preds = %if.end
  %m_model11 = getelementptr inbounds %"class.opt::context", ptr %this1, i32 0, i32 23
  %call12 = call noundef nonnull align 8 dereferenceable(8) ptr @_ZN3refI5modelEaSEPS0_(ptr noundef nonnull align 8 dereferenceable(8) %m_model11, ptr noundef null)
  %m_box_index13 = getelementptr inbounds %"class.opt::context", ptr %this1, i32 0, i32 17
  %4 = load i32, ptr %m_box_index13, align 8
  %inc14 = add i32 %4, 1
  store i32 %inc14, ptr %m_box_index13, align 8
  store i32 0, ptr %retval, align 4
  br label %return

if.end15:                                         ; preds = %if.end
  %m_box_index16 = getelementptr inbounds %"class.opt::context", ptr %this1, i32 0, i32 17
  %5 = load i32, ptr %m_box_index16, align 8
  %cmp17 = icmp ne i32 %5, -1
  br i1 %cmp17, label %land.lhs.true, label %if.end24

land.lhs.true:                                    ; preds = %if.end15
  %m_box_index18 = getelementptr inbounds %"class.opt::context", ptr %this1, i32 0, i32 17
  %6 = load i32, ptr %m_box_index18, align 8
  %m_objectives19 = getelementptr inbounds %"class.opt::context", ptr %this1, i32 0, i32 22
  %call20 = call noundef i32 @_ZNK6vectorIN3opt7context9objectiveELb1EjE4sizeEv(ptr noundef nonnull align 8 dereferenceable(8) %m_objectives19)
  %cmp21 = icmp uge i32 %6, %call20
  br i1 %cmp21, label %if.then22, label %if.end24

if.then22:                                        ; preds = %land.lhs.true
  %m_box_index23 = getelementptr inbounds %"class.opt::context", ptr %this1, i32 0, i32 17
  store i32 -1, ptr %m_box_index23, align 8
  store i32 -1, ptr %retval, align 4
  br label %return

if.end24:                                         ; preds = %land.lhs.true, %if.end15
  %m_box_index25 = getelementptr inbounds %"class.opt::context", ptr %this1, i32 0, i32 17
  store i32 1, ptr %m_box_index25, align 8
  %m_box_models26 = getelementptr inbounds %"class.opt::context", ptr %this1, i32 0, i32 16
  call void @_ZN15ref_vector_coreI5model21ref_unmanaged_wrapperIS0_EE5resetEv(ptr noundef nonnull align 8 dereferenceable(8) %m_box_models26)
  %m_optsmt = getelementptr inbounds %"class.opt::context", ptr %this1, i32 0, i32 19
  %call27 = call noundef i32 @_ZN3opt6optsmt3boxEv(ptr noundef nonnull align 8 dereferenceable(120) %m_optsmt)
  store i32 %call27, ptr %r, align 4
  store i32 0, ptr %i, align 4
  store i32 0, ptr %j, align 4
  br label %for.cond

for.cond:                                         ; preds = %for.inc, %if.end24
  %7 = load i32, ptr %r, align 4
  %cmp28 = icmp eq i32 %7, 1
  br i1 %cmp28, label %land.rhs, label %land.end

land.rhs:                                         ; preds = %for.cond
  %8 = load i32, ptr %i, align 4
  %m_objectives29 = getelementptr inbounds %"class.opt::context", ptr %this1, i32 0, i32 22
  %call30 = call noundef i32 @_ZNK6vectorIN3opt7context9objectiveELb1EjE4sizeEv(ptr noundef nonnull align 8 dereferenceable(8) %m_objectives29)
  %cmp31 = icmp ult i32 %8, %call30
  br label %land.end

land.end:                                         ; preds = %land.rhs, %for.cond
  %9 = phi i1 [ false, %for.cond ], [ %cmp31, %land.rhs ]
  br i1 %9, label %for.body, label %for.end

for.body:                                         ; preds = %land.end
  %m_objectives32 = getelementptr inbounds %"class.opt::context", ptr %this1, i32 0, i32 22
  %10 = load i32, ptr %i, align 4
  %call33 = call noundef nonnull align 8 dereferenceable(100) ptr @_ZN6vectorIN3opt7context9objectiveELb1EjEixEj(ptr noundef nonnull align 8 dereferenceable(8) %m_objectives32, i32 noundef %10)
  store ptr %call33, ptr %obj, align 8
  %11 = load ptr, ptr %obj, align 8
  %m_type = getelementptr inbounds %"struct.opt::context::objective", ptr %11, i32 0, i32 0
  %12 = load i32, ptr %m_type, align 8
  %cmp34 = icmp eq i32 %12, 2
  br i1 %cmp34, label %if.then35, label %if.else

if.then35:                                        ; preds = %for.body
  %vtable = load ptr, ptr %this1, align 8
  %vfn = getelementptr inbounds ptr, ptr %vtable, i64 29
  %13 = load ptr, ptr %vfn, align 8
  %call36 = call noundef nonnull align 8 dereferenceable(96) ptr %13(ptr noundef nonnull align 8 dereferenceable(792) %this1)
  call void @_ZN6solver11scoped_pushC2ERS_(ptr noundef nonnull align 8 dereferenceable(9) %_sp, ptr noundef nonnull align 8 dereferenceable(96) %call36)
  %14 = load ptr, ptr %obj, align 8
  %call37 = invoke noundef i32 @_ZN3opt7context7executeERKNS0_9objectiveEbb(ptr noundef nonnull align 8 dereferenceable(792) %this1, ptr noundef nonnull align 8 dereferenceable(100) %14, i1 noundef zeroext false, i1 noundef zeroext false)
          to label %invoke.cont unwind label %lpad

invoke.cont:                                      ; preds = %if.then35
  store i32 %call37, ptr %r, align 4
  %m_box_models38 = getelementptr inbounds %"class.opt::context", ptr %this1, i32 0, i32 16
  %m_model39 = getelementptr inbounds %"class.opt::context", ptr %this1, i32 0, i32 23
  %call41 = invoke noundef ptr @_ZNK3refI5modelE3getEv(ptr noundef nonnull align 8 dereferenceable(8) %m_model39)
          to label %invoke.cont40 unwind label %lpad

invoke.cont40:                                    ; preds = %invoke.cont
  %call43 = invoke noundef nonnull align 8 dereferenceable(8) ptr @_ZN15ref_vector_coreI5model21ref_unmanaged_wrapperIS0_EE9push_backEPS0_(ptr noundef nonnull align 8 dereferenceable(8) %m_box_models38, ptr noundef %call41)
          to label %invoke.cont42 unwind label %lpad

invoke.cont42:                                    ; preds = %invoke.cont40
  call void @_ZN6solver11scoped_pushD2Ev(ptr noundef nonnull align 8 dereferenceable(9) %_sp) #3
  br label %if.end53

lpad:                                             ; preds = %invoke.cont40, %invoke.cont, %if.then35
  %15 = landingpad { ptr, i32 }
          cleanup
  %16 = extractvalue { ptr, i32 } %15, 0
  store ptr %16, ptr %exn.slot, align 8
  %17 = extractvalue { ptr, i32 } %15, 1
  store i32 %17, ptr %ehselector.slot, align 4
  call void @_ZN6solver11scoped_pushD2Ev(ptr noundef nonnull align 8 dereferenceable(9) %_sp) #3
  br label %eh.resume

if.else:                                          ; preds = %for.body
  %m_optsmt44 = getelementptr inbounds %"class.opt::context", ptr %this1, i32 0, i32 19
  %18 = load i32, ptr %j, align 4
  %call45 = call noundef ptr @_ZNK3opt6optsmt9get_modelEj(ptr noundef nonnull align 8 dereferenceable(120) %m_optsmt44, i32 noundef %18)
  store ptr %call45, ptr %mdl, align 8
  %19 = load ptr, ptr %mdl, align 8
  %tobool = icmp ne ptr %19, null
  br i1 %tobool, label %if.end49, label %if.then46

if.then46:                                        ; preds = %if.else
  %m_model47 = getelementptr inbounds %"class.opt::context", ptr %this1, i32 0, i32 23
  %call48 = call noundef ptr @_ZNK3refI5modelE3getEv(ptr noundef nonnull align 8 dereferenceable(8) %m_model47)
  store ptr %call48, ptr %mdl, align 8
  br label %if.end49

if.end49:                                         ; preds = %if.then46, %if.else
  %m_box_models50 = getelementptr inbounds %"class.opt::context", ptr %this1, i32 0, i32 16
  %20 = load ptr, ptr %mdl, align 8
  %call51 = call noundef nonnull align 8 dereferenceable(8) ptr @_ZN15ref_vector_coreI5model21ref_unmanaged_wrapperIS0_EE9push_backEPS0_(ptr noundef nonnull align 8 dereferenceable(8) %m_box_models50, ptr noundef %20)
  %21 = load i32, ptr %j, align 4
  %inc52 = add i32 %21, 1
  store i32 %inc52, ptr %j, align 4
  br label %if.end53

if.end53:                                         ; preds = %if.end49, %invoke.cont42
  br label %for.inc

for.inc:                                          ; preds = %if.end53
  %22 = load i32, ptr %i, align 4
  %inc54 = add i32 %22, 1
  store i32 %inc54, ptr %i, align 4
  br label %for.cond, !llvm.loop !14

for.end:                                          ; preds = %land.end
  %23 = load i32, ptr %r, align 4
  %cmp55 = icmp eq i32 %23, 1
  br i1 %cmp55, label %land.lhs.true56, label %if.end64

land.lhs.true56:                                  ; preds = %for.end
  %m_box_models57 = getelementptr inbounds %"class.opt::context", ptr %this1, i32 0, i32 16
  %call58 = call noundef zeroext i1 @_ZNK15ref_vector_coreI5model21ref_unmanaged_wrapperIS0_EE5emptyEv(ptr noundef nonnull align 8 dereferenceable(8) %m_box_models57)
  br i1 %call58, label %if.end64, label %if.then59

if.then59:                                        ; preds = %land.lhs.true56
  %m_box_models60 = getelementptr inbounds %"class.opt::context", ptr %this1, i32 0, i32 16
  %call61 = call noundef ptr @_ZNK15ref_vector_coreI5model21ref_unmanaged_wrapperIS0_EEixEj(ptr noundef nonnull align 8 dereferenceable(8) %m_box_models60, i32 noundef 0)
  %m_model62 = getelementptr inbounds %"class.opt::context", ptr %this1, i32 0, i32 23
  %call63 = call noundef nonnull align 8 dereferenceable(8) ptr @_ZN3refI5modelEaSEPS0_(ptr noundef nonnull align 8 dereferenceable(8) %m_model62, ptr noundef %call61)
  br label %if.end64

if.end64:                                         ; preds = %if.then59, %land.lhs.true56, %for.end
  %24 = load i32, ptr %r, align 4
  store i32 %24, ptr %retval, align 4
  br label %return

return:                                           ; preds = %if.end64, %if.then22, %if.then10, %if.then
  %25 = load i32, ptr %retval, align 4
  ret i32 %25

eh.resume:                                        ; preds = %lpad
  %exn = load ptr, ptr %exn.slot, align 8
  %sel = load i32, ptr %ehselector.slot, align 4
  %lpad.val = insertvalue { ptr, i32 } poison, ptr %exn, 0
  %lpad.val65 = insertvalue { ptr, i32 } %lpad.val, i32 %sel, 1
  resume { ptr, i32 } %lpad.val65
}

; Function Attrs: mustprogress uwtable
define hidden void @_ZN3opt7context11init_solverEv(ptr noundef nonnull align 8 dereferenceable(792) %this) #5 align 2 {
entry:
  %this.addr = alloca ptr, align 8
  store ptr %this, ptr %this.addr, align 8
  %this1 = load ptr, ptr %this.addr, align 8
  call void @_ZN3opt7context18setup_arith_solverEv(ptr noundef nonnull align 8 dereferenceable(792) %this1)
  %m_sat_solver = getelementptr inbounds %"class.opt::context", ptr %this1, i32 0, i32 12
  %call = call noundef nonnull align 8 dereferenceable(8) ptr @_ZN3refI6solverEaSEPS0_(ptr noundef nonnull align 8 dereferenceable(8) %m_sat_solver, ptr noundef null)
  %call2 = call noalias noundef ptr @_ZN6memory8allocateEm(i64 noundef 1040)
  %m = getelementptr inbounds %class.check_sat_result, ptr %this1, i32 0, i32 1
  %0 = load ptr, ptr %m, align 8
  %m_params = getelementptr inbounds %"class.opt::context", ptr %this1, i32 0, i32 18
  %m_fm = getelementptr inbounds %"class.opt::context", ptr %this1, i32 0, i32 25
  %call3 = call noundef nonnull align 8 dereferenceable(80) ptr @_ZN3refI23generic_model_converterEdeEv(ptr noundef nonnull align 8 dereferenceable(8) %m_fm)
  call void @_ZN3opt10opt_solverC1ER11ast_managerRK10params_refR23generic_model_converter(ptr noundef nonnull align 8 dereferenceable(1034) %call2, ptr noundef nonnull align 8 dereferenceable(976) %0, ptr noundef nonnull align 8 dereferenceable(8) %m_params, ptr noundef nonnull align 8 dereferenceable(80) %call3)
  %m_opt_solver = getelementptr inbounds %"class.opt::context", ptr %this1, i32 0, i32 10
  %call4 = call noundef nonnull align 8 dereferenceable(8) ptr @_ZN3refIN3opt10opt_solverEEaSEPS1_(ptr noundef nonnull align 8 dereferenceable(8) %m_opt_solver, ptr noundef %call2)
  %m_opt_solver5 = getelementptr inbounds %"class.opt::context", ptr %this1, i32 0, i32 10
  %call6 = call noundef ptr @_ZNK3refIN3opt10opt_solverEEptEv(ptr noundef nonnull align 8 dereferenceable(8) %m_opt_solver5)
  %m_logic = getelementptr inbounds %"class.opt::context", ptr %this1, i32 0, i32 41
  call void @_ZN3opt10opt_solver9set_logicERK6symbol(ptr noundef nonnull align 8 dereferenceable(1034) %call6, ptr noundef nonnull align 8 dereferenceable(8) %m_logic)
  %m_opt_solver7 = getelementptr inbounds %"class.opt::context", ptr %this1, i32 0, i32 10
  %call8 = call noundef ptr @_ZNK3refIN3opt10opt_solverEE3getEv(ptr noundef nonnull align 8 dereferenceable(8) %m_opt_solver7)
  %m_solver = getelementptr inbounds %"class.opt::context", ptr %this1, i32 0, i32 11
  %call9 = call noundef nonnull align 8 dereferenceable(8) ptr @_ZN3refI6solverEaSEPS0_(ptr noundef nonnull align 8 dereferenceable(8) %m_solver, ptr noundef %call8)
  %m_opt_solver10 = getelementptr inbounds %"class.opt::context", ptr %this1, i32 0, i32 10
  %call11 = call noundef ptr @_ZNK3refIN3opt10opt_solverEEptEv(ptr noundef nonnull align 8 dereferenceable(8) %m_opt_solver10)
  call void @_ZN3opt10opt_solver9ensure_pbEv(ptr noundef nonnull align 8 dereferenceable(1034) %call11)
  ret void
}

; Function Attrs: mustprogress uwtable
define linkonce_odr hidden void @_ZN10ref_vectorI4expr11ast_managerEC2ERKS2_(ptr noundef nonnull align 8 dereferenceable(16) %this, ptr noundef nonnull align 8 dereferenceable(16) %other) unnamed_addr #5 comdat align 2 personality ptr @__gxx_personality_v0 {
entry:
  %this.addr = alloca ptr, align 8
  %other.addr = alloca ptr, align 8
  %ref.tmp = alloca %class.ref_manager_wrapper, align 8
  %exn.slot = alloca ptr, align 8
  %ehselector.slot = alloca i32, align 4
  store ptr %this, ptr %this.addr, align 8
  store ptr %other, ptr %other.addr, align 8
  %this1 = load ptr, ptr %this.addr, align 8
  %0 = load ptr, ptr %other.addr, align 8
  %m_manager = getelementptr inbounds %class.ref_manager_wrapper, ptr %0, i32 0, i32 0
  %1 = load ptr, ptr %m_manager, align 8
  call void @_ZN19ref_manager_wrapperI4expr11ast_managerEC2ERS1_(ptr noundef nonnull align 8 dereferenceable(8) %ref.tmp, ptr noundef nonnull align 8 dereferenceable(976) %1)
  call void @_ZN15ref_vector_coreI4expr19ref_manager_wrapperIS0_11ast_managerEEC2ERKS3_(ptr noundef nonnull align 8 dereferenceable(16) %this1, ptr noundef nonnull align 8 dereferenceable(8) %ref.tmp)
  %2 = load ptr, ptr %other.addr, align 8
  invoke void @_ZN15ref_vector_coreI4expr19ref_manager_wrapperIS0_11ast_managerEE6appendERKS4_(ptr noundef nonnull align 8 dereferenceable(16) %this1, ptr noundef nonnull align 8 dereferenceable(16) %2)
          to label %invoke.cont unwind label %lpad

invoke.cont:                                      ; preds = %entry
  ret void

lpad:                                             ; preds = %entry
  %3 = landingpad { ptr, i32 }
          cleanup
  %4 = extractvalue { ptr, i32 } %3, 0
  store ptr %4, ptr %exn.slot, align 8
  %5 = extractvalue { ptr, i32 } %3, 1
